


Disassembly of section .text:

00000000000050a0 <_start>:
    50a0:	f3 0f 1e fa          	endbr64 
    50a4:	31 ed                	xor    %ebp,%ebp
    50a6:	49 89 d1             	mov    %rdx,%r9
    50a9:	5e                   	pop    %rsi
    50aa:	48 89 e2             	mov    %rsp,%rdx
    50ad:	48 83 e4 f0          	and    $0xfffffffffffffff0,%rsp
    50b1:	50                   	push   %rax
    50b2:	54                   	push   %rsp
    50b3:	4c 8d 05 26 16 01 00 	lea    0x11626(%rip),%r8        # 166e0 <__libc_csu_fini>
    50ba:	48 8d 0d af 15 01 00 	lea    0x115af(%rip),%rcx        # 16670 <__libc_csu_init>
    50c1:	48 8d 3d f4 f2 00 00 	lea    0xf2f4(%rip),%rdi        # 143bc <main>
    50c8:	ff 15 12 5f 01 00    	callq  *0x15f12(%rip)        # 1afe0 <__libc_start_main@GLIBC_2.2.5>
    50ce:	f4                   	hlt    
    50cf:	90                   	nop

00000000000050d0 <deregister_tm_clones>:
    50d0:	48 8d 3d 29 8b 01 00 	lea    0x18b29(%rip),%rdi        # 1dc00 <__TMC_END__>
    50d7:	48 8d 05 22 8b 01 00 	lea    0x18b22(%rip),%rax        # 1dc00 <__TMC_END__>
    50de:	48 39 f8             	cmp    %rdi,%rax
    50e1:	74 15                	je     50f8 <deregister_tm_clones+0x28>
    50e3:	48 8b 05 ee 5e 01 00 	mov    0x15eee(%rip),%rax        # 1afd8 <_ITM_deregisterTMCloneTable>
    50ea:	48 85 c0             	test   %rax,%rax
    50ed:	74 09                	je     50f8 <deregister_tm_clones+0x28>
    50ef:	ff e0                	jmpq   *%rax
    50f1:	0f 1f 80 00 00 00 00 	nopl   0x0(%rax)
    50f8:	c3                   	retq   
    50f9:	0f 1f 80 00 00 00 00 	nopl   0x0(%rax)

0000000000005100 <register_tm_clones>:
    5100:	48 8d 3d f9 8a 01 00 	lea    0x18af9(%rip),%rdi        # 1dc00 <__TMC_END__>
    5107:	48 8d 35 f2 8a 01 00 	lea    0x18af2(%rip),%rsi        # 1dc00 <__TMC_END__>
    510e:	48 29 fe             	sub    %rdi,%rsi
    5111:	48 89 f0             	mov    %rsi,%rax
    5114:	48 c1 ee 3f          	shr    $0x3f,%rsi
    5118:	48 c1 f8 03          	sar    $0x3,%rax
    511c:	48 01 c6             	add    %rax,%rsi
    511f:	48 d1 fe             	sar    %rsi
    5122:	74 14                	je     5138 <register_tm_clones+0x38>
    5124:	48 8b 05 c5 5e 01 00 	mov    0x15ec5(%rip),%rax        # 1aff0 <_ITM_registerTMCloneTable>
    512b:	48 85 c0             	test   %rax,%rax
    512e:	74 08                	je     5138 <register_tm_clones+0x38>
    5130:	ff e0                	jmpq   *%rax
    5132:	66 0f 1f 44 00 00    	nopw   0x0(%rax,%rax,1)
    5138:	c3                   	retq   
    5139:	0f 1f 80 00 00 00 00 	nopl   0x0(%rax)

0000000000005140 <__do_global_dtors_aux>:
    5140:	f3 0f 1e fa          	endbr64 
    5144:	80 3d b5 8a 01 00 00 	cmpb   $0x0,0x18ab5(%rip)        # 1dc00 <__TMC_END__>
    514b:	75 2b                	jne    5178 <__do_global_dtors_aux+0x38>
    514d:	55                   	push   %rbp
    514e:	48 83 3d a2 5e 01 00 	cmpq   $0x0,0x15ea2(%rip)        # 1aff8 <__cxa_finalize@GLIBC_2.2.5>
    5155:	00 
    5156:	48 89 e5             	mov    %rsp,%rbp
    5159:	74 0c                	je     5167 <__do_global_dtors_aux+0x27>
    515b:	48 8b 3d a6 5e 01 00 	mov    0x15ea6(%rip),%rdi        # 1b008 <__dso_handle>
    5162:	e8 f9 fe ff ff       	callq  5060 <__cxa_finalize@plt>
    5167:	e8 64 ff ff ff       	callq  50d0 <deregister_tm_clones>
    516c:	c6 05 8d 8a 01 00 01 	movb   $0x1,0x18a8d(%rip)        # 1dc00 <__TMC_END__>
    5173:	5d                   	pop    %rbp
    5174:	c3                   	retq   
    5175:	0f 1f 00             	nopl   (%rax)
    5178:	c3                   	retq   
    5179:	0f 1f 80 00 00 00 00 	nopl   0x0(%rax)

0000000000005180 <frame_dummy>:
    5180:	f3 0f 1e fa          	endbr64 
    5184:	e9 77 ff ff ff       	jmpq   5100 <register_tm_clones>

0000000000005189 <platform_main_begin>:
    5189:	f3 0f 1e fa          	endbr64 
    518d:	55                   	push   %rbp
    518e:	48 89 e5             	mov    %rsp,%rbp
    5191:	90                   	nop
    5192:	5d                   	pop    %rbp
    5193:	c3                   	retq   

0000000000005194 <platform_main_end>:
    5194:	f3 0f 1e fa          	endbr64 
    5198:	55                   	push   %rbp
    5199:	48 89 e5             	mov    %rsp,%rbp
    519c:	48 83 ec 10          	sub    $0x10,%rsp
    51a0:	89 7d fc             	mov    %edi,-0x4(%rbp)
    51a3:	89 75 f8             	mov    %esi,-0x8(%rbp)
    51a6:	8b 45 fc             	mov    -0x4(%rbp),%eax
    51a9:	89 c6                	mov    %eax,%esi
    51ab:	48 8d 3d 6e 1e 01 00 	lea    0x11e6e(%rip),%rdi        # 17020 <_IO_stdin_used+0x20>
    51b2:	b8 00 00 00 00       	mov    $0x0,%eax
    51b7:	e8 c4 fe ff ff       	callq  5080 <printf@plt>
    51bc:	90                   	nop
    51bd:	c9                   	leaveq 
    51be:	c3                   	retq   

00000000000051bf <safe_unary_minus_func_int8_t_s>:
    51bf:	f3 0f 1e fa          	endbr64 
    51c3:	55                   	push   %rbp
    51c4:	48 89 e5             	mov    %rsp,%rbp
    51c7:	89 f8                	mov    %edi,%eax
    51c9:	88 45 fc             	mov    %al,-0x4(%rbp)
    51cc:	0f b6 45 fc          	movzbl -0x4(%rbp),%eax
    51d0:	f7 d8                	neg    %eax
    51d2:	5d                   	pop    %rbp
    51d3:	c3                   	retq   

00000000000051d4 <safe_add_func_int8_t_s_s>:
    51d4:	f3 0f 1e fa          	endbr64 
    51d8:	55                   	push   %rbp
    51d9:	48 89 e5             	mov    %rsp,%rbp
    51dc:	89 fa                	mov    %edi,%edx
    51de:	89 f0                	mov    %esi,%eax
    51e0:	88 55 fc             	mov    %dl,-0x4(%rbp)
    51e3:	88 45 f8             	mov    %al,-0x8(%rbp)
    51e6:	0f b6 55 fc          	movzbl -0x4(%rbp),%edx
    51ea:	0f b6 45 f8          	movzbl -0x8(%rbp),%eax
    51ee:	01 d0                	add    %edx,%eax
    51f0:	5d                   	pop    %rbp
    51f1:	c3                   	retq   

00000000000051f2 <safe_sub_func_int8_t_s_s>:
    51f2:	f3 0f 1e fa          	endbr64 
    51f6:	55                   	push   %rbp
    51f7:	48 89 e5             	mov    %rsp,%rbp
    51fa:	89 fa                	mov    %edi,%edx
    51fc:	89 f0                	mov    %esi,%eax
    51fe:	88 55 fc             	mov    %dl,-0x4(%rbp)
    5201:	88 45 f8             	mov    %al,-0x8(%rbp)
    5204:	0f b6 55 fc          	movzbl -0x4(%rbp),%edx
    5208:	0f b6 45 f8          	movzbl -0x8(%rbp),%eax
    520c:	29 c2                	sub    %eax,%edx
    520e:	89 d0                	mov    %edx,%eax
    5210:	5d                   	pop    %rbp
    5211:	c3                   	retq   

0000000000005212 <safe_mul_func_int8_t_s_s>:
    5212:	f3 0f 1e fa          	endbr64 
    5216:	55                   	push   %rbp
    5217:	48 89 e5             	mov    %rsp,%rbp
    521a:	89 fa                	mov    %edi,%edx
    521c:	89 f0                	mov    %esi,%eax
    521e:	88 55 fc             	mov    %dl,-0x4(%rbp)
    5221:	88 45 f8             	mov    %al,-0x8(%rbp)
    5224:	0f b6 45 fc          	movzbl -0x4(%rbp),%eax
    5228:	0f b6 55 f8          	movzbl -0x8(%rbp),%edx
    522c:	0f af c2             	imul   %edx,%eax
    522f:	5d                   	pop    %rbp
    5230:	c3                   	retq   

0000000000005231 <safe_mod_func_int8_t_s_s>:
    5231:	f3 0f 1e fa          	endbr64 
    5235:	55                   	push   %rbp
    5236:	48 89 e5             	mov    %rsp,%rbp
    5239:	89 fa                	mov    %edi,%edx
    523b:	89 f0                	mov    %esi,%eax
    523d:	88 55 fc             	mov    %dl,-0x4(%rbp)
    5240:	88 45 f8             	mov    %al,-0x8(%rbp)
    5243:	80 7d f8 00          	cmpb   $0x0,-0x8(%rbp)
    5247:	74 1b                	je     5264 <safe_mod_func_int8_t_s_s+0x33>
    5249:	80 7d fc 80          	cmpb   $0x80,-0x4(%rbp)
    524d:	75 06                	jne    5255 <safe_mod_func_int8_t_s_s+0x24>
    524f:	80 7d f8 ff          	cmpb   $0xff,-0x8(%rbp)
    5253:	74 0f                	je     5264 <safe_mod_func_int8_t_s_s+0x33>
    5255:	0f be 45 fc          	movsbl -0x4(%rbp),%eax
    5259:	0f be 4d f8          	movsbl -0x8(%rbp),%ecx
    525d:	99                   	cltd   
    525e:	f7 f9                	idiv   %ecx
    5260:	89 d0                	mov    %edx,%eax
    5262:	eb 04                	jmp    5268 <safe_mod_func_int8_t_s_s+0x37>
    5264:	0f b6 45 fc          	movzbl -0x4(%rbp),%eax
    5268:	5d                   	pop    %rbp
    5269:	c3                   	retq   

000000000000526a <safe_div_func_int8_t_s_s>:
    526a:	f3 0f 1e fa          	endbr64 
    526e:	55                   	push   %rbp
    526f:	48 89 e5             	mov    %rsp,%rbp
    5272:	89 fa                	mov    %edi,%edx
    5274:	89 f0                	mov    %esi,%eax
    5276:	88 55 fc             	mov    %dl,-0x4(%rbp)
    5279:	88 45 f8             	mov    %al,-0x8(%rbp)
    527c:	80 7d f8 00          	cmpb   $0x0,-0x8(%rbp)
    5280:	74 19                	je     529b <safe_div_func_int8_t_s_s+0x31>
    5282:	80 7d fc 80          	cmpb   $0x80,-0x4(%rbp)
    5286:	75 06                	jne    528e <safe_div_func_int8_t_s_s+0x24>
    5288:	80 7d f8 ff          	cmpb   $0xff,-0x8(%rbp)
    528c:	74 0d                	je     529b <safe_div_func_int8_t_s_s+0x31>
    528e:	0f be 45 fc          	movsbl -0x4(%rbp),%eax
    5292:	0f be 4d f8          	movsbl -0x8(%rbp),%ecx
    5296:	99                   	cltd   
    5297:	f7 f9                	idiv   %ecx
    5299:	eb 04                	jmp    529f <safe_div_func_int8_t_s_s+0x35>
    529b:	0f b6 45 fc          	movzbl -0x4(%rbp),%eax
    529f:	5d                   	pop    %rbp
    52a0:	c3                   	retq   

00000000000052a1 <safe_lshift_func_int8_t_s_s>:
    52a1:	f3 0f 1e fa          	endbr64 
    52a5:	55                   	push   %rbp
    52a6:	48 89 e5             	mov    %rsp,%rbp
    52a9:	89 f8                	mov    %edi,%eax
    52ab:	89 75 f8             	mov    %esi,-0x8(%rbp)
    52ae:	88 45 fc             	mov    %al,-0x4(%rbp)
    52b1:	80 7d fc 00          	cmpb   $0x0,-0x4(%rbp)
    52b5:	78 31                	js     52e8 <safe_lshift_func_int8_t_s_s+0x47>
    52b7:	83 7d f8 00          	cmpl   $0x0,-0x8(%rbp)
    52bb:	78 2b                	js     52e8 <safe_lshift_func_int8_t_s_s+0x47>
    52bd:	83 7d f8 1f          	cmpl   $0x1f,-0x8(%rbp)
    52c1:	7f 25                	jg     52e8 <safe_lshift_func_int8_t_s_s+0x47>
    52c3:	0f be 55 fc          	movsbl -0x4(%rbp),%edx
    52c7:	8b 45 f8             	mov    -0x8(%rbp),%eax
    52ca:	be 7f 00 00 00       	mov    $0x7f,%esi
    52cf:	89 c1                	mov    %eax,%ecx
    52d1:	d3 fe                	sar    %cl,%esi
    52d3:	89 f0                	mov    %esi,%eax
    52d5:	39 c2                	cmp    %eax,%edx
    52d7:	7f 0f                	jg     52e8 <safe_lshift_func_int8_t_s_s+0x47>
    52d9:	0f be 55 fc          	movsbl -0x4(%rbp),%edx
    52dd:	8b 45 f8             	mov    -0x8(%rbp),%eax
    52e0:	89 c1                	mov    %eax,%ecx
    52e2:	d3 e2                	shl    %cl,%edx
    52e4:	89 d0                	mov    %edx,%eax
    52e6:	eb 04                	jmp    52ec <safe_lshift_func_int8_t_s_s+0x4b>
    52e8:	0f b6 45 fc          	movzbl -0x4(%rbp),%eax
    52ec:	5d                   	pop    %rbp
    52ed:	c3                   	retq   

00000000000052ee <safe_lshift_func_int8_t_s_u>:
    52ee:	f3 0f 1e fa          	endbr64 
    52f2:	55                   	push   %rbp
    52f3:	48 89 e5             	mov    %rsp,%rbp
    52f6:	89 f8                	mov    %edi,%eax
    52f8:	89 75 f8             	mov    %esi,-0x8(%rbp)
    52fb:	88 45 fc             	mov    %al,-0x4(%rbp)
    52fe:	80 7d fc 00          	cmpb   $0x0,-0x4(%rbp)
    5302:	78 2b                	js     532f <safe_lshift_func_int8_t_s_u+0x41>
    5304:	83 7d f8 1f          	cmpl   $0x1f,-0x8(%rbp)
    5308:	77 25                	ja     532f <safe_lshift_func_int8_t_s_u+0x41>
    530a:	0f be 55 fc          	movsbl -0x4(%rbp),%edx
    530e:	8b 45 f8             	mov    -0x8(%rbp),%eax
    5311:	be 7f 00 00 00       	mov    $0x7f,%esi
    5316:	89 c1                	mov    %eax,%ecx
    5318:	d3 fe                	sar    %cl,%esi
    531a:	89 f0                	mov    %esi,%eax
    531c:	39 c2                	cmp    %eax,%edx
    531e:	7f 0f                	jg     532f <safe_lshift_func_int8_t_s_u+0x41>
    5320:	0f be 55 fc          	movsbl -0x4(%rbp),%edx
    5324:	8b 45 f8             	mov    -0x8(%rbp),%eax
    5327:	89 c1                	mov    %eax,%ecx
    5329:	d3 e2                	shl    %cl,%edx
    532b:	89 d0                	mov    %edx,%eax
    532d:	eb 04                	jmp    5333 <safe_lshift_func_int8_t_s_u+0x45>
    532f:	0f b6 45 fc          	movzbl -0x4(%rbp),%eax
    5333:	5d                   	pop    %rbp
    5334:	c3                   	retq   

0000000000005335 <safe_rshift_func_int8_t_s_s>:
    5335:	f3 0f 1e fa          	endbr64 
    5339:	55                   	push   %rbp
    533a:	48 89 e5             	mov    %rsp,%rbp
    533d:	89 f8                	mov    %edi,%eax
    533f:	89 75 f8             	mov    %esi,-0x8(%rbp)
    5342:	88 45 fc             	mov    %al,-0x4(%rbp)
    5345:	80 7d fc 00          	cmpb   $0x0,-0x4(%rbp)
    5349:	78 1b                	js     5366 <safe_rshift_func_int8_t_s_s+0x31>
    534b:	83 7d f8 00          	cmpl   $0x0,-0x8(%rbp)
    534f:	78 15                	js     5366 <safe_rshift_func_int8_t_s_s+0x31>
    5351:	83 7d f8 1f          	cmpl   $0x1f,-0x8(%rbp)
    5355:	7f 0f                	jg     5366 <safe_rshift_func_int8_t_s_s+0x31>
    5357:	0f be 55 fc          	movsbl -0x4(%rbp),%edx
    535b:	8b 45 f8             	mov    -0x8(%rbp),%eax
    535e:	89 c1                	mov    %eax,%ecx
    5360:	d3 fa                	sar    %cl,%edx
    5362:	89 d0                	mov    %edx,%eax
    5364:	eb 04                	jmp    536a <safe_rshift_func_int8_t_s_s+0x35>
    5366:	0f b6 45 fc          	movzbl -0x4(%rbp),%eax
    536a:	5d                   	pop    %rbp
    536b:	c3                   	retq   

000000000000536c <safe_rshift_func_int8_t_s_u>:
    536c:	f3 0f 1e fa          	endbr64 
    5370:	55                   	push   %rbp
    5371:	48 89 e5             	mov    %rsp,%rbp
    5374:	89 f8                	mov    %edi,%eax
    5376:	89 75 f8             	mov    %esi,-0x8(%rbp)
    5379:	88 45 fc             	mov    %al,-0x4(%rbp)
    537c:	80 7d fc 00          	cmpb   $0x0,-0x4(%rbp)
    5380:	78 15                	js     5397 <safe_rshift_func_int8_t_s_u+0x2b>
    5382:	83 7d f8 1f          	cmpl   $0x1f,-0x8(%rbp)
    5386:	77 0f                	ja     5397 <safe_rshift_func_int8_t_s_u+0x2b>
    5388:	0f be 55 fc          	movsbl -0x4(%rbp),%edx
    538c:	8b 45 f8             	mov    -0x8(%rbp),%eax
    538f:	89 c1                	mov    %eax,%ecx
    5391:	d3 fa                	sar    %cl,%edx
    5393:	89 d0                	mov    %edx,%eax
    5395:	eb 04                	jmp    539b <safe_rshift_func_int8_t_s_u+0x2f>
    5397:	0f b6 45 fc          	movzbl -0x4(%rbp),%eax
    539b:	5d                   	pop    %rbp
    539c:	c3                   	retq   

000000000000539d <safe_unary_minus_func_int16_t_s>:
    539d:	f3 0f 1e fa          	endbr64 
    53a1:	55                   	push   %rbp
    53a2:	48 89 e5             	mov    %rsp,%rbp
    53a5:	89 f8                	mov    %edi,%eax
    53a7:	66 89 45 fc          	mov    %ax,-0x4(%rbp)
    53ab:	0f b7 45 fc          	movzwl -0x4(%rbp),%eax
    53af:	f7 d8                	neg    %eax
    53b1:	5d                   	pop    %rbp
    53b2:	c3                   	retq   

00000000000053b3 <safe_add_func_int16_t_s_s>:
    53b3:	f3 0f 1e fa          	endbr64 
    53b7:	55                   	push   %rbp
    53b8:	48 89 e5             	mov    %rsp,%rbp
    53bb:	89 fa                	mov    %edi,%edx
    53bd:	89 f0                	mov    %esi,%eax
    53bf:	66 89 55 fc          	mov    %dx,-0x4(%rbp)
    53c3:	66 89 45 f8          	mov    %ax,-0x8(%rbp)
    53c7:	0f b7 55 fc          	movzwl -0x4(%rbp),%edx
    53cb:	0f b7 45 f8          	movzwl -0x8(%rbp),%eax
    53cf:	01 d0                	add    %edx,%eax
    53d1:	5d                   	pop    %rbp
    53d2:	c3                   	retq   

00000000000053d3 <safe_sub_func_int16_t_s_s>:
    53d3:	f3 0f 1e fa          	endbr64 
    53d7:	55                   	push   %rbp
    53d8:	48 89 e5             	mov    %rsp,%rbp
    53db:	89 fa                	mov    %edi,%edx
    53dd:	89 f0                	mov    %esi,%eax
    53df:	66 89 55 fc          	mov    %dx,-0x4(%rbp)
    53e3:	66 89 45 f8          	mov    %ax,-0x8(%rbp)
    53e7:	0f b7 55 fc          	movzwl -0x4(%rbp),%edx
    53eb:	0f b7 45 f8          	movzwl -0x8(%rbp),%eax
    53ef:	29 c2                	sub    %eax,%edx
    53f1:	89 d0                	mov    %edx,%eax
    53f3:	5d                   	pop    %rbp
    53f4:	c3                   	retq   

00000000000053f5 <safe_mul_func_int16_t_s_s>:
    53f5:	f3 0f 1e fa          	endbr64 
    53f9:	55                   	push   %rbp
    53fa:	48 89 e5             	mov    %rsp,%rbp
    53fd:	89 fa                	mov    %edi,%edx
    53ff:	89 f0                	mov    %esi,%eax
    5401:	66 89 55 fc          	mov    %dx,-0x4(%rbp)
    5405:	66 89 45 f8          	mov    %ax,-0x8(%rbp)
    5409:	0f b7 55 fc          	movzwl -0x4(%rbp),%edx
    540d:	0f b7 45 f8          	movzwl -0x8(%rbp),%eax
    5411:	0f af c2             	imul   %edx,%eax
    5414:	5d                   	pop    %rbp
    5415:	c3                   	retq   

0000000000005416 <safe_mod_func_int16_t_s_s>:
    5416:	f3 0f 1e fa          	endbr64 
    541a:	55                   	push   %rbp
    541b:	48 89 e5             	mov    %rsp,%rbp
    541e:	89 fa                	mov    %edi,%edx
    5420:	89 f0                	mov    %esi,%eax
    5422:	66 89 55 fc          	mov    %dx,-0x4(%rbp)
    5426:	66 89 45 f8          	mov    %ax,-0x8(%rbp)
    542a:	66 83 7d f8 00       	cmpw   $0x0,-0x8(%rbp)
    542f:	74 1e                	je     544f <safe_mod_func_int16_t_s_s+0x39>
    5431:	66 81 7d fc 00 80    	cmpw   $0x8000,-0x4(%rbp)
    5437:	75 07                	jne    5440 <safe_mod_func_int16_t_s_s+0x2a>
    5439:	66 83 7d f8 ff       	cmpw   $0xffff,-0x8(%rbp)
    543e:	74 0f                	je     544f <safe_mod_func_int16_t_s_s+0x39>
    5440:	0f bf 45 fc          	movswl -0x4(%rbp),%eax
    5444:	0f bf 4d f8          	movswl -0x8(%rbp),%ecx
    5448:	99                   	cltd   
    5449:	f7 f9                	idiv   %ecx
    544b:	89 d0                	mov    %edx,%eax
    544d:	eb 04                	jmp    5453 <safe_mod_func_int16_t_s_s+0x3d>
    544f:	0f b7 45 fc          	movzwl -0x4(%rbp),%eax
    5453:	5d                   	pop    %rbp
    5454:	c3                   	retq   

0000000000005455 <safe_div_func_int16_t_s_s>:
    5455:	f3 0f 1e fa          	endbr64 
    5459:	55                   	push   %rbp
    545a:	48 89 e5             	mov    %rsp,%rbp
    545d:	89 fa                	mov    %edi,%edx
    545f:	89 f0                	mov    %esi,%eax
    5461:	66 89 55 fc          	mov    %dx,-0x4(%rbp)
    5465:	66 89 45 f8          	mov    %ax,-0x8(%rbp)
    5469:	66 83 7d f8 00       	cmpw   $0x0,-0x8(%rbp)
    546e:	74 1c                	je     548c <safe_div_func_int16_t_s_s+0x37>
    5470:	66 81 7d fc 00 80    	cmpw   $0x8000,-0x4(%rbp)
    5476:	75 07                	jne    547f <safe_div_func_int16_t_s_s+0x2a>
    5478:	66 83 7d f8 ff       	cmpw   $0xffff,-0x8(%rbp)
    547d:	74 0d                	je     548c <safe_div_func_int16_t_s_s+0x37>
    547f:	0f bf 45 fc          	movswl -0x4(%rbp),%eax
    5483:	0f bf 4d f8          	movswl -0x8(%rbp),%ecx
    5487:	99                   	cltd   
    5488:	f7 f9                	idiv   %ecx
    548a:	eb 04                	jmp    5490 <safe_div_func_int16_t_s_s+0x3b>
    548c:	0f b7 45 fc          	movzwl -0x4(%rbp),%eax
    5490:	5d                   	pop    %rbp
    5491:	c3                   	retq   

0000000000005492 <safe_lshift_func_int16_t_s_s>:
    5492:	f3 0f 1e fa          	endbr64 
    5496:	55                   	push   %rbp
    5497:	48 89 e5             	mov    %rsp,%rbp
    549a:	89 f8                	mov    %edi,%eax
    549c:	89 75 f8             	mov    %esi,-0x8(%rbp)
    549f:	66 89 45 fc          	mov    %ax,-0x4(%rbp)
    54a3:	66 83 7d fc 00       	cmpw   $0x0,-0x4(%rbp)
    54a8:	78 31                	js     54db <safe_lshift_func_int16_t_s_s+0x49>
    54aa:	83 7d f8 00          	cmpl   $0x0,-0x8(%rbp)
    54ae:	78 2b                	js     54db <safe_lshift_func_int16_t_s_s+0x49>
    54b0:	83 7d f8 1f          	cmpl   $0x1f,-0x8(%rbp)
    54b4:	7f 25                	jg     54db <safe_lshift_func_int16_t_s_s+0x49>
    54b6:	0f bf 55 fc          	movswl -0x4(%rbp),%edx
    54ba:	8b 45 f8             	mov    -0x8(%rbp),%eax
    54bd:	be ff 7f 00 00       	mov    $0x7fff,%esi
    54c2:	89 c1                	mov    %eax,%ecx
    54c4:	d3 fe                	sar    %cl,%esi
    54c6:	89 f0                	mov    %esi,%eax
    54c8:	39 c2                	cmp    %eax,%edx
    54ca:	7f 0f                	jg     54db <safe_lshift_func_int16_t_s_s+0x49>
    54cc:	0f bf 55 fc          	movswl -0x4(%rbp),%edx
    54d0:	8b 45 f8             	mov    -0x8(%rbp),%eax
    54d3:	89 c1                	mov    %eax,%ecx
    54d5:	d3 e2                	shl    %cl,%edx
    54d7:	89 d0                	mov    %edx,%eax
    54d9:	eb 04                	jmp    54df <safe_lshift_func_int16_t_s_s+0x4d>
    54db:	0f b7 45 fc          	movzwl -0x4(%rbp),%eax
    54df:	5d                   	pop    %rbp
    54e0:	c3                   	retq   

00000000000054e1 <safe_lshift_func_int16_t_s_u>:
    54e1:	f3 0f 1e fa          	endbr64 
    54e5:	55                   	push   %rbp
    54e6:	48 89 e5             	mov    %rsp,%rbp
    54e9:	89 f8                	mov    %edi,%eax
    54eb:	89 75 f8             	mov    %esi,-0x8(%rbp)
    54ee:	66 89 45 fc          	mov    %ax,-0x4(%rbp)
    54f2:	66 83 7d fc 00       	cmpw   $0x0,-0x4(%rbp)
    54f7:	78 2b                	js     5524 <safe_lshift_func_int16_t_s_u+0x43>
    54f9:	83 7d f8 1f          	cmpl   $0x1f,-0x8(%rbp)
    54fd:	77 25                	ja     5524 <safe_lshift_func_int16_t_s_u+0x43>
    54ff:	0f bf 55 fc          	movswl -0x4(%rbp),%edx
    5503:	8b 45 f8             	mov    -0x8(%rbp),%eax
    5506:	be ff 7f 00 00       	mov    $0x7fff,%esi
    550b:	89 c1                	mov    %eax,%ecx
    550d:	d3 fe                	sar    %cl,%esi
    550f:	89 f0                	mov    %esi,%eax
    5511:	39 c2                	cmp    %eax,%edx
    5513:	7f 0f                	jg     5524 <safe_lshift_func_int16_t_s_u+0x43>
    5515:	0f bf 55 fc          	movswl -0x4(%rbp),%edx
    5519:	8b 45 f8             	mov    -0x8(%rbp),%eax
    551c:	89 c1                	mov    %eax,%ecx
    551e:	d3 e2                	shl    %cl,%edx
    5520:	89 d0                	mov    %edx,%eax
    5522:	eb 04                	jmp    5528 <safe_lshift_func_int16_t_s_u+0x47>
    5524:	0f b7 45 fc          	movzwl -0x4(%rbp),%eax
    5528:	5d                   	pop    %rbp
    5529:	c3                   	retq   

000000000000552a <safe_rshift_func_int16_t_s_s>:
    552a:	f3 0f 1e fa          	endbr64 
    552e:	55                   	push   %rbp
    552f:	48 89 e5             	mov    %rsp,%rbp
    5532:	89 f8                	mov    %edi,%eax
    5534:	89 75 f8             	mov    %esi,-0x8(%rbp)
    5537:	66 89 45 fc          	mov    %ax,-0x4(%rbp)
    553b:	66 83 7d fc 00       	cmpw   $0x0,-0x4(%rbp)
    5540:	78 1b                	js     555d <safe_rshift_func_int16_t_s_s+0x33>
    5542:	83 7d f8 00          	cmpl   $0x0,-0x8(%rbp)
    5546:	78 15                	js     555d <safe_rshift_func_int16_t_s_s+0x33>
    5548:	83 7d f8 1f          	cmpl   $0x1f,-0x8(%rbp)
    554c:	7f 0f                	jg     555d <safe_rshift_func_int16_t_s_s+0x33>
    554e:	0f bf 55 fc          	movswl -0x4(%rbp),%edx
    5552:	8b 45 f8             	mov    -0x8(%rbp),%eax
    5555:	89 c1                	mov    %eax,%ecx
    5557:	d3 fa                	sar    %cl,%edx
    5559:	89 d0                	mov    %edx,%eax
    555b:	eb 04                	jmp    5561 <safe_rshift_func_int16_t_s_s+0x37>
    555d:	0f b7 45 fc          	movzwl -0x4(%rbp),%eax
    5561:	5d                   	pop    %rbp
    5562:	c3                   	retq   

0000000000005563 <safe_rshift_func_int16_t_s_u>:
    5563:	f3 0f 1e fa          	endbr64 
    5567:	55                   	push   %rbp
    5568:	48 89 e5             	mov    %rsp,%rbp
    556b:	89 f8                	mov    %edi,%eax
    556d:	89 75 f8             	mov    %esi,-0x8(%rbp)
    5570:	66 89 45 fc          	mov    %ax,-0x4(%rbp)
    5574:	66 83 7d fc 00       	cmpw   $0x0,-0x4(%rbp)
    5579:	78 15                	js     5590 <safe_rshift_func_int16_t_s_u+0x2d>
    557b:	83 7d f8 1f          	cmpl   $0x1f,-0x8(%rbp)
    557f:	77 0f                	ja     5590 <safe_rshift_func_int16_t_s_u+0x2d>
    5581:	0f bf 55 fc          	movswl -0x4(%rbp),%edx
    5585:	8b 45 f8             	mov    -0x8(%rbp),%eax
    5588:	89 c1                	mov    %eax,%ecx
    558a:	d3 fa                	sar    %cl,%edx
    558c:	89 d0                	mov    %edx,%eax
    558e:	eb 04                	jmp    5594 <safe_rshift_func_int16_t_s_u+0x31>
    5590:	0f b7 45 fc          	movzwl -0x4(%rbp),%eax
    5594:	5d                   	pop    %rbp
    5595:	c3                   	retq   

0000000000005596 <safe_unary_minus_func_int32_t_s>:
    5596:	f3 0f 1e fa          	endbr64 
    559a:	55                   	push   %rbp
    559b:	48 89 e5             	mov    %rsp,%rbp
    559e:	89 7d fc             	mov    %edi,-0x4(%rbp)
    55a1:	81 7d fc 00 00 00 80 	cmpl   $0x80000000,-0x4(%rbp)
    55a8:	74 07                	je     55b1 <safe_unary_minus_func_int32_t_s+0x1b>
    55aa:	8b 45 fc             	mov    -0x4(%rbp),%eax
    55ad:	f7 d8                	neg    %eax
    55af:	eb 03                	jmp    55b4 <safe_unary_minus_func_int32_t_s+0x1e>
    55b1:	8b 45 fc             	mov    -0x4(%rbp),%eax
    55b4:	5d                   	pop    %rbp
    55b5:	c3                   	retq   

00000000000055b6 <safe_add_func_int32_t_s_s>:
    55b6:	f3 0f 1e fa          	endbr64 
    55ba:	55                   	push   %rbp
    55bb:	48 89 e5             	mov    %rsp,%rbp
    55be:	89 7d fc             	mov    %edi,-0x4(%rbp)
    55c1:	89 75 f8             	mov    %esi,-0x8(%rbp)
    55c4:	83 7d fc 00          	cmpl   $0x0,-0x4(%rbp)
    55c8:	7e 13                	jle    55dd <safe_add_func_int32_t_s_s+0x27>
    55ca:	83 7d f8 00          	cmpl   $0x0,-0x8(%rbp)
    55ce:	7e 0d                	jle    55dd <safe_add_func_int32_t_s_s+0x27>
    55d0:	b8 ff ff ff 7f       	mov    $0x7fffffff,%eax
    55d5:	2b 45 f8             	sub    -0x8(%rbp),%eax
    55d8:	39 45 fc             	cmp    %eax,-0x4(%rbp)
    55db:	7f 23                	jg     5600 <safe_add_func_int32_t_s_s+0x4a>
    55dd:	83 7d fc 00          	cmpl   $0x0,-0x4(%rbp)
    55e1:	79 13                	jns    55f6 <safe_add_func_int32_t_s_s+0x40>
    55e3:	83 7d f8 00          	cmpl   $0x0,-0x8(%rbp)
    55e7:	79 0d                	jns    55f6 <safe_add_func_int32_t_s_s+0x40>
    55e9:	b8 00 00 00 80       	mov    $0x80000000,%eax
    55ee:	2b 45 f8             	sub    -0x8(%rbp),%eax
    55f1:	39 45 fc             	cmp    %eax,-0x4(%rbp)
    55f4:	7c 0a                	jl     5600 <safe_add_func_int32_t_s_s+0x4a>
    55f6:	8b 55 fc             	mov    -0x4(%rbp),%edx
    55f9:	8b 45 f8             	mov    -0x8(%rbp),%eax
    55fc:	01 d0                	add    %edx,%eax
    55fe:	eb 03                	jmp    5603 <safe_add_func_int32_t_s_s+0x4d>
    5600:	8b 45 fc             	mov    -0x4(%rbp),%eax
    5603:	5d                   	pop    %rbp
    5604:	c3                   	retq   

0000000000005605 <safe_sub_func_int32_t_s_s>:
    5605:	f3 0f 1e fa          	endbr64 
    5609:	55                   	push   %rbp
    560a:	48 89 e5             	mov    %rsp,%rbp
    560d:	89 7d fc             	mov    %edi,-0x4(%rbp)
    5610:	89 75 f8             	mov    %esi,-0x8(%rbp)
    5613:	8b 45 fc             	mov    -0x4(%rbp),%eax
    5616:	33 45 f8             	xor    -0x8(%rbp),%eax
    5619:	89 c2                	mov    %eax,%edx
    561b:	8b 45 fc             	mov    -0x4(%rbp),%eax
    561e:	33 45 f8             	xor    -0x8(%rbp),%eax
    5621:	25 00 00 00 80       	and    $0x80000000,%eax
    5626:	33 45 fc             	xor    -0x4(%rbp),%eax
    5629:	2b 45 f8             	sub    -0x8(%rbp),%eax
    562c:	33 45 f8             	xor    -0x8(%rbp),%eax
    562f:	21 d0                	and    %edx,%eax
    5631:	85 c0                	test   %eax,%eax
    5633:	78 08                	js     563d <safe_sub_func_int32_t_s_s+0x38>
    5635:	8b 45 fc             	mov    -0x4(%rbp),%eax
    5638:	2b 45 f8             	sub    -0x8(%rbp),%eax
    563b:	eb 03                	jmp    5640 <safe_sub_func_int32_t_s_s+0x3b>
    563d:	8b 45 fc             	mov    -0x4(%rbp),%eax
    5640:	5d                   	pop    %rbp
    5641:	c3                   	retq   

0000000000005642 <safe_mul_func_int32_t_s_s>:
    5642:	f3 0f 1e fa          	endbr64 
    5646:	55                   	push   %rbp
    5647:	48 89 e5             	mov    %rsp,%rbp
    564a:	89 7d fc             	mov    %edi,-0x4(%rbp)
    564d:	89 75 f8             	mov    %esi,-0x8(%rbp)
    5650:	83 7d fc 00          	cmpl   $0x0,-0x4(%rbp)
    5654:	7e 14                	jle    566a <safe_mul_func_int32_t_s_s+0x28>
    5656:	83 7d f8 00          	cmpl   $0x0,-0x8(%rbp)
    565a:	7e 0e                	jle    566a <safe_mul_func_int32_t_s_s+0x28>
    565c:	b8 ff ff ff 7f       	mov    $0x7fffffff,%eax
    5661:	99                   	cltd   
    5662:	f7 7d f8             	idivl  -0x8(%rbp)
    5665:	39 45 fc             	cmp    %eax,-0x4(%rbp)
    5668:	7f 5d                	jg     56c7 <safe_mul_func_int32_t_s_s+0x85>
    566a:	83 7d fc 00          	cmpl   $0x0,-0x4(%rbp)
    566e:	7e 14                	jle    5684 <safe_mul_func_int32_t_s_s+0x42>
    5670:	83 7d f8 00          	cmpl   $0x0,-0x8(%rbp)
    5674:	7f 0e                	jg     5684 <safe_mul_func_int32_t_s_s+0x42>
    5676:	b8 00 00 00 80       	mov    $0x80000000,%eax
    567b:	99                   	cltd   
    567c:	f7 7d fc             	idivl  -0x4(%rbp)
    567f:	39 45 f8             	cmp    %eax,-0x8(%rbp)
    5682:	7c 43                	jl     56c7 <safe_mul_func_int32_t_s_s+0x85>
    5684:	83 7d fc 00          	cmpl   $0x0,-0x4(%rbp)
    5688:	7f 14                	jg     569e <safe_mul_func_int32_t_s_s+0x5c>
    568a:	83 7d f8 00          	cmpl   $0x0,-0x8(%rbp)
    568e:	7e 0e                	jle    569e <safe_mul_func_int32_t_s_s+0x5c>
    5690:	b8 00 00 00 80       	mov    $0x80000000,%eax
    5695:	99                   	cltd   
    5696:	f7 7d f8             	idivl  -0x8(%rbp)
    5699:	39 45 fc             	cmp    %eax,-0x4(%rbp)
    569c:	7c 29                	jl     56c7 <safe_mul_func_int32_t_s_s+0x85>
    569e:	83 7d fc 00          	cmpl   $0x0,-0x4(%rbp)
    56a2:	7f 1a                	jg     56be <safe_mul_func_int32_t_s_s+0x7c>
    56a4:	83 7d f8 00          	cmpl   $0x0,-0x8(%rbp)
    56a8:	7f 14                	jg     56be <safe_mul_func_int32_t_s_s+0x7c>
    56aa:	83 7d fc 00          	cmpl   $0x0,-0x4(%rbp)
    56ae:	74 0e                	je     56be <safe_mul_func_int32_t_s_s+0x7c>
    56b0:	b8 ff ff ff 7f       	mov    $0x7fffffff,%eax
    56b5:	99                   	cltd   
    56b6:	f7 7d fc             	idivl  -0x4(%rbp)
    56b9:	39 45 f8             	cmp    %eax,-0x8(%rbp)
    56bc:	7c 09                	jl     56c7 <safe_mul_func_int32_t_s_s+0x85>
    56be:	8b 45 fc             	mov    -0x4(%rbp),%eax
    56c1:	0f af 45 f8          	imul   -0x8(%rbp),%eax
    56c5:	eb 03                	jmp    56ca <safe_mul_func_int32_t_s_s+0x88>
    56c7:	8b 45 fc             	mov    -0x4(%rbp),%eax
    56ca:	5d                   	pop    %rbp
    56cb:	c3                   	retq   

00000000000056cc <safe_mod_func_int32_t_s_s>:
    56cc:	f3 0f 1e fa          	endbr64 
    56d0:	55                   	push   %rbp
    56d1:	48 89 e5             	mov    %rsp,%rbp
    56d4:	89 7d fc             	mov    %edi,-0x4(%rbp)
    56d7:	89 75 f8             	mov    %esi,-0x8(%rbp)
    56da:	83 7d f8 00          	cmpl   $0x0,-0x8(%rbp)
    56de:	74 1a                	je     56fa <safe_mod_func_int32_t_s_s+0x2e>
    56e0:	81 7d fc 00 00 00 80 	cmpl   $0x80000000,-0x4(%rbp)
    56e7:	75 06                	jne    56ef <safe_mod_func_int32_t_s_s+0x23>
    56e9:	83 7d f8 ff          	cmpl   $0xffffffff,-0x8(%rbp)
    56ed:	74 0b                	je     56fa <safe_mod_func_int32_t_s_s+0x2e>
    56ef:	8b 45 fc             	mov    -0x4(%rbp),%eax
    56f2:	99                   	cltd   
    56f3:	f7 7d f8             	idivl  -0x8(%rbp)
    56f6:	89 d0                	mov    %edx,%eax
    56f8:	eb 03                	jmp    56fd <safe_mod_func_int32_t_s_s+0x31>
    56fa:	8b 45 fc             	mov    -0x4(%rbp),%eax
    56fd:	5d                   	pop    %rbp
    56fe:	c3                   	retq   

00000000000056ff <safe_div_func_int32_t_s_s>:
    56ff:	f3 0f 1e fa          	endbr64 
    5703:	55                   	push   %rbp
    5704:	48 89 e5             	mov    %rsp,%rbp
    5707:	89 7d fc             	mov    %edi,-0x4(%rbp)
    570a:	89 75 f8             	mov    %esi,-0x8(%rbp)
    570d:	83 7d f8 00          	cmpl   $0x0,-0x8(%rbp)
    5711:	74 18                	je     572b <safe_div_func_int32_t_s_s+0x2c>
    5713:	81 7d fc 00 00 00 80 	cmpl   $0x80000000,-0x4(%rbp)
    571a:	75 06                	jne    5722 <safe_div_func_int32_t_s_s+0x23>
    571c:	83 7d f8 ff          	cmpl   $0xffffffff,-0x8(%rbp)
    5720:	74 09                	je     572b <safe_div_func_int32_t_s_s+0x2c>
    5722:	8b 45 fc             	mov    -0x4(%rbp),%eax
    5725:	99                   	cltd   
    5726:	f7 7d f8             	idivl  -0x8(%rbp)
    5729:	eb 03                	jmp    572e <safe_div_func_int32_t_s_s+0x2f>
    572b:	8b 45 fc             	mov    -0x4(%rbp),%eax
    572e:	5d                   	pop    %rbp
    572f:	c3                   	retq   

0000000000005730 <safe_lshift_func_int32_t_s_s>:
    5730:	f3 0f 1e fa          	endbr64 
    5734:	55                   	push   %rbp
    5735:	48 89 e5             	mov    %rsp,%rbp
    5738:	89 7d fc             	mov    %edi,-0x4(%rbp)
    573b:	89 75 f8             	mov    %esi,-0x8(%rbp)
    573e:	83 7d fc 00          	cmpl   $0x0,-0x4(%rbp)
    5742:	78 2d                	js     5771 <safe_lshift_func_int32_t_s_s+0x41>
    5744:	83 7d f8 00          	cmpl   $0x0,-0x8(%rbp)
    5748:	78 27                	js     5771 <safe_lshift_func_int32_t_s_s+0x41>
    574a:	83 7d f8 1f          	cmpl   $0x1f,-0x8(%rbp)
    574e:	7f 21                	jg     5771 <safe_lshift_func_int32_t_s_s+0x41>
    5750:	8b 45 f8             	mov    -0x8(%rbp),%eax
    5753:	ba ff ff ff 7f       	mov    $0x7fffffff,%edx
    5758:	89 c1                	mov    %eax,%ecx
    575a:	d3 fa                	sar    %cl,%edx
    575c:	89 d0                	mov    %edx,%eax
    575e:	39 45 fc             	cmp    %eax,-0x4(%rbp)
    5761:	7f 0e                	jg     5771 <safe_lshift_func_int32_t_s_s+0x41>
    5763:	8b 45 f8             	mov    -0x8(%rbp),%eax
    5766:	8b 55 fc             	mov    -0x4(%rbp),%edx
    5769:	89 c1                	mov    %eax,%ecx
    576b:	d3 e2                	shl    %cl,%edx
    576d:	89 d0                	mov    %edx,%eax
    576f:	eb 03                	jmp    5774 <safe_lshift_func_int32_t_s_s+0x44>
    5771:	8b 45 fc             	mov    -0x4(%rbp),%eax
    5774:	5d                   	pop    %rbp
    5775:	c3                   	retq   

0000000000005776 <safe_lshift_func_int32_t_s_u>:
    5776:	f3 0f 1e fa          	endbr64 
    577a:	55                   	push   %rbp
    577b:	48 89 e5             	mov    %rsp,%rbp
    577e:	89 7d fc             	mov    %edi,-0x4(%rbp)
    5781:	89 75 f8             	mov    %esi,-0x8(%rbp)
    5784:	83 7d fc 00          	cmpl   $0x0,-0x4(%rbp)
    5788:	78 27                	js     57b1 <safe_lshift_func_int32_t_s_u+0x3b>
    578a:	83 7d f8 1f          	cmpl   $0x1f,-0x8(%rbp)
    578e:	77 21                	ja     57b1 <safe_lshift_func_int32_t_s_u+0x3b>
    5790:	8b 45 f8             	mov    -0x8(%rbp),%eax
    5793:	ba ff ff ff 7f       	mov    $0x7fffffff,%edx
    5798:	89 c1                	mov    %eax,%ecx
    579a:	d3 fa                	sar    %cl,%edx
    579c:	89 d0                	mov    %edx,%eax
    579e:	39 45 fc             	cmp    %eax,-0x4(%rbp)
    57a1:	7f 0e                	jg     57b1 <safe_lshift_func_int32_t_s_u+0x3b>
    57a3:	8b 45 f8             	mov    -0x8(%rbp),%eax
    57a6:	8b 55 fc             	mov    -0x4(%rbp),%edx
    57a9:	89 c1                	mov    %eax,%ecx
    57ab:	d3 e2                	shl    %cl,%edx
    57ad:	89 d0                	mov    %edx,%eax
    57af:	eb 03                	jmp    57b4 <safe_lshift_func_int32_t_s_u+0x3e>
    57b1:	8b 45 fc             	mov    -0x4(%rbp),%eax
    57b4:	5d                   	pop    %rbp
    57b5:	c3                   	retq   

00000000000057b6 <safe_rshift_func_int32_t_s_s>:
    57b6:	f3 0f 1e fa          	endbr64 
    57ba:	55                   	push   %rbp
    57bb:	48 89 e5             	mov    %rsp,%rbp
    57be:	89 7d fc             	mov    %edi,-0x4(%rbp)
    57c1:	89 75 f8             	mov    %esi,-0x8(%rbp)
    57c4:	83 7d fc 00          	cmpl   $0x0,-0x4(%rbp)
    57c8:	78 1a                	js     57e4 <safe_rshift_func_int32_t_s_s+0x2e>
    57ca:	83 7d f8 00          	cmpl   $0x0,-0x8(%rbp)
    57ce:	78 14                	js     57e4 <safe_rshift_func_int32_t_s_s+0x2e>
    57d0:	83 7d f8 1f          	cmpl   $0x1f,-0x8(%rbp)
    57d4:	7f 0e                	jg     57e4 <safe_rshift_func_int32_t_s_s+0x2e>
    57d6:	8b 45 f8             	mov    -0x8(%rbp),%eax
    57d9:	8b 55 fc             	mov    -0x4(%rbp),%edx
    57dc:	89 c1                	mov    %eax,%ecx
    57de:	d3 fa                	sar    %cl,%edx
    57e0:	89 d0                	mov    %edx,%eax
    57e2:	eb 03                	jmp    57e7 <safe_rshift_func_int32_t_s_s+0x31>
    57e4:	8b 45 fc             	mov    -0x4(%rbp),%eax
    57e7:	5d                   	pop    %rbp
    57e8:	c3                   	retq   

00000000000057e9 <safe_rshift_func_int32_t_s_u>:
    57e9:	f3 0f 1e fa          	endbr64 
    57ed:	55                   	push   %rbp
    57ee:	48 89 e5             	mov    %rsp,%rbp
    57f1:	89 7d fc             	mov    %edi,-0x4(%rbp)
    57f4:	89 75 f8             	mov    %esi,-0x8(%rbp)
    57f7:	83 7d fc 00          	cmpl   $0x0,-0x4(%rbp)
    57fb:	78 14                	js     5811 <safe_rshift_func_int32_t_s_u+0x28>
    57fd:	83 7d f8 1f          	cmpl   $0x1f,-0x8(%rbp)
    5801:	77 0e                	ja     5811 <safe_rshift_func_int32_t_s_u+0x28>
    5803:	8b 45 f8             	mov    -0x8(%rbp),%eax
    5806:	8b 55 fc             	mov    -0x4(%rbp),%edx
    5809:	89 c1                	mov    %eax,%ecx
    580b:	d3 fa                	sar    %cl,%edx
    580d:	89 d0                	mov    %edx,%eax
    580f:	eb 03                	jmp    5814 <safe_rshift_func_int32_t_s_u+0x2b>
    5811:	8b 45 fc             	mov    -0x4(%rbp),%eax
    5814:	5d                   	pop    %rbp
    5815:	c3                   	retq   

0000000000005816 <safe_unary_minus_func_int64_t_s>:
    5816:	f3 0f 1e fa          	endbr64 
    581a:	55                   	push   %rbp
    581b:	48 89 e5             	mov    %rsp,%rbp
    581e:	48 89 7d f8          	mov    %rdi,-0x8(%rbp)
    5822:	48 b8 00 00 00 00 00 	movabs $0x8000000000000000,%rax
    5829:	00 00 80 
    582c:	48 39 45 f8          	cmp    %rax,-0x8(%rbp)
    5830:	74 09                	je     583b <safe_unary_minus_func_int64_t_s+0x25>
    5832:	48 8b 45 f8          	mov    -0x8(%rbp),%rax
    5836:	48 f7 d8             	neg    %rax
    5839:	eb 04                	jmp    583f <safe_unary_minus_func_int64_t_s+0x29>
    583b:	48 8b 45 f8          	mov    -0x8(%rbp),%rax
    583f:	5d                   	pop    %rbp
    5840:	c3                   	retq   

0000000000005841 <safe_add_func_int64_t_s_s>:
    5841:	f3 0f 1e fa          	endbr64 
    5845:	55                   	push   %rbp
    5846:	48 89 e5             	mov    %rsp,%rbp
    5849:	48 89 7d f8          	mov    %rdi,-0x8(%rbp)
    584d:	48 89 75 f0          	mov    %rsi,-0x10(%rbp)
    5851:	48 83 7d f8 00       	cmpq   $0x0,-0x8(%rbp)
    5856:	7e 1b                	jle    5873 <safe_add_func_int64_t_s_s+0x32>
    5858:	48 83 7d f0 00       	cmpq   $0x0,-0x10(%rbp)
    585d:	7e 14                	jle    5873 <safe_add_func_int64_t_s_s+0x32>
    585f:	48 b8 ff ff ff ff ff 	movabs $0x7fffffffffffffff,%rax
    5866:	ff ff 7f 
    5869:	48 2b 45 f0          	sub    -0x10(%rbp),%rax
    586d:	48 39 45 f8          	cmp    %rax,-0x8(%rbp)
    5871:	7f 2f                	jg     58a2 <safe_add_func_int64_t_s_s+0x61>
    5873:	48 83 7d f8 00       	cmpq   $0x0,-0x8(%rbp)
    5878:	79 1b                	jns    5895 <safe_add_func_int64_t_s_s+0x54>
    587a:	48 83 7d f0 00       	cmpq   $0x0,-0x10(%rbp)
    587f:	79 14                	jns    5895 <safe_add_func_int64_t_s_s+0x54>
    5881:	48 b8 00 00 00 00 00 	movabs $0x8000000000000000,%rax
    5888:	00 00 80 
    588b:	48 2b 45 f0          	sub    -0x10(%rbp),%rax
    588f:	48 39 45 f8          	cmp    %rax,-0x8(%rbp)
    5893:	7c 0d                	jl     58a2 <safe_add_func_int64_t_s_s+0x61>
    5895:	48 8b 55 f8          	mov    -0x8(%rbp),%rdx
    5899:	48 8b 45 f0          	mov    -0x10(%rbp),%rax
    589d:	48 01 d0             	add    %rdx,%rax
    58a0:	eb 04                	jmp    58a6 <safe_add_func_int64_t_s_s+0x65>
    58a2:	48 8b 45 f8          	mov    -0x8(%rbp),%rax
    58a6:	5d                   	pop    %rbp
    58a7:	c3                   	retq   

00000000000058a8 <safe_sub_func_int64_t_s_s>:
    58a8:	f3 0f 1e fa          	endbr64 
    58ac:	55                   	push   %rbp
    58ad:	48 89 e5             	mov    %rsp,%rbp
    58b0:	48 89 7d f8          	mov    %rdi,-0x8(%rbp)
    58b4:	48 89 75 f0          	mov    %rsi,-0x10(%rbp)
    58b8:	48 8b 45 f8          	mov    -0x8(%rbp),%rax
    58bc:	48 33 45 f0          	xor    -0x10(%rbp),%rax
    58c0:	48 89 c2             	mov    %rax,%rdx
    58c3:	48 8b 45 f8          	mov    -0x8(%rbp),%rax
    58c7:	48 33 45 f0          	xor    -0x10(%rbp),%rax
    58cb:	48 b9 00 00 00 00 00 	movabs $0x8000000000000000,%rcx
    58d2:	00 00 80 
    58d5:	48 21 c8             	and    %rcx,%rax
    58d8:	48 33 45 f8          	xor    -0x8(%rbp),%rax
    58dc:	48 2b 45 f0          	sub    -0x10(%rbp),%rax
    58e0:	48 33 45 f0          	xor    -0x10(%rbp),%rax
    58e4:	48 21 d0             	and    %rdx,%rax
    58e7:	48 85 c0             	test   %rax,%rax
    58ea:	78 0a                	js     58f6 <safe_sub_func_int64_t_s_s+0x4e>
    58ec:	48 8b 45 f8          	mov    -0x8(%rbp),%rax
    58f0:	48 2b 45 f0          	sub    -0x10(%rbp),%rax
    58f4:	eb 04                	jmp    58fa <safe_sub_func_int64_t_s_s+0x52>
    58f6:	48 8b 45 f8          	mov    -0x8(%rbp),%rax
    58fa:	5d                   	pop    %rbp
    58fb:	c3                   	retq   

00000000000058fc <safe_mul_func_int64_t_s_s>:
    58fc:	f3 0f 1e fa          	endbr64 
    5900:	55                   	push   %rbp
    5901:	48 89 e5             	mov    %rsp,%rbp
    5904:	48 89 7d f8          	mov    %rdi,-0x8(%rbp)
    5908:	48 89 75 f0          	mov    %rsi,-0x10(%rbp)
    590c:	48 83 7d f8 00       	cmpq   $0x0,-0x8(%rbp)
    5911:	7e 1d                	jle    5930 <safe_mul_func_int64_t_s_s+0x34>
    5913:	48 83 7d f0 00       	cmpq   $0x0,-0x10(%rbp)
    5918:	7e 16                	jle    5930 <safe_mul_func_int64_t_s_s+0x34>
    591a:	48 b8 ff ff ff ff ff 	movabs $0x7fffffffffffffff,%rax
    5921:	ff ff 7f 
    5924:	48 99                	cqto   
    5926:	48 f7 7d f0          	idivq  -0x10(%rbp)
    592a:	48 39 45 f8          	cmp    %rax,-0x8(%rbp)
    592e:	7f 7e                	jg     59ae <safe_mul_func_int64_t_s_s+0xb2>
    5930:	48 83 7d f8 00       	cmpq   $0x0,-0x8(%rbp)
    5935:	7e 1d                	jle    5954 <safe_mul_func_int64_t_s_s+0x58>
    5937:	48 83 7d f0 00       	cmpq   $0x0,-0x10(%rbp)
    593c:	7f 16                	jg     5954 <safe_mul_func_int64_t_s_s+0x58>
    593e:	48 b8 00 00 00 00 00 	movabs $0x8000000000000000,%rax
    5945:	00 00 80 
    5948:	48 99                	cqto   
    594a:	48 f7 7d f8          	idivq  -0x8(%rbp)
    594e:	48 39 45 f0          	cmp    %rax,-0x10(%rbp)
    5952:	7c 5a                	jl     59ae <safe_mul_func_int64_t_s_s+0xb2>
    5954:	48 83 7d f8 00       	cmpq   $0x0,-0x8(%rbp)
    5959:	7f 1d                	jg     5978 <safe_mul_func_int64_t_s_s+0x7c>
    595b:	48 83 7d f0 00       	cmpq   $0x0,-0x10(%rbp)
    5960:	7e 16                	jle    5978 <safe_mul_func_int64_t_s_s+0x7c>
    5962:	48 b8 00 00 00 00 00 	movabs $0x8000000000000000,%rax
    5969:	00 00 80 
    596c:	48 99                	cqto   
    596e:	48 f7 7d f0          	idivq  -0x10(%rbp)
    5972:	48 39 45 f8          	cmp    %rax,-0x8(%rbp)
    5976:	7c 36                	jl     59ae <safe_mul_func_int64_t_s_s+0xb2>
    5978:	48 83 7d f8 00       	cmpq   $0x0,-0x8(%rbp)
    597d:	7f 24                	jg     59a3 <safe_mul_func_int64_t_s_s+0xa7>
    597f:	48 83 7d f0 00       	cmpq   $0x0,-0x10(%rbp)
    5984:	7f 1d                	jg     59a3 <safe_mul_func_int64_t_s_s+0xa7>
    5986:	48 83 7d f8 00       	cmpq   $0x0,-0x8(%rbp)
    598b:	74 16                	je     59a3 <safe_mul_func_int64_t_s_s+0xa7>
    598d:	48 b8 ff ff ff ff ff 	movabs $0x7fffffffffffffff,%rax
    5994:	ff ff 7f 
    5997:	48 99                	cqto   
    5999:	48 f7 7d f8          	idivq  -0x8(%rbp)
    599d:	48 39 45 f0          	cmp    %rax,-0x10(%rbp)
    59a1:	7c 0b                	jl     59ae <safe_mul_func_int64_t_s_s+0xb2>
    59a3:	48 8b 45 f8          	mov    -0x8(%rbp),%rax
    59a7:	48 0f af 45 f0       	imul   -0x10(%rbp),%rax
    59ac:	eb 04                	jmp    59b2 <safe_mul_func_int64_t_s_s+0xb6>
    59ae:	48 8b 45 f8          	mov    -0x8(%rbp),%rax
    59b2:	5d                   	pop    %rbp
    59b3:	c3                   	retq   

00000000000059b4 <safe_mod_func_int64_t_s_s>:
    59b4:	f3 0f 1e fa          	endbr64 
    59b8:	55                   	push   %rbp
    59b9:	48 89 e5             	mov    %rsp,%rbp
    59bc:	48 89 7d f8          	mov    %rdi,-0x8(%rbp)
    59c0:	48 89 75 f0          	mov    %rsi,-0x10(%rbp)
    59c4:	48 83 7d f0 00       	cmpq   $0x0,-0x10(%rbp)
    59c9:	74 26                	je     59f1 <safe_mod_func_int64_t_s_s+0x3d>
    59cb:	48 b8 00 00 00 00 00 	movabs $0x8000000000000000,%rax
    59d2:	00 00 80 
    59d5:	48 39 45 f8          	cmp    %rax,-0x8(%rbp)
    59d9:	75 07                	jne    59e2 <safe_mod_func_int64_t_s_s+0x2e>
    59db:	48 83 7d f0 ff       	cmpq   $0xffffffffffffffff,-0x10(%rbp)
    59e0:	74 0f                	je     59f1 <safe_mod_func_int64_t_s_s+0x3d>
    59e2:	48 8b 45 f8          	mov    -0x8(%rbp),%rax
    59e6:	48 99                	cqto   
    59e8:	48 f7 7d f0          	idivq  -0x10(%rbp)
    59ec:	48 89 d0             	mov    %rdx,%rax
    59ef:	eb 04                	jmp    59f5 <safe_mod_func_int64_t_s_s+0x41>
    59f1:	48 8b 45 f8          	mov    -0x8(%rbp),%rax
    59f5:	5d                   	pop    %rbp
    59f6:	c3                   	retq   

00000000000059f7 <safe_div_func_int64_t_s_s>:
    59f7:	f3 0f 1e fa          	endbr64 
    59fb:	55                   	push   %rbp
    59fc:	48 89 e5             	mov    %rsp,%rbp
    59ff:	48 89 7d f8          	mov    %rdi,-0x8(%rbp)
    5a03:	48 89 75 f0          	mov    %rsi,-0x10(%rbp)
    5a07:	48 83 7d f0 00       	cmpq   $0x0,-0x10(%rbp)
    5a0c:	74 23                	je     5a31 <safe_div_func_int64_t_s_s+0x3a>
    5a0e:	48 b8 00 00 00 00 00 	movabs $0x8000000000000000,%rax
    5a15:	00 00 80 
    5a18:	48 39 45 f8          	cmp    %rax,-0x8(%rbp)
    5a1c:	75 07                	jne    5a25 <safe_div_func_int64_t_s_s+0x2e>
    5a1e:	48 83 7d f0 ff       	cmpq   $0xffffffffffffffff,-0x10(%rbp)
    5a23:	74 0c                	je     5a31 <safe_div_func_int64_t_s_s+0x3a>
    5a25:	48 8b 45 f8          	mov    -0x8(%rbp),%rax
    5a29:	48 99                	cqto   
    5a2b:	48 f7 7d f0          	idivq  -0x10(%rbp)
    5a2f:	eb 04                	jmp    5a35 <safe_div_func_int64_t_s_s+0x3e>
    5a31:	48 8b 45 f8          	mov    -0x8(%rbp),%rax
    5a35:	5d                   	pop    %rbp
    5a36:	c3                   	retq   

0000000000005a37 <safe_lshift_func_int64_t_s_s>:
    5a37:	f3 0f 1e fa          	endbr64 
    5a3b:	55                   	push   %rbp
    5a3c:	48 89 e5             	mov    %rsp,%rbp
    5a3f:	48 89 7d f8          	mov    %rdi,-0x8(%rbp)
    5a43:	89 75 f4             	mov    %esi,-0xc(%rbp)
    5a46:	48 83 7d f8 00       	cmpq   $0x0,-0x8(%rbp)
    5a4b:	78 38                	js     5a85 <safe_lshift_func_int64_t_s_s+0x4e>
    5a4d:	83 7d f4 00          	cmpl   $0x0,-0xc(%rbp)
    5a51:	78 32                	js     5a85 <safe_lshift_func_int64_t_s_s+0x4e>
    5a53:	83 7d f4 1f          	cmpl   $0x1f,-0xc(%rbp)
    5a57:	7f 2c                	jg     5a85 <safe_lshift_func_int64_t_s_s+0x4e>
    5a59:	8b 45 f4             	mov    -0xc(%rbp),%eax
    5a5c:	48 ba ff ff ff ff ff 	movabs $0x7fffffffffffffff,%rdx
    5a63:	ff ff 7f 
    5a66:	89 c1                	mov    %eax,%ecx
    5a68:	48 d3 fa             	sar    %cl,%rdx
    5a6b:	48 89 d0             	mov    %rdx,%rax
    5a6e:	48 39 45 f8          	cmp    %rax,-0x8(%rbp)
    5a72:	7f 11                	jg     5a85 <safe_lshift_func_int64_t_s_s+0x4e>
    5a74:	8b 45 f4             	mov    -0xc(%rbp),%eax
    5a77:	48 8b 55 f8          	mov    -0x8(%rbp),%rdx
    5a7b:	89 c1                	mov    %eax,%ecx
    5a7d:	48 d3 e2             	shl    %cl,%rdx
    5a80:	48 89 d0             	mov    %rdx,%rax
    5a83:	eb 04                	jmp    5a89 <safe_lshift_func_int64_t_s_s+0x52>
    5a85:	48 8b 45 f8          	mov    -0x8(%rbp),%rax
    5a89:	5d                   	pop    %rbp
    5a8a:	c3                   	retq   

0000000000005a8b <safe_lshift_func_int64_t_s_u>:
    5a8b:	f3 0f 1e fa          	endbr64 
    5a8f:	55                   	push   %rbp
    5a90:	48 89 e5             	mov    %rsp,%rbp
    5a93:	48 89 7d f8          	mov    %rdi,-0x8(%rbp)
    5a97:	89 75 f4             	mov    %esi,-0xc(%rbp)
    5a9a:	48 83 7d f8 00       	cmpq   $0x0,-0x8(%rbp)
    5a9f:	78 32                	js     5ad3 <safe_lshift_func_int64_t_s_u+0x48>
    5aa1:	83 7d f4 1f          	cmpl   $0x1f,-0xc(%rbp)
    5aa5:	77 2c                	ja     5ad3 <safe_lshift_func_int64_t_s_u+0x48>
    5aa7:	8b 45 f4             	mov    -0xc(%rbp),%eax
    5aaa:	48 ba ff ff ff ff ff 	movabs $0x7fffffffffffffff,%rdx
    5ab1:	ff ff 7f 
    5ab4:	89 c1                	mov    %eax,%ecx
    5ab6:	48 d3 fa             	sar    %cl,%rdx
    5ab9:	48 89 d0             	mov    %rdx,%rax
    5abc:	48 39 45 f8          	cmp    %rax,-0x8(%rbp)
    5ac0:	7f 11                	jg     5ad3 <safe_lshift_func_int64_t_s_u+0x48>
    5ac2:	8b 45 f4             	mov    -0xc(%rbp),%eax
    5ac5:	48 8b 55 f8          	mov    -0x8(%rbp),%rdx
    5ac9:	89 c1                	mov    %eax,%ecx
    5acb:	48 d3 e2             	shl    %cl,%rdx
    5ace:	48 89 d0             	mov    %rdx,%rax
    5ad1:	eb 04                	jmp    5ad7 <safe_lshift_func_int64_t_s_u+0x4c>
    5ad3:	48 8b 45 f8          	mov    -0x8(%rbp),%rax
    5ad7:	5d                   	pop    %rbp
    5ad8:	c3                   	retq   

0000000000005ad9 <safe_rshift_func_int64_t_s_s>:
    5ad9:	f3 0f 1e fa          	endbr64 
    5add:	55                   	push   %rbp
    5ade:	48 89 e5             	mov    %rsp,%rbp
    5ae1:	48 89 7d f8          	mov    %rdi,-0x8(%rbp)
    5ae5:	89 75 f4             	mov    %esi,-0xc(%rbp)
    5ae8:	48 83 7d f8 00       	cmpq   $0x0,-0x8(%rbp)
    5aed:	78 1d                	js     5b0c <safe_rshift_func_int64_t_s_s+0x33>
    5aef:	83 7d f4 00          	cmpl   $0x0,-0xc(%rbp)
    5af3:	78 17                	js     5b0c <safe_rshift_func_int64_t_s_s+0x33>
    5af5:	83 7d f4 1f          	cmpl   $0x1f,-0xc(%rbp)
    5af9:	7f 11                	jg     5b0c <safe_rshift_func_int64_t_s_s+0x33>
    5afb:	8b 45 f4             	mov    -0xc(%rbp),%eax
    5afe:	48 8b 55 f8          	mov    -0x8(%rbp),%rdx
    5b02:	89 c1                	mov    %eax,%ecx
    5b04:	48 d3 fa             	sar    %cl,%rdx
    5b07:	48 89 d0             	mov    %rdx,%rax
    5b0a:	eb 04                	jmp    5b10 <safe_rshift_func_int64_t_s_s+0x37>
    5b0c:	48 8b 45 f8          	mov    -0x8(%rbp),%rax
    5b10:	5d                   	pop    %rbp
    5b11:	c3                   	retq   

0000000000005b12 <safe_rshift_func_int64_t_s_u>:
    5b12:	f3 0f 1e fa          	endbr64 
    5b16:	55                   	push   %rbp
    5b17:	48 89 e5             	mov    %rsp,%rbp
    5b1a:	48 89 7d f8          	mov    %rdi,-0x8(%rbp)
    5b1e:	89 75 f4             	mov    %esi,-0xc(%rbp)
    5b21:	48 83 7d f8 00       	cmpq   $0x0,-0x8(%rbp)
    5b26:	78 17                	js     5b3f <safe_rshift_func_int64_t_s_u+0x2d>
    5b28:	83 7d f4 1f          	cmpl   $0x1f,-0xc(%rbp)
    5b2c:	77 11                	ja     5b3f <safe_rshift_func_int64_t_s_u+0x2d>
    5b2e:	8b 45 f4             	mov    -0xc(%rbp),%eax
    5b31:	48 8b 55 f8          	mov    -0x8(%rbp),%rdx
    5b35:	89 c1                	mov    %eax,%ecx
    5b37:	48 d3 fa             	sar    %cl,%rdx
    5b3a:	48 89 d0             	mov    %rdx,%rax
    5b3d:	eb 04                	jmp    5b43 <safe_rshift_func_int64_t_s_u+0x31>
    5b3f:	48 8b 45 f8          	mov    -0x8(%rbp),%rax
    5b43:	5d                   	pop    %rbp
    5b44:	c3                   	retq   

0000000000005b45 <safe_unary_minus_func_uint8_t_u>:
    5b45:	f3 0f 1e fa          	endbr64 
    5b49:	55                   	push   %rbp
    5b4a:	48 89 e5             	mov    %rsp,%rbp
    5b4d:	89 f8                	mov    %edi,%eax
    5b4f:	88 45 fc             	mov    %al,-0x4(%rbp)
    5b52:	0f b6 45 fc          	movzbl -0x4(%rbp),%eax
    5b56:	f7 d8                	neg    %eax
    5b58:	5d                   	pop    %rbp
    5b59:	c3                   	retq   

0000000000005b5a <safe_add_func_uint8_t_u_u>:
    5b5a:	f3 0f 1e fa          	endbr64 
    5b5e:	55                   	push   %rbp
    5b5f:	48 89 e5             	mov    %rsp,%rbp
    5b62:	89 fa                	mov    %edi,%edx
    5b64:	89 f0                	mov    %esi,%eax
    5b66:	88 55 fc             	mov    %dl,-0x4(%rbp)
    5b69:	88 45 f8             	mov    %al,-0x8(%rbp)
    5b6c:	0f b6 55 fc          	movzbl -0x4(%rbp),%edx
    5b70:	0f b6 45 f8          	movzbl -0x8(%rbp),%eax
    5b74:	01 d0                	add    %edx,%eax
    5b76:	5d                   	pop    %rbp
    5b77:	c3                   	retq   

0000000000005b78 <safe_sub_func_uint8_t_u_u>:
    5b78:	f3 0f 1e fa          	endbr64 
    5b7c:	55                   	push   %rbp
    5b7d:	48 89 e5             	mov    %rsp,%rbp
    5b80:	89 fa                	mov    %edi,%edx
    5b82:	89 f0                	mov    %esi,%eax
    5b84:	88 55 fc             	mov    %dl,-0x4(%rbp)
    5b87:	88 45 f8             	mov    %al,-0x8(%rbp)
    5b8a:	0f b6 45 fc          	movzbl -0x4(%rbp),%eax
    5b8e:	2a 45 f8             	sub    -0x8(%rbp),%al
    5b91:	5d                   	pop    %rbp
    5b92:	c3                   	retq   

0000000000005b93 <safe_mul_func_uint8_t_u_u>:
    5b93:	f3 0f 1e fa          	endbr64 
    5b97:	55                   	push   %rbp
    5b98:	48 89 e5             	mov    %rsp,%rbp
    5b9b:	89 fa                	mov    %edi,%edx
    5b9d:	89 f0                	mov    %esi,%eax
    5b9f:	88 55 fc             	mov    %dl,-0x4(%rbp)
    5ba2:	88 45 f8             	mov    %al,-0x8(%rbp)
    5ba5:	0f b6 45 fc          	movzbl -0x4(%rbp),%eax
    5ba9:	f6 65 f8             	mulb   -0x8(%rbp)
    5bac:	5d                   	pop    %rbp
    5bad:	c3                   	retq   

0000000000005bae <safe_mod_func_uint8_t_u_u>:
    5bae:	f3 0f 1e fa          	endbr64 
    5bb2:	55                   	push   %rbp
    5bb3:	48 89 e5             	mov    %rsp,%rbp
    5bb6:	89 fa                	mov    %edi,%edx
    5bb8:	89 f0                	mov    %esi,%eax
    5bba:	88 55 fc             	mov    %dl,-0x4(%rbp)
    5bbd:	88 45 f8             	mov    %al,-0x8(%rbp)
    5bc0:	80 7d f8 00          	cmpb   $0x0,-0x8(%rbp)
    5bc4:	74 0f                	je     5bd5 <safe_mod_func_uint8_t_u_u+0x27>
    5bc6:	0f b6 45 fc          	movzbl -0x4(%rbp),%eax
    5bca:	0f b6 c0             	movzbl %al,%eax
    5bcd:	f6 75 f8             	divb   -0x8(%rbp)
    5bd0:	0f b6 c4             	movzbl %ah,%eax
    5bd3:	eb 04                	jmp    5bd9 <safe_mod_func_uint8_t_u_u+0x2b>
    5bd5:	0f b6 45 fc          	movzbl -0x4(%rbp),%eax
    5bd9:	5d                   	pop    %rbp
    5bda:	c3                   	retq   

0000000000005bdb <safe_div_func_uint8_t_u_u>:
    5bdb:	f3 0f 1e fa          	endbr64 
    5bdf:	55                   	push   %rbp
    5be0:	48 89 e5             	mov    %rsp,%rbp
    5be3:	89 fa                	mov    %edi,%edx
    5be5:	89 f0                	mov    %esi,%eax
    5be7:	88 55 fc             	mov    %dl,-0x4(%rbp)
    5bea:	88 45 f8             	mov    %al,-0x8(%rbp)
    5bed:	80 7d f8 00          	cmpb   $0x0,-0x8(%rbp)
    5bf1:	74 0c                	je     5bff <safe_div_func_uint8_t_u_u+0x24>
    5bf3:	0f b6 45 fc          	movzbl -0x4(%rbp),%eax
    5bf7:	0f b6 c0             	movzbl %al,%eax
    5bfa:	f6 75 f8             	divb   -0x8(%rbp)
    5bfd:	eb 04                	jmp    5c03 <safe_div_func_uint8_t_u_u+0x28>
    5bff:	0f b6 45 fc          	movzbl -0x4(%rbp),%eax
    5c03:	5d                   	pop    %rbp
    5c04:	c3                   	retq   

0000000000005c05 <safe_lshift_func_uint8_t_u_s>:
    5c05:	f3 0f 1e fa          	endbr64 
    5c09:	55                   	push   %rbp
    5c0a:	48 89 e5             	mov    %rsp,%rbp
    5c0d:	89 f8                	mov    %edi,%eax
    5c0f:	89 75 f8             	mov    %esi,-0x8(%rbp)
    5c12:	88 45 fc             	mov    %al,-0x4(%rbp)
    5c15:	83 7d f8 00          	cmpl   $0x0,-0x8(%rbp)
    5c19:	78 2b                	js     5c46 <safe_lshift_func_uint8_t_u_s+0x41>
    5c1b:	83 7d f8 1f          	cmpl   $0x1f,-0x8(%rbp)
    5c1f:	7f 25                	jg     5c46 <safe_lshift_func_uint8_t_u_s+0x41>
    5c21:	0f b6 55 fc          	movzbl -0x4(%rbp),%edx
    5c25:	8b 45 f8             	mov    -0x8(%rbp),%eax
    5c28:	be ff 00 00 00       	mov    $0xff,%esi
    5c2d:	89 c1                	mov    %eax,%ecx
    5c2f:	d3 fe                	sar    %cl,%esi
    5c31:	89 f0                	mov    %esi,%eax
    5c33:	39 c2                	cmp    %eax,%edx
    5c35:	7f 0f                	jg     5c46 <safe_lshift_func_uint8_t_u_s+0x41>
    5c37:	0f b6 55 fc          	movzbl -0x4(%rbp),%edx
    5c3b:	8b 45 f8             	mov    -0x8(%rbp),%eax
    5c3e:	89 c1                	mov    %eax,%ecx
    5c40:	d3 e2                	shl    %cl,%edx
    5c42:	89 d0                	mov    %edx,%eax
    5c44:	eb 04                	jmp    5c4a <safe_lshift_func_uint8_t_u_s+0x45>
    5c46:	0f b6 45 fc          	movzbl -0x4(%rbp),%eax
    5c4a:	5d                   	pop    %rbp
    5c4b:	c3                   	retq   

0000000000005c4c <safe_lshift_func_uint8_t_u_u>:
    5c4c:	f3 0f 1e fa          	endbr64 
    5c50:	55                   	push   %rbp
    5c51:	48 89 e5             	mov    %rsp,%rbp
    5c54:	89 f8                	mov    %edi,%eax
    5c56:	89 75 f8             	mov    %esi,-0x8(%rbp)
    5c59:	88 45 fc             	mov    %al,-0x4(%rbp)
    5c5c:	83 7d f8 1f          	cmpl   $0x1f,-0x8(%rbp)
    5c60:	77 25                	ja     5c87 <safe_lshift_func_uint8_t_u_u+0x3b>
    5c62:	0f b6 55 fc          	movzbl -0x4(%rbp),%edx
    5c66:	8b 45 f8             	mov    -0x8(%rbp),%eax
    5c69:	be ff 00 00 00       	mov    $0xff,%esi
    5c6e:	89 c1                	mov    %eax,%ecx
    5c70:	d3 fe                	sar    %cl,%esi
    5c72:	89 f0                	mov    %esi,%eax
    5c74:	39 c2                	cmp    %eax,%edx
    5c76:	7f 0f                	jg     5c87 <safe_lshift_func_uint8_t_u_u+0x3b>
    5c78:	0f b6 55 fc          	movzbl -0x4(%rbp),%edx
    5c7c:	8b 45 f8             	mov    -0x8(%rbp),%eax
    5c7f:	89 c1                	mov    %eax,%ecx
    5c81:	d3 e2                	shl    %cl,%edx
    5c83:	89 d0                	mov    %edx,%eax
    5c85:	eb 04                	jmp    5c8b <safe_lshift_func_uint8_t_u_u+0x3f>
    5c87:	0f b6 45 fc          	movzbl -0x4(%rbp),%eax
    5c8b:	5d                   	pop    %rbp
    5c8c:	c3                   	retq   

0000000000005c8d <safe_rshift_func_uint8_t_u_s>:
    5c8d:	f3 0f 1e fa          	endbr64 
    5c91:	55                   	push   %rbp
    5c92:	48 89 e5             	mov    %rsp,%rbp
    5c95:	89 f8                	mov    %edi,%eax
    5c97:	89 75 f8             	mov    %esi,-0x8(%rbp)
    5c9a:	88 45 fc             	mov    %al,-0x4(%rbp)
    5c9d:	83 7d f8 00          	cmpl   $0x0,-0x8(%rbp)
    5ca1:	78 15                	js     5cb8 <safe_rshift_func_uint8_t_u_s+0x2b>
    5ca3:	83 7d f8 1f          	cmpl   $0x1f,-0x8(%rbp)
    5ca7:	7f 0f                	jg     5cb8 <safe_rshift_func_uint8_t_u_s+0x2b>
    5ca9:	0f b6 55 fc          	movzbl -0x4(%rbp),%edx
    5cad:	8b 45 f8             	mov    -0x8(%rbp),%eax
    5cb0:	89 c1                	mov    %eax,%ecx
    5cb2:	d3 fa                	sar    %cl,%edx
    5cb4:	89 d0                	mov    %edx,%eax
    5cb6:	eb 04                	jmp    5cbc <safe_rshift_func_uint8_t_u_s+0x2f>
    5cb8:	0f b6 45 fc          	movzbl -0x4(%rbp),%eax
    5cbc:	5d                   	pop    %rbp
    5cbd:	c3                   	retq   

0000000000005cbe <safe_rshift_func_uint8_t_u_u>:
    5cbe:	f3 0f 1e fa          	endbr64 
    5cc2:	55                   	push   %rbp
    5cc3:	48 89 e5             	mov    %rsp,%rbp
    5cc6:	89 f8                	mov    %edi,%eax
    5cc8:	89 75 f8             	mov    %esi,-0x8(%rbp)
    5ccb:	88 45 fc             	mov    %al,-0x4(%rbp)
    5cce:	83 7d f8 1f          	cmpl   $0x1f,-0x8(%rbp)
    5cd2:	77 0f                	ja     5ce3 <safe_rshift_func_uint8_t_u_u+0x25>
    5cd4:	0f b6 55 fc          	movzbl -0x4(%rbp),%edx
    5cd8:	8b 45 f8             	mov    -0x8(%rbp),%eax
    5cdb:	89 c1                	mov    %eax,%ecx
    5cdd:	d3 fa                	sar    %cl,%edx
    5cdf:	89 d0                	mov    %edx,%eax
    5ce1:	eb 04                	jmp    5ce7 <safe_rshift_func_uint8_t_u_u+0x29>
    5ce3:	0f b6 45 fc          	movzbl -0x4(%rbp),%eax
    5ce7:	5d                   	pop    %rbp
    5ce8:	c3                   	retq   

0000000000005ce9 <safe_unary_minus_func_uint16_t_u>:
    5ce9:	f3 0f 1e fa          	endbr64 
    5ced:	55                   	push   %rbp
    5cee:	48 89 e5             	mov    %rsp,%rbp
    5cf1:	89 f8                	mov    %edi,%eax
    5cf3:	66 89 45 fc          	mov    %ax,-0x4(%rbp)
    5cf7:	0f b7 45 fc          	movzwl -0x4(%rbp),%eax
    5cfb:	f7 d8                	neg    %eax
    5cfd:	5d                   	pop    %rbp
    5cfe:	c3                   	retq   

0000000000005cff <safe_add_func_uint16_t_u_u>:
    5cff:	f3 0f 1e fa          	endbr64 
    5d03:	55                   	push   %rbp
    5d04:	48 89 e5             	mov    %rsp,%rbp
    5d07:	89 fa                	mov    %edi,%edx
    5d09:	89 f0                	mov    %esi,%eax
    5d0b:	66 89 55 fc          	mov    %dx,-0x4(%rbp)
    5d0f:	66 89 45 f8          	mov    %ax,-0x8(%rbp)
    5d13:	0f b7 55 fc          	movzwl -0x4(%rbp),%edx
    5d17:	0f b7 45 f8          	movzwl -0x8(%rbp),%eax
    5d1b:	01 d0                	add    %edx,%eax
    5d1d:	5d                   	pop    %rbp
    5d1e:	c3                   	retq   

0000000000005d1f <safe_sub_func_uint16_t_u_u>:
    5d1f:	f3 0f 1e fa          	endbr64 
    5d23:	55                   	push   %rbp
    5d24:	48 89 e5             	mov    %rsp,%rbp
    5d27:	89 fa                	mov    %edi,%edx
    5d29:	89 f0                	mov    %esi,%eax
    5d2b:	66 89 55 fc          	mov    %dx,-0x4(%rbp)
    5d2f:	66 89 45 f8          	mov    %ax,-0x8(%rbp)
    5d33:	0f b7 45 fc          	movzwl -0x4(%rbp),%eax
    5d37:	66 2b 45 f8          	sub    -0x8(%rbp),%ax
    5d3b:	5d                   	pop    %rbp
    5d3c:	c3                   	retq   

0000000000005d3d <safe_mul_func_uint16_t_u_u>:
    5d3d:	f3 0f 1e fa          	endbr64 
    5d41:	55                   	push   %rbp
    5d42:	48 89 e5             	mov    %rsp,%rbp
    5d45:	89 fa                	mov    %edi,%edx
    5d47:	89 f0                	mov    %esi,%eax
    5d49:	66 89 55 fc          	mov    %dx,-0x4(%rbp)
    5d4d:	66 89 45 f8          	mov    %ax,-0x8(%rbp)
    5d51:	0f b7 45 fc          	movzwl -0x4(%rbp),%eax
    5d55:	66 0f af 45 f8       	imul   -0x8(%rbp),%ax
    5d5a:	5d                   	pop    %rbp
    5d5b:	c3                   	retq   

0000000000005d5c <safe_mod_func_uint16_t_u_u>:
    5d5c:	f3 0f 1e fa          	endbr64 
    5d60:	55                   	push   %rbp
    5d61:	48 89 e5             	mov    %rsp,%rbp
    5d64:	89 fa                	mov    %edi,%edx
    5d66:	89 f0                	mov    %esi,%eax
    5d68:	66 89 55 fc          	mov    %dx,-0x4(%rbp)
    5d6c:	66 89 45 f8          	mov    %ax,-0x8(%rbp)
    5d70:	66 83 7d f8 00       	cmpw   $0x0,-0x8(%rbp)
    5d75:	74 11                	je     5d88 <safe_mod_func_uint16_t_u_u+0x2c>
    5d77:	0f b7 45 fc          	movzwl -0x4(%rbp),%eax
    5d7b:	ba 00 00 00 00       	mov    $0x0,%edx
    5d80:	66 f7 75 f8          	divw   -0x8(%rbp)
    5d84:	89 d0                	mov    %edx,%eax
    5d86:	eb 04                	jmp    5d8c <safe_mod_func_uint16_t_u_u+0x30>
    5d88:	0f b7 45 fc          	movzwl -0x4(%rbp),%eax
    5d8c:	5d                   	pop    %rbp
    5d8d:	c3                   	retq   

0000000000005d8e <safe_div_func_uint16_t_u_u>:
    5d8e:	f3 0f 1e fa          	endbr64 
    5d92:	55                   	push   %rbp
    5d93:	48 89 e5             	mov    %rsp,%rbp
    5d96:	89 fa                	mov    %edi,%edx
    5d98:	89 f0                	mov    %esi,%eax
    5d9a:	66 89 55 fc          	mov    %dx,-0x4(%rbp)
    5d9e:	66 89 45 f8          	mov    %ax,-0x8(%rbp)
    5da2:	66 83 7d f8 00       	cmpw   $0x0,-0x8(%rbp)
    5da7:	74 0f                	je     5db8 <safe_div_func_uint16_t_u_u+0x2a>
    5da9:	0f b7 45 fc          	movzwl -0x4(%rbp),%eax
    5dad:	ba 00 00 00 00       	mov    $0x0,%edx
    5db2:	66 f7 75 f8          	divw   -0x8(%rbp)
    5db6:	eb 04                	jmp    5dbc <safe_div_func_uint16_t_u_u+0x2e>
    5db8:	0f b7 45 fc          	movzwl -0x4(%rbp),%eax
    5dbc:	5d                   	pop    %rbp
    5dbd:	c3                   	retq   

0000000000005dbe <safe_lshift_func_uint16_t_u_s>:
    5dbe:	f3 0f 1e fa          	endbr64 
    5dc2:	55                   	push   %rbp
    5dc3:	48 89 e5             	mov    %rsp,%rbp
    5dc6:	89 f8                	mov    %edi,%eax
    5dc8:	89 75 f8             	mov    %esi,-0x8(%rbp)
    5dcb:	66 89 45 fc          	mov    %ax,-0x4(%rbp)
    5dcf:	83 7d f8 00          	cmpl   $0x0,-0x8(%rbp)
    5dd3:	78 2b                	js     5e00 <safe_lshift_func_uint16_t_u_s+0x42>
    5dd5:	83 7d f8 1f          	cmpl   $0x1f,-0x8(%rbp)
    5dd9:	7f 25                	jg     5e00 <safe_lshift_func_uint16_t_u_s+0x42>
    5ddb:	0f b7 55 fc          	movzwl -0x4(%rbp),%edx
    5ddf:	8b 45 f8             	mov    -0x8(%rbp),%eax
    5de2:	be ff ff 00 00       	mov    $0xffff,%esi
    5de7:	89 c1                	mov    %eax,%ecx
    5de9:	d3 fe                	sar    %cl,%esi
    5deb:	89 f0                	mov    %esi,%eax
    5ded:	39 c2                	cmp    %eax,%edx
    5def:	7f 0f                	jg     5e00 <safe_lshift_func_uint16_t_u_s+0x42>
    5df1:	0f b7 55 fc          	movzwl -0x4(%rbp),%edx
    5df5:	8b 45 f8             	mov    -0x8(%rbp),%eax
    5df8:	89 c1                	mov    %eax,%ecx
    5dfa:	d3 e2                	shl    %cl,%edx
    5dfc:	89 d0                	mov    %edx,%eax
    5dfe:	eb 04                	jmp    5e04 <safe_lshift_func_uint16_t_u_s+0x46>
    5e00:	0f b7 45 fc          	movzwl -0x4(%rbp),%eax
    5e04:	5d                   	pop    %rbp
    5e05:	c3                   	retq   

0000000000005e06 <safe_lshift_func_uint16_t_u_u>:
    5e06:	f3 0f 1e fa          	endbr64 
    5e0a:	55                   	push   %rbp
    5e0b:	48 89 e5             	mov    %rsp,%rbp
    5e0e:	89 f8                	mov    %edi,%eax
    5e10:	89 75 f8             	mov    %esi,-0x8(%rbp)
    5e13:	66 89 45 fc          	mov    %ax,-0x4(%rbp)
    5e17:	83 7d f8 1f          	cmpl   $0x1f,-0x8(%rbp)
    5e1b:	77 25                	ja     5e42 <safe_lshift_func_uint16_t_u_u+0x3c>
    5e1d:	0f b7 55 fc          	movzwl -0x4(%rbp),%edx
    5e21:	8b 45 f8             	mov    -0x8(%rbp),%eax
    5e24:	be ff ff 00 00       	mov    $0xffff,%esi
    5e29:	89 c1                	mov    %eax,%ecx
    5e2b:	d3 fe                	sar    %cl,%esi
    5e2d:	89 f0                	mov    %esi,%eax
    5e2f:	39 c2                	cmp    %eax,%edx
    5e31:	7f 0f                	jg     5e42 <safe_lshift_func_uint16_t_u_u+0x3c>
    5e33:	0f b7 55 fc          	movzwl -0x4(%rbp),%edx
    5e37:	8b 45 f8             	mov    -0x8(%rbp),%eax
    5e3a:	89 c1                	mov    %eax,%ecx
    5e3c:	d3 e2                	shl    %cl,%edx
    5e3e:	89 d0                	mov    %edx,%eax
    5e40:	eb 04                	jmp    5e46 <safe_lshift_func_uint16_t_u_u+0x40>
    5e42:	0f b7 45 fc          	movzwl -0x4(%rbp),%eax
    5e46:	5d                   	pop    %rbp
    5e47:	c3                   	retq   

0000000000005e48 <safe_rshift_func_uint16_t_u_s>:
    5e48:	f3 0f 1e fa          	endbr64 
    5e4c:	55                   	push   %rbp
    5e4d:	48 89 e5             	mov    %rsp,%rbp
    5e50:	89 f8                	mov    %edi,%eax
    5e52:	89 75 f8             	mov    %esi,-0x8(%rbp)
    5e55:	66 89 45 fc          	mov    %ax,-0x4(%rbp)
    5e59:	83 7d f8 00          	cmpl   $0x0,-0x8(%rbp)
    5e5d:	78 15                	js     5e74 <safe_rshift_func_uint16_t_u_s+0x2c>
    5e5f:	83 7d f8 1f          	cmpl   $0x1f,-0x8(%rbp)
    5e63:	7f 0f                	jg     5e74 <safe_rshift_func_uint16_t_u_s+0x2c>
    5e65:	0f b7 55 fc          	movzwl -0x4(%rbp),%edx
    5e69:	8b 45 f8             	mov    -0x8(%rbp),%eax
    5e6c:	89 c1                	mov    %eax,%ecx
    5e6e:	d3 fa                	sar    %cl,%edx
    5e70:	89 d0                	mov    %edx,%eax
    5e72:	eb 04                	jmp    5e78 <safe_rshift_func_uint16_t_u_s+0x30>
    5e74:	0f b7 45 fc          	movzwl -0x4(%rbp),%eax
    5e78:	5d                   	pop    %rbp
    5e79:	c3                   	retq   

0000000000005e7a <safe_rshift_func_uint16_t_u_u>:
    5e7a:	f3 0f 1e fa          	endbr64 
    5e7e:	55                   	push   %rbp
    5e7f:	48 89 e5             	mov    %rsp,%rbp
    5e82:	89 f8                	mov    %edi,%eax
    5e84:	89 75 f8             	mov    %esi,-0x8(%rbp)
    5e87:	66 89 45 fc          	mov    %ax,-0x4(%rbp)
    5e8b:	83 7d f8 1f          	cmpl   $0x1f,-0x8(%rbp)
    5e8f:	77 0f                	ja     5ea0 <safe_rshift_func_uint16_t_u_u+0x26>
    5e91:	0f b7 55 fc          	movzwl -0x4(%rbp),%edx
    5e95:	8b 45 f8             	mov    -0x8(%rbp),%eax
    5e98:	89 c1                	mov    %eax,%ecx
    5e9a:	d3 fa                	sar    %cl,%edx
    5e9c:	89 d0                	mov    %edx,%eax
    5e9e:	eb 04                	jmp    5ea4 <safe_rshift_func_uint16_t_u_u+0x2a>
    5ea0:	0f b7 45 fc          	movzwl -0x4(%rbp),%eax
    5ea4:	5d                   	pop    %rbp
    5ea5:	c3                   	retq   

0000000000005ea6 <safe_unary_minus_func_uint32_t_u>:
    5ea6:	f3 0f 1e fa          	endbr64 
    5eaa:	55                   	push   %rbp
    5eab:	48 89 e5             	mov    %rsp,%rbp
    5eae:	89 7d fc             	mov    %edi,-0x4(%rbp)
    5eb1:	8b 45 fc             	mov    -0x4(%rbp),%eax
    5eb4:	f7 d8                	neg    %eax
    5eb6:	5d                   	pop    %rbp
    5eb7:	c3                   	retq   

0000000000005eb8 <safe_add_func_uint32_t_u_u>:
    5eb8:	f3 0f 1e fa          	endbr64 
    5ebc:	55                   	push   %rbp
    5ebd:	48 89 e5             	mov    %rsp,%rbp
    5ec0:	89 7d fc             	mov    %edi,-0x4(%rbp)
    5ec3:	89 75 f8             	mov    %esi,-0x8(%rbp)
    5ec6:	8b 55 fc             	mov    -0x4(%rbp),%edx
    5ec9:	8b 45 f8             	mov    -0x8(%rbp),%eax
    5ecc:	01 d0                	add    %edx,%eax
    5ece:	5d                   	pop    %rbp
    5ecf:	c3                   	retq   

0000000000005ed0 <safe_sub_func_uint32_t_u_u>:
    5ed0:	f3 0f 1e fa          	endbr64 
    5ed4:	55                   	push   %rbp
    5ed5:	48 89 e5             	mov    %rsp,%rbp
    5ed8:	89 7d fc             	mov    %edi,-0x4(%rbp)
    5edb:	89 75 f8             	mov    %esi,-0x8(%rbp)
    5ede:	8b 45 fc             	mov    -0x4(%rbp),%eax
    5ee1:	2b 45 f8             	sub    -0x8(%rbp),%eax
    5ee4:	5d                   	pop    %rbp
    5ee5:	c3                   	retq   

0000000000005ee6 <safe_mul_func_uint32_t_u_u>:
    5ee6:	f3 0f 1e fa          	endbr64 
    5eea:	55                   	push   %rbp
    5eeb:	48 89 e5             	mov    %rsp,%rbp
    5eee:	89 7d fc             	mov    %edi,-0x4(%rbp)
    5ef1:	89 75 f8             	mov    %esi,-0x8(%rbp)
    5ef4:	8b 45 fc             	mov    -0x4(%rbp),%eax
    5ef7:	0f af 45 f8          	imul   -0x8(%rbp),%eax
    5efb:	5d                   	pop    %rbp
    5efc:	c3                   	retq   

0000000000005efd <safe_mod_func_uint32_t_u_u>:
    5efd:	f3 0f 1e fa          	endbr64 
    5f01:	55                   	push   %rbp
    5f02:	48 89 e5             	mov    %rsp,%rbp
    5f05:	89 7d fc             	mov    %edi,-0x4(%rbp)
    5f08:	89 75 f8             	mov    %esi,-0x8(%rbp)
    5f0b:	83 7d f8 00          	cmpl   $0x0,-0x8(%rbp)
    5f0f:	74 0f                	je     5f20 <safe_mod_func_uint32_t_u_u+0x23>
    5f11:	8b 45 fc             	mov    -0x4(%rbp),%eax
    5f14:	ba 00 00 00 00       	mov    $0x0,%edx
    5f19:	f7 75 f8             	divl   -0x8(%rbp)
    5f1c:	89 d0                	mov    %edx,%eax
    5f1e:	eb 03                	jmp    5f23 <safe_mod_func_uint32_t_u_u+0x26>
    5f20:	8b 45 fc             	mov    -0x4(%rbp),%eax
    5f23:	5d                   	pop    %rbp
    5f24:	c3                   	retq   

0000000000005f25 <safe_div_func_uint32_t_u_u>:
    5f25:	f3 0f 1e fa          	endbr64 
    5f29:	55                   	push   %rbp
    5f2a:	48 89 e5             	mov    %rsp,%rbp
    5f2d:	89 7d fc             	mov    %edi,-0x4(%rbp)
    5f30:	89 75 f8             	mov    %esi,-0x8(%rbp)
    5f33:	83 7d f8 00          	cmpl   $0x0,-0x8(%rbp)
    5f37:	74 0d                	je     5f46 <safe_div_func_uint32_t_u_u+0x21>
    5f39:	8b 45 fc             	mov    -0x4(%rbp),%eax
    5f3c:	ba 00 00 00 00       	mov    $0x0,%edx
    5f41:	f7 75 f8             	divl   -0x8(%rbp)
    5f44:	eb 03                	jmp    5f49 <safe_div_func_uint32_t_u_u+0x24>
    5f46:	8b 45 fc             	mov    -0x4(%rbp),%eax
    5f49:	5d                   	pop    %rbp
    5f4a:	c3                   	retq   

0000000000005f4b <safe_lshift_func_uint32_t_u_s>:
    5f4b:	f3 0f 1e fa          	endbr64 
    5f4f:	55                   	push   %rbp
    5f50:	48 89 e5             	mov    %rsp,%rbp
    5f53:	89 7d fc             	mov    %edi,-0x4(%rbp)
    5f56:	89 75 f8             	mov    %esi,-0x8(%rbp)
    5f59:	83 7d f8 00          	cmpl   $0x0,-0x8(%rbp)
    5f5d:	78 27                	js     5f86 <safe_lshift_func_uint32_t_u_s+0x3b>
    5f5f:	83 7d f8 1f          	cmpl   $0x1f,-0x8(%rbp)
    5f63:	7f 21                	jg     5f86 <safe_lshift_func_uint32_t_u_s+0x3b>
    5f65:	8b 45 f8             	mov    -0x8(%rbp),%eax
    5f68:	ba ff ff ff ff       	mov    $0xffffffff,%edx
    5f6d:	89 c1                	mov    %eax,%ecx
    5f6f:	d3 ea                	shr    %cl,%edx
    5f71:	89 d0                	mov    %edx,%eax
    5f73:	39 45 fc             	cmp    %eax,-0x4(%rbp)
    5f76:	77 0e                	ja     5f86 <safe_lshift_func_uint32_t_u_s+0x3b>
    5f78:	8b 45 f8             	mov    -0x8(%rbp),%eax
    5f7b:	8b 55 fc             	mov    -0x4(%rbp),%edx
    5f7e:	89 c1                	mov    %eax,%ecx
    5f80:	d3 e2                	shl    %cl,%edx
    5f82:	89 d0                	mov    %edx,%eax
    5f84:	eb 03                	jmp    5f89 <safe_lshift_func_uint32_t_u_s+0x3e>
    5f86:	8b 45 fc             	mov    -0x4(%rbp),%eax
    5f89:	5d                   	pop    %rbp
    5f8a:	c3                   	retq   

0000000000005f8b <safe_lshift_func_uint32_t_u_u>:
    5f8b:	f3 0f 1e fa          	endbr64 
    5f8f:	55                   	push   %rbp
    5f90:	48 89 e5             	mov    %rsp,%rbp
    5f93:	89 7d fc             	mov    %edi,-0x4(%rbp)
    5f96:	89 75 f8             	mov    %esi,-0x8(%rbp)
    5f99:	83 7d f8 1f          	cmpl   $0x1f,-0x8(%rbp)
    5f9d:	77 21                	ja     5fc0 <safe_lshift_func_uint32_t_u_u+0x35>
    5f9f:	8b 45 f8             	mov    -0x8(%rbp),%eax
    5fa2:	ba ff ff ff ff       	mov    $0xffffffff,%edx
    5fa7:	89 c1                	mov    %eax,%ecx
    5fa9:	d3 ea                	shr    %cl,%edx
    5fab:	89 d0                	mov    %edx,%eax
    5fad:	39 45 fc             	cmp    %eax,-0x4(%rbp)
    5fb0:	77 0e                	ja     5fc0 <safe_lshift_func_uint32_t_u_u+0x35>
    5fb2:	8b 45 f8             	mov    -0x8(%rbp),%eax
    5fb5:	8b 55 fc             	mov    -0x4(%rbp),%edx
    5fb8:	89 c1                	mov    %eax,%ecx
    5fba:	d3 e2                	shl    %cl,%edx
    5fbc:	89 d0                	mov    %edx,%eax
    5fbe:	eb 03                	jmp    5fc3 <safe_lshift_func_uint32_t_u_u+0x38>
    5fc0:	8b 45 fc             	mov    -0x4(%rbp),%eax
    5fc3:	5d                   	pop    %rbp
    5fc4:	c3                   	retq   

0000000000005fc5 <safe_rshift_func_uint32_t_u_s>:
    5fc5:	f3 0f 1e fa          	endbr64 
    5fc9:	55                   	push   %rbp
    5fca:	48 89 e5             	mov    %rsp,%rbp
    5fcd:	89 7d fc             	mov    %edi,-0x4(%rbp)
    5fd0:	89 75 f8             	mov    %esi,-0x8(%rbp)
    5fd3:	83 7d f8 00          	cmpl   $0x0,-0x8(%rbp)
    5fd7:	78 14                	js     5fed <safe_rshift_func_uint32_t_u_s+0x28>
    5fd9:	83 7d f8 1f          	cmpl   $0x1f,-0x8(%rbp)
    5fdd:	7f 0e                	jg     5fed <safe_rshift_func_uint32_t_u_s+0x28>
    5fdf:	8b 45 f8             	mov    -0x8(%rbp),%eax
    5fe2:	8b 55 fc             	mov    -0x4(%rbp),%edx
    5fe5:	89 c1                	mov    %eax,%ecx
    5fe7:	d3 ea                	shr    %cl,%edx
    5fe9:	89 d0                	mov    %edx,%eax
    5feb:	eb 03                	jmp    5ff0 <safe_rshift_func_uint32_t_u_s+0x2b>
    5fed:	8b 45 fc             	mov    -0x4(%rbp),%eax
    5ff0:	5d                   	pop    %rbp
    5ff1:	c3                   	retq   

0000000000005ff2 <safe_rshift_func_uint32_t_u_u>:
    5ff2:	f3 0f 1e fa          	endbr64 
    5ff6:	55                   	push   %rbp
    5ff7:	48 89 e5             	mov    %rsp,%rbp
    5ffa:	89 7d fc             	mov    %edi,-0x4(%rbp)
    5ffd:	89 75 f8             	mov    %esi,-0x8(%rbp)
    6000:	83 7d f8 1f          	cmpl   $0x1f,-0x8(%rbp)
    6004:	77 0e                	ja     6014 <safe_rshift_func_uint32_t_u_u+0x22>
    6006:	8b 45 f8             	mov    -0x8(%rbp),%eax
    6009:	8b 55 fc             	mov    -0x4(%rbp),%edx
    600c:	89 c1                	mov    %eax,%ecx
    600e:	d3 ea                	shr    %cl,%edx
    6010:	89 d0                	mov    %edx,%eax
    6012:	eb 03                	jmp    6017 <safe_rshift_func_uint32_t_u_u+0x25>
    6014:	8b 45 fc             	mov    -0x4(%rbp),%eax
    6017:	5d                   	pop    %rbp
    6018:	c3                   	retq   

0000000000006019 <safe_unary_minus_func_uint64_t_u>:
    6019:	f3 0f 1e fa          	endbr64 
    601d:	55                   	push   %rbp
    601e:	48 89 e5             	mov    %rsp,%rbp
    6021:	48 89 7d f8          	mov    %rdi,-0x8(%rbp)
    6025:	48 8b 45 f8          	mov    -0x8(%rbp),%rax
    6029:	48 f7 d8             	neg    %rax
    602c:	5d                   	pop    %rbp
    602d:	c3                   	retq   

000000000000602e <safe_add_func_uint64_t_u_u>:
    602e:	f3 0f 1e fa          	endbr64 
    6032:	55                   	push   %rbp
    6033:	48 89 e5             	mov    %rsp,%rbp
    6036:	48 89 7d f8          	mov    %rdi,-0x8(%rbp)
    603a:	48 89 75 f0          	mov    %rsi,-0x10(%rbp)
    603e:	48 8b 55 f8          	mov    -0x8(%rbp),%rdx
    6042:	48 8b 45 f0          	mov    -0x10(%rbp),%rax
    6046:	48 01 d0             	add    %rdx,%rax
    6049:	5d                   	pop    %rbp
    604a:	c3                   	retq   

000000000000604b <safe_sub_func_uint64_t_u_u>:
    604b:	f3 0f 1e fa          	endbr64 
    604f:	55                   	push   %rbp
    6050:	48 89 e5             	mov    %rsp,%rbp
    6053:	48 89 7d f8          	mov    %rdi,-0x8(%rbp)
    6057:	48 89 75 f0          	mov    %rsi,-0x10(%rbp)
    605b:	48 8b 45 f8          	mov    -0x8(%rbp),%rax
    605f:	48 2b 45 f0          	sub    -0x10(%rbp),%rax
    6063:	5d                   	pop    %rbp
    6064:	c3                   	retq   

0000000000006065 <safe_mul_func_uint64_t_u_u>:
    6065:	f3 0f 1e fa          	endbr64 
    6069:	55                   	push   %rbp
    606a:	48 89 e5             	mov    %rsp,%rbp
    606d:	48 89 7d f8          	mov    %rdi,-0x8(%rbp)
    6071:	48 89 75 f0          	mov    %rsi,-0x10(%rbp)
    6075:	48 8b 45 f8          	mov    -0x8(%rbp),%rax
    6079:	48 0f af 45 f0       	imul   -0x10(%rbp),%rax
    607e:	5d                   	pop    %rbp
    607f:	c3                   	retq   

0000000000006080 <safe_mod_func_uint64_t_u_u>:
    6080:	f3 0f 1e fa          	endbr64 
    6084:	55                   	push   %rbp
    6085:	48 89 e5             	mov    %rsp,%rbp
    6088:	48 89 7d f8          	mov    %rdi,-0x8(%rbp)
    608c:	48 89 75 f0          	mov    %rsi,-0x10(%rbp)
    6090:	48 83 7d f0 00       	cmpq   $0x0,-0x10(%rbp)
    6095:	74 12                	je     60a9 <safe_mod_func_uint64_t_u_u+0x29>
    6097:	48 8b 45 f8          	mov    -0x8(%rbp),%rax
    609b:	ba 00 00 00 00       	mov    $0x0,%edx
    60a0:	48 f7 75 f0          	divq   -0x10(%rbp)
    60a4:	48 89 d0             	mov    %rdx,%rax
    60a7:	eb 04                	jmp    60ad <safe_mod_func_uint64_t_u_u+0x2d>
    60a9:	48 8b 45 f8          	mov    -0x8(%rbp),%rax
    60ad:	5d                   	pop    %rbp
    60ae:	c3                   	retq   

00000000000060af <safe_div_func_uint64_t_u_u>:
    60af:	f3 0f 1e fa          	endbr64 
    60b3:	55                   	push   %rbp
    60b4:	48 89 e5             	mov    %rsp,%rbp
    60b7:	48 89 7d f8          	mov    %rdi,-0x8(%rbp)
    60bb:	48 89 75 f0          	mov    %rsi,-0x10(%rbp)
    60bf:	48 83 7d f0 00       	cmpq   $0x0,-0x10(%rbp)
    60c4:	74 0f                	je     60d5 <safe_div_func_uint64_t_u_u+0x26>
    60c6:	48 8b 45 f8          	mov    -0x8(%rbp),%rax
    60ca:	ba 00 00 00 00       	mov    $0x0,%edx
    60cf:	48 f7 75 f0          	divq   -0x10(%rbp)
    60d3:	eb 04                	jmp    60d9 <safe_div_func_uint64_t_u_u+0x2a>
    60d5:	48 8b 45 f8          	mov    -0x8(%rbp),%rax
    60d9:	5d                   	pop    %rbp
    60da:	c3                   	retq   

00000000000060db <safe_lshift_func_uint64_t_u_s>:
    60db:	f3 0f 1e fa          	endbr64 
    60df:	55                   	push   %rbp
    60e0:	48 89 e5             	mov    %rsp,%rbp
    60e3:	48 89 7d f8          	mov    %rdi,-0x8(%rbp)
    60e7:	89 75 f4             	mov    %esi,-0xc(%rbp)
    60ea:	83 7d f4 00          	cmpl   $0x0,-0xc(%rbp)
    60ee:	78 2f                	js     611f <safe_lshift_func_uint64_t_u_s+0x44>
    60f0:	83 7d f4 1f          	cmpl   $0x1f,-0xc(%rbp)
    60f4:	7f 29                	jg     611f <safe_lshift_func_uint64_t_u_s+0x44>
    60f6:	8b 45 f4             	mov    -0xc(%rbp),%eax
    60f9:	48 c7 c2 ff ff ff ff 	mov    $0xffffffffffffffff,%rdx
    6100:	89 c1                	mov    %eax,%ecx
    6102:	48 d3 ea             	shr    %cl,%rdx
    6105:	48 89 d0             	mov    %rdx,%rax
    6108:	48 39 45 f8          	cmp    %rax,-0x8(%rbp)
    610c:	77 11                	ja     611f <safe_lshift_func_uint64_t_u_s+0x44>
    610e:	8b 45 f4             	mov    -0xc(%rbp),%eax
    6111:	48 8b 55 f8          	mov    -0x8(%rbp),%rdx
    6115:	89 c1                	mov    %eax,%ecx
    6117:	48 d3 e2             	shl    %cl,%rdx
    611a:	48 89 d0             	mov    %rdx,%rax
    611d:	eb 04                	jmp    6123 <safe_lshift_func_uint64_t_u_s+0x48>
    611f:	48 8b 45 f8          	mov    -0x8(%rbp),%rax
    6123:	5d                   	pop    %rbp
    6124:	c3                   	retq   

0000000000006125 <safe_lshift_func_uint64_t_u_u>:
    6125:	f3 0f 1e fa          	endbr64 
    6129:	55                   	push   %rbp
    612a:	48 89 e5             	mov    %rsp,%rbp
    612d:	48 89 7d f8          	mov    %rdi,-0x8(%rbp)
    6131:	89 75 f4             	mov    %esi,-0xc(%rbp)
    6134:	83 7d f4 1f          	cmpl   $0x1f,-0xc(%rbp)
    6138:	77 29                	ja     6163 <safe_lshift_func_uint64_t_u_u+0x3e>
    613a:	8b 45 f4             	mov    -0xc(%rbp),%eax
    613d:	48 c7 c2 ff ff ff ff 	mov    $0xffffffffffffffff,%rdx
    6144:	89 c1                	mov    %eax,%ecx
    6146:	48 d3 ea             	shr    %cl,%rdx
    6149:	48 89 d0             	mov    %rdx,%rax
    614c:	48 39 45 f8          	cmp    %rax,-0x8(%rbp)
    6150:	77 11                	ja     6163 <safe_lshift_func_uint64_t_u_u+0x3e>
    6152:	8b 45 f4             	mov    -0xc(%rbp),%eax
    6155:	48 8b 55 f8          	mov    -0x8(%rbp),%rdx
    6159:	89 c1                	mov    %eax,%ecx
    615b:	48 d3 e2             	shl    %cl,%rdx
    615e:	48 89 d0             	mov    %rdx,%rax
    6161:	eb 04                	jmp    6167 <safe_lshift_func_uint64_t_u_u+0x42>
    6163:	48 8b 45 f8          	mov    -0x8(%rbp),%rax
    6167:	5d                   	pop    %rbp
    6168:	c3                   	retq   

0000000000006169 <safe_rshift_func_uint64_t_u_s>:
    6169:	f3 0f 1e fa          	endbr64 
    616d:	55                   	push   %rbp
    616e:	48 89 e5             	mov    %rsp,%rbp
    6171:	48 89 7d f8          	mov    %rdi,-0x8(%rbp)
    6175:	89 75 f4             	mov    %esi,-0xc(%rbp)
    6178:	83 7d f4 00          	cmpl   $0x0,-0xc(%rbp)
    617c:	78 17                	js     6195 <safe_rshift_func_uint64_t_u_s+0x2c>
    617e:	83 7d f4 1f          	cmpl   $0x1f,-0xc(%rbp)
    6182:	7f 11                	jg     6195 <safe_rshift_func_uint64_t_u_s+0x2c>
    6184:	8b 45 f4             	mov    -0xc(%rbp),%eax
    6187:	48 8b 55 f8          	mov    -0x8(%rbp),%rdx
    618b:	89 c1                	mov    %eax,%ecx
    618d:	48 d3 ea             	shr    %cl,%rdx
    6190:	48 89 d0             	mov    %rdx,%rax
    6193:	eb 04                	jmp    6199 <safe_rshift_func_uint64_t_u_s+0x30>
    6195:	48 8b 45 f8          	mov    -0x8(%rbp),%rax
    6199:	5d                   	pop    %rbp
    619a:	c3                   	retq   

000000000000619b <safe_rshift_func_uint64_t_u_u>:
    619b:	f3 0f 1e fa          	endbr64 
    619f:	55                   	push   %rbp
    61a0:	48 89 e5             	mov    %rsp,%rbp
    61a3:	48 89 7d f8          	mov    %rdi,-0x8(%rbp)
    61a7:	89 75 f4             	mov    %esi,-0xc(%rbp)
    61aa:	83 7d f4 1f          	cmpl   $0x1f,-0xc(%rbp)
    61ae:	77 11                	ja     61c1 <safe_rshift_func_uint64_t_u_u+0x26>
    61b0:	8b 45 f4             	mov    -0xc(%rbp),%eax
    61b3:	48 8b 55 f8          	mov    -0x8(%rbp),%rdx
    61b7:	89 c1                	mov    %eax,%ecx
    61b9:	48 d3 ea             	shr    %cl,%rdx
    61bc:	48 89 d0             	mov    %rdx,%rax
    61bf:	eb 04                	jmp    61c5 <safe_rshift_func_uint64_t_u_u+0x2a>
    61c1:	48 8b 45 f8          	mov    -0x8(%rbp),%rax
    61c5:	5d                   	pop    %rbp
    61c6:	c3                   	retq   

00000000000061c7 <safe_add_func_float_f_f>:
    61c7:	f3 0f 1e fa          	endbr64 
    61cb:	55                   	push   %rbp
    61cc:	48 89 e5             	mov    %rsp,%rbp
    61cf:	f3 0f 11 45 fc       	movss  %xmm0,-0x4(%rbp)
    61d4:	f3 0f 11 4d f8       	movss  %xmm1,-0x8(%rbp)
    61d9:	f3 0f 10 4d fc       	movss  -0x4(%rbp),%xmm1
    61de:	f3 0f 10 05 1e 24 01 	movss  0x1241e(%rip),%xmm0        # 18604 <g_2389+0x153c>
    61e5:	00 
    61e6:	f3 0f 59 c8          	mulss  %xmm0,%xmm1
    61ea:	f3 0f 10 55 f8       	movss  -0x8(%rbp),%xmm2
    61ef:	f3 0f 10 05 0d 24 01 	movss  0x1240d(%rip),%xmm0        # 18604 <g_2389+0x153c>
    61f6:	00 
    61f7:	f3 0f 59 c2          	mulss  %xmm2,%xmm0
    61fb:	f3 0f 58 c1          	addss  %xmm1,%xmm0
    61ff:	f3 0f 10 0d 09 24 01 	movss  0x12409(%rip),%xmm1        # 18610 <g_2389+0x1548>
    6206:	00 
    6207:	0f 54 c1             	andps  %xmm1,%xmm0
    620a:	0f 2f 05 0f 24 01 00 	comiss 0x1240f(%rip),%xmm0        # 18620 <g_2389+0x1558>
    6211:	76 07                	jbe    621a <safe_add_func_float_f_f+0x53>
    6213:	f3 0f 10 45 fc       	movss  -0x4(%rbp),%xmm0
    6218:	eb 0a                	jmp    6224 <safe_add_func_float_f_f+0x5d>
    621a:	f3 0f 10 45 fc       	movss  -0x4(%rbp),%xmm0
    621f:	f3 0f 58 45 f8       	addss  -0x8(%rbp),%xmm0
    6224:	5d                   	pop    %rbp
    6225:	c3                   	retq   

0000000000006226 <safe_sub_func_float_f_f>:
    6226:	f3 0f 1e fa          	endbr64 
    622a:	55                   	push   %rbp
    622b:	48 89 e5             	mov    %rsp,%rbp
    622e:	f3 0f 11 45 fc       	movss  %xmm0,-0x4(%rbp)
    6233:	f3 0f 11 4d f8       	movss  %xmm1,-0x8(%rbp)
    6238:	f3 0f 10 4d fc       	movss  -0x4(%rbp),%xmm1
    623d:	f3 0f 10 05 bf 23 01 	movss  0x123bf(%rip),%xmm0        # 18604 <g_2389+0x153c>
    6244:	00 
    6245:	f3 0f 59 c1          	mulss  %xmm1,%xmm0
    6249:	f3 0f 10 55 f8       	movss  -0x8(%rbp),%xmm2
    624e:	f3 0f 10 0d ae 23 01 	movss  0x123ae(%rip),%xmm1        # 18604 <g_2389+0x153c>
    6255:	00 
    6256:	f3 0f 59 ca          	mulss  %xmm2,%xmm1
    625a:	f3 0f 5c c1          	subss  %xmm1,%xmm0
    625e:	f3 0f 10 0d aa 23 01 	movss  0x123aa(%rip),%xmm1        # 18610 <g_2389+0x1548>
    6265:	00 
    6266:	0f 54 c1             	andps  %xmm1,%xmm0
    6269:	0f 2f 05 b0 23 01 00 	comiss 0x123b0(%rip),%xmm0        # 18620 <g_2389+0x1558>
    6270:	76 07                	jbe    6279 <safe_sub_func_float_f_f+0x53>
    6272:	f3 0f 10 45 fc       	movss  -0x4(%rbp),%xmm0
    6277:	eb 0a                	jmp    6283 <safe_sub_func_float_f_f+0x5d>
    6279:	f3 0f 10 45 fc       	movss  -0x4(%rbp),%xmm0
    627e:	f3 0f 5c 45 f8       	subss  -0x8(%rbp),%xmm0
    6283:	5d                   	pop    %rbp
    6284:	c3                   	retq   

0000000000006285 <safe_mul_func_float_f_f>:
    6285:	f3 0f 1e fa          	endbr64 
    6289:	55                   	push   %rbp
    628a:	48 89 e5             	mov    %rsp,%rbp
    628d:	f3 0f 11 45 fc       	movss  %xmm0,-0x4(%rbp)
    6292:	f3 0f 11 4d f8       	movss  %xmm1,-0x8(%rbp)
    6297:	f3 0f 10 4d fc       	movss  -0x4(%rbp),%xmm1
    629c:	f3 0f 10 05 80 23 01 	movss  0x12380(%rip),%xmm0        # 18624 <g_2389+0x155c>
    62a3:	00 
    62a4:	f3 0f 59 c8          	mulss  %xmm0,%xmm1
    62a8:	f3 0f 10 55 f8       	movss  -0x8(%rbp),%xmm2
    62ad:	f3 0f 10 05 73 23 01 	movss  0x12373(%rip),%xmm0        # 18628 <g_2389+0x1560>
    62b4:	00 
    62b5:	f3 0f 59 c2          	mulss  %xmm2,%xmm0
    62b9:	f3 0f 59 c1          	mulss  %xmm1,%xmm0
    62bd:	f3 0f 10 0d 4b 23 01 	movss  0x1234b(%rip),%xmm1        # 18610 <g_2389+0x1548>
    62c4:	00 
    62c5:	0f 54 c1             	andps  %xmm1,%xmm0
    62c8:	0f 2f 05 5d 23 01 00 	comiss 0x1235d(%rip),%xmm0        # 1862c <g_2389+0x1564>
    62cf:	76 07                	jbe    62d8 <safe_mul_func_float_f_f+0x53>
    62d1:	f3 0f 10 45 fc       	movss  -0x4(%rbp),%xmm0
    62d6:	eb 0a                	jmp    62e2 <safe_mul_func_float_f_f+0x5d>
    62d8:	f3 0f 10 45 fc       	movss  -0x4(%rbp),%xmm0
    62dd:	f3 0f 59 45 f8       	mulss  -0x8(%rbp),%xmm0
    62e2:	5d                   	pop    %rbp
    62e3:	c3                   	retq   

00000000000062e4 <safe_div_func_float_f_f>:
    62e4:	f3 0f 1e fa          	endbr64 
    62e8:	55                   	push   %rbp
    62e9:	48 89 e5             	mov    %rsp,%rbp
    62ec:	f3 0f 11 45 fc       	movss  %xmm0,-0x4(%rbp)
    62f1:	f3 0f 11 4d f8       	movss  %xmm1,-0x8(%rbp)
    62f6:	f3 0f 10 45 f8       	movss  -0x8(%rbp),%xmm0
    62fb:	f3 0f 10 0d 0d 23 01 	movss  0x1230d(%rip),%xmm1        # 18610 <g_2389+0x1548>
    6302:	00 
    6303:	0f 54 c8             	andps  %xmm0,%xmm1
    6306:	f3 0f 10 05 22 23 01 	movss  0x12322(%rip),%xmm0        # 18630 <g_2389+0x1568>
    630d:	00 
    630e:	0f 2f c1             	comiss %xmm1,%xmm0
    6311:	0f 97 c0             	seta   %al
    6314:	83 f0 01             	xor    $0x1,%eax
    6317:	84 c0                	test   %al,%al
    6319:	75 56                	jne    6371 <safe_div_func_float_f_f+0x8d>
    631b:	66 0f ef c0          	pxor   %xmm0,%xmm0
    631f:	0f 2e 45 f8          	ucomiss -0x8(%rbp),%xmm0
    6323:	7a 0a                	jp     632f <safe_div_func_float_f_f+0x4b>
    6325:	66 0f ef c0          	pxor   %xmm0,%xmm0
    6329:	0f 2e 45 f8          	ucomiss -0x8(%rbp),%xmm0
    632d:	74 4e                	je     637d <safe_div_func_float_f_f+0x99>
    632f:	f3 0f 10 4d fc       	movss  -0x4(%rbp),%xmm1
    6334:	f3 0f 10 05 f8 22 01 	movss  0x122f8(%rip),%xmm0        # 18634 <g_2389+0x156c>
    633b:	00 
    633c:	f3 0f 59 c1          	mulss  %xmm1,%xmm0
    6340:	f3 0f 10 55 f8       	movss  -0x8(%rbp),%xmm2
    6345:	f3 0f 10 0d eb 22 01 	movss  0x122eb(%rip),%xmm1        # 18638 <g_2389+0x1570>
    634c:	00 
    634d:	f3 0f 59 ca          	mulss  %xmm2,%xmm1
    6351:	f3 0f 5e c1          	divss  %xmm1,%xmm0
    6355:	f3 0f 10 0d b3 22 01 	movss  0x122b3(%rip),%xmm1        # 18610 <g_2389+0x1548>
    635c:	00 
    635d:	0f 54 c1             	andps  %xmm1,%xmm0
    6360:	0f 2f 05 d5 22 01 00 	comiss 0x122d5(%rip),%xmm0        # 1863c <g_2389+0x1574>
    6367:	0f 97 c0             	seta   %al
    636a:	83 f0 01             	xor    $0x1,%eax
    636d:	84 c0                	test   %al,%al
    636f:	74 0c                	je     637d <safe_div_func_float_f_f+0x99>
    6371:	f3 0f 10 45 fc       	movss  -0x4(%rbp),%xmm0
    6376:	f3 0f 5e 45 f8       	divss  -0x8(%rbp),%xmm0
    637b:	eb 05                	jmp    6382 <safe_div_func_float_f_f+0x9e>
    637d:	f3 0f 10 45 fc       	movss  -0x4(%rbp),%xmm0
    6382:	5d                   	pop    %rbp
    6383:	c3                   	retq   

0000000000006384 <safe_add_func_double_f_f>:
    6384:	f3 0f 1e fa          	endbr64 
    6388:	55                   	push   %rbp
    6389:	48 89 e5             	mov    %rsp,%rbp
    638c:	f2 0f 11 45 f8       	movsd  %xmm0,-0x8(%rbp)
    6391:	f2 0f 11 4d f0       	movsd  %xmm1,-0x10(%rbp)
    6396:	f2 0f 10 4d f8       	movsd  -0x8(%rbp),%xmm1
    639b:	f2 0f 10 05 9d 22 01 	movsd  0x1229d(%rip),%xmm0        # 18640 <g_2389+0x1578>
    63a2:	00 
    63a3:	f2 0f 59 c8          	mulsd  %xmm0,%xmm1
    63a7:	f2 0f 10 55 f0       	movsd  -0x10(%rbp),%xmm2
    63ac:	f2 0f 10 05 8c 22 01 	movsd  0x1228c(%rip),%xmm0        # 18640 <g_2389+0x1578>
    63b3:	00 
    63b4:	f2 0f 59 c2          	mulsd  %xmm2,%xmm0
    63b8:	f2 0f 58 c1          	addsd  %xmm1,%xmm0
    63bc:	f3 0f 7e 0d 8c 22 01 	movq   0x1228c(%rip),%xmm1        # 18650 <g_2389+0x1588>
    63c3:	00 
    63c4:	66 0f 54 c1          	andpd  %xmm1,%xmm0
    63c8:	66 0f 2f 05 90 22 01 	comisd 0x12290(%rip),%xmm0        # 18660 <g_2389+0x1598>
    63cf:	00 
    63d0:	76 07                	jbe    63d9 <safe_add_func_double_f_f+0x55>
    63d2:	f2 0f 10 45 f8       	movsd  -0x8(%rbp),%xmm0
    63d7:	eb 0a                	jmp    63e3 <safe_add_func_double_f_f+0x5f>
    63d9:	f2 0f 10 45 f8       	movsd  -0x8(%rbp),%xmm0
    63de:	f2 0f 58 45 f0       	addsd  -0x10(%rbp),%xmm0
    63e3:	5d                   	pop    %rbp
    63e4:	c3                   	retq   

00000000000063e5 <safe_sub_func_double_f_f>:
    63e5:	f3 0f 1e fa          	endbr64 
    63e9:	55                   	push   %rbp
    63ea:	48 89 e5             	mov    %rsp,%rbp
    63ed:	f2 0f 11 45 f8       	movsd  %xmm0,-0x8(%rbp)
    63f2:	f2 0f 11 4d f0       	movsd  %xmm1,-0x10(%rbp)
    63f7:	f2 0f 10 4d f8       	movsd  -0x8(%rbp),%xmm1
    63fc:	f2 0f 10 05 3c 22 01 	movsd  0x1223c(%rip),%xmm0        # 18640 <g_2389+0x1578>
    6403:	00 
    6404:	f2 0f 59 c1          	mulsd  %xmm1,%xmm0
    6408:	f2 0f 10 55 f0       	movsd  -0x10(%rbp),%xmm2
    640d:	f2 0f 10 0d 2b 22 01 	movsd  0x1222b(%rip),%xmm1        # 18640 <g_2389+0x1578>
    6414:	00 
    6415:	f2 0f 59 ca          	mulsd  %xmm2,%xmm1
    6419:	f2 0f 5c c1          	subsd  %xmm1,%xmm0
    641d:	f3 0f 7e 0d 2b 22 01 	movq   0x1222b(%rip),%xmm1        # 18650 <g_2389+0x1588>
    6424:	00 
    6425:	66 0f 54 c1          	andpd  %xmm1,%xmm0
    6429:	66 0f 2f 05 2f 22 01 	comisd 0x1222f(%rip),%xmm0        # 18660 <g_2389+0x1598>
    6430:	00 
    6431:	76 07                	jbe    643a <safe_sub_func_double_f_f+0x55>
    6433:	f2 0f 10 45 f8       	movsd  -0x8(%rbp),%xmm0
    6438:	eb 0a                	jmp    6444 <safe_sub_func_double_f_f+0x5f>
    643a:	f2 0f 10 45 f8       	movsd  -0x8(%rbp),%xmm0
    643f:	f2 0f 5c 45 f0       	subsd  -0x10(%rbp),%xmm0
    6444:	5d                   	pop    %rbp
    6445:	c3                   	retq   

0000000000006446 <safe_mul_func_double_f_f>:
    6446:	f3 0f 1e fa          	endbr64 
    644a:	55                   	push   %rbp
    644b:	48 89 e5             	mov    %rsp,%rbp
    644e:	f2 0f 11 45 f8       	movsd  %xmm0,-0x8(%rbp)
    6453:	f2 0f 11 4d f0       	movsd  %xmm1,-0x10(%rbp)
    6458:	f2 0f 10 4d f8       	movsd  -0x8(%rbp),%xmm1
    645d:	f2 0f 10 05 03 22 01 	movsd  0x12203(%rip),%xmm0        # 18668 <g_2389+0x15a0>
    6464:	00 
    6465:	f2 0f 59 c8          	mulsd  %xmm0,%xmm1
    6469:	f2 0f 10 55 f0       	movsd  -0x10(%rbp),%xmm2
    646e:	f2 0f 10 05 fa 21 01 	movsd  0x121fa(%rip),%xmm0        # 18670 <g_2389+0x15a8>
    6475:	00 
    6476:	f2 0f 59 c2          	mulsd  %xmm2,%xmm0
    647a:	f2 0f 59 c1          	mulsd  %xmm1,%xmm0
    647e:	f3 0f 7e 0d ca 21 01 	movq   0x121ca(%rip),%xmm1        # 18650 <g_2389+0x1588>
    6485:	00 
    6486:	66 0f 54 c1          	andpd  %xmm1,%xmm0
    648a:	66 0f 2f 05 e6 21 01 	comisd 0x121e6(%rip),%xmm0        # 18678 <g_2389+0x15b0>
    6491:	00 
    6492:	76 07                	jbe    649b <safe_mul_func_double_f_f+0x55>
    6494:	f2 0f 10 45 f8       	movsd  -0x8(%rbp),%xmm0
    6499:	eb 0a                	jmp    64a5 <safe_mul_func_double_f_f+0x5f>
    649b:	f2 0f 10 45 f8       	movsd  -0x8(%rbp),%xmm0
    64a0:	f2 0f 59 45 f0       	mulsd  -0x10(%rbp),%xmm0
    64a5:	5d                   	pop    %rbp
    64a6:	c3                   	retq   

00000000000064a7 <safe_div_func_double_f_f>:
    64a7:	f3 0f 1e fa          	endbr64 
    64ab:	55                   	push   %rbp
    64ac:	48 89 e5             	mov    %rsp,%rbp
    64af:	f2 0f 11 45 f8       	movsd  %xmm0,-0x8(%rbp)
    64b4:	f2 0f 11 4d f0       	movsd  %xmm1,-0x10(%rbp)
    64b9:	f2 0f 10 45 f0       	movsd  -0x10(%rbp),%xmm0
    64be:	f3 0f 7e 0d 8a 21 01 	movq   0x1218a(%rip),%xmm1        # 18650 <g_2389+0x1588>
    64c5:	00 
    64c6:	66 0f 54 c8          	andpd  %xmm0,%xmm1
    64ca:	f2 0f 10 05 ae 21 01 	movsd  0x121ae(%rip),%xmm0        # 18680 <g_2389+0x15b8>
    64d1:	00 
    64d2:	66 0f 2f c1          	comisd %xmm1,%xmm0
    64d6:	0f 97 c0             	seta   %al
    64d9:	83 f0 01             	xor    $0x1,%eax
    64dc:	84 c0                	test   %al,%al
    64de:	75 5a                	jne    653a <safe_div_func_double_f_f+0x93>
    64e0:	66 0f ef c0          	pxor   %xmm0,%xmm0
    64e4:	66 0f 2e 45 f0       	ucomisd -0x10(%rbp),%xmm0
    64e9:	7a 0b                	jp     64f6 <safe_div_func_double_f_f+0x4f>
    64eb:	66 0f ef c0          	pxor   %xmm0,%xmm0
    64ef:	66 0f 2e 45 f0       	ucomisd -0x10(%rbp),%xmm0
    64f4:	74 50                	je     6546 <safe_div_func_double_f_f+0x9f>
    64f6:	f2 0f 10 4d f8       	movsd  -0x8(%rbp),%xmm1
    64fb:	f2 0f 10 05 85 21 01 	movsd  0x12185(%rip),%xmm0        # 18688 <g_2389+0x15c0>
    6502:	00 
    6503:	f2 0f 59 c1          	mulsd  %xmm1,%xmm0
    6507:	f2 0f 10 55 f0       	movsd  -0x10(%rbp),%xmm2
    650c:	f2 0f 10 0d 7c 21 01 	movsd  0x1217c(%rip),%xmm1        # 18690 <g_2389+0x15c8>
    6513:	00 
    6514:	f2 0f 59 ca          	mulsd  %xmm2,%xmm1
    6518:	f2 0f 5e c1          	divsd  %xmm1,%xmm0
    651c:	f3 0f 7e 0d 2c 21 01 	movq   0x1212c(%rip),%xmm1        # 18650 <g_2389+0x1588>
    6523:	00 
    6524:	66 0f 54 c1          	andpd  %xmm1,%xmm0
    6528:	66 0f 2f 05 68 21 01 	comisd 0x12168(%rip),%xmm0        # 18698 <g_2389+0x15d0>
    652f:	00 
    6530:	0f 97 c0             	seta   %al
    6533:	83 f0 01             	xor    $0x1,%eax
    6536:	84 c0                	test   %al,%al
    6538:	74 0c                	je     6546 <safe_div_func_double_f_f+0x9f>
    653a:	f2 0f 10 45 f8       	movsd  -0x8(%rbp),%xmm0
    653f:	f2 0f 5e 45 f0       	divsd  -0x10(%rbp),%xmm0
    6544:	eb 05                	jmp    654b <safe_div_func_double_f_f+0xa4>
    6546:	f2 0f 10 45 f8       	movsd  -0x8(%rbp),%xmm0
    654b:	5d                   	pop    %rbp
    654c:	c3                   	retq   

000000000000654d <safe_convert_func_float_to_int32_t>:
    654d:	f3 0f 1e fa          	endbr64 
    6551:	55                   	push   %rbp
    6552:	48 89 e5             	mov    %rsp,%rbp
    6555:	f3 0f 11 45 fc       	movss  %xmm0,-0x4(%rbp)
    655a:	f3 0f 10 05 3e 21 01 	movss  0x1213e(%rip),%xmm0        # 186a0 <g_2389+0x15d8>
    6561:	00 
    6562:	0f 2f 45 fc          	comiss -0x4(%rbp),%xmm0
    6566:	0f 93 c0             	setae  %al
    6569:	83 f0 01             	xor    $0x1,%eax
    656c:	84 c0                	test   %al,%al
    656e:	74 21                	je     6591 <safe_convert_func_float_to_int32_t+0x44>
    6570:	f3 0f 10 45 fc       	movss  -0x4(%rbp),%xmm0
    6575:	0f 2f 05 28 21 01 00 	comiss 0x12128(%rip),%xmm0        # 186a4 <g_2389+0x15dc>
    657c:	0f 93 c0             	setae  %al
    657f:	83 f0 01             	xor    $0x1,%eax
    6582:	84 c0                	test   %al,%al
    6584:	74 0b                	je     6591 <safe_convert_func_float_to_int32_t+0x44>
    6586:	f3 0f 10 45 fc       	movss  -0x4(%rbp),%xmm0
    658b:	f3 0f 2c c0          	cvttss2si %xmm0,%eax
    658f:	eb 05                	jmp    6596 <safe_convert_func_float_to_int32_t+0x49>
    6591:	b8 ff ff ff 7f       	mov    $0x7fffffff,%eax
    6596:	5d                   	pop    %rbp
    6597:	c3                   	retq   

0000000000006598 <crc32_gentab>:
    6598:	f3 0f 1e fa          	endbr64 
    659c:	55                   	push   %rbp
    659d:	48 89 e5             	mov    %rsp,%rbp
    65a0:	c7 45 fc 20 83 b8 ed 	movl   $0xedb88320,-0x4(%rbp)
    65a7:	c7 45 f4 00 00 00 00 	movl   $0x0,-0xc(%rbp)
    65ae:	eb 51                	jmp    6601 <crc32_gentab+0x69>
    65b0:	8b 45 f4             	mov    -0xc(%rbp),%eax
    65b3:	89 45 f0             	mov    %eax,-0x10(%rbp)
    65b6:	c7 45 f8 08 00 00 00 	movl   $0x8,-0x8(%rbp)
    65bd:	eb 1e                	jmp    65dd <crc32_gentab+0x45>
    65bf:	8b 45 f0             	mov    -0x10(%rbp),%eax
    65c2:	83 e0 01             	and    $0x1,%eax
    65c5:	85 c0                	test   %eax,%eax
    65c7:	74 0d                	je     65d6 <crc32_gentab+0x3e>
    65c9:	8b 45 f0             	mov    -0x10(%rbp),%eax
    65cc:	d1 e8                	shr    %eax
    65ce:	33 45 fc             	xor    -0x4(%rbp),%eax
    65d1:	89 45 f0             	mov    %eax,-0x10(%rbp)
    65d4:	eb 03                	jmp    65d9 <crc32_gentab+0x41>
    65d6:	d1 6d f0             	shrl   -0x10(%rbp)
    65d9:	83 6d f8 01          	subl   $0x1,-0x8(%rbp)
    65dd:	83 7d f8 00          	cmpl   $0x0,-0x8(%rbp)
    65e1:	7f dc                	jg     65bf <crc32_gentab+0x27>
    65e3:	8b 45 f4             	mov    -0xc(%rbp),%eax
    65e6:	48 98                	cltq   
    65e8:	48 8d 0c 85 00 00 00 	lea    0x0(,%rax,4),%rcx
    65ef:	00 
    65f0:	48 8d 15 29 76 01 00 	lea    0x17629(%rip),%rdx        # 1dc20 <crc32_tab>
    65f7:	8b 45 f0             	mov    -0x10(%rbp),%eax
    65fa:	89 04 11             	mov    %eax,(%rcx,%rdx,1)
    65fd:	83 45 f4 01          	addl   $0x1,-0xc(%rbp)
    6601:	81 7d f4 ff 00 00 00 	cmpl   $0xff,-0xc(%rbp)
    6608:	7e a6                	jle    65b0 <crc32_gentab+0x18>
    660a:	90                   	nop
    660b:	90                   	nop
    660c:	5d                   	pop    %rbp
    660d:	c3                   	retq   

000000000000660e <crc32_byte>:
    660e:	f3 0f 1e fa          	endbr64 
    6612:	55                   	push   %rbp
    6613:	48 89 e5             	mov    %rsp,%rbp
    6616:	89 f8                	mov    %edi,%eax
    6618:	88 45 fc             	mov    %al,-0x4(%rbp)
    661b:	8b 05 ff 49 01 00    	mov    0x149ff(%rip),%eax        # 1b020 <crc32_context>
    6621:	c1 e8 08             	shr    $0x8,%eax
    6624:	89 c1                	mov    %eax,%ecx
    6626:	0f b6 55 fc          	movzbl -0x4(%rbp),%edx
    662a:	8b 05 f0 49 01 00    	mov    0x149f0(%rip),%eax        # 1b020 <crc32_context>
    6630:	31 d0                	xor    %edx,%eax
    6632:	0f b6 c0             	movzbl %al,%eax
    6635:	89 c0                	mov    %eax,%eax
    6637:	48 8d 14 85 00 00 00 	lea    0x0(,%rax,4),%rdx
    663e:	00 
    663f:	48 8d 05 da 75 01 00 	lea    0x175da(%rip),%rax        # 1dc20 <crc32_tab>
    6646:	8b 04 02             	mov    (%rdx,%rax,1),%eax
    6649:	31 c8                	xor    %ecx,%eax
    664b:	89 05 cf 49 01 00    	mov    %eax,0x149cf(%rip)        # 1b020 <crc32_context>
    6651:	90                   	nop
    6652:	5d                   	pop    %rbp
    6653:	c3                   	retq   

0000000000006654 <crc32_8bytes>:
    6654:	f3 0f 1e fa          	endbr64 
    6658:	55                   	push   %rbp
    6659:	48 89 e5             	mov    %rsp,%rbp
    665c:	48 83 ec 08          	sub    $0x8,%rsp
    6660:	48 89 7d f8          	mov    %rdi,-0x8(%rbp)
    6664:	48 8b 45 f8          	mov    -0x8(%rbp),%rax
    6668:	0f b6 c0             	movzbl %al,%eax
    666b:	89 c7                	mov    %eax,%edi
    666d:	e8 9c ff ff ff       	callq  660e <crc32_byte>
    6672:	48 8b 45 f8          	mov    -0x8(%rbp),%rax
    6676:	48 c1 e8 08          	shr    $0x8,%rax
    667a:	0f b6 c0             	movzbl %al,%eax
    667d:	89 c7                	mov    %eax,%edi
    667f:	e8 8a ff ff ff       	callq  660e <crc32_byte>
    6684:	48 8b 45 f8          	mov    -0x8(%rbp),%rax
    6688:	48 c1 e8 10          	shr    $0x10,%rax
    668c:	0f b6 c0             	movzbl %al,%eax
    668f:	89 c7                	mov    %eax,%edi
    6691:	e8 78 ff ff ff       	callq  660e <crc32_byte>
    6696:	48 8b 45 f8          	mov    -0x8(%rbp),%rax
    669a:	48 c1 e8 18          	shr    $0x18,%rax
    669e:	0f b6 c0             	movzbl %al,%eax
    66a1:	89 c7                	mov    %eax,%edi
    66a3:	e8 66 ff ff ff       	callq  660e <crc32_byte>
    66a8:	48 8b 45 f8          	mov    -0x8(%rbp),%rax
    66ac:	48 c1 e8 20          	shr    $0x20,%rax
    66b0:	0f b6 c0             	movzbl %al,%eax
    66b3:	89 c7                	mov    %eax,%edi
    66b5:	e8 54 ff ff ff       	callq  660e <crc32_byte>
    66ba:	48 8b 45 f8          	mov    -0x8(%rbp),%rax
    66be:	48 c1 e8 28          	shr    $0x28,%rax
    66c2:	0f b6 c0             	movzbl %al,%eax
    66c5:	89 c7                	mov    %eax,%edi
    66c7:	e8 42 ff ff ff       	callq  660e <crc32_byte>
    66cc:	48 8b 45 f8          	mov    -0x8(%rbp),%rax
    66d0:	48 c1 e8 30          	shr    $0x30,%rax
    66d4:	0f b6 c0             	movzbl %al,%eax
    66d7:	89 c7                	mov    %eax,%edi
    66d9:	e8 30 ff ff ff       	callq  660e <crc32_byte>
    66de:	48 8b 45 f8          	mov    -0x8(%rbp),%rax
    66e2:	48 c1 e8 38          	shr    $0x38,%rax
    66e6:	0f b6 c0             	movzbl %al,%eax
    66e9:	89 c7                	mov    %eax,%edi
    66eb:	e8 1e ff ff ff       	callq  660e <crc32_byte>
    66f0:	90                   	nop
    66f1:	c9                   	leaveq 
    66f2:	c3                   	retq   

00000000000066f3 <transparent_crc>:
    66f3:	f3 0f 1e fa          	endbr64 
    66f7:	55                   	push   %rbp
    66f8:	48 89 e5             	mov    %rsp,%rbp
    66fb:	48 83 ec 20          	sub    $0x20,%rsp
    66ff:	48 89 7d f8          	mov    %rdi,-0x8(%rbp)
    6703:	48 89 75 f0          	mov    %rsi,-0x10(%rbp)
    6707:	89 55 ec             	mov    %edx,-0x14(%rbp)
    670a:	48 8b 45 f8          	mov    -0x8(%rbp),%rax
    670e:	48 89 c7             	mov    %rax,%rdi
    6711:	e8 3e ff ff ff       	callq  6654 <crc32_8bytes>
    6716:	83 7d ec 00          	cmpl   $0x0,-0x14(%rbp)
    671a:	74 22                	je     673e <transparent_crc+0x4b>
    671c:	8b 05 fe 48 01 00    	mov    0x148fe(%rip),%eax        # 1b020 <crc32_context>
    6722:	f7 d0                	not    %eax
    6724:	89 c2                	mov    %eax,%edx
    6726:	48 8b 45 f0          	mov    -0x10(%rbp),%rax
    672a:	48 89 c6             	mov    %rax,%rsi
    672d:	48 8d 3d fc 08 01 00 	lea    0x108fc(%rip),%rdi        # 17030 <_IO_stdin_used+0x30>
    6734:	b8 00 00 00 00       	mov    $0x0,%eax
    6739:	e8 42 e9 ff ff       	callq  5080 <printf@plt>
    673e:	90                   	nop
    673f:	c9                   	leaveq 
    6740:	c3                   	retq   

0000000000006741 <transparent_crc_bytes>:
    6741:	f3 0f 1e fa          	endbr64 
    6745:	55                   	push   %rbp
    6746:	48 89 e5             	mov    %rsp,%rbp
    6749:	48 83 ec 30          	sub    $0x30,%rsp
    674d:	48 89 7d e8          	mov    %rdi,-0x18(%rbp)
    6751:	89 75 e4             	mov    %esi,-0x1c(%rbp)
    6754:	48 89 55 d8          	mov    %rdx,-0x28(%rbp)
    6758:	89 4d e0             	mov    %ecx,-0x20(%rbp)
    675b:	c7 45 fc 00 00 00 00 	movl   $0x0,-0x4(%rbp)
    6762:	eb 1e                	jmp    6782 <transparent_crc_bytes+0x41>
    6764:	8b 45 fc             	mov    -0x4(%rbp),%eax
    6767:	48 63 d0             	movslq %eax,%rdx
    676a:	48 8b 45 e8          	mov    -0x18(%rbp),%rax
    676e:	48 01 d0             	add    %rdx,%rax
    6771:	0f b6 00             	movzbl (%rax),%eax
    6774:	0f b6 c0             	movzbl %al,%eax
    6777:	89 c7                	mov    %eax,%edi
    6779:	e8 90 fe ff ff       	callq  660e <crc32_byte>
    677e:	83 45 fc 01          	addl   $0x1,-0x4(%rbp)
    6782:	8b 45 fc             	mov    -0x4(%rbp),%eax
    6785:	3b 45 e4             	cmp    -0x1c(%rbp),%eax
    6788:	7c da                	jl     6764 <transparent_crc_bytes+0x23>
    678a:	83 7d e0 00          	cmpl   $0x0,-0x20(%rbp)
    678e:	74 22                	je     67b2 <transparent_crc_bytes+0x71>
    6790:	8b 05 8a 48 01 00    	mov    0x1488a(%rip),%eax        # 1b020 <crc32_context>
    6796:	f7 d0                	not    %eax
    6798:	89 c2                	mov    %eax,%edx
    679a:	48 8b 45 d8          	mov    -0x28(%rbp),%rax
    679e:	48 89 c6             	mov    %rax,%rsi
    67a1:	48 8d 3d 88 08 01 00 	lea    0x10888(%rip),%rdi        # 17030 <_IO_stdin_used+0x30>
    67a8:	b8 00 00 00 00       	mov    $0x0,%eax
    67ad:	e8 ce e8 ff ff       	callq  5080 <printf@plt>
    67b2:	90                   	nop
    67b3:	c9                   	leaveq 
    67b4:	c3                   	retq   

00000000000067b5 <func_1>:
    67b5:	f3 0f 1e fa          	endbr64 
    67b9:	55                   	push   %rbp
    67ba:	48 89 e5             	mov    %rsp,%rbp
    67bd:	41 57                	push   %r15
    67bf:	41 56                	push   %r14
    67c1:	41 55                	push   %r13
    67c3:	41 54                	push   %r12
    67c5:	53                   	push   %rbx
    67c6:	48 81 ec 00 10 00 00 	sub    $0x1000,%rsp
    67cd:	48 83 0c 24 00       	orq    $0x0,(%rsp)
    67d2:	48 81 ec 38 02 00 00 	sub    $0x238,%rsp
    67d9:	64 48 8b 04 25 28 00 	mov    %fs:0x28,%rax
    67e0:	00 00 
    67e2:	48 89 45 c8          	mov    %rax,-0x38(%rbp)
    67e6:	31 c0                	xor    %eax,%eax
    67e8:	c7 85 f8 ed ff ff 48 	movl   $0xfb37b048,-0x1208(%rbp)
    67ef:	b0 37 fb 
    67f2:	48 8d 05 2f 48 01 00 	lea    0x1482f(%rip),%rax        # 1b028 <g_32>
    67f9:	48 89 85 b0 f1 ff ff 	mov    %rax,-0xe50(%rbp)
    6800:	48 8d 05 21 48 01 00 	lea    0x14821(%rip),%rax        # 1b028 <g_32>
    6807:	48 89 85 b8 f1 ff ff 	mov    %rax,-0xe48(%rbp)
    680e:	48 8d 05 13 48 01 00 	lea    0x14813(%rip),%rax        # 1b028 <g_32>
    6815:	48 89 85 c0 f1 ff ff 	mov    %rax,-0xe40(%rbp)
    681c:	48 8d 05 05 48 01 00 	lea    0x14805(%rip),%rax        # 1b028 <g_32>
    6823:	48 89 85 c8 f1 ff ff 	mov    %rax,-0xe38(%rbp)
    682a:	48 8d 05 f7 47 01 00 	lea    0x147f7(%rip),%rax        # 1b028 <g_32>
    6831:	48 89 85 d0 f1 ff ff 	mov    %rax,-0xe30(%rbp)
    6838:	48 8d 05 e9 47 01 00 	lea    0x147e9(%rip),%rax        # 1b028 <g_32>
    683f:	48 89 85 d8 f1 ff ff 	mov    %rax,-0xe28(%rbp)
    6846:	48 8d 05 db 47 01 00 	lea    0x147db(%rip),%rax        # 1b028 <g_32>
    684d:	48 89 85 e0 f1 ff ff 	mov    %rax,-0xe20(%rbp)
    6854:	48 8d 05 cd 47 01 00 	lea    0x147cd(%rip),%rax        # 1b028 <g_32>
    685b:	48 89 85 e8 f1 ff ff 	mov    %rax,-0xe18(%rbp)
    6862:	48 8d 05 bf 47 01 00 	lea    0x147bf(%rip),%rax        # 1b028 <g_32>
    6869:	48 89 85 f0 f1 ff ff 	mov    %rax,-0xe10(%rbp)
    6870:	48 c7 85 48 ef ff ff 	movq   $0x0,-0x10b8(%rbp)
    6877:	00 00 00 00 
    687b:	48 8d 05 a6 47 01 00 	lea    0x147a6(%rip),%rax        # 1b028 <g_32>
    6882:	48 89 85 50 ef ff ff 	mov    %rax,-0x10b0(%rbp)
    6889:	48 8d 05 6c 4a 01 00 	lea    0x14a6c(%rip),%rax        # 1b2fc <g_42+0x2bc>
    6890:	48 89 85 58 ef ff ff 	mov    %rax,-0x10a8(%rbp)
    6897:	48 8d 05 96 4a 01 00 	lea    0x14a96(%rip),%rax        # 1b334 <g_44>
    689e:	48 89 85 f0 f4 ff ff 	mov    %rax,-0xb10(%rbp)
    68a5:	48 8d 05 88 4a 01 00 	lea    0x14a88(%rip),%rax        # 1b334 <g_44>
    68ac:	48 89 85 f8 f4 ff ff 	mov    %rax,-0xb08(%rbp)
    68b3:	48 8d 05 7a 4a 01 00 	lea    0x14a7a(%rip),%rax        # 1b334 <g_44>
    68ba:	48 89 85 00 f5 ff ff 	mov    %rax,-0xb00(%rbp)
    68c1:	48 8d 85 f8 ed ff ff 	lea    -0x1208(%rbp),%rax
    68c8:	48 89 85 08 f5 ff ff 	mov    %rax,-0xaf8(%rbp)
    68cf:	48 8d 05 5e 4a 01 00 	lea    0x14a5e(%rip),%rax        # 1b334 <g_44>
    68d6:	48 89 85 10 f5 ff ff 	mov    %rax,-0xaf0(%rbp)
    68dd:	48 8d 05 50 4a 01 00 	lea    0x14a50(%rip),%rax        # 1b334 <g_44>
    68e4:	48 89 85 18 f5 ff ff 	mov    %rax,-0xae8(%rbp)
    68eb:	48 8d 05 42 4a 01 00 	lea    0x14a42(%rip),%rax        # 1b334 <g_44>
    68f2:	48 89 85 20 f5 ff ff 	mov    %rax,-0xae0(%rbp)
    68f9:	48 8d 85 f8 ed ff ff 	lea    -0x1208(%rbp),%rax
    6900:	48 89 85 28 f5 ff ff 	mov    %rax,-0xad8(%rbp)
    6907:	48 8d 05 26 4a 01 00 	lea    0x14a26(%rip),%rax        # 1b334 <g_44>
    690e:	48 89 85 30 f5 ff ff 	mov    %rax,-0xad0(%rbp)
    6915:	48 8d 05 18 4a 01 00 	lea    0x14a18(%rip),%rax        # 1b334 <g_44>
    691c:	48 89 85 38 f5 ff ff 	mov    %rax,-0xac8(%rbp)
    6923:	48 8d 05 0a 4a 01 00 	lea    0x14a0a(%rip),%rax        # 1b334 <g_44>
    692a:	48 89 85 40 f5 ff ff 	mov    %rax,-0xac0(%rbp)
    6931:	48 8d 85 f8 ed ff ff 	lea    -0x1208(%rbp),%rax
    6938:	48 89 85 48 f5 ff ff 	mov    %rax,-0xab8(%rbp)
    693f:	48 8d 05 ee 49 01 00 	lea    0x149ee(%rip),%rax        # 1b334 <g_44>
    6946:	48 89 85 50 f5 ff ff 	mov    %rax,-0xab0(%rbp)
    694d:	48 8d 05 e0 49 01 00 	lea    0x149e0(%rip),%rax        # 1b334 <g_44>
    6954:	48 89 85 58 f5 ff ff 	mov    %rax,-0xaa8(%rbp)
    695b:	48 8d 85 f8 ed ff ff 	lea    -0x1208(%rbp),%rax
    6962:	48 89 85 60 f5 ff ff 	mov    %rax,-0xaa0(%rbp)
    6969:	48 8d 05 c4 49 01 00 	lea    0x149c4(%rip),%rax        # 1b334 <g_44>
    6970:	48 89 85 68 f5 ff ff 	mov    %rax,-0xa98(%rbp)
    6977:	48 8d 85 f8 ed ff ff 	lea    -0x1208(%rbp),%rax
    697e:	48 89 85 70 f5 ff ff 	mov    %rax,-0xa90(%rbp)
    6985:	48 8d 85 f8 ed ff ff 	lea    -0x1208(%rbp),%rax
    698c:	48 89 85 78 f5 ff ff 	mov    %rax,-0xa88(%rbp)
    6993:	48 8d 05 9a 49 01 00 	lea    0x1499a(%rip),%rax        # 1b334 <g_44>
    699a:	48 89 85 80 f5 ff ff 	mov    %rax,-0xa80(%rbp)
    69a1:	48 8d 85 f8 ed ff ff 	lea    -0x1208(%rbp),%rax
    69a8:	48 89 85 88 f5 ff ff 	mov    %rax,-0xa78(%rbp)
    69af:	48 8d 05 7e 49 01 00 	lea    0x1497e(%rip),%rax        # 1b334 <g_44>
    69b6:	48 89 85 90 f5 ff ff 	mov    %rax,-0xa70(%rbp)
    69bd:	48 8d 85 f8 ed ff ff 	lea    -0x1208(%rbp),%rax
    69c4:	48 89 85 98 f5 ff ff 	mov    %rax,-0xa68(%rbp)
    69cb:	48 8d 85 f8 ed ff ff 	lea    -0x1208(%rbp),%rax
    69d2:	48 89 85 a0 f5 ff ff 	mov    %rax,-0xa60(%rbp)
    69d9:	48 8d 85 f8 ed ff ff 	lea    -0x1208(%rbp),%rax
    69e0:	48 89 85 a8 f5 ff ff 	mov    %rax,-0xa58(%rbp)
    69e7:	48 8d 05 46 49 01 00 	lea    0x14946(%rip),%rax        # 1b334 <g_44>
    69ee:	48 89 85 b0 f5 ff ff 	mov    %rax,-0xa50(%rbp)
    69f5:	48 8d 05 38 49 01 00 	lea    0x14938(%rip),%rax        # 1b334 <g_44>
    69fc:	48 89 85 b8 f5 ff ff 	mov    %rax,-0xa48(%rbp)
    6a03:	48 8d 85 f8 ed ff ff 	lea    -0x1208(%rbp),%rax
    6a0a:	48 89 85 c0 f5 ff ff 	mov    %rax,-0xa40(%rbp)
    6a11:	48 8d 05 1c 49 01 00 	lea    0x1491c(%rip),%rax        # 1b334 <g_44>
    6a18:	48 89 85 c8 f5 ff ff 	mov    %rax,-0xa38(%rbp)
    6a1f:	48 8d 05 0e 49 01 00 	lea    0x1490e(%rip),%rax        # 1b334 <g_44>
    6a26:	48 89 85 d0 f5 ff ff 	mov    %rax,-0xa30(%rbp)
    6a2d:	48 8d 85 f8 ed ff ff 	lea    -0x1208(%rbp),%rax
    6a34:	48 89 85 d8 f5 ff ff 	mov    %rax,-0xa28(%rbp)
    6a3b:	48 8d 85 f8 ed ff ff 	lea    -0x1208(%rbp),%rax
    6a42:	48 89 85 e0 f5 ff ff 	mov    %rax,-0xa20(%rbp)
    6a49:	48 8d 85 f8 ed ff ff 	lea    -0x1208(%rbp),%rax
    6a50:	48 89 85 e8 f5 ff ff 	mov    %rax,-0xa18(%rbp)
    6a57:	48 8d 05 d6 48 01 00 	lea    0x148d6(%rip),%rax        # 1b334 <g_44>
    6a5e:	48 89 85 f0 f5 ff ff 	mov    %rax,-0xa10(%rbp)
    6a65:	48 8d 05 c8 48 01 00 	lea    0x148c8(%rip),%rax        # 1b334 <g_44>
    6a6c:	48 89 85 f8 f5 ff ff 	mov    %rax,-0xa08(%rbp)
    6a73:	48 8d 85 f8 ed ff ff 	lea    -0x1208(%rbp),%rax
    6a7a:	48 89 85 00 f6 ff ff 	mov    %rax,-0xa00(%rbp)
    6a81:	48 8d 85 f8 ed ff ff 	lea    -0x1208(%rbp),%rax
    6a88:	48 89 85 08 f6 ff ff 	mov    %rax,-0x9f8(%rbp)
    6a8f:	48 8d 85 f8 ed ff ff 	lea    -0x1208(%rbp),%rax
    6a96:	48 89 85 10 f6 ff ff 	mov    %rax,-0x9f0(%rbp)
    6a9d:	48 8d 85 f8 ed ff ff 	lea    -0x1208(%rbp),%rax
    6aa4:	48 89 85 18 f6 ff ff 	mov    %rax,-0x9e8(%rbp)
    6aab:	48 8d 05 82 48 01 00 	lea    0x14882(%rip),%rax        # 1b334 <g_44>
    6ab2:	48 89 85 20 f6 ff ff 	mov    %rax,-0x9e0(%rbp)
    6ab9:	48 8d 85 f8 ed ff ff 	lea    -0x1208(%rbp),%rax
    6ac0:	48 89 85 28 f6 ff ff 	mov    %rax,-0x9d8(%rbp)
    6ac7:	48 8d 85 f8 ed ff ff 	lea    -0x1208(%rbp),%rax
    6ace:	48 89 85 30 f6 ff ff 	mov    %rax,-0x9d0(%rbp)
    6ad5:	48 8d 05 58 48 01 00 	lea    0x14858(%rip),%rax        # 1b334 <g_44>
    6adc:	48 89 85 38 f6 ff ff 	mov    %rax,-0x9c8(%rbp)
    6ae3:	48 8d 85 f8 ed ff ff 	lea    -0x1208(%rbp),%rax
    6aea:	48 89 85 40 f6 ff ff 	mov    %rax,-0x9c0(%rbp)
    6af1:	48 8d 05 3c 48 01 00 	lea    0x1483c(%rip),%rax        # 1b334 <g_44>
    6af8:	48 89 85 48 f6 ff ff 	mov    %rax,-0x9b8(%rbp)
    6aff:	48 8d 85 f8 ed ff ff 	lea    -0x1208(%rbp),%rax
    6b06:	48 89 85 50 f6 ff ff 	mov    %rax,-0x9b0(%rbp)
    6b0d:	48 8d 85 f8 ed ff ff 	lea    -0x1208(%rbp),%rax
    6b14:	48 89 85 58 f6 ff ff 	mov    %rax,-0x9a8(%rbp)
    6b1b:	48 8d 85 f8 ed ff ff 	lea    -0x1208(%rbp),%rax
    6b22:	48 89 85 60 f6 ff ff 	mov    %rax,-0x9a0(%rbp)
    6b29:	48 8d 05 04 48 01 00 	lea    0x14804(%rip),%rax        # 1b334 <g_44>
    6b30:	48 89 85 68 f6 ff ff 	mov    %rax,-0x998(%rbp)
    6b37:	c6 85 e5 ed ff ff 01 	movb   $0x1,-0x121b(%rbp)
    6b3e:	c7 85 48 ee ff ff 01 	movl   $0x1,-0x11b8(%rbp)
    6b45:	00 00 00 
    6b48:	48 8d 05 77 51 01 00 	lea    0x15177(%rip),%rax        # 1bcc6 <g_1311+0x26>
    6b4f:	48 89 85 60 ef ff ff 	mov    %rax,-0x10a0(%rbp)
    6b56:	48 b8 4a a5 e3 6f c0 	movabs $0xbaa9a2c06fe3a54a,%rax
    6b5d:	a2 a9 ba 
    6b60:	48 89 85 30 f4 ff ff 	mov    %rax,-0xbd0(%rbp)
    6b67:	48 89 85 38 f4 ff ff 	mov    %rax,-0xbc8(%rbp)
    6b6e:	48 89 85 40 f4 ff ff 	mov    %rax,-0xbc0(%rbp)
    6b75:	48 89 85 48 f4 ff ff 	mov    %rax,-0xbb8(%rbp)
    6b7c:	48 89 85 50 f4 ff ff 	mov    %rax,-0xbb0(%rbp)
    6b83:	48 89 85 58 f4 ff ff 	mov    %rax,-0xba8(%rbp)
    6b8a:	48 89 85 60 f4 ff ff 	mov    %rax,-0xba0(%rbp)
    6b91:	48 89 85 68 f4 ff ff 	mov    %rax,-0xb98(%rbp)
    6b98:	48 89 85 70 f4 ff ff 	mov    %rax,-0xb90(%rbp)
    6b9f:	48 89 85 78 f4 ff ff 	mov    %rax,-0xb88(%rbp)
    6ba6:	48 89 85 80 f4 ff ff 	mov    %rax,-0xb80(%rbp)
    6bad:	48 89 85 88 f4 ff ff 	mov    %rax,-0xb78(%rbp)
    6bb4:	48 89 85 90 f4 ff ff 	mov    %rax,-0xb70(%rbp)
    6bbb:	48 89 85 98 f4 ff ff 	mov    %rax,-0xb68(%rbp)
    6bc2:	48 89 85 a0 f4 ff ff 	mov    %rax,-0xb60(%rbp)
    6bc9:	48 89 85 a8 f4 ff ff 	mov    %rax,-0xb58(%rbp)
    6bd0:	48 89 85 b0 f4 ff ff 	mov    %rax,-0xb50(%rbp)
    6bd7:	48 89 85 b8 f4 ff ff 	mov    %rax,-0xb48(%rbp)
    6bde:	48 89 85 c0 f4 ff ff 	mov    %rax,-0xb40(%rbp)
    6be5:	48 89 85 c8 f4 ff ff 	mov    %rax,-0xb38(%rbp)
    6bec:	48 89 85 d0 f4 ff ff 	mov    %rax,-0xb30(%rbp)
    6bf3:	48 89 85 d8 f4 ff ff 	mov    %rax,-0xb28(%rbp)
    6bfa:	48 89 85 e0 f4 ff ff 	mov    %rax,-0xb20(%rbp)
    6c01:	48 89 85 e8 f4 ff ff 	mov    %rax,-0xb18(%rbp)
    6c08:	48 8d 05 f1 4f 01 00 	lea    0x14ff1(%rip),%rax        # 1bc00 <g_1138>
    6c0f:	48 89 85 68 ef ff ff 	mov    %rax,-0x1098(%rbp)
    6c16:	c7 85 4c ee ff ff 01 	movl   $0x1,-0x11b4(%rbp)
    6c1d:	00 00 00 
    6c20:	48 8d 05 d3 4b 01 00 	lea    0x14bd3(%rip),%rax        # 1b7fa <g_149>
    6c27:	48 89 85 70 ef ff ff 	mov    %rax,-0x1090(%rbp)
    6c2e:	c7 85 50 ee ff ff 12 	movl   $0xd1592912,-0x11b0(%rbp)
    6c35:	29 59 d1 
    6c38:	c6 85 e6 ed ff ff ff 	movb   $0xff,-0x121a(%rbp)
    6c3f:	48 8d 05 c2 68 01 00 	lea    0x168c2(%rip),%rax        # 1d508 <g_922>
    6c46:	48 89 85 b0 ee ff ff 	mov    %rax,-0x1150(%rbp)
    6c4d:	48 8d 85 b0 ee ff ff 	lea    -0x1150(%rbp),%rax
    6c54:	48 89 85 b8 ee ff ff 	mov    %rax,-0x1148(%rbp)
    6c5b:	c7 85 54 ee ff ff c3 	movl   $0x48cfc1c3,-0x11ac(%rbp)
    6c62:	c1 cf 48 
    6c65:	66 c7 85 40 f1 ff ff 	movw   $0x45f1,-0xec0(%rbp)
    6c6c:	f1 45 
    6c6e:	66 c7 85 42 f1 ff ff 	movw   $0x96bc,-0xebe(%rbp)
    6c75:	bc 96 
    6c77:	66 c7 85 44 f1 ff ff 	movw   $0x45f1,-0xebc(%rbp)
    6c7e:	f1 45 
    6c80:	66 c7 85 46 f1 ff ff 	movw   $0x45f1,-0xeba(%rbp)
    6c87:	f1 45 
    6c89:	66 c7 85 48 f1 ff ff 	movw   $0x96bc,-0xeb8(%rbp)
    6c90:	bc 96 
    6c92:	66 c7 85 4a f1 ff ff 	movw   $0x45f1,-0xeb6(%rbp)
    6c99:	f1 45 
    6c9b:	66 c7 85 4c f1 ff ff 	movw   $0x45f1,-0xeb4(%rbp)
    6ca2:	f1 45 
    6ca4:	66 c7 85 4e f1 ff ff 	movw   $0x96bc,-0xeb2(%rbp)
    6cab:	bc 96 
    6cad:	66 c7 85 50 f1 ff ff 	movw   $0x45f1,-0xeb0(%rbp)
    6cb4:	f1 45 
    6cb6:	66 c7 85 52 f1 ff ff 	movw   $0x45f1,-0xeae(%rbp)
    6cbd:	f1 45 
    6cbf:	66 c7 85 54 f1 ff ff 	movw   $0x96bc,-0xeac(%rbp)
    6cc6:	bc 96 
    6cc8:	66 c7 85 56 f1 ff ff 	movw   $0x45f1,-0xeaa(%rbp)
    6ccf:	f1 45 
    6cd1:	66 c7 85 58 f1 ff ff 	movw   $0x45f1,-0xea8(%rbp)
    6cd8:	f1 45 
    6cda:	66 c7 85 5a f1 ff ff 	movw   $0x96bc,-0xea6(%rbp)
    6ce1:	bc 96 
    6ce3:	66 c7 85 5c f1 ff ff 	movw   $0x45f1,-0xea4(%rbp)
    6cea:	f1 45 
    6cec:	66 c7 85 5e f1 ff ff 	movw   $0x45f1,-0xea2(%rbp)
    6cf3:	f1 45 
    6cf5:	66 c7 85 60 f1 ff ff 	movw   $0x96bc,-0xea0(%rbp)
    6cfc:	bc 96 
    6cfe:	66 c7 85 62 f1 ff ff 	movw   $0x45f1,-0xe9e(%rbp)
    6d05:	f1 45 
    6d07:	66 c7 85 64 f1 ff ff 	movw   $0x45f1,-0xe9c(%rbp)
    6d0e:	f1 45 
    6d10:	66 c7 85 66 f1 ff ff 	movw   $0x96bc,-0xe9a(%rbp)
    6d17:	bc 96 
    6d19:	66 c7 85 50 f2 ff ff 	movw   $0xbc0e,-0xdb0(%rbp)
    6d20:	0e bc 
    6d22:	66 c7 85 52 f2 ff ff 	movw   $0x36bc,-0xdae(%rbp)
    6d29:	bc 36 
    6d2b:	66 c7 85 54 f2 ff ff 	movw   $0xbc0e,-0xdac(%rbp)
    6d32:	0e bc 
    6d34:	66 c7 85 56 f2 ff ff 	movw   $0x5df8,-0xdaa(%rbp)
    6d3b:	f8 5d 
    6d3d:	66 c7 85 58 f2 ff ff 	movw   $0x6a04,-0xda8(%rbp)
    6d44:	04 6a 
    6d46:	66 c7 85 5a f2 ff ff 	movw   $0xb63d,-0xda6(%rbp)
    6d4d:	3d b6 
    6d4f:	66 c7 85 5c f2 ff ff 	movw   $0xb94d,-0xda4(%rbp)
    6d56:	4d b9 
    6d58:	66 c7 85 5e f2 ff ff 	movw   $0xffff,-0xda2(%rbp)
    6d5f:	ff ff 
    6d61:	66 c7 85 60 f2 ff ff 	movw   $0xb991,-0xda0(%rbp)
    6d68:	91 b9 
    6d6a:	66 c7 85 62 f2 ff ff 	movw   $0x6a04,-0xd9e(%rbp)
    6d71:	04 6a 
    6d73:	66 c7 85 64 f2 ff ff 	movw   $0x6f00,-0xd9c(%rbp)
    6d7a:	00 6f 
    6d7c:	66 c7 85 66 f2 ff ff 	movw   $0xb63d,-0xd9a(%rbp)
    6d83:	3d b6 
    6d85:	66 c7 85 68 f2 ff ff 	movw   $0xb63d,-0xd98(%rbp)
    6d8c:	3d b6 
    6d8e:	66 c7 85 6a f2 ff ff 	movw   $0x6f00,-0xd96(%rbp)
    6d95:	00 6f 
    6d97:	66 c7 85 6c f2 ff ff 	movw   $0x6a04,-0xd94(%rbp)
    6d9e:	04 6a 
    6da0:	66 c7 85 6e f2 ff ff 	movw   $0xb991,-0xd92(%rbp)
    6da7:	91 b9 
    6da9:	66 c7 85 70 f2 ff ff 	movw   $0xb991,-0xd90(%rbp)
    6db0:	91 b9 
    6db2:	66 c7 85 72 f2 ff ff 	movw   $0x5df8,-0xd8e(%rbp)
    6db9:	f8 5d 
    6dbb:	66 c7 85 74 f2 ff ff 	movw   $0x1,-0xd8c(%rbp)
    6dc2:	01 00 
    6dc4:	66 c7 85 76 f2 ff ff 	movw   $0xbc0e,-0xd8a(%rbp)
    6dcb:	0e bc 
    6dcd:	66 c7 85 78 f2 ff ff 	movw   $0x6a04,-0xd88(%rbp)
    6dd4:	04 6a 
    6dd6:	66 c7 85 7a f2 ff ff 	movw   $0xf035,-0xd86(%rbp)
    6ddd:	35 f0 
    6ddf:	66 c7 85 7c f2 ff ff 	movw   $0x6f00,-0xd84(%rbp)
    6de6:	00 6f 
    6de8:	66 c7 85 7e f2 ff ff 	movw   $0xf035,-0xd82(%rbp)
    6def:	35 f0 
    6df1:	66 c7 85 80 f2 ff ff 	movw   $0xbc0e,-0xd80(%rbp)
    6df8:	0e bc 
    6dfa:	66 c7 85 82 f2 ff ff 	movw   $0xfff7,-0xd7e(%rbp)
    6e01:	f7 ff 
    6e03:	66 c7 85 84 f2 ff ff 	movw   $0xffff,-0xd7c(%rbp)
    6e0a:	ff ff 
    6e0c:	66 c7 85 86 f2 ff ff 	movw   $0xfff7,-0xd7a(%rbp)
    6e13:	f7 ff 
    6e15:	66 c7 85 88 f2 ff ff 	movw   $0xbc0e,-0xd78(%rbp)
    6e1c:	0e bc 
    6e1e:	66 c7 85 8a f2 ff ff 	movw   $0xf035,-0xd76(%rbp)
    6e25:	35 f0 
    6e27:	66 c7 85 8c f2 ff ff 	movw   $0x36bc,-0xd74(%rbp)
    6e2e:	bc 36 
    6e30:	66 c7 85 8e f2 ff ff 	movw   $0x6a04,-0xd72(%rbp)
    6e37:	04 6a 
    6e39:	66 c7 85 90 f2 ff ff 	movw   $0xb94d,-0xd70(%rbp)
    6e40:	4d b9 
    6e42:	66 c7 85 92 f2 ff ff 	movw   $0x5df8,-0xd6e(%rbp)
    6e49:	f8 5d 
    6e4b:	66 c7 85 94 f2 ff ff 	movw   $0xfff7,-0xd6c(%rbp)
    6e52:	f7 ff 
    6e54:	66 c7 85 96 f2 ff ff 	movw   $0xf9ba,-0xd6a(%rbp)
    6e5b:	ba f9 
    6e5d:	66 c7 85 98 f2 ff ff 	movw   $0x6f00,-0xd68(%rbp)
    6e64:	00 6f 
    6e66:	66 c7 85 9a f2 ff ff 	movw   $0x6f00,-0xd66(%rbp)
    6e6d:	00 6f 
    6e6f:	66 c7 85 9c f2 ff ff 	movw   $0xf9ba,-0xd64(%rbp)
    6e76:	ba f9 
    6e78:	66 c7 85 9e f2 ff ff 	movw   $0xfff7,-0xd62(%rbp)
    6e7f:	f7 ff 
    6e81:	48 b8 fa 81 6e b0 2c 	movabs $0x8d7da2cb06e81fa,%rax
    6e88:	da d7 08 
    6e8b:	48 89 85 78 ef ff ff 	mov    %rax,-0x1088(%rbp)
    6e92:	48 8d 05 77 66 01 00 	lea    0x16677(%rip),%rax        # 1d510 <g_991>
    6e99:	48 89 85 80 ef ff ff 	mov    %rax,-0x1080(%rbp)
    6ea0:	c6 85 e7 ed ff ff 74 	movb   $0x74,-0x1219(%rbp)
    6ea7:	48 8d 05 b2 62 01 00 	lea    0x162b2(%rip),%rax        # 1d160 <g_446>
    6eae:	48 89 85 c0 ee ff ff 	mov    %rax,-0x1140(%rbp)
    6eb5:	48 8d 85 c0 ee ff ff 	lea    -0x1140(%rbp),%rax
    6ebc:	48 89 85 88 ef ff ff 	mov    %rax,-0x1078(%rbp)
    6ec3:	c7 85 58 ee ff ff 99 	movl   $0xa1dbb999,-0x11a8(%rbp)
    6eca:	b9 db a1 
    6ecd:	48 8d 05 6c 62 01 00 	lea    0x1626c(%rip),%rax        # 1d140 <g_335>
    6ed4:	48 89 85 c8 ee ff ff 	mov    %rax,-0x1138(%rbp)
    6edb:	48 8d 85 c8 ee ff ff 	lea    -0x1138(%rbp),%rax
    6ee2:	48 89 85 d0 ee ff ff 	mov    %rax,-0x1130(%rbp)
    6ee9:	48 8d 85 d0 ee ff ff 	lea    -0x1130(%rbp),%rax
    6ef0:	48 89 85 90 ef ff ff 	mov    %rax,-0x1070(%rbp)
    6ef7:	48 b8 2f 95 41 c7 f2 	movabs $0x1b677ff2c741952f,%rax
    6efe:	7f 67 1b 
    6f01:	48 89 85 d8 ee ff ff 	mov    %rax,-0x1128(%rbp)
    6f08:	66 c7 85 ec ed ff ff 	movw   $0xfffe,-0x1214(%rbp)
    6f0f:	fe ff 
    6f11:	48 8d 85 e6 ed ff ff 	lea    -0x121a(%rbp),%rax
    6f18:	48 89 85 70 f1 ff ff 	mov    %rax,-0xe90(%rbp)
    6f1f:	48 8d 05 12 44 01 00 	lea    0x14412(%rip),%rax        # 1b338 <g_57>
    6f26:	48 89 85 78 f1 ff ff 	mov    %rax,-0xe88(%rbp)
    6f2d:	48 8d 85 e6 ed ff ff 	lea    -0x121a(%rbp),%rax
    6f34:	48 89 85 80 f1 ff ff 	mov    %rax,-0xe80(%rbp)
    6f3b:	48 8d 85 e6 ed ff ff 	lea    -0x121a(%rbp),%rax
    6f42:	48 89 85 88 f1 ff ff 	mov    %rax,-0xe78(%rbp)
    6f49:	48 8d 05 e8 43 01 00 	lea    0x143e8(%rip),%rax        # 1b338 <g_57>
    6f50:	48 89 85 90 f1 ff ff 	mov    %rax,-0xe70(%rbp)
    6f57:	48 8d 85 e6 ed ff ff 	lea    -0x121a(%rbp),%rax
    6f5e:	48 89 85 98 f1 ff ff 	mov    %rax,-0xe68(%rbp)
    6f65:	48 8d 85 e6 ed ff ff 	lea    -0x121a(%rbp),%rax
    6f6c:	48 89 85 a0 f1 ff ff 	mov    %rax,-0xe60(%rbp)
    6f73:	48 b8 9c 85 ee 3f d5 	movabs $0xbaffa7d53fee859c,%rax
    6f7a:	a7 ff ba 
    6f7d:	48 89 85 98 ef ff ff 	mov    %rax,-0x1068(%rbp)
    6f84:	c7 85 5c ee ff ff 0d 	movl   $0x2f8e530d,-0x11a4(%rbp)
    6f8b:	53 8e 2f 
    6f8e:	c7 85 14 ee ff ff 00 	movl   $0x0,-0x11ec(%rbp)
    6f95:	00 00 00 
    6f98:	eb 49                	jmp    6fe3 <func_1+0x82e>
    6f9a:	c7 85 18 ee ff ff 00 	movl   $0x0,-0x11e8(%rbp)
    6fa1:	00 00 00 
    6fa4:	eb 2d                	jmp    6fd3 <func_1+0x81e>
    6fa6:	8b 85 18 ee ff ff    	mov    -0x11e8(%rbp),%eax
    6fac:	48 98                	cltq   
    6fae:	8b 95 14 ee ff ff    	mov    -0x11ec(%rbp),%edx
    6fb4:	48 63 d2             	movslq %edx,%rdx
    6fb7:	48 01 d2             	add    %rdx,%rdx
    6fba:	48 01 d0             	add    %rdx,%rax
    6fbd:	48 8d 15 c4 4c 01 00 	lea    0x14cc4(%rip),%rdx        # 1bc88 <g_1310>
    6fc4:	48 89 94 c5 90 f3 ff 	mov    %rdx,-0xc70(%rbp,%rax,8)
    6fcb:	ff 
    6fcc:	83 85 18 ee ff ff 01 	addl   $0x1,-0x11e8(%rbp)
    6fd3:	83 bd 18 ee ff ff 01 	cmpl   $0x1,-0x11e8(%rbp)
    6fda:	7e ca                	jle    6fa6 <func_1+0x7f1>
    6fdc:	83 85 14 ee ff ff 01 	addl   $0x1,-0x11ec(%rbp)
    6fe3:	83 bd 14 ee ff ff 09 	cmpl   $0x9,-0x11ec(%rbp)
    6fea:	7e ae                	jle    6f9a <func_1+0x7e5>
    6fec:	c7 85 14 ee ff ff 00 	movl   $0x0,-0x11ec(%rbp)
    6ff3:	00 00 00 
    6ff6:	eb 19                	jmp    7011 <func_1+0x85c>
    6ff8:	8b 85 14 ee ff ff    	mov    -0x11ec(%rbp),%eax
    6ffe:	48 98                	cltq   
    7000:	66 c7 84 45 fa f0 ff 	movw   $0x4,-0xf06(%rbp,%rax,2)
    7007:	ff 04 00 
    700a:	83 85 14 ee ff ff 01 	addl   $0x1,-0x11ec(%rbp)
    7011:	83 bd 14 ee ff ff 00 	cmpl   $0x0,-0x11ec(%rbp)
    7018:	7e de                	jle    6ff8 <func_1+0x843>
    701a:	c7 85 14 ee ff ff 00 	movl   $0x0,-0x11ec(%rbp)
    7021:	00 00 00 
    7024:	eb 1b                	jmp    7041 <func_1+0x88c>
    7026:	8b 85 14 ee ff ff    	mov    -0x11ec(%rbp),%eax
    702c:	48 98                	cltq   
    702e:	48 c7 84 c5 10 f1 ff 	movq   $0x0,-0xef0(%rbp,%rax,8)
    7035:	ff 00 00 00 00 
    703a:	83 85 14 ee ff ff 01 	addl   $0x1,-0x11ec(%rbp)
    7041:	83 bd 14 ee ff ff 01 	cmpl   $0x1,-0x11ec(%rbp)
    7048:	7e dc                	jle    7026 <func_1+0x871>
    704a:	c7 85 14 ee ff ff 00 	movl   $0x0,-0x11ec(%rbp)
    7051:	00 00 00 
    7054:	eb 1a                	jmp    7070 <func_1+0x8bb>
    7056:	8b 85 14 ee ff ff    	mov    -0x11ec(%rbp),%eax
    705c:	48 98                	cltq   
    705e:	c7 84 85 04 f1 ff ff 	movl   $0x3,-0xefc(%rbp,%rax,4)
    7065:	03 00 00 00 
    7069:	83 85 14 ee ff ff 01 	addl   $0x1,-0x11ec(%rbp)
    7070:	83 bd 14 ee ff ff 02 	cmpl   $0x2,-0x11ec(%rbp)
    7077:	7e dd                	jle    7056 <func_1+0x8a1>
    7079:	c7 85 14 ee ff ff 00 	movl   $0x0,-0x11ec(%rbp)
    7080:	00 00 00 
    7083:	eb 1a                	jmp    709f <func_1+0x8ea>
    7085:	8b 85 14 ee ff ff    	mov    -0x11ec(%rbp),%eax
    708b:	48 98                	cltq   
    708d:	c7 84 85 fc f0 ff ff 	movl   $0xb3828796,-0xf04(%rbp,%rax,4)
    7094:	96 87 82 b3 
    7098:	83 85 14 ee ff ff 01 	addl   $0x1,-0x11ec(%rbp)
    709f:	83 bd 14 ee ff ff 01 	cmpl   $0x1,-0x11ec(%rbp)
    70a6:	7e dd                	jle    7085 <func_1+0x8d0>
    70a8:	8b 85 f8 ed ff ff    	mov    -0x1208(%rbp),%eax
    70ae:	85 c0                	test   %eax,%eax
    70b0:	0f 85 c4 01 00 00    	jne    727a <func_1+0xac5>
    70b6:	8b 85 f8 ed ff ff    	mov    -0x1208(%rbp),%eax
    70bc:	85 c0                	test   %eax,%eax
    70be:	0f 84 99 01 00 00    	je     725d <func_1+0xaa8>
    70c4:	8b 85 f8 ed ff ff    	mov    -0x1208(%rbp),%eax
    70ca:	48 63 d8             	movslq %eax,%rbx
    70cd:	8b 85 f8 ed ff ff    	mov    -0x1208(%rbp),%eax
    70d3:	85 c0                	test   %eax,%eax
    70d5:	0f 85 52 01 00 00    	jne    722d <func_1+0xa78>
    70db:	44 8b 25 e6 4c 01 00 	mov    0x14ce6(%rip),%r12d        # 1bdc8 <g_1825>
    70e2:	44 8b 2d 81 4b 01 00 	mov    0x14b81(%rip),%r13d        # 1bc6a <g_1212+0xa>
    70e9:	8b 85 48 ee ff ff    	mov    -0x11b8(%rbp),%eax
    70ef:	48 89 85 a8 ed ff ff 	mov    %rax,-0x1258(%rbp)
    70f6:	0f b7 05 89 4c 01 00 	movzwl 0x14c89(%rip),%eax        # 1bd86 <g_1619+0x26>
    70fd:	44 0f bf f0          	movswl %ax,%r14d
    7101:	0f b6 85 e5 ed ff ff 	movzbl -0x121b(%rbp),%eax
    7108:	0f be c0             	movsbl %al,%eax
    710b:	89 85 a4 ed ff ff    	mov    %eax,-0x125c(%rbp)
    7111:	44 8b bd f8 ed ff ff 	mov    -0x1208(%rbp),%r15d
    7118:	44 8b 05 05 3f 01 00 	mov    0x13f05(%rip),%r8d        # 1b024 <g_20>
    711f:	8b 8d f8 ed ff ff    	mov    -0x1208(%rbp),%ecx
    7125:	c7 05 05 42 01 00 ff 	movl   $0xffffffff,0x14205(%rip)        # 1b334 <g_44>
    712c:	ff ff ff 
    712f:	8b 15 ff 41 01 00    	mov    0x141ff(%rip),%edx        # 1b334 <g_44>
    7135:	48 8b 35 c4 5f 01 00 	mov    0x15fc4(%rip),%rsi        # 1d100 <g_37>
    713c:	48 8b 05 d5 5f 01 00 	mov    0x15fd5(%rip),%rax        # 1d118 <g_39>
    7143:	48 39 c6             	cmp    %rax,%rsi
    7146:	0f 94 c0             	sete   %al
    7149:	0f b6 f0             	movzbl %al,%esi
    714c:	48 8b 85 58 ef ff ff 	mov    -0x10a8(%rbp),%rax
    7153:	89 30                	mov    %esi,(%rax)
    7155:	48 8b 85 58 ef ff ff 	mov    -0x10a8(%rbp),%rax
    715c:	8b 30                	mov    (%rax),%esi
    715e:	48 8b 85 50 ef ff ff 	mov    -0x10b0(%rbp),%rax
    7165:	8b 00                	mov    (%rax),%eax
    7167:	8d 78 01             	lea    0x1(%rax),%edi
    716a:	48 8b 85 50 ef ff ff 	mov    -0x10b0(%rbp),%rax
    7171:	89 38                	mov    %edi,(%rax)
    7173:	48 8b 85 50 ef ff ff 	mov    -0x10b0(%rbp),%rax
    717a:	8b 00                	mov    (%rax),%eax
    717c:	89 c7                	mov    %eax,%edi
    717e:	e8 78 96 00 00       	callq  107fb <func_25>
    7183:	48 8d 85 b0 ed ff ff 	lea    -0x1250(%rbp),%rax
    718a:	8b 8d a4 ed ff ff    	mov    -0x125c(%rbp),%ecx
    7190:	44 89 fa             	mov    %r15d,%edx
    7193:	be 00 00 00 00       	mov    $0x0,%esi
    7198:	48 89 c7             	mov    %rax,%rdi
    719b:	e8 88 4e 00 00       	callq  c028 <func_21>
    71a0:	48 8b 05 a9 5f 01 00 	mov    0x15fa9(%rip),%rax        # 1d150 <g_431>
    71a7:	8b 00                	mov    (%rax),%eax
    71a9:	3d d8 78 29 29       	cmp    $0x292978d8,%eax
    71ae:	74 21                	je     71d1 <func_1+0xa1c>
    71b0:	48 8b 85 58 ef ff ff 	mov    -0x10a8(%rbp),%rax
    71b7:	8b 00                	mov    (%rax),%eax
    71b9:	85 c0                	test   %eax,%eax
    71bb:	74 14                	je     71d1 <func_1+0xa1c>
    71bd:	48 8b 85 58 ef ff ff 	mov    -0x10a8(%rbp),%rax
    71c4:	8b 00                	mov    (%rax),%eax
    71c6:	85 c0                	test   %eax,%eax
    71c8:	74 07                	je     71d1 <func_1+0xa1c>
    71ca:	b8 01 00 00 00       	mov    $0x1,%eax
    71cf:	eb 05                	jmp    71d6 <func_1+0xa21>
    71d1:	b8 00 00 00 00       	mov    $0x0,%eax
    71d6:	0f b6 d0             	movzbl %al,%edx
    71d9:	8b 85 f8 ed ff ff    	mov    -0x1208(%rbp),%eax
    71df:	98                   	cwtl   
    71e0:	8b 0d 3e 3e 01 00    	mov    0x13e3e(%rip),%ecx        # 1b024 <g_20>
    71e6:	89 cf                	mov    %ecx,%edi
    71e8:	4c 8b 85 a8 ed ff ff 	mov    -0x1258(%rbp),%r8
    71ef:	44 89 f1             	mov    %r14d,%ecx
    71f2:	89 c6                	mov    %eax,%esi
    71f4:	e8 57 37 00 00       	callq  a950 <func_14>
    71f9:	89 c2                	mov    %eax,%edx
    71fb:	8b 85 f8 ed ff ff    	mov    -0x1208(%rbp),%eax
    7201:	09 d0                	or     %edx,%eax
    7203:	98                   	cwtl   
    7204:	44 89 ee             	mov    %r13d,%esi
    7207:	89 c7                	mov    %eax,%edi
    7209:	e8 d3 e2 ff ff       	callq  54e1 <safe_lshift_func_int16_t_s_u>
    720e:	0f b7 c0             	movzwl %ax,%eax
    7211:	44 89 e6             	mov    %r12d,%esi
    7214:	89 c7                	mov    %eax,%edi
    7216:	e8 a3 eb ff ff       	callq  5dbe <safe_lshift_func_uint16_t_u_s>
    721b:	66 85 c0             	test   %ax,%ax
    721e:	75 0d                	jne    722d <func_1+0xa78>
    7220:	48 8b 85 58 ef ff ff 	mov    -0x10a8(%rbp),%rax
    7227:	8b 00                	mov    (%rax),%eax
    7229:	85 c0                	test   %eax,%eax
    722b:	74 07                	je     7234 <func_1+0xa7f>
    722d:	b8 01 00 00 00       	mov    $0x1,%eax
    7232:	eb 05                	jmp    7239 <func_1+0xa84>
    7234:	b8 00 00 00 00       	mov    $0x0,%eax
    7239:	48 89 de             	mov    %rbx,%rsi
    723c:	89 c7                	mov    %eax,%edi
    723e:	e8 24 34 00 00       	callq  a667 <func_7>
    7243:	0f be c0             	movsbl %al,%eax
    7246:	be 06 00 00 00       	mov    $0x6,%esi
    724b:	89 c7                	mov    %eax,%edi
    724d:	e8 9c e0 ff ff       	callq  52ee <safe_lshift_func_int8_t_s_u>
    7252:	84 c0                	test   %al,%al
    7254:	74 07                	je     725d <func_1+0xaa8>
    7256:	ba 01 00 00 00       	mov    $0x1,%edx
    725b:	eb 05                	jmp    7262 <func_1+0xaad>
    725d:	ba 00 00 00 00       	mov    $0x0,%edx
    7262:	8b 05 20 4a 01 00    	mov    0x14a20(%rip),%eax        # 1bc88 <g_1310>
    7268:	09 d0                	or     %edx,%eax
    726a:	89 05 18 4a 01 00    	mov    %eax,0x14a18(%rip)        # 1bc88 <g_1310>
    7270:	8b 05 12 4a 01 00    	mov    0x14a12(%rip),%eax        # 1bc88 <g_1310>
    7276:	85 c0                	test   %eax,%eax
    7278:	74 07                	je     7281 <func_1+0xacc>
    727a:	b8 01 00 00 00       	mov    $0x1,%eax
    727f:	eb 05                	jmp    7286 <func_1+0xad1>
    7281:	b8 00 00 00 00       	mov    $0x0,%eax
    7286:	0f b7 c0             	movzwl %ax,%eax
    7289:	be 0e 00 00 00       	mov    $0xe,%esi
    728e:	89 c7                	mov    %eax,%edi
    7290:	e8 71 eb ff ff       	callq  5e06 <safe_lshift_func_uint16_t_u_u>
    7295:	0f b7 15 ae 4b 01 00 	movzwl 0x14bae(%rip),%edx        # 1be4a <g_2264>
    729c:	21 d0                	and    %edx,%eax
    729e:	66 89 05 a5 4b 01 00 	mov    %ax,0x14ba5(%rip)        # 1be4a <g_2264>
    72a5:	48 8b 85 58 ef ff ff 	mov    -0x10a8(%rbp),%rax
    72ac:	8b 00                	mov    (%rax),%eax
    72ae:	48 63 d8             	movslq %eax,%rbx
    72b1:	48 8b 05 a8 5e 01 00 	mov    0x15ea8(%rip),%rax        # 1d160 <g_446>
    72b8:	48 8b 00             	mov    (%rax),%rax
    72bb:	41 89 c5             	mov    %eax,%r13d
    72be:	48 8b 85 58 ef ff ff 	mov    -0x10a8(%rbp),%rax
    72c5:	44 8b 20             	mov    (%rax),%r12d
    72c8:	48 8b 05 e9 68 01 00 	mov    0x168e9(%rip),%rax        # 1dbb8 <g_2274>
    72cf:	48 85 c0             	test   %rax,%rax
    72d2:	0f 95 c0             	setne  %al
    72d5:	0f b6 c0             	movzbl %al,%eax
    72d8:	48 8b 95 d8 f4 ff ff 	mov    -0xb28(%rbp),%rdx
    72df:	89 c6                	mov    %eax,%esi
    72e1:	89 d7                	mov    %edx,%edi
    72e3:	e8 d0 eb ff ff       	callq  5eb8 <safe_add_func_uint32_t_u_u>
    72e8:	48 8b 95 68 ef ff ff 	mov    -0x1098(%rbp),%rdx
    72ef:	89 02                	mov    %eax,(%rdx)
    72f1:	48 8b 85 68 ef ff ff 	mov    -0x1098(%rbp),%rax
    72f8:	8b 00                	mov    (%rax),%eax
    72fa:	85 c0                	test   %eax,%eax
    72fc:	0f 95 c0             	setne  %al
    72ff:	0f b6 c0             	movzbl %al,%eax
    7302:	41 39 c4             	cmp    %eax,%r12d
    7305:	7d 12                	jge    7319 <func_1+0xb64>
    7307:	48 8b 05 12 4a 01 00 	mov    0x14a12(%rip),%rax        # 1bd20 <g_1563>
    730e:	48 c1 e8 28          	shr    $0x28,%rax
    7312:	25 ff ff 03 00       	and    $0x3ffff,%eax
    7317:	85 c0                	test   %eax,%eax
    7319:	48 8b 05 20 46 01 00 	mov    0x14620(%rip),%rax        # 1b940 <g_1051>
    7320:	48 c1 e8 3a          	shr    $0x3a,%rax
    7324:	48 89 c2             	mov    %rax,%rdx
    7327:	48 8b 05 1a 46 01 00 	mov    0x1461a(%rip),%rax        # 1b948 <g_1051+0x8>
    732e:	83 e0 3f             	and    $0x3f,%eax
    7331:	48 c1 e0 06          	shl    $0x6,%rax
    7335:	48 09 d0             	or     %rdx,%rax
    7338:	89 c2                	mov    %eax,%edx
    733a:	48 8b 85 70 ef ff ff 	mov    -0x1090(%rbp),%rax
    7341:	66 89 10             	mov    %dx,(%rax)
    7344:	48 8b 85 70 ef ff ff 	mov    -0x1090(%rbp),%rax
    734b:	0f b7 00             	movzwl (%rax),%eax
    734e:	66 83 f8 09          	cmp    $0x9,%ax
    7352:	0f 94 c0             	sete   %al
    7355:	0f b6 c0             	movzbl %al,%eax
    7358:	44 21 e8             	and    %r13d,%eax
    735b:	66 89 05 e4 49 01 00 	mov    %ax,0x149e4(%rip)        # 1bd46 <g_1563+0x26>
    7362:	48 8b 05 f7 67 01 00 	mov    0x167f7(%rip),%rax        # 1db60 <g_1407>
    7369:	48 8b 00             	mov    (%rax),%rax
    736c:	48 8b 00             	mov    (%rax),%rax
    736f:	48 85 c0             	test   %rax,%rax
    7372:	0f 9e c0             	setle  %al
    7375:	0f b6 c0             	movzbl %al,%eax
    7378:	48 89 de             	mov    %rbx,%rsi
    737b:	48 89 c7             	mov    %rax,%rdi
    737e:	e8 ab ec ff ff       	callq  602e <safe_add_func_uint64_t_u_u>
    7383:	8b 05 a1 4a 01 00    	mov    0x14aa1(%rip),%eax        # 1be2a <g_2120+0xa>
    7389:	98                   	cwtl   
    738a:	48 8b 95 60 ef ff ff 	mov    -0x10a0(%rbp),%rdx
    7391:	66 c7 02 00 00       	movw   $0x0,(%rdx)
    7396:	89 c6                	mov    %eax,%esi
    7398:	bf 00 00 00 00       	mov    $0x0,%edi
    739d:	e8 11 e0 ff ff       	callq  53b3 <safe_add_func_int16_t_s_s>
    73a2:	66 85 c0             	test   %ax,%ax
    73a5:	0f 84 4e 2a 00 00    	je     9df9 <func_1+0x3644>
    73ab:	c7 85 6c ee ff ff 5d 	movl   $0x6357ed5d,-0x1194(%rbp)
    73b2:	ed 57 63 
    73b5:	48 8d 05 cc 48 01 00 	lea    0x148cc(%rip),%rax        # 1bc88 <g_1310>
    73bc:	48 89 85 08 f0 ff ff 	mov    %rax,-0xff8(%rbp)
    73c3:	c6 85 e8 ed ff ff db 	movb   $0xdb,-0x1218(%rbp)
    73ca:	c7 85 fc ed ff ff ea 	movl   $0x9c7574ea,-0x1204(%rbp)
    73d1:	74 75 9c 
    73d4:	48 b8 80 5d ec 2f 90 	movabs $0x2a784f902fec5d80,%rax
    73db:	4f 78 2a 
    73de:	48 89 85 e0 ee ff ff 	mov    %rax,-0x1120(%rbp)
    73e5:	c7 85 00 ee ff ff 09 	movl   $0x9,-0x1200(%rbp)
    73ec:	00 00 00 
    73ef:	c7 85 70 ee ff ff ff 	movl   $0xffffffff,-0x1190(%rbp)
    73f6:	ff ff ff 
    73f9:	c7 85 04 ee ff ff a0 	movl   $0xe6ba9ea0,-0x11fc(%rbp)
    7400:	9e ba e6 
    7403:	c7 85 74 ee ff ff e7 	movl   $0x817176e7,-0x118c(%rbp)
    740a:	76 71 81 
    740d:	c7 85 78 ee ff ff 04 	movl   $0x4,-0x1188(%rbp)
    7414:	00 00 00 
    7417:	48 8d 85 04 ee ff ff 	lea    -0x11fc(%rbp),%rax
    741e:	48 89 85 10 f0 ff ff 	mov    %rax,-0xff0(%rbp)
    7425:	48 8d 85 c8 ee ff ff 	lea    -0x1138(%rbp),%rax
    742c:	48 89 85 e8 ee ff ff 	mov    %rax,-0x1118(%rbp)
    7433:	48 8d 85 e8 ee ff ff 	lea    -0x1118(%rbp),%rax
    743a:	48 89 85 18 f0 ff ff 	mov    %rax,-0xfe8(%rbp)
    7441:	48 c7 85 20 f0 ff ff 	movq   $0x0,-0xfe0(%rbp)
    7448:	00 00 00 00 
    744c:	c7 85 7c ee ff ff a4 	movl   $0x903f62a4,-0x1184(%rbp)
    7453:	62 3f 90 
    7456:	48 c7 85 f0 ee ff ff 	movq   $0x6,-0x1110(%rbp)
    745d:	06 00 00 00 
    7461:	48 b8 ba 5c 89 90 19 	movabs $0xbb3fba1990895cba,%rax
    7468:	ba 3f bb 
    746b:	48 89 85 28 f0 ff ff 	mov    %rax,-0xfd8(%rbp)
    7472:	48 b8 10 92 7f b7 bf 	movabs $0xb2177bbfb77f9210,%rax
    7479:	7b 17 b2 
    747c:	48 89 85 00 f2 ff ff 	mov    %rax,-0xe00(%rbp)
    7483:	48 c7 85 08 f2 ff ff 	movq   $0xfffffffffffffff7,-0xdf8(%rbp)
    748a:	f7 ff ff ff 
    748e:	48 c7 85 10 f2 ff ff 	movq   $0xfffffffffffffff7,-0xdf0(%rbp)
    7495:	f7 ff ff ff 
    7499:	48 89 85 18 f2 ff ff 	mov    %rax,-0xde8(%rbp)
    74a0:	48 c7 85 20 f2 ff ff 	movq   $0xfffffffffffffff7,-0xde0(%rbp)
    74a7:	f7 ff ff ff 
    74ab:	48 c7 85 28 f2 ff ff 	movq   $0xfffffffffffffff7,-0xdd8(%rbp)
    74b2:	f7 ff ff ff 
    74b6:	48 89 85 30 f2 ff ff 	mov    %rax,-0xdd0(%rbp)
    74bd:	48 c7 85 38 f2 ff ff 	movq   $0xfffffffffffffff7,-0xdc8(%rbp)
    74c4:	f7 ff ff ff 
    74c8:	48 c7 85 40 f2 ff ff 	movq   $0xfffffffffffffff7,-0xdc0(%rbp)
    74cf:	f7 ff ff ff 
    74d3:	48 8d 05 0e 43 01 00 	lea    0x1430e(%rip),%rax        # 1b7e8 <g_123>
    74da:	48 89 85 f8 ee ff ff 	mov    %rax,-0x1108(%rbp)
    74e1:	48 8d 85 f8 ee ff ff 	lea    -0x1108(%rbp),%rax
    74e8:	48 89 85 30 f0 ff ff 	mov    %rax,-0xfd0(%rbp)
    74ef:	c7 85 80 ee ff ff 37 	movl   $0x16a59b37,-0x1180(%rbp)
    74f6:	9b a5 16 
    74f9:	48 b8 93 7a d1 bb c0 	movabs $0x11a5f4c0bbd17a93,%rax
    7500:	f4 a5 11 
    7503:	48 89 85 38 f0 ff ff 	mov    %rax,-0xfc8(%rbp)
    750a:	c7 85 84 ee ff ff fa 	movl   $0x479382fa,-0x117c(%rbp)
    7511:	82 93 47 
    7514:	c7 05 6a 47 01 00 00 	movl   $0x0,0x1476a(%rip)        # 1bc88 <g_1310>
    751b:	00 00 00 
    751e:	e9 fb 00 00 00       	jmpq   761e <func_1+0xe69>
    7523:	c7 85 0c ee ff ff 00 	movl   $0x0,-0x11f4(%rbp)
    752a:	00 00 00 
    752d:	eb 4b                	jmp    757a <func_1+0xdc5>
    752f:	c7 85 10 ee ff ff 00 	movl   $0x0,-0x11f0(%rbp)
    7536:	00 00 00 
    7539:	eb 2f                	jmp    756a <func_1+0xdb5>
    753b:	8b 85 10 ee ff ff    	mov    -0x11f0(%rbp),%eax
    7541:	48 98                	cltq   
    7543:	8b 95 0c ee ff ff    	mov    -0x11f4(%rbp),%edx
    7549:	48 63 d2             	movslq %edx,%rdx
    754c:	48 c1 e2 03          	shl    $0x3,%rdx
    7550:	48 8d 5d d0          	lea    -0x30(%rbp),%rbx
    7554:	48 01 da             	add    %rbx,%rdx
    7557:	48 01 d0             	add    %rdx,%rax
    755a:	48 2d d0 06 00 00    	sub    $0x6d0,%rax
    7560:	c6 00 0b             	movb   $0xb,(%rax)
    7563:	83 85 10 ee ff ff 01 	addl   $0x1,-0x11f0(%rbp)
    756a:	83 bd 10 ee ff ff 07 	cmpl   $0x7,-0x11f0(%rbp)
    7571:	7e c8                	jle    753b <func_1+0xd86>
    7573:	83 85 0c ee ff ff 01 	addl   $0x1,-0x11f4(%rbp)
    757a:	83 bd 0c ee ff ff 08 	cmpl   $0x8,-0x11f4(%rbp)
    7581:	7e ac                	jle    752f <func_1+0xd7a>
    7583:	0f b6 85 0b f9 ff ff 	movzbl -0x6f5(%rbp),%eax
    758a:	83 e8 01             	sub    $0x1,%eax
    758d:	88 85 0b f9 ff ff    	mov    %al,-0x6f5(%rbp)
    7593:	48 c7 05 38 42 01 00 	movq   $0x1,0x14238(%rip)        # 1b7d6 <g_116+0x16>
    759a:	01 00 00 00 
    759e:	90                   	nop
    759f:	48 8b 05 30 42 01 00 	mov    0x14230(%rip),%rax        # 1b7d6 <g_116+0x16>
    75a6:	48 85 c0             	test   %rax,%rax
    75a9:	78 33                	js     75de <func_1+0xe29>
    75ab:	66 c7 85 f6 ed ff ff 	movw   $0x90d,-0x120a(%rbp)
    75b2:	0d 09 
    75b4:	48 8b 05 db 42 01 00 	mov    0x142db(%rip),%rax        # 1b896 <g_517+0x16>
    75bb:	89 c2                	mov    %eax,%edx
    75bd:	48 8d 05 34 5f 01 00 	lea    0x15f34(%rip),%rax        # 1d4f8 <g_837>
    75c4:	48 8b 00             	mov    (%rax),%rax
    75c7:	48 8b 00             	mov    (%rax),%rax
    75ca:	33 95 6c ee ff ff    	xor    -0x1194(%rbp),%edx
    75d0:	89 10                	mov    %edx,(%rax)
    75d2:	0f b7 85 f6 ed ff ff 	movzwl -0x120a(%rbp),%eax
    75d9:	e9 63 30 00 00       	jmpq   a641 <func_1+0x3e8c>
    75de:	48 8b 85 58 ef ff ff 	mov    -0x10a8(%rbp),%rax
    75e5:	8b 95 6c ee ff ff    	mov    -0x1194(%rbp),%edx
    75eb:	89 10                	mov    %edx,(%rax)
    75ed:	c7 05 2d 3a 01 00 00 	movl   $0x0,0x13a2d(%rip)        # 1b024 <g_20>
    75f4:	00 00 00 
    75f7:	90                   	nop
    75f8:	8b 05 26 3a 01 00    	mov    0x13a26(%rip),%eax        # 1b024 <g_20>
    75fe:	83 f8 01             	cmp    $0x1,%eax
    7601:	77 0c                	ja     760f <func_1+0xe5a>
    7603:	48 8b 05 6c 48 01 00 	mov    0x1486c(%rip),%rax        # 1be76 <g_2272+0x16>
    760a:	e9 32 30 00 00       	jmpq   a641 <func_1+0x3e8c>
    760f:	8b 05 73 46 01 00    	mov    0x14673(%rip),%eax        # 1bc88 <g_1310>
    7615:	83 c0 01             	add    $0x1,%eax
    7618:	89 05 6a 46 01 00    	mov    %eax,0x1466a(%rip)        # 1bc88 <g_1310>
    761e:	8b 05 64 46 01 00    	mov    0x14664(%rip),%eax        # 1bc88 <g_1310>
    7624:	83 f8 05             	cmp    $0x5,%eax
    7627:	0f 8e f6 fe ff ff    	jle    7523 <func_1+0xd6e>
    762d:	83 bd 50 ee ff ff 00 	cmpl   $0x0,-0x11b0(%rbp)
    7634:	0f 84 ff 1a 00 00    	je     9139 <func_1+0x2984>
    763a:	c7 85 8c ee ff ff 86 	movl   $0x7ec85686,-0x1174(%rbp)
    7641:	56 c8 7e 
    7644:	c7 85 90 ee ff ff 09 	movl   $0x9c124d09,-0x1170(%rbp)
    764b:	4d 12 9c 
    764e:	c7 85 94 ee ff ff fa 	movl   $0xcf5b4efa,-0x116c(%rbp)
    7655:	4e 5b cf 
    7658:	c7 85 08 ee ff ff 71 	movl   $0xb11ce971,-0x11f8(%rbp)
    765f:	e9 1c b1 
    7662:	c7 85 98 ee ff ff 04 	movl   $0x4,-0x1168(%rbp)
    7669:	00 00 00 
    766c:	48 c7 85 70 f0 ff ff 	movq   $0x0,-0xf90(%rbp)
    7673:	00 00 00 00 
    7677:	48 b8 11 1e 24 54 f9 	movabs $0x6bb659f954241e11,%rax
    767e:	59 b6 6b 
    7681:	48 89 85 78 f0 ff ff 	mov    %rax,-0xf88(%rbp)
    7688:	48 8d 85 fc ed ff ff 	lea    -0x1204(%rbp),%rax
    768f:	48 89 85 80 f0 ff ff 	mov    %rax,-0xf80(%rbp)
    7696:	48 8d 05 d3 64 01 00 	lea    0x164d3(%rip),%rax        # 1db70 <g_2147>
    769d:	48 89 85 00 ef ff ff 	mov    %rax,-0x1100(%rbp)
    76a4:	48 8d 85 00 ef ff ff 	lea    -0x1100(%rbp),%rax
    76ab:	48 89 85 08 ef ff ff 	mov    %rax,-0x10f8(%rbp)
    76b2:	48 8d 85 08 ef ff ff 	lea    -0x10f8(%rbp),%rax
    76b9:	48 89 85 88 f0 ff ff 	mov    %rax,-0xf78(%rbp)
    76c0:	c7 85 a0 f2 ff ff d0 	movl   $0xdff7f0d0,-0xd60(%rbp)
    76c7:	f0 f7 df 
    76ca:	c7 85 a4 f2 ff ff d0 	movl   $0xdff7f0d0,-0xd5c(%rbp)
    76d1:	f0 f7 df 
    76d4:	c7 85 a8 f2 ff ff d0 	movl   $0xdff7f0d0,-0xd58(%rbp)
    76db:	f0 f7 df 
    76de:	c7 85 ac f2 ff ff d0 	movl   $0xdff7f0d0,-0xd54(%rbp)
    76e5:	f0 f7 df 
    76e8:	c7 85 b0 f2 ff ff d0 	movl   $0xdff7f0d0,-0xd50(%rbp)
    76ef:	f0 f7 df 
    76f2:	c7 85 b4 f2 ff ff 45 	movl   $0xfbe4d445,-0xd4c(%rbp)
    76f9:	d4 e4 fb 
    76fc:	c7 85 b8 f2 ff ff 00 	movl   $0x0,-0xd48(%rbp)
    7703:	00 00 00 
    7706:	c7 85 bc f2 ff ff 45 	movl   $0xfbe4d445,-0xd44(%rbp)
    770d:	d4 e4 fb 
    7710:	c7 85 c0 f2 ff ff 00 	movl   $0x0,-0xd40(%rbp)
    7717:	00 00 00 
    771a:	c7 85 c4 f2 ff ff 45 	movl   $0xfbe4d445,-0xd3c(%rbp)
    7721:	d4 e4 fb 
    7724:	c7 85 c8 f2 ff ff d0 	movl   $0xdff7f0d0,-0xd38(%rbp)
    772b:	f0 f7 df 
    772e:	c7 85 cc f2 ff ff d0 	movl   $0xdff7f0d0,-0xd34(%rbp)
    7735:	f0 f7 df 
    7738:	c7 85 d0 f2 ff ff d0 	movl   $0xdff7f0d0,-0xd30(%rbp)
    773f:	f0 f7 df 
    7742:	c7 85 d4 f2 ff ff d0 	movl   $0xdff7f0d0,-0xd2c(%rbp)
    7749:	f0 f7 df 
    774c:	c7 85 d8 f2 ff ff d0 	movl   $0xdff7f0d0,-0xd28(%rbp)
    7753:	f0 f7 df 
    7756:	c7 85 dc f2 ff ff 45 	movl   $0xfbe4d445,-0xd24(%rbp)
    775d:	d4 e4 fb 
    7760:	c7 85 e0 f2 ff ff 00 	movl   $0x0,-0xd20(%rbp)
    7767:	00 00 00 
    776a:	c7 85 e4 f2 ff ff 45 	movl   $0xfbe4d445,-0xd1c(%rbp)
    7771:	d4 e4 fb 
    7774:	c7 85 e8 f2 ff ff 00 	movl   $0x0,-0xd18(%rbp)
    777b:	00 00 00 
    777e:	c7 85 ec f2 ff ff 45 	movl   $0xfbe4d445,-0xd14(%rbp)
    7785:	d4 e4 fb 
    7788:	c7 85 f0 f2 ff ff d0 	movl   $0xdff7f0d0,-0xd10(%rbp)
    778f:	f0 f7 df 
    7792:	c7 85 f4 f2 ff ff d0 	movl   $0xdff7f0d0,-0xd0c(%rbp)
    7799:	f0 f7 df 
    779c:	c7 85 f8 f2 ff ff d0 	movl   $0xdff7f0d0,-0xd08(%rbp)
    77a3:	f0 f7 df 
    77a6:	c7 85 fc f2 ff ff d0 	movl   $0xdff7f0d0,-0xd04(%rbp)
    77ad:	f0 f7 df 
    77b0:	c7 85 00 f3 ff ff d0 	movl   $0xdff7f0d0,-0xd00(%rbp)
    77b7:	f0 f7 df 
    77ba:	48 8d 85 70 f6 ff ff 	lea    -0x990(%rbp),%rax
    77c1:	48 8d 15 d8 48 01 00 	lea    0x148d8(%rip),%rdx        # 1c0a0 <g_2691+0x18>
    77c8:	b9 51 00 00 00       	mov    $0x51,%ecx
    77cd:	48 89 c7             	mov    %rax,%rdi
    77d0:	48 89 d6             	mov    %rdx,%rsi
    77d3:	f3 48 a5             	rep movsq %ds:(%rsi),%es:(%rdi)
    77d6:	48 c7 85 10 ef ff ff 	movq   $0x0,-0x10f0(%rbp)
    77dd:	00 00 00 00 
    77e1:	48 8d 85 10 ef ff ff 	lea    -0x10f0(%rbp),%rax
    77e8:	48 89 85 18 ef ff ff 	mov    %rax,-0x10e8(%rbp)
    77ef:	c7 85 9c ee ff ff fd 	movl   $0xfffffffd,-0x1164(%rbp)
    77f6:	ff ff ff 
    77f9:	48 8d 05 7e 44 01 00 	lea    0x1447e(%rip),%rax        # 1bc7e <g_1212+0x1e>
    7800:	48 89 85 90 f0 ff ff 	mov    %rax,-0xf70(%rbp)
    7807:	c7 05 d9 44 01 00 00 	movl   $0x0,0x144d9(%rip)        # 1bcea <g_1512+0xa>
    780e:	00 00 00 
    7811:	e9 6d 12 00 00       	jmpq   8a83 <func_1+0x22ce>
    7816:	48 8d 05 ab 63 01 00 	lea    0x163ab(%rip),%rax        # 1dbc8 <g_2287>
    781d:	48 89 85 c8 f0 ff ff 	mov    %rax,-0xf38(%rbp)
    7824:	c7 85 a0 ee ff ff 01 	movl   $0x1,-0x1160(%rbp)
    782b:	00 00 00 
    782e:	48 8d 05 c3 3f 01 00 	lea    0x13fc3(%rip),%rax        # 1b7f8 <g_147>
    7835:	48 89 85 d0 f0 ff ff 	mov    %rax,-0xf30(%rbp)
    783c:	c7 85 a4 ee ff ff a9 	movl   $0x7ee258a9,-0x115c(%rbp)
    7843:	58 e2 7e 
    7846:	c7 85 20 f1 ff ff a4 	movl   $0xd255a8a4,-0xee0(%rbp)
    784d:	a8 55 d2 
    7850:	c7 85 24 f1 ff ff a4 	movl   $0xd255a8a4,-0xedc(%rbp)
    7857:	a8 55 d2 
    785a:	c7 85 28 f1 ff ff a4 	movl   $0xd255a8a4,-0xed8(%rbp)
    7861:	a8 55 d2 
    7864:	c7 85 2c f1 ff ff a4 	movl   $0xd255a8a4,-0xed4(%rbp)
    786b:	a8 55 d2 
    786e:	c7 85 30 f1 ff ff a4 	movl   $0xd255a8a4,-0xed0(%rbp)
    7875:	a8 55 d2 
    7878:	c7 85 34 f1 ff ff a4 	movl   $0xd255a8a4,-0xecc(%rbp)
    787f:	a8 55 d2 
    7882:	c7 85 38 f1 ff ff a4 	movl   $0xd255a8a4,-0xec8(%rbp)
    7889:	a8 55 d2 
    788c:	c7 85 3c f1 ff ff a4 	movl   $0xd255a8a4,-0xec4(%rbp)
    7893:	a8 55 d2 
    7896:	48 c7 85 d8 f0 ff ff 	movq   $0x0,-0xf28(%rbp)
    789d:	00 00 00 00 
    78a1:	66 c7 85 f2 ed ff ff 	movw   $0x6,-0x120e(%rbp)
    78a8:	06 00 
    78aa:	48 8d 05 99 45 01 00 	lea    0x14599(%rip),%rax        # 1be4a <g_2264>
    78b1:	48 89 85 e0 f0 ff ff 	mov    %rax,-0xf20(%rbp)
    78b8:	48 8d 05 71 67 01 00 	lea    0x16771(%rip),%rax        # 1e030 <g_336>
    78bf:	48 89 85 e8 f0 ff ff 	mov    %rax,-0xf18(%rbp)
    78c6:	c6 85 ea ed ff ff 8c 	movb   $0x8c,-0x1216(%rbp)
    78cd:	c7 85 1c ee ff ff 00 	movl   $0x0,-0x11e4(%rbp)
    78d4:	00 00 00 
    78d7:	eb 7d                	jmp    7956 <func_1+0x11a1>
    78d9:	c7 85 20 ee ff ff 00 	movl   $0x0,-0x11e0(%rbp)
    78e0:	00 00 00 
    78e3:	eb 61                	jmp    7946 <func_1+0x1191>
    78e5:	c7 85 24 ee ff ff 00 	movl   $0x0,-0x11dc(%rbp)
    78ec:	00 00 00 
    78ef:	eb 45                	jmp    7936 <func_1+0x1181>
    78f1:	8b 85 24 ee ff ff    	mov    -0x11dc(%rbp),%eax
    78f7:	48 63 f0             	movslq %eax,%rsi
    78fa:	8b 85 1c ee ff ff    	mov    -0x11e4(%rbp),%eax
    7900:	48 98                	cltq   
    7902:	8b 95 20 ee ff ff    	mov    -0x11e0(%rbp),%edx
    7908:	48 63 ca             	movslq %edx,%rcx
    790b:	48 89 c2             	mov    %rax,%rdx
    790e:	48 c1 e2 04          	shl    $0x4,%rdx
    7912:	48 29 c2             	sub    %rax,%rdx
    7915:	48 89 c8             	mov    %rcx,%rax
    7918:	48 01 c0             	add    %rax,%rax
    791b:	48 01 c8             	add    %rcx,%rax
    791e:	48 01 d0             	add    %rdx,%rax
    7921:	48 01 f0             	add    %rsi,%rax
    7924:	c7 84 85 10 f3 ff ff 	movl   $0x6954d5c3,-0xcf0(%rbp,%rax,4)
    792b:	c3 d5 54 69 
    792f:	83 85 24 ee ff ff 01 	addl   $0x1,-0x11dc(%rbp)
    7936:	83 bd 24 ee ff ff 02 	cmpl   $0x2,-0x11dc(%rbp)
    793d:	7e b2                	jle    78f1 <func_1+0x113c>
    793f:	83 85 20 ee ff ff 01 	addl   $0x1,-0x11e0(%rbp)
    7946:	83 bd 20 ee ff ff 04 	cmpl   $0x4,-0x11e0(%rbp)
    794d:	7e 96                	jle    78e5 <func_1+0x1130>
    794f:	83 85 1c ee ff ff 01 	addl   $0x1,-0x11e4(%rbp)
    7956:	83 bd 1c ee ff ff 01 	cmpl   $0x1,-0x11e4(%rbp)
    795d:	0f 8e 76 ff ff ff    	jle    78d9 <func_1+0x1124>
    7963:	8b 05 97 42 01 00    	mov    0x14297(%rip),%eax        # 1bc00 <g_1138>
    7969:	83 e8 01             	sub    $0x1,%eax
    796c:	89 05 8e 42 01 00    	mov    %eax,0x1428e(%rip)        # 1bc00 <g_1138>
    7972:	48 8b 85 08 f0 ff ff 	mov    -0xff8(%rbp),%rax
    7979:	8b 18                	mov    (%rax),%ebx
    797b:	48 8b 85 d0 f0 ff ff 	mov    -0xf30(%rbp),%rax
    7982:	c6 00 01             	movb   $0x1,(%rax)
    7985:	b8 01 00 00 00       	mov    $0x1,%eax
    798a:	89 c7                	mov    %eax,%edi
    798c:	e8 05 dc ff ff       	callq  5596 <safe_unary_minus_func_int32_t_s>
    7991:	85 c0                	test   %eax,%eax
    7993:	74 14                	je     79a9 <func_1+0x11f4>
    7995:	48 8b 85 08 f0 ff ff 	mov    -0xff8(%rbp),%rax
    799c:	8b 00                	mov    (%rax),%eax
    799e:	85 c0                	test   %eax,%eax
    79a0:	74 07                	je     79a9 <func_1+0x11f4>
    79a2:	b8 01 00 00 00       	mov    $0x1,%eax
    79a7:	eb 05                	jmp    79ae <func_1+0x11f9>
    79a9:	b8 00 00 00 00       	mov    $0x0,%eax
    79ae:	89 c2                	mov    %eax,%edx
    79b0:	8b 85 a0 ee ff ff    	mov    -0x1160(%rbp),%eax
    79b6:	89 d6                	mov    %edx,%esi
    79b8:	89 c7                	mov    %eax,%edi
    79ba:	e8 11 e5 ff ff       	callq  5ed0 <safe_sub_func_uint32_t_u_u>
    79bf:	89 de                	mov    %ebx,%esi
    79c1:	89 c7                	mov    %eax,%edi
    79c3:	e8 3d dc ff ff       	callq  5605 <safe_sub_func_int32_t_s_s>
    79c8:	48 8b 15 f9 61 01 00 	mov    0x161f9(%rip),%rdx        # 1dbc8 <g_2287>
    79cf:	48 8b 85 c8 f0 ff ff 	mov    -0xf38(%rbp),%rax
    79d6:	48 89 10             	mov    %rdx,(%rax)
    79d9:	48 8b 85 c8 f0 ff ff 	mov    -0xf38(%rbp),%rax
    79e0:	48 8b 00             	mov    (%rax),%rax
    79e3:	48 8d 15 d6 61 01 00 	lea    0x161d6(%rip),%rdx        # 1dbc0 <g_2288>
    79ea:	48 39 d0             	cmp    %rdx,%rax
    79ed:	0f 94 c0             	sete   %al
    79f0:	0f b6 d0             	movzbl %al,%edx
    79f3:	48 8b 05 66 61 01 00 	mov    0x16166(%rip),%rax        # 1db60 <g_1407>
    79fa:	48 8b 00             	mov    (%rax),%rax
    79fd:	48 8b 00             	mov    (%rax),%rax
    7a00:	48 39 c2             	cmp    %rax,%rdx
    7a03:	7c 0a                	jl     7a0f <func_1+0x125a>
    7a05:	48 8b 05 b2 42 01 00 	mov    0x142b2(%rip),%rax        # 1bcbe <g_1311+0x1e>
    7a0c:	48 85 c0             	test   %rax,%rax
    7a0f:	83 bd 8c ee ff ff 01 	cmpl   $0x1,-0x1174(%rbp)
    7a16:	0f 86 09 01 00 00    	jbe    7b25 <func_1+0x1370>
    7a1c:	c6 85 eb ed ff ff f9 	movb   $0xf9,-0x1215(%rbp)
    7a23:	c7 85 28 ee ff ff 00 	movl   $0x0,-0x11d8(%rbp)
    7a2a:	00 00 00 
    7a2d:	eb 1e                	jmp    7a4d <func_1+0x1298>
    7a2f:	8b 85 28 ee ff ff    	mov    -0x11d8(%rbp),%eax
    7a35:	48 98                	cltq   
    7a37:	48 8d 95 e5 ed ff ff 	lea    -0x121b(%rbp),%rdx
    7a3e:	48 89 94 c5 00 f9 ff 	mov    %rdx,-0x700(%rbp,%rax,8)
    7a45:	ff 
    7a46:	83 85 28 ee ff ff 01 	addl   $0x1,-0x11d8(%rbp)
    7a4d:	83 bd 28 ee ff ff 02 	cmpl   $0x2,-0x11d8(%rbp)
    7a54:	7e d9                	jle    7a2f <func_1+0x127a>
    7a56:	48 8b 85 08 f0 ff ff 	mov    -0xff8(%rbp),%rax
    7a5d:	8b 00                	mov    (%rax),%eax
    7a5f:	85 c0                	test   %eax,%eax
    7a61:	0f 84 82 00 00 00    	je     7ae9 <func_1+0x1334>
    7a67:	48 8b 15 c8 42 01 00 	mov    0x142c8(%rip),%rdx        # 1bd36 <g_1563+0x16>
    7a6e:	48 8b 85 08 f0 ff ff 	mov    -0xff8(%rbp),%rax
    7a75:	8b 00                	mov    (%rax),%eax
    7a77:	48 63 c8             	movslq %eax,%rcx
    7a7a:	48 8b 05 75 43 01 00 	mov    0x14375(%rip),%rax        # 1bdf6 <g_2111+0x16>
    7a81:	48 39 c1             	cmp    %rax,%rcx
    7a84:	0f 9e c0             	setle  %al
    7a87:	0f b6 c0             	movzbl %al,%eax
    7a8a:	48 89 d6             	mov    %rdx,%rsi
    7a8d:	48 89 c7             	mov    %rax,%rdi
    7a90:	e8 1f df ff ff       	callq  59b4 <safe_mod_func_int64_t_s_s>
    7a95:	88 05 9d 38 01 00    	mov    %al,0x1389d(%rip)        # 1b338 <g_57>
    7a9b:	0f b6 05 96 38 01 00 	movzbl 0x13896(%rip),%eax        # 1b338 <g_57>
    7aa2:	83 e0 fe             	and    $0xfffffffe,%eax
    7aa5:	66 98                	cbtw   
    7aa7:	0f b7 d0             	movzwl %ax,%edx
    7aaa:	48 8b 85 70 ef ff ff 	mov    -0x1090(%rbp),%rax
    7ab1:	0f b7 00             	movzwl (%rax),%eax
    7ab4:	8b 8d 90 ee ff ff    	mov    -0x1170(%rbp),%ecx
    7aba:	21 c1                	and    %eax,%ecx
    7abc:	48 8b 85 70 ef ff ff 	mov    -0x1090(%rbp),%rax
    7ac3:	66 89 08             	mov    %cx,(%rax)
    7ac6:	48 8b 85 70 ef ff ff 	mov    -0x1090(%rbp),%rax
    7acd:	0f b7 00             	movzwl (%rax),%eax
    7ad0:	0f b7 c0             	movzwl %ax,%eax
    7ad3:	89 d6                	mov    %edx,%esi
    7ad5:	89 c7                	mov    %eax,%edi
    7ad7:	e8 61 e2 ff ff       	callq  5d3d <safe_mul_func_uint16_t_u_u>
    7adc:	66 3d 88 00          	cmp    $0x88,%ax
    7ae0:	74 07                	je     7ae9 <func_1+0x1334>
    7ae2:	b9 01 00 00 00       	mov    $0x1,%ecx
    7ae7:	eb 05                	jmp    7aee <func_1+0x1339>
    7ae9:	b9 00 00 00 00       	mov    $0x0,%ecx
    7aee:	48 8b 05 cb 60 01 00 	mov    0x160cb(%rip),%rax        # 1dbc0 <g_2288>
    7af5:	48 8b 00             	mov    (%rax),%rax
    7af8:	48 8b 00             	mov    (%rax),%rax
    7afb:	8b 10                	mov    (%rax),%edx
    7afd:	48 8b 05 bc 60 01 00 	mov    0x160bc(%rip),%rax        # 1dbc0 <g_2288>
    7b04:	48 8b 00             	mov    (%rax),%rax
    7b07:	48 8b 00             	mov    (%rax),%rax
    7b0a:	21 ca                	and    %ecx,%edx
    7b0c:	89 10                	mov    %edx,(%rax)
    7b0e:	48 8b 85 e0 ee ff ff 	mov    -0x1120(%rbp),%rax
    7b15:	48 83 c0 01          	add    $0x1,%rax
    7b19:	48 89 85 e0 ee ff ff 	mov    %rax,-0x1120(%rbp)
    7b20:	e9 4f 0f 00 00       	jmpq   8a74 <func_1+0x22bf>
    7b25:	48 8d 85 10 f1 ff ff 	lea    -0xef0(%rbp),%rax
    7b2c:	48 83 c0 08          	add    $0x8,%rax
    7b30:	48 89 85 00 f9 ff ff 	mov    %rax,-0x700(%rbp)
    7b37:	48 8d 85 10 f1 ff ff 	lea    -0xef0(%rbp),%rax
    7b3e:	48 89 85 08 f9 ff ff 	mov    %rax,-0x6f8(%rbp)
    7b45:	48 8d 85 10 f1 ff ff 	lea    -0xef0(%rbp),%rax
    7b4c:	48 89 85 10 f9 ff ff 	mov    %rax,-0x6f0(%rbp)
    7b53:	48 8d 85 10 f1 ff ff 	lea    -0xef0(%rbp),%rax
    7b5a:	48 83 c0 08          	add    $0x8,%rax
    7b5e:	48 89 85 18 f9 ff ff 	mov    %rax,-0x6e8(%rbp)
    7b65:	48 8d 85 10 f1 ff ff 	lea    -0xef0(%rbp),%rax
    7b6c:	48 83 c0 08          	add    $0x8,%rax
    7b70:	48 89 85 20 f9 ff ff 	mov    %rax,-0x6e0(%rbp)
    7b77:	48 8d 85 10 f1 ff ff 	lea    -0xef0(%rbp),%rax
    7b7e:	48 89 85 28 f9 ff ff 	mov    %rax,-0x6d8(%rbp)
    7b85:	48 8d 85 10 f1 ff ff 	lea    -0xef0(%rbp),%rax
    7b8c:	48 83 c0 08          	add    $0x8,%rax
    7b90:	48 89 85 30 f9 ff ff 	mov    %rax,-0x6d0(%rbp)
    7b97:	48 8d 85 10 f1 ff ff 	lea    -0xef0(%rbp),%rax
    7b9e:	48 83 c0 08          	add    $0x8,%rax
    7ba2:	48 89 85 38 f9 ff ff 	mov    %rax,-0x6c8(%rbp)
    7ba9:	48 8d 85 10 f1 ff ff 	lea    -0xef0(%rbp),%rax
    7bb0:	48 89 85 40 f9 ff ff 	mov    %rax,-0x6c0(%rbp)
    7bb7:	48 c7 85 48 f9 ff ff 	movq   $0x0,-0x6b8(%rbp)
    7bbe:	00 00 00 00 
    7bc2:	48 8d 85 10 f1 ff ff 	lea    -0xef0(%rbp),%rax
    7bc9:	48 83 c0 08          	add    $0x8,%rax
    7bcd:	48 89 85 50 f9 ff ff 	mov    %rax,-0x6b0(%rbp)
    7bd4:	48 c7 85 58 f9 ff ff 	movq   $0x0,-0x6a8(%rbp)
    7bdb:	00 00 00 00 
    7bdf:	48 8d 85 10 f1 ff ff 	lea    -0xef0(%rbp),%rax
    7be6:	48 83 c0 08          	add    $0x8,%rax
    7bea:	48 89 85 60 f9 ff ff 	mov    %rax,-0x6a0(%rbp)
    7bf1:	48 8d 85 10 f1 ff ff 	lea    -0xef0(%rbp),%rax
    7bf8:	48 83 c0 08          	add    $0x8,%rax
    7bfc:	48 89 85 68 f9 ff ff 	mov    %rax,-0x698(%rbp)
    7c03:	48 8d 85 10 f1 ff ff 	lea    -0xef0(%rbp),%rax
    7c0a:	48 83 c0 08          	add    $0x8,%rax
    7c0e:	48 89 85 70 f9 ff ff 	mov    %rax,-0x690(%rbp)
    7c15:	48 8d 85 10 f1 ff ff 	lea    -0xef0(%rbp),%rax
    7c1c:	48 89 85 78 f9 ff ff 	mov    %rax,-0x688(%rbp)
    7c23:	48 8d 85 10 f1 ff ff 	lea    -0xef0(%rbp),%rax
    7c2a:	48 83 c0 08          	add    $0x8,%rax
    7c2e:	48 89 85 80 f9 ff ff 	mov    %rax,-0x680(%rbp)
    7c35:	48 c7 85 88 f9 ff ff 	movq   $0x0,-0x678(%rbp)
    7c3c:	00 00 00 00 
    7c40:	48 8d 85 10 f1 ff ff 	lea    -0xef0(%rbp),%rax
    7c47:	48 83 c0 08          	add    $0x8,%rax
    7c4b:	48 89 85 90 f9 ff ff 	mov    %rax,-0x670(%rbp)
    7c52:	48 8d 85 10 f1 ff ff 	lea    -0xef0(%rbp),%rax
    7c59:	48 83 c0 08          	add    $0x8,%rax
    7c5d:	48 89 85 98 f9 ff ff 	mov    %rax,-0x668(%rbp)
    7c64:	48 8d 85 10 f1 ff ff 	lea    -0xef0(%rbp),%rax
    7c6b:	48 83 c0 08          	add    $0x8,%rax
    7c6f:	48 89 85 a0 f9 ff ff 	mov    %rax,-0x660(%rbp)
    7c76:	48 8d 85 10 f1 ff ff 	lea    -0xef0(%rbp),%rax
    7c7d:	48 83 c0 08          	add    $0x8,%rax
    7c81:	48 89 85 a8 f9 ff ff 	mov    %rax,-0x658(%rbp)
    7c88:	48 8d 85 10 f1 ff ff 	lea    -0xef0(%rbp),%rax
    7c8f:	48 83 c0 08          	add    $0x8,%rax
    7c93:	48 89 85 b0 f9 ff ff 	mov    %rax,-0x650(%rbp)
    7c9a:	48 c7 85 b8 f9 ff ff 	movq   $0x0,-0x648(%rbp)
    7ca1:	00 00 00 00 
    7ca5:	48 8d 85 10 f1 ff ff 	lea    -0xef0(%rbp),%rax
    7cac:	48 83 c0 08          	add    $0x8,%rax
    7cb0:	48 89 85 c0 f9 ff ff 	mov    %rax,-0x640(%rbp)
    7cb7:	48 8d 85 10 f1 ff ff 	lea    -0xef0(%rbp),%rax
    7cbe:	48 83 c0 08          	add    $0x8,%rax
    7cc2:	48 89 85 c8 f9 ff ff 	mov    %rax,-0x638(%rbp)
    7cc9:	48 8d 85 10 f1 ff ff 	lea    -0xef0(%rbp),%rax
    7cd0:	48 83 c0 08          	add    $0x8,%rax
    7cd4:	48 89 85 d0 f9 ff ff 	mov    %rax,-0x630(%rbp)
    7cdb:	48 c7 85 d8 f9 ff ff 	movq   $0x0,-0x628(%rbp)
    7ce2:	00 00 00 00 
    7ce6:	48 8d 85 10 f1 ff ff 	lea    -0xef0(%rbp),%rax
    7ced:	48 83 c0 08          	add    $0x8,%rax
    7cf1:	48 89 85 e0 f9 ff ff 	mov    %rax,-0x620(%rbp)
    7cf8:	48 8d 85 10 f1 ff ff 	lea    -0xef0(%rbp),%rax
    7cff:	48 89 85 e8 f9 ff ff 	mov    %rax,-0x618(%rbp)
    7d06:	48 8d 85 10 f1 ff ff 	lea    -0xef0(%rbp),%rax
    7d0d:	48 83 c0 08          	add    $0x8,%rax
    7d11:	48 89 85 f0 f9 ff ff 	mov    %rax,-0x610(%rbp)
    7d18:	48 8d 85 10 f1 ff ff 	lea    -0xef0(%rbp),%rax
    7d1f:	48 89 85 f8 f9 ff ff 	mov    %rax,-0x608(%rbp)
    7d26:	48 8d 85 10 f1 ff ff 	lea    -0xef0(%rbp),%rax
    7d2d:	48 83 c0 08          	add    $0x8,%rax
    7d31:	48 89 85 00 fa ff ff 	mov    %rax,-0x600(%rbp)
    7d38:	48 8d 85 10 f1 ff ff 	lea    -0xef0(%rbp),%rax
    7d3f:	48 83 c0 08          	add    $0x8,%rax
    7d43:	48 89 85 08 fa ff ff 	mov    %rax,-0x5f8(%rbp)
    7d4a:	48 8d 85 10 f1 ff ff 	lea    -0xef0(%rbp),%rax
    7d51:	48 83 c0 08          	add    $0x8,%rax
    7d55:	48 89 85 10 fa ff ff 	mov    %rax,-0x5f0(%rbp)
    7d5c:	48 8d 85 10 f1 ff ff 	lea    -0xef0(%rbp),%rax
    7d63:	48 83 c0 08          	add    $0x8,%rax
    7d67:	48 89 85 18 fa ff ff 	mov    %rax,-0x5e8(%rbp)
    7d6e:	48 8d 85 10 f1 ff ff 	lea    -0xef0(%rbp),%rax
    7d75:	48 83 c0 08          	add    $0x8,%rax
    7d79:	48 89 85 20 fa ff ff 	mov    %rax,-0x5e0(%rbp)
    7d80:	48 8d 85 10 f1 ff ff 	lea    -0xef0(%rbp),%rax
    7d87:	48 83 c0 08          	add    $0x8,%rax
    7d8b:	48 89 85 28 fa ff ff 	mov    %rax,-0x5d8(%rbp)
    7d92:	48 8d 85 10 f1 ff ff 	lea    -0xef0(%rbp),%rax
    7d99:	48 83 c0 08          	add    $0x8,%rax
    7d9d:	48 89 85 30 fa ff ff 	mov    %rax,-0x5d0(%rbp)
    7da4:	48 8d 85 10 f1 ff ff 	lea    -0xef0(%rbp),%rax
    7dab:	48 83 c0 08          	add    $0x8,%rax
    7daf:	48 89 85 38 fa ff ff 	mov    %rax,-0x5c8(%rbp)
    7db6:	48 8d 85 10 f1 ff ff 	lea    -0xef0(%rbp),%rax
    7dbd:	48 89 85 40 fa ff ff 	mov    %rax,-0x5c0(%rbp)
    7dc4:	48 8d 85 10 f1 ff ff 	lea    -0xef0(%rbp),%rax
    7dcb:	48 83 c0 08          	add    $0x8,%rax
    7dcf:	48 89 85 48 fa ff ff 	mov    %rax,-0x5b8(%rbp)
    7dd6:	48 8d 85 10 f1 ff ff 	lea    -0xef0(%rbp),%rax
    7ddd:	48 83 c0 08          	add    $0x8,%rax
    7de1:	48 89 85 50 fa ff ff 	mov    %rax,-0x5b0(%rbp)
    7de8:	48 8d 85 10 f1 ff ff 	lea    -0xef0(%rbp),%rax
    7def:	48 83 c0 08          	add    $0x8,%rax
    7df3:	48 89 85 58 fa ff ff 	mov    %rax,-0x5a8(%rbp)
    7dfa:	48 8d 85 10 f1 ff ff 	lea    -0xef0(%rbp),%rax
    7e01:	48 83 c0 08          	add    $0x8,%rax
    7e05:	48 89 85 60 fa ff ff 	mov    %rax,-0x5a0(%rbp)
    7e0c:	48 8d 85 10 f1 ff ff 	lea    -0xef0(%rbp),%rax
    7e13:	48 83 c0 08          	add    $0x8,%rax
    7e17:	48 89 85 68 fa ff ff 	mov    %rax,-0x598(%rbp)
    7e1e:	48 8d 85 10 f1 ff ff 	lea    -0xef0(%rbp),%rax
    7e25:	48 89 85 70 fa ff ff 	mov    %rax,-0x590(%rbp)
    7e2c:	48 8d 85 10 f1 ff ff 	lea    -0xef0(%rbp),%rax
    7e33:	48 83 c0 08          	add    $0x8,%rax
    7e37:	48 89 85 78 fa ff ff 	mov    %rax,-0x588(%rbp)
    7e3e:	48 8d 85 10 f1 ff ff 	lea    -0xef0(%rbp),%rax
    7e45:	48 83 c0 08          	add    $0x8,%rax
    7e49:	48 89 85 80 fa ff ff 	mov    %rax,-0x580(%rbp)
    7e50:	48 8d 85 10 f1 ff ff 	lea    -0xef0(%rbp),%rax
    7e57:	48 83 c0 08          	add    $0x8,%rax
    7e5b:	48 89 85 88 fa ff ff 	mov    %rax,-0x578(%rbp)
    7e62:	48 8d 85 10 f1 ff ff 	lea    -0xef0(%rbp),%rax
    7e69:	48 83 c0 08          	add    $0x8,%rax
    7e6d:	48 89 85 90 fa ff ff 	mov    %rax,-0x570(%rbp)
    7e74:	48 8d 85 10 f1 ff ff 	lea    -0xef0(%rbp),%rax
    7e7b:	48 83 c0 08          	add    $0x8,%rax
    7e7f:	48 89 85 98 fa ff ff 	mov    %rax,-0x568(%rbp)
    7e86:	48 c7 85 a0 fa ff ff 	movq   $0x0,-0x560(%rbp)
    7e8d:	00 00 00 00 
    7e91:	48 8d 85 10 f1 ff ff 	lea    -0xef0(%rbp),%rax
    7e98:	48 83 c0 08          	add    $0x8,%rax
    7e9c:	48 89 85 a8 fa ff ff 	mov    %rax,-0x558(%rbp)
    7ea3:	48 c7 85 b0 fa ff ff 	movq   $0x0,-0x550(%rbp)
    7eaa:	00 00 00 00 
    7eae:	48 8d 85 10 f1 ff ff 	lea    -0xef0(%rbp),%rax
    7eb5:	48 83 c0 08          	add    $0x8,%rax
    7eb9:	48 89 85 b8 fa ff ff 	mov    %rax,-0x548(%rbp)
    7ec0:	48 8d 85 10 f1 ff ff 	lea    -0xef0(%rbp),%rax
    7ec7:	48 83 c0 08          	add    $0x8,%rax
    7ecb:	48 89 85 c0 fa ff ff 	mov    %rax,-0x540(%rbp)
    7ed2:	48 8d 85 10 f1 ff ff 	lea    -0xef0(%rbp),%rax
    7ed9:	48 83 c0 08          	add    $0x8,%rax
    7edd:	48 89 85 c8 fa ff ff 	mov    %rax,-0x538(%rbp)
    7ee4:	48 8d 85 10 f1 ff ff 	lea    -0xef0(%rbp),%rax
    7eeb:	48 89 85 d0 fa ff ff 	mov    %rax,-0x530(%rbp)
    7ef2:	48 8d 85 10 f1 ff ff 	lea    -0xef0(%rbp),%rax
    7ef9:	48 89 85 d8 fa ff ff 	mov    %rax,-0x528(%rbp)
    7f00:	48 c7 85 e0 fa ff ff 	movq   $0x0,-0x520(%rbp)
    7f07:	00 00 00 00 
    7f0b:	48 8d 85 10 f1 ff ff 	lea    -0xef0(%rbp),%rax
    7f12:	48 89 85 e8 fa ff ff 	mov    %rax,-0x518(%rbp)
    7f19:	48 8d 85 10 f1 ff ff 	lea    -0xef0(%rbp),%rax
    7f20:	48 83 c0 08          	add    $0x8,%rax
    7f24:	48 89 85 f0 fa ff ff 	mov    %rax,-0x510(%rbp)
    7f2b:	48 c7 85 f8 fa ff ff 	movq   $0x0,-0x508(%rbp)
    7f32:	00 00 00 00 
    7f36:	48 8d 85 10 f1 ff ff 	lea    -0xef0(%rbp),%rax
    7f3d:	48 89 85 00 fb ff ff 	mov    %rax,-0x500(%rbp)
    7f44:	48 8d 85 10 f1 ff ff 	lea    -0xef0(%rbp),%rax
    7f4b:	48 83 c0 08          	add    $0x8,%rax
    7f4f:	48 89 85 08 fb ff ff 	mov    %rax,-0x4f8(%rbp)
    7f56:	48 8d 85 10 f1 ff ff 	lea    -0xef0(%rbp),%rax
    7f5d:	48 83 c0 08          	add    $0x8,%rax
    7f61:	48 89 85 10 fb ff ff 	mov    %rax,-0x4f0(%rbp)
    7f68:	48 c7 85 18 fb ff ff 	movq   $0x0,-0x4e8(%rbp)
    7f6f:	00 00 00 00 
    7f73:	48 8d 85 10 f1 ff ff 	lea    -0xef0(%rbp),%rax
    7f7a:	48 89 85 20 fb ff ff 	mov    %rax,-0x4e0(%rbp)
    7f81:	48 8d 85 10 f1 ff ff 	lea    -0xef0(%rbp),%rax
    7f88:	48 83 c0 08          	add    $0x8,%rax
    7f8c:	48 89 85 28 fb ff ff 	mov    %rax,-0x4d8(%rbp)
    7f93:	48 8d 85 10 f1 ff ff 	lea    -0xef0(%rbp),%rax
    7f9a:	48 83 c0 08          	add    $0x8,%rax
    7f9e:	48 89 85 30 fb ff ff 	mov    %rax,-0x4d0(%rbp)
    7fa5:	48 8d 85 10 f1 ff ff 	lea    -0xef0(%rbp),%rax
    7fac:	48 83 c0 08          	add    $0x8,%rax
    7fb0:	48 89 85 38 fb ff ff 	mov    %rax,-0x4c8(%rbp)
    7fb7:	48 c7 85 40 fb ff ff 	movq   $0x0,-0x4c0(%rbp)
    7fbe:	00 00 00 00 
    7fc2:	48 c7 85 48 fb ff ff 	movq   $0x0,-0x4b8(%rbp)
    7fc9:	00 00 00 00 
    7fcd:	48 8d 85 10 f1 ff ff 	lea    -0xef0(%rbp),%rax
    7fd4:	48 89 85 50 fb ff ff 	mov    %rax,-0x4b0(%rbp)
    7fdb:	48 8d 85 10 f1 ff ff 	lea    -0xef0(%rbp),%rax
    7fe2:	48 89 85 58 fb ff ff 	mov    %rax,-0x4a8(%rbp)
    7fe9:	48 8d 85 10 f1 ff ff 	lea    -0xef0(%rbp),%rax
    7ff0:	48 83 c0 08          	add    $0x8,%rax
    7ff4:	48 89 85 60 fb ff ff 	mov    %rax,-0x4a0(%rbp)
    7ffb:	48 8d 85 10 f1 ff ff 	lea    -0xef0(%rbp),%rax
    8002:	48 83 c0 08          	add    $0x8,%rax
    8006:	48 89 85 68 fb ff ff 	mov    %rax,-0x498(%rbp)
    800d:	48 c7 85 70 fb ff ff 	movq   $0x0,-0x490(%rbp)
    8014:	00 00 00 00 
    8018:	48 c7 85 78 fb ff ff 	movq   $0x0,-0x488(%rbp)
    801f:	00 00 00 00 
    8023:	48 c7 85 80 fb ff ff 	movq   $0x0,-0x480(%rbp)
    802a:	00 00 00 00 
    802e:	48 c7 85 88 fb ff ff 	movq   $0x0,-0x478(%rbp)
    8035:	00 00 00 00 
    8039:	48 8d 85 10 f1 ff ff 	lea    -0xef0(%rbp),%rax
    8040:	48 83 c0 08          	add    $0x8,%rax
    8044:	48 89 85 90 fb ff ff 	mov    %rax,-0x470(%rbp)
    804b:	48 8d 85 10 f1 ff ff 	lea    -0xef0(%rbp),%rax
    8052:	48 83 c0 08          	add    $0x8,%rax
    8056:	48 89 85 98 fb ff ff 	mov    %rax,-0x468(%rbp)
    805d:	48 8d 85 10 f1 ff ff 	lea    -0xef0(%rbp),%rax
    8064:	48 83 c0 08          	add    $0x8,%rax
    8068:	48 89 85 a0 fb ff ff 	mov    %rax,-0x460(%rbp)
    806f:	48 8d 85 10 f1 ff ff 	lea    -0xef0(%rbp),%rax
    8076:	48 89 85 a8 fb ff ff 	mov    %rax,-0x458(%rbp)
    807d:	48 8d 85 10 f1 ff ff 	lea    -0xef0(%rbp),%rax
    8084:	48 89 85 b0 fb ff ff 	mov    %rax,-0x450(%rbp)
    808b:	48 8d 85 10 f1 ff ff 	lea    -0xef0(%rbp),%rax
    8092:	48 83 c0 08          	add    $0x8,%rax
    8096:	48 89 85 b8 fb ff ff 	mov    %rax,-0x448(%rbp)
    809d:	48 8d 85 10 f1 ff ff 	lea    -0xef0(%rbp),%rax
    80a4:	48 83 c0 08          	add    $0x8,%rax
    80a8:	48 89 85 c0 fb ff ff 	mov    %rax,-0x440(%rbp)
    80af:	48 8d 85 10 f1 ff ff 	lea    -0xef0(%rbp),%rax
    80b6:	48 89 85 c8 fb ff ff 	mov    %rax,-0x438(%rbp)
    80bd:	48 8d 85 10 f1 ff ff 	lea    -0xef0(%rbp),%rax
    80c4:	48 83 c0 08          	add    $0x8,%rax
    80c8:	48 89 85 d0 fb ff ff 	mov    %rax,-0x430(%rbp)
    80cf:	48 8d 85 10 f1 ff ff 	lea    -0xef0(%rbp),%rax
    80d6:	48 83 c0 08          	add    $0x8,%rax
    80da:	48 89 85 d8 fb ff ff 	mov    %rax,-0x428(%rbp)
    80e1:	48 8d 85 10 f1 ff ff 	lea    -0xef0(%rbp),%rax
    80e8:	48 89 85 e0 fb ff ff 	mov    %rax,-0x420(%rbp)
    80ef:	48 c7 85 e8 fb ff ff 	movq   $0x0,-0x418(%rbp)
    80f6:	00 00 00 00 
    80fa:	48 8d 85 10 f1 ff ff 	lea    -0xef0(%rbp),%rax
    8101:	48 83 c0 08          	add    $0x8,%rax
    8105:	48 89 85 f0 fb ff ff 	mov    %rax,-0x410(%rbp)
    810c:	48 c7 85 f8 fb ff ff 	movq   $0x0,-0x408(%rbp)
    8113:	00 00 00 00 
    8117:	48 8d 85 10 f1 ff ff 	lea    -0xef0(%rbp),%rax
    811e:	48 83 c0 08          	add    $0x8,%rax
    8122:	48 89 85 00 fc ff ff 	mov    %rax,-0x400(%rbp)
    8129:	48 8d 85 10 f1 ff ff 	lea    -0xef0(%rbp),%rax
    8130:	48 83 c0 08          	add    $0x8,%rax
    8134:	48 89 85 08 fc ff ff 	mov    %rax,-0x3f8(%rbp)
    813b:	48 8d 85 10 f1 ff ff 	lea    -0xef0(%rbp),%rax
    8142:	48 83 c0 08          	add    $0x8,%rax
    8146:	48 89 85 10 fc ff ff 	mov    %rax,-0x3f0(%rbp)
    814d:	48 8d 85 10 f1 ff ff 	lea    -0xef0(%rbp),%rax
    8154:	48 89 85 18 fc ff ff 	mov    %rax,-0x3e8(%rbp)
    815b:	48 8d 85 10 f1 ff ff 	lea    -0xef0(%rbp),%rax
    8162:	48 83 c0 08          	add    $0x8,%rax
    8166:	48 89 85 20 fc ff ff 	mov    %rax,-0x3e0(%rbp)
    816d:	48 c7 85 28 fc ff ff 	movq   $0x0,-0x3d8(%rbp)
    8174:	00 00 00 00 
    8178:	48 8d 85 10 f1 ff ff 	lea    -0xef0(%rbp),%rax
    817f:	48 83 c0 08          	add    $0x8,%rax
    8183:	48 89 85 30 fc ff ff 	mov    %rax,-0x3d0(%rbp)
    818a:	48 8d 85 10 f1 ff ff 	lea    -0xef0(%rbp),%rax
    8191:	48 83 c0 08          	add    $0x8,%rax
    8195:	48 89 85 38 fc ff ff 	mov    %rax,-0x3c8(%rbp)
    819c:	48 8d 85 10 f1 ff ff 	lea    -0xef0(%rbp),%rax
    81a3:	48 83 c0 08          	add    $0x8,%rax
    81a7:	48 89 85 40 fc ff ff 	mov    %rax,-0x3c0(%rbp)
    81ae:	48 8d 85 10 f1 ff ff 	lea    -0xef0(%rbp),%rax
    81b5:	48 83 c0 08          	add    $0x8,%rax
    81b9:	48 89 85 48 fc ff ff 	mov    %rax,-0x3b8(%rbp)
    81c0:	48 8d 85 10 f1 ff ff 	lea    -0xef0(%rbp),%rax
    81c7:	48 83 c0 08          	add    $0x8,%rax
    81cb:	48 89 85 50 fc ff ff 	mov    %rax,-0x3b0(%rbp)
    81d2:	48 c7 85 58 fc ff ff 	movq   $0x0,-0x3a8(%rbp)
    81d9:	00 00 00 00 
    81dd:	48 8d 85 10 f1 ff ff 	lea    -0xef0(%rbp),%rax
    81e4:	48 83 c0 08          	add    $0x8,%rax
    81e8:	48 89 85 60 fc ff ff 	mov    %rax,-0x3a0(%rbp)
    81ef:	48 8d 85 10 f1 ff ff 	lea    -0xef0(%rbp),%rax
    81f6:	48 83 c0 08          	add    $0x8,%rax
    81fa:	48 89 85 68 fc ff ff 	mov    %rax,-0x398(%rbp)
    8201:	48 8d 85 10 f1 ff ff 	lea    -0xef0(%rbp),%rax
    8208:	48 83 c0 08          	add    $0x8,%rax
    820c:	48 89 85 70 fc ff ff 	mov    %rax,-0x390(%rbp)
    8213:	48 c7 85 78 fc ff ff 	movq   $0x0,-0x388(%rbp)
    821a:	00 00 00 00 
    821e:	48 8d 85 10 f1 ff ff 	lea    -0xef0(%rbp),%rax
    8225:	48 83 c0 08          	add    $0x8,%rax
    8229:	48 89 85 80 fc ff ff 	mov    %rax,-0x380(%rbp)
    8230:	48 8d 85 10 f1 ff ff 	lea    -0xef0(%rbp),%rax
    8237:	48 89 85 88 fc ff ff 	mov    %rax,-0x378(%rbp)
    823e:	48 8d 85 10 f1 ff ff 	lea    -0xef0(%rbp),%rax
    8245:	48 83 c0 08          	add    $0x8,%rax
    8249:	48 89 85 90 fc ff ff 	mov    %rax,-0x370(%rbp)
    8250:	48 8d 85 10 f1 ff ff 	lea    -0xef0(%rbp),%rax
    8257:	48 89 85 98 fc ff ff 	mov    %rax,-0x368(%rbp)
    825e:	48 8d 85 10 f1 ff ff 	lea    -0xef0(%rbp),%rax
    8265:	48 83 c0 08          	add    $0x8,%rax
    8269:	48 89 85 a0 fc ff ff 	mov    %rax,-0x360(%rbp)
    8270:	48 8d 85 10 f1 ff ff 	lea    -0xef0(%rbp),%rax
    8277:	48 83 c0 08          	add    $0x8,%rax
    827b:	48 89 85 a8 fc ff ff 	mov    %rax,-0x358(%rbp)
    8282:	48 8d 85 10 f1 ff ff 	lea    -0xef0(%rbp),%rax
    8289:	48 83 c0 08          	add    $0x8,%rax
    828d:	48 89 85 b0 fc ff ff 	mov    %rax,-0x350(%rbp)
    8294:	48 8d 85 10 f1 ff ff 	lea    -0xef0(%rbp),%rax
    829b:	48 83 c0 08          	add    $0x8,%rax
    829f:	48 89 85 b8 fc ff ff 	mov    %rax,-0x348(%rbp)
    82a6:	48 8d 85 10 f1 ff ff 	lea    -0xef0(%rbp),%rax
    82ad:	48 83 c0 08          	add    $0x8,%rax
    82b1:	48 89 85 c0 fc ff ff 	mov    %rax,-0x340(%rbp)
    82b8:	48 8d 85 10 f1 ff ff 	lea    -0xef0(%rbp),%rax
    82bf:	48 83 c0 08          	add    $0x8,%rax
    82c3:	48 89 85 c8 fc ff ff 	mov    %rax,-0x338(%rbp)
    82ca:	48 8d 85 10 f1 ff ff 	lea    -0xef0(%rbp),%rax
    82d1:	48 83 c0 08          	add    $0x8,%rax
    82d5:	48 89 85 d0 fc ff ff 	mov    %rax,-0x330(%rbp)
    82dc:	48 8d 85 10 f1 ff ff 	lea    -0xef0(%rbp),%rax
    82e3:	48 83 c0 08          	add    $0x8,%rax
    82e7:	48 89 85 d8 fc ff ff 	mov    %rax,-0x328(%rbp)
    82ee:	48 8d 85 10 f1 ff ff 	lea    -0xef0(%rbp),%rax
    82f5:	48 89 85 e0 fc ff ff 	mov    %rax,-0x320(%rbp)
    82fc:	48 8d 85 10 f1 ff ff 	lea    -0xef0(%rbp),%rax
    8303:	48 83 c0 08          	add    $0x8,%rax
    8307:	48 89 85 e8 fc ff ff 	mov    %rax,-0x318(%rbp)
    830e:	48 8d 85 10 f1 ff ff 	lea    -0xef0(%rbp),%rax
    8315:	48 83 c0 08          	add    $0x8,%rax
    8319:	48 89 85 f0 fc ff ff 	mov    %rax,-0x310(%rbp)
    8320:	48 8d 85 10 f1 ff ff 	lea    -0xef0(%rbp),%rax
    8327:	48 83 c0 08          	add    $0x8,%rax
    832b:	48 89 85 f8 fc ff ff 	mov    %rax,-0x308(%rbp)
    8332:	48 8d 85 10 f1 ff ff 	lea    -0xef0(%rbp),%rax
    8339:	48 83 c0 08          	add    $0x8,%rax
    833d:	48 89 85 00 fd ff ff 	mov    %rax,-0x300(%rbp)
    8344:	48 8d 85 10 f1 ff ff 	lea    -0xef0(%rbp),%rax
    834b:	48 83 c0 08          	add    $0x8,%rax
    834f:	48 89 85 08 fd ff ff 	mov    %rax,-0x2f8(%rbp)
    8356:	48 8d 85 10 f1 ff ff 	lea    -0xef0(%rbp),%rax
    835d:	48 89 85 10 fd ff ff 	mov    %rax,-0x2f0(%rbp)
    8364:	48 8d 85 10 f1 ff ff 	lea    -0xef0(%rbp),%rax
    836b:	48 83 c0 08          	add    $0x8,%rax
    836f:	48 89 85 18 fd ff ff 	mov    %rax,-0x2e8(%rbp)
    8376:	48 8d 85 10 f1 ff ff 	lea    -0xef0(%rbp),%rax
    837d:	48 83 c0 08          	add    $0x8,%rax
    8381:	48 89 85 20 fd ff ff 	mov    %rax,-0x2e0(%rbp)
    8388:	48 8d 85 10 f1 ff ff 	lea    -0xef0(%rbp),%rax
    838f:	48 83 c0 08          	add    $0x8,%rax
    8393:	48 89 85 28 fd ff ff 	mov    %rax,-0x2d8(%rbp)
    839a:	48 8d 85 10 f1 ff ff 	lea    -0xef0(%rbp),%rax
    83a1:	48 83 c0 08          	add    $0x8,%rax
    83a5:	48 89 85 30 fd ff ff 	mov    %rax,-0x2d0(%rbp)
    83ac:	48 8d 85 10 f1 ff ff 	lea    -0xef0(%rbp),%rax
    83b3:	48 83 c0 08          	add    $0x8,%rax
    83b7:	48 89 85 38 fd ff ff 	mov    %rax,-0x2c8(%rbp)
    83be:	48 c7 85 40 fd ff ff 	movq   $0x0,-0x2c0(%rbp)
    83c5:	00 00 00 00 
    83c9:	48 8d 85 10 f1 ff ff 	lea    -0xef0(%rbp),%rax
    83d0:	48 83 c0 08          	add    $0x8,%rax
    83d4:	48 89 85 48 fd ff ff 	mov    %rax,-0x2b8(%rbp)
    83db:	48 c7 85 50 fd ff ff 	movq   $0x0,-0x2b0(%rbp)
    83e2:	00 00 00 00 
    83e6:	48 8d 85 10 f1 ff ff 	lea    -0xef0(%rbp),%rax
    83ed:	48 83 c0 08          	add    $0x8,%rax
    83f1:	48 89 85 58 fd ff ff 	mov    %rax,-0x2a8(%rbp)
    83f8:	48 8d 85 10 f1 ff ff 	lea    -0xef0(%rbp),%rax
    83ff:	48 83 c0 08          	add    $0x8,%rax
    8403:	48 89 85 60 fd ff ff 	mov    %rax,-0x2a0(%rbp)
    840a:	48 8d 85 10 f1 ff ff 	lea    -0xef0(%rbp),%rax
    8411:	48 83 c0 08          	add    $0x8,%rax
    8415:	48 89 85 68 fd ff ff 	mov    %rax,-0x298(%rbp)
    841c:	48 8d 85 10 f1 ff ff 	lea    -0xef0(%rbp),%rax
    8423:	48 89 85 70 fd ff ff 	mov    %rax,-0x290(%rbp)
    842a:	48 8d 85 10 f1 ff ff 	lea    -0xef0(%rbp),%rax
    8431:	48 89 85 78 fd ff ff 	mov    %rax,-0x288(%rbp)
    8438:	48 c7 85 80 fd ff ff 	movq   $0x0,-0x280(%rbp)
    843f:	00 00 00 00 
    8443:	48 8d 85 10 f1 ff ff 	lea    -0xef0(%rbp),%rax
    844a:	48 89 85 88 fd ff ff 	mov    %rax,-0x278(%rbp)
    8451:	48 8d 85 10 f1 ff ff 	lea    -0xef0(%rbp),%rax
    8458:	48 83 c0 08          	add    $0x8,%rax
    845c:	48 89 85 90 fd ff ff 	mov    %rax,-0x270(%rbp)
    8463:	48 c7 85 98 fd ff ff 	movq   $0x0,-0x268(%rbp)
    846a:	00 00 00 00 
    846e:	48 8d 85 10 f1 ff ff 	lea    -0xef0(%rbp),%rax
    8475:	48 89 85 a0 fd ff ff 	mov    %rax,-0x260(%rbp)
    847c:	48 8d 85 10 f1 ff ff 	lea    -0xef0(%rbp),%rax
    8483:	48 83 c0 08          	add    $0x8,%rax
    8487:	48 89 85 a8 fd ff ff 	mov    %rax,-0x258(%rbp)
    848e:	48 8d 85 10 f1 ff ff 	lea    -0xef0(%rbp),%rax
    8495:	48 83 c0 08          	add    $0x8,%rax
    8499:	48 89 85 b0 fd ff ff 	mov    %rax,-0x250(%rbp)
    84a0:	48 c7 85 b8 fd ff ff 	movq   $0x0,-0x248(%rbp)
    84a7:	00 00 00 00 
    84ab:	48 8d 85 10 f1 ff ff 	lea    -0xef0(%rbp),%rax
    84b2:	48 89 85 c0 fd ff ff 	mov    %rax,-0x240(%rbp)
    84b9:	48 8d 85 10 f1 ff ff 	lea    -0xef0(%rbp),%rax
    84c0:	48 83 c0 08          	add    $0x8,%rax
    84c4:	48 89 85 c8 fd ff ff 	mov    %rax,-0x238(%rbp)
    84cb:	48 8d 85 10 f1 ff ff 	lea    -0xef0(%rbp),%rax
    84d2:	48 83 c0 08          	add    $0x8,%rax
    84d6:	48 89 85 d0 fd ff ff 	mov    %rax,-0x230(%rbp)
    84dd:	48 8d 85 10 f1 ff ff 	lea    -0xef0(%rbp),%rax
    84e4:	48 83 c0 08          	add    $0x8,%rax
    84e8:	48 89 85 d8 fd ff ff 	mov    %rax,-0x228(%rbp)
    84ef:	48 c7 85 e0 fd ff ff 	movq   $0x0,-0x220(%rbp)
    84f6:	00 00 00 00 
    84fa:	48 c7 85 e8 fd ff ff 	movq   $0x0,-0x218(%rbp)
    8501:	00 00 00 00 
    8505:	48 c7 85 f0 fd ff ff 	movq   $0x0,-0x210(%rbp)
    850c:	00 00 00 00 
    8510:	48 c7 85 f8 fd ff ff 	movq   $0x0,-0x208(%rbp)
    8517:	00 00 00 00 
    851b:	48 8d 85 10 f1 ff ff 	lea    -0xef0(%rbp),%rax
    8522:	48 83 c0 08          	add    $0x8,%rax
    8526:	48 89 85 00 fe ff ff 	mov    %rax,-0x200(%rbp)
    852d:	48 8d 85 10 f1 ff ff 	lea    -0xef0(%rbp),%rax
    8534:	48 83 c0 08          	add    $0x8,%rax
    8538:	48 89 85 08 fe ff ff 	mov    %rax,-0x1f8(%rbp)
    853f:	48 8d 85 10 f1 ff ff 	lea    -0xef0(%rbp),%rax
    8546:	48 83 c0 08          	add    $0x8,%rax
    854a:	48 89 85 10 fe ff ff 	mov    %rax,-0x1f0(%rbp)
    8551:	48 8d 85 10 f1 ff ff 	lea    -0xef0(%rbp),%rax
    8558:	48 89 85 18 fe ff ff 	mov    %rax,-0x1e8(%rbp)
    855f:	48 8d 85 10 f1 ff ff 	lea    -0xef0(%rbp),%rax
    8566:	48 89 85 20 fe ff ff 	mov    %rax,-0x1e0(%rbp)
    856d:	48 8d 85 10 f1 ff ff 	lea    -0xef0(%rbp),%rax
    8574:	48 83 c0 08          	add    $0x8,%rax
    8578:	48 89 85 28 fe ff ff 	mov    %rax,-0x1d8(%rbp)
    857f:	48 8d 85 10 f1 ff ff 	lea    -0xef0(%rbp),%rax
    8586:	48 83 c0 08          	add    $0x8,%rax
    858a:	48 89 85 30 fe ff ff 	mov    %rax,-0x1d0(%rbp)
    8591:	48 8d 85 10 f1 ff ff 	lea    -0xef0(%rbp),%rax
    8598:	48 83 c0 08          	add    $0x8,%rax
    859c:	48 89 85 38 fe ff ff 	mov    %rax,-0x1c8(%rbp)
    85a3:	48 c7 85 40 fe ff ff 	movq   $0x0,-0x1c0(%rbp)
    85aa:	00 00 00 00 
    85ae:	48 8d 85 10 f1 ff ff 	lea    -0xef0(%rbp),%rax
    85b5:	48 83 c0 08          	add    $0x8,%rax
    85b9:	48 89 85 48 fe ff ff 	mov    %rax,-0x1b8(%rbp)
    85c0:	48 c7 85 50 fe ff ff 	movq   $0x0,-0x1b0(%rbp)
    85c7:	00 00 00 00 
    85cb:	48 8d 85 10 f1 ff ff 	lea    -0xef0(%rbp),%rax
    85d2:	48 83 c0 08          	add    $0x8,%rax
    85d6:	48 89 85 58 fe ff ff 	mov    %rax,-0x1a8(%rbp)
    85dd:	48 8d 85 10 f1 ff ff 	lea    -0xef0(%rbp),%rax
    85e4:	48 83 c0 08          	add    $0x8,%rax
    85e8:	48 89 85 60 fe ff ff 	mov    %rax,-0x1a0(%rbp)
    85ef:	48 8d 85 10 f1 ff ff 	lea    -0xef0(%rbp),%rax
    85f6:	48 83 c0 08          	add    $0x8,%rax
    85fa:	48 89 85 68 fe ff ff 	mov    %rax,-0x198(%rbp)
    8601:	48 c7 85 70 fe ff ff 	movq   $0x0,-0x190(%rbp)
    8608:	00 00 00 00 
    860c:	48 8d 85 10 f1 ff ff 	lea    -0xef0(%rbp),%rax
    8613:	48 83 c0 08          	add    $0x8,%rax
    8617:	48 89 85 78 fe ff ff 	mov    %rax,-0x188(%rbp)
    861e:	48 8d 85 10 f1 ff ff 	lea    -0xef0(%rbp),%rax
    8625:	48 83 c0 08          	add    $0x8,%rax
    8629:	48 89 85 80 fe ff ff 	mov    %rax,-0x180(%rbp)
    8630:	48 8d 85 10 f1 ff ff 	lea    -0xef0(%rbp),%rax
    8637:	48 83 c0 08          	add    $0x8,%rax
    863b:	48 89 85 88 fe ff ff 	mov    %rax,-0x178(%rbp)
    8642:	48 c7 85 90 fe ff ff 	movq   $0x0,-0x170(%rbp)
    8649:	00 00 00 00 
    864d:	48 8d 85 10 f1 ff ff 	lea    -0xef0(%rbp),%rax
    8654:	48 89 85 98 fe ff ff 	mov    %rax,-0x168(%rbp)
    865b:	48 c7 85 a0 fe ff ff 	movq   $0x0,-0x160(%rbp)
    8662:	00 00 00 00 
    8666:	48 8d 85 10 f1 ff ff 	lea    -0xef0(%rbp),%rax
    866d:	48 83 c0 08          	add    $0x8,%rax
    8671:	48 89 85 a8 fe ff ff 	mov    %rax,-0x158(%rbp)
    8678:	48 c7 85 b0 fe ff ff 	movq   $0x0,-0x150(%rbp)
    867f:	00 00 00 00 
    8683:	48 c7 85 b8 fe ff ff 	movq   $0x0,-0x148(%rbp)
    868a:	00 00 00 00 
    868e:	48 8d 85 10 f1 ff ff 	lea    -0xef0(%rbp),%rax
    8695:	48 83 c0 08          	add    $0x8,%rax
    8699:	48 89 85 c0 fe ff ff 	mov    %rax,-0x140(%rbp)
    86a0:	48 8d 85 10 f1 ff ff 	lea    -0xef0(%rbp),%rax
    86a7:	48 89 85 c8 fe ff ff 	mov    %rax,-0x138(%rbp)
    86ae:	48 8d 85 10 f1 ff ff 	lea    -0xef0(%rbp),%rax
    86b5:	48 89 85 d0 fe ff ff 	mov    %rax,-0x130(%rbp)
    86bc:	48 8d 85 10 f1 ff ff 	lea    -0xef0(%rbp),%rax
    86c3:	48 83 c0 08          	add    $0x8,%rax
    86c7:	48 89 85 d8 fe ff ff 	mov    %rax,-0x128(%rbp)
    86ce:	48 8d 85 10 f1 ff ff 	lea    -0xef0(%rbp),%rax
    86d5:	48 83 c0 08          	add    $0x8,%rax
    86d9:	48 89 85 e0 fe ff ff 	mov    %rax,-0x120(%rbp)
    86e0:	48 c7 85 e8 fe ff ff 	movq   $0x0,-0x118(%rbp)
    86e7:	00 00 00 00 
    86eb:	48 8d 85 10 f1 ff ff 	lea    -0xef0(%rbp),%rax
    86f2:	48 83 c0 08          	add    $0x8,%rax
    86f6:	48 89 85 f0 fe ff ff 	mov    %rax,-0x110(%rbp)
    86fd:	48 8d 85 10 f1 ff ff 	lea    -0xef0(%rbp),%rax
    8704:	48 89 85 f8 fe ff ff 	mov    %rax,-0x108(%rbp)
    870b:	48 8d 85 10 f1 ff ff 	lea    -0xef0(%rbp),%rax
    8712:	48 83 c0 08          	add    $0x8,%rax
    8716:	48 89 85 00 ff ff ff 	mov    %rax,-0x100(%rbp)
    871d:	48 8d 85 10 f1 ff ff 	lea    -0xef0(%rbp),%rax
    8724:	48 83 c0 08          	add    $0x8,%rax
    8728:	48 89 85 08 ff ff ff 	mov    %rax,-0xf8(%rbp)
    872f:	48 8d 85 10 f1 ff ff 	lea    -0xef0(%rbp),%rax
    8736:	48 83 c0 08          	add    $0x8,%rax
    873a:	48 89 85 10 ff ff ff 	mov    %rax,-0xf0(%rbp)
    8741:	48 8d 85 10 f1 ff ff 	lea    -0xef0(%rbp),%rax
    8748:	48 83 c0 08          	add    $0x8,%rax
    874c:	48 89 85 18 ff ff ff 	mov    %rax,-0xe8(%rbp)
    8753:	48 8d 85 10 f1 ff ff 	lea    -0xef0(%rbp),%rax
    875a:	48 83 c0 08          	add    $0x8,%rax
    875e:	48 89 85 20 ff ff ff 	mov    %rax,-0xe0(%rbp)
    8765:	48 8d 85 10 f1 ff ff 	lea    -0xef0(%rbp),%rax
    876c:	48 83 c0 08          	add    $0x8,%rax
    8770:	48 89 85 28 ff ff ff 	mov    %rax,-0xd8(%rbp)
    8777:	48 8d 85 10 f1 ff ff 	lea    -0xef0(%rbp),%rax
    877e:	48 89 85 30 ff ff ff 	mov    %rax,-0xd0(%rbp)
    8785:	48 8d 85 10 f1 ff ff 	lea    -0xef0(%rbp),%rax
    878c:	48 83 c0 08          	add    $0x8,%rax
    8790:	48 89 85 38 ff ff ff 	mov    %rax,-0xc8(%rbp)
    8797:	48 8d 85 10 f1 ff ff 	lea    -0xef0(%rbp),%rax
    879e:	48 83 c0 08          	add    $0x8,%rax
    87a2:	48 89 85 40 ff ff ff 	mov    %rax,-0xc0(%rbp)
    87a9:	48 c7 85 48 ff ff ff 	movq   $0x0,-0xb8(%rbp)
    87b0:	00 00 00 00 
    87b4:	48 c7 85 50 ff ff ff 	movq   $0x0,-0xb0(%rbp)
    87bb:	00 00 00 00 
    87bf:	48 8d 85 10 f1 ff ff 	lea    -0xef0(%rbp),%rax
    87c6:	48 83 c0 08          	add    $0x8,%rax
    87ca:	48 89 85 58 ff ff ff 	mov    %rax,-0xa8(%rbp)
    87d1:	48 c7 85 60 ff ff ff 	movq   $0x0,-0xa0(%rbp)
    87d8:	00 00 00 00 
    87dc:	48 8d 85 10 f1 ff ff 	lea    -0xef0(%rbp),%rax
    87e3:	48 83 c0 08          	add    $0x8,%rax
    87e7:	48 89 85 68 ff ff ff 	mov    %rax,-0x98(%rbp)
    87ee:	48 c7 85 70 ff ff ff 	movq   $0x0,-0x90(%rbp)
    87f5:	00 00 00 00 
    87f9:	48 8d 85 10 f1 ff ff 	lea    -0xef0(%rbp),%rax
    8800:	48 83 c0 08          	add    $0x8,%rax
    8804:	48 89 85 78 ff ff ff 	mov    %rax,-0x88(%rbp)
    880b:	48 8d 85 10 f1 ff ff 	lea    -0xef0(%rbp),%rax
    8812:	48 83 c0 08          	add    $0x8,%rax
    8816:	48 89 45 80          	mov    %rax,-0x80(%rbp)
    881a:	48 8d 85 10 f1 ff ff 	lea    -0xef0(%rbp),%rax
    8821:	48 83 c0 08          	add    $0x8,%rax
    8825:	48 89 45 88          	mov    %rax,-0x78(%rbp)
    8829:	48 c7 45 90 00 00 00 	movq   $0x0,-0x70(%rbp)
    8830:	00 
    8831:	48 8d 85 10 f1 ff ff 	lea    -0xef0(%rbp),%rax
    8838:	48 83 c0 08          	add    $0x8,%rax
    883c:	48 89 45 98          	mov    %rax,-0x68(%rbp)
    8840:	48 8d 85 10 f1 ff ff 	lea    -0xef0(%rbp),%rax
    8847:	48 83 c0 08          	add    $0x8,%rax
    884b:	48 89 45 a0          	mov    %rax,-0x60(%rbp)
    884f:	48 8d 85 10 f1 ff ff 	lea    -0xef0(%rbp),%rax
    8856:	48 83 c0 08          	add    $0x8,%rax
    885a:	48 89 45 a8          	mov    %rax,-0x58(%rbp)
    885e:	48 c7 45 b0 00 00 00 	movq   $0x0,-0x50(%rbp)
    8865:	00 
    8866:	48 8d 85 10 f1 ff ff 	lea    -0xef0(%rbp),%rax
    886d:	48 83 c0 08          	add    $0x8,%rax
    8871:	48 89 45 b8          	mov    %rax,-0x48(%rbp)
    8875:	48 8d 05 dc 57 01 00 	lea    0x157dc(%rip),%rax        # 1e058 <g_1134>
    887c:	48 89 85 40 ef ff ff 	mov    %rax,-0x10c0(%rbp)
    8883:	48 8d 85 40 ef ff ff 	lea    -0x10c0(%rbp),%rax
    888a:	48 89 85 f0 f0 ff ff 	mov    %rax,-0xf10(%rbp)
    8891:	c7 85 a8 ee ff ff 7b 	movl   $0x2f5ce17b,-0x1158(%rbp)
    8898:	e1 5c 2f 
    889b:	66 c7 85 f4 ed ff ff 	movw   $0xfff8,-0x120c(%rbp)
    88a2:	f8 ff 
    88a4:	c7 85 ac ee ff ff fa 	movl   $0xfffffffa,-0x1154(%rbp)
    88ab:	ff ff ff 
    88ae:	48 8b 85 08 f0 ff ff 	mov    -0xff8(%rbp),%rax
    88b5:	8b 00                	mov    (%rax),%eax
    88b7:	48 63 d8             	movslq %eax,%rbx
    88ba:	48 8b 85 c8 f0 ff ff 	mov    -0xf38(%rbp),%rax
    88c1:	48 8b 00             	mov    (%rax),%rax
    88c4:	48 8b 00             	mov    (%rax),%rax
    88c7:	48 8b 00             	mov    (%rax),%rax
    88ca:	48 8b 00             	mov    (%rax),%rax
    88cd:	8b 00                	mov    (%rax),%eax
    88cf:	89 c2                	mov    %eax,%edx
    88d1:	83 bd a8 ee ff ff f6 	cmpl   $0xfffffff6,-0x1158(%rbp)
    88d8:	0f 9c c0             	setl   %al
    88db:	0f b6 c0             	movzbl %al,%eax
    88de:	89 d6                	mov    %edx,%esi
    88e0:	89 c7                	mov    %eax,%edi
    88e2:	e8 7c cc ff ff       	callq  5563 <safe_rshift_func_int16_t_s_u>
    88e7:	48 0f bf c0          	movswq %ax,%rax
    88eb:	48 89 c6             	mov    %rax,%rsi
    88ee:	bf 00 00 00 00       	mov    $0x0,%edi
    88f3:	e8 49 cf ff ff       	callq  5841 <safe_add_func_int64_t_s_s>
    88f8:	48 09 d8             	or     %rbx,%rax
    88fb:	48 85 c0             	test   %rax,%rax
    88fe:	75 0b                	jne    890b <func_1+0x2156>
    8900:	0f b6 85 e6 ed ff ff 	movzbl -0x121a(%rbp),%eax
    8907:	84 c0                	test   %al,%al
    8909:	74 07                	je     8912 <func_1+0x215d>
    890b:	b8 01 00 00 00       	mov    $0x1,%eax
    8910:	eb 05                	jmp    8917 <func_1+0x2162>
    8912:	b8 00 00 00 00       	mov    $0x0,%eax
    8917:	0f b6 c0             	movzbl %al,%eax
    891a:	be 09 00 00 00       	mov    $0x9,%esi
    891f:	89 c7                	mov    %eax,%edi
    8921:	e8 88 d2 ff ff       	callq  5bae <safe_mod_func_uint8_t_u_u>
    8926:	0f b6 d0             	movzbl %al,%edx
    8929:	48 8b 85 c8 f0 ff ff 	mov    -0xf38(%rbp),%rax
    8930:	48 8b 00             	mov    (%rax),%rax
    8933:	48 8b 00             	mov    (%rax),%rax
    8936:	48 8b 00             	mov    (%rax),%rax
    8939:	48 8b 00             	mov    (%rax),%rax
    893c:	8b 00                	mov    (%rax),%eax
    893e:	39 c2                	cmp    %eax,%edx
    8940:	0f 9d c0             	setge  %al
    8943:	0f b6 d0             	movzbl %al,%edx
    8946:	48 8b 85 70 ef ff ff 	mov    -0x1090(%rbp),%rax
    894d:	66 89 10             	mov    %dx,(%rax)
    8950:	48 8b 85 70 ef ff ff 	mov    -0x1090(%rbp),%rax
    8957:	0f b7 00             	movzwl (%rax),%eax
    895a:	66 85 c0             	test   %ax,%ax
    895d:	0f 95 c0             	setne  %al
    8960:	0f b6 d8             	movzbl %al,%ebx
    8963:	48 8b 85 08 f0 ff ff 	mov    -0xff8(%rbp),%rax
    896a:	8b 00                	mov    (%rax),%eax
    896c:	48 8b 95 18 f1 ff ff 	mov    -0xee8(%rbp),%rdx
    8973:	48 89 15 56 52 01 00 	mov    %rdx,0x15256(%rip)        # 1dbd0 <g_2322>
    897a:	48 8b 0d 4f 52 01 00 	mov    0x1524f(%rip),%rcx        # 1dbd0 <g_2322>
    8981:	48 8b 95 f0 f0 ff ff 	mov    -0xf10(%rbp),%rdx
    8988:	48 c7 02 00 00 00 00 	movq   $0x0,(%rdx)
    898f:	48 8b 95 f0 f0 ff ff 	mov    -0xf10(%rbp),%rdx
    8996:	48 8b 12             	mov    (%rdx),%rdx
    8999:	48 89 15 38 52 01 00 	mov    %rdx,0x15238(%rip)        # 1dbd8 <g_2327>
    89a0:	48 8b 15 31 52 01 00 	mov    0x15231(%rip),%rdx        # 1dbd8 <g_2327>
    89a7:	48 39 d1             	cmp    %rdx,%rcx
    89aa:	0f 95 c2             	setne  %dl
    89ad:	0f b6 ca             	movzbl %dl,%ecx
    89b0:	48 8b 95 c8 f0 ff ff 	mov    -0xf38(%rbp),%rdx
    89b7:	48 8b 12             	mov    (%rdx),%rdx
    89ba:	48 8b 12             	mov    (%rdx),%rdx
    89bd:	48 8b 12             	mov    (%rdx),%rdx
    89c0:	48 8b 12             	mov    (%rdx),%rdx
    89c3:	8b 12                	mov    (%rdx),%edx
    89c5:	09 ca                	or     %ecx,%edx
    89c7:	89 c6                	mov    %eax,%esi
    89c9:	89 d7                	mov    %edx,%edi
    89cb:	e8 e6 cb ff ff       	callq  55b6 <safe_add_func_int32_t_s_s>
    89d0:	89 de                	mov    %ebx,%esi
    89d2:	89 c7                	mov    %eax,%edi
    89d4:	e8 f7 d4 ff ff       	callq  5ed0 <safe_sub_func_uint32_t_u_u>
    89d9:	89 c2                	mov    %eax,%edx
    89db:	48 8b 85 08 f0 ff ff 	mov    -0xff8(%rbp),%rax
    89e2:	89 10                	mov    %edx,(%rax)
    89e4:	8b 85 34 f1 ff ff    	mov    -0xecc(%rbp),%eax
    89ea:	83 c0 01             	add    $0x1,%eax
    89ed:	89 85 34 f1 ff ff    	mov    %eax,-0xecc(%rbp)
    89f3:	48 8b 85 b8 ee ff ff 	mov    -0x1148(%rbp),%rax
    89fa:	48 85 c0             	test   %rax,%rax
    89fd:	0f 94 c0             	sete   %al
    8a00:	0f b6 c0             	movzbl %al,%eax
    8a03:	f7 d0                	not    %eax
    8a05:	48 98                	cltq   
    8a07:	25 5f 5e 1b 67       	and    $0x671b5e5f,%eax
    8a0c:	48 89 c2             	mov    %rax,%rdx
    8a0f:	48 8b 85 70 f0 ff ff 	mov    -0xf90(%rbp),%rax
    8a16:	48 3b 85 d8 f0 ff ff 	cmp    -0xf28(%rbp),%rax
    8a1d:	0f 95 c0             	setne  %al
    8a20:	0f b6 c0             	movzbl %al,%eax
    8a23:	39 85 8c ee ff ff    	cmp    %eax,-0x1174(%rbp)
    8a29:	0f 94 c0             	sete   %al
    8a2c:	0f b6 c0             	movzbl %al,%eax
    8a2f:	48 89 d6             	mov    %rdx,%rsi
    8a32:	48 89 c7             	mov    %rax,%rdi
    8a35:	e8 46 d6 ff ff       	callq  6080 <safe_mod_func_uint64_t_u_u>
    8a3a:	48 8b 95 b8 ee ff ff 	mov    -0x1148(%rbp),%rdx
    8a41:	48 8b 12             	mov    (%rdx),%rdx
    8a44:	48 8b 12             	mov    (%rdx),%rdx
    8a47:	48 8b 12             	mov    (%rdx),%rdx
    8a4a:	8b 12                	mov    (%rdx),%edx
    8a4c:	21 c2                	and    %eax,%edx
    8a4e:	48 8b 85 b8 ee ff ff 	mov    -0x1148(%rbp),%rax
    8a55:	48 8b 00             	mov    (%rax),%rax
    8a58:	48 8b 00             	mov    (%rax),%rax
    8a5b:	48 8b 00             	mov    (%rax),%rax
    8a5e:	89 10                	mov    %edx,(%rax)
    8a60:	48 8d 05 91 4a 01 00 	lea    0x14a91(%rip),%rax        # 1d4f8 <g_837>
    8a67:	48 8b 00             	mov    (%rax),%rax
    8a6a:	48 8d 95 08 ee ff ff 	lea    -0x11f8(%rbp),%rdx
    8a71:	48 89 10             	mov    %rdx,(%rax)
    8a74:	8b 05 70 32 01 00    	mov    0x13270(%rip),%eax        # 1bcea <g_1512+0xa>
    8a7a:	83 c0 01             	add    $0x1,%eax
    8a7d:	89 05 67 32 01 00    	mov    %eax,0x13267(%rip)        # 1bcea <g_1512+0xa>
    8a83:	8b 05 61 32 01 00    	mov    0x13261(%rip),%eax        # 1bcea <g_1512+0xa>
    8a89:	83 f8 05             	cmp    $0x5,%eax
    8a8c:	0f 86 84 ed ff ff    	jbe    7816 <func_1+0x1061>
    8a92:	48 8d 05 5f 4a 01 00 	lea    0x14a5f(%rip),%rax        # 1d4f8 <g_837>
    8a99:	48 8b 00             	mov    (%rax),%rax
    8a9c:	48 8d 95 fc ed ff ff 	lea    -0x1204(%rbp),%rdx
    8aa3:	48 89 10             	mov    %rdx,(%rax)
    8aa6:	66 c7 05 f7 2d 01 00 	movw   $0x0,0x12df7(%rip)        # 1b8a6 <g_517+0x26>
    8aad:	00 00 
    8aaf:	e9 2e 05 00 00       	jmpq   8fe2 <func_1+0x282d>
    8ab4:	c7 85 2c ee ff ff 69 	movl   $0x54450c69,-0x11d4(%rbp)
    8abb:	0c 45 54 
    8abe:	48 c7 85 98 f0 ff ff 	movq   $0x0,-0xf68(%rbp)
    8ac5:	00 00 00 00 
    8ac9:	48 8d 85 18 ef ff ff 	lea    -0x10e8(%rbp),%rax
    8ad0:	48 89 85 a0 f0 ff ff 	mov    %rax,-0xf60(%rbp)
    8ad7:	c6 85 e9 ed ff ff 73 	movb   $0x73,-0x1217(%rbp)
    8ade:	c7 85 30 ee ff ff 00 	movl   $0x0,-0x11d0(%rbp)
    8ae5:	00 00 00 
    8ae8:	eb 1a                	jmp    8b04 <func_1+0x234f>
    8aea:	8b 85 30 ee ff ff    	mov    -0x11d0(%rbp),%eax
    8af0:	48 98                	cltq   
    8af2:	c7 84 85 20 f1 ff ff 	movl   $0xcb918fb0,-0xee0(%rbp,%rax,4)
    8af9:	b0 8f 91 cb 
    8afd:	83 85 30 ee ff ff 01 	addl   $0x1,-0x11d0(%rbp)
    8b04:	83 bd 30 ee ff ff 00 	cmpl   $0x0,-0x11d0(%rbp)
    8b0b:	7e dd                	jle    8aea <func_1+0x2335>
    8b0d:	8b 85 90 ee ff ff    	mov    -0x1170(%rbp),%eax
    8b13:	44 0f bf e0          	movswl %ax,%r12d
    8b17:	48 8b 85 b0 ee ff ff 	mov    -0x1150(%rbp),%rax
    8b1e:	48 8b 00             	mov    (%rax),%rax
    8b21:	48 8b 00             	mov    (%rax),%rax
    8b24:	8b 00                	mov    (%rax),%eax
    8b26:	41 89 c6             	mov    %eax,%r14d
    8b29:	0f b6 05 f4 31 01 00 	movzbl 0x131f4(%rip),%eax        # 1bd24 <g_1563+0x4>
    8b30:	0f b6 d8             	movzbl %al,%ebx
    8b33:	48 8b 85 10 f0 ff ff 	mov    -0xff0(%rbp),%rax
    8b3a:	8b 00                	mov    (%rax),%eax
    8b3c:	41 89 c5             	mov    %eax,%r13d
    8b3f:	48 8b 05 1a 46 01 00 	mov    0x1461a(%rip),%rax        # 1d160 <g_446>
    8b46:	48 8b 00             	mov    (%rax),%rax
    8b49:	48 89 c1             	mov    %rax,%rcx
    8b4c:	48 8b 95 18 ef ff ff 	mov    -0x10e8(%rbp),%rdx
    8b53:	48 8b 85 a0 f0 ff ff 	mov    -0xf60(%rbp),%rax
    8b5a:	48 89 10             	mov    %rdx,(%rax)
    8b5d:	48 8b 85 a0 f0 ff ff 	mov    -0xf60(%rbp),%rax
    8b64:	48 8b 00             	mov    (%rax),%rax
    8b67:	48 85 c0             	test   %rax,%rax
    8b6a:	0f 95 c0             	setne  %al
    8b6d:	0f b6 d0             	movzbl %al,%edx
    8b70:	8b 85 20 f1 ff ff    	mov    -0xee0(%rbp),%eax
    8b76:	39 c2                	cmp    %eax,%edx
    8b78:	0f 94 c0             	sete   %al
    8b7b:	0f b6 c0             	movzbl %al,%eax
    8b7e:	48 89 ce             	mov    %rcx,%rsi
    8b81:	48 89 c7             	mov    %rax,%rdi
    8b84:	e8 f7 d4 ff ff       	callq  6080 <safe_mod_func_uint64_t_u_u>
    8b89:	98                   	cwtl   
    8b8a:	44 89 ee             	mov    %r13d,%esi
    8b8d:	89 c7                	mov    %eax,%edi
    8b8f:	e8 4d c9 ff ff       	callq  54e1 <safe_lshift_func_int16_t_s_u>
    8b94:	48 8b 95 60 ef ff ff 	mov    -0x10a0(%rbp),%rdx
    8b9b:	0f b7 12             	movzwl (%rdx),%edx
    8b9e:	31 c2                	xor    %eax,%edx
    8ba0:	48 8b 85 60 ef ff ff 	mov    -0x10a0(%rbp),%rax
    8ba7:	66 89 10             	mov    %dx,(%rax)
    8baa:	be 01 00 00 00       	mov    $0x1,%esi
    8baf:	bf dc 00 00 00       	mov    $0xdc,%edi
    8bb4:	e8 22 d0 ff ff       	callq  5bdb <safe_div_func_uint8_t_u_u>
    8bb9:	0f b6 d0             	movzbl %al,%edx
    8bbc:	48 8b 85 80 f0 ff ff 	mov    -0xf80(%rbp),%rax
    8bc3:	89 10                	mov    %edx,(%rax)
    8bc5:	48 8b 85 80 f0 ff ff 	mov    -0xf80(%rbp),%rax
    8bcc:	8b 10                	mov    (%rax),%edx
    8bce:	48 8b 85 08 f0 ff ff 	mov    -0xff8(%rbp),%rax
    8bd5:	89 10                	mov    %edx,(%rax)
    8bd7:	48 8b 85 08 f0 ff ff 	mov    -0xff8(%rbp),%rax
    8bde:	8b 10                	mov    (%rax),%edx
    8be0:	48 8b 85 a8 f6 ff ff 	mov    -0x958(%rbp),%rax
    8be7:	48 39 85 80 ef ff ff 	cmp    %rax,-0x1080(%rbp)
    8bee:	0f 95 c0             	setne  %al
    8bf1:	0f b6 c0             	movzbl %al,%eax
    8bf4:	39 c2                	cmp    %eax,%edx
    8bf6:	8b 85 2c ee ff ff    	mov    -0x11d4(%rbp),%eax
    8bfc:	8d 50 ff             	lea    -0x1(%rax),%edx
    8bff:	89 95 2c ee ff ff    	mov    %edx,-0x11d4(%rbp)
    8c05:	0f b6 95 e7 ed ff ff 	movzbl -0x1219(%rbp),%edx
    8c0c:	0f be ca             	movsbl %dl,%ecx
    8c0f:	ba ff ff ff ff       	mov    $0xffffffff,%edx
    8c14:	48 0f bf d2          	movswq %dx,%rdx
    8c18:	48 81 fa fe ff 00 00 	cmp    $0xfffe,%rdx
    8c1f:	0f 96 c2             	setbe  %dl
    8c22:	0f b6 d2             	movzbl %dl,%edx
    8c25:	39 d1                	cmp    %edx,%ecx
    8c27:	0f 9e c2             	setle  %dl
    8c2a:	0f b6 d2             	movzbl %dl,%edx
    8c2d:	39 d0                	cmp    %edx,%eax
    8c2f:	8b 95 9c ee ff ff    	mov    -0x1164(%rbp),%edx
    8c35:	48 8b 05 62 2c 01 00 	mov    0x12c62(%rip),%rax        # 1b89e <g_517+0x1e>
    8c3c:	48 31 d0             	xor    %rdx,%rax
    8c3f:	48 8d 15 b2 48 01 00 	lea    0x148b2(%rip),%rdx        # 1d4f8 <g_837>
    8c46:	4c 8b 2a             	mov    (%rdx),%r13
    8c49:	4c 8d 05 58 2c 01 00 	lea    0x12c58(%rip),%r8        # 1b8a8 <g_597>
    8c50:	44 89 e1             	mov    %r12d,%ecx
    8c53:	44 89 f2             	mov    %r14d,%edx
    8c56:	89 de                	mov    %ebx,%esi
    8c58:	48 89 c7             	mov    %rax,%rdi
    8c5b:	e8 93 a6 00 00       	callq  132f3 <func_68>
    8c60:	49 89 45 00          	mov    %rax,0x0(%r13)
    8c64:	48 c7 05 3f 32 01 00 	movq   $0x1,0x1323f(%rip)        # 1beae <g_2451+0xe>
    8c6b:	01 00 00 00 
    8c6f:	90                   	nop
    8c70:	48 8b 05 37 32 01 00 	mov    0x13237(%rip),%rax        # 1beae <g_2451+0xe>
    8c77:	48 85 c0             	test   %rax,%rax
    8c7a:	0f 88 51 03 00 00    	js     8fd1 <func_1+0x281c>
    8c80:	48 c7 85 20 ef ff ff 	movq   $0x0,-0x10e0(%rbp)
    8c87:	00 00 00 00 
    8c8b:	48 8d 85 20 ef ff ff 	lea    -0x10e0(%rbp),%rax
    8c92:	48 89 85 a8 f0 ff ff 	mov    %rax,-0xf58(%rbp)
    8c99:	48 8d 85 c0 ee ff ff 	lea    -0x1140(%rbp),%rax
    8ca0:	48 89 85 28 ef ff ff 	mov    %rax,-0x10d8(%rbp)
    8ca7:	c7 85 2c ee ff ff 01 	movl   $0x1,-0x11d4(%rbp)
    8cae:	00 00 00 
    8cb1:	e9 e1 02 00 00       	jmpq   8f97 <func_1+0x27e2>
    8cb6:	48 8d 05 1f 31 01 00 	lea    0x1311f(%rip),%rax        # 1bddc <g_2096+0xc>
    8cbd:	48 89 85 30 ef ff ff 	mov    %rax,-0x10d0(%rbp)
    8cc4:	48 8d 85 00 f9 ff ff 	lea    -0x700(%rbp),%rax
    8ccb:	48 89 85 38 ef ff ff 	mov    %rax,-0x10c8(%rbp)
    8cd2:	48 8d 85 10 f3 ff ff 	lea    -0xcf0(%rbp),%rax
    8cd9:	48 83 c0 08          	add    $0x8,%rax
    8cdd:	48 89 85 b0 f0 ff ff 	mov    %rax,-0xf50(%rbp)
    8ce4:	48 c7 85 40 ef ff ff 	movq   $0x0,-0x10c0(%rbp)
    8ceb:	00 00 00 00 
    8cef:	48 8d 85 40 ef ff ff 	lea    -0x10c0(%rbp),%rax
    8cf6:	48 89 85 b8 f0 ff ff 	mov    %rax,-0xf48(%rbp)
    8cfd:	48 8d 85 28 ef ff ff 	lea    -0x10d8(%rbp),%rax
    8d04:	48 89 85 c0 f0 ff ff 	mov    %rax,-0xf40(%rbp)
    8d0b:	c7 85 34 ee ff ff 00 	movl   $0x0,-0x11cc(%rbp)
    8d12:	00 00 00 
    8d15:	eb 1e                	jmp    8d35 <func_1+0x2580>
    8d17:	8b 85 34 ee ff ff    	mov    -0x11cc(%rbp),%eax
    8d1d:	48 98                	cltq   
    8d1f:	48 8d 95 30 ef ff ff 	lea    -0x10d0(%rbp),%rdx
    8d26:	48 89 94 c5 00 f9 ff 	mov    %rdx,-0x700(%rbp,%rax,8)
    8d2d:	ff 
    8d2e:	83 85 34 ee ff ff 01 	addl   $0x1,-0x11cc(%rbp)
    8d35:	83 bd 34 ee ff ff 02 	cmpl   $0x2,-0x11cc(%rbp)
    8d3c:	7e d9                	jle    8d17 <func_1+0x2562>
    8d3e:	c7 85 34 ee ff ff 00 	movl   $0x0,-0x11cc(%rbp)
    8d45:	00 00 00 
    8d48:	eb 1e                	jmp    8d68 <func_1+0x25b3>
    8d4a:	8b 85 34 ee ff ff    	mov    -0x11cc(%rbp),%eax
    8d50:	48 98                	cltq   
    8d52:	48 8d 95 38 ef ff ff 	lea    -0x10c8(%rbp),%rdx
    8d59:	48 89 94 c5 10 f3 ff 	mov    %rdx,-0xcf0(%rbp,%rax,8)
    8d60:	ff 
    8d61:	83 85 34 ee ff ff 01 	addl   $0x1,-0x11cc(%rbp)
    8d68:	83 bd 34 ee ff ff 01 	cmpl   $0x1,-0x11cc(%rbp)
    8d6f:	7e d9                	jle    8d4a <func_1+0x2595>
    8d71:	48 8b 85 b0 f0 ff ff 	mov    -0xf50(%rbp),%rax
    8d78:	48 89 85 a8 f0 ff ff 	mov    %rax,-0xf58(%rbp)
    8d7f:	48 8d 85 b8 ee ff ff 	lea    -0x1148(%rbp),%rax
    8d86:	48 39 85 a8 f0 ff ff 	cmp    %rax,-0xf58(%rbp)
    8d8d:	0f 95 c0             	setne  %al
    8d90:	0f b6 d8             	movzbl %al,%ebx
    8d93:	48 83 bd b8 f0 ff ff 	cmpq   $0x0,-0xf48(%rbp)
    8d9a:	00 
    8d9b:	0f 95 c0             	setne  %al
    8d9e:	44 0f b6 e0          	movzbl %al,%r12d
    8da2:	0f b7 15 9d 30 01 00 	movzwl 0x1309d(%rip),%edx        # 1be46 <g_2120+0x26>
    8da9:	48 8b 05 fe 30 01 00 	mov    0x130fe(%rip),%rax        # 1beae <g_2451+0xe>
    8db0:	48 83 c0 02          	add    $0x2,%rax
    8db4:	8b 8d 2c ee ff ff    	mov    -0x11d4(%rbp),%ecx
    8dba:	8d 71 01             	lea    0x1(%rcx),%esi
    8dbd:	89 d7                	mov    %edx,%edi
    8dbf:	89 f1                	mov    %esi,%ecx
    8dc1:	48 8d 14 c5 00 00 00 	lea    0x0(,%rax,8),%rdx
    8dc8:	00 
    8dc9:	48 01 ca             	add    %rcx,%rdx
    8dcc:	66 89 bc 55 50 f2 ff 	mov    %di,-0xdb0(%rbp,%rdx,2)
    8dd3:	ff 
    8dd4:	89 f2                	mov    %esi,%edx
    8dd6:	48 c1 e0 03          	shl    $0x3,%rax
    8dda:	48 01 d0             	add    %rdx,%rax
    8ddd:	0f b7 84 45 50 f2 ff 	movzwl -0xdb0(%rbp,%rax,2),%eax
    8de4:	ff 
    8de5:	0f b7 c0             	movzwl %ax,%eax
    8de8:	be 02 00 00 00       	mov    $0x2,%esi
    8ded:	89 c7                	mov    %eax,%edi
    8def:	e8 9a cf ff ff       	callq  5d8e <safe_div_func_uint16_t_u_u>
    8df4:	0f b7 d0             	movzwl %ax,%edx
    8df7:	8b 05 27 22 01 00    	mov    0x12227(%rip),%eax        # 1b024 <g_20>
    8dfd:	83 c0 01             	add    $0x1,%eax
    8e00:	89 05 1e 22 01 00    	mov    %eax,0x1221e(%rip)        # 1b024 <g_20>
    8e06:	8b 05 18 22 01 00    	mov    0x12218(%rip),%eax        # 1b024 <g_20>
    8e0c:	89 d6                	mov    %edx,%esi
    8e0e:	89 c7                	mov    %eax,%edi
    8e10:	e8 e8 d0 ff ff       	callq  5efd <safe_mod_func_uint32_t_u_u>
    8e15:	44 09 e0             	or     %r12d,%eax
    8e18:	39 c3                	cmp    %eax,%ebx
    8e1a:	0f 92 c2             	setb   %dl
    8e1d:	48 8b 05 d4 46 01 00 	mov    0x146d4(%rip),%rax        # 1d4f8 <g_837>
    8e24:	48 8b 00             	mov    (%rax),%rax
    8e27:	0f b6 d2             	movzbl %dl,%edx
    8e2a:	89 10                	mov    %edx,(%rax)
    8e2c:	48 8b 15 d5 46 01 00 	mov    0x146d5(%rip),%rdx        # 1d508 <g_922>
    8e33:	48 8b 12             	mov    (%rdx),%rdx
    8e36:	8b 00                	mov    (%rax),%eax
    8e38:	89 02                	mov    %eax,(%rdx)
    8e3a:	48 8b 95 28 ef ff ff 	mov    -0x10d8(%rbp),%rdx
    8e41:	48 8b 85 c0 f0 ff ff 	mov    -0xf40(%rbp),%rax
    8e48:	48 89 10             	mov    %rdx,(%rax)
    8e4b:	48 8b 85 c0 f0 ff ff 	mov    -0xf40(%rbp),%rax
    8e52:	48 8b 00             	mov    (%rax),%rax
    8e55:	48 39 85 88 ef ff ff 	cmp    %rax,-0x1078(%rbp)
    8e5c:	48 8b 85 30 ef ff ff 	mov    -0x10d0(%rbp),%rax
    8e63:	8b 00                	mov    (%rax),%eax
    8e65:	48 98                	cltq   
    8e67:	83 e0 58             	and    $0x58,%eax
    8e6a:	48 83 c8 06          	or     $0x6,%rax
    8e6e:	48 89 c2             	mov    %rax,%rdx
    8e71:	48 8b 85 80 f0 ff ff 	mov    -0xf80(%rbp),%rax
    8e78:	8b 00                	mov    (%rax),%eax
    8e7a:	48 98                	cltq   
    8e7c:	48 39 c2             	cmp    %rax,%rdx
    8e7f:	0f 97 c0             	seta   %al
    8e82:	0f b6 d0             	movzbl %al,%edx
    8e85:	48 8b 85 58 ef ff ff 	mov    -0x10a8(%rbp),%rax
    8e8c:	8b 00                	mov    (%rax),%eax
    8e8e:	09 c2                	or     %eax,%edx
    8e90:	48 8b 85 58 ef ff ff 	mov    -0x10a8(%rbp),%rax
    8e97:	89 10                	mov    %edx,(%rax)
    8e99:	48 8b 85 80 f0 ff ff 	mov    -0xf80(%rbp),%rax
    8ea0:	8b 00                	mov    (%rax),%eax
    8ea2:	0f bf d8             	movswl %ax,%ebx
    8ea5:	48 8b 05 b4 2e 01 00 	mov    0x12eb4(%rip),%rax        # 1bd60 <g_1619>
    8eac:	48 8b 85 b0 ee ff ff 	mov    -0x1150(%rbp),%rax
    8eb3:	48 8b 00             	mov    (%rax),%rax
    8eb6:	48 8b 00             	mov    (%rax),%rax
    8eb9:	8b 00                	mov    (%rax),%eax
    8ebb:	4c 63 e0             	movslq %eax,%r12
    8ebe:	0f b6 95 e9 ed ff ff 	movzbl -0x1217(%rbp),%edx
    8ec5:	48 8b 05 8c 4c 01 00 	mov    0x14c8c(%rip),%rax        # 1db58 <g_1408>
    8ecc:	48 8b 00             	mov    (%rax),%rax
    8ecf:	48 39 c2             	cmp    %rax,%rdx
    8ed2:	0f 94 c0             	sete   %al
    8ed5:	0f b6 d0             	movzbl %al,%edx
    8ed8:	48 8b 05 81 4c 01 00 	mov    0x14c81(%rip),%rax        # 1db60 <g_1407>
    8edf:	48 8b 00             	mov    (%rax),%rax
    8ee2:	48 8b 00             	mov    (%rax),%rax
    8ee5:	48 09 c2             	or     %rax,%rdx
    8ee8:	0f b6 05 09 29 01 00 	movzbl 0x12909(%rip),%eax        # 1b7f8 <g_147>
    8eef:	0f b6 c0             	movzbl %al,%eax
    8ef2:	48 39 c2             	cmp    %rax,%rdx
    8ef5:	0f 9e c0             	setle  %al
    8ef8:	0f b6 c0             	movzbl %al,%eax
    8efb:	48 be 9d 81 57 44 22 	movabs $0x546145224457819d,%rsi
    8f02:	45 61 54 
    8f05:	48 89 c7             	mov    %rax,%rdi
    8f08:	e8 ea ca ff ff       	callq  59f7 <safe_div_func_int64_t_s_s>
    8f0d:	4c 89 e6             	mov    %r12,%rsi
    8f10:	48 89 c7             	mov    %rax,%rdi
    8f13:	e8 68 d1 ff ff       	callq  6080 <safe_mod_func_uint64_t_u_u>
    8f18:	48 89 c6             	mov    %rax,%rsi
    8f1b:	bf 00 00 00 00       	mov    $0x0,%edi
    8f20:	e8 1c c9 ff ff       	callq  5841 <safe_add_func_int64_t_s_s>
    8f25:	0f be d0             	movsbl %al,%edx
    8f28:	48 8b 05 69 51 01 00 	mov    0x15169(%rip),%rax        # 1e098 <g_2494>
    8f2f:	48 85 c0             	test   %rax,%rax
    8f32:	0f 95 c0             	setne  %al
    8f35:	0f b6 c0             	movzbl %al,%eax
    8f38:	89 d6                	mov    %edx,%esi
    8f3a:	89 c7                	mov    %eax,%edi
    8f3c:	e8 93 c2 ff ff       	callq  51d4 <safe_add_func_int8_t_s_s>
    8f41:	0f be d0             	movsbl %al,%edx
    8f44:	48 8b 85 80 f0 ff ff 	mov    -0xf80(%rbp),%rax
    8f4b:	8b 00                	mov    (%rax),%eax
    8f4d:	21 d0                	and    %edx,%eax
    8f4f:	89 c7                	mov    %eax,%edi
    8f51:	48 8b 05 b8 2a 01 00 	mov    0x12ab8(%rip),%rax        # 1ba10 <g_1108+0x90>
    8f58:	89 c6                	mov    %eax,%esi
    8f5a:	8b 85 20 f1 ff ff    	mov    -0xee0(%rbp),%eax
    8f60:	48 98                	cltq   
    8f62:	4c 8b 25 8f 45 01 00 	mov    0x1458f(%rip),%r12        # 1d4f8 <g_837>
    8f69:	48 8d 95 f8 ed ff ff 	lea    -0x1208(%rbp),%rdx
    8f70:	49 89 d0             	mov    %rdx,%r8
    8f73:	89 d9                	mov    %ebx,%ecx
    8f75:	89 fa                	mov    %edi,%edx
    8f77:	48 89 c7             	mov    %rax,%rdi
    8f7a:	e8 74 a3 00 00       	callq  132f3 <func_68>
    8f7f:	49 89 04 24          	mov    %rax,(%r12)
    8f83:	48 8b 05 96 41 01 00 	mov    0x14196(%rip),%rax        # 1d120 <g_102>
    8f8a:	c7 00 13 4d db a5    	movl   $0xa5db4d13,(%rax)
    8f90:	83 85 2c ee ff ff 01 	addl   $0x1,-0x11d4(%rbp)
    8f97:	83 bd 2c ee ff ff 04 	cmpl   $0x4,-0x11d4(%rbp)
    8f9e:	0f 86 12 fd ff ff    	jbe    8cb6 <func_1+0x2501>
    8fa4:	48 8b 05 03 2f 01 00 	mov    0x12f03(%rip),%rax        # 1beae <g_2451+0xe>
    8fab:	48 8d 50 01          	lea    0x1(%rax),%rdx
    8faf:	48 8b 05 f8 2e 01 00 	mov    0x12ef8(%rip),%rax        # 1beae <g_2451+0xe>
    8fb6:	48 83 c0 03          	add    $0x3,%rax
    8fba:	48 c1 e2 03          	shl    $0x3,%rdx
    8fbe:	48 01 d0             	add    %rdx,%rax
    8fc1:	0f b7 84 45 50 f2 ff 	movzwl -0xdb0(%rbp,%rax,2),%eax
    8fc8:	ff 
    8fc9:	0f b7 c0             	movzwl %ax,%eax
    8fcc:	e9 70 16 00 00       	jmpq   a641 <func_1+0x3e8c>
    8fd1:	0f b7 05 ce 28 01 00 	movzwl 0x128ce(%rip),%eax        # 1b8a6 <g_517+0x26>
    8fd8:	83 e8 01             	sub    $0x1,%eax
    8fdb:	66 89 05 c4 28 01 00 	mov    %ax,0x128c4(%rip)        # 1b8a6 <g_517+0x26>
    8fe2:	0f b7 05 bd 28 01 00 	movzwl 0x128bd(%rip),%eax        # 1b8a6 <g_517+0x26>
    8fe9:	66 83 f8 f9          	cmp    $0xfff9,%ax
    8fed:	0f 8d c1 fa ff ff    	jge    8ab4 <func_1+0x22ff>
    8ff3:	8b 05 71 2d 01 00    	mov    0x12d71(%rip),%eax        # 1bd6a <g_1619+0xa>
    8ff9:	44 0f bf e0          	movswl %ax,%r12d
    8ffd:	b8 ff ff ff ff       	mov    $0xffffffff,%eax
    9002:	44 0f bf e8          	movswl %ax,%r13d
    9006:	48 8b 85 b8 ee ff ff 	mov    -0x1148(%rbp),%rax
    900d:	48 8b 00             	mov    (%rax),%rax
    9010:	48 8b 00             	mov    (%rax),%rax
    9013:	48 8b 00             	mov    (%rax),%rax
    9016:	8b 00                	mov    (%rax),%eax
    9018:	41 89 c7             	mov    %eax,%r15d
    901b:	48 8b 85 b0 ee ff ff 	mov    -0x1150(%rbp),%rax
    9022:	48 8b 00             	mov    (%rax),%rax
    9025:	48 8b 00             	mov    (%rax),%rax
    9028:	44 8b 30             	mov    (%rax),%r14d
    902b:	48 8b 85 10 f0 ff ff 	mov    -0xff0(%rbp),%rax
    9032:	8b 00                	mov    (%rax),%eax
    9034:	48 63 d0             	movslq %eax,%rdx
    9037:	48 8b 05 70 2c 01 00 	mov    0x12c70(%rip),%rax        # 1bcae <g_1311+0xe>
    903e:	48 39 c2             	cmp    %rax,%rdx
    9041:	0f 9e c0             	setle  %al
    9044:	0f b6 d0             	movzbl %al,%edx
    9047:	48 8b 05 da 40 01 00 	mov    0x140da(%rip),%rax        # 1d128 <g_275>
    904e:	8b 00                	mov    (%rax),%eax
    9050:	48 8b 0d a1 44 01 00 	mov    0x144a1(%rip),%rcx        # 1d4f8 <g_837>
    9057:	48 8b 19             	mov    (%rcx),%rbx
    905a:	89 d6                	mov    %edx,%esi
    905c:	89 c7                	mov    %eax,%edi
    905e:	e8 53 c5 ff ff       	callq  55b6 <safe_add_func_int32_t_s_s>
    9063:	89 03                	mov    %eax,(%rbx)
    9065:	8b 03                	mov    (%rbx),%eax
    9067:	44 89 f6             	mov    %r14d,%esi
    906a:	89 c7                	mov    %eax,%edi
    906c:	e8 45 c5 ff ff       	callq  55b6 <safe_add_func_int32_t_s_s>
    9071:	48 8d 05 18 50 01 00 	lea    0x15018(%rip),%rax        # 1e090 <g_2275>
    9078:	48 39 85 18 f0 ff ff 	cmp    %rax,-0xfe8(%rbp)
    907f:	0f 94 c0             	sete   %al
    9082:	0f b6 c0             	movzbl %al,%eax
    9085:	44 89 fe             	mov    %r15d,%esi
    9088:	89 c7                	mov    %eax,%edi
    908a:	e8 41 ce ff ff       	callq  5ed0 <safe_sub_func_uint32_t_u_u>
    908f:	48 8b 85 10 f0 ff ff 	mov    -0xff0(%rbp),%rax
    9096:	8b 00                	mov    (%rax),%eax
    9098:	48 98                	cltq   
    909a:	48 ba b4 73 e1 6f 8e 	movabs $0xe00d0b8e6fe173b4,%rdx
    90a1:	0b 0d e0 
    90a4:	48 39 d0             	cmp    %rdx,%rax
    90a7:	0f 9e c0             	setle  %al
    90aa:	0f b6 d0             	movzbl %al,%edx
    90ad:	48 8b 85 10 f0 ff ff 	mov    -0xff0(%rbp),%rax
    90b4:	8b 00                	mov    (%rax),%eax
    90b6:	0f b6 c0             	movzbl %al,%eax
    90b9:	89 d6                	mov    %edx,%esi
    90bb:	89 c7                	mov    %eax,%edi
    90bd:	e8 d1 ca ff ff       	callq  5b93 <safe_mul_func_uint8_t_u_u>
    90c2:	0f b6 c0             	movzbl %al,%eax
    90c5:	44 89 ee             	mov    %r13d,%esi
    90c8:	89 c7                	mov    %eax,%edi
    90ca:	e8 e4 c2 ff ff       	callq  53b3 <safe_add_func_int16_t_s_s>
    90cf:	66 85 c0             	test   %ax,%ax
    90d2:	74 07                	je     90db <func_1+0x2926>
    90d4:	b8 01 00 00 00       	mov    $0x1,%eax
    90d9:	eb 05                	jmp    90e0 <func_1+0x292b>
    90db:	b8 00 00 00 00       	mov    $0x0,%eax
    90e0:	89 c7                	mov    %eax,%edi
    90e2:	48 8d 05 a7 4f 01 00 	lea    0x14fa7(%rip),%rax        # 1e090 <g_2275>
    90e9:	48 39 85 90 ef ff ff 	cmp    %rax,-0x1070(%rbp)
    90f0:	0f 95 c0             	setne  %al
    90f3:	0f b6 f0             	movzbl %al,%esi
    90f6:	8b 95 58 ee ff ff    	mov    -0x11a8(%rbp),%edx
    90fc:	48 8b 85 90 f0 ff ff 	mov    -0xf70(%rbp),%rax
    9103:	48 89 10             	mov    %rdx,(%rax)
    9106:	48 8b 85 90 f0 ff ff 	mov    -0xf70(%rbp),%rax
    910d:	48 8b 00             	mov    (%rax),%rax
    9110:	48 8d 15 e1 43 01 00 	lea    0x143e1(%rip),%rdx        # 1d4f8 <g_837>
    9117:	48 8b 1a             	mov    (%rdx),%rbx
    911a:	48 8b 95 80 f0 ff ff 	mov    -0xf80(%rbp),%rdx
    9121:	49 89 d0             	mov    %rdx,%r8
    9124:	44 89 e1             	mov    %r12d,%ecx
    9127:	89 fa                	mov    %edi,%edx
    9129:	48 89 c7             	mov    %rax,%rdi
    912c:	e8 c2 a1 00 00       	callq  132f3 <func_68>
    9131:	48 89 03             	mov    %rax,(%rbx)
    9134:	e9 f6 14 00 00       	jmpq   a62f <func_1+0x3e7a>
    9139:	66 c7 85 f0 ed ff ff 	movw   $0xd5a2,-0x1210(%rbp)
    9140:	a2 d5 
    9142:	66 c7 85 a0 f2 ff ff 	movw   $0x8fee,-0xd60(%rbp)
    9149:	ee 8f 
    914b:	66 c7 85 a2 f2 ff ff 	movw   $0x8fee,-0xd5e(%rbp)
    9152:	ee 8f 
    9154:	66 c7 85 a4 f2 ff ff 	movw   $0x8fee,-0xd5c(%rbp)
    915b:	ee 8f 
    915d:	66 c7 85 a6 f2 ff ff 	movw   $0x8fee,-0xd5a(%rbp)
    9164:	ee 8f 
    9166:	66 c7 85 a8 f2 ff ff 	movw   $0x8fee,-0xd58(%rbp)
    916d:	ee 8f 
    916f:	66 c7 85 aa f2 ff ff 	movw   $0xbaf1,-0xd56(%rbp)
    9176:	f1 ba 
    9178:	66 c7 85 ac f2 ff ff 	movw   $0xc0ab,-0xd54(%rbp)
    917f:	ab c0 
    9181:	66 c7 85 ae f2 ff ff 	movw   $0xbaf1,-0xd52(%rbp)
    9188:	f1 ba 
    918a:	66 c7 85 b0 f2 ff ff 	movw   $0xc0ab,-0xd50(%rbp)
    9191:	ab c0 
    9193:	66 c7 85 b2 f2 ff ff 	movw   $0xbaf1,-0xd4e(%rbp)
    919a:	f1 ba 
    919c:	66 c7 85 b4 f2 ff ff 	movw   $0x8fee,-0xd4c(%rbp)
    91a3:	ee 8f 
    91a5:	66 c7 85 b6 f2 ff ff 	movw   $0x8fee,-0xd4a(%rbp)
    91ac:	ee 8f 
    91ae:	66 c7 85 b8 f2 ff ff 	movw   $0x8fee,-0xd48(%rbp)
    91b5:	ee 8f 
    91b7:	66 c7 85 ba f2 ff ff 	movw   $0x8fee,-0xd46(%rbp)
    91be:	ee 8f 
    91c0:	66 c7 85 bc f2 ff ff 	movw   $0x8fee,-0xd44(%rbp)
    91c7:	ee 8f 
    91c9:	48 b8 cb 86 51 f6 2f 	movabs $0xaf6b242ff65186cb,%rax
    91d0:	24 6b af 
    91d3:	48 89 85 40 f0 ff ff 	mov    %rax,-0xfc0(%rbp)
    91da:	48 8d 85 00 ee ff ff 	lea    -0x1200(%rbp),%rax
    91e1:	48 89 85 48 f0 ff ff 	mov    %rax,-0xfb8(%rbp)
    91e8:	c7 85 38 ee ff ff 00 	movl   $0x0,-0x11c8(%rbp)
    91ef:	00 00 00 
    91f2:	eb 1a                	jmp    920e <func_1+0x2a59>
    91f4:	8b 85 38 ee ff ff    	mov    -0x11c8(%rbp),%eax
    91fa:	48 98                	cltq   
    91fc:	c7 84 85 20 f1 ff ff 	movl   $0xfffffffd,-0xee0(%rbp,%rax,4)
    9203:	fd ff ff ff 
    9207:	83 85 38 ee ff ff 01 	addl   $0x1,-0x11c8(%rbp)
    920e:	83 bd 38 ee ff ff 01 	cmpl   $0x1,-0x11c8(%rbp)
    9215:	7e dd                	jle    91f4 <func_1+0x2a3f>
    9217:	48 8b 05 1a 3f 01 00 	mov    0x13f1a(%rip),%rax        # 1d138 <g_273>
    921e:	48 8b 00             	mov    (%rax),%rax
    9221:	48 8b 00             	mov    (%rax),%rax
    9224:	8b 10                	mov    (%rax),%edx
    9226:	f7 d2                	not    %edx
    9228:	89 10                	mov    %edx,(%rax)
    922a:	48 b8 64 91 1c bc 69 	movabs $0xe12bb269bc1c9164,%rax
    9231:	b2 2b e1 
    9234:	0f b7 c0             	movzwl %ax,%eax
    9237:	be 06 00 00 00       	mov    $0x6,%esi
    923c:	89 c7                	mov    %eax,%edi
    923e:	e8 05 cc ff ff       	callq  5e48 <safe_rshift_func_uint16_t_u_s>
    9243:	48 8b 05 16 3f 01 00 	mov    0x13f16(%rip),%rax        # 1d160 <g_446>
    924a:	48 c7 00 00 00 00 00 	movq   $0x0,(%rax)
    9251:	48 8b 85 08 f0 ff ff 	mov    -0xff8(%rbp),%rax
    9258:	8b 18                	mov    (%rax),%ebx
    925a:	48 8b 85 08 f0 ff ff 	mov    -0xff8(%rbp),%rax
    9261:	8b 00                	mov    (%rax),%eax
    9263:	89 85 a8 ed ff ff    	mov    %eax,-0x1258(%rbp)
    9269:	48 8b 05 f0 48 01 00 	mov    0x148f0(%rip),%rax        # 1db60 <g_1407>
    9270:	48 8b 00             	mov    (%rax),%rax
    9273:	4c 8b 20             	mov    (%rax),%r12
    9276:	48 8b 85 10 f0 ff ff 	mov    -0xff0(%rbp),%rax
    927d:	8b 00                	mov    (%rax),%eax
    927f:	89 c2                	mov    %eax,%edx
    9281:	48 8b 85 60 ef ff ff 	mov    -0x10a0(%rbp),%rax
    9288:	66 89 10             	mov    %dx,(%rax)
    928b:	48 8b 85 60 ef ff ff 	mov    -0x10a0(%rbp),%rax
    9292:	0f b7 00             	movzwl (%rax),%eax
    9295:	66 85 c0             	test   %ax,%ax
    9298:	0f 84 3a 01 00 00    	je     93d8 <func_1+0x2c23>
    929e:	48 8b 85 40 f0 ff ff 	mov    -0xfc0(%rbp),%rax
    92a5:	44 0f b6 e8          	movzbl %al,%r13d
    92a9:	48 8b 85 40 f0 ff ff 	mov    -0xfc0(%rbp),%rax
    92b0:	89 85 a4 ed ff ff    	mov    %eax,-0x125c(%rbp)
    92b6:	44 0f b7 b5 f0 ed ff 	movzwl -0x1210(%rbp),%r14d
    92bd:	ff 
    92be:	44 0f b7 bd f0 ed ff 	movzwl -0x1210(%rbp),%r15d
    92c5:	ff 
    92c6:	48 8b 85 10 f0 ff ff 	mov    -0xff0(%rbp),%rax
    92cd:	8b 00                	mov    (%rax),%eax
    92cf:	89 85 a0 ed ff ff    	mov    %eax,-0x1260(%rbp)
    92d5:	48 8b 05 c4 4d 01 00 	mov    0x14dc4(%rip),%rax        # 1e0a0 <g_2552>
    92dc:	48 85 c0             	test   %rax,%rax
    92df:	0f 95 c0             	setne  %al
    92e2:	0f b6 c0             	movzbl %al,%eax
    92e5:	be d2 8a 00 00       	mov    $0x8ad2,%esi
    92ea:	89 c7                	mov    %eax,%edi
    92ec:	e8 4c ca ff ff       	callq  5d3d <safe_mul_func_uint16_t_u_u>
    92f1:	0f b7 d0             	movzwl %ax,%edx
    92f4:	48 8b 85 10 f0 ff ff 	mov    -0xff0(%rbp),%rax
    92fb:	8b 00                	mov    (%rax),%eax
    92fd:	39 c2                	cmp    %eax,%edx
    92ff:	0f 9c c0             	setl   %al
    9302:	0f b6 d0             	movzbl %al,%edx
    9305:	48 8b 85 68 ef ff ff 	mov    -0x1098(%rbp),%rax
    930c:	89 10                	mov    %edx,(%rax)
    930e:	48 8b 05 4b 48 01 00 	mov    0x1484b(%rip),%rax        # 1db60 <g_1407>
    9315:	48 8b 00             	mov    (%rax),%rax
    9318:	48 8b 00             	mov    (%rax),%rax
    931b:	48 83 f0 fd          	xor    $0xfffffffffffffffd,%rax
    931f:	48 be 07 ba 15 da 2f 	movabs $0xdcec532fda15ba07,%rsi
    9326:	53 ec dc 
    9329:	48 89 c7             	mov    %rax,%rdi
    932c:	e8 10 c5 ff ff       	callq  5841 <safe_add_func_int64_t_s_s>
    9331:	48 8b 85 d8 ee ff ff 	mov    -0x1128(%rbp),%rax
    9338:	0f be c0             	movsbl %al,%eax
    933b:	8b b5 a0 ed ff ff    	mov    -0x1260(%rbp),%esi
    9341:	89 c7                	mov    %eax,%edi
    9343:	e8 ed bf ff ff       	callq  5335 <safe_rshift_func_int8_t_s_s>
    9348:	48 0f be c0          	movsbq %al,%rax
    934c:	4c 89 fe             	mov    %r15,%rsi
    934f:	48 89 c7             	mov    %rax,%rdi
    9352:	e8 ea c4 ff ff       	callq  5841 <safe_add_func_int64_t_s_s>
    9357:	0f b7 c0             	movzwl %ax,%eax
    935a:	be 00 00 00 00       	mov    $0x0,%esi
    935f:	89 c7                	mov    %eax,%edi
    9361:	e8 e2 ca ff ff       	callq  5e48 <safe_rshift_func_uint16_t_u_s>
    9366:	0f b7 d0             	movzwl %ax,%edx
    9369:	48 8b 85 58 ef ff ff 	mov    -0x10a8(%rbp),%rax
    9370:	8b 00                	mov    (%rax),%eax
    9372:	39 c2                	cmp    %eax,%edx
    9374:	0f 9d c0             	setge  %al
    9377:	0f b6 c0             	movzbl %al,%eax
    937a:	44 89 f6             	mov    %r14d,%esi
    937d:	89 c7                	mov    %eax,%edi
    937f:	e8 7b c9 ff ff       	callq  5cff <safe_add_func_uint16_t_u_u>
    9384:	0f be c0             	movsbl %al,%eax
    9387:	be 01 00 00 00       	mov    $0x1,%esi
    938c:	89 c7                	mov    %eax,%edi
    938e:	e8 5b bf ff ff       	callq  52ee <safe_lshift_func_int8_t_s_u>
    9393:	0f b7 85 a8 f2 ff ff 	movzwl -0xd58(%rbp),%eax
    939a:	0f b7 c0             	movzwl %ax,%eax
    939d:	8b b5 a4 ed ff ff    	mov    -0x125c(%rbp),%esi
    93a3:	89 c7                	mov    %eax,%edi
    93a5:	e8 22 c3 ff ff       	callq  56cc <safe_mod_func_int32_t_s_s>
    93aa:	89 c7                	mov    %eax,%edi
    93ac:	e8 f5 ca ff ff       	callq  5ea6 <safe_unary_minus_func_uint32_t_u>
    93b1:	0f b7 85 a8 f2 ff ff 	movzwl -0xd58(%rbp),%eax
    93b8:	66 85 c0             	test   %ax,%ax
    93bb:	74 07                	je     93c4 <func_1+0x2c0f>
    93bd:	b8 01 00 00 00       	mov    $0x1,%eax
    93c2:	eb 05                	jmp    93c9 <func_1+0x2c14>
    93c4:	b8 00 00 00 00       	mov    $0x0,%eax
    93c9:	0f b6 c0             	movzbl %al,%eax
    93cc:	44 89 ee             	mov    %r13d,%esi
    93cf:	89 c7                	mov    %eax,%edi
    93d1:	e8 bd c7 ff ff       	callq  5b93 <safe_mul_func_uint8_t_u_u>
    93d6:	3c 02                	cmp    $0x2,%al
    93d8:	48 8b 05 81 47 01 00 	mov    0x14781(%rip),%rax        # 1db60 <g_1407>
    93df:	48 8b 00             	mov    (%rax),%rax
    93e2:	48 8b 00             	mov    (%rax),%rax
    93e5:	4c 89 e6             	mov    %r12,%rsi
    93e8:	48 89 c7             	mov    %rax,%rdi
    93eb:	e8 51 c4 ff ff       	callq  5841 <safe_add_func_int64_t_s_s>
    93f0:	48 8b 05 61 47 01 00 	mov    0x14761(%rip),%rax        # 1db58 <g_1408>
    93f7:	48 8b 00             	mov    (%rax),%rax
    93fa:	89 85 24 f1 ff ff    	mov    %eax,-0xedc(%rbp)
    9400:	8b 85 24 f1 ff ff    	mov    -0xedc(%rbp),%eax
    9406:	39 85 a8 ed ff ff    	cmp    %eax,-0x1258(%rbp)
    940c:	0f 9c c0             	setl   %al
    940f:	0f b6 c0             	movzbl %al,%eax
    9412:	89 de                	mov    %ebx,%esi
    9414:	89 c7                	mov    %eax,%edi
    9416:	e8 1a bf ff ff       	callq  5335 <safe_rshift_func_int8_t_s_s>
    941b:	3c f9                	cmp    $0xf9,%al
    941d:	7c 1d                	jl     943c <func_1+0x2c87>
    941f:	48 8b 85 b8 ee ff ff 	mov    -0x1148(%rbp),%rax
    9426:	48 8b 00             	mov    (%rax),%rax
    9429:	48 8b 00             	mov    (%rax),%rax
    942c:	48 8b 00             	mov    (%rax),%rax
    942f:	8b 00                	mov    (%rax),%eax
    9431:	85 c0                	test   %eax,%eax
    9433:	74 07                	je     943c <func_1+0x2c87>
    9435:	b8 01 00 00 00       	mov    $0x1,%eax
    943a:	eb 05                	jmp    9441 <func_1+0x2c8c>
    943c:	b8 00 00 00 00       	mov    $0x0,%eax
    9441:	83 f8 17             	cmp    $0x17,%eax
    9444:	0f 9e c0             	setle  %al
    9447:	0f b6 c0             	movzbl %al,%eax
    944a:	be 07 00 00 00       	mov    $0x7,%esi
    944f:	89 c7                	mov    %eax,%edi
    9451:	e8 16 bf ff ff       	callq  536c <safe_rshift_func_int8_t_s_u>
    9456:	48 0f be c0          	movsbq %al,%rax
    945a:	48 c7 c6 f8 ff ff ff 	mov    $0xfffffffffffffff8,%rsi
    9461:	48 89 c7             	mov    %rax,%rdi
    9464:	e8 8e c5 ff ff       	callq  59f7 <safe_div_func_int64_t_s_s>
    9469:	8b 95 24 f1 ff ff    	mov    -0xedc(%rbp),%edx
    946f:	48 8b 85 08 f0 ff ff 	mov    -0xff8(%rbp),%rax
    9476:	8b 00                	mov    (%rax),%eax
    9478:	39 c2                	cmp    %eax,%edx
    947a:	7c 1d                	jl     9499 <func_1+0x2ce4>
    947c:	48 8b 85 f0 ee ff ff 	mov    -0x1110(%rbp),%rax
    9483:	48 85 c0             	test   %rax,%rax
    9486:	74 11                	je     9499 <func_1+0x2ce4>
    9488:	66 83 bd ec ed ff ff 	cmpw   $0x0,-0x1214(%rbp)
    948f:	00 
    9490:	74 07                	je     9499 <func_1+0x2ce4>
    9492:	b8 01 00 00 00       	mov    $0x1,%eax
    9497:	eb 05                	jmp    949e <func_1+0x2ce9>
    9499:	b8 00 00 00 00       	mov    $0x0,%eax
    949e:	85 c0                	test   %eax,%eax
    94a0:	0f 84 29 09 00 00    	je     9dcf <func_1+0x361a>
    94a6:	48 8d 05 4b 23 01 00 	lea    0x1234b(%rip),%rax        # 1b7f8 <g_147>
    94ad:	48 89 85 50 f0 ff ff 	mov    %rax,-0xfb0(%rbp)
    94b4:	c7 85 3c ee ff ff 72 	movl   $0xbb7cf572,-0x11c4(%rbp)
    94bb:	f5 7c bb 
    94be:	48 8d 85 e0 ee ff ff 	lea    -0x1120(%rbp),%rax
    94c5:	48 89 85 40 ef ff ff 	mov    %rax,-0x10c0(%rbp)
    94cc:	48 8d 85 40 ef ff ff 	lea    -0x10c0(%rbp),%rax
    94d3:	48 89 85 58 f0 ff ff 	mov    %rax,-0xfa8(%rbp)
    94da:	c7 05 06 28 01 00 f9 	movl   $0xfffffff9,0x12806(%rip)        # 1bcea <g_1512+0xa>
    94e1:	ff ff ff 
    94e4:	e9 c7 08 00 00       	jmpq   9db0 <func_1+0x35fb>
    94e9:	48 b8 9f a5 56 96 a6 	movabs $0x14baa5a69656a59f,%rax
    94f0:	a5 ba 14 
    94f3:	48 89 85 60 f0 ff ff 	mov    %rax,-0xfa0(%rbp)
    94fa:	48 8d 05 2f 4b 01 00 	lea    0x14b2f(%rip),%rax        # 1e030 <g_336>
    9501:	48 89 85 68 f0 ff ff 	mov    %rax,-0xf98(%rbp)
    9508:	48 8d 85 e7 ed ff ff 	lea    -0x1219(%rbp),%rax
    950f:	48 89 85 10 f3 ff ff 	mov    %rax,-0xcf0(%rbp)
    9516:	48 8d 85 e7 ed ff ff 	lea    -0x1219(%rbp),%rax
    951d:	48 89 85 18 f3 ff ff 	mov    %rax,-0xce8(%rbp)
    9524:	48 8d 85 e7 ed ff ff 	lea    -0x1219(%rbp),%rax
    952b:	48 89 85 20 f3 ff ff 	mov    %rax,-0xce0(%rbp)
    9532:	48 8d 85 e7 ed ff ff 	lea    -0x1219(%rbp),%rax
    9539:	48 89 85 28 f3 ff ff 	mov    %rax,-0xcd8(%rbp)
    9540:	48 8d 85 e7 ed ff ff 	lea    -0x1219(%rbp),%rax
    9547:	48 89 85 30 f3 ff ff 	mov    %rax,-0xcd0(%rbp)
    954e:	48 8d 85 e7 ed ff ff 	lea    -0x1219(%rbp),%rax
    9555:	48 89 85 38 f3 ff ff 	mov    %rax,-0xcc8(%rbp)
    955c:	48 8d 85 e7 ed ff ff 	lea    -0x1219(%rbp),%rax
    9563:	48 89 85 40 f3 ff ff 	mov    %rax,-0xcc0(%rbp)
    956a:	48 8d 85 e7 ed ff ff 	lea    -0x1219(%rbp),%rax
    9571:	48 89 85 48 f3 ff ff 	mov    %rax,-0xcb8(%rbp)
    9578:	48 8d 85 e7 ed ff ff 	lea    -0x1219(%rbp),%rax
    957f:	48 89 85 50 f3 ff ff 	mov    %rax,-0xcb0(%rbp)
    9586:	48 8d 85 e7 ed ff ff 	lea    -0x1219(%rbp),%rax
    958d:	48 89 85 58 f3 ff ff 	mov    %rax,-0xca8(%rbp)
    9594:	48 8d 85 e7 ed ff ff 	lea    -0x1219(%rbp),%rax
    959b:	48 89 85 60 f3 ff ff 	mov    %rax,-0xca0(%rbp)
    95a2:	48 8d 85 e7 ed ff ff 	lea    -0x1219(%rbp),%rax
    95a9:	48 89 85 68 f3 ff ff 	mov    %rax,-0xc98(%rbp)
    95b0:	48 8d 85 e7 ed ff ff 	lea    -0x1219(%rbp),%rax
    95b7:	48 89 85 70 f3 ff ff 	mov    %rax,-0xc90(%rbp)
    95be:	48 8d 85 e7 ed ff ff 	lea    -0x1219(%rbp),%rax
    95c5:	48 89 85 78 f3 ff ff 	mov    %rax,-0xc88(%rbp)
    95cc:	48 8d 85 e7 ed ff ff 	lea    -0x1219(%rbp),%rax
    95d3:	48 89 85 80 f3 ff ff 	mov    %rax,-0xc80(%rbp)
    95da:	48 8d 85 e7 ed ff ff 	lea    -0x1219(%rbp),%rax
    95e1:	48 89 85 88 f3 ff ff 	mov    %rax,-0xc78(%rbp)
    95e8:	c7 05 78 26 01 00 00 	movl   $0x0,0x12678(%rip)        # 1bc6a <g_1212+0xa>
    95ef:	00 00 00 
    95f2:	e9 c1 05 00 00       	jmpq   9bb8 <func_1+0x3403>
    95f7:	48 8d 05 e0 21 01 00 	lea    0x121e0(%rip),%rax        # 1b7de <g_116+0x1e>
    95fe:	48 89 85 00 f9 ff ff 	mov    %rax,-0x700(%rbp)
    9605:	48 8d 85 d8 ee ff ff 	lea    -0x1128(%rbp),%rax
    960c:	48 89 85 08 f9 ff ff 	mov    %rax,-0x6f8(%rbp)
    9613:	48 8d 05 84 22 01 00 	lea    0x12284(%rip),%rax        # 1b89e <g_517+0x1e>
    961a:	48 89 85 10 f9 ff ff 	mov    %rax,-0x6f0(%rbp)
    9621:	48 8d 05 76 22 01 00 	lea    0x12276(%rip),%rax        # 1b89e <g_517+0x1e>
    9628:	48 89 85 18 f9 ff ff 	mov    %rax,-0x6e8(%rbp)
    962f:	48 8d 85 d8 ee ff ff 	lea    -0x1128(%rbp),%rax
    9636:	48 89 85 20 f9 ff ff 	mov    %rax,-0x6e0(%rbp)
    963d:	48 8d 05 fa 26 01 00 	lea    0x126fa(%rip),%rax        # 1bd3e <g_1563+0x1e>
    9644:	48 89 85 28 f9 ff ff 	mov    %rax,-0x6d8(%rbp)
    964b:	48 8d 05 be 21 01 00 	lea    0x121be(%rip),%rax        # 1b810 <g_201>
    9652:	48 89 85 30 f9 ff ff 	mov    %rax,-0x6d0(%rbp)
    9659:	48 8d 85 d8 ee ff ff 	lea    -0x1128(%rbp),%rax
    9660:	48 89 85 38 f9 ff ff 	mov    %rax,-0x6c8(%rbp)
    9667:	48 8d 05 90 26 01 00 	lea    0x12690(%rip),%rax        # 1bcfe <g_1512+0x1e>
    966e:	48 89 85 40 f9 ff ff 	mov    %rax,-0x6c0(%rbp)
    9675:	48 8d 05 82 26 01 00 	lea    0x12682(%rip),%rax        # 1bcfe <g_1512+0x1e>
    967c:	48 89 85 48 f9 ff ff 	mov    %rax,-0x6b8(%rbp)
    9683:	48 8d 05 86 21 01 00 	lea    0x12186(%rip),%rax        # 1b810 <g_201>
    968a:	48 89 85 50 f9 ff ff 	mov    %rax,-0x6b0(%rbp)
    9691:	48 8d 05 78 21 01 00 	lea    0x12178(%rip),%rax        # 1b810 <g_201>
    9698:	48 89 85 58 f9 ff ff 	mov    %rax,-0x6a8(%rbp)
    969f:	48 8d 05 6a 21 01 00 	lea    0x1216a(%rip),%rax        # 1b810 <g_201>
    96a6:	48 89 85 60 f9 ff ff 	mov    %rax,-0x6a0(%rbp)
    96ad:	48 8d 05 ea 21 01 00 	lea    0x121ea(%rip),%rax        # 1b89e <g_517+0x1e>
    96b4:	48 89 85 68 f9 ff ff 	mov    %rax,-0x698(%rbp)
    96bb:	48 8d 85 f0 ee ff ff 	lea    -0x1110(%rbp),%rax
    96c2:	48 89 85 70 f9 ff ff 	mov    %rax,-0x690(%rbp)
    96c9:	48 8d 05 ee 27 01 00 	lea    0x127ee(%rip),%rax        # 1bebe <g_2451+0x1e>
    96d0:	48 89 85 78 f9 ff ff 	mov    %rax,-0x688(%rbp)
    96d7:	48 8d 05 c0 21 01 00 	lea    0x121c0(%rip),%rax        # 1b89e <g_517+0x1e>
    96de:	48 89 85 80 f9 ff ff 	mov    %rax,-0x680(%rbp)
    96e5:	48 8d 05 12 26 01 00 	lea    0x12612(%rip),%rax        # 1bcfe <g_1512+0x1e>
    96ec:	48 89 85 88 f9 ff ff 	mov    %rax,-0x678(%rbp)
    96f3:	48 8d 05 a4 21 01 00 	lea    0x121a4(%rip),%rax        # 1b89e <g_517+0x1e>
    96fa:	48 89 85 90 f9 ff ff 	mov    %rax,-0x670(%rbp)
    9701:	48 8d 05 b6 27 01 00 	lea    0x127b6(%rip),%rax        # 1bebe <g_2451+0x1e>
    9708:	48 89 85 98 f9 ff ff 	mov    %rax,-0x668(%rbp)
    970f:	48 8d 05 fa 20 01 00 	lea    0x120fa(%rip),%rax        # 1b810 <g_201>
    9716:	48 89 85 a0 f9 ff ff 	mov    %rax,-0x660(%rbp)
    971d:	48 8d 05 ba 20 01 00 	lea    0x120ba(%rip),%rax        # 1b7de <g_116+0x1e>
    9724:	48 89 85 a8 f9 ff ff 	mov    %rax,-0x658(%rbp)
    972b:	48 8d 05 de 20 01 00 	lea    0x120de(%rip),%rax        # 1b810 <g_201>
    9732:	48 89 85 b0 f9 ff ff 	mov    %rax,-0x650(%rbp)
    9739:	48 8d 85 d8 ee ff ff 	lea    -0x1128(%rbp),%rax
    9740:	48 89 85 b8 f9 ff ff 	mov    %rax,-0x648(%rbp)
    9747:	48 8d 05 c2 20 01 00 	lea    0x120c2(%rip),%rax        # 1b810 <g_201>
    974e:	48 89 85 c0 f9 ff ff 	mov    %rax,-0x640(%rbp)
    9755:	48 8d 05 e2 25 01 00 	lea    0x125e2(%rip),%rax        # 1bd3e <g_1563+0x1e>
    975c:	48 89 85 c8 f9 ff ff 	mov    %rax,-0x638(%rbp)
    9763:	48 8d 05 d4 25 01 00 	lea    0x125d4(%rip),%rax        # 1bd3e <g_1563+0x1e>
    976a:	48 89 85 d0 f9 ff ff 	mov    %rax,-0x630(%rbp)
    9771:	48 8d 05 86 25 01 00 	lea    0x12586(%rip),%rax        # 1bcfe <g_1512+0x1e>
    9778:	48 89 85 d8 f9 ff ff 	mov    %rax,-0x628(%rbp)
    977f:	48 8d 05 38 27 01 00 	lea    0x12738(%rip),%rax        # 1bebe <g_2451+0x1e>
    9786:	48 89 85 e0 f9 ff ff 	mov    %rax,-0x620(%rbp)
    978d:	48 8d 05 ea 24 01 00 	lea    0x124ea(%rip),%rax        # 1bc7e <g_1212+0x1e>
    9794:	48 89 85 e8 f9 ff ff 	mov    %rax,-0x618(%rbp)
    979b:	48 8d 05 3c 20 01 00 	lea    0x1203c(%rip),%rax        # 1b7de <g_116+0x1e>
    97a2:	48 89 85 f0 f9 ff ff 	mov    %rax,-0x610(%rbp)
    97a9:	48 8d 05 60 20 01 00 	lea    0x12060(%rip),%rax        # 1b810 <g_201>
    97b0:	48 89 85 f8 f9 ff ff 	mov    %rax,-0x608(%rbp)
    97b7:	48 8d 05 52 20 01 00 	lea    0x12052(%rip),%rax        # 1b810 <g_201>
    97be:	48 89 85 00 fa ff ff 	mov    %rax,-0x600(%rbp)
    97c5:	48 8d 05 12 20 01 00 	lea    0x12012(%rip),%rax        # 1b7de <g_116+0x1e>
    97cc:	48 89 85 08 fa ff ff 	mov    %rax,-0x5f8(%rbp)
    97d3:	48 8d 05 36 20 01 00 	lea    0x12036(%rip),%rax        # 1b810 <g_201>
    97da:	48 89 85 10 fa ff ff 	mov    %rax,-0x5f0(%rbp)
    97e1:	c7 85 70 f6 ff ff d9 	movl   $0x94a060d9,-0x990(%rbp)
    97e8:	60 a0 94 
    97eb:	c7 85 74 f6 ff ff fd 	movl   $0x245801fd,-0x98c(%rbp)
    97f2:	01 58 24 
    97f5:	c7 85 78 f6 ff ff d9 	movl   $0x94a060d9,-0x988(%rbp)
    97fc:	60 a0 94 
    97ff:	c7 85 7c f6 ff ff d9 	movl   $0x94a060d9,-0x984(%rbp)
    9806:	60 a0 94 
    9809:	c7 85 80 f6 ff ff fd 	movl   $0x245801fd,-0x980(%rbp)
    9810:	01 58 24 
    9813:	c7 85 84 f6 ff ff d9 	movl   $0x94a060d9,-0x97c(%rbp)
    981a:	60 a0 94 
    981d:	c7 85 88 f6 ff ff d9 	movl   $0x94a060d9,-0x978(%rbp)
    9824:	60 a0 94 
    9827:	c7 85 8c f6 ff ff fd 	movl   $0x245801fd,-0x974(%rbp)
    982e:	01 58 24 
    9831:	c7 85 90 f6 ff ff d9 	movl   $0x94a060d9,-0x970(%rbp)
    9838:	60 a0 94 
    983b:	c7 85 94 f6 ff ff 74 	movl   $0xb45ea374,-0x96c(%rbp)
    9842:	a3 5e b4 
    9845:	c7 85 98 f6 ff ff 80 	movl   $0x4f41d280,-0x968(%rbp)
    984c:	d2 41 4f 
    984f:	c7 85 9c f6 ff ff 74 	movl   $0xb45ea374,-0x964(%rbp)
    9856:	a3 5e b4 
    9859:	c7 85 a0 f6 ff ff 73 	movl   $0x85a8ce73,-0x960(%rbp)
    9860:	ce a8 85 
    9863:	c7 85 a4 f6 ff ff 9f 	movl   $0x959b999f,-0x95c(%rbp)
    986a:	99 9b 95 
    986d:	c7 85 a8 f6 ff ff 73 	movl   $0x85a8ce73,-0x958(%rbp)
    9874:	ce a8 85 
    9877:	c7 85 ac f6 ff ff 74 	movl   $0xb45ea374,-0x954(%rbp)
    987e:	a3 5e b4 
    9881:	c7 85 b0 f6 ff ff 80 	movl   $0x4f41d280,-0x950(%rbp)
    9888:	d2 41 4f 
    988b:	c7 85 b4 f6 ff ff 74 	movl   $0xb45ea374,-0x94c(%rbp)
    9892:	a3 5e b4 
    9895:	c7 85 b8 f6 ff ff d9 	movl   $0x94a060d9,-0x948(%rbp)
    989c:	60 a0 94 
    989f:	c7 85 bc f6 ff ff fd 	movl   $0x245801fd,-0x944(%rbp)
    98a6:	01 58 24 
    98a9:	c7 85 c0 f6 ff ff d9 	movl   $0x94a060d9,-0x940(%rbp)
    98b0:	60 a0 94 
    98b3:	c7 85 c4 f6 ff ff d9 	movl   $0x94a060d9,-0x93c(%rbp)
    98ba:	60 a0 94 
    98bd:	c7 85 c8 f6 ff ff fd 	movl   $0x245801fd,-0x938(%rbp)
    98c4:	01 58 24 
    98c7:	c7 85 cc f6 ff ff d9 	movl   $0x94a060d9,-0x934(%rbp)
    98ce:	60 a0 94 
    98d1:	c7 85 d0 f6 ff ff d9 	movl   $0x94a060d9,-0x930(%rbp)
    98d8:	60 a0 94 
    98db:	c7 85 d4 f6 ff ff fd 	movl   $0x245801fd,-0x92c(%rbp)
    98e2:	01 58 24 
    98e5:	c7 85 d8 f6 ff ff d9 	movl   $0x94a060d9,-0x928(%rbp)
    98ec:	60 a0 94 
    98ef:	c7 85 dc f6 ff ff 74 	movl   $0xb45ea374,-0x924(%rbp)
    98f6:	a3 5e b4 
    98f9:	c7 85 e0 f6 ff ff 80 	movl   $0x4f41d280,-0x920(%rbp)
    9900:	d2 41 4f 
    9903:	c7 85 e4 f6 ff ff 74 	movl   $0xb45ea374,-0x91c(%rbp)
    990a:	a3 5e b4 
    990d:	c7 85 e8 f6 ff ff 73 	movl   $0x85a8ce73,-0x918(%rbp)
    9914:	ce a8 85 
    9917:	c7 85 ec f6 ff ff 9f 	movl   $0x959b999f,-0x914(%rbp)
    991e:	99 9b 95 
    9921:	c7 85 f0 f6 ff ff 73 	movl   $0x85a8ce73,-0x910(%rbp)
    9928:	ce a8 85 
    992b:	c7 85 f4 f6 ff ff 74 	movl   $0xb45ea374,-0x90c(%rbp)
    9932:	a3 5e b4 
    9935:	c7 85 f8 f6 ff ff 80 	movl   $0x4f41d280,-0x908(%rbp)
    993c:	d2 41 4f 
    993f:	c7 85 fc f6 ff ff 74 	movl   $0xb45ea374,-0x904(%rbp)
    9946:	a3 5e b4 
    9949:	c7 85 00 f7 ff ff d9 	movl   $0x94a060d9,-0x900(%rbp)
    9950:	60 a0 94 
    9953:	c7 85 04 f7 ff ff fd 	movl   $0x245801fd,-0x8fc(%rbp)
    995a:	01 58 24 
    995d:	c7 85 08 f7 ff ff d9 	movl   $0x94a060d9,-0x8f8(%rbp)
    9964:	60 a0 94 
    9967:	c7 85 0c f7 ff ff d9 	movl   $0x94a060d9,-0x8f4(%rbp)
    996e:	60 a0 94 
    9971:	c7 85 10 f7 ff ff fd 	movl   $0x245801fd,-0x8f0(%rbp)
    9978:	01 58 24 
    997b:	c7 85 14 f7 ff ff d9 	movl   $0x94a060d9,-0x8ec(%rbp)
    9982:	60 a0 94 
    9985:	c7 85 18 f7 ff ff d9 	movl   $0x94a060d9,-0x8e8(%rbp)
    998c:	60 a0 94 
    998f:	c7 85 1c f7 ff ff fd 	movl   $0x245801fd,-0x8e4(%rbp)
    9996:	01 58 24 
    9999:	c7 85 20 f7 ff ff d9 	movl   $0x94a060d9,-0x8e0(%rbp)
    99a0:	60 a0 94 
    99a3:	48 8b 15 66 3b 01 00 	mov    0x13b66(%rip),%rdx        # 1d510 <g_991>
    99aa:	48 8b 05 5f 3b 01 00 	mov    0x13b5f(%rip),%rax        # 1d510 <g_991>
    99b1:	48 8b 12             	mov    (%rdx),%rdx
    99b4:	48 89 10             	mov    %rdx,(%rax)
    99b7:	48 8b 00             	mov    (%rax),%rax
    99ba:	48 39 85 50 f0 ff ff 	cmp    %rax,-0xfb0(%rbp)
    99c1:	0f 85 6b 01 00 00    	jne    9b32 <func_1+0x337d>
    99c7:	48 8b 85 60 f0 ff ff 	mov    -0xfa0(%rbp),%rax
    99ce:	98                   	cwtl   
    99cf:	be 00 00 00 00       	mov    $0x0,%esi
    99d4:	89 c7                	mov    %eax,%edi
    99d6:	e8 4f bb ff ff       	callq  552a <safe_rshift_func_int16_t_s_s>
    99db:	48 8b 05 76 41 01 00 	mov    0x14176(%rip),%rax        # 1db58 <g_1408>
    99e2:	48 8b 18             	mov    (%rax),%rbx
    99e5:	44 8b a5 80 ee ff ff 	mov    -0x1180(%rbp),%r12d
    99ec:	b8 b0 03 1e c9       	mov    $0xc91e03b0,%eax
    99f1:	44 0f bf e8          	movswl %ax,%r13d
    99f5:	44 8b b5 f8 f6 ff ff 	mov    -0x908(%rbp),%r14d
    99fc:	48 8b 05 33 1e 01 00 	mov    0x11e33(%rip),%rax        # 1b836 <g_244+0x16>
    9a03:	98                   	cwtl   
    9a04:	8b 95 3c ee ff ff    	mov    -0x11c4(%rbp),%edx
    9a0a:	0f bf d2             	movswl %dx,%edx
    9a0d:	81 e2 f7 71 00 00    	and    $0x71f7,%edx
    9a13:	89 c6                	mov    %eax,%esi
    9a15:	89 d7                	mov    %edx,%edi
    9a17:	e8 39 ba ff ff       	callq  5455 <safe_div_func_int16_t_s_s>
    9a1c:	48 8b 85 58 f0 ff ff 	mov    -0xfa8(%rbp),%rax
    9a23:	48 3b 85 30 f0 ff ff 	cmp    -0xfd0(%rbp),%rax
    9a2a:	0f 94 c0             	sete   %al
    9a2d:	0f b6 c0             	movzbl %al,%eax
    9a30:	be 07 00 00 00       	mov    $0x7,%esi
    9a35:	89 c7                	mov    %eax,%edi
    9a37:	e8 0c c4 ff ff       	callq  5e48 <safe_rshift_func_uint16_t_u_s>
    9a3c:	0f b7 c0             	movzwl %ax,%eax
    9a3f:	41 39 c6             	cmp    %eax,%r14d
    9a42:	0f 95 c0             	setne  %al
    9a45:	0f b6 d0             	movzbl %al,%edx
    9a48:	48 8b 85 70 ef ff ff 	mov    -0x1090(%rbp),%rax
    9a4f:	66 89 10             	mov    %dx,(%rax)
    9a52:	48 8b 85 70 ef ff ff 	mov    -0x1090(%rbp),%rax
    9a59:	0f b7 00             	movzwl (%rax),%eax
    9a5c:	89 c2                	mov    %eax,%edx
    9a5e:	8b 05 46 22 01 00    	mov    0x12246(%rip),%eax        # 1bcaa <g_1311+0xa>
    9a64:	21 c2                	and    %eax,%edx
    9a66:	48 8b 85 50 f0 ff ff 	mov    -0xfb0(%rbp),%rax
    9a6d:	88 10                	mov    %dl,(%rax)
    9a6f:	48 8b 85 50 f0 ff ff 	mov    -0xfb0(%rbp),%rax
    9a76:	0f b6 00             	movzbl (%rax),%eax
    9a79:	0f b6 c0             	movzbl %al,%eax
    9a7c:	be 01 00 00 00       	mov    $0x1,%esi
    9a81:	89 c7                	mov    %eax,%edi
    9a83:	e8 0b c1 ff ff       	callq  5b93 <safe_mul_func_uint8_t_u_u>
    9a88:	0f b6 c0             	movzbl %al,%eax
    9a8b:	44 89 ee             	mov    %r13d,%esi
    9a8e:	89 c7                	mov    %eax,%edi
    9a90:	e8 60 b9 ff ff       	callq  53f5 <safe_mul_func_int16_t_s_s>
    9a95:	48 0f bf c0          	movswq %ax,%rax
    9a99:	48 33 85 60 f0 ff ff 	xor    -0xfa0(%rbp),%rax
    9aa0:	48 89 c2             	mov    %rax,%rdx
    9aa3:	48 8b 85 08 f0 ff ff 	mov    -0xff8(%rbp),%rax
    9aaa:	8b 00                	mov    (%rax),%eax
    9aac:	48 98                	cltq   
    9aae:	48 39 c2             	cmp    %rax,%rdx
    9ab1:	0f 94 c0             	sete   %al
    9ab4:	0f b6 d0             	movzbl %al,%edx
    9ab7:	8b 05 bb 16 01 00    	mov    0x116bb(%rip),%eax        # 1b178 <g_42+0x138>
    9abd:	39 c2                	cmp    %eax,%edx
    9abf:	0f 9f c0             	setg   %al
    9ac2:	0f b6 d0             	movzbl %al,%edx
    9ac5:	8b 85 3c ee ff ff    	mov    -0x11c4(%rbp),%eax
    9acb:	0f be f0             	movsbl %al,%esi
    9ace:	48 8d 85 b0 ed ff ff 	lea    -0x1250(%rbp),%rax
    9ad5:	44 89 e1             	mov    %r12d,%ecx
    9ad8:	48 89 c7             	mov    %rax,%rdi
    9adb:	e8 48 25 00 00       	callq  c028 <func_21>
    9ae0:	48 8b 85 60 f0 ff ff 	mov    -0xfa0(%rbp),%rax
    9ae7:	48 89 de             	mov    %rbx,%rsi
    9aea:	48 89 c7             	mov    %rax,%rdi
    9aed:	e8 c2 be ff ff       	callq  59b4 <safe_mod_func_int64_t_s_s>
    9af2:	0f b7 c0             	movzwl %ax,%eax
    9af5:	89 c7                	mov    %eax,%edi
    9af7:	e8 ed c1 ff ff       	callq  5ce9 <safe_unary_minus_func_uint16_t_u>
    9afc:	89 c2                	mov    %eax,%edx
    9afe:	48 8b 85 50 f0 ff ff 	mov    -0xfb0(%rbp),%rax
    9b05:	88 10                	mov    %dl,(%rax)
    9b07:	48 8b 05 52 36 01 00 	mov    0x13652(%rip),%rax        # 1d160 <g_446>
    9b0e:	48 bb 1b 0a 92 07 74 	movabs $0x812f587407920a1b,%rbx
    9b15:	58 2f 81 
    9b18:	48 89 18             	mov    %rbx,(%rax)
    9b1b:	48 8b 05 0e 36 01 00 	mov    0x1360e(%rip),%rax        # 1d130 <g_274>
    9b22:	48 8b 00             	mov    (%rax),%rax
    9b25:	8b 00                	mov    (%rax),%eax
    9b27:	85 c0                	test   %eax,%eax
    9b29:	74 07                	je     9b32 <func_1+0x337d>
    9b2b:	ba 01 00 00 00       	mov    $0x1,%edx
    9b30:	eb 05                	jmp    9b37 <func_1+0x3382>
    9b32:	ba 00 00 00 00       	mov    $0x0,%edx
    9b37:	48 8b 85 10 f0 ff ff 	mov    -0xff0(%rbp),%rax
    9b3e:	8b 00                	mov    (%rax),%eax
    9b40:	21 c2                	and    %eax,%edx
    9b42:	48 8b 85 10 f0 ff ff 	mov    -0xff0(%rbp),%rax
    9b49:	89 10                	mov    %edx,(%rax)
    9b4b:	48 8b 85 b8 ee ff ff 	mov    -0x1148(%rbp),%rax
    9b52:	48 8b 00             	mov    (%rax),%rax
    9b55:	48 8b 00             	mov    (%rax),%rax
    9b58:	48 8b 00             	mov    (%rax),%rax
    9b5b:	8b 10                	mov    (%rax),%edx
    9b5d:	48 8b 05 fc d4 00 00 	mov    0xd4fc(%rip),%rax        # 17060 <g_709>
    9b64:	48 c1 e8 28          	shr    $0x28,%rax
    9b68:	25 ff ff 03 00       	and    $0x3ffff,%eax
    9b6d:	3d fe ff 00 00       	cmp    $0xfffe,%eax
    9b72:	0f 97 c0             	seta   %al
    9b75:	0f b6 c0             	movzbl %al,%eax
    9b78:	39 c2                	cmp    %eax,%edx
    9b7a:	0f 9c c0             	setl   %al
    9b7d:	0f b6 d8             	movzbl %al,%ebx
    9b80:	8b 85 3c ee ff ff    	mov    -0x11c4(%rbp),%eax
    9b86:	0f b7 c0             	movzwl %ax,%eax
    9b89:	be f7 ff 00 00       	mov    $0xfff7,%esi
    9b8e:	89 c7                	mov    %eax,%edi
    9b90:	e8 6a c1 ff ff       	callq  5cff <safe_add_func_uint16_t_u_u>
    9b95:	0f b7 c0             	movzwl %ax,%eax
    9b98:	39 c3                	cmp    %eax,%ebx
    9b9a:	0f 94 c2             	sete   %dl
    9b9d:	48 8b 05 84 35 01 00 	mov    0x13584(%rip),%rax        # 1d128 <g_275>
    9ba4:	0f b6 d2             	movzbl %dl,%edx
    9ba7:	89 10                	mov    %edx,(%rax)
    9ba9:	8b 05 bb 20 01 00    	mov    0x120bb(%rip),%eax        # 1bc6a <g_1212+0xa>
    9baf:	83 c0 01             	add    $0x1,%eax
    9bb2:	89 05 b2 20 01 00    	mov    %eax,0x120b2(%rip)        # 1bc6a <g_1212+0xa>
    9bb8:	8b 05 ac 20 01 00    	mov    0x120ac(%rip),%eax        # 1bc6a <g_1212+0xa>
    9bbe:	83 f8 20             	cmp    $0x20,%eax
    9bc1:	0f 86 30 fa ff ff    	jbe    95f7 <func_1+0x2e42>
    9bc7:	48 c7 85 48 f0 ff ff 	movq   $0x0,-0xfb8(%rbp)
    9bce:	00 00 00 00 
    9bd2:	48 8b 85 68 f0 ff ff 	mov    -0xf98(%rbp),%rax
    9bd9:	48 8d 15 22 1c 01 00 	lea    0x11c22(%rip),%rdx        # 1b802 <g_179+0x2>
    9be0:	48 89 10             	mov    %rdx,(%rax)
    9be3:	48 8b 85 68 f0 ff ff 	mov    -0xf98(%rbp),%rax
    9bea:	48 8b 10             	mov    (%rax),%rdx
    9bed:	48 8b 85 50 f3 ff ff 	mov    -0xcb0(%rbp),%rax
    9bf4:	48 89 85 88 f1 ff ff 	mov    %rax,-0xe78(%rbp)
    9bfb:	48 8b 85 88 f1 ff ff 	mov    -0xe78(%rbp),%rax
    9c02:	48 39 c2             	cmp    %rax,%rdx
    9c05:	0f 84 75 01 00 00    	je     9d80 <func_1+0x35cb>
    9c0b:	48 8b 05 46 3f 01 00 	mov    0x13f46(%rip),%rax        # 1db58 <g_1408>
    9c12:	48 8b 18             	mov    (%rax),%rbx
    9c15:	8b 85 3c ee ff ff    	mov    -0x11c4(%rbp),%eax
    9c1b:	44 0f b7 e0          	movzwl %ax,%r12d
    9c1f:	8b 85 3c ee ff ff    	mov    -0x11c4(%rbp),%eax
    9c25:	0f b7 d0             	movzwl %ax,%edx
    9c28:	8b 85 3c ee ff ff    	mov    -0x11c4(%rbp),%eax
    9c2e:	0f b7 c0             	movzwl %ax,%eax
    9c31:	89 d6                	mov    %edx,%esi
    9c33:	89 c7                	mov    %eax,%edi
    9c35:	e8 54 c1 ff ff       	callq  5d8e <safe_div_func_uint16_t_u_u>
    9c3a:	0f b7 d0             	movzwl %ax,%edx
    9c3d:	48 8b 05 14 3f 01 00 	mov    0x13f14(%rip),%rax        # 1db58 <g_1408>
    9c44:	48 8b 00             	mov    (%rax),%rax
    9c47:	48 39 c2             	cmp    %rax,%rdx
    9c4a:	0f 9f c0             	setg   %al
    9c4d:	0f b6 c0             	movzbl %al,%eax
    9c50:	be ff 00 00 00       	mov    $0xff,%esi
    9c55:	89 c7                	mov    %eax,%edi
    9c57:	e8 1c bf ff ff       	callq  5b78 <safe_sub_func_uint8_t_u_u>
    9c5c:	44 89 e6             	mov    %r12d,%esi
    9c5f:	bf 00 00 00 00       	mov    $0x0,%edi
    9c64:	e8 d4 c0 ff ff       	callq  5d3d <safe_mul_func_uint16_t_u_u>
    9c69:	41 89 c4             	mov    %eax,%r12d
    9c6c:	8b 85 84 ee ff ff    	mov    -0x117c(%rbp),%eax
    9c72:	48 98                	cltq   
    9c74:	48 be 5d 58 80 38 8a 	movabs $0x8fa0988a3880585d,%rsi
    9c7b:	98 a0 8f 
    9c7e:	48 89 c7             	mov    %rax,%rdi
    9c81:	e8 29 c4 ff ff       	callq  60af <safe_div_func_uint64_t_u_u>
    9c86:	44 89 e1             	mov    %r12d,%ecx
    9c89:	0f b6 15 f4 43 01 00 	movzbl 0x143f4(%rip),%edx        # 1e084 <g_1440>
    9c90:	21 ca                	and    %ecx,%edx
    9c92:	88 15 ec 43 01 00    	mov    %dl,0x143ec(%rip)        # 1e084 <g_1440>
    9c98:	0f b6 15 e5 43 01 00 	movzbl 0x143e5(%rip),%edx        # 1e084 <g_1440>
    9c9f:	48 0f be d2          	movsbq %dl,%rdx
    9ca3:	48 39 d0             	cmp    %rdx,%rax
    9ca6:	48 8b 85 08 f0 ff ff 	mov    -0xff8(%rbp),%rax
    9cad:	44 8b 20             	mov    (%rax),%r12d
    9cb0:	48 8b 85 b8 ee ff ff 	mov    -0x1148(%rbp),%rax
    9cb7:	48 8b 00             	mov    (%rax),%rax
    9cba:	48 8b 00             	mov    (%rax),%rax
    9cbd:	48 8b 00             	mov    (%rax),%rax
    9cc0:	8b 10                	mov    (%rax),%edx
    9cc2:	48 8b 85 b8 ee ff ff 	mov    -0x1148(%rbp),%rax
    9cc9:	48 8b 00             	mov    (%rax),%rax
    9ccc:	48 8b 00             	mov    (%rax),%rax
    9ccf:	48 8b 00             	mov    (%rax),%rax
    9cd2:	83 f2 01             	xor    $0x1,%edx
    9cd5:	89 10                	mov    %edx,(%rax)
    9cd7:	8b 00                	mov    (%rax),%eax
    9cd9:	89 c2                	mov    %eax,%edx
    9cdb:	48 8b 85 70 ef ff ff 	mov    -0x1090(%rbp),%rax
    9ce2:	66 89 10             	mov    %dx,(%rax)
    9ce5:	48 8b 85 70 ef ff ff 	mov    -0x1090(%rbp),%rax
    9cec:	0f b7 00             	movzwl (%rax),%eax
    9cef:	0f b7 c0             	movzwl %ax,%eax
    9cf2:	48 39 85 60 f0 ff ff 	cmp    %rax,-0xfa0(%rbp)
    9cf9:	0f 96 c0             	setbe  %al
    9cfc:	0f b6 d0             	movzbl %al,%edx
    9cff:	48 8b 85 38 f0 ff ff 	mov    -0xfc8(%rbp),%rax
    9d06:	0f b7 c0             	movzwl %ax,%eax
    9d09:	89 d6                	mov    %edx,%esi
    9d0b:	89 c7                	mov    %eax,%edi
    9d0d:	e8 2b c0 ff ff       	callq  5d3d <safe_mul_func_uint16_t_u_u>
    9d12:	0f b7 c0             	movzwl %ax,%eax
    9d15:	44 89 e6             	mov    %r12d,%esi
    9d18:	89 c7                	mov    %eax,%edi
    9d1a:	e8 e0 b9 ff ff       	callq  56ff <safe_div_func_int32_t_s_s>
    9d1f:	85 c0                	test   %eax,%eax
    9d21:	75 16                	jne    9d39 <func_1+0x3584>
    9d23:	48 8b 05 36 34 01 00 	mov    0x13436(%rip),%rax        # 1d160 <g_446>
    9d2a:	48 8b 00             	mov    (%rax),%rax
    9d2d:	48 85 c0             	test   %rax,%rax
    9d30:	75 07                	jne    9d39 <func_1+0x3584>
    9d32:	ba 01 00 00 00       	mov    $0x1,%edx
    9d37:	eb 05                	jmp    9d3e <func_1+0x3589>
    9d39:	ba 00 00 00 00       	mov    $0x0,%edx
    9d3e:	48 8b 85 c0 ee ff ff 	mov    -0x1140(%rbp),%rax
    9d45:	48 8b 00             	mov    (%rax),%rax
    9d48:	48 63 d2             	movslq %edx,%rdx
    9d4b:	48 89 10             	mov    %rdx,(%rax)
    9d4e:	48 8b 00             	mov    (%rax),%rax
    9d51:	48 85 c0             	test   %rax,%rax
    9d54:	75 0b                	jne    9d61 <func_1+0x35ac>
    9d56:	48 8b 85 10 f0 ff ff 	mov    -0xff0(%rbp),%rax
    9d5d:	8b 00                	mov    (%rax),%eax
    9d5f:	85 c0                	test   %eax,%eax
    9d61:	48 8b 05 f8 33 01 00 	mov    0x133f8(%rip),%rax        # 1d160 <g_446>
    9d68:	48 8b 00             	mov    (%rax),%rax
    9d6b:	48 89 de             	mov    %rbx,%rsi
    9d6e:	48 89 c7             	mov    %rax,%rdi
    9d71:	e8 3e bc ff ff       	callq  59b4 <safe_mod_func_int64_t_s_s>
    9d76:	48 83 bd 60 f0 ff ff 	cmpq   $0x0,-0xfa0(%rbp)
    9d7d:	00 
    9d7e:	74 07                	je     9d87 <func_1+0x35d2>
    9d80:	b8 01 00 00 00       	mov    $0x1,%eax
    9d85:	eb 05                	jmp    9d8c <func_1+0x35d7>
    9d87:	b8 00 00 00 00       	mov    $0x0,%eax
    9d8c:	89 85 3c ee ff ff    	mov    %eax,-0x11c4(%rbp)
    9d92:	8b 05 52 1f 01 00    	mov    0x11f52(%rip),%eax        # 1bcea <g_1512+0xa>
    9d98:	0f b6 c0             	movzbl %al,%eax
    9d9b:	be 06 00 00 00       	mov    $0x6,%esi
    9da0:	89 c7                	mov    %eax,%edi
    9da2:	e8 b3 bd ff ff       	callq  5b5a <safe_add_func_uint8_t_u_u>
    9da7:	0f b6 c0             	movzbl %al,%eax
    9daa:	89 05 3a 1f 01 00    	mov    %eax,0x11f3a(%rip)        # 1bcea <g_1512+0xa>
    9db0:	8b 05 34 1f 01 00    	mov    0x11f34(%rip),%eax        # 1bcea <g_1512+0xa>
    9db6:	83 f8 02             	cmp    $0x2,%eax
    9db9:	0f 86 2a f7 ff ff    	jbe    94e9 <func_1+0x2d34>
    9dbf:	48 8b 05 6a 33 01 00 	mov    0x1336a(%rip),%rax        # 1d130 <g_274>
    9dc6:	48 c7 00 00 00 00 00 	movq   $0x0,(%rax)
    9dcd:	eb 11                	jmp    9de0 <func_1+0x362b>
    9dcf:	c7 85 88 ee ff ff ff 	movl   $0xffffffff,-0x1178(%rbp)
    9dd6:	ff ff ff 
    9dd9:	83 ad 88 ee ff ff 01 	subl   $0x1,-0x1178(%rbp)
    9de0:	48 8b 15 c9 3d 01 00 	mov    0x13dc9(%rip),%rdx        # 1dbb0 <g_2209>
    9de7:	48 8b 05 ea 3d 01 00 	mov    0x13dea(%rip),%rax        # 1dbd8 <g_2327>
    9dee:	48 8b 12             	mov    (%rdx),%rdx
    9df1:	48 89 10             	mov    %rdx,(%rax)
    9df4:	e9 36 08 00 00       	jmpq   a62f <func_1+0x3e7a>
    9df9:	48 b8 cb 54 ce f0 99 	movabs $0x7f196d99f0ce54cb,%rax
    9e00:	6d 19 7f 
    9e03:	48 89 85 a0 ef ff ff 	mov    %rax,-0x1060(%rbp)
    9e0a:	48 c7 85 a8 ef ff ff 	movq   $0x0,-0x1058(%rbp)
    9e11:	00 00 00 00 
    9e15:	48 c7 85 b0 ef ff ff 	movq   $0x0,-0x1050(%rbp)
    9e1c:	00 00 00 00 
    9e20:	48 8d 05 19 33 01 00 	lea    0x13319(%rip),%rax        # 1d140 <g_335>
    9e27:	48 89 85 b8 ef ff ff 	mov    %rax,-0x1048(%rbp)
    9e2e:	48 c7 85 c0 ef ff ff 	movq   $0x0,-0x1040(%rbp)
    9e35:	00 00 00 00 
    9e39:	48 8d 05 00 33 01 00 	lea    0x13300(%rip),%rax        # 1d140 <g_335>
    9e40:	48 89 85 c8 ef ff ff 	mov    %rax,-0x1038(%rbp)
    9e47:	c7 85 60 ee ff ff fb 	movl   $0xfffffffb,-0x11a0(%rbp)
    9e4e:	ff ff ff 
    9e51:	c7 85 40 ee ff ff ea 	movl   $0x817469ea,-0x11c0(%rbp)
    9e58:	69 74 81 
    9e5b:	c7 85 64 ee ff ff 3e 	movl   $0xc21f643e,-0x119c(%rbp)
    9e62:	64 1f c2 
    9e65:	48 8b 05 c4 32 01 00 	mov    0x132c4(%rip),%rax        # 1d130 <g_274>
    9e6c:	48 8b 00             	mov    (%rax),%rax
    9e6f:	8b 00                	mov    (%rax),%eax
    9e71:	c1 e8 1f             	shr    $0x1f,%eax
    9e74:	0f b6 d0             	movzbl %al,%edx
    9e77:	48 83 bd a0 ef ff ff 	cmpq   $0x1,-0x1060(%rbp)
    9e7e:	01 
    9e7f:	0f 96 c0             	setbe  %al
    9e82:	0f b6 c0             	movzbl %al,%eax
    9e85:	39 c2                	cmp    %eax,%edx
    9e87:	0f 9e c0             	setle  %al
    9e8a:	0f b6 d8             	movzbl %al,%ebx
    9e8d:	48 8b 85 a0 ef ff ff 	mov    -0x1060(%rbp),%rax
    9e94:	41 89 c4             	mov    %eax,%r12d
    9e97:	48 8b 85 b8 ee ff ff 	mov    -0x1148(%rbp),%rax
    9e9e:	48 8b 00             	mov    (%rax),%rax
    9ea1:	48 8b 00             	mov    (%rax),%rax
    9ea4:	48 8b 00             	mov    (%rax),%rax
    9ea7:	8b 00                	mov    (%rax),%eax
    9ea9:	0f be d0             	movsbl %al,%edx
    9eac:	48 8b 85 b0 ee ff ff 	mov    -0x1150(%rbp),%rax
    9eb3:	48 8b 00             	mov    (%rax),%rax
    9eb6:	48 8b 00             	mov    (%rax),%rax
    9eb9:	8b 00                	mov    (%rax),%eax
    9ebb:	0f be c0             	movsbl %al,%eax
    9ebe:	89 d6                	mov    %edx,%esi
    9ec0:	89 c7                	mov    %eax,%edi
    9ec2:	e8 4b b3 ff ff       	callq  5212 <safe_mul_func_int8_t_s_s>
    9ec7:	48 0f be c0          	movsbq %al,%rax
    9ecb:	48 39 85 a0 ef ff ff 	cmp    %rax,-0x1060(%rbp)
    9ed2:	75 0d                	jne    9ee1 <func_1+0x372c>
    9ed4:	48 b8 c3 6a 7f 57 af 	movabs $0x77d7f2af577f6ac3,%rax
    9edb:	f2 d7 77 
    9ede:	48 85 c0             	test   %rax,%rax
    9ee1:	44 89 e6             	mov    %r12d,%esi
    9ee4:	bf b6 8a 8d 17       	mov    $0x178d8ab6,%edi
    9ee9:	e8 c8 b6 ff ff       	callq  55b6 <safe_add_func_int32_t_s_s>
    9eee:	83 f8 01             	cmp    $0x1,%eax
    9ef1:	0f 9e c0             	setle  %al
    9ef4:	0f b6 c0             	movzbl %al,%eax
    9ef7:	31 c3                	xor    %eax,%ebx
    9ef9:	89 da                	mov    %ebx,%edx
    9efb:	48 8b 85 a0 ef ff ff 	mov    -0x1060(%rbp),%rax
    9f02:	0f be c0             	movsbl %al,%eax
    9f05:	89 d6                	mov    %edx,%esi
    9f07:	89 c7                	mov    %eax,%edi
    9f09:	e8 93 b3 ff ff       	callq  52a1 <safe_lshift_func_int8_t_s_s>
    9f0e:	0f be c0             	movsbl %al,%eax
    9f11:	be 00 00 00 00       	mov    $0x0,%esi
    9f16:	89 c7                	mov    %eax,%edi
    9f18:	e8 d1 b3 ff ff       	callq  52ee <safe_lshift_func_int8_t_s_u>
    9f1d:	48 c7 05 c0 3c 01 00 	movq   $0x0,0x13cc0(%rip)        # 1dbe8 <g_2636>
    9f24:	00 00 00 00 
    9f28:	48 8b 05 b9 3c 01 00 	mov    0x13cb9(%rip),%rax        # 1dbe8 <g_2636>
    9f2f:	48 85 c0             	test   %rax,%rax
    9f32:	0f 95 c2             	setne  %dl
    9f35:	48 8b 05 f4 31 01 00 	mov    0x131f4(%rip),%rax        # 1d130 <g_274>
    9f3c:	48 8b 00             	mov    (%rax),%rax
    9f3f:	0f b6 d2             	movzbl %dl,%edx
    9f42:	89 10                	mov    %edx,(%rax)
    9f44:	66 c7 05 b9 1f 01 00 	movw   $0x1,0x11fb9(%rip)        # 1bf06 <g_2583+0x26>
    9f4b:	01 00 
    9f4d:	e9 5c 05 00 00       	jmpq   a4ae <func_1+0x3cf9>
    9f52:	c7 85 68 ee ff ff 01 	movl   $0x1,-0x1198(%rbp)
    9f59:	00 00 00 
    9f5c:	48 8d 05 75 3c 01 00 	lea    0x13c75(%rip),%rax        # 1dbd8 <g_2327>
    9f63:	48 89 85 30 ef ff ff 	mov    %rax,-0x10d0(%rbp)
    9f6a:	48 c7 85 38 ef ff ff 	movq   $0x0,-0x10c8(%rbp)
    9f71:	00 00 00 00 
    9f75:	c7 85 44 ee ff ff 00 	movl   $0x0,-0x11bc(%rbp)
    9f7c:	00 00 00 
    9f7f:	eb 1a                	jmp    9f9b <func_1+0x37e6>
    9f81:	8b 85 44 ee ff ff    	mov    -0x11bc(%rbp),%eax
    9f87:	48 98                	cltq   
    9f89:	c7 84 85 10 f3 ff ff 	movl   $0xbcb51f0f,-0xcf0(%rbp,%rax,4)
    9f90:	0f 1f b5 bc 
    9f94:	83 85 44 ee ff ff 01 	addl   $0x1,-0x11bc(%rbp)
    9f9b:	83 bd 44 ee ff ff 02 	cmpl   $0x2,-0x11bc(%rbp)
    9fa2:	7e dd                	jle    9f81 <func_1+0x37cc>
    9fa4:	48 c7 05 c7 1d 01 00 	movq   $0x0,0x11dc7(%rip)        # 1bd76 <g_1619+0x16>
    9fab:	00 00 00 00 
    9faf:	e9 32 01 00 00       	jmpq   a0e6 <func_1+0x3931>
    9fb4:	48 8b 05 9d 3b 01 00 	mov    0x13b9d(%rip),%rax        # 1db58 <g_1408>
    9fbb:	4c 8b 20             	mov    (%rax),%r12
    9fbe:	8b 9d 60 ee ff ff    	mov    -0x11a0(%rbp),%ebx
    9fc4:	83 bd 60 ee ff ff 00 	cmpl   $0x0,-0x11a0(%rbp)
    9fcb:	75 72                	jne    a03f <func_1+0x388a>
    9fcd:	48 83 bd a0 ef ff ff 	cmpq   $0x0,-0x1060(%rbp)
    9fd4:	00 
    9fd5:	75 4f                	jne    a026 <func_1+0x3871>
    9fd7:	48 8b 05 f2 31 01 00 	mov    0x131f2(%rip),%rax        # 1d1d0 <g_497>
    9fde:	b9 01 00 00 00       	mov    $0x1,%ecx
    9fe3:	48 8b 05 0e 35 01 00 	mov    0x1350e(%rip),%rax        # 1d4f8 <g_837>
    9fea:	48 8b 00             	mov    (%rax),%rax
    9fed:	8b 10                	mov    (%rax),%edx
    9fef:	48 8b 05 02 35 01 00 	mov    0x13502(%rip),%rax        # 1d4f8 <g_837>
    9ff6:	48 8b 00             	mov    (%rax),%rax
    9ff9:	31 ca                	xor    %ecx,%edx
    9ffb:	89 10                	mov    %edx,(%rax)
    9ffd:	8b 00                	mov    (%rax),%eax
    9fff:	89 85 14 f3 ff ff    	mov    %eax,-0xcec(%rbp)
    a005:	8b 85 60 ee ff ff    	mov    -0x11a0(%rbp),%eax
    a00b:	f7 d0                	not    %eax
    a00d:	c1 e8 1f             	shr    $0x1f,%eax
    a010:	0f b6 c0             	movzbl %al,%eax
    a013:	8b 95 68 ee ff ff    	mov    -0x1198(%rbp),%edx
    a019:	89 d6                	mov    %edx,%esi
    a01b:	89 c7                	mov    %eax,%edi
    a01d:	e8 cc b2 ff ff       	callq  52ee <safe_lshift_func_int8_t_s_u>
    a022:	84 c0                	test   %al,%al
    a024:	74 07                	je     a02d <func_1+0x3878>
    a026:	b8 01 00 00 00       	mov    $0x1,%eax
    a02b:	eb 05                	jmp    a032 <func_1+0x387d>
    a02d:	b8 00 00 00 00       	mov    $0x0,%eax
    a032:	98                   	cwtl   
    a033:	be ff ff ff ff       	mov    $0xffffffff,%esi
    a038:	89 c7                	mov    %eax,%edi
    a03a:	e8 94 b3 ff ff       	callq  53d3 <safe_sub_func_int16_t_s_s>
    a03f:	c7 05 a7 17 01 00 9c 	movl   $0xca4ed89c,0x117a7(%rip)        # 1b7f0 <g_137>
    a046:	d8 4e ca 
    a049:	8b 15 a1 17 01 00    	mov    0x117a1(%rip),%edx        # 1b7f0 <g_137>
    a04f:	8b 85 60 ee ff ff    	mov    -0x11a0(%rbp),%eax
    a055:	39 c2                	cmp    %eax,%edx
    a057:	0f 96 c0             	setbe  %al
    a05a:	0f b6 c0             	movzbl %al,%eax
    a05d:	89 de                	mov    %ebx,%esi
    a05f:	89 c7                	mov    %eax,%edi
    a061:	e8 14 be ff ff       	callq  5e7a <safe_rshift_func_uint16_t_u_u>
    a066:	0f b7 c0             	movzwl %ax,%eax
    a069:	49 39 c4             	cmp    %rax,%r12
    a06c:	75 0a                	jne    a078 <func_1+0x38c3>
    a06e:	48 83 bd a0 ef ff ff 	cmpq   $0x0,-0x1060(%rbp)
    a075:	00 
    a076:	74 07                	je     a07f <func_1+0x38ca>
    a078:	b8 01 00 00 00       	mov    $0x1,%eax
    a07d:	eb 05                	jmp    a084 <func_1+0x38cf>
    a07f:	b8 00 00 00 00       	mov    $0x0,%eax
    a084:	09 85 40 ee ff ff    	or     %eax,-0x11c0(%rbp)
    a08a:	48 8b 05 2f 3b 01 00 	mov    0x13b2f(%rip),%rax        # 1dbc0 <g_2288>
    a091:	48 8b 10             	mov    (%rax),%rdx
    a094:	48 8b 05 55 3b 01 00 	mov    0x13b55(%rip),%rax        # 1dbf0 <g_2648>
    a09b:	48 8b 12             	mov    (%rdx),%rdx
    a09e:	48 89 10             	mov    %rdx,(%rax)
    a0a1:	48 8b 05 e8 19 01 00 	mov    0x119e8(%rip),%rax        # 1ba90 <g_1108+0x110>
    a0a8:	98                   	cwtl   
    a0a9:	89 c6                	mov    %eax,%esi
    a0ab:	bf 00 00 00 00       	mov    $0x0,%edi
    a0b0:	e8 61 b3 ff ff       	callq  5416 <safe_mod_func_int16_t_s_s>
    a0b5:	89 c2                	mov    %eax,%edx
    a0b7:	48 8d 05 3a 34 01 00 	lea    0x1343a(%rip),%rax        # 1d4f8 <g_837>
    a0be:	48 8b 00             	mov    (%rax),%rax
    a0c1:	48 8b 00             	mov    (%rax),%rax
    a0c4:	0f bf d2             	movswl %dx,%edx
    a0c7:	89 10                	mov    %edx,(%rax)
    a0c9:	48 8d 05 5c 18 01 00 	lea    0x1185c(%rip),%rax        # 1b92c <g_924>
    a0d0:	8b 00                	mov    (%rax),%eax
    a0d2:	85 c0                	test   %eax,%eax
    a0d4:	48 8b 05 9b 1c 01 00 	mov    0x11c9b(%rip),%rax        # 1bd76 <g_1619+0x16>
    a0db:	48 83 c0 01          	add    $0x1,%rax
    a0df:	48 89 05 90 1c 01 00 	mov    %rax,0x11c90(%rip)        # 1bd76 <g_1619+0x16>
    a0e6:	48 8b 05 89 1c 01 00 	mov    0x11c89(%rip),%rax        # 1bd76 <g_1619+0x16>
    a0ed:	48 83 f8 01          	cmp    $0x1,%rax
    a0f1:	0f 8e bd fe ff ff    	jle    9fb4 <func_1+0x37ff>
    a0f7:	66 c7 05 48 1d 01 00 	movw   $0x1,0x11d48(%rip)        # 1be48 <g_2199>
    a0fe:	01 00 
    a100:	e9 88 03 00 00       	jmpq   a48d <func_1+0x3cd8>
    a105:	48 8d 05 6c 3a 01 00 	lea    0x13a6c(%rip),%rax        # 1db78 <g_2146>
    a10c:	48 89 85 d0 ef ff ff 	mov    %rax,-0x1030(%rbp)
    a113:	c7 85 70 f6 ff ff ae 	movl   $0xfaa675ae,-0x990(%rbp)
    a11a:	75 a6 fa 
    a11d:	c7 85 74 f6 ff ff ae 	movl   $0xfaa675ae,-0x98c(%rbp)
    a124:	75 a6 fa 
    a127:	c7 85 78 f6 ff ff ae 	movl   $0xfaa675ae,-0x988(%rbp)
    a12e:	75 a6 fa 
    a131:	c7 85 7c f6 ff ff ae 	movl   $0xfaa675ae,-0x984(%rbp)
    a138:	75 a6 fa 
    a13b:	c7 85 80 f6 ff ff ae 	movl   $0xfaa675ae,-0x980(%rbp)
    a142:	75 a6 fa 
    a145:	c7 85 84 f6 ff ff ae 	movl   $0xfaa675ae,-0x97c(%rbp)
    a14c:	75 a6 fa 
    a14f:	48 8d 05 32 3f 01 00 	lea    0x13f32(%rip),%rax        # 1e088 <g_1706>
    a156:	48 89 85 40 ef ff ff 	mov    %rax,-0x10c0(%rbp)
    a15d:	66 c7 85 ee ed ff ff 	movw   $0x8,-0x1212(%rbp)
    a164:	08 00 
    a166:	c6 05 cb 11 01 00 00 	movb   $0x0,0x111cb(%rip)        # 1b338 <g_57>
    a16d:	e9 7a 02 00 00       	jmpq   a3ec <func_1+0x3c37>
    a172:	48 c7 85 e0 ef ff ff 	movq   $0x0,-0x1020(%rbp)
    a179:	00 00 00 00 
    a17d:	48 8d 05 04 3a 01 00 	lea    0x13a04(%rip),%rax        # 1db88 <g_2145+0x8>
    a184:	48 89 85 e8 ef ff ff 	mov    %rax,-0x1018(%rbp)
    a18b:	48 c7 85 f0 ef ff ff 	movq   $0x0,-0x1010(%rbp)
    a192:	00 00 00 00 
    a196:	48 8d 85 30 ef ff ff 	lea    -0x10d0(%rbp),%rax
    a19d:	48 89 85 f8 ef ff ff 	mov    %rax,-0x1008(%rbp)
    a1a4:	48 8d 85 00 f9 ff ff 	lea    -0x700(%rbp),%rax
    a1ab:	48 8d 15 2e cf 00 00 	lea    0xcf2e(%rip),%rdx        # 170e0 <g_2389+0x18>
    a1b2:	b9 2a 00 00 00       	mov    $0x2a,%ecx
    a1b7:	48 89 c7             	mov    %rax,%rdi
    a1ba:	48 89 d6             	mov    %rdx,%rsi
    a1bd:	f3 48 a5             	rep movsq %ds:(%rsi),%es:(%rdi)
    a1c0:	48 8d 05 37 1b 01 00 	lea    0x11b37(%rip),%rax        # 1bcfe <g_1512+0x1e>
    a1c7:	48 89 85 00 f0 ff ff 	mov    %rax,-0x1000(%rbp)
    a1ce:	48 8b 85 b8 ee ff ff 	mov    -0x1148(%rbp),%rax
    a1d5:	48 8b 00             	mov    (%rax),%rax
    a1d8:	48 8b 00             	mov    (%rax),%rax
    a1db:	48 8b 00             	mov    (%rax),%rax
    a1de:	8b 10                	mov    (%rax),%edx
    a1e0:	48 8b 05 79 2f 01 00 	mov    0x12f79(%rip),%rax        # 1d160 <g_446>
    a1e7:	48 63 d2             	movslq %edx,%rdx
    a1ea:	48 89 10             	mov    %rdx,(%rax)
    a1ed:	48 8b 00             	mov    (%rax),%rax
    a1f0:	49 89 c7             	mov    %rax,%r15
    a1f3:	8b 9d 28 fa ff ff    	mov    -0x5d8(%rbp),%ebx
    a1f9:	48 8b 85 68 ef ff ff 	mov    -0x1098(%rbp),%rax
    a200:	8b 00                	mov    (%rax),%eax
    a202:	83 f0 07             	xor    $0x7,%eax
    a205:	89 c2                	mov    %eax,%edx
    a207:	48 8b 85 68 ef ff ff 	mov    -0x1098(%rbp),%rax
    a20e:	89 10                	mov    %edx,(%rax)
    a210:	48 8b 85 68 ef ff ff 	mov    -0x1098(%rbp),%rax
    a217:	8b 00                	mov    (%rax),%eax
    a219:	89 c0                	mov    %eax,%eax
    a21b:	48 89 85 a8 ed ff ff 	mov    %rax,-0x1258(%rbp)
    a222:	48 8b 05 b7 39 01 00 	mov    0x139b7(%rip),%rax        # 1dbe0 <g_2388>
    a229:	48 8b 00             	mov    (%rax),%rax
    a22c:	49 89 c6             	mov    %rax,%r14
    a22f:	8b 05 2b 16 01 00    	mov    0x1162b(%rip),%eax        # 1b860 <g_303+0x10>
    a235:	83 e8 01             	sub    $0x1,%eax
    a238:	89 05 22 16 01 00    	mov    %eax,0x11622(%rip)        # 1b860 <g_303+0x10>
    a23e:	44 8b a5 40 ee ff ff 	mov    -0x11c0(%rbp),%r12d
    a245:	44 8b ad 00 f9 ff ff 	mov    -0x700(%rbp),%r13d
    a24c:	48 8b 95 30 ef ff ff 	mov    -0x10d0(%rbp),%rdx
    a253:	48 8b 85 f8 ef ff ff 	mov    -0x1008(%rbp),%rax
    a25a:	48 89 10             	mov    %rdx,(%rax)
    a25d:	48 8b 85 f8 ef ff ff 	mov    -0x1008(%rbp),%rax
    a264:	48 8b 00             	mov    (%rax),%rax
    a267:	48 8d 15 62 39 01 00 	lea    0x13962(%rip),%rdx        # 1dbd0 <g_2322>
    a26e:	48 39 d0             	cmp    %rdx,%rax
    a271:	0f 94 c0             	sete   %al
    a274:	0f b6 c0             	movzbl %al,%eax
    a277:	be 07 00 00 00       	mov    $0x7,%esi
    a27c:	89 c7                	mov    %eax,%edi
    a27e:	e8 c9 b9 ff ff       	callq  5c4c <safe_lshift_func_uint8_t_u_u>
    a283:	3c 02                	cmp    $0x2,%al
    a285:	0f 96 c0             	setbe  %al
    a288:	0f b6 c0             	movzbl %al,%eax
    a28b:	44 89 ee             	mov    %r13d,%esi
    a28e:	89 c7                	mov    %eax,%edi
    a290:	e8 37 b4 ff ff       	callq  56cc <safe_mod_func_int32_t_s_s>
    a295:	85 c0                	test   %eax,%eax
    a297:	74 11                	je     a2aa <func_1+0x3af5>
    a299:	8b 85 00 f9 ff ff    	mov    -0x700(%rbp),%eax
    a29f:	85 c0                	test   %eax,%eax
    a2a1:	74 07                	je     a2aa <func_1+0x3af5>
    a2a3:	b9 01 00 00 00       	mov    $0x1,%ecx
    a2a8:	eb 05                	jmp    a2af <func_1+0x3afa>
    a2aa:	b9 00 00 00 00       	mov    $0x0,%ecx
    a2af:	48 8b 85 e8 ef ff ff 	mov    -0x1018(%rbp),%rax
    a2b6:	48 8d 15 bb 38 01 00 	lea    0x138bb(%rip),%rdx        # 1db78 <g_2146>
    a2bd:	48 89 10             	mov    %rdx,(%rax)
    a2c0:	48 8b 85 e8 ef ff ff 	mov    -0x1018(%rbp),%rax
    a2c7:	48 8b 00             	mov    (%rax),%rax
    a2ca:	48 39 85 d0 ef ff ff 	cmp    %rax,-0x1030(%rbp)
    a2d1:	0f 94 c0             	sete   %al
    a2d4:	0f b6 d0             	movzbl %al,%edx
    a2d7:	48 8b 85 58 ef ff ff 	mov    -0x10a8(%rbp),%rax
    a2de:	89 10                	mov    %edx,(%rax)
    a2e0:	48 8b 85 58 ef ff ff 	mov    -0x10a8(%rbp),%rax
    a2e7:	8b 00                	mov    (%rax),%eax
    a2e9:	89 ce                	mov    %ecx,%esi
    a2eb:	89 c7                	mov    %eax,%edi
    a2ed:	e8 13 b3 ff ff       	callq  5605 <safe_sub_func_int32_t_s_s>
    a2f2:	44 89 e6             	mov    %r12d,%esi
    a2f5:	89 c7                	mov    %eax,%edi
    a2f7:	e8 bc bb ff ff       	callq  5eb8 <safe_add_func_uint32_t_u_u>
    a2fc:	48 8b 05 2d 2e 01 00 	mov    0x12e2d(%rip),%rax        # 1d130 <g_274>
    a303:	48 8b 00             	mov    (%rax),%rax
    a306:	8b 10                	mov    (%rax),%edx
    a308:	48 8b 05 f9 31 01 00 	mov    0x131f9(%rip),%rax        # 1d508 <g_922>
    a30f:	48 8b 00             	mov    (%rax),%rax
    a312:	8b 00                	mov    (%rax),%eax
    a314:	39 c2                	cmp    %eax,%edx
    a316:	0f 9c c0             	setl   %al
    a319:	0f b6 c0             	movzbl %al,%eax
    a31c:	89 c6                	mov    %eax,%esi
    a31e:	bf 8d 00 00 00       	mov    $0x8d,%edi
    a323:	e8 32 b8 ff ff       	callq  5b5a <safe_add_func_uint8_t_u_u>
    a328:	0f b6 c0             	movzbl %al,%eax
    a32b:	4c 89 f6             	mov    %r14,%rsi
    a32e:	48 89 c7             	mov    %rax,%rdi
    a331:	e8 c1 b6 ff ff       	callq  59f7 <safe_div_func_int64_t_s_s>
    a336:	48 8b 95 a8 ed ff ff 	mov    -0x1258(%rbp),%rdx
    a33d:	48 21 c2             	and    %rax,%rdx
    a340:	0f b7 05 b3 14 01 00 	movzwl 0x114b3(%rip),%eax        # 1b7fa <g_149>
    a347:	0f b7 c0             	movzwl %ax,%eax
    a34a:	48 39 c2             	cmp    %rax,%rdx
    a34d:	7f 0a                	jg     a359 <func_1+0x3ba4>
    a34f:	8b 85 00 f9 ff ff    	mov    -0x700(%rbp),%eax
    a355:	85 c0                	test   %eax,%eax
    a357:	74 07                	je     a360 <func_1+0x3bab>
    a359:	b8 01 00 00 00       	mov    $0x1,%eax
    a35e:	eb 05                	jmp    a365 <func_1+0x3bb0>
    a360:	b8 00 00 00 00       	mov    $0x0,%eax
    a365:	88 05 98 14 01 00    	mov    %al,0x11498(%rip)        # 1b803 <g_179+0x3>
    a36b:	89 de                	mov    %ebx,%esi
    a36d:	bf 01 00 00 00       	mov    $0x1,%edi
    a372:	e8 16 b9 ff ff       	callq  5c8d <safe_rshift_func_uint8_t_u_s>
    a377:	0f be c0             	movsbl %al,%eax
    a37a:	be 34 00 00 00       	mov    $0x34,%esi
    a37f:	89 c7                	mov    %eax,%edi
    a381:	e8 4e ae ff ff       	callq  51d4 <safe_add_func_int8_t_s_s>
    a386:	48 0f be c0          	movsbq %al,%rax
    a38a:	48 c7 c6 f7 ff ff ff 	mov    $0xfffffffffffffff7,%rsi
    a391:	48 89 c7             	mov    %rax,%rdi
    a394:	e8 b2 bc ff ff       	callq  604b <safe_sub_func_uint64_t_u_u>
    a399:	89 c2                	mov    %eax,%edx
    a39b:	48 8b 85 60 ef ff ff 	mov    -0x10a0(%rbp),%rax
    a3a2:	66 89 10             	mov    %dx,(%rax)
    a3a5:	48 8b 85 60 ef ff ff 	mov    -0x10a0(%rbp),%rax
    a3ac:	0f b7 00             	movzwl (%rax),%eax
    a3af:	66 83 f8 02          	cmp    $0x2,%ax
    a3b3:	0f 9e c0             	setle  %al
    a3b6:	0f b6 d0             	movzbl %al,%edx
    a3b9:	48 8b 85 00 f0 ff ff 	mov    -0x1000(%rbp),%rax
    a3c0:	48 89 10             	mov    %rdx,(%rax)
    a3c3:	48 8b 85 00 f0 ff ff 	mov    -0x1000(%rbp),%rax
    a3ca:	48 8b 00             	mov    (%rax),%rax
    a3cd:	49 39 c7             	cmp    %rax,%r15
    a3d0:	0f 93 c0             	setae  %al
    a3d3:	0f b6 c0             	movzbl %al,%eax
    a3d6:	89 85 74 f6 ff ff    	mov    %eax,-0x98c(%rbp)
    a3dc:	0f b6 05 55 0f 01 00 	movzbl 0x10f55(%rip),%eax        # 1b338 <g_57>
    a3e3:	83 c0 01             	add    $0x1,%eax
    a3e6:	88 05 4c 0f 01 00    	mov    %al,0x10f4c(%rip)        # 1b338 <g_57>
    a3ec:	0f b6 05 45 0f 01 00 	movzbl 0x10f45(%rip),%eax        # 1b338 <g_57>
    a3f3:	3c 01                	cmp    $0x1,%al
    a3f5:	0f 8e 77 fd ff ff    	jle    a172 <func_1+0x39bd>
    a3fb:	c7 85 40 ee ff ff 00 	movl   $0x0,-0x11c0(%rbp)
    a402:	00 00 00 
    a405:	eb 5b                	jmp    a462 <func_1+0x3cad>
    a407:	48 8d 85 38 ef ff ff 	lea    -0x10c8(%rbp),%rax
    a40e:	48 89 85 d8 ef ff ff 	mov    %rax,-0x1028(%rbp)
    a415:	48 c7 05 96 18 01 00 	movq   $0x0,0x11896(%rip)        # 1bcb6 <g_1311+0x16>
    a41c:	00 00 00 00 
    a420:	90                   	nop
    a421:	48 8b 05 8e 18 01 00 	mov    0x1188e(%rip),%rax        # 1bcb6 <g_1311+0x16>
    a428:	48 83 f8 01          	cmp    $0x1,%rax
    a42c:	7f 1c                	jg     a44a <func_1+0x3c95>
    a42e:	48 8b 05 fb 2c 01 00 	mov    0x12cfb(%rip),%rax        # 1d130 <g_274>
    a435:	48 8b 00             	mov    (%rax),%rax
    a438:	48 89 85 40 ef ff ff 	mov    %rax,-0x10c0(%rbp)
    a43f:	8b 05 c7 13 01 00    	mov    0x113c7(%rip),%eax        # 1b80c <g_199>
    a445:	e9 f7 01 00 00       	jmpq   a641 <func_1+0x3e8c>
    a44a:	48 8b 95 38 ef ff ff 	mov    -0x10c8(%rbp),%rdx
    a451:	48 8b 85 d8 ef ff ff 	mov    -0x1028(%rbp),%rax
    a458:	48 89 10             	mov    %rdx,(%rax)
    a45b:	83 85 40 ee ff ff 01 	addl   $0x1,-0x11c0(%rbp)
    a462:	83 bd 40 ee ff ff 01 	cmpl   $0x1,-0x11c0(%rbp)
    a469:	7e 9c                	jle    a407 <func_1+0x3c52>
    a46b:	0f b7 85 ee ed ff ff 	movzwl -0x1212(%rbp),%eax
    a472:	83 c0 01             	add    $0x1,%eax
    a475:	66 89 85 ee ed ff ff 	mov    %ax,-0x1212(%rbp)
    a47c:	0f b7 05 c5 19 01 00 	movzwl 0x119c5(%rip),%eax        # 1be48 <g_2199>
    a483:	83 e8 01             	sub    $0x1,%eax
    a486:	66 89 05 bb 19 01 00 	mov    %ax,0x119bb(%rip)        # 1be48 <g_2199>
    a48d:	0f b7 05 b4 19 01 00 	movzwl 0x119b4(%rip),%eax        # 1be48 <g_2199>
    a494:	66 85 c0             	test   %ax,%ax
    a497:	0f 89 68 fc ff ff    	jns    a105 <func_1+0x3950>
    a49d:	0f b7 05 62 1a 01 00 	movzwl 0x11a62(%rip),%eax        # 1bf06 <g_2583+0x26>
    a4a4:	83 e8 01             	sub    $0x1,%eax
    a4a7:	66 89 05 58 1a 01 00 	mov    %ax,0x11a58(%rip)        # 1bf06 <g_2583+0x26>
    a4ae:	0f b7 05 51 1a 01 00 	movzwl 0x11a51(%rip),%eax        # 1bf06 <g_2583+0x26>
    a4b5:	66 85 c0             	test   %ax,%ax
    a4b8:	0f 89 94 fa ff ff    	jns    9f52 <func_1+0x379d>
    a4be:	48 8b 05 43 30 01 00 	mov    0x13043(%rip),%rax        # 1d508 <g_922>
    a4c5:	48 8b 10             	mov    (%rax),%rdx
    a4c8:	48 8b 05 81 2c 01 00 	mov    0x12c81(%rip),%rax        # 1d150 <g_431>
    a4cf:	8b 12                	mov    (%rdx),%edx
    a4d1:	89 10                	mov    %edx,(%rax)
    a4d3:	8b 85 60 ee ff ff    	mov    -0x11a0(%rbp),%eax
    a4d9:	48 63 d8             	movslq %eax,%rbx
    a4dc:	48 8b 85 b8 ee ff ff 	mov    -0x1148(%rbp),%rax
    a4e3:	48 8b 00             	mov    (%rax),%rax
    a4e6:	48 8b 00             	mov    (%rax),%rax
    a4e9:	48 8b 00             	mov    (%rax),%rax
    a4ec:	8b 00                	mov    (%rax),%eax
    a4ee:	44 0f bf e0          	movswl %ax,%r12d
    a4f2:	48 8b 85 b0 ee ff ff 	mov    -0x1150(%rbp),%rax
    a4f9:	48 8b 00             	mov    (%rax),%rax
    a4fc:	48 8b 00             	mov    (%rax),%rax
    a4ff:	44 8b 28             	mov    (%rax),%r13d
    a502:	0f b6 05 9b 19 01 00 	movzbl 0x1199b(%rip),%eax        # 1bea4 <g_2451+0x4>
    a509:	0f b6 c0             	movzbl %al,%eax
    a50c:	89 c6                	mov    %eax,%esi
    a50e:	bf f6 ff 00 00       	mov    $0xfff6,%edi
    a513:	e8 ee b8 ff ff       	callq  5e06 <safe_lshift_func_uint16_t_u_u>
    a518:	8b 85 40 ee ff ff    	mov    -0x11c0(%rbp),%eax
    a51e:	0f bf d0             	movswl %ax,%edx
    a521:	48 8b 05 46 18 01 00 	mov    0x11846(%rip),%rax        # 1bd6e <g_1619+0xe>
    a528:	98                   	cwtl   
    a529:	89 d6                	mov    %edx,%esi
    a52b:	89 c7                	mov    %eax,%edi
    a52d:	e8 23 af ff ff       	callq  5455 <safe_div_func_int16_t_s_s>
    a532:	48 8b 05 a5 12 01 00 	mov    0x112a5(%rip),%rax        # 1b7de <g_116+0x1e>
    a539:	98                   	cwtl   
    a53a:	0f b6 35 c1 12 01 00 	movzbl 0x112c1(%rip),%esi        # 1b802 <g_179+0x2>
    a541:	48 8b 15 98 36 01 00 	mov    0x13698(%rip),%rdx        # 1dbe0 <g_2388>
    a548:	48 8b 0a             	mov    (%rdx),%rcx
    a54b:	48 8b 95 58 ef ff ff 	mov    -0x10a8(%rbp),%rdx
    a552:	8b 12                	mov    (%rdx),%edx
    a554:	48 63 d2             	movslq %edx,%rdx
    a557:	48 39 d1             	cmp    %rdx,%rcx
    a55a:	0f 92 c2             	setb   %dl
    a55d:	31 f2                	xor    %esi,%edx
    a55f:	88 15 9d 12 01 00    	mov    %dl,0x1129d(%rip)        # 1b802 <g_179+0x2>
    a565:	89 c6                	mov    %eax,%esi
    a567:	bf 01 00 00 00       	mov    $0x1,%edi
    a56c:	e8 84 ae ff ff       	callq  53f5 <safe_mul_func_int16_t_s_s>
    a571:	be a3 b2 ff ff       	mov    $0xffffb2a3,%esi
    a576:	bf 00 00 00 00       	mov    $0x0,%edi
    a57b:	e8 96 ae ff ff       	callq  5416 <safe_mod_func_int16_t_s_s>
    a580:	48 83 bd a0 ef ff ff 	cmpq   $0xfffffffffffffffc,-0x1060(%rbp)
    a587:	fc 
    a588:	0f 96 c0             	setbe  %al
    a58b:	0f b6 c0             	movzbl %al,%eax
    a58e:	44 89 ee             	mov    %r13d,%esi
    a591:	89 c7                	mov    %eax,%edi
    a593:	e8 1e b0 ff ff       	callq  55b6 <safe_add_func_int32_t_s_s>
    a598:	98                   	cwtl   
    a599:	44 89 e6             	mov    %r12d,%esi
    a59c:	89 c7                	mov    %eax,%edi
    a59e:	e8 73 ae ff ff       	callq  5416 <safe_mod_func_int16_t_s_s>
    a5a3:	66 85 c0             	test   %ax,%ax
    a5a6:	74 10                	je     a5b8 <func_1+0x3e03>
    a5a8:	83 bd 5c ee ff ff 00 	cmpl   $0x0,-0x11a4(%rbp)
    a5af:	74 07                	je     a5b8 <func_1+0x3e03>
    a5b1:	b8 01 00 00 00       	mov    $0x1,%eax
    a5b6:	eb 05                	jmp    a5bd <func_1+0x3e08>
    a5b8:	b8 00 00 00 00       	mov    $0x0,%eax
    a5bd:	0f b7 c0             	movzwl %ax,%eax
    a5c0:	8b 95 64 ee ff ff    	mov    -0x119c(%rbp),%edx
    a5c6:	89 d6                	mov    %edx,%esi
    a5c8:	89 c7                	mov    %eax,%edi
    a5ca:	e8 37 b8 ff ff       	callq  5e06 <safe_lshift_func_uint16_t_u_u>
    a5cf:	0f b7 c0             	movzwl %ax,%eax
    a5d2:	48 89 de             	mov    %rbx,%rsi
    a5d5:	48 89 c7             	mov    %rax,%rdi
    a5d8:	e8 a3 ba ff ff       	callq  6080 <safe_mod_func_uint64_t_u_u>
    a5dd:	89 c2                	mov    %eax,%edx
    a5df:	48 8b 85 60 ef ff ff 	mov    -0x10a0(%rbp),%rax
    a5e6:	66 89 10             	mov    %dx,(%rax)
    a5e9:	48 8b 85 60 ef ff ff 	mov    -0x10a0(%rbp),%rax
    a5f0:	0f b7 00             	movzwl (%rax),%eax
    a5f3:	0f b7 d0             	movzwl %ax,%edx
    a5f6:	48 8b 05 fb 35 01 00 	mov    0x135fb(%rip),%rax        # 1dbf8 <g_2690>
    a5fd:	48 8b 05 dc 35 01 00 	mov    0x135dc(%rip),%rax        # 1dbe0 <g_2388>
    a604:	48 8b 08             	mov    (%rax),%rcx
    a607:	8b 85 40 ee ff ff    	mov    -0x11c0(%rbp),%eax
    a60d:	48 98                	cltq   
    a60f:	48 39 c1             	cmp    %rax,%rcx
    a612:	0f 94 c0             	sete   %al
    a615:	0f b6 c0             	movzbl %al,%eax
    a618:	f7 d0                	not    %eax
    a61a:	0f b7 c0             	movzwl %ax,%eax
    a61d:	89 d6                	mov    %edx,%esi
    a61f:	89 c7                	mov    %eax,%edi
    a621:	e8 36 b7 ff ff       	callq  5d5c <safe_mod_func_uint16_t_u_u>
    a626:	0f b7 c0             	movzwl %ax,%eax
    a629:	89 85 40 ee ff ff    	mov    %eax,-0x11c0(%rbp)
    a62f:	48 8b 85 b8 ee ff ff 	mov    -0x1148(%rbp),%rax
    a636:	48 8b 00             	mov    (%rax),%rax
    a639:	48 8b 00             	mov    (%rax),%rax
    a63c:	48 8b 00             	mov    (%rax),%rax
    a63f:	8b 00                	mov    (%rax),%eax
    a641:	48 8b 5d c8          	mov    -0x38(%rbp),%rbx
    a645:	64 48 33 1c 25 28 00 	xor    %fs:0x28,%rbx
    a64c:	00 00 
    a64e:	74 05                	je     a655 <func_1+0x3ea0>
    a650:	e8 1b aa ff ff       	callq  5070 <__stack_chk_fail@plt>
    a655:	48 81 c4 38 12 00 00 	add    $0x1238,%rsp
    a65c:	5b                   	pop    %rbx
    a65d:	41 5c                	pop    %r12
    a65f:	41 5d                	pop    %r13
    a661:	41 5e                	pop    %r14
    a663:	41 5f                	pop    %r15
    a665:	5d                   	pop    %rbp
    a666:	c3                   	retq   

000000000000a667 <func_7>:
    a667:	f3 0f 1e fa          	endbr64 
    a66b:	55                   	push   %rbp
    a66c:	48 89 e5             	mov    %rsp,%rbp
    a66f:	53                   	push   %rbx
    a670:	48 81 ec 58 02 00 00 	sub    $0x258,%rsp
    a677:	89 bd ac fd ff ff    	mov    %edi,-0x254(%rbp)
    a67d:	48 89 b5 a0 fd ff ff 	mov    %rsi,-0x260(%rbp)
    a684:	64 48 8b 04 25 28 00 	mov    %fs:0x28,%rax
    a68b:	00 00 
    a68d:	48 89 45 e8          	mov    %rax,-0x18(%rbp)
    a691:	31 c0                	xor    %eax,%eax
    a693:	48 8d 85 c0 fe ff ff 	lea    -0x140(%rbp),%rax
    a69a:	48 8d 15 9f cb 00 00 	lea    0xcb9f(%rip),%rdx        # 17240 <g_2389+0x178>
    a6a1:	b9 24 00 00 00       	mov    $0x24,%ecx
    a6a6:	48 89 c7             	mov    %rax,%rdi
    a6a9:	48 89 d6             	mov    %rdx,%rsi
    a6ac:	f3 48 a5             	rep movsq %ds:(%rsi),%es:(%rdi)
    a6af:	c7 85 b4 fd ff ff 1e 	movl   $0x776a221e,-0x24c(%rbp)
    a6b6:	22 6a 77 
    a6b9:	48 c7 85 b8 fd ff ff 	movq   $0xfffffffffffffffb,-0x248(%rbp)
    a6c0:	fb ff ff ff 
    a6c4:	48 c7 85 c0 fd ff ff 	movq   $0x0,-0x240(%rbp)
    a6cb:	00 00 00 00 
    a6cf:	48 8d 85 b4 fd ff ff 	lea    -0x24c(%rbp),%rax
    a6d6:	48 89 85 c8 fd ff ff 	mov    %rax,-0x238(%rbp)
    a6dd:	48 c7 85 d0 fd ff ff 	movq   $0x0,-0x230(%rbp)
    a6e4:	00 00 00 00 
    a6e8:	48 8d 05 3d 12 01 00 	lea    0x1123d(%rip),%rax        # 1b92c <g_924>
    a6ef:	48 89 85 d8 fd ff ff 	mov    %rax,-0x228(%rbp)
    a6f6:	48 c7 85 e0 fd ff ff 	movq   $0x0,-0x220(%rbp)
    a6fd:	00 00 00 00 
    a701:	48 8d 85 b4 fd ff ff 	lea    -0x24c(%rbp),%rax
    a708:	48 89 85 e8 fd ff ff 	mov    %rax,-0x218(%rbp)
    a70f:	48 c7 85 f0 fd ff ff 	movq   $0x0,-0x210(%rbp)
    a716:	00 00 00 00 
    a71a:	48 8d 05 0b 12 01 00 	lea    0x1120b(%rip),%rax        # 1b92c <g_924>
    a721:	48 89 85 f8 fd ff ff 	mov    %rax,-0x208(%rbp)
    a728:	48 c7 85 00 fe ff ff 	movq   $0x0,-0x200(%rbp)
    a72f:	00 00 00 00 
    a733:	48 8d 85 b4 fd ff ff 	lea    -0x24c(%rbp),%rax
    a73a:	48 89 85 08 fe ff ff 	mov    %rax,-0x1f8(%rbp)
    a741:	48 c7 85 10 fe ff ff 	movq   $0x0,-0x1f0(%rbp)
    a748:	00 00 00 00 
    a74c:	48 8d 05 d9 11 01 00 	lea    0x111d9(%rip),%rax        # 1b92c <g_924>
    a753:	48 89 85 18 fe ff ff 	mov    %rax,-0x1e8(%rbp)
    a75a:	48 c7 85 20 fe ff ff 	movq   $0x0,-0x1e0(%rbp)
    a761:	00 00 00 00 
    a765:	48 c7 85 28 fe ff ff 	movq   $0x0,-0x1d8(%rbp)
    a76c:	00 00 00 00 
    a770:	48 8d 05 b5 11 01 00 	lea    0x111b5(%rip),%rax        # 1b92c <g_924>
    a777:	48 89 85 30 fe ff ff 	mov    %rax,-0x1d0(%rbp)
    a77e:	48 c7 85 38 fe ff ff 	movq   $0x0,-0x1c8(%rbp)
    a785:	00 00 00 00 
    a789:	48 8d 85 b4 fd ff ff 	lea    -0x24c(%rbp),%rax
    a790:	48 89 85 40 fe ff ff 	mov    %rax,-0x1c0(%rbp)
    a797:	48 8d 85 b4 fd ff ff 	lea    -0x24c(%rbp),%rax
    a79e:	48 89 85 48 fe ff ff 	mov    %rax,-0x1b8(%rbp)
    a7a5:	48 8d 85 b4 fd ff ff 	lea    -0x24c(%rbp),%rax
    a7ac:	48 89 85 50 fe ff ff 	mov    %rax,-0x1b0(%rbp)
    a7b3:	48 8d 85 b4 fd ff ff 	lea    -0x24c(%rbp),%rax
    a7ba:	48 89 85 58 fe ff ff 	mov    %rax,-0x1a8(%rbp)
    a7c1:	48 c7 85 60 fe ff ff 	movq   $0x0,-0x1a0(%rbp)
    a7c8:	00 00 00 00 
    a7cc:	48 8d 05 59 11 01 00 	lea    0x11159(%rip),%rax        # 1b92c <g_924>
    a7d3:	48 89 85 68 fe ff ff 	mov    %rax,-0x198(%rbp)
    a7da:	48 8d 05 a7 14 01 00 	lea    0x114a7(%rip),%rax        # 1bc88 <g_1310>
    a7e1:	48 89 85 70 fe ff ff 	mov    %rax,-0x190(%rbp)
    a7e8:	48 8d 05 3d 11 01 00 	lea    0x1113d(%rip),%rax        # 1b92c <g_924>
    a7ef:	48 89 85 78 fe ff ff 	mov    %rax,-0x188(%rbp)
    a7f6:	48 c7 85 80 fe ff ff 	movq   $0x0,-0x180(%rbp)
    a7fd:	00 00 00 00 
    a801:	48 c7 85 88 fe ff ff 	movq   $0x0,-0x178(%rbp)
    a808:	00 00 00 00 
    a80c:	48 8d 85 b4 fd ff ff 	lea    -0x24c(%rbp),%rax
    a813:	48 89 85 90 fe ff ff 	mov    %rax,-0x170(%rbp)
    a81a:	48 c7 85 98 fe ff ff 	movq   $0x0,-0x168(%rbp)
    a821:	00 00 00 00 
    a825:	48 c7 85 a0 fe ff ff 	movq   $0x0,-0x160(%rbp)
    a82c:	00 00 00 00 
    a830:	48 8d 05 51 14 01 00 	lea    0x11451(%rip),%rax        # 1bc88 <g_1310>
    a837:	48 89 85 a8 fe ff ff 	mov    %rax,-0x158(%rbp)
    a83e:	48 8d 85 b4 fd ff ff 	lea    -0x24c(%rbp),%rax
    a845:	48 89 85 b0 fe ff ff 	mov    %rax,-0x150(%rbp)
    a84c:	48 8d 05 d9 10 01 00 	lea    0x110d9(%rip),%rax        # 1b92c <g_924>
    a853:	48 89 85 b8 fe ff ff 	mov    %rax,-0x148(%rbp)
    a85a:	48 8b 85 20 ff ff ff 	mov    -0xe0(%rbp),%rax
    a861:	89 c3                	mov    %eax,%ebx
    a863:	48 8b 85 f0 fe ff ff 	mov    -0x110(%rbp),%rax
    a86a:	89 c2                	mov    %eax,%edx
    a86c:	48 8b 45 a8          	mov    -0x58(%rbp),%rax
    a870:	89 c1                	mov    %eax,%ecx
    a872:	8b 85 b4 fd ff ff    	mov    -0x24c(%rbp),%eax
    a878:	09 c8                	or     %ecx,%eax
    a87a:	89 85 b4 fd ff ff    	mov    %eax,-0x24c(%rbp)
    a880:	8b 85 b4 fd ff ff    	mov    -0x24c(%rbp),%eax
    a886:	0f be c0             	movsbl %al,%eax
    a889:	89 d6                	mov    %edx,%esi
    a88b:	89 c7                	mov    %eax,%edi
    a88d:	e8 da aa ff ff       	callq  536c <safe_rshift_func_int8_t_s_u>
    a892:	0f be c0             	movsbl %al,%eax
    a895:	89 c6                	mov    %eax,%esi
    a897:	bf 1e ea 62 d3       	mov    $0xd362ea1e,%edi
    a89c:	e8 2b ae ff ff       	callq  56cc <safe_mod_func_int32_t_s_s>
    a8a1:	48 8b 85 a0 fd ff ff 	mov    -0x260(%rbp),%rax
    a8a8:	0f b7 c0             	movzwl %ax,%eax
    a8ab:	be 38 0b 00 00       	mov    $0xb38,%esi
    a8b0:	89 c7                	mov    %eax,%edi
    a8b2:	e8 86 b4 ff ff       	callq  5d3d <safe_mul_func_uint16_t_u_u>
    a8b7:	48 8b 45 90          	mov    -0x70(%rbp),%rax
    a8bb:	48 83 f8 01          	cmp    $0x1,%rax
    a8bf:	0f 9e c0             	setle  %al
    a8c2:	0f b6 c0             	movzbl %al,%eax
    a8c5:	48 39 85 a0 fd ff ff 	cmp    %rax,-0x260(%rbp)
    a8cc:	0f 9e c0             	setle  %al
    a8cf:	0f b6 c0             	movzbl %al,%eax
    a8d2:	48 39 85 a0 fd ff ff 	cmp    %rax,-0x260(%rbp)
    a8d9:	7d 07                	jge    a8e2 <func_7+0x27b>
    a8db:	ba 3f 0f 00 00       	mov    $0xf3f,%edx
    a8e0:	eb 05                	jmp    a8e7 <func_7+0x280>
    a8e2:	ba 3e 0f 00 00       	mov    $0xf3e,%edx
    a8e7:	48 8b 05 32 28 01 00 	mov    0x12832(%rip),%rax        # 1d120 <g_102>
    a8ee:	89 10                	mov    %edx,(%rax)
    a8f0:	8b 00                	mov    (%rax),%eax
    a8f2:	89 de                	mov    %ebx,%esi
    a8f4:	89 c7                	mov    %eax,%edi
    a8f6:	e8 d1 ad ff ff       	callq  56cc <safe_mod_func_int32_t_s_s>
    a8fb:	85 c0                	test   %eax,%eax
    a8fd:	75 10                	jne    a90f <func_7+0x2a8>
    a8ff:	48 8b 05 5a 32 01 00 	mov    0x1325a(%rip),%rax        # 1db60 <g_1407>
    a906:	48 8b 00             	mov    (%rax),%rax
    a909:	48 8b 00             	mov    (%rax),%rax
    a90c:	48 85 c0             	test   %rax,%rax
    a90f:	48 c7 85 b8 fd ff ff 	movq   $0x2,-0x248(%rbp)
    a916:	02 00 00 00 
    a91a:	48 8b 05 d7 2b 01 00 	mov    0x12bd7(%rip),%rax        # 1d4f8 <g_837>
    a921:	48 8b 00             	mov    (%rax),%rax
    a924:	48 89 85 70 fe ff ff 	mov    %rax,-0x190(%rbp)
    a92b:	48 8b 85 a0 fd ff ff 	mov    -0x260(%rbp),%rax
    a932:	48 8b 5d e8          	mov    -0x18(%rbp),%rbx
    a936:	64 48 33 1c 25 28 00 	xor    %fs:0x28,%rbx
    a93d:	00 00 
    a93f:	74 05                	je     a946 <func_7+0x2df>
    a941:	e8 2a a7 ff ff       	callq  5070 <__stack_chk_fail@plt>
    a946:	48 81 c4 58 02 00 00 	add    $0x258,%rsp
    a94d:	5b                   	pop    %rbx
    a94e:	5d                   	pop    %rbp
    a94f:	c3                   	retq   

000000000000a950 <func_14>:
    a950:	f3 0f 1e fa          	endbr64 
    a954:	55                   	push   %rbp
    a955:	48 89 e5             	mov    %rsp,%rbp
    a958:	41 55                	push   %r13
    a95a:	41 54                	push   %r12
    a95c:	53                   	push   %rbx
    a95d:	48 81 ec 58 07 00 00 	sub    $0x758,%rsp
    a964:	89 bd ac f8 ff ff    	mov    %edi,-0x754(%rbp)
    a96a:	89 c8                	mov    %ecx,%eax
    a96c:	4c 89 85 98 f8 ff ff 	mov    %r8,-0x768(%rbp)
    a973:	89 f1                	mov    %esi,%ecx
    a975:	66 89 8d a8 f8 ff ff 	mov    %cx,-0x758(%rbp)
    a97c:	88 95 a4 f8 ff ff    	mov    %dl,-0x75c(%rbp)
    a982:	66 89 85 a0 f8 ff ff 	mov    %ax,-0x760(%rbp)
    a989:	64 48 8b 04 25 28 00 	mov    %fs:0x28,%rax
    a990:	00 00 
    a992:	48 89 45 d8          	mov    %rax,-0x28(%rbp)
    a996:	31 c0                	xor    %eax,%eax
    a998:	c7 85 60 fa ff ff 02 	movl   $0x2,-0x5a0(%rbp)
    a99f:	00 00 00 
    a9a2:	c7 85 64 fa ff ff 89 	movl   $0xcc639c89,-0x59c(%rbp)
    a9a9:	9c 63 cc 
    a9ac:	c7 85 68 fa ff ff 89 	movl   $0xcc639c89,-0x598(%rbp)
    a9b3:	9c 63 cc 
    a9b6:	c7 85 6c fa ff ff 02 	movl   $0x2,-0x594(%rbp)
    a9bd:	00 00 00 
    a9c0:	c7 85 70 fa ff ff 89 	movl   $0xcc639c89,-0x590(%rbp)
    a9c7:	9c 63 cc 
    a9ca:	c7 85 74 fa ff ff 89 	movl   $0xcc639c89,-0x58c(%rbp)
    a9d1:	9c 63 cc 
    a9d4:	48 8d 05 27 0e 01 00 	lea    0x10e27(%rip),%rax        # 1b802 <g_179+0x2>
    a9db:	48 89 85 78 f9 ff ff 	mov    %rax,-0x688(%rbp)
    a9e2:	48 c7 85 80 f9 ff ff 	movq   $0x0,-0x680(%rbp)
    a9e9:	00 00 00 00 
    a9ed:	48 c7 85 88 f9 ff ff 	movq   $0x0,-0x678(%rbp)
    a9f4:	00 00 00 00 
    a9f8:	48 8d 05 39 09 01 00 	lea    0x10939(%rip),%rax        # 1b338 <g_57>
    a9ff:	48 89 85 40 f9 ff ff 	mov    %rax,-0x6c0(%rbp)
    aa06:	48 8d 85 40 f9 ff ff 	lea    -0x6c0(%rbp),%rax
    aa0d:	48 89 85 48 f9 ff ff 	mov    %rax,-0x6b8(%rbp)
    aa14:	48 8d 85 48 f9 ff ff 	lea    -0x6b8(%rbp),%rax
    aa1b:	48 89 85 50 f9 ff ff 	mov    %rax,-0x6b0(%rbp)
    aa22:	48 8d 85 50 f9 ff ff 	lea    -0x6b0(%rbp),%rax
    aa29:	48 89 85 90 f9 ff ff 	mov    %rax,-0x670(%rbp)
    aa30:	c7 85 e0 f8 ff ff 5d 	movl   $0xa81e3c5d,-0x720(%rbp)
    aa37:	3c 1e a8 
    aa3a:	c7 85 e4 f8 ff ff 6b 	movl   $0xc448cc6b,-0x71c(%rbp)
    aa41:	cc 48 c4 
    aa44:	48 c7 85 98 f9 ff ff 	movq   $0x0,-0x668(%rbp)
    aa4b:	00 00 00 00 
    aa4f:	c7 85 e8 f8 ff ff 4c 	movl   $0x3e94754c,-0x718(%rbp)
    aa56:	75 94 3e 
    aa59:	48 b8 49 49 49 49 49 	movabs $0x4949494949494949,%rax
    aa60:	49 49 49 
    aa63:	48 89 45 d0          	mov    %rax,-0x30(%rbp)
    aa67:	48 8d 05 f2 26 01 00 	lea    0x126f2(%rip),%rax        # 1d160 <g_446>
    aa6e:	48 89 85 a0 f9 ff ff 	mov    %rax,-0x660(%rbp)
    aa75:	c7 85 d0 f8 ff ff 00 	movl   $0x0,-0x730(%rbp)
    aa7c:	00 00 00 
    aa7f:	eb 1a                	jmp    aa9b <func_14+0x14b>
    aa81:	8b 85 d0 f8 ff ff    	mov    -0x730(%rbp),%eax
    aa87:	48 98                	cltq   
    aa89:	c7 84 85 34 fa ff ff 	movl   $0xffffffff,-0x5cc(%rbp,%rax,4)
    aa90:	ff ff ff ff 
    aa94:	83 85 d0 f8 ff ff 01 	addl   $0x1,-0x730(%rbp)
    aa9b:	83 bd d0 f8 ff ff 02 	cmpl   $0x2,-0x730(%rbp)
    aaa2:	7e dd                	jle    aa81 <func_14+0x131>
    aaa4:	c7 85 d0 f8 ff ff 00 	movl   $0x0,-0x730(%rbp)
    aaab:	00 00 00 
    aaae:	eb 1b                	jmp    aacb <func_14+0x17b>
    aab0:	8b 85 d0 f8 ff ff    	mov    -0x730(%rbp),%eax
    aab6:	48 98                	cltq   
    aab8:	48 c7 84 c5 28 fa ff 	movq   $0x0,-0x5d8(%rbp,%rax,8)
    aabf:	ff 00 00 00 00 
    aac4:	83 85 d0 f8 ff ff 01 	addl   $0x1,-0x730(%rbp)
    aacb:	83 bd d0 f8 ff ff 00 	cmpl   $0x0,-0x730(%rbp)
    aad2:	7e dc                	jle    aab0 <func_14+0x160>
    aad4:	0f b6 05 ce 11 01 00 	movzbl 0x111ce(%rip),%eax        # 1bca9 <g_1311+0x9>
    aadb:	0f b6 d8             	movzbl %al,%ebx
    aade:	0f b6 85 a4 f8 ff ff 	movzbl -0x75c(%rbp),%eax
    aae5:	89 c6                	mov    %eax,%esi
    aae7:	bf 00 00 00 00       	mov    $0x0,%edi
    aaec:	e8 f0 a9 ff ff       	callq  54e1 <safe_lshift_func_int16_t_s_u>
    aaf1:	66 85 c0             	test   %ax,%ax
    aaf4:	8b 85 68 fa ff ff    	mov    -0x598(%rbp),%eax
    aafa:	89 c0                	mov    %eax,%eax
    aafc:	48 be 82 80 5f 22 ff 	movabs $0xffffffff225f8082,%rsi
    ab03:	ff ff ff 
    ab06:	48 89 c7             	mov    %rax,%rdi
    ab09:	e8 20 b5 ff ff       	callq  602e <safe_add_func_uint64_t_u_u>
    ab0e:	48 85 c0             	test   %rax,%rax
    ab11:	75 0a                	jne    ab1d <func_14+0x1cd>
    ab13:	8b 85 68 fa ff ff    	mov    -0x598(%rbp),%eax
    ab19:	85 c0                	test   %eax,%eax
    ab1b:	74 07                	je     ab24 <func_14+0x1d4>
    ab1d:	ba 01 00 00 00       	mov    $0x1,%edx
    ab22:	eb 05                	jmp    ab29 <func_14+0x1d9>
    ab24:	ba 00 00 00 00       	mov    $0x0,%edx
    ab29:	0f b6 85 a4 f8 ff ff 	movzbl -0x75c(%rbp),%eax
    ab30:	39 c2                	cmp    %eax,%edx
    ab32:	0f 9f c0             	setg   %al
    ab35:	0f b6 c0             	movzbl %al,%eax
    ab38:	be 0d 00 00 00       	mov    $0xd,%esi
    ab3d:	89 c7                	mov    %eax,%edi
    ab3f:	e8 36 b3 ff ff       	callq  5e7a <safe_rshift_func_uint16_t_u_u>
    ab44:	89 c2                	mov    %eax,%edx
    ab46:	48 8b 85 78 f9 ff ff 	mov    -0x688(%rbp),%rax
    ab4d:	0f b6 00             	movzbl (%rax),%eax
    ab50:	21 c2                	and    %eax,%edx
    ab52:	48 8b 85 78 f9 ff ff 	mov    -0x688(%rbp),%rax
    ab59:	88 10                	mov    %dl,(%rax)
    ab5b:	48 8b 85 78 f9 ff ff 	mov    -0x688(%rbp),%rax
    ab62:	0f b6 08             	movzbl (%rax),%ecx
    ab65:	48 8b 85 40 f9 ff ff 	mov    -0x6c0(%rbp),%rax
    ab6c:	0f b6 10             	movzbl (%rax),%edx
    ab6f:	48 8b 85 40 f9 ff ff 	mov    -0x6c0(%rbp),%rax
    ab76:	09 ca                	or     %ecx,%edx
    ab78:	88 10                	mov    %dl,(%rax)
    ab7a:	48 83 bd 98 f8 ff ff 	cmpq   $0x0,-0x768(%rbp)
    ab81:	00 
    ab82:	74 07                	je     ab8b <func_14+0x23b>
    ab84:	b8 01 00 00 00       	mov    $0x1,%eax
    ab89:	eb 05                	jmp    ab90 <func_14+0x240>
    ab8b:	b8 00 00 00 00       	mov    $0x0,%eax
    ab90:	89 c6                	mov    %eax,%esi
    ab92:	bf 01 00 00 00       	mov    $0x1,%edi
    ab97:	e8 69 b0 ff ff       	callq  5c05 <safe_lshift_func_uint8_t_u_s>
    ab9c:	89 de                	mov    %ebx,%esi
    ab9e:	bf 00 00 00 00       	mov    $0x0,%edi
    aba3:	e8 82 a9 ff ff       	callq  552a <safe_rshift_func_int16_t_s_s>
    aba8:	66 85 c0             	test   %ax,%ax
    abab:	74 07                	je     abb4 <func_14+0x264>
    abad:	b8 01 00 00 00       	mov    $0x1,%eax
    abb2:	eb 05                	jmp    abb9 <func_14+0x269>
    abb4:	b8 00 00 00 00       	mov    $0x0,%eax
    abb9:	98                   	cwtl   
    abba:	be f6 ff ff ff       	mov    $0xfffffff6,%esi
    abbf:	89 c7                	mov    %eax,%edi
    abc1:	e8 0d a8 ff ff       	callq  53d3 <safe_sub_func_int16_t_s_s>
    abc6:	66 85 c0             	test   %ax,%ax
    abc9:	0f 84 8f 06 00 00    	je     b25e <func_14+0x90e>
    abcf:	48 8d 05 5a 34 01 00 	lea    0x1345a(%rip),%rax        # 1e030 <g_336>
    abd6:	48 89 85 58 f9 ff ff 	mov    %rax,-0x6a8(%rbp)
    abdd:	48 8d 85 58 f9 ff ff 	lea    -0x6a8(%rbp),%rax
    abe4:	48 89 85 60 f9 ff ff 	mov    %rax,-0x6a0(%rbp)
    abeb:	48 8d 85 60 f9 ff ff 	lea    -0x6a0(%rbp),%rax
    abf2:	48 89 85 10 fd ff ff 	mov    %rax,-0x2f0(%rbp)
    abf9:	48 c7 85 18 fd ff ff 	movq   $0x0,-0x2e8(%rbp)
    ac00:	00 00 00 00 
    ac04:	48 8d 85 60 f9 ff ff 	lea    -0x6a0(%rbp),%rax
    ac0b:	48 89 85 20 fd ff ff 	mov    %rax,-0x2e0(%rbp)
    ac12:	48 c7 85 28 fd ff ff 	movq   $0x0,-0x2d8(%rbp)
    ac19:	00 00 00 00 
    ac1d:	48 8d 85 60 f9 ff ff 	lea    -0x6a0(%rbp),%rax
    ac24:	48 89 85 30 fd ff ff 	mov    %rax,-0x2d0(%rbp)
    ac2b:	48 8d 85 60 f9 ff ff 	lea    -0x6a0(%rbp),%rax
    ac32:	48 89 85 38 fd ff ff 	mov    %rax,-0x2c8(%rbp)
    ac39:	48 8d 85 60 f9 ff ff 	lea    -0x6a0(%rbp),%rax
    ac40:	48 89 85 40 fd ff ff 	mov    %rax,-0x2c0(%rbp)
    ac47:	48 8d 85 60 f9 ff ff 	lea    -0x6a0(%rbp),%rax
    ac4e:	48 89 85 48 fd ff ff 	mov    %rax,-0x2b8(%rbp)
    ac55:	48 8d 85 60 f9 ff ff 	lea    -0x6a0(%rbp),%rax
    ac5c:	48 89 85 50 fd ff ff 	mov    %rax,-0x2b0(%rbp)
    ac63:	48 8d 85 60 f9 ff ff 	lea    -0x6a0(%rbp),%rax
    ac6a:	48 89 85 58 fd ff ff 	mov    %rax,-0x2a8(%rbp)
    ac71:	48 8d 85 60 f9 ff ff 	lea    -0x6a0(%rbp),%rax
    ac78:	48 89 85 60 fd ff ff 	mov    %rax,-0x2a0(%rbp)
    ac7f:	48 c7 85 68 fd ff ff 	movq   $0x0,-0x298(%rbp)
    ac86:	00 00 00 00 
    ac8a:	48 8d 85 60 f9 ff ff 	lea    -0x6a0(%rbp),%rax
    ac91:	48 89 85 70 fd ff ff 	mov    %rax,-0x290(%rbp)
    ac98:	48 c7 85 78 fd ff ff 	movq   $0x0,-0x288(%rbp)
    ac9f:	00 00 00 00 
    aca3:	48 8d 85 60 f9 ff ff 	lea    -0x6a0(%rbp),%rax
    acaa:	48 89 85 80 fd ff ff 	mov    %rax,-0x280(%rbp)
    acb1:	48 8d 85 60 f9 ff ff 	lea    -0x6a0(%rbp),%rax
    acb8:	48 89 85 88 fd ff ff 	mov    %rax,-0x278(%rbp)
    acbf:	48 8d 85 60 f9 ff ff 	lea    -0x6a0(%rbp),%rax
    acc6:	48 89 85 90 fd ff ff 	mov    %rax,-0x270(%rbp)
    accd:	48 8d 85 60 f9 ff ff 	lea    -0x6a0(%rbp),%rax
    acd4:	48 89 85 98 fd ff ff 	mov    %rax,-0x268(%rbp)
    acdb:	48 8d 85 60 f9 ff ff 	lea    -0x6a0(%rbp),%rax
    ace2:	48 89 85 a0 fd ff ff 	mov    %rax,-0x260(%rbp)
    ace9:	48 8d 85 60 f9 ff ff 	lea    -0x6a0(%rbp),%rax
    acf0:	48 89 85 a8 fd ff ff 	mov    %rax,-0x258(%rbp)
    acf7:	48 8d 85 60 f9 ff ff 	lea    -0x6a0(%rbp),%rax
    acfe:	48 89 85 b0 fd ff ff 	mov    %rax,-0x250(%rbp)
    ad05:	48 c7 85 b8 fd ff ff 	movq   $0x0,-0x248(%rbp)
    ad0c:	00 00 00 00 
    ad10:	48 8d 85 60 f9 ff ff 	lea    -0x6a0(%rbp),%rax
    ad17:	48 89 85 c0 fd ff ff 	mov    %rax,-0x240(%rbp)
    ad1e:	48 c7 85 c8 fd ff ff 	movq   $0x0,-0x238(%rbp)
    ad25:	00 00 00 00 
    ad29:	48 8d 85 60 f9 ff ff 	lea    -0x6a0(%rbp),%rax
    ad30:	48 89 85 d0 fd ff ff 	mov    %rax,-0x230(%rbp)
    ad37:	48 8d 85 60 f9 ff ff 	lea    -0x6a0(%rbp),%rax
    ad3e:	48 89 85 d8 fd ff ff 	mov    %rax,-0x228(%rbp)
    ad45:	48 8d 85 60 f9 ff ff 	lea    -0x6a0(%rbp),%rax
    ad4c:	48 89 85 e0 fd ff ff 	mov    %rax,-0x220(%rbp)
    ad53:	48 8d 85 60 f9 ff ff 	lea    -0x6a0(%rbp),%rax
    ad5a:	48 89 85 e8 fd ff ff 	mov    %rax,-0x218(%rbp)
    ad61:	48 8d 85 60 f9 ff ff 	lea    -0x6a0(%rbp),%rax
    ad68:	48 89 85 f0 fd ff ff 	mov    %rax,-0x210(%rbp)
    ad6f:	48 8d 85 60 f9 ff ff 	lea    -0x6a0(%rbp),%rax
    ad76:	48 89 85 f8 fd ff ff 	mov    %rax,-0x208(%rbp)
    ad7d:	48 8d 85 60 f9 ff ff 	lea    -0x6a0(%rbp),%rax
    ad84:	48 89 85 00 fe ff ff 	mov    %rax,-0x200(%rbp)
    ad8b:	48 c7 85 08 fe ff ff 	movq   $0x0,-0x1f8(%rbp)
    ad92:	00 00 00 00 
    ad96:	48 8d 85 60 f9 ff ff 	lea    -0x6a0(%rbp),%rax
    ad9d:	48 89 85 10 fe ff ff 	mov    %rax,-0x1f0(%rbp)
    ada4:	48 c7 85 18 fe ff ff 	movq   $0x0,-0x1e8(%rbp)
    adab:	00 00 00 00 
    adaf:	48 8d 85 60 f9 ff ff 	lea    -0x6a0(%rbp),%rax
    adb6:	48 89 85 20 fe ff ff 	mov    %rax,-0x1e0(%rbp)
    adbd:	48 8d 85 60 f9 ff ff 	lea    -0x6a0(%rbp),%rax
    adc4:	48 89 85 28 fe ff ff 	mov    %rax,-0x1d8(%rbp)
    adcb:	48 8d 85 60 f9 ff ff 	lea    -0x6a0(%rbp),%rax
    add2:	48 89 85 30 fe ff ff 	mov    %rax,-0x1d0(%rbp)
    add9:	48 8d 85 60 f9 ff ff 	lea    -0x6a0(%rbp),%rax
    ade0:	48 89 85 38 fe ff ff 	mov    %rax,-0x1c8(%rbp)
    ade7:	48 8d 85 60 f9 ff ff 	lea    -0x6a0(%rbp),%rax
    adee:	48 89 85 40 fe ff ff 	mov    %rax,-0x1c0(%rbp)
    adf5:	48 8d 85 60 f9 ff ff 	lea    -0x6a0(%rbp),%rax
    adfc:	48 89 85 48 fe ff ff 	mov    %rax,-0x1b8(%rbp)
    ae03:	48 c7 85 00 fa ff ff 	movq   $0x0,-0x600(%rbp)
    ae0a:	00 00 00 00 
    ae0e:	48 c7 85 f0 fb ff ff 	movq   $0x0,-0x410(%rbp)
    ae15:	00 00 00 00 
    ae19:	48 8d 85 10 fd ff ff 	lea    -0x2f0(%rbp),%rax
    ae20:	48 05 98 00 00 00    	add    $0x98,%rax
    ae26:	48 89 85 f8 fb ff ff 	mov    %rax,-0x408(%rbp)
    ae2d:	48 8d 85 10 fd ff ff 	lea    -0x2f0(%rbp),%rax
    ae34:	48 05 98 00 00 00    	add    $0x98,%rax
    ae3a:	48 89 85 00 fc ff ff 	mov    %rax,-0x400(%rbp)
    ae41:	48 c7 85 08 fc ff ff 	movq   $0x0,-0x3f8(%rbp)
    ae48:	00 00 00 00 
    ae4c:	48 c7 85 10 fc ff ff 	movq   $0x0,-0x3f0(%rbp)
    ae53:	00 00 00 00 
    ae57:	48 8d 85 10 fd ff ff 	lea    -0x2f0(%rbp),%rax
    ae5e:	48 05 98 00 00 00    	add    $0x98,%rax
    ae64:	48 89 85 18 fc ff ff 	mov    %rax,-0x3e8(%rbp)
    ae6b:	48 8d 85 10 fd ff ff 	lea    -0x2f0(%rbp),%rax
    ae72:	48 05 98 00 00 00    	add    $0x98,%rax
    ae78:	48 89 85 20 fc ff ff 	mov    %rax,-0x3e0(%rbp)
    ae7f:	48 8d 85 10 fd ff ff 	lea    -0x2f0(%rbp),%rax
    ae86:	48 05 98 00 00 00    	add    $0x98,%rax
    ae8c:	48 89 85 28 fc ff ff 	mov    %rax,-0x3d8(%rbp)
    ae93:	48 c7 85 30 fc ff ff 	movq   $0x0,-0x3d0(%rbp)
    ae9a:	00 00 00 00 
    ae9e:	48 8d 85 10 fd ff ff 	lea    -0x2f0(%rbp),%rax
    aea5:	48 05 98 00 00 00    	add    $0x98,%rax
    aeab:	48 89 85 38 fc ff ff 	mov    %rax,-0x3c8(%rbp)
    aeb2:	48 c7 85 40 fc ff ff 	movq   $0x0,-0x3c0(%rbp)
    aeb9:	00 00 00 00 
    aebd:	48 8d 85 10 fd ff ff 	lea    -0x2f0(%rbp),%rax
    aec4:	48 05 98 00 00 00    	add    $0x98,%rax
    aeca:	48 89 85 48 fc ff ff 	mov    %rax,-0x3b8(%rbp)
    aed1:	48 8d 85 10 fd ff ff 	lea    -0x2f0(%rbp),%rax
    aed8:	48 05 98 00 00 00    	add    $0x98,%rax
    aede:	48 89 85 50 fc ff ff 	mov    %rax,-0x3b0(%rbp)
    aee5:	48 8d 85 10 fd ff ff 	lea    -0x2f0(%rbp),%rax
    aeec:	48 05 98 00 00 00    	add    $0x98,%rax
    aef2:	48 89 85 58 fc ff ff 	mov    %rax,-0x3a8(%rbp)
    aef9:	48 8d 85 10 fd ff ff 	lea    -0x2f0(%rbp),%rax
    af00:	48 05 98 00 00 00    	add    $0x98,%rax
    af06:	48 89 85 60 fc ff ff 	mov    %rax,-0x3a0(%rbp)
    af0d:	48 8d 85 10 fd ff ff 	lea    -0x2f0(%rbp),%rax
    af14:	48 05 98 00 00 00    	add    $0x98,%rax
    af1a:	48 89 85 68 fc ff ff 	mov    %rax,-0x398(%rbp)
    af21:	48 c7 85 70 fc ff ff 	movq   $0x0,-0x390(%rbp)
    af28:	00 00 00 00 
    af2c:	48 c7 85 78 fc ff ff 	movq   $0x0,-0x388(%rbp)
    af33:	00 00 00 00 
    af37:	48 8d 85 10 fd ff ff 	lea    -0x2f0(%rbp),%rax
    af3e:	48 05 98 00 00 00    	add    $0x98,%rax
    af44:	48 89 85 80 fc ff ff 	mov    %rax,-0x380(%rbp)
    af4b:	48 8d 85 10 fd ff ff 	lea    -0x2f0(%rbp),%rax
    af52:	48 05 98 00 00 00    	add    $0x98,%rax
    af58:	48 89 85 88 fc ff ff 	mov    %rax,-0x378(%rbp)
    af5f:	48 8d 85 10 fd ff ff 	lea    -0x2f0(%rbp),%rax
    af66:	48 05 98 00 00 00    	add    $0x98,%rax
    af6c:	48 89 85 90 fc ff ff 	mov    %rax,-0x370(%rbp)
    af73:	48 8d 85 10 fd ff ff 	lea    -0x2f0(%rbp),%rax
    af7a:	48 05 98 00 00 00    	add    $0x98,%rax
    af80:	48 89 85 98 fc ff ff 	mov    %rax,-0x368(%rbp)
    af87:	48 8d 85 10 fd ff ff 	lea    -0x2f0(%rbp),%rax
    af8e:	48 05 98 00 00 00    	add    $0x98,%rax
    af94:	48 89 85 a0 fc ff ff 	mov    %rax,-0x360(%rbp)
    af9b:	48 8d 85 10 fd ff ff 	lea    -0x2f0(%rbp),%rax
    afa2:	48 05 98 00 00 00    	add    $0x98,%rax
    afa8:	48 89 85 a8 fc ff ff 	mov    %rax,-0x358(%rbp)
    afaf:	48 8d 85 10 fd ff ff 	lea    -0x2f0(%rbp),%rax
    afb6:	48 05 98 00 00 00    	add    $0x98,%rax
    afbc:	48 89 85 b0 fc ff ff 	mov    %rax,-0x350(%rbp)
    afc3:	48 8d 85 10 fd ff ff 	lea    -0x2f0(%rbp),%rax
    afca:	48 05 98 00 00 00    	add    $0x98,%rax
    afd0:	48 89 85 b8 fc ff ff 	mov    %rax,-0x348(%rbp)
    afd7:	48 c7 85 c0 fc ff ff 	movq   $0x0,-0x340(%rbp)
    afde:	00 00 00 00 
    afe2:	48 8d 85 10 fd ff ff 	lea    -0x2f0(%rbp),%rax
    afe9:	48 05 98 00 00 00    	add    $0x98,%rax
    afef:	48 89 85 c8 fc ff ff 	mov    %rax,-0x338(%rbp)
    aff6:	48 8d 85 10 fd ff ff 	lea    -0x2f0(%rbp),%rax
    affd:	48 05 98 00 00 00    	add    $0x98,%rax
    b003:	48 89 85 d0 fc ff ff 	mov    %rax,-0x330(%rbp)
    b00a:	48 8d 85 10 fd ff ff 	lea    -0x2f0(%rbp),%rax
    b011:	48 05 98 00 00 00    	add    $0x98,%rax
    b017:	48 89 85 d8 fc ff ff 	mov    %rax,-0x328(%rbp)
    b01e:	48 8d 85 10 fd ff ff 	lea    -0x2f0(%rbp),%rax
    b025:	48 05 98 00 00 00    	add    $0x98,%rax
    b02b:	48 89 85 e0 fc ff ff 	mov    %rax,-0x320(%rbp)
    b032:	48 8d 85 10 fd ff ff 	lea    -0x2f0(%rbp),%rax
    b039:	48 05 98 00 00 00    	add    $0x98,%rax
    b03f:	48 89 85 e8 fc ff ff 	mov    %rax,-0x318(%rbp)
    b046:	48 8d 85 10 fd ff ff 	lea    -0x2f0(%rbp),%rax
    b04d:	48 05 98 00 00 00    	add    $0x98,%rax
    b053:	48 89 85 f0 fc ff ff 	mov    %rax,-0x310(%rbp)
    b05a:	48 8d 85 10 fd ff ff 	lea    -0x2f0(%rbp),%rax
    b061:	48 05 98 00 00 00    	add    $0x98,%rax
    b067:	48 89 85 f8 fc ff ff 	mov    %rax,-0x308(%rbp)
    b06e:	48 8d 85 10 fd ff ff 	lea    -0x2f0(%rbp),%rax
    b075:	48 05 98 00 00 00    	add    $0x98,%rax
    b07b:	48 89 85 00 fd ff ff 	mov    %rax,-0x300(%rbp)
    b082:	48 8d 85 10 fd ff ff 	lea    -0x2f0(%rbp),%rax
    b089:	48 05 98 00 00 00    	add    $0x98,%rax
    b08f:	48 89 85 08 fd ff ff 	mov    %rax,-0x2f8(%rbp)
    b096:	48 8d 85 60 f9 ff ff 	lea    -0x6a0(%rbp),%rax
    b09d:	48 89 85 08 fa ff ff 	mov    %rax,-0x5f8(%rbp)
    b0a4:	c7 85 3c f9 ff ff f3 	movl   $0xbaf5cef3,-0x6c4(%rbp)
    b0ab:	ce f5 ba 
    b0ae:	48 8d 05 d3 0b 01 00 	lea    0x10bd3(%rip),%rax        # 1bc88 <g_1310>
    b0b5:	48 89 85 68 f9 ff ff 	mov    %rax,-0x698(%rbp)
    b0bc:	48 c7 85 70 f9 ff ff 	movq   $0x0,-0x690(%rbp)
    b0c3:	00 00 00 00 
    b0c7:	48 8d 85 70 f9 ff ff 	lea    -0x690(%rbp),%rax
    b0ce:	48 89 85 10 fa ff ff 	mov    %rax,-0x5f0(%rbp)
    b0d5:	48 c7 85 18 fa ff ff 	movq   $0x0,-0x5e8(%rbp)
    b0dc:	00 00 00 00 
    b0e0:	48 8d 85 68 f9 ff ff 	lea    -0x698(%rbp),%rax
    b0e7:	48 89 85 80 fb ff ff 	mov    %rax,-0x480(%rbp)
    b0ee:	48 8d 05 2b 20 01 00 	lea    0x1202b(%rip),%rax        # 1d120 <g_102>
    b0f5:	48 89 85 88 fb ff ff 	mov    %rax,-0x478(%rbp)
    b0fc:	48 8d 85 68 f9 ff ff 	lea    -0x698(%rbp),%rax
    b103:	48 89 85 90 fb ff ff 	mov    %rax,-0x470(%rbp)
    b10a:	48 8d 05 0f 20 01 00 	lea    0x1200f(%rip),%rax        # 1d120 <g_102>
    b111:	48 89 85 98 fb ff ff 	mov    %rax,-0x468(%rbp)
    b118:	48 8d 85 68 f9 ff ff 	lea    -0x698(%rbp),%rax
    b11f:	48 89 85 a0 fb ff ff 	mov    %rax,-0x460(%rbp)
    b126:	48 8d 05 f3 1f 01 00 	lea    0x11ff3(%rip),%rax        # 1d120 <g_102>
    b12d:	48 89 85 a8 fb ff ff 	mov    %rax,-0x458(%rbp)
    b134:	48 8d 85 68 f9 ff ff 	lea    -0x698(%rbp),%rax
    b13b:	48 89 85 b0 fb ff ff 	mov    %rax,-0x450(%rbp)
    b142:	48 8d 05 d7 1f 01 00 	lea    0x11fd7(%rip),%rax        # 1d120 <g_102>
    b149:	48 89 85 b8 fb ff ff 	mov    %rax,-0x448(%rbp)
    b150:	48 8d 85 68 f9 ff ff 	lea    -0x698(%rbp),%rax
    b157:	48 89 85 c0 fb ff ff 	mov    %rax,-0x440(%rbp)
    b15e:	c7 85 c8 f8 ff ff 00 	movl   $0x0,-0x738(%rbp)
    b165:	00 00 00 
    b168:	eb 1a                	jmp    b184 <func_14+0x834>
    b16a:	8b 85 c8 f8 ff ff    	mov    -0x738(%rbp),%eax
    b170:	48 98                	cltq   
    b172:	c7 84 85 c0 fa ff ff 	movl   $0xea064eaa,-0x540(%rbp,%rax,4)
    b179:	aa 4e 06 ea 
    b17d:	83 85 c8 f8 ff ff 01 	addl   $0x1,-0x738(%rbp)
    b184:	83 bd c8 f8 ff ff 03 	cmpl   $0x3,-0x738(%rbp)
    b18b:	7e dd                	jle    b16a <func_14+0x81a>
    b18d:	48 8b 85 a8 fd ff ff 	mov    -0x258(%rbp),%rax
    b194:	48 89 85 08 fa ff ff 	mov    %rax,-0x5f8(%rbp)
    b19b:	48 8b 85 08 fa ff ff 	mov    -0x5f8(%rbp),%rax
    b1a2:	48 89 85 90 f9 ff ff 	mov    %rax,-0x670(%rbp)
    b1a9:	66 c7 05 94 06 01 00 	movw   $0x1c,0x10694(%rip)        # 1b846 <g_244+0x26>
    b1b0:	1c 00 
    b1b2:	e9 91 00 00 00       	jmpq   b248 <func_14+0x8f8>
    b1b7:	66 c7 85 c2 f8 ff ff 	movw   $0xfffc,-0x73e(%rbp)
    b1be:	fc ff 
    b1c0:	c7 85 10 fb ff ff 2a 	movl   $0x19e9892a,-0x4f0(%rbp)
    b1c7:	89 e9 19 
    b1ca:	c7 85 14 fb ff ff 2a 	movl   $0x19e9892a,-0x4ec(%rbp)
    b1d1:	89 e9 19 
    b1d4:	c7 85 18 fb ff ff 2a 	movl   $0x19e9892a,-0x4e8(%rbp)
    b1db:	89 e9 19 
    b1de:	c7 85 1c fb ff ff 2a 	movl   $0x19e9892a,-0x4e4(%rbp)
    b1e5:	89 e9 19 
    b1e8:	c7 85 20 fb ff ff 2a 	movl   $0x19e9892a,-0x4e0(%rbp)
    b1ef:	89 e9 19 
    b1f2:	c7 85 24 fb ff ff 2a 	movl   $0x19e9892a,-0x4dc(%rbp)
    b1f9:	89 e9 19 
    b1fc:	c7 85 28 fb ff ff 2a 	movl   $0x19e9892a,-0x4d8(%rbp)
    b203:	89 e9 19 
    b206:	c7 85 2c fb ff ff 2a 	movl   $0x19e9892a,-0x4d4(%rbp)
    b20d:	89 e9 19 
    b210:	c7 85 30 fb ff ff 2a 	movl   $0x19e9892a,-0x4d0(%rbp)
    b217:	89 e9 19 
    b21a:	48 8d 05 17 01 01 00 	lea    0x10117(%rip),%rax        # 1b338 <g_57>
    b221:	48 89 85 20 fa ff ff 	mov    %rax,-0x5e0(%rbp)
    b228:	0f b7 05 17 06 01 00 	movzwl 0x10617(%rip),%eax        # 1b846 <g_244+0x26>
    b22f:	0f b6 c0             	movzbl %al,%eax
    b232:	be 01 00 00 00       	mov    $0x1,%esi
    b237:	89 c7                	mov    %eax,%edi
    b239:	e8 3a a9 ff ff       	callq  5b78 <safe_sub_func_uint8_t_u_u>
    b23e:	0f b6 c0             	movzbl %al,%eax
    b241:	66 89 05 fe 05 01 00 	mov    %ax,0x105fe(%rip)        # 1b846 <g_244+0x26>
    b248:	0f b7 05 f7 05 01 00 	movzwl 0x105f7(%rip),%eax        # 1b846 <g_244+0x26>
    b24f:	66 83 f8 16          	cmp    $0x16,%ax
    b253:	0f 8e 5e ff ff ff    	jle    b1b7 <func_14+0x867>
    b259:	e9 7a 0d 00 00       	jmpq   bfd8 <func_14+0x1688>
    b25e:	48 8d 05 db 1e 01 00 	lea    0x11edb(%rip),%rax        # 1d140 <g_335>
    b265:	48 89 85 60 f9 ff ff 	mov    %rax,-0x6a0(%rbp)
    b26c:	48 8d 85 60 f9 ff ff 	lea    -0x6a0(%rbp),%rax
    b273:	48 89 85 68 f9 ff ff 	mov    %rax,-0x698(%rbp)
    b27a:	48 8d 85 68 f9 ff ff 	lea    -0x698(%rbp),%rax
    b281:	48 89 85 a8 f9 ff ff 	mov    %rax,-0x658(%rbp)
    b288:	c7 85 ec f8 ff ff 18 	movl   $0xf0e10418,-0x714(%rbp)
    b28f:	04 e1 f0 
    b292:	48 8d 05 77 22 01 00 	lea    0x12277(%rip),%rax        # 1d510 <g_991>
    b299:	48 89 85 70 f9 ff ff 	mov    %rax,-0x690(%rbp)
    b2a0:	c7 85 f0 f8 ff ff 5c 	movl   $0x99b46f5c,-0x710(%rbp)
    b2a7:	6f b4 99 
    b2aa:	c7 85 10 fb ff ff fe 	movl   $0xfffffffe,-0x4f0(%rbp)
    b2b1:	ff ff ff 
    b2b4:	c7 85 14 fb ff ff e1 	movl   $0xa6c36e1,-0x4ec(%rbp)
    b2bb:	36 6c 0a 
    b2be:	c7 85 18 fb ff ff fe 	movl   $0xfffffffe,-0x4e8(%rbp)
    b2c5:	ff ff ff 
    b2c8:	c7 85 1c fb ff ff fe 	movl   $0xfffffffe,-0x4e4(%rbp)
    b2cf:	ff ff ff 
    b2d2:	c7 85 20 fb ff ff e1 	movl   $0xa6c36e1,-0x4e0(%rbp)
    b2d9:	36 6c 0a 
    b2dc:	c7 85 24 fb ff ff fe 	movl   $0xfffffffe,-0x4dc(%rbp)
    b2e3:	ff ff ff 
    b2e6:	c7 85 28 fb ff ff fe 	movl   $0xfffffffe,-0x4d8(%rbp)
    b2ed:	ff ff ff 
    b2f0:	c7 85 2c fb ff ff e1 	movl   $0xa6c36e1,-0x4d4(%rbp)
    b2f7:	36 6c 0a 
    b2fa:	c7 85 30 fb ff ff fe 	movl   $0xfffffffe,-0x4d0(%rbp)
    b301:	ff ff ff 
    b304:	c7 85 34 fb ff ff fe 	movl   $0xfffffffe,-0x4cc(%rbp)
    b30b:	ff ff ff 
    b30e:	c7 85 38 fb ff ff e1 	movl   $0xa6c36e1,-0x4c8(%rbp)
    b315:	36 6c 0a 
    b318:	c7 85 3c fb ff ff fe 	movl   $0xfffffffe,-0x4c4(%rbp)
    b31f:	ff ff ff 
    b322:	c7 85 40 fb ff ff fe 	movl   $0xfffffffe,-0x4c0(%rbp)
    b329:	ff ff ff 
    b32c:	c7 85 44 fb ff ff e1 	movl   $0xa6c36e1,-0x4bc(%rbp)
    b333:	36 6c 0a 
    b336:	c7 85 48 fb ff ff fe 	movl   $0xfffffffe,-0x4b8(%rbp)
    b33d:	ff ff ff 
    b340:	c7 85 4c fb ff ff fe 	movl   $0xfffffffe,-0x4b4(%rbp)
    b347:	ff ff ff 
    b34a:	c7 85 50 fb ff ff e1 	movl   $0xa6c36e1,-0x4b0(%rbp)
    b351:	36 6c 0a 
    b354:	c7 85 54 fb ff ff fe 	movl   $0xfffffffe,-0x4ac(%rbp)
    b35b:	ff ff ff 
    b35e:	c7 85 58 fb ff ff fe 	movl   $0xfffffffe,-0x4a8(%rbp)
    b365:	ff ff ff 
    b368:	c7 85 5c fb ff ff e1 	movl   $0xa6c36e1,-0x4a4(%rbp)
    b36f:	36 6c 0a 
    b372:	c7 85 60 fb ff ff fe 	movl   $0xfffffffe,-0x4a0(%rbp)
    b379:	ff ff ff 
    b37c:	c7 85 64 fb ff ff fe 	movl   $0xfffffffe,-0x49c(%rbp)
    b383:	ff ff ff 
    b386:	c7 85 68 fb ff ff e1 	movl   $0xa6c36e1,-0x498(%rbp)
    b38d:	36 6c 0a 
    b390:	c7 85 6c fb ff ff fe 	movl   $0xfffffffe,-0x494(%rbp)
    b397:	ff ff ff 
    b39a:	c7 85 70 fb ff ff fe 	movl   $0xfffffffe,-0x490(%rbp)
    b3a1:	ff ff ff 
    b3a4:	c7 85 74 fb ff ff e1 	movl   $0xa6c36e1,-0x48c(%rbp)
    b3ab:	36 6c 0a 
    b3ae:	c7 85 78 fb ff ff fe 	movl   $0xfffffffe,-0x488(%rbp)
    b3b5:	ff ff ff 
    b3b8:	c7 85 7c fb ff ff fe 	movl   $0xfffffffe,-0x484(%rbp)
    b3bf:	ff ff ff 
    b3c2:	c7 85 f4 f8 ff ff 16 	movl   $0xcf865116,-0x70c(%rbp)
    b3c9:	51 86 cf 
    b3cc:	66 c7 85 40 fa ff ff 	movw   $0xffff,-0x5c0(%rbp)
    b3d3:	ff ff 
    b3d5:	66 c7 85 42 fa ff ff 	movw   $0xffff,-0x5be(%rbp)
    b3dc:	ff ff 
    b3de:	66 c7 85 44 fa ff ff 	movw   $0xffff,-0x5bc(%rbp)
    b3e5:	ff ff 
    b3e7:	66 c7 85 46 fa ff ff 	movw   $0xffff,-0x5ba(%rbp)
    b3ee:	ff ff 
    b3f0:	66 c7 85 48 fa ff ff 	movw   $0xffff,-0x5b8(%rbp)
    b3f7:	ff ff 
    b3f9:	66 c7 85 4a fa ff ff 	movw   $0xffff,-0x5b6(%rbp)
    b400:	ff ff 
    b402:	66 c7 85 4c fa ff ff 	movw   $0xffff,-0x5b4(%rbp)
    b409:	ff ff 
    b40b:	66 c7 85 4e fa ff ff 	movw   $0xffff,-0x5b2(%rbp)
    b412:	ff ff 
    b414:	66 c7 85 50 fa ff ff 	movw   $0xffff,-0x5b0(%rbp)
    b41b:	ff ff 
    b41d:	66 c7 85 52 fa ff ff 	movw   $0xffff,-0x5ae(%rbp)
    b424:	ff ff 
    b426:	c7 85 cc f8 ff ff 00 	movl   $0x0,-0x734(%rbp)
    b42d:	00 00 00 
    b430:	eb 21                	jmp    b453 <func_14+0xb03>
    b432:	8b 85 cc f8 ff ff    	mov    -0x734(%rbp),%eax
    b438:	48 98                	cltq   
    b43a:	48 bb 49 6e a4 25 13 	movabs $0xbab6ea1325a46e49,%rbx
    b441:	ea b6 ba 
    b444:	48 89 9c c5 c0 fa ff 	mov    %rbx,-0x540(%rbp,%rax,8)
    b44b:	ff 
    b44c:	83 85 cc f8 ff ff 01 	addl   $0x1,-0x734(%rbp)
    b453:	83 bd cc f8 ff ff 08 	cmpl   $0x8,-0x734(%rbp)
    b45a:	7e d6                	jle    b432 <func_14+0xae2>
    b45c:	48 c7 05 17 08 01 00 	movq   $0x0,0x10817(%rip)        # 1bc7e <g_1212+0x1e>
    b463:	00 00 00 00 
    b467:	eb 28                	jmp    b491 <func_14+0xb41>
    b469:	48 8b 05 0e 08 01 00 	mov    0x1080e(%rip),%rax        # 1bc7e <g_1212+0x1e>
    b470:	48 8d 15 a9 1c 01 00 	lea    0x11ca9(%rip),%rdx        # 1d120 <g_102>
    b477:	48 89 94 c5 28 fa ff 	mov    %rdx,-0x5d8(%rbp,%rax,8)
    b47e:	ff 
    b47f:	48 8b 05 f8 07 01 00 	mov    0x107f8(%rip),%rax        # 1bc7e <g_1212+0x1e>
    b486:	48 83 c0 01          	add    $0x1,%rax
    b48a:	48 89 05 ed 07 01 00 	mov    %rax,0x107ed(%rip)        # 1bc7e <g_1212+0x1e>
    b491:	48 8b 05 e6 07 01 00 	mov    0x107e6(%rip),%rax        # 1bc7e <g_1212+0x1e>
    b498:	48 85 c0             	test   %rax,%rax
    b49b:	74 cc                	je     b469 <func_14+0xb19>
    b49d:	90                   	nop
    b49e:	48 8b 95 68 f9 ff ff 	mov    -0x698(%rbp),%rdx
    b4a5:	48 8b 85 a8 f9 ff ff 	mov    -0x658(%rbp),%rax
    b4ac:	48 89 10             	mov    %rdx,(%rax)
    b4af:	48 8b 05 6a 1c 01 00 	mov    0x11c6a(%rip),%rax        # 1d120 <g_102>
    b4b6:	8b 08                	mov    (%rax),%ecx
    b4b8:	0f b6 95 a4 f8 ff ff 	movzbl -0x75c(%rbp),%edx
    b4bf:	48 8b 05 5a 1c 01 00 	mov    0x11c5a(%rip),%rax        # 1d120 <g_102>
    b4c6:	09 ca                	or     %ecx,%edx
    b4c8:	89 10                	mov    %edx,(%rax)
    b4ca:	48 c7 05 b9 03 01 00 	movq   $0x9,0x103b9(%rip)        # 1b88e <g_517+0xe>
    b4d1:	09 00 00 00 
    b4d5:	e9 ee 0a 00 00       	jmpq   bfc8 <func_14+0x1678>
    b4da:	c6 85 bc f8 ff ff 09 	movb   $0x9,-0x744(%rbp)
    b4e1:	c6 85 bd f8 ff ff 05 	movb   $0x5,-0x743(%rbp)
    b4e8:	c7 85 f8 f8 ff ff 00 	movl   $0x0,-0x708(%rbp)
    b4ef:	00 00 00 
    b4f2:	c7 85 fc f8 ff ff ff 	movl   $0xffffffff,-0x704(%rbp)
    b4f9:	ff ff ff 
    b4fc:	c7 85 00 f9 ff ff ff 	movl   $0xffffffff,-0x700(%rbp)
    b503:	ff ff ff 
    b506:	c7 85 04 f9 ff ff d2 	movl   $0xd6785ad2,-0x6fc(%rbp)
    b50d:	5a 78 d6 
    b510:	48 8d 85 10 fd ff ff 	lea    -0x2f0(%rbp),%rax
    b517:	48 8d 15 42 be 00 00 	lea    0xbe42(%rip),%rdx        # 17360 <g_2389+0x298>
    b51e:	b9 57 00 00 00       	mov    $0x57,%ecx
    b523:	48 89 c7             	mov    %rax,%rdi
    b526:	48 89 d6             	mov    %rdx,%rsi
    b529:	f3 48 a5             	rep movsq %ds:(%rsi),%es:(%rdi)
    b52c:	48 89 f2             	mov    %rsi,%rdx
    b52f:	48 89 f8             	mov    %rdi,%rax
    b532:	8b 0a                	mov    (%rdx),%ecx
    b534:	89 08                	mov    %ecx,(%rax)
    b536:	48 8d 40 04          	lea    0x4(%rax),%rax
    b53a:	48 8d 52 04          	lea    0x4(%rdx),%rdx
    b53e:	66 c7 85 be f8 ff ff 	movw   $0xa338,-0x742(%rbp)
    b545:	38 a3 
    b547:	66 c7 85 c0 f8 ff ff 	movw   $0xdf41,-0x740(%rbp)
    b54e:	41 df 
    b550:	c7 85 c4 f8 ff ff ab 	movl   $0xe49f1ab,-0x73c(%rbp)
    b557:	f1 49 0e 
    b55a:	48 8d 05 3d 03 01 00 	lea    0x1033d(%rip),%rax        # 1b89e <g_517+0x1e>
    b561:	48 89 85 b0 f9 ff ff 	mov    %rax,-0x650(%rbp)
    b568:	c7 85 d4 f8 ff ff 00 	movl   $0x0,-0x72c(%rbp)
    b56f:	00 00 00 
    b572:	eb 52                	jmp    b5c6 <func_14+0xc76>
    b574:	c7 85 d8 f8 ff ff 00 	movl   $0x0,-0x728(%rbp)
    b57b:	00 00 00 
    b57e:	eb 36                	jmp    b5b6 <func_14+0xc66>
    b580:	8b 85 d8 f8 ff ff    	mov    -0x728(%rbp),%eax
    b586:	48 63 c8             	movslq %eax,%rcx
    b589:	8b 85 d4 f8 ff ff    	mov    -0x72c(%rbp),%eax
    b58f:	48 63 d0             	movslq %eax,%rdx
    b592:	48 89 d0             	mov    %rdx,%rax
    b595:	48 c1 e0 03          	shl    $0x3,%rax
    b599:	48 29 d0             	sub    %rdx,%rax
    b59c:	48 8d 14 08          	lea    (%rax,%rcx,1),%rdx
    b5a0:	48 8d 85 70 f9 ff ff 	lea    -0x690(%rbp),%rax
    b5a7:	48 89 84 d5 80 fb ff 	mov    %rax,-0x480(%rbp,%rdx,8)
    b5ae:	ff 
    b5af:	83 85 d8 f8 ff ff 01 	addl   $0x1,-0x728(%rbp)
    b5b6:	83 bd d8 f8 ff ff 06 	cmpl   $0x6,-0x728(%rbp)
    b5bd:	7e c1                	jle    b580 <func_14+0xc30>
    b5bf:	83 85 d4 f8 ff ff 01 	addl   $0x1,-0x72c(%rbp)
    b5c6:	83 bd d4 f8 ff ff 01 	cmpl   $0x1,-0x72c(%rbp)
    b5cd:	7e a5                	jle    b574 <func_14+0xc24>
    b5cf:	48 c7 05 64 02 01 00 	movq   $0x0,0x10264(%rip)        # 1b83e <g_244+0x1e>
    b5d6:	00 00 00 00 
    b5da:	e9 cd 06 00 00       	jmpq   bcac <func_14+0x135c>
    b5df:	48 c7 85 d0 f9 ff ff 	movq   $0x0,-0x630(%rbp)
    b5e6:	00 00 00 00 
    b5ea:	c7 85 0c f9 ff ff ff 	movl   $0xffffffff,-0x6f4(%rbp)
    b5f1:	ff ff ff 
    b5f4:	c7 85 10 f9 ff ff f8 	movl   $0xfffffff8,-0x6f0(%rbp)
    b5fb:	ff ff ff 
    b5fe:	c7 85 14 f9 ff ff 4a 	movl   $0x26892b4a,-0x6ec(%rbp)
    b605:	2b 89 26 
    b608:	c7 85 18 f9 ff ff d7 	movl   $0xde4a92d7,-0x6e8(%rbp)
    b60f:	92 4a de 
    b612:	c7 85 1c f9 ff ff 16 	movl   $0x188c8916,-0x6e4(%rbp)
    b619:	89 8c 18 
    b61c:	c7 85 20 f9 ff ff 01 	movl   $0x1,-0x6e0(%rbp)
    b623:	00 00 00 
    b626:	c7 85 24 f9 ff ff 5a 	movl   $0xa9b3805a,-0x6dc(%rbp)
    b62d:	80 b3 a9 
    b630:	c7 85 28 f9 ff ff fb 	movl   $0xfffffffb,-0x6d8(%rbp)
    b637:	ff ff ff 
    b63a:	c7 85 2c f9 ff ff f9 	movl   $0xfffffff9,-0x6d4(%rbp)
    b641:	ff ff ff 
    b644:	c7 85 30 f9 ff ff 1f 	movl   $0x9cfeea1f,-0x6d0(%rbp)
    b64b:	ea fe 9c 
    b64e:	c7 85 34 f9 ff ff 00 	movl   $0x0,-0x6cc(%rbp)
    b655:	00 00 00 
    b658:	c7 85 80 fa ff ff 00 	movl   $0x0,-0x580(%rbp)
    b65f:	00 00 00 
    b662:	c7 85 84 fa ff ff fe 	movl   $0x8f9b47fe,-0x57c(%rbp)
    b669:	47 9b 8f 
    b66c:	c7 85 88 fa ff ff fe 	movl   $0x8f9b47fe,-0x578(%rbp)
    b673:	47 9b 8f 
    b676:	c7 85 8c fa ff ff 00 	movl   $0x0,-0x574(%rbp)
    b67d:	00 00 00 
    b680:	c7 85 90 fa ff ff fe 	movl   $0x8f9b47fe,-0x570(%rbp)
    b687:	47 9b 8f 
    b68a:	c7 85 94 fa ff ff fe 	movl   $0x8f9b47fe,-0x56c(%rbp)
    b691:	47 9b 8f 
    b694:	48 8b 05 a3 01 01 00 	mov    0x101a3(%rip),%rax        # 1b83e <g_244+0x1e>
    b69b:	48 85 c0             	test   %rax,%rax
    b69e:	74 05                	je     b6a5 <func_14+0xd55>
    b6a0:	e9 f9 fd ff ff       	jmpq   b49e <func_14+0xb4e>
    b6a5:	80 bd bc f8 ff ff 00 	cmpb   $0x0,-0x744(%rbp)
    b6ac:	0f 85 e7 05 00 00    	jne    bc99 <func_14+0x1349>
    b6b2:	48 c7 05 31 06 01 00 	movq   $0x0,0x10631(%rip)        # 1bcee <g_1512+0xe>
    b6b9:	00 00 00 00 
    b6bd:	90                   	nop
    b6be:	48 8b 05 29 06 01 00 	mov    0x10629(%rip),%rax        # 1bcee <g_1512+0xe>
    b6c5:	48 85 c0             	test   %rax,%rax
    b6c8:	0f 88 cc 05 00 00    	js     bc9a <func_14+0x134a>
    b6ce:	48 8d 05 c3 24 01 00 	lea    0x124c3(%rip),%rax        # 1db98 <g_2145+0x18>
    b6d5:	48 89 85 d8 f9 ff ff 	mov    %rax,-0x628(%rbp)
    b6dc:	48 8d 45 d0          	lea    -0x30(%rbp),%rax
    b6e0:	48 89 85 e0 f9 ff ff 	mov    %rax,-0x620(%rbp)
    b6e7:	48 8d 05 0a 01 01 00 	lea    0x1010a(%rip),%rax        # 1b7f8 <g_147>
    b6ee:	48 89 85 e8 f9 ff ff 	mov    %rax,-0x618(%rbp)
    b6f5:	48 c7 85 f0 f9 ff ff 	movq   $0x0,-0x610(%rbp)
    b6fc:	00 00 00 00 
    b700:	48 c7 85 f8 f9 ff ff 	movq   $0x0,-0x608(%rbp)
    b707:	00 00 00 00 
    b70b:	c7 85 38 f9 ff ff e8 	movl   $0x8d4703e8,-0x6c8(%rbp)
    b712:	03 47 8d 
    b715:	c7 85 f0 fb ff ff d2 	movl   $0x1cbd7ed2,-0x410(%rbp)
    b71c:	7e bd 1c 
    b71f:	c7 85 f4 fb ff ff 00 	movl   $0x0,-0x40c(%rbp)
    b726:	00 00 00 
    b729:	c7 85 f8 fb ff ff 00 	movl   $0x0,-0x408(%rbp)
    b730:	00 00 00 
    b733:	c7 85 fc fb ff ff d2 	movl   $0x1cbd7ed2,-0x404(%rbp)
    b73a:	7e bd 1c 
    b73d:	c7 85 00 fc ff ff 00 	movl   $0x0,-0x400(%rbp)
    b744:	00 00 00 
    b747:	c7 85 04 fc ff ff 00 	movl   $0x0,-0x3fc(%rbp)
    b74e:	00 00 00 
    b751:	c7 85 08 fc ff ff d2 	movl   $0x1cbd7ed2,-0x3f8(%rbp)
    b758:	7e bd 1c 
    b75b:	c7 85 0c fc ff ff 00 	movl   $0x0,-0x3f4(%rbp)
    b762:	00 00 00 
    b765:	c7 85 10 fc ff ff d2 	movl   $0x1cbd7ed2,-0x3f0(%rbp)
    b76c:	7e bd 1c 
    b76f:	c7 85 14 fc ff ff 00 	movl   $0x0,-0x3ec(%rbp)
    b776:	00 00 00 
    b779:	c7 85 18 fc ff ff 00 	movl   $0x0,-0x3e8(%rbp)
    b780:	00 00 00 
    b783:	c7 85 1c fc ff ff d2 	movl   $0x1cbd7ed2,-0x3e4(%rbp)
    b78a:	7e bd 1c 
    b78d:	c7 85 20 fc ff ff 00 	movl   $0x0,-0x3e0(%rbp)
    b794:	00 00 00 
    b797:	c7 85 24 fc ff ff 00 	movl   $0x0,-0x3dc(%rbp)
    b79e:	00 00 00 
    b7a1:	c7 85 28 fc ff ff d2 	movl   $0x1cbd7ed2,-0x3d8(%rbp)
    b7a8:	7e bd 1c 
    b7ab:	c7 85 2c fc ff ff d2 	movl   $0x1cbd7ed2,-0x3d4(%rbp)
    b7b2:	7e bd 1c 
    b7b5:	c7 85 30 fc ff ff fb 	movl   $0xfffffffb,-0x3d0(%rbp)
    b7bc:	ff ff ff 
    b7bf:	c7 85 34 fc ff ff d2 	movl   $0x1cbd7ed2,-0x3cc(%rbp)
    b7c6:	7e bd 1c 
    b7c9:	c7 85 38 fc ff ff d2 	movl   $0x1cbd7ed2,-0x3c8(%rbp)
    b7d0:	7e bd 1c 
    b7d3:	c7 85 3c fc ff ff fb 	movl   $0xfffffffb,-0x3c4(%rbp)
    b7da:	ff ff ff 
    b7dd:	c7 85 40 fc ff ff d2 	movl   $0x1cbd7ed2,-0x3c0(%rbp)
    b7e4:	7e bd 1c 
    b7e7:	c7 85 44 fc ff ff d2 	movl   $0x1cbd7ed2,-0x3bc(%rbp)
    b7ee:	7e bd 1c 
    b7f1:	c7 85 48 fc ff ff 00 	movl   $0x0,-0x3b8(%rbp)
    b7f8:	00 00 00 
    b7fb:	c7 85 4c fc ff ff 00 	movl   $0x0,-0x3b4(%rbp)
    b802:	00 00 00 
    b805:	c7 85 50 fc ff ff d2 	movl   $0x1cbd7ed2,-0x3b0(%rbp)
    b80c:	7e bd 1c 
    b80f:	c7 85 54 fc ff ff 00 	movl   $0x0,-0x3ac(%rbp)
    b816:	00 00 00 
    b819:	c7 85 58 fc ff ff 00 	movl   $0x0,-0x3a8(%rbp)
    b820:	00 00 00 
    b823:	c7 85 5c fc ff ff d2 	movl   $0x1cbd7ed2,-0x3a4(%rbp)
    b82a:	7e bd 1c 
    b82d:	c7 85 60 fc ff ff 00 	movl   $0x0,-0x3a0(%rbp)
    b834:	00 00 00 
    b837:	c7 85 64 fc ff ff d2 	movl   $0x1cbd7ed2,-0x39c(%rbp)
    b83e:	7e bd 1c 
    b841:	c7 85 68 fc ff ff 00 	movl   $0x0,-0x398(%rbp)
    b848:	00 00 00 
    b84b:	c7 85 6c fc ff ff 00 	movl   $0x0,-0x394(%rbp)
    b852:	00 00 00 
    b855:	c7 85 70 fc ff ff d2 	movl   $0x1cbd7ed2,-0x390(%rbp)
    b85c:	7e bd 1c 
    b85f:	c7 85 74 fc ff ff 00 	movl   $0x0,-0x38c(%rbp)
    b866:	00 00 00 
    b869:	c7 85 78 fc ff ff 00 	movl   $0x0,-0x388(%rbp)
    b870:	00 00 00 
    b873:	c7 85 7c fc ff ff d2 	movl   $0x1cbd7ed2,-0x384(%rbp)
    b87a:	7e bd 1c 
    b87d:	c7 85 80 fc ff ff d2 	movl   $0x1cbd7ed2,-0x380(%rbp)
    b884:	7e bd 1c 
    b887:	c7 85 84 fc ff ff fb 	movl   $0xfffffffb,-0x37c(%rbp)
    b88e:	ff ff ff 
    b891:	c7 85 88 fc ff ff d2 	movl   $0x1cbd7ed2,-0x378(%rbp)
    b898:	7e bd 1c 
    b89b:	c7 85 8c fc ff ff d2 	movl   $0x1cbd7ed2,-0x374(%rbp)
    b8a2:	7e bd 1c 
    b8a5:	c7 85 90 fc ff ff fb 	movl   $0xfffffffb,-0x370(%rbp)
    b8ac:	ff ff ff 
    b8af:	c7 85 94 fc ff ff d2 	movl   $0x1cbd7ed2,-0x36c(%rbp)
    b8b6:	7e bd 1c 
    b8b9:	c7 85 98 fc ff ff d2 	movl   $0x1cbd7ed2,-0x368(%rbp)
    b8c0:	7e bd 1c 
    b8c3:	c7 85 9c fc ff ff 00 	movl   $0x0,-0x364(%rbp)
    b8ca:	00 00 00 
    b8cd:	c7 85 a0 fc ff ff 00 	movl   $0x0,-0x360(%rbp)
    b8d4:	00 00 00 
    b8d7:	c7 85 a4 fc ff ff d2 	movl   $0x1cbd7ed2,-0x35c(%rbp)
    b8de:	7e bd 1c 
    b8e1:	c7 85 a8 fc ff ff 00 	movl   $0x0,-0x358(%rbp)
    b8e8:	00 00 00 
    b8eb:	c7 85 ac fc ff ff 00 	movl   $0x0,-0x354(%rbp)
    b8f2:	00 00 00 
    b8f5:	c7 85 b0 fc ff ff d2 	movl   $0x1cbd7ed2,-0x350(%rbp)
    b8fc:	7e bd 1c 
    b8ff:	c7 85 b4 fc ff ff 00 	movl   $0x0,-0x34c(%rbp)
    b906:	00 00 00 
    b909:	c7 85 b8 fc ff ff d2 	movl   $0x1cbd7ed2,-0x348(%rbp)
    b910:	7e bd 1c 
    b913:	c7 85 bc fc ff ff 00 	movl   $0x0,-0x344(%rbp)
    b91a:	00 00 00 
    b91d:	c7 85 c0 fc ff ff 00 	movl   $0x0,-0x340(%rbp)
    b924:	00 00 00 
    b927:	c7 85 c4 fc ff ff d2 	movl   $0x1cbd7ed2,-0x33c(%rbp)
    b92e:	7e bd 1c 
    b931:	c7 85 c8 fc ff ff 00 	movl   $0x0,-0x338(%rbp)
    b938:	00 00 00 
    b93b:	c7 85 cc fc ff ff 00 	movl   $0x0,-0x334(%rbp)
    b942:	00 00 00 
    b945:	c7 85 a0 fa ff ff 73 	movl   $0xff145b73,-0x560(%rbp)
    b94c:	5b 14 ff 
    b94f:	66 c7 85 a4 fa ff ff 	movw   $0x4b4b,-0x55c(%rbp)
    b956:	4b 4b 
    b958:	c7 85 a6 fa ff ff 5b 	movl   $0x5b15155b,-0x55a(%rbp)
    b95f:	15 15 5b 
    b962:	66 c7 85 aa fa ff ff 	movw   $0x4b01,-0x556(%rbp)
    b969:	01 4b 
    b96b:	c7 85 ac fa ff ff 03 	movl   $0x144b03,-0x554(%rbp)
    b972:	4b 14 00 
    b975:	66 c7 85 b0 fa ff ff 	movw   $0xff,-0x550(%rbp)
    b97c:	ff 00 
    b97e:	c7 85 b2 fa ff ff 01 	movl   $0x14010101,-0x54e(%rbp)
    b985:	01 01 14 
    b988:	66 c7 85 b6 fa ff ff 	movw   $0x73ff,-0x54a(%rbp)
    b98f:	ff 73 
    b991:	c7 85 b8 fa ff ff 14 	movl   $0x1034b14,-0x548(%rbp)
    b998:	4b 03 01 
    b99b:	66 c7 85 bc fa ff ff 	movw   $0x301,-0x544(%rbp)
    b9a2:	01 03 
    b9a4:	48 8b 15 dd 21 01 00 	mov    0x121dd(%rip),%rdx        # 1db88 <g_2145+0x8>
    b9ab:	48 8b 85 d8 f9 ff ff 	mov    -0x628(%rbp),%rax
    b9b2:	48 89 10             	mov    %rdx,(%rax)
    b9b5:	48 8b 85 d8 f9 ff ff 	mov    -0x628(%rbp),%rax
    b9bc:	48 8b 00             	mov    (%rax),%rax
    b9bf:	48 85 c0             	test   %rax,%rax
    b9c2:	0f 94 c0             	sete   %al
    b9c5:	0f b6 c0             	movzbl %al,%eax
    b9c8:	89 c7                	mov    %eax,%edi
    b9ca:	e8 ce 99 ff ff       	callq  539d <safe_unary_minus_func_int16_t_s>
    b9cf:	89 c2                	mov    %eax,%edx
    b9d1:	48 8b 05 16 03 01 00 	mov    0x10316(%rip),%rax        # 1bcee <g_1512+0xe>
    b9d8:	48 83 c0 02          	add    $0x2,%rax
    b9dc:	0f bf ca             	movswl %dx,%ecx
    b9df:	48 8d 14 85 00 00 00 	lea    0x0(,%rax,4),%rdx
    b9e6:	00 
    b9e7:	48 8d 35 e2 03 01 00 	lea    0x103e2(%rip),%rsi        # 1bdd0 <g_2096>
    b9ee:	89 0c 32             	mov    %ecx,(%rdx,%rsi,1)
    b9f1:	48 8b 15 70 21 01 00 	mov    0x12170(%rip),%rdx        # 1db68 <g_1636>
    b9f8:	48 8d 0c 85 00 00 00 	lea    0x0(,%rax,4),%rcx
    b9ff:	00 
    ba00:	48 8d 05 c9 03 01 00 	lea    0x103c9(%rip),%rax        # 1bdd0 <g_2096>
    ba07:	8b 04 01             	mov    (%rcx,%rax,1),%eax
    ba0a:	89 02                	mov    %eax,(%rdx)
    ba0c:	0f b7 05 73 02 01 00 	movzwl 0x10273(%rip),%eax        # 1bc86 <g_1212+0x26>
    ba13:	0f bf d8             	movswl %ax,%ebx
    ba16:	48 8b 85 e0 f9 ff ff 	mov    -0x620(%rbp),%rax
    ba1d:	0f b6 00             	movzbl (%rax),%eax
    ba20:	8d 50 01             	lea    0x1(%rax),%edx
    ba23:	48 8b 85 e0 f9 ff ff 	mov    -0x620(%rbp),%rax
    ba2a:	88 10                	mov    %dl,(%rax)
    ba2c:	48 8b 85 e0 f9 ff ff 	mov    -0x620(%rbp),%rax
    ba33:	0f b6 10             	movzbl (%rax),%edx
    ba36:	48 8b 85 e8 f9 ff ff 	mov    -0x618(%rbp),%rax
    ba3d:	0f b6 00             	movzbl (%rax),%eax
    ba40:	21 c2                	and    %eax,%edx
    ba42:	48 8b 85 e8 f9 ff ff 	mov    -0x618(%rbp),%rax
    ba49:	88 10                	mov    %dl,(%rax)
    ba4b:	48 8b 85 e8 f9 ff ff 	mov    -0x618(%rbp),%rax
    ba52:	0f b6 00             	movzbl (%rax),%eax
    ba55:	44 0f b6 e8          	movzbl %al,%r13d
    ba59:	48 8b 05 8e 02 01 00 	mov    0x1028e(%rip),%rax        # 1bcee <g_1512+0xe>
    ba60:	48 83 c0 02          	add    $0x2,%rax
    ba64:	48 8d 14 85 00 00 00 	lea    0x0(,%rax,4),%rdx
    ba6b:	00 
    ba6c:	48 8d 05 5d 03 01 00 	lea    0x1035d(%rip),%rax        # 1bdd0 <g_2096>
    ba73:	8b 04 02             	mov    (%rdx,%rax,1),%eax
    ba76:	85 c0                	test   %eax,%eax
    ba78:	0f 84 a5 01 00 00    	je     bc23 <func_14+0x12d3>
    ba7e:	0f b6 85 a4 f8 ff ff 	movzbl -0x75c(%rbp),%eax
    ba85:	83 e8 01             	sub    $0x1,%eax
    ba88:	88 85 a4 f8 ff ff    	mov    %al,-0x75c(%rbp)
    ba8e:	44 0f b6 a5 bd f8 ff 	movzbl -0x743(%rbp),%r12d
    ba95:	ff 
    ba96:	80 ad a4 f8 ff ff 01 	subb   $0x1,-0x75c(%rbp)
    ba9d:	48 8b 05 bc 16 01 00 	mov    0x116bc(%rip),%rax        # 1d160 <g_446>
    baa4:	48 8b 00             	mov    (%rax),%rax
    baa7:	89 c2                	mov    %eax,%edx
    baa9:	66 83 bd a0 f8 ff ff 	cmpw   $0x1,-0x760(%rbp)
    bab0:	01 
    bab1:	0f 9e c0             	setle  %al
    bab4:	09 d0                	or     %edx,%eax
    bab6:	0f b6 c0             	movzbl %al,%eax
    bab9:	be b0 00 00 00       	mov    $0xb0,%esi
    babe:	89 c7                	mov    %eax,%edi
    bac0:	e8 16 a1 ff ff       	callq  5bdb <safe_div_func_uint8_t_u_u>
    bac5:	0f b6 d0             	movzbl %al,%edx
    bac8:	0f bf 85 a8 f8 ff ff 	movswl -0x758(%rbp),%eax
    bacf:	39 c2                	cmp    %eax,%edx
    bad1:	0f 9d c0             	setge  %al
    bad4:	0f b6 c0             	movzbl %al,%eax
    bad7:	89 85 f0 f8 ff ff    	mov    %eax,-0x710(%rbp)
    badd:	0f b6 85 bd f8 ff ff 	movzbl -0x743(%rbp),%eax
    bae4:	33 85 f0 f8 ff ff    	xor    -0x710(%rbp),%eax
    baea:	39 85 ec f8 ff ff    	cmp    %eax,-0x714(%rbp)
    baf0:	0f 9d c0             	setge  %al
    baf3:	0f b6 c0             	movzbl %al,%eax
    baf6:	39 85 ac f8 ff ff    	cmp    %eax,-0x754(%rbp)
    bafc:	0f 94 c0             	sete   %al
    baff:	0f b6 d0             	movzbl %al,%edx
    bb02:	0f b6 85 bc f8 ff ff 	movzbl -0x744(%rbp),%eax
    bb09:	0f b6 c0             	movzbl %al,%eax
    bb0c:	89 d6                	mov    %edx,%esi
    bb0e:	89 c7                	mov    %eax,%edi
    bb10:	e8 7e a0 ff ff       	callq  5b93 <safe_mul_func_uint8_t_u_u>
    bb15:	83 bd ac f8 ff ff 00 	cmpl   $0x0,-0x754(%rbp)
    bb1c:	74 07                	je     bb25 <func_14+0x11d5>
    bb1e:	83 bd ec f8 ff ff 00 	cmpl   $0x0,-0x714(%rbp)
    bb25:	48 8b 05 c2 01 01 00 	mov    0x101c2(%rip),%rax        # 1bcee <g_1512+0xe>
    bb2c:	48 83 c0 02          	add    $0x2,%rax
    bb30:	48 8d 14 85 00 00 00 	lea    0x0(,%rax,4),%rdx
    bb37:	00 
    bb38:	48 8d 05 91 02 01 00 	lea    0x10291(%rip),%rax        # 1bdd0 <g_2096>
    bb3f:	8b 04 02             	mov    (%rdx,%rax,1),%eax
    bb42:	85 c0                	test   %eax,%eax
    bb44:	74 07                	je     bb4d <func_14+0x11fd>
    bb46:	be 01 00 00 00       	mov    $0x1,%esi
    bb4b:	eb 05                	jmp    bb52 <func_14+0x1202>
    bb4d:	be 00 00 00 00       	mov    $0x0,%esi
    bb52:	48 8b 05 95 01 01 00 	mov    0x10195(%rip),%rax        # 1bcee <g_1512+0xe>
    bb59:	48 83 c0 02          	add    $0x2,%rax
    bb5d:	48 8d 14 85 00 00 00 	lea    0x0(,%rax,4),%rdx
    bb64:	00 
    bb65:	48 8d 0d 64 02 01 00 	lea    0x10264(%rip),%rcx        # 1bdd0 <g_2096>
    bb6c:	89 34 0a             	mov    %esi,(%rdx,%rcx,1)
    bb6f:	48 8d 14 85 00 00 00 	lea    0x0(,%rax,4),%rdx
    bb76:	00 
    bb77:	48 8d 05 52 02 01 00 	lea    0x10252(%rip),%rax        # 1bdd0 <g_2096>
    bb7e:	8b 04 02             	mov    (%rdx,%rax,1),%eax
    bb81:	98                   	cwtl   
    bb82:	be ff ff ff ff       	mov    $0xffffffff,%esi
    bb87:	89 c7                	mov    %eax,%edi
    bb89:	e8 c7 98 ff ff       	callq  5455 <safe_div_func_int16_t_s_s>
    bb8e:	0f b6 85 a4 f8 ff ff 	movzbl -0x75c(%rbp),%eax
    bb95:	4c 89 e6             	mov    %r12,%rsi
    bb98:	48 89 c7             	mov    %rax,%rdi
    bb9b:	e8 e0 a4 ff ff       	callq  6080 <safe_mod_func_uint64_t_u_u>
    bba0:	81 bd ac f8 ff ff ff 	cmpl   $0xffff,-0x754(%rbp)
    bba7:	ff 00 00 
    bbaa:	0f 95 c0             	setne  %al
    bbad:	0f b6 c0             	movzbl %al,%eax
    bbb0:	89 c7                	mov    %eax,%edi
    bbb2:	e8 08 96 ff ff       	callq  51bf <safe_unary_minus_func_int8_t_s>
    bbb7:	48 8b 05 30 01 01 00 	mov    0x10130(%rip),%rax        # 1bcee <g_1512+0xe>
    bbbe:	48 83 c0 02          	add    $0x2,%rax
    bbc2:	48 8d 14 85 00 00 00 	lea    0x0(,%rax,4),%rdx
    bbc9:	00 
    bbca:	48 8d 05 ff 01 01 00 	lea    0x101ff(%rip),%rax        # 1bdd0 <g_2096>
    bbd1:	8b 04 02             	mov    (%rdx,%rax,1),%eax
    bbd4:	48 98                	cltq   
    bbd6:	48 be 3f 51 3f e6 c9 	movabs $0x3d68e7c9e63f513f,%rsi
    bbdd:	e7 68 3d 
    bbe0:	48 89 c7             	mov    %rax,%rdi
    bbe3:	e8 59 9c ff ff       	callq  5841 <safe_add_func_int64_t_s_s>
    bbe8:	8b 85 ec f8 ff ff    	mov    -0x714(%rbp),%eax
    bbee:	83 e0 01             	and    $0x1,%eax
    bbf1:	3d fa c0 00 00       	cmp    $0xc0fa,%eax
    bbf6:	0f 9f c0             	setg   %al
    bbf9:	0f b6 c0             	movzbl %al,%eax
    bbfc:	be 75 00 00 00       	mov    $0x75,%esi
    bc01:	89 c7                	mov    %eax,%edi
    bc03:	e8 70 9f ff ff       	callq  5b78 <safe_sub_func_uint8_t_u_u>
    bc08:	66 83 bd a8 f8 ff ff 	cmpw   $0x0,-0x758(%rbp)
    bc0f:	00 
    bc10:	0f 9e c2             	setle  %dl
    bc13:	48 8d 05 12 fd 00 00 	lea    0xfd12(%rip),%rax        # 1b92c <g_924>
    bc1a:	0f b6 d2             	movzbl %dl,%edx
    bc1d:	89 10                	mov    %edx,(%rax)
    bc1f:	8b 00                	mov    (%rax),%eax
    bc21:	85 c0                	test   %eax,%eax
    bc23:	0f b7 85 a8 f8 ff ff 	movzwl -0x758(%rbp),%eax
    bc2a:	0f be c0             	movsbl %al,%eax
    bc2d:	8b 95 0c f9 ff ff    	mov    -0x6f4(%rbp),%edx
    bc33:	89 d6                	mov    %edx,%esi
    bc35:	89 c7                	mov    %eax,%edi
    bc37:	e8 30 97 ff ff       	callq  536c <safe_rshift_func_int8_t_s_u>
    bc3c:	0f be c0             	movsbl %al,%eax
    bc3f:	be 28 88 43 93       	mov    $0x93438828,%esi
    bc44:	89 c7                	mov    %eax,%edi
    bc46:	e8 81 9a ff ff       	callq  56cc <safe_mod_func_int32_t_s_s>
    bc4b:	0f bf 95 a8 f8 ff ff 	movswl -0x758(%rbp),%edx
    bc52:	39 d0                	cmp    %edx,%eax
    bc54:	74 07                	je     bc5d <func_14+0x130d>
    bc56:	b8 8d 4f 6e 60       	mov    $0x606e4f8d,%eax
    bc5b:	eb 05                	jmp    bc62 <func_14+0x1312>
    bc5d:	b8 8c 4f 6e 60       	mov    $0x606e4f8c,%eax
    bc62:	4c 39 e8             	cmp    %r13,%rax
    bc65:	0f 9f c0             	setg   %al
    bc68:	0f b6 c0             	movzbl %al,%eax
    bc6b:	89 de                	mov    %ebx,%esi
    bc6d:	89 c7                	mov    %eax,%edi
    bc6f:	e8 4a a1 ff ff       	callq  5dbe <safe_lshift_func_uint16_t_u_s>
    bc74:	0f b7 c0             	movzwl %ax,%eax
    bc77:	89 85 ac f8 ff ff    	mov    %eax,-0x754(%rbp)
    bc7d:	0f b6 85 a0 fa ff ff 	movzbl -0x560(%rbp),%eax
    bc84:	83 c0 01             	add    $0x1,%eax
    bc87:	88 85 a0 fa ff ff    	mov    %al,-0x560(%rbp)
    bc8d:	0f bf 85 a0 f8 ff ff 	movswl -0x760(%rbp),%eax
    bc94:	e9 6d 03 00 00       	jmpq   c006 <func_14+0x16b6>
    bc99:	90                   	nop
    bc9a:	48 8b 05 9d fb 00 00 	mov    0xfb9d(%rip),%rax        # 1b83e <g_244+0x1e>
    bca1:	48 83 c0 01          	add    $0x1,%rax
    bca5:	48 89 05 92 fb 00 00 	mov    %rax,0xfb92(%rip)        # 1b83e <g_244+0x1e>
    bcac:	48 8b 05 8b fb 00 00 	mov    0xfb8b(%rip),%rax        # 1b83e <g_244+0x1e>
    bcb3:	48 85 c0             	test   %rax,%rax
    bcb6:	0f 84 23 f9 ff ff    	je     b5df <func_14+0xc8f>
    bcbc:	48 8b 05 ed 1e 01 00 	mov    0x11eed(%rip),%rax        # 1dbb0 <g_2209>
    bcc3:	48 8d 15 b6 fb 00 00 	lea    0xfbb6(%rip),%rdx        # 1b880 <g_517>
    bcca:	48 89 10             	mov    %rdx,(%rax)
    bccd:	48 c7 05 5e fb 00 00 	movq   $0x0,0xfb5e(%rip)        # 1b836 <g_244+0x16>
    bcd4:	00 00 00 00 
    bcd8:	e9 eb 00 00 00       	jmpq   bdc8 <func_14+0x1478>
    bcdd:	48 8d 05 c2 fb 00 00 	lea    0xfbc2(%rip),%rax        # 1b8a6 <g_517+0x26>
    bce4:	48 89 85 b8 f9 ff ff 	mov    %rax,-0x648(%rbp)
    bceb:	c7 85 dc f8 ff ff 00 	movl   $0x0,-0x724(%rbp)
    bcf2:	00 00 00 
    bcf5:	eb 1b                	jmp    bd12 <func_14+0x13c2>
    bcf7:	8b 85 dc f8 ff ff    	mov    -0x724(%rbp),%eax
    bcfd:	48 98                	cltq   
    bcff:	48 c7 84 c5 f0 fb ff 	movq   $0x0,-0x410(%rbp,%rax,8)
    bd06:	ff 00 00 00 00 
    bd0b:	83 85 dc f8 ff ff 01 	addl   $0x1,-0x724(%rbp)
    bd12:	83 bd dc f8 ff ff 02 	cmpl   $0x2,-0x724(%rbp)
    bd19:	7e dc                	jle    bcf7 <func_14+0x13a7>
    bd1b:	48 8d 05 3e 14 01 00 	lea    0x1143e(%rip),%rax        # 1d160 <g_446>
    bd22:	48 89 85 a0 f9 ff ff 	mov    %rax,-0x660(%rbp)
    bd29:	0f bf 85 a8 f8 ff ff 	movswl -0x758(%rbp),%eax
    bd30:	89 85 c4 f8 ff ff    	mov    %eax,-0x73c(%rbp)
    bd36:	83 bd c4 f8 ff ff 00 	cmpl   $0x0,-0x73c(%rbp)
    bd3d:	0f 95 c0             	setne  %al
    bd40:	0f b6 d0             	movzbl %al,%edx
    bd43:	48 8b 85 b8 f9 ff ff 	mov    -0x648(%rbp),%rax
    bd4a:	0f b7 00             	movzwl (%rax),%eax
    bd4d:	66 25 f8 b1          	and    $0xb1f8,%ax
    bd51:	89 c1                	mov    %eax,%ecx
    bd53:	48 8b 85 b8 f9 ff ff 	mov    -0x648(%rbp),%rax
    bd5a:	66 89 08             	mov    %cx,(%rax)
    bd5d:	48 8b 85 b8 f9 ff ff 	mov    -0x648(%rbp),%rax
    bd64:	0f b7 00             	movzwl (%rax),%eax
    bd67:	98                   	cwtl   
    bd68:	89 d6                	mov    %edx,%esi
    bd6a:	89 c7                	mov    %eax,%edi
    bd6c:	e8 84 96 ff ff       	callq  53f5 <safe_mul_func_int16_t_s_s>
    bd71:	48 8b 15 be fa 00 00 	mov    0xfabe(%rip),%rdx        # 1b836 <g_244+0x16>
    bd78:	98                   	cwtl   
    bd79:	48 8d 0c 95 00 00 00 	lea    0x0(,%rdx,4),%rcx
    bd80:	00 
    bd81:	48 8d 15 48 00 01 00 	lea    0x10048(%rip),%rdx        # 1bdd0 <g_2096>
    bd88:	89 04 11             	mov    %eax,(%rcx,%rdx,1)
    bd8b:	48 8b 05 76 17 01 00 	mov    0x11776(%rip),%rax        # 1d508 <g_922>
    bd92:	48 8b 00             	mov    (%rax),%rax
    bd95:	8b 08                	mov    (%rax),%ecx
    bd97:	0f b6 95 a4 f8 ff ff 	movzbl -0x75c(%rbp),%edx
    bd9e:	48 8b 05 63 17 01 00 	mov    0x11763(%rip),%rax        # 1d508 <g_922>
    bda5:	48 8b 00             	mov    (%rax),%rax
    bda8:	09 ca                	or     %ecx,%edx
    bdaa:	89 10                	mov    %edx,(%rax)
    bdac:	66 83 bd a8 f8 ff ff 	cmpw   $0x0,-0x758(%rbp)
    bdb3:	00 
    bdb4:	75 24                	jne    bdda <func_14+0x148a>
    bdb6:	48 8b 05 79 fa 00 00 	mov    0xfa79(%rip),%rax        # 1b836 <g_244+0x16>
    bdbd:	48 83 e8 01          	sub    $0x1,%rax
    bdc1:	48 89 05 6e fa 00 00 	mov    %rax,0xfa6e(%rip)        # 1b836 <g_244+0x16>
    bdc8:	48 8b 05 67 fa 00 00 	mov    0xfa67(%rip),%rax        # 1b836 <g_244+0x16>
    bdcf:	48 85 c0             	test   %rax,%rax
    bdd2:	0f 89 05 ff ff ff    	jns    bcdd <func_14+0x138d>
    bdd8:	eb 01                	jmp    bddb <func_14+0x148b>
    bdda:	90                   	nop
    bddb:	8b 85 ec f8 ff ff    	mov    -0x714(%rbp),%eax
    bde1:	0f be d8             	movsbl %al,%ebx
    bde4:	0f be 95 bc f8 ff ff 	movsbl -0x744(%rbp),%edx
    bdeb:	8b 8d c4 f8 ff ff    	mov    -0x73c(%rbp),%ecx
    bdf1:	48 8b 05 60 1d 01 00 	mov    0x11d60(%rip),%rax        # 1db58 <g_1408>
    bdf8:	48 8b 00             	mov    (%rax),%rax
    bdfb:	48 39 c1             	cmp    %rax,%rcx
    bdfe:	0f 9f c0             	setg   %al
    be01:	0f b6 c0             	movzbl %al,%eax
    be04:	f7 d0                	not    %eax
    be06:	98                   	cwtl   
    be07:	89 d6                	mov    %edx,%esi
    be09:	89 c7                	mov    %eax,%edi
    be0b:	e8 e5 95 ff ff       	callq  53f5 <safe_mul_func_int16_t_s_s>
    be10:	98                   	cwtl   
    be11:	39 85 f4 f8 ff ff    	cmp    %eax,-0x70c(%rbp)
    be17:	8b 05 0d 00 01 00    	mov    0x1000d(%rip),%eax        # 1be2a <g_2120+0xa>
    be1d:	85 c0                	test   %eax,%eax
    be1f:	0f 95 c0             	setne  %al
    be22:	0f b6 c0             	movzbl %al,%eax
    be25:	89 c6                	mov    %eax,%esi
    be27:	bf 01 71 00 00       	mov    $0x7101,%edi
    be2c:	e8 ee 9e ff ff       	callq  5d1f <safe_sub_func_uint16_t_u_u>
    be31:	89 de                	mov    %ebx,%esi
    be33:	bf ff ff ff ff       	mov    $0xffffffff,%edi
    be38:	e8 d5 93 ff ff       	callq  5212 <safe_mul_func_int8_t_s_s>
    be3d:	0f b6 d8             	movzbl %al,%ebx
    be40:	8b 85 64 fb ff ff    	mov    -0x49c(%rbp),%eax
    be46:	44 0f b7 e0          	movzwl %ax,%r12d
    be4a:	48 8b 85 80 fb ff ff 	mov    -0x480(%rbp),%rax
    be51:	48 85 c0             	test   %rax,%rax
    be54:	0f 94 c0             	sete   %al
    be57:	0f b6 c0             	movzbl %al,%eax
    be5a:	be 05 00 00 00       	mov    $0x5,%esi
    be5f:	89 c7                	mov    %eax,%edi
    be61:	e8 7b 96 ff ff       	callq  54e1 <safe_lshift_func_int16_t_s_u>
    be66:	0f bf d0             	movswl %ax,%edx
    be69:	48 8b 85 98 f8 ff ff 	mov    -0x768(%rbp),%rax
    be70:	98                   	cwtl   
    be71:	89 d6                	mov    %edx,%esi
    be73:	89 c7                	mov    %eax,%edi
    be75:	e8 7b 95 ff ff       	callq  53f5 <safe_mul_func_int16_t_s_s>
    be7a:	0f b7 c0             	movzwl %ax,%eax
    be7d:	44 89 e6             	mov    %r12d,%esi
    be80:	89 c7                	mov    %eax,%edi
    be82:	e8 b6 9e ff ff       	callq  5d3d <safe_mul_func_uint16_t_u_u>
    be87:	0f b6 c0             	movzbl %al,%eax
    be8a:	89 de                	mov    %ebx,%esi
    be8c:	89 c7                	mov    %eax,%edi
    be8e:	e8 00 9d ff ff       	callq  5b93 <safe_mul_func_uint8_t_u_u>
    be93:	0f b6 c0             	movzbl %al,%eax
    be96:	39 85 f0 f8 ff ff    	cmp    %eax,-0x710(%rbp)
    be9c:	0f 9e c0             	setle  %al
    be9f:	0f b6 d0             	movzbl %al,%edx
    bea2:	8b 85 ec f8 ff ff    	mov    -0x714(%rbp),%eax
    bea8:	89 c1                	mov    %eax,%ecx
    beaa:	48 8b 85 78 f9 ff ff 	mov    -0x688(%rbp),%rax
    beb1:	88 08                	mov    %cl,(%rax)
    beb3:	48 8b 85 78 f9 ff ff 	mov    -0x688(%rbp),%rax
    beba:	0f b6 00             	movzbl (%rax),%eax
    bebd:	0f be c0             	movsbl %al,%eax
    bec0:	89 d6                	mov    %edx,%esi
    bec2:	89 c7                	mov    %eax,%edi
    bec4:	e8 49 93 ff ff       	callq  5212 <safe_mul_func_int8_t_s_s>
    bec9:	48 0f be d0          	movsbq %al,%rdx
    becd:	48 8b 85 b0 f9 ff ff 	mov    -0x650(%rbp),%rax
    bed4:	48 89 10             	mov    %rdx,(%rax)
    bed7:	48 8b 85 b0 f9 ff ff 	mov    -0x650(%rbp),%rax
    bede:	48 8b 10             	mov    (%rax),%rdx
    bee1:	48 8b 05 78 12 01 00 	mov    0x11278(%rip),%rax        # 1d160 <g_446>
    bee8:	48 8b 00             	mov    (%rax),%rax
    beeb:	48 39 c2             	cmp    %rax,%rdx
    beee:	0f 94 c0             	sete   %al
    bef1:	0f b6 c0             	movzbl %al,%eax
    bef4:	be a8 2b 00 00       	mov    $0x2ba8,%esi
    bef9:	89 c7                	mov    %eax,%edi
    befb:	e8 f5 94 ff ff       	callq  53f5 <safe_mul_func_int16_t_s_s>
    bf00:	8b 85 2c fb ff ff    	mov    -0x4d4(%rbp),%eax
    bf06:	83 f8 01             	cmp    $0x1,%eax
    bf09:	74 21                	je     bf2c <func_14+0x15dc>
    bf0b:	c7 85 08 f9 ff ff f6 	movl   $0xfffffff6,-0x6f8(%rbp)
    bf12:	ff ff ff 
    bf15:	48 8b 85 f0 fa ff ff 	mov    -0x510(%rbp),%rax
    bf1c:	48 83 c0 01          	add    $0x1,%rax
    bf20:	48 89 85 f0 fa ff ff 	mov    %rax,-0x510(%rbp)
    bf27:	e9 8a 00 00 00       	jmpq   bfb6 <func_14+0x1666>
    bf2c:	48 b8 57 cf 27 a8 1b 	movabs $0xde45221ba827cf57,%rax
    bf33:	22 45 de 
    bf36:	48 89 85 c0 f9 ff ff 	mov    %rax,-0x640(%rbp)
    bf3d:	c7 05 83 f8 00 00 00 	movl   $0x0,0xf883(%rip)        # 1b7ca <g_116+0xa>
    bf44:	00 00 00 
    bf47:	90                   	nop
    bf48:	8b 05 7c f8 00 00    	mov    0xf87c(%rip),%eax        # 1b7ca <g_116+0xa>
    bf4e:	83 f8 09             	cmp    $0x9,%eax
    bf51:	77 1d                	ja     bf70 <func_14+0x1620>
    bf53:	48 b8 21 05 f9 df ac 	movabs $0xeba424acdff90521,%rax
    bf5a:	24 a4 eb 
    bf5d:	48 89 85 c8 f9 ff ff 	mov    %rax,-0x638(%rbp)
    bf64:	48 8b 85 c8 f9 ff ff 	mov    -0x638(%rbp),%rax
    bf6b:	e9 96 00 00 00       	jmpq   c006 <func_14+0x16b6>
    bf70:	48 83 85 c0 f9 ff ff 	addq   $0x1,-0x640(%rbp)
    bf77:	01 
    bf78:	48 8b 05 b7 fe 00 00 	mov    0xfeb7(%rip),%rax        # 1be36 <g_2120+0x16>
    bf7f:	89 c2                	mov    %eax,%edx
    bf81:	48 8d 05 70 15 01 00 	lea    0x11570(%rip),%rax        # 1d4f8 <g_837>
    bf88:	48 8b 00             	mov    (%rax),%rax
    bf8b:	48 8b 00             	mov    (%rax),%rax
    bf8e:	81 e2 aa eb 00 00    	and    $0xebaa,%edx
    bf94:	89 10                	mov    %edx,(%rax)
    bf96:	48 c7 05 2d f8 00 00 	movq   $0x6,0xf82d(%rip)        # 1b7ce <g_116+0xe>
    bf9d:	06 00 00 00 
    bfa1:	90                   	nop
    bfa2:	48 8b 05 25 f8 00 00 	mov    0xf825(%rip),%rax        # 1b7ce <g_116+0xe>
    bfa9:	48 85 c0             	test   %rax,%rax
    bfac:	78 08                	js     bfb6 <func_14+0x1666>
    bfae:	8b 85 f0 f8 ff ff    	mov    -0x710(%rbp),%eax
    bfb4:	eb 50                	jmp    c006 <func_14+0x16b6>
    bfb6:	48 8b 05 d1 f8 00 00 	mov    0xf8d1(%rip),%rax        # 1b88e <g_517+0xe>
    bfbd:	48 83 e8 01          	sub    $0x1,%rax
    bfc1:	48 89 05 c6 f8 00 00 	mov    %rax,0xf8c6(%rip)        # 1b88e <g_517+0xe>
    bfc8:	48 8b 05 bf f8 00 00 	mov    0xf8bf(%rip),%rax        # 1b88e <g_517+0xe>
    bfcf:	48 85 c0             	test   %rax,%rax
    bfd2:	0f 89 02 f5 ff ff    	jns    b4da <func_14+0xb8a>
    bfd8:	48 8b 05 41 11 01 00 	mov    0x11141(%rip),%rax        # 1d120 <g_102>
    bfdf:	8b 10                	mov    (%rax),%edx
    bfe1:	48 8b 05 38 11 01 00 	mov    0x11138(%rip),%rax        # 1d120 <g_102>
    bfe8:	83 f2 06             	xor    $0x6,%edx
    bfeb:	89 10                	mov    %edx,(%rax)
    bfed:	8b 08                	mov    (%rax),%ecx
    bfef:	48 8b 05 3a 11 01 00 	mov    0x1113a(%rip),%rax        # 1d130 <g_274>
    bff6:	48 8b 00             	mov    (%rax),%rax
    bff9:	8b 10                	mov    (%rax),%edx
    bffb:	31 ca                	xor    %ecx,%edx
    bffd:	89 10                	mov    %edx,(%rax)
    bfff:	48 8b 85 98 f8 ff ff 	mov    -0x768(%rbp),%rax
    c006:	48 8b 5d d8          	mov    -0x28(%rbp),%rbx
    c00a:	64 48 33 1c 25 28 00 	xor    %fs:0x28,%rbx
    c011:	00 00 
    c013:	74 05                	je     c01a <func_14+0x16ca>
    c015:	e8 56 90 ff ff       	callq  5070 <__stack_chk_fail@plt>
    c01a:	48 81 c4 58 07 00 00 	add    $0x758,%rsp
    c021:	5b                   	pop    %rbx
    c022:	41 5c                	pop    %r12
    c024:	41 5d                	pop    %r13
    c026:	5d                   	pop    %rbp
    c027:	c3                   	retq   

000000000000c028 <func_21>:
    c028:	f3 0f 1e fa          	endbr64 
    c02c:	55                   	push   %rbp
    c02d:	48 89 e5             	mov    %rsp,%rbp
    c030:	41 57                	push   %r15
    c032:	41 56                	push   %r14
    c034:	41 55                	push   %r13
    c036:	41 54                	push   %r12
    c038:	53                   	push   %rbx
    c039:	48 81 ec 00 10 00 00 	sub    $0x1000,%rsp
    c040:	48 83 0c 24 00       	orq    $0x0,(%rsp)
    c045:	48 81 ec 58 07 00 00 	sub    $0x758,%rsp
    c04c:	48 89 bd 98 e8 ff ff 	mov    %rdi,-0x1768(%rbp)
    c053:	89 f0                	mov    %esi,%eax
    c055:	89 95 90 e8 ff ff    	mov    %edx,-0x1770(%rbp)
    c05b:	89 8d 8c e8 ff ff    	mov    %ecx,-0x1774(%rbp)
    c061:	88 85 94 e8 ff ff    	mov    %al,-0x176c(%rbp)
    c067:	64 48 8b 04 25 28 00 	mov    %fs:0x28,%rax
    c06e:	00 00 
    c070:	48 89 45 c8          	mov    %rax,-0x38(%rbp)
    c074:	31 c0                	xor    %eax,%eax
    c076:	48 b8 fb 2a 56 ec 94 	movabs $0x40553c94ec562afb,%rax
    c07d:	3c 55 40 
    c080:	48 89 85 c0 e9 ff ff 	mov    %rax,-0x1640(%rbp)
    c087:	c7 85 e4 e8 ff ff a5 	movl   $0x80cf78a5,-0x171c(%rbp)
    c08e:	78 cf 80 
    c091:	c7 85 bc e8 ff ff d1 	movl   $0x643d8fd1,-0x1744(%rbp)
    c098:	8f 3d 64 
    c09b:	c7 85 80 ec ff ff 01 	movl   $0x1,-0x1380(%rbp)
    c0a2:	00 00 00 
    c0a5:	c7 85 84 ec ff ff 01 	movl   $0x1,-0x137c(%rbp)
    c0ac:	00 00 00 
    c0af:	c7 85 88 ec ff ff 3f 	movl   $0x8de6c73f,-0x1378(%rbp)
    c0b6:	c7 e6 8d 
    c0b9:	c7 85 8c ec ff ff 01 	movl   $0x1,-0x1374(%rbp)
    c0c0:	00 00 00 
    c0c3:	c7 85 90 ec ff ff 01 	movl   $0x1,-0x1370(%rbp)
    c0ca:	00 00 00 
    c0cd:	c7 85 94 ec ff ff 3f 	movl   $0x8de6c73f,-0x136c(%rbp)
    c0d4:	c7 e6 8d 
    c0d7:	c7 85 98 ec ff ff 01 	movl   $0x1,-0x1368(%rbp)
    c0de:	00 00 00 
    c0e1:	c7 85 9c ec ff ff 01 	movl   $0x1,-0x1364(%rbp)
    c0e8:	00 00 00 
    c0eb:	c7 85 a0 ec ff ff 3f 	movl   $0x8de6c73f,-0x1360(%rbp)
    c0f2:	c7 e6 8d 
    c0f5:	c7 85 a4 ec ff ff 01 	movl   $0x1,-0x135c(%rbp)
    c0fc:	00 00 00 
    c0ff:	c6 85 ab e8 ff ff 5d 	movb   $0x5d,-0x1755(%rbp)
    c106:	48 c7 85 c8 e9 ff ff 	movq   $0x0,-0x1638(%rbp)
    c10d:	00 00 00 00 
    c111:	c7 85 20 ec ff ff 01 	movl   $0x1,-0x13e0(%rbp)
    c118:	00 00 00 
    c11b:	c7 85 24 ec ff ff 01 	movl   $0x1,-0x13dc(%rbp)
    c122:	00 00 00 
    c125:	c7 85 28 ec ff ff 01 	movl   $0x1,-0x13d8(%rbp)
    c12c:	00 00 00 
    c12f:	c7 85 2c ec ff ff 01 	movl   $0x1,-0x13d4(%rbp)
    c136:	00 00 00 
    c139:	c7 85 30 ec ff ff 01 	movl   $0x1,-0x13d0(%rbp)
    c140:	00 00 00 
    c143:	c7 85 34 ec ff ff 01 	movl   $0x1,-0x13cc(%rbp)
    c14a:	00 00 00 
    c14d:	c7 85 38 ec ff ff 01 	movl   $0x1,-0x13c8(%rbp)
    c154:	00 00 00 
    c157:	c7 85 3c ec ff ff 01 	movl   $0x1,-0x13c4(%rbp)
    c15e:	00 00 00 
    c161:	c7 85 40 ec ff ff 01 	movl   $0x1,-0x13c0(%rbp)
    c168:	00 00 00 
    c16b:	c6 85 af e8 ff ff fb 	movb   $0xfb,-0x1751(%rbp)
    c172:	48 8d 05 b3 f7 00 00 	lea    0xf7b3(%rip),%rax        # 1b92c <g_924>
    c179:	48 89 85 d0 e9 ff ff 	mov    %rax,-0x1630(%rbp)
    c180:	48 8d 05 29 10 01 00 	lea    0x11029(%rip),%rax        # 1d1b0 <g_498+0x30>
    c187:	48 89 85 d8 e9 ff ff 	mov    %rax,-0x1628(%rbp)
    c18e:	48 8d 05 b1 f6 00 00 	lea    0xf6b1(%rip),%rax        # 1b846 <g_244+0x26>
    c195:	48 89 85 e0 e9 ff ff 	mov    %rax,-0x1620(%rbp)
    c19c:	48 8d 05 ad 1e 01 00 	lea    0x11ead(%rip),%rax        # 1e050 <g_992>
    c1a3:	48 89 85 30 e9 ff ff 	mov    %rax,-0x16d0(%rbp)
    c1aa:	48 8d 85 30 e9 ff ff 	lea    -0x16d0(%rbp),%rax
    c1b1:	48 89 85 38 e9 ff ff 	mov    %rax,-0x16c8(%rbp)
    c1b8:	48 8d 85 38 e9 ff ff 	lea    -0x16c8(%rbp),%rax
    c1bf:	48 89 85 e8 e9 ff ff 	mov    %rax,-0x1618(%rbp)
    c1c6:	66 c7 85 00 ec ff ff 	movw   $0xffff,-0x1400(%rbp)
    c1cd:	ff ff 
    c1cf:	66 c7 85 02 ec ff ff 	movw   $0xb561,-0x13fe(%rbp)
    c1d6:	61 b5 
    c1d8:	66 c7 85 04 ec ff ff 	movw   $0xb561,-0x13fc(%rbp)
    c1df:	61 b5 
    c1e1:	66 c7 85 06 ec ff ff 	movw   $0xffff,-0x13fa(%rbp)
    c1e8:	ff ff 
    c1ea:	66 c7 85 08 ec ff ff 	movw   $0xfffe,-0x13f8(%rbp)
    c1f1:	fe ff 
    c1f3:	66 c7 85 0a ec ff ff 	movw   $0x3b9c,-0x13f6(%rbp)
    c1fa:	9c 3b 
    c1fc:	66 c7 85 0c ec ff ff 	movw   $0x3b9c,-0x13f4(%rbp)
    c203:	9c 3b 
    c205:	66 c7 85 0e ec ff ff 	movw   $0x1,-0x13f2(%rbp)
    c20c:	01 00 
    c20e:	66 c7 85 10 ec ff ff 	movw   $0x3b9c,-0x13f0(%rbp)
    c215:	9c 3b 
    c217:	66 c7 85 12 ec ff ff 	movw   $0x3b9c,-0x13ee(%rbp)
    c21e:	9c 3b 
    c220:	66 c7 85 14 ec ff ff 	movw   $0xfffe,-0x13ec(%rbp)
    c227:	fe ff 
    c229:	66 c7 85 16 ec ff ff 	movw   $0xb561,-0x13ea(%rbp)
    c230:	61 b5 
    c232:	66 c7 85 18 ec ff ff 	movw   $0xfffe,-0x13e8(%rbp)
    c239:	fe ff 
    c23b:	66 c7 85 1a ec ff ff 	movw   $0xfffe,-0x13e6(%rbp)
    c242:	fe ff 
    c244:	66 c7 85 1c ec ff ff 	movw   $0xb561,-0x13e4(%rbp)
    c24b:	61 b5 
    c24d:	c6 85 ac e8 ff ff 00 	movb   $0x0,-0x1754(%rbp)
    c254:	48 8d 05 d5 f6 00 00 	lea    0xf6d5(%rip),%rax        # 1b930 <g_997>
    c25b:	48 89 85 f0 e9 ff ff 	mov    %rax,-0x1610(%rbp)
    c262:	c7 85 e8 e8 ff ff ff 	movl   $0xffffffff,-0x1718(%rbp)
    c269:	ff ff ff 
    c26c:	48 8d 85 ab e8 ff ff 	lea    -0x1755(%rbp),%rax
    c273:	48 89 85 40 e9 ff ff 	mov    %rax,-0x16c0(%rbp)
    c27a:	48 8d 05 df 0e 01 00 	lea    0x10edf(%rip),%rax        # 1d160 <g_446>
    c281:	48 89 85 48 e9 ff ff 	mov    %rax,-0x16b8(%rbp)
    c288:	48 8d 85 48 e9 ff ff 	lea    -0x16b8(%rbp),%rax
    c28f:	48 89 85 f8 e9 ff ff 	mov    %rax,-0x1608(%rbp)
    c296:	48 c7 85 50 e9 ff ff 	movq   $0x0,-0x16b0(%rbp)
    c29d:	00 00 00 00 
    c2a1:	48 c7 85 00 ea ff ff 	movq   $0x0,-0x1600(%rbp)
    c2a8:	00 00 00 00 
    c2ac:	48 8d 05 6d fa 00 00 	lea    0xfa6d(%rip),%rax        # 1bd20 <g_1563>
    c2b3:	48 89 85 58 e9 ff ff 	mov    %rax,-0x16a8(%rbp)
    c2ba:	48 c7 85 08 ea ff ff 	movq   $0x0,-0x15f8(%rbp)
    c2c1:	00 00 00 00 
    c2c5:	48 8d 05 54 fa 00 00 	lea    0xfa54(%rip),%rax        # 1bd20 <g_1563>
    c2cc:	48 89 85 10 ea ff ff 	mov    %rax,-0x15f0(%rbp)
    c2d3:	66 c7 85 b4 e8 ff ff 	movw   $0x4db6,-0x174c(%rbp)
    c2da:	b6 4d 
    c2dc:	48 8d 85 20 ec ff ff 	lea    -0x13e0(%rbp),%rax
    c2e3:	48 83 c0 18          	add    $0x18,%rax
    c2e7:	48 89 85 60 e9 ff ff 	mov    %rax,-0x16a0(%rbp)
    c2ee:	48 8d 85 60 e9 ff ff 	lea    -0x16a0(%rbp),%rax
    c2f5:	48 89 85 68 e9 ff ff 	mov    %rax,-0x1698(%rbp)
    c2fc:	48 8d 85 68 e9 ff ff 	lea    -0x1698(%rbp),%rax
    c303:	48 89 85 18 ea ff ff 	mov    %rax,-0x15e8(%rbp)
    c30a:	c7 85 c0 e8 ff ff 00 	movl   $0x0,-0x1740(%rbp)
    c311:	00 00 00 
    c314:	eb 14                	jmp    c32a <func_21+0x302>
    c316:	8b 85 c0 e8 ff ff    	mov    -0x1740(%rbp),%eax
    c31c:	48 98                	cltq   
    c31e:	c6 44 05 c0 a5       	movb   $0xa5,-0x40(%rbp,%rax,1)
    c323:	83 85 c0 e8 ff ff 01 	addl   $0x1,-0x1740(%rbp)
    c32a:	83 bd c0 e8 ff ff 07 	cmpl   $0x7,-0x1740(%rbp)
    c331:	7e e3                	jle    c316 <func_21+0x2ee>
    c333:	c7 85 c0 e8 ff ff 00 	movl   $0x0,-0x1740(%rbp)
    c33a:	00 00 00 
    c33d:	eb 1a                	jmp    c359 <func_21+0x331>
    c33f:	8b 85 c0 e8 ff ff    	mov    -0x1740(%rbp),%eax
    c345:	48 98                	cltq   
    c347:	c7 84 85 c0 eb ff ff 	movl   $0x0,-0x1440(%rbp,%rax,4)
    c34e:	00 00 00 00 
    c352:	83 85 c0 e8 ff ff 01 	addl   $0x1,-0x1740(%rbp)
    c359:	83 bd c0 e8 ff ff 04 	cmpl   $0x4,-0x1740(%rbp)
    c360:	7e dd                	jle    c33f <func_21+0x317>
    c362:	48 c7 05 7b f4 00 00 	movq   $0xffffffffffffffff,0xf47b(%rip)        # 1b7e8 <g_123>
    c369:	ff ff ff ff 
    c36d:	e9 03 08 00 00       	jmpq   cb75 <func_21+0xb4d>
    c372:	48 8d 05 b3 f5 00 00 	lea    0xf5b3(%rip),%rax        # 1b92c <g_924>
    c379:	48 89 85 40 eb ff ff 	mov    %rax,-0x14c0(%rbp)
    c380:	c7 85 04 e9 ff ff fb 	movl   $0xfffffffb,-0x16fc(%rbp)
    c387:	ff ff ff 
    c38a:	c7 85 f0 f5 ff ff e1 	movl   $0xec7ef4e1,-0xa10(%rbp)
    c391:	f4 7e ec 
    c394:	c7 85 f4 f5 ff ff 0d 	movl   $0xf9b2e40d,-0xa0c(%rbp)
    c39b:	e4 b2 f9 
    c39e:	c7 85 f8 f5 ff ff 0d 	movl   $0xf9b2e40d,-0xa08(%rbp)
    c3a5:	e4 b2 f9 
    c3a8:	c7 85 fc f5 ff ff e1 	movl   $0xec7ef4e1,-0xa04(%rbp)
    c3af:	f4 7e ec 
    c3b2:	c7 85 00 f6 ff ff 0d 	movl   $0xf9b2e40d,-0xa00(%rbp)
    c3b9:	e4 b2 f9 
    c3bc:	c7 85 04 f6 ff ff 0d 	movl   $0xf9b2e40d,-0x9fc(%rbp)
    c3c3:	e4 b2 f9 
    c3c6:	c7 85 08 f6 ff ff e1 	movl   $0xec7ef4e1,-0x9f8(%rbp)
    c3cd:	f4 7e ec 
    c3d0:	c7 85 0c f6 ff ff 0d 	movl   $0xf9b2e40d,-0x9f4(%rbp)
    c3d7:	e4 b2 f9 
    c3da:	c7 85 10 f6 ff ff 0d 	movl   $0xf9b2e40d,-0x9f0(%rbp)
    c3e1:	e4 b2 f9 
    c3e4:	c7 85 14 f6 ff ff e1 	movl   $0xec7ef4e1,-0x9ec(%rbp)
    c3eb:	f4 7e ec 
    c3ee:	c7 85 18 f6 ff ff 0d 	movl   $0xf9b2e40d,-0x9e8(%rbp)
    c3f5:	e4 b2 f9 
    c3f8:	c7 85 1c f6 ff ff 0d 	movl   $0xf9b2e40d,-0x9e4(%rbp)
    c3ff:	e4 b2 f9 
    c402:	c7 85 20 f6 ff ff e1 	movl   $0xec7ef4e1,-0x9e0(%rbp)
    c409:	f4 7e ec 
    c40c:	c7 85 24 f6 ff ff 0d 	movl   $0xf9b2e40d,-0x9dc(%rbp)
    c413:	e4 b2 f9 
    c416:	c7 85 28 f6 ff ff 0d 	movl   $0xf9b2e40d,-0x9d8(%rbp)
    c41d:	e4 b2 f9 
    c420:	c7 85 2c f6 ff ff e1 	movl   $0xec7ef4e1,-0x9d4(%rbp)
    c427:	f4 7e ec 
    c42a:	c7 85 30 f6 ff ff 0d 	movl   $0xf9b2e40d,-0x9d0(%rbp)
    c431:	e4 b2 f9 
    c434:	c7 85 34 f6 ff ff 0d 	movl   $0xf9b2e40d,-0x9cc(%rbp)
    c43b:	e4 b2 f9 
    c43e:	c7 85 38 f6 ff ff e1 	movl   $0xec7ef4e1,-0x9c8(%rbp)
    c445:	f4 7e ec 
    c448:	c7 85 3c f6 ff ff 0d 	movl   $0xf9b2e40d,-0x9c4(%rbp)
    c44f:	e4 b2 f9 
    c452:	c7 85 40 f6 ff ff 0d 	movl   $0xf9b2e40d,-0x9c0(%rbp)
    c459:	e4 b2 f9 
    c45c:	c7 85 44 f6 ff ff e1 	movl   $0xec7ef4e1,-0x9bc(%rbp)
    c463:	f4 7e ec 
    c466:	c7 85 48 f6 ff ff 0d 	movl   $0xf9b2e40d,-0x9b8(%rbp)
    c46d:	e4 b2 f9 
    c470:	c7 85 4c f6 ff ff 0d 	movl   $0xf9b2e40d,-0x9b4(%rbp)
    c477:	e4 b2 f9 
    c47a:	c7 85 50 f6 ff ff e1 	movl   $0xec7ef4e1,-0x9b0(%rbp)
    c481:	f4 7e ec 
    c484:	c7 85 54 f6 ff ff 0d 	movl   $0xf9b2e40d,-0x9ac(%rbp)
    c48b:	e4 b2 f9 
    c48e:	c7 85 58 f6 ff ff 0d 	movl   $0xf9b2e40d,-0x9a8(%rbp)
    c495:	e4 b2 f9 
    c498:	c7 85 5c f6 ff ff e1 	movl   $0xec7ef4e1,-0x9a4(%rbp)
    c49f:	f4 7e ec 
    c4a2:	c7 85 60 f6 ff ff 0d 	movl   $0xf9b2e40d,-0x9a0(%rbp)
    c4a9:	e4 b2 f9 
    c4ac:	c7 85 64 f6 ff ff 0d 	movl   $0xf9b2e40d,-0x99c(%rbp)
    c4b3:	e4 b2 f9 
    c4b6:	c7 85 08 e9 ff ff 06 	movl   $0x6,-0x16f8(%rbp)
    c4bd:	00 00 00 
    c4c0:	48 c7 85 48 eb ff ff 	movq   $0x0,-0x14b8(%rbp)
    c4c7:	00 00 00 00 
    c4cb:	66 c7 05 72 f3 00 00 	movw   $0x9,0xf372(%rip)        # 1b846 <g_244+0x26>
    c4d2:	09 00 
    c4d4:	e9 7a 06 00 00       	jmpq   cb53 <func_21+0xb2b>
    c4d9:	48 8d 05 40 0c 01 00 	lea    0x10c40(%rip),%rax        # 1d120 <g_102>
    c4e0:	48 89 85 50 eb ff ff 	mov    %rax,-0x14b0(%rbp)
    c4e7:	c7 85 0c e9 ff ff 94 	movl   $0x7dc5f394,-0x16f4(%rbp)
    c4ee:	f3 c5 7d 
    c4f1:	c7 85 10 e9 ff ff 59 	movl   $0xd7734d59,-0x16f0(%rbp)
    c4f8:	4d 73 d7 
    c4fb:	c7 85 14 e9 ff ff 05 	movl   $0x5,-0x16ec(%rbp)
    c502:	00 00 00 
    c505:	c7 85 18 e9 ff ff 07 	movl   $0x7,-0x16e8(%rbp)
    c50c:	00 00 00 
    c50f:	c7 85 1c e9 ff ff f8 	movl   $0xfffffff8,-0x16e4(%rbp)
    c516:	ff ff ff 
    c519:	c7 85 20 e9 ff ff a7 	movl   $0x161b6ca7,-0x16e0(%rbp)
    c520:	6c 1b 16 
    c523:	c7 85 24 e9 ff ff 00 	movl   $0x0,-0x16dc(%rbp)
    c52a:	00 00 00 
    c52d:	c7 85 28 e9 ff ff 00 	movl   $0x0,-0x16d8(%rbp)
    c534:	00 00 00 
    c537:	c7 85 2c e9 ff ff 01 	movl   $0x1,-0x16d4(%rbp)
    c53e:	00 00 00 
    c541:	c7 85 80 f8 ff ff 00 	movl   $0x0,-0x780(%rbp)
    c548:	00 00 00 
    c54b:	c7 85 84 f8 ff ff 00 	movl   $0x0,-0x77c(%rbp)
    c552:	00 00 00 
    c555:	c7 85 88 f8 ff ff 00 	movl   $0x0,-0x778(%rbp)
    c55c:	00 00 00 
    c55f:	c7 85 8c f8 ff ff 00 	movl   $0x0,-0x774(%rbp)
    c566:	00 00 00 
    c569:	c7 85 90 f8 ff ff 00 	movl   $0x0,-0x770(%rbp)
    c570:	00 00 00 
    c573:	c7 85 94 f8 ff ff 00 	movl   $0x0,-0x76c(%rbp)
    c57a:	00 00 00 
    c57d:	c7 85 98 f8 ff ff 00 	movl   $0x0,-0x768(%rbp)
    c584:	00 00 00 
    c587:	c7 85 9c f8 ff ff 00 	movl   $0x0,-0x764(%rbp)
    c58e:	00 00 00 
    c591:	c7 85 a0 f8 ff ff 00 	movl   $0x0,-0x760(%rbp)
    c598:	00 00 00 
    c59b:	c7 85 a4 f8 ff ff ff 	movl   $0xffffffff,-0x75c(%rbp)
    c5a2:	ff ff ff 
    c5a5:	c7 85 a8 f8 ff ff 4e 	movl   $0xb0d4ad4e,-0x758(%rbp)
    c5ac:	ad d4 b0 
    c5af:	c7 85 ac f8 ff ff ff 	movl   $0xffffffff,-0x754(%rbp)
    c5b6:	ff ff ff 
    c5b9:	c7 85 b0 f8 ff ff 4e 	movl   $0xb0d4ad4e,-0x750(%rbp)
    c5c0:	ad d4 b0 
    c5c3:	c7 85 b4 f8 ff ff ff 	movl   $0xffffffff,-0x74c(%rbp)
    c5ca:	ff ff ff 
    c5cd:	c7 85 b8 f8 ff ff 4e 	movl   $0xb0d4ad4e,-0x748(%rbp)
    c5d4:	ad d4 b0 
    c5d7:	c7 85 bc f8 ff ff ff 	movl   $0xffffffff,-0x744(%rbp)
    c5de:	ff ff ff 
    c5e1:	c7 85 c0 f8 ff ff 4e 	movl   $0xb0d4ad4e,-0x740(%rbp)
    c5e8:	ad d4 b0 
    c5eb:	c7 85 c4 f8 ff ff ff 	movl   $0xffffffff,-0x73c(%rbp)
    c5f2:	ff ff ff 
    c5f5:	c7 85 c8 f8 ff ff 00 	movl   $0x0,-0x738(%rbp)
    c5fc:	00 00 00 
    c5ff:	c7 85 cc f8 ff ff 00 	movl   $0x0,-0x734(%rbp)
    c606:	00 00 00 
    c609:	c7 85 d0 f8 ff ff 00 	movl   $0x0,-0x730(%rbp)
    c610:	00 00 00 
    c613:	c7 85 d4 f8 ff ff 00 	movl   $0x0,-0x72c(%rbp)
    c61a:	00 00 00 
    c61d:	c7 85 d8 f8 ff ff 00 	movl   $0x0,-0x728(%rbp)
    c624:	00 00 00 
    c627:	c7 85 dc f8 ff ff 00 	movl   $0x0,-0x724(%rbp)
    c62e:	00 00 00 
    c631:	c7 85 e0 f8 ff ff 00 	movl   $0x0,-0x720(%rbp)
    c638:	00 00 00 
    c63b:	c7 85 e4 f8 ff ff 00 	movl   $0x0,-0x71c(%rbp)
    c642:	00 00 00 
    c645:	c7 85 e8 f8 ff ff 00 	movl   $0x0,-0x718(%rbp)
    c64c:	00 00 00 
    c64f:	c7 85 ec f8 ff ff ff 	movl   $0xffffffff,-0x714(%rbp)
    c656:	ff ff ff 
    c659:	c7 85 f0 f8 ff ff 4e 	movl   $0xb0d4ad4e,-0x710(%rbp)
    c660:	ad d4 b0 
    c663:	c7 85 f4 f8 ff ff ff 	movl   $0xffffffff,-0x70c(%rbp)
    c66a:	ff ff ff 
    c66d:	c7 85 f8 f8 ff ff 4e 	movl   $0xb0d4ad4e,-0x708(%rbp)
    c674:	ad d4 b0 
    c677:	c7 85 fc f8 ff ff ff 	movl   $0xffffffff,-0x704(%rbp)
    c67e:	ff ff ff 
    c681:	c7 85 00 f9 ff ff 4e 	movl   $0xb0d4ad4e,-0x700(%rbp)
    c688:	ad d4 b0 
    c68b:	c7 85 04 f9 ff ff ff 	movl   $0xffffffff,-0x6fc(%rbp)
    c692:	ff ff ff 
    c695:	c7 85 08 f9 ff ff 4e 	movl   $0xb0d4ad4e,-0x6f8(%rbp)
    c69c:	ad d4 b0 
    c69f:	c7 85 0c f9 ff ff ff 	movl   $0xffffffff,-0x6f4(%rbp)
    c6a6:	ff ff ff 
    c6a9:	c7 85 10 f9 ff ff 00 	movl   $0x0,-0x6f0(%rbp)
    c6b0:	00 00 00 
    c6b3:	c7 85 14 f9 ff ff 00 	movl   $0x0,-0x6ec(%rbp)
    c6ba:	00 00 00 
    c6bd:	c7 85 18 f9 ff ff 00 	movl   $0x0,-0x6e8(%rbp)
    c6c4:	00 00 00 
    c6c7:	c7 85 1c f9 ff ff 00 	movl   $0x0,-0x6e4(%rbp)
    c6ce:	00 00 00 
    c6d1:	c7 85 20 f9 ff ff 00 	movl   $0x0,-0x6e0(%rbp)
    c6d8:	00 00 00 
    c6db:	c7 85 24 f9 ff ff 00 	movl   $0x0,-0x6dc(%rbp)
    c6e2:	00 00 00 
    c6e5:	c7 85 28 f9 ff ff 00 	movl   $0x0,-0x6d8(%rbp)
    c6ec:	00 00 00 
    c6ef:	c7 85 2c f9 ff ff 00 	movl   $0x0,-0x6d4(%rbp)
    c6f6:	00 00 00 
    c6f9:	c7 85 30 f9 ff ff 00 	movl   $0x0,-0x6d0(%rbp)
    c700:	00 00 00 
    c703:	66 c7 85 ba e8 ff ff 	movw   $0x848d,-0x1746(%rbp)
    c70a:	8d 84 
    c70c:	c6 85 b3 e8 ff ff fe 	movb   $0xfe,-0x174d(%rbp)
    c713:	48 8b 05 ee 0d 01 00 	mov    0x10dee(%rip),%rax        # 1d508 <g_922>
    c71a:	48 8b 00             	mov    (%rax),%rax
    c71d:	c7 00 47 7d 76 cc    	movl   $0xcc767d47,(%rax)
    c723:	48 8b 85 50 eb ff ff 	mov    -0x14b0(%rbp),%rax
    c72a:	48 8b 95 40 eb ff ff 	mov    -0x14c0(%rbp),%rdx
    c731:	48 89 10             	mov    %rdx,(%rax)
    c734:	c7 05 ee f1 00 00 09 	movl   $0x9,0xf1ee(%rip)        # 1b92c <g_924>
    c73b:	00 00 00 
    c73e:	90                   	nop
    c73f:	8b 05 e7 f1 00 00    	mov    0xf1e7(%rip),%eax        # 1b92c <g_924>
    c745:	83 f8 02             	cmp    $0x2,%eax
    c748:	0f 8e f4 03 00 00    	jle    cb42 <func_21+0xb1a>
    c74e:	c7 85 20 fb ff ff 2b 	movl   $0x4196732b,-0x4e0(%rbp)
    c755:	73 96 41 
    c758:	c7 85 24 fb ff ff 00 	movl   $0x0,-0x4dc(%rbp)
    c75f:	00 00 00 
    c762:	c7 85 28 fb ff ff 2b 	movl   $0x4196732b,-0x4d8(%rbp)
    c769:	73 96 41 
    c76c:	c7 85 2c fb ff ff fd 	movl   $0xfffffffd,-0x4d4(%rbp)
    c773:	ff ff ff 
    c776:	c7 85 30 fb ff ff 01 	movl   $0x1,-0x4d0(%rbp)
    c77d:	00 00 00 
    c780:	c7 85 34 fb ff ff 07 	movl   $0x7,-0x4cc(%rbp)
    c787:	00 00 00 
    c78a:	c7 85 38 fb ff ff 95 	movl   $0x87d2a895,-0x4c8(%rbp)
    c791:	a8 d2 87 
    c794:	c7 85 3c fb ff ff 07 	movl   $0x7,-0x4c4(%rbp)
    c79b:	00 00 00 
    c79e:	c7 85 40 fb ff ff 01 	movl   $0x1,-0x4c0(%rbp)
    c7a5:	00 00 00 
    c7a8:	c7 85 44 fb ff ff fd 	movl   $0xfffffffd,-0x4bc(%rbp)
    c7af:	ff ff ff 
    c7b2:	c7 85 48 fb ff ff 2b 	movl   $0x4196732b,-0x4b8(%rbp)
    c7b9:	73 96 41 
    c7bc:	c7 85 4c fb ff ff 00 	movl   $0x0,-0x4b4(%rbp)
    c7c3:	00 00 00 
    c7c6:	c7 85 50 fb ff ff 2b 	movl   $0x4196732b,-0x4b0(%rbp)
    c7cd:	73 96 41 
    c7d0:	c7 85 54 fb ff ff fd 	movl   $0xfffffffd,-0x4ac(%rbp)
    c7d7:	ff ff ff 
    c7da:	c7 85 58 fb ff ff 01 	movl   $0x1,-0x4a8(%rbp)
    c7e1:	00 00 00 
    c7e4:	c7 85 5c fb ff ff 07 	movl   $0x7,-0x4a4(%rbp)
    c7eb:	00 00 00 
    c7ee:	c7 85 60 fb ff ff 95 	movl   $0x87d2a895,-0x4a0(%rbp)
    c7f5:	a8 d2 87 
    c7f8:	c7 85 64 fb ff ff 07 	movl   $0x7,-0x49c(%rbp)
    c7ff:	00 00 00 
    c802:	c7 85 68 fb ff ff 01 	movl   $0x1,-0x498(%rbp)
    c809:	00 00 00 
    c80c:	c7 85 6c fb ff ff fd 	movl   $0xfffffffd,-0x494(%rbp)
    c813:	ff ff ff 
    c816:	c7 85 70 fb ff ff 2b 	movl   $0x4196732b,-0x490(%rbp)
    c81d:	73 96 41 
    c820:	c7 85 74 fb ff ff 00 	movl   $0x0,-0x48c(%rbp)
    c827:	00 00 00 
    c82a:	c7 85 78 fb ff ff 2b 	movl   $0x4196732b,-0x488(%rbp)
    c831:	73 96 41 
    c834:	c7 85 7c fb ff ff fd 	movl   $0xfffffffd,-0x484(%rbp)
    c83b:	ff ff ff 
    c83e:	c7 85 80 fb ff ff 01 	movl   $0x1,-0x480(%rbp)
    c845:	00 00 00 
    c848:	c7 85 84 fb ff ff 07 	movl   $0x7,-0x47c(%rbp)
    c84f:	00 00 00 
    c852:	c7 85 88 fb ff ff 95 	movl   $0x87d2a895,-0x478(%rbp)
    c859:	a8 d2 87 
    c85c:	c7 85 8c fb ff ff 07 	movl   $0x7,-0x474(%rbp)
    c863:	00 00 00 
    c866:	c7 85 90 fb ff ff 01 	movl   $0x1,-0x470(%rbp)
    c86d:	00 00 00 
    c870:	c7 85 94 fb ff ff fd 	movl   $0xfffffffd,-0x46c(%rbp)
    c877:	ff ff ff 
    c87a:	c7 85 98 fb ff ff 2b 	movl   $0x4196732b,-0x468(%rbp)
    c881:	73 96 41 
    c884:	c7 85 9c fb ff ff 00 	movl   $0x0,-0x464(%rbp)
    c88b:	00 00 00 
    c88e:	c7 85 a0 fb ff ff 2b 	movl   $0x4196732b,-0x460(%rbp)
    c895:	73 96 41 
    c898:	c7 85 a4 fb ff ff fd 	movl   $0xfffffffd,-0x45c(%rbp)
    c89f:	ff ff ff 
    c8a2:	c7 85 a8 fb ff ff 01 	movl   $0x1,-0x458(%rbp)
    c8a9:	00 00 00 
    c8ac:	c7 85 ac fb ff ff 07 	movl   $0x7,-0x454(%rbp)
    c8b3:	00 00 00 
    c8b6:	c7 85 b0 fb ff ff 95 	movl   $0x87d2a895,-0x450(%rbp)
    c8bd:	a8 d2 87 
    c8c0:	c7 85 b4 fb ff ff 07 	movl   $0x7,-0x44c(%rbp)
    c8c7:	00 00 00 
    c8ca:	c7 85 b8 fb ff ff 01 	movl   $0x1,-0x448(%rbp)
    c8d1:	00 00 00 
    c8d4:	c7 85 bc fb ff ff fd 	movl   $0xfffffffd,-0x444(%rbp)
    c8db:	ff ff ff 
    c8de:	c7 85 c0 fb ff ff 2b 	movl   $0x4196732b,-0x440(%rbp)
    c8e5:	73 96 41 
    c8e8:	c7 85 c4 fb ff ff 00 	movl   $0x0,-0x43c(%rbp)
    c8ef:	00 00 00 
    c8f2:	c7 85 c8 fb ff ff 2b 	movl   $0x4196732b,-0x438(%rbp)
    c8f9:	73 96 41 
    c8fc:	c7 85 cc fb ff ff fd 	movl   $0xfffffffd,-0x434(%rbp)
    c903:	ff ff ff 
    c906:	c7 85 d0 fb ff ff 01 	movl   $0x1,-0x430(%rbp)
    c90d:	00 00 00 
    c910:	c7 85 d4 fb ff ff 07 	movl   $0x7,-0x42c(%rbp)
    c917:	00 00 00 
    c91a:	c7 85 d8 fb ff ff 95 	movl   $0x87d2a895,-0x428(%rbp)
    c921:	a8 d2 87 
    c924:	c7 85 dc fb ff ff 07 	movl   $0x7,-0x424(%rbp)
    c92b:	00 00 00 
    c92e:	48 8d 05 fb ef 00 00 	lea    0xeffb(%rip),%rax        # 1b930 <g_997>
    c935:	48 89 85 58 eb ff ff 	mov    %rax,-0x14a8(%rbp)
    c93c:	48 8d 05 d5 ee 00 00 	lea    0xeed5(%rip),%rax        # 1b818 <g_223>
    c943:	48 89 85 40 f2 ff ff 	mov    %rax,-0xdc0(%rbp)
    c94a:	48 8d 05 c7 ee 00 00 	lea    0xeec7(%rip),%rax        # 1b818 <g_223>
    c951:	48 89 85 48 f2 ff ff 	mov    %rax,-0xdb8(%rbp)
    c958:	48 8d 05 b9 ee 00 00 	lea    0xeeb9(%rip),%rax        # 1b818 <g_223>
    c95f:	48 89 85 50 f2 ff ff 	mov    %rax,-0xdb0(%rbp)
    c966:	48 8d 05 ab ee 00 00 	lea    0xeeab(%rip),%rax        # 1b818 <g_223>
    c96d:	48 89 85 58 f2 ff ff 	mov    %rax,-0xda8(%rbp)
    c974:	c7 85 c4 e8 ff ff 00 	movl   $0x0,-0x173c(%rbp)
    c97b:	00 00 00 
    c97e:	eb 1e                	jmp    c99e <func_21+0x976>
    c980:	8b 85 c4 e8 ff ff    	mov    -0x173c(%rbp),%eax
    c986:	48 98                	cltq   
    c988:	48 8d 15 79 f0 00 00 	lea    0xf079(%rip),%rdx        # 1ba08 <g_1108+0x88>
    c98f:	48 89 94 c5 f0 f3 ff 	mov    %rdx,-0xc10(%rbp,%rax,8)
    c996:	ff 
    c997:	83 85 c4 e8 ff ff 01 	addl   $0x1,-0x173c(%rbp)
    c99e:	83 bd c4 e8 ff ff 04 	cmpl   $0x4,-0x173c(%rbp)
    c9a5:	7e d9                	jle    c980 <func_21+0x958>
    c9a7:	8b 85 ac f8 ff ff    	mov    -0x754(%rbp),%eax
    c9ad:	83 c0 01             	add    $0x1,%eax
    c9b0:	89 85 ac f8 ff ff    	mov    %eax,-0x754(%rbp)
    c9b6:	8b 95 ac f8 ff ff    	mov    -0x754(%rbp),%edx
    c9bc:	0f b7 05 83 ee 00 00 	movzwl 0xee83(%rip),%eax        # 1b846 <g_244+0x26>
    c9c3:	98                   	cwtl   
    c9c4:	48 98                	cltq   
    c9c6:	48 8d 0d 33 ee 00 00 	lea    0xee33(%rip),%rcx        # 1b800 <g_179>
    c9cd:	0f b6 04 08          	movzbl (%rax,%rcx,1),%eax
    c9d1:	0f be c0             	movsbl %al,%eax
    c9d4:	39 c2                	cmp    %eax,%edx
    c9d6:	0f 92 c2             	setb   %dl
    c9d9:	48 8b 05 48 07 01 00 	mov    0x10748(%rip),%rax        # 1d128 <g_275>
    c9e0:	0f b6 d2             	movzbl %dl,%edx
    c9e3:	89 10                	mov    %edx,(%rax)
    c9e5:	48 0f be 9d 94 e8 ff 	movsbq -0x176c(%rbp),%rbx
    c9ec:	ff 
    c9ed:	0f b6 85 ab e8 ff ff 	movzbl -0x1755(%rbp),%eax
    c9f4:	44 0f be e0          	movsbl %al,%r12d
    c9f8:	48 8b 85 c0 e9 ff ff 	mov    -0x1640(%rbp),%rax
    c9ff:	44 0f b6 e8          	movzbl %al,%r13d
    ca03:	8b 05 1f ef 00 00    	mov    0xef1f(%rip),%eax        # 1b928 <g_878>
    ca09:	66 89 05 d6 ed 00 00 	mov    %ax,0xedd6(%rip)        # 1b7e6 <g_116+0x26>
    ca10:	0f b7 05 cf ed 00 00 	movzwl 0xedcf(%rip),%eax        # 1b7e6 <g_116+0x26>
    ca17:	98                   	cwtl   
    ca18:	89 85 e4 e8 ff ff    	mov    %eax,-0x171c(%rbp)
    ca1e:	8b 85 bc e8 ff ff    	mov    -0x1744(%rbp),%eax
    ca24:	89 c2                	mov    %eax,%edx
    ca26:	48 8b 85 58 eb ff ff 	mov    -0x14a8(%rbp),%rax
    ca2d:	66 89 10             	mov    %dx,(%rax)
    ca30:	48 8b 85 58 eb ff ff 	mov    -0x14a8(%rbp),%rax
    ca37:	0f b7 00             	movzwl (%rax),%eax
    ca3a:	0f b7 c0             	movzwl %ax,%eax
    ca3d:	8b 95 e4 e8 ff ff    	mov    -0x171c(%rbp),%edx
    ca43:	89 d6                	mov    %edx,%esi
    ca45:	89 c7                	mov    %eax,%edi
    ca47:	e8 fc 93 ff ff       	callq  5e48 <safe_rshift_func_uint16_t_u_s>
    ca4c:	44 8b b5 94 ec ff ff 	mov    -0x136c(%rbp),%r14d
    ca53:	44 0f be bd 94 e8 ff 	movsbl -0x176c(%rbp),%r15d
    ca5a:	ff 
    ca5b:	0f be 95 94 e8 ff ff 	movsbl -0x176c(%rbp),%edx
    ca62:	48 8b 85 40 eb ff ff 	mov    -0x14c0(%rbp),%rax
    ca69:	8b 00                	mov    (%rax),%eax
    ca6b:	21 d0                	and    %edx,%eax
    ca6d:	83 f8 7d             	cmp    $0x7d,%eax
    ca70:	0f 9e c0             	setle  %al
    ca73:	0f b6 c0             	movzbl %al,%eax
    ca76:	8b 95 8c e8 ff ff    	mov    -0x1774(%rbp),%edx
    ca7c:	89 d6                	mov    %edx,%esi
    ca7e:	89 c7                	mov    %eax,%edi
    ca80:	e8 e7 88 ff ff       	callq  536c <safe_rshift_func_int8_t_s_u>
    ca85:	0f be c0             	movsbl %al,%eax
    ca88:	44 89 fe             	mov    %r15d,%esi
    ca8b:	89 c7                	mov    %eax,%edi
    ca8d:	e8 c3 89 ff ff       	callq  5455 <safe_div_func_int16_t_s_s>
    ca92:	48 0f bf c0          	movswq %ax,%rax
    ca96:	25 db 89 82 5a       	and    $0x5a8289db,%eax
    ca9b:	48 83 f8 04          	cmp    $0x4,%rax
    ca9f:	0f 94 c0             	sete   %al
    caa2:	0f b6 c0             	movzbl %al,%eax
    caa5:	f7 d0                	not    %eax
    caa7:	44 89 f6             	mov    %r14d,%esi
    caaa:	89 c7                	mov    %eax,%edi
    caac:	e8 4e 8c ff ff       	callq  56ff <safe_div_func_int32_t_s_s>
    cab1:	83 f8 03             	cmp    $0x3,%eax
    cab4:	44 89 ee             	mov    %r13d,%esi
    cab7:	bf 40 00 00 00       	mov    $0x40,%edi
    cabc:	e8 d2 90 ff ff       	callq  5b93 <safe_mul_func_uint8_t_u_u>
    cac1:	0f be c0             	movsbl %al,%eax
    cac4:	44 89 e6             	mov    %r12d,%esi
    cac7:	89 c7                	mov    %eax,%edi
    cac9:	e8 63 87 ff ff       	callq  5231 <safe_mod_func_int8_t_s_s>
    cace:	48 0f be c0          	movsbq %al,%rax
    cad2:	48 89 de             	mov    %rbx,%rsi
    cad5:	48 89 c7             	mov    %rax,%rdi
    cad8:	e8 64 8d ff ff       	callq  5841 <safe_add_func_int64_t_s_s>
    cadd:	48 89 c2             	mov    %rax,%rdx
    cae0:	66 83 ad ba e8 ff ff 	subw   $0x1,-0x1746(%rbp)
    cae7:	01 
    cae8:	0f b7 85 ba e8 ff ff 	movzwl -0x1746(%rbp),%eax
    caef:	48 89 d6             	mov    %rdx,%rsi
    caf2:	48 89 c7             	mov    %rax,%rdi
    caf5:	e8 b5 95 ff ff       	callq  60af <safe_div_func_uint64_t_u_u>
    cafa:	08 85 b3 e8 ff ff    	or     %al,-0x174d(%rbp)
    cb00:	48 8b 85 98 e8 ff ff 	mov    -0x1768(%rbp),%rax
    cb07:	48 8b 0d 52 f1 00 00 	mov    0xf152(%rip),%rcx        # 1bc60 <g_1212>
    cb0e:	48 8b 1d 53 f1 00 00 	mov    0xf153(%rip),%rbx        # 1bc68 <g_1212+0x8>
    cb15:	48 89 08             	mov    %rcx,(%rax)
    cb18:	48 89 58 08          	mov    %rbx,0x8(%rax)
    cb1c:	48 8b 0d 4d f1 00 00 	mov    0xf14d(%rip),%rcx        # 1bc70 <g_1212+0x10>
    cb23:	48 8b 1d 4e f1 00 00 	mov    0xf14e(%rip),%rbx        # 1bc78 <g_1212+0x18>
    cb2a:	48 89 48 10          	mov    %rcx,0x10(%rax)
    cb2e:	48 89 58 18          	mov    %rbx,0x18(%rax)
    cb32:	48 8b 15 47 f1 00 00 	mov    0xf147(%rip),%rdx        # 1bc80 <g_1212+0x20>
    cb39:	48 89 50 20          	mov    %rdx,0x20(%rax)
    cb3d:	e9 8c 3c 00 00       	jmpq   107ce <func_21+0x47a6>
    cb42:	0f b7 05 fd ec 00 00 	movzwl 0xecfd(%rip),%eax        # 1b846 <g_244+0x26>
    cb49:	83 e8 01             	sub    $0x1,%eax
    cb4c:	66 89 05 f3 ec 00 00 	mov    %ax,0xecf3(%rip)        # 1b846 <g_244+0x26>
    cb53:	0f b7 05 ec ec 00 00 	movzwl 0xecec(%rip),%eax        # 1b846 <g_244+0x26>
    cb5a:	66 85 c0             	test   %ax,%ax
    cb5d:	0f 89 76 f9 ff ff    	jns    c4d9 <func_21+0x4b1>
    cb63:	48 8b 05 7e ec 00 00 	mov    0xec7e(%rip),%rax        # 1b7e8 <g_123>
    cb6a:	48 83 c0 01          	add    $0x1,%rax
    cb6e:	48 89 05 73 ec 00 00 	mov    %rax,0xec73(%rip)        # 1b7e8 <g_123>
    cb75:	48 8b 05 6c ec 00 00 	mov    0xec6c(%rip),%rax        # 1b7e8 <g_123>
    cb7c:	48 83 f8 24          	cmp    $0x24,%rax
    cb80:	0f 87 ec f7 ff ff    	ja     c372 <func_21+0x34a>
    cb86:	90                   	nop
    cb87:	c7 05 97 ed 00 00 00 	movl   $0x0,0xed97(%rip)        # 1b928 <g_878>
    cb8e:	00 00 00 
    cb91:	e9 70 02 00 00       	jmpq   ce06 <func_21+0xdde>
    cb96:	c7 85 ec e8 ff ff ff 	movl   $0xffffffff,-0x1714(%rbp)
    cb9d:	ff ff ff 
    cba0:	48 8d 05 51 eb 00 00 	lea    0xeb51(%rip),%rax        # 1b6f8 <g_97+0x3b8>
    cba7:	48 89 85 20 ea ff ff 	mov    %rax,-0x15e0(%rbp)
    cbae:	48 8d 05 13 f1 00 00 	lea    0xf113(%rip),%rax        # 1bcc8 <g_1464>
    cbb5:	48 89 85 28 ea ff ff 	mov    %rax,-0x15d8(%rbp)
    cbbc:	c7 85 f0 e8 ff ff 9d 	movl   $0xc19d3f9d,-0x1710(%rbp)
    cbc3:	3f 9d c1 
    cbc6:	48 8d 05 2f e7 00 00 	lea    0xe72f(%rip),%rax        # 1b2fc <g_42+0x2bc>
    cbcd:	48 89 85 30 ea ff ff 	mov    %rax,-0x15d0(%rbp)
    cbd4:	48 8d 85 80 ec ff ff 	lea    -0x1380(%rbp),%rax
    cbdb:	48 83 c0 10          	add    $0x10,%rax
    cbdf:	48 89 85 20 fb ff ff 	mov    %rax,-0x4e0(%rbp)
    cbe6:	48 8d 85 80 ec ff ff 	lea    -0x1380(%rbp),%rax
    cbed:	48 83 c0 10          	add    $0x10,%rax
    cbf1:	48 89 85 28 fb ff ff 	mov    %rax,-0x4d8(%rbp)
    cbf8:	48 8d 85 80 ec ff ff 	lea    -0x1380(%rbp),%rax
    cbff:	48 83 c0 10          	add    $0x10,%rax
    cc03:	48 89 85 30 fb ff ff 	mov    %rax,-0x4d0(%rbp)
    cc0a:	48 8d 85 80 ec ff ff 	lea    -0x1380(%rbp),%rax
    cc11:	48 83 c0 10          	add    $0x10,%rax
    cc15:	48 89 85 38 fb ff ff 	mov    %rax,-0x4c8(%rbp)
    cc1c:	48 8d 85 80 ec ff ff 	lea    -0x1380(%rbp),%rax
    cc23:	48 83 c0 10          	add    $0x10,%rax
    cc27:	48 89 85 40 fb ff ff 	mov    %rax,-0x4c0(%rbp)
    cc2e:	48 8d 85 80 ec ff ff 	lea    -0x1380(%rbp),%rax
    cc35:	48 83 c0 10          	add    $0x10,%rax
    cc39:	48 89 85 48 fb ff ff 	mov    %rax,-0x4b8(%rbp)
    cc40:	0f b6 9d af e8 ff ff 	movzbl -0x1751(%rbp),%ebx
    cc47:	8b 85 ec e8 ff ff    	mov    -0x1714(%rbp),%eax
    cc4d:	98                   	cwtl   
    cc4e:	be 08 00 00 00       	mov    $0x8,%esi
    cc53:	89 c7                	mov    %eax,%edi
    cc55:	e8 87 88 ff ff       	callq  54e1 <safe_lshift_func_int16_t_s_u>
    cc5a:	0f bf d0             	movswl %ax,%edx
    cc5d:	48 8b 05 fc 04 01 00 	mov    0x104fc(%rip),%rax        # 1d160 <g_446>
    cc64:	8b 8d 90 e8 ff ff    	mov    -0x1770(%rbp),%ecx
    cc6a:	48 63 c9             	movslq %ecx,%rcx
    cc6d:	48 89 08             	mov    %rcx,(%rax)
    cc70:	48 8b 00             	mov    (%rax),%rax
    cc73:	89 85 e4 e8 ff ff    	mov    %eax,-0x171c(%rbp)
    cc79:	39 95 e4 e8 ff ff    	cmp    %edx,-0x171c(%rbp)
    cc7f:	0f 9e c0             	setle  %al
    cc82:	0f b6 d0             	movzbl %al,%edx
    cc85:	48 8b 85 d0 e9 ff ff 	mov    -0x1630(%rbp),%rax
    cc8c:	8b 00                	mov    (%rax),%eax
    cc8e:	98                   	cwtl   
    cc8f:	89 d6                	mov    %edx,%esi
    cc91:	89 c7                	mov    %eax,%edi
    cc93:	e8 3b 87 ff ff       	callq  53d3 <safe_sub_func_int16_t_s_s>
    cc98:	0f bf d0             	movswl %ax,%edx
    cc9b:	48 8b 05 b4 ec 00 00 	mov    0xecb4(%rip),%rax        # 1b956 <g_1051+0x16>
    cca2:	98                   	cwtl   
    cca3:	89 d6                	mov    %edx,%esi
    cca5:	89 c7                	mov    %eax,%edi
    cca7:	e8 35 88 ff ff       	callq  54e1 <safe_lshift_func_int16_t_s_u>
    ccac:	48 8b 05 ad 0e 01 00 	mov    0x10ead(%rip),%rax        # 1db60 <g_1407>
    ccb3:	48 8b 00             	mov    (%rax),%rax
    ccb6:	4c 8b 20             	mov    (%rax),%r12
    ccb9:	8b 85 8c e8 ff ff    	mov    -0x1774(%rbp),%eax
    ccbf:	0f b6 d0             	movzbl %al,%edx
    ccc2:	83 bd ec e8 ff ff 00 	cmpl   $0x0,-0x1714(%rbp)
    ccc9:	0f 95 c1             	setne  %cl
    cccc:	48 8b 05 8d 04 01 00 	mov    0x1048d(%rip),%rax        # 1d160 <g_446>
    ccd3:	0f b6 c9             	movzbl %cl,%ecx
    ccd6:	48 89 08             	mov    %rcx,(%rax)
    ccd9:	48 8b 08             	mov    (%rax),%rcx
    ccdc:	48 8b 85 20 ea ff ff 	mov    -0x15e0(%rbp),%rax
    cce3:	48 89 08             	mov    %rcx,(%rax)
    cce6:	48 8b 85 d0 e9 ff ff 	mov    -0x1630(%rbp),%rax
    cced:	8b 00                	mov    (%rax),%eax
    ccef:	89 c1                	mov    %eax,%ecx
    ccf1:	48 8b 85 e0 e9 ff ff 	mov    -0x1620(%rbp),%rax
    ccf8:	66 89 08             	mov    %cx,(%rax)
    ccfb:	48 8b 85 e0 e9 ff ff 	mov    -0x1620(%rbp),%rax
    cd02:	0f b7 00             	movzwl (%rax),%eax
    cd05:	98                   	cwtl   
    cd06:	39 85 ec e8 ff ff    	cmp    %eax,-0x1714(%rbp)
    cd0c:	0f 9c c0             	setl   %al
    cd0f:	0f b6 c0             	movzbl %al,%eax
    cd12:	89 d6                	mov    %edx,%esi
    cd14:	89 c7                	mov    %eax,%edi
    cd16:	e8 c0 8e ff ff       	callq  5bdb <safe_div_func_uint8_t_u_u>
    cd1b:	0f b6 d0             	movzbl %al,%edx
    cd1e:	48 8b 85 d0 e9 ff ff 	mov    -0x1630(%rbp),%rax
    cd25:	8b 00                	mov    (%rax),%eax
    cd27:	39 c2                	cmp    %eax,%edx
    cd29:	0f 9e c0             	setle  %al
    cd2c:	0f b6 d0             	movzbl %al,%edx
    cd2f:	48 8b 85 28 ea ff ff 	mov    -0x15d8(%rbp),%rax
    cd36:	66 89 10             	mov    %dx,(%rax)
    cd39:	48 8b 85 28 ea ff ff 	mov    -0x15d8(%rbp),%rax
    cd40:	0f b7 00             	movzwl (%rax),%eax
    cd43:	0f bf d0             	movswl %ax,%edx
    cd46:	8b 05 b0 ea 00 00    	mov    0xeab0(%rip),%eax        # 1b7fc <g_151>
    cd4c:	98                   	cwtl   
    cd4d:	89 d6                	mov    %edx,%esi
    cd4f:	89 c7                	mov    %eax,%edi
    cd51:	e8 9f 86 ff ff       	callq  53f5 <safe_mul_func_int16_t_s_s>
    cd56:	0f bf d0             	movswl %ax,%edx
    cd59:	48 8b 85 d0 e9 ff ff 	mov    -0x1630(%rbp),%rax
    cd60:	8b 00                	mov    (%rax),%eax
    cd62:	39 c2                	cmp    %eax,%edx
    cd64:	0f 9d c0             	setge  %al
    cd67:	0f b6 c0             	movzbl %al,%eax
    cd6a:	4c 89 e6             	mov    %r12,%rsi
    cd6d:	48 89 c7             	mov    %rax,%rdi
    cd70:	e8 3f 8c ff ff       	callq  59b4 <safe_mod_func_int64_t_s_s>
    cd75:	8b 95 8c e8 ff ff    	mov    -0x1774(%rbp),%edx
    cd7b:	48 39 d0             	cmp    %rdx,%rax
    cd7e:	0f 94 c2             	sete   %dl
    cd81:	48 8b 05 70 07 01 00 	mov    0x10770(%rip),%rax        # 1d4f8 <g_837>
    cd88:	48 8b 00             	mov    (%rax),%rax
    cd8b:	0f b6 d2             	movzbl %dl,%edx
    cd8e:	89 10                	mov    %edx,(%rax)
    cd90:	48 8b 05 c1 0d 01 00 	mov    0x10dc1(%rip),%rax        # 1db58 <g_1408>
    cd97:	48 8b 00             	mov    (%rax),%rax
    cd9a:	48 83 f8 ff          	cmp    $0xffffffffffffffff,%rax
    cd9e:	75 0c                	jne    cdac <func_21+0xd84>
    cda0:	48 b8 ed 9c 0e 11 a1 	movabs $0xbb88c1a1110e9ced,%rax
    cda7:	c1 88 bb 
    cdaa:	eb 0a                	jmp    cdb6 <func_21+0xd8e>
    cdac:	48 b8 ec 9c 0e 11 a1 	movabs $0xbb88c1a1110e9cec,%rax
    cdb3:	c1 88 bb 
    cdb6:	48 89 de             	mov    %rbx,%rsi
    cdb9:	48 89 c7             	mov    %rax,%rdi
    cdbc:	e8 36 8c ff ff       	callq  59f7 <safe_div_func_int64_t_s_s>
    cdc1:	48 0f be 95 94 e8 ff 	movsbq -0x176c(%rbp),%rdx
    cdc8:	ff 
    cdc9:	48 21 d0             	and    %rdx,%rax
    cdcc:	31 85 f0 e8 ff ff    	xor    %eax,-0x1710(%rbp)
    cdd2:	48 8b 85 d0 e9 ff ff 	mov    -0x1630(%rbp),%rax
    cdd9:	8b 00                	mov    (%rax),%eax
    cddb:	85 c0                	test   %eax,%eax
    cddd:	75 38                	jne    ce17 <func_21+0xdef>
    cddf:	8b 85 d0 eb ff ff    	mov    -0x1430(%rbp),%eax
    cde5:	83 e8 01             	sub    $0x1,%eax
    cde8:	89 85 d0 eb ff ff    	mov    %eax,-0x1430(%rbp)
    cdee:	8b 05 34 eb 00 00    	mov    0xeb34(%rip),%eax        # 1b928 <g_878>
    cdf4:	be 05 00 00 00       	mov    $0x5,%esi
    cdf9:	89 c7                	mov    %eax,%edi
    cdfb:	e8 05 88 ff ff       	callq  5605 <safe_sub_func_int32_t_s_s>
    ce00:	89 05 22 eb 00 00    	mov    %eax,0xeb22(%rip)        # 1b928 <g_878>
    ce06:	8b 05 1c eb 00 00    	mov    0xeb1c(%rip),%eax        # 1b928 <g_878>
    ce0c:	83 f8 f4             	cmp    $0xfffffff4,%eax
    ce0f:	0f 8c 81 fd ff ff    	jl     cb96 <func_21+0xb6e>
    ce15:	eb 01                	jmp    ce18 <func_21+0xdf0>
    ce17:	90                   	nop
    ce18:	0f b6 85 94 e8 ff ff 	movzbl -0x176c(%rbp),%eax
    ce1f:	0f b6 d8             	movzbl %al,%ebx
    ce22:	48 8b 85 d0 e9 ff ff 	mov    -0x1630(%rbp),%rax
    ce29:	8b 00                	mov    (%rax),%eax
    ce2b:	41 89 c6             	mov    %eax,%r14d
    ce2e:	0f b7 85 1c ec ff ff 	movzwl -0x13e4(%rbp),%eax
    ce35:	44 0f b7 e8          	movzwl %ax,%r13d
    ce39:	0f b6 85 ac e8 ff ff 	movzbl -0x1754(%rbp),%eax
    ce40:	44 0f be e0          	movsbl %al,%r12d
    ce44:	48 8b 85 d0 e9 ff ff 	mov    -0x1630(%rbp),%rax
    ce4b:	8b 00                	mov    (%rax),%eax
    ce4d:	3d ff 00 00 00       	cmp    $0xff,%eax
    ce52:	0f 97 c0             	seta   %al
    ce55:	0f b6 c0             	movzbl %al,%eax
    ce58:	33 85 90 e8 ff ff    	xor    -0x1770(%rbp),%eax
    ce5e:	89 c2                	mov    %eax,%edx
    ce60:	8b 85 8c e8 ff ff    	mov    -0x1774(%rbp),%eax
    ce66:	0f b7 c0             	movzwl %ax,%eax
    ce69:	89 d6                	mov    %edx,%esi
    ce6b:	89 c7                	mov    %eax,%edi
    ce6d:	e8 94 8f ff ff       	callq  5e06 <safe_lshift_func_uint16_t_u_u>
    ce72:	0f be c0             	movsbl %al,%eax
    ce75:	be 01 00 00 00       	mov    $0x1,%esi
    ce7a:	89 c7                	mov    %eax,%edi
    ce7c:	e8 eb 84 ff ff       	callq  536c <safe_rshift_func_int8_t_s_u>
    ce81:	0f be c0             	movsbl %al,%eax
    ce84:	89 c6                	mov    %eax,%esi
    ce86:	bf 01 00 00 00       	mov    $0x1,%edi
    ce8b:	e8 ea 8f ff ff       	callq  5e7a <safe_rshift_func_uint16_t_u_u>
    ce90:	48 8b 05 91 02 01 00 	mov    0x10291(%rip),%rax        # 1d128 <g_275>
    ce97:	8b 00                	mov    (%rax),%eax
    ce99:	85 c0                	test   %eax,%eax
    ce9b:	0f 9e c0             	setle  %al
    ce9e:	0f b6 c0             	movzbl %al,%eax
    cea1:	be 01 00 00 00       	mov    $0x1,%esi
    cea6:	48 89 c7             	mov    %rax,%rdi
    cea9:	e8 06 8b ff ff       	callq  59b4 <safe_mod_func_int64_t_s_s>
    ceae:	44 89 e6             	mov    %r12d,%esi
    ceb1:	89 c7                	mov    %eax,%edi
    ceb3:	e8 45 90 ff ff       	callq  5efd <safe_mod_func_uint32_t_u_u>
    ceb8:	48 8b 95 d0 e9 ff ff 	mov    -0x1630(%rbp),%rdx
    cebf:	8b 12                	mov    (%rdx),%edx
    cec1:	39 d0                	cmp    %edx,%eax
    cec3:	0f 93 c0             	setae  %al
    cec6:	0f b6 c0             	movzbl %al,%eax
    cec9:	41 39 c5             	cmp    %eax,%r13d
    cecc:	0f 9e c0             	setle  %al
    cecf:	0f b6 c0             	movzbl %al,%eax
    ced2:	89 c7                	mov    %eax,%edi
    ced4:	e8 6c 8c ff ff       	callq  5b45 <safe_unary_minus_func_uint8_t_u>
    ced9:	84 c0                	test   %al,%al
    cedb:	74 10                	je     ceed <func_21+0xec5>
    cedd:	83 bd 8c e8 ff ff 00 	cmpl   $0x0,-0x1774(%rbp)
    cee4:	74 07                	je     ceed <func_21+0xec5>
    cee6:	b8 01 00 00 00       	mov    $0x1,%eax
    ceeb:	eb 05                	jmp    cef2 <func_21+0xeca>
    ceed:	b8 00 00 00 00       	mov    $0x0,%eax
    cef2:	0f b6 c0             	movzbl %al,%eax
    cef5:	be fc 00 00 00       	mov    $0xfc,%esi
    cefa:	89 c7                	mov    %eax,%edi
    cefc:	e8 ad 8c ff ff       	callq  5bae <safe_mod_func_uint8_t_u_u>
    cf01:	0f b6 c0             	movzbl %al,%eax
    cf04:	44 89 f6             	mov    %r14d,%esi
    cf07:	89 c7                	mov    %eax,%edi
    cf09:	e8 17 90 ff ff       	callq  5f25 <safe_div_func_uint32_t_u_u>
    cf0e:	41 89 c4             	mov    %eax,%r12d
    cf11:	48 0f be 85 94 e8 ff 	movsbq -0x176c(%rbp),%rax
    cf18:	ff 
    cf19:	48 c7 c6 ff ff ff ff 	mov    $0xffffffffffffffff,%rsi
    cf20:	48 89 c7             	mov    %rax,%rdi
    cf23:	e8 cf 8a ff ff       	callq  59f7 <safe_div_func_int64_t_s_s>
    cf28:	89 c1                	mov    %eax,%ecx
    cf2a:	48 8b 95 38 e9 ff ff 	mov    -0x16c8(%rbp),%rdx
    cf31:	48 8b 85 e8 e9 ff ff 	mov    -0x1618(%rbp),%rax
    cf38:	48 89 10             	mov    %rdx,(%rax)
    cf3b:	48 8b 85 e8 e9 ff ff 	mov    -0x1618(%rbp),%rax
    cf42:	48 8b 00             	mov    (%rax),%rax
    cf45:	48 85 c0             	test   %rax,%rax
    cf48:	0f 95 c0             	setne  %al
    cf4b:	0f b6 c0             	movzbl %al,%eax
    cf4e:	89 ce                	mov    %ecx,%esi
    cf50:	89 c7                	mov    %eax,%edi
    cf52:	e8 a8 87 ff ff       	callq  56ff <safe_div_func_int32_t_s_s>
    cf57:	48 8b 85 d0 e9 ff ff 	mov    -0x1630(%rbp),%rax
    cf5e:	8b 10                	mov    (%rax),%edx
    cf60:	48 8b 85 f0 e9 ff ff 	mov    -0x1610(%rbp),%rax
    cf67:	0f b7 00             	movzwl (%rax),%eax
    cf6a:	44 89 e1             	mov    %r12d,%ecx
    cf6d:	09 c1                	or     %eax,%ecx
    cf6f:	48 8b 85 f0 e9 ff ff 	mov    -0x1610(%rbp),%rax
    cf76:	66 89 08             	mov    %cx,(%rax)
    cf79:	48 8b 85 f0 e9 ff ff 	mov    -0x1610(%rbp),%rax
    cf80:	0f b7 00             	movzwl (%rax),%eax
    cf83:	0f b7 c0             	movzwl %ax,%eax
    cf86:	39 c2                	cmp    %eax,%edx
    cf88:	be 03 00 00 00       	mov    $0x3,%esi
    cf8d:	bf 01 00 00 00       	mov    $0x1,%edi
    cf92:	e8 b1 8e ff ff       	callq  5e48 <safe_rshift_func_uint16_t_u_s>
    cf97:	0f b7 d0             	movzwl %ax,%edx
    cf9a:	48 8b 85 d0 e9 ff ff 	mov    -0x1630(%rbp),%rax
    cfa1:	89 10                	mov    %edx,(%rax)
    cfa3:	48 b9 c4 7c 74 25 80 	movabs $0x59efbf8025747cc4,%rcx
    cfaa:	bf ef 59 
    cfad:	48 8b 05 ac 01 01 00 	mov    0x101ac(%rip),%rax        # 1d160 <g_446>
    cfb4:	48 8b 10             	mov    (%rax),%rdx
    cfb7:	48 8b 05 a2 01 01 00 	mov    0x101a2(%rip),%rax        # 1d160 <g_446>
    cfbe:	48 31 ca             	xor    %rcx,%rdx
    cfc1:	48 89 10             	mov    %rdx,(%rax)
    cfc4:	83 bd e8 e8 ff ff 00 	cmpl   $0x0,-0x1718(%rbp)
    cfcb:	75 09                	jne    cfd6 <func_21+0xfae>
    cfcd:	83 bd 90 e8 ff ff 00 	cmpl   $0x0,-0x1770(%rbp)
    cfd4:	74 07                	je     cfdd <func_21+0xfb5>
    cfd6:	b8 01 00 00 00       	mov    $0x1,%eax
    cfdb:	eb 05                	jmp    cfe2 <func_21+0xfba>
    cfdd:	b8 00 00 00 00       	mov    $0x0,%eax
    cfe2:	83 f0 fa             	xor    $0xfffffffa,%eax
    cfe5:	89 c2                	mov    %eax,%edx
    cfe7:	48 8b 85 40 e9 ff ff 	mov    -0x16c0(%rbp),%rax
    cfee:	88 10                	mov    %dl,(%rax)
    cff0:	0f b6 00             	movzbl (%rax),%eax
    cff3:	0f b6 c0             	movzbl %al,%eax
    cff6:	89 de                	mov    %ebx,%esi
    cff8:	89 c7                	mov    %eax,%edi
    cffa:	e8 af 8b ff ff       	callq  5bae <safe_mod_func_uint8_t_u_u>
    cfff:	0f b6 c0             	movzbl %al,%eax
    d002:	be 09 00 00 00       	mov    $0x9,%esi
    d007:	89 c7                	mov    %eax,%edi
    d009:	e8 84 84 ff ff       	callq  5492 <safe_lshift_func_int16_t_s_s>
    d00e:	89 c2                	mov    %eax,%edx
    d010:	48 8b 05 39 01 01 00 	mov    0x10139(%rip),%rax        # 1d150 <g_431>
    d017:	0f bf d2             	movswl %dx,%edx
    d01a:	89 10                	mov    %edx,(%rax)
    d01c:	48 8d 05 3d 0b 01 00 	lea    0x10b3d(%rip),%rax        # 1db60 <g_1407>
    d023:	48 39 85 f8 e9 ff ff 	cmp    %rax,-0x1608(%rbp)
    d02a:	0f 95 c0             	setne  %al
    d02d:	0f b6 c0             	movzbl %al,%eax
    d030:	48 8b 95 d0 e9 ff ff 	mov    -0x1630(%rbp),%rdx
    d037:	8b 12                	mov    (%rdx),%edx
    d039:	89 c6                	mov    %eax,%esi
    d03b:	89 d7                	mov    %edx,%edi
    d03d:	e8 a4 8e ff ff       	callq  5ee6 <safe_mul_func_uint32_t_u_u>
    d042:	c7 85 c8 e8 ff ff d6 	movl   $0x3d3de1d6,-0x1738(%rbp)
    d049:	e1 3d 3d 
    d04c:	48 8d 85 50 e9 ff ff 	lea    -0x16b0(%rbp),%rax
    d053:	48 89 85 70 e9 ff ff 	mov    %rax,-0x1690(%rbp)
    d05a:	c7 85 cc e8 ff ff f6 	movl   $0xfffffff6,-0x1734(%rbp)
    d061:	ff ff ff 
    d064:	48 8d 05 75 ec 00 00 	lea    0xec75(%rip),%rax        # 1bce0 <g_1512>
    d06b:	48 89 85 90 ed ff ff 	mov    %rax,-0x1270(%rbp)
    d072:	48 8d 05 e7 ec 00 00 	lea    0xece7(%rip),%rax        # 1bd60 <g_1619>
    d079:	48 89 85 98 ed ff ff 	mov    %rax,-0x1268(%rbp)
    d080:	48 8d 05 d9 ec 00 00 	lea    0xecd9(%rip),%rax        # 1bd60 <g_1619>
    d087:	48 89 85 a0 ed ff ff 	mov    %rax,-0x1260(%rbp)
    d08e:	48 8d 05 4b ec 00 00 	lea    0xec4b(%rip),%rax        # 1bce0 <g_1512>
    d095:	48 89 85 a8 ed ff ff 	mov    %rax,-0x1258(%rbp)
    d09c:	48 8d 05 dd e7 00 00 	lea    0xe7dd(%rip),%rax        # 1b880 <g_517>
    d0a3:	48 89 85 b0 ed ff ff 	mov    %rax,-0x1250(%rbp)
    d0aa:	48 8d 05 2f ec 00 00 	lea    0xec2f(%rip),%rax        # 1bce0 <g_1512>
    d0b1:	48 89 85 b8 ed ff ff 	mov    %rax,-0x1248(%rbp)
    d0b8:	48 8d 05 a1 ec 00 00 	lea    0xeca1(%rip),%rax        # 1bd60 <g_1619>
    d0bf:	48 89 85 c0 ed ff ff 	mov    %rax,-0x1240(%rbp)
    d0c6:	48 8d 05 93 ec 00 00 	lea    0xec93(%rip),%rax        # 1bd60 <g_1619>
    d0cd:	48 89 85 c8 ed ff ff 	mov    %rax,-0x1238(%rbp)
    d0d4:	48 8d 05 85 ec 00 00 	lea    0xec85(%rip),%rax        # 1bd60 <g_1619>
    d0db:	48 89 85 d0 ed ff ff 	mov    %rax,-0x1230(%rbp)
    d0e2:	48 8d 05 97 e7 00 00 	lea    0xe797(%rip),%rax        # 1b880 <g_517>
    d0e9:	48 89 85 d8 ed ff ff 	mov    %rax,-0x1228(%rbp)
    d0f0:	48 8d 05 29 ec 00 00 	lea    0xec29(%rip),%rax        # 1bd20 <g_1563>
    d0f7:	48 89 85 e0 ed ff ff 	mov    %rax,-0x1220(%rbp)
    d0fe:	48 8d 05 1b ec 00 00 	lea    0xec1b(%rip),%rax        # 1bd20 <g_1563>
    d105:	48 89 85 e8 ed ff ff 	mov    %rax,-0x1218(%rbp)
    d10c:	48 8d 05 6d e7 00 00 	lea    0xe76d(%rip),%rax        # 1b880 <g_517>
    d113:	48 89 85 f0 ed ff ff 	mov    %rax,-0x1210(%rbp)
    d11a:	48 8d 05 3f ec 00 00 	lea    0xec3f(%rip),%rax        # 1bd60 <g_1619>
    d121:	48 89 85 f8 ed ff ff 	mov    %rax,-0x1208(%rbp)
    d128:	48 8d 05 51 e7 00 00 	lea    0xe751(%rip),%rax        # 1b880 <g_517>
    d12f:	48 89 85 00 ee ff ff 	mov    %rax,-0x1200(%rbp)
    d136:	48 8d 05 e3 eb 00 00 	lea    0xebe3(%rip),%rax        # 1bd20 <g_1563>
    d13d:	48 89 85 08 ee ff ff 	mov    %rax,-0x11f8(%rbp)
    d144:	48 8d 05 95 eb 00 00 	lea    0xeb95(%rip),%rax        # 1bce0 <g_1512>
    d14b:	48 89 85 10 ee ff ff 	mov    %rax,-0x11f0(%rbp)
    d152:	48 8d 05 27 e7 00 00 	lea    0xe727(%rip),%rax        # 1b880 <g_517>
    d159:	48 89 85 18 ee ff ff 	mov    %rax,-0x11e8(%rbp)
    d160:	48 8d 05 79 eb 00 00 	lea    0xeb79(%rip),%rax        # 1bce0 <g_1512>
    d167:	48 89 85 20 ee ff ff 	mov    %rax,-0x11e0(%rbp)
    d16e:	48 8d 05 eb eb 00 00 	lea    0xebeb(%rip),%rax        # 1bd60 <g_1619>
    d175:	48 89 85 28 ee ff ff 	mov    %rax,-0x11d8(%rbp)
    d17c:	48 8d 05 dd eb 00 00 	lea    0xebdd(%rip),%rax        # 1bd60 <g_1619>
    d183:	48 89 85 30 ee ff ff 	mov    %rax,-0x11d0(%rbp)
    d18a:	48 8d 05 4f eb 00 00 	lea    0xeb4f(%rip),%rax        # 1bce0 <g_1512>
    d191:	48 89 85 38 ee ff ff 	mov    %rax,-0x11c8(%rbp)
    d198:	48 8d 05 e1 e6 00 00 	lea    0xe6e1(%rip),%rax        # 1b880 <g_517>
    d19f:	48 89 85 40 ee ff ff 	mov    %rax,-0x11c0(%rbp)
    d1a6:	48 8d 05 33 eb 00 00 	lea    0xeb33(%rip),%rax        # 1bce0 <g_1512>
    d1ad:	48 89 85 48 ee ff ff 	mov    %rax,-0x11b8(%rbp)
    d1b4:	66 c7 85 a0 eb ff ff 	movw   $0x101,-0x1460(%rbp)
    d1bb:	01 01 
    d1bd:	66 c7 85 a2 eb ff ff 	movw   $0x101,-0x145e(%rbp)
    d1c4:	01 01 
    d1c6:	66 c7 85 a4 eb ff ff 	movw   $0x101,-0x145c(%rbp)
    d1cd:	01 01 
    d1cf:	66 c7 85 a6 eb ff ff 	movw   $0x101,-0x145a(%rbp)
    d1d6:	01 01 
    d1d8:	66 c7 85 a8 eb ff ff 	movw   $0x101,-0x1458(%rbp)
    d1df:	01 01 
    d1e1:	66 c7 85 aa eb ff ff 	movw   $0x101,-0x1456(%rbp)
    d1e8:	01 01 
    d1ea:	66 c7 85 ac eb ff ff 	movw   $0x101,-0x1454(%rbp)
    d1f1:	01 01 
    d1f3:	66 c7 85 ae eb ff ff 	movw   $0x101,-0x1452(%rbp)
    d1fa:	01 01 
    d1fc:	66 c7 85 b0 eb ff ff 	movw   $0x101,-0x1450(%rbp)
    d203:	01 01 
    d205:	48 8d 05 e8 e5 00 00 	lea    0xe5e8(%rip),%rax        # 1b7f4 <g_144>
    d20c:	48 89 85 78 e9 ff ff 	mov    %rax,-0x1688(%rbp)
    d213:	48 8d 85 78 e9 ff ff 	lea    -0x1688(%rbp),%rax
    d21a:	48 89 85 20 fb ff ff 	mov    %rax,-0x4e0(%rbp)
    d221:	48 8d 85 78 e9 ff ff 	lea    -0x1688(%rbp),%rax
    d228:	48 89 85 28 fb ff ff 	mov    %rax,-0x4d8(%rbp)
    d22f:	48 8d 85 78 e9 ff ff 	lea    -0x1688(%rbp),%rax
    d236:	48 89 85 30 fb ff ff 	mov    %rax,-0x4d0(%rbp)
    d23d:	48 8d 85 78 e9 ff ff 	lea    -0x1688(%rbp),%rax
    d244:	48 89 85 38 fb ff ff 	mov    %rax,-0x4c8(%rbp)
    d24b:	48 8d 85 78 e9 ff ff 	lea    -0x1688(%rbp),%rax
    d252:	48 89 85 40 fb ff ff 	mov    %rax,-0x4c0(%rbp)
    d259:	48 8d 85 78 e9 ff ff 	lea    -0x1688(%rbp),%rax
    d260:	48 89 85 48 fb ff ff 	mov    %rax,-0x4b8(%rbp)
    d267:	48 8d 85 78 e9 ff ff 	lea    -0x1688(%rbp),%rax
    d26e:	48 89 85 50 fb ff ff 	mov    %rax,-0x4b0(%rbp)
    d275:	48 8d 85 78 e9 ff ff 	lea    -0x1688(%rbp),%rax
    d27c:	48 89 85 58 fb ff ff 	mov    %rax,-0x4a8(%rbp)
    d283:	48 8d 85 78 e9 ff ff 	lea    -0x1688(%rbp),%rax
    d28a:	48 89 85 60 fb ff ff 	mov    %rax,-0x4a0(%rbp)
    d291:	48 c7 85 68 fb ff ff 	movq   $0x0,-0x498(%rbp)
    d298:	00 00 00 00 
    d29c:	48 8d 85 78 e9 ff ff 	lea    -0x1688(%rbp),%rax
    d2a3:	48 89 85 70 fb ff ff 	mov    %rax,-0x490(%rbp)
    d2aa:	48 8d 85 78 e9 ff ff 	lea    -0x1688(%rbp),%rax
    d2b1:	48 89 85 78 fb ff ff 	mov    %rax,-0x488(%rbp)
    d2b8:	48 c7 85 80 fb ff ff 	movq   $0x0,-0x480(%rbp)
    d2bf:	00 00 00 00 
    d2c3:	48 8d 85 78 e9 ff ff 	lea    -0x1688(%rbp),%rax
    d2ca:	48 89 85 88 fb ff ff 	mov    %rax,-0x478(%rbp)
    d2d1:	48 8d 85 78 e9 ff ff 	lea    -0x1688(%rbp),%rax
    d2d8:	48 89 85 90 fb ff ff 	mov    %rax,-0x470(%rbp)
    d2df:	48 8d 85 78 e9 ff ff 	lea    -0x1688(%rbp),%rax
    d2e6:	48 89 85 98 fb ff ff 	mov    %rax,-0x468(%rbp)
    d2ed:	48 8d 85 78 e9 ff ff 	lea    -0x1688(%rbp),%rax
    d2f4:	48 89 85 a0 fb ff ff 	mov    %rax,-0x460(%rbp)
    d2fb:	48 8d 85 78 e9 ff ff 	lea    -0x1688(%rbp),%rax
    d302:	48 89 85 a8 fb ff ff 	mov    %rax,-0x458(%rbp)
    d309:	48 8d 85 78 e9 ff ff 	lea    -0x1688(%rbp),%rax
    d310:	48 89 85 b0 fb ff ff 	mov    %rax,-0x450(%rbp)
    d317:	48 8d 85 78 e9 ff ff 	lea    -0x1688(%rbp),%rax
    d31e:	48 89 85 b8 fb ff ff 	mov    %rax,-0x448(%rbp)
    d325:	48 8d 85 78 e9 ff ff 	lea    -0x1688(%rbp),%rax
    d32c:	48 89 85 c0 fb ff ff 	mov    %rax,-0x440(%rbp)
    d333:	48 8d 85 78 e9 ff ff 	lea    -0x1688(%rbp),%rax
    d33a:	48 89 85 c8 fb ff ff 	mov    %rax,-0x438(%rbp)
    d341:	48 8d 85 78 e9 ff ff 	lea    -0x1688(%rbp),%rax
    d348:	48 89 85 d0 fb ff ff 	mov    %rax,-0x430(%rbp)
    d34f:	48 8d 85 78 e9 ff ff 	lea    -0x1688(%rbp),%rax
    d356:	48 89 85 d8 fb ff ff 	mov    %rax,-0x428(%rbp)
    d35d:	48 8d 85 78 e9 ff ff 	lea    -0x1688(%rbp),%rax
    d364:	48 89 85 e0 fb ff ff 	mov    %rax,-0x420(%rbp)
    d36b:	48 8d 85 78 e9 ff ff 	lea    -0x1688(%rbp),%rax
    d372:	48 89 85 e8 fb ff ff 	mov    %rax,-0x418(%rbp)
    d379:	48 8d 85 78 e9 ff ff 	lea    -0x1688(%rbp),%rax
    d380:	48 89 85 f0 fb ff ff 	mov    %rax,-0x410(%rbp)
    d387:	48 8d 85 78 e9 ff ff 	lea    -0x1688(%rbp),%rax
    d38e:	48 89 85 f8 fb ff ff 	mov    %rax,-0x408(%rbp)
    d395:	48 8d 85 78 e9 ff ff 	lea    -0x1688(%rbp),%rax
    d39c:	48 89 85 00 fc ff ff 	mov    %rax,-0x400(%rbp)
    d3a3:	48 8d 85 78 e9 ff ff 	lea    -0x1688(%rbp),%rax
    d3aa:	48 89 85 08 fc ff ff 	mov    %rax,-0x3f8(%rbp)
    d3b1:	48 8d 85 78 e9 ff ff 	lea    -0x1688(%rbp),%rax
    d3b8:	48 89 85 10 fc ff ff 	mov    %rax,-0x3f0(%rbp)
    d3bf:	48 8d 85 78 e9 ff ff 	lea    -0x1688(%rbp),%rax
    d3c6:	48 89 85 18 fc ff ff 	mov    %rax,-0x3e8(%rbp)
    d3cd:	48 8d 85 78 e9 ff ff 	lea    -0x1688(%rbp),%rax
    d3d4:	48 89 85 20 fc ff ff 	mov    %rax,-0x3e0(%rbp)
    d3db:	48 8d 85 78 e9 ff ff 	lea    -0x1688(%rbp),%rax
    d3e2:	48 89 85 28 fc ff ff 	mov    %rax,-0x3d8(%rbp)
    d3e9:	48 8d 85 78 e9 ff ff 	lea    -0x1688(%rbp),%rax
    d3f0:	48 89 85 30 fc ff ff 	mov    %rax,-0x3d0(%rbp)
    d3f7:	48 8d 85 78 e9 ff ff 	lea    -0x1688(%rbp),%rax
    d3fe:	48 89 85 38 fc ff ff 	mov    %rax,-0x3c8(%rbp)
    d405:	48 8d 85 78 e9 ff ff 	lea    -0x1688(%rbp),%rax
    d40c:	48 89 85 40 fc ff ff 	mov    %rax,-0x3c0(%rbp)
    d413:	48 8d 85 78 e9 ff ff 	lea    -0x1688(%rbp),%rax
    d41a:	48 89 85 48 fc ff ff 	mov    %rax,-0x3b8(%rbp)
    d421:	48 8d 85 78 e9 ff ff 	lea    -0x1688(%rbp),%rax
    d428:	48 89 85 50 fc ff ff 	mov    %rax,-0x3b0(%rbp)
    d42f:	48 8d 85 78 e9 ff ff 	lea    -0x1688(%rbp),%rax
    d436:	48 89 85 58 fc ff ff 	mov    %rax,-0x3a8(%rbp)
    d43d:	48 8d 85 78 e9 ff ff 	lea    -0x1688(%rbp),%rax
    d444:	48 89 85 60 fc ff ff 	mov    %rax,-0x3a0(%rbp)
    d44b:	48 8d 85 78 e9 ff ff 	lea    -0x1688(%rbp),%rax
    d452:	48 89 85 68 fc ff ff 	mov    %rax,-0x398(%rbp)
    d459:	48 8d 85 78 e9 ff ff 	lea    -0x1688(%rbp),%rax
    d460:	48 89 85 70 fc ff ff 	mov    %rax,-0x390(%rbp)
    d467:	48 8d 85 78 e9 ff ff 	lea    -0x1688(%rbp),%rax
    d46e:	48 89 85 78 fc ff ff 	mov    %rax,-0x388(%rbp)
    d475:	48 8d 85 78 e9 ff ff 	lea    -0x1688(%rbp),%rax
    d47c:	48 89 85 80 fc ff ff 	mov    %rax,-0x380(%rbp)
    d483:	48 8d 85 78 e9 ff ff 	lea    -0x1688(%rbp),%rax
    d48a:	48 89 85 88 fc ff ff 	mov    %rax,-0x378(%rbp)
    d491:	48 8d 85 78 e9 ff ff 	lea    -0x1688(%rbp),%rax
    d498:	48 89 85 90 fc ff ff 	mov    %rax,-0x370(%rbp)
    d49f:	48 8d 85 78 e9 ff ff 	lea    -0x1688(%rbp),%rax
    d4a6:	48 89 85 98 fc ff ff 	mov    %rax,-0x368(%rbp)
    d4ad:	48 8d 85 78 e9 ff ff 	lea    -0x1688(%rbp),%rax
    d4b4:	48 89 85 a0 fc ff ff 	mov    %rax,-0x360(%rbp)
    d4bb:	48 8d 85 78 e9 ff ff 	lea    -0x1688(%rbp),%rax
    d4c2:	48 89 85 a8 fc ff ff 	mov    %rax,-0x358(%rbp)
    d4c9:	48 8d 85 78 e9 ff ff 	lea    -0x1688(%rbp),%rax
    d4d0:	48 89 85 b0 fc ff ff 	mov    %rax,-0x350(%rbp)
    d4d7:	48 c7 85 b8 fc ff ff 	movq   $0x0,-0x348(%rbp)
    d4de:	00 00 00 00 
    d4e2:	48 8d 85 78 e9 ff ff 	lea    -0x1688(%rbp),%rax
    d4e9:	48 89 85 c0 fc ff ff 	mov    %rax,-0x340(%rbp)
    d4f0:	48 8d 85 78 e9 ff ff 	lea    -0x1688(%rbp),%rax
    d4f7:	48 89 85 c8 fc ff ff 	mov    %rax,-0x338(%rbp)
    d4fe:	48 c7 85 d0 fc ff ff 	movq   $0x0,-0x330(%rbp)
    d505:	00 00 00 00 
    d509:	48 8d 85 78 e9 ff ff 	lea    -0x1688(%rbp),%rax
    d510:	48 89 85 d8 fc ff ff 	mov    %rax,-0x328(%rbp)
    d517:	48 8d 85 78 e9 ff ff 	lea    -0x1688(%rbp),%rax
    d51e:	48 89 85 e0 fc ff ff 	mov    %rax,-0x320(%rbp)
    d525:	48 8d 85 78 e9 ff ff 	lea    -0x1688(%rbp),%rax
    d52c:	48 89 85 e8 fc ff ff 	mov    %rax,-0x318(%rbp)
    d533:	48 8d 85 78 e9 ff ff 	lea    -0x1688(%rbp),%rax
    d53a:	48 89 85 f0 fc ff ff 	mov    %rax,-0x310(%rbp)
    d541:	48 8d 85 78 e9 ff ff 	lea    -0x1688(%rbp),%rax
    d548:	48 89 85 f8 fc ff ff 	mov    %rax,-0x308(%rbp)
    d54f:	48 8d 85 78 e9 ff ff 	lea    -0x1688(%rbp),%rax
    d556:	48 89 85 00 fd ff ff 	mov    %rax,-0x300(%rbp)
    d55d:	48 8d 85 78 e9 ff ff 	lea    -0x1688(%rbp),%rax
    d564:	48 89 85 08 fd ff ff 	mov    %rax,-0x2f8(%rbp)
    d56b:	48 8d 85 78 e9 ff ff 	lea    -0x1688(%rbp),%rax
    d572:	48 89 85 10 fd ff ff 	mov    %rax,-0x2f0(%rbp)
    d579:	48 8d 85 78 e9 ff ff 	lea    -0x1688(%rbp),%rax
    d580:	48 89 85 18 fd ff ff 	mov    %rax,-0x2e8(%rbp)
    d587:	48 8d 85 78 e9 ff ff 	lea    -0x1688(%rbp),%rax
    d58e:	48 89 85 20 fd ff ff 	mov    %rax,-0x2e0(%rbp)
    d595:	48 8d 85 78 e9 ff ff 	lea    -0x1688(%rbp),%rax
    d59c:	48 89 85 28 fd ff ff 	mov    %rax,-0x2d8(%rbp)
    d5a3:	48 8d 85 78 e9 ff ff 	lea    -0x1688(%rbp),%rax
    d5aa:	48 89 85 30 fd ff ff 	mov    %rax,-0x2d0(%rbp)
    d5b1:	48 8d 85 78 e9 ff ff 	lea    -0x1688(%rbp),%rax
    d5b8:	48 89 85 38 fd ff ff 	mov    %rax,-0x2c8(%rbp)
    d5bf:	48 8d 85 78 e9 ff ff 	lea    -0x1688(%rbp),%rax
    d5c6:	48 89 85 40 fd ff ff 	mov    %rax,-0x2c0(%rbp)
    d5cd:	48 8d 85 78 e9 ff ff 	lea    -0x1688(%rbp),%rax
    d5d4:	48 89 85 48 fd ff ff 	mov    %rax,-0x2b8(%rbp)
    d5db:	48 8d 85 78 e9 ff ff 	lea    -0x1688(%rbp),%rax
    d5e2:	48 89 85 50 fd ff ff 	mov    %rax,-0x2b0(%rbp)
    d5e9:	48 8d 85 78 e9 ff ff 	lea    -0x1688(%rbp),%rax
    d5f0:	48 89 85 58 fd ff ff 	mov    %rax,-0x2a8(%rbp)
    d5f7:	48 8d 85 78 e9 ff ff 	lea    -0x1688(%rbp),%rax
    d5fe:	48 89 85 60 fd ff ff 	mov    %rax,-0x2a0(%rbp)
    d605:	48 8d 85 78 e9 ff ff 	lea    -0x1688(%rbp),%rax
    d60c:	48 89 85 68 fd ff ff 	mov    %rax,-0x298(%rbp)
    d613:	48 8d 85 78 e9 ff ff 	lea    -0x1688(%rbp),%rax
    d61a:	48 89 85 70 fd ff ff 	mov    %rax,-0x290(%rbp)
    d621:	48 8d 85 78 e9 ff ff 	lea    -0x1688(%rbp),%rax
    d628:	48 89 85 78 fd ff ff 	mov    %rax,-0x288(%rbp)
    d62f:	48 8d 85 78 e9 ff ff 	lea    -0x1688(%rbp),%rax
    d636:	48 89 85 80 fd ff ff 	mov    %rax,-0x280(%rbp)
    d63d:	48 8d 85 78 e9 ff ff 	lea    -0x1688(%rbp),%rax
    d644:	48 89 85 88 fd ff ff 	mov    %rax,-0x278(%rbp)
    d64b:	48 8d 85 78 e9 ff ff 	lea    -0x1688(%rbp),%rax
    d652:	48 89 85 90 fd ff ff 	mov    %rax,-0x270(%rbp)
    d659:	48 8d 85 78 e9 ff ff 	lea    -0x1688(%rbp),%rax
    d660:	48 89 85 98 fd ff ff 	mov    %rax,-0x268(%rbp)
    d667:	48 8d 85 78 e9 ff ff 	lea    -0x1688(%rbp),%rax
    d66e:	48 89 85 a0 fd ff ff 	mov    %rax,-0x260(%rbp)
    d675:	48 8d 85 78 e9 ff ff 	lea    -0x1688(%rbp),%rax
    d67c:	48 89 85 a8 fd ff ff 	mov    %rax,-0x258(%rbp)
    d683:	48 8d 85 78 e9 ff ff 	lea    -0x1688(%rbp),%rax
    d68a:	48 89 85 b0 fd ff ff 	mov    %rax,-0x250(%rbp)
    d691:	48 8d 85 78 e9 ff ff 	lea    -0x1688(%rbp),%rax
    d698:	48 89 85 b8 fd ff ff 	mov    %rax,-0x248(%rbp)
    d69f:	48 8d 85 78 e9 ff ff 	lea    -0x1688(%rbp),%rax
    d6a6:	48 89 85 c0 fd ff ff 	mov    %rax,-0x240(%rbp)
    d6ad:	48 8d 85 78 e9 ff ff 	lea    -0x1688(%rbp),%rax
    d6b4:	48 89 85 c8 fd ff ff 	mov    %rax,-0x238(%rbp)
    d6bb:	48 8d 85 78 e9 ff ff 	lea    -0x1688(%rbp),%rax
    d6c2:	48 89 85 d0 fd ff ff 	mov    %rax,-0x230(%rbp)
    d6c9:	48 8d 85 78 e9 ff ff 	lea    -0x1688(%rbp),%rax
    d6d0:	48 89 85 d8 fd ff ff 	mov    %rax,-0x228(%rbp)
    d6d7:	48 8d 85 78 e9 ff ff 	lea    -0x1688(%rbp),%rax
    d6de:	48 89 85 e0 fd ff ff 	mov    %rax,-0x220(%rbp)
    d6e5:	48 8d 85 78 e9 ff ff 	lea    -0x1688(%rbp),%rax
    d6ec:	48 89 85 e8 fd ff ff 	mov    %rax,-0x218(%rbp)
    d6f3:	48 8d 85 78 e9 ff ff 	lea    -0x1688(%rbp),%rax
    d6fa:	48 89 85 f0 fd ff ff 	mov    %rax,-0x210(%rbp)
    d701:	48 8d 85 78 e9 ff ff 	lea    -0x1688(%rbp),%rax
    d708:	48 89 85 f8 fd ff ff 	mov    %rax,-0x208(%rbp)
    d70f:	48 8d 85 78 e9 ff ff 	lea    -0x1688(%rbp),%rax
    d716:	48 89 85 00 fe ff ff 	mov    %rax,-0x200(%rbp)
    d71d:	48 c7 85 08 fe ff ff 	movq   $0x0,-0x1f8(%rbp)
    d724:	00 00 00 00 
    d728:	48 8d 85 78 e9 ff ff 	lea    -0x1688(%rbp),%rax
    d72f:	48 89 85 10 fe ff ff 	mov    %rax,-0x1f0(%rbp)
    d736:	48 8d 85 78 e9 ff ff 	lea    -0x1688(%rbp),%rax
    d73d:	48 89 85 18 fe ff ff 	mov    %rax,-0x1e8(%rbp)
    d744:	48 c7 85 20 fe ff ff 	movq   $0x0,-0x1e0(%rbp)
    d74b:	00 00 00 00 
    d74f:	48 8d 85 78 e9 ff ff 	lea    -0x1688(%rbp),%rax
    d756:	48 89 85 28 fe ff ff 	mov    %rax,-0x1d8(%rbp)
    d75d:	48 8d 85 78 e9 ff ff 	lea    -0x1688(%rbp),%rax
    d764:	48 89 85 30 fe ff ff 	mov    %rax,-0x1d0(%rbp)
    d76b:	48 8d 85 78 e9 ff ff 	lea    -0x1688(%rbp),%rax
    d772:	48 89 85 38 fe ff ff 	mov    %rax,-0x1c8(%rbp)
    d779:	48 8d 85 78 e9 ff ff 	lea    -0x1688(%rbp),%rax
    d780:	48 89 85 40 fe ff ff 	mov    %rax,-0x1c0(%rbp)
    d787:	48 8d 85 78 e9 ff ff 	lea    -0x1688(%rbp),%rax
    d78e:	48 89 85 48 fe ff ff 	mov    %rax,-0x1b8(%rbp)
    d795:	48 8d 85 78 e9 ff ff 	lea    -0x1688(%rbp),%rax
    d79c:	48 89 85 50 fe ff ff 	mov    %rax,-0x1b0(%rbp)
    d7a3:	48 8d 85 78 e9 ff ff 	lea    -0x1688(%rbp),%rax
    d7aa:	48 89 85 58 fe ff ff 	mov    %rax,-0x1a8(%rbp)
    d7b1:	48 8d 85 78 e9 ff ff 	lea    -0x1688(%rbp),%rax
    d7b8:	48 89 85 60 fe ff ff 	mov    %rax,-0x1a0(%rbp)
    d7bf:	48 8d 85 78 e9 ff ff 	lea    -0x1688(%rbp),%rax
    d7c6:	48 89 85 68 fe ff ff 	mov    %rax,-0x198(%rbp)
    d7cd:	48 8d 85 78 e9 ff ff 	lea    -0x1688(%rbp),%rax
    d7d4:	48 89 85 70 fe ff ff 	mov    %rax,-0x190(%rbp)
    d7db:	48 8d 85 78 e9 ff ff 	lea    -0x1688(%rbp),%rax
    d7e2:	48 89 85 78 fe ff ff 	mov    %rax,-0x188(%rbp)
    d7e9:	48 8d 85 78 e9 ff ff 	lea    -0x1688(%rbp),%rax
    d7f0:	48 89 85 80 fe ff ff 	mov    %rax,-0x180(%rbp)
    d7f7:	48 8d 85 78 e9 ff ff 	lea    -0x1688(%rbp),%rax
    d7fe:	48 89 85 88 fe ff ff 	mov    %rax,-0x178(%rbp)
    d805:	48 8d 85 78 e9 ff ff 	lea    -0x1688(%rbp),%rax
    d80c:	48 89 85 90 fe ff ff 	mov    %rax,-0x170(%rbp)
    d813:	48 8d 85 78 e9 ff ff 	lea    -0x1688(%rbp),%rax
    d81a:	48 89 85 98 fe ff ff 	mov    %rax,-0x168(%rbp)
    d821:	48 8d 85 78 e9 ff ff 	lea    -0x1688(%rbp),%rax
    d828:	48 89 85 a0 fe ff ff 	mov    %rax,-0x160(%rbp)
    d82f:	48 8d 85 78 e9 ff ff 	lea    -0x1688(%rbp),%rax
    d836:	48 89 85 a8 fe ff ff 	mov    %rax,-0x158(%rbp)
    d83d:	48 8d 85 78 e9 ff ff 	lea    -0x1688(%rbp),%rax
    d844:	48 89 85 b0 fe ff ff 	mov    %rax,-0x150(%rbp)
    d84b:	48 8d 85 78 e9 ff ff 	lea    -0x1688(%rbp),%rax
    d852:	48 89 85 b8 fe ff ff 	mov    %rax,-0x148(%rbp)
    d859:	48 8d 85 78 e9 ff ff 	lea    -0x1688(%rbp),%rax
    d860:	48 89 85 c0 fe ff ff 	mov    %rax,-0x140(%rbp)
    d867:	48 8d 85 78 e9 ff ff 	lea    -0x1688(%rbp),%rax
    d86e:	48 89 85 c8 fe ff ff 	mov    %rax,-0x138(%rbp)
    d875:	48 8d 85 78 e9 ff ff 	lea    -0x1688(%rbp),%rax
    d87c:	48 89 85 d0 fe ff ff 	mov    %rax,-0x130(%rbp)
    d883:	48 8d 85 78 e9 ff ff 	lea    -0x1688(%rbp),%rax
    d88a:	48 89 85 d8 fe ff ff 	mov    %rax,-0x128(%rbp)
    d891:	48 8d 85 78 e9 ff ff 	lea    -0x1688(%rbp),%rax
    d898:	48 89 85 e0 fe ff ff 	mov    %rax,-0x120(%rbp)
    d89f:	48 8d 85 78 e9 ff ff 	lea    -0x1688(%rbp),%rax
    d8a6:	48 89 85 e8 fe ff ff 	mov    %rax,-0x118(%rbp)
    d8ad:	48 8d 85 78 e9 ff ff 	lea    -0x1688(%rbp),%rax
    d8b4:	48 89 85 f0 fe ff ff 	mov    %rax,-0x110(%rbp)
    d8bb:	48 8d 85 78 e9 ff ff 	lea    -0x1688(%rbp),%rax
    d8c2:	48 89 85 f8 fe ff ff 	mov    %rax,-0x108(%rbp)
    d8c9:	48 8d 85 78 e9 ff ff 	lea    -0x1688(%rbp),%rax
    d8d0:	48 89 85 00 ff ff ff 	mov    %rax,-0x100(%rbp)
    d8d7:	48 8d 85 78 e9 ff ff 	lea    -0x1688(%rbp),%rax
    d8de:	48 89 85 08 ff ff ff 	mov    %rax,-0xf8(%rbp)
    d8e5:	48 8d 85 78 e9 ff ff 	lea    -0x1688(%rbp),%rax
    d8ec:	48 89 85 10 ff ff ff 	mov    %rax,-0xf0(%rbp)
    d8f3:	48 8d 85 78 e9 ff ff 	lea    -0x1688(%rbp),%rax
    d8fa:	48 89 85 18 ff ff ff 	mov    %rax,-0xe8(%rbp)
    d901:	48 8d 85 78 e9 ff ff 	lea    -0x1688(%rbp),%rax
    d908:	48 89 85 20 ff ff ff 	mov    %rax,-0xe0(%rbp)
    d90f:	48 8d 85 78 e9 ff ff 	lea    -0x1688(%rbp),%rax
    d916:	48 89 85 28 ff ff ff 	mov    %rax,-0xd8(%rbp)
    d91d:	48 8d 85 78 e9 ff ff 	lea    -0x1688(%rbp),%rax
    d924:	48 89 85 30 ff ff ff 	mov    %rax,-0xd0(%rbp)
    d92b:	48 8d 85 78 e9 ff ff 	lea    -0x1688(%rbp),%rax
    d932:	48 89 85 38 ff ff ff 	mov    %rax,-0xc8(%rbp)
    d939:	48 8d 85 78 e9 ff ff 	lea    -0x1688(%rbp),%rax
    d940:	48 89 85 40 ff ff ff 	mov    %rax,-0xc0(%rbp)
    d947:	48 8d 85 78 e9 ff ff 	lea    -0x1688(%rbp),%rax
    d94e:	48 89 85 48 ff ff ff 	mov    %rax,-0xb8(%rbp)
    d955:	48 8d 85 78 e9 ff ff 	lea    -0x1688(%rbp),%rax
    d95c:	48 89 85 50 ff ff ff 	mov    %rax,-0xb0(%rbp)
    d963:	48 c7 85 58 ff ff ff 	movq   $0x0,-0xa8(%rbp)
    d96a:	00 00 00 00 
    d96e:	48 8d 85 78 e9 ff ff 	lea    -0x1688(%rbp),%rax
    d975:	48 89 85 60 ff ff ff 	mov    %rax,-0xa0(%rbp)
    d97c:	48 8d 85 78 e9 ff ff 	lea    -0x1688(%rbp),%rax
    d983:	48 89 85 68 ff ff ff 	mov    %rax,-0x98(%rbp)
    d98a:	48 c7 85 70 ff ff ff 	movq   $0x0,-0x90(%rbp)
    d991:	00 00 00 00 
    d995:	48 8d 85 78 e9 ff ff 	lea    -0x1688(%rbp),%rax
    d99c:	48 89 85 78 ff ff ff 	mov    %rax,-0x88(%rbp)
    d9a3:	48 8d 85 78 e9 ff ff 	lea    -0x1688(%rbp),%rax
    d9aa:	48 89 45 80          	mov    %rax,-0x80(%rbp)
    d9ae:	48 8d 85 78 e9 ff ff 	lea    -0x1688(%rbp),%rax
    d9b5:	48 89 45 88          	mov    %rax,-0x78(%rbp)
    d9b9:	48 8d 85 78 e9 ff ff 	lea    -0x1688(%rbp),%rax
    d9c0:	48 89 45 90          	mov    %rax,-0x70(%rbp)
    d9c4:	48 8d 85 78 e9 ff ff 	lea    -0x1688(%rbp),%rax
    d9cb:	48 89 45 98          	mov    %rax,-0x68(%rbp)
    d9cf:	48 8d 85 78 e9 ff ff 	lea    -0x1688(%rbp),%rax
    d9d6:	48 89 45 a0          	mov    %rax,-0x60(%rbp)
    d9da:	48 8d 85 78 e9 ff ff 	lea    -0x1688(%rbp),%rax
    d9e1:	48 89 45 a8          	mov    %rax,-0x58(%rbp)
    d9e5:	48 8d 85 78 e9 ff ff 	lea    -0x1688(%rbp),%rax
    d9ec:	48 89 45 b0          	mov    %rax,-0x50(%rbp)
    d9f0:	48 8d 85 20 fb ff ff 	lea    -0x4e0(%rbp),%rax
    d9f7:	48 05 f8 02 00 00    	add    $0x2f8,%rax
    d9fd:	48 89 85 f0 f5 ff ff 	mov    %rax,-0xa10(%rbp)
    da04:	48 c7 85 f8 f5 ff ff 	movq   $0x0,-0xa08(%rbp)
    da0b:	00 00 00 00 
    da0f:	48 c7 85 00 f6 ff ff 	movq   $0x0,-0xa00(%rbp)
    da16:	00 00 00 00 
    da1a:	48 8d 85 20 fb ff ff 	lea    -0x4e0(%rbp),%rax
    da21:	48 05 c8 00 00 00    	add    $0xc8,%rax
    da27:	48 89 85 08 f6 ff ff 	mov    %rax,-0x9f8(%rbp)
    da2e:	48 8d 85 20 fb ff ff 	lea    -0x4e0(%rbp),%rax
    da35:	48 05 c8 00 00 00    	add    $0xc8,%rax
    da3b:	48 89 85 10 f6 ff ff 	mov    %rax,-0x9f0(%rbp)
    da42:	48 8d 85 20 fb ff ff 	lea    -0x4e0(%rbp),%rax
    da49:	48 05 c8 00 00 00    	add    $0xc8,%rax
    da4f:	48 89 85 18 f6 ff ff 	mov    %rax,-0x9e8(%rbp)
    da56:	48 8d 85 20 fb ff ff 	lea    -0x4e0(%rbp),%rax
    da5d:	48 05 c8 00 00 00    	add    $0xc8,%rax
    da63:	48 89 85 20 f6 ff ff 	mov    %rax,-0x9e0(%rbp)
    da6a:	48 c7 85 28 f6 ff ff 	movq   $0x0,-0x9d8(%rbp)
    da71:	00 00 00 00 
    da75:	48 c7 85 30 f6 ff ff 	movq   $0x0,-0x9d0(%rbp)
    da7c:	00 00 00 00 
    da80:	48 c7 85 38 f6 ff ff 	movq   $0x0,-0x9c8(%rbp)
    da87:	00 00 00 00 
    da8b:	48 8d 85 20 fb ff ff 	lea    -0x4e0(%rbp),%rax
    da92:	48 05 c8 00 00 00    	add    $0xc8,%rax
    da98:	48 89 85 40 f6 ff ff 	mov    %rax,-0x9c0(%rbp)
    da9f:	48 c7 85 48 f6 ff ff 	movq   $0x0,-0x9b8(%rbp)
    daa6:	00 00 00 00 
    daaa:	48 8d 85 20 fb ff ff 	lea    -0x4e0(%rbp),%rax
    dab1:	48 05 68 04 00 00    	add    $0x468,%rax
    dab7:	48 89 85 50 f6 ff ff 	mov    %rax,-0x9b0(%rbp)
    dabe:	48 c7 85 58 f6 ff ff 	movq   $0x0,-0x9a8(%rbp)
    dac5:	00 00 00 00 
    dac9:	48 8d 85 20 fb ff ff 	lea    -0x4e0(%rbp),%rax
    dad0:	48 05 68 04 00 00    	add    $0x468,%rax
    dad6:	48 89 85 60 f6 ff ff 	mov    %rax,-0x9a0(%rbp)
    dadd:	48 c7 85 68 f6 ff ff 	movq   $0x0,-0x998(%rbp)
    dae4:	00 00 00 00 
    dae8:	48 8d 85 20 fb ff ff 	lea    -0x4e0(%rbp),%rax
    daef:	48 05 c8 00 00 00    	add    $0xc8,%rax
    daf5:	48 89 85 70 f6 ff ff 	mov    %rax,-0x990(%rbp)
    dafc:	48 c7 85 78 f6 ff ff 	movq   $0x0,-0x988(%rbp)
    db03:	00 00 00 00 
    db07:	48 8d 85 20 fb ff ff 	lea    -0x4e0(%rbp),%rax
    db0e:	48 05 c8 00 00 00    	add    $0xc8,%rax
    db14:	48 89 85 80 f6 ff ff 	mov    %rax,-0x980(%rbp)
    db1b:	48 c7 85 88 f6 ff ff 	movq   $0x0,-0x978(%rbp)
    db22:	00 00 00 00 
    db26:	48 c7 85 90 f6 ff ff 	movq   $0x0,-0x970(%rbp)
    db2d:	00 00 00 00 
    db31:	48 8d 85 20 fb ff ff 	lea    -0x4e0(%rbp),%rax
    db38:	48 05 f8 02 00 00    	add    $0x2f8,%rax
    db3e:	48 89 85 98 f6 ff ff 	mov    %rax,-0x968(%rbp)
    db45:	48 8d 85 20 fb ff ff 	lea    -0x4e0(%rbp),%rax
    db4c:	48 05 f8 02 00 00    	add    $0x2f8,%rax
    db52:	48 89 85 a0 f6 ff ff 	mov    %rax,-0x960(%rbp)
    db59:	48 c7 85 a8 f6 ff ff 	movq   $0x0,-0x958(%rbp)
    db60:	00 00 00 00 
    db64:	48 c7 85 b0 f6 ff ff 	movq   $0x0,-0x950(%rbp)
    db6b:	00 00 00 00 
    db6f:	48 8d 85 20 fb ff ff 	lea    -0x4e0(%rbp),%rax
    db76:	48 05 c8 00 00 00    	add    $0xc8,%rax
    db7c:	48 89 85 b8 f6 ff ff 	mov    %rax,-0x948(%rbp)
    db83:	48 8d 85 20 fb ff ff 	lea    -0x4e0(%rbp),%rax
    db8a:	48 05 b8 03 00 00    	add    $0x3b8,%rax
    db90:	48 89 85 c0 f6 ff ff 	mov    %rax,-0x940(%rbp)
    db97:	48 8d 85 20 fb ff ff 	lea    -0x4e0(%rbp),%rax
    db9e:	48 83 c0 58          	add    $0x58,%rax
    dba2:	48 89 85 c8 f6 ff ff 	mov    %rax,-0x938(%rbp)
    dba9:	48 8d 85 20 fb ff ff 	lea    -0x4e0(%rbp),%rax
    dbb0:	48 05 c8 00 00 00    	add    $0xc8,%rax
    dbb6:	48 89 85 d0 f6 ff ff 	mov    %rax,-0x930(%rbp)
    dbbd:	48 c7 85 d8 f6 ff ff 	movq   $0x0,-0x928(%rbp)
    dbc4:	00 00 00 00 
    dbc8:	48 8d 85 20 fb ff ff 	lea    -0x4e0(%rbp),%rax
    dbcf:	48 05 c8 00 00 00    	add    $0xc8,%rax
    dbd5:	48 89 85 e0 f6 ff ff 	mov    %rax,-0x920(%rbp)
    dbdc:	48 c7 85 e8 f6 ff ff 	movq   $0x0,-0x918(%rbp)
    dbe3:	00 00 00 00 
    dbe7:	48 8d 85 20 fb ff ff 	lea    -0x4e0(%rbp),%rax
    dbee:	48 05 c8 00 00 00    	add    $0xc8,%rax
    dbf4:	48 89 85 f0 f6 ff ff 	mov    %rax,-0x910(%rbp)
    dbfb:	48 8d 85 20 fb ff ff 	lea    -0x4e0(%rbp),%rax
    dc02:	48 83 c0 58          	add    $0x58,%rax
    dc06:	48 89 85 f8 f6 ff ff 	mov    %rax,-0x908(%rbp)
    dc0d:	48 8d 85 20 fb ff ff 	lea    -0x4e0(%rbp),%rax
    dc14:	48 05 c8 00 00 00    	add    $0xc8,%rax
    dc1a:	48 89 85 00 f7 ff ff 	mov    %rax,-0x900(%rbp)
    dc21:	48 8d 85 20 fb ff ff 	lea    -0x4e0(%rbp),%rax
    dc28:	48 83 c0 58          	add    $0x58,%rax
    dc2c:	48 89 85 08 f7 ff ff 	mov    %rax,-0x8f8(%rbp)
    dc33:	48 8d 85 20 fb ff ff 	lea    -0x4e0(%rbp),%rax
    dc3a:	48 05 c8 00 00 00    	add    $0xc8,%rax
    dc40:	48 89 85 10 f7 ff ff 	mov    %rax,-0x8f0(%rbp)
    dc47:	48 c7 85 18 f7 ff ff 	movq   $0x0,-0x8e8(%rbp)
    dc4e:	00 00 00 00 
    dc52:	48 c7 85 20 f7 ff ff 	movq   $0x0,-0x8e0(%rbp)
    dc59:	00 00 00 00 
    dc5d:	48 c7 85 28 f7 ff ff 	movq   $0x0,-0x8d8(%rbp)
    dc64:	00 00 00 00 
    dc68:	48 c7 85 30 f7 ff ff 	movq   $0x0,-0x8d0(%rbp)
    dc6f:	00 00 00 00 
    dc73:	48 8d 85 20 fb ff ff 	lea    -0x4e0(%rbp),%rax
    dc7a:	48 05 c8 00 00 00    	add    $0xc8,%rax
    dc80:	48 89 85 38 f7 ff ff 	mov    %rax,-0x8c8(%rbp)
    dc87:	48 c7 85 40 f7 ff ff 	movq   $0x0,-0x8c0(%rbp)
    dc8e:	00 00 00 00 
    dc92:	48 8d 85 20 fb ff ff 	lea    -0x4e0(%rbp),%rax
    dc99:	48 05 c8 00 00 00    	add    $0xc8,%rax
    dc9f:	48 89 85 48 f7 ff ff 	mov    %rax,-0x8b8(%rbp)
    dca6:	48 8d 85 20 fb ff ff 	lea    -0x4e0(%rbp),%rax
    dcad:	48 05 b8 03 00 00    	add    $0x3b8,%rax
    dcb3:	48 89 85 50 f7 ff ff 	mov    %rax,-0x8b0(%rbp)
    dcba:	48 c7 85 58 f7 ff ff 	movq   $0x0,-0x8a8(%rbp)
    dcc1:	00 00 00 00 
    dcc5:	48 8d 85 20 fb ff ff 	lea    -0x4e0(%rbp),%rax
    dccc:	48 05 30 03 00 00    	add    $0x330,%rax
    dcd2:	48 89 85 60 f7 ff ff 	mov    %rax,-0x8a0(%rbp)
    dcd9:	48 8d 85 20 fb ff ff 	lea    -0x4e0(%rbp),%rax
    dce0:	48 05 c8 00 00 00    	add    $0xc8,%rax
    dce6:	48 89 85 68 f7 ff ff 	mov    %rax,-0x898(%rbp)
    dced:	48 8d 85 20 fb ff ff 	lea    -0x4e0(%rbp),%rax
    dcf4:	48 05 30 03 00 00    	add    $0x330,%rax
    dcfa:	48 89 85 70 f7 ff ff 	mov    %rax,-0x890(%rbp)
    dd01:	48 c7 85 78 f7 ff ff 	movq   $0x0,-0x888(%rbp)
    dd08:	00 00 00 00 
    dd0c:	48 8d 85 20 fb ff ff 	lea    -0x4e0(%rbp),%rax
    dd13:	48 05 c8 00 00 00    	add    $0xc8,%rax
    dd19:	48 89 85 80 f7 ff ff 	mov    %rax,-0x880(%rbp)
    dd20:	48 8d 85 20 fb ff ff 	lea    -0x4e0(%rbp),%rax
    dd27:	48 05 c8 00 00 00    	add    $0xc8,%rax
    dd2d:	48 89 85 88 f7 ff ff 	mov    %rax,-0x878(%rbp)
    dd34:	48 8d 85 20 fb ff ff 	lea    -0x4e0(%rbp),%rax
    dd3b:	48 05 c8 00 00 00    	add    $0xc8,%rax
    dd41:	48 89 85 90 f7 ff ff 	mov    %rax,-0x870(%rbp)
    dd48:	48 c7 85 98 f7 ff ff 	movq   $0x0,-0x868(%rbp)
    dd4f:	00 00 00 00 
    dd53:	48 8d 85 20 fb ff ff 	lea    -0x4e0(%rbp),%rax
    dd5a:	48 05 f8 02 00 00    	add    $0x2f8,%rax
    dd60:	48 89 85 a0 f7 ff ff 	mov    %rax,-0x860(%rbp)
    dd67:	48 8d 85 20 fb ff ff 	lea    -0x4e0(%rbp),%rax
    dd6e:	48 05 c8 00 00 00    	add    $0xc8,%rax
    dd74:	48 89 85 a8 f7 ff ff 	mov    %rax,-0x858(%rbp)
    dd7b:	48 8d 85 20 fb ff ff 	lea    -0x4e0(%rbp),%rax
    dd82:	48 05 c8 00 00 00    	add    $0xc8,%rax
    dd88:	48 89 85 b0 f7 ff ff 	mov    %rax,-0x850(%rbp)
    dd8f:	48 8d 85 20 fb ff ff 	lea    -0x4e0(%rbp),%rax
    dd96:	48 05 f8 02 00 00    	add    $0x2f8,%rax
    dd9c:	48 89 85 b8 f7 ff ff 	mov    %rax,-0x848(%rbp)
    dda3:	48 8d 85 20 fb ff ff 	lea    -0x4e0(%rbp),%rax
    ddaa:	48 05 b8 03 00 00    	add    $0x3b8,%rax
    ddb0:	48 89 85 c0 f7 ff ff 	mov    %rax,-0x840(%rbp)
    ddb7:	48 8d 85 20 fb ff ff 	lea    -0x4e0(%rbp),%rax
    ddbe:	48 05 c8 00 00 00    	add    $0xc8,%rax
    ddc4:	48 89 85 c8 f7 ff ff 	mov    %rax,-0x838(%rbp)
    ddcb:	48 c7 85 d0 f7 ff ff 	movq   $0x0,-0x830(%rbp)
    ddd2:	00 00 00 00 
    ddd6:	48 8d 85 20 fb ff ff 	lea    -0x4e0(%rbp),%rax
    dddd:	48 05 c8 00 00 00    	add    $0xc8,%rax
    dde3:	48 89 85 d8 f7 ff ff 	mov    %rax,-0x828(%rbp)
    ddea:	48 c7 85 e0 f7 ff ff 	movq   $0x0,-0x820(%rbp)
    ddf1:	00 00 00 00 
    ddf5:	48 c7 85 e8 f7 ff ff 	movq   $0x0,-0x818(%rbp)
    ddfc:	00 00 00 00 
    de00:	48 8d 85 20 fb ff ff 	lea    -0x4e0(%rbp),%rax
    de07:	48 05 c8 00 00 00    	add    $0xc8,%rax
    de0d:	48 89 85 f0 f7 ff ff 	mov    %rax,-0x810(%rbp)
    de14:	48 c7 85 f8 f7 ff ff 	movq   $0x0,-0x808(%rbp)
    de1b:	00 00 00 00 
    de1f:	48 8d 85 20 fb ff ff 	lea    -0x4e0(%rbp),%rax
    de26:	48 05 c8 00 00 00    	add    $0xc8,%rax
    de2c:	48 89 85 00 f8 ff ff 	mov    %rax,-0x800(%rbp)
    de33:	48 8d 85 20 fb ff ff 	lea    -0x4e0(%rbp),%rax
    de3a:	48 83 c0 58          	add    $0x58,%rax
    de3e:	48 89 85 08 f8 ff ff 	mov    %rax,-0x7f8(%rbp)
    de45:	48 8d 85 20 fb ff ff 	lea    -0x4e0(%rbp),%rax
    de4c:	48 05 c8 00 00 00    	add    $0xc8,%rax
    de52:	48 89 85 10 f8 ff ff 	mov    %rax,-0x7f0(%rbp)
    de59:	48 8d 85 20 fb ff ff 	lea    -0x4e0(%rbp),%rax
    de60:	48 83 c0 58          	add    $0x58,%rax
    de64:	48 89 85 18 f8 ff ff 	mov    %rax,-0x7e8(%rbp)
    de6b:	48 8d 85 20 fb ff ff 	lea    -0x4e0(%rbp),%rax
    de72:	48 05 c8 00 00 00    	add    $0xc8,%rax
    de78:	48 89 85 20 f8 ff ff 	mov    %rax,-0x7e0(%rbp)
    de7f:	48 c7 85 28 f8 ff ff 	movq   $0x0,-0x7d8(%rbp)
    de86:	00 00 00 00 
    de8a:	48 c7 85 30 f8 ff ff 	movq   $0x0,-0x7d0(%rbp)
    de91:	00 00 00 00 
    de95:	48 c7 85 38 f8 ff ff 	movq   $0x0,-0x7c8(%rbp)
    de9c:	00 00 00 00 
    dea0:	48 8d 85 20 fb ff ff 	lea    -0x4e0(%rbp),%rax
    dea7:	48 05 c8 00 00 00    	add    $0xc8,%rax
    dead:	48 89 85 40 f8 ff ff 	mov    %rax,-0x7c0(%rbp)
    deb4:	48 8d 85 20 fb ff ff 	lea    -0x4e0(%rbp),%rax
    debb:	48 05 c8 00 00 00    	add    $0xc8,%rax
    dec1:	48 89 85 48 f8 ff ff 	mov    %rax,-0x7b8(%rbp)
    dec8:	48 8d 85 20 fb ff ff 	lea    -0x4e0(%rbp),%rax
    decf:	48 05 b8 03 00 00    	add    $0x3b8,%rax
    ded5:	48 89 85 50 f8 ff ff 	mov    %rax,-0x7b0(%rbp)
    dedc:	48 8d 85 20 fb ff ff 	lea    -0x4e0(%rbp),%rax
    dee3:	48 05 c8 00 00 00    	add    $0xc8,%rax
    dee9:	48 89 85 58 f8 ff ff 	mov    %rax,-0x7a8(%rbp)
    def0:	48 c7 85 60 f8 ff ff 	movq   $0x0,-0x7a0(%rbp)
    def7:	00 00 00 00 
    defb:	48 c7 85 68 f8 ff ff 	movq   $0x0,-0x798(%rbp)
    df02:	00 00 00 00 
    df06:	48 8d 85 20 fb ff ff 	lea    -0x4e0(%rbp),%rax
    df0d:	48 05 f8 02 00 00    	add    $0x2f8,%rax
    df13:	48 89 85 70 f8 ff ff 	mov    %rax,-0x790(%rbp)
    df1a:	c6 85 ad e8 ff ff 00 	movb   $0x0,-0x1753(%rbp)
    df21:	c6 85 ae e8 ff ff 53 	movb   $0x53,-0x1752(%rbp)
    df28:	48 b8 ff ba ff ba ff 	movabs $0xbaffbaffbaffbaff,%rax
    df2f:	ba ff ba 
    df32:	48 89 85 50 ec ff ff 	mov    %rax,-0x13b0(%rbp)
    df39:	c6 85 58 ec ff ff ff 	movb   $0xff,-0x13a8(%rbp)
    df40:	48 c7 85 59 ec ff ff 	movq   $0xffffffffffffffff,-0x13a7(%rbp)
    df47:	ff ff ff ff 
    df4b:	c6 85 61 ec ff ff ff 	movb   $0xff,-0x139f(%rbp)
    df52:	48 89 85 62 ec ff ff 	mov    %rax,-0x139e(%rbp)
    df59:	c6 85 6a ec ff ff ff 	movb   $0xff,-0x1396(%rbp)
    df60:	48 c7 85 6b ec ff ff 	movq   $0xffffffffffffffff,-0x1395(%rbp)
    df67:	ff ff ff ff 
    df6b:	c6 85 73 ec ff ff ff 	movb   $0xff,-0x138d(%rbp)
    df72:	48 8d 05 d7 00 01 00 	lea    0x100d7(%rip),%rax        # 1e050 <g_992>
    df79:	48 89 85 80 f8 ff ff 	mov    %rax,-0x780(%rbp)
    df80:	48 8d 05 c9 00 01 00 	lea    0x100c9(%rip),%rax        # 1e050 <g_992>
    df87:	48 89 85 88 f8 ff ff 	mov    %rax,-0x778(%rbp)
    df8e:	48 8d 05 bb 00 01 00 	lea    0x100bb(%rip),%rax        # 1e050 <g_992>
    df95:	48 89 85 90 f8 ff ff 	mov    %rax,-0x770(%rbp)
    df9c:	48 8d 05 ad 00 01 00 	lea    0x100ad(%rip),%rax        # 1e050 <g_992>
    dfa3:	48 89 85 98 f8 ff ff 	mov    %rax,-0x768(%rbp)
    dfaa:	48 8d 05 9f 00 01 00 	lea    0x1009f(%rip),%rax        # 1e050 <g_992>
    dfb1:	48 89 85 a0 f8 ff ff 	mov    %rax,-0x760(%rbp)
    dfb8:	48 8d 05 91 00 01 00 	lea    0x10091(%rip),%rax        # 1e050 <g_992>
    dfbf:	48 89 85 a8 f8 ff ff 	mov    %rax,-0x758(%rbp)
    dfc6:	48 8d 05 83 00 01 00 	lea    0x10083(%rip),%rax        # 1e050 <g_992>
    dfcd:	48 89 85 b0 f8 ff ff 	mov    %rax,-0x750(%rbp)
    dfd4:	48 8d 85 40 e9 ff ff 	lea    -0x16c0(%rbp),%rax
    dfdb:	48 89 85 b8 f8 ff ff 	mov    %rax,-0x748(%rbp)
    dfe2:	48 8d 85 40 e9 ff ff 	lea    -0x16c0(%rbp),%rax
    dfe9:	48 89 85 c0 f8 ff ff 	mov    %rax,-0x740(%rbp)
    dff0:	48 8d 85 40 e9 ff ff 	lea    -0x16c0(%rbp),%rax
    dff7:	48 89 85 c8 f8 ff ff 	mov    %rax,-0x738(%rbp)
    dffe:	48 8d 85 40 e9 ff ff 	lea    -0x16c0(%rbp),%rax
    e005:	48 89 85 d0 f8 ff ff 	mov    %rax,-0x730(%rbp)
    e00c:	48 8d 85 40 e9 ff ff 	lea    -0x16c0(%rbp),%rax
    e013:	48 89 85 d8 f8 ff ff 	mov    %rax,-0x728(%rbp)
    e01a:	48 8d 85 40 e9 ff ff 	lea    -0x16c0(%rbp),%rax
    e021:	48 89 85 e0 f8 ff ff 	mov    %rax,-0x720(%rbp)
    e028:	48 8d 85 40 e9 ff ff 	lea    -0x16c0(%rbp),%rax
    e02f:	48 89 85 e8 f8 ff ff 	mov    %rax,-0x718(%rbp)
    e036:	48 8d 05 13 00 01 00 	lea    0x10013(%rip),%rax        # 1e050 <g_992>
    e03d:	48 89 85 f0 f8 ff ff 	mov    %rax,-0x710(%rbp)
    e044:	48 8d 05 05 00 01 00 	lea    0x10005(%rip),%rax        # 1e050 <g_992>
    e04b:	48 89 85 f8 f8 ff ff 	mov    %rax,-0x708(%rbp)
    e052:	48 8d 05 f7 ff 00 00 	lea    0xfff7(%rip),%rax        # 1e050 <g_992>
    e059:	48 89 85 00 f9 ff ff 	mov    %rax,-0x700(%rbp)
    e060:	48 8d 05 e9 ff 00 00 	lea    0xffe9(%rip),%rax        # 1e050 <g_992>
    e067:	48 89 85 08 f9 ff ff 	mov    %rax,-0x6f8(%rbp)
    e06e:	48 8d 05 db ff 00 00 	lea    0xffdb(%rip),%rax        # 1e050 <g_992>
    e075:	48 89 85 10 f9 ff ff 	mov    %rax,-0x6f0(%rbp)
    e07c:	48 8d 05 cd ff 00 00 	lea    0xffcd(%rip),%rax        # 1e050 <g_992>
    e083:	48 89 85 18 f9 ff ff 	mov    %rax,-0x6e8(%rbp)
    e08a:	48 8d 05 bf ff 00 00 	lea    0xffbf(%rip),%rax        # 1e050 <g_992>
    e091:	48 89 85 20 f9 ff ff 	mov    %rax,-0x6e0(%rbp)
    e098:	48 8d 85 40 e9 ff ff 	lea    -0x16c0(%rbp),%rax
    e09f:	48 89 85 28 f9 ff ff 	mov    %rax,-0x6d8(%rbp)
    e0a6:	48 8d 85 40 e9 ff ff 	lea    -0x16c0(%rbp),%rax
    e0ad:	48 89 85 30 f9 ff ff 	mov    %rax,-0x6d0(%rbp)
    e0b4:	48 8d 85 40 e9 ff ff 	lea    -0x16c0(%rbp),%rax
    e0bb:	48 89 85 38 f9 ff ff 	mov    %rax,-0x6c8(%rbp)
    e0c2:	48 8d 85 40 e9 ff ff 	lea    -0x16c0(%rbp),%rax
    e0c9:	48 89 85 40 f9 ff ff 	mov    %rax,-0x6c0(%rbp)
    e0d0:	48 8d 85 40 e9 ff ff 	lea    -0x16c0(%rbp),%rax
    e0d7:	48 89 85 48 f9 ff ff 	mov    %rax,-0x6b8(%rbp)
    e0de:	48 8d 85 40 e9 ff ff 	lea    -0x16c0(%rbp),%rax
    e0e5:	48 89 85 50 f9 ff ff 	mov    %rax,-0x6b0(%rbp)
    e0ec:	48 8d 85 40 e9 ff ff 	lea    -0x16c0(%rbp),%rax
    e0f3:	48 89 85 58 f9 ff ff 	mov    %rax,-0x6a8(%rbp)
    e0fa:	48 8d 05 4f ff 00 00 	lea    0xff4f(%rip),%rax        # 1e050 <g_992>
    e101:	48 89 85 60 f9 ff ff 	mov    %rax,-0x6a0(%rbp)
    e108:	48 8d 05 41 ff 00 00 	lea    0xff41(%rip),%rax        # 1e050 <g_992>
    e10f:	48 89 85 68 f9 ff ff 	mov    %rax,-0x698(%rbp)
    e116:	48 8d 05 33 ff 00 00 	lea    0xff33(%rip),%rax        # 1e050 <g_992>
    e11d:	48 89 85 70 f9 ff ff 	mov    %rax,-0x690(%rbp)
    e124:	48 8d 05 25 ff 00 00 	lea    0xff25(%rip),%rax        # 1e050 <g_992>
    e12b:	48 89 85 78 f9 ff ff 	mov    %rax,-0x688(%rbp)
    e132:	48 8d 05 17 ff 00 00 	lea    0xff17(%rip),%rax        # 1e050 <g_992>
    e139:	48 89 85 80 f9 ff ff 	mov    %rax,-0x680(%rbp)
    e140:	48 8d 05 09 ff 00 00 	lea    0xff09(%rip),%rax        # 1e050 <g_992>
    e147:	48 89 85 88 f9 ff ff 	mov    %rax,-0x678(%rbp)
    e14e:	48 8d 05 fb fe 00 00 	lea    0xfefb(%rip),%rax        # 1e050 <g_992>
    e155:	48 89 85 90 f9 ff ff 	mov    %rax,-0x670(%rbp)
    e15c:	48 8d 85 40 e9 ff ff 	lea    -0x16c0(%rbp),%rax
    e163:	48 89 85 98 f9 ff ff 	mov    %rax,-0x668(%rbp)
    e16a:	48 8d 85 40 e9 ff ff 	lea    -0x16c0(%rbp),%rax
    e171:	48 89 85 a0 f9 ff ff 	mov    %rax,-0x660(%rbp)
    e178:	48 8d 85 40 e9 ff ff 	lea    -0x16c0(%rbp),%rax
    e17f:	48 89 85 a8 f9 ff ff 	mov    %rax,-0x658(%rbp)
    e186:	48 8d 85 40 e9 ff ff 	lea    -0x16c0(%rbp),%rax
    e18d:	48 89 85 b0 f9 ff ff 	mov    %rax,-0x650(%rbp)
    e194:	48 8d 85 40 e9 ff ff 	lea    -0x16c0(%rbp),%rax
    e19b:	48 89 85 b8 f9 ff ff 	mov    %rax,-0x648(%rbp)
    e1a2:	48 8d 85 40 e9 ff ff 	lea    -0x16c0(%rbp),%rax
    e1a9:	48 89 85 c0 f9 ff ff 	mov    %rax,-0x640(%rbp)
    e1b0:	48 8d 85 40 e9 ff ff 	lea    -0x16c0(%rbp),%rax
    e1b7:	48 89 85 c8 f9 ff ff 	mov    %rax,-0x638(%rbp)
    e1be:	48 8d 05 8b fe 00 00 	lea    0xfe8b(%rip),%rax        # 1e050 <g_992>
    e1c5:	48 89 85 d0 f9 ff ff 	mov    %rax,-0x630(%rbp)
    e1cc:	48 8d 05 7d fe 00 00 	lea    0xfe7d(%rip),%rax        # 1e050 <g_992>
    e1d3:	48 89 85 d8 f9 ff ff 	mov    %rax,-0x628(%rbp)
    e1da:	48 8d 05 6f fe 00 00 	lea    0xfe6f(%rip),%rax        # 1e050 <g_992>
    e1e1:	48 89 85 e0 f9 ff ff 	mov    %rax,-0x620(%rbp)
    e1e8:	48 8d 05 61 fe 00 00 	lea    0xfe61(%rip),%rax        # 1e050 <g_992>
    e1ef:	48 89 85 e8 f9 ff ff 	mov    %rax,-0x618(%rbp)
    e1f6:	48 8d 05 53 fe 00 00 	lea    0xfe53(%rip),%rax        # 1e050 <g_992>
    e1fd:	48 89 85 f0 f9 ff ff 	mov    %rax,-0x610(%rbp)
    e204:	48 8d 05 45 fe 00 00 	lea    0xfe45(%rip),%rax        # 1e050 <g_992>
    e20b:	48 89 85 f8 f9 ff ff 	mov    %rax,-0x608(%rbp)
    e212:	48 8d 05 37 fe 00 00 	lea    0xfe37(%rip),%rax        # 1e050 <g_992>
    e219:	48 89 85 00 fa ff ff 	mov    %rax,-0x600(%rbp)
    e220:	48 8d 85 40 e9 ff ff 	lea    -0x16c0(%rbp),%rax
    e227:	48 89 85 08 fa ff ff 	mov    %rax,-0x5f8(%rbp)
    e22e:	48 8d 85 40 e9 ff ff 	lea    -0x16c0(%rbp),%rax
    e235:	48 89 85 10 fa ff ff 	mov    %rax,-0x5f0(%rbp)
    e23c:	48 8d 85 40 e9 ff ff 	lea    -0x16c0(%rbp),%rax
    e243:	48 89 85 18 fa ff ff 	mov    %rax,-0x5e8(%rbp)
    e24a:	48 8d 85 40 e9 ff ff 	lea    -0x16c0(%rbp),%rax
    e251:	48 89 85 20 fa ff ff 	mov    %rax,-0x5e0(%rbp)
    e258:	48 8d 85 40 e9 ff ff 	lea    -0x16c0(%rbp),%rax
    e25f:	48 89 85 28 fa ff ff 	mov    %rax,-0x5d8(%rbp)
    e266:	48 8d 85 40 e9 ff ff 	lea    -0x16c0(%rbp),%rax
    e26d:	48 89 85 30 fa ff ff 	mov    %rax,-0x5d0(%rbp)
    e274:	48 8d 85 40 e9 ff ff 	lea    -0x16c0(%rbp),%rax
    e27b:	48 89 85 38 fa ff ff 	mov    %rax,-0x5c8(%rbp)
    e282:	48 8d 05 c7 fd 00 00 	lea    0xfdc7(%rip),%rax        # 1e050 <g_992>
    e289:	48 89 85 40 fa ff ff 	mov    %rax,-0x5c0(%rbp)
    e290:	48 8d 05 b9 fd 00 00 	lea    0xfdb9(%rip),%rax        # 1e050 <g_992>
    e297:	48 89 85 48 fa ff ff 	mov    %rax,-0x5b8(%rbp)
    e29e:	48 8d 05 ab fd 00 00 	lea    0xfdab(%rip),%rax        # 1e050 <g_992>
    e2a5:	48 89 85 50 fa ff ff 	mov    %rax,-0x5b0(%rbp)
    e2ac:	48 8d 05 9d fd 00 00 	lea    0xfd9d(%rip),%rax        # 1e050 <g_992>
    e2b3:	48 89 85 58 fa ff ff 	mov    %rax,-0x5a8(%rbp)
    e2ba:	48 8d 05 8f fd 00 00 	lea    0xfd8f(%rip),%rax        # 1e050 <g_992>
    e2c1:	48 89 85 60 fa ff ff 	mov    %rax,-0x5a0(%rbp)
    e2c8:	48 8d 05 81 fd 00 00 	lea    0xfd81(%rip),%rax        # 1e050 <g_992>
    e2cf:	48 89 85 68 fa ff ff 	mov    %rax,-0x598(%rbp)
    e2d6:	48 8d 05 73 fd 00 00 	lea    0xfd73(%rip),%rax        # 1e050 <g_992>
    e2dd:	48 89 85 70 fa ff ff 	mov    %rax,-0x590(%rbp)
    e2e4:	48 8d 85 40 e9 ff ff 	lea    -0x16c0(%rbp),%rax
    e2eb:	48 89 85 78 fa ff ff 	mov    %rax,-0x588(%rbp)
    e2f2:	48 8d 85 40 e9 ff ff 	lea    -0x16c0(%rbp),%rax
    e2f9:	48 89 85 80 fa ff ff 	mov    %rax,-0x580(%rbp)
    e300:	48 8d 85 40 e9 ff ff 	lea    -0x16c0(%rbp),%rax
    e307:	48 89 85 88 fa ff ff 	mov    %rax,-0x578(%rbp)
    e30e:	48 8d 85 40 e9 ff ff 	lea    -0x16c0(%rbp),%rax
    e315:	48 89 85 90 fa ff ff 	mov    %rax,-0x570(%rbp)
    e31c:	48 8d 85 40 e9 ff ff 	lea    -0x16c0(%rbp),%rax
    e323:	48 89 85 98 fa ff ff 	mov    %rax,-0x568(%rbp)
    e32a:	48 8d 85 40 e9 ff ff 	lea    -0x16c0(%rbp),%rax
    e331:	48 89 85 a0 fa ff ff 	mov    %rax,-0x560(%rbp)
    e338:	48 8d 85 40 e9 ff ff 	lea    -0x16c0(%rbp),%rax
    e33f:	48 89 85 a8 fa ff ff 	mov    %rax,-0x558(%rbp)
    e346:	48 8d 05 03 fd 00 00 	lea    0xfd03(%rip),%rax        # 1e050 <g_992>
    e34d:	48 89 85 b0 fa ff ff 	mov    %rax,-0x550(%rbp)
    e354:	48 8d 05 f5 fc 00 00 	lea    0xfcf5(%rip),%rax        # 1e050 <g_992>
    e35b:	48 89 85 b8 fa ff ff 	mov    %rax,-0x548(%rbp)
    e362:	48 8d 05 e7 fc 00 00 	lea    0xfce7(%rip),%rax        # 1e050 <g_992>
    e369:	48 89 85 c0 fa ff ff 	mov    %rax,-0x540(%rbp)
    e370:	48 8d 05 d9 fc 00 00 	lea    0xfcd9(%rip),%rax        # 1e050 <g_992>
    e377:	48 89 85 c8 fa ff ff 	mov    %rax,-0x538(%rbp)
    e37e:	48 8d 05 cb fc 00 00 	lea    0xfccb(%rip),%rax        # 1e050 <g_992>
    e385:	48 89 85 d0 fa ff ff 	mov    %rax,-0x530(%rbp)
    e38c:	48 8d 05 bd fc 00 00 	lea    0xfcbd(%rip),%rax        # 1e050 <g_992>
    e393:	48 89 85 d8 fa ff ff 	mov    %rax,-0x528(%rbp)
    e39a:	48 8d 05 af fc 00 00 	lea    0xfcaf(%rip),%rax        # 1e050 <g_992>
    e3a1:	48 89 85 e0 fa ff ff 	mov    %rax,-0x520(%rbp)
    e3a8:	48 8d 85 40 e9 ff ff 	lea    -0x16c0(%rbp),%rax
    e3af:	48 89 85 e8 fa ff ff 	mov    %rax,-0x518(%rbp)
    e3b6:	48 8d 85 40 e9 ff ff 	lea    -0x16c0(%rbp),%rax
    e3bd:	48 89 85 f0 fa ff ff 	mov    %rax,-0x510(%rbp)
    e3c4:	48 8d 85 40 e9 ff ff 	lea    -0x16c0(%rbp),%rax
    e3cb:	48 89 85 f8 fa ff ff 	mov    %rax,-0x508(%rbp)
    e3d2:	48 8d 85 40 e9 ff ff 	lea    -0x16c0(%rbp),%rax
    e3d9:	48 89 85 00 fb ff ff 	mov    %rax,-0x500(%rbp)
    e3e0:	48 8d 85 40 e9 ff ff 	lea    -0x16c0(%rbp),%rax
    e3e7:	48 89 85 08 fb ff ff 	mov    %rax,-0x4f8(%rbp)
    e3ee:	48 8d 85 40 e9 ff ff 	lea    -0x16c0(%rbp),%rax
    e3f5:	48 89 85 10 fb ff ff 	mov    %rax,-0x4f0(%rbp)
    e3fc:	48 8d 85 40 e9 ff ff 	lea    -0x16c0(%rbp),%rax
    e403:	48 89 85 18 fb ff ff 	mov    %rax,-0x4e8(%rbp)
    e40a:	c7 85 00 ed ff ff f8 	movl   $0xfffffff8,-0x1300(%rbp)
    e411:	ff ff ff 
    e414:	c7 85 04 ed ff ff 06 	movl   $0x6,-0x12fc(%rbp)
    e41b:	00 00 00 
    e41e:	c7 85 08 ed ff ff 00 	movl   $0x0,-0x12f8(%rbp)
    e425:	00 00 00 
    e428:	c7 85 0c ed ff ff 00 	movl   $0x0,-0x12f4(%rbp)
    e42f:	00 00 00 
    e432:	c7 85 10 ed ff ff a4 	movl   $0x39944a4,-0x12f0(%rbp)
    e439:	44 99 03 
    e43c:	c7 85 14 ed ff ff cb 	movl   $0xc246b7cb,-0x12ec(%rbp)
    e443:	b7 46 c2 
    e446:	c7 85 18 ed ff ff f8 	movl   $0xfffffff8,-0x12e8(%rbp)
    e44d:	ff ff ff 
    e450:	c7 85 1c ed ff ff a4 	movl   $0x39944a4,-0x12e4(%rbp)
    e457:	44 99 03 
    e45a:	c7 85 20 ed ff ff f8 	movl   $0xfffffff8,-0x12e0(%rbp)
    e461:	ff ff ff 
    e464:	c7 85 24 ed ff ff e7 	movl   $0x669af2e7,-0x12dc(%rbp)
    e46b:	f2 9a 66 
    e46e:	c7 85 28 ed ff ff 06 	movl   $0x6,-0x12d8(%rbp)
    e475:	00 00 00 
    e478:	c7 85 2c ed ff ff cb 	movl   $0xc246b7cb,-0x12d4(%rbp)
    e47f:	b7 46 c2 
    e482:	c7 85 30 ed ff ff e7 	movl   $0x669af2e7,-0x12d0(%rbp)
    e489:	f2 9a 66 
    e48c:	c7 85 34 ed ff ff 84 	movl   $0xf236ae84,-0x12cc(%rbp)
    e493:	ae 36 f2 
    e496:	c7 85 38 ed ff ff 00 	movl   $0x0,-0x12c8(%rbp)
    e49d:	00 00 00 
    e4a0:	c7 85 3c ed ff ff f8 	movl   $0xfffffff8,-0x12c4(%rbp)
    e4a7:	ff ff ff 
    e4aa:	c7 85 40 ed ff ff 06 	movl   $0x6,-0x12c0(%rbp)
    e4b1:	00 00 00 
    e4b4:	c7 85 44 ed ff ff 00 	movl   $0x0,-0x12bc(%rbp)
    e4bb:	00 00 00 
    e4be:	c7 85 48 ed ff ff 00 	movl   $0x0,-0x12b8(%rbp)
    e4c5:	00 00 00 
    e4c8:	c7 85 4c ed ff ff a4 	movl   $0x39944a4,-0x12b4(%rbp)
    e4cf:	44 99 03 
    e4d2:	c7 85 50 ed ff ff cb 	movl   $0xc246b7cb,-0x12b0(%rbp)
    e4d9:	b7 46 c2 
    e4dc:	c7 85 54 ed ff ff f8 	movl   $0xfffffff8,-0x12ac(%rbp)
    e4e3:	ff ff ff 
    e4e6:	c7 85 58 ed ff ff a4 	movl   $0x39944a4,-0x12a8(%rbp)
    e4ed:	44 99 03 
    e4f0:	c7 85 5c ed ff ff f8 	movl   $0xfffffff8,-0x12a4(%rbp)
    e4f7:	ff ff ff 
    e4fa:	c7 85 60 ed ff ff e7 	movl   $0x669af2e7,-0x12a0(%rbp)
    e501:	f2 9a 66 
    e504:	c7 85 64 ed ff ff 06 	movl   $0x6,-0x129c(%rbp)
    e50b:	00 00 00 
    e50e:	c7 85 68 ed ff ff cb 	movl   $0xc246b7cb,-0x1298(%rbp)
    e515:	b7 46 c2 
    e518:	c7 85 6c ed ff ff e7 	movl   $0x669af2e7,-0x1294(%rbp)
    e51f:	f2 9a 66 
    e522:	c7 85 70 ed ff ff 84 	movl   $0xf236ae84,-0x1290(%rbp)
    e529:	ae 36 f2 
    e52c:	c7 85 74 ed ff ff 00 	movl   $0x0,-0x128c(%rbp)
    e533:	00 00 00 
    e536:	c7 85 78 ed ff ff f8 	movl   $0xfffffff8,-0x1288(%rbp)
    e53d:	ff ff ff 
    e540:	c7 85 7c ed ff ff 06 	movl   $0x6,-0x1284(%rbp)
    e547:	00 00 00 
    e54a:	c7 85 80 ed ff ff 00 	movl   $0x0,-0x1280(%rbp)
    e551:	00 00 00 
    e554:	c7 85 84 ed ff ff 00 	movl   $0x0,-0x127c(%rbp)
    e55b:	00 00 00 
    e55e:	c7 85 88 ed ff ff a4 	movl   $0x39944a4,-0x1278(%rbp)
    e565:	44 99 03 
    e568:	c7 85 8c ed ff ff cb 	movl   $0xc246b7cb,-0x1274(%rbp)
    e56f:	b7 46 c2 
    e572:	48 8d 05 c7 fa 00 00 	lea    0xfac7(%rip),%rax        # 1e040 <g_797>
    e579:	48 89 85 38 ea ff ff 	mov    %rax,-0x15c8(%rbp)
    e580:	48 8d 05 b7 d2 00 00 	lea    0xd2b7(%rip),%rax        # 1b83e <g_244+0x1e>
    e587:	48 89 85 80 e9 ff ff 	mov    %rax,-0x1680(%rbp)
    e58e:	48 8d 85 80 e9 ff ff 	lea    -0x1680(%rbp),%rax
    e595:	48 89 85 88 e9 ff ff 	mov    %rax,-0x1678(%rbp)
    e59c:	48 8d 85 88 e9 ff ff 	lea    -0x1678(%rbp),%rax
    e5a3:	48 89 85 40 f2 ff ff 	mov    %rax,-0xdc0(%rbp)
    e5aa:	48 8d 85 88 e9 ff ff 	lea    -0x1678(%rbp),%rax
    e5b1:	48 89 85 48 f2 ff ff 	mov    %rax,-0xdb8(%rbp)
    e5b8:	48 c7 85 50 f2 ff ff 	movq   $0x0,-0xdb0(%rbp)
    e5bf:	00 00 00 00 
    e5c3:	48 8d 85 88 e9 ff ff 	lea    -0x1678(%rbp),%rax
    e5ca:	48 89 85 58 f2 ff ff 	mov    %rax,-0xda8(%rbp)
    e5d1:	48 c7 85 60 f2 ff ff 	movq   $0x0,-0xda0(%rbp)
    e5d8:	00 00 00 00 
    e5dc:	48 8d 85 88 e9 ff ff 	lea    -0x1678(%rbp),%rax
    e5e3:	48 89 85 68 f2 ff ff 	mov    %rax,-0xd98(%rbp)
    e5ea:	48 8d 85 88 e9 ff ff 	lea    -0x1678(%rbp),%rax
    e5f1:	48 89 85 70 f2 ff ff 	mov    %rax,-0xd90(%rbp)
    e5f8:	48 8d 85 88 e9 ff ff 	lea    -0x1678(%rbp),%rax
    e5ff:	48 89 85 78 f2 ff ff 	mov    %rax,-0xd88(%rbp)
    e606:	48 8d 85 88 e9 ff ff 	lea    -0x1678(%rbp),%rax
    e60d:	48 89 85 80 f2 ff ff 	mov    %rax,-0xd80(%rbp)
    e614:	48 8d 85 88 e9 ff ff 	lea    -0x1678(%rbp),%rax
    e61b:	48 89 85 88 f2 ff ff 	mov    %rax,-0xd78(%rbp)
    e622:	48 8d 85 88 e9 ff ff 	lea    -0x1678(%rbp),%rax
    e629:	48 89 85 90 f2 ff ff 	mov    %rax,-0xd70(%rbp)
    e630:	48 8d 85 88 e9 ff ff 	lea    -0x1678(%rbp),%rax
    e637:	48 89 85 98 f2 ff ff 	mov    %rax,-0xd68(%rbp)
    e63e:	48 8d 85 88 e9 ff ff 	lea    -0x1678(%rbp),%rax
    e645:	48 89 85 a0 f2 ff ff 	mov    %rax,-0xd60(%rbp)
    e64c:	48 8d 85 88 e9 ff ff 	lea    -0x1678(%rbp),%rax
    e653:	48 89 85 a8 f2 ff ff 	mov    %rax,-0xd58(%rbp)
    e65a:	48 8d 85 88 e9 ff ff 	lea    -0x1678(%rbp),%rax
    e661:	48 89 85 b0 f2 ff ff 	mov    %rax,-0xd50(%rbp)
    e668:	48 8d 85 88 e9 ff ff 	lea    -0x1678(%rbp),%rax
    e66f:	48 89 85 b8 f2 ff ff 	mov    %rax,-0xd48(%rbp)
    e676:	48 8d 85 88 e9 ff ff 	lea    -0x1678(%rbp),%rax
    e67d:	48 89 85 c0 f2 ff ff 	mov    %rax,-0xd40(%rbp)
    e684:	48 8d 85 88 e9 ff ff 	lea    -0x1678(%rbp),%rax
    e68b:	48 89 85 c8 f2 ff ff 	mov    %rax,-0xd38(%rbp)
    e692:	48 8d 85 88 e9 ff ff 	lea    -0x1678(%rbp),%rax
    e699:	48 89 85 d0 f2 ff ff 	mov    %rax,-0xd30(%rbp)
    e6a0:	48 8d 85 88 e9 ff ff 	lea    -0x1678(%rbp),%rax
    e6a7:	48 89 85 d8 f2 ff ff 	mov    %rax,-0xd28(%rbp)
    e6ae:	48 8d 85 88 e9 ff ff 	lea    -0x1678(%rbp),%rax
    e6b5:	48 89 85 e0 f2 ff ff 	mov    %rax,-0xd20(%rbp)
    e6bc:	48 8d 85 88 e9 ff ff 	lea    -0x1678(%rbp),%rax
    e6c3:	48 89 85 e8 f2 ff ff 	mov    %rax,-0xd18(%rbp)
    e6ca:	48 8d 85 88 e9 ff ff 	lea    -0x1678(%rbp),%rax
    e6d1:	48 89 85 f0 f2 ff ff 	mov    %rax,-0xd10(%rbp)
    e6d8:	48 8d 85 88 e9 ff ff 	lea    -0x1678(%rbp),%rax
    e6df:	48 89 85 f8 f2 ff ff 	mov    %rax,-0xd08(%rbp)
    e6e6:	48 8d 85 88 e9 ff ff 	lea    -0x1678(%rbp),%rax
    e6ed:	48 89 85 00 f3 ff ff 	mov    %rax,-0xd00(%rbp)
    e6f4:	48 c7 85 08 f3 ff ff 	movq   $0x0,-0xcf8(%rbp)
    e6fb:	00 00 00 00 
    e6ff:	48 8d 85 88 e9 ff ff 	lea    -0x1678(%rbp),%rax
    e706:	48 89 85 10 f3 ff ff 	mov    %rax,-0xcf0(%rbp)
    e70d:	48 8d 85 88 e9 ff ff 	lea    -0x1678(%rbp),%rax
    e714:	48 89 85 18 f3 ff ff 	mov    %rax,-0xce8(%rbp)
    e71b:	48 8d 85 88 e9 ff ff 	lea    -0x1678(%rbp),%rax
    e722:	48 89 85 20 f3 ff ff 	mov    %rax,-0xce0(%rbp)
    e729:	48 8d 85 88 e9 ff ff 	lea    -0x1678(%rbp),%rax
    e730:	48 89 85 28 f3 ff ff 	mov    %rax,-0xcd8(%rbp)
    e737:	48 8d 85 88 e9 ff ff 	lea    -0x1678(%rbp),%rax
    e73e:	48 89 85 30 f3 ff ff 	mov    %rax,-0xcd0(%rbp)
    e745:	48 8d 85 88 e9 ff ff 	lea    -0x1678(%rbp),%rax
    e74c:	48 89 85 38 f3 ff ff 	mov    %rax,-0xcc8(%rbp)
    e753:	48 8d 85 88 e9 ff ff 	lea    -0x1678(%rbp),%rax
    e75a:	48 89 85 40 f3 ff ff 	mov    %rax,-0xcc0(%rbp)
    e761:	48 8d 85 88 e9 ff ff 	lea    -0x1678(%rbp),%rax
    e768:	48 89 85 48 f3 ff ff 	mov    %rax,-0xcb8(%rbp)
    e76f:	48 8d 85 88 e9 ff ff 	lea    -0x1678(%rbp),%rax
    e776:	48 89 85 50 f3 ff ff 	mov    %rax,-0xcb0(%rbp)
    e77d:	48 8d 85 88 e9 ff ff 	lea    -0x1678(%rbp),%rax
    e784:	48 89 85 58 f3 ff ff 	mov    %rax,-0xca8(%rbp)
    e78b:	48 8d 85 88 e9 ff ff 	lea    -0x1678(%rbp),%rax
    e792:	48 89 85 60 f3 ff ff 	mov    %rax,-0xca0(%rbp)
    e799:	48 8d 85 88 e9 ff ff 	lea    -0x1678(%rbp),%rax
    e7a0:	48 89 85 68 f3 ff ff 	mov    %rax,-0xc98(%rbp)
    e7a7:	48 8d 85 88 e9 ff ff 	lea    -0x1678(%rbp),%rax
    e7ae:	48 89 85 70 f3 ff ff 	mov    %rax,-0xc90(%rbp)
    e7b5:	48 c7 85 78 f3 ff ff 	movq   $0x0,-0xc88(%rbp)
    e7bc:	00 00 00 00 
    e7c0:	48 8d 85 88 e9 ff ff 	lea    -0x1678(%rbp),%rax
    e7c7:	48 89 85 80 f3 ff ff 	mov    %rax,-0xc80(%rbp)
    e7ce:	48 8d 85 88 e9 ff ff 	lea    -0x1678(%rbp),%rax
    e7d5:	48 89 85 88 f3 ff ff 	mov    %rax,-0xc78(%rbp)
    e7dc:	48 8d 85 88 e9 ff ff 	lea    -0x1678(%rbp),%rax
    e7e3:	48 89 85 90 f3 ff ff 	mov    %rax,-0xc70(%rbp)
    e7ea:	48 c7 85 98 f3 ff ff 	movq   $0x0,-0xc68(%rbp)
    e7f1:	00 00 00 00 
    e7f5:	48 8d 85 88 e9 ff ff 	lea    -0x1678(%rbp),%rax
    e7fc:	48 89 85 a0 f3 ff ff 	mov    %rax,-0xc60(%rbp)
    e803:	48 8d 85 88 e9 ff ff 	lea    -0x1678(%rbp),%rax
    e80a:	48 89 85 a8 f3 ff ff 	mov    %rax,-0xc58(%rbp)
    e811:	48 8d 85 88 e9 ff ff 	lea    -0x1678(%rbp),%rax
    e818:	48 89 85 b0 f3 ff ff 	mov    %rax,-0xc50(%rbp)
    e81f:	48 8d 85 88 e9 ff ff 	lea    -0x1678(%rbp),%rax
    e826:	48 89 85 b8 f3 ff ff 	mov    %rax,-0xc48(%rbp)
    e82d:	48 8d 85 88 e9 ff ff 	lea    -0x1678(%rbp),%rax
    e834:	48 89 85 c0 f3 ff ff 	mov    %rax,-0xc40(%rbp)
    e83b:	48 8d 85 88 e9 ff ff 	lea    -0x1678(%rbp),%rax
    e842:	48 89 85 c8 f3 ff ff 	mov    %rax,-0xc38(%rbp)
    e849:	48 8d 85 88 e9 ff ff 	lea    -0x1678(%rbp),%rax
    e850:	48 89 85 d0 f3 ff ff 	mov    %rax,-0xc30(%rbp)
    e857:	48 8d 85 88 e9 ff ff 	lea    -0x1678(%rbp),%rax
    e85e:	48 89 85 d8 f3 ff ff 	mov    %rax,-0xc28(%rbp)
    e865:	48 8d 85 88 e9 ff ff 	lea    -0x1678(%rbp),%rax
    e86c:	48 89 85 e0 f3 ff ff 	mov    %rax,-0xc20(%rbp)
    e873:	48 8d 85 88 e9 ff ff 	lea    -0x1678(%rbp),%rax
    e87a:	48 89 85 e8 f3 ff ff 	mov    %rax,-0xc18(%rbp)
    e881:	48 8d 85 40 f2 ff ff 	lea    -0xdc0(%rbp),%rax
    e888:	48 05 30 01 00 00    	add    $0x130,%rax
    e88e:	48 89 85 40 ea ff ff 	mov    %rax,-0x15c0(%rbp)
    e895:	48 c7 85 48 ea ff ff 	movq   $0x0,-0x15b8(%rbp)
    e89c:	00 00 00 00 
    e8a0:	48 c7 85 50 ea ff ff 	movq   $0x0,-0x15b0(%rbp)
    e8a7:	00 00 00 00 
    e8ab:	48 8d 85 88 e9 ff ff 	lea    -0x1678(%rbp),%rax
    e8b2:	48 89 85 90 e9 ff ff 	mov    %rax,-0x1670(%rbp)
    e8b9:	48 8d 85 90 e9 ff ff 	lea    -0x1670(%rbp),%rax
    e8c0:	48 89 85 58 ea ff ff 	mov    %rax,-0x15a8(%rbp)
    e8c7:	48 8d 05 72 f7 00 00 	lea    0xf772(%rip),%rax        # 1e040 <g_797>
    e8ce:	48 89 85 60 ea ff ff 	mov    %rax,-0x15a0(%rbp)
    e8d5:	66 c7 85 b6 e8 ff ff 	movw   $0x4d7f,-0x174a(%rbp)
    e8dc:	7f 4d 
    e8de:	c7 85 d0 e8 ff ff 00 	movl   $0x0,-0x1730(%rbp)
    e8e5:	00 00 00 
    e8e8:	eb 1e                	jmp    e908 <func_21+0x28e0>
    e8ea:	8b 85 d0 e8 ff ff    	mov    -0x1730(%rbp),%eax
    e8f0:	48 98                	cltq   
    e8f2:	48 8d 95 48 e9 ff ff 	lea    -0x16b8(%rbp),%rdx
    e8f9:	48 89 94 c5 70 eb ff 	mov    %rdx,-0x1490(%rbp,%rax,8)
    e900:	ff 
    e901:	83 85 d0 e8 ff ff 01 	addl   $0x1,-0x1730(%rbp)
    e908:	83 bd d0 e8 ff ff 01 	cmpl   $0x1,-0x1730(%rbp)
    e90f:	7e d9                	jle    e8ea <func_21+0x28c2>
    e911:	c7 85 d0 e8 ff ff 00 	movl   $0x0,-0x1730(%rbp)
    e918:	00 00 00 
    e91b:	eb 1a                	jmp    e937 <func_21+0x290f>
    e91d:	8b 85 d0 e8 ff ff    	mov    -0x1730(%rbp),%eax
    e923:	48 98                	cltq   
    e925:	c7 84 85 68 eb ff ff 	movl   $0xccb671b9,-0x1498(%rbp,%rax,4)
    e92c:	b9 71 b6 cc 
    e930:	83 85 d0 e8 ff ff 01 	addl   $0x1,-0x1730(%rbp)
    e937:	83 bd d0 e8 ff ff 01 	cmpl   $0x1,-0x1730(%rbp)
    e93e:	7e dd                	jle    e91d <func_21+0x28f5>
    e940:	c7 05 b6 d2 00 00 fe 	movl   $0xfffffffe,0xd2b6(%rip)        # 1bc00 <g_1138>
    e947:	ff ff ff 
    e94a:	e9 ee 1b 00 00       	jmpq   1053d <func_21+0x4515>
    e94f:	48 b8 1f ec a1 c2 6a 	movabs $0x63491b6ac2a1ec1f,%rax
    e956:	1b 49 63 
    e959:	48 89 85 98 e9 ff ff 	mov    %rax,-0x1668(%rbp)
    e960:	48 8d 85 f0 f3 ff ff 	lea    -0xc10(%rbp),%rax
    e967:	48 8d 15 b2 8c 00 00 	lea    0x8cb2(%rip),%rdx        # 17620 <g_2389+0x558>
    e96e:	b9 3f 00 00 00       	mov    $0x3f,%ecx
    e973:	48 89 c7             	mov    %rax,%rdi
    e976:	48 89 d6             	mov    %rdx,%rsi
    e979:	f3 48 a5             	rep movsq %ds:(%rsi),%es:(%rdi)
    e97c:	48 8d 05 bd f6 00 00 	lea    0xf6bd(%rip),%rax        # 1e040 <g_797>
    e983:	48 89 85 68 ea ff ff 	mov    %rax,-0x1598(%rbp)
    e98a:	48 8d 05 9f f6 00 00 	lea    0xf69f(%rip),%rax        # 1e030 <g_336>
    e991:	48 89 85 70 ea ff ff 	mov    %rax,-0x1590(%rbp)
    e998:	c7 85 f4 e8 ff ff 6c 	movl   $0x5b85ff6c,-0x170c(%rbp)
    e99f:	ff 85 5b 
    e9a2:	c7 85 f8 e8 ff ff 00 	movl   $0x0,-0x1708(%rbp)
    e9a9:	00 00 00 
    e9ac:	48 8d 05 5d eb 00 00 	lea    0xeb5d(%rip),%rax        # 1d510 <g_991>
    e9b3:	48 89 85 a0 e9 ff ff 	mov    %rax,-0x1660(%rbp)
    e9ba:	48 8d 85 a0 e9 ff ff 	lea    -0x1660(%rbp),%rax
    e9c1:	48 89 85 50 ee ff ff 	mov    %rax,-0x11b0(%rbp)
    e9c8:	48 c7 85 58 ee ff ff 	movq   $0x0,-0x11a8(%rbp)
    e9cf:	00 00 00 00 
    e9d3:	48 8d 85 a0 e9 ff ff 	lea    -0x1660(%rbp),%rax
    e9da:	48 89 85 60 ee ff ff 	mov    %rax,-0x11a0(%rbp)
    e9e1:	48 8d 85 a0 e9 ff ff 	lea    -0x1660(%rbp),%rax
    e9e8:	48 89 85 68 ee ff ff 	mov    %rax,-0x1198(%rbp)
    e9ef:	48 8d 85 a0 e9 ff ff 	lea    -0x1660(%rbp),%rax
    e9f6:	48 89 85 70 ee ff ff 	mov    %rax,-0x1190(%rbp)
    e9fd:	48 8d 85 a0 e9 ff ff 	lea    -0x1660(%rbp),%rax
    ea04:	48 89 85 78 ee ff ff 	mov    %rax,-0x1188(%rbp)
    ea0b:	48 8d 85 a0 e9 ff ff 	lea    -0x1660(%rbp),%rax
    ea12:	48 89 85 80 ee ff ff 	mov    %rax,-0x1180(%rbp)
    ea19:	48 c7 85 88 ee ff ff 	movq   $0x0,-0x1178(%rbp)
    ea20:	00 00 00 00 
    ea24:	48 8d 85 a0 e9 ff ff 	lea    -0x1660(%rbp),%rax
    ea2b:	48 89 85 90 ee ff ff 	mov    %rax,-0x1170(%rbp)
    ea32:	48 8d 85 a0 e9 ff ff 	lea    -0x1660(%rbp),%rax
    ea39:	48 89 85 98 ee ff ff 	mov    %rax,-0x1168(%rbp)
    ea40:	48 8d 85 a0 e9 ff ff 	lea    -0x1660(%rbp),%rax
    ea47:	48 89 85 a0 ee ff ff 	mov    %rax,-0x1160(%rbp)
    ea4e:	48 c7 85 a8 ee ff ff 	movq   $0x0,-0x1158(%rbp)
    ea55:	00 00 00 00 
    ea59:	48 8d 85 a0 e9 ff ff 	lea    -0x1660(%rbp),%rax
    ea60:	48 89 85 b0 ee ff ff 	mov    %rax,-0x1150(%rbp)
    ea67:	48 8d 85 a0 e9 ff ff 	lea    -0x1660(%rbp),%rax
    ea6e:	48 89 85 b8 ee ff ff 	mov    %rax,-0x1148(%rbp)
    ea75:	48 8d 85 a0 e9 ff ff 	lea    -0x1660(%rbp),%rax
    ea7c:	48 89 85 c0 ee ff ff 	mov    %rax,-0x1140(%rbp)
    ea83:	48 c7 85 c8 ee ff ff 	movq   $0x0,-0x1138(%rbp)
    ea8a:	00 00 00 00 
    ea8e:	48 8d 85 a0 e9 ff ff 	lea    -0x1660(%rbp),%rax
    ea95:	48 89 85 d0 ee ff ff 	mov    %rax,-0x1130(%rbp)
    ea9c:	48 8d 85 a0 e9 ff ff 	lea    -0x1660(%rbp),%rax
    eaa3:	48 89 85 d8 ee ff ff 	mov    %rax,-0x1128(%rbp)
    eaaa:	48 8d 85 a0 e9 ff ff 	lea    -0x1660(%rbp),%rax
    eab1:	48 89 85 e0 ee ff ff 	mov    %rax,-0x1120(%rbp)
    eab8:	48 8d 85 a0 e9 ff ff 	lea    -0x1660(%rbp),%rax
    eabf:	48 89 85 e8 ee ff ff 	mov    %rax,-0x1118(%rbp)
    eac6:	48 8d 85 a0 e9 ff ff 	lea    -0x1660(%rbp),%rax
    eacd:	48 89 85 f0 ee ff ff 	mov    %rax,-0x1110(%rbp)
    ead4:	48 8d 85 a0 e9 ff ff 	lea    -0x1660(%rbp),%rax
    eadb:	48 89 85 f8 ee ff ff 	mov    %rax,-0x1108(%rbp)
    eae2:	48 8d 85 a0 e9 ff ff 	lea    -0x1660(%rbp),%rax
    eae9:	48 89 85 00 ef ff ff 	mov    %rax,-0x1100(%rbp)
    eaf0:	48 8d 85 a0 e9 ff ff 	lea    -0x1660(%rbp),%rax
    eaf7:	48 89 85 08 ef ff ff 	mov    %rax,-0x10f8(%rbp)
    eafe:	48 8d 85 a0 e9 ff ff 	lea    -0x1660(%rbp),%rax
    eb05:	48 89 85 10 ef ff ff 	mov    %rax,-0x10f0(%rbp)
    eb0c:	48 8d 85 a0 e9 ff ff 	lea    -0x1660(%rbp),%rax
    eb13:	48 89 85 18 ef ff ff 	mov    %rax,-0x10e8(%rbp)
    eb1a:	48 8d 85 a0 e9 ff ff 	lea    -0x1660(%rbp),%rax
    eb21:	48 89 85 20 ef ff ff 	mov    %rax,-0x10e0(%rbp)
    eb28:	48 8d 85 a0 e9 ff ff 	lea    -0x1660(%rbp),%rax
    eb2f:	48 89 85 28 ef ff ff 	mov    %rax,-0x10d8(%rbp)
    eb36:	48 8d 85 a0 e9 ff ff 	lea    -0x1660(%rbp),%rax
    eb3d:	48 89 85 30 ef ff ff 	mov    %rax,-0x10d0(%rbp)
    eb44:	48 8d 85 a0 e9 ff ff 	lea    -0x1660(%rbp),%rax
    eb4b:	48 89 85 38 ef ff ff 	mov    %rax,-0x10c8(%rbp)
    eb52:	48 8d 05 c7 d1 00 00 	lea    0xd1c7(%rip),%rax        # 1bd20 <g_1563>
    eb59:	48 89 85 78 ea ff ff 	mov    %rax,-0x1588(%rbp)
    eb60:	48 b8 1f 93 be a8 6f 	movabs $0xccd4e66fa8be931f,%rax
    eb67:	e6 d4 cc 
    eb6a:	48 89 85 80 ea ff ff 	mov    %rax,-0x1580(%rbp)
    eb71:	48 8d 85 78 e9 ff ff 	lea    -0x1688(%rbp),%rax
    eb78:	48 89 85 88 ea ff ff 	mov    %rax,-0x1578(%rbp)
    eb7f:	c7 85 d4 e8 ff ff 00 	movl   $0x0,-0x172c(%rbp)
    eb86:	00 00 00 
    eb89:	eb 1e                	jmp    eba9 <func_21+0x2b81>
    eb8b:	8b 85 d4 e8 ff ff    	mov    -0x172c(%rbp),%eax
    eb91:	48 98                	cltq   
    eb93:	48 8d 15 c6 e5 00 00 	lea    0xe5c6(%rip),%rdx        # 1d160 <g_446>
    eb9a:	48 89 94 c5 80 eb ff 	mov    %rdx,-0x1480(%rbp,%rax,8)
    eba1:	ff 
    eba2:	83 85 d4 e8 ff ff 01 	addl   $0x1,-0x172c(%rbp)
    eba9:	83 bd d4 e8 ff ff 01 	cmpl   $0x1,-0x172c(%rbp)
    ebb0:	7e d9                	jle    eb8b <func_21+0x2b63>
    ebb2:	c7 05 70 cd 00 00 15 	movl   $0x15,0xcd70(%rip)        # 1b92c <g_924>
    ebb9:	00 00 00 
    ebbc:	e9 5e 19 00 00       	jmpq   1051f <func_21+0x44f7>
    ebc1:	48 8d 85 b0 f0 ff ff 	lea    -0xf50(%rbp),%rax
    ebc8:	48 8d 15 51 8c 00 00 	lea    0x8c51(%rip),%rdx        # 17820 <g_2389+0x758>
    ebcf:	b9 32 00 00 00       	mov    $0x32,%ecx
    ebd4:	48 89 c7             	mov    %rax,%rdi
    ebd7:	48 89 d6             	mov    %rdx,%rsi
    ebda:	f3 48 a5             	rep movsq %ds:(%rsi),%es:(%rdi)
    ebdd:	48 c7 85 90 ea ff ff 	movq   $0x0,-0x1570(%rbp)
    ebe4:	00 00 00 00 
    ebe8:	48 8d 85 70 e9 ff ff 	lea    -0x1690(%rbp),%rax
    ebef:	48 89 85 a8 e9 ff ff 	mov    %rax,-0x1658(%rbp)
    ebf6:	48 c7 85 b0 ec ff ff 	movq   $0x0,-0x1350(%rbp)
    ebfd:	00 00 00 00 
    ec01:	48 8d 85 a8 e9 ff ff 	lea    -0x1658(%rbp),%rax
    ec08:	48 89 85 b8 ec ff ff 	mov    %rax,-0x1348(%rbp)
    ec0f:	48 c7 85 c0 ec ff ff 	movq   $0x0,-0x1340(%rbp)
    ec16:	00 00 00 00 
    ec1a:	48 8d 85 a8 e9 ff ff 	lea    -0x1658(%rbp),%rax
    ec21:	48 89 85 c8 ec ff ff 	mov    %rax,-0x1338(%rbp)
    ec28:	48 c7 85 d0 ec ff ff 	movq   $0x0,-0x1330(%rbp)
    ec2f:	00 00 00 00 
    ec33:	48 8d 85 a8 e9 ff ff 	lea    -0x1658(%rbp),%rax
    ec3a:	48 89 85 d8 ec ff ff 	mov    %rax,-0x1328(%rbp)
    ec41:	48 c7 85 e0 ec ff ff 	movq   $0x0,-0x1320(%rbp)
    ec48:	00 00 00 00 
    ec4c:	48 8d 85 a8 e9 ff ff 	lea    -0x1658(%rbp),%rax
    ec53:	48 89 85 e8 ec ff ff 	mov    %rax,-0x1318(%rbp)
    ec5a:	48 c7 85 f0 ec ff ff 	movq   $0x0,-0x1310(%rbp)
    ec61:	00 00 00 00 
    ec65:	48 c7 85 98 ea ff ff 	movq   $0x0,-0x1568(%rbp)
    ec6c:	00 00 00 00 
    ec70:	48 8d 85 40 ef ff ff 	lea    -0x10c0(%rbp),%rax
    ec77:	48 8d 15 42 8d 00 00 	lea    0x8d42(%rip),%rdx        # 179c0 <g_2389+0x8f8>
    ec7e:	b9 2d 00 00 00       	mov    $0x2d,%ecx
    ec83:	48 89 c7             	mov    %rax,%rdi
    ec86:	48 89 d6             	mov    %rdx,%rsi
    ec89:	f3 48 a5             	rep movsq %ds:(%rsi),%es:(%rdi)
    ec8c:	c7 85 d8 e8 ff ff 03 	movl   $0x3,-0x1728(%rbp)
    ec93:	00 00 00 
    ec96:	48 b8 7a 2b 58 95 ac 	movabs $0xc8b126ac95582b7a,%rax
    ec9d:	26 b1 c8 
    eca0:	48 89 85 b8 e9 ff ff 	mov    %rax,-0x1648(%rbp)
    eca7:	c7 85 fc e8 ff ff 46 	movl   $0x6342d546,-0x1704(%rbp)
    ecae:	d5 42 63 
    ecb1:	48 8d 05 4d cb 00 00 	lea    0xcb4d(%rip),%rax        # 1b805 <g_179+0x5>
    ecb8:	48 89 85 a0 ea ff ff 	mov    %rax,-0x1560(%rbp)
    ecbf:	8b 85 8c e8 ff ff    	mov    -0x1774(%rbp),%eax
    ecc5:	0f b7 d8             	movzwl %ax,%ebx
    ecc8:	8b 85 8c e8 ff ff    	mov    -0x1774(%rbp),%eax
    ecce:	0f b6 c0             	movzbl %al,%eax
    ecd1:	89 c6                	mov    %eax,%esi
    ecd3:	bf 00 00 00 00       	mov    $0x0,%edi
    ecd8:	e8 7d 6e ff ff       	callq  5b5a <safe_add_func_uint8_t_u_u>
    ecdd:	44 0f b6 e0          	movzbl %al,%r12d
    ece1:	8b 85 8c e8 ff ff    	mov    -0x1774(%rbp),%eax
    ece7:	0f be d0             	movsbl %al,%edx
    ecea:	8b 85 c8 e8 ff ff    	mov    -0x1738(%rbp),%eax
    ecf0:	0f be c0             	movsbl %al,%eax
    ecf3:	89 d6                	mov    %edx,%esi
    ecf5:	89 c7                	mov    %eax,%edi
    ecf7:	e8 16 65 ff ff       	callq  5212 <safe_mul_func_int8_t_s_s>
    ecfc:	66 98                	cbtw   
    ecfe:	0f b7 c0             	movzwl %ax,%eax
    ed01:	44 89 e6             	mov    %r12d,%esi
    ed04:	89 c7                	mov    %eax,%edi
    ed06:	e8 32 70 ff ff       	callq  5d3d <safe_mul_func_uint16_t_u_u>
    ed0b:	0f b7 c0             	movzwl %ax,%eax
    ed0e:	be 0c 00 00 00       	mov    $0xc,%esi
    ed13:	89 c7                	mov    %eax,%edi
    ed15:	e8 2e 71 ff ff       	callq  5e48 <safe_rshift_func_uint16_t_u_s>
    ed1a:	98                   	cwtl   
    ed1b:	be 0f 00 00 00       	mov    $0xf,%esi
    ed20:	89 c7                	mov    %eax,%edi
    ed22:	e8 03 68 ff ff       	callq  552a <safe_rshift_func_int16_t_s_s>
    ed27:	89 de                	mov    %ebx,%esi
    ed29:	bf 01 00 00 00       	mov    $0x1,%edi
    ed2e:	e8 cc 6f ff ff       	callq  5cff <safe_add_func_uint16_t_u_u>
    ed33:	0f be c0             	movsbl %al,%eax
    ed36:	be 22 00 00 00       	mov    $0x22,%esi
    ed3b:	89 c7                	mov    %eax,%edi
    ed3d:	e8 b0 64 ff ff       	callq  51f2 <safe_sub_func_int8_t_s_s>
    ed42:	48 8b 95 50 e9 ff ff 	mov    -0x16b0(%rbp),%rdx
    ed49:	48 8d 85 98 e9 ff ff 	lea    -0x1668(%rbp),%rax
    ed50:	48 39 c2             	cmp    %rax,%rdx
    ed53:	0f 84 85 02 00 00    	je     efde <func_21+0x2fb6>
    ed59:	c6 85 b0 e8 ff ff ff 	movb   $0xff,-0x1750(%rbp)
    ed60:	48 8d 05 d9 f2 00 00 	lea    0xf2d9(%rip),%rax        # 1e040 <g_797>
    ed67:	48 89 85 a8 ea ff ff 	mov    %rax,-0x1558(%rbp)
    ed6e:	48 8b 05 eb ed 00 00 	mov    0xedeb(%rip),%rax        # 1db60 <g_1407>
    ed75:	48 8b 00             	mov    (%rax),%rax
    ed78:	48 8b 18             	mov    (%rax),%rbx
    ed7b:	48 8b 85 d0 e9 ff ff 	mov    -0x1630(%rbp),%rax
    ed82:	8b 00                	mov    (%rax),%eax
    ed84:	f7 d0                	not    %eax
    ed86:	be 00 00 00 00       	mov    $0x0,%esi
    ed8b:	89 c7                	mov    %eax,%edi
    ed8d:	e8 24 68 ff ff       	callq  55b6 <safe_add_func_int32_t_s_s>
    ed92:	48 89 de             	mov    %rbx,%rsi
    ed95:	48 bf a6 65 fc 23 0e 	movabs $0xa40d8a0e23fc65a6,%rdi
    ed9c:	8a 0d a4 
    ed9f:	e8 9d 6a ff ff       	callq  5841 <safe_add_func_int64_t_s_s>
    eda4:	8b 85 90 e8 ff ff    	mov    -0x1770(%rbp),%eax
    edaa:	0f be c0             	movsbl %al,%eax
    edad:	89 c6                	mov    %eax,%esi
    edaf:	bf 01 00 00 00       	mov    $0x1,%edi
    edb4:	e8 59 64 ff ff       	callq  5212 <safe_mul_func_int8_t_s_s>
    edb9:	84 c0                	test   %al,%al
    edbb:	74 10                	je     edcd <func_21+0x2da5>
    edbd:	80 bd 94 e8 ff ff 00 	cmpb   $0x0,-0x176c(%rbp)
    edc4:	74 07                	je     edcd <func_21+0x2da5>
    edc6:	83 bd 8c e8 ff ff 00 	cmpl   $0x0,-0x1774(%rbp)
    edcd:	8b 85 90 e8 ff ff    	mov    -0x1770(%rbp),%eax
    edd3:	39 85 8c e8 ff ff    	cmp    %eax,-0x1774(%rbp)
    edd9:	0f 97 c0             	seta   %al
    eddc:	0f b6 d0             	movzbl %al,%edx
    eddf:	8b 85 c8 f1 ff ff    	mov    -0xe38(%rbp),%eax
    ede5:	39 c2                	cmp    %eax,%edx
    ede7:	74 20                	je     ee09 <func_21+0x2de1>
    ede9:	48 8b 85 d0 e9 ff ff 	mov    -0x1630(%rbp),%rax
    edf0:	8b 00                	mov    (%rax),%eax
    edf2:	39 85 90 e8 ff ff    	cmp    %eax,-0x1770(%rbp)
    edf8:	0f 9d c0             	setge  %al
    edfb:	0f b6 c0             	movzbl %al,%eax
    edfe:	89 85 e0 f4 ff ff    	mov    %eax,-0xb20(%rbp)
    ee04:	e9 17 02 00 00       	jmpq   f020 <func_21+0x2ff8>
    ee09:	48 8d 45 c0          	lea    -0x40(%rbp),%rax
    ee0d:	48 83 c0 03          	add    $0x3,%rax
    ee11:	48 89 85 b0 ea ff ff 	mov    %rax,-0x1550(%rbp)
    ee18:	8b 85 c8 e8 ff ff    	mov    -0x1738(%rbp),%eax
    ee1e:	4c 63 f0             	movslq %eax,%r14
    ee21:	0f be 9d 94 e8 ff ff 	movsbl -0x176c(%rbp),%ebx
    ee28:	8b 85 08 f1 ff ff    	mov    -0xef8(%rbp),%eax
    ee2e:	44 0f b6 e0          	movzbl %al,%r12d
    ee32:	8b 85 c8 e8 ff ff    	mov    -0x1738(%rbp),%eax
    ee38:	44 0f bf e8          	movswl %ax,%r13d
    ee3c:	48 8b 95 40 e9 ff ff 	mov    -0x16c0(%rbp),%rdx
    ee43:	0f b6 02             	movzbl (%rdx),%eax
    ee46:	8d 48 01             	lea    0x1(%rax),%ecx
    ee49:	88 0a                	mov    %cl,(%rdx)
    ee4b:	84 c0                	test   %al,%al
    ee4d:	75 32                	jne    ee81 <func_21+0x2e59>
    ee4f:	48 8b 05 0a ed 00 00 	mov    0xed0a(%rip),%rax        # 1db60 <g_1407>
    ee56:	48 8b 00             	mov    (%rax),%rax
    ee59:	48 85 c0             	test   %rax,%rax
    ee5c:	74 07                	je     ee65 <func_21+0x2e3d>
    ee5e:	ba f9 9d 00 00       	mov    $0x9df9,%edx
    ee63:	eb 05                	jmp    ee6a <func_21+0x2e42>
    ee65:	ba f8 9d 00 00       	mov    $0x9df8,%edx
    ee6a:	48 0f be 85 b0 e8 ff 	movsbq -0x1750(%rbp),%rax
    ee71:	ff 
    ee72:	48 39 c2             	cmp    %rax,%rdx
    ee75:	0f 9f c0             	setg   %al
    ee78:	0f b6 c0             	movzbl %al,%eax
    ee7b:	39 85 90 e8 ff ff    	cmp    %eax,-0x1770(%rbp)
    ee81:	be 01 00 00 00       	mov    $0x1,%esi
    ee86:	48 bf 2e 4d 42 d2 f8 	movabs $0x9e29e1f8d2424d2e,%rdi
    ee8d:	e1 29 9e 
    ee90:	e8 b6 71 ff ff       	callq  604b <safe_sub_func_uint64_t_u_u>
    ee95:	89 c2                	mov    %eax,%edx
    ee97:	48 8b 85 98 e9 ff ff 	mov    -0x1668(%rbp),%rax
    ee9e:	31 d0                	xor    %edx,%eax
    eea0:	89 c2                	mov    %eax,%edx
    eea2:	48 8b 85 e0 e9 ff ff 	mov    -0x1620(%rbp),%rax
    eea9:	66 89 10             	mov    %dx,(%rax)
    eeac:	48 8b 85 e0 e9 ff ff 	mov    -0x1620(%rbp),%rax
    eeb3:	0f b7 00             	movzwl (%rax),%eax
    eeb6:	98                   	cwtl   
    eeb7:	44 89 ee             	mov    %r13d,%esi
    eeba:	89 c7                	mov    %eax,%edi
    eebc:	e8 55 65 ff ff       	callq  5416 <safe_mod_func_int16_t_s_s>
    eec1:	98                   	cwtl   
    eec2:	be 02 00 00 00       	mov    $0x2,%esi
    eec7:	89 c7                	mov    %eax,%edi
    eec9:	e8 13 66 ff ff       	callq  54e1 <safe_lshift_func_int16_t_s_u>
    eece:	48 8b 85 68 ea ff ff 	mov    -0x1598(%rbp),%rax
    eed5:	48 3b 85 a8 ea ff ff 	cmp    -0x1558(%rbp),%rax
    eedc:	0f 94 c0             	sete   %al
    eedf:	0f b6 d0             	movzbl %al,%edx
    eee2:	0f be 85 94 e8 ff ff 	movsbl -0x176c(%rbp),%eax
    eee9:	39 c2                	cmp    %eax,%edx
    eeeb:	0f 9e c0             	setle  %al
    eeee:	0f b6 c0             	movzbl %al,%eax
    eef1:	39 85 8c e8 ff ff    	cmp    %eax,-0x1774(%rbp)
    eef7:	75 07                	jne    ef00 <func_21+0x2ed8>
    eef9:	b8 51 f2 61 8c       	mov    $0x8c61f251,%eax
    eefe:	eb 05                	jmp    ef05 <func_21+0x2edd>
    ef00:	b8 50 f2 61 8c       	mov    $0x8c61f250,%eax
    ef05:	48 0f be 95 94 e8 ff 	movsbq -0x176c(%rbp),%rdx
    ef0c:	ff 
    ef0d:	48 39 d0             	cmp    %rdx,%rax
    ef10:	0f 9c c0             	setl   %al
    ef13:	0f b6 d0             	movzbl %al,%edx
    ef16:	48 8b 85 d0 e9 ff ff 	mov    -0x1630(%rbp),%rax
    ef1d:	8b 00                	mov    (%rax),%eax
    ef1f:	39 c2                	cmp    %eax,%edx
    ef21:	0f 94 c0             	sete   %al
    ef24:	0f b6 c0             	movzbl %al,%eax
    ef27:	44 89 e6             	mov    %r12d,%esi
    ef2a:	89 c7                	mov    %eax,%edi
    ef2c:	e8 7d 6c ff ff       	callq  5bae <safe_mod_func_uint8_t_u_u>
    ef31:	0f be c0             	movsbl %al,%eax
    ef34:	8b 95 90 e8 ff ff    	mov    -0x1770(%rbp),%edx
    ef3a:	89 d6                	mov    %edx,%esi
    ef3c:	89 c7                	mov    %eax,%edi
    ef3e:	e8 f2 63 ff ff       	callq  5335 <safe_rshift_func_int8_t_s_s>
    ef43:	0f be c0             	movsbl %al,%eax
    ef46:	89 de                	mov    %ebx,%esi
    ef48:	89 c7                	mov    %eax,%edi
    ef4a:	e8 64 64 ff ff       	callq  53b3 <safe_add_func_int16_t_s_s>
    ef4f:	89 c2                	mov    %eax,%edx
    ef51:	48 8b 85 b0 ea ff ff 	mov    -0x1550(%rbp),%rax
    ef58:	88 10                	mov    %dl,(%rax)
    ef5a:	48 8b 85 b0 ea ff ff 	mov    -0x1550(%rbp),%rax
    ef61:	0f b6 00             	movzbl (%rax),%eax
    ef64:	0f b6 c0             	movzbl %al,%eax
    ef67:	be 00 00 00 00       	mov    $0x0,%esi
    ef6c:	89 c7                	mov    %eax,%edi
    ef6e:	e8 4b 6d ff ff       	callq  5cbe <safe_rshift_func_uint8_t_u_u>
    ef73:	8b 85 90 e8 ff ff    	mov    -0x1770(%rbp),%eax
    ef79:	48 98                	cltq   
    ef7b:	48 ba 0d ca 4b 71 34 	movabs $0x8a754934714bca0d,%rdx
    ef82:	49 75 8a 
    ef85:	48 39 d0             	cmp    %rdx,%rax
    ef88:	0f 94 c0             	sete   %al
    ef8b:	0f b6 d0             	movzbl %al,%edx
    ef8e:	48 8b 85 d0 e9 ff ff 	mov    -0x1630(%rbp),%rax
    ef95:	8b 00                	mov    (%rax),%eax
    ef97:	0f b6 c0             	movzbl %al,%eax
    ef9a:	89 d6                	mov    %edx,%esi
    ef9c:	89 c7                	mov    %eax,%edi
    ef9e:	e8 f0 6b ff ff       	callq  5b93 <safe_mul_func_uint8_t_u_u>
    efa3:	0f be 85 94 e8 ff ff 	movsbl -0x176c(%rbp),%eax
    efaa:	33 85 8c e8 ff ff    	xor    -0x1774(%rbp),%eax
    efb0:	89 c0                	mov    %eax,%eax
    efb2:	48 89 c7             	mov    %rax,%rdi
    efb5:	e8 5c 68 ff ff       	callq  5816 <safe_unary_minus_func_int64_t_s>
    efba:	49 39 c6             	cmp    %rax,%r14
    efbd:	0f 9f c0             	setg   %al
    efc0:	0f b6 c0             	movzbl %al,%eax
    efc3:	89 85 e0 f4 ff ff    	mov    %eax,-0xb20(%rbp)
    efc9:	8b 8d e0 f4 ff ff    	mov    -0xb20(%rbp),%ecx
    efcf:	48 8b 05 7a e1 00 00 	mov    0xe17a(%rip),%rax        # 1d150 <g_431>
    efd6:	8b 10                	mov    (%rax),%edx
    efd8:	21 ca                	and    %ecx,%edx
    efda:	89 10                	mov    %edx,(%rax)
    efdc:	eb 42                	jmp    f020 <func_21+0x2ff8>
    efde:	48 8b 85 98 e8 ff ff 	mov    -0x1768(%rbp),%rax
    efe5:	48 8b 0d 74 cd 00 00 	mov    0xcd74(%rip),%rcx        # 1bd60 <g_1619>
    efec:	48 8b 1d 75 cd 00 00 	mov    0xcd75(%rip),%rbx        # 1bd68 <g_1619+0x8>
    eff3:	48 89 08             	mov    %rcx,(%rax)
    eff6:	48 89 58 08          	mov    %rbx,0x8(%rax)
    effa:	48 8b 0d 6f cd 00 00 	mov    0xcd6f(%rip),%rcx        # 1bd70 <g_1619+0x10>
    f001:	48 8b 1d 70 cd 00 00 	mov    0xcd70(%rip),%rbx        # 1bd78 <g_1619+0x18>
    f008:	48 89 48 10          	mov    %rcx,0x10(%rax)
    f00c:	48 89 58 18          	mov    %rbx,0x18(%rax)
    f010:	48 8b 15 69 cd 00 00 	mov    0xcd69(%rip),%rdx        # 1bd80 <g_1619+0x20>
    f017:	48 89 50 20          	mov    %rdx,0x20(%rax)
    f01b:	e9 ae 17 00 00       	jmpq   107ce <func_21+0x47a6>
    f020:	c7 85 bc e8 ff ff 00 	movl   $0x0,-0x1744(%rbp)
    f027:	00 00 00 
    f02a:	e9 7e 05 00 00       	jmpq   f5ad <func_21+0x3585>
    f02f:	48 8d 05 ba c7 00 00 	lea    0xc7ba(%rip),%rax        # 1b7f0 <g_137>
    f036:	48 89 85 20 eb ff ff 	mov    %rax,-0x14e0(%rbp)
    f03d:	48 8d 85 70 e9 ff ff 	lea    -0x1690(%rbp),%rax
    f044:	48 89 85 28 eb ff ff 	mov    %rax,-0x14d8(%rbp)
    f04b:	48 8d 05 2c cd 00 00 	lea    0xcd2c(%rip),%rax        # 1bd7e <g_1619+0x1e>
    f052:	48 89 85 30 eb ff ff 	mov    %rax,-0x14d0(%rbp)
    f059:	48 c7 85 38 eb ff ff 	movq   $0x0,-0x14c8(%rbp)
    f060:	00 00 00 00 
    f064:	8b 85 bc e8 ff ff    	mov    -0x1744(%rbp),%eax
    f06a:	8d 50 05             	lea    0x5(%rax),%edx
    f06d:	8b 85 bc e8 ff ff    	mov    -0x1744(%rbp),%eax
    f073:	8d 48 02             	lea    0x2(%rax),%ecx
    f076:	8b 85 bc e8 ff ff    	mov    -0x1744(%rbp),%eax
    f07c:	44 8d 48 05          	lea    0x5(%rax),%r9d
    f080:	8b 85 bc e8 ff ff    	mov    -0x1744(%rbp),%eax
    f086:	44 8d 40 02          	lea    0x2(%rax),%r8d
    f08a:	8b 85 bc e8 ff ff    	mov    -0x1744(%rbp),%eax
    f090:	48 63 f0             	movslq %eax,%rsi
    f093:	48 63 d2             	movslq %edx,%rdx
    f096:	48 63 c9             	movslq %ecx,%rcx
    f099:	48 89 d0             	mov    %rdx,%rax
    f09c:	48 c1 e0 02          	shl    $0x2,%rax
    f0a0:	48 01 d0             	add    %rdx,%rax
    f0a3:	48 c1 e0 02          	shl    $0x2,%rax
    f0a7:	48 01 d0             	add    %rdx,%rax
    f0aa:	48 89 ca             	mov    %rcx,%rdx
    f0ad:	48 01 d2             	add    %rdx,%rdx
    f0b0:	48 01 ca             	add    %rcx,%rdx
    f0b3:	48 01 d0             	add    %rdx,%rax
    f0b6:	48 01 f0             	add    %rsi,%rax
    f0b9:	48 8d 14 85 00 00 00 	lea    0x0(,%rax,4),%rdx
    f0c0:	00 
    f0c1:	48 8d 05 78 bf 00 00 	lea    0xbf78(%rip),%rax        # 1b040 <g_42>
    f0c8:	8b 34 02             	mov    (%rdx,%rax,1),%esi
    f0cb:	8b 85 bc e8 ff ff    	mov    -0x1744(%rbp),%eax
    f0d1:	48 63 f8             	movslq %eax,%rdi
    f0d4:	49 63 d1             	movslq %r9d,%rdx
    f0d7:	49 63 c8             	movslq %r8d,%rcx
    f0da:	48 89 d0             	mov    %rdx,%rax
    f0dd:	48 c1 e0 02          	shl    $0x2,%rax
    f0e1:	48 01 d0             	add    %rdx,%rax
    f0e4:	48 c1 e0 02          	shl    $0x2,%rax
    f0e8:	48 01 d0             	add    %rdx,%rax
    f0eb:	48 89 ca             	mov    %rcx,%rdx
    f0ee:	48 01 d2             	add    %rdx,%rdx
    f0f1:	48 01 ca             	add    %rcx,%rdx
    f0f4:	48 01 d0             	add    %rdx,%rax
    f0f7:	48 01 f8             	add    %rdi,%rax
    f0fa:	48 8d 14 85 00 00 00 	lea    0x0(,%rax,4),%rdx
    f101:	00 
    f102:	48 8d 05 37 bf 00 00 	lea    0xbf37(%rip),%rax        # 1b040 <g_42>
    f109:	89 34 02             	mov    %esi,(%rdx,%rax,1)
    f10c:	48 83 bd 90 ea ff ff 	cmpq   $0x0,-0x1570(%rbp)
    f113:	00 
    f114:	0f 94 c2             	sete   %dl
    f117:	8b 85 bc e8 ff ff    	mov    -0x1744(%rbp),%eax
    f11d:	83 c0 04             	add    $0x4,%eax
    f120:	48 98                	cltq   
    f122:	8b 84 85 80 ec ff ff 	mov    -0x1380(%rbp,%rax,4),%eax
    f129:	83 e0 01             	and    $0x1,%eax
    f12c:	31 d0                	xor    %edx,%eax
    f12e:	44 0f b6 e0          	movzbl %al,%r12d
    f132:	48 8b 05 07 c8 00 00 	mov    0xc807(%rip),%rax        # 1b940 <g_1051>
    f139:	48 c1 e8 28          	shr    $0x28,%rax
    f13d:	25 ff ff 03 00       	and    $0x3ffff,%eax
    f142:	41 89 c6             	mov    %eax,%r14d
    f145:	8b 85 bc e8 ff ff    	mov    -0x1744(%rbp),%eax
    f14b:	8d 50 05             	lea    0x5(%rax),%edx
    f14e:	8b 85 bc e8 ff ff    	mov    -0x1744(%rbp),%eax
    f154:	8d 48 02             	lea    0x2(%rax),%ecx
    f157:	8b 85 bc e8 ff ff    	mov    -0x1744(%rbp),%eax
    f15d:	48 63 f0             	movslq %eax,%rsi
    f160:	48 63 d2             	movslq %edx,%rdx
    f163:	48 63 c9             	movslq %ecx,%rcx
    f166:	48 89 d0             	mov    %rdx,%rax
    f169:	48 c1 e0 02          	shl    $0x2,%rax
    f16d:	48 01 d0             	add    %rdx,%rax
    f170:	48 c1 e0 02          	shl    $0x2,%rax
    f174:	48 01 d0             	add    %rdx,%rax
    f177:	48 89 ca             	mov    %rcx,%rdx
    f17a:	48 01 d2             	add    %rdx,%rdx
    f17d:	48 01 ca             	add    %rcx,%rdx
    f180:	48 01 d0             	add    %rdx,%rax
    f183:	48 01 f0             	add    %rsi,%rax
    f186:	48 8d 14 85 00 00 00 	lea    0x0(,%rax,4),%rdx
    f18d:	00 
    f18e:	48 8d 05 ab be 00 00 	lea    0xbeab(%rip),%rax        # 1b040 <g_42>
    f195:	8b 1c 02             	mov    (%rdx,%rax,1),%ebx
    f198:	48 8b 05 c1 e9 00 00 	mov    0xe9c1(%rip),%rax        # 1db60 <g_1407>
    f19f:	48 8b 00             	mov    (%rax),%rax
    f1a2:	48 8b 00             	mov    (%rax),%rax
    f1a5:	49 89 c5             	mov    %rax,%r13
    f1a8:	8b 85 bc e8 ff ff    	mov    -0x1744(%rbp),%eax
    f1ae:	83 c0 04             	add    $0x4,%eax
    f1b1:	48 98                	cltq   
    f1b3:	8b 84 85 80 ec ff ff 	mov    -0x1380(%rbp,%rax,4),%eax
    f1ba:	0f b7 c0             	movzwl %ax,%eax
    f1bd:	89 c6                	mov    %eax,%esi
    f1bf:	bf 01 00 00 00       	mov    $0x1,%edi
    f1c4:	e8 c5 6b ff ff       	callq  5d8e <safe_div_func_uint16_t_u_u>
    f1c9:	0f b7 d0             	movzwl %ax,%edx
    f1cc:	8b 85 10 f1 ff ff    	mov    -0xef0(%rbp),%eax
    f1d2:	09 d0                	or     %edx,%eax
    f1d4:	89 c0                	mov    %eax,%eax
    f1d6:	48 89 c6             	mov    %rax,%rsi
    f1d9:	48 bf b4 c0 4d 5f 01 	movabs $0x9ec691015f4dc0b4,%rdi
    f1e0:	91 c6 9e 
    f1e3:	e8 c0 66 ff ff       	callq  58a8 <safe_sub_func_int64_t_s_s>
    f1e8:	48 8b 85 88 eb ff ff 	mov    -0x1478(%rbp),%rax
    f1ef:	48 85 c0             	test   %rax,%rax
    f1f2:	0f 95 c0             	setne  %al
    f1f5:	0f b6 c0             	movzbl %al,%eax
    f1f8:	4c 89 ee             	mov    %r13,%rsi
    f1fb:	48 89 c7             	mov    %rax,%rdi
    f1fe:	e8 ac 6e ff ff       	callq  60af <safe_div_func_uint64_t_u_u>
    f203:	0f be 95 94 e8 ff ff 	movsbl -0x176c(%rbp),%edx
    f20a:	48 8b 85 d0 e9 ff ff 	mov    -0x1630(%rbp),%rax
    f211:	8b 00                	mov    (%rax),%eax
    f213:	0f be c0             	movsbl %al,%eax
    f216:	89 d6                	mov    %edx,%esi
    f218:	89 c7                	mov    %eax,%edi
    f21a:	e8 12 60 ff ff       	callq  5231 <safe_mod_func_int8_t_s_s>
    f21f:	0f be f0             	movsbl %al,%esi
    f222:	8b 85 bc e8 ff ff    	mov    -0x1744(%rbp),%eax
    f228:	8d 50 05             	lea    0x5(%rax),%edx
    f22b:	8b 85 bc e8 ff ff    	mov    -0x1744(%rbp),%eax
    f231:	8d 48 02             	lea    0x2(%rax),%ecx
    f234:	8b 85 bc e8 ff ff    	mov    -0x1744(%rbp),%eax
    f23a:	48 63 f8             	movslq %eax,%rdi
    f23d:	48 63 d2             	movslq %edx,%rdx
    f240:	48 63 c9             	movslq %ecx,%rcx
    f243:	48 89 d0             	mov    %rdx,%rax
    f246:	48 c1 e0 02          	shl    $0x2,%rax
    f24a:	48 01 d0             	add    %rdx,%rax
    f24d:	48 c1 e0 02          	shl    $0x2,%rax
    f251:	48 01 d0             	add    %rdx,%rax
    f254:	48 89 ca             	mov    %rcx,%rdx
    f257:	48 01 d2             	add    %rdx,%rdx
    f25a:	48 01 ca             	add    %rcx,%rdx
    f25d:	48 01 d0             	add    %rdx,%rax
    f260:	48 01 f8             	add    %rdi,%rax
    f263:	48 8d 14 85 00 00 00 	lea    0x0(,%rax,4),%rdx
    f26a:	00 
    f26b:	48 8d 05 ce bd 00 00 	lea    0xbdce(%rip),%rax        # 1b040 <g_42>
    f272:	8b 04 02             	mov    (%rdx,%rax,1),%eax
    f275:	39 c6                	cmp    %eax,%esi
    f277:	0f 94 c0             	sete   %al
    f27a:	0f b6 c0             	movzbl %al,%eax
    f27d:	89 de                	mov    %ebx,%esi
    f27f:	89 c7                	mov    %eax,%edi
    f281:	e8 7f 69 ff ff       	callq  5c05 <safe_lshift_func_uint8_t_u_s>
    f286:	3c c4                	cmp    $0xc4,%al
    f288:	0f 96 c0             	setbe  %al
    f28b:	0f b6 c0             	movzbl %al,%eax
    f28e:	44 31 f0             	xor    %r14d,%eax
    f291:	44 21 e0             	and    %r12d,%eax
    f294:	83 f8 ff             	cmp    $0xffffffff,%eax
    f297:	0f 94 c2             	sete   %dl
    f29a:	8b 85 bc e8 ff ff    	mov    -0x1744(%rbp),%eax
    f2a0:	83 c0 04             	add    $0x4,%eax
    f2a3:	0f b6 ca             	movzbl %dl,%ecx
    f2a6:	48 63 d0             	movslq %eax,%rdx
    f2a9:	89 8c 95 80 ec ff ff 	mov    %ecx,-0x1380(%rbp,%rdx,4)
    f2b0:	48 8b 15 79 de 00 00 	mov    0xde79(%rip),%rdx        # 1d130 <g_274>
    f2b7:	48 8b 12             	mov    (%rdx),%rdx
    f2ba:	48 98                	cltq   
    f2bc:	8b 84 85 80 ec ff ff 	mov    -0x1380(%rbp,%rax,4),%eax
    f2c3:	89 02                	mov    %eax,(%rdx)
    f2c5:	c7 85 90 e8 ff ff 00 	movl   $0x0,-0x1770(%rbp)
    f2cc:	00 00 00 
    f2cf:	eb 77                	jmp    f348 <func_21+0x3320>
    f2d1:	48 8b 05 10 e2 00 00 	mov    0xe210(%rip),%rax        # 1d4e8 <g_804>
    f2d8:	8b 85 8c e8 ff ff    	mov    -0x1774(%rbp),%eax
    f2de:	0f b6 f0             	movzbl %al,%esi
    f2e1:	8b 85 90 e8 ff ff    	mov    -0x1770(%rbp),%eax
    f2e7:	48 63 f8             	movslq %eax,%rdi
    f2ea:	8b 85 90 e8 ff ff    	mov    -0x1770(%rbp),%eax
    f2f0:	48 98                	cltq   
    f2f2:	8b 95 bc e8 ff ff    	mov    -0x1744(%rbp),%edx
    f2f8:	48 63 ca             	movslq %edx,%rcx
    f2fb:	48 89 c2             	mov    %rax,%rdx
    f2fe:	48 c1 e2 04          	shl    $0x4,%rdx
    f302:	48 29 c2             	sub    %rax,%rdx
    f305:	48 89 c8             	mov    %rcx,%rax
    f308:	48 c1 e0 02          	shl    $0x2,%rax
    f30c:	48 01 c8             	add    %rcx,%rax
    f30f:	48 01 d0             	add    %rdx,%rax
    f312:	48 01 f8             	add    %rdi,%rax
    f315:	0f b7 84 45 00 ec ff 	movzwl -0x1400(%rbp,%rax,2),%eax
    f31c:	ff 
    f31d:	0f b6 c0             	movzbl %al,%eax
    f320:	48 8b 9d 40 e9 ff ff 	mov    -0x16c0(%rbp),%rbx
    f327:	89 c7                	mov    %eax,%edi
    f329:	e8 65 68 ff ff       	callq  5b93 <safe_mul_func_uint8_t_u_u>
    f32e:	88 03                	mov    %al,(%rbx)
    f330:	48 8b 05 f9 dd 00 00 	mov    0xddf9(%rip),%rax        # 1d130 <g_274>
    f337:	48 8b 15 2a e8 00 00 	mov    0xe82a(%rip),%rdx        # 1db68 <g_1636>
    f33e:	48 89 10             	mov    %rdx,(%rax)
    f341:	83 ad 90 e8 ff ff 01 	subl   $0x1,-0x1770(%rbp)
    f348:	83 bd 90 e8 ff ff 00 	cmpl   $0x0,-0x1770(%rbp)
    f34f:	79 80                	jns    f2d1 <func_21+0x32a9>
    f351:	8b 85 8c e8 ff ff    	mov    -0x1774(%rbp),%eax
    f357:	0f bf d8             	movswl %ax,%ebx
    f35a:	8b 85 bc e8 ff ff    	mov    -0x1744(%rbp),%eax
    f360:	8d 50 05             	lea    0x5(%rax),%edx
    f363:	8b 85 bc e8 ff ff    	mov    -0x1744(%rbp),%eax
    f369:	8d 48 02             	lea    0x2(%rax),%ecx
    f36c:	8b 85 bc e8 ff ff    	mov    -0x1744(%rbp),%eax
    f372:	48 63 f0             	movslq %eax,%rsi
    f375:	48 63 d2             	movslq %edx,%rdx
    f378:	48 63 c9             	movslq %ecx,%rcx
    f37b:	48 89 d0             	mov    %rdx,%rax
    f37e:	48 c1 e0 02          	shl    $0x2,%rax
    f382:	48 01 d0             	add    %rdx,%rax
    f385:	48 c1 e0 02          	shl    $0x2,%rax
    f389:	48 01 d0             	add    %rdx,%rax
    f38c:	48 89 ca             	mov    %rcx,%rdx
    f38f:	48 01 d2             	add    %rdx,%rdx
    f392:	48 01 ca             	add    %rcx,%rdx
    f395:	48 01 d0             	add    %rdx,%rax
    f398:	48 01 f0             	add    %rsi,%rax
    f39b:	48 8d 14 85 00 00 00 	lea    0x0(,%rax,4),%rdx
    f3a2:	00 
    f3a3:	48 8d 05 96 bc 00 00 	lea    0xbc96(%rip),%rax        # 1b040 <g_42>
    f3aa:	8b 04 02             	mov    (%rdx,%rax,1),%eax
    f3ad:	4c 63 e0             	movslq %eax,%r12
    f3b0:	48 8b 85 20 eb ff ff 	mov    -0x14e0(%rbp),%rax
    f3b7:	8b 00                	mov    (%rax),%eax
    f3b9:	8d 50 ff             	lea    -0x1(%rax),%edx
    f3bc:	48 8b 85 20 eb ff ff 	mov    -0x14e0(%rbp),%rax
    f3c3:	89 10                	mov    %edx,(%rax)
    f3c5:	48 8b 85 20 eb ff ff 	mov    -0x14e0(%rbp),%rax
    f3cc:	44 8b 30             	mov    (%rax),%r14d
    f3cf:	44 8b ad c8 e8 ff ff 	mov    -0x1738(%rbp),%r13d
    f3d6:	44 8b bd 8c e8 ff ff 	mov    -0x1774(%rbp),%r15d
    f3dd:	8b 85 bc e8 ff ff    	mov    -0x1744(%rbp),%eax
    f3e3:	8d 50 05             	lea    0x5(%rax),%edx
    f3e6:	8b 85 bc e8 ff ff    	mov    -0x1744(%rbp),%eax
    f3ec:	8d 48 02             	lea    0x2(%rax),%ecx
    f3ef:	8b 85 bc e8 ff ff    	mov    -0x1744(%rbp),%eax
    f3f5:	48 63 f0             	movslq %eax,%rsi
    f3f8:	48 63 d2             	movslq %edx,%rdx
    f3fb:	48 63 c9             	movslq %ecx,%rcx
    f3fe:	48 89 d0             	mov    %rdx,%rax
    f401:	48 c1 e0 02          	shl    $0x2,%rax
    f405:	48 01 d0             	add    %rdx,%rax
    f408:	48 c1 e0 02          	shl    $0x2,%rax
    f40c:	48 01 d0             	add    %rdx,%rax
    f40f:	48 89 ca             	mov    %rcx,%rdx
    f412:	48 01 d2             	add    %rdx,%rdx
    f415:	48 01 ca             	add    %rcx,%rdx
    f418:	48 01 d0             	add    %rdx,%rax
    f41b:	48 01 f0             	add    %rsi,%rax
    f41e:	48 8d 14 85 00 00 00 	lea    0x0(,%rax,4),%rdx
    f425:	00 
    f426:	48 8d 05 13 bc 00 00 	lea    0xbc13(%rip),%rax        # 1b040 <g_42>
    f42d:	8b 04 02             	mov    (%rdx,%rax,1),%eax
    f430:	48 98                	cltq   
    f432:	48 89 85 80 e8 ff ff 	mov    %rax,-0x1780(%rbp)
    f439:	48 0f be 85 94 e8 ff 	movsbq -0x176c(%rbp),%rax
    f440:	ff 
    f441:	be 04 00 00 00       	mov    $0x4,%esi
    f446:	48 89 c7             	mov    %rax,%rdi
    f449:	e8 32 6c ff ff       	callq  6080 <safe_mod_func_uint64_t_u_u>
    f44e:	48 0b 85 80 e8 ff ff 	or     -0x1780(%rbp),%rax
    f455:	49 39 c7             	cmp    %rax,%r15
    f458:	0f 92 c0             	setb   %al
    f45b:	0f b6 d0             	movzbl %al,%edx
    f45e:	48 8b 85 e0 e9 ff ff 	mov    -0x1620(%rbp),%rax
    f465:	0f b7 00             	movzwl (%rax),%eax
    f468:	09 c2                	or     %eax,%edx
    f46a:	48 8b 85 e0 e9 ff ff 	mov    -0x1620(%rbp),%rax
    f471:	66 89 10             	mov    %dx,(%rax)
    f474:	48 8b 85 e0 e9 ff ff 	mov    -0x1620(%rbp),%rax
    f47b:	0f b7 00             	movzwl (%rax),%eax
    f47e:	0f bf d0             	movswl %ax,%edx
    f481:	48 8b 85 d0 e9 ff ff 	mov    -0x1630(%rbp),%rax
    f488:	8b 00                	mov    (%rax),%eax
    f48a:	39 c2                	cmp    %eax,%edx
    f48c:	0f 9d c0             	setge  %al
    f48f:	0f b6 d0             	movzbl %al,%edx
    f492:	48 8b 85 d0 e9 ff ff 	mov    -0x1630(%rbp),%rax
    f499:	8b 00                	mov    (%rax),%eax
    f49b:	39 c2                	cmp    %eax,%edx
    f49d:	0f 9e c0             	setle  %al
    f4a0:	0f b6 c0             	movzbl %al,%eax
    f4a3:	44 89 ee             	mov    %r13d,%esi
    f4a6:	89 c7                	mov    %eax,%edi
    f4a8:	e8 23 6a ff ff       	callq  5ed0 <safe_sub_func_uint32_t_u_u>
    f4ad:	48 8b 05 ac 7b 00 00 	mov    0x7bac(%rip),%rax        # 17060 <g_709>
    f4b4:	48 c1 e8 3a          	shr    $0x3a,%rax
    f4b8:	48 89 c2             	mov    %rax,%rdx
    f4bb:	48 8b 05 a6 7b 00 00 	mov    0x7ba6(%rip),%rax        # 17068 <g_709+0x8>
    f4c2:	83 e0 3f             	and    $0x3f,%eax
    f4c5:	48 c1 e0 06          	shl    $0x6,%rax
    f4c9:	48 09 d0             	or     %rdx,%rax
    f4cc:	66 83 f8 01          	cmp    $0x1,%ax
    f4d0:	0f 94 c0             	sete   %al
    f4d3:	0f b6 c0             	movzbl %al,%eax
    f4d6:	be f9 ff 00 00       	mov    $0xfff9,%esi
    f4db:	89 c7                	mov    %eax,%edi
    f4dd:	e8 5b 68 ff ff       	callq  5d3d <safe_mul_func_uint16_t_u_u>
    f4e2:	be fd ff ff ff       	mov    $0xfffffffd,%esi
    f4e7:	bf 00 00 00 00       	mov    $0x0,%edi
    f4ec:	e8 44 5e ff ff       	callq  5335 <safe_rshift_func_int8_t_s_s>
    f4f1:	66 98                	cbtw   
    f4f3:	0f b7 d0             	movzwl %ax,%edx
    f4f6:	48 8b 8d 70 e9 ff ff 	mov    -0x1690(%rbp),%rcx
    f4fd:	48 8b 85 28 eb ff ff 	mov    -0x14d8(%rbp),%rax
    f504:	48 89 08             	mov    %rcx,(%rax)
    f507:	48 8b 85 28 eb ff ff 	mov    -0x14d8(%rbp),%rax
    f50e:	48 8b 00             	mov    (%rax),%rax
    f511:	48 8d 0d 18 df 00 00 	lea    0xdf18(%rip),%rcx        # 1d430 <g_557+0x250>
    f518:	48 39 c8             	cmp    %rcx,%rax
    f51b:	0f 94 c0             	sete   %al
    f51e:	0f b6 c8             	movzbl %al,%ecx
    f521:	48 8b 85 f0 e9 ff ff 	mov    -0x1610(%rbp),%rax
    f528:	66 89 08             	mov    %cx,(%rax)
    f52b:	48 8b 85 f0 e9 ff ff 	mov    -0x1610(%rbp),%rax
    f532:	0f b7 00             	movzwl (%rax),%eax
    f535:	0f b7 c0             	movzwl %ax,%eax
    f538:	89 d6                	mov    %edx,%esi
    f53a:	89 c7                	mov    %eax,%edi
    f53c:	e8 fc 67 ff ff       	callq  5d3d <safe_mul_func_uint16_t_u_u>
    f541:	0f b7 c0             	movzwl %ax,%eax
    f544:	41 39 c6             	cmp    %eax,%r14d
    f547:	8b 95 c8 f1 ff ff    	mov    -0xe38(%rbp),%edx
    f54d:	48 8b 85 30 eb ff ff 	mov    -0x14d0(%rbp),%rax
    f554:	48 8b 00             	mov    (%rax),%rax
    f557:	89 d2                	mov    %edx,%edx
    f559:	48 31 c2             	xor    %rax,%rdx
    f55c:	48 8b 85 30 eb ff ff 	mov    -0x14d0(%rbp),%rax
    f563:	48 89 10             	mov    %rdx,(%rax)
    f566:	48 8b 85 30 eb ff ff 	mov    -0x14d0(%rbp),%rax
    f56d:	48 8b 00             	mov    (%rax),%rax
    f570:	4c 89 e6             	mov    %r12,%rsi
    f573:	48 89 c7             	mov    %rax,%rdi
    f576:	e8 d0 6a ff ff       	callq  604b <safe_sub_func_uint64_t_u_u>
    f57b:	8b 85 c8 e8 ff ff    	mov    -0x1738(%rbp),%eax
    f581:	48 98                	cltq   
    f583:	8b 95 8c e8 ff ff    	mov    -0x1774(%rbp),%edx
    f589:	4c 8d 05 18 c3 00 00 	lea    0xc318(%rip),%r8        # 1b8a8 <g_597>
    f590:	89 d9                	mov    %ebx,%ecx
    f592:	be 58 40 e5 f1       	mov    $0xf1e54058,%esi
    f597:	48 89 c7             	mov    %rax,%rdi
    f59a:	e8 54 3d 00 00       	callq  132f3 <func_68>
    f59f:	48 89 85 38 eb ff ff 	mov    %rax,-0x14c8(%rbp)
    f5a6:	83 85 bc e8 ff ff 01 	addl   $0x1,-0x1744(%rbp)
    f5ad:	83 bd bc e8 ff ff 02 	cmpl   $0x2,-0x1744(%rbp)
    f5b4:	0f 8e 75 fa ff ff    	jle    f02f <func_21+0x3007>
    f5ba:	8b 95 c8 f1 ff ff    	mov    -0xe38(%rbp),%edx
    f5c0:	48 8b 05 71 db 00 00 	mov    0xdb71(%rip),%rax        # 1d138 <g_273>
    f5c7:	48 8b 00             	mov    (%rax),%rax
    f5ca:	48 8b 00             	mov    (%rax),%rax
    f5cd:	8b 00                	mov    (%rax),%eax
    f5cf:	09 c2                	or     %eax,%edx
    f5d1:	89 95 80 e8 ff ff    	mov    %edx,-0x1780(%rbp)
    f5d7:	8b 9d 8c e8 ff ff    	mov    -0x1774(%rbp),%ebx
    f5dd:	48 8b 85 70 eb ff ff 	mov    -0x1490(%rbp),%rax
    f5e4:	48 8d 95 80 eb ff ff 	lea    -0x1480(%rbp),%rdx
    f5eb:	48 83 c2 08          	add    $0x8,%rdx
    f5ef:	48 39 d0             	cmp    %rdx,%rax
    f5f2:	0f 94 c0             	sete   %al
    f5f5:	0f b6 d0             	movzbl %al,%edx
    f5f8:	8b 85 90 e8 ff ff    	mov    -0x1770(%rbp),%eax
    f5fe:	3b 85 c8 e8 ff ff    	cmp    -0x1738(%rbp),%eax
    f604:	0f 9e c0             	setle  %al
    f607:	0f b6 c0             	movzbl %al,%eax
    f60a:	39 c2                	cmp    %eax,%edx
    f60c:	0f 9f c0             	setg   %al
    f60f:	0f b6 c0             	movzbl %al,%eax
    f612:	39 85 8c e8 ff ff    	cmp    %eax,-0x1774(%rbp)
    f618:	0f 94 c0             	sete   %al
    f61b:	44 0f b6 f0          	movzbl %al,%r14d
    f61f:	8b 05 0f bd 00 00    	mov    0xbd0f(%rip),%eax        # 1b334 <g_44>
    f625:	4c 63 f8             	movslq %eax,%r15
    f628:	44 8b a5 90 e8 ff ff 	mov    -0x1770(%rbp),%r12d
    f62f:	8b 85 8c e8 ff ff    	mov    -0x1774(%rbp),%eax
    f635:	44 0f b7 e8          	movzwl %ax,%r13d
    f639:	8b 85 cc f1 ff ff    	mov    -0xe34(%rbp),%eax
    f63f:	0f be c0             	movsbl %al,%eax
    f642:	89 c6                	mov    %eax,%esi
    f644:	bf 01 00 00 00       	mov    $0x1,%edi
    f649:	e8 e3 5b ff ff       	callq  5231 <safe_mod_func_int8_t_s_s>
    f64e:	0f be c0             	movsbl %al,%eax
    f651:	be 0c 00 00 00       	mov    $0xc,%esi
    f656:	89 c7                	mov    %eax,%edi
    f658:	e8 84 5e ff ff       	callq  54e1 <safe_lshift_func_int16_t_s_u>
    f65d:	66 85 c0             	test   %ax,%ax
    f660:	74 07                	je     f669 <func_21+0x3641>
    f662:	b8 01 00 00 00       	mov    $0x1,%eax
    f667:	eb 05                	jmp    f66e <func_21+0x3646>
    f669:	b8 00 00 00 00       	mov    $0x0,%eax
    f66e:	0f b7 c0             	movzwl %ax,%eax
    f671:	44 89 ee             	mov    %r13d,%esi
    f674:	89 c7                	mov    %eax,%edi
    f676:	e8 e1 66 ff ff       	callq  5d5c <safe_mod_func_uint16_t_u_u>
    f67b:	0f b7 c0             	movzwl %ax,%eax
    f67e:	09 85 cc e8 ff ff    	or     %eax,-0x1734(%rbp)
    f684:	8b 95 cc e8 ff ff    	mov    -0x1734(%rbp),%edx
    f68a:	8b 85 68 eb ff ff    	mov    -0x1498(%rbp),%eax
    f690:	09 d0                	or     %edx,%eax
    f692:	89 85 68 eb ff ff    	mov    %eax,-0x1498(%rbp)
    f698:	8b 85 68 eb ff ff    	mov    -0x1498(%rbp),%eax
    f69e:	85 c0                	test   %eax,%eax
    f6a0:	75 0e                	jne    f6b0 <func_21+0x3688>
    f6a2:	48 8b 05 4f de 00 00 	mov    0xde4f(%rip),%rax        # 1d4f8 <g_837>
    f6a9:	48 8b 00             	mov    (%rax),%rax
    f6ac:	8b 00                	mov    (%rax),%eax
    f6ae:	85 c0                	test   %eax,%eax
    f6b0:	be 03 00 00 00       	mov    $0x3,%esi
    f6b5:	bf 00 00 00 00       	mov    $0x0,%edi
    f6ba:	e8 ad 5c ff ff       	callq  536c <safe_rshift_func_int8_t_s_u>
    f6bf:	32 85 94 e8 ff ff    	xor    -0x176c(%rbp),%al
    f6c5:	0f be c0             	movsbl %al,%eax
    f6c8:	44 89 e6             	mov    %r12d,%esi
    f6cb:	89 c7                	mov    %eax,%edi
    f6cd:	e8 53 68 ff ff       	callq  5f25 <safe_div_func_uint32_t_u_u>
    f6d2:	85 c0                	test   %eax,%eax
    f6d4:	74 07                	je     f6dd <func_21+0x36b5>
    f6d6:	b8 01 00 00 00       	mov    $0x1,%eax
    f6db:	eb 05                	jmp    f6e2 <func_21+0x36ba>
    f6dd:	b8 00 00 00 00       	mov    $0x0,%eax
    f6e2:	48 98                	cltq   
    f6e4:	48 89 c7             	mov    %rax,%rdi
    f6e7:	e8 2a 61 ff ff       	callq  5816 <safe_unary_minus_func_int64_t_s>
    f6ec:	49 39 c7             	cmp    %rax,%r15
    f6ef:	0f 9f c0             	setg   %al
    f6f2:	0f b6 c0             	movzbl %al,%eax
    f6f5:	48 f7 d0             	not    %rax
    f6f8:	49 39 c6             	cmp    %rax,%r14
    f6fb:	0f 9d c0             	setge  %al
    f6fe:	0f b6 c0             	movzbl %al,%eax
    f701:	89 de                	mov    %ebx,%esi
    f703:	89 c7                	mov    %eax,%edi
    f705:	e8 f5 5f ff ff       	callq  56ff <safe_div_func_int32_t_s_s>
    f70a:	85 c0                	test   %eax,%eax
    f70c:	75 07                	jne    f715 <func_21+0x36ed>
    f70e:	80 bd 94 e8 ff ff 00 	cmpb   $0x0,-0x176c(%rbp)
    f715:	48 8d 05 14 e9 00 00 	lea    0xe914(%rip),%rax        # 1e030 <g_336>
    f71c:	48 39 85 70 ea ff ff 	cmp    %rax,-0x1590(%rbp)
    f723:	0f b7 05 d0 c0 00 00 	movzwl 0xc0d0(%rip),%eax        # 1b7fa <g_149>
    f72a:	98                   	cwtl   
    f72b:	8b 95 8c e8 ff ff    	mov    -0x1774(%rbp),%edx
    f731:	89 d6                	mov    %edx,%esi
    f733:	89 c7                	mov    %eax,%edi
    f735:	e8 a7 5d ff ff       	callq  54e1 <safe_lshift_func_int16_t_s_u>
    f73a:	98                   	cwtl   
    f73b:	0b 85 80 e8 ff ff    	or     -0x1780(%rbp),%eax
    f741:	85 c0                	test   %eax,%eax
    f743:	0f 84 aa 06 00 00    	je     fdf3 <func_21+0x3dcb>
    f749:	48 8d 05 0c c1 00 00 	lea    0xc10c(%rip),%rax        # 1b85c <g_303+0xc>
    f750:	48 89 85 c8 ea ff ff 	mov    %rax,-0x1538(%rbp)
    f757:	48 8d 85 68 eb ff ff 	lea    -0x1498(%rbp),%rax
    f75e:	48 89 85 d0 ea ff ff 	mov    %rax,-0x1530(%rbp)
    f765:	c6 85 b2 e8 ff ff ff 	movb   $0xff,-0x174e(%rbp)
    f76c:	48 c7 85 d8 ea ff ff 	movq   $0x0,-0x1528(%rbp)
    f773:	00 00 00 00 
    f777:	48 8d 05 7a dd 00 00 	lea    0xdd7a(%rip),%rax        # 1d4f8 <g_837>
    f77e:	48 89 85 e0 ea ff ff 	mov    %rax,-0x1520(%rbp)
    f785:	c7 85 dc e8 ff ff 00 	movl   $0x0,-0x1724(%rbp)
    f78c:	00 00 00 
    f78f:	eb 1b                	jmp    f7ac <func_21+0x3784>
    f791:	8b 85 dc e8 ff ff    	mov    -0x1724(%rbp),%eax
    f797:	48 98                	cltq   
    f799:	48 c7 84 c5 e0 eb ff 	movq   $0x0,-0x1420(%rbp,%rax,8)
    f7a0:	ff 00 00 00 00 
    f7a5:	83 85 dc e8 ff ff 01 	addl   $0x1,-0x1724(%rbp)
    f7ac:	83 bd dc e8 ff ff 02 	cmpl   $0x2,-0x1724(%rbp)
    f7b3:	7e dc                	jle    f791 <func_21+0x3769>
    f7b5:	c7 85 dc e8 ff ff 00 	movl   $0x0,-0x1724(%rbp)
    f7bc:	00 00 00 
    f7bf:	eb 14                	jmp    f7d5 <func_21+0x37ad>
    f7c1:	8b 85 dc e8 ff ff    	mov    -0x1724(%rbp),%eax
    f7c7:	48 98                	cltq   
    f7c9:	c6 44 05 be 84       	movb   $0x84,-0x42(%rbp,%rax,1)
    f7ce:	83 85 dc e8 ff ff 01 	addl   $0x1,-0x1724(%rbp)
    f7d5:	83 bd dc e8 ff ff 01 	cmpl   $0x1,-0x1724(%rbp)
    f7dc:	7e e3                	jle    f7c1 <func_21+0x3799>
    f7de:	8b 85 90 e8 ff ff    	mov    -0x1770(%rbp),%eax
    f7e4:	0f bf d8             	movswl %ax,%ebx
    f7e7:	0f b6 85 94 e8 ff ff 	movzbl -0x176c(%rbp),%eax
    f7ee:	44 0f b6 e0          	movzbl %al,%r12d
    f7f2:	48 8b 85 c8 ea ff ff 	mov    -0x1538(%rbp),%rax
    f7f9:	c7 00 5e e5 d0 64    	movl   $0x64d0e55e,(%rax)
    f7ff:	be 5e e5 d0 64       	mov    $0x64d0e55e,%esi
    f804:	bf 96 16 af d2       	mov    $0xd2af1696,%edi
    f809:	e8 f1 5e ff ff       	callq  56ff <safe_div_func_int32_t_s_s>
    f80e:	80 bd 94 e8 ff ff 00 	cmpb   $0x0,-0x176c(%rbp)
    f815:	74 5c                	je     f873 <func_21+0x384b>
    f817:	48 8b 05 c2 c4 00 00 	mov    0xc4c2(%rip),%rax        # 1bce0 <g_1512>
    f81e:	48 c1 e8 28          	shr    $0x28,%rax
    f822:	25 ff ff 03 00       	and    $0x3ffff,%eax
    f827:	89 c1                	mov    %eax,%ecx
    f829:	48 8b 85 f0 e9 ff ff 	mov    -0x1610(%rbp),%rax
    f830:	0f b7 00             	movzwl (%rax),%eax
    f833:	8d 50 01             	lea    0x1(%rax),%edx
    f836:	48 8b 85 f0 e9 ff ff 	mov    -0x1610(%rbp),%rax
    f83d:	66 89 10             	mov    %dx,(%rax)
    f840:	89 ce                	mov    %ecx,%esi
    f842:	bf 01 00 00 00       	mov    $0x1,%edi
    f847:	e8 72 65 ff ff       	callq  5dbe <safe_lshift_func_uint16_t_u_s>
    f84c:	8b 85 90 e8 ff ff    	mov    -0x1770(%rbp),%eax
    f852:	48 98                	cltq   
    f854:	8b 15 9a bf 00 00    	mov    0xbf9a(%rip),%edx        # 1b7f4 <g_144>
    f85a:	f7 d2                	not    %edx
    f85c:	89 d2                	mov    %edx,%edx
    f85e:	48 89 c6             	mov    %rax,%rsi
    f861:	48 89 d7             	mov    %rdx,%rdi
    f864:	e8 c5 67 ff ff       	callq  602e <safe_add_func_uint64_t_u_u>
    f869:	48 8b 85 e8 eb ff ff 	mov    -0x1418(%rbp),%rax
    f870:	48 85 c0             	test   %rax,%rax
    f873:	48 8b 85 d0 e9 ff ff 	mov    -0x1630(%rbp),%rax
    f87a:	8b 00                	mov    (%rax),%eax
    f87c:	0f b6 c0             	movzbl %al,%eax
    f87f:	44 89 e6             	mov    %r12d,%esi
    f882:	89 c7                	mov    %eax,%edi
    f884:	e8 52 63 ff ff       	callq  5bdb <safe_div_func_uint8_t_u_u>
    f889:	0f b6 c0             	movzbl %al,%eax
    f88c:	be fe ff 00 00       	mov    $0xfffe,%esi
    f891:	89 c7                	mov    %eax,%edi
    f893:	e8 a5 64 ff ff       	callq  5d3d <safe_mul_func_uint16_t_u_u>
    f898:	89 de                	mov    %ebx,%esi
    f89a:	bf 4b 4e 00 00       	mov    $0x4e4b,%edi
    f89f:	e8 b1 5b ff ff       	callq  5455 <safe_div_func_int16_t_s_s>
    f8a4:	48 8b 05 ad d8 00 00 	mov    0xd8ad(%rip),%rax        # 1d158 <g_432>
    f8ab:	48 8b 00             	mov    (%rax),%rax
    f8ae:	8b 10                	mov    (%rax),%edx
    f8b0:	48 8b 85 d0 e9 ff ff 	mov    -0x1630(%rbp),%rax
    f8b7:	8b 00                	mov    (%rax),%eax
    f8b9:	21 c2                	and    %eax,%edx
    f8bb:	48 8b 85 d0 ea ff ff 	mov    -0x1530(%rbp),%rax
    f8c2:	89 10                	mov    %edx,(%rax)
    f8c4:	48 8b 85 d0 ea ff ff 	mov    -0x1530(%rbp),%rax
    f8cb:	8b 00                	mov    (%rax),%eax
    f8cd:	85 c0                	test   %eax,%eax
    f8cf:	74 11                	je     f8e2 <func_21+0x38ba>
    f8d1:	48 8b 05 1e c4 00 00 	mov    0xc41e(%rip),%rax        # 1bcf6 <g_1512+0x16>
    f8d8:	48 85 c0             	test   %rax,%rax
    f8db:	74 1a                	je     f8f7 <func_21+0x38cf>
    f8dd:	e9 a5 d2 ff ff       	jmpq   cb87 <func_21+0xb5f>
    f8e2:	48 8b 15 37 d8 00 00 	mov    0xd837(%rip),%rdx        # 1d120 <g_102>
    f8e9:	48 8b 05 40 d8 00 00 	mov    0xd840(%rip),%rax        # 1d130 <g_274>
    f8f0:	48 8b 00             	mov    (%rax),%rax
    f8f3:	8b 12                	mov    (%rdx),%edx
    f8f5:	89 10                	mov    %edx,(%rax)
    f8f7:	66 c7 05 a6 bf 00 00 	movw   $0x0,0xbfa6(%rip)        # 1b8a6 <g_517+0x26>
    f8fe:	00 00 
    f900:	e9 b3 04 00 00       	jmpq   fdb8 <func_21+0x3d90>
    f905:	66 c7 85 90 eb ff ff 	movw   $0x1,-0x1470(%rbp)
    f90c:	01 00 
    f90e:	66 c7 85 92 eb ff ff 	movw   $0x1,-0x146e(%rbp)
    f915:	01 00 
    f917:	66 c7 85 94 eb ff ff 	movw   $0xffff,-0x146c(%rbp)
    f91e:	ff ff 
    f920:	66 c7 85 96 eb ff ff 	movw   $0x1,-0x146a(%rbp)
    f927:	01 00 
    f929:	66 c7 85 98 eb ff ff 	movw   $0x1,-0x1468(%rbp)
    f930:	01 00 
    f932:	66 c7 85 9a eb ff ff 	movw   $0xffff,-0x1466(%rbp)
    f939:	ff ff 
    f93b:	48 c7 85 e8 ea ff ff 	movq   $0x0,-0x1518(%rbp)
    f942:	00 00 00 00 
    f946:	48 8d 85 ac e8 ff ff 	lea    -0x1754(%rbp),%rax
    f94d:	48 89 85 f0 ea ff ff 	mov    %rax,-0x1510(%rbp)
    f954:	c7 85 00 e9 ff ff 00 	movl   $0x0,-0x1700(%rbp)
    f95b:	00 00 00 
    f95e:	48 8d 05 97 b9 00 00 	lea    0xb997(%rip),%rax        # 1b2fc <g_42+0x2bc>
    f965:	48 89 85 f8 ea ff ff 	mov    %rax,-0x1508(%rbp)
    f96c:	48 8d 05 85 db 00 00 	lea    0xdb85(%rip),%rax        # 1d4f8 <g_837>
    f973:	48 89 85 b0 e9 ff ff 	mov    %rax,-0x1650(%rbp)
    f97a:	48 8d 85 b0 e9 ff ff 	lea    -0x1650(%rbp),%rax
    f981:	48 89 85 00 eb ff ff 	mov    %rax,-0x1500(%rbp)
    f988:	48 8b 85 d0 ea ff ff 	mov    -0x1530(%rbp),%rax
    f98f:	8b 00                	mov    (%rax),%eax
    f991:	41 89 c5             	mov    %eax,%r13d
    f994:	0f be 9d 94 e8 ff ff 	movsbl -0x176c(%rbp),%ebx
    f99b:	8b 85 90 ec ff ff    	mov    -0x1370(%rbp),%eax
    f9a1:	33 85 8c e8 ff ff    	xor    -0x1774(%rbp),%eax
    f9a7:	89 85 90 ec ff ff    	mov    %eax,-0x1370(%rbp)
    f9ad:	8b 85 90 ec ff ff    	mov    -0x1370(%rbp),%eax
    f9b3:	83 f0 f9             	xor    $0xfffffff9,%eax
    f9b6:	41 89 c6             	mov    %eax,%r14d
    f9b9:	83 bd 8c e8 ff ff 00 	cmpl   $0x0,-0x1774(%rbp)
    f9c0:	75 56                	jne    fa18 <func_21+0x39f0>
    f9c2:	0f b7 85 98 eb ff ff 	movzwl -0x1468(%rbp),%eax
    f9c9:	44 0f b7 e0          	movzwl %ax,%r12d
    f9cd:	8b 95 90 e8 ff ff    	mov    -0x1770(%rbp),%edx
    f9d3:	0f b7 85 98 eb ff ff 	movzwl -0x1468(%rbp),%eax
    f9da:	f7 d0                	not    %eax
    f9dc:	66 c1 e8 0f          	shr    $0xf,%ax
    f9e0:	0f b6 c0             	movzbl %al,%eax
    f9e3:	89 d6                	mov    %edx,%esi
    f9e5:	89 c7                	mov    %eax,%edi
    f9e7:	e8 60 62 ff ff       	callq  5c4c <safe_lshift_func_uint8_t_u_u>
    f9ec:	84 c0                	test   %al,%al
    f9ee:	75 0c                	jne    f9fc <func_21+0x39d4>
    f9f0:	0f b7 85 96 eb ff ff 	movzwl -0x146a(%rbp),%eax
    f9f7:	66 85 c0             	test   %ax,%ax
    f9fa:	74 07                	je     fa03 <func_21+0x39db>
    f9fc:	b8 01 00 00 00       	mov    $0x1,%eax
    fa01:	eb 05                	jmp    fa08 <func_21+0x39e0>
    fa03:	b8 00 00 00 00       	mov    $0x0,%eax
    fa08:	0f b7 c0             	movzwl %ax,%eax
    fa0b:	44 89 e6             	mov    %r12d,%esi
    fa0e:	89 c7                	mov    %eax,%edi
    fa10:	e8 0a 63 ff ff       	callq  5d1f <safe_sub_func_uint16_t_u_u>
    fa15:	66 85 c0             	test   %ax,%ax
    fa18:	48 8b 05 e1 da 00 00 	mov    0xdae1(%rip),%rax        # 1d500 <g_835>
    fa1f:	48 8b 00             	mov    (%rax),%rax
    fa22:	48 85 c0             	test   %rax,%rax
    fa25:	0f 94 c0             	sete   %al
    fa28:	0f b6 c0             	movzbl %al,%eax
    fa2b:	39 85 90 e8 ff ff    	cmp    %eax,-0x1770(%rbp)
    fa31:	0f 95 c0             	setne  %al
    fa34:	0f b6 d0             	movzbl %al,%edx
    fa37:	66 0f be 85 94 e8 ff 	movsbw -0x176c(%rbp),%ax
    fa3e:	ff 
    fa3f:	21 d0                	and    %edx,%eax
    fa41:	0f b7 d0             	movzwl %ax,%edx
    fa44:	80 bd 94 e8 ff ff 00 	cmpb   $0x0,-0x176c(%rbp)
    fa4b:	74 11                	je     fa5e <func_21+0x3a36>
    fa4d:	8b 05 35 e6 00 00    	mov    0xe635(%rip),%eax        # 1e088 <g_1706>
    fa53:	85 c0                	test   %eax,%eax
    fa55:	74 07                	je     fa5e <func_21+0x3a36>
    fa57:	b8 01 00 00 00       	mov    $0x1,%eax
    fa5c:	eb 05                	jmp    fa63 <func_21+0x3a3b>
    fa5e:	b8 00 00 00 00       	mov    $0x0,%eax
    fa63:	0f b7 c0             	movzwl %ax,%eax
    fa66:	89 d6                	mov    %edx,%esi
    fa68:	89 c7                	mov    %eax,%edi
    fa6a:	e8 b0 62 ff ff       	callq  5d1f <safe_sub_func_uint16_t_u_u>
    fa6f:	44 89 f2             	mov    %r14d,%edx
    fa72:	31 c2                	xor    %eax,%edx
    fa74:	48 8b 85 f0 ea ff ff 	mov    -0x1510(%rbp),%rax
    fa7b:	88 10                	mov    %dl,(%rax)
    fa7d:	48 8b 85 f0 ea ff ff 	mov    -0x1510(%rbp),%rax
    fa84:	0f b6 00             	movzbl (%rax),%eax
    fa87:	0f be c0             	movsbl %al,%eax
    fa8a:	89 de                	mov    %ebx,%esi
    fa8c:	89 c7                	mov    %eax,%edi
    fa8e:	e8 0e 58 ff ff       	callq  52a1 <safe_lshift_func_int8_t_s_s>
    fa93:	0f be c0             	movsbl %al,%eax
    fa96:	89 c6                	mov    %eax,%esi
    fa98:	bf 01 00 00 00       	mov    $0x1,%edi
    fa9d:	e8 5b 64 ff ff       	callq  5efd <safe_mod_func_uint32_t_u_u>
    faa2:	41 39 c5             	cmp    %eax,%r13d
    faa5:	0f 92 c2             	setb   %dl
    faa8:	48 8b 05 b9 e0 00 00 	mov    0xe0b9(%rip),%rax        # 1db68 <g_1636>
    faaf:	0f b6 d2             	movzbl %dl,%edx
    fab2:	89 10                	mov    %edx,(%rax)
    fab4:	48 8b 05 73 c2 00 00 	mov    0xc273(%rip),%rax        # 1bd2e <g_1563+0xe>
    fabb:	0f b7 d8             	movzwl %ax,%ebx
    fabe:	48 8b 85 d0 ea ff ff 	mov    -0x1530(%rbp),%rax
    fac5:	8b 00                	mov    (%rax),%eax
    fac7:	44 0f bf e0          	movswl %ax,%r12d
    facb:	8b 85 90 e8 ff ff    	mov    -0x1770(%rbp),%eax
    fad1:	0f bf d0             	movswl %ax,%edx
    fad4:	8b 85 90 e8 ff ff    	mov    -0x1770(%rbp),%eax
    fada:	98                   	cwtl   
    fadb:	89 d6                	mov    %edx,%esi
    fadd:	89 c7                	mov    %eax,%edi
    fadf:	e8 32 59 ff ff       	callq  5416 <safe_mod_func_int16_t_s_s>
    fae4:	0f b7 c0             	movzwl %ax,%eax
    fae7:	89 c7                	mov    %eax,%edi
    fae9:	e8 fb 61 ff ff       	callq  5ce9 <safe_unary_minus_func_uint16_t_u>
    faee:	48 8b 85 08 ee ff ff 	mov    -0x11f8(%rbp),%rax
    faf5:	48 85 c0             	test   %rax,%rax
    faf8:	0f 94 c0             	sete   %al
    fafb:	0f b6 c0             	movzbl %al,%eax
    fafe:	be 06 00 00 00       	mov    $0x6,%esi
    fb03:	89 c7                	mov    %eax,%edi
    fb05:	e8 42 61 ff ff       	callq  5c4c <safe_lshift_func_uint8_t_u_u>
    fb0a:	0f b6 c0             	movzbl %al,%eax
    fb0d:	44 89 e6             	mov    %r12d,%esi
    fb10:	89 c7                	mov    %eax,%edi
    fb12:	e8 bc 58 ff ff       	callq  53d3 <safe_sub_func_int16_t_s_s>
    fb17:	0f bf d0             	movswl %ax,%edx
    fb1a:	48 8b 05 07 d6 00 00 	mov    0xd607(%rip),%rax        # 1d128 <g_275>
    fb21:	8b 00                	mov    (%rax),%eax
    fb23:	39 c2                	cmp    %eax,%edx
    fb25:	0f 94 c0             	sete   %al
    fb28:	0f b6 c0             	movzbl %al,%eax
    fb2b:	89 de                	mov    %ebx,%esi
    fb2d:	89 c7                	mov    %eax,%edi
    fb2f:	e8 09 62 ff ff       	callq  5d3d <safe_mul_func_uint16_t_u_u>
    fb34:	0f b7 d0             	movzwl %ax,%edx
    fb37:	48 8b 85 d0 ea ff ff 	mov    -0x1530(%rbp),%rax
    fb3e:	89 10                	mov    %edx,(%rax)
    fb40:	48 8b 85 d0 ea ff ff 	mov    -0x1530(%rbp),%rax
    fb47:	8b 00                	mov    (%rax),%eax
    fb49:	48 63 d0             	movslq %eax,%rdx
    fb4c:	48 0f be 85 b2 e8 ff 	movsbq -0x174e(%rbp),%rax
    fb53:	ff 
    fb54:	48 89 d6             	mov    %rdx,%rsi
    fb57:	48 89 c7             	mov    %rax,%rdi
    fb5a:	e8 ec 64 ff ff       	callq  604b <safe_sub_func_uint64_t_u_u>
    fb5f:	48 c7 05 2c bd 00 00 	movq   $0x1,0xbd2c(%rip)        # 1b896 <g_517+0x16>
    fb66:	01 00 00 00 
    fb6a:	48 8b 05 25 bd 00 00 	mov    0xbd25(%rip),%rax        # 1b896 <g_517+0x16>
    fb71:	48 89 05 be bc 00 00 	mov    %rax,0xbcbe(%rip)        # 1b836 <g_244+0x16>
    fb78:	48 8b 05 e1 df 00 00 	mov    0xdfe1(%rip),%rax        # 1db60 <g_1407>
    fb7f:	48 8b 00             	mov    (%rax),%rax
    fb82:	48 8b 10             	mov    (%rax),%rdx
    fb85:	48 8b 05 d4 d5 00 00 	mov    0xd5d4(%rip),%rax        # 1d160 <g_446>
    fb8c:	48 8b 00             	mov    (%rax),%rax
    fb8f:	48 89 d6             	mov    %rdx,%rsi
    fb92:	48 89 c7             	mov    %rax,%rdi
    fb95:	e8 a7 5c ff ff       	callq  5841 <safe_add_func_int64_t_s_s>
    fb9a:	0f be d0             	movsbl %al,%edx
    fb9d:	48 8b 85 c8 ec ff ff 	mov    -0x1338(%rbp),%rax
    fba4:	48 c7 85 98 ea ff ff 	movq   $0x0,-0x1568(%rbp)
    fbab:	00 00 00 00 
    fbaf:	48 39 85 98 ea ff ff 	cmp    %rax,-0x1568(%rbp)
    fbb6:	0f 94 c0             	sete   %al
    fbb9:	0f b6 c0             	movzbl %al,%eax
    fbbc:	21 85 00 e9 ff ff    	and    %eax,-0x1700(%rbp)
    fbc2:	8b 85 00 e9 ff ff    	mov    -0x1700(%rbp),%eax
    fbc8:	0f be c0             	movsbl %al,%eax
    fbcb:	89 d6                	mov    %edx,%esi
    fbcd:	89 c7                	mov    %eax,%edi
    fbcf:	e8 3e 56 ff ff       	callq  5212 <safe_mul_func_int8_t_s_s>
    fbd4:	0f b6 45 be          	movzbl -0x42(%rbp),%eax
    fbd8:	0f b6 d0             	movzbl %al,%edx
    fbdb:	48 8b 05 9e bf 00 00 	mov    0xbf9e(%rip),%rax        # 1bb80 <g_1108+0x200>
    fbe2:	48 39 c2             	cmp    %rax,%rdx
    fbe5:	0f 93 c0             	setae  %al
    fbe8:	0f b6 d0             	movzbl %al,%edx
    fbeb:	c7 85 bc e8 ff ff 8a 	movl   $0x495a0c8a,-0x1744(%rbp)
    fbf2:	0c 5a 49 
    fbf5:	8b 85 bc e8 ff ff    	mov    -0x1744(%rbp),%eax
    fbfb:	89 d6                	mov    %edx,%esi
    fbfd:	89 c7                	mov    %eax,%edi
    fbff:	e8 3e 5a ff ff       	callq  5642 <safe_mul_func_int32_t_s_s>
    fc04:	85 c0                	test   %eax,%eax
    fc06:	75 0d                	jne    fc15 <func_21+0x3bed>
    fc08:	48 8b 85 d0 ea ff ff 	mov    -0x1530(%rbp),%rax
    fc0f:	8b 00                	mov    (%rax),%eax
    fc11:	85 c0                	test   %eax,%eax
    fc13:	74 07                	je     fc1c <func_21+0x3bf4>
    fc15:	b8 01 00 00 00       	mov    $0x1,%eax
    fc1a:	eb 05                	jmp    fc21 <func_21+0x3bf9>
    fc1c:	b8 00 00 00 00       	mov    $0x0,%eax
    fc21:	83 f8 01             	cmp    $0x1,%eax
    fc24:	0f 9e c0             	setle  %al
    fc27:	0f b6 d0             	movzbl %al,%edx
    fc2a:	48 8b 85 f8 ea ff ff 	mov    -0x1508(%rbp),%rax
    fc31:	89 10                	mov    %edx,(%rax)
    fc33:	48 8b 85 f8 ea ff ff 	mov    -0x1508(%rbp),%rax
    fc3a:	8b 10                	mov    (%rax),%edx
    fc3c:	8b 85 14 f0 ff ff    	mov    -0xfec(%rbp),%eax
    fc42:	31 d0                	xor    %edx,%eax
    fc44:	89 85 14 f0 ff ff    	mov    %eax,-0xfec(%rbp)
    fc4a:	8b 85 8c e8 ff ff    	mov    -0x1774(%rbp),%eax
    fc50:	0f b6 d8             	movzbl %al,%ebx
    fc53:	48 8b 85 d0 e9 ff ff 	mov    -0x1630(%rbp),%rax
    fc5a:	8b 00                	mov    (%rax),%eax
    fc5c:	0f b6 c0             	movzbl %al,%eax
    fc5f:	be 01 00 00 00       	mov    $0x1,%esi
    fc64:	89 c7                	mov    %eax,%edi
    fc66:	e8 e1 5f ff ff       	callq  5c4c <safe_lshift_func_uint8_t_u_u>
    fc6b:	41 89 c4             	mov    %eax,%r12d
    fc6e:	8b 85 8c e8 ff ff    	mov    -0x1774(%rbp),%eax
    fc74:	0f b6 d0             	movzbl %al,%edx
    fc77:	48 8b 85 68 ea ff ff 	mov    -0x1598(%rbp),%rax
    fc7e:	48 8b 8d d8 ea ff ff 	mov    -0x1528(%rbp),%rcx
    fc85:	48 89 08             	mov    %rcx,(%rax)
    fc88:	48 8b 85 68 ea ff ff 	mov    -0x1598(%rbp),%rax
    fc8f:	48 8b 00             	mov    (%rax),%rax
    fc92:	48 8b 8d 00 eb ff ff 	mov    -0x1500(%rbp),%rcx
    fc99:	48 8d 35 58 d8 00 00 	lea    0xd858(%rip),%rsi        # 1d4f8 <g_837>
    fca0:	48 89 31             	mov    %rsi,(%rcx)
    fca3:	48 8b 8d 00 eb ff ff 	mov    -0x1500(%rbp),%rcx
    fcaa:	48 8b 09             	mov    (%rcx),%rcx
    fcad:	48 89 8d e0 ea ff ff 	mov    %rcx,-0x1520(%rbp)
    fcb4:	48 39 85 e0 ea ff ff 	cmp    %rax,-0x1520(%rbp)
    fcbb:	0f 94 c0             	sete   %al
    fcbe:	0f b6 c8             	movzbl %al,%ecx
    fcc1:	48 8b 85 d0 ea ff ff 	mov    -0x1530(%rbp),%rax
    fcc8:	8b 00                	mov    (%rax),%eax
    fcca:	39 c1                	cmp    %eax,%ecx
    fccc:	0f 9e c0             	setle  %al
    fccf:	f7 d0                	not    %eax
    fcd1:	0f b6 c0             	movzbl %al,%eax
    fcd4:	89 d6                	mov    %edx,%esi
    fcd6:	89 c7                	mov    %eax,%edi
    fcd8:	e8 b6 5e ff ff       	callq  5b93 <safe_mul_func_uint8_t_u_u>
    fcdd:	44 09 e0             	or     %r12d,%eax
    fce0:	84 c0                	test   %al,%al
    fce2:	75 07                	jne    fceb <func_21+0x3cc3>
    fce4:	80 bd 94 e8 ff ff 00 	cmpb   $0x0,-0x176c(%rbp)
    fceb:	be 00 00 00 00       	mov    $0x0,%esi
    fcf0:	bf f8 ff ff ff       	mov    $0xfffffff8,%edi
    fcf5:	e8 d6 61 ff ff       	callq  5ed0 <safe_sub_func_uint32_t_u_u>
    fcfa:	0f b6 c0             	movzbl %al,%eax
    fcfd:	89 de                	mov    %ebx,%esi
    fcff:	89 c7                	mov    %eax,%edi
    fd01:	e8 a8 5e ff ff       	callq  5bae <safe_mod_func_uint8_t_u_u>
    fd06:	48 8b 95 f8 e9 ff ff 	mov    -0x1608(%rbp),%rdx
    fd0d:	48 8b 12             	mov    (%rdx),%rdx
    fd10:	48 8b 12             	mov    (%rdx),%rdx
    fd13:	48 8b 0a             	mov    (%rdx),%rcx
    fd16:	0f b6 d0             	movzbl %al,%edx
    fd19:	48 8b 85 f8 e9 ff ff 	mov    -0x1608(%rbp),%rax
    fd20:	48 8b 00             	mov    (%rax),%rax
    fd23:	48 8b 00             	mov    (%rax),%rax
    fd26:	48 31 ca             	xor    %rcx,%rdx
    fd29:	48 89 10             	mov    %rdx,(%rax)
    fd2c:	48 8b 00             	mov    (%rax),%rax
    fd2f:	89 85 6c eb ff ff    	mov    %eax,-0x1494(%rbp)
    fd35:	8b 85 6c eb ff ff    	mov    -0x1494(%rbp),%eax
    fd3b:	48 98                	cltq   
    fd3d:	48 be 13 a5 0a 6f d8 	movabs $0x16af2fd86f0aa513,%rsi
    fd44:	2f af 16 
    fd47:	48 89 c7             	mov    %rax,%rdi
    fd4a:	e8 59 5b ff ff       	callq  58a8 <safe_sub_func_int64_t_s_s>
    fd4f:	89 c2                	mov    %eax,%edx
    fd51:	8b 85 90 e8 ff ff    	mov    -0x1770(%rbp),%eax
    fd57:	98                   	cwtl   
    fd58:	89 d6                	mov    %edx,%esi
    fd5a:	89 c7                	mov    %eax,%edi
    fd5c:	e8 80 57 ff ff       	callq  54e1 <safe_lshift_func_int16_t_s_u>
    fd61:	0f be 85 94 e8 ff ff 	movsbl -0x176c(%rbp),%eax
    fd68:	89 85 88 ef ff ff    	mov    %eax,-0x1078(%rbp)
    fd6e:	83 bd c8 e8 ff ff 00 	cmpl   $0x0,-0x1738(%rbp)
    fd75:	74 10                	je     fd87 <func_21+0x3d5f>
    fd77:	80 bd 94 e8 ff ff 00 	cmpb   $0x0,-0x176c(%rbp)
    fd7e:	74 07                	je     fd87 <func_21+0x3d5f>
    fd80:	b8 01 00 00 00       	mov    $0x1,%eax
    fd85:	eb 05                	jmp    fd8c <func_21+0x3d64>
    fd87:	b8 00 00 00 00       	mov    $0x0,%eax
    fd8c:	48 98                	cltq   
    fd8e:	8b 95 c4 f0 ff ff    	mov    -0xf3c(%rbp),%edx
    fd94:	89 d2                	mov    %edx,%edx
    fd96:	48 89 c6             	mov    %rax,%rsi
    fd99:	48 89 d7             	mov    %rdx,%rdi
    fd9c:	e8 56 5c ff ff       	callq  59f7 <safe_div_func_int64_t_s_s>
    fda1:	09 85 d8 e8 ff ff    	or     %eax,-0x1728(%rbp)
    fda7:	0f b7 05 f8 ba 00 00 	movzwl 0xbaf8(%rip),%eax        # 1b8a6 <g_517+0x26>
    fdae:	83 c0 01             	add    $0x1,%eax
    fdb1:	66 89 05 ee ba 00 00 	mov    %ax,0xbaee(%rip)        # 1b8a6 <g_517+0x26>
    fdb8:	0f b7 05 e7 ba 00 00 	movzwl 0xbae7(%rip),%eax        # 1b8a6 <g_517+0x26>
    fdbf:	66 83 f8 06          	cmp    $0x6,%ax
    fdc3:	0f 8f 3c fb ff ff    	jg     f905 <func_21+0x38dd>
    fdc9:	48 8b 85 d0 ea ff ff 	mov    -0x1530(%rbp),%rax
    fdd0:	c7 00 80 3b 5f fa    	movl   $0xfa5f3b80,(%rax)
    fdd6:	48 8b 85 d0 ea ff ff 	mov    -0x1530(%rbp),%rax
    fddd:	8b 10                	mov    (%rax),%edx
    fddf:	0f b6 85 a6 eb ff ff 	movzbl -0x145a(%rbp),%eax
    fde6:	09 d0                	or     %edx,%eax
    fde8:	88 85 a6 eb ff ff    	mov    %al,-0x145a(%rbp)
    fdee:	e9 e7 01 00 00       	jmpq   ffda <func_21+0x3fb2>
    fdf3:	c6 85 b1 e8 ff ff 41 	movb   $0x41,-0x174f(%rbp)
    fdfa:	c7 85 e0 eb ff ff eb 	movl   $0x24ac7eb,-0x1420(%rbp)
    fe01:	c7 4a 02 
    fe04:	c7 85 e4 eb ff ff eb 	movl   $0x24ac7eb,-0x141c(%rbp)
    fe0b:	c7 4a 02 
    fe0e:	c7 85 e8 eb ff ff eb 	movl   $0x24ac7eb,-0x1418(%rbp)
    fe15:	c7 4a 02 
    fe18:	c7 85 ec eb ff ff eb 	movl   $0x24ac7eb,-0x1414(%rbp)
    fe1f:	c7 4a 02 
    fe22:	c7 85 f0 eb ff ff eb 	movl   $0x24ac7eb,-0x1410(%rbp)
    fe29:	c7 4a 02 
    fe2c:	48 8d 05 29 b2 00 00 	lea    0xb229(%rip),%rax        # 1b05c <g_42+0x1c>
    fe33:	48 89 85 b8 ea ff ff 	mov    %rax,-0x1548(%rbp)
    fe3a:	c7 85 e0 e8 ff ff 00 	movl   $0x0,-0x1720(%rbp)
    fe41:	00 00 00 
    fe44:	eb 22                	jmp    fe68 <func_21+0x3e40>
    fe46:	8b 85 e0 e8 ff ff    	mov    -0x1720(%rbp),%eax
    fe4c:	48 98                	cltq   
    fe4e:	48 8d 95 80 ec ff ff 	lea    -0x1380(%rbp),%rdx
    fe55:	48 83 c2 04          	add    $0x4,%rdx
    fe59:	48 89 94 c5 60 eb ff 	mov    %rdx,-0x14a0(%rbp,%rax,8)
    fe60:	ff 
    fe61:	83 85 e0 e8 ff ff 01 	addl   $0x1,-0x1720(%rbp)
    fe68:	83 bd e0 e8 ff ff 00 	cmpl   $0x0,-0x1720(%rbp)
    fe6f:	7e d5                	jle    fe46 <func_21+0x3e1e>
    fe71:	c7 85 e0 e8 ff ff 00 	movl   $0x0,-0x1720(%rbp)
    fe78:	00 00 00 
    fe7b:	eb 21                	jmp    fe9e <func_21+0x3e76>
    fe7d:	8b 85 e0 e8 ff ff    	mov    -0x1720(%rbp),%eax
    fe83:	48 98                	cltq   
    fe85:	48 bb b9 ec 0b 6a 34 	movabs $0x5dc1dd346a0becb9,%rbx
    fe8c:	dd c1 5d 
    fe8f:	48 89 9c c5 90 eb ff 	mov    %rbx,-0x1470(%rbp,%rax,8)
    fe96:	ff 
    fe97:	83 85 e0 e8 ff ff 01 	addl   $0x1,-0x1720(%rbp)
    fe9e:	83 bd e0 e8 ff ff 01 	cmpl   $0x1,-0x1720(%rbp)
    fea5:	7e d6                	jle    fe7d <func_21+0x3e55>
    fea7:	8b 9d f4 e8 ff ff    	mov    -0x170c(%rbp),%ebx
    fead:	48 8b 85 08 f6 ff ff 	mov    -0x9f8(%rbp),%rax
    feb4:	48 85 c0             	test   %rax,%rax
    feb7:	74 6f                	je     ff28 <func_21+0x3f00>
    feb9:	8b 85 8c e8 ff ff    	mov    -0x1774(%rbp),%eax
    febf:	98                   	cwtl   
    fec0:	48 8b 15 59 b9 00 00 	mov    0xb959(%rip),%rdx        # 1b820 <g_244>
    fec7:	48 8b 15 5a b9 00 00 	mov    0xb95a(%rip),%rdx        # 1b828 <g_244+0x8>
    fece:	89 c6                	mov    %eax,%esi
    fed0:	bf 00 00 00 00       	mov    $0x0,%edi
    fed5:	e8 d9 54 ff ff       	callq  53b3 <safe_add_func_int16_t_s_s>
    feda:	0f b7 d0             	movzwl %ax,%edx
    fedd:	83 bd 8c e8 ff ff 00 	cmpl   $0x0,-0x1774(%rbp)
    fee4:	75 09                	jne    feef <func_21+0x3ec7>
    fee6:	80 bd b1 e8 ff ff 00 	cmpb   $0x0,-0x174f(%rbp)
    feed:	74 07                	je     fef6 <func_21+0x3ece>
    feef:	b8 01 00 00 00       	mov    $0x1,%eax
    fef4:	eb 05                	jmp    fefb <func_21+0x3ed3>
    fef6:	b8 00 00 00 00       	mov    $0x0,%eax
    fefb:	0f b7 c0             	movzwl %ax,%eax
    fefe:	89 d6                	mov    %edx,%esi
    ff00:	89 c7                	mov    %eax,%edi
    ff02:	e8 f8 5d ff ff       	callq  5cff <safe_add_func_uint16_t_u_u>
    ff07:	0f b7 c0             	movzwl %ax,%eax
    ff0a:	48 c7 c6 fb ff ff ff 	mov    $0xfffffffffffffffb,%rsi
    ff11:	48 89 c7             	mov    %rax,%rdi
    ff14:	e8 15 61 ff ff       	callq  602e <safe_add_func_uint64_t_u_u>
    ff19:	48 3d 20 e8 00 00    	cmp    $0xe820,%rax
    ff1f:	75 07                	jne    ff28 <func_21+0x3f00>
    ff21:	b8 01 00 00 00       	mov    $0x1,%eax
    ff26:	eb 05                	jmp    ff2d <func_21+0x3f05>
    ff28:	b8 00 00 00 00       	mov    $0x0,%eax
    ff2d:	48 63 d0             	movslq %eax,%rdx
    ff30:	48 8b 05 d9 b8 00 00 	mov    0xb8d9(%rip),%rax        # 1b810 <g_201>
    ff37:	48 39 c2             	cmp    %rax,%rdx
    ff3a:	0f 97 c0             	seta   %al
    ff3d:	0f b6 c0             	movzbl %al,%eax
    ff40:	89 de                	mov    %ebx,%esi
    ff42:	89 c7                	mov    %eax,%edi
    ff44:	e8 ff 5e ff ff       	callq  5e48 <safe_rshift_func_uint16_t_u_s>
    ff49:	98                   	cwtl   
    ff4a:	89 c6                	mov    %eax,%esi
    ff4c:	bf e2 61 00 00       	mov    $0x61e2,%edi
    ff51:	e8 7d 54 ff ff       	callq  53d3 <safe_sub_func_int16_t_s_s>
    ff56:	98                   	cwtl   
    ff57:	89 c6                	mov    %eax,%esi
    ff59:	bf f8 ff ff ff       	mov    $0xfffffff8,%edi
    ff5e:	e8 53 56 ff ff       	callq  55b6 <safe_add_func_int32_t_s_s>
    ff63:	21 85 d8 e8 ff ff    	and    %eax,-0x1728(%rbp)
    ff69:	c7 85 c8 e8 ff ff 1d 	movl   $0x1d,-0x1738(%rbp)
    ff70:	00 00 00 
    ff73:	eb 3c                	jmp    ffb1 <func_21+0x3f89>
    ff75:	48 b8 23 72 a0 a9 7a 	movabs $0xcd72a7aa9a07223,%rax
    ff7c:	2a d7 0c 
    ff7f:	48 89 85 c0 ea ff ff 	mov    %rax,-0x1540(%rbp)
    ff86:	80 bd 94 e8 ff ff 00 	cmpb   $0x0,-0x176c(%rbp)
    ff8d:	75 2d                	jne    ffbc <func_21+0x3f94>
    ff8f:	83 bd cc e8 ff ff 00 	cmpl   $0x0,-0x1734(%rbp)
    ff96:	75 27                	jne    ffbf <func_21+0x3f97>
    ff98:	48 83 bd c0 ea ff ff 	cmpq   $0x0,-0x1540(%rbp)
    ff9f:	00 
    ffa0:	75 20                	jne    ffc2 <func_21+0x3f9a>
    ffa2:	48 83 85 b8 e9 ff ff 	addq   $0x1,-0x1648(%rbp)
    ffa9:	01 
    ffaa:	83 ad c8 e8 ff ff 01 	subl   $0x1,-0x1738(%rbp)
    ffb1:	83 bd c8 e8 ff ff 03 	cmpl   $0x3,-0x1738(%rbp)
    ffb8:	7f bb                	jg     ff75 <func_21+0x3f4d>
    ffba:	eb 07                	jmp    ffc3 <func_21+0x3f9b>
    ffbc:	90                   	nop
    ffbd:	eb 04                	jmp    ffc3 <func_21+0x3f9b>
    ffbf:	90                   	nop
    ffc0:	eb 01                	jmp    ffc3 <func_21+0x3f9b>
    ffc2:	90                   	nop
    ffc3:	80 85 ad e8 ff ff 01 	addb   $0x1,-0x1753(%rbp)
    ffca:	0f b6 85 ae e8 ff ff 	movzbl -0x1752(%rbp),%eax
    ffd1:	83 e8 01             	sub    $0x1,%eax
    ffd4:	88 85 ae e8 ff ff    	mov    %al,-0x1752(%rbp)
    ffda:	0f be 9d 94 e8 ff ff 	movsbl -0x176c(%rbp),%ebx
    ffe1:	8b 85 c8 f1 ff ff    	mov    -0xe38(%rbp),%eax
    ffe7:	41 89 c7             	mov    %eax,%r15d
    ffea:	48 8b 05 17 d5 00 00 	mov    0xd517(%rip),%rax        # 1d508 <g_922>
    fff1:	48 8b 00             	mov    (%rax),%rax
    fff4:	44 8b 20             	mov    (%rax),%r12d
    fff7:	44 8b ad fc e8 ff ff 	mov    -0x1704(%rbp),%r13d
    fffe:	8b 85 8c e8 ff ff    	mov    -0x1774(%rbp),%eax
   10004:	44 0f b6 f0          	movzbl %al,%r14d
   10008:	8b 85 f8 e8 ff ff    	mov    -0x1708(%rbp),%eax
   1000e:	98                   	cwtl   
   1000f:	8b 95 90 e8 ff ff    	mov    -0x1770(%rbp),%edx
   10015:	0f bf d2             	movswl %dx,%edx
   10018:	83 e2 01             	and    $0x1,%edx
   1001b:	89 c6                	mov    %eax,%esi
   1001d:	89 d7                	mov    %edx,%edi
   1001f:	e8 8f 53 ff ff       	callq  53b3 <safe_add_func_int16_t_s_s>
   10024:	f7 d0                	not    %eax
   10026:	66 c1 e8 0f          	shr    $0xf,%ax
   1002a:	0f b6 c0             	movzbl %al,%eax
   1002d:	89 c7                	mov    %eax,%edi
   1002f:	e8 69 53 ff ff       	callq  539d <safe_unary_minus_func_int16_t_s>
   10034:	0f bf d0             	movswl %ax,%edx
   10037:	0f b6 05 2b 70 00 00 	movzbl 0x702b(%rip),%eax        # 17069 <g_709+0x9>
   1003e:	0f b6 c0             	movzbl %al,%eax
   10041:	39 c2                	cmp    %eax,%edx
   10043:	0f 9d c0             	setge  %al
   10046:	89 c2                	mov    %eax,%edx
   10048:	48 8b 05 09 db 00 00 	mov    0xdb09(%rip),%rax        # 1db58 <g_1408>
   1004f:	48 8b 00             	mov    (%rax),%rax
   10052:	21 d0                	and    %edx,%eax
   10054:	0f b6 c0             	movzbl %al,%eax
   10057:	44 89 f6             	mov    %r14d,%esi
   1005a:	89 c7                	mov    %eax,%edi
   1005c:	e8 32 5b ff ff       	callq  5b93 <safe_mul_func_uint8_t_u_u>
   10061:	84 c0                	test   %al,%al
   10063:	8b 95 b8 f5 ff ff    	mov    -0xa48(%rbp),%edx
   10069:	0f b6 85 ae e8 ff ff 	movzbl -0x1752(%rbp),%eax
   10070:	39 c2                	cmp    %eax,%edx
   10072:	0f 95 c0             	setne  %al
   10075:	0f b6 d0             	movzbl %al,%edx
   10078:	8b 85 14 f0 ff ff    	mov    -0xfec(%rbp),%eax
   1007e:	39 c2                	cmp    %eax,%edx
   10080:	0f 95 c0             	setne  %al
   10083:	0f b6 c0             	movzbl %al,%eax
   10086:	be 05 00 00 00       	mov    $0x5,%esi
   1008b:	89 c7                	mov    %eax,%edi
   1008d:	e8 0f 52 ff ff       	callq  52a1 <safe_lshift_func_int8_t_s_s>
   10092:	0f be c0             	movsbl %al,%eax
   10095:	44 89 ee             	mov    %r13d,%esi
   10098:	89 c7                	mov    %eax,%edi
   1009a:	e8 42 54 ff ff       	callq  54e1 <safe_lshift_func_int16_t_s_u>
   1009f:	98                   	cwtl   
   100a0:	44 89 e6             	mov    %r12d,%esi
   100a3:	89 c7                	mov    %eax,%edi
   100a5:	e8 55 56 ff ff       	callq  56ff <safe_div_func_int32_t_s_s>
   100aa:	89 c2                	mov    %eax,%edx
   100ac:	8b 85 c8 f1 ff ff    	mov    -0xe38(%rbp),%eax
   100b2:	0f b7 c0             	movzwl %ax,%eax
   100b5:	89 d6                	mov    %edx,%esi
   100b7:	89 c7                	mov    %eax,%edi
   100b9:	e8 48 5d ff ff       	callq  5e06 <safe_lshift_func_uint16_t_u_u>
   100be:	0f b7 d0             	movzwl %ax,%edx
   100c1:	0f be 85 94 e8 ff ff 	movsbl -0x176c(%rbp),%eax
   100c8:	39 c2                	cmp    %eax,%edx
   100ca:	0f 95 c2             	setne  %dl
   100cd:	48 8b 85 40 e9 ff ff 	mov    -0x16c0(%rbp),%rax
   100d4:	88 10                	mov    %dl,(%rax)
   100d6:	8b 85 d8 e8 ff ff    	mov    -0x1728(%rbp),%eax
   100dc:	39 85 8c e8 ff ff    	cmp    %eax,-0x1774(%rbp)
   100e2:	0f 95 c0             	setne  %al
   100e5:	0f b6 c0             	movzbl %al,%eax
   100e8:	89 85 68 eb ff ff    	mov    %eax,-0x1498(%rbp)
   100ee:	8b 85 68 eb ff ff    	mov    -0x1498(%rbp),%eax
   100f4:	0f b6 d0             	movzbl %al,%edx
   100f7:	8b 85 fc e8 ff ff    	mov    -0x1704(%rbp),%eax
   100fd:	0f b6 c0             	movzbl %al,%eax
   10100:	89 d6                	mov    %edx,%esi
   10102:	89 c7                	mov    %eax,%edi
   10104:	e8 51 5a ff ff       	callq  5b5a <safe_add_func_uint8_t_u_u>
   10109:	84 c0                	test   %al,%al
   1010b:	74 11                	je     1011e <func_21+0x40f6>
   1010d:	8b 05 b5 bc 00 00    	mov    0xbcb5(%rip),%eax        # 1bdc8 <g_1825>
   10113:	85 c0                	test   %eax,%eax
   10115:	74 07                	je     1011e <func_21+0x40f6>
   10117:	b8 01 00 00 00       	mov    $0x1,%eax
   1011c:	eb 05                	jmp    10123 <func_21+0x40fb>
   1011e:	b8 00 00 00 00       	mov    $0x0,%eax
   10123:	44 31 f8             	xor    %r15d,%eax
   10126:	0f b6 c0             	movzbl %al,%eax
   10129:	89 de                	mov    %ebx,%esi
   1012b:	89 c7                	mov    %eax,%edi
   1012d:	e8 8c 5b ff ff       	callq  5cbe <safe_rshift_func_uint8_t_u_u>
   10132:	be 01 00 00 00       	mov    $0x1,%esi
   10137:	bf 5b 00 00 00       	mov    $0x5b,%edi
   1013c:	e8 ad 51 ff ff       	callq  52ee <safe_lshift_func_int8_t_s_u>
   10141:	89 c2                	mov    %eax,%edx
   10143:	48 8b 85 a0 ea ff ff 	mov    -0x1560(%rbp),%rax
   1014a:	0f b6 00             	movzbl (%rax),%eax
   1014d:	09 c2                	or     %eax,%edx
   1014f:	48 8b 85 a0 ea ff ff 	mov    -0x1560(%rbp),%rax
   10156:	88 10                	mov    %dl,(%rax)
   10158:	48 8b 85 a0 ea ff ff 	mov    -0x1560(%rbp),%rax
   1015f:	0f b6 00             	movzbl (%rax),%eax
   10162:	0f be c0             	movsbl %al,%eax
   10165:	be 07 00 00 00       	mov    $0x7,%esi
   1016a:	89 c7                	mov    %eax,%edi
   1016c:	e8 fb 51 ff ff       	callq  536c <safe_rshift_func_int8_t_s_u>
   10171:	84 c0                	test   %al,%al
   10173:	0f 84 9f 01 00 00    	je     10318 <func_21+0x42f0>
   10179:	c7 85 cc e8 ff ff e5 	movl   $0xffffffe5,-0x1734(%rbp)
   10180:	ff ff ff 
   10183:	e9 7e 01 00 00       	jmpq   10306 <func_21+0x42de>
   10188:	48 c7 85 18 eb ff ff 	movq   $0xffffffffffffffff,-0x14e8(%rbp)
   1018f:	ff ff ff ff 
   10193:	48 8b 05 34 b6 00 00 	mov    0xb634(%rip),%rax        # 1b7ce <g_116+0xe>
   1019a:	48 85 c0             	test   %rax,%rax
   1019d:	0f 85 76 03 00 00    	jne    10519 <func_21+0x44f1>
   101a3:	0f b6 85 59 ec ff ff 	movzbl -0x13a7(%rbp),%eax
   101aa:	0f b6 d8             	movzbl %al,%ebx
   101ad:	0f b6 85 94 e8 ff ff 	movzbl -0x176c(%rbp),%eax
   101b4:	44 0f b6 e0          	movzbl %al,%r12d
   101b8:	44 8b ad 8c e8 ff ff 	mov    -0x1774(%rbp),%r13d
   101bf:	48 8b 85 28 ef ff ff 	mov    -0x10d8(%rbp),%rax
   101c6:	48 85 c0             	test   %rax,%rax
   101c9:	0f 95 c0             	setne  %al
   101cc:	44 0f b6 f0          	movzbl %al,%r14d
   101d0:	48 83 bd 78 ea ff ff 	cmpq   $0x0,-0x1588(%rbp)
   101d7:	00 
   101d8:	0f 94 c0             	sete   %al
   101db:	0f b6 d0             	movzbl %al,%edx
   101de:	48 8b 85 d0 e9 ff ff 	mov    -0x1630(%rbp),%rax
   101e5:	8b 00                	mov    (%rax),%eax
   101e7:	39 c2                	cmp    %eax,%edx
   101e9:	0f 9c c0             	setl   %al
   101ec:	0f b6 c0             	movzbl %al,%eax
   101ef:	8b 95 8c e8 ff ff    	mov    -0x1774(%rbp),%edx
   101f5:	89 d6                	mov    %edx,%esi
   101f7:	89 c7                	mov    %eax,%edi
   101f9:	e8 6e 51 ff ff       	callq  536c <safe_rshift_func_int8_t_s_u>
   101fe:	48 0f be c0          	movsbq %al,%rax
   10202:	48 39 85 18 eb ff ff 	cmp    %rax,-0x14e8(%rbp)
   10209:	0f 96 c0             	setbe  %al
   1020c:	0f b6 c0             	movzbl %al,%eax
   1020f:	be 68 00 00 00       	mov    $0x68,%esi
   10214:	89 c7                	mov    %eax,%edi
   10216:	e8 c0 59 ff ff       	callq  5bdb <safe_div_func_uint8_t_u_u>
   1021b:	0f b6 c0             	movzbl %al,%eax
   1021e:	41 39 c6             	cmp    %eax,%r14d
   10221:	0f 95 c0             	setne  %al
   10224:	0f b6 d0             	movzbl %al,%edx
   10227:	8b 85 68 eb ff ff    	mov    -0x1498(%rbp),%eax
   1022d:	39 c2                	cmp    %eax,%edx
   1022f:	0f 9f c0             	setg   %al
   10232:	0f b6 c0             	movzbl %al,%eax
   10235:	44 89 ee             	mov    %r13d,%esi
   10238:	89 c7                	mov    %eax,%edi
   1023a:	e8 c6 59 ff ff       	callq  5c05 <safe_lshift_func_uint8_t_u_s>
   1023f:	0f b6 c0             	movzbl %al,%eax
   10242:	39 85 90 e8 ff ff    	cmp    %eax,-0x1770(%rbp)
   10248:	0f 9e c0             	setle  %al
   1024b:	0f b6 c0             	movzbl %al,%eax
   1024e:	be 06 00 00 00       	mov    $0x6,%esi
   10253:	89 c7                	mov    %eax,%edi
   10255:	e8 94 50 ff ff       	callq  52ee <safe_lshift_func_int8_t_s_u>
   1025a:	48 83 bd a0 ea ff ff 	cmpq   $0x0,-0x1560(%rbp)
   10261:	00 
   10262:	0f 95 c0             	setne  %al
   10265:	0f b6 d0             	movzbl %al,%edx
   10268:	66 0f be 85 94 e8 ff 	movsbw -0x176c(%rbp),%ax
   1026f:	ff 
   10270:	21 d0                	and    %edx,%eax
   10272:	0f b7 c0             	movzwl %ax,%eax
   10275:	be f8 ff 00 00       	mov    $0xfff8,%esi
   1027a:	89 c7                	mov    %eax,%edi
   1027c:	e8 9e 5a ff ff       	callq  5d1f <safe_sub_func_uint16_t_u_u>
   10281:	0f b7 d0             	movzwl %ax,%edx
   10284:	0f be 85 94 e8 ff ff 	movsbl -0x176c(%rbp),%eax
   1028b:	39 c2                	cmp    %eax,%edx
   1028d:	0f 9f c0             	setg   %al
   10290:	0f b6 d0             	movzbl %al,%edx
   10293:	48 8b 05 dc b9 00 00 	mov    0xb9dc(%rip),%rax        # 1bc76 <g_1212+0x16>
   1029a:	98                   	cwtl   
   1029b:	89 d6                	mov    %edx,%esi
   1029d:	89 c7                	mov    %eax,%edi
   1029f:	e8 0f 51 ff ff       	callq  53b3 <safe_add_func_int16_t_s_s>
   102a4:	0f b6 85 b1 eb ff ff 	movzbl -0x144f(%rbp),%eax
   102ab:	0f b6 c0             	movzbl %al,%eax
   102ae:	44 89 e6             	mov    %r12d,%esi
   102b1:	89 c7                	mov    %eax,%edi
   102b3:	e8 c0 58 ff ff       	callq  5b78 <safe_sub_func_uint8_t_u_u>
   102b8:	0f b6 c0             	movzbl %al,%eax
   102bb:	89 de                	mov    %ebx,%esi
   102bd:	89 c7                	mov    %eax,%edi
   102bf:	e8 9f 52 ff ff       	callq  5563 <safe_rshift_func_int16_t_s_u>
   102c4:	66 85 c0             	test   %ax,%ax
   102c7:	74 11                	je     102da <func_21+0x42b2>
   102c9:	8b 85 00 f2 ff ff    	mov    -0xe00(%rbp),%eax
   102cf:	85 c0                	test   %eax,%eax
   102d1:	74 07                	je     102da <func_21+0x42b2>
   102d3:	ba 01 00 00 00       	mov    $0x1,%edx
   102d8:	eb 05                	jmp    102df <func_21+0x42b7>
   102da:	ba 00 00 00 00       	mov    $0x0,%edx
   102df:	48 8b 05 42 ce 00 00 	mov    0xce42(%rip),%rax        # 1d128 <g_275>
   102e6:	89 10                	mov    %edx,(%rax)
   102e8:	8b 85 cc e8 ff ff    	mov    -0x1734(%rbp),%eax
   102ee:	0f b7 c0             	movzwl %ax,%eax
   102f1:	be 01 00 00 00       	mov    $0x1,%esi
   102f6:	89 c7                	mov    %eax,%edi
   102f8:	e8 02 5a ff ff       	callq  5cff <safe_add_func_uint16_t_u_u>
   102fd:	0f b7 c0             	movzwl %ax,%eax
   10300:	89 85 cc e8 ff ff    	mov    %eax,-0x1734(%rbp)
   10306:	83 bd cc e8 ff ff e5 	cmpl   $0xffffffe5,-0x1734(%rbp)
   1030d:	0f 85 75 fe ff ff    	jne    10188 <func_21+0x4160>
   10313:	e9 db 01 00 00       	jmpq   104f3 <func_21+0x44cb>
   10318:	66 c7 85 b8 e8 ff ff 	movw   $0x1,-0x1748(%rbp)
   1031f:	01 00 
   10321:	48 8d 05 28 dd 00 00 	lea    0xdd28(%rip),%rax        # 1e050 <g_992>
   10328:	48 89 85 08 eb ff ff 	mov    %rax,-0x14f8(%rbp)
   1032f:	48 c7 85 10 eb ff ff 	movq   $0x0,-0x14f0(%rbp)
   10336:	00 00 00 00 
   1033a:	44 8b a5 8c e8 ff ff 	mov    -0x1774(%rbp),%r12d
   10341:	8b 85 c8 f1 ff ff    	mov    -0xe38(%rbp),%eax
   10347:	0f b6 d8             	movzbl %al,%ebx
   1034a:	8b 85 90 e8 ff ff    	mov    -0x1770(%rbp),%eax
   10350:	0f b6 c0             	movzbl %al,%eax
   10353:	48 8b 15 0e d8 00 00 	mov    0xd80e(%rip),%rdx        # 1db68 <g_1636>
   1035a:	8b 12                	mov    (%rdx),%edx
   1035c:	89 c6                	mov    %eax,%esi
   1035e:	bf c8 00 00 00       	mov    $0xc8,%edi
   10363:	e8 73 58 ff ff       	callq  5bdb <safe_div_func_uint8_t_u_u>
   10368:	83 bd 90 e8 ff ff 01 	cmpl   $0x1,-0x1770(%rbp)
   1036f:	0f b6 85 94 e8 ff ff 	movzbl -0x176c(%rbp),%eax
   10376:	0f b6 c0             	movzbl %al,%eax
   10379:	89 de                	mov    %ebx,%esi
   1037b:	89 c7                	mov    %eax,%edi
   1037d:	e8 11 58 ff ff       	callq  5b93 <safe_mul_func_uint8_t_u_u>
   10382:	80 bd 94 e8 ff ff 00 	cmpb   $0x0,-0x176c(%rbp)
   10389:	0f bf 95 b8 e8 ff ff 	movswl -0x1748(%rbp),%edx
   10390:	48 8d 05 61 d1 00 00 	lea    0xd161(%rip),%rax        # 1d4f8 <g_837>
   10397:	48 8b 00             	mov    (%rax),%rax
   1039a:	48 8b 00             	mov    (%rax),%rax
   1039d:	8b 00                	mov    (%rax),%eax
   1039f:	39 c2                	cmp    %eax,%edx
   103a1:	0f 9e c0             	setle  %al
   103a4:	0f b6 d0             	movzbl %al,%edx
   103a7:	48 8b 85 d0 e9 ff ff 	mov    -0x1630(%rbp),%rax
   103ae:	8b 00                	mov    (%rax),%eax
   103b0:	31 d0                	xor    %edx,%eax
   103b2:	f7 d0                	not    %eax
   103b4:	89 c2                	mov    %eax,%edx
   103b6:	48 8b 05 63 cd 00 00 	mov    0xcd63(%rip),%rax        # 1d120 <g_102>
   103bd:	8b 00                	mov    (%rax),%eax
   103bf:	39 c2                	cmp    %eax,%edx
   103c1:	0f 94 c0             	sete   %al
   103c4:	0f b6 d0             	movzbl %al,%edx
   103c7:	8b 85 8c e8 ff ff    	mov    -0x1774(%rbp),%eax
   103cd:	48 89 d6             	mov    %rdx,%rsi
   103d0:	48 89 c7             	mov    %rax,%rdi
   103d3:	e8 73 5c ff ff       	callq  604b <safe_sub_func_uint64_t_u_u>
   103d8:	49 39 c4             	cmp    %rax,%r12
   103db:	0f 97 c0             	seta   %al
   103de:	89 c2                	mov    %eax,%edx
   103e0:	8b 85 90 e8 ff ff    	mov    -0x1770(%rbp),%eax
   103e6:	09 d0                	or     %edx,%eax
   103e8:	0f b6 c0             	movzbl %al,%eax
   103eb:	be 07 00 00 00       	mov    $0x7,%esi
   103f0:	89 c7                	mov    %eax,%edi
   103f2:	e8 0e 58 ff ff       	callq  5c05 <safe_lshift_func_uint8_t_u_s>
   103f7:	0f b6 15 fa b3 00 00 	movzbl 0xb3fa(%rip),%edx        # 1b7f8 <g_147>
   103fe:	38 d0                	cmp    %dl,%al
   10400:	0f 95 c0             	setne  %al
   10403:	0f b6 d0             	movzbl %al,%edx
   10406:	0f be 85 94 e8 ff ff 	movsbl -0x176c(%rbp),%eax
   1040d:	39 c2                	cmp    %eax,%edx
   1040f:	0f 9f c2             	setg   %dl
   10412:	48 8b 05 0f cd 00 00 	mov    0xcd0f(%rip),%rax        # 1d128 <g_275>
   10419:	0f b6 d2             	movzbl %dl,%edx
   1041c:	89 10                	mov    %edx,(%rax)
   1041e:	0f b6 85 94 e8 ff ff 	movzbl -0x176c(%rbp),%eax
   10425:	0f b6 d8             	movzbl %al,%ebx
   10428:	be 02 00 00 00       	mov    $0x2,%esi
   1042d:	bf 01 00 00 00       	mov    $0x1,%edi
   10432:	e8 ce 57 ff ff       	callq  5c05 <safe_lshift_func_uint8_t_u_s>
   10437:	0f be c0             	movsbl %al,%eax
   1043a:	be 04 00 00 00       	mov    $0x4,%esi
   1043f:	89 c7                	mov    %eax,%edi
   10441:	e8 ef 4e ff ff       	callq  5335 <safe_rshift_func_int8_t_s_s>
   10446:	0f be c0             	movsbl %al,%eax
   10449:	89 c6                	mov    %eax,%esi
   1044b:	bf 01 00 00 00       	mov    $0x1,%edi
   10450:	e8 dc 4d ff ff       	callq  5231 <safe_mod_func_int8_t_s_s>
   10455:	48 8b 85 88 f8 ff ff 	mov    -0x778(%rbp),%rax
   1045c:	48 39 85 08 eb ff ff 	cmp    %rax,-0x14f8(%rbp)
   10463:	0f 95 c0             	setne  %al
   10466:	89 c2                	mov    %eax,%edx
   10468:	48 8b 85 a0 ea ff ff 	mov    -0x1560(%rbp),%rax
   1046f:	88 10                	mov    %dl,(%rax)
   10471:	48 8b 85 a0 ea ff ff 	mov    -0x1560(%rbp),%rax
   10478:	0f b6 00             	movzbl (%rax),%eax
   1047b:	0f be d0             	movsbl %al,%edx
   1047e:	48 8b 85 b8 e9 ff ff 	mov    -0x1648(%rbp),%rax
   10485:	0f be c0             	movsbl %al,%eax
   10488:	89 d6                	mov    %edx,%esi
   1048a:	89 c7                	mov    %eax,%edi
   1048c:	e8 81 4d ff ff       	callq  5212 <safe_mul_func_int8_t_s_s>
   10491:	0f b6 c0             	movzbl %al,%eax
   10494:	89 de                	mov    %ebx,%esi
   10496:	89 c7                	mov    %eax,%edi
   10498:	e8 db 56 ff ff       	callq  5b78 <safe_sub_func_uint8_t_u_u>
   1049d:	89 c3                	mov    %eax,%ebx
   1049f:	0f be 95 94 e8 ff ff 	movsbl -0x176c(%rbp),%edx
   104a6:	48 8b 05 23 cd 00 00 	mov    0xcd23(%rip),%rax        # 1d1d0 <g_497>
   104ad:	c7 85 e0 f4 ff ff 01 	movl   $0x1,-0xb20(%rbp)
   104b4:	00 00 00 
   104b7:	8b 85 e0 f4 ff ff    	mov    -0xb20(%rbp),%eax
   104bd:	83 f0 40             	xor    $0x40,%eax
   104c0:	0f be c0             	movsbl %al,%eax
   104c3:	89 d6                	mov    %edx,%esi
   104c5:	89 c7                	mov    %eax,%edi
   104c7:	e8 65 4d ff ff       	callq  5231 <safe_mod_func_int8_t_s_s>
   104cc:	0f be d0             	movsbl %al,%edx
   104cf:	48 8b 85 80 ea ff ff 	mov    -0x1580(%rbp),%rax
   104d6:	0f b6 c0             	movzbl %al,%eax
   104d9:	89 d6                	mov    %edx,%esi
   104db:	89 c7                	mov    %eax,%edi
   104dd:	e8 23 57 ff ff       	callq  5c05 <safe_lshift_func_uint8_t_u_s>
   104e2:	38 c3                	cmp    %al,%bl
   104e4:	0f 96 c2             	setbe  %dl
   104e7:	48 8b 05 7a d6 00 00 	mov    0xd67a(%rip),%rax        # 1db68 <g_1636>
   104ee:	0f b6 d2             	movzbl %dl,%edx
   104f1:	89 10                	mov    %edx,(%rax)
   104f3:	48 8b 05 ee b2 00 00 	mov    0xb2ee(%rip),%rax        # 1b7e8 <g_123>
   104fa:	48 85 c0             	test   %rax,%rax
   104fd:	75 62                	jne    10561 <func_21+0x4539>
   104ff:	8b 05 27 b4 00 00    	mov    0xb427(%rip),%eax        # 1b92c <g_924>
   10505:	be 06 00 00 00       	mov    $0x6,%esi
   1050a:	89 c7                	mov    %eax,%edi
   1050c:	e8 f4 50 ff ff       	callq  5605 <safe_sub_func_int32_t_s_s>
   10511:	89 05 15 b4 00 00    	mov    %eax,0xb415(%rip)        # 1b92c <g_924>
   10517:	eb 06                	jmp    1051f <func_21+0x44f7>
   10519:	90                   	nop
   1051a:	e9 68 c6 ff ff       	jmpq   cb87 <func_21+0xb5f>
   1051f:	8b 05 07 b4 00 00    	mov    0xb407(%rip),%eax        # 1b92c <g_924>
   10525:	83 f8 10             	cmp    $0x10,%eax
   10528:	0f 8f 93 e6 ff ff    	jg     ebc1 <func_21+0x2b99>
   1052e:	8b 05 cc b6 00 00    	mov    0xb6cc(%rip),%eax        # 1bc00 <g_1138>
   10534:	83 c0 01             	add    $0x1,%eax
   10537:	89 05 c3 b6 00 00    	mov    %eax,0xb6c3(%rip)        # 1bc00 <g_1138>
   1053d:	8b 05 bd b6 00 00    	mov    0xb6bd(%rip),%eax        # 1bc00 <g_1138>
   10543:	83 f8 04             	cmp    $0x4,%eax
   10546:	0f 87 03 e4 ff ff    	ja     e94f <func_21+0x2927>
   1054c:	48 8d 05 a5 cf 00 00 	lea    0xcfa5(%rip),%rax        # 1d4f8 <g_837>
   10553:	48 8b 00             	mov    (%rax),%rax
   10556:	48 8b 00             	mov    (%rax),%rax
   10559:	8b 95 04 ed ff ff    	mov    -0x12fc(%rbp),%edx
   1055f:	89 10                	mov    %edx,(%rax)
   10561:	c7 05 bd b3 00 00 00 	movl   $0x0,0xb3bd(%rip)        # 1b928 <g_878>
   10568:	00 00 00 
   1056b:	eb 68                	jmp    105d5 <func_21+0x45ad>
   1056d:	48 c7 05 c6 b7 00 00 	movq   $0x0,0xb7c6(%rip)        # 1bd3e <g_1563+0x1e>
   10574:	00 00 00 00 
   10578:	eb 3f                	jmp    105b9 <func_21+0x4591>
   1057a:	8b 05 a8 b3 00 00    	mov    0xb3a8(%rip),%eax        # 1b928 <g_878>
   10580:	48 8b 0d b7 b7 00 00 	mov    0xb7b7(%rip),%rcx        # 1bd3e <g_1563+0x1e>
   10587:	48 63 d0             	movslq %eax,%rdx
   1058a:	48 89 d0             	mov    %rdx,%rax
   1058d:	48 c1 e0 03          	shl    $0x3,%rax
   10591:	48 01 d0             	add    %rdx,%rax
   10594:	48 8d 5d d0          	lea    -0x30(%rbp),%rbx
   10598:	48 01 d8             	add    %rbx,%rax
   1059b:	48 01 c8             	add    %rcx,%rax
   1059e:	48 2d 80 13 00 00    	sub    $0x1380,%rax
   105a4:	c6 00 8e             	movb   $0x8e,(%rax)
   105a7:	48 8b 05 90 b7 00 00 	mov    0xb790(%rip),%rax        # 1bd3e <g_1563+0x1e>
   105ae:	48 83 c0 01          	add    $0x1,%rax
   105b2:	48 89 05 85 b7 00 00 	mov    %rax,0xb785(%rip)        # 1bd3e <g_1563+0x1e>
   105b9:	48 8b 05 7e b7 00 00 	mov    0xb77e(%rip),%rax        # 1bd3e <g_1563+0x1e>
   105c0:	48 83 f8 08          	cmp    $0x8,%rax
   105c4:	76 b4                	jbe    1057a <func_21+0x4552>
   105c6:	8b 05 5c b3 00 00    	mov    0xb35c(%rip),%eax        # 1b928 <g_878>
   105cc:	83 c0 01             	add    $0x1,%eax
   105cf:	89 05 53 b3 00 00    	mov    %eax,0xb353(%rip)        # 1b928 <g_878>
   105d5:	8b 05 4d b3 00 00    	mov    0xb34d(%rip),%eax        # 1b928 <g_878>
   105db:	83 f8 03             	cmp    $0x3,%eax
   105de:	7e 8d                	jle    1056d <func_21+0x4545>
   105e0:	0f be 9d 94 e8 ff ff 	movsbl -0x176c(%rbp),%ebx
   105e7:	44 8b 25 3e b3 00 00 	mov    0xb33e(%rip),%r12d        # 1b92c <g_924>
   105ee:	0f b6 85 94 e8 ff ff 	movzbl -0x176c(%rbp),%eax
   105f5:	44 0f b6 e8          	movzbl %al,%r13d
   105f9:	48 8b 85 d0 e9 ff ff 	mov    -0x1630(%rbp),%rax
   10600:	44 8b 30             	mov    (%rax),%r14d
   10603:	4c 0f be bd 94 e8 ff 	movsbq -0x176c(%rbp),%r15
   1060a:	ff 
   1060b:	8b 85 8c e8 ff ff    	mov    -0x1774(%rbp),%eax
   10611:	0f b7 c0             	movzwl %ax,%eax
   10614:	89 85 80 e8 ff ff    	mov    %eax,-0x1780(%rbp)
   1061a:	bf b5 4a 00 00       	mov    $0x4ab5,%edi
   1061f:	e8 79 4d ff ff       	callq  539d <safe_unary_minus_func_int16_t_s>
   10624:	0f b7 c0             	movzwl %ax,%eax
   10627:	8b b5 80 e8 ff ff    	mov    -0x1780(%rbp),%esi
   1062d:	89 c7                	mov    %eax,%edi
   1062f:	e8 09 57 ff ff       	callq  5d3d <safe_mul_func_uint16_t_u_u>
   10634:	0f b7 c0             	movzwl %ax,%eax
   10637:	89 85 80 e8 ff ff    	mov    %eax,-0x1780(%rbp)
   1063d:	8b 85 8c e8 ff ff    	mov    -0x1774(%rbp),%eax
   10643:	0f b6 f8             	movzbl %al,%edi
   10646:	89 bd 88 e8 ff ff    	mov    %edi,-0x1778(%rbp)
   1064c:	48 8b 85 40 ea ff ff 	mov    -0x15c0(%rbp),%rax
   10653:	48 c7 00 00 00 00 00 	movq   $0x0,(%rax)
   1065a:	48 8b 85 40 ea ff ff 	mov    -0x15c0(%rbp),%rax
   10661:	48 8b 10             	mov    (%rax),%rdx
   10664:	48 8b 85 58 ea ff ff 	mov    -0x15a8(%rbp),%rax
   1066b:	48 89 10             	mov    %rdx,(%rax)
   1066e:	48 8b 85 58 ea ff ff 	mov    -0x15a8(%rbp),%rax
   10675:	48 8b 00             	mov    (%rax),%rax
   10678:	48 85 c0             	test   %rax,%rax
   1067b:	0f 95 c0             	setne  %al
   1067e:	0f b6 c0             	movzbl %al,%eax
   10681:	39 85 8c e8 ff ff    	cmp    %eax,-0x1774(%rbp)
   10687:	0f 96 c0             	setbe  %al
   1068a:	0f b6 d0             	movzbl %al,%edx
   1068d:	48 8b 85 d0 e9 ff ff 	mov    -0x1630(%rbp),%rax
   10694:	8b 00                	mov    (%rax),%eax
   10696:	31 c2                	xor    %eax,%edx
   10698:	8b 85 90 e8 ff ff    	mov    -0x1770(%rbp),%eax
   1069e:	09 d0                	or     %edx,%eax
   106a0:	0f b7 c0             	movzwl %ax,%eax
   106a3:	be 70 67 00 00       	mov    $0x6770,%esi
   106a8:	89 c7                	mov    %eax,%edi
   106aa:	e8 50 56 ff ff       	callq  5cff <safe_add_func_uint16_t_u_u>
   106af:	8b b5 88 e8 ff ff    	mov    -0x1778(%rbp),%esi
   106b5:	bf 01 00 00 00       	mov    $0x1,%edi
   106ba:	e8 1c 55 ff ff       	callq  5bdb <safe_div_func_uint8_t_u_u>
   106bf:	0f b6 c0             	movzbl %al,%eax
   106c2:	39 85 8c e8 ff ff    	cmp    %eax,-0x1774(%rbp)
   106c8:	0f 95 c0             	setne  %al
   106cb:	0f b6 c0             	movzbl %al,%eax
   106ce:	89 c6                	mov    %eax,%esi
   106d0:	bf 8c 00 00 00       	mov    $0x8c,%edi
   106d5:	e8 2b 55 ff ff       	callq  5c05 <safe_lshift_func_uint8_t_u_s>
   106da:	0f b6 c0             	movzbl %al,%eax
   106dd:	33 85 80 e8 ff ff    	xor    -0x1780(%rbp),%eax
   106e3:	48 98                	cltq   
   106e5:	4c 89 fe             	mov    %r15,%rsi
   106e8:	48 89 c7             	mov    %rax,%rdi
   106eb:	e8 5b 59 ff ff       	callq  604b <safe_sub_func_uint64_t_u_u>
   106f0:	48 8d 05 49 d9 00 00 	lea    0xd949(%rip),%rax        # 1e040 <g_797>
   106f7:	48 89 85 38 ea ff ff 	mov    %rax,-0x15c8(%rbp)
   106fe:	48 8b 85 38 ea ff ff 	mov    -0x15c8(%rbp),%rax
   10705:	48 3b 85 60 ea ff ff 	cmp    -0x15a0(%rbp),%rax
   1070c:	0f b7 85 b6 e8 ff ff 	movzwl -0x174a(%rbp),%eax
   10713:	89 c6                	mov    %eax,%esi
   10715:	bf ff ff 00 00       	mov    $0xffff,%edi
   1071a:	e8 5b 57 ff ff       	callq  5e7a <safe_rshift_func_uint16_t_u_u>
   1071f:	0f b7 c0             	movzwl %ax,%eax
   10722:	44 89 f6             	mov    %r14d,%esi
   10725:	89 c7                	mov    %eax,%edi
   10727:	e8 a0 4f ff ff       	callq  56cc <safe_mod_func_int32_t_s_s>
   1072c:	0f b6 c0             	movzbl %al,%eax
   1072f:	44 89 ee             	mov    %r13d,%esi
   10732:	89 c7                	mov    %eax,%edi
   10734:	e8 75 54 ff ff       	callq  5bae <safe_mod_func_uint8_t_u_u>
   10739:	0f b6 c0             	movzbl %al,%eax
   1073c:	44 89 e6             	mov    %r12d,%esi
   1073f:	89 c7                	mov    %eax,%edi
   10741:	e8 47 55 ff ff       	callq  5c8d <safe_rshift_func_uint8_t_u_s>
   10746:	0f be c0             	movsbl %al,%eax
   10749:	89 de                	mov    %ebx,%esi
   1074b:	89 c7                	mov    %eax,%edi
   1074d:	e8 82 4a ff ff       	callq  51d4 <safe_add_func_int8_t_s_s>
   10752:	0f be c0             	movsbl %al,%eax
   10755:	be 96 4c 9c e3       	mov    $0xe39c4c96,%esi
   1075a:	89 c7                	mov    %eax,%edi
   1075c:	e8 a4 4e ff ff       	callq  5605 <safe_sub_func_int32_t_s_s>
   10761:	89 c2                	mov    %eax,%edx
   10763:	48 8b 05 8e cd 00 00 	mov    0xcd8e(%rip),%rax        # 1d4f8 <g_837>
   1076a:	48 8b 00             	mov    (%rax),%rax
   1076d:	8b 00                	mov    (%rax),%eax
   1076f:	89 d6                	mov    %edx,%esi
   10771:	89 c7                	mov    %eax,%edi
   10773:	e8 54 4f ff ff       	callq  56cc <safe_mod_func_int32_t_s_s>
   10778:	48 8b 85 d0 e9 ff ff 	mov    -0x1630(%rbp),%rax
   1077f:	8b 00                	mov    (%rax),%eax
   10781:	85 c0                	test   %eax,%eax
   10783:	74 07                	je     1078c <func_21+0x4764>
   10785:	ba 01 00 00 00       	mov    $0x1,%edx
   1078a:	eb 05                	jmp    10791 <func_21+0x4769>
   1078c:	ba 00 00 00 00       	mov    $0x0,%edx
   10791:	48 8b 05 90 c9 00 00 	mov    0xc990(%rip),%rax        # 1d128 <g_275>
   10798:	89 10                	mov    %edx,(%rax)
   1079a:	48 8b 85 98 e8 ff ff 	mov    -0x1768(%rbp),%rax
   107a1:	48 8b 95 10 ea ff ff 	mov    -0x15f0(%rbp),%rdx
   107a8:	48 8b 0a             	mov    (%rdx),%rcx
   107ab:	48 8b 5a 08          	mov    0x8(%rdx),%rbx
   107af:	48 89 08             	mov    %rcx,(%rax)
   107b2:	48 89 58 08          	mov    %rbx,0x8(%rax)
   107b6:	48 8b 4a 10          	mov    0x10(%rdx),%rcx
   107ba:	48 8b 5a 18          	mov    0x18(%rdx),%rbx
   107be:	48 89 48 10          	mov    %rcx,0x10(%rax)
   107c2:	48 89 58 18          	mov    %rbx,0x18(%rax)
   107c6:	48 8b 52 20          	mov    0x20(%rdx),%rdx
   107ca:	48 89 50 20          	mov    %rdx,0x20(%rax)
   107ce:	48 8b 45 c8          	mov    -0x38(%rbp),%rax
   107d2:	64 48 33 04 25 28 00 	xor    %fs:0x28,%rax
   107d9:	00 00 
   107db:	74 05                	je     107e2 <func_21+0x47ba>
   107dd:	e8 8e 48 ff ff       	callq  5070 <__stack_chk_fail@plt>
   107e2:	48 8b 85 98 e8 ff ff 	mov    -0x1768(%rbp),%rax
   107e9:	48 81 c4 58 17 00 00 	add    $0x1758,%rsp
   107f0:	5b                   	pop    %rbx
   107f1:	41 5c                	pop    %r12
   107f3:	41 5d                	pop    %r13
   107f5:	41 5e                	pop    %r14
   107f7:	41 5f                	pop    %r15
   107f9:	5d                   	pop    %rbp
   107fa:	c3                   	retq   

00000000000107fb <func_25>:
   107fb:	f3 0f 1e fa          	endbr64 
   107ff:	55                   	push   %rbp
   10800:	48 89 e5             	mov    %rsp,%rbp
   10803:	41 57                	push   %r15
   10805:	41 56                	push   %r14
   10807:	41 55                	push   %r13
   10809:	41 54                	push   %r12
   1080b:	53                   	push   %rbx
   1080c:	48 81 ec 58 01 00 00 	sub    $0x158,%rsp
   10813:	89 bd ec fe ff ff    	mov    %edi,-0x114(%rbp)
   10819:	89 b5 e8 fe ff ff    	mov    %esi,-0x118(%rbp)
   1081f:	89 95 e4 fe ff ff    	mov    %edx,-0x11c(%rbp)
   10825:	89 8d e0 fe ff ff    	mov    %ecx,-0x120(%rbp)
   1082b:	44 89 85 dc fe ff ff 	mov    %r8d,-0x124(%rbp)
   10832:	64 48 8b 04 25 28 00 	mov    %fs:0x28,%rax
   10839:	00 00 
   1083b:	48 89 45 c8          	mov    %rax,-0x38(%rbp)
   1083f:	31 c0                	xor    %eax,%eax
   10841:	48 c7 85 08 ff ff ff 	movq   $0xfffffffffffffffe,-0xf8(%rbp)
   10848:	fe ff ff ff 
   1084c:	48 8d 05 a9 aa 00 00 	lea    0xaaa9(%rip),%rax        # 1b2fc <g_42+0x2bc>
   10853:	48 89 85 10 ff ff ff 	mov    %rax,-0xf0(%rbp)
   1085a:	48 8d 05 4f ae 00 00 	lea    0xae4f(%rip),%rax        # 1b6b0 <g_97+0x370>
   10861:	48 89 85 18 ff ff ff 	mov    %rax,-0xe8(%rbp)
   10868:	48 8d 05 bd b0 00 00 	lea    0xb0bd(%rip),%rax        # 1b92c <g_924>
   1086f:	48 89 85 20 ff ff ff 	mov    %rax,-0xe0(%rbp)
   10876:	48 8d 05 9f aa 00 00 	lea    0xaa9f(%rip),%rax        # 1b31c <g_42+0x2dc>
   1087d:	48 89 85 28 ff ff ff 	mov    %rax,-0xd8(%rbp)
   10884:	48 8d 05 a1 b0 00 00 	lea    0xb0a1(%rip),%rax        # 1b92c <g_924>
   1088b:	48 89 85 30 ff ff ff 	mov    %rax,-0xd0(%rbp)
   10892:	48 8d 05 63 aa 00 00 	lea    0xaa63(%rip),%rax        # 1b2fc <g_42+0x2bc>
   10899:	48 89 85 38 ff ff ff 	mov    %rax,-0xc8(%rbp)
   108a0:	48 8d 05 85 b0 00 00 	lea    0xb085(%rip),%rax        # 1b92c <g_924>
   108a7:	48 89 85 40 ff ff ff 	mov    %rax,-0xc0(%rbp)
   108ae:	48 8d 05 47 aa 00 00 	lea    0xaa47(%rip),%rax        # 1b2fc <g_42+0x2bc>
   108b5:	48 89 85 48 ff ff ff 	mov    %rax,-0xb8(%rbp)
   108bc:	48 c7 85 50 ff ff ff 	movq   $0x0,-0xb0(%rbp)
   108c3:	00 00 00 00 
   108c7:	48 8d 05 96 a7 00 00 	lea    0xa796(%rip),%rax        # 1b064 <g_42+0x24>
   108ce:	48 89 85 58 ff ff ff 	mov    %rax,-0xa8(%rbp)
   108d5:	48 8d 05 50 b0 00 00 	lea    0xb050(%rip),%rax        # 1b92c <g_924>
   108dc:	48 89 85 60 ff ff ff 	mov    %rax,-0xa0(%rbp)
   108e3:	48 8d 45 a0          	lea    -0x60(%rbp),%rax
   108e7:	48 83 c0 0c          	add    $0xc,%rax
   108eb:	48 89 85 68 ff ff ff 	mov    %rax,-0x98(%rbp)
   108f2:	48 8d 05 33 b0 00 00 	lea    0xb033(%rip),%rax        # 1b92c <g_924>
   108f9:	48 89 85 70 ff ff ff 	mov    %rax,-0x90(%rbp)
   10900:	48 8d 05 25 b0 00 00 	lea    0xb025(%rip),%rax        # 1b92c <g_924>
   10907:	48 89 85 78 ff ff ff 	mov    %rax,-0x88(%rbp)
   1090e:	48 8d 45 a0          	lea    -0x60(%rbp),%rax
   10912:	48 83 c0 14          	add    $0x14,%rax
   10916:	48 89 45 80          	mov    %rax,-0x80(%rbp)
   1091a:	48 8d 45 a0          	lea    -0x60(%rbp),%rax
   1091e:	48 83 c0 0c          	add    $0xc,%rax
   10922:	48 89 45 88          	mov    %rax,-0x78(%rbp)
   10926:	c7 85 04 ff ff ff 8d 	movl   $0x400a78d,-0xfc(%rbp)
   1092d:	a7 00 04 
   10930:	c7 85 f8 fe ff ff 00 	movl   $0x0,-0x108(%rbp)
   10937:	00 00 00 
   1093a:	eb 67                	jmp    109a3 <func_25+0x1a8>
   1093c:	c7 85 fc fe ff ff 00 	movl   $0x0,-0x104(%rbp)
   10943:	00 00 00 
   10946:	eb 4b                	jmp    10993 <func_25+0x198>
   10948:	c7 85 00 ff ff ff 00 	movl   $0x0,-0x100(%rbp)
   1094f:	00 00 00 
   10952:	eb 2f                	jmp    10983 <func_25+0x188>
   10954:	8b 85 00 ff ff ff    	mov    -0x100(%rbp),%eax
   1095a:	48 63 c8             	movslq %eax,%rcx
   1095d:	8b 85 fc fe ff ff    	mov    -0x104(%rbp),%eax
   10963:	48 63 d0             	movslq %eax,%rdx
   10966:	8b 85 f8 fe ff ff    	mov    -0x108(%rbp),%eax
   1096c:	48 98                	cltq   
   1096e:	48 01 ca             	add    %rcx,%rdx
   10971:	48 01 d0             	add    %rdx,%rax
   10974:	c7 44 85 a0 00 00 00 	movl   $0x0,-0x60(%rbp,%rax,4)
   1097b:	00 
   1097c:	83 85 00 ff ff ff 01 	addl   $0x1,-0x100(%rbp)
   10983:	83 bd 00 ff ff ff 00 	cmpl   $0x0,-0x100(%rbp)
   1098a:	7e c8                	jle    10954 <func_25+0x159>
   1098c:	83 85 fc fe ff ff 01 	addl   $0x1,-0x104(%rbp)
   10993:	83 bd fc fe ff ff 00 	cmpl   $0x0,-0x104(%rbp)
   1099a:	7e ac                	jle    10948 <func_25+0x14d>
   1099c:	83 85 f8 fe ff ff 01 	addl   $0x1,-0x108(%rbp)
   109a3:	83 bd f8 fe ff ff 07 	cmpl   $0x7,-0x108(%rbp)
   109aa:	7e 90                	jle    1093c <func_25+0x141>
   109ac:	c7 85 f8 fe ff ff 00 	movl   $0x0,-0x108(%rbp)
   109b3:	00 00 00 
   109b6:	eb 1b                	jmp    109d3 <func_25+0x1d8>
   109b8:	8b 85 f8 fe ff ff    	mov    -0x108(%rbp),%eax
   109be:	48 98                	cltq   
   109c0:	48 8d 15 65 af 00 00 	lea    0xaf65(%rip),%rdx        # 1b92c <g_924>
   109c7:	48 89 54 c5 90       	mov    %rdx,-0x70(%rbp,%rax,8)
   109cc:	83 85 f8 fe ff ff 01 	addl   $0x1,-0x108(%rbp)
   109d3:	83 bd f8 fe ff ff 01 	cmpl   $0x1,-0x108(%rbp)
   109da:	7e dc                	jle    109b8 <func_25+0x1bd>
   109dc:	8b 9d e8 fe ff ff    	mov    -0x118(%rbp),%ebx
   109e2:	48 8b 05 4d ae 00 00 	mov    0xae4d(%rip),%rax        # 1b836 <g_244+0x16>
   109e9:	89 85 9c fe ff ff    	mov    %eax,-0x164(%rbp)
   109ef:	8b 85 e4 fe ff ff    	mov    -0x11c(%rbp),%eax
   109f5:	44 0f b7 e0          	movzwl %ax,%r12d
   109f9:	8b 45 b8             	mov    -0x48(%rbp),%eax
   109fc:	4c 63 e8             	movslq %eax,%r13
   109ff:	0f b6 05 7e ae 00 00 	movzbl 0xae7e(%rip),%eax        # 1b884 <g_517+0x4>
   10a06:	44 0f b6 f0          	movzbl %al,%r14d
   10a0a:	8b 05 b0 ad 00 00    	mov    0xadb0(%rip),%eax        # 1b7c0 <g_116>
   10a10:	c1 e0 07             	shl    $0x7,%eax
   10a13:	c1 f8 07             	sar    $0x7,%eax
   10a16:	44 0f b7 f8          	movzwl %ax,%r15d
   10a1a:	8b 05 aa ad 00 00    	mov    0xadaa(%rip),%eax        # 1b7ca <g_116+0xa>
   10a20:	98                   	cwtl   
   10a21:	89 85 98 fe ff ff    	mov    %eax,-0x168(%rbp)
   10a27:	0f b6 05 96 ad 00 00 	movzbl 0xad96(%rip),%eax        # 1b7c4 <g_116+0x4>
   10a2e:	0f b6 c0             	movzbl %al,%eax
   10a31:	89 85 94 fe ff ff    	mov    %eax,-0x16c(%rbp)
   10a37:	8b 05 ef a5 00 00    	mov    0xa5ef(%rip),%eax        # 1b02c <g_38>
   10a3d:	0f be c0             	movsbl %al,%eax
   10a40:	89 85 90 fe ff ff    	mov    %eax,-0x170(%rbp)
   10a46:	8b 85 e4 fe ff ff    	mov    -0x11c(%rbp),%eax
   10a4c:	89 85 8c fe ff ff    	mov    %eax,-0x174(%rbp)
   10a52:	8b 05 a4 a8 00 00    	mov    0xa8a4(%rip),%eax        # 1b2fc <g_42+0x2bc>
   10a58:	85 c0                	test   %eax,%eax
   10a5a:	0f 85 f4 00 00 00    	jne    10b54 <func_25+0x359>
   10a60:	8b 05 be a5 00 00    	mov    0xa5be(%rip),%eax        # 1b024 <g_20>
   10a66:	89 85 88 fe ff ff    	mov    %eax,-0x178(%rbp)
   10a6c:	8b 85 e4 fe ff ff    	mov    -0x11c(%rbp),%eax
   10a72:	0f b7 c0             	movzwl %ax,%eax
   10a75:	be 0f 00 00 00       	mov    $0xf,%esi
   10a7a:	89 c7                	mov    %eax,%edi
   10a7c:	e8 85 53 ff ff       	callq  5e06 <safe_lshift_func_uint16_t_u_u>
   10a81:	bf 24 c8 ff ff       	mov    $0xffffc824,%edi
   10a86:	e8 12 49 ff ff       	callq  539d <safe_unary_minus_func_int16_t_s>
   10a8b:	98                   	cwtl   
   10a8c:	33 85 e8 fe ff ff    	xor    -0x118(%rbp),%eax
   10a92:	83 f8 f7             	cmp    $0xfffffff7,%eax
   10a95:	0f 9c c0             	setl   %al
   10a98:	0f b6 c0             	movzbl %al,%eax
   10a9b:	39 85 dc fe ff ff    	cmp    %eax,-0x124(%rbp)
   10aa1:	48 8b 85 08 ff ff ff 	mov    -0xf8(%rbp),%rax
   10aa8:	0f b7 c0             	movzwl %ax,%eax
   10aab:	be 9a 81 00 00       	mov    $0x819a,%esi
   10ab0:	89 c7                	mov    %eax,%edi
   10ab2:	e8 48 52 ff ff       	callq  5cff <safe_add_func_uint16_t_u_u>
   10ab7:	48 8b 95 10 ff ff ff 	mov    -0xf0(%rbp),%rdx
   10abe:	8b 12                	mov    (%rdx),%edx
   10ac0:	0f b7 c0             	movzwl %ax,%eax
   10ac3:	31 c2                	xor    %eax,%edx
   10ac5:	48 8b 85 10 ff ff ff 	mov    -0xf0(%rbp),%rax
   10acc:	89 10                	mov    %edx,(%rax)
   10ace:	48 8b 85 10 ff ff ff 	mov    -0xf0(%rbp),%rax
   10ad5:	8b 00                	mov    (%rax),%eax
   10ad7:	8b b5 88 fe ff ff    	mov    -0x178(%rbp),%esi
   10add:	89 c7                	mov    %eax,%edi
   10adf:	e8 d2 4a ff ff       	callq  55b6 <safe_add_func_int32_t_s_s>
   10ae4:	48 98                	cltq   
   10ae6:	48 c7 c6 f6 ff ff ff 	mov    $0xfffffffffffffff6,%rsi
   10aed:	48 89 c7             	mov    %rax,%rdi
   10af0:	e8 bf 4e ff ff       	callq  59b4 <safe_mod_func_int64_t_s_s>
   10af5:	48 85 c0             	test   %rax,%rax
   10af8:	74 10                	je     10b0a <func_25+0x30f>
   10afa:	83 bd e0 fe ff ff 00 	cmpl   $0x0,-0x120(%rbp)
   10b01:	74 07                	je     10b0a <func_25+0x30f>
   10b03:	ba 01 00 00 00       	mov    $0x1,%edx
   10b08:	eb 05                	jmp    10b0f <func_25+0x314>
   10b0a:	ba 00 00 00 00       	mov    $0x0,%edx
   10b0f:	8b 85 e0 fe ff ff    	mov    -0x120(%rbp),%eax
   10b15:	89 c6                	mov    %eax,%esi
   10b17:	89 d7                	mov    %edx,%edi
   10b19:	e8 e7 4a ff ff       	callq  5605 <safe_sub_func_int32_t_s_s>
   10b1e:	0f b7 c0             	movzwl %ax,%eax
   10b21:	be 0c 00 00 00       	mov    $0xc,%esi
   10b26:	89 c7                	mov    %eax,%edi
   10b28:	e8 91 52 ff ff       	callq  5dbe <safe_lshift_func_uint16_t_u_s>
   10b2d:	0f b7 c0             	movzwl %ax,%eax
   10b30:	48 89 c6             	mov    %rax,%rsi
   10b33:	bf 01 00 00 00       	mov    $0x1,%edi
   10b38:	e8 77 4e ff ff       	callq  59b4 <safe_mod_func_int64_t_s_s>
   10b3d:	48 8b 95 18 ff ff ff 	mov    -0xe8(%rbp),%rdx
   10b44:	48 8b 12             	mov    (%rdx),%rdx
   10b47:	48 31 c2             	xor    %rax,%rdx
   10b4a:	48 8b 85 18 ff ff ff 	mov    -0xe8(%rbp),%rax
   10b51:	48 89 10             	mov    %rdx,(%rax)
   10b54:	b8 01 00 00 00       	mov    $0x1,%eax
   10b59:	98                   	cwtl   
   10b5a:	8b b5 8c fe ff ff    	mov    -0x174(%rbp),%esi
   10b60:	89 c7                	mov    %eax,%edi
   10b62:	e8 7a 49 ff ff       	callq  54e1 <safe_lshift_func_int16_t_s_u>
   10b67:	0f bf d0             	movswl %ax,%edx
   10b6a:	8b 05 b4 a4 00 00    	mov    0xa4b4(%rip),%eax        # 1b024 <g_20>
   10b70:	39 c2                	cmp    %eax,%edx
   10b72:	48 8b 05 37 ab 00 00 	mov    0xab37(%rip),%rax        # 1b6b0 <g_97+0x370>
   10b79:	89 c2                	mov    %eax,%edx
   10b7b:	8b 05 b3 a7 00 00    	mov    0xa7b3(%rip),%eax        # 1b334 <g_44>
   10b81:	09 d0                	or     %edx,%eax
   10b83:	0f be c0             	movsbl %al,%eax
   10b86:	8b b5 90 fe ff ff    	mov    -0x170(%rbp),%esi
   10b8c:	89 c7                	mov    %eax,%edi
   10b8e:	e8 9e 46 ff ff       	callq  5231 <safe_mod_func_int8_t_s_s>
   10b93:	0f be c0             	movsbl %al,%eax
   10b96:	89 c7                	mov    %eax,%edi
   10b98:	e8 8d 2d 00 00       	callq  1392a <func_74>
   10b9d:	89 c6                	mov    %eax,%esi
   10b9f:	48 8b 85 08 ff ff ff 	mov    -0xf8(%rbp),%rax
   10ba6:	4c 8d 05 87 a7 00 00 	lea    0xa787(%rip),%r8        # 1b334 <g_44>
   10bad:	8b 8d 98 fe ff ff    	mov    -0x168(%rbp),%ecx
   10bb3:	8b 95 94 fe ff ff    	mov    -0x16c(%rbp),%edx
   10bb9:	48 89 c7             	mov    %rax,%rdi
   10bbc:	e8 32 27 00 00       	callq  132f3 <func_68>
   10bc1:	48 89 c2             	mov    %rax,%rdx
   10bc4:	48 8b 85 10 ff ff ff 	mov    -0xf0(%rbp),%rax
   10bcb:	48 89 c6             	mov    %rax,%rsi
   10bce:	48 89 d7             	mov    %rdx,%rdi
   10bd1:	e8 91 17 00 00       	callq  12367 <func_65>
   10bd6:	48 8b 85 10 ff ff ff 	mov    -0xf0(%rbp),%rax
   10bdd:	8b 00                	mov    (%rax),%eax
   10bdf:	0f b7 c0             	movzwl %ax,%eax
   10be2:	44 89 fe             	mov    %r15d,%esi
   10be5:	89 c7                	mov    %eax,%edi
   10be7:	e8 51 51 ff ff       	callq  5d3d <safe_mul_func_uint16_t_u_u>
   10bec:	0f b7 c0             	movzwl %ax,%eax
   10bef:	44 89 f6             	mov    %r14d,%esi
   10bf2:	89 c7                	mov    %eax,%edi
   10bf4:	e8 63 51 ff ff       	callq  5d5c <safe_mod_func_uint16_t_u_u>
   10bf9:	0f b7 c8             	movzwl %ax,%ecx
   10bfc:	48 8d 85 a0 fe ff ff 	lea    -0x160(%rbp),%rax
   10c03:	4c 89 ea             	mov    %r13,%rdx
   10c06:	89 ce                	mov    %ecx,%esi
   10c08:	48 89 c7             	mov    %rax,%rdi
   10c0b:	e8 d0 08 00 00       	callq  114e0 <func_58>
   10c10:	83 bd ec fe ff ff 06 	cmpl   $0x6,-0x114(%rbp)
   10c17:	48 8b 85 08 ff ff ff 	mov    -0xf8(%rbp),%rax
   10c1e:	88 05 14 a7 00 00    	mov    %al,0xa714(%rip)        # 1b338 <g_57>
   10c24:	0f b6 05 0d a7 00 00 	movzbl 0xa70d(%rip),%eax        # 1b338 <g_57>
   10c2b:	0f be d0             	movsbl %al,%edx
   10c2e:	48 8b 05 2b c5 00 00 	mov    0xc52b(%rip),%rax        # 1d160 <g_446>
   10c35:	48 8b 00             	mov    (%rax),%rax
   10c38:	48 b9 35 44 dd a2 bd 	movabs $0xf937b1bda2dd4435,%rcx
   10c3f:	b1 37 f9 
   10c42:	48 39 c8             	cmp    %rcx,%rax
   10c45:	0f 95 c0             	setne  %al
   10c48:	0f b6 c0             	movzbl %al,%eax
   10c4b:	39 c2                	cmp    %eax,%edx
   10c4d:	0f 9d c0             	setge  %al
   10c50:	0f b6 c0             	movzbl %al,%eax
   10c53:	44 89 e6             	mov    %r12d,%esi
   10c56:	89 c7                	mov    %eax,%edi
   10c58:	e8 a2 50 ff ff       	callq  5cff <safe_add_func_uint16_t_u_u>
   10c5d:	98                   	cwtl   
   10c5e:	8b b5 9c fe ff ff    	mov    -0x164(%rbp),%esi
   10c64:	89 c7                	mov    %eax,%edi
   10c66:	e8 76 48 ff ff       	callq  54e1 <safe_lshift_func_int16_t_s_u>
   10c6b:	0f bf d0             	movswl %ax,%edx
   10c6e:	48 8b 85 10 ff ff ff 	mov    -0xf0(%rbp),%rax
   10c75:	89 10                	mov    %edx,(%rax)
   10c77:	48 8b 85 10 ff ff ff 	mov    -0xf0(%rbp),%rax
   10c7e:	8b 00                	mov    (%rax),%eax
   10c80:	48 98                	cltq   
   10c82:	89 de                	mov    %ebx,%esi
   10c84:	48 89 c7             	mov    %rax,%rdi
   10c87:	e8 56 00 00 00       	callq  10ce2 <func_47>
   10c8c:	48 c7 c6 ff ff ff ff 	mov    $0xffffffffffffffff,%rsi
   10c93:	48 89 c7             	mov    %rax,%rdi
   10c96:	e8 e5 53 ff ff       	callq  6080 <safe_mod_func_uint64_t_u_u>
   10c9b:	48 8d 15 8a ac 00 00 	lea    0xac8a(%rip),%rdx        # 1b92c <g_924>
   10ca2:	8b 12                	mov    (%rdx),%edx
   10ca4:	31 c2                	xor    %eax,%edx
   10ca6:	48 8d 05 7f ac 00 00 	lea    0xac7f(%rip),%rax        # 1b92c <g_924>
   10cad:	89 10                	mov    %edx,(%rax)
   10caf:	83 ad 04 ff ff ff 01 	subl   $0x1,-0xfc(%rbp)
   10cb6:	8b 85 dc fe ff ff    	mov    -0x124(%rbp),%eax
   10cbc:	48 8b 5d c8          	mov    -0x38(%rbp),%rbx
   10cc0:	64 48 33 1c 25 28 00 	xor    %fs:0x28,%rbx
   10cc7:	00 00 
   10cc9:	74 05                	je     10cd0 <func_25+0x4d5>
   10ccb:	e8 a0 43 ff ff       	callq  5070 <__stack_chk_fail@plt>
   10cd0:	48 81 c4 58 01 00 00 	add    $0x158,%rsp
   10cd7:	5b                   	pop    %rbx
   10cd8:	41 5c                	pop    %r12
   10cda:	41 5d                	pop    %r13
   10cdc:	41 5e                	pop    %r14
   10cde:	41 5f                	pop    %r15
   10ce0:	5d                   	pop    %rbp
   10ce1:	c3                   	retq   

0000000000010ce2 <func_47>:
   10ce2:	f3 0f 1e fa          	endbr64 
   10ce6:	55                   	push   %rbp
   10ce7:	48 89 e5             	mov    %rsp,%rbp
   10cea:	48 81 ec 90 0e 00 00 	sub    $0xe90,%rsp
   10cf1:	48 89 bd 78 f1 ff ff 	mov    %rdi,-0xe88(%rbp)
   10cf8:	89 b5 74 f1 ff ff    	mov    %esi,-0xe8c(%rbp)
   10cfe:	64 48 8b 04 25 28 00 	mov    %fs:0x28,%rax
   10d05:	00 00 
   10d07:	48 89 45 f8          	mov    %rax,-0x8(%rbp)
   10d0b:	31 c0                	xor    %eax,%eax
   10d0d:	48 c7 85 c8 f1 ff ff 	movq   $0x1,-0xe38(%rbp)
   10d14:	01 00 00 00 
   10d18:	48 8d 85 20 f4 ff ff 	lea    -0xbe0(%rbp),%rax
   10d1f:	48 8d 15 1a b6 00 00 	lea    0xb61a(%rip),%rdx        # 1c340 <g_2691+0x2b8>
   10d26:	b9 38 00 00 00       	mov    $0x38,%ecx
   10d2b:	48 89 c7             	mov    %rax,%rdi
   10d2e:	48 89 d6             	mov    %rdx,%rsi
   10d31:	f3 48 a5             	rep movsq %ds:(%rsi),%es:(%rdi)
   10d34:	48 8d 05 fd d2 00 00 	lea    0xd2fd(%rip),%rax        # 1e038 <g_496>
   10d3b:	48 89 85 d0 f1 ff ff 	mov    %rax,-0xe30(%rbp)
   10d42:	48 8d 85 70 f8 ff ff 	lea    -0x790(%rbp),%rax
   10d49:	48 8d 15 b0 b7 00 00 	lea    0xb7b0(%rip),%rdx        # 1c500 <g_2691+0x478>
   10d50:	b9 f0 00 00 00       	mov    $0xf0,%ecx
   10d55:	48 89 c7             	mov    %rax,%rdi
   10d58:	48 89 d6             	mov    %rdx,%rsi
   10d5b:	f3 48 a5             	rep movsq %ds:(%rsi),%es:(%rdi)
   10d5e:	48 8d 85 70 f8 ff ff 	lea    -0x790(%rbp),%rax
   10d65:	48 05 80 01 00 00    	add    $0x180,%rax
   10d6b:	48 89 85 a0 f1 ff ff 	mov    %rax,-0xe60(%rbp)
   10d72:	48 8d 05 6f aa 00 00 	lea    0xaa6f(%rip),%rax        # 1b7e8 <g_123>
   10d79:	48 89 85 a8 f1 ff ff 	mov    %rax,-0xe58(%rbp)
   10d80:	48 8d 85 50 f2 ff ff 	lea    -0xdb0(%rbp),%rax
   10d87:	48 83 c0 08          	add    $0x8,%rax
   10d8b:	48 89 85 a0 f2 ff ff 	mov    %rax,-0xd60(%rbp)
   10d92:	48 8d 85 50 f2 ff ff 	lea    -0xdb0(%rbp),%rax
   10d99:	48 83 c0 08          	add    $0x8,%rax
   10d9d:	48 89 85 a8 f2 ff ff 	mov    %rax,-0xd58(%rbp)
   10da4:	48 8d 85 50 f2 ff ff 	lea    -0xdb0(%rbp),%rax
   10dab:	48 83 c0 08          	add    $0x8,%rax
   10daf:	48 89 85 b0 f2 ff ff 	mov    %rax,-0xd50(%rbp)
   10db6:	48 8d 85 50 f2 ff ff 	lea    -0xdb0(%rbp),%rax
   10dbd:	48 83 c0 08          	add    $0x8,%rax
   10dc1:	48 89 85 b8 f2 ff ff 	mov    %rax,-0xd48(%rbp)
   10dc8:	48 8d 85 50 f2 ff ff 	lea    -0xdb0(%rbp),%rax
   10dcf:	48 83 c0 08          	add    $0x8,%rax
   10dd3:	48 89 85 c0 f2 ff ff 	mov    %rax,-0xd40(%rbp)
   10dda:	48 8d 85 50 f2 ff ff 	lea    -0xdb0(%rbp),%rax
   10de1:	48 83 c0 08          	add    $0x8,%rax
   10de5:	48 89 85 c8 f2 ff ff 	mov    %rax,-0xd38(%rbp)
   10dec:	48 8d 85 50 f2 ff ff 	lea    -0xdb0(%rbp),%rax
   10df3:	48 83 c0 08          	add    $0x8,%rax
   10df7:	48 89 85 d0 f2 ff ff 	mov    %rax,-0xd30(%rbp)
   10dfe:	48 8d 85 a0 f2 ff ff 	lea    -0xd60(%rbp),%rax
   10e05:	48 83 c0 10          	add    $0x10,%rax
   10e09:	48 89 85 d8 f1 ff ff 	mov    %rax,-0xe28(%rbp)
   10e10:	48 c7 85 e0 f1 ff ff 	movq   $0x0,-0xe20(%rbp)
   10e17:	00 00 00 00 
   10e1b:	66 c7 85 80 f1 ff ff 	movw   $0x1,-0xe80(%rbp)
   10e22:	01 00 
   10e24:	48 8d 05 41 a3 00 00 	lea    0xa341(%rip),%rax        # 1b16c <g_42+0x12c>
   10e2b:	48 89 85 e8 f1 ff ff 	mov    %rax,-0xe18(%rbp)
   10e32:	c7 85 90 f1 ff ff 01 	movl   $0x3d8d2401,-0xe70(%rbp)
   10e39:	24 8d 3d 
   10e3c:	66 c7 85 82 f1 ff ff 	movw   $0x8a49,-0xe7e(%rbp)
   10e43:	49 8a 
   10e45:	c7 85 94 f1 ff ff 04 	movl   $0xa368404,-0xe6c(%rbp)
   10e4c:	84 36 0a 
   10e4f:	48 8d 05 ba c6 00 00 	lea    0xc6ba(%rip),%rax        # 1d510 <g_991>
   10e56:	48 89 85 e0 f5 ff ff 	mov    %rax,-0xa20(%rbp)
   10e5d:	48 8d 85 a0 f1 ff ff 	lea    -0xe60(%rbp),%rax
   10e64:	48 89 85 e8 f5 ff ff 	mov    %rax,-0xa18(%rbp)
   10e6b:	48 8d 05 9e c6 00 00 	lea    0xc69e(%rip),%rax        # 1d510 <g_991>
   10e72:	48 89 85 f0 f5 ff ff 	mov    %rax,-0xa10(%rbp)
   10e79:	48 8d 05 90 c6 00 00 	lea    0xc690(%rip),%rax        # 1d510 <g_991>
   10e80:	48 89 85 f8 f5 ff ff 	mov    %rax,-0xa08(%rbp)
   10e87:	48 8d 85 a0 f1 ff ff 	lea    -0xe60(%rbp),%rax
   10e8e:	48 89 85 00 f6 ff ff 	mov    %rax,-0xa00(%rbp)
   10e95:	48 8d 05 74 c6 00 00 	lea    0xc674(%rip),%rax        # 1d510 <g_991>
   10e9c:	48 89 85 08 f6 ff ff 	mov    %rax,-0x9f8(%rbp)
   10ea3:	48 8d 05 66 c6 00 00 	lea    0xc666(%rip),%rax        # 1d510 <g_991>
   10eaa:	48 89 85 10 f6 ff ff 	mov    %rax,-0x9f0(%rbp)
   10eb1:	48 8d 05 58 c6 00 00 	lea    0xc658(%rip),%rax        # 1d510 <g_991>
   10eb8:	48 89 85 18 f6 ff ff 	mov    %rax,-0x9e8(%rbp)
   10ebf:	48 c7 85 20 f6 ff ff 	movq   $0x0,-0x9e0(%rbp)
   10ec6:	00 00 00 00 
   10eca:	48 8d 05 3f c6 00 00 	lea    0xc63f(%rip),%rax        # 1d510 <g_991>
   10ed1:	48 89 85 28 f6 ff ff 	mov    %rax,-0x9d8(%rbp)
   10ed8:	48 8d 05 31 c6 00 00 	lea    0xc631(%rip),%rax        # 1d510 <g_991>
   10edf:	48 89 85 30 f6 ff ff 	mov    %rax,-0x9d0(%rbp)
   10ee6:	48 8d 05 23 c6 00 00 	lea    0xc623(%rip),%rax        # 1d510 <g_991>
   10eed:	48 89 85 38 f6 ff ff 	mov    %rax,-0x9c8(%rbp)
   10ef4:	48 8d 85 a0 f1 ff ff 	lea    -0xe60(%rbp),%rax
   10efb:	48 89 85 40 f6 ff ff 	mov    %rax,-0x9c0(%rbp)
   10f02:	48 8d 85 a0 f1 ff ff 	lea    -0xe60(%rbp),%rax
   10f09:	48 89 85 48 f6 ff ff 	mov    %rax,-0x9b8(%rbp)
   10f10:	48 8d 05 f9 c5 00 00 	lea    0xc5f9(%rip),%rax        # 1d510 <g_991>
   10f17:	48 89 85 50 f6 ff ff 	mov    %rax,-0x9b0(%rbp)
   10f1e:	48 8d 05 eb c5 00 00 	lea    0xc5eb(%rip),%rax        # 1d510 <g_991>
   10f25:	48 89 85 58 f6 ff ff 	mov    %rax,-0x9a8(%rbp)
   10f2c:	48 8d 05 dd c5 00 00 	lea    0xc5dd(%rip),%rax        # 1d510 <g_991>
   10f33:	48 89 85 60 f6 ff ff 	mov    %rax,-0x9a0(%rbp)
   10f3a:	48 8d 85 a0 f1 ff ff 	lea    -0xe60(%rbp),%rax
   10f41:	48 89 85 68 f6 ff ff 	mov    %rax,-0x998(%rbp)
   10f48:	48 c7 85 70 f6 ff ff 	movq   $0x0,-0x990(%rbp)
   10f4f:	00 00 00 00 
   10f53:	48 8d 05 b6 c5 00 00 	lea    0xc5b6(%rip),%rax        # 1d510 <g_991>
   10f5a:	48 89 85 78 f6 ff ff 	mov    %rax,-0x988(%rbp)
   10f61:	48 8d 05 a8 c5 00 00 	lea    0xc5a8(%rip),%rax        # 1d510 <g_991>
   10f68:	48 89 85 80 f6 ff ff 	mov    %rax,-0x980(%rbp)
   10f6f:	48 8d 05 9a c5 00 00 	lea    0xc59a(%rip),%rax        # 1d510 <g_991>
   10f76:	48 89 85 88 f6 ff ff 	mov    %rax,-0x978(%rbp)
   10f7d:	48 8d 05 8c c5 00 00 	lea    0xc58c(%rip),%rax        # 1d510 <g_991>
   10f84:	48 89 85 90 f6 ff ff 	mov    %rax,-0x970(%rbp)
   10f8b:	48 8d 05 7e c5 00 00 	lea    0xc57e(%rip),%rax        # 1d510 <g_991>
   10f92:	48 89 85 98 f6 ff ff 	mov    %rax,-0x968(%rbp)
   10f99:	48 8d 05 70 c5 00 00 	lea    0xc570(%rip),%rax        # 1d510 <g_991>
   10fa0:	48 89 85 a0 f6 ff ff 	mov    %rax,-0x960(%rbp)
   10fa7:	48 8d 05 62 c5 00 00 	lea    0xc562(%rip),%rax        # 1d510 <g_991>
   10fae:	48 89 85 a8 f6 ff ff 	mov    %rax,-0x958(%rbp)
   10fb5:	48 8d 05 54 c5 00 00 	lea    0xc554(%rip),%rax        # 1d510 <g_991>
   10fbc:	48 89 85 b0 f6 ff ff 	mov    %rax,-0x950(%rbp)
   10fc3:	48 8d 85 a0 f1 ff ff 	lea    -0xe60(%rbp),%rax
   10fca:	48 89 85 b8 f6 ff ff 	mov    %rax,-0x948(%rbp)
   10fd1:	48 8d 05 38 c5 00 00 	lea    0xc538(%rip),%rax        # 1d510 <g_991>
   10fd8:	48 89 85 c0 f6 ff ff 	mov    %rax,-0x940(%rbp)
   10fdf:	48 c7 85 c8 f6 ff ff 	movq   $0x0,-0x938(%rbp)
   10fe6:	00 00 00 00 
   10fea:	48 8d 85 a0 f1 ff ff 	lea    -0xe60(%rbp),%rax
   10ff1:	48 89 85 d0 f6 ff ff 	mov    %rax,-0x930(%rbp)
   10ff8:	48 8d 05 11 c5 00 00 	lea    0xc511(%rip),%rax        # 1d510 <g_991>
   10fff:	48 89 85 d8 f6 ff ff 	mov    %rax,-0x928(%rbp)
   11006:	48 8d 85 a0 f1 ff ff 	lea    -0xe60(%rbp),%rax
   1100d:	48 89 85 e0 f6 ff ff 	mov    %rax,-0x920(%rbp)
   11014:	48 8d 85 a0 f1 ff ff 	lea    -0xe60(%rbp),%rax
   1101b:	48 89 85 e8 f6 ff ff 	mov    %rax,-0x918(%rbp)
   11022:	48 8d 05 e7 c4 00 00 	lea    0xc4e7(%rip),%rax        # 1d510 <g_991>
   11029:	48 89 85 f0 f6 ff ff 	mov    %rax,-0x910(%rbp)
   11030:	48 8d 85 a0 f1 ff ff 	lea    -0xe60(%rbp),%rax
   11037:	48 89 85 f8 f6 ff ff 	mov    %rax,-0x908(%rbp)
   1103e:	48 8d 85 a0 f1 ff ff 	lea    -0xe60(%rbp),%rax
   11045:	48 89 85 00 f7 ff ff 	mov    %rax,-0x900(%rbp)
   1104c:	48 8d 85 a0 f1 ff ff 	lea    -0xe60(%rbp),%rax
   11053:	48 89 85 08 f7 ff ff 	mov    %rax,-0x8f8(%rbp)
   1105a:	48 8d 85 a0 f1 ff ff 	lea    -0xe60(%rbp),%rax
   11061:	48 89 85 10 f7 ff ff 	mov    %rax,-0x8f0(%rbp)
   11068:	48 8d 85 a0 f1 ff ff 	lea    -0xe60(%rbp),%rax
   1106f:	48 89 85 18 f7 ff ff 	mov    %rax,-0x8e8(%rbp)
   11076:	48 8d 05 93 c4 00 00 	lea    0xc493(%rip),%rax        # 1d510 <g_991>
   1107d:	48 89 85 20 f7 ff ff 	mov    %rax,-0x8e0(%rbp)
   11084:	48 c7 85 28 f7 ff ff 	movq   $0x0,-0x8d8(%rbp)
   1108b:	00 00 00 00 
   1108f:	48 8d 85 a0 f1 ff ff 	lea    -0xe60(%rbp),%rax
   11096:	48 89 85 30 f7 ff ff 	mov    %rax,-0x8d0(%rbp)
   1109d:	48 8d 85 a0 f1 ff ff 	lea    -0xe60(%rbp),%rax
   110a4:	48 89 85 38 f7 ff ff 	mov    %rax,-0x8c8(%rbp)
   110ab:	48 8d 05 5e c4 00 00 	lea    0xc45e(%rip),%rax        # 1d510 <g_991>
   110b2:	48 89 85 40 f7 ff ff 	mov    %rax,-0x8c0(%rbp)
   110b9:	48 8d 05 50 c4 00 00 	lea    0xc450(%rip),%rax        # 1d510 <g_991>
   110c0:	48 89 85 48 f7 ff ff 	mov    %rax,-0x8b8(%rbp)
   110c7:	48 8d 85 a0 f1 ff ff 	lea    -0xe60(%rbp),%rax
   110ce:	48 89 85 50 f7 ff ff 	mov    %rax,-0x8b0(%rbp)
   110d5:	48 8d 85 a0 f1 ff ff 	lea    -0xe60(%rbp),%rax
   110dc:	48 89 85 58 f7 ff ff 	mov    %rax,-0x8a8(%rbp)
   110e3:	48 8d 85 a0 f1 ff ff 	lea    -0xe60(%rbp),%rax
   110ea:	48 89 85 60 f7 ff ff 	mov    %rax,-0x8a0(%rbp)
   110f1:	48 8d 05 18 c4 00 00 	lea    0xc418(%rip),%rax        # 1d510 <g_991>
   110f8:	48 89 85 68 f7 ff ff 	mov    %rax,-0x898(%rbp)
   110ff:	48 8d 05 0a c4 00 00 	lea    0xc40a(%rip),%rax        # 1d510 <g_991>
   11106:	48 89 85 70 f7 ff ff 	mov    %rax,-0x890(%rbp)
   1110d:	48 8d 85 a0 f1 ff ff 	lea    -0xe60(%rbp),%rax
   11114:	48 89 85 78 f7 ff ff 	mov    %rax,-0x888(%rbp)
   1111b:	48 8d 05 ee c3 00 00 	lea    0xc3ee(%rip),%rax        # 1d510 <g_991>
   11122:	48 89 85 80 f7 ff ff 	mov    %rax,-0x880(%rbp)
   11129:	48 8d 05 e0 c3 00 00 	lea    0xc3e0(%rip),%rax        # 1d510 <g_991>
   11130:	48 89 85 88 f7 ff ff 	mov    %rax,-0x878(%rbp)
   11137:	48 8d 85 a0 f1 ff ff 	lea    -0xe60(%rbp),%rax
   1113e:	48 89 85 90 f7 ff ff 	mov    %rax,-0x870(%rbp)
   11145:	48 8d 05 c4 c3 00 00 	lea    0xc3c4(%rip),%rax        # 1d510 <g_991>
   1114c:	48 89 85 98 f7 ff ff 	mov    %rax,-0x868(%rbp)
   11153:	48 8d 05 b6 c3 00 00 	lea    0xc3b6(%rip),%rax        # 1d510 <g_991>
   1115a:	48 89 85 a0 f7 ff ff 	mov    %rax,-0x860(%rbp)
   11161:	48 8d 05 a8 c3 00 00 	lea    0xc3a8(%rip),%rax        # 1d510 <g_991>
   11168:	48 89 85 a8 f7 ff ff 	mov    %rax,-0x858(%rbp)
   1116f:	48 8d 05 9a c3 00 00 	lea    0xc39a(%rip),%rax        # 1d510 <g_991>
   11176:	48 89 85 b0 f7 ff ff 	mov    %rax,-0x850(%rbp)
   1117d:	48 8d 05 8c c3 00 00 	lea    0xc38c(%rip),%rax        # 1d510 <g_991>
   11184:	48 89 85 b8 f7 ff ff 	mov    %rax,-0x848(%rbp)
   1118b:	48 8d 85 a0 f1 ff ff 	lea    -0xe60(%rbp),%rax
   11192:	48 89 85 c0 f7 ff ff 	mov    %rax,-0x840(%rbp)
   11199:	48 8d 05 70 c3 00 00 	lea    0xc370(%rip),%rax        # 1d510 <g_991>
   111a0:	48 89 85 c8 f7 ff ff 	mov    %rax,-0x838(%rbp)
   111a7:	48 c7 85 d0 f7 ff ff 	movq   $0x0,-0x830(%rbp)
   111ae:	00 00 00 00 
   111b2:	48 8d 85 a0 f1 ff ff 	lea    -0xe60(%rbp),%rax
   111b9:	48 89 85 d8 f7 ff ff 	mov    %rax,-0x828(%rbp)
   111c0:	48 c7 85 e0 f7 ff ff 	movq   $0x0,-0x820(%rbp)
   111c7:	00 00 00 00 
   111cb:	48 8d 85 a0 f1 ff ff 	lea    -0xe60(%rbp),%rax
   111d2:	48 89 85 e8 f7 ff ff 	mov    %rax,-0x818(%rbp)
   111d9:	48 8d 05 30 c3 00 00 	lea    0xc330(%rip),%rax        # 1d510 <g_991>
   111e0:	48 89 85 f0 f7 ff ff 	mov    %rax,-0x810(%rbp)
   111e7:	48 8d 05 22 c3 00 00 	lea    0xc322(%rip),%rax        # 1d510 <g_991>
   111ee:	48 89 85 f8 f7 ff ff 	mov    %rax,-0x808(%rbp)
   111f5:	48 8d 05 14 c3 00 00 	lea    0xc314(%rip),%rax        # 1d510 <g_991>
   111fc:	48 89 85 00 f8 ff ff 	mov    %rax,-0x800(%rbp)
   11203:	48 8d 85 a0 f1 ff ff 	lea    -0xe60(%rbp),%rax
   1120a:	48 89 85 08 f8 ff ff 	mov    %rax,-0x7f8(%rbp)
   11211:	48 c7 85 10 f8 ff ff 	movq   $0x0,-0x7f0(%rbp)
   11218:	00 00 00 00 
   1121c:	48 8d 85 a0 f1 ff ff 	lea    -0xe60(%rbp),%rax
   11223:	48 89 85 18 f8 ff ff 	mov    %rax,-0x7e8(%rbp)
   1122a:	48 8d 05 df c2 00 00 	lea    0xc2df(%rip),%rax        # 1d510 <g_991>
   11231:	48 89 85 20 f8 ff ff 	mov    %rax,-0x7e0(%rbp)
   11238:	48 8d 05 d1 c2 00 00 	lea    0xc2d1(%rip),%rax        # 1d510 <g_991>
   1123f:	48 89 85 28 f8 ff ff 	mov    %rax,-0x7d8(%rbp)
   11246:	48 8d 85 a0 f1 ff ff 	lea    -0xe60(%rbp),%rax
   1124d:	48 89 85 30 f8 ff ff 	mov    %rax,-0x7d0(%rbp)
   11254:	48 8d 05 b5 c2 00 00 	lea    0xc2b5(%rip),%rax        # 1d510 <g_991>
   1125b:	48 89 85 38 f8 ff ff 	mov    %rax,-0x7c8(%rbp)
   11262:	48 8d 85 a0 f1 ff ff 	lea    -0xe60(%rbp),%rax
   11269:	48 89 85 40 f8 ff ff 	mov    %rax,-0x7c0(%rbp)
   11270:	48 8d 05 99 c2 00 00 	lea    0xc299(%rip),%rax        # 1d510 <g_991>
   11277:	48 89 85 48 f8 ff ff 	mov    %rax,-0x7b8(%rbp)
   1127e:	48 8d 85 a0 f1 ff ff 	lea    -0xe60(%rbp),%rax
   11285:	48 89 85 50 f8 ff ff 	mov    %rax,-0x7b0(%rbp)
   1128c:	48 8d 05 7d c2 00 00 	lea    0xc27d(%rip),%rax        # 1d510 <g_991>
   11293:	48 89 85 58 f8 ff ff 	mov    %rax,-0x7a8(%rbp)
   1129a:	48 8d 85 a0 f1 ff ff 	lea    -0xe60(%rbp),%rax
   112a1:	48 89 85 60 f8 ff ff 	mov    %rax,-0x7a0(%rbp)
   112a8:	48 c7 85 70 f2 ff ff 	movq   $0x0,-0xd90(%rbp)
   112af:	00 00 00 00 
   112b3:	48 8d 05 76 cd 00 00 	lea    0xcd76(%rip),%rax        # 1e030 <g_336>
   112ba:	48 89 85 78 f2 ff ff 	mov    %rax,-0xd88(%rbp)
   112c1:	48 c7 85 80 f2 ff ff 	movq   $0x0,-0xd80(%rbp)
   112c8:	00 00 00 00 
   112cc:	48 c7 85 88 f2 ff ff 	movq   $0x0,-0xd78(%rbp)
   112d3:	00 00 00 00 
   112d7:	48 8d 05 52 cd 00 00 	lea    0xcd52(%rip),%rax        # 1e030 <g_336>
   112de:	48 89 85 90 f2 ff ff 	mov    %rax,-0xd70(%rbp)
   112e5:	48 c7 85 98 f2 ff ff 	movq   $0x0,-0xd68(%rbp)
   112ec:	00 00 00 00 
   112f0:	c7 85 84 f1 ff ff 00 	movl   $0x0,-0xe7c(%rbp)
   112f7:	00 00 00 
   112fa:	eb 1e                	jmp    1131a <func_47+0x638>
   112fc:	8b 85 84 f1 ff ff    	mov    -0xe7c(%rbp),%eax
   11302:	48 98                	cltq   
   11304:	48 8d 95 a8 f1 ff ff 	lea    -0xe58(%rbp),%rdx
   1130b:	48 89 94 c5 50 f2 ff 	mov    %rdx,-0xdb0(%rbp,%rax,8)
   11312:	ff 
   11313:	83 85 84 f1 ff ff 01 	addl   $0x1,-0xe7c(%rbp)
   1131a:	83 bd 84 f1 ff ff 02 	cmpl   $0x2,-0xe7c(%rbp)
   11321:	7e d9                	jle    112fc <func_47+0x61a>
   11323:	c7 05 fb 9c 00 00 ef 	movl   $0xffffffef,0x9cfb(%rip)        # 1b028 <g_32>
   1132a:	ff ff ff 
   1132d:	e9 7e 01 00 00       	jmpq   114b0 <func_47+0x7ce>
   11332:	48 c7 85 b0 f1 ff ff 	movq   $0x0,-0xe50(%rbp)
   11339:	00 00 00 00 
   1133d:	48 8d 85 b0 f1 ff ff 	lea    -0xe50(%rbp),%rax
   11344:	48 89 85 f0 f1 ff ff 	mov    %rax,-0xe10(%rbp)
   1134b:	48 c7 85 b8 f1 ff ff 	movq   $0x0,-0xe48(%rbp)
   11352:	00 00 00 00 
   11356:	48 8d 85 b8 f1 ff ff 	lea    -0xe48(%rbp),%rax
   1135d:	48 89 85 f8 f1 ff ff 	mov    %rax,-0xe08(%rbp)
   11364:	48 c7 85 00 f2 ff ff 	movq   $0x0,-0xe00(%rbp)
   1136b:	00 00 00 00 
   1136f:	48 8d 05 82 a4 00 00 	lea    0xa482(%rip),%rax        # 1b7f8 <g_147>
   11376:	48 89 85 08 f2 ff ff 	mov    %rax,-0xdf8(%rbp)
   1137d:	48 8d 05 70 a4 00 00 	lea    0xa470(%rip),%rax        # 1b7f4 <g_144>
   11384:	48 89 85 10 f2 ff ff 	mov    %rax,-0xdf0(%rbp)
   1138b:	48 c7 85 c0 f1 ff ff 	movq   $0x0,-0xe40(%rbp)
   11392:	00 00 00 00 
   11396:	48 8d 05 65 a4 00 00 	lea    0xa465(%rip),%rax        # 1b802 <g_179+0x2>
   1139d:	48 89 85 18 f2 ff ff 	mov    %rax,-0xde8(%rbp)
   113a4:	c7 85 98 f1 ff ff 46 	movl   $0xf8c9ad46,-0xe68(%rbp)
   113ab:	ad c9 f8 
   113ae:	48 8d 05 5b a4 00 00 	lea    0xa45b(%rip),%rax        # 1b810 <g_201>
   113b5:	48 89 85 20 f2 ff ff 	mov    %rax,-0xde0(%rbp)
   113bc:	48 8d 05 db a4 00 00 	lea    0xa4db(%rip),%rax        # 1b89e <g_517+0x1e>
   113c3:	48 89 85 28 f2 ff ff 	mov    %rax,-0xdd8(%rbp)
   113ca:	48 8d 05 df a2 00 00 	lea    0xa2df(%rip),%rax        # 1b6b0 <g_97+0x370>
   113d1:	48 89 85 30 f2 ff ff 	mov    %rax,-0xdd0(%rbp)
   113d8:	48 8d 05 1b a4 00 00 	lea    0xa41b(%rip),%rax        # 1b7fa <g_149>
   113df:	48 89 85 38 f2 ff ff 	mov    %rax,-0xdc8(%rbp)
   113e6:	48 8d 05 3f a5 00 00 	lea    0xa53f(%rip),%rax        # 1b92c <g_924>
   113ed:	48 89 85 40 f2 ff ff 	mov    %rax,-0xdc0(%rbp)
   113f4:	c7 85 9c f1 ff ff 8f 	movl   $0xe9a9ac8f,-0xe64(%rbp)
   113fb:	ac a9 e9 
   113fe:	48 c7 85 48 f2 ff ff 	movq   $0x0,-0xdb8(%rbp)
   11405:	00 00 00 00 
   11409:	c7 85 88 f1 ff ff 00 	movl   $0x0,-0xe78(%rbp)
   11410:	00 00 00 
   11413:	eb 4a                	jmp    1145f <func_47+0x77d>
   11415:	c7 85 8c f1 ff ff 00 	movl   $0x0,-0xe74(%rbp)
   1141c:	00 00 00 
   1141f:	eb 2e                	jmp    1144f <func_47+0x76d>
   11421:	8b 85 8c f1 ff ff    	mov    -0xe74(%rbp),%eax
   11427:	48 98                	cltq   
   11429:	8b 95 88 f1 ff ff    	mov    -0xe78(%rbp),%edx
   1142f:	48 63 d2             	movslq %edx,%rdx
   11432:	48 c1 e2 02          	shl    $0x2,%rdx
   11436:	48 01 c2             	add    %rax,%rdx
   11439:	48 8d 85 c0 f1 ff ff 	lea    -0xe40(%rbp),%rax
   11440:	48 89 84 d5 20 f3 ff 	mov    %rax,-0xce0(%rbp,%rdx,8)
   11447:	ff 
   11448:	83 85 8c f1 ff ff 01 	addl   $0x1,-0xe74(%rbp)
   1144f:	83 bd 8c f1 ff ff 03 	cmpl   $0x3,-0xe74(%rbp)
   11456:	7e c9                	jle    11421 <func_47+0x73f>
   11458:	83 85 88 f1 ff ff 01 	addl   $0x1,-0xe78(%rbp)
   1145f:	83 bd 88 f1 ff ff 07 	cmpl   $0x7,-0xe78(%rbp)
   11466:	7e ad                	jle    11415 <func_47+0x733>
   11468:	c7 85 88 f1 ff ff 00 	movl   $0x0,-0xe78(%rbp)
   1146f:	00 00 00 
   11472:	eb 1b                	jmp    1148f <func_47+0x7ad>
   11474:	8b 85 88 f1 ff ff    	mov    -0xe78(%rbp),%eax
   1147a:	48 98                	cltq   
   1147c:	48 c7 84 c5 e0 f2 ff 	movq   $0x0,-0xd20(%rbp,%rax,8)
   11483:	ff 00 00 00 00 
   11488:	83 85 88 f1 ff ff 01 	addl   $0x1,-0xe78(%rbp)
   1148f:	83 bd 88 f1 ff ff 07 	cmpl   $0x7,-0xe78(%rbp)
   11496:	7e dc                	jle    11474 <func_47+0x792>
   11498:	8b 05 8a 9b 00 00    	mov    0x9b8a(%rip),%eax        # 1b028 <g_32>
   1149e:	be 07 00 00 00       	mov    $0x7,%esi
   114a3:	89 c7                	mov    %eax,%edi
   114a5:	e8 0c 41 ff ff       	callq  55b6 <safe_add_func_int32_t_s_s>
   114aa:	89 05 78 9b 00 00    	mov    %eax,0x9b78(%rip)        # 1b028 <g_32>
   114b0:	8b 05 72 9b 00 00    	mov    0x9b72(%rip),%eax        # 1b028 <g_32>
   114b6:	83 f8 05             	cmp    $0x5,%eax
   114b9:	0f 86 73 fe ff ff    	jbe    11332 <func_47+0x650>
   114bf:	48 8b 85 e8 f1 ff ff 	mov    -0xe18(%rbp),%rax
   114c6:	8b 00                	mov    (%rax),%eax
   114c8:	48 98                	cltq   
   114ca:	48 8b 4d f8          	mov    -0x8(%rbp),%rcx
   114ce:	64 48 33 0c 25 28 00 	xor    %fs:0x28,%rcx
   114d5:	00 00 
   114d7:	74 05                	je     114de <func_47+0x7fc>
   114d9:	e8 92 3b ff ff       	callq  5070 <__stack_chk_fail@plt>
   114de:	c9                   	leaveq 
   114df:	c3                   	retq   

00000000000114e0 <func_58>:
   114e0:	f3 0f 1e fa          	endbr64 
   114e4:	55                   	push   %rbp
   114e5:	48 89 e5             	mov    %rsp,%rbp
   114e8:	41 54                	push   %r12
   114ea:	53                   	push   %rbx
   114eb:	48 81 ec b0 06 00 00 	sub    $0x6b0,%rsp
   114f2:	48 89 bd 58 f9 ff ff 	mov    %rdi,-0x6a8(%rbp)
   114f9:	89 b5 54 f9 ff ff    	mov    %esi,-0x6ac(%rbp)
   114ff:	48 89 95 48 f9 ff ff 	mov    %rdx,-0x6b8(%rbp)
   11506:	64 48 8b 04 25 28 00 	mov    %fs:0x28,%rax
   1150d:	00 00 
   1150f:	48 89 45 e8          	mov    %rax,-0x18(%rbp)
   11513:	31 c0                	xor    %eax,%eax
   11515:	48 c7 85 70 f9 ff ff 	movq   $0x4,-0x690(%rbp)
   1151c:	04 00 00 00 
   11520:	48 8d 05 19 cb 00 00 	lea    0xcb19(%rip),%rax        # 1e040 <g_797>
   11527:	48 89 85 78 f9 ff ff 	mov    %rax,-0x688(%rbp)
   1152e:	48 c7 85 80 f9 ff ff 	movq   $0x0,-0x680(%rbp)
   11535:	00 00 00 00 
   11539:	48 8d 05 06 a3 00 00 	lea    0xa306(%rip),%rax        # 1b846 <g_244+0x26>
   11540:	48 89 85 88 f9 ff ff 	mov    %rax,-0x678(%rbp)
   11547:	48 c7 85 90 f9 ff ff 	movq   $0x0,-0x670(%rbp)
   1154e:	00 00 00 00 
   11552:	c7 85 68 f9 ff ff 06 	movl   $0x6,-0x698(%rbp)
   11559:	00 00 00 
   1155c:	48 8d 05 43 a3 00 00 	lea    0xa343(%rip),%rax        # 1b8a6 <g_517+0x26>
   11563:	48 89 85 98 f9 ff ff 	mov    %rax,-0x668(%rbp)
   1156a:	48 8d 45 e3          	lea    -0x1d(%rbp),%rax
   1156e:	48 89 85 a0 f9 ff ff 	mov    %rax,-0x660(%rbp)
   11575:	48 8d 45 e3          	lea    -0x1d(%rbp),%rax
   11579:	48 83 c0 04          	add    $0x4,%rax
   1157d:	48 89 85 a8 f9 ff ff 	mov    %rax,-0x658(%rbp)
   11584:	48 c7 85 b0 f9 ff ff 	movq   $0x0,-0x650(%rbp)
   1158b:	00 00 00 00 
   1158f:	48 8d 45 e3          	lea    -0x1d(%rbp),%rax
   11593:	48 83 c0 03          	add    $0x3,%rax
   11597:	48 89 85 b8 f9 ff ff 	mov    %rax,-0x648(%rbp)
   1159e:	48 8d 45 e3          	lea    -0x1d(%rbp),%rax
   115a2:	48 83 c0 04          	add    $0x4,%rax
   115a6:	48 89 85 c0 f9 ff ff 	mov    %rax,-0x640(%rbp)
   115ad:	48 c7 85 c8 f9 ff ff 	movq   $0x0,-0x638(%rbp)
   115b4:	00 00 00 00 
   115b8:	48 c7 85 d0 f9 ff ff 	movq   $0x0,-0x630(%rbp)
   115bf:	00 00 00 00 
   115c3:	48 8d 45 e3          	lea    -0x1d(%rbp),%rax
   115c7:	48 83 c0 03          	add    $0x3,%rax
   115cb:	48 89 85 d8 f9 ff ff 	mov    %rax,-0x628(%rbp)
   115d2:	48 8d 45 e3          	lea    -0x1d(%rbp),%rax
   115d6:	48 89 85 e0 f9 ff ff 	mov    %rax,-0x620(%rbp)
   115dd:	48 c7 85 e8 f9 ff ff 	movq   $0x0,-0x618(%rbp)
   115e4:	00 00 00 00 
   115e8:	48 c7 85 f0 f9 ff ff 	movq   $0x0,-0x610(%rbp)
   115ef:	00 00 00 00 
   115f3:	48 c7 85 f8 f9 ff ff 	movq   $0x0,-0x608(%rbp)
   115fa:	00 00 00 00 
   115fe:	48 8d 45 e3          	lea    -0x1d(%rbp),%rax
   11602:	48 83 c0 04          	add    $0x4,%rax
   11606:	48 89 85 00 fa ff ff 	mov    %rax,-0x600(%rbp)
   1160d:	48 8d 05 e4 a1 00 00 	lea    0xa1e4(%rip),%rax        # 1b7f8 <g_147>
   11614:	48 89 85 08 fa ff ff 	mov    %rax,-0x5f8(%rbp)
   1161b:	48 8d 05 d6 a1 00 00 	lea    0xa1d6(%rip),%rax        # 1b7f8 <g_147>
   11622:	48 89 85 10 fa ff ff 	mov    %rax,-0x5f0(%rbp)
   11629:	48 8d 45 e3          	lea    -0x1d(%rbp),%rax
   1162d:	48 89 85 18 fa ff ff 	mov    %rax,-0x5e8(%rbp)
   11634:	48 c7 85 20 fa ff ff 	movq   $0x0,-0x5e0(%rbp)
   1163b:	00 00 00 00 
   1163f:	48 8d 05 b2 a1 00 00 	lea    0xa1b2(%rip),%rax        # 1b7f8 <g_147>
   11646:	48 89 85 28 fa ff ff 	mov    %rax,-0x5d8(%rbp)
   1164d:	48 8d 45 e3          	lea    -0x1d(%rbp),%rax
   11651:	48 83 c0 04          	add    $0x4,%rax
   11655:	48 89 85 30 fa ff ff 	mov    %rax,-0x5d0(%rbp)
   1165c:	48 c7 85 38 fa ff ff 	movq   $0x0,-0x5c8(%rbp)
   11663:	00 00 00 00 
   11667:	48 8d 45 e3          	lea    -0x1d(%rbp),%rax
   1166b:	48 89 85 40 fa ff ff 	mov    %rax,-0x5c0(%rbp)
   11672:	48 8d 45 e3          	lea    -0x1d(%rbp),%rax
   11676:	48 83 c0 04          	add    $0x4,%rax
   1167a:	48 89 85 48 fa ff ff 	mov    %rax,-0x5b8(%rbp)
   11681:	48 8d 45 e3          	lea    -0x1d(%rbp),%rax
   11685:	48 83 c0 04          	add    $0x4,%rax
   11689:	48 89 85 50 fa ff ff 	mov    %rax,-0x5b0(%rbp)
   11690:	48 8d 45 e3          	lea    -0x1d(%rbp),%rax
   11694:	48 83 c0 04          	add    $0x4,%rax
   11698:	48 89 85 58 fa ff ff 	mov    %rax,-0x5a8(%rbp)
   1169f:	48 c7 85 60 fa ff ff 	movq   $0x0,-0x5a0(%rbp)
   116a6:	00 00 00 00 
   116aa:	48 c7 85 68 fa ff ff 	movq   $0x0,-0x598(%rbp)
   116b1:	00 00 00 00 
   116b5:	48 8d 45 e3          	lea    -0x1d(%rbp),%rax
   116b9:	48 83 c0 04          	add    $0x4,%rax
   116bd:	48 89 85 70 fa ff ff 	mov    %rax,-0x590(%rbp)
   116c4:	48 8d 45 e3          	lea    -0x1d(%rbp),%rax
   116c8:	48 83 c0 04          	add    $0x4,%rax
   116cc:	48 89 85 78 fa ff ff 	mov    %rax,-0x588(%rbp)
   116d3:	48 c7 85 80 fa ff ff 	movq   $0x0,-0x580(%rbp)
   116da:	00 00 00 00 
   116de:	48 8d 45 e3          	lea    -0x1d(%rbp),%rax
   116e2:	48 83 c0 04          	add    $0x4,%rax
   116e6:	48 89 85 88 fa ff ff 	mov    %rax,-0x578(%rbp)
   116ed:	48 8d 45 e3          	lea    -0x1d(%rbp),%rax
   116f1:	48 89 85 90 fa ff ff 	mov    %rax,-0x570(%rbp)
   116f8:	48 8d 05 f9 a0 00 00 	lea    0xa0f9(%rip),%rax        # 1b7f8 <g_147>
   116ff:	48 89 85 98 fa ff ff 	mov    %rax,-0x568(%rbp)
   11706:	48 8d 45 e3          	lea    -0x1d(%rbp),%rax
   1170a:	48 83 c0 04          	add    $0x4,%rax
   1170e:	48 89 85 a0 fa ff ff 	mov    %rax,-0x560(%rbp)
   11715:	48 c7 85 a8 fa ff ff 	movq   $0x0,-0x558(%rbp)
   1171c:	00 00 00 00 
   11720:	48 8d 45 e3          	lea    -0x1d(%rbp),%rax
   11724:	48 83 c0 04          	add    $0x4,%rax
   11728:	48 89 85 b0 fa ff ff 	mov    %rax,-0x550(%rbp)
   1172f:	48 8d 05 c2 a0 00 00 	lea    0xa0c2(%rip),%rax        # 1b7f8 <g_147>
   11736:	48 89 85 b8 fa ff ff 	mov    %rax,-0x548(%rbp)
   1173d:	48 8d 45 e3          	lea    -0x1d(%rbp),%rax
   11741:	48 83 c0 04          	add    $0x4,%rax
   11745:	48 89 85 c0 fa ff ff 	mov    %rax,-0x540(%rbp)
   1174c:	48 8d 45 e3          	lea    -0x1d(%rbp),%rax
   11750:	48 83 c0 03          	add    $0x3,%rax
   11754:	48 89 85 c8 fa ff ff 	mov    %rax,-0x538(%rbp)
   1175b:	48 8d 45 e3          	lea    -0x1d(%rbp),%rax
   1175f:	48 83 c0 04          	add    $0x4,%rax
   11763:	48 89 85 d0 fa ff ff 	mov    %rax,-0x530(%rbp)
   1176a:	48 8d 45 e3          	lea    -0x1d(%rbp),%rax
   1176e:	48 83 c0 03          	add    $0x3,%rax
   11772:	48 89 85 d8 fa ff ff 	mov    %rax,-0x528(%rbp)
   11779:	48 8d 05 78 a0 00 00 	lea    0xa078(%rip),%rax        # 1b7f8 <g_147>
   11780:	48 89 85 e0 fa ff ff 	mov    %rax,-0x520(%rbp)
   11787:	48 8d 05 6a a0 00 00 	lea    0xa06a(%rip),%rax        # 1b7f8 <g_147>
   1178e:	48 89 85 e8 fa ff ff 	mov    %rax,-0x518(%rbp)
   11795:	48 8d 45 e3          	lea    -0x1d(%rbp),%rax
   11799:	48 83 c0 01          	add    $0x1,%rax
   1179d:	48 89 85 f0 fa ff ff 	mov    %rax,-0x510(%rbp)
   117a4:	48 8d 05 4d a0 00 00 	lea    0xa04d(%rip),%rax        # 1b7f8 <g_147>
   117ab:	48 89 85 f8 fa ff ff 	mov    %rax,-0x508(%rbp)
   117b2:	48 8d 45 e3          	lea    -0x1d(%rbp),%rax
   117b6:	48 83 c0 04          	add    $0x4,%rax
   117ba:	48 89 85 00 fb ff ff 	mov    %rax,-0x500(%rbp)
   117c1:	48 8d 05 30 a0 00 00 	lea    0xa030(%rip),%rax        # 1b7f8 <g_147>
   117c8:	48 89 85 08 fb ff ff 	mov    %rax,-0x4f8(%rbp)
   117cf:	48 8d 05 22 a0 00 00 	lea    0xa022(%rip),%rax        # 1b7f8 <g_147>
   117d6:	48 89 85 10 fb ff ff 	mov    %rax,-0x4f0(%rbp)
   117dd:	48 8d 45 e3          	lea    -0x1d(%rbp),%rax
   117e1:	48 83 c0 04          	add    $0x4,%rax
   117e5:	48 89 85 18 fb ff ff 	mov    %rax,-0x4e8(%rbp)
   117ec:	48 8d 45 e3          	lea    -0x1d(%rbp),%rax
   117f0:	48 89 85 20 fb ff ff 	mov    %rax,-0x4e0(%rbp)
   117f7:	48 8d 05 fa 9f 00 00 	lea    0x9ffa(%rip),%rax        # 1b7f8 <g_147>
   117fe:	48 89 85 28 fb ff ff 	mov    %rax,-0x4d8(%rbp)
   11805:	48 8d 05 ec 9f 00 00 	lea    0x9fec(%rip),%rax        # 1b7f8 <g_147>
   1180c:	48 89 85 30 fb ff ff 	mov    %rax,-0x4d0(%rbp)
   11813:	48 c7 85 38 fb ff ff 	movq   $0x0,-0x4c8(%rbp)
   1181a:	00 00 00 00 
   1181e:	48 c7 85 40 fb ff ff 	movq   $0x0,-0x4c0(%rbp)
   11825:	00 00 00 00 
   11829:	48 8d 05 c8 9f 00 00 	lea    0x9fc8(%rip),%rax        # 1b7f8 <g_147>
   11830:	48 89 85 48 fb ff ff 	mov    %rax,-0x4b8(%rbp)
   11837:	48 c7 85 50 fb ff ff 	movq   $0x0,-0x4b0(%rbp)
   1183e:	00 00 00 00 
   11842:	48 c7 85 58 fb ff ff 	movq   $0x0,-0x4a8(%rbp)
   11849:	00 00 00 00 
   1184d:	48 8d 05 a4 9f 00 00 	lea    0x9fa4(%rip),%rax        # 1b7f8 <g_147>
   11854:	48 89 85 60 fb ff ff 	mov    %rax,-0x4a0(%rbp)
   1185b:	48 8d 05 96 9f 00 00 	lea    0x9f96(%rip),%rax        # 1b7f8 <g_147>
   11862:	48 89 85 68 fb ff ff 	mov    %rax,-0x498(%rbp)
   11869:	48 8d 05 88 9f 00 00 	lea    0x9f88(%rip),%rax        # 1b7f8 <g_147>
   11870:	48 89 85 70 fb ff ff 	mov    %rax,-0x490(%rbp)
   11877:	48 8d 05 7a 9f 00 00 	lea    0x9f7a(%rip),%rax        # 1b7f8 <g_147>
   1187e:	48 89 85 78 fb ff ff 	mov    %rax,-0x488(%rbp)
   11885:	48 8d 05 6c 9f 00 00 	lea    0x9f6c(%rip),%rax        # 1b7f8 <g_147>
   1188c:	48 89 85 80 fb ff ff 	mov    %rax,-0x480(%rbp)
   11893:	48 8d 05 5e 9f 00 00 	lea    0x9f5e(%rip),%rax        # 1b7f8 <g_147>
   1189a:	48 89 85 88 fb ff ff 	mov    %rax,-0x478(%rbp)
   118a1:	48 8d 45 e3          	lea    -0x1d(%rbp),%rax
   118a5:	48 89 85 90 fb ff ff 	mov    %rax,-0x470(%rbp)
   118ac:	48 8d 05 45 9f 00 00 	lea    0x9f45(%rip),%rax        # 1b7f8 <g_147>
   118b3:	48 89 85 98 fb ff ff 	mov    %rax,-0x468(%rbp)
   118ba:	48 8d 45 e3          	lea    -0x1d(%rbp),%rax
   118be:	48 89 85 a0 fb ff ff 	mov    %rax,-0x460(%rbp)
   118c5:	48 8d 05 2c 9f 00 00 	lea    0x9f2c(%rip),%rax        # 1b7f8 <g_147>
   118cc:	48 89 85 a8 fb ff ff 	mov    %rax,-0x458(%rbp)
   118d3:	48 8d 45 e3          	lea    -0x1d(%rbp),%rax
   118d7:	48 83 c0 04          	add    $0x4,%rax
   118db:	48 89 85 b0 fb ff ff 	mov    %rax,-0x450(%rbp)
   118e2:	48 8d 05 0f 9f 00 00 	lea    0x9f0f(%rip),%rax        # 1b7f8 <g_147>
   118e9:	48 89 85 b8 fb ff ff 	mov    %rax,-0x448(%rbp)
   118f0:	48 8d 45 e3          	lea    -0x1d(%rbp),%rax
   118f4:	48 83 c0 03          	add    $0x3,%rax
   118f8:	48 89 85 c0 fb ff ff 	mov    %rax,-0x440(%rbp)
   118ff:	48 8d 45 e3          	lea    -0x1d(%rbp),%rax
   11903:	48 83 c0 04          	add    $0x4,%rax
   11907:	48 89 85 c8 fb ff ff 	mov    %rax,-0x438(%rbp)
   1190e:	48 8d 05 e3 9e 00 00 	lea    0x9ee3(%rip),%rax        # 1b7f8 <g_147>
   11915:	48 89 85 d0 fb ff ff 	mov    %rax,-0x430(%rbp)
   1191c:	48 8d 05 d5 9e 00 00 	lea    0x9ed5(%rip),%rax        # 1b7f8 <g_147>
   11923:	48 89 85 d8 fb ff ff 	mov    %rax,-0x428(%rbp)
   1192a:	48 8d 05 c7 9e 00 00 	lea    0x9ec7(%rip),%rax        # 1b7f8 <g_147>
   11931:	48 89 85 e0 fb ff ff 	mov    %rax,-0x420(%rbp)
   11938:	48 8d 05 b9 9e 00 00 	lea    0x9eb9(%rip),%rax        # 1b7f8 <g_147>
   1193f:	48 89 85 e8 fb ff ff 	mov    %rax,-0x418(%rbp)
   11946:	48 c7 85 f0 fb ff ff 	movq   $0x0,-0x410(%rbp)
   1194d:	00 00 00 00 
   11951:	48 8d 45 e3          	lea    -0x1d(%rbp),%rax
   11955:	48 83 c0 01          	add    $0x1,%rax
   11959:	48 89 85 f8 fb ff ff 	mov    %rax,-0x408(%rbp)
   11960:	48 8d 45 e3          	lea    -0x1d(%rbp),%rax
   11964:	48 83 c0 04          	add    $0x4,%rax
   11968:	48 89 85 00 fc ff ff 	mov    %rax,-0x400(%rbp)
   1196f:	48 8d 45 e3          	lea    -0x1d(%rbp),%rax
   11973:	48 83 c0 03          	add    $0x3,%rax
   11977:	48 89 85 08 fc ff ff 	mov    %rax,-0x3f8(%rbp)
   1197e:	48 8d 45 e3          	lea    -0x1d(%rbp),%rax
   11982:	48 83 c0 04          	add    $0x4,%rax
   11986:	48 89 85 10 fc ff ff 	mov    %rax,-0x3f0(%rbp)
   1198d:	48 8d 45 e3          	lea    -0x1d(%rbp),%rax
   11991:	48 83 c0 03          	add    $0x3,%rax
   11995:	48 89 85 18 fc ff ff 	mov    %rax,-0x3e8(%rbp)
   1199c:	48 8d 45 e3          	lea    -0x1d(%rbp),%rax
   119a0:	48 83 c0 04          	add    $0x4,%rax
   119a4:	48 89 85 20 fc ff ff 	mov    %rax,-0x3e0(%rbp)
   119ab:	48 8d 45 e3          	lea    -0x1d(%rbp),%rax
   119af:	48 83 c0 04          	add    $0x4,%rax
   119b3:	48 89 85 28 fc ff ff 	mov    %rax,-0x3d8(%rbp)
   119ba:	48 8d 45 e3          	lea    -0x1d(%rbp),%rax
   119be:	48 83 c0 03          	add    $0x3,%rax
   119c2:	48 89 85 30 fc ff ff 	mov    %rax,-0x3d0(%rbp)
   119c9:	48 8d 05 28 9e 00 00 	lea    0x9e28(%rip),%rax        # 1b7f8 <g_147>
   119d0:	48 89 85 38 fc ff ff 	mov    %rax,-0x3c8(%rbp)
   119d7:	48 8d 45 e3          	lea    -0x1d(%rbp),%rax
   119db:	48 83 c0 01          	add    $0x1,%rax
   119df:	48 89 85 40 fc ff ff 	mov    %rax,-0x3c0(%rbp)
   119e6:	48 8d 45 e3          	lea    -0x1d(%rbp),%rax
   119ea:	48 83 c0 02          	add    $0x2,%rax
   119ee:	48 89 85 48 fc ff ff 	mov    %rax,-0x3b8(%rbp)
   119f5:	48 c7 85 50 fc ff ff 	movq   $0x0,-0x3b0(%rbp)
   119fc:	00 00 00 00 
   11a00:	48 8d 45 e3          	lea    -0x1d(%rbp),%rax
   11a04:	48 83 c0 04          	add    $0x4,%rax
   11a08:	48 89 85 58 fc ff ff 	mov    %rax,-0x3a8(%rbp)
   11a0f:	48 8d 05 e2 9d 00 00 	lea    0x9de2(%rip),%rax        # 1b7f8 <g_147>
   11a16:	48 89 85 60 fc ff ff 	mov    %rax,-0x3a0(%rbp)
   11a1d:	48 8d 45 e3          	lea    -0x1d(%rbp),%rax
   11a21:	48 83 c0 04          	add    $0x4,%rax
   11a25:	48 89 85 68 fc ff ff 	mov    %rax,-0x398(%rbp)
   11a2c:	48 c7 85 70 fc ff ff 	movq   $0x0,-0x390(%rbp)
   11a33:	00 00 00 00 
   11a37:	48 c7 85 78 fc ff ff 	movq   $0x0,-0x388(%rbp)
   11a3e:	00 00 00 00 
   11a42:	48 8d 45 e3          	lea    -0x1d(%rbp),%rax
   11a46:	48 83 c0 04          	add    $0x4,%rax
   11a4a:	48 89 85 80 fc ff ff 	mov    %rax,-0x380(%rbp)
   11a51:	48 8d 45 e3          	lea    -0x1d(%rbp),%rax
   11a55:	48 89 85 88 fc ff ff 	mov    %rax,-0x378(%rbp)
   11a5c:	48 8d 05 95 9d 00 00 	lea    0x9d95(%rip),%rax        # 1b7f8 <g_147>
   11a63:	48 89 85 90 fc ff ff 	mov    %rax,-0x370(%rbp)
   11a6a:	48 8d 05 87 9d 00 00 	lea    0x9d87(%rip),%rax        # 1b7f8 <g_147>
   11a71:	48 89 85 98 fc ff ff 	mov    %rax,-0x368(%rbp)
   11a78:	48 c7 85 a0 fc ff ff 	movq   $0x0,-0x360(%rbp)
   11a7f:	00 00 00 00 
   11a83:	48 8d 45 e3          	lea    -0x1d(%rbp),%rax
   11a87:	48 83 c0 04          	add    $0x4,%rax
   11a8b:	48 89 85 a8 fc ff ff 	mov    %rax,-0x358(%rbp)
   11a92:	48 c7 85 b0 fc ff ff 	movq   $0x0,-0x350(%rbp)
   11a99:	00 00 00 00 
   11a9d:	48 8d 45 e3          	lea    -0x1d(%rbp),%rax
   11aa1:	48 83 c0 04          	add    $0x4,%rax
   11aa5:	48 89 85 b8 fc ff ff 	mov    %rax,-0x348(%rbp)
   11aac:	48 8d 45 e3          	lea    -0x1d(%rbp),%rax
   11ab0:	48 83 c0 04          	add    $0x4,%rax
   11ab4:	48 89 85 c0 fc ff ff 	mov    %rax,-0x340(%rbp)
   11abb:	48 8d 45 e3          	lea    -0x1d(%rbp),%rax
   11abf:	48 83 c0 04          	add    $0x4,%rax
   11ac3:	48 89 85 c8 fc ff ff 	mov    %rax,-0x338(%rbp)
   11aca:	48 8d 45 e3          	lea    -0x1d(%rbp),%rax
   11ace:	48 83 c0 04          	add    $0x4,%rax
   11ad2:	48 89 85 d0 fc ff ff 	mov    %rax,-0x330(%rbp)
   11ad9:	48 c7 85 d8 fc ff ff 	movq   $0x0,-0x328(%rbp)
   11ae0:	00 00 00 00 
   11ae4:	48 8d 05 0d 9d 00 00 	lea    0x9d0d(%rip),%rax        # 1b7f8 <g_147>
   11aeb:	48 89 85 e0 fc ff ff 	mov    %rax,-0x320(%rbp)
   11af2:	48 c7 85 e8 fc ff ff 	movq   $0x0,-0x318(%rbp)
   11af9:	00 00 00 00 
   11afd:	48 8d 05 f4 9c 00 00 	lea    0x9cf4(%rip),%rax        # 1b7f8 <g_147>
   11b04:	48 89 85 f0 fc ff ff 	mov    %rax,-0x310(%rbp)
   11b0b:	48 8d 45 e3          	lea    -0x1d(%rbp),%rax
   11b0f:	48 83 c0 03          	add    $0x3,%rax
   11b13:	48 89 85 f8 fc ff ff 	mov    %rax,-0x308(%rbp)
   11b1a:	48 8d 05 d7 9c 00 00 	lea    0x9cd7(%rip),%rax        # 1b7f8 <g_147>
   11b21:	48 89 85 00 fd ff ff 	mov    %rax,-0x300(%rbp)
   11b28:	48 c7 85 08 fd ff ff 	movq   $0x0,-0x2f8(%rbp)
   11b2f:	00 00 00 00 
   11b33:	48 8d 05 be 9c 00 00 	lea    0x9cbe(%rip),%rax        # 1b7f8 <g_147>
   11b3a:	48 89 85 10 fd ff ff 	mov    %rax,-0x2f0(%rbp)
   11b41:	48 8d 45 e3          	lea    -0x1d(%rbp),%rax
   11b45:	48 83 c0 01          	add    $0x1,%rax
   11b49:	48 89 85 18 fd ff ff 	mov    %rax,-0x2e8(%rbp)
   11b50:	48 8d 45 e3          	lea    -0x1d(%rbp),%rax
   11b54:	48 83 c0 03          	add    $0x3,%rax
   11b58:	48 89 85 20 fd ff ff 	mov    %rax,-0x2e0(%rbp)
   11b5f:	48 8d 45 e3          	lea    -0x1d(%rbp),%rax
   11b63:	48 83 c0 04          	add    $0x4,%rax
   11b67:	48 89 85 28 fd ff ff 	mov    %rax,-0x2d8(%rbp)
   11b6e:	48 8d 05 83 9c 00 00 	lea    0x9c83(%rip),%rax        # 1b7f8 <g_147>
   11b75:	48 89 85 30 fd ff ff 	mov    %rax,-0x2d0(%rbp)
   11b7c:	48 8d 45 e3          	lea    -0x1d(%rbp),%rax
   11b80:	48 83 c0 04          	add    $0x4,%rax
   11b84:	48 89 85 38 fd ff ff 	mov    %rax,-0x2c8(%rbp)
   11b8b:	48 8d 45 e3          	lea    -0x1d(%rbp),%rax
   11b8f:	48 83 c0 04          	add    $0x4,%rax
   11b93:	48 89 85 40 fd ff ff 	mov    %rax,-0x2c0(%rbp)
   11b9a:	48 8d 05 57 9c 00 00 	lea    0x9c57(%rip),%rax        # 1b7f8 <g_147>
   11ba1:	48 89 85 48 fd ff ff 	mov    %rax,-0x2b8(%rbp)
   11ba8:	48 8d 05 49 9c 00 00 	lea    0x9c49(%rip),%rax        # 1b7f8 <g_147>
   11baf:	48 89 85 50 fd ff ff 	mov    %rax,-0x2b0(%rbp)
   11bb6:	48 8d 05 3b 9c 00 00 	lea    0x9c3b(%rip),%rax        # 1b7f8 <g_147>
   11bbd:	48 89 85 58 fd ff ff 	mov    %rax,-0x2a8(%rbp)
   11bc4:	48 8d 05 2d 9c 00 00 	lea    0x9c2d(%rip),%rax        # 1b7f8 <g_147>
   11bcb:	48 89 85 60 fd ff ff 	mov    %rax,-0x2a0(%rbp)
   11bd2:	48 8d 05 1f 9c 00 00 	lea    0x9c1f(%rip),%rax        # 1b7f8 <g_147>
   11bd9:	48 89 85 68 fd ff ff 	mov    %rax,-0x298(%rbp)
   11be0:	48 8d 05 11 9c 00 00 	lea    0x9c11(%rip),%rax        # 1b7f8 <g_147>
   11be7:	48 89 85 70 fd ff ff 	mov    %rax,-0x290(%rbp)
   11bee:	48 c7 85 78 fd ff ff 	movq   $0x0,-0x288(%rbp)
   11bf5:	00 00 00 00 
   11bf9:	48 8d 05 f8 9b 00 00 	lea    0x9bf8(%rip),%rax        # 1b7f8 <g_147>
   11c00:	48 89 85 80 fd ff ff 	mov    %rax,-0x280(%rbp)
   11c07:	48 8d 05 ea 9b 00 00 	lea    0x9bea(%rip),%rax        # 1b7f8 <g_147>
   11c0e:	48 89 85 88 fd ff ff 	mov    %rax,-0x278(%rbp)
   11c15:	48 8d 45 e3          	lea    -0x1d(%rbp),%rax
   11c19:	48 89 85 90 fd ff ff 	mov    %rax,-0x270(%rbp)
   11c20:	48 8d 45 e3          	lea    -0x1d(%rbp),%rax
   11c24:	48 89 85 98 fd ff ff 	mov    %rax,-0x268(%rbp)
   11c2b:	48 8d 05 c6 9b 00 00 	lea    0x9bc6(%rip),%rax        # 1b7f8 <g_147>
   11c32:	48 89 85 a0 fd ff ff 	mov    %rax,-0x260(%rbp)
   11c39:	48 8d 45 e3          	lea    -0x1d(%rbp),%rax
   11c3d:	48 83 c0 04          	add    $0x4,%rax
   11c41:	48 89 85 a8 fd ff ff 	mov    %rax,-0x258(%rbp)
   11c48:	48 8d 45 e3          	lea    -0x1d(%rbp),%rax
   11c4c:	48 83 c0 04          	add    $0x4,%rax
   11c50:	48 89 85 b0 fd ff ff 	mov    %rax,-0x250(%rbp)
   11c57:	48 8d 45 e3          	lea    -0x1d(%rbp),%rax
   11c5b:	48 83 c0 04          	add    $0x4,%rax
   11c5f:	48 89 85 b8 fd ff ff 	mov    %rax,-0x248(%rbp)
   11c66:	48 8d 05 8b 9b 00 00 	lea    0x9b8b(%rip),%rax        # 1b7f8 <g_147>
   11c6d:	48 89 85 c0 fd ff ff 	mov    %rax,-0x240(%rbp)
   11c74:	48 8d 45 e3          	lea    -0x1d(%rbp),%rax
   11c78:	48 83 c0 04          	add    $0x4,%rax
   11c7c:	48 89 85 c8 fd ff ff 	mov    %rax,-0x238(%rbp)
   11c83:	48 8d 45 e3          	lea    -0x1d(%rbp),%rax
   11c87:	48 83 c0 02          	add    $0x2,%rax
   11c8b:	48 89 85 d0 fd ff ff 	mov    %rax,-0x230(%rbp)
   11c92:	48 c7 85 d8 fd ff ff 	movq   $0x0,-0x228(%rbp)
   11c99:	00 00 00 00 
   11c9d:	48 8d 45 e3          	lea    -0x1d(%rbp),%rax
   11ca1:	48 83 c0 02          	add    $0x2,%rax
   11ca5:	48 89 85 e0 fd ff ff 	mov    %rax,-0x220(%rbp)
   11cac:	48 c7 85 e8 fd ff ff 	movq   $0x0,-0x218(%rbp)
   11cb3:	00 00 00 00 
   11cb7:	48 8d 05 3a 9b 00 00 	lea    0x9b3a(%rip),%rax        # 1b7f8 <g_147>
   11cbe:	48 89 85 f0 fd ff ff 	mov    %rax,-0x210(%rbp)
   11cc5:	48 8d 45 e3          	lea    -0x1d(%rbp),%rax
   11cc9:	48 83 c0 03          	add    $0x3,%rax
   11ccd:	48 89 85 f8 fd ff ff 	mov    %rax,-0x208(%rbp)
   11cd4:	48 8d 45 e3          	lea    -0x1d(%rbp),%rax
   11cd8:	48 89 85 00 fe ff ff 	mov    %rax,-0x200(%rbp)
   11cdf:	48 8d 45 e3          	lea    -0x1d(%rbp),%rax
   11ce3:	48 83 c0 03          	add    $0x3,%rax
   11ce7:	48 89 85 08 fe ff ff 	mov    %rax,-0x1f8(%rbp)
   11cee:	48 8d 45 e3          	lea    -0x1d(%rbp),%rax
   11cf2:	48 83 c0 04          	add    $0x4,%rax
   11cf6:	48 89 85 10 fe ff ff 	mov    %rax,-0x1f0(%rbp)
   11cfd:	48 8d 45 e3          	lea    -0x1d(%rbp),%rax
   11d01:	48 83 c0 04          	add    $0x4,%rax
   11d05:	48 89 85 18 fe ff ff 	mov    %rax,-0x1e8(%rbp)
   11d0c:	48 c7 85 20 fe ff ff 	movq   $0x0,-0x1e0(%rbp)
   11d13:	00 00 00 00 
   11d17:	48 8d 05 da 9a 00 00 	lea    0x9ada(%rip),%rax        # 1b7f8 <g_147>
   11d1e:	48 89 85 28 fe ff ff 	mov    %rax,-0x1d8(%rbp)
   11d25:	48 8d 05 cc 9a 00 00 	lea    0x9acc(%rip),%rax        # 1b7f8 <g_147>
   11d2c:	48 89 85 30 fe ff ff 	mov    %rax,-0x1d0(%rbp)
   11d33:	48 8d 05 be 9a 00 00 	lea    0x9abe(%rip),%rax        # 1b7f8 <g_147>
   11d3a:	48 89 85 38 fe ff ff 	mov    %rax,-0x1c8(%rbp)
   11d41:	48 8d 45 e3          	lea    -0x1d(%rbp),%rax
   11d45:	48 83 c0 03          	add    $0x3,%rax
   11d49:	48 89 85 40 fe ff ff 	mov    %rax,-0x1c0(%rbp)
   11d50:	48 8d 45 e3          	lea    -0x1d(%rbp),%rax
   11d54:	48 83 c0 04          	add    $0x4,%rax
   11d58:	48 89 85 48 fe ff ff 	mov    %rax,-0x1b8(%rbp)
   11d5f:	48 8d 05 92 9a 00 00 	lea    0x9a92(%rip),%rax        # 1b7f8 <g_147>
   11d66:	48 89 85 50 fe ff ff 	mov    %rax,-0x1b0(%rbp)
   11d6d:	48 8d 45 e3          	lea    -0x1d(%rbp),%rax
   11d71:	48 89 85 58 fe ff ff 	mov    %rax,-0x1a8(%rbp)
   11d78:	48 8d 05 79 9a 00 00 	lea    0x9a79(%rip),%rax        # 1b7f8 <g_147>
   11d7f:	48 89 85 60 fe ff ff 	mov    %rax,-0x1a0(%rbp)
   11d86:	48 8d 45 e3          	lea    -0x1d(%rbp),%rax
   11d8a:	48 83 c0 04          	add    $0x4,%rax
   11d8e:	48 89 85 68 fe ff ff 	mov    %rax,-0x198(%rbp)
   11d95:	48 8d 05 5c 9a 00 00 	lea    0x9a5c(%rip),%rax        # 1b7f8 <g_147>
   11d9c:	48 89 85 70 fe ff ff 	mov    %rax,-0x190(%rbp)
   11da3:	48 8d 05 4e 9a 00 00 	lea    0x9a4e(%rip),%rax        # 1b7f8 <g_147>
   11daa:	48 89 85 78 fe ff ff 	mov    %rax,-0x188(%rbp)
   11db1:	48 8d 45 e3          	lea    -0x1d(%rbp),%rax
   11db5:	48 83 c0 01          	add    $0x1,%rax
   11db9:	48 89 85 80 fe ff ff 	mov    %rax,-0x180(%rbp)
   11dc0:	48 8d 05 31 9a 00 00 	lea    0x9a31(%rip),%rax        # 1b7f8 <g_147>
   11dc7:	48 89 85 88 fe ff ff 	mov    %rax,-0x178(%rbp)
   11dce:	48 c7 85 90 fe ff ff 	movq   $0x0,-0x170(%rbp)
   11dd5:	00 00 00 00 
   11dd9:	48 8d 45 e3          	lea    -0x1d(%rbp),%rax
   11ddd:	48 83 c0 04          	add    $0x4,%rax
   11de1:	48 89 85 98 fe ff ff 	mov    %rax,-0x168(%rbp)
   11de8:	48 c7 85 a0 fe ff ff 	movq   $0x0,-0x160(%rbp)
   11def:	00 00 00 00 
   11df3:	48 8d 05 fe 99 00 00 	lea    0x99fe(%rip),%rax        # 1b7f8 <g_147>
   11dfa:	48 89 85 a8 fe ff ff 	mov    %rax,-0x158(%rbp)
   11e01:	48 8d 05 f0 99 00 00 	lea    0x99f0(%rip),%rax        # 1b7f8 <g_147>
   11e08:	48 89 85 b0 fe ff ff 	mov    %rax,-0x150(%rbp)
   11e0f:	48 8d 05 e2 99 00 00 	lea    0x99e2(%rip),%rax        # 1b7f8 <g_147>
   11e16:	48 89 85 b8 fe ff ff 	mov    %rax,-0x148(%rbp)
   11e1d:	48 8d 45 e3          	lea    -0x1d(%rbp),%rax
   11e21:	48 83 c0 04          	add    $0x4,%rax
   11e25:	48 89 85 c0 fe ff ff 	mov    %rax,-0x140(%rbp)
   11e2c:	48 8d 45 e3          	lea    -0x1d(%rbp),%rax
   11e30:	48 83 c0 04          	add    $0x4,%rax
   11e34:	48 89 85 c8 fe ff ff 	mov    %rax,-0x138(%rbp)
   11e3b:	48 8d 45 e3          	lea    -0x1d(%rbp),%rax
   11e3f:	48 89 85 d0 fe ff ff 	mov    %rax,-0x130(%rbp)
   11e46:	48 8d 45 e3          	lea    -0x1d(%rbp),%rax
   11e4a:	48 83 c0 04          	add    $0x4,%rax
   11e4e:	48 89 85 d8 fe ff ff 	mov    %rax,-0x128(%rbp)
   11e55:	48 8d 45 e3          	lea    -0x1d(%rbp),%rax
   11e59:	48 83 c0 04          	add    $0x4,%rax
   11e5d:	48 89 85 e0 fe ff ff 	mov    %rax,-0x120(%rbp)
   11e64:	48 8d 05 8d 99 00 00 	lea    0x998d(%rip),%rax        # 1b7f8 <g_147>
   11e6b:	48 89 85 e8 fe ff ff 	mov    %rax,-0x118(%rbp)
   11e72:	48 8d 45 e3          	lea    -0x1d(%rbp),%rax
   11e76:	48 83 c0 04          	add    $0x4,%rax
   11e7a:	48 89 85 f0 fe ff ff 	mov    %rax,-0x110(%rbp)
   11e81:	48 8d 05 70 99 00 00 	lea    0x9970(%rip),%rax        # 1b7f8 <g_147>
   11e88:	48 89 85 f8 fe ff ff 	mov    %rax,-0x108(%rbp)
   11e8f:	48 c7 85 00 ff ff ff 	movq   $0x0,-0x100(%rbp)
   11e96:	00 00 00 00 
   11e9a:	48 8d 45 e3          	lea    -0x1d(%rbp),%rax
   11e9e:	48 83 c0 04          	add    $0x4,%rax
   11ea2:	48 89 85 08 ff ff ff 	mov    %rax,-0xf8(%rbp)
   11ea9:	48 8d 45 e3          	lea    -0x1d(%rbp),%rax
   11ead:	48 83 c0 04          	add    $0x4,%rax
   11eb1:	48 89 85 10 ff ff ff 	mov    %rax,-0xf0(%rbp)
   11eb8:	48 8d 45 e3          	lea    -0x1d(%rbp),%rax
   11ebc:	48 83 c0 03          	add    $0x3,%rax
   11ec0:	48 89 85 18 ff ff ff 	mov    %rax,-0xe8(%rbp)
   11ec7:	48 8d 45 e3          	lea    -0x1d(%rbp),%rax
   11ecb:	48 83 c0 04          	add    $0x4,%rax
   11ecf:	48 89 85 20 ff ff ff 	mov    %rax,-0xe0(%rbp)
   11ed6:	48 8d 45 e3          	lea    -0x1d(%rbp),%rax
   11eda:	48 83 c0 04          	add    $0x4,%rax
   11ede:	48 89 85 28 ff ff ff 	mov    %rax,-0xd8(%rbp)
   11ee5:	48 8d 45 e3          	lea    -0x1d(%rbp),%rax
   11ee9:	48 89 85 30 ff ff ff 	mov    %rax,-0xd0(%rbp)
   11ef0:	48 c7 85 38 ff ff ff 	movq   $0x0,-0xc8(%rbp)
   11ef7:	00 00 00 00 
   11efb:	48 c7 85 40 ff ff ff 	movq   $0x0,-0xc0(%rbp)
   11f02:	00 00 00 00 
   11f06:	48 8d 45 e3          	lea    -0x1d(%rbp),%rax
   11f0a:	48 83 c0 04          	add    $0x4,%rax
   11f0e:	48 89 85 48 ff ff ff 	mov    %rax,-0xb8(%rbp)
   11f15:	48 8d 05 dc 98 00 00 	lea    0x98dc(%rip),%rax        # 1b7f8 <g_147>
   11f1c:	48 89 85 50 ff ff ff 	mov    %rax,-0xb0(%rbp)
   11f23:	48 8d 45 e3          	lea    -0x1d(%rbp),%rax
   11f27:	48 83 c0 04          	add    $0x4,%rax
   11f2b:	48 89 85 58 ff ff ff 	mov    %rax,-0xa8(%rbp)
   11f32:	48 c7 85 60 ff ff ff 	movq   $0x0,-0xa0(%rbp)
   11f39:	00 00 00 00 
   11f3d:	48 c7 85 68 ff ff ff 	movq   $0x0,-0x98(%rbp)
   11f44:	00 00 00 00 
   11f48:	48 8d 05 a9 98 00 00 	lea    0x98a9(%rip),%rax        # 1b7f8 <g_147>
   11f4f:	48 89 85 70 ff ff ff 	mov    %rax,-0x90(%rbp)
   11f56:	48 8d 05 9b 98 00 00 	lea    0x989b(%rip),%rax        # 1b7f8 <g_147>
   11f5d:	48 89 85 78 ff ff ff 	mov    %rax,-0x88(%rbp)
   11f64:	48 8d 45 e3          	lea    -0x1d(%rbp),%rax
   11f68:	48 83 c0 03          	add    $0x3,%rax
   11f6c:	48 89 45 80          	mov    %rax,-0x80(%rbp)
   11f70:	48 8d 45 e3          	lea    -0x1d(%rbp),%rax
   11f74:	48 83 c0 04          	add    $0x4,%rax
   11f78:	48 89 45 88          	mov    %rax,-0x78(%rbp)
   11f7c:	48 8d 45 e3          	lea    -0x1d(%rbp),%rax
   11f80:	48 89 45 90          	mov    %rax,-0x70(%rbp)
   11f84:	48 8d 45 e3          	lea    -0x1d(%rbp),%rax
   11f88:	48 83 c0 03          	add    $0x3,%rax
   11f8c:	48 89 45 98          	mov    %rax,-0x68(%rbp)
   11f90:	48 8d 05 61 98 00 00 	lea    0x9861(%rip),%rax        # 1b7f8 <g_147>
   11f97:	48 89 45 a0          	mov    %rax,-0x60(%rbp)
   11f9b:	48 c7 45 a8 00 00 00 	movq   $0x0,-0x58(%rbp)
   11fa2:	00 
   11fa3:	48 8d 05 4e 98 00 00 	lea    0x984e(%rip),%rax        # 1b7f8 <g_147>
   11faa:	48 89 45 b0          	mov    %rax,-0x50(%rbp)
   11fae:	48 c7 45 b8 00 00 00 	movq   $0x0,-0x48(%rbp)
   11fb5:	00 
   11fb6:	48 8d 05 3b 98 00 00 	lea    0x983b(%rip),%rax        # 1b7f8 <g_147>
   11fbd:	48 89 45 c0          	mov    %rax,-0x40(%rbp)
   11fc1:	48 8d 05 30 98 00 00 	lea    0x9830(%rip),%rax        # 1b7f8 <g_147>
   11fc8:	48 89 45 c8          	mov    %rax,-0x38(%rbp)
   11fcc:	48 8d 45 e3          	lea    -0x1d(%rbp),%rax
   11fd0:	48 83 c0 04          	add    $0x4,%rax
   11fd4:	48 89 45 d0          	mov    %rax,-0x30(%rbp)
   11fd8:	48 8d 45 e3          	lea    -0x1d(%rbp),%rax
   11fdc:	48 83 c0 04          	add    $0x4,%rax
   11fe0:	48 89 45 d8          	mov    %rax,-0x28(%rbp)
   11fe4:	c7 85 6c f9 ff ff 09 	movl   $0x9,-0x694(%rbp)
   11feb:	00 00 00 
   11fee:	c6 85 63 f9 ff ff fa 	movb   $0xfa,-0x69d(%rbp)
   11ff5:	c7 85 64 f9 ff ff 00 	movl   $0x0,-0x69c(%rbp)
   11ffc:	00 00 00 
   11fff:	eb 14                	jmp    12015 <func_58+0xb35>
   12001:	8b 85 64 f9 ff ff    	mov    -0x69c(%rbp),%eax
   12007:	48 98                	cltq   
   12009:	c6 44 05 e3 48       	movb   $0x48,-0x1d(%rbp,%rax,1)
   1200e:	83 85 64 f9 ff ff 01 	addl   $0x1,-0x69c(%rbp)
   12015:	83 bd 64 f9 ff ff 04 	cmpl   $0x4,-0x69c(%rbp)
   1201c:	7e e3                	jle    12001 <func_58+0xb21>
   1201e:	48 8b 85 70 f9 ff ff 	mov    -0x690(%rbp),%rax
   12025:	0f b6 d0             	movzbl %al,%edx
   12028:	48 8b 85 48 f9 ff ff 	mov    -0x6b8(%rbp),%rax
   1202f:	0f b6 c0             	movzbl %al,%eax
   12032:	89 d6                	mov    %edx,%esi
   12034:	89 c7                	mov    %eax,%edi
   12036:	e8 3d 3b ff ff       	callq  5b78 <safe_sub_func_uint8_t_u_u>
   1203b:	48 8b 85 78 f9 ff ff 	mov    -0x688(%rbp),%rax
   12042:	48 89 05 b7 b4 00 00 	mov    %rax,0xb4b7(%rip)        # 1d500 <g_835>
   12049:	48 8b 05 b0 b4 00 00 	mov    0xb4b0(%rip),%rax        # 1d500 <g_835>
   12050:	48 8d 15 e9 bf 00 00 	lea    0xbfe9(%rip),%rdx        # 1e040 <g_797>
   12057:	48 39 d0             	cmp    %rdx,%rax
   1205a:	0f 95 c0             	setne  %al
   1205d:	44 0f b6 e0          	movzbl %al,%r12d
   12061:	8b 05 f5 97 00 00    	mov    0x97f5(%rip),%eax        # 1b85c <g_303+0xc>
   12067:	0f b7 d8             	movzwl %ax,%ebx
   1206a:	8b 85 54 f9 ff ff    	mov    -0x6ac(%rbp),%eax
   12070:	0f b6 d0             	movzbl %al,%edx
   12073:	48 8b 05 06 98 00 00 	mov    0x9806(%rip),%rax        # 1b880 <g_517>
   1207a:	48 8b 05 07 98 00 00 	mov    0x9807(%rip),%rax        # 1b888 <g_517+0x8>
   12081:	48 8b 05 88 97 00 00 	mov    0x9788(%rip),%rax        # 1b810 <g_201>
   12088:	48 83 f8 ff          	cmp    $0xffffffffffffffff,%rax
   1208c:	0f 94 c0             	sete   %al
   1208f:	0f b6 c0             	movzbl %al,%eax
   12092:	89 d6                	mov    %edx,%esi
   12094:	89 c7                	mov    %eax,%edi
   12096:	e8 13 3b ff ff       	callq  5bae <safe_mod_func_uint8_t_u_u>
   1209b:	48 8b 85 70 f9 ff ff 	mov    -0x690(%rbp),%rax
   120a2:	0f be c0             	movsbl %al,%eax
   120a5:	be 00 00 00 00       	mov    $0x0,%esi
   120aa:	89 c7                	mov    %eax,%edi
   120ac:	e8 bb 32 ff ff       	callq  536c <safe_rshift_func_int8_t_s_u>
   120b1:	0f be c0             	movsbl %al,%eax
   120b4:	be 00 00 00 00       	mov    $0x0,%esi
   120b9:	89 c7                	mov    %eax,%edi
   120bb:	e8 35 33 ff ff       	callq  53f5 <safe_mul_func_int16_t_s_s>
   120c0:	66 85 c0             	test   %ax,%ax
   120c3:	74 07                	je     120cc <func_58+0xbec>
   120c5:	b8 01 00 00 00       	mov    $0x1,%eax
   120ca:	eb 05                	jmp    120d1 <func_58+0xbf1>
   120cc:	b8 00 00 00 00       	mov    $0x0,%eax
   120d1:	0f be c0             	movsbl %al,%eax
   120d4:	be 51 00 00 00       	mov    $0x51,%esi
   120d9:	89 c7                	mov    %eax,%edi
   120db:	e8 f4 30 ff ff       	callq  51d4 <safe_add_func_int8_t_s_s>
   120e0:	0f be d0             	movsbl %al,%edx
   120e3:	8b 05 5f 97 00 00    	mov    0x975f(%rip),%eax        # 1b848 <g_292>
   120e9:	39 c2                	cmp    %eax,%edx
   120eb:	0f 93 c0             	setae  %al
   120ee:	0f b6 c0             	movzbl %al,%eax
   120f1:	89 de                	mov    %ebx,%esi
   120f3:	89 c7                	mov    %eax,%edi
   120f5:	e8 62 3c ff ff       	callq  5d5c <safe_mod_func_uint16_t_u_u>
   120fa:	0f b7 c0             	movzwl %ax,%eax
   120fd:	48 8b 95 70 f9 ff ff 	mov    -0x690(%rbp),%rdx
   12104:	09 c2                	or     %eax,%edx
   12106:	48 8b 05 13 b0 00 00 	mov    0xb013(%rip),%rax        # 1d120 <g_102>
   1210d:	89 10                	mov    %edx,(%rax)
   1210f:	8b 00                	mov    (%rax),%eax
   12111:	41 39 c4             	cmp    %eax,%r12d
   12114:	0f 9e c0             	setle  %al
   12117:	0f b6 d0             	movzbl %al,%edx
   1211a:	8b 05 dc 91 00 00    	mov    0x91dc(%rip),%eax        # 1b2fc <g_42+0x2bc>
   12120:	31 d0                	xor    %edx,%eax
   12122:	89 05 d4 91 00 00    	mov    %eax,0x91d4(%rip)        # 1b2fc <g_42+0x2bc>
   12128:	8b 9d 54 f9 ff ff    	mov    -0x6ac(%rbp),%ebx
   1212e:	48 8b 05 b3 b3 00 00 	mov    0xb3b3(%rip),%rax        # 1d4e8 <g_804>
   12135:	48 8b 10             	mov    (%rax),%rdx
   12138:	48 8b 05 b9 b3 00 00 	mov    0xb3b9(%rip),%rax        # 1d4f8 <g_837>
   1213f:	48 8b 00             	mov    (%rax),%rax
   12142:	8b 12                	mov    (%rdx),%edx
   12144:	89 10                	mov    %edx,(%rax)
   12146:	8b 00                	mov    (%rax),%eax
   12148:	33 85 54 f9 ff ff    	xor    -0x6ac(%rbp),%eax
   1214e:	41 89 c4             	mov    %eax,%r12d
   12151:	8b 15 d1 97 00 00    	mov    0x97d1(%rip),%edx        # 1b928 <g_878>
   12157:	8b 85 68 f9 ff ff    	mov    -0x698(%rbp),%eax
   1215d:	89 d6                	mov    %edx,%esi
   1215f:	89 c7                	mov    %eax,%edi
   12161:	e8 9f 34 ff ff       	callq  5605 <safe_sub_func_int32_t_s_s>
   12166:	83 f8 fa             	cmp    $0xfffffffa,%eax
   12169:	0f 9c c0             	setl   %al
   1216c:	0f b6 c0             	movzbl %al,%eax
   1216f:	41 39 c4             	cmp    %eax,%r12d
   12172:	0f 9d c0             	setge  %al
   12175:	0f b6 c0             	movzbl %al,%eax
   12178:	be 01 00 00 00       	mov    $0x1,%esi
   1217d:	48 89 c7             	mov    %rax,%rdi
   12180:	e8 fb 3e ff ff       	callq  6080 <safe_mod_func_uint64_t_u_u>
   12185:	44 8b a5 54 f9 ff ff 	mov    -0x6ac(%rbp),%r12d
   1218c:	be 02 00 00 00       	mov    $0x2,%esi
   12191:	bf fa ff 00 00       	mov    $0xfffa,%edi
   12196:	e8 23 3c ff ff       	callq  5dbe <safe_lshift_func_uint16_t_u_s>
   1219b:	0f be c0             	movsbl %al,%eax
   1219e:	44 89 e6             	mov    %r12d,%esi
   121a1:	89 c7                	mov    %eax,%edi
   121a3:	e8 c4 31 ff ff       	callq  536c <safe_rshift_func_int8_t_s_u>
   121a8:	66 0f be d0          	movsbw %al,%dx
   121ac:	48 8b 85 88 f9 ff ff 	mov    -0x678(%rbp),%rax
   121b3:	66 89 10             	mov    %dx,(%rax)
   121b6:	48 8b 85 88 f9 ff ff 	mov    -0x678(%rbp),%rax
   121bd:	0f b7 10             	movzwl (%rax),%edx
   121c0:	48 8b 85 98 f9 ff ff 	mov    -0x668(%rbp),%rax
   121c7:	66 89 10             	mov    %dx,(%rax)
   121ca:	8b 85 54 f9 ff ff    	mov    -0x6ac(%rbp),%eax
   121d0:	48 63 d0             	movslq %eax,%rdx
   121d3:	8b 85 54 f9 ff ff    	mov    -0x6ac(%rbp),%eax
   121d9:	48 98                	cltq   
   121db:	48 89 d6             	mov    %rdx,%rsi
   121de:	48 89 c7             	mov    %rax,%rdi
   121e1:	e8 c2 36 ff ff       	callq  58a8 <safe_sub_func_int64_t_s_s>
   121e6:	48 85 c0             	test   %rax,%rax
   121e9:	0f b6 45 e7          	movzbl -0x19(%rbp),%eax
   121ed:	88 05 05 96 00 00    	mov    %al,0x9605(%rip)        # 1b7f8 <g_147>
   121f3:	48 8b 05 3e af 00 00 	mov    0xaf3e(%rip),%rax        # 1d138 <g_273>
   121fa:	48 8b 00             	mov    (%rax),%rax
   121fd:	48 39 85 90 f9 ff ff 	cmp    %rax,-0x670(%rbp)
   12204:	0f 95 c0             	setne  %al
   12207:	0f b6 c0             	movzbl %al,%eax
   1220a:	89 de                	mov    %ebx,%esi
   1220c:	89 c7                	mov    %eax,%edi
   1220e:	e8 59 31 ff ff       	callq  536c <safe_rshift_func_int8_t_s_u>
   12213:	66 98                	cbtw   
   12215:	8b 95 6c f9 ff ff    	mov    -0x694(%rbp),%edx
   1221b:	09 d0                	or     %edx,%eax
   1221d:	0f b7 c0             	movzwl %ax,%eax
   12220:	be 08 00 00 00       	mov    $0x8,%esi
   12225:	89 c7                	mov    %eax,%edi
   12227:	e8 30 3b ff ff       	callq  5d5c <safe_mod_func_uint16_t_u_u>
   1222c:	0f be d0             	movsbl %al,%edx
   1222f:	48 83 bd 88 f9 ff ff 	cmpq   $0x0,-0x678(%rbp)
   12236:	00 
   12237:	0f 94 c0             	sete   %al
   1223a:	0f b6 c0             	movzbl %al,%eax
   1223d:	89 d6                	mov    %edx,%esi
   1223f:	89 c7                	mov    %eax,%edi
   12241:	e8 cc 2f ff ff       	callq  5212 <safe_mul_func_int8_t_s_s>
   12246:	f7 d0                	not    %eax
   12248:	c0 e8 07             	shr    $0x7,%al
   1224b:	0f b6 c0             	movzbl %al,%eax
   1224e:	be 00 00 00 00       	mov    $0x0,%esi
   12253:	89 c7                	mov    %eax,%edi
   12255:	e8 ab 39 ff ff       	callq  5c05 <safe_lshift_func_uint8_t_u_s>
   1225a:	0f b6 d0             	movzbl %al,%edx
   1225d:	0f be 85 63 f9 ff ff 	movsbl -0x69d(%rbp),%eax
   12264:	39 c2                	cmp    %eax,%edx
   12266:	0f 9e c0             	setle  %al
   12269:	0f b6 c0             	movzbl %al,%eax
   1226c:	33 85 54 f9 ff ff    	xor    -0x6ac(%rbp),%eax
   12272:	48 63 d0             	movslq %eax,%rdx
   12275:	48 8b 05 e4 ae 00 00 	mov    0xaee4(%rip),%rax        # 1d160 <g_446>
   1227c:	48 8b 00             	mov    (%rax),%rax
   1227f:	48 39 c2             	cmp    %rax,%rdx
   12282:	0f 94 c0             	sete   %al
   12285:	0f b6 c0             	movzbl %al,%eax
   12288:	be c4 ff ff ff       	mov    $0xffffffc4,%esi
   1228d:	89 c7                	mov    %eax,%edi
   1228f:	e8 7e 2f ff ff       	callq  5212 <safe_mul_func_int8_t_s_s>
   12294:	48 0f be d0          	movsbq %al,%rdx
   12298:	48 8b 85 48 f9 ff ff 	mov    -0x6b8(%rbp),%rax
   1229f:	48 8d 48 01          	lea    0x1(%rax),%rcx
   122a3:	48 89 8d 48 f9 ff ff 	mov    %rcx,-0x6b8(%rbp)
   122aa:	48 89 d6             	mov    %rdx,%rsi
   122ad:	48 89 c7             	mov    %rax,%rdi
   122b0:	e8 79 3d ff ff       	callq  602e <safe_add_func_uint64_t_u_u>
   122b5:	48 3d dc 00 00 00    	cmp    $0xdc,%rax
   122bb:	0f 94 c0             	sete   %al
   122be:	0f b6 c0             	movzbl %al,%eax
   122c1:	f7 d0                	not    %eax
   122c3:	89 c1                	mov    %eax,%ecx
   122c5:	0f b7 05 4c 95 00 00 	movzwl 0x954c(%rip),%eax        # 1b818 <g_223>
   122cc:	0f bf d0             	movswl %ax,%edx
   122cf:	48 8b 05 5a ae 00 00 	mov    0xae5a(%rip),%rax        # 1d130 <g_274>
   122d6:	48 8b 00             	mov    (%rax),%rax
   122d9:	09 ca                	or     %ecx,%edx
   122db:	89 10                	mov    %edx,(%rax)
   122dd:	48 8b 05 64 bd 00 00 	mov    0xbd64(%rip),%rax        # 1e048 <g_884>
   122e4:	48 85 c0             	test   %rax,%rax
   122e7:	0f 95 c0             	setne  %al
   122ea:	0f b6 c0             	movzbl %al,%eax
   122ed:	48 39 85 48 f9 ff ff 	cmp    %rax,-0x6b8(%rbp)
   122f4:	0f 96 c2             	setbe  %dl
   122f7:	48 8b 05 22 ae 00 00 	mov    0xae22(%rip),%rax        # 1d120 <g_102>
   122fe:	0f b6 d2             	movzbl %dl,%edx
   12301:	89 10                	mov    %edx,(%rax)
   12303:	48 8b 85 58 f9 ff ff 	mov    -0x6a8(%rbp),%rax
   1230a:	48 8b 0d 6f 95 00 00 	mov    0x956f(%rip),%rcx        # 1b880 <g_517>
   12311:	48 8b 1d 70 95 00 00 	mov    0x9570(%rip),%rbx        # 1b888 <g_517+0x8>
   12318:	48 89 08             	mov    %rcx,(%rax)
   1231b:	48 89 58 08          	mov    %rbx,0x8(%rax)
   1231f:	48 8b 0d 6a 95 00 00 	mov    0x956a(%rip),%rcx        # 1b890 <g_517+0x10>
   12326:	48 8b 1d 6b 95 00 00 	mov    0x956b(%rip),%rbx        # 1b898 <g_517+0x18>
   1232d:	48 89 48 10          	mov    %rcx,0x10(%rax)
   12331:	48 89 58 18          	mov    %rbx,0x18(%rax)
   12335:	48 8b 15 64 95 00 00 	mov    0x9564(%rip),%rdx        # 1b8a0 <g_517+0x20>
   1233c:	48 89 50 20          	mov    %rdx,0x20(%rax)
   12340:	48 8b 45 e8          	mov    -0x18(%rbp),%rax
   12344:	64 48 33 04 25 28 00 	xor    %fs:0x28,%rax
   1234b:	00 00 
   1234d:	74 05                	je     12354 <func_58+0xe74>
   1234f:	e8 1c 2d ff ff       	callq  5070 <__stack_chk_fail@plt>
   12354:	48 8b 85 58 f9 ff ff 	mov    -0x6a8(%rbp),%rax
   1235b:	48 81 c4 b0 06 00 00 	add    $0x6b0,%rsp
   12362:	5b                   	pop    %rbx
   12363:	41 5c                	pop    %r12
   12365:	5d                   	pop    %rbp
   12366:	c3                   	retq   

0000000000012367 <func_65>:
   12367:	f3 0f 1e fa          	endbr64 
   1236b:	55                   	push   %rbp
   1236c:	48 89 e5             	mov    %rsp,%rbp
   1236f:	41 57                	push   %r15
   12371:	41 56                	push   %r14
   12373:	41 55                	push   %r13
   12375:	41 54                	push   %r12
   12377:	53                   	push   %rbx
   12378:	48 81 ec 18 06 00 00 	sub    $0x618,%rsp
   1237f:	48 89 bd c8 f9 ff ff 	mov    %rdi,-0x638(%rbp)
   12386:	48 89 b5 c0 f9 ff ff 	mov    %rsi,-0x640(%rbp)
   1238d:	64 48 8b 04 25 28 00 	mov    %fs:0x28,%rax
   12394:	00 00 
   12396:	48 89 45 c8          	mov    %rax,-0x38(%rbp)
   1239a:	31 c0                	xor    %eax,%eax
   1239c:	66 c7 85 d8 f9 ff ff 	movw   $0xa7e6,-0x628(%rbp)
   123a3:	e6 a7 
   123a5:	c7 85 e0 f9 ff ff e0 	movl   $0x301ce6e0,-0x620(%rbp)
   123ac:	e6 1c 30 
   123af:	c7 85 00 fa ff ff 71 	movl   $0x298b2871,-0x600(%rbp)
   123b6:	28 8b 29 
   123b9:	c7 85 04 fa ff ff ff 	movl   $0xffffffff,-0x5fc(%rbp)
   123c0:	ff ff ff 
   123c3:	c7 85 30 fb ff ff 6a 	movl   $0x875336a,-0x4d0(%rbp)
   123ca:	33 75 08 
   123cd:	c7 85 34 fb ff ff 01 	movl   $0x1,-0x4cc(%rbp)
   123d4:	00 00 00 
   123d7:	c7 85 38 fb ff ff 6a 	movl   $0x875336a,-0x4c8(%rbp)
   123de:	33 75 08 
   123e1:	c7 85 3c fb ff ff 01 	movl   $0x1,-0x4c4(%rbp)
   123e8:	00 00 00 
   123eb:	c7 85 40 fb ff ff 6a 	movl   $0x875336a,-0x4c0(%rbp)
   123f2:	33 75 08 
   123f5:	c7 85 44 fb ff ff 01 	movl   $0x1,-0x4bc(%rbp)
   123fc:	00 00 00 
   123ff:	c7 85 48 fb ff ff 6a 	movl   $0x875336a,-0x4b8(%rbp)
   12406:	33 75 08 
   12409:	c7 85 4c fb ff ff 01 	movl   $0x1,-0x4b4(%rbp)
   12410:	00 00 00 
   12413:	c7 85 50 fb ff ff 6a 	movl   $0x875336a,-0x4b0(%rbp)
   1241a:	33 75 08 
   1241d:	48 8d 05 aa 93 00 00 	lea    0x93aa(%rip),%rax        # 1b7ce <g_116+0xe>
   12424:	48 89 85 30 fa ff ff 	mov    %rax,-0x5d0(%rbp)
   1242b:	48 b8 c9 8e 55 d7 31 	movabs $0x252a0031d7558ec9,%rax
   12432:	00 2a 25 
   12435:	48 89 85 60 fa ff ff 	mov    %rax,-0x5a0(%rbp)
   1243c:	c6 85 d5 f9 ff ff 42 	movb   $0x42,-0x62b(%rbp)
   12443:	c7 85 c0 fb ff ff ce 	movl   $0x32c149ce,-0x440(%rbp)
   1244a:	49 c1 32 
   1244d:	c7 85 c4 fb ff ff ff 	movl   $0xffffffff,-0x43c(%rbp)
   12454:	ff ff ff 
   12457:	c7 85 c8 fb ff ff ff 	movl   $0xffffffff,-0x438(%rbp)
   1245e:	ff ff ff 
   12461:	c7 85 cc fb ff ff ce 	movl   $0x32c149ce,-0x434(%rbp)
   12468:	49 c1 32 
   1246b:	c7 85 d0 fb ff ff ff 	movl   $0xffffffff,-0x430(%rbp)
   12472:	ff ff ff 
   12475:	c7 85 d4 fb ff ff ff 	movl   $0xffffffff,-0x42c(%rbp)
   1247c:	ff ff ff 
   1247f:	c7 85 d8 fb ff ff ce 	movl   $0x32c149ce,-0x428(%rbp)
   12486:	49 c1 32 
   12489:	c7 85 dc fb ff ff 00 	movl   $0x0,-0x424(%rbp)
   12490:	00 00 00 
   12493:	c7 85 e0 fb ff ff b6 	movl   $0x54d5cfb6,-0x420(%rbp)
   1249a:	cf d5 54 
   1249d:	c7 85 e4 fb ff ff 00 	movl   $0x0,-0x41c(%rbp)
   124a4:	00 00 00 
   124a7:	c7 85 e8 fb ff ff 00 	movl   $0x0,-0x418(%rbp)
   124ae:	00 00 00 
   124b1:	c7 85 ec fb ff ff b6 	movl   $0x54d5cfb6,-0x414(%rbp)
   124b8:	cf d5 54 
   124bb:	c7 85 f0 fb ff ff 00 	movl   $0x0,-0x410(%rbp)
   124c2:	00 00 00 
   124c5:	c7 85 f4 fb ff ff 00 	movl   $0x0,-0x40c(%rbp)
   124cc:	00 00 00 
   124cf:	48 8d 85 60 fe ff ff 	lea    -0x1a0(%rbp),%rax
   124d6:	48 8d 15 63 56 00 00 	lea    0x5663(%rip),%rdx        # 17b40 <g_2389+0xa78>
   124dd:	b9 2d 00 00 00       	mov    $0x2d,%ecx
   124e2:	48 89 c7             	mov    %rax,%rdi
   124e5:	48 89 d6             	mov    %rdx,%rsi
   124e8:	f3 48 a5             	rep movsq %ds:(%rsi),%es:(%rdi)
   124eb:	48 8d 05 fe 92 00 00 	lea    0x92fe(%rip),%rax        # 1b7f0 <g_137>
   124f2:	48 89 85 68 fa ff ff 	mov    %rax,-0x598(%rbp)
   124f9:	66 c7 85 da f9 ff ff 	movw   $0x0,-0x626(%rbp)
   12500:	00 00 
   12502:	c7 85 08 fa ff ff 02 	movl   $0x2,-0x5f8(%rbp)
   12509:	00 00 00 
   1250c:	48 c7 85 70 fa ff ff 	movq   $0x0,-0x590(%rbp)
   12513:	00 00 00 00 
   12517:	48 8d 85 60 fe ff ff 	lea    -0x1a0(%rbp),%rax
   1251e:	48 83 c0 28          	add    $0x28,%rax
   12522:	48 89 85 78 fa ff ff 	mov    %rax,-0x588(%rbp)
   12529:	48 8d 05 00 bb 00 00 	lea    0xbb00(%rip),%rax        # 1e030 <g_336>
   12530:	48 89 85 38 fa ff ff 	mov    %rax,-0x5c8(%rbp)
   12537:	48 8d 05 ba 92 00 00 	lea    0x92ba(%rip),%rax        # 1b7f8 <g_147>
   1253e:	48 89 85 40 fa ff ff 	mov    %rax,-0x5c0(%rbp)
   12545:	48 8d 85 da f9 ff ff 	lea    -0x626(%rbp),%rax
   1254c:	48 89 85 80 fa ff ff 	mov    %rax,-0x580(%rbp)
   12553:	48 8d 85 40 fa ff ff 	lea    -0x5c0(%rbp),%rax
   1255a:	48 89 85 88 fa ff ff 	mov    %rax,-0x578(%rbp)
   12561:	66 c7 85 dc f9 ff ff 	movw   $0x32ca,-0x624(%rbp)
   12568:	ca 32 
   1256a:	48 c7 85 90 fa ff ff 	movq   $0x0,-0x570(%rbp)
   12571:	00 00 00 00 
   12575:	c7 85 f0 f9 ff ff 00 	movl   $0x0,-0x610(%rbp)
   1257c:	00 00 00 
   1257f:	eb 1e                	jmp    1259f <func_65+0x238>
   12581:	8b 85 f0 f9 ff ff    	mov    -0x610(%rbp),%eax
   12587:	48 98                	cltq   
   12589:	48 8d 95 38 fa ff ff 	lea    -0x5c8(%rbp),%rdx
   12590:	48 89 94 c5 10 fb ff 	mov    %rdx,-0x4f0(%rbp,%rax,8)
   12597:	ff 
   12598:	83 85 f0 f9 ff ff 01 	addl   $0x1,-0x610(%rbp)
   1259f:	83 bd f0 f9 ff ff 02 	cmpl   $0x2,-0x610(%rbp)
   125a6:	7e d9                	jle    12581 <func_65+0x21a>
   125a8:	c7 85 f0 f9 ff ff 00 	movl   $0x0,-0x610(%rbp)
   125af:	00 00 00 
   125b2:	eb 1e                	jmp    125d2 <func_65+0x26b>
   125b4:	8b 85 f0 f9 ff ff    	mov    -0x610(%rbp),%eax
   125ba:	48 98                	cltq   
   125bc:	48 8d 15 35 92 00 00 	lea    0x9235(%rip),%rdx        # 1b7f8 <g_147>
   125c3:	48 89 94 c5 e8 fa ff 	mov    %rdx,-0x518(%rbp,%rax,8)
   125ca:	ff 
   125cb:	83 85 f0 f9 ff ff 01 	addl   $0x1,-0x610(%rbp)
   125d2:	83 bd f0 f9 ff ff 00 	cmpl   $0x0,-0x610(%rbp)
   125d9:	7e d9                	jle    125b4 <func_65+0x24d>
   125db:	0f b7 95 d8 f9 ff ff 	movzwl -0x628(%rbp),%edx
   125e2:	48 8b 05 3f ab 00 00 	mov    0xab3f(%rip),%rax        # 1d128 <g_275>
   125e9:	0f b7 d2             	movzwl %dx,%edx
   125ec:	89 10                	mov    %edx,(%rax)
   125ee:	48 c7 05 e5 91 00 00 	movq   $0x0,0x91e5(%rip)        # 1b7de <g_116+0x1e>
   125f5:	00 00 00 00 
   125f9:	e9 c6 0a 00 00       	jmpq   130c4 <func_65+0xd5d>
   125fe:	48 8d 05 fd 91 00 00 	lea    0x91fd(%rip),%rax        # 1b802 <g_179+0x2>
   12605:	48 89 85 70 fd ff ff 	mov    %rax,-0x290(%rbp)
   1260c:	48 c7 85 78 fd ff ff 	movq   $0x0,-0x288(%rbp)
   12613:	00 00 00 00 
   12617:	48 8d 05 e4 91 00 00 	lea    0x91e4(%rip),%rax        # 1b802 <g_179+0x2>
   1261e:	48 89 85 80 fd ff ff 	mov    %rax,-0x280(%rbp)
   12625:	48 c7 85 88 fd ff ff 	movq   $0x0,-0x278(%rbp)
   1262c:	00 00 00 00 
   12630:	48 8d 05 cb 91 00 00 	lea    0x91cb(%rip),%rax        # 1b802 <g_179+0x2>
   12637:	48 89 85 90 fd ff ff 	mov    %rax,-0x270(%rbp)
   1263e:	48 8d 05 bd 91 00 00 	lea    0x91bd(%rip),%rax        # 1b802 <g_179+0x2>
   12645:	48 89 85 98 fd ff ff 	mov    %rax,-0x268(%rbp)
   1264c:	48 8d 05 af 91 00 00 	lea    0x91af(%rip),%rax        # 1b802 <g_179+0x2>
   12653:	48 89 85 a0 fd ff ff 	mov    %rax,-0x260(%rbp)
   1265a:	48 8d 05 a1 91 00 00 	lea    0x91a1(%rip),%rax        # 1b802 <g_179+0x2>
   12661:	48 89 85 a8 fd ff ff 	mov    %rax,-0x258(%rbp)
   12668:	48 8d 05 93 91 00 00 	lea    0x9193(%rip),%rax        # 1b802 <g_179+0x2>
   1266f:	48 89 85 b0 fd ff ff 	mov    %rax,-0x250(%rbp)
   12676:	48 8d 05 85 91 00 00 	lea    0x9185(%rip),%rax        # 1b802 <g_179+0x2>
   1267d:	48 89 85 b8 fd ff ff 	mov    %rax,-0x248(%rbp)
   12684:	48 8d 05 77 91 00 00 	lea    0x9177(%rip),%rax        # 1b802 <g_179+0x2>
   1268b:	48 89 85 c0 fd ff ff 	mov    %rax,-0x240(%rbp)
   12692:	48 c7 85 c8 fd ff ff 	movq   $0x0,-0x238(%rbp)
   12699:	00 00 00 00 
   1269d:	48 8d 05 5e 91 00 00 	lea    0x915e(%rip),%rax        # 1b802 <g_179+0x2>
   126a4:	48 89 85 d0 fd ff ff 	mov    %rax,-0x230(%rbp)
   126ab:	48 c7 85 d8 fd ff ff 	movq   $0x0,-0x228(%rbp)
   126b2:	00 00 00 00 
   126b6:	48 8d 05 45 91 00 00 	lea    0x9145(%rip),%rax        # 1b802 <g_179+0x2>
   126bd:	48 89 85 e0 fd ff ff 	mov    %rax,-0x220(%rbp)
   126c4:	48 8d 05 37 91 00 00 	lea    0x9137(%rip),%rax        # 1b802 <g_179+0x2>
   126cb:	48 89 85 e8 fd ff ff 	mov    %rax,-0x218(%rbp)
   126d2:	48 8d 05 29 91 00 00 	lea    0x9129(%rip),%rax        # 1b802 <g_179+0x2>
   126d9:	48 89 85 f0 fd ff ff 	mov    %rax,-0x210(%rbp)
   126e0:	48 8d 05 1b 91 00 00 	lea    0x911b(%rip),%rax        # 1b802 <g_179+0x2>
   126e7:	48 89 85 f8 fd ff ff 	mov    %rax,-0x208(%rbp)
   126ee:	48 8d 05 0d 91 00 00 	lea    0x910d(%rip),%rax        # 1b802 <g_179+0x2>
   126f5:	48 89 85 00 fe ff ff 	mov    %rax,-0x200(%rbp)
   126fc:	48 8d 05 ff 90 00 00 	lea    0x90ff(%rip),%rax        # 1b802 <g_179+0x2>
   12703:	48 89 85 08 fe ff ff 	mov    %rax,-0x1f8(%rbp)
   1270a:	48 8d 05 f1 90 00 00 	lea    0x90f1(%rip),%rax        # 1b802 <g_179+0x2>
   12711:	48 89 85 10 fe ff ff 	mov    %rax,-0x1f0(%rbp)
   12718:	48 c7 85 18 fe ff ff 	movq   $0x0,-0x1e8(%rbp)
   1271f:	00 00 00 00 
   12723:	48 8d 05 d8 90 00 00 	lea    0x90d8(%rip),%rax        # 1b802 <g_179+0x2>
   1272a:	48 89 85 20 fe ff ff 	mov    %rax,-0x1e0(%rbp)
   12731:	48 c7 85 28 fe ff ff 	movq   $0x0,-0x1d8(%rbp)
   12738:	00 00 00 00 
   1273c:	48 8d 05 bf 90 00 00 	lea    0x90bf(%rip),%rax        # 1b802 <g_179+0x2>
   12743:	48 89 85 30 fe ff ff 	mov    %rax,-0x1d0(%rbp)
   1274a:	48 8d 05 b1 90 00 00 	lea    0x90b1(%rip),%rax        # 1b802 <g_179+0x2>
   12751:	48 89 85 38 fe ff ff 	mov    %rax,-0x1c8(%rbp)
   12758:	48 8d 05 a3 90 00 00 	lea    0x90a3(%rip),%rax        # 1b802 <g_179+0x2>
   1275f:	48 89 85 40 fe ff ff 	mov    %rax,-0x1c0(%rbp)
   12766:	48 8d 05 95 90 00 00 	lea    0x9095(%rip),%rax        # 1b802 <g_179+0x2>
   1276d:	48 89 85 48 fe ff ff 	mov    %rax,-0x1b8(%rbp)
   12774:	48 8d 05 87 90 00 00 	lea    0x9087(%rip),%rax        # 1b802 <g_179+0x2>
   1277b:	48 89 85 50 fe ff ff 	mov    %rax,-0x1b0(%rbp)
   12782:	48 8d 05 79 90 00 00 	lea    0x9079(%rip),%rax        # 1b802 <g_179+0x2>
   12789:	48 89 85 58 fe ff ff 	mov    %rax,-0x1a8(%rbp)
   12790:	48 8d 85 70 fd ff ff 	lea    -0x290(%rbp),%rax
   12797:	48 89 85 50 fa ff ff 	mov    %rax,-0x5b0(%rbp)
   1279e:	48 8d 05 99 90 00 00 	lea    0x9099(%rip),%rax        # 1b83e <g_244+0x1e>
   127a5:	48 89 85 48 fa ff ff 	mov    %rax,-0x5b8(%rbp)
   127ac:	c7 85 e4 f9 ff ff 2a 	movl   $0xd97dee2a,-0x61c(%rbp)
   127b3:	ee 7d d9 
   127b6:	c7 85 e8 f9 ff ff 01 	movl   $0x1,-0x618(%rbp)
   127bd:	00 00 00 
   127c0:	c7 85 0c fa ff ff 02 	movl   $0x2,-0x5f4(%rbp)
   127c7:	00 00 00 
   127ca:	c7 85 10 fa ff ff 01 	movl   $0x1,-0x5f0(%rbp)
   127d1:	00 00 00 
   127d4:	c7 85 ec f9 ff ff 54 	movl   $0xa8b88654,-0x614(%rbp)
   127db:	86 b8 a8 
   127de:	c7 85 14 fa ff ff 01 	movl   $0x1,-0x5ec(%rbp)
   127e5:	00 00 00 
   127e8:	c7 85 18 fa ff ff 1c 	movl   $0xaf023f1c,-0x5e8(%rbp)
   127ef:	3f 02 af 
   127f2:	c6 85 d6 f9 ff ff f6 	movb   $0xf6,-0x62a(%rbp)
   127f9:	48 b8 8a 48 c9 75 31 	movabs $0x9d92bc3175c9488a,%rax
   12800:	bc 92 9d 
   12803:	48 89 85 98 fa ff ff 	mov    %rax,-0x568(%rbp)
   1280a:	c6 85 d7 f9 ff ff 23 	movb   $0x23,-0x629(%rbp)
   12811:	66 c7 85 de f9 ff ff 	movw   $0x4,-0x622(%rbp)
   12818:	04 00 
   1281a:	66 c7 85 50 fc ff ff 	movw   $0xffff,-0x3b0(%rbp)
   12821:	ff ff 
   12823:	66 c7 85 52 fc ff ff 	movw   $0xec89,-0x3ae(%rbp)
   1282a:	89 ec 
   1282c:	66 c7 85 54 fc ff ff 	movw   $0x6f86,-0x3ac(%rbp)
   12833:	86 6f 
   12835:	66 c7 85 56 fc ff ff 	movw   $0x0,-0x3aa(%rbp)
   1283c:	00 00 
   1283e:	66 c7 85 58 fc ff ff 	movw   $0x0,-0x3a8(%rbp)
   12845:	00 00 
   12847:	66 c7 85 5a fc ff ff 	movw   $0x6f86,-0x3a6(%rbp)
   1284e:	86 6f 
   12850:	66 c7 85 5c fc ff ff 	movw   $0xec89,-0x3a4(%rbp)
   12857:	89 ec 
   12859:	66 c7 85 5e fc ff ff 	movw   $0xffff,-0x3a2(%rbp)
   12860:	ff ff 
   12862:	66 c7 85 60 fc ff ff 	movw   $0xf940,-0x3a0(%rbp)
   12869:	40 f9 
   1286b:	66 c7 85 62 fc ff ff 	movw   $0x1,-0x39e(%rbp)
   12872:	01 00 
   12874:	66 c7 85 64 fc ff ff 	movw   $0xd307,-0x39c(%rbp)
   1287b:	07 d3 
   1287d:	66 c7 85 66 fc ff ff 	movw   $0x6f86,-0x39a(%rbp)
   12884:	86 6f 
   12886:	66 c7 85 68 fc ff ff 	movw   $0x0,-0x398(%rbp)
   1288d:	00 00 
   1288f:	66 c7 85 6a fc ff ff 	movw   $0x6,-0x396(%rbp)
   12896:	06 00 
   12898:	66 c7 85 6c fc ff ff 	movw   $0x6f86,-0x394(%rbp)
   1289f:	86 6f 
   128a1:	66 c7 85 6e fc ff ff 	movw   $0x1e6d,-0x392(%rbp)
   128a8:	6d 1e 
   128aa:	66 c7 85 70 fc ff ff 	movw   $0xffff,-0x390(%rbp)
   128b1:	ff ff 
   128b3:	66 c7 85 72 fc ff ff 	movw   $0xf940,-0x38e(%rbp)
   128ba:	40 f9 
   128bc:	66 c7 85 74 fc ff ff 	movw   $0xffff,-0x38c(%rbp)
   128c3:	ff ff 
   128c5:	66 c7 85 76 fc ff ff 	movw   $0x1e6d,-0x38a(%rbp)
   128cc:	6d 1e 
   128ce:	66 c7 85 78 fc ff ff 	movw   $0x6f86,-0x388(%rbp)
   128d5:	86 6f 
   128d7:	66 c7 85 7a fc ff ff 	movw   $0x6,-0x386(%rbp)
   128de:	06 00 
   128e0:	66 c7 85 7c fc ff ff 	movw   $0x0,-0x384(%rbp)
   128e7:	00 00 
   128e9:	66 c7 85 7e fc ff ff 	movw   $0x6f86,-0x382(%rbp)
   128f0:	86 6f 
   128f2:	66 c7 85 80 fc ff ff 	movw   $0xd307,-0x380(%rbp)
   128f9:	07 d3 
   128fb:	66 c7 85 82 fc ff ff 	movw   $0x1,-0x37e(%rbp)
   12902:	01 00 
   12904:	66 c7 85 84 fc ff ff 	movw   $0xf940,-0x37c(%rbp)
   1290b:	40 f9 
   1290d:	66 c7 85 86 fc ff ff 	movw   $0xffff,-0x37a(%rbp)
   12914:	ff ff 
   12916:	66 c7 85 88 fc ff ff 	movw   $0xec89,-0x378(%rbp)
   1291d:	89 ec 
   1291f:	66 c7 85 8a fc ff ff 	movw   $0x6f86,-0x376(%rbp)
   12926:	86 6f 
   12928:	66 c7 85 8c fc ff ff 	movw   $0x0,-0x374(%rbp)
   1292f:	00 00 
   12931:	66 c7 85 8e fc ff ff 	movw   $0x0,-0x372(%rbp)
   12938:	00 00 
   1293a:	66 c7 85 90 fc ff ff 	movw   $0x6f86,-0x370(%rbp)
   12941:	86 6f 
   12943:	66 c7 85 92 fc ff ff 	movw   $0xec89,-0x36e(%rbp)
   1294a:	89 ec 
   1294c:	66 c7 85 94 fc ff ff 	movw   $0xffff,-0x36c(%rbp)
   12953:	ff ff 
   12955:	66 c7 85 96 fc ff ff 	movw   $0xf940,-0x36a(%rbp)
   1295c:	40 f9 
   1295e:	66 c7 85 98 fc ff ff 	movw   $0x1,-0x368(%rbp)
   12965:	01 00 
   12967:	66 c7 85 9a fc ff ff 	movw   $0xd307,-0x366(%rbp)
   1296e:	07 d3 
   12970:	66 c7 85 9c fc ff ff 	movw   $0x6,-0x364(%rbp)
   12977:	06 00 
   12979:	66 c7 85 9e fc ff ff 	movw   $0xffff,-0x362(%rbp)
   12980:	ff ff 
   12982:	66 c7 85 a0 fc ff ff 	movw   $0x7b74,-0x360(%rbp)
   12989:	74 7b 
   1298b:	66 c7 85 a2 fc ff ff 	movw   $0x6,-0x35e(%rbp)
   12992:	06 00 
   12994:	66 c7 85 a4 fc ff ff 	movw   $0x3a05,-0x35c(%rbp)
   1299b:	05 3a 
   1299d:	66 c7 85 a6 fc ff ff 	movw   $0x8154,-0x35a(%rbp)
   129a4:	54 81 
   129a6:	66 c7 85 a8 fc ff ff 	movw   $0x0,-0x358(%rbp)
   129ad:	00 00 
   129af:	66 c7 85 aa fc ff ff 	movw   $0x8154,-0x356(%rbp)
   129b6:	54 81 
   129b8:	66 c7 85 ac fc ff ff 	movw   $0x3a05,-0x354(%rbp)
   129bf:	05 3a 
   129c1:	66 c7 85 ae fc ff ff 	movw   $0x6,-0x352(%rbp)
   129c8:	06 00 
   129ca:	66 c7 85 b0 fc ff ff 	movw   $0x7b74,-0x350(%rbp)
   129d1:	74 7b 
   129d3:	66 c7 85 b2 fc ff ff 	movw   $0xffff,-0x34e(%rbp)
   129da:	ff ff 
   129dc:	66 c7 85 b4 fc ff ff 	movw   $0x6,-0x34c(%rbp)
   129e3:	06 00 
   129e5:	66 c7 85 b6 fc ff ff 	movw   $0xe5b6,-0x34a(%rbp)
   129ec:	b6 e5 
   129ee:	66 c7 85 b8 fc ff ff 	movw   $0x3,-0x348(%rbp)
   129f5:	03 00 
   129f7:	66 c7 85 ba fc ff ff 	movw   $0x0,-0x346(%rbp)
   129fe:	00 00 
   12a00:	48 8d 85 c0 fb ff ff 	lea    -0x440(%rbp),%rax
   12a07:	48 89 85 c0 fc ff ff 	mov    %rax,-0x340(%rbp)
   12a0e:	48 c7 85 c8 fc ff ff 	movq   $0x0,-0x338(%rbp)
   12a15:	00 00 00 00 
   12a19:	48 8d 85 e0 f9 ff ff 	lea    -0x620(%rbp),%rax
   12a20:	48 89 85 d0 fc ff ff 	mov    %rax,-0x330(%rbp)
   12a27:	48 8d 85 ec f9 ff ff 	lea    -0x614(%rbp),%rax
   12a2e:	48 89 85 d8 fc ff ff 	mov    %rax,-0x328(%rbp)
   12a35:	48 8d 85 ec f9 ff ff 	lea    -0x614(%rbp),%rax
   12a3c:	48 89 85 e0 fc ff ff 	mov    %rax,-0x320(%rbp)
   12a43:	48 8d 85 e0 f9 ff ff 	lea    -0x620(%rbp),%rax
   12a4a:	48 89 85 e8 fc ff ff 	mov    %rax,-0x318(%rbp)
   12a51:	48 c7 85 f0 fc ff ff 	movq   $0x0,-0x310(%rbp)
   12a58:	00 00 00 00 
   12a5c:	48 8d 85 c0 fb ff ff 	lea    -0x440(%rbp),%rax
   12a63:	48 89 85 f8 fc ff ff 	mov    %rax,-0x308(%rbp)
   12a6a:	48 8d 85 e8 f9 ff ff 	lea    -0x618(%rbp),%rax
   12a71:	48 89 85 00 fd ff ff 	mov    %rax,-0x300(%rbp)
   12a78:	48 c7 85 08 fd ff ff 	movq   $0x0,-0x2f8(%rbp)
   12a7f:	00 00 00 00 
   12a83:	48 8d 85 c0 fb ff ff 	lea    -0x440(%rbp),%rax
   12a8a:	48 89 85 10 fd ff ff 	mov    %rax,-0x2f0(%rbp)
   12a91:	48 c7 85 18 fd ff ff 	movq   $0x0,-0x2e8(%rbp)
   12a98:	00 00 00 00 
   12a9c:	48 c7 85 20 fd ff ff 	movq   $0x0,-0x2e0(%rbp)
   12aa3:	00 00 00 00 
   12aa7:	48 8d 85 c0 fb ff ff 	lea    -0x440(%rbp),%rax
   12aae:	48 89 85 28 fd ff ff 	mov    %rax,-0x2d8(%rbp)
   12ab5:	48 c7 85 30 fd ff ff 	movq   $0x0,-0x2d0(%rbp)
   12abc:	00 00 00 00 
   12ac0:	48 c7 85 38 fd ff ff 	movq   $0x0,-0x2c8(%rbp)
   12ac7:	00 00 00 00 
   12acb:	48 c7 85 40 fd ff ff 	movq   $0x0,-0x2c0(%rbp)
   12ad2:	00 00 00 00 
   12ad6:	48 c7 85 48 fd ff ff 	movq   $0x0,-0x2b8(%rbp)
   12add:	00 00 00 00 
   12ae1:	48 c7 85 50 fd ff ff 	movq   $0x0,-0x2b0(%rbp)
   12ae8:	00 00 00 00 
   12aec:	48 8d 85 e8 f9 ff ff 	lea    -0x618(%rbp),%rax
   12af3:	48 89 85 58 fd ff ff 	mov    %rax,-0x2a8(%rbp)
   12afa:	48 8d 85 e8 f9 ff ff 	lea    -0x618(%rbp),%rax
   12b01:	48 89 85 60 fd ff ff 	mov    %rax,-0x2a0(%rbp)
   12b08:	c7 85 1c fa ff ff f7 	movl   $0xfffffff7,-0x5e4(%rbp)
   12b0f:	ff ff ff 
   12b12:	48 c7 05 cb 8c 00 00 	movq   $0x0,0x8ccb(%rip)        # 1b7e8 <g_123>
   12b19:	00 00 00 00 
   12b1d:	e9 7f 05 00 00       	jmpq   130a1 <func_65+0xd3a>
   12b22:	48 c7 85 a0 fa ff ff 	movq   $0x0,-0x560(%rbp)
   12b29:	00 00 00 00 
   12b2d:	48 8d 85 48 fa ff ff 	lea    -0x5b8(%rbp),%rax
   12b34:	48 89 85 a8 fa ff ff 	mov    %rax,-0x558(%rbp)
   12b3b:	c7 85 20 fa ff ff f9 	movl   $0xfffffff9,-0x5e0(%rbp)
   12b42:	ff ff ff 
   12b45:	48 8b 05 fc a5 00 00 	mov    0xa5fc(%rip),%rax        # 1d148 <g_334>
   12b4c:	48 8b 95 50 fa ff ff 	mov    -0x5b0(%rbp),%rdx
   12b53:	48 89 10             	mov    %rdx,(%rax)
   12b56:	48 8b 95 48 fa ff ff 	mov    -0x5b8(%rbp),%rdx
   12b5d:	48 8b 85 a8 fa ff ff 	mov    -0x558(%rbp),%rax
   12b64:	48 89 10             	mov    %rdx,(%rax)
   12b67:	48 8b 85 a8 fa ff ff 	mov    -0x558(%rbp),%rax
   12b6e:	48 8b 00             	mov    (%rax),%rax
   12b71:	48 8d 15 70 8c 00 00 	lea    0x8c70(%rip),%rdx        # 1b7e8 <g_123>
   12b78:	48 39 d0             	cmp    %rdx,%rax
   12b7b:	75 19                	jne    12b96 <func_65+0x82f>
   12b7d:	c7 85 e4 f9 ff ff 00 	movl   $0x0,-0x61c(%rbp)
   12b84:	00 00 00 
   12b87:	c7 05 97 84 00 00 18 	movl   $0x18,0x8497(%rip)        # 1b028 <g_32>
   12b8e:	00 00 00 
   12b91:	e9 8a 02 00 00       	jmpq   12e20 <func_65+0xab9>
   12b96:	48 8b 05 93 a5 00 00 	mov    0xa593(%rip),%rax        # 1d130 <g_274>
   12b9d:	48 8b 00             	mov    (%rax),%rax
   12ba0:	8b 00                	mov    (%rax),%eax
   12ba2:	e9 26 07 00 00       	jmpq   132cd <func_65+0xf66>
   12ba7:	48 c7 85 f0 fa ff ff 	movq   $0x0,-0x510(%rbp)
   12bae:	00 00 00 00 
   12bb2:	48 c7 85 f8 fa ff ff 	movq   $0x0,-0x508(%rbp)
   12bb9:	00 00 00 00 
   12bbd:	c7 85 00 fb ff ff 00 	movl   $0x0,-0x500(%rbp)
   12bc4:	00 00 00 
   12bc7:	c7 85 28 fa ff ff 49 	movl   $0x19b08749,-0x5d8(%rbp)
   12bce:	87 b0 19 
   12bd1:	c7 85 90 fb ff ff 1a 	movl   $0x77be5d1a,-0x470(%rbp)
   12bd8:	5d be 77 
   12bdb:	c7 85 94 fb ff ff 1a 	movl   $0x77be5d1a,-0x46c(%rbp)
   12be2:	5d be 77 
   12be5:	c7 85 98 fb ff ff 1a 	movl   $0x77be5d1a,-0x468(%rbp)
   12bec:	5d be 77 
   12bef:	c7 85 9c fb ff ff 1a 	movl   $0x77be5d1a,-0x464(%rbp)
   12bf6:	5d be 77 
   12bf9:	c7 85 a0 fb ff ff 1a 	movl   $0x77be5d1a,-0x460(%rbp)
   12c00:	5d be 77 
   12c03:	c7 85 a4 fb ff ff 1a 	movl   $0x77be5d1a,-0x45c(%rbp)
   12c0a:	5d be 77 
   12c0d:	c7 85 a8 fb ff ff 1a 	movl   $0x77be5d1a,-0x458(%rbp)
   12c14:	5d be 77 
   12c17:	c7 85 ac fb ff ff 1a 	movl   $0x77be5d1a,-0x454(%rbp)
   12c1e:	5d be 77 
   12c21:	c7 85 b0 fb ff ff 1a 	movl   $0x77be5d1a,-0x450(%rbp)
   12c28:	5d be 77 
   12c2b:	c7 85 b4 fb ff ff 1a 	movl   $0x77be5d1a,-0x44c(%rbp)
   12c32:	5d be 77 
   12c35:	48 c7 85 58 fa ff ff 	movq   $0xfffffffffffffffa,-0x5a8(%rbp)
   12c3c:	fa ff ff ff 
   12c40:	c6 05 b1 8b 00 00 00 	movb   $0x0,0x8bb1(%rip)        # 1b7f8 <g_147>
   12c47:	e9 b6 01 00 00       	jmpq   12e02 <func_65+0xa9b>
   12c4c:	c7 85 2c fa ff ff 6d 	movl   $0xe37bde6d,-0x5d4(%rbp)
   12c53:	de 7b e3 
   12c56:	c7 85 60 fb ff ff ff 	movl   $0xffffffff,-0x4a0(%rbp)
   12c5d:	ff ff ff 
   12c60:	c7 85 64 fb ff ff ff 	movl   $0xffffffff,-0x49c(%rbp)
   12c67:	ff ff ff 
   12c6a:	c7 85 68 fb ff ff ff 	movl   $0xffffffff,-0x498(%rbp)
   12c71:	ff ff ff 
   12c74:	c7 85 6c fb ff ff ff 	movl   $0xffffffff,-0x494(%rbp)
   12c7b:	ff ff ff 
   12c7e:	c7 85 70 fb ff ff ff 	movl   $0xffffffff,-0x490(%rbp)
   12c85:	ff ff ff 
   12c88:	c7 85 74 fb ff ff ff 	movl   $0xffffffff,-0x48c(%rbp)
   12c8f:	ff ff ff 
   12c92:	c7 85 78 fb ff ff ff 	movl   $0xffffffff,-0x488(%rbp)
   12c99:	ff ff ff 
   12c9c:	c7 85 7c fb ff ff ff 	movl   $0xffffffff,-0x484(%rbp)
   12ca3:	ff ff ff 
   12ca6:	c7 85 80 fb ff ff ff 	movl   $0xffffffff,-0x480(%rbp)
   12cad:	ff ff ff 
   12cb0:	48 8d 85 f0 fa ff ff 	lea    -0x510(%rbp),%rax
   12cb7:	48 83 c0 08          	add    $0x8,%rax
   12cbb:	48 89 85 e0 fa ff ff 	mov    %rax,-0x520(%rbp)
   12cc2:	c7 05 68 86 00 00 02 	movl   $0x2,0x8668(%rip)        # 1b334 <g_44>
   12cc9:	00 00 00 
   12ccc:	eb 72                	jmp    12d40 <func_65+0x9d9>
   12cce:	c7 85 f4 f9 ff ff 00 	movl   $0x0,-0x60c(%rbp)
   12cd5:	00 00 00 
   12cd8:	eb 46                	jmp    12d20 <func_65+0x9b9>
   12cda:	c7 85 f8 f9 ff ff 00 	movl   $0x0,-0x608(%rbp)
   12ce1:	00 00 00 
   12ce4:	eb 2a                	jmp    12d10 <func_65+0x9a9>
   12ce6:	8b 85 f8 f9 ff ff    	mov    -0x608(%rbp),%eax
   12cec:	48 63 d0             	movslq %eax,%rdx
   12cef:	8b 85 f4 f9 ff ff    	mov    -0x60c(%rbp),%eax
   12cf5:	48 98                	cltq   
   12cf7:	48 01 c2             	add    %rax,%rdx
   12cfa:	48 8d 85 e4 f9 ff ff 	lea    -0x61c(%rbp),%rax
   12d01:	48 89 84 d5 00 fc ff 	mov    %rax,-0x400(%rbp,%rdx,8)
   12d08:	ff 
   12d09:	83 85 f8 f9 ff ff 01 	addl   $0x1,-0x608(%rbp)
   12d10:	83 bd f8 f9 ff ff 00 	cmpl   $0x0,-0x608(%rbp)
   12d17:	7e cd                	jle    12ce6 <func_65+0x97f>
   12d19:	83 85 f4 f9 ff ff 01 	addl   $0x1,-0x60c(%rbp)
   12d20:	83 bd f4 f9 ff ff 08 	cmpl   $0x8,-0x60c(%rbp)
   12d27:	7e b1                	jle    12cda <func_65+0x973>
   12d29:	48 83 85 58 fa ff ff 	addq   $0x1,-0x5a8(%rbp)
   12d30:	01 
   12d31:	8b 05 fd 85 00 00    	mov    0x85fd(%rip),%eax        # 1b334 <g_44>
   12d37:	83 e8 01             	sub    $0x1,%eax
   12d3a:	89 05 f4 85 00 00    	mov    %eax,0x85f4(%rip)        # 1b334 <g_44>
   12d40:	8b 05 ee 85 00 00    	mov    0x85ee(%rip),%eax        # 1b334 <g_44>
   12d46:	85 c0                	test   %eax,%eax
   12d48:	79 84                	jns    12cce <func_65+0x967>
   12d4a:	0f b6 05 a7 8a 00 00 	movzbl 0x8aa7(%rip),%eax        # 1b7f8 <g_147>
   12d51:	0f b6 c0             	movzbl %al,%eax
   12d54:	0f b6 15 9d 8a 00 00 	movzbl 0x8a9d(%rip),%edx        # 1b7f8 <g_147>
   12d5b:	0f b6 d2             	movzbl %dl,%edx
   12d5e:	8d 4a 03             	lea    0x3(%rdx),%ecx
   12d61:	0f b6 15 90 8a 00 00 	movzbl 0x8a90(%rip),%edx        # 1b7f8 <g_147>
   12d68:	0f b6 d2             	movzbl %dl,%edx
   12d6b:	48 63 f2             	movslq %edx,%rsi
   12d6e:	48 63 d0             	movslq %eax,%rdx
   12d71:	48 63 c9             	movslq %ecx,%rcx
   12d74:	48 89 d0             	mov    %rdx,%rax
   12d77:	48 c1 e0 02          	shl    $0x2,%rax
   12d7b:	48 01 d0             	add    %rdx,%rax
   12d7e:	48 c1 e0 02          	shl    $0x2,%rax
   12d82:	48 01 d0             	add    %rdx,%rax
   12d85:	48 89 ca             	mov    %rcx,%rdx
   12d88:	48 01 d2             	add    %rdx,%rdx
   12d8b:	48 01 ca             	add    %rcx,%rdx
   12d8e:	48 01 d0             	add    %rdx,%rax
   12d91:	48 01 f0             	add    %rsi,%rax
   12d94:	48 8d 14 85 00 00 00 	lea    0x0(,%rax,4),%rdx
   12d9b:	00 
   12d9c:	48 8d 05 9d 82 00 00 	lea    0x829d(%rip),%rax        # 1b040 <g_42>
   12da3:	8b 1c 02             	mov    (%rdx,%rax,1),%ebx
   12da6:	0f b6 05 4b 8a 00 00 	movzbl 0x8a4b(%rip),%eax        # 1b7f8 <g_147>
   12dad:	0f b6 c0             	movzbl %al,%eax
   12db0:	83 c0 04             	add    $0x4,%eax
   12db3:	48 98                	cltq   
   12db5:	48 8d 15 44 8a 00 00 	lea    0x8a44(%rip),%rdx        # 1b800 <g_179>
   12dbc:	0f b6 04 10          	movzbl (%rax,%rdx,1),%eax
   12dc0:	0f be c0             	movsbl %al,%eax
   12dc3:	89 c7                	mov    %eax,%edi
   12dc5:	e8 cc 27 ff ff       	callq  5596 <safe_unary_minus_func_int32_t_s>
   12dca:	89 c2                	mov    %eax,%edx
   12dcc:	48 8b 85 e0 fa ff ff 	mov    -0x520(%rbp),%rax
   12dd3:	66 89 10             	mov    %dx,(%rax)
   12dd6:	48 8b 85 e0 fa ff ff 	mov    -0x520(%rbp),%rax
   12ddd:	0f b7 00             	movzwl (%rax),%eax
   12de0:	98                   	cwtl   
   12de1:	39 c3                	cmp    %eax,%ebx
   12de3:	0f 9f c2             	setg   %dl
   12de6:	48 8b 05 3b a3 00 00 	mov    0xa33b(%rip),%rax        # 1d128 <g_275>
   12ded:	0f b6 d2             	movzbl %dl,%edx
   12df0:	89 10                	mov    %edx,(%rax)
   12df2:	0f b6 05 ff 89 00 00 	movzbl 0x89ff(%rip),%eax        # 1b7f8 <g_147>
   12df9:	83 c0 01             	add    $0x1,%eax
   12dfc:	88 05 f6 89 00 00    	mov    %al,0x89f6(%rip)        # 1b7f8 <g_147>
   12e02:	0f b6 05 ef 89 00 00 	movzbl 0x89ef(%rip),%eax        # 1b7f8 <g_147>
   12e09:	3c 02                	cmp    $0x2,%al
   12e0b:	0f 86 3b fe ff ff    	jbe    12c4c <func_65+0x8e5>
   12e11:	8b 05 11 82 00 00    	mov    0x8211(%rip),%eax        # 1b028 <g_32>
   12e17:	83 c0 01             	add    $0x1,%eax
   12e1a:	89 05 08 82 00 00    	mov    %eax,0x8208(%rip)        # 1b028 <g_32>
   12e20:	8b 05 02 82 00 00    	mov    0x8202(%rip),%eax        # 1b028 <g_32>
   12e26:	83 f8 2d             	cmp    $0x2d,%eax
   12e29:	0f 85 78 fd ff ff    	jne    12ba7 <func_65+0x840>
   12e2f:	c7 85 ec f9 ff ff 06 	movl   $0x6,-0x614(%rbp)
   12e36:	00 00 00 
   12e39:	e9 3f 02 00 00       	jmpq   1307d <func_65+0xd16>
   12e3e:	48 8d 05 6b 88 00 00 	lea    0x886b(%rip),%rax        # 1b6b0 <g_97+0x370>
   12e45:	48 89 85 b0 fa ff ff 	mov    %rax,-0x550(%rbp)
   12e4c:	c7 85 24 fa ff ff f3 	movl   $0x1d7723f3,-0x5dc(%rbp)
   12e53:	23 77 1d 
   12e56:	48 8d 05 9d 89 00 00 	lea    0x899d(%rip),%rax        # 1b7fa <g_149>
   12e5d:	48 89 85 b8 fa ff ff 	mov    %rax,-0x548(%rbp)
   12e64:	48 8d 05 c9 84 00 00 	lea    0x84c9(%rip),%rax        # 1b334 <g_44>
   12e6b:	48 89 85 c0 fa ff ff 	mov    %rax,-0x540(%rbp)
   12e72:	48 c7 85 c8 fa ff ff 	movq   $0x0,-0x538(%rbp)
   12e79:	00 00 00 00 
   12e7d:	48 8d 05 62 89 00 00 	lea    0x8962(%rip),%rax        # 1b7e6 <g_116+0x26>
   12e84:	48 89 85 d0 fa ff ff 	mov    %rax,-0x530(%rbp)
   12e8b:	48 c7 85 d8 fa ff ff 	movq   $0x0,-0x528(%rbp)
   12e92:	00 00 00 00 
   12e96:	c7 85 fc f9 ff ff 00 	movl   $0x0,-0x604(%rbp)
   12e9d:	00 00 00 
   12ea0:	eb 1b                	jmp    12ebd <func_65+0xb56>
   12ea2:	8b 85 fc f9 ff ff    	mov    -0x604(%rbp),%eax
   12ea8:	48 98                	cltq   
   12eaa:	48 c7 84 c5 00 fc ff 	movq   $0x0,-0x400(%rbp,%rax,8)
   12eb1:	ff 00 00 00 00 
   12eb6:	83 85 fc f9 ff ff 01 	addl   $0x1,-0x604(%rbp)
   12ebd:	83 bd fc f9 ff ff 00 	cmpl   $0x0,-0x604(%rbp)
   12ec4:	7e dc                	jle    12ea2 <func_65+0xb3b>
   12ec6:	48 8b 05 53 a2 00 00 	mov    0xa253(%rip),%rax        # 1d120 <g_102>
   12ecd:	8b 00                	mov    (%rax),%eax
   12ecf:	85 c0                	test   %eax,%eax
   12ed1:	0f 85 b7 01 00 00    	jne    1308e <func_65+0xd27>
   12ed7:	48 8b 85 b0 fa ff ff 	mov    -0x550(%rbp),%rax
   12ede:	48 8b 00             	mov    (%rax),%rax
   12ee1:	48 ba c2 96 c1 7b 34 	movabs $0x72ed15347bc196c2,%rdx
   12ee8:	15 ed 72 
   12eeb:	48 21 c2             	and    %rax,%rdx
   12eee:	48 8b 85 b0 fa ff ff 	mov    -0x550(%rbp),%rax
   12ef5:	48 89 10             	mov    %rdx,(%rax)
   12ef8:	48 8b 85 b0 fa ff ff 	mov    -0x550(%rbp),%rax
   12eff:	48 8b 00             	mov    (%rax),%rax
   12f02:	48 89 c2             	mov    %rax,%rdx
   12f05:	48 8b 05 32 89 00 00 	mov    0x8932(%rip),%rax        # 1b83e <g_244+0x1e>
   12f0c:	48 09 c2             	or     %rax,%rdx
   12f0f:	48 8b 05 12 a2 00 00 	mov    0xa212(%rip),%rax        # 1d128 <g_275>
   12f16:	8b 00                	mov    (%rax),%eax
   12f18:	89 c1                	mov    %eax,%ecx
   12f1a:	89 d0                	mov    %edx,%eax
   12f1c:	09 c1                	or     %eax,%ecx
   12f1e:	89 ca                	mov    %ecx,%edx
   12f20:	48 8b 05 01 a2 00 00 	mov    0xa201(%rip),%rax        # 1d128 <g_275>
   12f27:	89 10                	mov    %edx,(%rax)
   12f29:	83 bd 20 fa ff ff 00 	cmpl   $0x0,-0x5e0(%rbp)
   12f30:	0f 94 c0             	sete   %al
   12f33:	44 0f b6 f0          	movzbl %al,%r14d
   12f37:	8b 05 1f 89 00 00    	mov    0x891f(%rip),%eax        # 1b85c <g_303+0xc>
   12f3d:	0f b7 d8             	movzwl %ax,%ebx
   12f40:	83 bd 14 fa ff ff 00 	cmpl   $0x0,-0x5ec(%rbp)
   12f47:	0f 85 8c 00 00 00    	jne    12fd9 <func_65+0xc72>
   12f4d:	8b 85 24 fa ff ff    	mov    -0x5dc(%rbp),%eax
   12f53:	44 0f b6 e0          	movzbl %al,%r12d
   12f57:	8b 05 93 88 00 00    	mov    0x8893(%rip),%eax        # 1b7f0 <g_137>
   12f5d:	44 0f b7 e8          	movzwl %ax,%r13d
   12f61:	8b 85 20 fa ff ff    	mov    -0x5e0(%rbp),%eax
   12f67:	0f be d0             	movsbl %al,%edx
   12f6a:	80 bd d6 f9 ff ff fe 	cmpb   $0xfe,-0x62a(%rbp)
   12f71:	0f 95 c0             	setne  %al
   12f74:	0f b6 c0             	movzbl %al,%eax
   12f77:	89 d6                	mov    %edx,%esi
   12f79:	89 c7                	mov    %eax,%edi
   12f7b:	e8 92 22 ff ff       	callq  5212 <safe_mul_func_int8_t_s_s>
   12f80:	84 c0                	test   %al,%al
   12f82:	0f 94 c0             	sete   %al
   12f85:	0f b6 d0             	movzbl %al,%edx
   12f88:	48 8b 85 b8 fa ff ff 	mov    -0x548(%rbp),%rax
   12f8f:	66 89 10             	mov    %dx,(%rax)
   12f92:	44 89 ee             	mov    %r13d,%esi
   12f95:	bf 00 00 00 00       	mov    $0x0,%edi
   12f9a:	e8 ef 2d ff ff       	callq  5d8e <safe_div_func_uint16_t_u_u>
   12f9f:	0f b7 d0             	movzwl %ax,%edx
   12fa2:	0f b7 05 3d 88 00 00 	movzwl 0x883d(%rip),%eax        # 1b7e6 <g_116+0x26>
   12fa9:	98                   	cwtl   
   12faa:	09 d0                	or     %edx,%eax
   12fac:	39 85 24 fa ff ff    	cmp    %eax,-0x5dc(%rbp)
   12fb2:	0f 9e c0             	setle  %al
   12fb5:	0f b6 c0             	movzbl %al,%eax
   12fb8:	48 89 05 7f 88 00 00 	mov    %rax,0x887f(%rip)        # 1b83e <g_244+0x1e>
   12fbf:	48 8b 05 78 88 00 00 	mov    0x8878(%rip),%rax        # 1b83e <g_244+0x1e>
   12fc6:	f7 d0                	not    %eax
   12fc8:	0f b6 c0             	movzbl %al,%eax
   12fcb:	44 89 e6             	mov    %r12d,%esi
   12fce:	89 c7                	mov    %eax,%edi
   12fd0:	e8 06 2c ff ff       	callq  5bdb <safe_div_func_uint8_t_u_u>
   12fd5:	84 c0                	test   %al,%al
   12fd7:	74 07                	je     12fe0 <func_65+0xc79>
   12fd9:	b8 01 00 00 00       	mov    $0x1,%eax
   12fde:	eb 05                	jmp    12fe5 <func_65+0xc7e>
   12fe0:	b8 00 00 00 00       	mov    $0x0,%eax
   12fe5:	0f b6 c0             	movzbl %al,%eax
   12fe8:	be 06 00 00 00       	mov    $0x6,%esi
   12fed:	89 c7                	mov    %eax,%edi
   12fef:	e8 99 2c ff ff       	callq  5c8d <safe_rshift_func_uint8_t_u_s>
   12ff4:	0f b6 d0             	movzbl %al,%edx
   12ff7:	48 8b 85 c0 fa ff ff 	mov    -0x540(%rbp),%rax
   12ffe:	89 10                	mov    %edx,(%rax)
   13000:	8b 85 4c fb ff ff    	mov    -0x4b4(%rbp),%eax
   13006:	89 c2                	mov    %eax,%edx
   13008:	8b 05 22 80 00 00    	mov    0x8022(%rip),%eax        # 1b030 <g_40>
   1300e:	39 c2                	cmp    %eax,%edx
   13010:	0f 95 c0             	setne  %al
   13013:	0f b6 d0             	movzbl %al,%edx
   13016:	8b 85 ec f9 ff ff    	mov    -0x614(%rbp),%eax
   1301c:	39 c2                	cmp    %eax,%edx
   1301e:	0f 9e c0             	setle  %al
   13021:	0f b6 c0             	movzbl %al,%eax
   13024:	89 de                	mov    %ebx,%esi
   13026:	89 c7                	mov    %eax,%edi
   13028:	e8 10 2d ff ff       	callq  5d3d <safe_mul_func_uint16_t_u_u>
   1302d:	66 83 f8 01          	cmp    $0x1,%ax
   13031:	75 07                	jne    1303a <func_65+0xcd3>
   13033:	b8 b3 ce 00 00       	mov    $0xceb3,%eax
   13038:	eb 05                	jmp    1303f <func_65+0xcd8>
   1303a:	b8 b2 ce 00 00       	mov    $0xceb2,%eax
   1303f:	4c 21 f0             	and    %r14,%rax
   13042:	48 89 c2             	mov    %rax,%rdx
   13045:	8b 85 20 fa ff ff    	mov    -0x5e0(%rbp),%eax
   1304b:	48 98                	cltq   
   1304d:	48 39 c2             	cmp    %rax,%rdx
   13050:	0f 95 c0             	setne  %al
   13053:	0f b6 d0             	movzbl %al,%edx
   13056:	48 8b 85 d0 fa ff ff 	mov    -0x530(%rbp),%rax
   1305d:	66 89 10             	mov    %dx,(%rax)
   13060:	48 8d 85 e0 f9 ff ff 	lea    -0x620(%rbp),%rax
   13067:	48 89 85 00 fc ff ff 	mov    %rax,-0x400(%rbp)
   1306e:	8b 85 ec f9 ff ff    	mov    -0x614(%rbp),%eax
   13074:	83 c0 01             	add    $0x1,%eax
   13077:	89 85 ec f9 ff ff    	mov    %eax,-0x614(%rbp)
   1307d:	8b 85 ec f9 ff ff    	mov    -0x614(%rbp),%eax
   13083:	83 f8 16             	cmp    $0x16,%eax
   13086:	0f 85 b2 fd ff ff    	jne    12e3e <func_65+0xad7>
   1308c:	eb 01                	jmp    1308f <func_65+0xd28>
   1308e:	90                   	nop
   1308f:	48 8b 05 52 87 00 00 	mov    0x8752(%rip),%rax        # 1b7e8 <g_123>
   13096:	48 83 c0 01          	add    $0x1,%rax
   1309a:	48 89 05 47 87 00 00 	mov    %rax,0x8747(%rip)        # 1b7e8 <g_123>
   130a1:	48 8b 05 40 87 00 00 	mov    0x8740(%rip),%rax        # 1b7e8 <g_123>
   130a8:	48 83 f8 06          	cmp    $0x6,%rax
   130ac:	0f 86 70 fa ff ff    	jbe    12b22 <func_65+0x7bb>
   130b2:	48 8b 05 25 87 00 00 	mov    0x8725(%rip),%rax        # 1b7de <g_116+0x1e>
   130b9:	48 83 c0 01          	add    $0x1,%rax
   130bd:	48 89 05 1a 87 00 00 	mov    %rax,0x871a(%rip)        # 1b7de <g_116+0x1e>
   130c4:	48 8b 05 13 87 00 00 	mov    0x8713(%rip),%rax        # 1b7de <g_116+0x1e>
   130cb:	48 83 f8 2c          	cmp    $0x2c,%rax
   130cf:	0f 87 29 f5 ff ff    	ja     125fe <func_65+0x297>
   130d5:	8b 85 04 fa ff ff    	mov    -0x5fc(%rbp),%eax
   130db:	44 0f bf e0          	movswl %ax,%r12d
   130df:	48 8b 45 c0          	mov    -0x40(%rbp),%rax
   130e3:	41 89 c7             	mov    %eax,%r15d
   130e6:	48 8b 85 40 fa ff ff 	mov    -0x5c0(%rbp),%rax
   130ed:	c6 00 00             	movb   $0x0,(%rax)
   130f0:	48 8b 05 29 87 00 00 	mov    0x8729(%rip),%rax        # 1b820 <g_244>
   130f7:	48 8b 05 2a 87 00 00 	mov    0x872a(%rip),%rax        # 1b828 <g_244+0x8>
   130fe:	48 8b 85 c0 f9 ff ff 	mov    -0x640(%rbp),%rax
   13105:	8b 18                	mov    (%rax),%ebx
   13107:	48 8b 05 88 87 00 00 	mov    0x8788(%rip),%rax        # 1b896 <g_517+0x16>
   1310e:	98                   	cwtl   
   1310f:	be 0f 00 00 00       	mov    $0xf,%esi
   13114:	89 c7                	mov    %eax,%edi
   13116:	e8 c6 23 ff ff       	callq  54e1 <safe_lshift_func_int16_t_s_u>
   1311b:	44 0f bf e8          	movswl %ax,%r13d
   1311f:	8b 85 08 fa ff ff    	mov    -0x5f8(%rbp),%eax
   13125:	89 85 e0 f9 ff ff    	mov    %eax,-0x620(%rbp)
   1312b:	44 8b b5 e0 f9 ff ff 	mov    -0x620(%rbp),%r14d
   13132:	be ed bb 26 fc       	mov    $0xfc26bbed,%esi
   13137:	bf 5c 99 30 4b       	mov    $0x4b30995c,%edi
   1313c:	e8 be 25 ff ff       	callq  56ff <safe_div_func_int32_t_s_s>
   13141:	41 39 c6             	cmp    %eax,%r14d
   13144:	0f 9d c0             	setge  %al
   13147:	0f b6 d0             	movzbl %al,%edx
   1314a:	48 8b 85 80 fa ff ff 	mov    -0x580(%rbp),%rax
   13151:	66 89 10             	mov    %dx,(%rax)
   13154:	48 8b 85 80 fa ff ff 	mov    -0x580(%rbp),%rax
   1315b:	0f b7 00             	movzwl (%rax),%eax
   1315e:	0f b7 c0             	movzwl %ax,%eax
   13161:	44 31 e8             	xor    %r13d,%eax
   13164:	48 98                	cltq   
   13166:	4c 8b 2d 7b a3 00 00 	mov    0xa37b(%rip),%r13        # 1d4e8 <g_804>
   1316d:	48 8b 95 c8 f9 ff ff 	mov    -0x638(%rbp),%rdx
   13174:	49 89 d0             	mov    %rdx,%r8
   13177:	44 89 e1             	mov    %r12d,%ecx
   1317a:	44 89 fa             	mov    %r15d,%edx
   1317d:	89 de                	mov    %ebx,%esi
   1317f:	48 89 c7             	mov    %rax,%rdi
   13182:	e8 6c 01 00 00       	callq  132f3 <func_68>
   13187:	49 89 45 00          	mov    %rax,0x0(%r13)
   1318b:	8b 9d f4 fb ff ff    	mov    -0x40c(%rbp),%ebx
   13191:	48 8b 05 c8 9f 00 00 	mov    0x9fc8(%rip),%rax        # 1d160 <g_446>
   13198:	4c 8b 20             	mov    (%rax),%r12
   1319b:	8b 05 87 7e 00 00    	mov    0x7e87(%rip),%eax        # 1b028 <g_32>
   131a1:	0d a0 25 00 00       	or     $0x25a0,%eax
   131a6:	89 c2                	mov    %eax,%edx
   131a8:	48 b8 6a d9 89 1d 26 	movabs $0x88c949261d89d96a,%rax
   131af:	49 c9 88 
   131b2:	48 21 c2             	and    %rax,%rdx
   131b5:	8b 05 79 81 00 00    	mov    0x8179(%rip),%eax        # 1b334 <g_44>
   131bb:	48 98                	cltq   
   131bd:	48 39 c2             	cmp    %rax,%rdx
   131c0:	0f 95 c0             	setne  %al
   131c3:	0f b6 c0             	movzbl %al,%eax
   131c6:	89 c7                	mov    %eax,%edi
   131c8:	e8 f2 1f ff ff       	callq  51bf <safe_unary_minus_func_int8_t_s>
   131cd:	48 8b 05 8c 9f 00 00 	mov    0x9f8c(%rip),%rax        # 1d160 <g_446>
   131d4:	48 8b 00             	mov    (%rax),%rax
   131d7:	4c 89 e6             	mov    %r12,%rsi
   131da:	48 89 c7             	mov    %rax,%rdi
   131dd:	e8 15 28 ff ff       	callq  59f7 <safe_div_func_int64_t_s_s>
   131e2:	0f be c0             	movsbl %al,%eax
   131e5:	89 de                	mov    %ebx,%esi
   131e7:	89 c7                	mov    %eax,%edi
   131e9:	e8 b3 20 ff ff       	callq  52a1 <safe_lshift_func_int8_t_s_s>
   131ee:	0f be d0             	movsbl %al,%edx
   131f1:	48 8b 8d 40 fa ff ff 	mov    -0x5c0(%rbp),%rcx
   131f8:	48 8b 85 88 fa ff ff 	mov    -0x578(%rbp),%rax
   131ff:	48 89 08             	mov    %rcx,(%rax)
   13202:	48 8b 85 88 fa ff ff 	mov    -0x578(%rbp),%rax
   13209:	48 8b 00             	mov    (%rax),%rax
   1320c:	48 8d 0d e5 85 00 00 	lea    0x85e5(%rip),%rcx        # 1b7f8 <g_147>
   13213:	48 39 c8             	cmp    %rcx,%rax
   13216:	0f 94 c0             	sete   %al
   13219:	0f b6 c0             	movzbl %al,%eax
   1321c:	89 d6                	mov    %edx,%esi
   1321e:	89 c7                	mov    %eax,%edi
   13220:	e8 55 2c ff ff       	callq  5e7a <safe_rshift_func_uint16_t_u_u>
   13225:	be 00 00 00 00       	mov    $0x0,%esi
   1322a:	bf fc ff ff ff       	mov    $0xfffffffc,%edi
   1322f:	e8 de 1f ff ff       	callq  5212 <safe_mul_func_int8_t_s_s>
   13234:	48 8d 85 d8 f9 ff ff 	lea    -0x628(%rbp),%rax
   1323b:	48 89 05 ae a2 00 00 	mov    %rax,0xa2ae(%rip)        # 1d4f0 <g_817>
   13242:	0f b6 05 e0 85 00 00 	movzbl 0x85e0(%rip),%eax        # 1b829 <g_244+0x9>
   13249:	0f b6 c0             	movzbl %al,%eax
   1324c:	be 00 00 00 00       	mov    $0x0,%esi
   13251:	89 c7                	mov    %eax,%edi
   13253:	e8 5b 21 ff ff       	callq  53b3 <safe_add_func_int16_t_s_s>
   13258:	c6 05 99 85 00 00 00 	movb   $0x0,0x8599(%rip)        # 1b7f8 <g_147>
   1325f:	8b 85 4c fb ff ff    	mov    -0x4b4(%rbp),%eax
   13265:	48 63 d8             	movslq %eax,%rbx
   13268:	8b 05 3a 86 00 00    	mov    0x863a(%rip),%eax        # 1b8a8 <g_597>
   1326e:	0f b7 c0             	movzwl %ax,%eax
   13271:	be 04 00 00 00       	mov    $0x4,%esi
   13276:	89 c7                	mov    %eax,%edi
   13278:	e8 41 2b ff ff       	callq  5dbe <safe_lshift_func_uint16_t_u_s>
   1327d:	44 0f b7 e0          	movzwl %ax,%r12d
   13281:	be 06 00 00 00       	mov    $0x6,%esi
   13286:	bf f9 ff 00 00       	mov    $0xfff9,%edi
   1328b:	e8 76 2b ff ff       	callq  5e06 <safe_lshift_func_uint16_t_u_u>
   13290:	0f b7 c0             	movzwl %ax,%eax
   13293:	4c 89 e6             	mov    %r12,%rsi
   13296:	48 89 c7             	mov    %rax,%rdi
   13299:	e8 16 27 ff ff       	callq  59b4 <safe_mod_func_int64_t_s_s>
   1329e:	48 89 de             	mov    %rbx,%rsi
   132a1:	48 89 c7             	mov    %rax,%rdi
   132a4:	e8 4e 27 ff ff       	callq  59f7 <safe_div_func_int64_t_s_s>
   132a9:	48 8b 1d 78 9e 00 00 	mov    0x9e78(%rip),%rbx        # 1d128 <g_275>
   132b0:	8b 85 04 fa ff ff    	mov    -0x5fc(%rbp),%eax
   132b6:	89 c6                	mov    %eax,%esi
   132b8:	bf 01 00 00 00       	mov    $0x1,%edi
   132bd:	e8 3d 24 ff ff       	callq  56ff <safe_div_func_int32_t_s_s>
   132c2:	89 03                	mov    %eax,(%rbx)
   132c4:	48 8b 05 85 9e 00 00 	mov    0x9e85(%rip),%rax        # 1d150 <g_431>
   132cb:	8b 00                	mov    (%rax),%eax
   132cd:	48 8b 5d c8          	mov    -0x38(%rbp),%rbx
   132d1:	64 48 33 1c 25 28 00 	xor    %fs:0x28,%rbx
   132d8:	00 00 
   132da:	74 05                	je     132e1 <func_65+0xf7a>
   132dc:	e8 8f 1d ff ff       	callq  5070 <__stack_chk_fail@plt>
   132e1:	48 81 c4 18 06 00 00 	add    $0x618,%rsp
   132e8:	5b                   	pop    %rbx
   132e9:	41 5c                	pop    %r12
   132eb:	41 5d                	pop    %r13
   132ed:	41 5e                	pop    %r14
   132ef:	41 5f                	pop    %r15
   132f1:	5d                   	pop    %rbp
   132f2:	c3                   	retq   

00000000000132f3 <func_68>:
   132f3:	f3 0f 1e fa          	endbr64 
   132f7:	55                   	push   %rbp
   132f8:	48 89 e5             	mov    %rsp,%rbp
   132fb:	48 81 ec 40 07 00 00 	sub    $0x740,%rsp
   13302:	48 89 bd d8 f8 ff ff 	mov    %rdi,-0x728(%rbp)
   13309:	89 b5 d4 f8 ff ff    	mov    %esi,-0x72c(%rbp)
   1330f:	89 95 d0 f8 ff ff    	mov    %edx,-0x730(%rbp)
   13315:	89 c8                	mov    %ecx,%eax
   13317:	4c 89 85 c0 f8 ff ff 	mov    %r8,-0x740(%rbp)
   1331e:	66 89 85 cc f8 ff ff 	mov    %ax,-0x734(%rbp)
   13325:	64 48 8b 04 25 28 00 	mov    %fs:0x28,%rax
   1332c:	00 00 
   1332e:	48 89 45 f8          	mov    %rax,-0x8(%rbp)
   13332:	31 c0                	xor    %eax,%eax
   13334:	48 c7 85 10 fa ff ff 	movq   $0x0,-0x5f0(%rbp)
   1333b:	00 00 00 00 
   1333f:	48 b8 1c 9a 89 7b 49 	movabs $0x26fd0a497b899a1c,%rax
   13346:	0a fd 26 
   13349:	48 89 85 18 fa ff ff 	mov    %rax,-0x5e8(%rbp)
   13350:	48 c7 85 20 fa ff ff 	movq   $0x0,-0x5e0(%rbp)
   13357:	00 00 00 00 
   1335b:	48 89 85 28 fa ff ff 	mov    %rax,-0x5d8(%rbp)
   13362:	48 c7 85 30 fa ff ff 	movq   $0x0,-0x5d0(%rbp)
   13369:	00 00 00 00 
   1336d:	48 89 85 38 fa ff ff 	mov    %rax,-0x5c8(%rbp)
   13374:	48 c7 85 40 fa ff ff 	movq   $0x0,-0x5c0(%rbp)
   1337b:	00 00 00 00 
   1337f:	48 89 85 48 fa ff ff 	mov    %rax,-0x5b8(%rbp)
   13386:	c7 85 f0 f8 ff ff 00 	movl   $0x0,-0x710(%rbp)
   1338d:	00 00 00 
   13390:	c7 85 f8 f8 ff ff a3 	movl   $0xbaf6d2a3,-0x708(%rbp)
   13397:	d2 f6 ba 
   1339a:	c7 85 fc f8 ff ff a5 	movl   $0xea9840a5,-0x704(%rbp)
   133a1:	40 98 ea 
   133a4:	c7 85 00 f9 ff ff dd 	movl   $0x15dc8cdd,-0x700(%rbp)
   133ab:	8c dc 15 
   133ae:	c7 85 04 f9 ff ff 73 	movl   $0x66829673,-0x6fc(%rbp)
   133b5:	96 82 66 
   133b8:	c7 85 08 f9 ff ff e6 	movl   $0x2b6956e6,-0x6f8(%rbp)
   133bf:	56 69 2b 
   133c2:	c7 85 d0 fa ff ff a1 	movl   $0x53127a1,-0x530(%rbp)
   133c9:	27 31 05 
   133cc:	c7 85 d4 fa ff ff e7 	movl   $0xd27dc5e7,-0x52c(%rbp)
   133d3:	c5 7d d2 
   133d6:	c7 85 d8 fa ff ff 00 	movl   $0x0,-0x528(%rbp)
   133dd:	00 00 00 
   133e0:	c7 85 dc fa ff ff e7 	movl   $0xd27dc5e7,-0x524(%rbp)
   133e7:	c5 7d d2 
   133ea:	c7 85 e0 fa ff ff a1 	movl   $0x53127a1,-0x520(%rbp)
   133f1:	27 31 05 
   133f4:	c7 85 e4 fa ff ff a3 	movl   $0x3f87e3a3,-0x51c(%rbp)
   133fb:	e3 87 3f 
   133fe:	c7 85 e8 fa ff ff 00 	movl   $0x0,-0x518(%rbp)
   13405:	00 00 00 
   13408:	c7 85 ec fa ff ff a3 	movl   $0x3f87e3a3,-0x514(%rbp)
   1340f:	e3 87 3f 
   13412:	c7 85 f0 fa ff ff a1 	movl   $0x53127a1,-0x510(%rbp)
   13419:	27 31 05 
   1341c:	c7 85 f4 fa ff ff e7 	movl   $0xd27dc5e7,-0x50c(%rbp)
   13423:	c5 7d d2 
   13426:	c7 85 f8 fa ff ff 00 	movl   $0x0,-0x508(%rbp)
   1342d:	00 00 00 
   13430:	c7 85 fc fa ff ff e7 	movl   $0xd27dc5e7,-0x504(%rbp)
   13437:	c5 7d d2 
   1343a:	c7 85 00 fb ff ff a1 	movl   $0x53127a1,-0x500(%rbp)
   13441:	27 31 05 
   13444:	c7 85 04 fb ff ff a3 	movl   $0x3f87e3a3,-0x4fc(%rbp)
   1344b:	e3 87 3f 
   1344e:	c7 85 08 fb ff ff 00 	movl   $0x0,-0x4f8(%rbp)
   13455:	00 00 00 
   13458:	c7 85 0c fb ff ff a3 	movl   $0x3f87e3a3,-0x4f4(%rbp)
   1345f:	e3 87 3f 
   13462:	c7 85 10 fb ff ff a1 	movl   $0x53127a1,-0x4f0(%rbp)
   13469:	27 31 05 
   1346c:	c7 85 14 fb ff ff e7 	movl   $0xd27dc5e7,-0x4ec(%rbp)
   13473:	c5 7d d2 
   13476:	c7 85 18 fb ff ff 00 	movl   $0x0,-0x4e8(%rbp)
   1347d:	00 00 00 
   13480:	c7 85 1c fb ff ff e7 	movl   $0xd27dc5e7,-0x4e4(%rbp)
   13487:	c5 7d d2 
   1348a:	c7 85 20 fb ff ff a1 	movl   $0x53127a1,-0x4e0(%rbp)
   13491:	27 31 05 
   13494:	c7 85 24 fb ff ff a3 	movl   $0x3f87e3a3,-0x4dc(%rbp)
   1349b:	e3 87 3f 
   1349e:	c7 85 28 fb ff ff 00 	movl   $0x0,-0x4d8(%rbp)
   134a5:	00 00 00 
   134a8:	c7 85 2c fb ff ff a3 	movl   $0x3f87e3a3,-0x4d4(%rbp)
   134af:	e3 87 3f 
   134b2:	c7 85 30 fb ff ff a1 	movl   $0x53127a1,-0x4d0(%rbp)
   134b9:	27 31 05 
   134bc:	c7 85 34 fb ff ff e7 	movl   $0xd27dc5e7,-0x4cc(%rbp)
   134c3:	c5 7d d2 
   134c6:	c7 85 38 fb ff ff 00 	movl   $0x0,-0x4c8(%rbp)
   134cd:	00 00 00 
   134d0:	c7 85 3c fb ff ff e7 	movl   $0xd27dc5e7,-0x4c4(%rbp)
   134d7:	c5 7d d2 
   134da:	c7 85 40 fb ff ff a1 	movl   $0x53127a1,-0x4c0(%rbp)
   134e1:	27 31 05 
   134e4:	c7 85 44 fb ff ff a3 	movl   $0x3f87e3a3,-0x4bc(%rbp)
   134eb:	e3 87 3f 
   134ee:	c7 85 48 fb ff ff 00 	movl   $0x0,-0x4b8(%rbp)
   134f5:	00 00 00 
   134f8:	c7 85 4c fb ff ff a3 	movl   $0x3f87e3a3,-0x4b4(%rbp)
   134ff:	e3 87 3f 
   13502:	c7 85 50 fb ff ff a1 	movl   $0x53127a1,-0x4b0(%rbp)
   13509:	27 31 05 
   1350c:	c7 85 54 fb ff ff e7 	movl   $0xd27dc5e7,-0x4ac(%rbp)
   13513:	c5 7d d2 
   13516:	c7 85 58 fb ff ff 00 	movl   $0x0,-0x4a8(%rbp)
   1351d:	00 00 00 
   13520:	c7 85 5c fb ff ff e7 	movl   $0xd27dc5e7,-0x4a4(%rbp)
   13527:	c5 7d d2 
   1352a:	c7 85 60 fb ff ff a1 	movl   $0x53127a1,-0x4a0(%rbp)
   13531:	27 31 05 
   13534:	c7 85 64 fb ff ff a3 	movl   $0x3f87e3a3,-0x49c(%rbp)
   1353b:	e3 87 3f 
   1353e:	c7 85 68 fb ff ff 00 	movl   $0x0,-0x498(%rbp)
   13545:	00 00 00 
   13548:	c7 85 6c fb ff ff a3 	movl   $0x3f87e3a3,-0x494(%rbp)
   1354f:	e3 87 3f 
   13552:	48 c7 85 30 f9 ff ff 	movq   $0x5,-0x6d0(%rbp)
   13559:	05 00 00 00 
   1355d:	48 8d 05 9e 82 00 00 	lea    0x829e(%rip),%rax        # 1b802 <g_179+0x2>
   13564:	48 89 85 38 f9 ff ff 	mov    %rax,-0x6c8(%rbp)
   1356b:	48 8d 05 ae 82 00 00 	lea    0x82ae(%rip),%rax        # 1b820 <g_244>
   13572:	48 89 85 40 f9 ff ff 	mov    %rax,-0x6c0(%rbp)
   13579:	c7 85 0c f9 ff ff 32 	movl   $0x80d3ec32,-0x6f4(%rbp)
   13580:	ec d3 80 
   13583:	c7 85 10 f9 ff ff 02 	movl   $0x2,-0x6f0(%rbp)
   1358a:	00 00 00 
   1358d:	c6 85 ed f8 ff ff 82 	movb   $0x82,-0x713(%rbp)
   13594:	48 8d 05 b9 82 00 00 	lea    0x82b9(%rip),%rax        # 1b854 <g_303+0x4>
   1359b:	48 89 85 48 f9 ff ff 	mov    %rax,-0x6b8(%rbp)
   135a2:	c7 85 14 f9 ff ff ff 	movl   $0xffffffff,-0x6ec(%rbp)
   135a9:	ff ff ff 
   135ac:	66 c7 85 cc f8 ff ff 	movw   $0x0,-0x734(%rbp)
   135b3:	00 00 
   135b5:	e9 f3 02 00 00       	jmpq   138ad <func_68+0x5ba>
   135ba:	c7 85 b0 f9 ff ff 70 	movl   $0x9c81770,-0x650(%rbp)
   135c1:	17 c8 09 
   135c4:	c7 85 b4 f9 ff ff fb 	movl   $0xfffffffb,-0x64c(%rbp)
   135cb:	ff ff ff 
   135ce:	c7 85 b8 f9 ff ff 70 	movl   $0x9c81770,-0x648(%rbp)
   135d5:	17 c8 09 
   135d8:	c7 85 bc f9 ff ff fb 	movl   $0xfffffffb,-0x644(%rbp)
   135df:	ff ff ff 
   135e2:	c7 85 c0 f9 ff ff 70 	movl   $0x9c81770,-0x640(%rbp)
   135e9:	17 c8 09 
   135ec:	c7 85 c4 f9 ff ff fb 	movl   $0xfffffffb,-0x63c(%rbp)
   135f3:	ff ff ff 
   135f6:	c7 85 c8 f9 ff ff 70 	movl   $0x9c81770,-0x638(%rbp)
   135fd:	17 c8 09 
   13600:	c7 85 cc f9 ff ff fb 	movl   $0xfffffffb,-0x634(%rbp)
   13607:	ff ff ff 
   1360a:	48 8d 85 70 fb ff ff 	lea    -0x490(%rbp),%rax
   13611:	48 8d 15 68 96 00 00 	lea    0x9668(%rip),%rdx        # 1cc80 <g_2691+0xbf8>
   13618:	b9 90 00 00 00       	mov    $0x90,%ecx
   1361d:	48 89 c7             	mov    %rax,%rdi
   13620:	48 89 d6             	mov    %rdx,%rsi
   13623:	f3 48 a5             	rep movsq %ds:(%rsi),%es:(%rdi)
   13626:	48 8d 85 f0 f8 ff ff 	lea    -0x710(%rbp),%rax
   1362d:	48 89 85 50 f9 ff ff 	mov    %rax,-0x6b0(%rbp)
   13634:	48 8d 05 c8 81 00 00 	lea    0x81c8(%rip),%rax        # 1b803 <g_179+0x3>
   1363b:	48 89 85 58 f9 ff ff 	mov    %rax,-0x6a8(%rbp)
   13642:	48 c7 85 60 f9 ff ff 	movq   $0x0,-0x6a0(%rbp)
   13649:	00 00 00 00 
   1364d:	48 c7 85 68 f9 ff ff 	movq   $0xfffffffffffffffa,-0x698(%rbp)
   13654:	fa ff ff ff 
   13658:	c7 85 f4 f8 ff ff 00 	movl   $0x0,-0x70c(%rbp)
   1365f:	00 00 00 
   13662:	eb 1e                	jmp    13682 <func_68+0x38f>
   13664:	8b 85 f4 f8 ff ff    	mov    -0x70c(%rbp),%eax
   1366a:	48 98                	cltq   
   1366c:	48 8d 15 c1 7c 00 00 	lea    0x7cc1(%rip),%rdx        # 1b334 <g_44>
   13673:	48 89 94 c5 d0 f9 ff 	mov    %rdx,-0x630(%rbp,%rax,8)
   1367a:	ff 
   1367b:	83 85 f4 f8 ff ff 01 	addl   $0x1,-0x70c(%rbp)
   13682:	83 bd f4 f8 ff ff 06 	cmpl   $0x6,-0x70c(%rbp)
   13689:	7e d9                	jle    13664 <func_68+0x371>
   1368b:	c7 05 93 79 00 00 00 	movl   $0x0,0x7993(%rip)        # 1b028 <g_32>
   13692:	00 00 00 
   13695:	e9 f3 01 00 00       	jmpq   1388d <func_68+0x59a>
   1369a:	c7 85 18 f9 ff ff fc 	movl   $0xfffffffc,-0x6e8(%rbp)
   136a1:	ff ff ff 
   136a4:	c7 85 1c f9 ff ff 02 	movl   $0x2,-0x6e4(%rbp)
   136ab:	00 00 00 
   136ae:	c7 85 20 f9 ff ff 94 	movl   $0xedc0e594,-0x6e0(%rbp)
   136b5:	e5 c0 ed 
   136b8:	c7 85 24 f9 ff ff 34 	movl   $0xcf97334,-0x6dc(%rbp)
   136bf:	73 f9 0c 
   136c2:	c7 85 28 f9 ff ff 04 	movl   $0x4,-0x6d8(%rbp)
   136c9:	00 00 00 
   136cc:	c7 85 2c f9 ff ff ca 	movl   $0xd48f99ca,-0x6d4(%rbp)
   136d3:	99 8f d4 
   136d6:	c7 85 50 fa ff ff 1b 	movl   $0x54941c1b,-0x5b0(%rbp)
   136dd:	1c 94 54 
   136e0:	c7 85 54 fa ff ff 1b 	movl   $0x54941c1b,-0x5ac(%rbp)
   136e7:	1c 94 54 
   136ea:	c7 85 58 fa ff ff 1b 	movl   $0x54941c1b,-0x5a8(%rbp)
   136f1:	1c 94 54 
   136f4:	c7 85 5c fa ff ff ff 	movl   $0xffffffff,-0x5a4(%rbp)
   136fb:	ff ff ff 
   136fe:	c7 85 60 fa ff ff ff 	movl   $0xffffffff,-0x5a0(%rbp)
   13705:	ff ff ff 
   13708:	c7 85 64 fa ff ff ff 	movl   $0xffffffff,-0x59c(%rbp)
   1370f:	ff ff ff 
   13712:	c7 85 68 fa ff ff 1b 	movl   $0x54941c1b,-0x598(%rbp)
   13719:	1c 94 54 
   1371c:	c7 85 6c fa ff ff 1b 	movl   $0x54941c1b,-0x594(%rbp)
   13723:	1c 94 54 
   13726:	c7 85 70 fa ff ff 1b 	movl   $0x54941c1b,-0x590(%rbp)
   1372d:	1c 94 54 
   13730:	c7 85 74 fa ff ff ff 	movl   $0xffffffff,-0x58c(%rbp)
   13737:	ff ff ff 
   1373a:	c7 85 78 fa ff ff ff 	movl   $0xffffffff,-0x588(%rbp)
   13741:	ff ff ff 
   13744:	c7 85 7c fa ff ff ff 	movl   $0xffffffff,-0x584(%rbp)
   1374b:	ff ff ff 
   1374e:	c7 85 80 fa ff ff 1b 	movl   $0x54941c1b,-0x580(%rbp)
   13755:	1c 94 54 
   13758:	c7 85 84 fa ff ff 1b 	movl   $0x54941c1b,-0x57c(%rbp)
   1375f:	1c 94 54 
   13762:	c7 85 88 fa ff ff 1b 	movl   $0x54941c1b,-0x578(%rbp)
   13769:	1c 94 54 
   1376c:	c7 85 8c fa ff ff ff 	movl   $0xffffffff,-0x574(%rbp)
   13773:	ff ff ff 
   13776:	c7 85 90 fa ff ff ff 	movl   $0xffffffff,-0x570(%rbp)
   1377d:	ff ff ff 
   13780:	c7 85 94 fa ff ff ff 	movl   $0xffffffff,-0x56c(%rbp)
   13787:	ff ff ff 
   1378a:	c7 85 98 fa ff ff 1b 	movl   $0x54941c1b,-0x568(%rbp)
   13791:	1c 94 54 
   13794:	c7 85 9c fa ff ff 1b 	movl   $0x54941c1b,-0x564(%rbp)
   1379b:	1c 94 54 
   1379e:	c7 85 a0 fa ff ff 1b 	movl   $0x54941c1b,-0x560(%rbp)
   137a5:	1c 94 54 
   137a8:	c7 85 a4 fa ff ff ff 	movl   $0xffffffff,-0x55c(%rbp)
   137af:	ff ff ff 
   137b2:	c7 85 a8 fa ff ff ff 	movl   $0xffffffff,-0x558(%rbp)
   137b9:	ff ff ff 
   137bc:	c7 85 ac fa ff ff ff 	movl   $0xffffffff,-0x554(%rbp)
   137c3:	ff ff ff 
   137c6:	c7 85 b0 fa ff ff 1b 	movl   $0x54941c1b,-0x550(%rbp)
   137cd:	1c 94 54 
   137d0:	c7 85 b4 fa ff ff 1b 	movl   $0x54941c1b,-0x54c(%rbp)
   137d7:	1c 94 54 
   137da:	c7 85 b8 fa ff ff 1b 	movl   $0x54941c1b,-0x548(%rbp)
   137e1:	1c 94 54 
   137e4:	c7 85 bc fa ff ff ff 	movl   $0xffffffff,-0x544(%rbp)
   137eb:	ff ff ff 
   137ee:	c7 85 c0 fa ff ff ff 	movl   $0xffffffff,-0x540(%rbp)
   137f5:	ff ff ff 
   137f8:	c7 85 c4 fa ff ff ff 	movl   $0xffffffff,-0x53c(%rbp)
   137ff:	ff ff ff 
   13802:	48 b8 5a 95 a0 a8 88 	movabs $0x6b3a4488a8a0955a,%rax
   13809:	44 3a 6b 
   1380c:	48 89 85 70 f9 ff ff 	mov    %rax,-0x690(%rbp)
   13813:	48 8d 05 e8 7f 00 00 	lea    0x7fe8(%rip),%rax        # 1b802 <g_179+0x2>
   1381a:	48 89 85 78 f9 ff ff 	mov    %rax,-0x688(%rbp)
   13821:	48 8d 05 f8 98 00 00 	lea    0x98f8(%rip),%rax        # 1d120 <g_102>
   13828:	48 89 85 80 f9 ff ff 	mov    %rax,-0x680(%rbp)
   1382f:	48 c7 85 88 f9 ff ff 	movq   $0x0,-0x678(%rbp)
   13836:	00 00 00 00 
   1383a:	48 c7 85 90 f9 ff ff 	movq   $0x0,-0x670(%rbp)
   13841:	00 00 00 00 
   13845:	48 8d 85 70 fb ff ff 	lea    -0x490(%rbp),%rax
   1384c:	48 05 68 02 00 00    	add    $0x268,%rax
   13852:	48 89 85 98 f9 ff ff 	mov    %rax,-0x668(%rbp)
   13859:	48 8d 05 86 7f 00 00 	lea    0x7f86(%rip),%rax        # 1b7e6 <g_116+0x26>
   13860:	48 89 85 a0 f9 ff ff 	mov    %rax,-0x660(%rbp)
   13867:	48 8d 05 aa 7f 00 00 	lea    0x7faa(%rip),%rax        # 1b818 <g_223>
   1386e:	48 89 85 a8 f9 ff ff 	mov    %rax,-0x658(%rbp)
   13875:	66 c7 85 ee f8 ff ff 	movw   $0x0,-0x712(%rbp)
   1387c:	00 00 
   1387e:	8b 05 a4 77 00 00    	mov    0x77a4(%rip),%eax        # 1b028 <g_32>
   13884:	83 c0 01             	add    $0x1,%eax
   13887:	89 05 9b 77 00 00    	mov    %eax,0x779b(%rip)        # 1b028 <g_32>
   1388d:	8b 05 95 77 00 00    	mov    0x7795(%rip),%eax        # 1b028 <g_32>
   13893:	83 f8 02             	cmp    $0x2,%eax
   13896:	0f 86 fe fd ff ff    	jbe    1369a <func_68+0x3a7>
   1389c:	0f b7 85 cc f8 ff ff 	movzwl -0x734(%rbp),%eax
   138a3:	83 c0 01             	add    $0x1,%eax
   138a6:	66 89 85 cc f8 ff ff 	mov    %ax,-0x734(%rbp)
   138ad:	66 83 bd cc f8 ff ff 	cmpw   $0x10,-0x734(%rbp)
   138b4:	10 
   138b5:	0f 85 ff fc ff ff    	jne    135ba <func_68+0x2c7>
   138bb:	48 8b 85 c0 f8 ff ff 	mov    -0x740(%rbp),%rax
   138c2:	48 89 05 57 98 00 00 	mov    %rax,0x9857(%rip)        # 1d120 <g_102>
   138c9:	48 8b 85 48 f9 ff ff 	mov    -0x6b8(%rbp),%rax
   138d0:	8b 00                	mov    (%rax),%eax
   138d2:	8d 50 01             	lea    0x1(%rax),%edx
   138d5:	48 8b 85 48 f9 ff ff 	mov    -0x6b8(%rbp),%rax
   138dc:	89 10                	mov    %edx,(%rax)
   138de:	83 bd 14 f9 ff ff 01 	cmpl   $0x1,-0x6ec(%rbp)
   138e5:	0f 95 c0             	setne  %al
   138e8:	0f b6 c0             	movzbl %al,%eax
   138eb:	be a0 69 ae 60       	mov    $0x60ae69a0,%esi
   138f0:	89 c7                	mov    %eax,%edi
   138f2:	e8 d5 1d ff ff       	callq  56cc <safe_mod_func_int32_t_s_s>
   138f7:	89 c2                	mov    %eax,%edx
   138f9:	48 8b 05 28 98 00 00 	mov    0x9828(%rip),%rax        # 1d128 <g_275>
   13900:	8b 08                	mov    (%rax),%ecx
   13902:	48 8b 05 1f 98 00 00 	mov    0x981f(%rip),%rax        # 1d128 <g_275>
   13909:	09 ca                	or     %ecx,%edx
   1390b:	89 10                	mov    %edx,(%rax)
   1390d:	48 8b 85 48 f9 ff ff 	mov    -0x6b8(%rbp),%rax
   13914:	48 8b 75 f8          	mov    -0x8(%rbp),%rsi
   13918:	64 48 33 34 25 28 00 	xor    %fs:0x28,%rsi
   1391f:	00 00 
   13921:	74 05                	je     13928 <func_68+0x635>
   13923:	e8 48 17 ff ff       	callq  5070 <__stack_chk_fail@plt>
   13928:	c9                   	leaveq 
   13929:	c3                   	retq   

000000000001392a <func_74>:
   1392a:	f3 0f 1e fa          	endbr64 
   1392e:	55                   	push   %rbp
   1392f:	48 89 e5             	mov    %rsp,%rbp
   13932:	41 55                	push   %r13
   13934:	41 54                	push   %r12
   13936:	53                   	push   %rbx
   13937:	48 81 ec a8 04 00 00 	sub    $0x4a8,%rsp
   1393e:	89 bd 4c fb ff ff    	mov    %edi,-0x4b4(%rbp)
   13944:	64 48 8b 04 25 28 00 	mov    %fs:0x28,%rax
   1394b:	00 00 
   1394d:	48 89 45 d8          	mov    %rax,-0x28(%rbp)
   13951:	31 c0                	xor    %eax,%eax
   13953:	48 8d 05 26 79 00 00 	lea    0x7926(%rip),%rax        # 1b280 <g_42+0x240>
   1395a:	48 89 85 60 fb ff ff 	mov    %rax,-0x4a0(%rbp)
   13961:	48 c7 85 68 fb ff ff 	movq   $0x0,-0x498(%rbp)
   13968:	00 00 00 00 
   1396c:	48 c7 85 b0 fc ff ff 	movq   $0x0,-0x350(%rbp)
   13973:	00 00 00 00 
   13977:	48 c7 85 b8 fc ff ff 	movq   $0x0,-0x348(%rbp)
   1397e:	00 00 00 00 
   13982:	48 c7 85 c0 fc ff ff 	movq   $0x0,-0x340(%rbp)
   13989:	00 00 00 00 
   1398d:	48 c7 85 c8 fc ff ff 	movq   $0x0,-0x338(%rbp)
   13994:	00 00 00 00 
   13998:	48 c7 85 d0 fc ff ff 	movq   $0x0,-0x330(%rbp)
   1399f:	00 00 00 00 
   139a3:	48 8d 85 60 fb ff ff 	lea    -0x4a0(%rbp),%rax
   139aa:	48 89 85 d8 fc ff ff 	mov    %rax,-0x328(%rbp)
   139b1:	48 8d 85 60 fb ff ff 	lea    -0x4a0(%rbp),%rax
   139b8:	48 89 85 e0 fc ff ff 	mov    %rax,-0x320(%rbp)
   139bf:	48 8d 85 60 fb ff ff 	lea    -0x4a0(%rbp),%rax
   139c6:	48 89 85 e8 fc ff ff 	mov    %rax,-0x318(%rbp)
   139cd:	48 8d 85 60 fb ff ff 	lea    -0x4a0(%rbp),%rax
   139d4:	48 89 85 f0 fc ff ff 	mov    %rax,-0x310(%rbp)
   139db:	48 8d 85 60 fb ff ff 	lea    -0x4a0(%rbp),%rax
   139e2:	48 89 85 f8 fc ff ff 	mov    %rax,-0x308(%rbp)
   139e9:	48 c7 85 00 fd ff ff 	movq   $0x0,-0x300(%rbp)
   139f0:	00 00 00 00 
   139f4:	48 c7 85 08 fd ff ff 	movq   $0x0,-0x2f8(%rbp)
   139fb:	00 00 00 00 
   139ff:	48 c7 85 10 fd ff ff 	movq   $0x0,-0x2f0(%rbp)
   13a06:	00 00 00 00 
   13a0a:	48 c7 85 18 fd ff ff 	movq   $0x0,-0x2e8(%rbp)
   13a11:	00 00 00 00 
   13a15:	48 c7 85 20 fd ff ff 	movq   $0x0,-0x2e0(%rbp)
   13a1c:	00 00 00 00 
   13a20:	48 8d 85 60 fb ff ff 	lea    -0x4a0(%rbp),%rax
   13a27:	48 89 85 28 fd ff ff 	mov    %rax,-0x2d8(%rbp)
   13a2e:	48 8d 85 60 fb ff ff 	lea    -0x4a0(%rbp),%rax
   13a35:	48 89 85 30 fd ff ff 	mov    %rax,-0x2d0(%rbp)
   13a3c:	48 8d 85 60 fb ff ff 	lea    -0x4a0(%rbp),%rax
   13a43:	48 89 85 38 fd ff ff 	mov    %rax,-0x2c8(%rbp)
   13a4a:	48 8d 85 60 fb ff ff 	lea    -0x4a0(%rbp),%rax
   13a51:	48 89 85 40 fd ff ff 	mov    %rax,-0x2c0(%rbp)
   13a58:	48 8d 85 60 fb ff ff 	lea    -0x4a0(%rbp),%rax
   13a5f:	48 89 85 48 fd ff ff 	mov    %rax,-0x2b8(%rbp)
   13a66:	48 c7 85 50 fd ff ff 	movq   $0x0,-0x2b0(%rbp)
   13a6d:	00 00 00 00 
   13a71:	48 c7 85 58 fd ff ff 	movq   $0x0,-0x2a8(%rbp)
   13a78:	00 00 00 00 
   13a7c:	48 c7 85 60 fd ff ff 	movq   $0x0,-0x2a0(%rbp)
   13a83:	00 00 00 00 
   13a87:	48 c7 85 68 fd ff ff 	movq   $0x0,-0x298(%rbp)
   13a8e:	00 00 00 00 
   13a92:	48 c7 85 70 fd ff ff 	movq   $0x0,-0x290(%rbp)
   13a99:	00 00 00 00 
   13a9d:	48 8d 85 60 fb ff ff 	lea    -0x4a0(%rbp),%rax
   13aa4:	48 89 85 78 fd ff ff 	mov    %rax,-0x288(%rbp)
   13aab:	48 8d 85 60 fb ff ff 	lea    -0x4a0(%rbp),%rax
   13ab2:	48 89 85 80 fd ff ff 	mov    %rax,-0x280(%rbp)
   13ab9:	48 8d 85 60 fb ff ff 	lea    -0x4a0(%rbp),%rax
   13ac0:	48 89 85 88 fd ff ff 	mov    %rax,-0x278(%rbp)
   13ac7:	48 8d 85 60 fb ff ff 	lea    -0x4a0(%rbp),%rax
   13ace:	48 89 85 90 fd ff ff 	mov    %rax,-0x270(%rbp)
   13ad5:	48 8d 85 60 fb ff ff 	lea    -0x4a0(%rbp),%rax
   13adc:	48 89 85 98 fd ff ff 	mov    %rax,-0x268(%rbp)
   13ae3:	48 c7 85 a0 fd ff ff 	movq   $0x0,-0x260(%rbp)
   13aea:	00 00 00 00 
   13aee:	48 c7 85 a8 fd ff ff 	movq   $0x0,-0x258(%rbp)
   13af5:	00 00 00 00 
   13af9:	48 c7 85 b0 fd ff ff 	movq   $0x0,-0x250(%rbp)
   13b00:	00 00 00 00 
   13b04:	48 c7 85 b8 fd ff ff 	movq   $0x0,-0x248(%rbp)
   13b0b:	00 00 00 00 
   13b0f:	48 c7 85 c0 fd ff ff 	movq   $0x0,-0x240(%rbp)
   13b16:	00 00 00 00 
   13b1a:	48 8d 85 60 fb ff ff 	lea    -0x4a0(%rbp),%rax
   13b21:	48 89 85 c8 fd ff ff 	mov    %rax,-0x238(%rbp)
   13b28:	48 8d 85 60 fb ff ff 	lea    -0x4a0(%rbp),%rax
   13b2f:	48 89 85 d0 fd ff ff 	mov    %rax,-0x230(%rbp)
   13b36:	48 8d 85 60 fb ff ff 	lea    -0x4a0(%rbp),%rax
   13b3d:	48 89 85 d8 fd ff ff 	mov    %rax,-0x228(%rbp)
   13b44:	48 8d 85 60 fb ff ff 	lea    -0x4a0(%rbp),%rax
   13b4b:	48 89 85 e0 fd ff ff 	mov    %rax,-0x220(%rbp)
   13b52:	48 8d 85 60 fb ff ff 	lea    -0x4a0(%rbp),%rax
   13b59:	48 89 85 e8 fd ff ff 	mov    %rax,-0x218(%rbp)
   13b60:	48 c7 85 f0 fd ff ff 	movq   $0x0,-0x210(%rbp)
   13b67:	00 00 00 00 
   13b6b:	48 c7 85 f8 fd ff ff 	movq   $0x0,-0x208(%rbp)
   13b72:	00 00 00 00 
   13b76:	48 c7 85 00 fe ff ff 	movq   $0x0,-0x200(%rbp)
   13b7d:	00 00 00 00 
   13b81:	48 c7 85 08 fe ff ff 	movq   $0x0,-0x1f8(%rbp)
   13b88:	00 00 00 00 
   13b8c:	48 c7 85 10 fe ff ff 	movq   $0x0,-0x1f0(%rbp)
   13b93:	00 00 00 00 
   13b97:	48 8d 85 60 fb ff ff 	lea    -0x4a0(%rbp),%rax
   13b9e:	48 89 85 18 fe ff ff 	mov    %rax,-0x1e8(%rbp)
   13ba5:	48 8d 85 60 fb ff ff 	lea    -0x4a0(%rbp),%rax
   13bac:	48 89 85 20 fe ff ff 	mov    %rax,-0x1e0(%rbp)
   13bb3:	48 8d 85 60 fb ff ff 	lea    -0x4a0(%rbp),%rax
   13bba:	48 89 85 28 fe ff ff 	mov    %rax,-0x1d8(%rbp)
   13bc1:	48 8d 85 60 fb ff ff 	lea    -0x4a0(%rbp),%rax
   13bc8:	48 89 85 30 fe ff ff 	mov    %rax,-0x1d0(%rbp)
   13bcf:	48 8d 85 60 fb ff ff 	lea    -0x4a0(%rbp),%rax
   13bd6:	48 89 85 38 fe ff ff 	mov    %rax,-0x1c8(%rbp)
   13bdd:	48 c7 85 40 fe ff ff 	movq   $0x0,-0x1c0(%rbp)
   13be4:	00 00 00 00 
   13be8:	48 c7 85 48 fe ff ff 	movq   $0x0,-0x1b8(%rbp)
   13bef:	00 00 00 00 
   13bf3:	48 c7 85 50 fe ff ff 	movq   $0x0,-0x1b0(%rbp)
   13bfa:	00 00 00 00 
   13bfe:	48 c7 85 58 fe ff ff 	movq   $0x0,-0x1a8(%rbp)
   13c05:	00 00 00 00 
   13c09:	48 c7 85 60 fe ff ff 	movq   $0x0,-0x1a0(%rbp)
   13c10:	00 00 00 00 
   13c14:	48 8d 85 60 fb ff ff 	lea    -0x4a0(%rbp),%rax
   13c1b:	48 89 85 68 fe ff ff 	mov    %rax,-0x198(%rbp)
   13c22:	48 8d 85 60 fb ff ff 	lea    -0x4a0(%rbp),%rax
   13c29:	48 89 85 70 fe ff ff 	mov    %rax,-0x190(%rbp)
   13c30:	48 8d 85 60 fb ff ff 	lea    -0x4a0(%rbp),%rax
   13c37:	48 89 85 78 fe ff ff 	mov    %rax,-0x188(%rbp)
   13c3e:	48 8d 85 60 fb ff ff 	lea    -0x4a0(%rbp),%rax
   13c45:	48 89 85 80 fe ff ff 	mov    %rax,-0x180(%rbp)
   13c4c:	48 8d 85 60 fb ff ff 	lea    -0x4a0(%rbp),%rax
   13c53:	48 89 85 88 fe ff ff 	mov    %rax,-0x178(%rbp)
   13c5a:	48 c7 85 90 fe ff ff 	movq   $0x0,-0x170(%rbp)
   13c61:	00 00 00 00 
   13c65:	48 c7 85 98 fe ff ff 	movq   $0x0,-0x168(%rbp)
   13c6c:	00 00 00 00 
   13c70:	48 c7 85 a0 fe ff ff 	movq   $0x0,-0x160(%rbp)
   13c77:	00 00 00 00 
   13c7b:	48 c7 85 a8 fe ff ff 	movq   $0x0,-0x158(%rbp)
   13c82:	00 00 00 00 
   13c86:	48 c7 85 b0 fe ff ff 	movq   $0x0,-0x150(%rbp)
   13c8d:	00 00 00 00 
   13c91:	48 8d 85 60 fb ff ff 	lea    -0x4a0(%rbp),%rax
   13c98:	48 89 85 b8 fe ff ff 	mov    %rax,-0x148(%rbp)
   13c9f:	48 8d 85 60 fb ff ff 	lea    -0x4a0(%rbp),%rax
   13ca6:	48 89 85 c0 fe ff ff 	mov    %rax,-0x140(%rbp)
   13cad:	48 8d 85 60 fb ff ff 	lea    -0x4a0(%rbp),%rax
   13cb4:	48 89 85 c8 fe ff ff 	mov    %rax,-0x138(%rbp)
   13cbb:	48 8d 85 60 fb ff ff 	lea    -0x4a0(%rbp),%rax
   13cc2:	48 89 85 d0 fe ff ff 	mov    %rax,-0x130(%rbp)
   13cc9:	48 8d 85 60 fb ff ff 	lea    -0x4a0(%rbp),%rax
   13cd0:	48 89 85 d8 fe ff ff 	mov    %rax,-0x128(%rbp)
   13cd7:	48 c7 85 e0 fe ff ff 	movq   $0x0,-0x120(%rbp)
   13cde:	00 00 00 00 
   13ce2:	48 c7 85 e8 fe ff ff 	movq   $0x0,-0x118(%rbp)
   13ce9:	00 00 00 00 
   13ced:	48 c7 85 f0 fe ff ff 	movq   $0x0,-0x110(%rbp)
   13cf4:	00 00 00 00 
   13cf8:	48 c7 85 f8 fe ff ff 	movq   $0x0,-0x108(%rbp)
   13cff:	00 00 00 00 
   13d03:	48 c7 85 00 ff ff ff 	movq   $0x0,-0x100(%rbp)
   13d0a:	00 00 00 00 
   13d0e:	48 8d 85 60 fb ff ff 	lea    -0x4a0(%rbp),%rax
   13d15:	48 89 85 08 ff ff ff 	mov    %rax,-0xf8(%rbp)
   13d1c:	48 8d 85 60 fb ff ff 	lea    -0x4a0(%rbp),%rax
   13d23:	48 89 85 10 ff ff ff 	mov    %rax,-0xf0(%rbp)
   13d2a:	48 8d 85 60 fb ff ff 	lea    -0x4a0(%rbp),%rax
   13d31:	48 89 85 18 ff ff ff 	mov    %rax,-0xe8(%rbp)
   13d38:	48 8d 85 60 fb ff ff 	lea    -0x4a0(%rbp),%rax
   13d3f:	48 89 85 20 ff ff ff 	mov    %rax,-0xe0(%rbp)
   13d46:	48 8d 85 60 fb ff ff 	lea    -0x4a0(%rbp),%rax
   13d4d:	48 89 85 28 ff ff ff 	mov    %rax,-0xd8(%rbp)
   13d54:	48 c7 85 30 ff ff ff 	movq   $0x0,-0xd0(%rbp)
   13d5b:	00 00 00 00 
   13d5f:	48 c7 85 38 ff ff ff 	movq   $0x0,-0xc8(%rbp)
   13d66:	00 00 00 00 
   13d6a:	48 c7 85 40 ff ff ff 	movq   $0x0,-0xc0(%rbp)
   13d71:	00 00 00 00 
   13d75:	48 c7 85 48 ff ff ff 	movq   $0x0,-0xb8(%rbp)
   13d7c:	00 00 00 00 
   13d80:	48 c7 85 50 ff ff ff 	movq   $0x0,-0xb0(%rbp)
   13d87:	00 00 00 00 
   13d8b:	48 8d 85 60 fb ff ff 	lea    -0x4a0(%rbp),%rax
   13d92:	48 89 85 58 ff ff ff 	mov    %rax,-0xa8(%rbp)
   13d99:	48 8d 85 60 fb ff ff 	lea    -0x4a0(%rbp),%rax
   13da0:	48 89 85 60 ff ff ff 	mov    %rax,-0xa0(%rbp)
   13da7:	48 8d 85 60 fb ff ff 	lea    -0x4a0(%rbp),%rax
   13dae:	48 89 85 68 ff ff ff 	mov    %rax,-0x98(%rbp)
   13db5:	48 8d 85 60 fb ff ff 	lea    -0x4a0(%rbp),%rax
   13dbc:	48 89 85 70 ff ff ff 	mov    %rax,-0x90(%rbp)
   13dc3:	48 8d 85 60 fb ff ff 	lea    -0x4a0(%rbp),%rax
   13dca:	48 89 85 78 ff ff ff 	mov    %rax,-0x88(%rbp)
   13dd1:	48 c7 45 80 00 00 00 	movq   $0x0,-0x80(%rbp)
   13dd8:	00 
   13dd9:	48 c7 45 88 00 00 00 	movq   $0x0,-0x78(%rbp)
   13de0:	00 
   13de1:	48 c7 45 90 00 00 00 	movq   $0x0,-0x70(%rbp)
   13de8:	00 
   13de9:	48 c7 45 98 00 00 00 	movq   $0x0,-0x68(%rbp)
   13df0:	00 
   13df1:	48 c7 45 a0 00 00 00 	movq   $0x0,-0x60(%rbp)
   13df8:	00 
   13df9:	48 8d 85 60 fb ff ff 	lea    -0x4a0(%rbp),%rax
   13e00:	48 89 45 a8          	mov    %rax,-0x58(%rbp)
   13e04:	48 8d 85 60 fb ff ff 	lea    -0x4a0(%rbp),%rax
   13e0b:	48 89 45 b0          	mov    %rax,-0x50(%rbp)
   13e0f:	48 8d 85 60 fb ff ff 	lea    -0x4a0(%rbp),%rax
   13e16:	48 89 45 b8          	mov    %rax,-0x48(%rbp)
   13e1a:	48 8d 85 60 fb ff ff 	lea    -0x4a0(%rbp),%rax
   13e21:	48 89 45 c0          	mov    %rax,-0x40(%rbp)
   13e25:	48 8d 85 60 fb ff ff 	lea    -0x4a0(%rbp),%rax
   13e2c:	48 89 45 c8          	mov    %rax,-0x38(%rbp)
   13e30:	66 c7 85 52 fb ff ff 	movw   $0xffff,-0x4ae(%rbp)
   13e37:	ff ff 
   13e39:	c7 85 54 fb ff ff 44 	movl   $0x95427b44,-0x4ac(%rbp)
   13e40:	7b 42 95 
   13e43:	48 8b 85 60 fb ff ff 	mov    -0x4a0(%rbp),%rax
   13e4a:	48 89 05 cf 92 00 00 	mov    %rax,0x92cf(%rip)        # 1d120 <g_102>
   13e51:	be 07 00 00 00       	mov    $0x7,%esi
   13e56:	bf 9a 00 00 00       	mov    $0x9a,%edi
   13e5b:	e8 a5 1d ff ff       	callq  5c05 <safe_lshift_func_uint8_t_u_s>
   13e60:	48 8b 95 60 fb ff ff 	mov    -0x4a0(%rbp),%rdx
   13e67:	8b 0a                	mov    (%rdx),%ecx
   13e69:	0f b6 d0             	movzbl %al,%edx
   13e6c:	48 8b 85 60 fb ff ff 	mov    -0x4a0(%rbp),%rax
   13e73:	31 ca                	xor    %ecx,%edx
   13e75:	89 10                	mov    %edx,(%rax)
   13e77:	c7 05 a7 71 00 00 00 	movl   $0x0,0x71a7(%rip)        # 1b028 <g_32>
   13e7e:	00 00 00 
   13e81:	e9 f8 04 00 00       	jmpq   1437e <func_74+0xa54>
   13e86:	48 8d 05 a7 74 00 00 	lea    0x74a7(%rip),%rax        # 1b334 <g_44>
   13e8d:	48 89 85 70 fb ff ff 	mov    %rax,-0x490(%rbp)
   13e94:	c7 85 90 fb ff ff 4c 	movl   $0xf846ce4c,-0x470(%rbp)
   13e9b:	ce 46 f8 
   13e9e:	c7 85 94 fb ff ff 01 	movl   $0x1,-0x46c(%rbp)
   13ea5:	00 00 00 
   13ea8:	c7 85 98 fb ff ff 01 	movl   $0x1,-0x468(%rbp)
   13eaf:	00 00 00 
   13eb2:	c7 85 9c fb ff ff 01 	movl   $0x1,-0x464(%rbp)
   13eb9:	00 00 00 
   13ebc:	c7 85 a0 fb ff ff 01 	movl   $0x1,-0x460(%rbp)
   13ec3:	00 00 00 
   13ec6:	c7 85 a4 fb ff ff 4c 	movl   $0xf846ce4c,-0x45c(%rbp)
   13ecd:	ce 46 f8 
   13ed0:	c7 85 a8 fb ff ff c0 	movl   $0xf15219c0,-0x458(%rbp)
   13ed7:	19 52 f1 
   13eda:	c7 85 ac fb ff ff 4c 	movl   $0xf846ce4c,-0x454(%rbp)
   13ee1:	ce 46 f8 
   13ee4:	c7 85 b0 fb ff ff 01 	movl   $0x1,-0x450(%rbp)
   13eeb:	00 00 00 
   13eee:	c7 85 b4 fb ff ff 4c 	movl   $0xf846ce4c,-0x44c(%rbp)
   13ef5:	ce 46 f8 
   13ef8:	c7 85 b8 fb ff ff c0 	movl   $0xf15219c0,-0x448(%rbp)
   13eff:	19 52 f1 
   13f02:	c7 85 bc fb ff ff c0 	movl   $0xf15219c0,-0x444(%rbp)
   13f09:	19 52 f1 
   13f0c:	c7 85 c0 fb ff ff c3 	movl   $0xb9145ec3,-0x440(%rbp)
   13f13:	5e 14 b9 
   13f16:	c7 85 c4 fb ff ff 4c 	movl   $0xf846ce4c,-0x43c(%rbp)
   13f1d:	ce 46 f8 
   13f20:	c7 85 c8 fb ff ff 4c 	movl   $0xf846ce4c,-0x438(%rbp)
   13f27:	ce 46 f8 
   13f2a:	c7 85 cc fb ff ff c3 	movl   $0xb9145ec3,-0x434(%rbp)
   13f31:	5e 14 b9 
   13f34:	c7 85 d0 fb ff ff 01 	movl   $0x1,-0x430(%rbp)
   13f3b:	00 00 00 
   13f3e:	c7 85 d4 fb ff ff c3 	movl   $0xb9145ec3,-0x42c(%rbp)
   13f45:	5e 14 b9 
   13f48:	c7 85 d8 fb ff ff c3 	movl   $0xb9145ec3,-0x428(%rbp)
   13f4f:	5e 14 b9 
   13f52:	c7 85 dc fb ff ff 01 	movl   $0x1,-0x424(%rbp)
   13f59:	00 00 00 
   13f5c:	c7 85 e0 fb ff ff c3 	movl   $0xb9145ec3,-0x420(%rbp)
   13f63:	5e 14 b9 
   13f66:	c7 85 e4 fb ff ff 4c 	movl   $0xf846ce4c,-0x41c(%rbp)
   13f6d:	ce 46 f8 
   13f70:	c7 85 e8 fb ff ff 4c 	movl   $0xf846ce4c,-0x418(%rbp)
   13f77:	ce 46 f8 
   13f7a:	c7 85 ec fb ff ff c3 	movl   $0xb9145ec3,-0x414(%rbp)
   13f81:	5e 14 b9 
   13f84:	c7 85 58 fb ff ff e5 	movl   $0x686465e5,-0x4a8(%rbp)
   13f8b:	65 64 68 
   13f8e:	48 8d 05 5b 78 00 00 	lea    0x785b(%rip),%rax        # 1b7f0 <g_137>
   13f95:	48 89 85 78 fb ff ff 	mov    %rax,-0x488(%rbp)
   13f9c:	48 8d 05 51 78 00 00 	lea    0x7851(%rip),%rax        # 1b7f4 <g_144>
   13fa3:	48 89 85 80 fb ff ff 	mov    %rax,-0x480(%rbp)
   13faa:	48 8d 05 47 78 00 00 	lea    0x7847(%rip),%rax        # 1b7f8 <g_147>
   13fb1:	48 89 85 f0 fb ff ff 	mov    %rax,-0x410(%rbp)
   13fb8:	48 8d 05 39 78 00 00 	lea    0x7839(%rip),%rax        # 1b7f8 <g_147>
   13fbf:	48 89 85 f8 fb ff ff 	mov    %rax,-0x408(%rbp)
   13fc6:	48 8d 05 2b 78 00 00 	lea    0x782b(%rip),%rax        # 1b7f8 <g_147>
   13fcd:	48 89 85 00 fc ff ff 	mov    %rax,-0x400(%rbp)
   13fd4:	48 8d 05 1d 78 00 00 	lea    0x781d(%rip),%rax        # 1b7f8 <g_147>
   13fdb:	48 89 85 08 fc ff ff 	mov    %rax,-0x3f8(%rbp)
   13fe2:	48 8d 05 0f 78 00 00 	lea    0x780f(%rip),%rax        # 1b7f8 <g_147>
   13fe9:	48 89 85 10 fc ff ff 	mov    %rax,-0x3f0(%rbp)
   13ff0:	48 8d 05 01 78 00 00 	lea    0x7801(%rip),%rax        # 1b7f8 <g_147>
   13ff7:	48 89 85 18 fc ff ff 	mov    %rax,-0x3e8(%rbp)
   13ffe:	48 8d 05 f3 77 00 00 	lea    0x77f3(%rip),%rax        # 1b7f8 <g_147>
   14005:	48 89 85 20 fc ff ff 	mov    %rax,-0x3e0(%rbp)
   1400c:	48 8d 05 e5 77 00 00 	lea    0x77e5(%rip),%rax        # 1b7f8 <g_147>
   14013:	48 89 85 28 fc ff ff 	mov    %rax,-0x3d8(%rbp)
   1401a:	48 8d 05 d7 77 00 00 	lea    0x77d7(%rip),%rax        # 1b7f8 <g_147>
   14021:	48 89 85 30 fc ff ff 	mov    %rax,-0x3d0(%rbp)
   14028:	48 8d 05 c9 77 00 00 	lea    0x77c9(%rip),%rax        # 1b7f8 <g_147>
   1402f:	48 89 85 38 fc ff ff 	mov    %rax,-0x3c8(%rbp)
   14036:	48 8d 05 bb 77 00 00 	lea    0x77bb(%rip),%rax        # 1b7f8 <g_147>
   1403d:	48 89 85 40 fc ff ff 	mov    %rax,-0x3c0(%rbp)
   14044:	48 8d 05 ad 77 00 00 	lea    0x77ad(%rip),%rax        # 1b7f8 <g_147>
   1404b:	48 89 85 48 fc ff ff 	mov    %rax,-0x3b8(%rbp)
   14052:	48 8d 05 9f 77 00 00 	lea    0x779f(%rip),%rax        # 1b7f8 <g_147>
   14059:	48 89 85 50 fc ff ff 	mov    %rax,-0x3b0(%rbp)
   14060:	48 8d 05 91 77 00 00 	lea    0x7791(%rip),%rax        # 1b7f8 <g_147>
   14067:	48 89 85 58 fc ff ff 	mov    %rax,-0x3a8(%rbp)
   1406e:	48 8d 05 83 77 00 00 	lea    0x7783(%rip),%rax        # 1b7f8 <g_147>
   14075:	48 89 85 60 fc ff ff 	mov    %rax,-0x3a0(%rbp)
   1407c:	48 8d 05 75 77 00 00 	lea    0x7775(%rip),%rax        # 1b7f8 <g_147>
   14083:	48 89 85 68 fc ff ff 	mov    %rax,-0x398(%rbp)
   1408a:	48 8d 05 67 77 00 00 	lea    0x7767(%rip),%rax        # 1b7f8 <g_147>
   14091:	48 89 85 70 fc ff ff 	mov    %rax,-0x390(%rbp)
   14098:	48 8d 05 59 77 00 00 	lea    0x7759(%rip),%rax        # 1b7f8 <g_147>
   1409f:	48 89 85 78 fc ff ff 	mov    %rax,-0x388(%rbp)
   140a6:	48 8d 05 4b 77 00 00 	lea    0x774b(%rip),%rax        # 1b7f8 <g_147>
   140ad:	48 89 85 80 fc ff ff 	mov    %rax,-0x380(%rbp)
   140b4:	48 8d 05 3d 77 00 00 	lea    0x773d(%rip),%rax        # 1b7f8 <g_147>
   140bb:	48 89 85 88 fc ff ff 	mov    %rax,-0x378(%rbp)
   140c2:	48 8d 05 2f 77 00 00 	lea    0x772f(%rip),%rax        # 1b7f8 <g_147>
   140c9:	48 89 85 90 fc ff ff 	mov    %rax,-0x370(%rbp)
   140d0:	48 8d 05 21 77 00 00 	lea    0x7721(%rip),%rax        # 1b7f8 <g_147>
   140d7:	48 89 85 98 fc ff ff 	mov    %rax,-0x368(%rbp)
   140de:	48 8d 05 13 77 00 00 	lea    0x7713(%rip),%rax        # 1b7f8 <g_147>
   140e5:	48 89 85 a0 fc ff ff 	mov    %rax,-0x360(%rbp)
   140ec:	48 8d 05 05 77 00 00 	lea    0x7705(%rip),%rax        # 1b7f8 <g_147>
   140f3:	48 89 85 a8 fc ff ff 	mov    %rax,-0x358(%rbp)
   140fa:	48 8d 05 f9 76 00 00 	lea    0x76f9(%rip),%rax        # 1b7fa <g_149>
   14101:	48 89 85 88 fb ff ff 	mov    %rax,-0x478(%rbp)
   14108:	c7 85 5c fb ff ff d5 	movl   $0x33cc6ed5,-0x4a4(%rbp)
   1410f:	6e cc 33 
   14112:	8b 05 e0 70 00 00    	mov    0x70e0(%rip),%eax        # 1b1f8 <g_42+0x1b8>
   14118:	48 63 d8             	movslq %eax,%rbx
   1411b:	c7 85 58 fb ff ff b4 	movl   $0xbe68c9b4,-0x4a8(%rbp)
   14122:	c9 68 be 
   14125:	8b 85 58 fb ff ff    	mov    -0x4a8(%rbp),%eax
   1412b:	4c 63 e0             	movslq %eax,%r12
   1412e:	8b 05 f4 6e 00 00    	mov    0x6ef4(%rip),%eax        # 1b028 <g_32>
   14134:	0f b7 d0             	movzwl %ax,%edx
   14137:	48 8b 85 60 fb ff ff 	mov    -0x4a0(%rbp),%rax
   1413e:	48 39 85 70 fb ff ff 	cmp    %rax,-0x490(%rbp)
   14145:	0f 94 c0             	sete   %al
   14148:	0f b6 c0             	movzbl %al,%eax
   1414b:	f7 d0                	not    %eax
   1414d:	0f b7 c0             	movzwl %ax,%eax
   14150:	89 d6                	mov    %edx,%esi
   14152:	89 c7                	mov    %eax,%edi
   14154:	e8 c6 1b ff ff       	callq  5d1f <safe_sub_func_uint16_t_u_u>
   14159:	0f b7 c0             	movzwl %ax,%eax
   1415c:	4c 89 e6             	mov    %r12,%rsi
   1415f:	48 89 c7             	mov    %rax,%rdi
   14162:	e8 c7 1e ff ff       	callq  602e <safe_add_func_uint64_t_u_u>
   14167:	48 8b 05 60 76 00 00 	mov    0x7660(%rip),%rax        # 1b7ce <g_116+0xe>
   1416e:	0f be d0             	movsbl %al,%edx
   14171:	8b 05 b9 6e 00 00    	mov    0x6eb9(%rip),%eax        # 1b030 <g_40>
   14177:	83 c8 81             	or     $0xffffff81,%eax
   1417a:	0f be c0             	movsbl %al,%eax
   1417d:	89 d6                	mov    %edx,%esi
   1417f:	89 c7                	mov    %eax,%edi
   14181:	e8 ab 10 ff ff       	callq  5231 <safe_mod_func_int8_t_s_s>
   14186:	8b 05 a4 6e 00 00    	mov    0x6ea4(%rip),%eax        # 1b030 <g_40>
   1418c:	89 c0                	mov    %eax,%eax
   1418e:	48 89 de             	mov    %rbx,%rsi
   14191:	48 89 c7             	mov    %rax,%rdi
   14194:	e8 1b 18 ff ff       	callq  59b4 <safe_mod_func_int64_t_s_s>
   14199:	98                   	cwtl   
   1419a:	be 05 00 00 00       	mov    $0x5,%esi
   1419f:	89 c7                	mov    %eax,%edi
   141a1:	e8 84 13 ff ff       	callq  552a <safe_rshift_func_int16_t_s_s>
   141a6:	48 0f bf d0          	movswq %ax,%rdx
   141aa:	48 8b 05 37 76 00 00 	mov    0x7637(%rip),%rax        # 1b7e8 <g_123>
   141b1:	48 21 d0             	and    %rdx,%rax
   141b4:	48 89 05 2d 76 00 00 	mov    %rax,0x762d(%rip)        # 1b7e8 <g_123>
   141bb:	8b 85 c8 fb ff ff    	mov    -0x438(%rbp),%eax
   141c1:	41 89 c4             	mov    %eax,%r12d
   141c4:	8b 85 e0 fb ff ff    	mov    -0x420(%rbp),%eax
   141ca:	0f b7 c0             	movzwl %ax,%eax
   141cd:	be 02 00 00 00       	mov    $0x2,%esi
   141d2:	89 c7                	mov    %eax,%edi
   141d4:	e8 6f 1c ff ff       	callq  5e48 <safe_rshift_func_uint16_t_u_s>
   141d9:	8b 85 90 fb ff ff    	mov    -0x470(%rbp),%eax
   141df:	41 89 c5             	mov    %eax,%r13d
   141e2:	8b 05 14 71 00 00    	mov    0x7114(%rip),%eax        # 1b2fc <g_42+0x2bc>
   141e8:	0f b6 d0             	movzbl %al,%edx
   141eb:	48 8b 85 80 fb ff ff 	mov    -0x480(%rbp),%rax
   141f2:	8b 00                	mov    (%rax),%eax
   141f4:	48 8b 0d ed 75 00 00 	mov    0x75ed(%rip),%rcx        # 1b7e8 <g_123>
   141fb:	09 c1                	or     %eax,%ecx
   141fd:	48 8b 85 80 fb ff ff 	mov    -0x480(%rbp),%rax
   14204:	89 08                	mov    %ecx,(%rax)
   14206:	c6 05 eb 75 00 00 ff 	movb   $0xff,0x75eb(%rip)        # 1b7f8 <g_147>
   1420d:	0f b6 05 e4 75 00 00 	movzbl 0x75e4(%rip),%eax        # 1b7f8 <g_147>
   14214:	0f b6 c0             	movzbl %al,%eax
   14217:	89 d6                	mov    %edx,%esi
   14219:	89 c7                	mov    %eax,%edi
   1421b:	e8 58 19 ff ff       	callq  5b78 <safe_sub_func_uint8_t_u_u>
   14220:	48 8b 95 88 fb ff ff 	mov    -0x478(%rbp),%rdx
   14227:	0f b7 12             	movzwl (%rdx),%edx
   1422a:	0f b6 c0             	movzbl %al,%eax
   1422d:	21 c2                	and    %eax,%edx
   1422f:	48 8b 85 88 fb ff ff 	mov    -0x478(%rbp),%rax
   14236:	66 89 10             	mov    %dx,(%rax)
   14239:	48 8b 85 88 fb ff ff 	mov    -0x478(%rbp),%rax
   14240:	0f b7 00             	movzwl (%rax),%eax
   14243:	0f b7 d0             	movzwl %ax,%edx
   14246:	8b 05 74 75 00 00    	mov    0x7574(%rip),%eax        # 1b7c0 <g_116>
   1424c:	c1 e0 07             	shl    $0x7,%eax
   1424f:	c1 f8 07             	sar    $0x7,%eax
   14252:	0f b7 c0             	movzwl %ax,%eax
   14255:	89 d6                	mov    %edx,%esi
   14257:	89 c7                	mov    %eax,%edi
   14259:	e8 fe 1a ff ff       	callq  5d5c <safe_mod_func_uint16_t_u_u>
   1425e:	0f b7 d8             	movzwl %ax,%ebx
   14261:	48 8b 05 6e 75 00 00 	mov    0x756e(%rip),%rax        # 1b7d6 <g_116+0x16>
   14268:	89 c2                	mov    %eax,%edx
   1426a:	48 8b 85 78 fb ff ff 	mov    -0x488(%rbp),%rax
   14271:	89 10                	mov    %edx,(%rax)
   14273:	48 8b 85 78 fb ff ff 	mov    -0x488(%rbp),%rax
   1427a:	8b 00                	mov    (%rax),%eax
   1427c:	85 c0                	test   %eax,%eax
   1427e:	74 11                	je     14291 <func_74+0x967>
   14280:	8b 85 bc fb ff ff    	mov    -0x444(%rbp),%eax
   14286:	85 c0                	test   %eax,%eax
   14288:	74 07                	je     14291 <func_74+0x967>
   1428a:	b8 01 00 00 00       	mov    $0x1,%eax
   1428f:	eb 05                	jmp    14296 <func_74+0x96c>
   14291:	b8 00 00 00 00       	mov    $0x0,%eax
   14296:	48 98                	cltq   
   14298:	48 be 55 d4 4c 8d fa 	movabs $0x62a55efa8d4cd455,%rsi
   1429f:	5e a5 62 
   142a2:	48 89 c7             	mov    %rax,%rdi
   142a5:	e8 84 1d ff ff       	callq  602e <safe_add_func_uint64_t_u_u>
   142aa:	48 8b 95 60 fb ff ff 	mov    -0x4a0(%rbp),%rdx
   142b1:	8b 12                	mov    (%rdx),%edx
   142b3:	85 d2                	test   %edx,%edx
   142b5:	0f 94 c2             	sete   %dl
   142b8:	0f b6 d2             	movzbl %dl,%edx
   142bb:	48 39 d0             	cmp    %rdx,%rax
   142be:	0f 95 c0             	setne  %al
   142c1:	0f b6 c0             	movzbl %al,%eax
   142c4:	8b 95 4c fb ff ff    	mov    -0x4b4(%rbp),%edx
   142ca:	21 d0                	and    %edx,%eax
   142cc:	0f b7 c0             	movzwl %ax,%eax
   142cf:	89 de                	mov    %ebx,%esi
   142d1:	89 c7                	mov    %eax,%edi
   142d3:	e8 65 1a ff ff       	callq  5d3d <safe_mul_func_uint16_t_u_u>
   142d8:	0f b6 05 e5 74 00 00 	movzbl 0x74e5(%rip),%eax        # 1b7c4 <g_116+0x4>
   142df:	0f b6 c0             	movzbl %al,%eax
   142e2:	44 89 ee             	mov    %r13d,%esi
   142e5:	89 c7                	mov    %eax,%edi
   142e7:	e8 e4 1b ff ff       	callq  5ed0 <safe_sub_func_uint32_t_u_u>
   142ec:	23 85 4c fb ff ff    	and    -0x4b4(%rbp),%eax
   142f2:	89 c2                	mov    %eax,%edx
   142f4:	8b 85 58 fb ff ff    	mov    -0x4a8(%rbp),%eax
   142fa:	39 c2                	cmp    %eax,%edx
   142fc:	0f 93 c0             	setae  %al
   142ff:	0f b6 c0             	movzbl %al,%eax
   14302:	89 85 58 fb ff ff    	mov    %eax,-0x4a8(%rbp)
   14308:	48 8b 05 31 74 00 00 	mov    0x7431(%rip),%rax        # 1b740 <g_97+0x400>
   1430f:	0f bf d0             	movswl %ax,%edx
   14312:	8b 05 0c 6d 00 00    	mov    0x6d0c(%rip),%eax        # 1b024 <g_20>
   14318:	98                   	cwtl   
   14319:	89 d6                	mov    %edx,%esi
   1431b:	89 c7                	mov    %eax,%edi
   1431d:	e8 91 10 ff ff       	callq  53b3 <safe_add_func_int16_t_s_s>
   14322:	8b 85 ec fb ff ff    	mov    -0x414(%rbp),%eax
   14328:	0f be c0             	movsbl %al,%eax
   1432b:	44 89 e6             	mov    %r12d,%esi
   1432e:	89 c7                	mov    %eax,%edi
   14330:	e8 b9 0f ff ff       	callq  52ee <safe_lshift_func_int8_t_s_u>
   14335:	0f be c0             	movsbl %al,%eax
   14338:	21 85 5c fb ff ff    	and    %eax,-0x4a4(%rbp)
   1433e:	8b 85 5c fb ff ff    	mov    -0x4a4(%rbp),%eax
   14344:	89 c2                	mov    %eax,%edx
   14346:	8b 05 b0 74 00 00    	mov    0x74b0(%rip),%eax        # 1b7fc <g_151>
   1434c:	31 d0                	xor    %edx,%eax
   1434e:	89 05 a8 74 00 00    	mov    %eax,0x74a8(%rip)        # 1b7fc <g_151>
   14354:	8b 15 a2 74 00 00    	mov    0x74a2(%rip),%edx        # 1b7fc <g_151>
   1435a:	48 8b 05 bf 8d 00 00 	mov    0x8dbf(%rip),%rax        # 1d120 <g_102>
   14361:	89 10                	mov    %edx,(%rax)
   14363:	8b 05 bf 6c 00 00    	mov    0x6cbf(%rip),%eax        # 1b028 <g_32>
   14369:	89 c0                	mov    %eax,%eax
   1436b:	be 01 00 00 00       	mov    $0x1,%esi
   14370:	48 89 c7             	mov    %rax,%rdi
   14373:	e8 c9 14 ff ff       	callq  5841 <safe_add_func_int64_t_s_s>
   14378:	89 05 aa 6c 00 00    	mov    %eax,0x6caa(%rip)        # 1b028 <g_32>
   1437e:	8b 05 a4 6c 00 00    	mov    0x6ca4(%rip),%eax        # 1b028 <g_32>
   14384:	83 f8 35             	cmp    $0x35,%eax
   14387:	0f 87 f9 fa ff ff    	ja     13e86 <func_74+0x55c>
   1438d:	83 85 54 fb ff ff 01 	addl   $0x1,-0x4ac(%rbp)
   14394:	8b 05 96 6c 00 00    	mov    0x6c96(%rip),%eax        # 1b030 <g_40>
   1439a:	48 8b 5d d8          	mov    -0x28(%rbp),%rbx
   1439e:	64 48 33 1c 25 28 00 	xor    %fs:0x28,%rbx
   143a5:	00 00 
   143a7:	74 05                	je     143ae <func_74+0xa84>
   143a9:	e8 c2 0c ff ff       	callq  5070 <__stack_chk_fail@plt>
   143ae:	48 81 c4 a8 04 00 00 	add    $0x4a8,%rsp
   143b5:	5b                   	pop    %rbx
   143b6:	41 5c                	pop    %r12
   143b8:	41 5d                	pop    %r13
   143ba:	5d                   	pop    %rbp
   143bb:	c3                   	retq   

00000000000143bc <main>:
   143bc:	f3 0f 1e fa          	endbr64 
   143c0:	55                   	push   %rbp
   143c1:	48 89 e5             	mov    %rsp,%rbp
   143c4:	48 83 ec 20          	sub    $0x20,%rsp
   143c8:	89 7d ec             	mov    %edi,-0x14(%rbp)
   143cb:	48 89 75 e0          	mov    %rsi,-0x20(%rbp)
   143cf:	c7 45 fc 00 00 00 00 	movl   $0x0,-0x4(%rbp)
   143d6:	83 7d ec 02          	cmpl   $0x2,-0x14(%rbp)
   143da:	75 25                	jne    14401 <main+0x45>
   143dc:	48 8b 45 e0          	mov    -0x20(%rbp),%rax
   143e0:	48 83 c0 08          	add    $0x8,%rax
   143e4:	48 8b 00             	mov    (%rax),%rax
   143e7:	48 8d 35 ba 38 00 00 	lea    0x38ba(%rip),%rsi        # 17ca8 <g_2389+0xbe0>
   143ee:	48 89 c7             	mov    %rax,%rdi
   143f1:	e8 9a 0c ff ff       	callq  5090 <strcmp@plt>
   143f6:	85 c0                	test   %eax,%eax
   143f8:	75 07                	jne    14401 <main+0x45>
   143fa:	c7 45 fc 01 00 00 00 	movl   $0x1,-0x4(%rbp)
   14401:	e8 83 0d ff ff       	callq  5189 <platform_main_begin>
   14406:	e8 8d 21 ff ff       	callq  6598 <crc32_gentab>
   1440b:	e8 a5 23 ff ff       	callq  67b5 <func_1>
   14410:	8b 05 0e 6c 00 00    	mov    0x6c0e(%rip),%eax        # 1b024 <g_20>
   14416:	89 c1                	mov    %eax,%ecx
   14418:	8b 45 fc             	mov    -0x4(%rbp),%eax
   1441b:	89 c2                	mov    %eax,%edx
   1441d:	48 8d 35 86 38 00 00 	lea    0x3886(%rip),%rsi        # 17caa <g_2389+0xbe2>
   14424:	48 89 cf             	mov    %rcx,%rdi
   14427:	e8 c7 22 ff ff       	callq  66f3 <transparent_crc>
   1442c:	8b 05 f6 6b 00 00    	mov    0x6bf6(%rip),%eax        # 1b028 <g_32>
   14432:	89 c1                	mov    %eax,%ecx
   14434:	8b 45 fc             	mov    -0x4(%rbp),%eax
   14437:	89 c2                	mov    %eax,%edx
   14439:	48 8d 35 6f 38 00 00 	lea    0x386f(%rip),%rsi        # 17caf <g_2389+0xbe7>
   14440:	48 89 cf             	mov    %rcx,%rdi
   14443:	e8 ab 22 ff ff       	callq  66f3 <transparent_crc>
   14448:	8b 05 de 6b 00 00    	mov    0x6bde(%rip),%eax        # 1b02c <g_38>
   1444e:	89 c1                	mov    %eax,%ecx
   14450:	8b 45 fc             	mov    -0x4(%rbp),%eax
   14453:	89 c2                	mov    %eax,%edx
   14455:	48 8d 35 58 38 00 00 	lea    0x3858(%rip),%rsi        # 17cb4 <g_2389+0xbec>
   1445c:	48 89 cf             	mov    %rcx,%rdi
   1445f:	e8 8f 22 ff ff       	callq  66f3 <transparent_crc>
   14464:	8b 05 c6 6b 00 00    	mov    0x6bc6(%rip),%eax        # 1b030 <g_40>
   1446a:	89 c1                	mov    %eax,%ecx
   1446c:	8b 45 fc             	mov    -0x4(%rbp),%eax
   1446f:	89 c2                	mov    %eax,%edx
   14471:	48 8d 35 41 38 00 00 	lea    0x3841(%rip),%rsi        # 17cb9 <g_2389+0xbf1>
   14478:	48 89 cf             	mov    %rcx,%rdi
   1447b:	e8 73 22 ff ff       	callq  66f3 <transparent_crc>
   14480:	c7 45 f0 00 00 00 00 	movl   $0x0,-0x10(%rbp)
   14487:	e9 af 00 00 00       	jmpq   1453b <main+0x17f>
   1448c:	c7 45 f4 00 00 00 00 	movl   $0x0,-0xc(%rbp)
   14493:	e9 95 00 00 00       	jmpq   1452d <main+0x171>
   14498:	c7 45 f8 00 00 00 00 	movl   $0x0,-0x8(%rbp)
   1449f:	eb 7e                	jmp    1451f <main+0x163>
   144a1:	8b 45 f8             	mov    -0x8(%rbp),%eax
   144a4:	48 63 f0             	movslq %eax,%rsi
   144a7:	8b 45 f0             	mov    -0x10(%rbp),%eax
   144aa:	48 63 d0             	movslq %eax,%rdx
   144ad:	8b 45 f4             	mov    -0xc(%rbp),%eax
   144b0:	48 63 c8             	movslq %eax,%rcx
   144b3:	48 89 d0             	mov    %rdx,%rax
   144b6:	48 c1 e0 02          	shl    $0x2,%rax
   144ba:	48 01 d0             	add    %rdx,%rax
   144bd:	48 c1 e0 02          	shl    $0x2,%rax
   144c1:	48 01 d0             	add    %rdx,%rax
   144c4:	48 89 ca             	mov    %rcx,%rdx
   144c7:	48 01 d2             	add    %rdx,%rdx
   144ca:	48 01 ca             	add    %rcx,%rdx
   144cd:	48 01 d0             	add    %rdx,%rax
   144d0:	48 01 f0             	add    %rsi,%rax
   144d3:	48 8d 14 85 00 00 00 	lea    0x0(,%rax,4),%rdx
   144da:	00 
   144db:	48 8d 05 5e 6b 00 00 	lea    0x6b5e(%rip),%rax        # 1b040 <g_42>
   144e2:	8b 04 02             	mov    (%rdx,%rax,1),%eax
   144e5:	48 98                	cltq   
   144e7:	8b 55 fc             	mov    -0x4(%rbp),%edx
   144ea:	48 8d 35 cd 37 00 00 	lea    0x37cd(%rip),%rsi        # 17cbe <g_2389+0xbf6>
   144f1:	48 89 c7             	mov    %rax,%rdi
   144f4:	e8 fa 21 ff ff       	callq  66f3 <transparent_crc>
   144f9:	83 7d fc 00          	cmpl   $0x0,-0x4(%rbp)
   144fd:	74 1c                	je     1451b <main+0x15f>
   144ff:	8b 4d f8             	mov    -0x8(%rbp),%ecx
   14502:	8b 55 f4             	mov    -0xc(%rbp),%edx
   14505:	8b 45 f0             	mov    -0x10(%rbp),%eax
   14508:	89 c6                	mov    %eax,%esi
   1450a:	48 8d 3d bb 37 00 00 	lea    0x37bb(%rip),%rdi        # 17ccc <g_2389+0xc04>
   14511:	b8 00 00 00 00       	mov    $0x0,%eax
   14516:	e8 65 0b ff ff       	callq  5080 <printf@plt>
   1451b:	83 45 f8 01          	addl   $0x1,-0x8(%rbp)
   1451f:	83 7d f8 02          	cmpl   $0x2,-0x8(%rbp)
   14523:	0f 8e 78 ff ff ff    	jle    144a1 <main+0xe5>
   14529:	83 45 f4 01          	addl   $0x1,-0xc(%rbp)
   1452d:	83 7d f4 06          	cmpl   $0x6,-0xc(%rbp)
   14531:	0f 8e 61 ff ff ff    	jle    14498 <main+0xdc>
   14537:	83 45 f0 01          	addl   $0x1,-0x10(%rbp)
   1453b:	83 7d f0 08          	cmpl   $0x8,-0x10(%rbp)
   1453f:	0f 8e 47 ff ff ff    	jle    1448c <main+0xd0>
   14545:	8b 05 e9 6d 00 00    	mov    0x6de9(%rip),%eax        # 1b334 <g_44>
   1454b:	48 98                	cltq   
   1454d:	8b 55 fc             	mov    -0x4(%rbp),%edx
   14550:	48 8d 35 8b 37 00 00 	lea    0x378b(%rip),%rsi        # 17ce2 <g_2389+0xc1a>
   14557:	48 89 c7             	mov    %rax,%rdi
   1455a:	e8 94 21 ff ff       	callq  66f3 <transparent_crc>
   1455f:	0f b6 05 d2 6d 00 00 	movzbl 0x6dd2(%rip),%eax        # 1b338 <g_57>
   14566:	48 0f be c0          	movsbq %al,%rax
   1456a:	8b 55 fc             	mov    -0x4(%rbp),%edx
   1456d:	48 8d 35 73 37 00 00 	lea    0x3773(%rip),%rsi        # 17ce7 <g_2389+0xc1f>
   14574:	48 89 c7             	mov    %rax,%rdi
   14577:	e8 77 21 ff ff       	callq  66f3 <transparent_crc>
   1457c:	c7 45 f0 00 00 00 00 	movl   $0x0,-0x10(%rbp)
   14583:	e9 a2 00 00 00       	jmpq   1462a <main+0x26e>
   14588:	c7 45 f4 00 00 00 00 	movl   $0x0,-0xc(%rbp)
   1458f:	e9 88 00 00 00       	jmpq   1461c <main+0x260>
   14594:	c7 45 f8 00 00 00 00 	movl   $0x0,-0x8(%rbp)
   1459b:	eb 75                	jmp    14612 <main+0x256>
   1459d:	8b 45 f8             	mov    -0x8(%rbp),%eax
   145a0:	48 63 c8             	movslq %eax,%rcx
   145a3:	8b 45 f0             	mov    -0x10(%rbp),%eax
   145a6:	48 63 d0             	movslq %eax,%rdx
   145a9:	8b 45 f4             	mov    -0xc(%rbp),%eax
   145ac:	48 63 f0             	movslq %eax,%rsi
   145af:	48 89 d0             	mov    %rdx,%rax
   145b2:	48 c1 e0 03          	shl    $0x3,%rax
   145b6:	48 01 d0             	add    %rdx,%rax
   145b9:	48 01 f0             	add    %rsi,%rax
   145bc:	48 01 c0             	add    %rax,%rax
   145bf:	48 01 c8             	add    %rcx,%rax
   145c2:	48 8d 14 c5 00 00 00 	lea    0x0(,%rax,8),%rdx
   145c9:	00 
   145ca:	48 8d 05 6f 6d 00 00 	lea    0x6d6f(%rip),%rax        # 1b340 <g_97>
   145d1:	48 8b 04 02          	mov    (%rdx,%rax,1),%rax
   145d5:	48 89 c1             	mov    %rax,%rcx
   145d8:	8b 45 fc             	mov    -0x4(%rbp),%eax
   145db:	89 c2                	mov    %eax,%edx
   145dd:	48 8d 35 08 37 00 00 	lea    0x3708(%rip),%rsi        # 17cec <g_2389+0xc24>
   145e4:	48 89 cf             	mov    %rcx,%rdi
   145e7:	e8 07 21 ff ff       	callq  66f3 <transparent_crc>
   145ec:	83 7d fc 00          	cmpl   $0x0,-0x4(%rbp)
   145f0:	74 1c                	je     1460e <main+0x252>
   145f2:	8b 4d f8             	mov    -0x8(%rbp),%ecx
   145f5:	8b 55 f4             	mov    -0xc(%rbp),%edx
   145f8:	8b 45 f0             	mov    -0x10(%rbp),%eax
   145fb:	89 c6                	mov    %eax,%esi
   145fd:	48 8d 3d c8 36 00 00 	lea    0x36c8(%rip),%rdi        # 17ccc <g_2389+0xc04>
   14604:	b8 00 00 00 00       	mov    $0x0,%eax
   14609:	e8 72 0a ff ff       	callq  5080 <printf@plt>
   1460e:	83 45 f8 01          	addl   $0x1,-0x8(%rbp)
   14612:	83 7d f8 01          	cmpl   $0x1,-0x8(%rbp)
   14616:	7e 85                	jle    1459d <main+0x1e1>
   14618:	83 45 f4 01          	addl   $0x1,-0xc(%rbp)
   1461c:	83 7d f4 08          	cmpl   $0x8,-0xc(%rbp)
   14620:	0f 8e 6e ff ff ff    	jle    14594 <main+0x1d8>
   14626:	83 45 f0 01          	addl   $0x1,-0x10(%rbp)
   1462a:	83 7d f0 07          	cmpl   $0x7,-0x10(%rbp)
   1462e:	0f 8e 54 ff ff ff    	jle    14588 <main+0x1cc>
   14634:	8b 05 86 71 00 00    	mov    0x7186(%rip),%eax        # 1b7c0 <g_116>
   1463a:	c1 e0 07             	shl    $0x7,%eax
   1463d:	c1 f8 07             	sar    $0x7,%eax
   14640:	48 98                	cltq   
   14642:	8b 55 fc             	mov    -0x4(%rbp),%edx
   14645:	48 8d 35 ae 36 00 00 	lea    0x36ae(%rip),%rsi        # 17cfa <g_2389+0xc32>
   1464c:	48 89 c7             	mov    %rax,%rdi
   1464f:	e8 9f 20 ff ff       	callq  66f3 <transparent_crc>
   14654:	0f b6 05 69 71 00 00 	movzbl 0x7169(%rip),%eax        # 1b7c4 <g_116+0x4>
   1465b:	0f b6 c0             	movzbl %al,%eax
   1465e:	8b 55 fc             	mov    -0x4(%rbp),%edx
   14661:	48 8d 35 9b 36 00 00 	lea    0x369b(%rip),%rsi        # 17d03 <g_2389+0xc3b>
   14668:	48 89 c7             	mov    %rax,%rdi
   1466b:	e8 83 20 ff ff       	callq  66f3 <transparent_crc>
   14670:	48 8b 05 49 71 00 00 	mov    0x7149(%rip),%rax        # 1b7c0 <g_116>
   14677:	48 c1 e8 28          	shr    $0x28,%rax
   1467b:	25 ff ff 03 00       	and    $0x3ffff,%eax
   14680:	89 c1                	mov    %eax,%ecx
   14682:	8b 45 fc             	mov    -0x4(%rbp),%eax
   14685:	89 c2                	mov    %eax,%edx
   14687:	48 8d 35 7e 36 00 00 	lea    0x367e(%rip),%rsi        # 17d0c <g_2389+0xc44>
   1468e:	48 89 cf             	mov    %rcx,%rdi
   14691:	e8 5d 20 ff ff       	callq  66f3 <transparent_crc>
   14696:	48 8b 05 23 71 00 00 	mov    0x7123(%rip),%rax        # 1b7c0 <g_116>
   1469d:	48 c1 e8 3a          	shr    $0x3a,%rax
   146a1:	48 89 c2             	mov    %rax,%rdx
   146a4:	48 8b 05 1d 71 00 00 	mov    0x711d(%rip),%rax        # 1b7c8 <g_116+0x8>
   146ab:	83 e0 3f             	and    $0x3f,%eax
   146ae:	48 c1 e0 06          	shl    $0x6,%rax
   146b2:	48 09 d0             	or     %rdx,%rax
   146b5:	0f b7 c0             	movzwl %ax,%eax
   146b8:	8b 55 fc             	mov    -0x4(%rbp),%edx
   146bb:	48 8d 35 53 36 00 00 	lea    0x3653(%rip),%rsi        # 17d15 <g_2389+0xc4d>
   146c2:	48 89 c7             	mov    %rax,%rdi
   146c5:	e8 29 20 ff ff       	callq  66f3 <transparent_crc>
   146ca:	0f b6 05 f8 70 00 00 	movzbl 0x70f8(%rip),%eax        # 1b7c9 <g_116+0x9>
   146d1:	0f b6 c0             	movzbl %al,%eax
   146d4:	8b 55 fc             	mov    -0x4(%rbp),%edx
   146d7:	48 8d 35 40 36 00 00 	lea    0x3640(%rip),%rsi        # 17d1e <g_2389+0xc56>
   146de:	48 89 c7             	mov    %rax,%rdi
   146e1:	e8 0d 20 ff ff       	callq  66f3 <transparent_crc>
   146e6:	8b 05 de 70 00 00    	mov    0x70de(%rip),%eax        # 1b7ca <g_116+0xa>
   146ec:	89 c1                	mov    %eax,%ecx
   146ee:	8b 45 fc             	mov    -0x4(%rbp),%eax
   146f1:	89 c2                	mov    %eax,%edx
   146f3:	48 8d 35 2d 36 00 00 	lea    0x362d(%rip),%rsi        # 17d27 <g_2389+0xc5f>
   146fa:	48 89 cf             	mov    %rcx,%rdi
   146fd:	e8 f1 1f ff ff       	callq  66f3 <transparent_crc>
   14702:	48 8b 05 c5 70 00 00 	mov    0x70c5(%rip),%rax        # 1b7ce <g_116+0xe>
   14709:	48 89 c1             	mov    %rax,%rcx
   1470c:	8b 45 fc             	mov    -0x4(%rbp),%eax
   1470f:	89 c2                	mov    %eax,%edx
   14711:	48 8d 35 18 36 00 00 	lea    0x3618(%rip),%rsi        # 17d30 <g_2389+0xc68>
   14718:	48 89 cf             	mov    %rcx,%rdi
   1471b:	e8 d3 1f ff ff       	callq  66f3 <transparent_crc>
   14720:	48 8b 05 af 70 00 00 	mov    0x70af(%rip),%rax        # 1b7d6 <g_116+0x16>
   14727:	48 89 c1             	mov    %rax,%rcx
   1472a:	8b 45 fc             	mov    -0x4(%rbp),%eax
   1472d:	89 c2                	mov    %eax,%edx
   1472f:	48 8d 35 03 36 00 00 	lea    0x3603(%rip),%rsi        # 17d39 <g_2389+0xc71>
   14736:	48 89 cf             	mov    %rcx,%rdi
   14739:	e8 b5 1f ff ff       	callq  66f3 <transparent_crc>
   1473e:	48 8b 05 99 70 00 00 	mov    0x7099(%rip),%rax        # 1b7de <g_116+0x1e>
   14745:	8b 55 fc             	mov    -0x4(%rbp),%edx
   14748:	48 8d 35 f3 35 00 00 	lea    0x35f3(%rip),%rsi        # 17d42 <g_2389+0xc7a>
   1474f:	48 89 c7             	mov    %rax,%rdi
   14752:	e8 9c 1f ff ff       	callq  66f3 <transparent_crc>
   14757:	0f b7 05 88 70 00 00 	movzwl 0x7088(%rip),%eax        # 1b7e6 <g_116+0x26>
   1475e:	48 0f bf c0          	movswq %ax,%rax
   14762:	8b 55 fc             	mov    -0x4(%rbp),%edx
   14765:	48 8d 35 df 35 00 00 	lea    0x35df(%rip),%rsi        # 17d4b <g_2389+0xc83>
   1476c:	48 89 c7             	mov    %rax,%rdi
   1476f:	e8 7f 1f ff ff       	callq  66f3 <transparent_crc>
   14774:	48 8b 05 6d 70 00 00 	mov    0x706d(%rip),%rax        # 1b7e8 <g_123>
   1477b:	8b 55 fc             	mov    -0x4(%rbp),%edx
   1477e:	48 8d 35 cf 35 00 00 	lea    0x35cf(%rip),%rsi        # 17d54 <g_2389+0xc8c>
   14785:	48 89 c7             	mov    %rax,%rdi
   14788:	e8 66 1f ff ff       	callq  66f3 <transparent_crc>
   1478d:	8b 05 5d 70 00 00    	mov    0x705d(%rip),%eax        # 1b7f0 <g_137>
   14793:	89 c1                	mov    %eax,%ecx
   14795:	8b 45 fc             	mov    -0x4(%rbp),%eax
   14798:	89 c2                	mov    %eax,%edx
   1479a:	48 8d 35 b9 35 00 00 	lea    0x35b9(%rip),%rsi        # 17d5a <g_2389+0xc92>
   147a1:	48 89 cf             	mov    %rcx,%rdi
   147a4:	e8 4a 1f ff ff       	callq  66f3 <transparent_crc>
   147a9:	8b 05 45 70 00 00    	mov    0x7045(%rip),%eax        # 1b7f4 <g_144>
   147af:	89 c1                	mov    %eax,%ecx
   147b1:	8b 45 fc             	mov    -0x4(%rbp),%eax
   147b4:	89 c2                	mov    %eax,%edx
   147b6:	48 8d 35 a3 35 00 00 	lea    0x35a3(%rip),%rsi        # 17d60 <g_2389+0xc98>
   147bd:	48 89 cf             	mov    %rcx,%rdi
   147c0:	e8 2e 1f ff ff       	callq  66f3 <transparent_crc>
   147c5:	0f b6 05 2c 70 00 00 	movzbl 0x702c(%rip),%eax        # 1b7f8 <g_147>
   147cc:	0f b6 c0             	movzbl %al,%eax
   147cf:	8b 55 fc             	mov    -0x4(%rbp),%edx
   147d2:	48 8d 35 8d 35 00 00 	lea    0x358d(%rip),%rsi        # 17d66 <g_2389+0xc9e>
   147d9:	48 89 c7             	mov    %rax,%rdi
   147dc:	e8 12 1f ff ff       	callq  66f3 <transparent_crc>
   147e1:	0f b7 05 12 70 00 00 	movzwl 0x7012(%rip),%eax        # 1b7fa <g_149>
   147e8:	0f b7 c0             	movzwl %ax,%eax
   147eb:	8b 55 fc             	mov    -0x4(%rbp),%edx
   147ee:	48 8d 35 77 35 00 00 	lea    0x3577(%rip),%rsi        # 17d6c <g_2389+0xca4>
   147f5:	48 89 c7             	mov    %rax,%rdi
   147f8:	e8 f6 1e ff ff       	callq  66f3 <transparent_crc>
   147fd:	8b 05 f9 6f 00 00    	mov    0x6ff9(%rip),%eax        # 1b7fc <g_151>
   14803:	89 c1                	mov    %eax,%ecx
   14805:	8b 45 fc             	mov    -0x4(%rbp),%eax
   14808:	89 c2                	mov    %eax,%edx
   1480a:	48 8d 35 61 35 00 00 	lea    0x3561(%rip),%rsi        # 17d72 <g_2389+0xcaa>
   14811:	48 89 cf             	mov    %rcx,%rdi
   14814:	e8 da 1e ff ff       	callq  66f3 <transparent_crc>
   14819:	c7 45 f0 00 00 00 00 	movl   $0x0,-0x10(%rbp)
   14820:	eb 46                	jmp    14868 <main+0x4ac>
   14822:	8b 45 f0             	mov    -0x10(%rbp),%eax
   14825:	48 98                	cltq   
   14827:	48 8d 15 d2 6f 00 00 	lea    0x6fd2(%rip),%rdx        # 1b800 <g_179>
   1482e:	0f b6 04 10          	movzbl (%rax,%rdx,1),%eax
   14832:	48 0f be c0          	movsbq %al,%rax
   14836:	8b 55 fc             	mov    -0x4(%rbp),%edx
   14839:	48 8d 35 38 35 00 00 	lea    0x3538(%rip),%rsi        # 17d78 <g_2389+0xcb0>
   14840:	48 89 c7             	mov    %rax,%rdi
   14843:	e8 ab 1e ff ff       	callq  66f3 <transparent_crc>
   14848:	83 7d fc 00          	cmpl   $0x0,-0x4(%rbp)
   1484c:	74 16                	je     14864 <main+0x4a8>
   1484e:	8b 45 f0             	mov    -0x10(%rbp),%eax
   14851:	89 c6                	mov    %eax,%esi
   14853:	48 8d 3d 27 35 00 00 	lea    0x3527(%rip),%rdi        # 17d81 <g_2389+0xcb9>
   1485a:	b8 00 00 00 00       	mov    $0x0,%eax
   1485f:	e8 1c 08 ff ff       	callq  5080 <printf@plt>
   14864:	83 45 f0 01          	addl   $0x1,-0x10(%rbp)
   14868:	83 7d f0 09          	cmpl   $0x9,-0x10(%rbp)
   1486c:	7e b4                	jle    14822 <main+0x466>
   1486e:	8b 05 98 6f 00 00    	mov    0x6f98(%rip),%eax        # 1b80c <g_199>
   14874:	48 98                	cltq   
   14876:	8b 55 fc             	mov    -0x4(%rbp),%edx
   14879:	48 8d 35 0f 35 00 00 	lea    0x350f(%rip),%rsi        # 17d8f <g_2389+0xcc7>
   14880:	48 89 c7             	mov    %rax,%rdi
   14883:	e8 6b 1e ff ff       	callq  66f3 <transparent_crc>
   14888:	48 8b 05 81 6f 00 00 	mov    0x6f81(%rip),%rax        # 1b810 <g_201>
   1488f:	8b 55 fc             	mov    -0x4(%rbp),%edx
   14892:	48 8d 35 fc 34 00 00 	lea    0x34fc(%rip),%rsi        # 17d95 <g_2389+0xccd>
   14899:	48 89 c7             	mov    %rax,%rdi
   1489c:	e8 52 1e ff ff       	callq  66f3 <transparent_crc>
   148a1:	0f b7 05 70 6f 00 00 	movzwl 0x6f70(%rip),%eax        # 1b818 <g_223>
   148a8:	48 0f bf c0          	movswq %ax,%rax
   148ac:	8b 55 fc             	mov    -0x4(%rbp),%edx
   148af:	48 8d 35 e5 34 00 00 	lea    0x34e5(%rip),%rsi        # 17d9b <g_2389+0xcd3>
   148b6:	48 89 c7             	mov    %rax,%rdi
   148b9:	e8 35 1e ff ff       	callq  66f3 <transparent_crc>
   148be:	8b 05 5c 6f 00 00    	mov    0x6f5c(%rip),%eax        # 1b820 <g_244>
   148c4:	c1 e0 07             	shl    $0x7,%eax
   148c7:	c1 f8 07             	sar    $0x7,%eax
   148ca:	48 98                	cltq   
   148cc:	8b 55 fc             	mov    -0x4(%rbp),%edx
   148cf:	48 8d 35 cb 34 00 00 	lea    0x34cb(%rip),%rsi        # 17da1 <g_2389+0xcd9>
   148d6:	48 89 c7             	mov    %rax,%rdi
   148d9:	e8 15 1e ff ff       	callq  66f3 <transparent_crc>
   148de:	0f b6 05 3f 6f 00 00 	movzbl 0x6f3f(%rip),%eax        # 1b824 <g_244+0x4>
   148e5:	0f b6 c0             	movzbl %al,%eax
   148e8:	8b 55 fc             	mov    -0x4(%rbp),%edx
   148eb:	48 8d 35 b8 34 00 00 	lea    0x34b8(%rip),%rsi        # 17daa <g_2389+0xce2>
   148f2:	48 89 c7             	mov    %rax,%rdi
   148f5:	e8 f9 1d ff ff       	callq  66f3 <transparent_crc>
   148fa:	48 8b 05 1f 6f 00 00 	mov    0x6f1f(%rip),%rax        # 1b820 <g_244>
   14901:	48 c1 e8 28          	shr    $0x28,%rax
   14905:	25 ff ff 03 00       	and    $0x3ffff,%eax
   1490a:	89 c1                	mov    %eax,%ecx
   1490c:	8b 45 fc             	mov    -0x4(%rbp),%eax
   1490f:	89 c2                	mov    %eax,%edx
   14911:	48 8d 35 9b 34 00 00 	lea    0x349b(%rip),%rsi        # 17db3 <g_2389+0xceb>
   14918:	48 89 cf             	mov    %rcx,%rdi
   1491b:	e8 d3 1d ff ff       	callq  66f3 <transparent_crc>
   14920:	48 8b 05 f9 6e 00 00 	mov    0x6ef9(%rip),%rax        # 1b820 <g_244>
   14927:	48 c1 e8 3a          	shr    $0x3a,%rax
   1492b:	48 89 c2             	mov    %rax,%rdx
   1492e:	48 8b 05 f3 6e 00 00 	mov    0x6ef3(%rip),%rax        # 1b828 <g_244+0x8>
   14935:	83 e0 3f             	and    $0x3f,%eax
   14938:	48 c1 e0 06          	shl    $0x6,%rax
   1493c:	48 09 d0             	or     %rdx,%rax
   1493f:	0f b7 c0             	movzwl %ax,%eax
   14942:	8b 55 fc             	mov    -0x4(%rbp),%edx
   14945:	48 8d 35 70 34 00 00 	lea    0x3470(%rip),%rsi        # 17dbc <g_2389+0xcf4>
   1494c:	48 89 c7             	mov    %rax,%rdi
   1494f:	e8 9f 1d ff ff       	callq  66f3 <transparent_crc>
   14954:	0f b6 05 ce 6e 00 00 	movzbl 0x6ece(%rip),%eax        # 1b829 <g_244+0x9>
   1495b:	0f b6 c0             	movzbl %al,%eax
   1495e:	8b 55 fc             	mov    -0x4(%rbp),%edx
   14961:	48 8d 35 5d 34 00 00 	lea    0x345d(%rip),%rsi        # 17dc5 <g_2389+0xcfd>
   14968:	48 89 c7             	mov    %rax,%rdi
   1496b:	e8 83 1d ff ff       	callq  66f3 <transparent_crc>
   14970:	8b 05 b4 6e 00 00    	mov    0x6eb4(%rip),%eax        # 1b82a <g_244+0xa>
   14976:	89 c1                	mov    %eax,%ecx
   14978:	8b 45 fc             	mov    -0x4(%rbp),%eax
   1497b:	89 c2                	mov    %eax,%edx
   1497d:	48 8d 35 4a 34 00 00 	lea    0x344a(%rip),%rsi        # 17dce <g_2389+0xd06>
   14984:	48 89 cf             	mov    %rcx,%rdi
   14987:	e8 67 1d ff ff       	callq  66f3 <transparent_crc>
   1498c:	48 8b 05 9b 6e 00 00 	mov    0x6e9b(%rip),%rax        # 1b82e <g_244+0xe>
   14993:	48 89 c1             	mov    %rax,%rcx
   14996:	8b 45 fc             	mov    -0x4(%rbp),%eax
   14999:	89 c2                	mov    %eax,%edx
   1499b:	48 8d 35 35 34 00 00 	lea    0x3435(%rip),%rsi        # 17dd7 <g_2389+0xd0f>
   149a2:	48 89 cf             	mov    %rcx,%rdi
   149a5:	e8 49 1d ff ff       	callq  66f3 <transparent_crc>
   149aa:	48 8b 05 85 6e 00 00 	mov    0x6e85(%rip),%rax        # 1b836 <g_244+0x16>
   149b1:	48 89 c1             	mov    %rax,%rcx
   149b4:	8b 45 fc             	mov    -0x4(%rbp),%eax
   149b7:	89 c2                	mov    %eax,%edx
   149b9:	48 8d 35 20 34 00 00 	lea    0x3420(%rip),%rsi        # 17de0 <g_2389+0xd18>
   149c0:	48 89 cf             	mov    %rcx,%rdi
   149c3:	e8 2b 1d ff ff       	callq  66f3 <transparent_crc>
   149c8:	48 8b 05 6f 6e 00 00 	mov    0x6e6f(%rip),%rax        # 1b83e <g_244+0x1e>
   149cf:	8b 55 fc             	mov    -0x4(%rbp),%edx
   149d2:	48 8d 35 10 34 00 00 	lea    0x3410(%rip),%rsi        # 17de9 <g_2389+0xd21>
   149d9:	48 89 c7             	mov    %rax,%rdi
   149dc:	e8 12 1d ff ff       	callq  66f3 <transparent_crc>
   149e1:	0f b7 05 5e 6e 00 00 	movzwl 0x6e5e(%rip),%eax        # 1b846 <g_244+0x26>
   149e8:	48 0f bf c0          	movswq %ax,%rax
   149ec:	8b 55 fc             	mov    -0x4(%rbp),%edx
   149ef:	48 8d 35 fc 33 00 00 	lea    0x33fc(%rip),%rsi        # 17df2 <g_2389+0xd2a>
   149f6:	48 89 c7             	mov    %rax,%rdi
   149f9:	e8 f5 1c ff ff       	callq  66f3 <transparent_crc>
   149fe:	8b 05 24 96 00 00    	mov    0x9624(%rip),%eax        # 1e028 <g_276>
   14a04:	48 98                	cltq   
   14a06:	8b 55 fc             	mov    -0x4(%rbp),%edx
   14a09:	48 8d 35 eb 33 00 00 	lea    0x33eb(%rip),%rsi        # 17dfb <g_2389+0xd33>
   14a10:	48 89 c7             	mov    %rax,%rdi
   14a13:	e8 db 1c ff ff       	callq  66f3 <transparent_crc>
   14a18:	8b 05 2a 6e 00 00    	mov    0x6e2a(%rip),%eax        # 1b848 <g_292>
   14a1e:	89 c1                	mov    %eax,%ecx
   14a20:	8b 45 fc             	mov    -0x4(%rbp),%eax
   14a23:	89 c2                	mov    %eax,%edx
   14a25:	48 8d 35 d5 33 00 00 	lea    0x33d5(%rip),%rsi        # 17e01 <g_2389+0xd39>
   14a2c:	48 89 cf             	mov    %rcx,%rdi
   14a2f:	e8 bf 1c ff ff       	callq  66f3 <transparent_crc>
   14a34:	c7 45 f0 00 00 00 00 	movl   $0x0,-0x10(%rbp)
   14a3b:	eb 4d                	jmp    14a8a <main+0x6ce>
   14a3d:	8b 45 f0             	mov    -0x10(%rbp),%eax
   14a40:	48 98                	cltq   
   14a42:	48 8d 14 85 00 00 00 	lea    0x0(,%rax,4),%rdx
   14a49:	00 
   14a4a:	48 8d 05 ff 6d 00 00 	lea    0x6dff(%rip),%rax        # 1b850 <g_303>
   14a51:	8b 04 02             	mov    (%rdx,%rax,1),%eax
   14a54:	89 c1                	mov    %eax,%ecx
   14a56:	8b 45 fc             	mov    -0x4(%rbp),%eax
   14a59:	89 c2                	mov    %eax,%edx
   14a5b:	48 8d 35 a5 33 00 00 	lea    0x33a5(%rip),%rsi        # 17e07 <g_2389+0xd3f>
   14a62:	48 89 cf             	mov    %rcx,%rdi
   14a65:	e8 89 1c ff ff       	callq  66f3 <transparent_crc>
   14a6a:	83 7d fc 00          	cmpl   $0x0,-0x4(%rbp)
   14a6e:	74 16                	je     14a86 <main+0x6ca>
   14a70:	8b 45 f0             	mov    -0x10(%rbp),%eax
   14a73:	89 c6                	mov    %eax,%esi
   14a75:	48 8d 3d 05 33 00 00 	lea    0x3305(%rip),%rdi        # 17d81 <g_2389+0xcb9>
   14a7c:	b8 00 00 00 00       	mov    $0x0,%eax
   14a81:	e8 fa 05 ff ff       	callq  5080 <printf@plt>
   14a86:	83 45 f0 01          	addl   $0x1,-0x10(%rbp)
   14a8a:	83 7d f0 06          	cmpl   $0x6,-0x10(%rbp)
   14a8e:	7e ad                	jle    14a3d <main+0x681>
   14a90:	8b 05 ea 6d 00 00    	mov    0x6dea(%rip),%eax        # 1b880 <g_517>
   14a96:	c1 e0 07             	shl    $0x7,%eax
   14a99:	c1 f8 07             	sar    $0x7,%eax
   14a9c:	48 98                	cltq   
   14a9e:	8b 55 fc             	mov    -0x4(%rbp),%edx
   14aa1:	48 8d 35 68 33 00 00 	lea    0x3368(%rip),%rsi        # 17e10 <g_2389+0xd48>
   14aa8:	48 89 c7             	mov    %rax,%rdi
   14aab:	e8 43 1c ff ff       	callq  66f3 <transparent_crc>
   14ab0:	0f b6 05 cd 6d 00 00 	movzbl 0x6dcd(%rip),%eax        # 1b884 <g_517+0x4>
   14ab7:	0f b6 c0             	movzbl %al,%eax
   14aba:	8b 55 fc             	mov    -0x4(%rbp),%edx
   14abd:	48 8d 35 55 33 00 00 	lea    0x3355(%rip),%rsi        # 17e19 <g_2389+0xd51>
   14ac4:	48 89 c7             	mov    %rax,%rdi
   14ac7:	e8 27 1c ff ff       	callq  66f3 <transparent_crc>
   14acc:	48 8b 05 ad 6d 00 00 	mov    0x6dad(%rip),%rax        # 1b880 <g_517>
   14ad3:	48 c1 e8 28          	shr    $0x28,%rax
   14ad7:	25 ff ff 03 00       	and    $0x3ffff,%eax
   14adc:	89 c1                	mov    %eax,%ecx
   14ade:	8b 45 fc             	mov    -0x4(%rbp),%eax
   14ae1:	89 c2                	mov    %eax,%edx
   14ae3:	48 8d 35 38 33 00 00 	lea    0x3338(%rip),%rsi        # 17e22 <g_2389+0xd5a>
   14aea:	48 89 cf             	mov    %rcx,%rdi
   14aed:	e8 01 1c ff ff       	callq  66f3 <transparent_crc>
   14af2:	48 8b 05 87 6d 00 00 	mov    0x6d87(%rip),%rax        # 1b880 <g_517>
   14af9:	48 c1 e8 3a          	shr    $0x3a,%rax
   14afd:	48 89 c2             	mov    %rax,%rdx
   14b00:	48 8b 05 81 6d 00 00 	mov    0x6d81(%rip),%rax        # 1b888 <g_517+0x8>
   14b07:	83 e0 3f             	and    $0x3f,%eax
   14b0a:	48 c1 e0 06          	shl    $0x6,%rax
   14b0e:	48 09 d0             	or     %rdx,%rax
   14b11:	0f b7 c0             	movzwl %ax,%eax
   14b14:	8b 55 fc             	mov    -0x4(%rbp),%edx
   14b17:	48 8d 35 0d 33 00 00 	lea    0x330d(%rip),%rsi        # 17e2b <g_2389+0xd63>
   14b1e:	48 89 c7             	mov    %rax,%rdi
   14b21:	e8 cd 1b ff ff       	callq  66f3 <transparent_crc>
   14b26:	0f b6 05 5c 6d 00 00 	movzbl 0x6d5c(%rip),%eax        # 1b889 <g_517+0x9>
   14b2d:	0f b6 c0             	movzbl %al,%eax
   14b30:	8b 55 fc             	mov    -0x4(%rbp),%edx
   14b33:	48 8d 35 fa 32 00 00 	lea    0x32fa(%rip),%rsi        # 17e34 <g_2389+0xd6c>
   14b3a:	48 89 c7             	mov    %rax,%rdi
   14b3d:	e8 b1 1b ff ff       	callq  66f3 <transparent_crc>
   14b42:	8b 05 42 6d 00 00    	mov    0x6d42(%rip),%eax        # 1b88a <g_517+0xa>
   14b48:	89 c1                	mov    %eax,%ecx
   14b4a:	8b 45 fc             	mov    -0x4(%rbp),%eax
   14b4d:	89 c2                	mov    %eax,%edx
   14b4f:	48 8d 35 e7 32 00 00 	lea    0x32e7(%rip),%rsi        # 17e3d <g_2389+0xd75>
   14b56:	48 89 cf             	mov    %rcx,%rdi
   14b59:	e8 95 1b ff ff       	callq  66f3 <transparent_crc>
   14b5e:	48 8b 05 29 6d 00 00 	mov    0x6d29(%rip),%rax        # 1b88e <g_517+0xe>
   14b65:	48 89 c1             	mov    %rax,%rcx
   14b68:	8b 45 fc             	mov    -0x4(%rbp),%eax
   14b6b:	89 c2                	mov    %eax,%edx
   14b6d:	48 8d 35 d2 32 00 00 	lea    0x32d2(%rip),%rsi        # 17e46 <g_2389+0xd7e>
   14b74:	48 89 cf             	mov    %rcx,%rdi
   14b77:	e8 77 1b ff ff       	callq  66f3 <transparent_crc>
   14b7c:	48 8b 05 13 6d 00 00 	mov    0x6d13(%rip),%rax        # 1b896 <g_517+0x16>
   14b83:	48 89 c1             	mov    %rax,%rcx
   14b86:	8b 45 fc             	mov    -0x4(%rbp),%eax
   14b89:	89 c2                	mov    %eax,%edx
   14b8b:	48 8d 35 bd 32 00 00 	lea    0x32bd(%rip),%rsi        # 17e4f <g_2389+0xd87>
   14b92:	48 89 cf             	mov    %rcx,%rdi
   14b95:	e8 59 1b ff ff       	callq  66f3 <transparent_crc>
   14b9a:	48 8b 05 fd 6c 00 00 	mov    0x6cfd(%rip),%rax        # 1b89e <g_517+0x1e>
   14ba1:	8b 55 fc             	mov    -0x4(%rbp),%edx
   14ba4:	48 8d 35 ad 32 00 00 	lea    0x32ad(%rip),%rsi        # 17e58 <g_2389+0xd90>
   14bab:	48 89 c7             	mov    %rax,%rdi
   14bae:	e8 40 1b ff ff       	callq  66f3 <transparent_crc>
   14bb3:	0f b7 05 ec 6c 00 00 	movzwl 0x6cec(%rip),%eax        # 1b8a6 <g_517+0x26>
   14bba:	48 0f bf c0          	movswq %ax,%rax
   14bbe:	8b 55 fc             	mov    -0x4(%rbp),%edx
   14bc1:	48 8d 35 99 32 00 00 	lea    0x3299(%rip),%rsi        # 17e61 <g_2389+0xd99>
   14bc8:	48 89 c7             	mov    %rax,%rdi
   14bcb:	e8 23 1b ff ff       	callq  66f3 <transparent_crc>
   14bd0:	8b 05 d2 6c 00 00    	mov    0x6cd2(%rip),%eax        # 1b8a8 <g_597>
   14bd6:	48 98                	cltq   
   14bd8:	8b 55 fc             	mov    -0x4(%rbp),%edx
   14bdb:	48 8d 35 88 32 00 00 	lea    0x3288(%rip),%rsi        # 17e6a <g_2389+0xda2>
   14be2:	48 89 c7             	mov    %rax,%rdi
   14be5:	e8 09 1b ff ff       	callq  66f3 <transparent_crc>
   14bea:	48 8b 05 cf 6c 00 00 	mov    0x6ccf(%rip),%rax        # 1b8c0 <g_694>
   14bf1:	c1 e0 07             	shl    $0x7,%eax
   14bf4:	c1 f8 07             	sar    $0x7,%eax
   14bf7:	48 98                	cltq   
   14bf9:	8b 55 fc             	mov    -0x4(%rbp),%edx
   14bfc:	48 8d 35 6d 32 00 00 	lea    0x326d(%rip),%rsi        # 17e70 <g_2389+0xda8>
   14c03:	48 89 c7             	mov    %rax,%rdi
   14c06:	e8 e8 1a ff ff       	callq  66f3 <transparent_crc>
   14c0b:	0f b6 05 b2 6c 00 00 	movzbl 0x6cb2(%rip),%eax        # 1b8c4 <g_694+0x4>
   14c12:	0f b6 c0             	movzbl %al,%eax
   14c15:	8b 55 fc             	mov    -0x4(%rbp),%edx
   14c18:	48 8d 35 5a 32 00 00 	lea    0x325a(%rip),%rsi        # 17e79 <g_2389+0xdb1>
   14c1f:	48 89 c7             	mov    %rax,%rdi
   14c22:	e8 cc 1a ff ff       	callq  66f3 <transparent_crc>
   14c27:	48 8b 05 92 6c 00 00 	mov    0x6c92(%rip),%rax        # 1b8c0 <g_694>
   14c2e:	48 c1 e8 28          	shr    $0x28,%rax
   14c32:	25 ff ff 03 00       	and    $0x3ffff,%eax
   14c37:	89 c1                	mov    %eax,%ecx
   14c39:	8b 45 fc             	mov    -0x4(%rbp),%eax
   14c3c:	89 c2                	mov    %eax,%edx
   14c3e:	48 8d 35 3d 32 00 00 	lea    0x323d(%rip),%rsi        # 17e82 <g_2389+0xdba>
   14c45:	48 89 cf             	mov    %rcx,%rdi
   14c48:	e8 a6 1a ff ff       	callq  66f3 <transparent_crc>
   14c4d:	48 8b 05 6c 6c 00 00 	mov    0x6c6c(%rip),%rax        # 1b8c0 <g_694>
   14c54:	48 c1 e8 3a          	shr    $0x3a,%rax
   14c58:	48 89 c2             	mov    %rax,%rdx
   14c5b:	48 8b 05 66 6c 00 00 	mov    0x6c66(%rip),%rax        # 1b8c8 <g_694+0x8>
   14c62:	83 e0 3f             	and    $0x3f,%eax
   14c65:	48 c1 e0 06          	shl    $0x6,%rax
   14c69:	48 09 d0             	or     %rdx,%rax
   14c6c:	0f b7 c0             	movzwl %ax,%eax
   14c6f:	8b 55 fc             	mov    -0x4(%rbp),%edx
   14c72:	48 8d 35 12 32 00 00 	lea    0x3212(%rip),%rsi        # 17e8b <g_2389+0xdc3>
   14c79:	48 89 c7             	mov    %rax,%rdi
   14c7c:	e8 72 1a ff ff       	callq  66f3 <transparent_crc>
   14c81:	0f b6 05 41 6c 00 00 	movzbl 0x6c41(%rip),%eax        # 1b8c9 <g_694+0x9>
   14c88:	0f b6 c0             	movzbl %al,%eax
   14c8b:	8b 55 fc             	mov    -0x4(%rbp),%edx
   14c8e:	48 8d 35 ff 31 00 00 	lea    0x31ff(%rip),%rsi        # 17e94 <g_2389+0xdcc>
   14c95:	48 89 c7             	mov    %rax,%rdi
   14c98:	e8 56 1a ff ff       	callq  66f3 <transparent_crc>
   14c9d:	8b 05 27 6c 00 00    	mov    0x6c27(%rip),%eax        # 1b8ca <g_694+0xa>
   14ca3:	89 c1                	mov    %eax,%ecx
   14ca5:	8b 45 fc             	mov    -0x4(%rbp),%eax
   14ca8:	89 c2                	mov    %eax,%edx
   14caa:	48 8d 35 ec 31 00 00 	lea    0x31ec(%rip),%rsi        # 17e9d <g_2389+0xdd5>
   14cb1:	48 89 cf             	mov    %rcx,%rdi
   14cb4:	e8 3a 1a ff ff       	callq  66f3 <transparent_crc>
   14cb9:	48 8b 05 0e 6c 00 00 	mov    0x6c0e(%rip),%rax        # 1b8ce <g_694+0xe>
   14cc0:	48 89 c1             	mov    %rax,%rcx
   14cc3:	8b 45 fc             	mov    -0x4(%rbp),%eax
   14cc6:	89 c2                	mov    %eax,%edx
   14cc8:	48 8d 35 d7 31 00 00 	lea    0x31d7(%rip),%rsi        # 17ea6 <g_2389+0xdde>
   14ccf:	48 89 cf             	mov    %rcx,%rdi
   14cd2:	e8 1c 1a ff ff       	callq  66f3 <transparent_crc>
   14cd7:	48 8b 05 f8 6b 00 00 	mov    0x6bf8(%rip),%rax        # 1b8d6 <g_694+0x16>
   14cde:	48 89 c1             	mov    %rax,%rcx
   14ce1:	8b 45 fc             	mov    -0x4(%rbp),%eax
   14ce4:	89 c2                	mov    %eax,%edx
   14ce6:	48 8d 35 c2 31 00 00 	lea    0x31c2(%rip),%rsi        # 17eaf <g_2389+0xde7>
   14ced:	48 89 cf             	mov    %rcx,%rdi
   14cf0:	e8 fe 19 ff ff       	callq  66f3 <transparent_crc>
   14cf5:	48 8b 05 e2 6b 00 00 	mov    0x6be2(%rip),%rax        # 1b8de <g_694+0x1e>
   14cfc:	8b 55 fc             	mov    -0x4(%rbp),%edx
   14cff:	48 8d 35 b2 31 00 00 	lea    0x31b2(%rip),%rsi        # 17eb8 <g_2389+0xdf0>
   14d06:	48 89 c7             	mov    %rax,%rdi
   14d09:	e8 e5 19 ff ff       	callq  66f3 <transparent_crc>
   14d0e:	0f b7 05 d1 6b 00 00 	movzwl 0x6bd1(%rip),%eax        # 1b8e6 <g_694+0x26>
   14d15:	48 0f bf c0          	movswq %ax,%rax
   14d19:	8b 55 fc             	mov    -0x4(%rbp),%edx
   14d1c:	48 8d 35 9e 31 00 00 	lea    0x319e(%rip),%rsi        # 17ec1 <g_2389+0xdf9>
   14d23:	48 89 c7             	mov    %rax,%rdi
   14d26:	e8 c8 19 ff ff       	callq  66f3 <transparent_crc>
   14d2b:	b8 89 f9 ff ff       	mov    $0xfffff989,%eax
   14d30:	48 98                	cltq   
   14d32:	8b 55 fc             	mov    -0x4(%rbp),%edx
   14d35:	48 8d 35 8e 31 00 00 	lea    0x318e(%rip),%rsi        # 17eca <g_2389+0xe02>
   14d3c:	48 89 c7             	mov    %rax,%rdi
   14d3f:	e8 af 19 ff ff       	callq  66f3 <transparent_crc>
   14d44:	b8 2c 00 00 00       	mov    $0x2c,%eax
   14d49:	0f b6 c0             	movzbl %al,%eax
   14d4c:	8b 55 fc             	mov    -0x4(%rbp),%edx
   14d4f:	48 8d 35 7d 31 00 00 	lea    0x317d(%rip),%rsi        # 17ed3 <g_2389+0xe0b>
   14d56:	48 89 c7             	mov    %rax,%rdi
   14d59:	e8 95 19 ff ff       	callq  66f3 <transparent_crc>
   14d5e:	48 8b 05 fb 22 00 00 	mov    0x22fb(%rip),%rax        # 17060 <g_709>
   14d65:	48 c1 e8 28          	shr    $0x28,%rax
   14d69:	25 ff ff 03 00       	and    $0x3ffff,%eax
   14d6e:	89 c1                	mov    %eax,%ecx
   14d70:	8b 45 fc             	mov    -0x4(%rbp),%eax
   14d73:	89 c2                	mov    %eax,%edx
   14d75:	48 8d 35 60 31 00 00 	lea    0x3160(%rip),%rsi        # 17edc <g_2389+0xe14>
   14d7c:	48 89 cf             	mov    %rcx,%rdi
   14d7f:	e8 6f 19 ff ff       	callq  66f3 <transparent_crc>
   14d84:	48 8b 05 d5 22 00 00 	mov    0x22d5(%rip),%rax        # 17060 <g_709>
   14d8b:	48 c1 e8 3a          	shr    $0x3a,%rax
   14d8f:	48 89 c2             	mov    %rax,%rdx
   14d92:	48 8b 05 cf 22 00 00 	mov    0x22cf(%rip),%rax        # 17068 <g_709+0x8>
   14d99:	83 e0 3f             	and    $0x3f,%eax
   14d9c:	48 c1 e0 06          	shl    $0x6,%rax
   14da0:	48 09 d0             	or     %rdx,%rax
   14da3:	0f b7 c0             	movzwl %ax,%eax
   14da6:	8b 55 fc             	mov    -0x4(%rbp),%edx
   14da9:	48 8d 35 35 31 00 00 	lea    0x3135(%rip),%rsi        # 17ee5 <g_2389+0xe1d>
   14db0:	48 89 c7             	mov    %rax,%rdi
   14db3:	e8 3b 19 ff ff       	callq  66f3 <transparent_crc>
   14db8:	0f b6 05 aa 22 00 00 	movzbl 0x22aa(%rip),%eax        # 17069 <g_709+0x9>
   14dbf:	0f b6 c0             	movzbl %al,%eax
   14dc2:	8b 55 fc             	mov    -0x4(%rbp),%edx
   14dc5:	48 8d 35 22 31 00 00 	lea    0x3122(%rip),%rsi        # 17eee <g_2389+0xe26>
   14dcc:	48 89 c7             	mov    %rax,%rdi
   14dcf:	e8 1f 19 ff ff       	callq  66f3 <transparent_crc>
   14dd4:	b8 ef 43 e2 d2       	mov    $0xd2e243ef,%eax
   14dd9:	89 c1                	mov    %eax,%ecx
   14ddb:	8b 45 fc             	mov    -0x4(%rbp),%eax
   14dde:	89 c2                	mov    %eax,%edx
   14de0:	48 8d 35 10 31 00 00 	lea    0x3110(%rip),%rsi        # 17ef7 <g_2389+0xe2f>
   14de7:	48 89 cf             	mov    %rcx,%rdi
   14dea:	e8 04 19 ff ff       	callq  66f3 <transparent_crc>
   14def:	b8 03 00 00 00       	mov    $0x3,%eax
   14df4:	48 89 c1             	mov    %rax,%rcx
   14df7:	8b 45 fc             	mov    -0x4(%rbp),%eax
   14dfa:	89 c2                	mov    %eax,%edx
   14dfc:	48 8d 35 fd 30 00 00 	lea    0x30fd(%rip),%rsi        # 17f00 <g_2389+0xe38>
   14e03:	48 89 cf             	mov    %rcx,%rdi
   14e06:	e8 e8 18 ff ff       	callq  66f3 <transparent_crc>
   14e0b:	48 c7 c0 ff ff ff ff 	mov    $0xffffffffffffffff,%rax
   14e12:	48 89 c1             	mov    %rax,%rcx
   14e15:	8b 45 fc             	mov    -0x4(%rbp),%eax
   14e18:	89 c2                	mov    %eax,%edx
   14e1a:	48 8d 35 e8 30 00 00 	lea    0x30e8(%rip),%rsi        # 17f09 <g_2389+0xe41>
   14e21:	48 89 cf             	mov    %rcx,%rdi
   14e24:	e8 ca 18 ff ff       	callq  66f3 <transparent_crc>
   14e29:	b9 01 00 00 00       	mov    $0x1,%ecx
   14e2e:	8b 45 fc             	mov    -0x4(%rbp),%eax
   14e31:	89 c2                	mov    %eax,%edx
   14e33:	48 8d 35 d8 30 00 00 	lea    0x30d8(%rip),%rsi        # 17f12 <g_2389+0xe4a>
   14e3a:	48 89 cf             	mov    %rcx,%rdi
   14e3d:	e8 b1 18 ff ff       	callq  66f3 <transparent_crc>
   14e42:	b8 ff ff ff ff       	mov    $0xffffffff,%eax
   14e47:	48 0f bf c0          	movswq %ax,%rax
   14e4b:	8b 55 fc             	mov    -0x4(%rbp),%edx
   14e4e:	48 8d 35 c6 30 00 00 	lea    0x30c6(%rip),%rsi        # 17f1b <g_2389+0xe53>
   14e55:	48 89 c7             	mov    %rax,%rdi
   14e58:	e8 96 18 ff ff       	callq  66f3 <transparent_crc>
   14e5d:	48 8b 05 9c 6a 00 00 	mov    0x6a9c(%rip),%rax        # 1b900 <g_796>
   14e64:	c1 e0 07             	shl    $0x7,%eax
   14e67:	c1 f8 07             	sar    $0x7,%eax
   14e6a:	48 98                	cltq   
   14e6c:	8b 55 fc             	mov    -0x4(%rbp),%edx
   14e6f:	48 8d 35 ae 30 00 00 	lea    0x30ae(%rip),%rsi        # 17f24 <g_2389+0xe5c>
   14e76:	48 89 c7             	mov    %rax,%rdi
   14e79:	e8 75 18 ff ff       	callq  66f3 <transparent_crc>
   14e7e:	0f b6 05 7f 6a 00 00 	movzbl 0x6a7f(%rip),%eax        # 1b904 <g_796+0x4>
   14e85:	0f b6 c0             	movzbl %al,%eax
   14e88:	8b 55 fc             	mov    -0x4(%rbp),%edx
   14e8b:	48 8d 35 9b 30 00 00 	lea    0x309b(%rip),%rsi        # 17f2d <g_2389+0xe65>
   14e92:	48 89 c7             	mov    %rax,%rdi
   14e95:	e8 59 18 ff ff       	callq  66f3 <transparent_crc>
   14e9a:	48 8b 05 5f 6a 00 00 	mov    0x6a5f(%rip),%rax        # 1b900 <g_796>
   14ea1:	48 c1 e8 28          	shr    $0x28,%rax
   14ea5:	25 ff ff 03 00       	and    $0x3ffff,%eax
   14eaa:	89 c1                	mov    %eax,%ecx
   14eac:	8b 45 fc             	mov    -0x4(%rbp),%eax
   14eaf:	89 c2                	mov    %eax,%edx
   14eb1:	48 8d 35 7e 30 00 00 	lea    0x307e(%rip),%rsi        # 17f36 <g_2389+0xe6e>
   14eb8:	48 89 cf             	mov    %rcx,%rdi
   14ebb:	e8 33 18 ff ff       	callq  66f3 <transparent_crc>
   14ec0:	48 8b 05 39 6a 00 00 	mov    0x6a39(%rip),%rax        # 1b900 <g_796>
   14ec7:	48 c1 e8 3a          	shr    $0x3a,%rax
   14ecb:	48 89 c2             	mov    %rax,%rdx
   14ece:	48 8b 05 33 6a 00 00 	mov    0x6a33(%rip),%rax        # 1b908 <g_796+0x8>
   14ed5:	83 e0 3f             	and    $0x3f,%eax
   14ed8:	48 c1 e0 06          	shl    $0x6,%rax
   14edc:	48 09 d0             	or     %rdx,%rax
   14edf:	0f b7 c0             	movzwl %ax,%eax
   14ee2:	8b 55 fc             	mov    -0x4(%rbp),%edx
   14ee5:	48 8d 35 53 30 00 00 	lea    0x3053(%rip),%rsi        # 17f3f <g_2389+0xe77>
   14eec:	48 89 c7             	mov    %rax,%rdi
   14eef:	e8 ff 17 ff ff       	callq  66f3 <transparent_crc>
   14ef4:	0f b6 05 0e 6a 00 00 	movzbl 0x6a0e(%rip),%eax        # 1b909 <g_796+0x9>
   14efb:	0f b6 c0             	movzbl %al,%eax
   14efe:	8b 55 fc             	mov    -0x4(%rbp),%edx
   14f01:	48 8d 35 40 30 00 00 	lea    0x3040(%rip),%rsi        # 17f48 <g_2389+0xe80>
   14f08:	48 89 c7             	mov    %rax,%rdi
   14f0b:	e8 e3 17 ff ff       	callq  66f3 <transparent_crc>
   14f10:	8b 05 f4 69 00 00    	mov    0x69f4(%rip),%eax        # 1b90a <g_796+0xa>
   14f16:	89 c1                	mov    %eax,%ecx
   14f18:	8b 45 fc             	mov    -0x4(%rbp),%eax
   14f1b:	89 c2                	mov    %eax,%edx
   14f1d:	48 8d 35 2d 30 00 00 	lea    0x302d(%rip),%rsi        # 17f51 <g_2389+0xe89>
   14f24:	48 89 cf             	mov    %rcx,%rdi
   14f27:	e8 c7 17 ff ff       	callq  66f3 <transparent_crc>
   14f2c:	48 8b 05 db 69 00 00 	mov    0x69db(%rip),%rax        # 1b90e <g_796+0xe>
   14f33:	48 89 c1             	mov    %rax,%rcx
   14f36:	8b 45 fc             	mov    -0x4(%rbp),%eax
   14f39:	89 c2                	mov    %eax,%edx
   14f3b:	48 8d 35 18 30 00 00 	lea    0x3018(%rip),%rsi        # 17f5a <g_2389+0xe92>
   14f42:	48 89 cf             	mov    %rcx,%rdi
   14f45:	e8 a9 17 ff ff       	callq  66f3 <transparent_crc>
   14f4a:	48 8b 05 c5 69 00 00 	mov    0x69c5(%rip),%rax        # 1b916 <g_796+0x16>
   14f51:	48 89 c1             	mov    %rax,%rcx
   14f54:	8b 45 fc             	mov    -0x4(%rbp),%eax
   14f57:	89 c2                	mov    %eax,%edx
   14f59:	48 8d 35 03 30 00 00 	lea    0x3003(%rip),%rsi        # 17f63 <g_2389+0xe9b>
   14f60:	48 89 cf             	mov    %rcx,%rdi
   14f63:	e8 8b 17 ff ff       	callq  66f3 <transparent_crc>
   14f68:	48 8b 05 af 69 00 00 	mov    0x69af(%rip),%rax        # 1b91e <g_796+0x1e>
   14f6f:	8b 55 fc             	mov    -0x4(%rbp),%edx
   14f72:	48 8d 35 f3 2f 00 00 	lea    0x2ff3(%rip),%rsi        # 17f6c <g_2389+0xea4>
   14f79:	48 89 c7             	mov    %rax,%rdi
   14f7c:	e8 72 17 ff ff       	callq  66f3 <transparent_crc>
   14f81:	0f b7 05 9e 69 00 00 	movzwl 0x699e(%rip),%eax        # 1b926 <g_796+0x26>
   14f88:	48 0f bf c0          	movswq %ax,%rax
   14f8c:	8b 55 fc             	mov    -0x4(%rbp),%edx
   14f8f:	48 8d 35 df 2f 00 00 	lea    0x2fdf(%rip),%rsi        # 17f75 <g_2389+0xead>
   14f96:	48 89 c7             	mov    %rax,%rdi
   14f99:	e8 55 17 ff ff       	callq  66f3 <transparent_crc>
   14f9e:	8b 05 84 69 00 00    	mov    0x6984(%rip),%eax        # 1b928 <g_878>
   14fa4:	48 98                	cltq   
   14fa6:	8b 55 fc             	mov    -0x4(%rbp),%edx
   14fa9:	48 8d 35 ce 2f 00 00 	lea    0x2fce(%rip),%rsi        # 17f7e <g_2389+0xeb6>
   14fb0:	48 89 c7             	mov    %rax,%rdi
   14fb3:	e8 3b 17 ff ff       	callq  66f3 <transparent_crc>
   14fb8:	8b 05 6e 69 00 00    	mov    0x696e(%rip),%eax        # 1b92c <g_924>
   14fbe:	48 98                	cltq   
   14fc0:	8b 55 fc             	mov    -0x4(%rbp),%edx
   14fc3:	48 8d 35 ba 2f 00 00 	lea    0x2fba(%rip),%rsi        # 17f84 <g_2389+0xebc>
   14fca:	48 89 c7             	mov    %rax,%rdi
   14fcd:	e8 21 17 ff ff       	callq  66f3 <transparent_crc>
   14fd2:	0f b7 05 57 69 00 00 	movzwl 0x6957(%rip),%eax        # 1b930 <g_997>
   14fd9:	0f b7 c0             	movzwl %ax,%eax
   14fdc:	8b 55 fc             	mov    -0x4(%rbp),%edx
   14fdf:	48 8d 35 a4 2f 00 00 	lea    0x2fa4(%rip),%rsi        # 17f8a <g_2389+0xec2>
   14fe6:	48 89 c7             	mov    %rax,%rdi
   14fe9:	e8 05 17 ff ff       	callq  66f3 <transparent_crc>
   14fee:	48 8b 05 4b 69 00 00 	mov    0x694b(%rip),%rax        # 1b940 <g_1051>
   14ff5:	c1 e0 07             	shl    $0x7,%eax
   14ff8:	c1 f8 07             	sar    $0x7,%eax
   14ffb:	48 98                	cltq   
   14ffd:	8b 55 fc             	mov    -0x4(%rbp),%edx
   15000:	48 8d 35 89 2f 00 00 	lea    0x2f89(%rip),%rsi        # 17f90 <g_2389+0xec8>
   15007:	48 89 c7             	mov    %rax,%rdi
   1500a:	e8 e4 16 ff ff       	callq  66f3 <transparent_crc>
   1500f:	0f b6 05 2e 69 00 00 	movzbl 0x692e(%rip),%eax        # 1b944 <g_1051+0x4>
   15016:	0f b6 c0             	movzbl %al,%eax
   15019:	8b 55 fc             	mov    -0x4(%rbp),%edx
   1501c:	48 8d 35 77 2f 00 00 	lea    0x2f77(%rip),%rsi        # 17f9a <g_2389+0xed2>
   15023:	48 89 c7             	mov    %rax,%rdi
   15026:	e8 c8 16 ff ff       	callq  66f3 <transparent_crc>
   1502b:	48 8b 05 0e 69 00 00 	mov    0x690e(%rip),%rax        # 1b940 <g_1051>
   15032:	48 c1 e8 28          	shr    $0x28,%rax
   15036:	25 ff ff 03 00       	and    $0x3ffff,%eax
   1503b:	89 c1                	mov    %eax,%ecx
   1503d:	8b 45 fc             	mov    -0x4(%rbp),%eax
   15040:	89 c2                	mov    %eax,%edx
   15042:	48 8d 35 5b 2f 00 00 	lea    0x2f5b(%rip),%rsi        # 17fa4 <g_2389+0xedc>
   15049:	48 89 cf             	mov    %rcx,%rdi
   1504c:	e8 a2 16 ff ff       	callq  66f3 <transparent_crc>
   15051:	48 8b 05 e8 68 00 00 	mov    0x68e8(%rip),%rax        # 1b940 <g_1051>
   15058:	48 c1 e8 3a          	shr    $0x3a,%rax
   1505c:	48 89 c2             	mov    %rax,%rdx
   1505f:	48 8b 05 e2 68 00 00 	mov    0x68e2(%rip),%rax        # 1b948 <g_1051+0x8>
   15066:	83 e0 3f             	and    $0x3f,%eax
   15069:	48 c1 e0 06          	shl    $0x6,%rax
   1506d:	48 09 d0             	or     %rdx,%rax
   15070:	0f b7 c0             	movzwl %ax,%eax
   15073:	8b 55 fc             	mov    -0x4(%rbp),%edx
   15076:	48 8d 35 31 2f 00 00 	lea    0x2f31(%rip),%rsi        # 17fae <g_2389+0xee6>
   1507d:	48 89 c7             	mov    %rax,%rdi
   15080:	e8 6e 16 ff ff       	callq  66f3 <transparent_crc>
   15085:	0f b6 05 bd 68 00 00 	movzbl 0x68bd(%rip),%eax        # 1b949 <g_1051+0x9>
   1508c:	0f b6 c0             	movzbl %al,%eax
   1508f:	8b 55 fc             	mov    -0x4(%rbp),%edx
   15092:	48 8d 35 1f 2f 00 00 	lea    0x2f1f(%rip),%rsi        # 17fb8 <g_2389+0xef0>
   15099:	48 89 c7             	mov    %rax,%rdi
   1509c:	e8 52 16 ff ff       	callq  66f3 <transparent_crc>
   150a1:	8b 05 a3 68 00 00    	mov    0x68a3(%rip),%eax        # 1b94a <g_1051+0xa>
   150a7:	89 c1                	mov    %eax,%ecx
   150a9:	8b 45 fc             	mov    -0x4(%rbp),%eax
   150ac:	89 c2                	mov    %eax,%edx
   150ae:	48 8d 35 0d 2f 00 00 	lea    0x2f0d(%rip),%rsi        # 17fc2 <g_2389+0xefa>
   150b5:	48 89 cf             	mov    %rcx,%rdi
   150b8:	e8 36 16 ff ff       	callq  66f3 <transparent_crc>
   150bd:	48 8b 05 8a 68 00 00 	mov    0x688a(%rip),%rax        # 1b94e <g_1051+0xe>
   150c4:	48 89 c1             	mov    %rax,%rcx
   150c7:	8b 45 fc             	mov    -0x4(%rbp),%eax
   150ca:	89 c2                	mov    %eax,%edx
   150cc:	48 8d 35 f9 2e 00 00 	lea    0x2ef9(%rip),%rsi        # 17fcc <g_2389+0xf04>
   150d3:	48 89 cf             	mov    %rcx,%rdi
   150d6:	e8 18 16 ff ff       	callq  66f3 <transparent_crc>
   150db:	48 8b 05 74 68 00 00 	mov    0x6874(%rip),%rax        # 1b956 <g_1051+0x16>
   150e2:	48 89 c1             	mov    %rax,%rcx
   150e5:	8b 45 fc             	mov    -0x4(%rbp),%eax
   150e8:	89 c2                	mov    %eax,%edx
   150ea:	48 8d 35 e5 2e 00 00 	lea    0x2ee5(%rip),%rsi        # 17fd6 <g_2389+0xf0e>
   150f1:	48 89 cf             	mov    %rcx,%rdi
   150f4:	e8 fa 15 ff ff       	callq  66f3 <transparent_crc>
   150f9:	48 8b 05 5e 68 00 00 	mov    0x685e(%rip),%rax        # 1b95e <g_1051+0x1e>
   15100:	8b 55 fc             	mov    -0x4(%rbp),%edx
   15103:	48 8d 35 d6 2e 00 00 	lea    0x2ed6(%rip),%rsi        # 17fe0 <g_2389+0xf18>
   1510a:	48 89 c7             	mov    %rax,%rdi
   1510d:	e8 e1 15 ff ff       	callq  66f3 <transparent_crc>
   15112:	0f b7 05 4d 68 00 00 	movzwl 0x684d(%rip),%eax        # 1b966 <g_1051+0x26>
   15119:	48 0f bf c0          	movswq %ax,%rax
   1511d:	8b 55 fc             	mov    -0x4(%rbp),%edx
   15120:	48 8d 35 c3 2e 00 00 	lea    0x2ec3(%rip),%rsi        # 17fea <g_2389+0xf22>
   15127:	48 89 c7             	mov    %rax,%rdi
   1512a:	e8 c4 15 ff ff       	callq  66f3 <transparent_crc>
   1512f:	c7 45 f0 00 00 00 00 	movl   $0x0,-0x10(%rbp)
   15136:	eb 77                	jmp    151af <main+0xdf3>
   15138:	c7 45 f4 00 00 00 00 	movl   $0x0,-0xc(%rbp)
   1513f:	eb 64                	jmp    151a5 <main+0xde9>
   15141:	8b 45 f4             	mov    -0xc(%rbp),%eax
   15144:	48 63 c8             	movslq %eax,%rcx
   15147:	8b 45 f0             	mov    -0x10(%rbp),%eax
   1514a:	48 63 d0             	movslq %eax,%rdx
   1514d:	48 89 d0             	mov    %rdx,%rax
   15150:	48 c1 e0 02          	shl    $0x2,%rax
   15154:	48 01 d0             	add    %rdx,%rax
   15157:	48 01 c0             	add    %rax,%rax
   1515a:	48 01 c8             	add    %rcx,%rax
   1515d:	48 8d 14 c5 00 00 00 	lea    0x0(,%rax,8),%rdx
   15164:	00 
   15165:	48 8d 05 14 68 00 00 	lea    0x6814(%rip),%rax        # 1b980 <g_1108>
   1516c:	48 8b 04 02          	mov    (%rdx,%rax,1),%rax
   15170:	8b 55 fc             	mov    -0x4(%rbp),%edx
   15173:	48 8d 35 7a 2e 00 00 	lea    0x2e7a(%rip),%rsi        # 17ff4 <g_2389+0xf2c>
   1517a:	48 89 c7             	mov    %rax,%rdi
   1517d:	e8 71 15 ff ff       	callq  66f3 <transparent_crc>
   15182:	83 7d fc 00          	cmpl   $0x0,-0x4(%rbp)
   15186:	74 19                	je     151a1 <main+0xde5>
   15188:	8b 55 f4             	mov    -0xc(%rbp),%edx
   1518b:	8b 45 f0             	mov    -0x10(%rbp),%eax
   1518e:	89 c6                	mov    %eax,%esi
   15190:	48 8d 3d 6a 2e 00 00 	lea    0x2e6a(%rip),%rdi        # 18001 <g_2389+0xf39>
   15197:	b8 00 00 00 00       	mov    $0x0,%eax
   1519c:	e8 df fe fe ff       	callq  5080 <printf@plt>
   151a1:	83 45 f4 01          	addl   $0x1,-0xc(%rbp)
   151a5:	83 7d f4 09          	cmpl   $0x9,-0xc(%rbp)
   151a9:	7e 96                	jle    15141 <main+0xd85>
   151ab:	83 45 f0 01          	addl   $0x1,-0x10(%rbp)
   151af:	83 7d f0 07          	cmpl   $0x7,-0x10(%rbp)
   151b3:	7e 83                	jle    15138 <main+0xd7c>
   151b5:	8b 05 45 6a 00 00    	mov    0x6a45(%rip),%eax        # 1bc00 <g_1138>
   151bb:	89 c1                	mov    %eax,%ecx
   151bd:	8b 45 fc             	mov    -0x4(%rbp),%eax
   151c0:	89 c2                	mov    %eax,%edx
   151c2:	48 8d 35 4a 2e 00 00 	lea    0x2e4a(%rip),%rsi        # 18013 <g_2389+0xf4b>
   151c9:	48 89 cf             	mov    %rcx,%rdi
   151cc:	e8 22 15 ff ff       	callq  66f3 <transparent_crc>
   151d1:	48 8b 05 48 6a 00 00 	mov    0x6a48(%rip),%rax        # 1bc20 <g_1197>
   151d8:	c1 e0 07             	shl    $0x7,%eax
   151db:	c1 f8 07             	sar    $0x7,%eax
   151de:	48 98                	cltq   
   151e0:	8b 55 fc             	mov    -0x4(%rbp),%edx
   151e3:	48 8d 35 30 2e 00 00 	lea    0x2e30(%rip),%rsi        # 1801a <g_2389+0xf52>
   151ea:	48 89 c7             	mov    %rax,%rdi
   151ed:	e8 01 15 ff ff       	callq  66f3 <transparent_crc>
   151f2:	0f b6 05 2b 6a 00 00 	movzbl 0x6a2b(%rip),%eax        # 1bc24 <g_1197+0x4>
   151f9:	0f b6 c0             	movzbl %al,%eax
   151fc:	8b 55 fc             	mov    -0x4(%rbp),%edx
   151ff:	48 8d 35 1e 2e 00 00 	lea    0x2e1e(%rip),%rsi        # 18024 <g_2389+0xf5c>
   15206:	48 89 c7             	mov    %rax,%rdi
   15209:	e8 e5 14 ff ff       	callq  66f3 <transparent_crc>
   1520e:	48 8b 05 0b 6a 00 00 	mov    0x6a0b(%rip),%rax        # 1bc20 <g_1197>
   15215:	48 c1 e8 28          	shr    $0x28,%rax
   15219:	25 ff ff 03 00       	and    $0x3ffff,%eax
   1521e:	89 c1                	mov    %eax,%ecx
   15220:	8b 45 fc             	mov    -0x4(%rbp),%eax
   15223:	89 c2                	mov    %eax,%edx
   15225:	48 8d 35 02 2e 00 00 	lea    0x2e02(%rip),%rsi        # 1802e <g_2389+0xf66>
   1522c:	48 89 cf             	mov    %rcx,%rdi
   1522f:	e8 bf 14 ff ff       	callq  66f3 <transparent_crc>
   15234:	48 8b 05 e5 69 00 00 	mov    0x69e5(%rip),%rax        # 1bc20 <g_1197>
   1523b:	48 c1 e8 3a          	shr    $0x3a,%rax
   1523f:	48 89 c2             	mov    %rax,%rdx
   15242:	48 8b 05 df 69 00 00 	mov    0x69df(%rip),%rax        # 1bc28 <g_1197+0x8>
   15249:	83 e0 3f             	and    $0x3f,%eax
   1524c:	48 c1 e0 06          	shl    $0x6,%rax
   15250:	48 09 d0             	or     %rdx,%rax
   15253:	0f b7 c0             	movzwl %ax,%eax
   15256:	8b 55 fc             	mov    -0x4(%rbp),%edx
   15259:	48 8d 35 d8 2d 00 00 	lea    0x2dd8(%rip),%rsi        # 18038 <g_2389+0xf70>
   15260:	48 89 c7             	mov    %rax,%rdi
   15263:	e8 8b 14 ff ff       	callq  66f3 <transparent_crc>
   15268:	0f b6 05 ba 69 00 00 	movzbl 0x69ba(%rip),%eax        # 1bc29 <g_1197+0x9>
   1526f:	0f b6 c0             	movzbl %al,%eax
   15272:	8b 55 fc             	mov    -0x4(%rbp),%edx
   15275:	48 8d 35 c6 2d 00 00 	lea    0x2dc6(%rip),%rsi        # 18042 <g_2389+0xf7a>
   1527c:	48 89 c7             	mov    %rax,%rdi
   1527f:	e8 6f 14 ff ff       	callq  66f3 <transparent_crc>
   15284:	8b 05 a0 69 00 00    	mov    0x69a0(%rip),%eax        # 1bc2a <g_1197+0xa>
   1528a:	89 c1                	mov    %eax,%ecx
   1528c:	8b 45 fc             	mov    -0x4(%rbp),%eax
   1528f:	89 c2                	mov    %eax,%edx
   15291:	48 8d 35 b4 2d 00 00 	lea    0x2db4(%rip),%rsi        # 1804c <g_2389+0xf84>
   15298:	48 89 cf             	mov    %rcx,%rdi
   1529b:	e8 53 14 ff ff       	callq  66f3 <transparent_crc>
   152a0:	48 8b 05 87 69 00 00 	mov    0x6987(%rip),%rax        # 1bc2e <g_1197+0xe>
   152a7:	48 89 c1             	mov    %rax,%rcx
   152aa:	8b 45 fc             	mov    -0x4(%rbp),%eax
   152ad:	89 c2                	mov    %eax,%edx
   152af:	48 8d 35 a0 2d 00 00 	lea    0x2da0(%rip),%rsi        # 18056 <g_2389+0xf8e>
   152b6:	48 89 cf             	mov    %rcx,%rdi
   152b9:	e8 35 14 ff ff       	callq  66f3 <transparent_crc>
   152be:	48 8b 05 71 69 00 00 	mov    0x6971(%rip),%rax        # 1bc36 <g_1197+0x16>
   152c5:	48 89 c1             	mov    %rax,%rcx
   152c8:	8b 45 fc             	mov    -0x4(%rbp),%eax
   152cb:	89 c2                	mov    %eax,%edx
   152cd:	48 8d 35 8c 2d 00 00 	lea    0x2d8c(%rip),%rsi        # 18060 <g_2389+0xf98>
   152d4:	48 89 cf             	mov    %rcx,%rdi
   152d7:	e8 17 14 ff ff       	callq  66f3 <transparent_crc>
   152dc:	48 8b 05 5b 69 00 00 	mov    0x695b(%rip),%rax        # 1bc3e <g_1197+0x1e>
   152e3:	8b 55 fc             	mov    -0x4(%rbp),%edx
   152e6:	48 8d 35 7d 2d 00 00 	lea    0x2d7d(%rip),%rsi        # 1806a <g_2389+0xfa2>
   152ed:	48 89 c7             	mov    %rax,%rdi
   152f0:	e8 fe 13 ff ff       	callq  66f3 <transparent_crc>
   152f5:	0f b7 05 4a 69 00 00 	movzwl 0x694a(%rip),%eax        # 1bc46 <g_1197+0x26>
   152fc:	48 0f bf c0          	movswq %ax,%rax
   15300:	8b 55 fc             	mov    -0x4(%rbp),%edx
   15303:	48 8d 35 6a 2d 00 00 	lea    0x2d6a(%rip),%rsi        # 18074 <g_2389+0xfac>
   1530a:	48 89 c7             	mov    %rax,%rdi
   1530d:	e8 e1 13 ff ff       	callq  66f3 <transparent_crc>
   15312:	8b 05 48 69 00 00    	mov    0x6948(%rip),%eax        # 1bc60 <g_1212>
   15318:	c1 e0 07             	shl    $0x7,%eax
   1531b:	c1 f8 07             	sar    $0x7,%eax
   1531e:	48 98                	cltq   
   15320:	8b 55 fc             	mov    -0x4(%rbp),%edx
   15323:	48 8d 35 54 2d 00 00 	lea    0x2d54(%rip),%rsi        # 1807e <g_2389+0xfb6>
   1532a:	48 89 c7             	mov    %rax,%rdi
   1532d:	e8 c1 13 ff ff       	callq  66f3 <transparent_crc>
   15332:	0f b6 05 2b 69 00 00 	movzbl 0x692b(%rip),%eax        # 1bc64 <g_1212+0x4>
   15339:	0f b6 c0             	movzbl %al,%eax
   1533c:	8b 55 fc             	mov    -0x4(%rbp),%edx
   1533f:	48 8d 35 42 2d 00 00 	lea    0x2d42(%rip),%rsi        # 18088 <g_2389+0xfc0>
   15346:	48 89 c7             	mov    %rax,%rdi
   15349:	e8 a5 13 ff ff       	callq  66f3 <transparent_crc>
   1534e:	48 8b 05 0b 69 00 00 	mov    0x690b(%rip),%rax        # 1bc60 <g_1212>
   15355:	48 c1 e8 28          	shr    $0x28,%rax
   15359:	25 ff ff 03 00       	and    $0x3ffff,%eax
   1535e:	89 c1                	mov    %eax,%ecx
   15360:	8b 45 fc             	mov    -0x4(%rbp),%eax
   15363:	89 c2                	mov    %eax,%edx
   15365:	48 8d 35 26 2d 00 00 	lea    0x2d26(%rip),%rsi        # 18092 <g_2389+0xfca>
   1536c:	48 89 cf             	mov    %rcx,%rdi
   1536f:	e8 7f 13 ff ff       	callq  66f3 <transparent_crc>
   15374:	48 8b 05 e5 68 00 00 	mov    0x68e5(%rip),%rax        # 1bc60 <g_1212>
   1537b:	48 c1 e8 3a          	shr    $0x3a,%rax
   1537f:	48 89 c2             	mov    %rax,%rdx
   15382:	48 8b 05 df 68 00 00 	mov    0x68df(%rip),%rax        # 1bc68 <g_1212+0x8>
   15389:	83 e0 3f             	and    $0x3f,%eax
   1538c:	48 c1 e0 06          	shl    $0x6,%rax
   15390:	48 09 d0             	or     %rdx,%rax
   15393:	0f b7 c0             	movzwl %ax,%eax
   15396:	8b 55 fc             	mov    -0x4(%rbp),%edx
   15399:	48 8d 35 fc 2c 00 00 	lea    0x2cfc(%rip),%rsi        # 1809c <g_2389+0xfd4>
   153a0:	48 89 c7             	mov    %rax,%rdi
   153a3:	e8 4b 13 ff ff       	callq  66f3 <transparent_crc>
   153a8:	0f b6 05 ba 68 00 00 	movzbl 0x68ba(%rip),%eax        # 1bc69 <g_1212+0x9>
   153af:	0f b6 c0             	movzbl %al,%eax
   153b2:	8b 55 fc             	mov    -0x4(%rbp),%edx
   153b5:	48 8d 35 ea 2c 00 00 	lea    0x2cea(%rip),%rsi        # 180a6 <g_2389+0xfde>
   153bc:	48 89 c7             	mov    %rax,%rdi
   153bf:	e8 2f 13 ff ff       	callq  66f3 <transparent_crc>
   153c4:	8b 05 a0 68 00 00    	mov    0x68a0(%rip),%eax        # 1bc6a <g_1212+0xa>
   153ca:	89 c1                	mov    %eax,%ecx
   153cc:	8b 45 fc             	mov    -0x4(%rbp),%eax
   153cf:	89 c2                	mov    %eax,%edx
   153d1:	48 8d 35 d8 2c 00 00 	lea    0x2cd8(%rip),%rsi        # 180b0 <g_2389+0xfe8>
   153d8:	48 89 cf             	mov    %rcx,%rdi
   153db:	e8 13 13 ff ff       	callq  66f3 <transparent_crc>
   153e0:	48 8b 05 87 68 00 00 	mov    0x6887(%rip),%rax        # 1bc6e <g_1212+0xe>
   153e7:	48 89 c1             	mov    %rax,%rcx
   153ea:	8b 45 fc             	mov    -0x4(%rbp),%eax
   153ed:	89 c2                	mov    %eax,%edx
   153ef:	48 8d 35 c4 2c 00 00 	lea    0x2cc4(%rip),%rsi        # 180ba <g_2389+0xff2>
   153f6:	48 89 cf             	mov    %rcx,%rdi
   153f9:	e8 f5 12 ff ff       	callq  66f3 <transparent_crc>
   153fe:	48 8b 05 71 68 00 00 	mov    0x6871(%rip),%rax        # 1bc76 <g_1212+0x16>
   15405:	48 89 c1             	mov    %rax,%rcx
   15408:	8b 45 fc             	mov    -0x4(%rbp),%eax
   1540b:	89 c2                	mov    %eax,%edx
   1540d:	48 8d 35 b0 2c 00 00 	lea    0x2cb0(%rip),%rsi        # 180c4 <g_2389+0xffc>
   15414:	48 89 cf             	mov    %rcx,%rdi
   15417:	e8 d7 12 ff ff       	callq  66f3 <transparent_crc>
   1541c:	48 8b 05 5b 68 00 00 	mov    0x685b(%rip),%rax        # 1bc7e <g_1212+0x1e>
   15423:	8b 55 fc             	mov    -0x4(%rbp),%edx
   15426:	48 8d 35 a1 2c 00 00 	lea    0x2ca1(%rip),%rsi        # 180ce <g_2389+0x1006>
   1542d:	48 89 c7             	mov    %rax,%rdi
   15430:	e8 be 12 ff ff       	callq  66f3 <transparent_crc>
   15435:	0f b7 05 4a 68 00 00 	movzwl 0x684a(%rip),%eax        # 1bc86 <g_1212+0x26>
   1543c:	48 0f bf c0          	movswq %ax,%rax
   15440:	8b 55 fc             	mov    -0x4(%rbp),%edx
   15443:	48 8d 35 8e 2c 00 00 	lea    0x2c8e(%rip),%rsi        # 180d8 <g_2389+0x1010>
   1544a:	48 89 c7             	mov    %rax,%rdi
   1544d:	e8 a1 12 ff ff       	callq  66f3 <transparent_crc>
   15452:	8b 05 30 68 00 00    	mov    0x6830(%rip),%eax        # 1bc88 <g_1310>
   15458:	48 98                	cltq   
   1545a:	8b 55 fc             	mov    -0x4(%rbp),%edx
   1545d:	48 8d 35 7e 2c 00 00 	lea    0x2c7e(%rip),%rsi        # 180e2 <g_2389+0x101a>
   15464:	48 89 c7             	mov    %rax,%rdi
   15467:	e8 87 12 ff ff       	callq  66f3 <transparent_crc>
   1546c:	8b 05 2e 68 00 00    	mov    0x682e(%rip),%eax        # 1bca0 <g_1311>
   15472:	c1 e0 07             	shl    $0x7,%eax
   15475:	c1 f8 07             	sar    $0x7,%eax
   15478:	48 98                	cltq   
   1547a:	8b 55 fc             	mov    -0x4(%rbp),%edx
   1547d:	48 8d 35 65 2c 00 00 	lea    0x2c65(%rip),%rsi        # 180e9 <g_2389+0x1021>
   15484:	48 89 c7             	mov    %rax,%rdi
   15487:	e8 67 12 ff ff       	callq  66f3 <transparent_crc>
   1548c:	0f b6 05 11 68 00 00 	movzbl 0x6811(%rip),%eax        # 1bca4 <g_1311+0x4>
   15493:	0f b6 c0             	movzbl %al,%eax
   15496:	8b 55 fc             	mov    -0x4(%rbp),%edx
   15499:	48 8d 35 53 2c 00 00 	lea    0x2c53(%rip),%rsi        # 180f3 <g_2389+0x102b>
   154a0:	48 89 c7             	mov    %rax,%rdi
   154a3:	e8 4b 12 ff ff       	callq  66f3 <transparent_crc>
   154a8:	48 8b 05 f1 67 00 00 	mov    0x67f1(%rip),%rax        # 1bca0 <g_1311>
   154af:	48 c1 e8 28          	shr    $0x28,%rax
   154b3:	25 ff ff 03 00       	and    $0x3ffff,%eax
   154b8:	89 c1                	mov    %eax,%ecx
   154ba:	8b 45 fc             	mov    -0x4(%rbp),%eax
   154bd:	89 c2                	mov    %eax,%edx
   154bf:	48 8d 35 37 2c 00 00 	lea    0x2c37(%rip),%rsi        # 180fd <g_2389+0x1035>
   154c6:	48 89 cf             	mov    %rcx,%rdi
   154c9:	e8 25 12 ff ff       	callq  66f3 <transparent_crc>
   154ce:	48 8b 05 cb 67 00 00 	mov    0x67cb(%rip),%rax        # 1bca0 <g_1311>
   154d5:	48 c1 e8 3a          	shr    $0x3a,%rax
   154d9:	48 89 c2             	mov    %rax,%rdx
   154dc:	48 8b 05 c5 67 00 00 	mov    0x67c5(%rip),%rax        # 1bca8 <g_1311+0x8>
   154e3:	83 e0 3f             	and    $0x3f,%eax
   154e6:	48 c1 e0 06          	shl    $0x6,%rax
   154ea:	48 09 d0             	or     %rdx,%rax
   154ed:	0f b7 c0             	movzwl %ax,%eax
   154f0:	8b 55 fc             	mov    -0x4(%rbp),%edx
   154f3:	48 8d 35 0d 2c 00 00 	lea    0x2c0d(%rip),%rsi        # 18107 <g_2389+0x103f>
   154fa:	48 89 c7             	mov    %rax,%rdi
   154fd:	e8 f1 11 ff ff       	callq  66f3 <transparent_crc>
   15502:	0f b6 05 a0 67 00 00 	movzbl 0x67a0(%rip),%eax        # 1bca9 <g_1311+0x9>
   15509:	0f b6 c0             	movzbl %al,%eax
   1550c:	8b 55 fc             	mov    -0x4(%rbp),%edx
   1550f:	48 8d 35 fb 2b 00 00 	lea    0x2bfb(%rip),%rsi        # 18111 <g_2389+0x1049>
   15516:	48 89 c7             	mov    %rax,%rdi
   15519:	e8 d5 11 ff ff       	callq  66f3 <transparent_crc>
   1551e:	8b 05 86 67 00 00    	mov    0x6786(%rip),%eax        # 1bcaa <g_1311+0xa>
   15524:	89 c1                	mov    %eax,%ecx
   15526:	8b 45 fc             	mov    -0x4(%rbp),%eax
   15529:	89 c2                	mov    %eax,%edx
   1552b:	48 8d 35 e9 2b 00 00 	lea    0x2be9(%rip),%rsi        # 1811b <g_2389+0x1053>
   15532:	48 89 cf             	mov    %rcx,%rdi
   15535:	e8 b9 11 ff ff       	callq  66f3 <transparent_crc>
   1553a:	48 8b 05 6d 67 00 00 	mov    0x676d(%rip),%rax        # 1bcae <g_1311+0xe>
   15541:	48 89 c1             	mov    %rax,%rcx
   15544:	8b 45 fc             	mov    -0x4(%rbp),%eax
   15547:	89 c2                	mov    %eax,%edx
   15549:	48 8d 35 d5 2b 00 00 	lea    0x2bd5(%rip),%rsi        # 18125 <g_2389+0x105d>
   15550:	48 89 cf             	mov    %rcx,%rdi
   15553:	e8 9b 11 ff ff       	callq  66f3 <transparent_crc>
   15558:	48 8b 05 57 67 00 00 	mov    0x6757(%rip),%rax        # 1bcb6 <g_1311+0x16>
   1555f:	48 89 c1             	mov    %rax,%rcx
   15562:	8b 45 fc             	mov    -0x4(%rbp),%eax
   15565:	89 c2                	mov    %eax,%edx
   15567:	48 8d 35 c1 2b 00 00 	lea    0x2bc1(%rip),%rsi        # 1812f <g_2389+0x1067>
   1556e:	48 89 cf             	mov    %rcx,%rdi
   15571:	e8 7d 11 ff ff       	callq  66f3 <transparent_crc>
   15576:	48 8b 05 41 67 00 00 	mov    0x6741(%rip),%rax        # 1bcbe <g_1311+0x1e>
   1557d:	8b 55 fc             	mov    -0x4(%rbp),%edx
   15580:	48 8d 35 b2 2b 00 00 	lea    0x2bb2(%rip),%rsi        # 18139 <g_2389+0x1071>
   15587:	48 89 c7             	mov    %rax,%rdi
   1558a:	e8 64 11 ff ff       	callq  66f3 <transparent_crc>
   1558f:	0f b7 05 30 67 00 00 	movzwl 0x6730(%rip),%eax        # 1bcc6 <g_1311+0x26>
   15596:	48 0f bf c0          	movswq %ax,%rax
   1559a:	8b 55 fc             	mov    -0x4(%rbp),%edx
   1559d:	48 8d 35 9f 2b 00 00 	lea    0x2b9f(%rip),%rsi        # 18143 <g_2389+0x107b>
   155a4:	48 89 c7             	mov    %rax,%rdi
   155a7:	e8 47 11 ff ff       	callq  66f3 <transparent_crc>
   155ac:	c7 45 f0 00 00 00 00 	movl   $0x0,-0x10(%rbp)
   155b3:	eb 4b                	jmp    15600 <main+0x1244>
   155b5:	8b 45 f0             	mov    -0x10(%rbp),%eax
   155b8:	48 98                	cltq   
   155ba:	48 8d 14 85 00 00 00 	lea    0x0(,%rax,4),%rdx
   155c1:	00 
   155c2:	48 8d 05 a7 8a 00 00 	lea    0x8aa7(%rip),%rax        # 1e070 <g_1413>
   155c9:	8b 04 02             	mov    (%rdx,%rax,1),%eax
   155cc:	48 98                	cltq   
   155ce:	8b 55 fc             	mov    -0x4(%rbp),%edx
   155d1:	48 8d 35 75 2b 00 00 	lea    0x2b75(%rip),%rsi        # 1814d <g_2389+0x1085>
   155d8:	48 89 c7             	mov    %rax,%rdi
   155db:	e8 13 11 ff ff       	callq  66f3 <transparent_crc>
   155e0:	83 7d fc 00          	cmpl   $0x0,-0x4(%rbp)
   155e4:	74 16                	je     155fc <main+0x1240>
   155e6:	8b 45 f0             	mov    -0x10(%rbp),%eax
   155e9:	89 c6                	mov    %eax,%esi
   155eb:	48 8d 3d 8f 27 00 00 	lea    0x278f(%rip),%rdi        # 17d81 <g_2389+0xcb9>
   155f2:	b8 00 00 00 00       	mov    $0x0,%eax
   155f7:	e8 84 fa fe ff       	callq  5080 <printf@plt>
   155fc:	83 45 f0 01          	addl   $0x1,-0x10(%rbp)
   15600:	83 7d f0 04          	cmpl   $0x4,-0x10(%rbp)
   15604:	7e af                	jle    155b5 <main+0x11f9>
   15606:	0f b6 05 77 8a 00 00 	movzbl 0x8a77(%rip),%eax        # 1e084 <g_1440>
   1560d:	48 0f be c0          	movsbq %al,%rax
   15611:	8b 55 fc             	mov    -0x4(%rbp),%edx
   15614:	48 8d 35 3c 2b 00 00 	lea    0x2b3c(%rip),%rsi        # 18157 <g_2389+0x108f>
   1561b:	48 89 c7             	mov    %rax,%rdi
   1561e:	e8 d0 10 ff ff       	callq  66f3 <transparent_crc>
   15623:	0f b7 05 9e 66 00 00 	movzwl 0x669e(%rip),%eax        # 1bcc8 <g_1464>
   1562a:	48 0f bf c0          	movswq %ax,%rax
   1562e:	8b 55 fc             	mov    -0x4(%rbp),%edx
   15631:	48 8d 35 26 2b 00 00 	lea    0x2b26(%rip),%rsi        # 1815e <g_2389+0x1096>
   15638:	48 89 c7             	mov    %rax,%rdi
   1563b:	e8 b3 10 ff ff       	callq  66f3 <transparent_crc>
   15640:	8b 05 9a 66 00 00    	mov    0x669a(%rip),%eax        # 1bce0 <g_1512>
   15646:	c1 e0 07             	shl    $0x7,%eax
   15649:	c1 f8 07             	sar    $0x7,%eax
   1564c:	48 98                	cltq   
   1564e:	8b 55 fc             	mov    -0x4(%rbp),%edx
   15651:	48 8d 35 0d 2b 00 00 	lea    0x2b0d(%rip),%rsi        # 18165 <g_2389+0x109d>
   15658:	48 89 c7             	mov    %rax,%rdi
   1565b:	e8 93 10 ff ff       	callq  66f3 <transparent_crc>
   15660:	0f b6 05 7d 66 00 00 	movzbl 0x667d(%rip),%eax        # 1bce4 <g_1512+0x4>
   15667:	0f b6 c0             	movzbl %al,%eax
   1566a:	8b 55 fc             	mov    -0x4(%rbp),%edx
   1566d:	48 8d 35 fb 2a 00 00 	lea    0x2afb(%rip),%rsi        # 1816f <g_2389+0x10a7>
   15674:	48 89 c7             	mov    %rax,%rdi
   15677:	e8 77 10 ff ff       	callq  66f3 <transparent_crc>
   1567c:	48 8b 05 5d 66 00 00 	mov    0x665d(%rip),%rax        # 1bce0 <g_1512>
   15683:	48 c1 e8 28          	shr    $0x28,%rax
   15687:	25 ff ff 03 00       	and    $0x3ffff,%eax
   1568c:	89 c1                	mov    %eax,%ecx
   1568e:	8b 45 fc             	mov    -0x4(%rbp),%eax
   15691:	89 c2                	mov    %eax,%edx
   15693:	48 8d 35 df 2a 00 00 	lea    0x2adf(%rip),%rsi        # 18179 <g_2389+0x10b1>
   1569a:	48 89 cf             	mov    %rcx,%rdi
   1569d:	e8 51 10 ff ff       	callq  66f3 <transparent_crc>
   156a2:	48 8b 05 37 66 00 00 	mov    0x6637(%rip),%rax        # 1bce0 <g_1512>
   156a9:	48 c1 e8 3a          	shr    $0x3a,%rax
   156ad:	48 89 c2             	mov    %rax,%rdx
   156b0:	48 8b 05 31 66 00 00 	mov    0x6631(%rip),%rax        # 1bce8 <g_1512+0x8>
   156b7:	83 e0 3f             	and    $0x3f,%eax
   156ba:	48 c1 e0 06          	shl    $0x6,%rax
   156be:	48 09 d0             	or     %rdx,%rax
   156c1:	0f b7 c0             	movzwl %ax,%eax
   156c4:	8b 55 fc             	mov    -0x4(%rbp),%edx
   156c7:	48 8d 35 b5 2a 00 00 	lea    0x2ab5(%rip),%rsi        # 18183 <g_2389+0x10bb>
   156ce:	48 89 c7             	mov    %rax,%rdi
   156d1:	e8 1d 10 ff ff       	callq  66f3 <transparent_crc>
   156d6:	0f b6 05 0c 66 00 00 	movzbl 0x660c(%rip),%eax        # 1bce9 <g_1512+0x9>
   156dd:	0f b6 c0             	movzbl %al,%eax
   156e0:	8b 55 fc             	mov    -0x4(%rbp),%edx
   156e3:	48 8d 35 a3 2a 00 00 	lea    0x2aa3(%rip),%rsi        # 1818d <g_2389+0x10c5>
   156ea:	48 89 c7             	mov    %rax,%rdi
   156ed:	e8 01 10 ff ff       	callq  66f3 <transparent_crc>
   156f2:	8b 05 f2 65 00 00    	mov    0x65f2(%rip),%eax        # 1bcea <g_1512+0xa>
   156f8:	89 c1                	mov    %eax,%ecx
   156fa:	8b 45 fc             	mov    -0x4(%rbp),%eax
   156fd:	89 c2                	mov    %eax,%edx
   156ff:	48 8d 35 91 2a 00 00 	lea    0x2a91(%rip),%rsi        # 18197 <g_2389+0x10cf>
   15706:	48 89 cf             	mov    %rcx,%rdi
   15709:	e8 e5 0f ff ff       	callq  66f3 <transparent_crc>
   1570e:	48 8b 05 d9 65 00 00 	mov    0x65d9(%rip),%rax        # 1bcee <g_1512+0xe>
   15715:	48 89 c1             	mov    %rax,%rcx
   15718:	8b 45 fc             	mov    -0x4(%rbp),%eax
   1571b:	89 c2                	mov    %eax,%edx
   1571d:	48 8d 35 7d 2a 00 00 	lea    0x2a7d(%rip),%rsi        # 181a1 <g_2389+0x10d9>
   15724:	48 89 cf             	mov    %rcx,%rdi
   15727:	e8 c7 0f ff ff       	callq  66f3 <transparent_crc>
   1572c:	48 8b 05 c3 65 00 00 	mov    0x65c3(%rip),%rax        # 1bcf6 <g_1512+0x16>
   15733:	48 89 c1             	mov    %rax,%rcx
   15736:	8b 45 fc             	mov    -0x4(%rbp),%eax
   15739:	89 c2                	mov    %eax,%edx
   1573b:	48 8d 35 69 2a 00 00 	lea    0x2a69(%rip),%rsi        # 181ab <g_2389+0x10e3>
   15742:	48 89 cf             	mov    %rcx,%rdi
   15745:	e8 a9 0f ff ff       	callq  66f3 <transparent_crc>
   1574a:	48 8b 05 ad 65 00 00 	mov    0x65ad(%rip),%rax        # 1bcfe <g_1512+0x1e>
   15751:	8b 55 fc             	mov    -0x4(%rbp),%edx
   15754:	48 8d 35 5a 2a 00 00 	lea    0x2a5a(%rip),%rsi        # 181b5 <g_2389+0x10ed>
   1575b:	48 89 c7             	mov    %rax,%rdi
   1575e:	e8 90 0f ff ff       	callq  66f3 <transparent_crc>
   15763:	0f b7 05 9c 65 00 00 	movzwl 0x659c(%rip),%eax        # 1bd06 <g_1512+0x26>
   1576a:	48 0f bf c0          	movswq %ax,%rax
   1576e:	8b 55 fc             	mov    -0x4(%rbp),%edx
   15771:	48 8d 35 47 2a 00 00 	lea    0x2a47(%rip),%rsi        # 181bf <g_2389+0x10f7>
   15778:	48 89 c7             	mov    %rax,%rdi
   1577b:	e8 73 0f ff ff       	callq  66f3 <transparent_crc>
   15780:	8b 05 9a 65 00 00    	mov    0x659a(%rip),%eax        # 1bd20 <g_1563>
   15786:	c1 e0 07             	shl    $0x7,%eax
   15789:	c1 f8 07             	sar    $0x7,%eax
   1578c:	48 98                	cltq   
   1578e:	8b 55 fc             	mov    -0x4(%rbp),%edx
   15791:	48 8d 35 31 2a 00 00 	lea    0x2a31(%rip),%rsi        # 181c9 <g_2389+0x1101>
   15798:	48 89 c7             	mov    %rax,%rdi
   1579b:	e8 53 0f ff ff       	callq  66f3 <transparent_crc>
   157a0:	0f b6 05 7d 65 00 00 	movzbl 0x657d(%rip),%eax        # 1bd24 <g_1563+0x4>
   157a7:	0f b6 c0             	movzbl %al,%eax
   157aa:	8b 55 fc             	mov    -0x4(%rbp),%edx
   157ad:	48 8d 35 1f 2a 00 00 	lea    0x2a1f(%rip),%rsi        # 181d3 <g_2389+0x110b>
   157b4:	48 89 c7             	mov    %rax,%rdi
   157b7:	e8 37 0f ff ff       	callq  66f3 <transparent_crc>
   157bc:	48 8b 05 5d 65 00 00 	mov    0x655d(%rip),%rax        # 1bd20 <g_1563>
   157c3:	48 c1 e8 28          	shr    $0x28,%rax
   157c7:	25 ff ff 03 00       	and    $0x3ffff,%eax
   157cc:	89 c1                	mov    %eax,%ecx
   157ce:	8b 45 fc             	mov    -0x4(%rbp),%eax
   157d1:	89 c2                	mov    %eax,%edx
   157d3:	48 8d 35 03 2a 00 00 	lea    0x2a03(%rip),%rsi        # 181dd <g_2389+0x1115>
   157da:	48 89 cf             	mov    %rcx,%rdi
   157dd:	e8 11 0f ff ff       	callq  66f3 <transparent_crc>
   157e2:	48 8b 05 37 65 00 00 	mov    0x6537(%rip),%rax        # 1bd20 <g_1563>
   157e9:	48 c1 e8 3a          	shr    $0x3a,%rax
   157ed:	48 89 c2             	mov    %rax,%rdx
   157f0:	48 8b 05 31 65 00 00 	mov    0x6531(%rip),%rax        # 1bd28 <g_1563+0x8>
   157f7:	83 e0 3f             	and    $0x3f,%eax
   157fa:	48 c1 e0 06          	shl    $0x6,%rax
   157fe:	48 09 d0             	or     %rdx,%rax
   15801:	0f b7 c0             	movzwl %ax,%eax
   15804:	8b 55 fc             	mov    -0x4(%rbp),%edx
   15807:	48 8d 35 d9 29 00 00 	lea    0x29d9(%rip),%rsi        # 181e7 <g_2389+0x111f>
   1580e:	48 89 c7             	mov    %rax,%rdi
   15811:	e8 dd 0e ff ff       	callq  66f3 <transparent_crc>
   15816:	0f b6 05 0c 65 00 00 	movzbl 0x650c(%rip),%eax        # 1bd29 <g_1563+0x9>
   1581d:	0f b6 c0             	movzbl %al,%eax
   15820:	8b 55 fc             	mov    -0x4(%rbp),%edx
   15823:	48 8d 35 c7 29 00 00 	lea    0x29c7(%rip),%rsi        # 181f1 <g_2389+0x1129>
   1582a:	48 89 c7             	mov    %rax,%rdi
   1582d:	e8 c1 0e ff ff       	callq  66f3 <transparent_crc>
   15832:	8b 05 f2 64 00 00    	mov    0x64f2(%rip),%eax        # 1bd2a <g_1563+0xa>
   15838:	89 c1                	mov    %eax,%ecx
   1583a:	8b 45 fc             	mov    -0x4(%rbp),%eax
   1583d:	89 c2                	mov    %eax,%edx
   1583f:	48 8d 35 b5 29 00 00 	lea    0x29b5(%rip),%rsi        # 181fb <g_2389+0x1133>
   15846:	48 89 cf             	mov    %rcx,%rdi
   15849:	e8 a5 0e ff ff       	callq  66f3 <transparent_crc>
   1584e:	48 8b 05 d9 64 00 00 	mov    0x64d9(%rip),%rax        # 1bd2e <g_1563+0xe>
   15855:	48 89 c1             	mov    %rax,%rcx
   15858:	8b 45 fc             	mov    -0x4(%rbp),%eax
   1585b:	89 c2                	mov    %eax,%edx
   1585d:	48 8d 35 a1 29 00 00 	lea    0x29a1(%rip),%rsi        # 18205 <g_2389+0x113d>
   15864:	48 89 cf             	mov    %rcx,%rdi
   15867:	e8 87 0e ff ff       	callq  66f3 <transparent_crc>
   1586c:	48 8b 05 c3 64 00 00 	mov    0x64c3(%rip),%rax        # 1bd36 <g_1563+0x16>
   15873:	48 89 c1             	mov    %rax,%rcx
   15876:	8b 45 fc             	mov    -0x4(%rbp),%eax
   15879:	89 c2                	mov    %eax,%edx
   1587b:	48 8d 35 8d 29 00 00 	lea    0x298d(%rip),%rsi        # 1820f <g_2389+0x1147>
   15882:	48 89 cf             	mov    %rcx,%rdi
   15885:	e8 69 0e ff ff       	callq  66f3 <transparent_crc>
   1588a:	48 8b 05 ad 64 00 00 	mov    0x64ad(%rip),%rax        # 1bd3e <g_1563+0x1e>
   15891:	8b 55 fc             	mov    -0x4(%rbp),%edx
   15894:	48 8d 35 7e 29 00 00 	lea    0x297e(%rip),%rsi        # 18219 <g_2389+0x1151>
   1589b:	48 89 c7             	mov    %rax,%rdi
   1589e:	e8 50 0e ff ff       	callq  66f3 <transparent_crc>
   158a3:	0f b7 05 9c 64 00 00 	movzwl 0x649c(%rip),%eax        # 1bd46 <g_1563+0x26>
   158aa:	48 0f bf c0          	movswq %ax,%rax
   158ae:	8b 55 fc             	mov    -0x4(%rbp),%edx
   158b1:	48 8d 35 6b 29 00 00 	lea    0x296b(%rip),%rsi        # 18223 <g_2389+0x115b>
   158b8:	48 89 c7             	mov    %rax,%rdi
   158bb:	e8 33 0e ff ff       	callq  66f3 <transparent_crc>
   158c0:	8b 05 9a 64 00 00    	mov    0x649a(%rip),%eax        # 1bd60 <g_1619>
   158c6:	c1 e0 07             	shl    $0x7,%eax
   158c9:	c1 f8 07             	sar    $0x7,%eax
   158cc:	48 98                	cltq   
   158ce:	8b 55 fc             	mov    -0x4(%rbp),%edx
   158d1:	48 8d 35 55 29 00 00 	lea    0x2955(%rip),%rsi        # 1822d <g_2389+0x1165>
   158d8:	48 89 c7             	mov    %rax,%rdi
   158db:	e8 13 0e ff ff       	callq  66f3 <transparent_crc>
   158e0:	0f b6 05 7d 64 00 00 	movzbl 0x647d(%rip),%eax        # 1bd64 <g_1619+0x4>
   158e7:	0f b6 c0             	movzbl %al,%eax
   158ea:	8b 55 fc             	mov    -0x4(%rbp),%edx
   158ed:	48 8d 35 43 29 00 00 	lea    0x2943(%rip),%rsi        # 18237 <g_2389+0x116f>
   158f4:	48 89 c7             	mov    %rax,%rdi
   158f7:	e8 f7 0d ff ff       	callq  66f3 <transparent_crc>
   158fc:	48 8b 05 5d 64 00 00 	mov    0x645d(%rip),%rax        # 1bd60 <g_1619>
   15903:	48 c1 e8 28          	shr    $0x28,%rax
   15907:	25 ff ff 03 00       	and    $0x3ffff,%eax
   1590c:	89 c1                	mov    %eax,%ecx
   1590e:	8b 45 fc             	mov    -0x4(%rbp),%eax
   15911:	89 c2                	mov    %eax,%edx
   15913:	48 8d 35 27 29 00 00 	lea    0x2927(%rip),%rsi        # 18241 <g_2389+0x1179>
   1591a:	48 89 cf             	mov    %rcx,%rdi
   1591d:	e8 d1 0d ff ff       	callq  66f3 <transparent_crc>
   15922:	48 8b 05 37 64 00 00 	mov    0x6437(%rip),%rax        # 1bd60 <g_1619>
   15929:	48 c1 e8 3a          	shr    $0x3a,%rax
   1592d:	48 89 c2             	mov    %rax,%rdx
   15930:	48 8b 05 31 64 00 00 	mov    0x6431(%rip),%rax        # 1bd68 <g_1619+0x8>
   15937:	83 e0 3f             	and    $0x3f,%eax
   1593a:	48 c1 e0 06          	shl    $0x6,%rax
   1593e:	48 09 d0             	or     %rdx,%rax
   15941:	0f b7 c0             	movzwl %ax,%eax
   15944:	8b 55 fc             	mov    -0x4(%rbp),%edx
   15947:	48 8d 35 fd 28 00 00 	lea    0x28fd(%rip),%rsi        # 1824b <g_2389+0x1183>
   1594e:	48 89 c7             	mov    %rax,%rdi
   15951:	e8 9d 0d ff ff       	callq  66f3 <transparent_crc>
   15956:	0f b6 05 0c 64 00 00 	movzbl 0x640c(%rip),%eax        # 1bd69 <g_1619+0x9>
   1595d:	0f b6 c0             	movzbl %al,%eax
   15960:	8b 55 fc             	mov    -0x4(%rbp),%edx
   15963:	48 8d 35 eb 28 00 00 	lea    0x28eb(%rip),%rsi        # 18255 <g_2389+0x118d>
   1596a:	48 89 c7             	mov    %rax,%rdi
   1596d:	e8 81 0d ff ff       	callq  66f3 <transparent_crc>
   15972:	8b 05 f2 63 00 00    	mov    0x63f2(%rip),%eax        # 1bd6a <g_1619+0xa>
   15978:	89 c1                	mov    %eax,%ecx
   1597a:	8b 45 fc             	mov    -0x4(%rbp),%eax
   1597d:	89 c2                	mov    %eax,%edx
   1597f:	48 8d 35 d9 28 00 00 	lea    0x28d9(%rip),%rsi        # 1825f <g_2389+0x1197>
   15986:	48 89 cf             	mov    %rcx,%rdi
   15989:	e8 65 0d ff ff       	callq  66f3 <transparent_crc>
   1598e:	48 8b 05 d9 63 00 00 	mov    0x63d9(%rip),%rax        # 1bd6e <g_1619+0xe>
   15995:	48 89 c1             	mov    %rax,%rcx
   15998:	8b 45 fc             	mov    -0x4(%rbp),%eax
   1599b:	89 c2                	mov    %eax,%edx
   1599d:	48 8d 35 c5 28 00 00 	lea    0x28c5(%rip),%rsi        # 18269 <g_2389+0x11a1>
   159a4:	48 89 cf             	mov    %rcx,%rdi
   159a7:	e8 47 0d ff ff       	callq  66f3 <transparent_crc>
   159ac:	48 8b 05 c3 63 00 00 	mov    0x63c3(%rip),%rax        # 1bd76 <g_1619+0x16>
   159b3:	48 89 c1             	mov    %rax,%rcx
   159b6:	8b 45 fc             	mov    -0x4(%rbp),%eax
   159b9:	89 c2                	mov    %eax,%edx
   159bb:	48 8d 35 b1 28 00 00 	lea    0x28b1(%rip),%rsi        # 18273 <g_2389+0x11ab>
   159c2:	48 89 cf             	mov    %rcx,%rdi
   159c5:	e8 29 0d ff ff       	callq  66f3 <transparent_crc>
   159ca:	48 8b 05 ad 63 00 00 	mov    0x63ad(%rip),%rax        # 1bd7e <g_1619+0x1e>
   159d1:	8b 55 fc             	mov    -0x4(%rbp),%edx
   159d4:	48 8d 35 a2 28 00 00 	lea    0x28a2(%rip),%rsi        # 1827d <g_2389+0x11b5>
   159db:	48 89 c7             	mov    %rax,%rdi
   159de:	e8 10 0d ff ff       	callq  66f3 <transparent_crc>
   159e3:	0f b7 05 9c 63 00 00 	movzwl 0x639c(%rip),%eax        # 1bd86 <g_1619+0x26>
   159ea:	48 0f bf c0          	movswq %ax,%rax
   159ee:	8b 55 fc             	mov    -0x4(%rbp),%edx
   159f1:	48 8d 35 8f 28 00 00 	lea    0x288f(%rip),%rsi        # 18287 <g_2389+0x11bf>
   159f8:	48 89 c7             	mov    %rax,%rdi
   159fb:	e8 f3 0c ff ff       	callq  66f3 <transparent_crc>
   15a00:	8b 05 82 86 00 00    	mov    0x8682(%rip),%eax        # 1e088 <g_1706>
   15a06:	48 98                	cltq   
   15a08:	8b 55 fc             	mov    -0x4(%rbp),%edx
   15a0b:	48 8d 35 7f 28 00 00 	lea    0x287f(%rip),%rsi        # 18291 <g_2389+0x11c9>
   15a12:	48 89 c7             	mov    %rax,%rdi
   15a15:	e8 d9 0c ff ff       	callq  66f3 <transparent_crc>
   15a1a:	48 8b 05 7f 63 00 00 	mov    0x637f(%rip),%rax        # 1bda0 <g_1817>
   15a21:	c1 e0 07             	shl    $0x7,%eax
   15a24:	c1 f8 07             	sar    $0x7,%eax
   15a27:	48 98                	cltq   
   15a29:	8b 55 fc             	mov    -0x4(%rbp),%edx
   15a2c:	48 8d 35 65 28 00 00 	lea    0x2865(%rip),%rsi        # 18298 <g_2389+0x11d0>
   15a33:	48 89 c7             	mov    %rax,%rdi
   15a36:	e8 b8 0c ff ff       	callq  66f3 <transparent_crc>
   15a3b:	0f b6 05 62 63 00 00 	movzbl 0x6362(%rip),%eax        # 1bda4 <g_1817+0x4>
   15a42:	0f b6 c0             	movzbl %al,%eax
   15a45:	8b 55 fc             	mov    -0x4(%rbp),%edx
   15a48:	48 8d 35 53 28 00 00 	lea    0x2853(%rip),%rsi        # 182a2 <g_2389+0x11da>
   15a4f:	48 89 c7             	mov    %rax,%rdi
   15a52:	e8 9c 0c ff ff       	callq  66f3 <transparent_crc>
   15a57:	48 8b 05 42 63 00 00 	mov    0x6342(%rip),%rax        # 1bda0 <g_1817>
   15a5e:	48 c1 e8 28          	shr    $0x28,%rax
   15a62:	25 ff ff 03 00       	and    $0x3ffff,%eax
   15a67:	89 c1                	mov    %eax,%ecx
   15a69:	8b 45 fc             	mov    -0x4(%rbp),%eax
   15a6c:	89 c2                	mov    %eax,%edx
   15a6e:	48 8d 35 37 28 00 00 	lea    0x2837(%rip),%rsi        # 182ac <g_2389+0x11e4>
   15a75:	48 89 cf             	mov    %rcx,%rdi
   15a78:	e8 76 0c ff ff       	callq  66f3 <transparent_crc>
   15a7d:	48 8b 05 1c 63 00 00 	mov    0x631c(%rip),%rax        # 1bda0 <g_1817>
   15a84:	48 c1 e8 3a          	shr    $0x3a,%rax
   15a88:	48 89 c2             	mov    %rax,%rdx
   15a8b:	48 8b 05 16 63 00 00 	mov    0x6316(%rip),%rax        # 1bda8 <g_1817+0x8>
   15a92:	83 e0 3f             	and    $0x3f,%eax
   15a95:	48 c1 e0 06          	shl    $0x6,%rax
   15a99:	48 09 d0             	or     %rdx,%rax
   15a9c:	0f b7 c0             	movzwl %ax,%eax
   15a9f:	8b 55 fc             	mov    -0x4(%rbp),%edx
   15aa2:	48 8d 35 0d 28 00 00 	lea    0x280d(%rip),%rsi        # 182b6 <g_2389+0x11ee>
   15aa9:	48 89 c7             	mov    %rax,%rdi
   15aac:	e8 42 0c ff ff       	callq  66f3 <transparent_crc>
   15ab1:	0f b6 05 f1 62 00 00 	movzbl 0x62f1(%rip),%eax        # 1bda9 <g_1817+0x9>
   15ab8:	0f b6 c0             	movzbl %al,%eax
   15abb:	8b 55 fc             	mov    -0x4(%rbp),%edx
   15abe:	48 8d 35 fb 27 00 00 	lea    0x27fb(%rip),%rsi        # 182c0 <g_2389+0x11f8>
   15ac5:	48 89 c7             	mov    %rax,%rdi
   15ac8:	e8 26 0c ff ff       	callq  66f3 <transparent_crc>
   15acd:	8b 05 d7 62 00 00    	mov    0x62d7(%rip),%eax        # 1bdaa <g_1817+0xa>
   15ad3:	89 c1                	mov    %eax,%ecx
   15ad5:	8b 45 fc             	mov    -0x4(%rbp),%eax
   15ad8:	89 c2                	mov    %eax,%edx
   15ada:	48 8d 35 e9 27 00 00 	lea    0x27e9(%rip),%rsi        # 182ca <g_2389+0x1202>
   15ae1:	48 89 cf             	mov    %rcx,%rdi
   15ae4:	e8 0a 0c ff ff       	callq  66f3 <transparent_crc>
   15ae9:	48 8b 05 be 62 00 00 	mov    0x62be(%rip),%rax        # 1bdae <g_1817+0xe>
   15af0:	48 89 c1             	mov    %rax,%rcx
   15af3:	8b 45 fc             	mov    -0x4(%rbp),%eax
   15af6:	89 c2                	mov    %eax,%edx
   15af8:	48 8d 35 d5 27 00 00 	lea    0x27d5(%rip),%rsi        # 182d4 <g_2389+0x120c>
   15aff:	48 89 cf             	mov    %rcx,%rdi
   15b02:	e8 ec 0b ff ff       	callq  66f3 <transparent_crc>
   15b07:	48 8b 05 a8 62 00 00 	mov    0x62a8(%rip),%rax        # 1bdb6 <g_1817+0x16>
   15b0e:	48 89 c1             	mov    %rax,%rcx
   15b11:	8b 45 fc             	mov    -0x4(%rbp),%eax
   15b14:	89 c2                	mov    %eax,%edx
   15b16:	48 8d 35 c1 27 00 00 	lea    0x27c1(%rip),%rsi        # 182de <g_2389+0x1216>
   15b1d:	48 89 cf             	mov    %rcx,%rdi
   15b20:	e8 ce 0b ff ff       	callq  66f3 <transparent_crc>
   15b25:	48 8b 05 92 62 00 00 	mov    0x6292(%rip),%rax        # 1bdbe <g_1817+0x1e>
   15b2c:	8b 55 fc             	mov    -0x4(%rbp),%edx
   15b2f:	48 8d 35 b2 27 00 00 	lea    0x27b2(%rip),%rsi        # 182e8 <g_2389+0x1220>
   15b36:	48 89 c7             	mov    %rax,%rdi
   15b39:	e8 b5 0b ff ff       	callq  66f3 <transparent_crc>
   15b3e:	0f b7 05 81 62 00 00 	movzwl 0x6281(%rip),%eax        # 1bdc6 <g_1817+0x26>
   15b45:	48 0f bf c0          	movswq %ax,%rax
   15b49:	8b 55 fc             	mov    -0x4(%rbp),%edx
   15b4c:	48 8d 35 9f 27 00 00 	lea    0x279f(%rip),%rsi        # 182f2 <g_2389+0x122a>
   15b53:	48 89 c7             	mov    %rax,%rdi
   15b56:	e8 98 0b ff ff       	callq  66f3 <transparent_crc>
   15b5b:	8b 05 67 62 00 00    	mov    0x6267(%rip),%eax        # 1bdc8 <g_1825>
   15b61:	48 98                	cltq   
   15b63:	8b 55 fc             	mov    -0x4(%rbp),%edx
   15b66:	48 8d 35 8f 27 00 00 	lea    0x278f(%rip),%rsi        # 182fc <g_2389+0x1234>
   15b6d:	48 89 c7             	mov    %rax,%rdi
   15b70:	e8 7e 0b ff ff       	callq  66f3 <transparent_crc>
   15b75:	c7 45 f0 00 00 00 00 	movl   $0x0,-0x10(%rbp)
   15b7c:	eb 4b                	jmp    15bc9 <main+0x180d>
   15b7e:	8b 45 f0             	mov    -0x10(%rbp),%eax
   15b81:	48 98                	cltq   
   15b83:	48 8d 14 85 00 00 00 	lea    0x0(,%rax,4),%rdx
   15b8a:	00 
   15b8b:	48 8d 05 3e 62 00 00 	lea    0x623e(%rip),%rax        # 1bdd0 <g_2096>
   15b92:	8b 04 02             	mov    (%rdx,%rax,1),%eax
   15b95:	48 98                	cltq   
   15b97:	8b 55 fc             	mov    -0x4(%rbp),%edx
   15b9a:	48 8d 35 62 27 00 00 	lea    0x2762(%rip),%rsi        # 18303 <g_2389+0x123b>
   15ba1:	48 89 c7             	mov    %rax,%rdi
   15ba4:	e8 4a 0b ff ff       	callq  66f3 <transparent_crc>
   15ba9:	83 7d fc 00          	cmpl   $0x0,-0x4(%rbp)
   15bad:	74 16                	je     15bc5 <main+0x1809>
   15baf:	8b 45 f0             	mov    -0x10(%rbp),%eax
   15bb2:	89 c6                	mov    %eax,%esi
   15bb4:	48 8d 3d c6 21 00 00 	lea    0x21c6(%rip),%rdi        # 17d81 <g_2389+0xcb9>
   15bbb:	b8 00 00 00 00       	mov    $0x0,%eax
   15bc0:	e8 bb f4 fe ff       	callq  5080 <printf@plt>
   15bc5:	83 45 f0 01          	addl   $0x1,-0x10(%rbp)
   15bc9:	83 7d f0 03          	cmpl   $0x3,-0x10(%rbp)
   15bcd:	7e af                	jle    15b7e <main+0x17c2>
   15bcf:	48 8b 05 0a 62 00 00 	mov    0x620a(%rip),%rax        # 1bde0 <g_2111>
   15bd6:	c1 e0 07             	shl    $0x7,%eax
   15bd9:	c1 f8 07             	sar    $0x7,%eax
   15bdc:	48 98                	cltq   
   15bde:	8b 55 fc             	mov    -0x4(%rbp),%edx
   15be1:	48 8d 35 25 27 00 00 	lea    0x2725(%rip),%rsi        # 1830d <g_2389+0x1245>
   15be8:	48 89 c7             	mov    %rax,%rdi
   15beb:	e8 03 0b ff ff       	callq  66f3 <transparent_crc>
   15bf0:	0f b6 05 ed 61 00 00 	movzbl 0x61ed(%rip),%eax        # 1bde4 <g_2111+0x4>
   15bf7:	0f b6 c0             	movzbl %al,%eax
   15bfa:	8b 55 fc             	mov    -0x4(%rbp),%edx
   15bfd:	48 8d 35 13 27 00 00 	lea    0x2713(%rip),%rsi        # 18317 <g_2389+0x124f>
   15c04:	48 89 c7             	mov    %rax,%rdi
   15c07:	e8 e7 0a ff ff       	callq  66f3 <transparent_crc>
   15c0c:	48 8b 05 cd 61 00 00 	mov    0x61cd(%rip),%rax        # 1bde0 <g_2111>
   15c13:	48 c1 e8 28          	shr    $0x28,%rax
   15c17:	25 ff ff 03 00       	and    $0x3ffff,%eax
   15c1c:	89 c1                	mov    %eax,%ecx
   15c1e:	8b 45 fc             	mov    -0x4(%rbp),%eax
   15c21:	89 c2                	mov    %eax,%edx
   15c23:	48 8d 35 f7 26 00 00 	lea    0x26f7(%rip),%rsi        # 18321 <g_2389+0x1259>
   15c2a:	48 89 cf             	mov    %rcx,%rdi
   15c2d:	e8 c1 0a ff ff       	callq  66f3 <transparent_crc>
   15c32:	48 8b 05 a7 61 00 00 	mov    0x61a7(%rip),%rax        # 1bde0 <g_2111>
   15c39:	48 c1 e8 3a          	shr    $0x3a,%rax
   15c3d:	48 89 c2             	mov    %rax,%rdx
   15c40:	48 8b 05 a1 61 00 00 	mov    0x61a1(%rip),%rax        # 1bde8 <g_2111+0x8>
   15c47:	83 e0 3f             	and    $0x3f,%eax
   15c4a:	48 c1 e0 06          	shl    $0x6,%rax
   15c4e:	48 09 d0             	or     %rdx,%rax
   15c51:	0f b7 c0             	movzwl %ax,%eax
   15c54:	8b 55 fc             	mov    -0x4(%rbp),%edx
   15c57:	48 8d 35 cd 26 00 00 	lea    0x26cd(%rip),%rsi        # 1832b <g_2389+0x1263>
   15c5e:	48 89 c7             	mov    %rax,%rdi
   15c61:	e8 8d 0a ff ff       	callq  66f3 <transparent_crc>
   15c66:	0f b6 05 7c 61 00 00 	movzbl 0x617c(%rip),%eax        # 1bde9 <g_2111+0x9>
   15c6d:	0f b6 c0             	movzbl %al,%eax
   15c70:	8b 55 fc             	mov    -0x4(%rbp),%edx
   15c73:	48 8d 35 bb 26 00 00 	lea    0x26bb(%rip),%rsi        # 18335 <g_2389+0x126d>
   15c7a:	48 89 c7             	mov    %rax,%rdi
   15c7d:	e8 71 0a ff ff       	callq  66f3 <transparent_crc>
   15c82:	8b 05 62 61 00 00    	mov    0x6162(%rip),%eax        # 1bdea <g_2111+0xa>
   15c88:	89 c1                	mov    %eax,%ecx
   15c8a:	8b 45 fc             	mov    -0x4(%rbp),%eax
   15c8d:	89 c2                	mov    %eax,%edx
   15c8f:	48 8d 35 a9 26 00 00 	lea    0x26a9(%rip),%rsi        # 1833f <g_2389+0x1277>
   15c96:	48 89 cf             	mov    %rcx,%rdi
   15c99:	e8 55 0a ff ff       	callq  66f3 <transparent_crc>
   15c9e:	48 8b 05 49 61 00 00 	mov    0x6149(%rip),%rax        # 1bdee <g_2111+0xe>
   15ca5:	48 89 c1             	mov    %rax,%rcx
   15ca8:	8b 45 fc             	mov    -0x4(%rbp),%eax
   15cab:	89 c2                	mov    %eax,%edx
   15cad:	48 8d 35 95 26 00 00 	lea    0x2695(%rip),%rsi        # 18349 <g_2389+0x1281>
   15cb4:	48 89 cf             	mov    %rcx,%rdi
   15cb7:	e8 37 0a ff ff       	callq  66f3 <transparent_crc>
   15cbc:	48 8b 05 33 61 00 00 	mov    0x6133(%rip),%rax        # 1bdf6 <g_2111+0x16>
   15cc3:	48 89 c1             	mov    %rax,%rcx
   15cc6:	8b 45 fc             	mov    -0x4(%rbp),%eax
   15cc9:	89 c2                	mov    %eax,%edx
   15ccb:	48 8d 35 81 26 00 00 	lea    0x2681(%rip),%rsi        # 18353 <g_2389+0x128b>
   15cd2:	48 89 cf             	mov    %rcx,%rdi
   15cd5:	e8 19 0a ff ff       	callq  66f3 <transparent_crc>
   15cda:	48 8b 05 1d 61 00 00 	mov    0x611d(%rip),%rax        # 1bdfe <g_2111+0x1e>
   15ce1:	8b 55 fc             	mov    -0x4(%rbp),%edx
   15ce4:	48 8d 35 72 26 00 00 	lea    0x2672(%rip),%rsi        # 1835d <g_2389+0x1295>
   15ceb:	48 89 c7             	mov    %rax,%rdi
   15cee:	e8 00 0a ff ff       	callq  66f3 <transparent_crc>
   15cf3:	0f b7 05 0c 61 00 00 	movzwl 0x610c(%rip),%eax        # 1be06 <g_2111+0x26>
   15cfa:	48 0f bf c0          	movswq %ax,%rax
   15cfe:	8b 55 fc             	mov    -0x4(%rbp),%edx
   15d01:	48 8d 35 5f 26 00 00 	lea    0x265f(%rip),%rsi        # 18367 <g_2389+0x129f>
   15d08:	48 89 c7             	mov    %rax,%rdi
   15d0b:	e8 e3 09 ff ff       	callq  66f3 <transparent_crc>
   15d10:	48 8b 05 09 61 00 00 	mov    0x6109(%rip),%rax        # 1be20 <g_2120>
   15d17:	c1 e0 07             	shl    $0x7,%eax
   15d1a:	c1 f8 07             	sar    $0x7,%eax
   15d1d:	48 98                	cltq   
   15d1f:	8b 55 fc             	mov    -0x4(%rbp),%edx
   15d22:	48 8d 35 48 26 00 00 	lea    0x2648(%rip),%rsi        # 18371 <g_2389+0x12a9>
   15d29:	48 89 c7             	mov    %rax,%rdi
   15d2c:	e8 c2 09 ff ff       	callq  66f3 <transparent_crc>
   15d31:	0f b6 05 ec 60 00 00 	movzbl 0x60ec(%rip),%eax        # 1be24 <g_2120+0x4>
   15d38:	0f b6 c0             	movzbl %al,%eax
   15d3b:	8b 55 fc             	mov    -0x4(%rbp),%edx
   15d3e:	48 8d 35 36 26 00 00 	lea    0x2636(%rip),%rsi        # 1837b <g_2389+0x12b3>
   15d45:	48 89 c7             	mov    %rax,%rdi
   15d48:	e8 a6 09 ff ff       	callq  66f3 <transparent_crc>
   15d4d:	48 8b 05 cc 60 00 00 	mov    0x60cc(%rip),%rax        # 1be20 <g_2120>
   15d54:	48 c1 e8 28          	shr    $0x28,%rax
   15d58:	25 ff ff 03 00       	and    $0x3ffff,%eax
   15d5d:	89 c1                	mov    %eax,%ecx
   15d5f:	8b 45 fc             	mov    -0x4(%rbp),%eax
   15d62:	89 c2                	mov    %eax,%edx
   15d64:	48 8d 35 1a 26 00 00 	lea    0x261a(%rip),%rsi        # 18385 <g_2389+0x12bd>
   15d6b:	48 89 cf             	mov    %rcx,%rdi
   15d6e:	e8 80 09 ff ff       	callq  66f3 <transparent_crc>
   15d73:	48 8b 05 a6 60 00 00 	mov    0x60a6(%rip),%rax        # 1be20 <g_2120>
   15d7a:	48 c1 e8 3a          	shr    $0x3a,%rax
   15d7e:	48 89 c2             	mov    %rax,%rdx
   15d81:	48 8b 05 a0 60 00 00 	mov    0x60a0(%rip),%rax        # 1be28 <g_2120+0x8>
   15d88:	83 e0 3f             	and    $0x3f,%eax
   15d8b:	48 c1 e0 06          	shl    $0x6,%rax
   15d8f:	48 09 d0             	or     %rdx,%rax
   15d92:	0f b7 c0             	movzwl %ax,%eax
   15d95:	8b 55 fc             	mov    -0x4(%rbp),%edx
   15d98:	48 8d 35 f0 25 00 00 	lea    0x25f0(%rip),%rsi        # 1838f <g_2389+0x12c7>
   15d9f:	48 89 c7             	mov    %rax,%rdi
   15da2:	e8 4c 09 ff ff       	callq  66f3 <transparent_crc>
   15da7:	0f b6 05 7b 60 00 00 	movzbl 0x607b(%rip),%eax        # 1be29 <g_2120+0x9>
   15dae:	0f b6 c0             	movzbl %al,%eax
   15db1:	8b 55 fc             	mov    -0x4(%rbp),%edx
   15db4:	48 8d 35 de 25 00 00 	lea    0x25de(%rip),%rsi        # 18399 <g_2389+0x12d1>
   15dbb:	48 89 c7             	mov    %rax,%rdi
   15dbe:	e8 30 09 ff ff       	callq  66f3 <transparent_crc>
   15dc3:	8b 05 61 60 00 00    	mov    0x6061(%rip),%eax        # 1be2a <g_2120+0xa>
   15dc9:	89 c1                	mov    %eax,%ecx
   15dcb:	8b 45 fc             	mov    -0x4(%rbp),%eax
   15dce:	89 c2                	mov    %eax,%edx
   15dd0:	48 8d 35 cc 25 00 00 	lea    0x25cc(%rip),%rsi        # 183a3 <g_2389+0x12db>
   15dd7:	48 89 cf             	mov    %rcx,%rdi
   15dda:	e8 14 09 ff ff       	callq  66f3 <transparent_crc>
   15ddf:	48 8b 05 48 60 00 00 	mov    0x6048(%rip),%rax        # 1be2e <g_2120+0xe>
   15de6:	48 89 c1             	mov    %rax,%rcx
   15de9:	8b 45 fc             	mov    -0x4(%rbp),%eax
   15dec:	89 c2                	mov    %eax,%edx
   15dee:	48 8d 35 b8 25 00 00 	lea    0x25b8(%rip),%rsi        # 183ad <g_2389+0x12e5>
   15df5:	48 89 cf             	mov    %rcx,%rdi
   15df8:	e8 f6 08 ff ff       	callq  66f3 <transparent_crc>
   15dfd:	48 8b 05 32 60 00 00 	mov    0x6032(%rip),%rax        # 1be36 <g_2120+0x16>
   15e04:	48 89 c1             	mov    %rax,%rcx
   15e07:	8b 45 fc             	mov    -0x4(%rbp),%eax
   15e0a:	89 c2                	mov    %eax,%edx
   15e0c:	48 8d 35 a4 25 00 00 	lea    0x25a4(%rip),%rsi        # 183b7 <g_2389+0x12ef>
   15e13:	48 89 cf             	mov    %rcx,%rdi
   15e16:	e8 d8 08 ff ff       	callq  66f3 <transparent_crc>
   15e1b:	48 8b 05 1c 60 00 00 	mov    0x601c(%rip),%rax        # 1be3e <g_2120+0x1e>
   15e22:	8b 55 fc             	mov    -0x4(%rbp),%edx
   15e25:	48 8d 35 95 25 00 00 	lea    0x2595(%rip),%rsi        # 183c1 <g_2389+0x12f9>
   15e2c:	48 89 c7             	mov    %rax,%rdi
   15e2f:	e8 bf 08 ff ff       	callq  66f3 <transparent_crc>
   15e34:	0f b7 05 0b 60 00 00 	movzwl 0x600b(%rip),%eax        # 1be46 <g_2120+0x26>
   15e3b:	48 0f bf c0          	movswq %ax,%rax
   15e3f:	8b 55 fc             	mov    -0x4(%rbp),%edx
   15e42:	48 8d 35 82 25 00 00 	lea    0x2582(%rip),%rsi        # 183cb <g_2389+0x1303>
   15e49:	48 89 c7             	mov    %rax,%rdi
   15e4c:	e8 a2 08 ff ff       	callq  66f3 <transparent_crc>
   15e51:	0f b7 05 f0 5f 00 00 	movzwl 0x5ff0(%rip),%eax        # 1be48 <g_2199>
   15e58:	48 0f bf c0          	movswq %ax,%rax
   15e5c:	8b 55 fc             	mov    -0x4(%rbp),%edx
   15e5f:	48 8d 35 6f 25 00 00 	lea    0x256f(%rip),%rsi        # 183d5 <g_2389+0x130d>
   15e66:	48 89 c7             	mov    %rax,%rdi
   15e69:	e8 85 08 ff ff       	callq  66f3 <transparent_crc>
   15e6e:	0f b7 05 d5 5f 00 00 	movzwl 0x5fd5(%rip),%eax        # 1be4a <g_2264>
   15e75:	0f b7 c0             	movzwl %ax,%eax
   15e78:	8b 55 fc             	mov    -0x4(%rbp),%edx
   15e7b:	48 8d 35 5a 25 00 00 	lea    0x255a(%rip),%rsi        # 183dc <g_2389+0x1314>
   15e82:	48 89 c7             	mov    %rax,%rdi
   15e85:	e8 69 08 ff ff       	callq  66f3 <transparent_crc>
   15e8a:	48 8b 05 cf 5f 00 00 	mov    0x5fcf(%rip),%rax        # 1be60 <g_2272>
   15e91:	c1 e0 07             	shl    $0x7,%eax
   15e94:	c1 f8 07             	sar    $0x7,%eax
   15e97:	48 98                	cltq   
   15e99:	8b 55 fc             	mov    -0x4(%rbp),%edx
   15e9c:	48 8d 35 40 25 00 00 	lea    0x2540(%rip),%rsi        # 183e3 <g_2389+0x131b>
   15ea3:	48 89 c7             	mov    %rax,%rdi
   15ea6:	e8 48 08 ff ff       	callq  66f3 <transparent_crc>
   15eab:	0f b6 05 b2 5f 00 00 	movzbl 0x5fb2(%rip),%eax        # 1be64 <g_2272+0x4>
   15eb2:	0f b6 c0             	movzbl %al,%eax
   15eb5:	8b 55 fc             	mov    -0x4(%rbp),%edx
   15eb8:	48 8d 35 2e 25 00 00 	lea    0x252e(%rip),%rsi        # 183ed <g_2389+0x1325>
   15ebf:	48 89 c7             	mov    %rax,%rdi
   15ec2:	e8 2c 08 ff ff       	callq  66f3 <transparent_crc>
   15ec7:	48 8b 05 92 5f 00 00 	mov    0x5f92(%rip),%rax        # 1be60 <g_2272>
   15ece:	48 c1 e8 28          	shr    $0x28,%rax
   15ed2:	25 ff ff 03 00       	and    $0x3ffff,%eax
   15ed7:	89 c1                	mov    %eax,%ecx
   15ed9:	8b 45 fc             	mov    -0x4(%rbp),%eax
   15edc:	89 c2                	mov    %eax,%edx
   15ede:	48 8d 35 12 25 00 00 	lea    0x2512(%rip),%rsi        # 183f7 <g_2389+0x132f>
   15ee5:	48 89 cf             	mov    %rcx,%rdi
   15ee8:	e8 06 08 ff ff       	callq  66f3 <transparent_crc>
   15eed:	48 8b 05 6c 5f 00 00 	mov    0x5f6c(%rip),%rax        # 1be60 <g_2272>
   15ef4:	48 c1 e8 3a          	shr    $0x3a,%rax
   15ef8:	48 89 c2             	mov    %rax,%rdx
   15efb:	48 8b 05 66 5f 00 00 	mov    0x5f66(%rip),%rax        # 1be68 <g_2272+0x8>
   15f02:	83 e0 3f             	and    $0x3f,%eax
   15f05:	48 c1 e0 06          	shl    $0x6,%rax
   15f09:	48 09 d0             	or     %rdx,%rax
   15f0c:	0f b7 c0             	movzwl %ax,%eax
   15f0f:	8b 55 fc             	mov    -0x4(%rbp),%edx
   15f12:	48 8d 35 e8 24 00 00 	lea    0x24e8(%rip),%rsi        # 18401 <g_2389+0x1339>
   15f19:	48 89 c7             	mov    %rax,%rdi
   15f1c:	e8 d2 07 ff ff       	callq  66f3 <transparent_crc>
   15f21:	0f b6 05 41 5f 00 00 	movzbl 0x5f41(%rip),%eax        # 1be69 <g_2272+0x9>
   15f28:	0f b6 c0             	movzbl %al,%eax
   15f2b:	8b 55 fc             	mov    -0x4(%rbp),%edx
   15f2e:	48 8d 35 d6 24 00 00 	lea    0x24d6(%rip),%rsi        # 1840b <g_2389+0x1343>
   15f35:	48 89 c7             	mov    %rax,%rdi
   15f38:	e8 b6 07 ff ff       	callq  66f3 <transparent_crc>
   15f3d:	8b 05 27 5f 00 00    	mov    0x5f27(%rip),%eax        # 1be6a <g_2272+0xa>
   15f43:	89 c1                	mov    %eax,%ecx
   15f45:	8b 45 fc             	mov    -0x4(%rbp),%eax
   15f48:	89 c2                	mov    %eax,%edx
   15f4a:	48 8d 35 c4 24 00 00 	lea    0x24c4(%rip),%rsi        # 18415 <g_2389+0x134d>
   15f51:	48 89 cf             	mov    %rcx,%rdi
   15f54:	e8 9a 07 ff ff       	callq  66f3 <transparent_crc>
   15f59:	48 8b 05 0e 5f 00 00 	mov    0x5f0e(%rip),%rax        # 1be6e <g_2272+0xe>
   15f60:	48 89 c1             	mov    %rax,%rcx
   15f63:	8b 45 fc             	mov    -0x4(%rbp),%eax
   15f66:	89 c2                	mov    %eax,%edx
   15f68:	48 8d 35 b0 24 00 00 	lea    0x24b0(%rip),%rsi        # 1841f <g_2389+0x1357>
   15f6f:	48 89 cf             	mov    %rcx,%rdi
   15f72:	e8 7c 07 ff ff       	callq  66f3 <transparent_crc>
   15f77:	48 8b 05 f8 5e 00 00 	mov    0x5ef8(%rip),%rax        # 1be76 <g_2272+0x16>
   15f7e:	48 89 c1             	mov    %rax,%rcx
   15f81:	8b 45 fc             	mov    -0x4(%rbp),%eax
   15f84:	89 c2                	mov    %eax,%edx
   15f86:	48 8d 35 9c 24 00 00 	lea    0x249c(%rip),%rsi        # 18429 <g_2389+0x1361>
   15f8d:	48 89 cf             	mov    %rcx,%rdi
   15f90:	e8 5e 07 ff ff       	callq  66f3 <transparent_crc>
   15f95:	48 8b 05 e2 5e 00 00 	mov    0x5ee2(%rip),%rax        # 1be7e <g_2272+0x1e>
   15f9c:	8b 55 fc             	mov    -0x4(%rbp),%edx
   15f9f:	48 8d 35 8d 24 00 00 	lea    0x248d(%rip),%rsi        # 18433 <g_2389+0x136b>
   15fa6:	48 89 c7             	mov    %rax,%rdi
   15fa9:	e8 45 07 ff ff       	callq  66f3 <transparent_crc>
   15fae:	0f b7 05 d1 5e 00 00 	movzwl 0x5ed1(%rip),%eax        # 1be86 <g_2272+0x26>
   15fb5:	48 0f bf c0          	movswq %ax,%rax
   15fb9:	8b 55 fc             	mov    -0x4(%rbp),%edx
   15fbc:	48 8d 35 7a 24 00 00 	lea    0x247a(%rip),%rsi        # 1843d <g_2389+0x1375>
   15fc3:	48 89 c7             	mov    %rax,%rdi
   15fc6:	e8 28 07 ff ff       	callq  66f3 <transparent_crc>
   15fcb:	b8 b2 01 00 00       	mov    $0x1b2,%eax
   15fd0:	48 98                	cltq   
   15fd2:	8b 55 fc             	mov    -0x4(%rbp),%edx
   15fd5:	48 8d 35 6b 24 00 00 	lea    0x246b(%rip),%rsi        # 18447 <g_2389+0x137f>
   15fdc:	48 89 c7             	mov    %rax,%rdi
   15fdf:	e8 0f 07 ff ff       	callq  66f3 <transparent_crc>
   15fe4:	b8 00 00 00 00       	mov    $0x0,%eax
   15fe9:	0f b6 c0             	movzbl %al,%eax
   15fec:	8b 55 fc             	mov    -0x4(%rbp),%edx
   15fef:	48 8d 35 5b 24 00 00 	lea    0x245b(%rip),%rsi        # 18451 <g_2389+0x1389>
   15ff6:	48 89 c7             	mov    %rax,%rdi
   15ff9:	e8 f5 06 ff ff       	callq  66f3 <transparent_crc>
   15ffe:	48 8b 05 9b 10 00 00 	mov    0x109b(%rip),%rax        # 170a0 <g_2324>
   16005:	48 c1 e8 28          	shr    $0x28,%rax
   16009:	25 ff ff 03 00       	and    $0x3ffff,%eax
   1600e:	89 c1                	mov    %eax,%ecx
   16010:	8b 45 fc             	mov    -0x4(%rbp),%eax
   16013:	89 c2                	mov    %eax,%edx
   16015:	48 8d 35 3f 24 00 00 	lea    0x243f(%rip),%rsi        # 1845b <g_2389+0x1393>
   1601c:	48 89 cf             	mov    %rcx,%rdi
   1601f:	e8 cf 06 ff ff       	callq  66f3 <transparent_crc>
   16024:	48 8b 05 75 10 00 00 	mov    0x1075(%rip),%rax        # 170a0 <g_2324>
   1602b:	48 c1 e8 3a          	shr    $0x3a,%rax
   1602f:	48 89 c2             	mov    %rax,%rdx
   16032:	48 8b 05 6f 10 00 00 	mov    0x106f(%rip),%rax        # 170a8 <g_2324+0x8>
   16039:	83 e0 3f             	and    $0x3f,%eax
   1603c:	48 c1 e0 06          	shl    $0x6,%rax
   16040:	48 09 d0             	or     %rdx,%rax
   16043:	0f b7 c0             	movzwl %ax,%eax
   16046:	8b 55 fc             	mov    -0x4(%rbp),%edx
   16049:	48 8d 35 15 24 00 00 	lea    0x2415(%rip),%rsi        # 18465 <g_2389+0x139d>
   16050:	48 89 c7             	mov    %rax,%rdi
   16053:	e8 9b 06 ff ff       	callq  66f3 <transparent_crc>
   16058:	0f b6 05 4a 10 00 00 	movzbl 0x104a(%rip),%eax        # 170a9 <g_2324+0x9>
   1605f:	0f b6 c0             	movzbl %al,%eax
   16062:	8b 55 fc             	mov    -0x4(%rbp),%edx
   16065:	48 8d 35 03 24 00 00 	lea    0x2403(%rip),%rsi        # 1846f <g_2389+0x13a7>
   1606c:	48 89 c7             	mov    %rax,%rdi
   1606f:	e8 7f 06 ff ff       	callq  66f3 <transparent_crc>
   16074:	b8 b0 03 1e c9       	mov    $0xc91e03b0,%eax
   16079:	89 c1                	mov    %eax,%ecx
   1607b:	8b 45 fc             	mov    -0x4(%rbp),%eax
   1607e:	89 c2                	mov    %eax,%edx
   16080:	48 8d 35 f2 23 00 00 	lea    0x23f2(%rip),%rsi        # 18479 <g_2389+0x13b1>
   16087:	48 89 cf             	mov    %rcx,%rdi
   1608a:	e8 64 06 ff ff       	callq  66f3 <transparent_crc>
   1608f:	48 b8 ac 51 23 f0 d7 	movabs $0xbea9bbd7f02351ac,%rax
   16096:	bb a9 be 
   16099:	48 89 c1             	mov    %rax,%rcx
   1609c:	8b 45 fc             	mov    -0x4(%rbp),%eax
   1609f:	89 c2                	mov    %eax,%edx
   160a1:	48 8d 35 db 23 00 00 	lea    0x23db(%rip),%rsi        # 18483 <g_2389+0x13bb>
   160a8:	48 89 cf             	mov    %rcx,%rdi
   160ab:	e8 43 06 ff ff       	callq  66f3 <transparent_crc>
   160b0:	48 b8 b4 73 e1 6f 8e 	movabs $0xe00d0b8e6fe173b4,%rax
   160b7:	0b 0d e0 
   160ba:	48 89 c1             	mov    %rax,%rcx
   160bd:	8b 45 fc             	mov    -0x4(%rbp),%eax
   160c0:	89 c2                	mov    %eax,%edx
   160c2:	48 8d 35 c4 23 00 00 	lea    0x23c4(%rip),%rsi        # 1848d <g_2389+0x13c5>
   160c9:	48 89 cf             	mov    %rcx,%rdi
   160cc:	e8 22 06 ff ff       	callq  66f3 <transparent_crc>
   160d1:	48 b9 64 91 1c bc 69 	movabs $0xe12bb269bc1c9164,%rcx
   160d8:	b2 2b e1 
   160db:	8b 45 fc             	mov    -0x4(%rbp),%eax
   160de:	89 c2                	mov    %eax,%edx
   160e0:	48 8d 35 b0 23 00 00 	lea    0x23b0(%rip),%rsi        # 18497 <g_2389+0x13cf>
   160e7:	48 89 cf             	mov    %rcx,%rdi
   160ea:	e8 04 06 ff ff       	callq  66f3 <transparent_crc>
   160ef:	b8 79 72 00 00       	mov    $0x7279,%eax
   160f4:	48 0f bf c0          	movswq %ax,%rax
   160f8:	8b 55 fc             	mov    -0x4(%rbp),%edx
   160fb:	48 8d 35 9f 23 00 00 	lea    0x239f(%rip),%rsi        # 184a1 <g_2389+0x13d9>
   16102:	48 89 c7             	mov    %rax,%rdi
   16105:	e8 e9 05 ff ff       	callq  66f3 <transparent_crc>
   1610a:	48 b9 c3 6a 7f 57 af 	movabs $0x77d7f2af577f6ac3,%rcx
   16111:	f2 d7 77 
   16114:	8b 45 fc             	mov    -0x4(%rbp),%eax
   16117:	89 c2                	mov    %eax,%edx
   16119:	48 8d 35 8b 23 00 00 	lea    0x238b(%rip),%rsi        # 184ab <g_2389+0x13e3>
   16120:	48 89 cf             	mov    %rcx,%rdi
   16123:	e8 cb 05 ff ff       	callq  66f3 <transparent_crc>
   16128:	8b 05 72 5d 00 00    	mov    0x5d72(%rip),%eax        # 1bea0 <g_2451>
   1612e:	c1 e0 07             	shl    $0x7,%eax
   16131:	c1 f8 07             	sar    $0x7,%eax
   16134:	48 98                	cltq   
   16136:	8b 55 fc             	mov    -0x4(%rbp),%edx
   16139:	48 8d 35 72 23 00 00 	lea    0x2372(%rip),%rsi        # 184b2 <g_2389+0x13ea>
   16140:	48 89 c7             	mov    %rax,%rdi
   16143:	e8 ab 05 ff ff       	callq  66f3 <transparent_crc>
   16148:	0f b6 05 55 5d 00 00 	movzbl 0x5d55(%rip),%eax        # 1bea4 <g_2451+0x4>
   1614f:	0f b6 c0             	movzbl %al,%eax
   16152:	8b 55 fc             	mov    -0x4(%rbp),%edx
   16155:	48 8d 35 60 23 00 00 	lea    0x2360(%rip),%rsi        # 184bc <g_2389+0x13f4>
   1615c:	48 89 c7             	mov    %rax,%rdi
   1615f:	e8 8f 05 ff ff       	callq  66f3 <transparent_crc>
   16164:	48 8b 05 35 5d 00 00 	mov    0x5d35(%rip),%rax        # 1bea0 <g_2451>
   1616b:	48 c1 e8 28          	shr    $0x28,%rax
   1616f:	25 ff ff 03 00       	and    $0x3ffff,%eax
   16174:	89 c1                	mov    %eax,%ecx
   16176:	8b 45 fc             	mov    -0x4(%rbp),%eax
   16179:	89 c2                	mov    %eax,%edx
   1617b:	48 8d 35 44 23 00 00 	lea    0x2344(%rip),%rsi        # 184c6 <g_2389+0x13fe>
   16182:	48 89 cf             	mov    %rcx,%rdi
   16185:	e8 69 05 ff ff       	callq  66f3 <transparent_crc>
   1618a:	48 8b 05 0f 5d 00 00 	mov    0x5d0f(%rip),%rax        # 1bea0 <g_2451>
   16191:	48 c1 e8 3a          	shr    $0x3a,%rax
   16195:	48 89 c2             	mov    %rax,%rdx
   16198:	48 8b 05 09 5d 00 00 	mov    0x5d09(%rip),%rax        # 1bea8 <g_2451+0x8>
   1619f:	83 e0 3f             	and    $0x3f,%eax
   161a2:	48 c1 e0 06          	shl    $0x6,%rax
   161a6:	48 09 d0             	or     %rdx,%rax
   161a9:	0f b7 c0             	movzwl %ax,%eax
   161ac:	8b 55 fc             	mov    -0x4(%rbp),%edx
   161af:	48 8d 35 1a 23 00 00 	lea    0x231a(%rip),%rsi        # 184d0 <g_2389+0x1408>
   161b6:	48 89 c7             	mov    %rax,%rdi
   161b9:	e8 35 05 ff ff       	callq  66f3 <transparent_crc>
   161be:	0f b6 05 e4 5c 00 00 	movzbl 0x5ce4(%rip),%eax        # 1bea9 <g_2451+0x9>
   161c5:	0f b6 c0             	movzbl %al,%eax
   161c8:	8b 55 fc             	mov    -0x4(%rbp),%edx
   161cb:	48 8d 35 08 23 00 00 	lea    0x2308(%rip),%rsi        # 184da <g_2389+0x1412>
   161d2:	48 89 c7             	mov    %rax,%rdi
   161d5:	e8 19 05 ff ff       	callq  66f3 <transparent_crc>
   161da:	8b 05 ca 5c 00 00    	mov    0x5cca(%rip),%eax        # 1beaa <g_2451+0xa>
   161e0:	89 c1                	mov    %eax,%ecx
   161e2:	8b 45 fc             	mov    -0x4(%rbp),%eax
   161e5:	89 c2                	mov    %eax,%edx
   161e7:	48 8d 35 f6 22 00 00 	lea    0x22f6(%rip),%rsi        # 184e4 <g_2389+0x141c>
   161ee:	48 89 cf             	mov    %rcx,%rdi
   161f1:	e8 fd 04 ff ff       	callq  66f3 <transparent_crc>
   161f6:	48 8b 05 b1 5c 00 00 	mov    0x5cb1(%rip),%rax        # 1beae <g_2451+0xe>
   161fd:	48 89 c1             	mov    %rax,%rcx
   16200:	8b 45 fc             	mov    -0x4(%rbp),%eax
   16203:	89 c2                	mov    %eax,%edx
   16205:	48 8d 35 e2 22 00 00 	lea    0x22e2(%rip),%rsi        # 184ee <g_2389+0x1426>
   1620c:	48 89 cf             	mov    %rcx,%rdi
   1620f:	e8 df 04 ff ff       	callq  66f3 <transparent_crc>
   16214:	48 8b 05 9b 5c 00 00 	mov    0x5c9b(%rip),%rax        # 1beb6 <g_2451+0x16>
   1621b:	48 89 c1             	mov    %rax,%rcx
   1621e:	8b 45 fc             	mov    -0x4(%rbp),%eax
   16221:	89 c2                	mov    %eax,%edx
   16223:	48 8d 35 ce 22 00 00 	lea    0x22ce(%rip),%rsi        # 184f8 <g_2389+0x1430>
   1622a:	48 89 cf             	mov    %rcx,%rdi
   1622d:	e8 c1 04 ff ff       	callq  66f3 <transparent_crc>
   16232:	48 8b 05 85 5c 00 00 	mov    0x5c85(%rip),%rax        # 1bebe <g_2451+0x1e>
   16239:	8b 55 fc             	mov    -0x4(%rbp),%edx
   1623c:	48 8d 35 bf 22 00 00 	lea    0x22bf(%rip),%rsi        # 18502 <g_2389+0x143a>
   16243:	48 89 c7             	mov    %rax,%rdi
   16246:	e8 a8 04 ff ff       	callq  66f3 <transparent_crc>
   1624b:	0f b7 05 74 5c 00 00 	movzwl 0x5c74(%rip),%eax        # 1bec6 <g_2451+0x26>
   16252:	48 0f bf c0          	movswq %ax,%rax
   16256:	8b 55 fc             	mov    -0x4(%rbp),%edx
   16259:	48 8d 35 ac 22 00 00 	lea    0x22ac(%rip),%rsi        # 1850c <g_2389+0x1444>
   16260:	48 89 c7             	mov    %rax,%rdi
   16263:	e8 8b 04 ff ff       	callq  66f3 <transparent_crc>
   16268:	8b 05 72 5c 00 00    	mov    0x5c72(%rip),%eax        # 1bee0 <g_2583>
   1626e:	c1 e0 07             	shl    $0x7,%eax
   16271:	c1 f8 07             	sar    $0x7,%eax
   16274:	48 98                	cltq   
   16276:	8b 55 fc             	mov    -0x4(%rbp),%edx
   16279:	48 8d 35 96 22 00 00 	lea    0x2296(%rip),%rsi        # 18516 <g_2389+0x144e>
   16280:	48 89 c7             	mov    %rax,%rdi
   16283:	e8 6b 04 ff ff       	callq  66f3 <transparent_crc>
   16288:	0f b6 05 55 5c 00 00 	movzbl 0x5c55(%rip),%eax        # 1bee4 <g_2583+0x4>
   1628f:	0f b6 c0             	movzbl %al,%eax
   16292:	8b 55 fc             	mov    -0x4(%rbp),%edx
   16295:	48 8d 35 84 22 00 00 	lea    0x2284(%rip),%rsi        # 18520 <g_2389+0x1458>
   1629c:	48 89 c7             	mov    %rax,%rdi
   1629f:	e8 4f 04 ff ff       	callq  66f3 <transparent_crc>
   162a4:	48 8b 05 35 5c 00 00 	mov    0x5c35(%rip),%rax        # 1bee0 <g_2583>
   162ab:	48 c1 e8 28          	shr    $0x28,%rax
   162af:	25 ff ff 03 00       	and    $0x3ffff,%eax
   162b4:	89 c1                	mov    %eax,%ecx
   162b6:	8b 45 fc             	mov    -0x4(%rbp),%eax
   162b9:	89 c2                	mov    %eax,%edx
   162bb:	48 8d 35 68 22 00 00 	lea    0x2268(%rip),%rsi        # 1852a <g_2389+0x1462>
   162c2:	48 89 cf             	mov    %rcx,%rdi
   162c5:	e8 29 04 ff ff       	callq  66f3 <transparent_crc>
   162ca:	48 8b 05 0f 5c 00 00 	mov    0x5c0f(%rip),%rax        # 1bee0 <g_2583>
   162d1:	48 c1 e8 3a          	shr    $0x3a,%rax
   162d5:	48 89 c2             	mov    %rax,%rdx
   162d8:	48 8b 05 09 5c 00 00 	mov    0x5c09(%rip),%rax        # 1bee8 <g_2583+0x8>
   162df:	83 e0 3f             	and    $0x3f,%eax
   162e2:	48 c1 e0 06          	shl    $0x6,%rax
   162e6:	48 09 d0             	or     %rdx,%rax
   162e9:	0f b7 c0             	movzwl %ax,%eax
   162ec:	8b 55 fc             	mov    -0x4(%rbp),%edx
   162ef:	48 8d 35 3e 22 00 00 	lea    0x223e(%rip),%rsi        # 18534 <g_2389+0x146c>
   162f6:	48 89 c7             	mov    %rax,%rdi
   162f9:	e8 f5 03 ff ff       	callq  66f3 <transparent_crc>
   162fe:	0f b6 05 e4 5b 00 00 	movzbl 0x5be4(%rip),%eax        # 1bee9 <g_2583+0x9>
   16305:	0f b6 c0             	movzbl %al,%eax
   16308:	8b 55 fc             	mov    -0x4(%rbp),%edx
   1630b:	48 8d 35 2c 22 00 00 	lea    0x222c(%rip),%rsi        # 1853e <g_2389+0x1476>
   16312:	48 89 c7             	mov    %rax,%rdi
   16315:	e8 d9 03 ff ff       	callq  66f3 <transparent_crc>
   1631a:	8b 05 ca 5b 00 00    	mov    0x5bca(%rip),%eax        # 1beea <g_2583+0xa>
   16320:	89 c1                	mov    %eax,%ecx
   16322:	8b 45 fc             	mov    -0x4(%rbp),%eax
   16325:	89 c2                	mov    %eax,%edx
   16327:	48 8d 35 1a 22 00 00 	lea    0x221a(%rip),%rsi        # 18548 <g_2389+0x1480>
   1632e:	48 89 cf             	mov    %rcx,%rdi
   16331:	e8 bd 03 ff ff       	callq  66f3 <transparent_crc>
   16336:	48 8b 05 b1 5b 00 00 	mov    0x5bb1(%rip),%rax        # 1beee <g_2583+0xe>
   1633d:	48 89 c1             	mov    %rax,%rcx
   16340:	8b 45 fc             	mov    -0x4(%rbp),%eax
   16343:	89 c2                	mov    %eax,%edx
   16345:	48 8d 35 06 22 00 00 	lea    0x2206(%rip),%rsi        # 18552 <g_2389+0x148a>
   1634c:	48 89 cf             	mov    %rcx,%rdi
   1634f:	e8 9f 03 ff ff       	callq  66f3 <transparent_crc>
   16354:	48 8b 05 9b 5b 00 00 	mov    0x5b9b(%rip),%rax        # 1bef6 <g_2583+0x16>
   1635b:	48 89 c1             	mov    %rax,%rcx
   1635e:	8b 45 fc             	mov    -0x4(%rbp),%eax
   16361:	89 c2                	mov    %eax,%edx
   16363:	48 8d 35 f2 21 00 00 	lea    0x21f2(%rip),%rsi        # 1855c <g_2389+0x1494>
   1636a:	48 89 cf             	mov    %rcx,%rdi
   1636d:	e8 81 03 ff ff       	callq  66f3 <transparent_crc>
   16372:	48 8b 05 85 5b 00 00 	mov    0x5b85(%rip),%rax        # 1befe <g_2583+0x1e>
   16379:	8b 55 fc             	mov    -0x4(%rbp),%edx
   1637c:	48 8d 35 e3 21 00 00 	lea    0x21e3(%rip),%rsi        # 18566 <g_2389+0x149e>
   16383:	48 89 c7             	mov    %rax,%rdi
   16386:	e8 68 03 ff ff       	callq  66f3 <transparent_crc>
   1638b:	0f b7 05 74 5b 00 00 	movzwl 0x5b74(%rip),%eax        # 1bf06 <g_2583+0x26>
   16392:	48 0f bf c0          	movswq %ax,%rax
   16396:	8b 55 fc             	mov    -0x4(%rbp),%edx
   16399:	48 8d 35 d0 21 00 00 	lea    0x21d0(%rip),%rsi        # 18570 <g_2389+0x14a8>
   163a0:	48 89 c7             	mov    %rax,%rdi
   163a3:	e8 4b 03 ff ff       	callq  66f3 <transparent_crc>
   163a8:	c7 45 f0 00 00 00 00 	movl   $0x0,-0x10(%rbp)
   163af:	e9 6d 02 00 00       	jmpq   16621 <main+0x2265>
   163b4:	8b 45 f0             	mov    -0x10(%rbp),%eax
   163b7:	48 63 d0             	movslq %eax,%rdx
   163ba:	48 89 d0             	mov    %rdx,%rax
   163bd:	48 c1 e0 02          	shl    $0x2,%rax
   163c1:	48 01 d0             	add    %rdx,%rax
   163c4:	48 c1 e0 03          	shl    $0x3,%rax
   163c8:	48 89 c2             	mov    %rax,%rdx
   163cb:	48 8d 05 4e 5b 00 00 	lea    0x5b4e(%rip),%rax        # 1bf20 <g_2621>
   163d2:	8b 04 02             	mov    (%rdx,%rax,1),%eax
   163d5:	c1 e0 07             	shl    $0x7,%eax
   163d8:	c1 f8 07             	sar    $0x7,%eax
   163db:	48 98                	cltq   
   163dd:	8b 55 fc             	mov    -0x4(%rbp),%edx
   163e0:	48 8d 35 93 21 00 00 	lea    0x2193(%rip),%rsi        # 1857a <g_2389+0x14b2>
   163e7:	48 89 c7             	mov    %rax,%rdi
   163ea:	e8 04 03 ff ff       	callq  66f3 <transparent_crc>
   163ef:	8b 45 f0             	mov    -0x10(%rbp),%eax
   163f2:	48 63 d0             	movslq %eax,%rdx
   163f5:	48 89 d0             	mov    %rdx,%rax
   163f8:	48 c1 e0 02          	shl    $0x2,%rax
   163fc:	48 01 d0             	add    %rdx,%rax
   163ff:	48 c1 e0 03          	shl    $0x3,%rax
   16403:	48 89 c2             	mov    %rax,%rdx
   16406:	48 8d 05 17 5b 00 00 	lea    0x5b17(%rip),%rax        # 1bf24 <g_2621+0x4>
   1640d:	0f b6 04 02          	movzbl (%rdx,%rax,1),%eax
   16411:	0f b6 c0             	movzbl %al,%eax
   16414:	8b 55 fc             	mov    -0x4(%rbp),%edx
   16417:	48 8d 35 69 21 00 00 	lea    0x2169(%rip),%rsi        # 18587 <g_2389+0x14bf>
   1641e:	48 89 c7             	mov    %rax,%rdi
   16421:	e8 cd 02 ff ff       	callq  66f3 <transparent_crc>
   16426:	8b 45 f0             	mov    -0x10(%rbp),%eax
   16429:	48 63 d0             	movslq %eax,%rdx
   1642c:	48 89 d0             	mov    %rdx,%rax
   1642f:	48 c1 e0 02          	shl    $0x2,%rax
   16433:	48 01 d0             	add    %rdx,%rax
   16436:	48 c1 e0 03          	shl    $0x3,%rax
   1643a:	48 89 c2             	mov    %rax,%rdx
   1643d:	48 8d 05 dc 5a 00 00 	lea    0x5adc(%rip),%rax        # 1bf20 <g_2621>
   16444:	48 8b 04 02          	mov    (%rdx,%rax,1),%rax
   16448:	48 c1 e8 28          	shr    $0x28,%rax
   1644c:	25 ff ff 03 00       	and    $0x3ffff,%eax
   16451:	89 c1                	mov    %eax,%ecx
   16453:	8b 45 fc             	mov    -0x4(%rbp),%eax
   16456:	89 c2                	mov    %eax,%edx
   16458:	48 8d 35 35 21 00 00 	lea    0x2135(%rip),%rsi        # 18594 <g_2389+0x14cc>
   1645f:	48 89 cf             	mov    %rcx,%rdi
   16462:	e8 8c 02 ff ff       	callq  66f3 <transparent_crc>
   16467:	8b 45 f0             	mov    -0x10(%rbp),%eax
   1646a:	48 63 d0             	movslq %eax,%rdx
   1646d:	48 89 d0             	mov    %rdx,%rax
   16470:	48 c1 e0 02          	shl    $0x2,%rax
   16474:	48 01 d0             	add    %rdx,%rax
   16477:	48 c1 e0 03          	shl    $0x3,%rax
   1647b:	48 89 c2             	mov    %rax,%rdx
   1647e:	48 8d 05 9b 5a 00 00 	lea    0x5a9b(%rip),%rax        # 1bf20 <g_2621>
   16485:	48 8b 0c 02          	mov    (%rdx,%rax,1),%rcx
   16489:	48 c1 e9 3a          	shr    $0x3a,%rcx
   1648d:	48 8b 44 02 08       	mov    0x8(%rdx,%rax,1),%rax
   16492:	83 e0 3f             	and    $0x3f,%eax
   16495:	48 c1 e0 06          	shl    $0x6,%rax
   16499:	48 09 c8             	or     %rcx,%rax
   1649c:	0f b7 c0             	movzwl %ax,%eax
   1649f:	8b 55 fc             	mov    -0x4(%rbp),%edx
   164a2:	48 8d 35 f8 20 00 00 	lea    0x20f8(%rip),%rsi        # 185a1 <g_2389+0x14d9>
   164a9:	48 89 c7             	mov    %rax,%rdi
   164ac:	e8 42 02 ff ff       	callq  66f3 <transparent_crc>
   164b1:	8b 45 f0             	mov    -0x10(%rbp),%eax
   164b4:	48 63 d0             	movslq %eax,%rdx
   164b7:	48 89 d0             	mov    %rdx,%rax
   164ba:	48 c1 e0 02          	shl    $0x2,%rax
   164be:	48 01 d0             	add    %rdx,%rax
   164c1:	48 c1 e0 03          	shl    $0x3,%rax
   164c5:	48 89 c2             	mov    %rax,%rdx
   164c8:	48 8d 05 5a 5a 00 00 	lea    0x5a5a(%rip),%rax        # 1bf29 <g_2621+0x9>
   164cf:	0f b6 04 02          	movzbl (%rdx,%rax,1),%eax
   164d3:	0f b6 c0             	movzbl %al,%eax
   164d6:	8b 55 fc             	mov    -0x4(%rbp),%edx
   164d9:	48 8d 35 ce 20 00 00 	lea    0x20ce(%rip),%rsi        # 185ae <g_2389+0x14e6>
   164e0:	48 89 c7             	mov    %rax,%rdi
   164e3:	e8 0b 02 ff ff       	callq  66f3 <transparent_crc>
   164e8:	8b 45 f0             	mov    -0x10(%rbp),%eax
   164eb:	48 63 d0             	movslq %eax,%rdx
   164ee:	48 89 d0             	mov    %rdx,%rax
   164f1:	48 c1 e0 02          	shl    $0x2,%rax
   164f5:	48 01 d0             	add    %rdx,%rax
   164f8:	48 c1 e0 03          	shl    $0x3,%rax
   164fc:	48 89 c2             	mov    %rax,%rdx
   164ff:	48 8d 05 1a 5a 00 00 	lea    0x5a1a(%rip),%rax        # 1bf20 <g_2621>
   16506:	8b 44 02 0a          	mov    0xa(%rdx,%rax,1),%eax
   1650a:	89 c1                	mov    %eax,%ecx
   1650c:	8b 45 fc             	mov    -0x4(%rbp),%eax
   1650f:	89 c2                	mov    %eax,%edx
   16511:	48 8d 35 a3 20 00 00 	lea    0x20a3(%rip),%rsi        # 185bb <g_2389+0x14f3>
   16518:	48 89 cf             	mov    %rcx,%rdi
   1651b:	e8 d3 01 ff ff       	callq  66f3 <transparent_crc>
   16520:	8b 45 f0             	mov    -0x10(%rbp),%eax
   16523:	48 63 d0             	movslq %eax,%rdx
   16526:	48 89 d0             	mov    %rdx,%rax
   16529:	48 c1 e0 02          	shl    $0x2,%rax
   1652d:	48 01 d0             	add    %rdx,%rax
   16530:	48 c1 e0 03          	shl    $0x3,%rax
   16534:	48 89 c2             	mov    %rax,%rdx
   16537:	48 8d 05 e2 59 00 00 	lea    0x59e2(%rip),%rax        # 1bf20 <g_2621>
   1653e:	48 8b 44 02 0e       	mov    0xe(%rdx,%rax,1),%rax
   16543:	48 89 c1             	mov    %rax,%rcx
   16546:	8b 45 fc             	mov    -0x4(%rbp),%eax
   16549:	89 c2                	mov    %eax,%edx
   1654b:	48 8d 35 76 20 00 00 	lea    0x2076(%rip),%rsi        # 185c8 <g_2389+0x1500>
   16552:	48 89 cf             	mov    %rcx,%rdi
   16555:	e8 99 01 ff ff       	callq  66f3 <transparent_crc>
   1655a:	8b 45 f0             	mov    -0x10(%rbp),%eax
   1655d:	48 63 d0             	movslq %eax,%rdx
   16560:	48 89 d0             	mov    %rdx,%rax
   16563:	48 c1 e0 02          	shl    $0x2,%rax
   16567:	48 01 d0             	add    %rdx,%rax
   1656a:	48 c1 e0 03          	shl    $0x3,%rax
   1656e:	48 89 c2             	mov    %rax,%rdx
   16571:	48 8d 05 b8 59 00 00 	lea    0x59b8(%rip),%rax        # 1bf30 <g_2621+0x10>
   16578:	48 8b 44 02 06       	mov    0x6(%rdx,%rax,1),%rax
   1657d:	48 89 c1             	mov    %rax,%rcx
   16580:	8b 45 fc             	mov    -0x4(%rbp),%eax
   16583:	89 c2                	mov    %eax,%edx
   16585:	48 8d 35 49 20 00 00 	lea    0x2049(%rip),%rsi        # 185d5 <g_2389+0x150d>
   1658c:	48 89 cf             	mov    %rcx,%rdi
   1658f:	e8 5f 01 ff ff       	callq  66f3 <transparent_crc>
   16594:	8b 45 f0             	mov    -0x10(%rbp),%eax
   16597:	48 63 d0             	movslq %eax,%rdx
   1659a:	48 89 d0             	mov    %rdx,%rax
   1659d:	48 c1 e0 02          	shl    $0x2,%rax
   165a1:	48 01 d0             	add    %rdx,%rax
   165a4:	48 c1 e0 03          	shl    $0x3,%rax
   165a8:	48 89 c2             	mov    %rax,%rdx
   165ab:	48 8d 05 7e 59 00 00 	lea    0x597e(%rip),%rax        # 1bf30 <g_2621+0x10>
   165b2:	48 8b 44 02 0e       	mov    0xe(%rdx,%rax,1),%rax
   165b7:	8b 55 fc             	mov    -0x4(%rbp),%edx
   165ba:	48 8d 35 21 20 00 00 	lea    0x2021(%rip),%rsi        # 185e2 <g_2389+0x151a>
   165c1:	48 89 c7             	mov    %rax,%rdi
   165c4:	e8 2a 01 ff ff       	callq  66f3 <transparent_crc>
   165c9:	8b 45 f0             	mov    -0x10(%rbp),%eax
   165cc:	48 63 d0             	movslq %eax,%rdx
   165cf:	48 89 d0             	mov    %rdx,%rax
   165d2:	48 c1 e0 02          	shl    $0x2,%rax
   165d6:	48 01 d0             	add    %rdx,%rax
   165d9:	48 c1 e0 03          	shl    $0x3,%rax
   165dd:	48 89 c2             	mov    %rax,%rdx
   165e0:	48 8d 05 5f 59 00 00 	lea    0x595f(%rip),%rax        # 1bf46 <g_2621+0x26>
   165e7:	0f b7 04 02          	movzwl (%rdx,%rax,1),%eax
   165eb:	48 0f bf c0          	movswq %ax,%rax
   165ef:	8b 55 fc             	mov    -0x4(%rbp),%edx
   165f2:	48 8d 35 f6 1f 00 00 	lea    0x1ff6(%rip),%rsi        # 185ef <g_2389+0x1527>
   165f9:	48 89 c7             	mov    %rax,%rdi
   165fc:	e8 f2 00 ff ff       	callq  66f3 <transparent_crc>
   16601:	83 7d fc 00          	cmpl   $0x0,-0x4(%rbp)
   16605:	74 16                	je     1661d <main+0x2261>
   16607:	8b 45 f0             	mov    -0x10(%rbp),%eax
   1660a:	89 c6                	mov    %eax,%esi
   1660c:	48 8d 3d 6e 17 00 00 	lea    0x176e(%rip),%rdi        # 17d81 <g_2389+0xcb9>
   16613:	b8 00 00 00 00       	mov    $0x0,%eax
   16618:	e8 63 ea fe ff       	callq  5080 <printf@plt>
   1661d:	83 45 f0 01          	addl   $0x1,-0x10(%rbp)
   16621:	83 7d f0 08          	cmpl   $0x8,-0x10(%rbp)
   16625:	0f 8e 89 fd ff ff    	jle    163b4 <main+0x1ff8>
   1662b:	0f b6 05 56 5a 00 00 	movzbl 0x5a56(%rip),%eax        # 1c088 <g_2691>
   16632:	48 0f be c0          	movsbq %al,%rax
   16636:	8b 55 fc             	mov    -0x4(%rbp),%edx
   16639:	48 8d 35 bc 1f 00 00 	lea    0x1fbc(%rip),%rsi        # 185fc <g_2389+0x1534>
   16640:	48 89 c7             	mov    %rax,%rdi
   16643:	e8 ab 00 ff ff       	callq  66f3 <transparent_crc>
   16648:	8b 05 d2 49 00 00    	mov    0x49d2(%rip),%eax        # 1b020 <crc32_context>
   1664e:	f7 d0                	not    %eax
   16650:	89 c2                	mov    %eax,%edx
   16652:	8b 45 fc             	mov    -0x4(%rbp),%eax
   16655:	89 c6                	mov    %eax,%esi
   16657:	89 d7                	mov    %edx,%edi
   16659:	e8 36 eb fe ff       	callq  5194 <platform_main_end>
   1665e:	b8 00 00 00 00       	mov    $0x0,%eax
   16663:	c9                   	leaveq 
   16664:	c3                   	retq   
   16665:	66 2e 0f 1f 84 00 00 	nopw   %cs:0x0(%rax,%rax,1)
   1666c:	00 00 00 
   1666f:	90                   	nop

0000000000016670 <__libc_csu_init>:
   16670:	f3 0f 1e fa          	endbr64 
   16674:	41 57                	push   %r15
   16676:	4c 8d 3d 13 47 00 00 	lea    0x4713(%rip),%r15        # 1ad90 <__frame_dummy_init_array_entry>
   1667d:	41 56                	push   %r14
   1667f:	49 89 d6             	mov    %rdx,%r14
   16682:	41 55                	push   %r13
   16684:	49 89 f5             	mov    %rsi,%r13
   16687:	41 54                	push   %r12
   16689:	41 89 fc             	mov    %edi,%r12d
   1668c:	55                   	push   %rbp
   1668d:	48 8d 2d 04 47 00 00 	lea    0x4704(%rip),%rbp        # 1ad98 <__do_global_dtors_aux_fini_array_entry>
   16694:	53                   	push   %rbx
   16695:	4c 29 fd             	sub    %r15,%rbp
   16698:	48 83 ec 08          	sub    $0x8,%rsp
   1669c:	e8 5f e9 fe ff       	callq  5000 <_init>
   166a1:	48 c1 fd 03          	sar    $0x3,%rbp
   166a5:	74 1f                	je     166c6 <__libc_csu_init+0x56>
   166a7:	31 db                	xor    %ebx,%ebx
   166a9:	0f 1f 80 00 00 00 00 	nopl   0x0(%rax)
   166b0:	4c 89 f2             	mov    %r14,%rdx
   166b3:	4c 89 ee             	mov    %r13,%rsi
   166b6:	44 89 e7             	mov    %r12d,%edi
   166b9:	41 ff 14 df          	callq  *(%r15,%rbx,8)
   166bd:	48 83 c3 01          	add    $0x1,%rbx
   166c1:	48 39 dd             	cmp    %rbx,%rbp
   166c4:	75 ea                	jne    166b0 <__libc_csu_init+0x40>
   166c6:	48 83 c4 08          	add    $0x8,%rsp
   166ca:	5b                   	pop    %rbx
   166cb:	5d                   	pop    %rbp
   166cc:	41 5c                	pop    %r12
   166ce:	41 5d                	pop    %r13
   166d0:	41 5e                	pop    %r14
   166d2:	41 5f                	pop    %r15
   166d4:	c3                   	retq   
   166d5:	66 66 2e 0f 1f 84 00 	data16 nopw %cs:0x0(%rax,%rax,1)
   166dc:	00 00 00 00 

00000000000166e0 <__libc_csu_fini>:
   166e0:	f3 0f 1e fa          	endbr64 
   166e4:	c3                   	retq   
