


Disassembly of section .text:

00000000000040a0 <_start>:
    40a0:	f3 0f 1e fa          	endbr64 
    40a4:	31 ed                	xor    %ebp,%ebp
    40a6:	49 89 d1             	mov    %rdx,%r9
    40a9:	5e                   	pop    %rsi
    40aa:	48 89 e2             	mov    %rsp,%rdx
    40ad:	48 83 e4 f0          	and    $0xfffffffffffffff0,%rsp
    40b1:	50                   	push   %rax
    40b2:	54                   	push   %rsp
    40b3:	4c 8d 05 e6 c2 00 00 	lea    0xc2e6(%rip),%r8        # 103a0 <__libc_csu_fini>
    40ba:	48 8d 0d 6f c2 00 00 	lea    0xc26f(%rip),%rcx        # 10330 <__libc_csu_init>
    40c1:	48 8d 3d cd 98 00 00 	lea    0x98cd(%rip),%rdi        # d995 <main>
    40c8:	ff 15 12 0f 01 00    	callq  *0x10f12(%rip)        # 14fe0 <__libc_start_main@GLIBC_2.2.5>
    40ce:	f4                   	hlt    
    40cf:	90                   	nop

00000000000040d0 <deregister_tm_clones>:
    40d0:	48 8d 3d 29 59 01 00 	lea    0x15929(%rip),%rdi        # 19a00 <__TMC_END__>
    40d7:	48 8d 05 22 59 01 00 	lea    0x15922(%rip),%rax        # 19a00 <__TMC_END__>
    40de:	48 39 f8             	cmp    %rdi,%rax
    40e1:	74 15                	je     40f8 <deregister_tm_clones+0x28>
    40e3:	48 8b 05 ee 0e 01 00 	mov    0x10eee(%rip),%rax        # 14fd8 <_ITM_deregisterTMCloneTable>
    40ea:	48 85 c0             	test   %rax,%rax
    40ed:	74 09                	je     40f8 <deregister_tm_clones+0x28>
    40ef:	ff e0                	jmpq   *%rax
    40f1:	0f 1f 80 00 00 00 00 	nopl   0x0(%rax)
    40f8:	c3                   	retq   
    40f9:	0f 1f 80 00 00 00 00 	nopl   0x0(%rax)

0000000000004100 <register_tm_clones>:
    4100:	48 8d 3d f9 58 01 00 	lea    0x158f9(%rip),%rdi        # 19a00 <__TMC_END__>
    4107:	48 8d 35 f2 58 01 00 	lea    0x158f2(%rip),%rsi        # 19a00 <__TMC_END__>
    410e:	48 29 fe             	sub    %rdi,%rsi
    4111:	48 89 f0             	mov    %rsi,%rax
    4114:	48 c1 ee 3f          	shr    $0x3f,%rsi
    4118:	48 c1 f8 03          	sar    $0x3,%rax
    411c:	48 01 c6             	add    %rax,%rsi
    411f:	48 d1 fe             	sar    %rsi
    4122:	74 14                	je     4138 <register_tm_clones+0x38>
    4124:	48 8b 05 c5 0e 01 00 	mov    0x10ec5(%rip),%rax        # 14ff0 <_ITM_registerTMCloneTable>
    412b:	48 85 c0             	test   %rax,%rax
    412e:	74 08                	je     4138 <register_tm_clones+0x38>
    4130:	ff e0                	jmpq   *%rax
    4132:	66 0f 1f 44 00 00    	nopw   0x0(%rax,%rax,1)
    4138:	c3                   	retq   
    4139:	0f 1f 80 00 00 00 00 	nopl   0x0(%rax)

0000000000004140 <__do_global_dtors_aux>:
    4140:	f3 0f 1e fa          	endbr64 
    4144:	80 3d b5 58 01 00 00 	cmpb   $0x0,0x158b5(%rip)        # 19a00 <__TMC_END__>
    414b:	75 2b                	jne    4178 <__do_global_dtors_aux+0x38>
    414d:	55                   	push   %rbp
    414e:	48 83 3d a2 0e 01 00 	cmpq   $0x0,0x10ea2(%rip)        # 14ff8 <__cxa_finalize@GLIBC_2.2.5>
    4155:	00 
    4156:	48 89 e5             	mov    %rsp,%rbp
    4159:	74 0c                	je     4167 <__do_global_dtors_aux+0x27>
    415b:	48 8b 3d a6 0e 01 00 	mov    0x10ea6(%rip),%rdi        # 15008 <__dso_handle>
    4162:	e8 f9 fe ff ff       	callq  4060 <__cxa_finalize@plt>
    4167:	e8 64 ff ff ff       	callq  40d0 <deregister_tm_clones>
    416c:	c6 05 8d 58 01 00 01 	movb   $0x1,0x1588d(%rip)        # 19a00 <__TMC_END__>
    4173:	5d                   	pop    %rbp
    4174:	c3                   	retq   
    4175:	0f 1f 00             	nopl   (%rax)
    4178:	c3                   	retq   
    4179:	0f 1f 80 00 00 00 00 	nopl   0x0(%rax)

0000000000004180 <frame_dummy>:
    4180:	f3 0f 1e fa          	endbr64 
    4184:	e9 77 ff ff ff       	jmpq   4100 <register_tm_clones>

0000000000004189 <platform_main_begin>:
    4189:	f3 0f 1e fa          	endbr64 
    418d:	55                   	push   %rbp
    418e:	48 89 e5             	mov    %rsp,%rbp
    4191:	90                   	nop
    4192:	5d                   	pop    %rbp
    4193:	c3                   	retq   

0000000000004194 <platform_main_end>:
    4194:	f3 0f 1e fa          	endbr64 
    4198:	55                   	push   %rbp
    4199:	48 89 e5             	mov    %rsp,%rbp
    419c:	48 83 ec 10          	sub    $0x10,%rsp
    41a0:	89 7d fc             	mov    %edi,-0x4(%rbp)
    41a3:	89 75 f8             	mov    %esi,-0x8(%rbp)
    41a6:	8b 45 fc             	mov    -0x4(%rbp),%eax
    41a9:	89 c6                	mov    %eax,%esi
    41ab:	48 8d 3d 6e ce 00 00 	lea    0xce6e(%rip),%rdi        # 11020 <_IO_stdin_used+0x20>
    41b2:	b8 00 00 00 00       	mov    $0x0,%eax
    41b7:	e8 c4 fe ff ff       	callq  4080 <printf@plt>
    41bc:	90                   	nop
    41bd:	c9                   	leaveq 
    41be:	c3                   	retq   

00000000000041bf <safe_unary_minus_func_int8_t_s>:
    41bf:	f3 0f 1e fa          	endbr64 
    41c3:	55                   	push   %rbp
    41c4:	48 89 e5             	mov    %rsp,%rbp
    41c7:	89 f8                	mov    %edi,%eax
    41c9:	88 45 fc             	mov    %al,-0x4(%rbp)
    41cc:	0f b6 45 fc          	movzbl -0x4(%rbp),%eax
    41d0:	f7 d8                	neg    %eax
    41d2:	5d                   	pop    %rbp
    41d3:	c3                   	retq   

00000000000041d4 <safe_add_func_int8_t_s_s>:
    41d4:	f3 0f 1e fa          	endbr64 
    41d8:	55                   	push   %rbp
    41d9:	48 89 e5             	mov    %rsp,%rbp
    41dc:	89 fa                	mov    %edi,%edx
    41de:	89 f0                	mov    %esi,%eax
    41e0:	88 55 fc             	mov    %dl,-0x4(%rbp)
    41e3:	88 45 f8             	mov    %al,-0x8(%rbp)
    41e6:	0f b6 55 fc          	movzbl -0x4(%rbp),%edx
    41ea:	0f b6 45 f8          	movzbl -0x8(%rbp),%eax
    41ee:	01 d0                	add    %edx,%eax
    41f0:	5d                   	pop    %rbp
    41f1:	c3                   	retq   

00000000000041f2 <safe_sub_func_int8_t_s_s>:
    41f2:	f3 0f 1e fa          	endbr64 
    41f6:	55                   	push   %rbp
    41f7:	48 89 e5             	mov    %rsp,%rbp
    41fa:	89 fa                	mov    %edi,%edx
    41fc:	89 f0                	mov    %esi,%eax
    41fe:	88 55 fc             	mov    %dl,-0x4(%rbp)
    4201:	88 45 f8             	mov    %al,-0x8(%rbp)
    4204:	0f b6 55 fc          	movzbl -0x4(%rbp),%edx
    4208:	0f b6 45 f8          	movzbl -0x8(%rbp),%eax
    420c:	29 c2                	sub    %eax,%edx
    420e:	89 d0                	mov    %edx,%eax
    4210:	5d                   	pop    %rbp
    4211:	c3                   	retq   

0000000000004212 <safe_mul_func_int8_t_s_s>:
    4212:	f3 0f 1e fa          	endbr64 
    4216:	55                   	push   %rbp
    4217:	48 89 e5             	mov    %rsp,%rbp
    421a:	89 fa                	mov    %edi,%edx
    421c:	89 f0                	mov    %esi,%eax
    421e:	88 55 fc             	mov    %dl,-0x4(%rbp)
    4221:	88 45 f8             	mov    %al,-0x8(%rbp)
    4224:	0f b6 45 fc          	movzbl -0x4(%rbp),%eax
    4228:	0f b6 55 f8          	movzbl -0x8(%rbp),%edx
    422c:	0f af c2             	imul   %edx,%eax
    422f:	5d                   	pop    %rbp
    4230:	c3                   	retq   

0000000000004231 <safe_mod_func_int8_t_s_s>:
    4231:	f3 0f 1e fa          	endbr64 
    4235:	55                   	push   %rbp
    4236:	48 89 e5             	mov    %rsp,%rbp
    4239:	89 fa                	mov    %edi,%edx
    423b:	89 f0                	mov    %esi,%eax
    423d:	88 55 fc             	mov    %dl,-0x4(%rbp)
    4240:	88 45 f8             	mov    %al,-0x8(%rbp)
    4243:	80 7d f8 00          	cmpb   $0x0,-0x8(%rbp)
    4247:	74 1b                	je     4264 <safe_mod_func_int8_t_s_s+0x33>
    4249:	80 7d fc 80          	cmpb   $0x80,-0x4(%rbp)
    424d:	75 06                	jne    4255 <safe_mod_func_int8_t_s_s+0x24>
    424f:	80 7d f8 ff          	cmpb   $0xff,-0x8(%rbp)
    4253:	74 0f                	je     4264 <safe_mod_func_int8_t_s_s+0x33>
    4255:	0f be 45 fc          	movsbl -0x4(%rbp),%eax
    4259:	0f be 4d f8          	movsbl -0x8(%rbp),%ecx
    425d:	99                   	cltd   
    425e:	f7 f9                	idiv   %ecx
    4260:	89 d0                	mov    %edx,%eax
    4262:	eb 04                	jmp    4268 <safe_mod_func_int8_t_s_s+0x37>
    4264:	0f b6 45 fc          	movzbl -0x4(%rbp),%eax
    4268:	5d                   	pop    %rbp
    4269:	c3                   	retq   

000000000000426a <safe_div_func_int8_t_s_s>:
    426a:	f3 0f 1e fa          	endbr64 
    426e:	55                   	push   %rbp
    426f:	48 89 e5             	mov    %rsp,%rbp
    4272:	89 fa                	mov    %edi,%edx
    4274:	89 f0                	mov    %esi,%eax
    4276:	88 55 fc             	mov    %dl,-0x4(%rbp)
    4279:	88 45 f8             	mov    %al,-0x8(%rbp)
    427c:	80 7d f8 00          	cmpb   $0x0,-0x8(%rbp)
    4280:	74 19                	je     429b <safe_div_func_int8_t_s_s+0x31>
    4282:	80 7d fc 80          	cmpb   $0x80,-0x4(%rbp)
    4286:	75 06                	jne    428e <safe_div_func_int8_t_s_s+0x24>
    4288:	80 7d f8 ff          	cmpb   $0xff,-0x8(%rbp)
    428c:	74 0d                	je     429b <safe_div_func_int8_t_s_s+0x31>
    428e:	0f be 45 fc          	movsbl -0x4(%rbp),%eax
    4292:	0f be 4d f8          	movsbl -0x8(%rbp),%ecx
    4296:	99                   	cltd   
    4297:	f7 f9                	idiv   %ecx
    4299:	eb 04                	jmp    429f <safe_div_func_int8_t_s_s+0x35>
    429b:	0f b6 45 fc          	movzbl -0x4(%rbp),%eax
    429f:	5d                   	pop    %rbp
    42a0:	c3                   	retq   

00000000000042a1 <safe_lshift_func_int8_t_s_s>:
    42a1:	f3 0f 1e fa          	endbr64 
    42a5:	55                   	push   %rbp
    42a6:	48 89 e5             	mov    %rsp,%rbp
    42a9:	89 f8                	mov    %edi,%eax
    42ab:	89 75 f8             	mov    %esi,-0x8(%rbp)
    42ae:	88 45 fc             	mov    %al,-0x4(%rbp)
    42b1:	80 7d fc 00          	cmpb   $0x0,-0x4(%rbp)
    42b5:	78 31                	js     42e8 <safe_lshift_func_int8_t_s_s+0x47>
    42b7:	83 7d f8 00          	cmpl   $0x0,-0x8(%rbp)
    42bb:	78 2b                	js     42e8 <safe_lshift_func_int8_t_s_s+0x47>
    42bd:	83 7d f8 1f          	cmpl   $0x1f,-0x8(%rbp)
    42c1:	7f 25                	jg     42e8 <safe_lshift_func_int8_t_s_s+0x47>
    42c3:	0f be 55 fc          	movsbl -0x4(%rbp),%edx
    42c7:	8b 45 f8             	mov    -0x8(%rbp),%eax
    42ca:	be 7f 00 00 00       	mov    $0x7f,%esi
    42cf:	89 c1                	mov    %eax,%ecx
    42d1:	d3 fe                	sar    %cl,%esi
    42d3:	89 f0                	mov    %esi,%eax
    42d5:	39 c2                	cmp    %eax,%edx
    42d7:	7f 0f                	jg     42e8 <safe_lshift_func_int8_t_s_s+0x47>
    42d9:	0f be 55 fc          	movsbl -0x4(%rbp),%edx
    42dd:	8b 45 f8             	mov    -0x8(%rbp),%eax
    42e0:	89 c1                	mov    %eax,%ecx
    42e2:	d3 e2                	shl    %cl,%edx
    42e4:	89 d0                	mov    %edx,%eax
    42e6:	eb 04                	jmp    42ec <safe_lshift_func_int8_t_s_s+0x4b>
    42e8:	0f b6 45 fc          	movzbl -0x4(%rbp),%eax
    42ec:	5d                   	pop    %rbp
    42ed:	c3                   	retq   

00000000000042ee <safe_lshift_func_int8_t_s_u>:
    42ee:	f3 0f 1e fa          	endbr64 
    42f2:	55                   	push   %rbp
    42f3:	48 89 e5             	mov    %rsp,%rbp
    42f6:	89 f8                	mov    %edi,%eax
    42f8:	89 75 f8             	mov    %esi,-0x8(%rbp)
    42fb:	88 45 fc             	mov    %al,-0x4(%rbp)
    42fe:	80 7d fc 00          	cmpb   $0x0,-0x4(%rbp)
    4302:	78 2b                	js     432f <safe_lshift_func_int8_t_s_u+0x41>
    4304:	83 7d f8 1f          	cmpl   $0x1f,-0x8(%rbp)
    4308:	77 25                	ja     432f <safe_lshift_func_int8_t_s_u+0x41>
    430a:	0f be 55 fc          	movsbl -0x4(%rbp),%edx
    430e:	8b 45 f8             	mov    -0x8(%rbp),%eax
    4311:	be 7f 00 00 00       	mov    $0x7f,%esi
    4316:	89 c1                	mov    %eax,%ecx
    4318:	d3 fe                	sar    %cl,%esi
    431a:	89 f0                	mov    %esi,%eax
    431c:	39 c2                	cmp    %eax,%edx
    431e:	7f 0f                	jg     432f <safe_lshift_func_int8_t_s_u+0x41>
    4320:	0f be 55 fc          	movsbl -0x4(%rbp),%edx
    4324:	8b 45 f8             	mov    -0x8(%rbp),%eax
    4327:	89 c1                	mov    %eax,%ecx
    4329:	d3 e2                	shl    %cl,%edx
    432b:	89 d0                	mov    %edx,%eax
    432d:	eb 04                	jmp    4333 <safe_lshift_func_int8_t_s_u+0x45>
    432f:	0f b6 45 fc          	movzbl -0x4(%rbp),%eax
    4333:	5d                   	pop    %rbp
    4334:	c3                   	retq   

0000000000004335 <safe_rshift_func_int8_t_s_s>:
    4335:	f3 0f 1e fa          	endbr64 
    4339:	55                   	push   %rbp
    433a:	48 89 e5             	mov    %rsp,%rbp
    433d:	89 f8                	mov    %edi,%eax
    433f:	89 75 f8             	mov    %esi,-0x8(%rbp)
    4342:	88 45 fc             	mov    %al,-0x4(%rbp)
    4345:	80 7d fc 00          	cmpb   $0x0,-0x4(%rbp)
    4349:	78 1b                	js     4366 <safe_rshift_func_int8_t_s_s+0x31>
    434b:	83 7d f8 00          	cmpl   $0x0,-0x8(%rbp)
    434f:	78 15                	js     4366 <safe_rshift_func_int8_t_s_s+0x31>
    4351:	83 7d f8 1f          	cmpl   $0x1f,-0x8(%rbp)
    4355:	7f 0f                	jg     4366 <safe_rshift_func_int8_t_s_s+0x31>
    4357:	0f be 55 fc          	movsbl -0x4(%rbp),%edx
    435b:	8b 45 f8             	mov    -0x8(%rbp),%eax
    435e:	89 c1                	mov    %eax,%ecx
    4360:	d3 fa                	sar    %cl,%edx
    4362:	89 d0                	mov    %edx,%eax
    4364:	eb 04                	jmp    436a <safe_rshift_func_int8_t_s_s+0x35>
    4366:	0f b6 45 fc          	movzbl -0x4(%rbp),%eax
    436a:	5d                   	pop    %rbp
    436b:	c3                   	retq   

000000000000436c <safe_rshift_func_int8_t_s_u>:
    436c:	f3 0f 1e fa          	endbr64 
    4370:	55                   	push   %rbp
    4371:	48 89 e5             	mov    %rsp,%rbp
    4374:	89 f8                	mov    %edi,%eax
    4376:	89 75 f8             	mov    %esi,-0x8(%rbp)
    4379:	88 45 fc             	mov    %al,-0x4(%rbp)
    437c:	80 7d fc 00          	cmpb   $0x0,-0x4(%rbp)
    4380:	78 15                	js     4397 <safe_rshift_func_int8_t_s_u+0x2b>
    4382:	83 7d f8 1f          	cmpl   $0x1f,-0x8(%rbp)
    4386:	77 0f                	ja     4397 <safe_rshift_func_int8_t_s_u+0x2b>
    4388:	0f be 55 fc          	movsbl -0x4(%rbp),%edx
    438c:	8b 45 f8             	mov    -0x8(%rbp),%eax
    438f:	89 c1                	mov    %eax,%ecx
    4391:	d3 fa                	sar    %cl,%edx
    4393:	89 d0                	mov    %edx,%eax
    4395:	eb 04                	jmp    439b <safe_rshift_func_int8_t_s_u+0x2f>
    4397:	0f b6 45 fc          	movzbl -0x4(%rbp),%eax
    439b:	5d                   	pop    %rbp
    439c:	c3                   	retq   

000000000000439d <safe_unary_minus_func_int16_t_s>:
    439d:	f3 0f 1e fa          	endbr64 
    43a1:	55                   	push   %rbp
    43a2:	48 89 e5             	mov    %rsp,%rbp
    43a5:	89 f8                	mov    %edi,%eax
    43a7:	66 89 45 fc          	mov    %ax,-0x4(%rbp)
    43ab:	0f b7 45 fc          	movzwl -0x4(%rbp),%eax
    43af:	f7 d8                	neg    %eax
    43b1:	5d                   	pop    %rbp
    43b2:	c3                   	retq   

00000000000043b3 <safe_add_func_int16_t_s_s>:
    43b3:	f3 0f 1e fa          	endbr64 
    43b7:	55                   	push   %rbp
    43b8:	48 89 e5             	mov    %rsp,%rbp
    43bb:	89 fa                	mov    %edi,%edx
    43bd:	89 f0                	mov    %esi,%eax
    43bf:	66 89 55 fc          	mov    %dx,-0x4(%rbp)
    43c3:	66 89 45 f8          	mov    %ax,-0x8(%rbp)
    43c7:	0f b7 55 fc          	movzwl -0x4(%rbp),%edx
    43cb:	0f b7 45 f8          	movzwl -0x8(%rbp),%eax
    43cf:	01 d0                	add    %edx,%eax
    43d1:	5d                   	pop    %rbp
    43d2:	c3                   	retq   

00000000000043d3 <safe_sub_func_int16_t_s_s>:
    43d3:	f3 0f 1e fa          	endbr64 
    43d7:	55                   	push   %rbp
    43d8:	48 89 e5             	mov    %rsp,%rbp
    43db:	89 fa                	mov    %edi,%edx
    43dd:	89 f0                	mov    %esi,%eax
    43df:	66 89 55 fc          	mov    %dx,-0x4(%rbp)
    43e3:	66 89 45 f8          	mov    %ax,-0x8(%rbp)
    43e7:	0f b7 55 fc          	movzwl -0x4(%rbp),%edx
    43eb:	0f b7 45 f8          	movzwl -0x8(%rbp),%eax
    43ef:	29 c2                	sub    %eax,%edx
    43f1:	89 d0                	mov    %edx,%eax
    43f3:	5d                   	pop    %rbp
    43f4:	c3                   	retq   

00000000000043f5 <safe_mul_func_int16_t_s_s>:
    43f5:	f3 0f 1e fa          	endbr64 
    43f9:	55                   	push   %rbp
    43fa:	48 89 e5             	mov    %rsp,%rbp
    43fd:	89 fa                	mov    %edi,%edx
    43ff:	89 f0                	mov    %esi,%eax
    4401:	66 89 55 fc          	mov    %dx,-0x4(%rbp)
    4405:	66 89 45 f8          	mov    %ax,-0x8(%rbp)
    4409:	0f b7 55 fc          	movzwl -0x4(%rbp),%edx
    440d:	0f b7 45 f8          	movzwl -0x8(%rbp),%eax
    4411:	0f af c2             	imul   %edx,%eax
    4414:	5d                   	pop    %rbp
    4415:	c3                   	retq   

0000000000004416 <safe_mod_func_int16_t_s_s>:
    4416:	f3 0f 1e fa          	endbr64 
    441a:	55                   	push   %rbp
    441b:	48 89 e5             	mov    %rsp,%rbp
    441e:	89 fa                	mov    %edi,%edx
    4420:	89 f0                	mov    %esi,%eax
    4422:	66 89 55 fc          	mov    %dx,-0x4(%rbp)
    4426:	66 89 45 f8          	mov    %ax,-0x8(%rbp)
    442a:	66 83 7d f8 00       	cmpw   $0x0,-0x8(%rbp)
    442f:	74 1e                	je     444f <safe_mod_func_int16_t_s_s+0x39>
    4431:	66 81 7d fc 00 80    	cmpw   $0x8000,-0x4(%rbp)
    4437:	75 07                	jne    4440 <safe_mod_func_int16_t_s_s+0x2a>
    4439:	66 83 7d f8 ff       	cmpw   $0xffff,-0x8(%rbp)
    443e:	74 0f                	je     444f <safe_mod_func_int16_t_s_s+0x39>
    4440:	0f bf 45 fc          	movswl -0x4(%rbp),%eax
    4444:	0f bf 4d f8          	movswl -0x8(%rbp),%ecx
    4448:	99                   	cltd   
    4449:	f7 f9                	idiv   %ecx
    444b:	89 d0                	mov    %edx,%eax
    444d:	eb 04                	jmp    4453 <safe_mod_func_int16_t_s_s+0x3d>
    444f:	0f b7 45 fc          	movzwl -0x4(%rbp),%eax
    4453:	5d                   	pop    %rbp
    4454:	c3                   	retq   

0000000000004455 <safe_div_func_int16_t_s_s>:
    4455:	f3 0f 1e fa          	endbr64 
    4459:	55                   	push   %rbp
    445a:	48 89 e5             	mov    %rsp,%rbp
    445d:	89 fa                	mov    %edi,%edx
    445f:	89 f0                	mov    %esi,%eax
    4461:	66 89 55 fc          	mov    %dx,-0x4(%rbp)
    4465:	66 89 45 f8          	mov    %ax,-0x8(%rbp)
    4469:	66 83 7d f8 00       	cmpw   $0x0,-0x8(%rbp)
    446e:	74 1c                	je     448c <safe_div_func_int16_t_s_s+0x37>
    4470:	66 81 7d fc 00 80    	cmpw   $0x8000,-0x4(%rbp)
    4476:	75 07                	jne    447f <safe_div_func_int16_t_s_s+0x2a>
    4478:	66 83 7d f8 ff       	cmpw   $0xffff,-0x8(%rbp)
    447d:	74 0d                	je     448c <safe_div_func_int16_t_s_s+0x37>
    447f:	0f bf 45 fc          	movswl -0x4(%rbp),%eax
    4483:	0f bf 4d f8          	movswl -0x8(%rbp),%ecx
    4487:	99                   	cltd   
    4488:	f7 f9                	idiv   %ecx
    448a:	eb 04                	jmp    4490 <safe_div_func_int16_t_s_s+0x3b>
    448c:	0f b7 45 fc          	movzwl -0x4(%rbp),%eax
    4490:	5d                   	pop    %rbp
    4491:	c3                   	retq   

0000000000004492 <safe_lshift_func_int16_t_s_s>:
    4492:	f3 0f 1e fa          	endbr64 
    4496:	55                   	push   %rbp
    4497:	48 89 e5             	mov    %rsp,%rbp
    449a:	89 f8                	mov    %edi,%eax
    449c:	89 75 f8             	mov    %esi,-0x8(%rbp)
    449f:	66 89 45 fc          	mov    %ax,-0x4(%rbp)
    44a3:	66 83 7d fc 00       	cmpw   $0x0,-0x4(%rbp)
    44a8:	78 31                	js     44db <safe_lshift_func_int16_t_s_s+0x49>
    44aa:	83 7d f8 00          	cmpl   $0x0,-0x8(%rbp)
    44ae:	78 2b                	js     44db <safe_lshift_func_int16_t_s_s+0x49>
    44b0:	83 7d f8 1f          	cmpl   $0x1f,-0x8(%rbp)
    44b4:	7f 25                	jg     44db <safe_lshift_func_int16_t_s_s+0x49>
    44b6:	0f bf 55 fc          	movswl -0x4(%rbp),%edx
    44ba:	8b 45 f8             	mov    -0x8(%rbp),%eax
    44bd:	be ff 7f 00 00       	mov    $0x7fff,%esi
    44c2:	89 c1                	mov    %eax,%ecx
    44c4:	d3 fe                	sar    %cl,%esi
    44c6:	89 f0                	mov    %esi,%eax
    44c8:	39 c2                	cmp    %eax,%edx
    44ca:	7f 0f                	jg     44db <safe_lshift_func_int16_t_s_s+0x49>
    44cc:	0f bf 55 fc          	movswl -0x4(%rbp),%edx
    44d0:	8b 45 f8             	mov    -0x8(%rbp),%eax
    44d3:	89 c1                	mov    %eax,%ecx
    44d5:	d3 e2                	shl    %cl,%edx
    44d7:	89 d0                	mov    %edx,%eax
    44d9:	eb 04                	jmp    44df <safe_lshift_func_int16_t_s_s+0x4d>
    44db:	0f b7 45 fc          	movzwl -0x4(%rbp),%eax
    44df:	5d                   	pop    %rbp
    44e0:	c3                   	retq   

00000000000044e1 <safe_lshift_func_int16_t_s_u>:
    44e1:	f3 0f 1e fa          	endbr64 
    44e5:	55                   	push   %rbp
    44e6:	48 89 e5             	mov    %rsp,%rbp
    44e9:	89 f8                	mov    %edi,%eax
    44eb:	89 75 f8             	mov    %esi,-0x8(%rbp)
    44ee:	66 89 45 fc          	mov    %ax,-0x4(%rbp)
    44f2:	66 83 7d fc 00       	cmpw   $0x0,-0x4(%rbp)
    44f7:	78 2b                	js     4524 <safe_lshift_func_int16_t_s_u+0x43>
    44f9:	83 7d f8 1f          	cmpl   $0x1f,-0x8(%rbp)
    44fd:	77 25                	ja     4524 <safe_lshift_func_int16_t_s_u+0x43>
    44ff:	0f bf 55 fc          	movswl -0x4(%rbp),%edx
    4503:	8b 45 f8             	mov    -0x8(%rbp),%eax
    4506:	be ff 7f 00 00       	mov    $0x7fff,%esi
    450b:	89 c1                	mov    %eax,%ecx
    450d:	d3 fe                	sar    %cl,%esi
    450f:	89 f0                	mov    %esi,%eax
    4511:	39 c2                	cmp    %eax,%edx
    4513:	7f 0f                	jg     4524 <safe_lshift_func_int16_t_s_u+0x43>
    4515:	0f bf 55 fc          	movswl -0x4(%rbp),%edx
    4519:	8b 45 f8             	mov    -0x8(%rbp),%eax
    451c:	89 c1                	mov    %eax,%ecx
    451e:	d3 e2                	shl    %cl,%edx
    4520:	89 d0                	mov    %edx,%eax
    4522:	eb 04                	jmp    4528 <safe_lshift_func_int16_t_s_u+0x47>
    4524:	0f b7 45 fc          	movzwl -0x4(%rbp),%eax
    4528:	5d                   	pop    %rbp
    4529:	c3                   	retq   

000000000000452a <safe_rshift_func_int16_t_s_s>:
    452a:	f3 0f 1e fa          	endbr64 
    452e:	55                   	push   %rbp
    452f:	48 89 e5             	mov    %rsp,%rbp
    4532:	89 f8                	mov    %edi,%eax
    4534:	89 75 f8             	mov    %esi,-0x8(%rbp)
    4537:	66 89 45 fc          	mov    %ax,-0x4(%rbp)
    453b:	66 83 7d fc 00       	cmpw   $0x0,-0x4(%rbp)
    4540:	78 1b                	js     455d <safe_rshift_func_int16_t_s_s+0x33>
    4542:	83 7d f8 00          	cmpl   $0x0,-0x8(%rbp)
    4546:	78 15                	js     455d <safe_rshift_func_int16_t_s_s+0x33>
    4548:	83 7d f8 1f          	cmpl   $0x1f,-0x8(%rbp)
    454c:	7f 0f                	jg     455d <safe_rshift_func_int16_t_s_s+0x33>
    454e:	0f bf 55 fc          	movswl -0x4(%rbp),%edx
    4552:	8b 45 f8             	mov    -0x8(%rbp),%eax
    4555:	89 c1                	mov    %eax,%ecx
    4557:	d3 fa                	sar    %cl,%edx
    4559:	89 d0                	mov    %edx,%eax
    455b:	eb 04                	jmp    4561 <safe_rshift_func_int16_t_s_s+0x37>
    455d:	0f b7 45 fc          	movzwl -0x4(%rbp),%eax
    4561:	5d                   	pop    %rbp
    4562:	c3                   	retq   

0000000000004563 <safe_rshift_func_int16_t_s_u>:
    4563:	f3 0f 1e fa          	endbr64 
    4567:	55                   	push   %rbp
    4568:	48 89 e5             	mov    %rsp,%rbp
    456b:	89 f8                	mov    %edi,%eax
    456d:	89 75 f8             	mov    %esi,-0x8(%rbp)
    4570:	66 89 45 fc          	mov    %ax,-0x4(%rbp)
    4574:	66 83 7d fc 00       	cmpw   $0x0,-0x4(%rbp)
    4579:	78 15                	js     4590 <safe_rshift_func_int16_t_s_u+0x2d>
    457b:	83 7d f8 1f          	cmpl   $0x1f,-0x8(%rbp)
    457f:	77 0f                	ja     4590 <safe_rshift_func_int16_t_s_u+0x2d>
    4581:	0f bf 55 fc          	movswl -0x4(%rbp),%edx
    4585:	8b 45 f8             	mov    -0x8(%rbp),%eax
    4588:	89 c1                	mov    %eax,%ecx
    458a:	d3 fa                	sar    %cl,%edx
    458c:	89 d0                	mov    %edx,%eax
    458e:	eb 04                	jmp    4594 <safe_rshift_func_int16_t_s_u+0x31>
    4590:	0f b7 45 fc          	movzwl -0x4(%rbp),%eax
    4594:	5d                   	pop    %rbp
    4595:	c3                   	retq   

0000000000004596 <safe_unary_minus_func_int32_t_s>:
    4596:	f3 0f 1e fa          	endbr64 
    459a:	55                   	push   %rbp
    459b:	48 89 e5             	mov    %rsp,%rbp
    459e:	89 7d fc             	mov    %edi,-0x4(%rbp)
    45a1:	81 7d fc 00 00 00 80 	cmpl   $0x80000000,-0x4(%rbp)
    45a8:	74 07                	je     45b1 <safe_unary_minus_func_int32_t_s+0x1b>
    45aa:	8b 45 fc             	mov    -0x4(%rbp),%eax
    45ad:	f7 d8                	neg    %eax
    45af:	eb 03                	jmp    45b4 <safe_unary_minus_func_int32_t_s+0x1e>
    45b1:	8b 45 fc             	mov    -0x4(%rbp),%eax
    45b4:	5d                   	pop    %rbp
    45b5:	c3                   	retq   

00000000000045b6 <safe_add_func_int32_t_s_s>:
    45b6:	f3 0f 1e fa          	endbr64 
    45ba:	55                   	push   %rbp
    45bb:	48 89 e5             	mov    %rsp,%rbp
    45be:	89 7d fc             	mov    %edi,-0x4(%rbp)
    45c1:	89 75 f8             	mov    %esi,-0x8(%rbp)
    45c4:	83 7d fc 00          	cmpl   $0x0,-0x4(%rbp)
    45c8:	7e 13                	jle    45dd <safe_add_func_int32_t_s_s+0x27>
    45ca:	83 7d f8 00          	cmpl   $0x0,-0x8(%rbp)
    45ce:	7e 0d                	jle    45dd <safe_add_func_int32_t_s_s+0x27>
    45d0:	b8 ff ff ff 7f       	mov    $0x7fffffff,%eax
    45d5:	2b 45 f8             	sub    -0x8(%rbp),%eax
    45d8:	39 45 fc             	cmp    %eax,-0x4(%rbp)
    45db:	7f 23                	jg     4600 <safe_add_func_int32_t_s_s+0x4a>
    45dd:	83 7d fc 00          	cmpl   $0x0,-0x4(%rbp)
    45e1:	79 13                	jns    45f6 <safe_add_func_int32_t_s_s+0x40>
    45e3:	83 7d f8 00          	cmpl   $0x0,-0x8(%rbp)
    45e7:	79 0d                	jns    45f6 <safe_add_func_int32_t_s_s+0x40>
    45e9:	b8 00 00 00 80       	mov    $0x80000000,%eax
    45ee:	2b 45 f8             	sub    -0x8(%rbp),%eax
    45f1:	39 45 fc             	cmp    %eax,-0x4(%rbp)
    45f4:	7c 0a                	jl     4600 <safe_add_func_int32_t_s_s+0x4a>
    45f6:	8b 55 fc             	mov    -0x4(%rbp),%edx
    45f9:	8b 45 f8             	mov    -0x8(%rbp),%eax
    45fc:	01 d0                	add    %edx,%eax
    45fe:	eb 03                	jmp    4603 <safe_add_func_int32_t_s_s+0x4d>
    4600:	8b 45 fc             	mov    -0x4(%rbp),%eax
    4603:	5d                   	pop    %rbp
    4604:	c3                   	retq   

0000000000004605 <safe_sub_func_int32_t_s_s>:
    4605:	f3 0f 1e fa          	endbr64 
    4609:	55                   	push   %rbp
    460a:	48 89 e5             	mov    %rsp,%rbp
    460d:	89 7d fc             	mov    %edi,-0x4(%rbp)
    4610:	89 75 f8             	mov    %esi,-0x8(%rbp)
    4613:	8b 45 fc             	mov    -0x4(%rbp),%eax
    4616:	33 45 f8             	xor    -0x8(%rbp),%eax
    4619:	89 c2                	mov    %eax,%edx
    461b:	8b 45 fc             	mov    -0x4(%rbp),%eax
    461e:	33 45 f8             	xor    -0x8(%rbp),%eax
    4621:	25 00 00 00 80       	and    $0x80000000,%eax
    4626:	33 45 fc             	xor    -0x4(%rbp),%eax
    4629:	2b 45 f8             	sub    -0x8(%rbp),%eax
    462c:	33 45 f8             	xor    -0x8(%rbp),%eax
    462f:	21 d0                	and    %edx,%eax
    4631:	85 c0                	test   %eax,%eax
    4633:	78 08                	js     463d <safe_sub_func_int32_t_s_s+0x38>
    4635:	8b 45 fc             	mov    -0x4(%rbp),%eax
    4638:	2b 45 f8             	sub    -0x8(%rbp),%eax
    463b:	eb 03                	jmp    4640 <safe_sub_func_int32_t_s_s+0x3b>
    463d:	8b 45 fc             	mov    -0x4(%rbp),%eax
    4640:	5d                   	pop    %rbp
    4641:	c3                   	retq   

0000000000004642 <safe_mul_func_int32_t_s_s>:
    4642:	f3 0f 1e fa          	endbr64 
    4646:	55                   	push   %rbp
    4647:	48 89 e5             	mov    %rsp,%rbp
    464a:	89 7d fc             	mov    %edi,-0x4(%rbp)
    464d:	89 75 f8             	mov    %esi,-0x8(%rbp)
    4650:	83 7d fc 00          	cmpl   $0x0,-0x4(%rbp)
    4654:	7e 14                	jle    466a <safe_mul_func_int32_t_s_s+0x28>
    4656:	83 7d f8 00          	cmpl   $0x0,-0x8(%rbp)
    465a:	7e 0e                	jle    466a <safe_mul_func_int32_t_s_s+0x28>
    465c:	b8 ff ff ff 7f       	mov    $0x7fffffff,%eax
    4661:	99                   	cltd   
    4662:	f7 7d f8             	idivl  -0x8(%rbp)
    4665:	39 45 fc             	cmp    %eax,-0x4(%rbp)
    4668:	7f 5d                	jg     46c7 <safe_mul_func_int32_t_s_s+0x85>
    466a:	83 7d fc 00          	cmpl   $0x0,-0x4(%rbp)
    466e:	7e 14                	jle    4684 <safe_mul_func_int32_t_s_s+0x42>
    4670:	83 7d f8 00          	cmpl   $0x0,-0x8(%rbp)
    4674:	7f 0e                	jg     4684 <safe_mul_func_int32_t_s_s+0x42>
    4676:	b8 00 00 00 80       	mov    $0x80000000,%eax
    467b:	99                   	cltd   
    467c:	f7 7d fc             	idivl  -0x4(%rbp)
    467f:	39 45 f8             	cmp    %eax,-0x8(%rbp)
    4682:	7c 43                	jl     46c7 <safe_mul_func_int32_t_s_s+0x85>
    4684:	83 7d fc 00          	cmpl   $0x0,-0x4(%rbp)
    4688:	7f 14                	jg     469e <safe_mul_func_int32_t_s_s+0x5c>
    468a:	83 7d f8 00          	cmpl   $0x0,-0x8(%rbp)
    468e:	7e 0e                	jle    469e <safe_mul_func_int32_t_s_s+0x5c>
    4690:	b8 00 00 00 80       	mov    $0x80000000,%eax
    4695:	99                   	cltd   
    4696:	f7 7d f8             	idivl  -0x8(%rbp)
    4699:	39 45 fc             	cmp    %eax,-0x4(%rbp)
    469c:	7c 29                	jl     46c7 <safe_mul_func_int32_t_s_s+0x85>
    469e:	83 7d fc 00          	cmpl   $0x0,-0x4(%rbp)
    46a2:	7f 1a                	jg     46be <safe_mul_func_int32_t_s_s+0x7c>
    46a4:	83 7d f8 00          	cmpl   $0x0,-0x8(%rbp)
    46a8:	7f 14                	jg     46be <safe_mul_func_int32_t_s_s+0x7c>
    46aa:	83 7d fc 00          	cmpl   $0x0,-0x4(%rbp)
    46ae:	74 0e                	je     46be <safe_mul_func_int32_t_s_s+0x7c>
    46b0:	b8 ff ff ff 7f       	mov    $0x7fffffff,%eax
    46b5:	99                   	cltd   
    46b6:	f7 7d fc             	idivl  -0x4(%rbp)
    46b9:	39 45 f8             	cmp    %eax,-0x8(%rbp)
    46bc:	7c 09                	jl     46c7 <safe_mul_func_int32_t_s_s+0x85>
    46be:	8b 45 fc             	mov    -0x4(%rbp),%eax
    46c1:	0f af 45 f8          	imul   -0x8(%rbp),%eax
    46c5:	eb 03                	jmp    46ca <safe_mul_func_int32_t_s_s+0x88>
    46c7:	8b 45 fc             	mov    -0x4(%rbp),%eax
    46ca:	5d                   	pop    %rbp
    46cb:	c3                   	retq   

00000000000046cc <safe_mod_func_int32_t_s_s>:
    46cc:	f3 0f 1e fa          	endbr64 
    46d0:	55                   	push   %rbp
    46d1:	48 89 e5             	mov    %rsp,%rbp
    46d4:	89 7d fc             	mov    %edi,-0x4(%rbp)
    46d7:	89 75 f8             	mov    %esi,-0x8(%rbp)
    46da:	83 7d f8 00          	cmpl   $0x0,-0x8(%rbp)
    46de:	74 1a                	je     46fa <safe_mod_func_int32_t_s_s+0x2e>
    46e0:	81 7d fc 00 00 00 80 	cmpl   $0x80000000,-0x4(%rbp)
    46e7:	75 06                	jne    46ef <safe_mod_func_int32_t_s_s+0x23>
    46e9:	83 7d f8 ff          	cmpl   $0xffffffff,-0x8(%rbp)
    46ed:	74 0b                	je     46fa <safe_mod_func_int32_t_s_s+0x2e>
    46ef:	8b 45 fc             	mov    -0x4(%rbp),%eax
    46f2:	99                   	cltd   
    46f3:	f7 7d f8             	idivl  -0x8(%rbp)
    46f6:	89 d0                	mov    %edx,%eax
    46f8:	eb 03                	jmp    46fd <safe_mod_func_int32_t_s_s+0x31>
    46fa:	8b 45 fc             	mov    -0x4(%rbp),%eax
    46fd:	5d                   	pop    %rbp
    46fe:	c3                   	retq   

00000000000046ff <safe_div_func_int32_t_s_s>:
    46ff:	f3 0f 1e fa          	endbr64 
    4703:	55                   	push   %rbp
    4704:	48 89 e5             	mov    %rsp,%rbp
    4707:	89 7d fc             	mov    %edi,-0x4(%rbp)
    470a:	89 75 f8             	mov    %esi,-0x8(%rbp)
    470d:	83 7d f8 00          	cmpl   $0x0,-0x8(%rbp)
    4711:	74 18                	je     472b <safe_div_func_int32_t_s_s+0x2c>
    4713:	81 7d fc 00 00 00 80 	cmpl   $0x80000000,-0x4(%rbp)
    471a:	75 06                	jne    4722 <safe_div_func_int32_t_s_s+0x23>
    471c:	83 7d f8 ff          	cmpl   $0xffffffff,-0x8(%rbp)
    4720:	74 09                	je     472b <safe_div_func_int32_t_s_s+0x2c>
    4722:	8b 45 fc             	mov    -0x4(%rbp),%eax
    4725:	99                   	cltd   
    4726:	f7 7d f8             	idivl  -0x8(%rbp)
    4729:	eb 03                	jmp    472e <safe_div_func_int32_t_s_s+0x2f>
    472b:	8b 45 fc             	mov    -0x4(%rbp),%eax
    472e:	5d                   	pop    %rbp
    472f:	c3                   	retq   

0000000000004730 <safe_lshift_func_int32_t_s_s>:
    4730:	f3 0f 1e fa          	endbr64 
    4734:	55                   	push   %rbp
    4735:	48 89 e5             	mov    %rsp,%rbp
    4738:	89 7d fc             	mov    %edi,-0x4(%rbp)
    473b:	89 75 f8             	mov    %esi,-0x8(%rbp)
    473e:	83 7d fc 00          	cmpl   $0x0,-0x4(%rbp)
    4742:	78 2d                	js     4771 <safe_lshift_func_int32_t_s_s+0x41>
    4744:	83 7d f8 00          	cmpl   $0x0,-0x8(%rbp)
    4748:	78 27                	js     4771 <safe_lshift_func_int32_t_s_s+0x41>
    474a:	83 7d f8 1f          	cmpl   $0x1f,-0x8(%rbp)
    474e:	7f 21                	jg     4771 <safe_lshift_func_int32_t_s_s+0x41>
    4750:	8b 45 f8             	mov    -0x8(%rbp),%eax
    4753:	ba ff ff ff 7f       	mov    $0x7fffffff,%edx
    4758:	89 c1                	mov    %eax,%ecx
    475a:	d3 fa                	sar    %cl,%edx
    475c:	89 d0                	mov    %edx,%eax
    475e:	39 45 fc             	cmp    %eax,-0x4(%rbp)
    4761:	7f 0e                	jg     4771 <safe_lshift_func_int32_t_s_s+0x41>
    4763:	8b 45 f8             	mov    -0x8(%rbp),%eax
    4766:	8b 55 fc             	mov    -0x4(%rbp),%edx
    4769:	89 c1                	mov    %eax,%ecx
    476b:	d3 e2                	shl    %cl,%edx
    476d:	89 d0                	mov    %edx,%eax
    476f:	eb 03                	jmp    4774 <safe_lshift_func_int32_t_s_s+0x44>
    4771:	8b 45 fc             	mov    -0x4(%rbp),%eax
    4774:	5d                   	pop    %rbp
    4775:	c3                   	retq   

0000000000004776 <safe_lshift_func_int32_t_s_u>:
    4776:	f3 0f 1e fa          	endbr64 
    477a:	55                   	push   %rbp
    477b:	48 89 e5             	mov    %rsp,%rbp
    477e:	89 7d fc             	mov    %edi,-0x4(%rbp)
    4781:	89 75 f8             	mov    %esi,-0x8(%rbp)
    4784:	83 7d fc 00          	cmpl   $0x0,-0x4(%rbp)
    4788:	78 27                	js     47b1 <safe_lshift_func_int32_t_s_u+0x3b>
    478a:	83 7d f8 1f          	cmpl   $0x1f,-0x8(%rbp)
    478e:	77 21                	ja     47b1 <safe_lshift_func_int32_t_s_u+0x3b>
    4790:	8b 45 f8             	mov    -0x8(%rbp),%eax
    4793:	ba ff ff ff 7f       	mov    $0x7fffffff,%edx
    4798:	89 c1                	mov    %eax,%ecx
    479a:	d3 fa                	sar    %cl,%edx
    479c:	89 d0                	mov    %edx,%eax
    479e:	39 45 fc             	cmp    %eax,-0x4(%rbp)
    47a1:	7f 0e                	jg     47b1 <safe_lshift_func_int32_t_s_u+0x3b>
    47a3:	8b 45 f8             	mov    -0x8(%rbp),%eax
    47a6:	8b 55 fc             	mov    -0x4(%rbp),%edx
    47a9:	89 c1                	mov    %eax,%ecx
    47ab:	d3 e2                	shl    %cl,%edx
    47ad:	89 d0                	mov    %edx,%eax
    47af:	eb 03                	jmp    47b4 <safe_lshift_func_int32_t_s_u+0x3e>
    47b1:	8b 45 fc             	mov    -0x4(%rbp),%eax
    47b4:	5d                   	pop    %rbp
    47b5:	c3                   	retq   

00000000000047b6 <safe_rshift_func_int32_t_s_s>:
    47b6:	f3 0f 1e fa          	endbr64 
    47ba:	55                   	push   %rbp
    47bb:	48 89 e5             	mov    %rsp,%rbp
    47be:	89 7d fc             	mov    %edi,-0x4(%rbp)
    47c1:	89 75 f8             	mov    %esi,-0x8(%rbp)
    47c4:	83 7d fc 00          	cmpl   $0x0,-0x4(%rbp)
    47c8:	78 1a                	js     47e4 <safe_rshift_func_int32_t_s_s+0x2e>
    47ca:	83 7d f8 00          	cmpl   $0x0,-0x8(%rbp)
    47ce:	78 14                	js     47e4 <safe_rshift_func_int32_t_s_s+0x2e>
    47d0:	83 7d f8 1f          	cmpl   $0x1f,-0x8(%rbp)
    47d4:	7f 0e                	jg     47e4 <safe_rshift_func_int32_t_s_s+0x2e>
    47d6:	8b 45 f8             	mov    -0x8(%rbp),%eax
    47d9:	8b 55 fc             	mov    -0x4(%rbp),%edx
    47dc:	89 c1                	mov    %eax,%ecx
    47de:	d3 fa                	sar    %cl,%edx
    47e0:	89 d0                	mov    %edx,%eax
    47e2:	eb 03                	jmp    47e7 <safe_rshift_func_int32_t_s_s+0x31>
    47e4:	8b 45 fc             	mov    -0x4(%rbp),%eax
    47e7:	5d                   	pop    %rbp
    47e8:	c3                   	retq   

00000000000047e9 <safe_rshift_func_int32_t_s_u>:
    47e9:	f3 0f 1e fa          	endbr64 
    47ed:	55                   	push   %rbp
    47ee:	48 89 e5             	mov    %rsp,%rbp
    47f1:	89 7d fc             	mov    %edi,-0x4(%rbp)
    47f4:	89 75 f8             	mov    %esi,-0x8(%rbp)
    47f7:	83 7d fc 00          	cmpl   $0x0,-0x4(%rbp)
    47fb:	78 14                	js     4811 <safe_rshift_func_int32_t_s_u+0x28>
    47fd:	83 7d f8 1f          	cmpl   $0x1f,-0x8(%rbp)
    4801:	77 0e                	ja     4811 <safe_rshift_func_int32_t_s_u+0x28>
    4803:	8b 45 f8             	mov    -0x8(%rbp),%eax
    4806:	8b 55 fc             	mov    -0x4(%rbp),%edx
    4809:	89 c1                	mov    %eax,%ecx
    480b:	d3 fa                	sar    %cl,%edx
    480d:	89 d0                	mov    %edx,%eax
    480f:	eb 03                	jmp    4814 <safe_rshift_func_int32_t_s_u+0x2b>
    4811:	8b 45 fc             	mov    -0x4(%rbp),%eax
    4814:	5d                   	pop    %rbp
    4815:	c3                   	retq   

0000000000004816 <safe_unary_minus_func_int64_t_s>:
    4816:	f3 0f 1e fa          	endbr64 
    481a:	55                   	push   %rbp
    481b:	48 89 e5             	mov    %rsp,%rbp
    481e:	48 89 7d f8          	mov    %rdi,-0x8(%rbp)
    4822:	48 b8 00 00 00 00 00 	movabs $0x8000000000000000,%rax
    4829:	00 00 80 
    482c:	48 39 45 f8          	cmp    %rax,-0x8(%rbp)
    4830:	74 09                	je     483b <safe_unary_minus_func_int64_t_s+0x25>
    4832:	48 8b 45 f8          	mov    -0x8(%rbp),%rax
    4836:	48 f7 d8             	neg    %rax
    4839:	eb 04                	jmp    483f <safe_unary_minus_func_int64_t_s+0x29>
    483b:	48 8b 45 f8          	mov    -0x8(%rbp),%rax
    483f:	5d                   	pop    %rbp
    4840:	c3                   	retq   

0000000000004841 <safe_add_func_int64_t_s_s>:
    4841:	f3 0f 1e fa          	endbr64 
    4845:	55                   	push   %rbp
    4846:	48 89 e5             	mov    %rsp,%rbp
    4849:	48 89 7d f8          	mov    %rdi,-0x8(%rbp)
    484d:	48 89 75 f0          	mov    %rsi,-0x10(%rbp)
    4851:	48 83 7d f8 00       	cmpq   $0x0,-0x8(%rbp)
    4856:	7e 1b                	jle    4873 <safe_add_func_int64_t_s_s+0x32>
    4858:	48 83 7d f0 00       	cmpq   $0x0,-0x10(%rbp)
    485d:	7e 14                	jle    4873 <safe_add_func_int64_t_s_s+0x32>
    485f:	48 b8 ff ff ff ff ff 	movabs $0x7fffffffffffffff,%rax
    4866:	ff ff 7f 
    4869:	48 2b 45 f0          	sub    -0x10(%rbp),%rax
    486d:	48 39 45 f8          	cmp    %rax,-0x8(%rbp)
    4871:	7f 2f                	jg     48a2 <safe_add_func_int64_t_s_s+0x61>
    4873:	48 83 7d f8 00       	cmpq   $0x0,-0x8(%rbp)
    4878:	79 1b                	jns    4895 <safe_add_func_int64_t_s_s+0x54>
    487a:	48 83 7d f0 00       	cmpq   $0x0,-0x10(%rbp)
    487f:	79 14                	jns    4895 <safe_add_func_int64_t_s_s+0x54>
    4881:	48 b8 00 00 00 00 00 	movabs $0x8000000000000000,%rax
    4888:	00 00 80 
    488b:	48 2b 45 f0          	sub    -0x10(%rbp),%rax
    488f:	48 39 45 f8          	cmp    %rax,-0x8(%rbp)
    4893:	7c 0d                	jl     48a2 <safe_add_func_int64_t_s_s+0x61>
    4895:	48 8b 55 f8          	mov    -0x8(%rbp),%rdx
    4899:	48 8b 45 f0          	mov    -0x10(%rbp),%rax
    489d:	48 01 d0             	add    %rdx,%rax
    48a0:	eb 04                	jmp    48a6 <safe_add_func_int64_t_s_s+0x65>
    48a2:	48 8b 45 f8          	mov    -0x8(%rbp),%rax
    48a6:	5d                   	pop    %rbp
    48a7:	c3                   	retq   

00000000000048a8 <safe_sub_func_int64_t_s_s>:
    48a8:	f3 0f 1e fa          	endbr64 
    48ac:	55                   	push   %rbp
    48ad:	48 89 e5             	mov    %rsp,%rbp
    48b0:	48 89 7d f8          	mov    %rdi,-0x8(%rbp)
    48b4:	48 89 75 f0          	mov    %rsi,-0x10(%rbp)
    48b8:	48 8b 45 f8          	mov    -0x8(%rbp),%rax
    48bc:	48 33 45 f0          	xor    -0x10(%rbp),%rax
    48c0:	48 89 c2             	mov    %rax,%rdx
    48c3:	48 8b 45 f8          	mov    -0x8(%rbp),%rax
    48c7:	48 33 45 f0          	xor    -0x10(%rbp),%rax
    48cb:	48 b9 00 00 00 00 00 	movabs $0x8000000000000000,%rcx
    48d2:	00 00 80 
    48d5:	48 21 c8             	and    %rcx,%rax
    48d8:	48 33 45 f8          	xor    -0x8(%rbp),%rax
    48dc:	48 2b 45 f0          	sub    -0x10(%rbp),%rax
    48e0:	48 33 45 f0          	xor    -0x10(%rbp),%rax
    48e4:	48 21 d0             	and    %rdx,%rax
    48e7:	48 85 c0             	test   %rax,%rax
    48ea:	78 0a                	js     48f6 <safe_sub_func_int64_t_s_s+0x4e>
    48ec:	48 8b 45 f8          	mov    -0x8(%rbp),%rax
    48f0:	48 2b 45 f0          	sub    -0x10(%rbp),%rax
    48f4:	eb 04                	jmp    48fa <safe_sub_func_int64_t_s_s+0x52>
    48f6:	48 8b 45 f8          	mov    -0x8(%rbp),%rax
    48fa:	5d                   	pop    %rbp
    48fb:	c3                   	retq   

00000000000048fc <safe_mul_func_int64_t_s_s>:
    48fc:	f3 0f 1e fa          	endbr64 
    4900:	55                   	push   %rbp
    4901:	48 89 e5             	mov    %rsp,%rbp
    4904:	48 89 7d f8          	mov    %rdi,-0x8(%rbp)
    4908:	48 89 75 f0          	mov    %rsi,-0x10(%rbp)
    490c:	48 83 7d f8 00       	cmpq   $0x0,-0x8(%rbp)
    4911:	7e 1d                	jle    4930 <safe_mul_func_int64_t_s_s+0x34>
    4913:	48 83 7d f0 00       	cmpq   $0x0,-0x10(%rbp)
    4918:	7e 16                	jle    4930 <safe_mul_func_int64_t_s_s+0x34>
    491a:	48 b8 ff ff ff ff ff 	movabs $0x7fffffffffffffff,%rax
    4921:	ff ff 7f 
    4924:	48 99                	cqto   
    4926:	48 f7 7d f0          	idivq  -0x10(%rbp)
    492a:	48 39 45 f8          	cmp    %rax,-0x8(%rbp)
    492e:	7f 7e                	jg     49ae <safe_mul_func_int64_t_s_s+0xb2>
    4930:	48 83 7d f8 00       	cmpq   $0x0,-0x8(%rbp)
    4935:	7e 1d                	jle    4954 <safe_mul_func_int64_t_s_s+0x58>
    4937:	48 83 7d f0 00       	cmpq   $0x0,-0x10(%rbp)
    493c:	7f 16                	jg     4954 <safe_mul_func_int64_t_s_s+0x58>
    493e:	48 b8 00 00 00 00 00 	movabs $0x8000000000000000,%rax
    4945:	00 00 80 
    4948:	48 99                	cqto   
    494a:	48 f7 7d f8          	idivq  -0x8(%rbp)
    494e:	48 39 45 f0          	cmp    %rax,-0x10(%rbp)
    4952:	7c 5a                	jl     49ae <safe_mul_func_int64_t_s_s+0xb2>
    4954:	48 83 7d f8 00       	cmpq   $0x0,-0x8(%rbp)
    4959:	7f 1d                	jg     4978 <safe_mul_func_int64_t_s_s+0x7c>
    495b:	48 83 7d f0 00       	cmpq   $0x0,-0x10(%rbp)
    4960:	7e 16                	jle    4978 <safe_mul_func_int64_t_s_s+0x7c>
    4962:	48 b8 00 00 00 00 00 	movabs $0x8000000000000000,%rax
    4969:	00 00 80 
    496c:	48 99                	cqto   
    496e:	48 f7 7d f0          	idivq  -0x10(%rbp)
    4972:	48 39 45 f8          	cmp    %rax,-0x8(%rbp)
    4976:	7c 36                	jl     49ae <safe_mul_func_int64_t_s_s+0xb2>
    4978:	48 83 7d f8 00       	cmpq   $0x0,-0x8(%rbp)
    497d:	7f 24                	jg     49a3 <safe_mul_func_int64_t_s_s+0xa7>
    497f:	48 83 7d f0 00       	cmpq   $0x0,-0x10(%rbp)
    4984:	7f 1d                	jg     49a3 <safe_mul_func_int64_t_s_s+0xa7>
    4986:	48 83 7d f8 00       	cmpq   $0x0,-0x8(%rbp)
    498b:	74 16                	je     49a3 <safe_mul_func_int64_t_s_s+0xa7>
    498d:	48 b8 ff ff ff ff ff 	movabs $0x7fffffffffffffff,%rax
    4994:	ff ff 7f 
    4997:	48 99                	cqto   
    4999:	48 f7 7d f8          	idivq  -0x8(%rbp)
    499d:	48 39 45 f0          	cmp    %rax,-0x10(%rbp)
    49a1:	7c 0b                	jl     49ae <safe_mul_func_int64_t_s_s+0xb2>
    49a3:	48 8b 45 f8          	mov    -0x8(%rbp),%rax
    49a7:	48 0f af 45 f0       	imul   -0x10(%rbp),%rax
    49ac:	eb 04                	jmp    49b2 <safe_mul_func_int64_t_s_s+0xb6>
    49ae:	48 8b 45 f8          	mov    -0x8(%rbp),%rax
    49b2:	5d                   	pop    %rbp
    49b3:	c3                   	retq   

00000000000049b4 <safe_mod_func_int64_t_s_s>:
    49b4:	f3 0f 1e fa          	endbr64 
    49b8:	55                   	push   %rbp
    49b9:	48 89 e5             	mov    %rsp,%rbp
    49bc:	48 89 7d f8          	mov    %rdi,-0x8(%rbp)
    49c0:	48 89 75 f0          	mov    %rsi,-0x10(%rbp)
    49c4:	48 83 7d f0 00       	cmpq   $0x0,-0x10(%rbp)
    49c9:	74 26                	je     49f1 <safe_mod_func_int64_t_s_s+0x3d>
    49cb:	48 b8 00 00 00 00 00 	movabs $0x8000000000000000,%rax
    49d2:	00 00 80 
    49d5:	48 39 45 f8          	cmp    %rax,-0x8(%rbp)
    49d9:	75 07                	jne    49e2 <safe_mod_func_int64_t_s_s+0x2e>
    49db:	48 83 7d f0 ff       	cmpq   $0xffffffffffffffff,-0x10(%rbp)
    49e0:	74 0f                	je     49f1 <safe_mod_func_int64_t_s_s+0x3d>
    49e2:	48 8b 45 f8          	mov    -0x8(%rbp),%rax
    49e6:	48 99                	cqto   
    49e8:	48 f7 7d f0          	idivq  -0x10(%rbp)
    49ec:	48 89 d0             	mov    %rdx,%rax
    49ef:	eb 04                	jmp    49f5 <safe_mod_func_int64_t_s_s+0x41>
    49f1:	48 8b 45 f8          	mov    -0x8(%rbp),%rax
    49f5:	5d                   	pop    %rbp
    49f6:	c3                   	retq   

00000000000049f7 <safe_div_func_int64_t_s_s>:
    49f7:	f3 0f 1e fa          	endbr64 
    49fb:	55                   	push   %rbp
    49fc:	48 89 e5             	mov    %rsp,%rbp
    49ff:	48 89 7d f8          	mov    %rdi,-0x8(%rbp)
    4a03:	48 89 75 f0          	mov    %rsi,-0x10(%rbp)
    4a07:	48 83 7d f0 00       	cmpq   $0x0,-0x10(%rbp)
    4a0c:	74 23                	je     4a31 <safe_div_func_int64_t_s_s+0x3a>
    4a0e:	48 b8 00 00 00 00 00 	movabs $0x8000000000000000,%rax
    4a15:	00 00 80 
    4a18:	48 39 45 f8          	cmp    %rax,-0x8(%rbp)
    4a1c:	75 07                	jne    4a25 <safe_div_func_int64_t_s_s+0x2e>
    4a1e:	48 83 7d f0 ff       	cmpq   $0xffffffffffffffff,-0x10(%rbp)
    4a23:	74 0c                	je     4a31 <safe_div_func_int64_t_s_s+0x3a>
    4a25:	48 8b 45 f8          	mov    -0x8(%rbp),%rax
    4a29:	48 99                	cqto   
    4a2b:	48 f7 7d f0          	idivq  -0x10(%rbp)
    4a2f:	eb 04                	jmp    4a35 <safe_div_func_int64_t_s_s+0x3e>
    4a31:	48 8b 45 f8          	mov    -0x8(%rbp),%rax
    4a35:	5d                   	pop    %rbp
    4a36:	c3                   	retq   

0000000000004a37 <safe_lshift_func_int64_t_s_s>:
    4a37:	f3 0f 1e fa          	endbr64 
    4a3b:	55                   	push   %rbp
    4a3c:	48 89 e5             	mov    %rsp,%rbp
    4a3f:	48 89 7d f8          	mov    %rdi,-0x8(%rbp)
    4a43:	89 75 f4             	mov    %esi,-0xc(%rbp)
    4a46:	48 83 7d f8 00       	cmpq   $0x0,-0x8(%rbp)
    4a4b:	78 38                	js     4a85 <safe_lshift_func_int64_t_s_s+0x4e>
    4a4d:	83 7d f4 00          	cmpl   $0x0,-0xc(%rbp)
    4a51:	78 32                	js     4a85 <safe_lshift_func_int64_t_s_s+0x4e>
    4a53:	83 7d f4 1f          	cmpl   $0x1f,-0xc(%rbp)
    4a57:	7f 2c                	jg     4a85 <safe_lshift_func_int64_t_s_s+0x4e>
    4a59:	8b 45 f4             	mov    -0xc(%rbp),%eax
    4a5c:	48 ba ff ff ff ff ff 	movabs $0x7fffffffffffffff,%rdx
    4a63:	ff ff 7f 
    4a66:	89 c1                	mov    %eax,%ecx
    4a68:	48 d3 fa             	sar    %cl,%rdx
    4a6b:	48 89 d0             	mov    %rdx,%rax
    4a6e:	48 39 45 f8          	cmp    %rax,-0x8(%rbp)
    4a72:	7f 11                	jg     4a85 <safe_lshift_func_int64_t_s_s+0x4e>
    4a74:	8b 45 f4             	mov    -0xc(%rbp),%eax
    4a77:	48 8b 55 f8          	mov    -0x8(%rbp),%rdx
    4a7b:	89 c1                	mov    %eax,%ecx
    4a7d:	48 d3 e2             	shl    %cl,%rdx
    4a80:	48 89 d0             	mov    %rdx,%rax
    4a83:	eb 04                	jmp    4a89 <safe_lshift_func_int64_t_s_s+0x52>
    4a85:	48 8b 45 f8          	mov    -0x8(%rbp),%rax
    4a89:	5d                   	pop    %rbp
    4a8a:	c3                   	retq   

0000000000004a8b <safe_lshift_func_int64_t_s_u>:
    4a8b:	f3 0f 1e fa          	endbr64 
    4a8f:	55                   	push   %rbp
    4a90:	48 89 e5             	mov    %rsp,%rbp
    4a93:	48 89 7d f8          	mov    %rdi,-0x8(%rbp)
    4a97:	89 75 f4             	mov    %esi,-0xc(%rbp)
    4a9a:	48 83 7d f8 00       	cmpq   $0x0,-0x8(%rbp)
    4a9f:	78 32                	js     4ad3 <safe_lshift_func_int64_t_s_u+0x48>
    4aa1:	83 7d f4 1f          	cmpl   $0x1f,-0xc(%rbp)
    4aa5:	77 2c                	ja     4ad3 <safe_lshift_func_int64_t_s_u+0x48>
    4aa7:	8b 45 f4             	mov    -0xc(%rbp),%eax
    4aaa:	48 ba ff ff ff ff ff 	movabs $0x7fffffffffffffff,%rdx
    4ab1:	ff ff 7f 
    4ab4:	89 c1                	mov    %eax,%ecx
    4ab6:	48 d3 fa             	sar    %cl,%rdx
    4ab9:	48 89 d0             	mov    %rdx,%rax
    4abc:	48 39 45 f8          	cmp    %rax,-0x8(%rbp)
    4ac0:	7f 11                	jg     4ad3 <safe_lshift_func_int64_t_s_u+0x48>
    4ac2:	8b 45 f4             	mov    -0xc(%rbp),%eax
    4ac5:	48 8b 55 f8          	mov    -0x8(%rbp),%rdx
    4ac9:	89 c1                	mov    %eax,%ecx
    4acb:	48 d3 e2             	shl    %cl,%rdx
    4ace:	48 89 d0             	mov    %rdx,%rax
    4ad1:	eb 04                	jmp    4ad7 <safe_lshift_func_int64_t_s_u+0x4c>
    4ad3:	48 8b 45 f8          	mov    -0x8(%rbp),%rax
    4ad7:	5d                   	pop    %rbp
    4ad8:	c3                   	retq   

0000000000004ad9 <safe_rshift_func_int64_t_s_s>:
    4ad9:	f3 0f 1e fa          	endbr64 
    4add:	55                   	push   %rbp
    4ade:	48 89 e5             	mov    %rsp,%rbp
    4ae1:	48 89 7d f8          	mov    %rdi,-0x8(%rbp)
    4ae5:	89 75 f4             	mov    %esi,-0xc(%rbp)
    4ae8:	48 83 7d f8 00       	cmpq   $0x0,-0x8(%rbp)
    4aed:	78 1d                	js     4b0c <safe_rshift_func_int64_t_s_s+0x33>
    4aef:	83 7d f4 00          	cmpl   $0x0,-0xc(%rbp)
    4af3:	78 17                	js     4b0c <safe_rshift_func_int64_t_s_s+0x33>
    4af5:	83 7d f4 1f          	cmpl   $0x1f,-0xc(%rbp)
    4af9:	7f 11                	jg     4b0c <safe_rshift_func_int64_t_s_s+0x33>
    4afb:	8b 45 f4             	mov    -0xc(%rbp),%eax
    4afe:	48 8b 55 f8          	mov    -0x8(%rbp),%rdx
    4b02:	89 c1                	mov    %eax,%ecx
    4b04:	48 d3 fa             	sar    %cl,%rdx
    4b07:	48 89 d0             	mov    %rdx,%rax
    4b0a:	eb 04                	jmp    4b10 <safe_rshift_func_int64_t_s_s+0x37>
    4b0c:	48 8b 45 f8          	mov    -0x8(%rbp),%rax
    4b10:	5d                   	pop    %rbp
    4b11:	c3                   	retq   

0000000000004b12 <safe_rshift_func_int64_t_s_u>:
    4b12:	f3 0f 1e fa          	endbr64 
    4b16:	55                   	push   %rbp
    4b17:	48 89 e5             	mov    %rsp,%rbp
    4b1a:	48 89 7d f8          	mov    %rdi,-0x8(%rbp)
    4b1e:	89 75 f4             	mov    %esi,-0xc(%rbp)
    4b21:	48 83 7d f8 00       	cmpq   $0x0,-0x8(%rbp)
    4b26:	78 17                	js     4b3f <safe_rshift_func_int64_t_s_u+0x2d>
    4b28:	83 7d f4 1f          	cmpl   $0x1f,-0xc(%rbp)
    4b2c:	77 11                	ja     4b3f <safe_rshift_func_int64_t_s_u+0x2d>
    4b2e:	8b 45 f4             	mov    -0xc(%rbp),%eax
    4b31:	48 8b 55 f8          	mov    -0x8(%rbp),%rdx
    4b35:	89 c1                	mov    %eax,%ecx
    4b37:	48 d3 fa             	sar    %cl,%rdx
    4b3a:	48 89 d0             	mov    %rdx,%rax
    4b3d:	eb 04                	jmp    4b43 <safe_rshift_func_int64_t_s_u+0x31>
    4b3f:	48 8b 45 f8          	mov    -0x8(%rbp),%rax
    4b43:	5d                   	pop    %rbp
    4b44:	c3                   	retq   

0000000000004b45 <safe_unary_minus_func_uint8_t_u>:
    4b45:	f3 0f 1e fa          	endbr64 
    4b49:	55                   	push   %rbp
    4b4a:	48 89 e5             	mov    %rsp,%rbp
    4b4d:	89 f8                	mov    %edi,%eax
    4b4f:	88 45 fc             	mov    %al,-0x4(%rbp)
    4b52:	0f b6 45 fc          	movzbl -0x4(%rbp),%eax
    4b56:	f7 d8                	neg    %eax
    4b58:	5d                   	pop    %rbp
    4b59:	c3                   	retq   

0000000000004b5a <safe_add_func_uint8_t_u_u>:
    4b5a:	f3 0f 1e fa          	endbr64 
    4b5e:	55                   	push   %rbp
    4b5f:	48 89 e5             	mov    %rsp,%rbp
    4b62:	89 fa                	mov    %edi,%edx
    4b64:	89 f0                	mov    %esi,%eax
    4b66:	88 55 fc             	mov    %dl,-0x4(%rbp)
    4b69:	88 45 f8             	mov    %al,-0x8(%rbp)
    4b6c:	0f b6 55 fc          	movzbl -0x4(%rbp),%edx
    4b70:	0f b6 45 f8          	movzbl -0x8(%rbp),%eax
    4b74:	01 d0                	add    %edx,%eax
    4b76:	5d                   	pop    %rbp
    4b77:	c3                   	retq   

0000000000004b78 <safe_sub_func_uint8_t_u_u>:
    4b78:	f3 0f 1e fa          	endbr64 
    4b7c:	55                   	push   %rbp
    4b7d:	48 89 e5             	mov    %rsp,%rbp
    4b80:	89 fa                	mov    %edi,%edx
    4b82:	89 f0                	mov    %esi,%eax
    4b84:	88 55 fc             	mov    %dl,-0x4(%rbp)
    4b87:	88 45 f8             	mov    %al,-0x8(%rbp)
    4b8a:	0f b6 45 fc          	movzbl -0x4(%rbp),%eax
    4b8e:	2a 45 f8             	sub    -0x8(%rbp),%al
    4b91:	5d                   	pop    %rbp
    4b92:	c3                   	retq   

0000000000004b93 <safe_mul_func_uint8_t_u_u>:
    4b93:	f3 0f 1e fa          	endbr64 
    4b97:	55                   	push   %rbp
    4b98:	48 89 e5             	mov    %rsp,%rbp
    4b9b:	89 fa                	mov    %edi,%edx
    4b9d:	89 f0                	mov    %esi,%eax
    4b9f:	88 55 fc             	mov    %dl,-0x4(%rbp)
    4ba2:	88 45 f8             	mov    %al,-0x8(%rbp)
    4ba5:	0f b6 45 fc          	movzbl -0x4(%rbp),%eax
    4ba9:	f6 65 f8             	mulb   -0x8(%rbp)
    4bac:	5d                   	pop    %rbp
    4bad:	c3                   	retq   

0000000000004bae <safe_mod_func_uint8_t_u_u>:
    4bae:	f3 0f 1e fa          	endbr64 
    4bb2:	55                   	push   %rbp
    4bb3:	48 89 e5             	mov    %rsp,%rbp
    4bb6:	89 fa                	mov    %edi,%edx
    4bb8:	89 f0                	mov    %esi,%eax
    4bba:	88 55 fc             	mov    %dl,-0x4(%rbp)
    4bbd:	88 45 f8             	mov    %al,-0x8(%rbp)
    4bc0:	80 7d f8 00          	cmpb   $0x0,-0x8(%rbp)
    4bc4:	74 0f                	je     4bd5 <safe_mod_func_uint8_t_u_u+0x27>
    4bc6:	0f b6 45 fc          	movzbl -0x4(%rbp),%eax
    4bca:	0f b6 c0             	movzbl %al,%eax
    4bcd:	f6 75 f8             	divb   -0x8(%rbp)
    4bd0:	0f b6 c4             	movzbl %ah,%eax
    4bd3:	eb 04                	jmp    4bd9 <safe_mod_func_uint8_t_u_u+0x2b>
    4bd5:	0f b6 45 fc          	movzbl -0x4(%rbp),%eax
    4bd9:	5d                   	pop    %rbp
    4bda:	c3                   	retq   

0000000000004bdb <safe_div_func_uint8_t_u_u>:
    4bdb:	f3 0f 1e fa          	endbr64 
    4bdf:	55                   	push   %rbp
    4be0:	48 89 e5             	mov    %rsp,%rbp
    4be3:	89 fa                	mov    %edi,%edx
    4be5:	89 f0                	mov    %esi,%eax
    4be7:	88 55 fc             	mov    %dl,-0x4(%rbp)
    4bea:	88 45 f8             	mov    %al,-0x8(%rbp)
    4bed:	80 7d f8 00          	cmpb   $0x0,-0x8(%rbp)
    4bf1:	74 0c                	je     4bff <safe_div_func_uint8_t_u_u+0x24>
    4bf3:	0f b6 45 fc          	movzbl -0x4(%rbp),%eax
    4bf7:	0f b6 c0             	movzbl %al,%eax
    4bfa:	f6 75 f8             	divb   -0x8(%rbp)
    4bfd:	eb 04                	jmp    4c03 <safe_div_func_uint8_t_u_u+0x28>
    4bff:	0f b6 45 fc          	movzbl -0x4(%rbp),%eax
    4c03:	5d                   	pop    %rbp
    4c04:	c3                   	retq   

0000000000004c05 <safe_lshift_func_uint8_t_u_s>:
    4c05:	f3 0f 1e fa          	endbr64 
    4c09:	55                   	push   %rbp
    4c0a:	48 89 e5             	mov    %rsp,%rbp
    4c0d:	89 f8                	mov    %edi,%eax
    4c0f:	89 75 f8             	mov    %esi,-0x8(%rbp)
    4c12:	88 45 fc             	mov    %al,-0x4(%rbp)
    4c15:	83 7d f8 00          	cmpl   $0x0,-0x8(%rbp)
    4c19:	78 2b                	js     4c46 <safe_lshift_func_uint8_t_u_s+0x41>
    4c1b:	83 7d f8 1f          	cmpl   $0x1f,-0x8(%rbp)
    4c1f:	7f 25                	jg     4c46 <safe_lshift_func_uint8_t_u_s+0x41>
    4c21:	0f b6 55 fc          	movzbl -0x4(%rbp),%edx
    4c25:	8b 45 f8             	mov    -0x8(%rbp),%eax
    4c28:	be ff 00 00 00       	mov    $0xff,%esi
    4c2d:	89 c1                	mov    %eax,%ecx
    4c2f:	d3 fe                	sar    %cl,%esi
    4c31:	89 f0                	mov    %esi,%eax
    4c33:	39 c2                	cmp    %eax,%edx
    4c35:	7f 0f                	jg     4c46 <safe_lshift_func_uint8_t_u_s+0x41>
    4c37:	0f b6 55 fc          	movzbl -0x4(%rbp),%edx
    4c3b:	8b 45 f8             	mov    -0x8(%rbp),%eax
    4c3e:	89 c1                	mov    %eax,%ecx
    4c40:	d3 e2                	shl    %cl,%edx
    4c42:	89 d0                	mov    %edx,%eax
    4c44:	eb 04                	jmp    4c4a <safe_lshift_func_uint8_t_u_s+0x45>
    4c46:	0f b6 45 fc          	movzbl -0x4(%rbp),%eax
    4c4a:	5d                   	pop    %rbp
    4c4b:	c3                   	retq   

0000000000004c4c <safe_lshift_func_uint8_t_u_u>:
    4c4c:	f3 0f 1e fa          	endbr64 
    4c50:	55                   	push   %rbp
    4c51:	48 89 e5             	mov    %rsp,%rbp
    4c54:	89 f8                	mov    %edi,%eax
    4c56:	89 75 f8             	mov    %esi,-0x8(%rbp)
    4c59:	88 45 fc             	mov    %al,-0x4(%rbp)
    4c5c:	83 7d f8 1f          	cmpl   $0x1f,-0x8(%rbp)
    4c60:	77 25                	ja     4c87 <safe_lshift_func_uint8_t_u_u+0x3b>
    4c62:	0f b6 55 fc          	movzbl -0x4(%rbp),%edx
    4c66:	8b 45 f8             	mov    -0x8(%rbp),%eax
    4c69:	be ff 00 00 00       	mov    $0xff,%esi
    4c6e:	89 c1                	mov    %eax,%ecx
    4c70:	d3 fe                	sar    %cl,%esi
    4c72:	89 f0                	mov    %esi,%eax
    4c74:	39 c2                	cmp    %eax,%edx
    4c76:	7f 0f                	jg     4c87 <safe_lshift_func_uint8_t_u_u+0x3b>
    4c78:	0f b6 55 fc          	movzbl -0x4(%rbp),%edx
    4c7c:	8b 45 f8             	mov    -0x8(%rbp),%eax
    4c7f:	89 c1                	mov    %eax,%ecx
    4c81:	d3 e2                	shl    %cl,%edx
    4c83:	89 d0                	mov    %edx,%eax
    4c85:	eb 04                	jmp    4c8b <safe_lshift_func_uint8_t_u_u+0x3f>
    4c87:	0f b6 45 fc          	movzbl -0x4(%rbp),%eax
    4c8b:	5d                   	pop    %rbp
    4c8c:	c3                   	retq   

0000000000004c8d <safe_rshift_func_uint8_t_u_s>:
    4c8d:	f3 0f 1e fa          	endbr64 
    4c91:	55                   	push   %rbp
    4c92:	48 89 e5             	mov    %rsp,%rbp
    4c95:	89 f8                	mov    %edi,%eax
    4c97:	89 75 f8             	mov    %esi,-0x8(%rbp)
    4c9a:	88 45 fc             	mov    %al,-0x4(%rbp)
    4c9d:	83 7d f8 00          	cmpl   $0x0,-0x8(%rbp)
    4ca1:	78 15                	js     4cb8 <safe_rshift_func_uint8_t_u_s+0x2b>
    4ca3:	83 7d f8 1f          	cmpl   $0x1f,-0x8(%rbp)
    4ca7:	7f 0f                	jg     4cb8 <safe_rshift_func_uint8_t_u_s+0x2b>
    4ca9:	0f b6 55 fc          	movzbl -0x4(%rbp),%edx
    4cad:	8b 45 f8             	mov    -0x8(%rbp),%eax
    4cb0:	89 c1                	mov    %eax,%ecx
    4cb2:	d3 fa                	sar    %cl,%edx
    4cb4:	89 d0                	mov    %edx,%eax
    4cb6:	eb 04                	jmp    4cbc <safe_rshift_func_uint8_t_u_s+0x2f>
    4cb8:	0f b6 45 fc          	movzbl -0x4(%rbp),%eax
    4cbc:	5d                   	pop    %rbp
    4cbd:	c3                   	retq   

0000000000004cbe <safe_rshift_func_uint8_t_u_u>:
    4cbe:	f3 0f 1e fa          	endbr64 
    4cc2:	55                   	push   %rbp
    4cc3:	48 89 e5             	mov    %rsp,%rbp
    4cc6:	89 f8                	mov    %edi,%eax
    4cc8:	89 75 f8             	mov    %esi,-0x8(%rbp)
    4ccb:	88 45 fc             	mov    %al,-0x4(%rbp)
    4cce:	83 7d f8 1f          	cmpl   $0x1f,-0x8(%rbp)
    4cd2:	77 0f                	ja     4ce3 <safe_rshift_func_uint8_t_u_u+0x25>
    4cd4:	0f b6 55 fc          	movzbl -0x4(%rbp),%edx
    4cd8:	8b 45 f8             	mov    -0x8(%rbp),%eax
    4cdb:	89 c1                	mov    %eax,%ecx
    4cdd:	d3 fa                	sar    %cl,%edx
    4cdf:	89 d0                	mov    %edx,%eax
    4ce1:	eb 04                	jmp    4ce7 <safe_rshift_func_uint8_t_u_u+0x29>
    4ce3:	0f b6 45 fc          	movzbl -0x4(%rbp),%eax
    4ce7:	5d                   	pop    %rbp
    4ce8:	c3                   	retq   

0000000000004ce9 <safe_unary_minus_func_uint16_t_u>:
    4ce9:	f3 0f 1e fa          	endbr64 
    4ced:	55                   	push   %rbp
    4cee:	48 89 e5             	mov    %rsp,%rbp
    4cf1:	89 f8                	mov    %edi,%eax
    4cf3:	66 89 45 fc          	mov    %ax,-0x4(%rbp)
    4cf7:	0f b7 45 fc          	movzwl -0x4(%rbp),%eax
    4cfb:	f7 d8                	neg    %eax
    4cfd:	5d                   	pop    %rbp
    4cfe:	c3                   	retq   

0000000000004cff <safe_add_func_uint16_t_u_u>:
    4cff:	f3 0f 1e fa          	endbr64 
    4d03:	55                   	push   %rbp
    4d04:	48 89 e5             	mov    %rsp,%rbp
    4d07:	89 fa                	mov    %edi,%edx
    4d09:	89 f0                	mov    %esi,%eax
    4d0b:	66 89 55 fc          	mov    %dx,-0x4(%rbp)
    4d0f:	66 89 45 f8          	mov    %ax,-0x8(%rbp)
    4d13:	0f b7 55 fc          	movzwl -0x4(%rbp),%edx
    4d17:	0f b7 45 f8          	movzwl -0x8(%rbp),%eax
    4d1b:	01 d0                	add    %edx,%eax
    4d1d:	5d                   	pop    %rbp
    4d1e:	c3                   	retq   

0000000000004d1f <safe_sub_func_uint16_t_u_u>:
    4d1f:	f3 0f 1e fa          	endbr64 
    4d23:	55                   	push   %rbp
    4d24:	48 89 e5             	mov    %rsp,%rbp
    4d27:	89 fa                	mov    %edi,%edx
    4d29:	89 f0                	mov    %esi,%eax
    4d2b:	66 89 55 fc          	mov    %dx,-0x4(%rbp)
    4d2f:	66 89 45 f8          	mov    %ax,-0x8(%rbp)
    4d33:	0f b7 45 fc          	movzwl -0x4(%rbp),%eax
    4d37:	66 2b 45 f8          	sub    -0x8(%rbp),%ax
    4d3b:	5d                   	pop    %rbp
    4d3c:	c3                   	retq   

0000000000004d3d <safe_mul_func_uint16_t_u_u>:
    4d3d:	f3 0f 1e fa          	endbr64 
    4d41:	55                   	push   %rbp
    4d42:	48 89 e5             	mov    %rsp,%rbp
    4d45:	89 fa                	mov    %edi,%edx
    4d47:	89 f0                	mov    %esi,%eax
    4d49:	66 89 55 fc          	mov    %dx,-0x4(%rbp)
    4d4d:	66 89 45 f8          	mov    %ax,-0x8(%rbp)
    4d51:	0f b7 45 fc          	movzwl -0x4(%rbp),%eax
    4d55:	66 0f af 45 f8       	imul   -0x8(%rbp),%ax
    4d5a:	5d                   	pop    %rbp
    4d5b:	c3                   	retq   

0000000000004d5c <safe_mod_func_uint16_t_u_u>:
    4d5c:	f3 0f 1e fa          	endbr64 
    4d60:	55                   	push   %rbp
    4d61:	48 89 e5             	mov    %rsp,%rbp
    4d64:	89 fa                	mov    %edi,%edx
    4d66:	89 f0                	mov    %esi,%eax
    4d68:	66 89 55 fc          	mov    %dx,-0x4(%rbp)
    4d6c:	66 89 45 f8          	mov    %ax,-0x8(%rbp)
    4d70:	66 83 7d f8 00       	cmpw   $0x0,-0x8(%rbp)
    4d75:	74 11                	je     4d88 <safe_mod_func_uint16_t_u_u+0x2c>
    4d77:	0f b7 45 fc          	movzwl -0x4(%rbp),%eax
    4d7b:	ba 00 00 00 00       	mov    $0x0,%edx
    4d80:	66 f7 75 f8          	divw   -0x8(%rbp)
    4d84:	89 d0                	mov    %edx,%eax
    4d86:	eb 04                	jmp    4d8c <safe_mod_func_uint16_t_u_u+0x30>
    4d88:	0f b7 45 fc          	movzwl -0x4(%rbp),%eax
    4d8c:	5d                   	pop    %rbp
    4d8d:	c3                   	retq   

0000000000004d8e <safe_div_func_uint16_t_u_u>:
    4d8e:	f3 0f 1e fa          	endbr64 
    4d92:	55                   	push   %rbp
    4d93:	48 89 e5             	mov    %rsp,%rbp
    4d96:	89 fa                	mov    %edi,%edx
    4d98:	89 f0                	mov    %esi,%eax
    4d9a:	66 89 55 fc          	mov    %dx,-0x4(%rbp)
    4d9e:	66 89 45 f8          	mov    %ax,-0x8(%rbp)
    4da2:	66 83 7d f8 00       	cmpw   $0x0,-0x8(%rbp)
    4da7:	74 0f                	je     4db8 <safe_div_func_uint16_t_u_u+0x2a>
    4da9:	0f b7 45 fc          	movzwl -0x4(%rbp),%eax
    4dad:	ba 00 00 00 00       	mov    $0x0,%edx
    4db2:	66 f7 75 f8          	divw   -0x8(%rbp)
    4db6:	eb 04                	jmp    4dbc <safe_div_func_uint16_t_u_u+0x2e>
    4db8:	0f b7 45 fc          	movzwl -0x4(%rbp),%eax
    4dbc:	5d                   	pop    %rbp
    4dbd:	c3                   	retq   

0000000000004dbe <safe_lshift_func_uint16_t_u_s>:
    4dbe:	f3 0f 1e fa          	endbr64 
    4dc2:	55                   	push   %rbp
    4dc3:	48 89 e5             	mov    %rsp,%rbp
    4dc6:	89 f8                	mov    %edi,%eax
    4dc8:	89 75 f8             	mov    %esi,-0x8(%rbp)
    4dcb:	66 89 45 fc          	mov    %ax,-0x4(%rbp)
    4dcf:	83 7d f8 00          	cmpl   $0x0,-0x8(%rbp)
    4dd3:	78 2b                	js     4e00 <safe_lshift_func_uint16_t_u_s+0x42>
    4dd5:	83 7d f8 1f          	cmpl   $0x1f,-0x8(%rbp)
    4dd9:	7f 25                	jg     4e00 <safe_lshift_func_uint16_t_u_s+0x42>
    4ddb:	0f b7 55 fc          	movzwl -0x4(%rbp),%edx
    4ddf:	8b 45 f8             	mov    -0x8(%rbp),%eax
    4de2:	be ff ff 00 00       	mov    $0xffff,%esi
    4de7:	89 c1                	mov    %eax,%ecx
    4de9:	d3 fe                	sar    %cl,%esi
    4deb:	89 f0                	mov    %esi,%eax
    4ded:	39 c2                	cmp    %eax,%edx
    4def:	7f 0f                	jg     4e00 <safe_lshift_func_uint16_t_u_s+0x42>
    4df1:	0f b7 55 fc          	movzwl -0x4(%rbp),%edx
    4df5:	8b 45 f8             	mov    -0x8(%rbp),%eax
    4df8:	89 c1                	mov    %eax,%ecx
    4dfa:	d3 e2                	shl    %cl,%edx
    4dfc:	89 d0                	mov    %edx,%eax
    4dfe:	eb 04                	jmp    4e04 <safe_lshift_func_uint16_t_u_s+0x46>
    4e00:	0f b7 45 fc          	movzwl -0x4(%rbp),%eax
    4e04:	5d                   	pop    %rbp
    4e05:	c3                   	retq   

0000000000004e06 <safe_lshift_func_uint16_t_u_u>:
    4e06:	f3 0f 1e fa          	endbr64 
    4e0a:	55                   	push   %rbp
    4e0b:	48 89 e5             	mov    %rsp,%rbp
    4e0e:	89 f8                	mov    %edi,%eax
    4e10:	89 75 f8             	mov    %esi,-0x8(%rbp)
    4e13:	66 89 45 fc          	mov    %ax,-0x4(%rbp)
    4e17:	83 7d f8 1f          	cmpl   $0x1f,-0x8(%rbp)
    4e1b:	77 25                	ja     4e42 <safe_lshift_func_uint16_t_u_u+0x3c>
    4e1d:	0f b7 55 fc          	movzwl -0x4(%rbp),%edx
    4e21:	8b 45 f8             	mov    -0x8(%rbp),%eax
    4e24:	be ff ff 00 00       	mov    $0xffff,%esi
    4e29:	89 c1                	mov    %eax,%ecx
    4e2b:	d3 fe                	sar    %cl,%esi
    4e2d:	89 f0                	mov    %esi,%eax
    4e2f:	39 c2                	cmp    %eax,%edx
    4e31:	7f 0f                	jg     4e42 <safe_lshift_func_uint16_t_u_u+0x3c>
    4e33:	0f b7 55 fc          	movzwl -0x4(%rbp),%edx
    4e37:	8b 45 f8             	mov    -0x8(%rbp),%eax
    4e3a:	89 c1                	mov    %eax,%ecx
    4e3c:	d3 e2                	shl    %cl,%edx
    4e3e:	89 d0                	mov    %edx,%eax
    4e40:	eb 04                	jmp    4e46 <safe_lshift_func_uint16_t_u_u+0x40>
    4e42:	0f b7 45 fc          	movzwl -0x4(%rbp),%eax
    4e46:	5d                   	pop    %rbp
    4e47:	c3                   	retq   

0000000000004e48 <safe_rshift_func_uint16_t_u_s>:
    4e48:	f3 0f 1e fa          	endbr64 
    4e4c:	55                   	push   %rbp
    4e4d:	48 89 e5             	mov    %rsp,%rbp
    4e50:	89 f8                	mov    %edi,%eax
    4e52:	89 75 f8             	mov    %esi,-0x8(%rbp)
    4e55:	66 89 45 fc          	mov    %ax,-0x4(%rbp)
    4e59:	83 7d f8 00          	cmpl   $0x0,-0x8(%rbp)
    4e5d:	78 15                	js     4e74 <safe_rshift_func_uint16_t_u_s+0x2c>
    4e5f:	83 7d f8 1f          	cmpl   $0x1f,-0x8(%rbp)
    4e63:	7f 0f                	jg     4e74 <safe_rshift_func_uint16_t_u_s+0x2c>
    4e65:	0f b7 55 fc          	movzwl -0x4(%rbp),%edx
    4e69:	8b 45 f8             	mov    -0x8(%rbp),%eax
    4e6c:	89 c1                	mov    %eax,%ecx
    4e6e:	d3 fa                	sar    %cl,%edx
    4e70:	89 d0                	mov    %edx,%eax
    4e72:	eb 04                	jmp    4e78 <safe_rshift_func_uint16_t_u_s+0x30>
    4e74:	0f b7 45 fc          	movzwl -0x4(%rbp),%eax
    4e78:	5d                   	pop    %rbp
    4e79:	c3                   	retq   

0000000000004e7a <safe_rshift_func_uint16_t_u_u>:
    4e7a:	f3 0f 1e fa          	endbr64 
    4e7e:	55                   	push   %rbp
    4e7f:	48 89 e5             	mov    %rsp,%rbp
    4e82:	89 f8                	mov    %edi,%eax
    4e84:	89 75 f8             	mov    %esi,-0x8(%rbp)
    4e87:	66 89 45 fc          	mov    %ax,-0x4(%rbp)
    4e8b:	83 7d f8 1f          	cmpl   $0x1f,-0x8(%rbp)
    4e8f:	77 0f                	ja     4ea0 <safe_rshift_func_uint16_t_u_u+0x26>
    4e91:	0f b7 55 fc          	movzwl -0x4(%rbp),%edx
    4e95:	8b 45 f8             	mov    -0x8(%rbp),%eax
    4e98:	89 c1                	mov    %eax,%ecx
    4e9a:	d3 fa                	sar    %cl,%edx
    4e9c:	89 d0                	mov    %edx,%eax
    4e9e:	eb 04                	jmp    4ea4 <safe_rshift_func_uint16_t_u_u+0x2a>
    4ea0:	0f b7 45 fc          	movzwl -0x4(%rbp),%eax
    4ea4:	5d                   	pop    %rbp
    4ea5:	c3                   	retq   

0000000000004ea6 <safe_unary_minus_func_uint32_t_u>:
    4ea6:	f3 0f 1e fa          	endbr64 
    4eaa:	55                   	push   %rbp
    4eab:	48 89 e5             	mov    %rsp,%rbp
    4eae:	89 7d fc             	mov    %edi,-0x4(%rbp)
    4eb1:	8b 45 fc             	mov    -0x4(%rbp),%eax
    4eb4:	f7 d8                	neg    %eax
    4eb6:	5d                   	pop    %rbp
    4eb7:	c3                   	retq   

0000000000004eb8 <safe_add_func_uint32_t_u_u>:
    4eb8:	f3 0f 1e fa          	endbr64 
    4ebc:	55                   	push   %rbp
    4ebd:	48 89 e5             	mov    %rsp,%rbp
    4ec0:	89 7d fc             	mov    %edi,-0x4(%rbp)
    4ec3:	89 75 f8             	mov    %esi,-0x8(%rbp)
    4ec6:	8b 55 fc             	mov    -0x4(%rbp),%edx
    4ec9:	8b 45 f8             	mov    -0x8(%rbp),%eax
    4ecc:	01 d0                	add    %edx,%eax
    4ece:	5d                   	pop    %rbp
    4ecf:	c3                   	retq   

0000000000004ed0 <safe_sub_func_uint32_t_u_u>:
    4ed0:	f3 0f 1e fa          	endbr64 
    4ed4:	55                   	push   %rbp
    4ed5:	48 89 e5             	mov    %rsp,%rbp
    4ed8:	89 7d fc             	mov    %edi,-0x4(%rbp)
    4edb:	89 75 f8             	mov    %esi,-0x8(%rbp)
    4ede:	8b 45 fc             	mov    -0x4(%rbp),%eax
    4ee1:	2b 45 f8             	sub    -0x8(%rbp),%eax
    4ee4:	5d                   	pop    %rbp
    4ee5:	c3                   	retq   

0000000000004ee6 <safe_mul_func_uint32_t_u_u>:
    4ee6:	f3 0f 1e fa          	endbr64 
    4eea:	55                   	push   %rbp
    4eeb:	48 89 e5             	mov    %rsp,%rbp
    4eee:	89 7d fc             	mov    %edi,-0x4(%rbp)
    4ef1:	89 75 f8             	mov    %esi,-0x8(%rbp)
    4ef4:	8b 45 fc             	mov    -0x4(%rbp),%eax
    4ef7:	0f af 45 f8          	imul   -0x8(%rbp),%eax
    4efb:	5d                   	pop    %rbp
    4efc:	c3                   	retq   

0000000000004efd <safe_mod_func_uint32_t_u_u>:
    4efd:	f3 0f 1e fa          	endbr64 
    4f01:	55                   	push   %rbp
    4f02:	48 89 e5             	mov    %rsp,%rbp
    4f05:	89 7d fc             	mov    %edi,-0x4(%rbp)
    4f08:	89 75 f8             	mov    %esi,-0x8(%rbp)
    4f0b:	83 7d f8 00          	cmpl   $0x0,-0x8(%rbp)
    4f0f:	74 0f                	je     4f20 <safe_mod_func_uint32_t_u_u+0x23>
    4f11:	8b 45 fc             	mov    -0x4(%rbp),%eax
    4f14:	ba 00 00 00 00       	mov    $0x0,%edx
    4f19:	f7 75 f8             	divl   -0x8(%rbp)
    4f1c:	89 d0                	mov    %edx,%eax
    4f1e:	eb 03                	jmp    4f23 <safe_mod_func_uint32_t_u_u+0x26>
    4f20:	8b 45 fc             	mov    -0x4(%rbp),%eax
    4f23:	5d                   	pop    %rbp
    4f24:	c3                   	retq   

0000000000004f25 <safe_div_func_uint32_t_u_u>:
    4f25:	f3 0f 1e fa          	endbr64 
    4f29:	55                   	push   %rbp
    4f2a:	48 89 e5             	mov    %rsp,%rbp
    4f2d:	89 7d fc             	mov    %edi,-0x4(%rbp)
    4f30:	89 75 f8             	mov    %esi,-0x8(%rbp)
    4f33:	83 7d f8 00          	cmpl   $0x0,-0x8(%rbp)
    4f37:	74 0d                	je     4f46 <safe_div_func_uint32_t_u_u+0x21>
    4f39:	8b 45 fc             	mov    -0x4(%rbp),%eax
    4f3c:	ba 00 00 00 00       	mov    $0x0,%edx
    4f41:	f7 75 f8             	divl   -0x8(%rbp)
    4f44:	eb 03                	jmp    4f49 <safe_div_func_uint32_t_u_u+0x24>
    4f46:	8b 45 fc             	mov    -0x4(%rbp),%eax
    4f49:	5d                   	pop    %rbp
    4f4a:	c3                   	retq   

0000000000004f4b <safe_lshift_func_uint32_t_u_s>:
    4f4b:	f3 0f 1e fa          	endbr64 
    4f4f:	55                   	push   %rbp
    4f50:	48 89 e5             	mov    %rsp,%rbp
    4f53:	89 7d fc             	mov    %edi,-0x4(%rbp)
    4f56:	89 75 f8             	mov    %esi,-0x8(%rbp)
    4f59:	83 7d f8 00          	cmpl   $0x0,-0x8(%rbp)
    4f5d:	78 27                	js     4f86 <safe_lshift_func_uint32_t_u_s+0x3b>
    4f5f:	83 7d f8 1f          	cmpl   $0x1f,-0x8(%rbp)
    4f63:	7f 21                	jg     4f86 <safe_lshift_func_uint32_t_u_s+0x3b>
    4f65:	8b 45 f8             	mov    -0x8(%rbp),%eax
    4f68:	ba ff ff ff ff       	mov    $0xffffffff,%edx
    4f6d:	89 c1                	mov    %eax,%ecx
    4f6f:	d3 ea                	shr    %cl,%edx
    4f71:	89 d0                	mov    %edx,%eax
    4f73:	39 45 fc             	cmp    %eax,-0x4(%rbp)
    4f76:	77 0e                	ja     4f86 <safe_lshift_func_uint32_t_u_s+0x3b>
    4f78:	8b 45 f8             	mov    -0x8(%rbp),%eax
    4f7b:	8b 55 fc             	mov    -0x4(%rbp),%edx
    4f7e:	89 c1                	mov    %eax,%ecx
    4f80:	d3 e2                	shl    %cl,%edx
    4f82:	89 d0                	mov    %edx,%eax
    4f84:	eb 03                	jmp    4f89 <safe_lshift_func_uint32_t_u_s+0x3e>
    4f86:	8b 45 fc             	mov    -0x4(%rbp),%eax
    4f89:	5d                   	pop    %rbp
    4f8a:	c3                   	retq   

0000000000004f8b <safe_lshift_func_uint32_t_u_u>:
    4f8b:	f3 0f 1e fa          	endbr64 
    4f8f:	55                   	push   %rbp
    4f90:	48 89 e5             	mov    %rsp,%rbp
    4f93:	89 7d fc             	mov    %edi,-0x4(%rbp)
    4f96:	89 75 f8             	mov    %esi,-0x8(%rbp)
    4f99:	83 7d f8 1f          	cmpl   $0x1f,-0x8(%rbp)
    4f9d:	77 21                	ja     4fc0 <safe_lshift_func_uint32_t_u_u+0x35>
    4f9f:	8b 45 f8             	mov    -0x8(%rbp),%eax
    4fa2:	ba ff ff ff ff       	mov    $0xffffffff,%edx
    4fa7:	89 c1                	mov    %eax,%ecx
    4fa9:	d3 ea                	shr    %cl,%edx
    4fab:	89 d0                	mov    %edx,%eax
    4fad:	39 45 fc             	cmp    %eax,-0x4(%rbp)
    4fb0:	77 0e                	ja     4fc0 <safe_lshift_func_uint32_t_u_u+0x35>
    4fb2:	8b 45 f8             	mov    -0x8(%rbp),%eax
    4fb5:	8b 55 fc             	mov    -0x4(%rbp),%edx
    4fb8:	89 c1                	mov    %eax,%ecx
    4fba:	d3 e2                	shl    %cl,%edx
    4fbc:	89 d0                	mov    %edx,%eax
    4fbe:	eb 03                	jmp    4fc3 <safe_lshift_func_uint32_t_u_u+0x38>
    4fc0:	8b 45 fc             	mov    -0x4(%rbp),%eax
    4fc3:	5d                   	pop    %rbp
    4fc4:	c3                   	retq   

0000000000004fc5 <safe_rshift_func_uint32_t_u_s>:
    4fc5:	f3 0f 1e fa          	endbr64 
    4fc9:	55                   	push   %rbp
    4fca:	48 89 e5             	mov    %rsp,%rbp
    4fcd:	89 7d fc             	mov    %edi,-0x4(%rbp)
    4fd0:	89 75 f8             	mov    %esi,-0x8(%rbp)
    4fd3:	83 7d f8 00          	cmpl   $0x0,-0x8(%rbp)
    4fd7:	78 14                	js     4fed <safe_rshift_func_uint32_t_u_s+0x28>
    4fd9:	83 7d f8 1f          	cmpl   $0x1f,-0x8(%rbp)
    4fdd:	7f 0e                	jg     4fed <safe_rshift_func_uint32_t_u_s+0x28>
    4fdf:	8b 45 f8             	mov    -0x8(%rbp),%eax
    4fe2:	8b 55 fc             	mov    -0x4(%rbp),%edx
    4fe5:	89 c1                	mov    %eax,%ecx
    4fe7:	d3 ea                	shr    %cl,%edx
    4fe9:	89 d0                	mov    %edx,%eax
    4feb:	eb 03                	jmp    4ff0 <safe_rshift_func_uint32_t_u_s+0x2b>
    4fed:	8b 45 fc             	mov    -0x4(%rbp),%eax
    4ff0:	5d                   	pop    %rbp
    4ff1:	c3                   	retq   

0000000000004ff2 <safe_rshift_func_uint32_t_u_u>:
    4ff2:	f3 0f 1e fa          	endbr64 
    4ff6:	55                   	push   %rbp
    4ff7:	48 89 e5             	mov    %rsp,%rbp
    4ffa:	89 7d fc             	mov    %edi,-0x4(%rbp)
    4ffd:	89 75 f8             	mov    %esi,-0x8(%rbp)
    5000:	83 7d f8 1f          	cmpl   $0x1f,-0x8(%rbp)
    5004:	77 0e                	ja     5014 <safe_rshift_func_uint32_t_u_u+0x22>
    5006:	8b 45 f8             	mov    -0x8(%rbp),%eax
    5009:	8b 55 fc             	mov    -0x4(%rbp),%edx
    500c:	89 c1                	mov    %eax,%ecx
    500e:	d3 ea                	shr    %cl,%edx
    5010:	89 d0                	mov    %edx,%eax
    5012:	eb 03                	jmp    5017 <safe_rshift_func_uint32_t_u_u+0x25>
    5014:	8b 45 fc             	mov    -0x4(%rbp),%eax
    5017:	5d                   	pop    %rbp
    5018:	c3                   	retq   

0000000000005019 <safe_unary_minus_func_uint64_t_u>:
    5019:	f3 0f 1e fa          	endbr64 
    501d:	55                   	push   %rbp
    501e:	48 89 e5             	mov    %rsp,%rbp
    5021:	48 89 7d f8          	mov    %rdi,-0x8(%rbp)
    5025:	48 8b 45 f8          	mov    -0x8(%rbp),%rax
    5029:	48 f7 d8             	neg    %rax
    502c:	5d                   	pop    %rbp
    502d:	c3                   	retq   

000000000000502e <safe_add_func_uint64_t_u_u>:
    502e:	f3 0f 1e fa          	endbr64 
    5032:	55                   	push   %rbp
    5033:	48 89 e5             	mov    %rsp,%rbp
    5036:	48 89 7d f8          	mov    %rdi,-0x8(%rbp)
    503a:	48 89 75 f0          	mov    %rsi,-0x10(%rbp)
    503e:	48 8b 55 f8          	mov    -0x8(%rbp),%rdx
    5042:	48 8b 45 f0          	mov    -0x10(%rbp),%rax
    5046:	48 01 d0             	add    %rdx,%rax
    5049:	5d                   	pop    %rbp
    504a:	c3                   	retq   

000000000000504b <safe_sub_func_uint64_t_u_u>:
    504b:	f3 0f 1e fa          	endbr64 
    504f:	55                   	push   %rbp
    5050:	48 89 e5             	mov    %rsp,%rbp
    5053:	48 89 7d f8          	mov    %rdi,-0x8(%rbp)
    5057:	48 89 75 f0          	mov    %rsi,-0x10(%rbp)
    505b:	48 8b 45 f8          	mov    -0x8(%rbp),%rax
    505f:	48 2b 45 f0          	sub    -0x10(%rbp),%rax
    5063:	5d                   	pop    %rbp
    5064:	c3                   	retq   

0000000000005065 <safe_mul_func_uint64_t_u_u>:
    5065:	f3 0f 1e fa          	endbr64 
    5069:	55                   	push   %rbp
    506a:	48 89 e5             	mov    %rsp,%rbp
    506d:	48 89 7d f8          	mov    %rdi,-0x8(%rbp)
    5071:	48 89 75 f0          	mov    %rsi,-0x10(%rbp)
    5075:	48 8b 45 f8          	mov    -0x8(%rbp),%rax
    5079:	48 0f af 45 f0       	imul   -0x10(%rbp),%rax
    507e:	5d                   	pop    %rbp
    507f:	c3                   	retq   

0000000000005080 <safe_mod_func_uint64_t_u_u>:
    5080:	f3 0f 1e fa          	endbr64 
    5084:	55                   	push   %rbp
    5085:	48 89 e5             	mov    %rsp,%rbp
    5088:	48 89 7d f8          	mov    %rdi,-0x8(%rbp)
    508c:	48 89 75 f0          	mov    %rsi,-0x10(%rbp)
    5090:	48 83 7d f0 00       	cmpq   $0x0,-0x10(%rbp)
    5095:	74 12                	je     50a9 <safe_mod_func_uint64_t_u_u+0x29>
    5097:	48 8b 45 f8          	mov    -0x8(%rbp),%rax
    509b:	ba 00 00 00 00       	mov    $0x0,%edx
    50a0:	48 f7 75 f0          	divq   -0x10(%rbp)
    50a4:	48 89 d0             	mov    %rdx,%rax
    50a7:	eb 04                	jmp    50ad <safe_mod_func_uint64_t_u_u+0x2d>
    50a9:	48 8b 45 f8          	mov    -0x8(%rbp),%rax
    50ad:	5d                   	pop    %rbp
    50ae:	c3                   	retq   

00000000000050af <safe_div_func_uint64_t_u_u>:
    50af:	f3 0f 1e fa          	endbr64 
    50b3:	55                   	push   %rbp
    50b4:	48 89 e5             	mov    %rsp,%rbp
    50b7:	48 89 7d f8          	mov    %rdi,-0x8(%rbp)
    50bb:	48 89 75 f0          	mov    %rsi,-0x10(%rbp)
    50bf:	48 83 7d f0 00       	cmpq   $0x0,-0x10(%rbp)
    50c4:	74 0f                	je     50d5 <safe_div_func_uint64_t_u_u+0x26>
    50c6:	48 8b 45 f8          	mov    -0x8(%rbp),%rax
    50ca:	ba 00 00 00 00       	mov    $0x0,%edx
    50cf:	48 f7 75 f0          	divq   -0x10(%rbp)
    50d3:	eb 04                	jmp    50d9 <safe_div_func_uint64_t_u_u+0x2a>
    50d5:	48 8b 45 f8          	mov    -0x8(%rbp),%rax
    50d9:	5d                   	pop    %rbp
    50da:	c3                   	retq   

00000000000050db <safe_lshift_func_uint64_t_u_s>:
    50db:	f3 0f 1e fa          	endbr64 
    50df:	55                   	push   %rbp
    50e0:	48 89 e5             	mov    %rsp,%rbp
    50e3:	48 89 7d f8          	mov    %rdi,-0x8(%rbp)
    50e7:	89 75 f4             	mov    %esi,-0xc(%rbp)
    50ea:	83 7d f4 00          	cmpl   $0x0,-0xc(%rbp)
    50ee:	78 2f                	js     511f <safe_lshift_func_uint64_t_u_s+0x44>
    50f0:	83 7d f4 1f          	cmpl   $0x1f,-0xc(%rbp)
    50f4:	7f 29                	jg     511f <safe_lshift_func_uint64_t_u_s+0x44>
    50f6:	8b 45 f4             	mov    -0xc(%rbp),%eax
    50f9:	48 c7 c2 ff ff ff ff 	mov    $0xffffffffffffffff,%rdx
    5100:	89 c1                	mov    %eax,%ecx
    5102:	48 d3 ea             	shr    %cl,%rdx
    5105:	48 89 d0             	mov    %rdx,%rax
    5108:	48 39 45 f8          	cmp    %rax,-0x8(%rbp)
    510c:	77 11                	ja     511f <safe_lshift_func_uint64_t_u_s+0x44>
    510e:	8b 45 f4             	mov    -0xc(%rbp),%eax
    5111:	48 8b 55 f8          	mov    -0x8(%rbp),%rdx
    5115:	89 c1                	mov    %eax,%ecx
    5117:	48 d3 e2             	shl    %cl,%rdx
    511a:	48 89 d0             	mov    %rdx,%rax
    511d:	eb 04                	jmp    5123 <safe_lshift_func_uint64_t_u_s+0x48>
    511f:	48 8b 45 f8          	mov    -0x8(%rbp),%rax
    5123:	5d                   	pop    %rbp
    5124:	c3                   	retq   

0000000000005125 <safe_lshift_func_uint64_t_u_u>:
    5125:	f3 0f 1e fa          	endbr64 
    5129:	55                   	push   %rbp
    512a:	48 89 e5             	mov    %rsp,%rbp
    512d:	48 89 7d f8          	mov    %rdi,-0x8(%rbp)
    5131:	89 75 f4             	mov    %esi,-0xc(%rbp)
    5134:	83 7d f4 1f          	cmpl   $0x1f,-0xc(%rbp)
    5138:	77 29                	ja     5163 <safe_lshift_func_uint64_t_u_u+0x3e>
    513a:	8b 45 f4             	mov    -0xc(%rbp),%eax
    513d:	48 c7 c2 ff ff ff ff 	mov    $0xffffffffffffffff,%rdx
    5144:	89 c1                	mov    %eax,%ecx
    5146:	48 d3 ea             	shr    %cl,%rdx
    5149:	48 89 d0             	mov    %rdx,%rax
    514c:	48 39 45 f8          	cmp    %rax,-0x8(%rbp)
    5150:	77 11                	ja     5163 <safe_lshift_func_uint64_t_u_u+0x3e>
    5152:	8b 45 f4             	mov    -0xc(%rbp),%eax
    5155:	48 8b 55 f8          	mov    -0x8(%rbp),%rdx
    5159:	89 c1                	mov    %eax,%ecx
    515b:	48 d3 e2             	shl    %cl,%rdx
    515e:	48 89 d0             	mov    %rdx,%rax
    5161:	eb 04                	jmp    5167 <safe_lshift_func_uint64_t_u_u+0x42>
    5163:	48 8b 45 f8          	mov    -0x8(%rbp),%rax
    5167:	5d                   	pop    %rbp
    5168:	c3                   	retq   

0000000000005169 <safe_rshift_func_uint64_t_u_s>:
    5169:	f3 0f 1e fa          	endbr64 
    516d:	55                   	push   %rbp
    516e:	48 89 e5             	mov    %rsp,%rbp
    5171:	48 89 7d f8          	mov    %rdi,-0x8(%rbp)
    5175:	89 75 f4             	mov    %esi,-0xc(%rbp)
    5178:	83 7d f4 00          	cmpl   $0x0,-0xc(%rbp)
    517c:	78 17                	js     5195 <safe_rshift_func_uint64_t_u_s+0x2c>
    517e:	83 7d f4 1f          	cmpl   $0x1f,-0xc(%rbp)
    5182:	7f 11                	jg     5195 <safe_rshift_func_uint64_t_u_s+0x2c>
    5184:	8b 45 f4             	mov    -0xc(%rbp),%eax
    5187:	48 8b 55 f8          	mov    -0x8(%rbp),%rdx
    518b:	89 c1                	mov    %eax,%ecx
    518d:	48 d3 ea             	shr    %cl,%rdx
    5190:	48 89 d0             	mov    %rdx,%rax
    5193:	eb 04                	jmp    5199 <safe_rshift_func_uint64_t_u_s+0x30>
    5195:	48 8b 45 f8          	mov    -0x8(%rbp),%rax
    5199:	5d                   	pop    %rbp
    519a:	c3                   	retq   

000000000000519b <safe_rshift_func_uint64_t_u_u>:
    519b:	f3 0f 1e fa          	endbr64 
    519f:	55                   	push   %rbp
    51a0:	48 89 e5             	mov    %rsp,%rbp
    51a3:	48 89 7d f8          	mov    %rdi,-0x8(%rbp)
    51a7:	89 75 f4             	mov    %esi,-0xc(%rbp)
    51aa:	83 7d f4 1f          	cmpl   $0x1f,-0xc(%rbp)
    51ae:	77 11                	ja     51c1 <safe_rshift_func_uint64_t_u_u+0x26>
    51b0:	8b 45 f4             	mov    -0xc(%rbp),%eax
    51b3:	48 8b 55 f8          	mov    -0x8(%rbp),%rdx
    51b7:	89 c1                	mov    %eax,%ecx
    51b9:	48 d3 ea             	shr    %cl,%rdx
    51bc:	48 89 d0             	mov    %rdx,%rax
    51bf:	eb 04                	jmp    51c5 <safe_rshift_func_uint64_t_u_u+0x2a>
    51c1:	48 8b 45 f8          	mov    -0x8(%rbp),%rax
    51c5:	5d                   	pop    %rbp
    51c6:	c3                   	retq   

00000000000051c7 <safe_add_func_float_f_f>:
    51c7:	f3 0f 1e fa          	endbr64 
    51cb:	55                   	push   %rbp
    51cc:	48 89 e5             	mov    %rsp,%rbp
    51cf:	f3 0f 11 45 fc       	movss  %xmm0,-0x4(%rbp)
    51d4:	f3 0f 11 4d f8       	movss  %xmm1,-0x8(%rbp)
    51d9:	f3 0f 10 4d fc       	movss  -0x4(%rbp),%xmm1
    51de:	f3 0f 10 05 3a d8 00 	movss  0xd83a(%rip),%xmm0        # 12a20 <g_1342+0x19a0>
    51e5:	00 
    51e6:	f3 0f 59 c8          	mulss  %xmm0,%xmm1
    51ea:	f3 0f 10 55 f8       	movss  -0x8(%rbp),%xmm2
    51ef:	f3 0f 10 05 29 d8 00 	movss  0xd829(%rip),%xmm0        # 12a20 <g_1342+0x19a0>
    51f6:	00 
    51f7:	f3 0f 59 c2          	mulss  %xmm2,%xmm0
    51fb:	f3 0f 58 c1          	addss  %xmm1,%xmm0
    51ff:	f3 0f 10 0d 29 d8 00 	movss  0xd829(%rip),%xmm1        # 12a30 <g_1342+0x19b0>
    5206:	00 
    5207:	0f 54 c1             	andps  %xmm1,%xmm0
    520a:	0f 2f 05 2f d8 00 00 	comiss 0xd82f(%rip),%xmm0        # 12a40 <g_1342+0x19c0>
    5211:	76 07                	jbe    521a <safe_add_func_float_f_f+0x53>
    5213:	f3 0f 10 45 fc       	movss  -0x4(%rbp),%xmm0
    5218:	eb 0a                	jmp    5224 <safe_add_func_float_f_f+0x5d>
    521a:	f3 0f 10 45 fc       	movss  -0x4(%rbp),%xmm0
    521f:	f3 0f 58 45 f8       	addss  -0x8(%rbp),%xmm0
    5224:	5d                   	pop    %rbp
    5225:	c3                   	retq   

0000000000005226 <safe_sub_func_float_f_f>:
    5226:	f3 0f 1e fa          	endbr64 
    522a:	55                   	push   %rbp
    522b:	48 89 e5             	mov    %rsp,%rbp
    522e:	f3 0f 11 45 fc       	movss  %xmm0,-0x4(%rbp)
    5233:	f3 0f 11 4d f8       	movss  %xmm1,-0x8(%rbp)
    5238:	f3 0f 10 4d fc       	movss  -0x4(%rbp),%xmm1
    523d:	f3 0f 10 05 db d7 00 	movss  0xd7db(%rip),%xmm0        # 12a20 <g_1342+0x19a0>
    5244:	00 
    5245:	f3 0f 59 c1          	mulss  %xmm1,%xmm0
    5249:	f3 0f 10 55 f8       	movss  -0x8(%rbp),%xmm2
    524e:	f3 0f 10 0d ca d7 00 	movss  0xd7ca(%rip),%xmm1        # 12a20 <g_1342+0x19a0>
    5255:	00 
    5256:	f3 0f 59 ca          	mulss  %xmm2,%xmm1
    525a:	f3 0f 5c c1          	subss  %xmm1,%xmm0
    525e:	f3 0f 10 0d ca d7 00 	movss  0xd7ca(%rip),%xmm1        # 12a30 <g_1342+0x19b0>
    5265:	00 
    5266:	0f 54 c1             	andps  %xmm1,%xmm0
    5269:	0f 2f 05 d0 d7 00 00 	comiss 0xd7d0(%rip),%xmm0        # 12a40 <g_1342+0x19c0>
    5270:	76 07                	jbe    5279 <safe_sub_func_float_f_f+0x53>
    5272:	f3 0f 10 45 fc       	movss  -0x4(%rbp),%xmm0
    5277:	eb 0a                	jmp    5283 <safe_sub_func_float_f_f+0x5d>
    5279:	f3 0f 10 45 fc       	movss  -0x4(%rbp),%xmm0
    527e:	f3 0f 5c 45 f8       	subss  -0x8(%rbp),%xmm0
    5283:	5d                   	pop    %rbp
    5284:	c3                   	retq   

0000000000005285 <safe_mul_func_float_f_f>:
    5285:	f3 0f 1e fa          	endbr64 
    5289:	55                   	push   %rbp
    528a:	48 89 e5             	mov    %rsp,%rbp
    528d:	f3 0f 11 45 fc       	movss  %xmm0,-0x4(%rbp)
    5292:	f3 0f 11 4d f8       	movss  %xmm1,-0x8(%rbp)
    5297:	f3 0f 10 4d fc       	movss  -0x4(%rbp),%xmm1
    529c:	f3 0f 10 05 a0 d7 00 	movss  0xd7a0(%rip),%xmm0        # 12a44 <g_1342+0x19c4>
    52a3:	00 
    52a4:	f3 0f 59 c8          	mulss  %xmm0,%xmm1
    52a8:	f3 0f 10 55 f8       	movss  -0x8(%rbp),%xmm2
    52ad:	f3 0f 10 05 93 d7 00 	movss  0xd793(%rip),%xmm0        # 12a48 <g_1342+0x19c8>
    52b4:	00 
    52b5:	f3 0f 59 c2          	mulss  %xmm2,%xmm0
    52b9:	f3 0f 59 c1          	mulss  %xmm1,%xmm0
    52bd:	f3 0f 10 0d 6b d7 00 	movss  0xd76b(%rip),%xmm1        # 12a30 <g_1342+0x19b0>
    52c4:	00 
    52c5:	0f 54 c1             	andps  %xmm1,%xmm0
    52c8:	0f 2f 05 7d d7 00 00 	comiss 0xd77d(%rip),%xmm0        # 12a4c <g_1342+0x19cc>
    52cf:	76 07                	jbe    52d8 <safe_mul_func_float_f_f+0x53>
    52d1:	f3 0f 10 45 fc       	movss  -0x4(%rbp),%xmm0
    52d6:	eb 0a                	jmp    52e2 <safe_mul_func_float_f_f+0x5d>
    52d8:	f3 0f 10 45 fc       	movss  -0x4(%rbp),%xmm0
    52dd:	f3 0f 59 45 f8       	mulss  -0x8(%rbp),%xmm0
    52e2:	5d                   	pop    %rbp
    52e3:	c3                   	retq   

00000000000052e4 <safe_div_func_float_f_f>:
    52e4:	f3 0f 1e fa          	endbr64 
    52e8:	55                   	push   %rbp
    52e9:	48 89 e5             	mov    %rsp,%rbp
    52ec:	f3 0f 11 45 fc       	movss  %xmm0,-0x4(%rbp)
    52f1:	f3 0f 11 4d f8       	movss  %xmm1,-0x8(%rbp)
    52f6:	f3 0f 10 45 f8       	movss  -0x8(%rbp),%xmm0
    52fb:	f3 0f 10 0d 2d d7 00 	movss  0xd72d(%rip),%xmm1        # 12a30 <g_1342+0x19b0>
    5302:	00 
    5303:	0f 54 c8             	andps  %xmm0,%xmm1
    5306:	f3 0f 10 05 42 d7 00 	movss  0xd742(%rip),%xmm0        # 12a50 <g_1342+0x19d0>
    530d:	00 
    530e:	0f 2f c1             	comiss %xmm1,%xmm0
    5311:	0f 97 c0             	seta   %al
    5314:	83 f0 01             	xor    $0x1,%eax
    5317:	84 c0                	test   %al,%al
    5319:	75 56                	jne    5371 <safe_div_func_float_f_f+0x8d>
    531b:	66 0f ef c0          	pxor   %xmm0,%xmm0
    531f:	0f 2e 45 f8          	ucomiss -0x8(%rbp),%xmm0
    5323:	7a 0a                	jp     532f <safe_div_func_float_f_f+0x4b>
    5325:	66 0f ef c0          	pxor   %xmm0,%xmm0
    5329:	0f 2e 45 f8          	ucomiss -0x8(%rbp),%xmm0
    532d:	74 4e                	je     537d <safe_div_func_float_f_f+0x99>
    532f:	f3 0f 10 4d fc       	movss  -0x4(%rbp),%xmm1
    5334:	f3 0f 10 05 18 d7 00 	movss  0xd718(%rip),%xmm0        # 12a54 <g_1342+0x19d4>
    533b:	00 
    533c:	f3 0f 59 c1          	mulss  %xmm1,%xmm0
    5340:	f3 0f 10 55 f8       	movss  -0x8(%rbp),%xmm2
    5345:	f3 0f 10 0d 0b d7 00 	movss  0xd70b(%rip),%xmm1        # 12a58 <g_1342+0x19d8>
    534c:	00 
    534d:	f3 0f 59 ca          	mulss  %xmm2,%xmm1
    5351:	f3 0f 5e c1          	divss  %xmm1,%xmm0
    5355:	f3 0f 10 0d d3 d6 00 	movss  0xd6d3(%rip),%xmm1        # 12a30 <g_1342+0x19b0>
    535c:	00 
    535d:	0f 54 c1             	andps  %xmm1,%xmm0
    5360:	0f 2f 05 f5 d6 00 00 	comiss 0xd6f5(%rip),%xmm0        # 12a5c <g_1342+0x19dc>
    5367:	0f 97 c0             	seta   %al
    536a:	83 f0 01             	xor    $0x1,%eax
    536d:	84 c0                	test   %al,%al
    536f:	74 0c                	je     537d <safe_div_func_float_f_f+0x99>
    5371:	f3 0f 10 45 fc       	movss  -0x4(%rbp),%xmm0
    5376:	f3 0f 5e 45 f8       	divss  -0x8(%rbp),%xmm0
    537b:	eb 05                	jmp    5382 <safe_div_func_float_f_f+0x9e>
    537d:	f3 0f 10 45 fc       	movss  -0x4(%rbp),%xmm0
    5382:	5d                   	pop    %rbp
    5383:	c3                   	retq   

0000000000005384 <safe_add_func_double_f_f>:
    5384:	f3 0f 1e fa          	endbr64 
    5388:	55                   	push   %rbp
    5389:	48 89 e5             	mov    %rsp,%rbp
    538c:	f2 0f 11 45 f8       	movsd  %xmm0,-0x8(%rbp)
    5391:	f2 0f 11 4d f0       	movsd  %xmm1,-0x10(%rbp)
    5396:	f2 0f 10 4d f8       	movsd  -0x8(%rbp),%xmm1
    539b:	f2 0f 10 05 bd d6 00 	movsd  0xd6bd(%rip),%xmm0        # 12a60 <g_1342+0x19e0>
    53a2:	00 
    53a3:	f2 0f 59 c8          	mulsd  %xmm0,%xmm1
    53a7:	f2 0f 10 55 f0       	movsd  -0x10(%rbp),%xmm2
    53ac:	f2 0f 10 05 ac d6 00 	movsd  0xd6ac(%rip),%xmm0        # 12a60 <g_1342+0x19e0>
    53b3:	00 
    53b4:	f2 0f 59 c2          	mulsd  %xmm2,%xmm0
    53b8:	f2 0f 58 c1          	addsd  %xmm1,%xmm0
    53bc:	f3 0f 7e 0d ac d6 00 	movq   0xd6ac(%rip),%xmm1        # 12a70 <g_1342+0x19f0>
    53c3:	00 
    53c4:	66 0f 54 c1          	andpd  %xmm1,%xmm0
    53c8:	66 0f 2f 05 b0 d6 00 	comisd 0xd6b0(%rip),%xmm0        # 12a80 <g_1342+0x1a00>
    53cf:	00 
    53d0:	76 07                	jbe    53d9 <safe_add_func_double_f_f+0x55>
    53d2:	f2 0f 10 45 f8       	movsd  -0x8(%rbp),%xmm0
    53d7:	eb 0a                	jmp    53e3 <safe_add_func_double_f_f+0x5f>
    53d9:	f2 0f 10 45 f8       	movsd  -0x8(%rbp),%xmm0
    53de:	f2 0f 58 45 f0       	addsd  -0x10(%rbp),%xmm0
    53e3:	5d                   	pop    %rbp
    53e4:	c3                   	retq   

00000000000053e5 <safe_sub_func_double_f_f>:
    53e5:	f3 0f 1e fa          	endbr64 
    53e9:	55                   	push   %rbp
    53ea:	48 89 e5             	mov    %rsp,%rbp
    53ed:	f2 0f 11 45 f8       	movsd  %xmm0,-0x8(%rbp)
    53f2:	f2 0f 11 4d f0       	movsd  %xmm1,-0x10(%rbp)
    53f7:	f2 0f 10 4d f8       	movsd  -0x8(%rbp),%xmm1
    53fc:	f2 0f 10 05 5c d6 00 	movsd  0xd65c(%rip),%xmm0        # 12a60 <g_1342+0x19e0>
    5403:	00 
    5404:	f2 0f 59 c1          	mulsd  %xmm1,%xmm0
    5408:	f2 0f 10 55 f0       	movsd  -0x10(%rbp),%xmm2
    540d:	f2 0f 10 0d 4b d6 00 	movsd  0xd64b(%rip),%xmm1        # 12a60 <g_1342+0x19e0>
    5414:	00 
    5415:	f2 0f 59 ca          	mulsd  %xmm2,%xmm1
    5419:	f2 0f 5c c1          	subsd  %xmm1,%xmm0
    541d:	f3 0f 7e 0d 4b d6 00 	movq   0xd64b(%rip),%xmm1        # 12a70 <g_1342+0x19f0>
    5424:	00 
    5425:	66 0f 54 c1          	andpd  %xmm1,%xmm0
    5429:	66 0f 2f 05 4f d6 00 	comisd 0xd64f(%rip),%xmm0        # 12a80 <g_1342+0x1a00>
    5430:	00 
    5431:	76 07                	jbe    543a <safe_sub_func_double_f_f+0x55>
    5433:	f2 0f 10 45 f8       	movsd  -0x8(%rbp),%xmm0
    5438:	eb 0a                	jmp    5444 <safe_sub_func_double_f_f+0x5f>
    543a:	f2 0f 10 45 f8       	movsd  -0x8(%rbp),%xmm0
    543f:	f2 0f 5c 45 f0       	subsd  -0x10(%rbp),%xmm0
    5444:	5d                   	pop    %rbp
    5445:	c3                   	retq   

0000000000005446 <safe_mul_func_double_f_f>:
    5446:	f3 0f 1e fa          	endbr64 
    544a:	55                   	push   %rbp
    544b:	48 89 e5             	mov    %rsp,%rbp
    544e:	f2 0f 11 45 f8       	movsd  %xmm0,-0x8(%rbp)
    5453:	f2 0f 11 4d f0       	movsd  %xmm1,-0x10(%rbp)
    5458:	f2 0f 10 4d f8       	movsd  -0x8(%rbp),%xmm1
    545d:	f2 0f 10 05 23 d6 00 	movsd  0xd623(%rip),%xmm0        # 12a88 <g_1342+0x1a08>
    5464:	00 
    5465:	f2 0f 59 c8          	mulsd  %xmm0,%xmm1
    5469:	f2 0f 10 55 f0       	movsd  -0x10(%rbp),%xmm2
    546e:	f2 0f 10 05 1a d6 00 	movsd  0xd61a(%rip),%xmm0        # 12a90 <g_1342+0x1a10>
    5475:	00 
    5476:	f2 0f 59 c2          	mulsd  %xmm2,%xmm0
    547a:	f2 0f 59 c1          	mulsd  %xmm1,%xmm0
    547e:	f3 0f 7e 0d ea d5 00 	movq   0xd5ea(%rip),%xmm1        # 12a70 <g_1342+0x19f0>
    5485:	00 
    5486:	66 0f 54 c1          	andpd  %xmm1,%xmm0
    548a:	66 0f 2f 05 06 d6 00 	comisd 0xd606(%rip),%xmm0        # 12a98 <g_1342+0x1a18>
    5491:	00 
    5492:	76 07                	jbe    549b <safe_mul_func_double_f_f+0x55>
    5494:	f2 0f 10 45 f8       	movsd  -0x8(%rbp),%xmm0
    5499:	eb 0a                	jmp    54a5 <safe_mul_func_double_f_f+0x5f>
    549b:	f2 0f 10 45 f8       	movsd  -0x8(%rbp),%xmm0
    54a0:	f2 0f 59 45 f0       	mulsd  -0x10(%rbp),%xmm0
    54a5:	5d                   	pop    %rbp
    54a6:	c3                   	retq   

00000000000054a7 <safe_div_func_double_f_f>:
    54a7:	f3 0f 1e fa          	endbr64 
    54ab:	55                   	push   %rbp
    54ac:	48 89 e5             	mov    %rsp,%rbp
    54af:	f2 0f 11 45 f8       	movsd  %xmm0,-0x8(%rbp)
    54b4:	f2 0f 11 4d f0       	movsd  %xmm1,-0x10(%rbp)
    54b9:	f2 0f 10 45 f0       	movsd  -0x10(%rbp),%xmm0
    54be:	f3 0f 7e 0d aa d5 00 	movq   0xd5aa(%rip),%xmm1        # 12a70 <g_1342+0x19f0>
    54c5:	00 
    54c6:	66 0f 54 c8          	andpd  %xmm0,%xmm1
    54ca:	f2 0f 10 05 ce d5 00 	movsd  0xd5ce(%rip),%xmm0        # 12aa0 <g_1342+0x1a20>
    54d1:	00 
    54d2:	66 0f 2f c1          	comisd %xmm1,%xmm0
    54d6:	0f 97 c0             	seta   %al
    54d9:	83 f0 01             	xor    $0x1,%eax
    54dc:	84 c0                	test   %al,%al
    54de:	75 5a                	jne    553a <safe_div_func_double_f_f+0x93>
    54e0:	66 0f ef c0          	pxor   %xmm0,%xmm0
    54e4:	66 0f 2e 45 f0       	ucomisd -0x10(%rbp),%xmm0
    54e9:	7a 0b                	jp     54f6 <safe_div_func_double_f_f+0x4f>
    54eb:	66 0f ef c0          	pxor   %xmm0,%xmm0
    54ef:	66 0f 2e 45 f0       	ucomisd -0x10(%rbp),%xmm0
    54f4:	74 50                	je     5546 <safe_div_func_double_f_f+0x9f>
    54f6:	f2 0f 10 4d f8       	movsd  -0x8(%rbp),%xmm1
    54fb:	f2 0f 10 05 a5 d5 00 	movsd  0xd5a5(%rip),%xmm0        # 12aa8 <g_1342+0x1a28>
    5502:	00 
    5503:	f2 0f 59 c1          	mulsd  %xmm1,%xmm0
    5507:	f2 0f 10 55 f0       	movsd  -0x10(%rbp),%xmm2
    550c:	f2 0f 10 0d 9c d5 00 	movsd  0xd59c(%rip),%xmm1        # 12ab0 <g_1342+0x1a30>
    5513:	00 
    5514:	f2 0f 59 ca          	mulsd  %xmm2,%xmm1
    5518:	f2 0f 5e c1          	divsd  %xmm1,%xmm0
    551c:	f3 0f 7e 0d 4c d5 00 	movq   0xd54c(%rip),%xmm1        # 12a70 <g_1342+0x19f0>
    5523:	00 
    5524:	66 0f 54 c1          	andpd  %xmm1,%xmm0
    5528:	66 0f 2f 05 88 d5 00 	comisd 0xd588(%rip),%xmm0        # 12ab8 <g_1342+0x1a38>
    552f:	00 
    5530:	0f 97 c0             	seta   %al
    5533:	83 f0 01             	xor    $0x1,%eax
    5536:	84 c0                	test   %al,%al
    5538:	74 0c                	je     5546 <safe_div_func_double_f_f+0x9f>
    553a:	f2 0f 10 45 f8       	movsd  -0x8(%rbp),%xmm0
    553f:	f2 0f 5e 45 f0       	divsd  -0x10(%rbp),%xmm0
    5544:	eb 05                	jmp    554b <safe_div_func_double_f_f+0xa4>
    5546:	f2 0f 10 45 f8       	movsd  -0x8(%rbp),%xmm0
    554b:	5d                   	pop    %rbp
    554c:	c3                   	retq   

000000000000554d <safe_convert_func_float_to_int32_t>:
    554d:	f3 0f 1e fa          	endbr64 
    5551:	55                   	push   %rbp
    5552:	48 89 e5             	mov    %rsp,%rbp
    5555:	f3 0f 11 45 fc       	movss  %xmm0,-0x4(%rbp)
    555a:	f3 0f 10 05 5e d5 00 	movss  0xd55e(%rip),%xmm0        # 12ac0 <g_1342+0x1a40>
    5561:	00 
    5562:	0f 2f 45 fc          	comiss -0x4(%rbp),%xmm0
    5566:	0f 93 c0             	setae  %al
    5569:	83 f0 01             	xor    $0x1,%eax
    556c:	84 c0                	test   %al,%al
    556e:	74 21                	je     5591 <safe_convert_func_float_to_int32_t+0x44>
    5570:	f3 0f 10 45 fc       	movss  -0x4(%rbp),%xmm0
    5575:	0f 2f 05 48 d5 00 00 	comiss 0xd548(%rip),%xmm0        # 12ac4 <g_1342+0x1a44>
    557c:	0f 93 c0             	setae  %al
    557f:	83 f0 01             	xor    $0x1,%eax
    5582:	84 c0                	test   %al,%al
    5584:	74 0b                	je     5591 <safe_convert_func_float_to_int32_t+0x44>
    5586:	f3 0f 10 45 fc       	movss  -0x4(%rbp),%xmm0
    558b:	f3 0f 2c c0          	cvttss2si %xmm0,%eax
    558f:	eb 05                	jmp    5596 <safe_convert_func_float_to_int32_t+0x49>
    5591:	b8 ff ff ff 7f       	mov    $0x7fffffff,%eax
    5596:	5d                   	pop    %rbp
    5597:	c3                   	retq   

0000000000005598 <crc32_gentab>:
    5598:	f3 0f 1e fa          	endbr64 
    559c:	55                   	push   %rbp
    559d:	48 89 e5             	mov    %rsp,%rbp
    55a0:	c7 45 fc 20 83 b8 ed 	movl   $0xedb88320,-0x4(%rbp)
    55a7:	c7 45 f4 00 00 00 00 	movl   $0x0,-0xc(%rbp)
    55ae:	eb 51                	jmp    5601 <crc32_gentab+0x69>
    55b0:	8b 45 f4             	mov    -0xc(%rbp),%eax
    55b3:	89 45 f0             	mov    %eax,-0x10(%rbp)
    55b6:	c7 45 f8 08 00 00 00 	movl   $0x8,-0x8(%rbp)
    55bd:	eb 1e                	jmp    55dd <crc32_gentab+0x45>
    55bf:	8b 45 f0             	mov    -0x10(%rbp),%eax
    55c2:	83 e0 01             	and    $0x1,%eax
    55c5:	85 c0                	test   %eax,%eax
    55c7:	74 0d                	je     55d6 <crc32_gentab+0x3e>
    55c9:	8b 45 f0             	mov    -0x10(%rbp),%eax
    55cc:	d1 e8                	shr    %eax
    55ce:	33 45 fc             	xor    -0x4(%rbp),%eax
    55d1:	89 45 f0             	mov    %eax,-0x10(%rbp)
    55d4:	eb 03                	jmp    55d9 <crc32_gentab+0x41>
    55d6:	d1 6d f0             	shrl   -0x10(%rbp)
    55d9:	83 6d f8 01          	subl   $0x1,-0x8(%rbp)
    55dd:	83 7d f8 00          	cmpl   $0x0,-0x8(%rbp)
    55e1:	7f dc                	jg     55bf <crc32_gentab+0x27>
    55e3:	8b 45 f4             	mov    -0xc(%rbp),%eax
    55e6:	48 98                	cltq   
    55e8:	48 8d 0c 85 00 00 00 	lea    0x0(,%rax,4),%rcx
    55ef:	00 
    55f0:	48 8d 15 29 44 01 00 	lea    0x14429(%rip),%rdx        # 19a20 <crc32_tab>
    55f7:	8b 45 f0             	mov    -0x10(%rbp),%eax
    55fa:	89 04 11             	mov    %eax,(%rcx,%rdx,1)
    55fd:	83 45 f4 01          	addl   $0x1,-0xc(%rbp)
    5601:	81 7d f4 ff 00 00 00 	cmpl   $0xff,-0xc(%rbp)
    5608:	7e a6                	jle    55b0 <crc32_gentab+0x18>
    560a:	90                   	nop
    560b:	90                   	nop
    560c:	5d                   	pop    %rbp
    560d:	c3                   	retq   

000000000000560e <crc32_byte>:
    560e:	f3 0f 1e fa          	endbr64 
    5612:	55                   	push   %rbp
    5613:	48 89 e5             	mov    %rsp,%rbp
    5616:	89 f8                	mov    %edi,%eax
    5618:	88 45 fc             	mov    %al,-0x4(%rbp)
    561b:	8b 05 ff f9 00 00    	mov    0xf9ff(%rip),%eax        # 15020 <crc32_context>
    5621:	c1 e8 08             	shr    $0x8,%eax
    5624:	89 c1                	mov    %eax,%ecx
    5626:	0f b6 55 fc          	movzbl -0x4(%rbp),%edx
    562a:	8b 05 f0 f9 00 00    	mov    0xf9f0(%rip),%eax        # 15020 <crc32_context>
    5630:	31 d0                	xor    %edx,%eax
    5632:	0f b6 c0             	movzbl %al,%eax
    5635:	89 c0                	mov    %eax,%eax
    5637:	48 8d 14 85 00 00 00 	lea    0x0(,%rax,4),%rdx
    563e:	00 
    563f:	48 8d 05 da 43 01 00 	lea    0x143da(%rip),%rax        # 19a20 <crc32_tab>
    5646:	8b 04 02             	mov    (%rdx,%rax,1),%eax
    5649:	31 c8                	xor    %ecx,%eax
    564b:	89 05 cf f9 00 00    	mov    %eax,0xf9cf(%rip)        # 15020 <crc32_context>
    5651:	90                   	nop
    5652:	5d                   	pop    %rbp
    5653:	c3                   	retq   

0000000000005654 <crc32_8bytes>:
    5654:	f3 0f 1e fa          	endbr64 
    5658:	55                   	push   %rbp
    5659:	48 89 e5             	mov    %rsp,%rbp
    565c:	48 83 ec 08          	sub    $0x8,%rsp
    5660:	48 89 7d f8          	mov    %rdi,-0x8(%rbp)
    5664:	48 8b 45 f8          	mov    -0x8(%rbp),%rax
    5668:	0f b6 c0             	movzbl %al,%eax
    566b:	89 c7                	mov    %eax,%edi
    566d:	e8 9c ff ff ff       	callq  560e <crc32_byte>
    5672:	48 8b 45 f8          	mov    -0x8(%rbp),%rax
    5676:	48 c1 e8 08          	shr    $0x8,%rax
    567a:	0f b6 c0             	movzbl %al,%eax
    567d:	89 c7                	mov    %eax,%edi
    567f:	e8 8a ff ff ff       	callq  560e <crc32_byte>
    5684:	48 8b 45 f8          	mov    -0x8(%rbp),%rax
    5688:	48 c1 e8 10          	shr    $0x10,%rax
    568c:	0f b6 c0             	movzbl %al,%eax
    568f:	89 c7                	mov    %eax,%edi
    5691:	e8 78 ff ff ff       	callq  560e <crc32_byte>
    5696:	48 8b 45 f8          	mov    -0x8(%rbp),%rax
    569a:	48 c1 e8 18          	shr    $0x18,%rax
    569e:	0f b6 c0             	movzbl %al,%eax
    56a1:	89 c7                	mov    %eax,%edi
    56a3:	e8 66 ff ff ff       	callq  560e <crc32_byte>
    56a8:	48 8b 45 f8          	mov    -0x8(%rbp),%rax
    56ac:	48 c1 e8 20          	shr    $0x20,%rax
    56b0:	0f b6 c0             	movzbl %al,%eax
    56b3:	89 c7                	mov    %eax,%edi
    56b5:	e8 54 ff ff ff       	callq  560e <crc32_byte>
    56ba:	48 8b 45 f8          	mov    -0x8(%rbp),%rax
    56be:	48 c1 e8 28          	shr    $0x28,%rax
    56c2:	0f b6 c0             	movzbl %al,%eax
    56c5:	89 c7                	mov    %eax,%edi
    56c7:	e8 42 ff ff ff       	callq  560e <crc32_byte>
    56cc:	48 8b 45 f8          	mov    -0x8(%rbp),%rax
    56d0:	48 c1 e8 30          	shr    $0x30,%rax
    56d4:	0f b6 c0             	movzbl %al,%eax
    56d7:	89 c7                	mov    %eax,%edi
    56d9:	e8 30 ff ff ff       	callq  560e <crc32_byte>
    56de:	48 8b 45 f8          	mov    -0x8(%rbp),%rax
    56e2:	48 c1 e8 38          	shr    $0x38,%rax
    56e6:	0f b6 c0             	movzbl %al,%eax
    56e9:	89 c7                	mov    %eax,%edi
    56eb:	e8 1e ff ff ff       	callq  560e <crc32_byte>
    56f0:	90                   	nop
    56f1:	c9                   	leaveq 
    56f2:	c3                   	retq   

00000000000056f3 <transparent_crc>:
    56f3:	f3 0f 1e fa          	endbr64 
    56f7:	55                   	push   %rbp
    56f8:	48 89 e5             	mov    %rsp,%rbp
    56fb:	48 83 ec 20          	sub    $0x20,%rsp
    56ff:	48 89 7d f8          	mov    %rdi,-0x8(%rbp)
    5703:	48 89 75 f0          	mov    %rsi,-0x10(%rbp)
    5707:	89 55 ec             	mov    %edx,-0x14(%rbp)
    570a:	48 8b 45 f8          	mov    -0x8(%rbp),%rax
    570e:	48 89 c7             	mov    %rax,%rdi
    5711:	e8 3e ff ff ff       	callq  5654 <crc32_8bytes>
    5716:	83 7d ec 00          	cmpl   $0x0,-0x14(%rbp)
    571a:	74 22                	je     573e <transparent_crc+0x4b>
    571c:	8b 05 fe f8 00 00    	mov    0xf8fe(%rip),%eax        # 15020 <crc32_context>
    5722:	f7 d0                	not    %eax
    5724:	89 c2                	mov    %eax,%edx
    5726:	48 8b 45 f0          	mov    -0x10(%rbp),%rax
    572a:	48 89 c6             	mov    %rax,%rsi
    572d:	48 8d 3d fc b8 00 00 	lea    0xb8fc(%rip),%rdi        # 11030 <_IO_stdin_used+0x30>
    5734:	b8 00 00 00 00       	mov    $0x0,%eax
    5739:	e8 42 e9 ff ff       	callq  4080 <printf@plt>
    573e:	90                   	nop
    573f:	c9                   	leaveq 
    5740:	c3                   	retq   

0000000000005741 <transparent_crc_bytes>:
    5741:	f3 0f 1e fa          	endbr64 
    5745:	55                   	push   %rbp
    5746:	48 89 e5             	mov    %rsp,%rbp
    5749:	48 83 ec 30          	sub    $0x30,%rsp
    574d:	48 89 7d e8          	mov    %rdi,-0x18(%rbp)
    5751:	89 75 e4             	mov    %esi,-0x1c(%rbp)
    5754:	48 89 55 d8          	mov    %rdx,-0x28(%rbp)
    5758:	89 4d e0             	mov    %ecx,-0x20(%rbp)
    575b:	c7 45 fc 00 00 00 00 	movl   $0x0,-0x4(%rbp)
    5762:	eb 1e                	jmp    5782 <transparent_crc_bytes+0x41>
    5764:	8b 45 fc             	mov    -0x4(%rbp),%eax
    5767:	48 63 d0             	movslq %eax,%rdx
    576a:	48 8b 45 e8          	mov    -0x18(%rbp),%rax
    576e:	48 01 d0             	add    %rdx,%rax
    5771:	0f b6 00             	movzbl (%rax),%eax
    5774:	0f b6 c0             	movzbl %al,%eax
    5777:	89 c7                	mov    %eax,%edi
    5779:	e8 90 fe ff ff       	callq  560e <crc32_byte>
    577e:	83 45 fc 01          	addl   $0x1,-0x4(%rbp)
    5782:	8b 45 fc             	mov    -0x4(%rbp),%eax
    5785:	3b 45 e4             	cmp    -0x1c(%rbp),%eax
    5788:	7c da                	jl     5764 <transparent_crc_bytes+0x23>
    578a:	83 7d e0 00          	cmpl   $0x0,-0x20(%rbp)
    578e:	74 22                	je     57b2 <transparent_crc_bytes+0x71>
    5790:	8b 05 8a f8 00 00    	mov    0xf88a(%rip),%eax        # 15020 <crc32_context>
    5796:	f7 d0                	not    %eax
    5798:	89 c2                	mov    %eax,%edx
    579a:	48 8b 45 d8          	mov    -0x28(%rbp),%rax
    579e:	48 89 c6             	mov    %rax,%rsi
    57a1:	48 8d 3d 88 b8 00 00 	lea    0xb888(%rip),%rdi        # 11030 <_IO_stdin_used+0x30>
    57a8:	b8 00 00 00 00       	mov    $0x0,%eax
    57ad:	e8 ce e8 ff ff       	callq  4080 <printf@plt>
    57b2:	90                   	nop
    57b3:	c9                   	leaveq 
    57b4:	c3                   	retq   

00000000000057b5 <func_1>:
    57b5:	f3 0f 1e fa          	endbr64 
    57b9:	55                   	push   %rbp
    57ba:	48 89 e5             	mov    %rsp,%rbp
    57bd:	48 81 ec 20 0a 00 00 	sub    $0xa20,%rsp
    57c4:	48 89 bd e8 f5 ff ff 	mov    %rdi,-0xa18(%rbp)
    57cb:	64 48 8b 04 25 28 00 	mov    %fs:0x28,%rax
    57d2:	00 00 
    57d4:	48 89 45 f8          	mov    %rax,-0x8(%rbp)
    57d8:	31 c0                	xor    %eax,%eax
    57da:	48 8d 05 43 f8 00 00 	lea    0xf843(%rip),%rax        # 15024 <g_3>
    57e1:	48 89 85 20 f6 ff ff 	mov    %rax,-0x9e0(%rbp)
    57e8:	48 8d 05 61 f9 00 00 	lea    0xf961(%rip),%rax        # 15150 <g_181+0x30>
    57ef:	48 89 85 28 f6 ff ff 	mov    %rax,-0x9d8(%rbp)
    57f6:	48 8d 05 c3 29 01 00 	lea    0x129c3(%rip),%rax        # 181c0 <g_1302>
    57fd:	48 89 85 30 f6 ff ff 	mov    %rax,-0x9d0(%rbp)
    5804:	66 c7 85 fe f5 ff ff 	movw   $0xfff7,-0xa02(%rbp)
    580b:	f7 ff 
    580d:	c7 85 90 f6 ff ff 90 	movl   $0xc7eccc90,-0x970(%rbp)
    5814:	cc ec c7 
    5817:	c7 85 94 f6 ff ff 90 	movl   $0xc7eccc90,-0x96c(%rbp)
    581e:	cc ec c7 
    5821:	c7 85 98 f6 ff ff 90 	movl   $0xc7eccc90,-0x968(%rbp)
    5828:	cc ec c7 
    582b:	c7 85 9c f6 ff ff 90 	movl   $0xc7eccc90,-0x964(%rbp)
    5832:	cc ec c7 
    5835:	c7 85 a0 f6 ff ff 90 	movl   $0xc7eccc90,-0x960(%rbp)
    583c:	cc ec c7 
    583f:	c7 85 a4 f6 ff ff 90 	movl   $0xc7eccc90,-0x95c(%rbp)
    5846:	cc ec c7 
    5849:	c7 85 a8 f6 ff ff 90 	movl   $0xc7eccc90,-0x958(%rbp)
    5850:	cc ec c7 
    5853:	c7 85 ac f6 ff ff 90 	movl   $0xc7eccc90,-0x954(%rbp)
    585a:	cc ec c7 
    585d:	c7 85 b0 f6 ff ff 90 	movl   $0xc7eccc90,-0x950(%rbp)
    5864:	cc ec c7 
    5867:	c7 85 b4 f6 ff ff 90 	movl   $0xc7eccc90,-0x94c(%rbp)
    586e:	cc ec c7 
    5871:	c7 85 b8 f6 ff ff 90 	movl   $0xc7eccc90,-0x948(%rbp)
    5878:	cc ec c7 
    587b:	c7 85 bc f6 ff ff 90 	movl   $0xc7eccc90,-0x944(%rbp)
    5882:	cc ec c7 
    5885:	c7 85 04 f6 ff ff de 	movl   $0x6f21dcde,-0x9fc(%rbp)
    588c:	dc 21 6f 
    588f:	48 c7 85 38 f6 ff ff 	movq   $0xfffffffffffffff9,-0x9c8(%rbp)
    5896:	f9 ff ff ff 
    589a:	66 c7 85 86 f6 ff ff 	movw   $0x6,-0x97a(%rbp)
    58a1:	06 00 
    58a3:	66 c7 85 88 f6 ff ff 	movw   $0x6,-0x978(%rbp)
    58aa:	06 00 
    58ac:	66 c7 85 8a f6 ff ff 	movw   $0x6,-0x976(%rbp)
    58b3:	06 00 
    58b5:	66 c7 85 8c f6 ff ff 	movw   $0x6,-0x974(%rbp)
    58bc:	06 00 
    58be:	66 c7 85 8e f6 ff ff 	movw   $0x6,-0x972(%rbp)
    58c5:	06 00 
    58c7:	c6 85 fa f5 ff ff 03 	movb   $0x3,-0xa06(%rbp)
    58ce:	48 8d 05 53 45 01 00 	lea    0x14553(%rip),%rax        # 19e28 <g_16>
    58d5:	48 89 85 40 f6 ff ff 	mov    %rax,-0x9c0(%rbp)
    58dc:	c6 85 fb f5 ff ff ff 	movb   $0xff,-0xa05(%rbp)
    58e3:	48 8d 05 36 3e 01 00 	lea    0x13e36(%rip),%rax        # 19720 <g_294>
    58ea:	48 89 85 48 f6 ff ff 	mov    %rax,-0x9b8(%rbp)
    58f1:	48 8d 85 f0 f6 ff ff 	lea    -0x910(%rbp),%rax
    58f8:	48 8d 15 a1 b7 00 00 	lea    0xb7a1(%rip),%rdx        # 110a0 <g_1342+0x20>
    58ff:	b9 60 00 00 00       	mov    $0x60,%ecx
    5904:	48 89 c7             	mov    %rax,%rdi
    5907:	48 89 d6             	mov    %rdx,%rsi
    590a:	f3 48 a5             	rep movsq %ds:(%rsi),%es:(%rdi)
    590d:	48 c7 85 20 f6 ff ff 	movq   $0x0,-0x9e0(%rbp)
    5914:	00 00 00 00 
    5918:	c7 05 02 f7 00 00 00 	movl   $0x0,0xf702(%rip)        # 15024 <g_3>
    591f:	00 00 00 
    5922:	e9 00 0b 00 00       	jmpq   6427 <func_1+0xc72>
    5927:	c6 85 fc f5 ff ff 1f 	movb   $0x1f,-0xa04(%rbp)
    592e:	c7 85 08 f6 ff ff ff 	movl   $0xffffffff,-0x9f8(%rbp)
    5935:	ff ff ff 
    5938:	48 b8 93 9c 69 35 df 	movabs $0x4e9726df35699c93,%rax
    593f:	26 97 4e 
    5942:	48 89 85 50 f6 ff ff 	mov    %rax,-0x9b0(%rbp)
    5949:	c6 85 fd f5 ff ff ff 	movb   $0xff,-0xa03(%rbp)
    5950:	48 8d 85 c0 f6 ff ff 	lea    -0x940(%rbp),%rax
    5957:	48 83 c0 18          	add    $0x18,%rax
    595b:	48 89 85 58 f6 ff ff 	mov    %rax,-0x9a8(%rbp)
    5962:	48 b8 dc 02 ca 3d 71 	movabs $0xe6f2a0713dca02dc,%rax
    5969:	a0 f2 e6 
    596c:	48 89 85 60 f6 ff ff 	mov    %rax,-0x9a0(%rbp)
    5973:	c7 85 0c f6 ff ff 00 	movl   $0x0,-0x9f4(%rbp)
    597a:	00 00 00 
    597d:	c7 85 10 f6 ff ff 03 	movl   $0x3,-0x9f0(%rbp)
    5984:	00 00 00 
    5987:	c7 85 14 f6 ff ff 00 	movl   $0x0,-0x9ec(%rbp)
    598e:	00 00 00 
    5991:	48 8d 05 68 2b 01 00 	lea    0x12b68(%rip),%rax        # 18500 <g_1758>
    5998:	48 89 85 68 f6 ff ff 	mov    %rax,-0x998(%rbp)
    599f:	48 8d 05 aa f7 00 00 	lea    0xf7aa(%rip),%rax        # 15150 <g_181+0x30>
    59a6:	48 89 85 18 f6 ff ff 	mov    %rax,-0x9e8(%rbp)
    59ad:	48 8d 85 18 f6 ff ff 	lea    -0x9e8(%rbp),%rax
    59b4:	48 89 85 f0 f9 ff ff 	mov    %rax,-0x610(%rbp)
    59bb:	48 8d 85 18 f6 ff ff 	lea    -0x9e8(%rbp),%rax
    59c2:	48 89 85 f8 f9 ff ff 	mov    %rax,-0x608(%rbp)
    59c9:	48 8d 85 18 f6 ff ff 	lea    -0x9e8(%rbp),%rax
    59d0:	48 89 85 00 fa ff ff 	mov    %rax,-0x600(%rbp)
    59d7:	48 8d 85 18 f6 ff ff 	lea    -0x9e8(%rbp),%rax
    59de:	48 89 85 08 fa ff ff 	mov    %rax,-0x5f8(%rbp)
    59e5:	48 8d 85 18 f6 ff ff 	lea    -0x9e8(%rbp),%rax
    59ec:	48 89 85 10 fa ff ff 	mov    %rax,-0x5f0(%rbp)
    59f3:	48 c7 85 18 fa ff ff 	movq   $0x0,-0x5e8(%rbp)
    59fa:	00 00 00 00 
    59fe:	48 8d 85 18 f6 ff ff 	lea    -0x9e8(%rbp),%rax
    5a05:	48 89 85 20 fa ff ff 	mov    %rax,-0x5e0(%rbp)
    5a0c:	48 c7 85 28 fa ff ff 	movq   $0x0,-0x5d8(%rbp)
    5a13:	00 00 00 00 
    5a17:	48 8d 85 18 f6 ff ff 	lea    -0x9e8(%rbp),%rax
    5a1e:	48 89 85 30 fa ff ff 	mov    %rax,-0x5d0(%rbp)
    5a25:	48 8d 85 18 f6 ff ff 	lea    -0x9e8(%rbp),%rax
    5a2c:	48 89 85 38 fa ff ff 	mov    %rax,-0x5c8(%rbp)
    5a33:	48 c7 85 40 fa ff ff 	movq   $0x0,-0x5c0(%rbp)
    5a3a:	00 00 00 00 
    5a3e:	48 8d 85 18 f6 ff ff 	lea    -0x9e8(%rbp),%rax
    5a45:	48 89 85 48 fa ff ff 	mov    %rax,-0x5b8(%rbp)
    5a4c:	48 8d 85 18 f6 ff ff 	lea    -0x9e8(%rbp),%rax
    5a53:	48 89 85 50 fa ff ff 	mov    %rax,-0x5b0(%rbp)
    5a5a:	48 8d 85 18 f6 ff ff 	lea    -0x9e8(%rbp),%rax
    5a61:	48 89 85 58 fa ff ff 	mov    %rax,-0x5a8(%rbp)
    5a68:	48 8d 85 18 f6 ff ff 	lea    -0x9e8(%rbp),%rax
    5a6f:	48 89 85 60 fa ff ff 	mov    %rax,-0x5a0(%rbp)
    5a76:	48 c7 85 68 fa ff ff 	movq   $0x0,-0x598(%rbp)
    5a7d:	00 00 00 00 
    5a81:	48 8d 85 18 f6 ff ff 	lea    -0x9e8(%rbp),%rax
    5a88:	48 89 85 70 fa ff ff 	mov    %rax,-0x590(%rbp)
    5a8f:	48 8d 85 18 f6 ff ff 	lea    -0x9e8(%rbp),%rax
    5a96:	48 89 85 78 fa ff ff 	mov    %rax,-0x588(%rbp)
    5a9d:	48 8d 85 18 f6 ff ff 	lea    -0x9e8(%rbp),%rax
    5aa4:	48 89 85 80 fa ff ff 	mov    %rax,-0x580(%rbp)
    5aab:	48 8d 85 18 f6 ff ff 	lea    -0x9e8(%rbp),%rax
    5ab2:	48 89 85 88 fa ff ff 	mov    %rax,-0x578(%rbp)
    5ab9:	48 8d 85 18 f6 ff ff 	lea    -0x9e8(%rbp),%rax
    5ac0:	48 89 85 90 fa ff ff 	mov    %rax,-0x570(%rbp)
    5ac7:	48 8d 85 18 f6 ff ff 	lea    -0x9e8(%rbp),%rax
    5ace:	48 89 85 98 fa ff ff 	mov    %rax,-0x568(%rbp)
    5ad5:	48 8d 85 18 f6 ff ff 	lea    -0x9e8(%rbp),%rax
    5adc:	48 89 85 a0 fa ff ff 	mov    %rax,-0x560(%rbp)
    5ae3:	48 8d 85 18 f6 ff ff 	lea    -0x9e8(%rbp),%rax
    5aea:	48 89 85 a8 fa ff ff 	mov    %rax,-0x558(%rbp)
    5af1:	48 8d 85 18 f6 ff ff 	lea    -0x9e8(%rbp),%rax
    5af8:	48 89 85 b0 fa ff ff 	mov    %rax,-0x550(%rbp)
    5aff:	48 8d 85 18 f6 ff ff 	lea    -0x9e8(%rbp),%rax
    5b06:	48 89 85 b8 fa ff ff 	mov    %rax,-0x548(%rbp)
    5b0d:	48 8d 85 18 f6 ff ff 	lea    -0x9e8(%rbp),%rax
    5b14:	48 89 85 c0 fa ff ff 	mov    %rax,-0x540(%rbp)
    5b1b:	48 8d 85 18 f6 ff ff 	lea    -0x9e8(%rbp),%rax
    5b22:	48 89 85 c8 fa ff ff 	mov    %rax,-0x538(%rbp)
    5b29:	48 8d 85 18 f6 ff ff 	lea    -0x9e8(%rbp),%rax
    5b30:	48 89 85 d0 fa ff ff 	mov    %rax,-0x530(%rbp)
    5b37:	48 c7 85 d8 fa ff ff 	movq   $0x0,-0x528(%rbp)
    5b3e:	00 00 00 00 
    5b42:	48 8d 85 18 f6 ff ff 	lea    -0x9e8(%rbp),%rax
    5b49:	48 89 85 e0 fa ff ff 	mov    %rax,-0x520(%rbp)
    5b50:	48 8d 85 18 f6 ff ff 	lea    -0x9e8(%rbp),%rax
    5b57:	48 89 85 e8 fa ff ff 	mov    %rax,-0x518(%rbp)
    5b5e:	48 8d 85 18 f6 ff ff 	lea    -0x9e8(%rbp),%rax
    5b65:	48 89 85 f0 fa ff ff 	mov    %rax,-0x510(%rbp)
    5b6c:	48 c7 85 f8 fa ff ff 	movq   $0x0,-0x508(%rbp)
    5b73:	00 00 00 00 
    5b77:	48 8d 85 18 f6 ff ff 	lea    -0x9e8(%rbp),%rax
    5b7e:	48 89 85 00 fb ff ff 	mov    %rax,-0x500(%rbp)
    5b85:	48 8d 85 18 f6 ff ff 	lea    -0x9e8(%rbp),%rax
    5b8c:	48 89 85 08 fb ff ff 	mov    %rax,-0x4f8(%rbp)
    5b93:	48 8d 85 18 f6 ff ff 	lea    -0x9e8(%rbp),%rax
    5b9a:	48 89 85 10 fb ff ff 	mov    %rax,-0x4f0(%rbp)
    5ba1:	48 8d 85 18 f6 ff ff 	lea    -0x9e8(%rbp),%rax
    5ba8:	48 89 85 18 fb ff ff 	mov    %rax,-0x4e8(%rbp)
    5baf:	48 8d 85 18 f6 ff ff 	lea    -0x9e8(%rbp),%rax
    5bb6:	48 89 85 20 fb ff ff 	mov    %rax,-0x4e0(%rbp)
    5bbd:	48 c7 85 28 fb ff ff 	movq   $0x0,-0x4d8(%rbp)
    5bc4:	00 00 00 00 
    5bc8:	48 8d 85 18 f6 ff ff 	lea    -0x9e8(%rbp),%rax
    5bcf:	48 89 85 30 fb ff ff 	mov    %rax,-0x4d0(%rbp)
    5bd6:	48 8d 85 18 f6 ff ff 	lea    -0x9e8(%rbp),%rax
    5bdd:	48 89 85 38 fb ff ff 	mov    %rax,-0x4c8(%rbp)
    5be4:	48 8d 85 18 f6 ff ff 	lea    -0x9e8(%rbp),%rax
    5beb:	48 89 85 40 fb ff ff 	mov    %rax,-0x4c0(%rbp)
    5bf2:	48 8d 85 18 f6 ff ff 	lea    -0x9e8(%rbp),%rax
    5bf9:	48 89 85 48 fb ff ff 	mov    %rax,-0x4b8(%rbp)
    5c00:	48 c7 85 50 fb ff ff 	movq   $0x0,-0x4b0(%rbp)
    5c07:	00 00 00 00 
    5c0b:	48 8d 85 18 f6 ff ff 	lea    -0x9e8(%rbp),%rax
    5c12:	48 89 85 58 fb ff ff 	mov    %rax,-0x4a8(%rbp)
    5c19:	48 c7 85 60 fb ff ff 	movq   $0x0,-0x4a0(%rbp)
    5c20:	00 00 00 00 
    5c24:	48 c7 85 68 fb ff ff 	movq   $0x0,-0x498(%rbp)
    5c2b:	00 00 00 00 
    5c2f:	48 8d 85 18 f6 ff ff 	lea    -0x9e8(%rbp),%rax
    5c36:	48 89 85 70 fb ff ff 	mov    %rax,-0x490(%rbp)
    5c3d:	48 8d 85 18 f6 ff ff 	lea    -0x9e8(%rbp),%rax
    5c44:	48 89 85 78 fb ff ff 	mov    %rax,-0x488(%rbp)
    5c4b:	48 8d 85 18 f6 ff ff 	lea    -0x9e8(%rbp),%rax
    5c52:	48 89 85 80 fb ff ff 	mov    %rax,-0x480(%rbp)
    5c59:	48 8d 85 18 f6 ff ff 	lea    -0x9e8(%rbp),%rax
    5c60:	48 89 85 88 fb ff ff 	mov    %rax,-0x478(%rbp)
    5c67:	48 8d 85 18 f6 ff ff 	lea    -0x9e8(%rbp),%rax
    5c6e:	48 89 85 90 fb ff ff 	mov    %rax,-0x470(%rbp)
    5c75:	48 8d 85 18 f6 ff ff 	lea    -0x9e8(%rbp),%rax
    5c7c:	48 89 85 98 fb ff ff 	mov    %rax,-0x468(%rbp)
    5c83:	48 8d 85 18 f6 ff ff 	lea    -0x9e8(%rbp),%rax
    5c8a:	48 89 85 a0 fb ff ff 	mov    %rax,-0x460(%rbp)
    5c91:	48 8d 85 18 f6 ff ff 	lea    -0x9e8(%rbp),%rax
    5c98:	48 89 85 a8 fb ff ff 	mov    %rax,-0x458(%rbp)
    5c9f:	48 8d 85 18 f6 ff ff 	lea    -0x9e8(%rbp),%rax
    5ca6:	48 89 85 b0 fb ff ff 	mov    %rax,-0x450(%rbp)
    5cad:	48 8d 85 18 f6 ff ff 	lea    -0x9e8(%rbp),%rax
    5cb4:	48 89 85 b8 fb ff ff 	mov    %rax,-0x448(%rbp)
    5cbb:	48 8d 85 18 f6 ff ff 	lea    -0x9e8(%rbp),%rax
    5cc2:	48 89 85 c0 fb ff ff 	mov    %rax,-0x440(%rbp)
    5cc9:	48 8d 85 18 f6 ff ff 	lea    -0x9e8(%rbp),%rax
    5cd0:	48 89 85 c8 fb ff ff 	mov    %rax,-0x438(%rbp)
    5cd7:	48 8d 85 18 f6 ff ff 	lea    -0x9e8(%rbp),%rax
    5cde:	48 89 85 d0 fb ff ff 	mov    %rax,-0x430(%rbp)
    5ce5:	48 8d 85 18 f6 ff ff 	lea    -0x9e8(%rbp),%rax
    5cec:	48 89 85 d8 fb ff ff 	mov    %rax,-0x428(%rbp)
    5cf3:	48 8d 85 18 f6 ff ff 	lea    -0x9e8(%rbp),%rax
    5cfa:	48 89 85 e0 fb ff ff 	mov    %rax,-0x420(%rbp)
    5d01:	48 8d 85 18 f6 ff ff 	lea    -0x9e8(%rbp),%rax
    5d08:	48 89 85 e8 fb ff ff 	mov    %rax,-0x418(%rbp)
    5d0f:	48 8d 85 18 f6 ff ff 	lea    -0x9e8(%rbp),%rax
    5d16:	48 89 85 f0 fb ff ff 	mov    %rax,-0x410(%rbp)
    5d1d:	48 8d 85 18 f6 ff ff 	lea    -0x9e8(%rbp),%rax
    5d24:	48 89 85 f8 fb ff ff 	mov    %rax,-0x408(%rbp)
    5d2b:	48 8d 85 18 f6 ff ff 	lea    -0x9e8(%rbp),%rax
    5d32:	48 89 85 00 fc ff ff 	mov    %rax,-0x400(%rbp)
    5d39:	48 8d 85 18 f6 ff ff 	lea    -0x9e8(%rbp),%rax
    5d40:	48 89 85 08 fc ff ff 	mov    %rax,-0x3f8(%rbp)
    5d47:	48 c7 85 10 fc ff ff 	movq   $0x0,-0x3f0(%rbp)
    5d4e:	00 00 00 00 
    5d52:	48 c7 85 18 fc ff ff 	movq   $0x0,-0x3e8(%rbp)
    5d59:	00 00 00 00 
    5d5d:	48 8d 85 18 f6 ff ff 	lea    -0x9e8(%rbp),%rax
    5d64:	48 89 85 20 fc ff ff 	mov    %rax,-0x3e0(%rbp)
    5d6b:	48 8d 85 18 f6 ff ff 	lea    -0x9e8(%rbp),%rax
    5d72:	48 89 85 28 fc ff ff 	mov    %rax,-0x3d8(%rbp)
    5d79:	48 8d 85 18 f6 ff ff 	lea    -0x9e8(%rbp),%rax
    5d80:	48 89 85 30 fc ff ff 	mov    %rax,-0x3d0(%rbp)
    5d87:	48 8d 85 18 f6 ff ff 	lea    -0x9e8(%rbp),%rax
    5d8e:	48 89 85 38 fc ff ff 	mov    %rax,-0x3c8(%rbp)
    5d95:	48 8d 85 18 f6 ff ff 	lea    -0x9e8(%rbp),%rax
    5d9c:	48 89 85 40 fc ff ff 	mov    %rax,-0x3c0(%rbp)
    5da3:	48 8d 85 18 f6 ff ff 	lea    -0x9e8(%rbp),%rax
    5daa:	48 89 85 48 fc ff ff 	mov    %rax,-0x3b8(%rbp)
    5db1:	48 8d 85 18 f6 ff ff 	lea    -0x9e8(%rbp),%rax
    5db8:	48 89 85 50 fc ff ff 	mov    %rax,-0x3b0(%rbp)
    5dbf:	48 c7 85 58 fc ff ff 	movq   $0x0,-0x3a8(%rbp)
    5dc6:	00 00 00 00 
    5dca:	48 8d 85 18 f6 ff ff 	lea    -0x9e8(%rbp),%rax
    5dd1:	48 89 85 60 fc ff ff 	mov    %rax,-0x3a0(%rbp)
    5dd8:	48 8d 85 18 f6 ff ff 	lea    -0x9e8(%rbp),%rax
    5ddf:	48 89 85 68 fc ff ff 	mov    %rax,-0x398(%rbp)
    5de6:	48 c7 85 70 fc ff ff 	movq   $0x0,-0x390(%rbp)
    5ded:	00 00 00 00 
    5df1:	48 8d 85 18 f6 ff ff 	lea    -0x9e8(%rbp),%rax
    5df8:	48 89 85 78 fc ff ff 	mov    %rax,-0x388(%rbp)
    5dff:	48 8d 85 18 f6 ff ff 	lea    -0x9e8(%rbp),%rax
    5e06:	48 89 85 80 fc ff ff 	mov    %rax,-0x380(%rbp)
    5e0d:	48 8d 85 18 f6 ff ff 	lea    -0x9e8(%rbp),%rax
    5e14:	48 89 85 88 fc ff ff 	mov    %rax,-0x378(%rbp)
    5e1b:	48 8d 85 18 f6 ff ff 	lea    -0x9e8(%rbp),%rax
    5e22:	48 89 85 90 fc ff ff 	mov    %rax,-0x370(%rbp)
    5e29:	48 8d 85 18 f6 ff ff 	lea    -0x9e8(%rbp),%rax
    5e30:	48 89 85 98 fc ff ff 	mov    %rax,-0x368(%rbp)
    5e37:	48 c7 85 a0 fc ff ff 	movq   $0x0,-0x360(%rbp)
    5e3e:	00 00 00 00 
    5e42:	48 8d 85 18 f6 ff ff 	lea    -0x9e8(%rbp),%rax
    5e49:	48 89 85 a8 fc ff ff 	mov    %rax,-0x358(%rbp)
    5e50:	48 8d 85 18 f6 ff ff 	lea    -0x9e8(%rbp),%rax
    5e57:	48 89 85 b0 fc ff ff 	mov    %rax,-0x350(%rbp)
    5e5e:	48 8d 85 18 f6 ff ff 	lea    -0x9e8(%rbp),%rax
    5e65:	48 89 85 b8 fc ff ff 	mov    %rax,-0x348(%rbp)
    5e6c:	48 8d 85 18 f6 ff ff 	lea    -0x9e8(%rbp),%rax
    5e73:	48 89 85 c0 fc ff ff 	mov    %rax,-0x340(%rbp)
    5e7a:	48 8d 85 18 f6 ff ff 	lea    -0x9e8(%rbp),%rax
    5e81:	48 89 85 c8 fc ff ff 	mov    %rax,-0x338(%rbp)
    5e88:	48 8d 85 18 f6 ff ff 	lea    -0x9e8(%rbp),%rax
    5e8f:	48 89 85 d0 fc ff ff 	mov    %rax,-0x330(%rbp)
    5e96:	48 8d 85 18 f6 ff ff 	lea    -0x9e8(%rbp),%rax
    5e9d:	48 89 85 d8 fc ff ff 	mov    %rax,-0x328(%rbp)
    5ea4:	48 8d 85 18 f6 ff ff 	lea    -0x9e8(%rbp),%rax
    5eab:	48 89 85 e0 fc ff ff 	mov    %rax,-0x320(%rbp)
    5eb2:	48 c7 85 e8 fc ff ff 	movq   $0x0,-0x318(%rbp)
    5eb9:	00 00 00 00 
    5ebd:	48 c7 85 f0 fc ff ff 	movq   $0x0,-0x310(%rbp)
    5ec4:	00 00 00 00 
    5ec8:	48 8d 85 18 f6 ff ff 	lea    -0x9e8(%rbp),%rax
    5ecf:	48 89 85 f8 fc ff ff 	mov    %rax,-0x308(%rbp)
    5ed6:	48 8d 85 18 f6 ff ff 	lea    -0x9e8(%rbp),%rax
    5edd:	48 89 85 00 fd ff ff 	mov    %rax,-0x300(%rbp)
    5ee4:	48 8d 85 18 f6 ff ff 	lea    -0x9e8(%rbp),%rax
    5eeb:	48 89 85 08 fd ff ff 	mov    %rax,-0x2f8(%rbp)
    5ef2:	48 8d 85 18 f6 ff ff 	lea    -0x9e8(%rbp),%rax
    5ef9:	48 89 85 10 fd ff ff 	mov    %rax,-0x2f0(%rbp)
    5f00:	48 8d 85 18 f6 ff ff 	lea    -0x9e8(%rbp),%rax
    5f07:	48 89 85 18 fd ff ff 	mov    %rax,-0x2e8(%rbp)
    5f0e:	48 8d 85 18 f6 ff ff 	lea    -0x9e8(%rbp),%rax
    5f15:	48 89 85 20 fd ff ff 	mov    %rax,-0x2e0(%rbp)
    5f1c:	48 8d 85 18 f6 ff ff 	lea    -0x9e8(%rbp),%rax
    5f23:	48 89 85 28 fd ff ff 	mov    %rax,-0x2d8(%rbp)
    5f2a:	48 8d 85 18 f6 ff ff 	lea    -0x9e8(%rbp),%rax
    5f31:	48 89 85 30 fd ff ff 	mov    %rax,-0x2d0(%rbp)
    5f38:	48 8d 85 18 f6 ff ff 	lea    -0x9e8(%rbp),%rax
    5f3f:	48 89 85 38 fd ff ff 	mov    %rax,-0x2c8(%rbp)
    5f46:	48 c7 85 40 fd ff ff 	movq   $0x0,-0x2c0(%rbp)
    5f4d:	00 00 00 00 
    5f51:	48 c7 85 48 fd ff ff 	movq   $0x0,-0x2b8(%rbp)
    5f58:	00 00 00 00 
    5f5c:	48 8d 85 18 f6 ff ff 	lea    -0x9e8(%rbp),%rax
    5f63:	48 89 85 50 fd ff ff 	mov    %rax,-0x2b0(%rbp)
    5f6a:	48 8d 85 18 f6 ff ff 	lea    -0x9e8(%rbp),%rax
    5f71:	48 89 85 58 fd ff ff 	mov    %rax,-0x2a8(%rbp)
    5f78:	48 8d 85 18 f6 ff ff 	lea    -0x9e8(%rbp),%rax
    5f7f:	48 89 85 60 fd ff ff 	mov    %rax,-0x2a0(%rbp)
    5f86:	48 c7 85 68 fd ff ff 	movq   $0x0,-0x298(%rbp)
    5f8d:	00 00 00 00 
    5f91:	48 c7 85 70 fd ff ff 	movq   $0x0,-0x290(%rbp)
    5f98:	00 00 00 00 
    5f9c:	48 8d 85 18 f6 ff ff 	lea    -0x9e8(%rbp),%rax
    5fa3:	48 89 85 78 fd ff ff 	mov    %rax,-0x288(%rbp)
    5faa:	48 c7 85 80 fd ff ff 	movq   $0x0,-0x280(%rbp)
    5fb1:	00 00 00 00 
    5fb5:	48 8d 85 18 f6 ff ff 	lea    -0x9e8(%rbp),%rax
    5fbc:	48 89 85 88 fd ff ff 	mov    %rax,-0x278(%rbp)
    5fc3:	48 8d 85 18 f6 ff ff 	lea    -0x9e8(%rbp),%rax
    5fca:	48 89 85 90 fd ff ff 	mov    %rax,-0x270(%rbp)
    5fd1:	48 8d 85 18 f6 ff ff 	lea    -0x9e8(%rbp),%rax
    5fd8:	48 89 85 98 fd ff ff 	mov    %rax,-0x268(%rbp)
    5fdf:	48 8d 85 18 f6 ff ff 	lea    -0x9e8(%rbp),%rax
    5fe6:	48 89 85 a0 fd ff ff 	mov    %rax,-0x260(%rbp)
    5fed:	48 8d 85 18 f6 ff ff 	lea    -0x9e8(%rbp),%rax
    5ff4:	48 89 85 a8 fd ff ff 	mov    %rax,-0x258(%rbp)
    5ffb:	48 8d 85 18 f6 ff ff 	lea    -0x9e8(%rbp),%rax
    6002:	48 89 85 b0 fd ff ff 	mov    %rax,-0x250(%rbp)
    6009:	48 8d 85 18 f6 ff ff 	lea    -0x9e8(%rbp),%rax
    6010:	48 89 85 b8 fd ff ff 	mov    %rax,-0x248(%rbp)
    6017:	48 8d 85 18 f6 ff ff 	lea    -0x9e8(%rbp),%rax
    601e:	48 89 85 c0 fd ff ff 	mov    %rax,-0x240(%rbp)
    6025:	48 8d 85 18 f6 ff ff 	lea    -0x9e8(%rbp),%rax
    602c:	48 89 85 c8 fd ff ff 	mov    %rax,-0x238(%rbp)
    6033:	48 c7 85 d0 fd ff ff 	movq   $0x0,-0x230(%rbp)
    603a:	00 00 00 00 
    603e:	48 c7 85 d8 fd ff ff 	movq   $0x0,-0x228(%rbp)
    6045:	00 00 00 00 
    6049:	48 8d 85 18 f6 ff ff 	lea    -0x9e8(%rbp),%rax
    6050:	48 89 85 e0 fd ff ff 	mov    %rax,-0x220(%rbp)
    6057:	48 c7 85 e8 fd ff ff 	movq   $0x0,-0x218(%rbp)
    605e:	00 00 00 00 
    6062:	48 8d 85 18 f6 ff ff 	lea    -0x9e8(%rbp),%rax
    6069:	48 89 85 f0 fd ff ff 	mov    %rax,-0x210(%rbp)
    6070:	48 c7 85 f8 fd ff ff 	movq   $0x0,-0x208(%rbp)
    6077:	00 00 00 00 
    607b:	48 8d 85 18 f6 ff ff 	lea    -0x9e8(%rbp),%rax
    6082:	48 89 85 00 fe ff ff 	mov    %rax,-0x200(%rbp)
    6089:	48 c7 85 08 fe ff ff 	movq   $0x0,-0x1f8(%rbp)
    6090:	00 00 00 00 
    6094:	48 8d 85 18 f6 ff ff 	lea    -0x9e8(%rbp),%rax
    609b:	48 89 85 10 fe ff ff 	mov    %rax,-0x1f0(%rbp)
    60a2:	48 8d 85 18 f6 ff ff 	lea    -0x9e8(%rbp),%rax
    60a9:	48 89 85 18 fe ff ff 	mov    %rax,-0x1e8(%rbp)
    60b0:	48 8d 85 18 f6 ff ff 	lea    -0x9e8(%rbp),%rax
    60b7:	48 89 85 20 fe ff ff 	mov    %rax,-0x1e0(%rbp)
    60be:	48 8d 85 18 f6 ff ff 	lea    -0x9e8(%rbp),%rax
    60c5:	48 89 85 28 fe ff ff 	mov    %rax,-0x1d8(%rbp)
    60cc:	48 8d 85 18 f6 ff ff 	lea    -0x9e8(%rbp),%rax
    60d3:	48 89 85 30 fe ff ff 	mov    %rax,-0x1d0(%rbp)
    60da:	48 c7 85 38 fe ff ff 	movq   $0x0,-0x1c8(%rbp)
    60e1:	00 00 00 00 
    60e5:	48 8d 85 18 f6 ff ff 	lea    -0x9e8(%rbp),%rax
    60ec:	48 89 85 40 fe ff ff 	mov    %rax,-0x1c0(%rbp)
    60f3:	48 8d 85 18 f6 ff ff 	lea    -0x9e8(%rbp),%rax
    60fa:	48 89 85 48 fe ff ff 	mov    %rax,-0x1b8(%rbp)
    6101:	48 8d 85 18 f6 ff ff 	lea    -0x9e8(%rbp),%rax
    6108:	48 89 85 50 fe ff ff 	mov    %rax,-0x1b0(%rbp)
    610f:	48 8d 85 18 f6 ff ff 	lea    -0x9e8(%rbp),%rax
    6116:	48 89 85 58 fe ff ff 	mov    %rax,-0x1a8(%rbp)
    611d:	48 8d 85 18 f6 ff ff 	lea    -0x9e8(%rbp),%rax
    6124:	48 89 85 60 fe ff ff 	mov    %rax,-0x1a0(%rbp)
    612b:	48 c7 85 68 fe ff ff 	movq   $0x0,-0x198(%rbp)
    6132:	00 00 00 00 
    6136:	48 8d 85 18 f6 ff ff 	lea    -0x9e8(%rbp),%rax
    613d:	48 89 85 70 fe ff ff 	mov    %rax,-0x190(%rbp)
    6144:	48 8d 85 18 f6 ff ff 	lea    -0x9e8(%rbp),%rax
    614b:	48 89 85 78 fe ff ff 	mov    %rax,-0x188(%rbp)
    6152:	48 8d 85 18 f6 ff ff 	lea    -0x9e8(%rbp),%rax
    6159:	48 89 85 80 fe ff ff 	mov    %rax,-0x180(%rbp)
    6160:	48 8d 85 18 f6 ff ff 	lea    -0x9e8(%rbp),%rax
    6167:	48 89 85 88 fe ff ff 	mov    %rax,-0x178(%rbp)
    616e:	48 8d 85 18 f6 ff ff 	lea    -0x9e8(%rbp),%rax
    6175:	48 89 85 90 fe ff ff 	mov    %rax,-0x170(%rbp)
    617c:	48 8d 85 18 f6 ff ff 	lea    -0x9e8(%rbp),%rax
    6183:	48 89 85 98 fe ff ff 	mov    %rax,-0x168(%rbp)
    618a:	48 8d 85 18 f6 ff ff 	lea    -0x9e8(%rbp),%rax
    6191:	48 89 85 a0 fe ff ff 	mov    %rax,-0x160(%rbp)
    6198:	48 8d 85 18 f6 ff ff 	lea    -0x9e8(%rbp),%rax
    619f:	48 89 85 a8 fe ff ff 	mov    %rax,-0x158(%rbp)
    61a6:	48 8d 85 18 f6 ff ff 	lea    -0x9e8(%rbp),%rax
    61ad:	48 89 85 b0 fe ff ff 	mov    %rax,-0x150(%rbp)
    61b4:	48 8d 85 18 f6 ff ff 	lea    -0x9e8(%rbp),%rax
    61bb:	48 89 85 b8 fe ff ff 	mov    %rax,-0x148(%rbp)
    61c2:	48 8d 85 18 f6 ff ff 	lea    -0x9e8(%rbp),%rax
    61c9:	48 89 85 c0 fe ff ff 	mov    %rax,-0x140(%rbp)
    61d0:	48 8d 85 18 f6 ff ff 	lea    -0x9e8(%rbp),%rax
    61d7:	48 89 85 c8 fe ff ff 	mov    %rax,-0x138(%rbp)
    61de:	48 8d 85 18 f6 ff ff 	lea    -0x9e8(%rbp),%rax
    61e5:	48 89 85 d0 fe ff ff 	mov    %rax,-0x130(%rbp)
    61ec:	48 8d 85 18 f6 ff ff 	lea    -0x9e8(%rbp),%rax
    61f3:	48 89 85 d8 fe ff ff 	mov    %rax,-0x128(%rbp)
    61fa:	48 8d 85 18 f6 ff ff 	lea    -0x9e8(%rbp),%rax
    6201:	48 89 85 e0 fe ff ff 	mov    %rax,-0x120(%rbp)
    6208:	48 8d 85 18 f6 ff ff 	lea    -0x9e8(%rbp),%rax
    620f:	48 89 85 e8 fe ff ff 	mov    %rax,-0x118(%rbp)
    6216:	48 8d 85 18 f6 ff ff 	lea    -0x9e8(%rbp),%rax
    621d:	48 89 85 f0 fe ff ff 	mov    %rax,-0x110(%rbp)
    6224:	48 8d 85 18 f6 ff ff 	lea    -0x9e8(%rbp),%rax
    622b:	48 89 85 f8 fe ff ff 	mov    %rax,-0x108(%rbp)
    6232:	48 8d 85 18 f6 ff ff 	lea    -0x9e8(%rbp),%rax
    6239:	48 89 85 00 ff ff ff 	mov    %rax,-0x100(%rbp)
    6240:	48 8d 85 18 f6 ff ff 	lea    -0x9e8(%rbp),%rax
    6247:	48 89 85 08 ff ff ff 	mov    %rax,-0xf8(%rbp)
    624e:	48 8d 85 18 f6 ff ff 	lea    -0x9e8(%rbp),%rax
    6255:	48 89 85 10 ff ff ff 	mov    %rax,-0xf0(%rbp)
    625c:	48 8d 85 18 f6 ff ff 	lea    -0x9e8(%rbp),%rax
    6263:	48 89 85 18 ff ff ff 	mov    %rax,-0xe8(%rbp)
    626a:	48 8d 85 18 f6 ff ff 	lea    -0x9e8(%rbp),%rax
    6271:	48 89 85 20 ff ff ff 	mov    %rax,-0xe0(%rbp)
    6278:	48 8d 85 18 f6 ff ff 	lea    -0x9e8(%rbp),%rax
    627f:	48 89 85 28 ff ff ff 	mov    %rax,-0xd8(%rbp)
    6286:	48 8d 85 18 f6 ff ff 	lea    -0x9e8(%rbp),%rax
    628d:	48 89 85 30 ff ff ff 	mov    %rax,-0xd0(%rbp)
    6294:	48 8d 85 18 f6 ff ff 	lea    -0x9e8(%rbp),%rax
    629b:	48 89 85 38 ff ff ff 	mov    %rax,-0xc8(%rbp)
    62a2:	48 c7 85 40 ff ff ff 	movq   $0x0,-0xc0(%rbp)
    62a9:	00 00 00 00 
    62ad:	48 8d 85 18 f6 ff ff 	lea    -0x9e8(%rbp),%rax
    62b4:	48 89 85 48 ff ff ff 	mov    %rax,-0xb8(%rbp)
    62bb:	48 8d 85 18 f6 ff ff 	lea    -0x9e8(%rbp),%rax
    62c2:	48 89 85 50 ff ff ff 	mov    %rax,-0xb0(%rbp)
    62c9:	48 8d 85 18 f6 ff ff 	lea    -0x9e8(%rbp),%rax
    62d0:	48 89 85 58 ff ff ff 	mov    %rax,-0xa8(%rbp)
    62d7:	48 8d 85 18 f6 ff ff 	lea    -0x9e8(%rbp),%rax
    62de:	48 89 85 60 ff ff ff 	mov    %rax,-0xa0(%rbp)
    62e5:	48 8d 85 18 f6 ff ff 	lea    -0x9e8(%rbp),%rax
    62ec:	48 89 85 68 ff ff ff 	mov    %rax,-0x98(%rbp)
    62f3:	48 c7 85 70 ff ff ff 	movq   $0x0,-0x90(%rbp)
    62fa:	00 00 00 00 
    62fe:	48 8d 85 18 f6 ff ff 	lea    -0x9e8(%rbp),%rax
    6305:	48 89 85 78 ff ff ff 	mov    %rax,-0x88(%rbp)
    630c:	48 c7 45 80 00 00 00 	movq   $0x0,-0x80(%rbp)
    6313:	00 
    6314:	48 8d 85 18 f6 ff ff 	lea    -0x9e8(%rbp),%rax
    631b:	48 89 45 88          	mov    %rax,-0x78(%rbp)
    631f:	48 8d 85 18 f6 ff ff 	lea    -0x9e8(%rbp),%rax
    6326:	48 89 45 90          	mov    %rax,-0x70(%rbp)
    632a:	48 8d 85 18 f6 ff ff 	lea    -0x9e8(%rbp),%rax
    6331:	48 89 45 98          	mov    %rax,-0x68(%rbp)
    6335:	48 8d 85 18 f6 ff ff 	lea    -0x9e8(%rbp),%rax
    633c:	48 89 45 a0          	mov    %rax,-0x60(%rbp)
    6340:	48 8d 85 18 f6 ff ff 	lea    -0x9e8(%rbp),%rax
    6347:	48 89 45 a8          	mov    %rax,-0x58(%rbp)
    634b:	48 8d 85 18 f6 ff ff 	lea    -0x9e8(%rbp),%rax
    6352:	48 89 45 b0          	mov    %rax,-0x50(%rbp)
    6356:	48 8d 85 18 f6 ff ff 	lea    -0x9e8(%rbp),%rax
    635d:	48 89 45 b8          	mov    %rax,-0x48(%rbp)
    6361:	48 8d 85 18 f6 ff ff 	lea    -0x9e8(%rbp),%rax
    6368:	48 89 45 c0          	mov    %rax,-0x40(%rbp)
    636c:	48 8d 85 18 f6 ff ff 	lea    -0x9e8(%rbp),%rax
    6373:	48 89 45 c8          	mov    %rax,-0x38(%rbp)
    6377:	48 8d 85 18 f6 ff ff 	lea    -0x9e8(%rbp),%rax
    637e:	48 89 45 d0          	mov    %rax,-0x30(%rbp)
    6382:	48 8d 85 18 f6 ff ff 	lea    -0x9e8(%rbp),%rax
    6389:	48 89 45 d8          	mov    %rax,-0x28(%rbp)
    638d:	48 8d 85 18 f6 ff ff 	lea    -0x9e8(%rbp),%rax
    6394:	48 89 45 e0          	mov    %rax,-0x20(%rbp)
    6398:	48 8d 85 18 f6 ff ff 	lea    -0x9e8(%rbp),%rax
    639f:	48 89 45 e8          	mov    %rax,-0x18(%rbp)
    63a3:	48 8d 85 f0 f9 ff ff 	lea    -0x610(%rbp),%rax
    63aa:	48 05 c8 05 00 00    	add    $0x5c8,%rax
    63b0:	48 89 85 70 f6 ff ff 	mov    %rax,-0x990(%rbp)
    63b7:	c7 85 00 f6 ff ff 00 	movl   $0x0,-0xa00(%rbp)
    63be:	00 00 00 
    63c1:	eb 1e                	jmp    63e1 <func_1+0xc2c>
    63c3:	8b 85 00 f6 ff ff    	mov    -0xa00(%rbp),%eax
    63c9:	48 98                	cltq   
    63cb:	48 8d 15 ba 13 01 00 	lea    0x113ba(%rip),%rdx        # 1778c <g_774+0xc>
    63d2:	48 89 94 c5 c0 f6 ff 	mov    %rdx,-0x940(%rbp,%rax,8)
    63d9:	ff 
    63da:	83 85 00 f6 ff ff 01 	addl   $0x1,-0xa00(%rbp)
    63e1:	83 bd 00 f6 ff ff 05 	cmpl   $0x5,-0xa00(%rbp)
    63e8:	7e d9                	jle    63c3 <func_1+0xc0e>
    63ea:	c7 85 00 f6 ff ff 00 	movl   $0x0,-0xa00(%rbp)
    63f1:	00 00 00 
    63f4:	eb 19                	jmp    640f <func_1+0xc5a>
    63f6:	8b 85 00 f6 ff ff    	mov    -0xa00(%rbp),%eax
    63fc:	48 98                	cltq   
    63fe:	66 c7 84 45 7e f6 ff 	movw   $0xdc4e,-0x982(%rbp,%rax,2)
    6405:	ff 4e dc 
    6408:	83 85 00 f6 ff ff 01 	addl   $0x1,-0xa00(%rbp)
    640f:	83 bd 00 f6 ff ff 03 	cmpl   $0x3,-0xa00(%rbp)
    6416:	7e de                	jle    63f6 <func_1+0xc41>
    6418:	8b 05 06 ec 00 00    	mov    0xec06(%rip),%eax        # 15024 <g_3>
    641e:	83 c0 01             	add    $0x1,%eax
    6421:	89 05 fd eb 00 00    	mov    %eax,0xebfd(%rip)        # 15024 <g_3>
    6427:	8b 05 f7 eb 00 00    	mov    0xebf7(%rip),%eax        # 15024 <g_3>
    642d:	83 f8 0d             	cmp    $0xd,%eax
    6430:	0f 84 f1 f4 ff ff    	je     5927 <func_1+0x172>
    6436:	48 8b 8d e8 f5 ff ff 	mov    -0xa18(%rbp),%rcx
    643d:	48 8b 05 5c 21 01 00 	mov    0x1215c(%rip),%rax        # 185a0 <g_1830>
    6444:	48 8b 15 5d 21 01 00 	mov    0x1215d(%rip),%rdx        # 185a8 <g_1830+0x8>
    644b:	48 89 01             	mov    %rax,(%rcx)
    644e:	48 89 51 08          	mov    %rdx,0x8(%rcx)
    6452:	48 8b 05 57 21 01 00 	mov    0x12157(%rip),%rax        # 185b0 <g_1830+0x10>
    6459:	48 8b 15 58 21 01 00 	mov    0x12158(%rip),%rdx        # 185b8 <g_1830+0x18>
    6460:	48 89 41 10          	mov    %rax,0x10(%rcx)
    6464:	48 89 51 18          	mov    %rdx,0x18(%rcx)
    6468:	48 8b 45 f8          	mov    -0x8(%rbp),%rax
    646c:	64 48 33 04 25 28 00 	xor    %fs:0x28,%rax
    6473:	00 00 
    6475:	74 05                	je     647c <func_1+0xcc7>
    6477:	e8 f4 db ff ff       	callq  4070 <__stack_chk_fail@plt>
    647c:	48 8b 85 e8 f5 ff ff 	mov    -0xa18(%rbp),%rax
    6483:	c9                   	leaveq 
    6484:	c3                   	retq   

0000000000006485 <func_7>:
    6485:	f3 0f 1e fa          	endbr64 
    6489:	55                   	push   %rbp
    648a:	48 89 e5             	mov    %rsp,%rbp
    648d:	48 83 ec 60          	sub    $0x60,%rsp
    6491:	48 89 7d b8          	mov    %rdi,-0x48(%rbp)
    6495:	48 89 75 b0          	mov    %rsi,-0x50(%rbp)
    6499:	89 55 ac             	mov    %edx,-0x54(%rbp)
    649c:	48 89 4d a0          	mov    %rcx,-0x60(%rbp)
    64a0:	64 48 8b 04 25 28 00 	mov    %fs:0x28,%rax
    64a7:	00 00 
    64a9:	48 89 45 f8          	mov    %rax,-0x8(%rbp)
    64ad:	31 c0                	xor    %eax,%eax
    64af:	c7 45 cc 00 00 00 00 	movl   $0x0,-0x34(%rbp)
    64b6:	eb 15                	jmp    64cd <func_7+0x48>
    64b8:	8b 45 cc             	mov    -0x34(%rbp),%eax
    64bb:	48 98                	cltq   
    64bd:	48 8d 15 1c 13 01 00 	lea    0x1131c(%rip),%rdx        # 177e0 <g_893>
    64c4:	48 89 54 c5 d0       	mov    %rdx,-0x30(%rbp,%rax,8)
    64c9:	83 45 cc 01          	addl   $0x1,-0x34(%rbp)
    64cd:	83 7d cc 03          	cmpl   $0x3,-0x34(%rbp)
    64d1:	7e e5                	jle    64b8 <func_7+0x33>
    64d3:	48 8b 05 6e 32 01 00 	mov    0x1326e(%rip),%rax        # 19748 <g_721>
    64da:	8b 10                	mov    (%rax),%edx
    64dc:	48 8b 05 65 32 01 00 	mov    0x13265(%rip),%rax        # 19748 <g_721>
    64e3:	83 e2 01             	and    $0x1,%edx
    64e6:	89 10                	mov    %edx,(%rax)
    64e8:	48 8b 45 e8          	mov    -0x18(%rbp),%rax
    64ec:	48 8b 4d f8          	mov    -0x8(%rbp),%rcx
    64f0:	64 48 33 0c 25 28 00 	xor    %fs:0x28,%rcx
    64f7:	00 00 
    64f9:	74 05                	je     6500 <func_7+0x7b>
    64fb:	e8 70 db ff ff       	callq  4070 <__stack_chk_fail@plt>
    6500:	c9                   	leaveq 
    6501:	c3                   	retq   

0000000000006502 <func_12>:
    6502:	f3 0f 1e fa          	endbr64 
    6506:	55                   	push   %rbp
    6507:	48 89 e5             	mov    %rsp,%rbp
    650a:	41 55                	push   %r13
    650c:	41 54                	push   %r12
    650e:	53                   	push   %rbx
    650f:	48 81 ec 38 09 00 00 	sub    $0x938,%rsp
    6516:	89 f8                	mov    %edi,%eax
    6518:	48 89 b5 c0 f6 ff ff 	mov    %rsi,-0x940(%rbp)
    651f:	48 89 95 b8 f6 ff ff 	mov    %rdx,-0x948(%rbp)
    6526:	88 85 cc f6 ff ff    	mov    %al,-0x934(%rbp)
    652c:	64 48 8b 04 25 28 00 	mov    %fs:0x28,%rax
    6533:	00 00 
    6535:	48 89 45 d8          	mov    %rax,-0x28(%rbp)
    6539:	31 c0                	xor    %eax,%eax
    653b:	48 8d 05 e6 ea 00 00 	lea    0xeae6(%rip),%rax        # 15028 <g_18>
    6542:	48 89 85 00 f7 ff ff 	mov    %rax,-0x900(%rbp)
    6549:	48 8d 05 d8 ea 00 00 	lea    0xead8(%rip),%rax        # 15028 <g_18>
    6550:	48 89 85 08 f7 ff ff 	mov    %rax,-0x8f8(%rbp)
    6557:	48 8d 05 ca ea 00 00 	lea    0xeaca(%rip),%rax        # 15028 <g_18>
    655e:	48 89 85 10 f7 ff ff 	mov    %rax,-0x8f0(%rbp)
    6565:	48 8d 05 bc ea 00 00 	lea    0xeabc(%rip),%rax        # 15028 <g_18>
    656c:	48 89 85 18 f7 ff ff 	mov    %rax,-0x8e8(%rbp)
    6573:	48 8d 05 ae ea 00 00 	lea    0xeaae(%rip),%rax        # 15028 <g_18>
    657a:	48 89 85 20 f7 ff ff 	mov    %rax,-0x8e0(%rbp)
    6581:	48 8d 05 a0 ea 00 00 	lea    0xeaa0(%rip),%rax        # 15028 <g_18>
    6588:	48 89 85 28 f7 ff ff 	mov    %rax,-0x8d8(%rbp)
    658f:	c7 85 d4 f6 ff ff 0f 	movl   $0xa83a0f0f,-0x92c(%rbp)
    6596:	0f 3a a8 
    6599:	48 8d 05 88 ea 00 00 	lea    0xea88(%rip),%rax        # 15028 <g_18>
    65a0:	48 89 85 70 fa ff ff 	mov    %rax,-0x590(%rbp)
    65a7:	48 8d 05 7a ea 00 00 	lea    0xea7a(%rip),%rax        # 15028 <g_18>
    65ae:	48 89 85 78 fa ff ff 	mov    %rax,-0x588(%rbp)
    65b5:	48 8d 05 6c ea 00 00 	lea    0xea6c(%rip),%rax        # 15028 <g_18>
    65bc:	48 89 85 80 fa ff ff 	mov    %rax,-0x580(%rbp)
    65c3:	48 8d 05 5e ea 00 00 	lea    0xea5e(%rip),%rax        # 15028 <g_18>
    65ca:	48 89 85 88 fa ff ff 	mov    %rax,-0x578(%rbp)
    65d1:	48 8d 85 d4 f6 ff ff 	lea    -0x92c(%rbp),%rax
    65d8:	48 89 85 90 fa ff ff 	mov    %rax,-0x570(%rbp)
    65df:	48 c7 85 98 fa ff ff 	movq   $0x0,-0x568(%rbp)
    65e6:	00 00 00 00 
    65ea:	48 c7 85 a0 fa ff ff 	movq   $0x0,-0x560(%rbp)
    65f1:	00 00 00 00 
    65f5:	48 8d 05 28 ea 00 00 	lea    0xea28(%rip),%rax        # 15024 <g_3>
    65fc:	48 89 85 a8 fa ff ff 	mov    %rax,-0x558(%rbp)
    6603:	48 8d 05 1a ea 00 00 	lea    0xea1a(%rip),%rax        # 15024 <g_3>
    660a:	48 89 85 b0 fa ff ff 	mov    %rax,-0x550(%rbp)
    6611:	48 8d 85 d4 f6 ff ff 	lea    -0x92c(%rbp),%rax
    6618:	48 89 85 b8 fa ff ff 	mov    %rax,-0x548(%rbp)
    661f:	48 8d 85 d4 f6 ff ff 	lea    -0x92c(%rbp),%rax
    6626:	48 89 85 c0 fa ff ff 	mov    %rax,-0x540(%rbp)
    662d:	48 8d 85 d4 f6 ff ff 	lea    -0x92c(%rbp),%rax
    6634:	48 89 85 c8 fa ff ff 	mov    %rax,-0x538(%rbp)
    663b:	48 8d 85 d4 f6 ff ff 	lea    -0x92c(%rbp),%rax
    6642:	48 89 85 d0 fa ff ff 	mov    %rax,-0x530(%rbp)
    6649:	48 8d 05 d4 e9 00 00 	lea    0xe9d4(%rip),%rax        # 15024 <g_3>
    6650:	48 89 85 d8 fa ff ff 	mov    %rax,-0x528(%rbp)
    6657:	48 8d 85 d4 f6 ff ff 	lea    -0x92c(%rbp),%rax
    665e:	48 89 85 e0 fa ff ff 	mov    %rax,-0x520(%rbp)
    6665:	48 8d 05 b8 e9 00 00 	lea    0xe9b8(%rip),%rax        # 15024 <g_3>
    666c:	48 89 85 e8 fa ff ff 	mov    %rax,-0x518(%rbp)
    6673:	48 8d 85 d4 f6 ff ff 	lea    -0x92c(%rbp),%rax
    667a:	48 89 85 f0 fa ff ff 	mov    %rax,-0x510(%rbp)
    6681:	48 c7 85 f8 fa ff ff 	movq   $0x0,-0x508(%rbp)
    6688:	00 00 00 00 
    668c:	48 8d 05 95 e9 00 00 	lea    0xe995(%rip),%rax        # 15028 <g_18>
    6693:	48 89 85 00 fb ff ff 	mov    %rax,-0x500(%rbp)
    669a:	48 c7 85 08 fb ff ff 	movq   $0x0,-0x4f8(%rbp)
    66a1:	00 00 00 00 
    66a5:	48 c7 85 10 fb ff ff 	movq   $0x0,-0x4f0(%rbp)
    66ac:	00 00 00 00 
    66b0:	48 8d 05 6d e9 00 00 	lea    0xe96d(%rip),%rax        # 15024 <g_3>
    66b7:	48 89 85 18 fb ff ff 	mov    %rax,-0x4e8(%rbp)
    66be:	48 8d 05 5f e9 00 00 	lea    0xe95f(%rip),%rax        # 15024 <g_3>
    66c5:	48 89 85 20 fb ff ff 	mov    %rax,-0x4e0(%rbp)
    66cc:	48 8d 85 d4 f6 ff ff 	lea    -0x92c(%rbp),%rax
    66d3:	48 89 85 28 fb ff ff 	mov    %rax,-0x4d8(%rbp)
    66da:	48 8d 05 43 e9 00 00 	lea    0xe943(%rip),%rax        # 15024 <g_3>
    66e1:	48 89 85 30 fb ff ff 	mov    %rax,-0x4d0(%rbp)
    66e8:	48 8d 05 35 e9 00 00 	lea    0xe935(%rip),%rax        # 15024 <g_3>
    66ef:	48 89 85 38 fb ff ff 	mov    %rax,-0x4c8(%rbp)
    66f6:	48 c7 85 40 fb ff ff 	movq   $0x0,-0x4c0(%rbp)
    66fd:	00 00 00 00 
    6701:	48 8d 05 20 e9 00 00 	lea    0xe920(%rip),%rax        # 15028 <g_18>
    6708:	48 89 85 48 fb ff ff 	mov    %rax,-0x4b8(%rbp)
    670f:	48 8d 85 d4 f6 ff ff 	lea    -0x92c(%rbp),%rax
    6716:	48 89 85 50 fb ff ff 	mov    %rax,-0x4b0(%rbp)
    671d:	48 c7 85 58 fb ff ff 	movq   $0x0,-0x4a8(%rbp)
    6724:	00 00 00 00 
    6728:	48 8d 05 f5 e8 00 00 	lea    0xe8f5(%rip),%rax        # 15024 <g_3>
    672f:	48 89 85 60 fb ff ff 	mov    %rax,-0x4a0(%rbp)
    6736:	48 c7 85 68 fb ff ff 	movq   $0x0,-0x498(%rbp)
    673d:	00 00 00 00 
    6741:	48 8d 85 d4 f6 ff ff 	lea    -0x92c(%rbp),%rax
    6748:	48 89 85 70 fb ff ff 	mov    %rax,-0x490(%rbp)
    674f:	48 c7 85 78 fb ff ff 	movq   $0x0,-0x488(%rbp)
    6756:	00 00 00 00 
    675a:	48 8d 05 c3 e8 00 00 	lea    0xe8c3(%rip),%rax        # 15024 <g_3>
    6761:	48 89 85 80 fb ff ff 	mov    %rax,-0x480(%rbp)
    6768:	48 8d 05 b9 e8 00 00 	lea    0xe8b9(%rip),%rax        # 15028 <g_18>
    676f:	48 89 85 88 fb ff ff 	mov    %rax,-0x478(%rbp)
    6776:	48 8d 05 ab e8 00 00 	lea    0xe8ab(%rip),%rax        # 15028 <g_18>
    677d:	48 89 85 90 fb ff ff 	mov    %rax,-0x470(%rbp)
    6784:	48 8d 05 99 e8 00 00 	lea    0xe899(%rip),%rax        # 15024 <g_3>
    678b:	48 89 85 98 fb ff ff 	mov    %rax,-0x468(%rbp)
    6792:	48 8d 85 d4 f6 ff ff 	lea    -0x92c(%rbp),%rax
    6799:	48 89 85 a0 fb ff ff 	mov    %rax,-0x460(%rbp)
    67a0:	48 8d 05 7d e8 00 00 	lea    0xe87d(%rip),%rax        # 15024 <g_3>
    67a7:	48 89 85 a8 fb ff ff 	mov    %rax,-0x458(%rbp)
    67ae:	48 8d 85 d4 f6 ff ff 	lea    -0x92c(%rbp),%rax
    67b5:	48 89 85 b0 fb ff ff 	mov    %rax,-0x450(%rbp)
    67bc:	48 8d 85 d4 f6 ff ff 	lea    -0x92c(%rbp),%rax
    67c3:	48 89 85 b8 fb ff ff 	mov    %rax,-0x448(%rbp)
    67ca:	48 8d 85 d4 f6 ff ff 	lea    -0x92c(%rbp),%rax
    67d1:	48 89 85 c0 fb ff ff 	mov    %rax,-0x440(%rbp)
    67d8:	48 c7 85 c8 fb ff ff 	movq   $0x0,-0x438(%rbp)
    67df:	00 00 00 00 
    67e3:	48 8d 05 3e e8 00 00 	lea    0xe83e(%rip),%rax        # 15028 <g_18>
    67ea:	48 89 85 d0 fb ff ff 	mov    %rax,-0x430(%rbp)
    67f1:	48 8d 05 30 e8 00 00 	lea    0xe830(%rip),%rax        # 15028 <g_18>
    67f8:	48 89 85 d8 fb ff ff 	mov    %rax,-0x428(%rbp)
    67ff:	48 c7 85 e0 fb ff ff 	movq   $0x0,-0x420(%rbp)
    6806:	00 00 00 00 
    680a:	48 8d 85 d4 f6 ff ff 	lea    -0x92c(%rbp),%rax
    6811:	48 89 85 e8 fb ff ff 	mov    %rax,-0x418(%rbp)
    6818:	48 8d 85 d4 f6 ff ff 	lea    -0x92c(%rbp),%rax
    681f:	48 89 85 f0 fb ff ff 	mov    %rax,-0x410(%rbp)
    6826:	48 8d 05 f7 e7 00 00 	lea    0xe7f7(%rip),%rax        # 15024 <g_3>
    682d:	48 89 85 f8 fb ff ff 	mov    %rax,-0x408(%rbp)
    6834:	48 8d 05 e9 e7 00 00 	lea    0xe7e9(%rip),%rax        # 15024 <g_3>
    683b:	48 89 85 00 fc ff ff 	mov    %rax,-0x400(%rbp)
    6842:	48 8d 05 df e7 00 00 	lea    0xe7df(%rip),%rax        # 15028 <g_18>
    6849:	48 89 85 08 fc ff ff 	mov    %rax,-0x3f8(%rbp)
    6850:	48 8d 05 cd e7 00 00 	lea    0xe7cd(%rip),%rax        # 15024 <g_3>
    6857:	48 89 85 10 fc ff ff 	mov    %rax,-0x3f0(%rbp)
    685e:	48 8d 05 bf e7 00 00 	lea    0xe7bf(%rip),%rax        # 15024 <g_3>
    6865:	48 89 85 18 fc ff ff 	mov    %rax,-0x3e8(%rbp)
    686c:	48 8d 05 b1 e7 00 00 	lea    0xe7b1(%rip),%rax        # 15024 <g_3>
    6873:	48 89 85 20 fc ff ff 	mov    %rax,-0x3e0(%rbp)
    687a:	48 8d 05 a3 e7 00 00 	lea    0xe7a3(%rip),%rax        # 15024 <g_3>
    6881:	48 89 85 28 fc ff ff 	mov    %rax,-0x3d8(%rbp)
    6888:	48 c7 85 30 fc ff ff 	movq   $0x0,-0x3d0(%rbp)
    688f:	00 00 00 00 
    6893:	48 8d 85 d4 f6 ff ff 	lea    -0x92c(%rbp),%rax
    689a:	48 89 85 38 fc ff ff 	mov    %rax,-0x3c8(%rbp)
    68a1:	48 c7 85 40 fc ff ff 	movq   $0x0,-0x3c0(%rbp)
    68a8:	00 00 00 00 
    68ac:	48 8d 05 71 e7 00 00 	lea    0xe771(%rip),%rax        # 15024 <g_3>
    68b3:	48 89 85 48 fc ff ff 	mov    %rax,-0x3b8(%rbp)
    68ba:	48 c7 85 50 fc ff ff 	movq   $0x0,-0x3b0(%rbp)
    68c1:	00 00 00 00 
    68c5:	48 8d 85 d4 f6 ff ff 	lea    -0x92c(%rbp),%rax
    68cc:	48 89 85 58 fc ff ff 	mov    %rax,-0x3a8(%rbp)
    68d3:	48 8d 85 d4 f6 ff ff 	lea    -0x92c(%rbp),%rax
    68da:	48 89 85 60 fc ff ff 	mov    %rax,-0x3a0(%rbp)
    68e1:	c7 85 e0 f6 ff ff 44 	movl   $0x670fc244,-0x920(%rbp)
    68e8:	c2 0f 67 
    68eb:	48 c7 85 f0 f6 ff ff 	movq   $0x0,-0x910(%rbp)
    68f2:	00 00 00 00 
    68f6:	48 8d 85 f0 f6 ff ff 	lea    -0x910(%rbp),%rax
    68fd:	48 89 85 30 f7 ff ff 	mov    %rax,-0x8d0(%rbp)
    6904:	c6 85 d0 f6 ff ff 57 	movb   $0x57,-0x930(%rbp)
    690b:	48 c7 85 38 f7 ff ff 	movq   $0x0,-0x8c8(%rbp)
    6912:	00 00 00 00 
    6916:	48 8d 05 0b 2e 01 00 	lea    0x12e0b(%rip),%rax        # 19728 <g_415>
    691d:	48 89 85 f8 f6 ff ff 	mov    %rax,-0x908(%rbp)
    6924:	48 8d 85 f8 f6 ff ff 	lea    -0x908(%rbp),%rax
    692b:	48 89 85 40 f7 ff ff 	mov    %rax,-0x8c0(%rbp)
    6932:	48 8d 05 8d e9 00 00 	lea    0xe98d(%rip),%rax        # 152c6 <g_240+0x26>
    6939:	48 89 85 48 f7 ff ff 	mov    %rax,-0x8b8(%rbp)
    6940:	48 8d 05 d1 0a 01 00 	lea    0x10ad1(%rip),%rax        # 17418 <g_419+0x18>
    6947:	48 89 85 50 f7 ff ff 	mov    %rax,-0x8b0(%rbp)
    694e:	48 8d 85 b0 f8 ff ff 	lea    -0x750(%rbp),%rax
    6955:	48 8d 15 64 1c 01 00 	lea    0x11c64(%rip),%rdx        # 185c0 <g_1830+0x20>
    695c:	b9 38 00 00 00       	mov    $0x38,%ecx
    6961:	48 89 c7             	mov    %rax,%rdi
    6964:	48 89 d6             	mov    %rdx,%rsi
    6967:	f3 48 a5             	rep movsq %ds:(%rsi),%es:(%rdi)
    696a:	83 85 e0 f6 ff ff 01 	addl   $0x1,-0x920(%rbp)
    6971:	c6 05 c0 e6 00 00 06 	movb   $0x6,0xe6c0(%rip)        # 15038 <g_27>
    6978:	e9 5d 01 00 00       	jmpq   6ada <func_12+0x5d8>
    697d:	48 b8 44 02 20 90 c0 	movabs $0x33c8a0c090200244,%rax
    6984:	a0 c8 33 
    6987:	48 89 85 58 f7 ff ff 	mov    %rax,-0x8a8(%rbp)
    698e:	c7 85 e4 f6 ff ff 76 	movl   $0x2783de76,-0x91c(%rbp)
    6995:	de 83 27 
    6998:	48 8d 85 70 fc ff ff 	lea    -0x390(%rbp),%rax
    699f:	48 8d 15 da 1d 01 00 	lea    0x11dda(%rip),%rdx        # 18780 <g_1830+0x1e0>
    69a6:	b9 6c 00 00 00       	mov    $0x6c,%ecx
    69ab:	48 89 c7             	mov    %rax,%rdi
    69ae:	48 89 d6             	mov    %rdx,%rsi
    69b1:	f3 48 a5             	rep movsq %ds:(%rsi),%es:(%rdi)
    69b4:	48 8d 05 49 16 01 00 	lea    0x11649(%rip),%rax        # 18004 <g_902>
    69bb:	48 89 85 60 f7 ff ff 	mov    %rax,-0x8a0(%rbp)
    69c2:	c6 85 d1 f6 ff ff 49 	movb   $0x49,-0x92f(%rbp)
    69c9:	c7 85 d8 f6 ff ff 00 	movl   $0x0,-0x928(%rbp)
    69d0:	00 00 00 
    69d3:	eb 1a                	jmp    69ef <func_12+0x4ed>
    69d5:	8b 85 d8 f6 ff ff    	mov    -0x928(%rbp),%eax
    69db:	48 98                	cltq   
    69dd:	c7 84 85 88 f7 ff ff 	movl   $0x903af438,-0x878(%rbp,%rax,4)
    69e4:	38 f4 3a 90 
    69e8:	83 85 d8 f6 ff ff 01 	addl   $0x1,-0x928(%rbp)
    69ef:	83 bd d8 f6 ff ff 01 	cmpl   $0x1,-0x928(%rbp)
    69f6:	7e dd                	jle    69d5 <func_12+0x4d3>
    69f8:	8b 05 3e e6 00 00    	mov    0xe63e(%rip),%eax        # 1503c <g_33>
    69fe:	83 c0 01             	add    $0x1,%eax
    6a01:	89 05 35 e6 00 00    	mov    %eax,0xe635(%rip)        # 1503c <g_33>
    6a07:	c7 05 17 e6 00 00 05 	movl   $0x5,0xe617(%rip)        # 15028 <g_18>
    6a0e:	00 00 00 
    6a11:	e9 a6 00 00 00       	jmpq   6abc <func_12+0x5ba>
    6a16:	48 8d 05 0b e6 00 00 	lea    0xe60b(%rip),%rax        # 15028 <g_18>
    6a1d:	48 89 85 68 f7 ff ff 	mov    %rax,-0x898(%rbp)
    6a24:	48 8d 05 95 0d 01 00 	lea    0x10d95(%rip),%rax        # 177c0 <g_870>
    6a2b:	48 89 85 70 f7 ff ff 	mov    %rax,-0x890(%rbp)
    6a32:	c7 85 e8 f6 ff ff fb 	movl   $0xfffffffb,-0x918(%rbp)
    6a39:	ff ff ff 
    6a3c:	c7 85 ec f6 ff ff cc 	movl   $0xa4e231cc,-0x914(%rbp)
    6a43:	31 e2 a4 
    6a46:	48 8d 85 90 f7 ff ff 	lea    -0x870(%rbp),%rax
    6a4d:	48 8d 15 4c a9 00 00 	lea    0xa94c(%rip),%rdx        # 113a0 <g_1342+0x320>
    6a54:	b9 24 00 00 00       	mov    $0x24,%ecx
    6a59:	48 89 c7             	mov    %rax,%rdi
    6a5c:	48 89 d6             	mov    %rdx,%rsi
    6a5f:	f3 48 a5             	rep movsq %ds:(%rsi),%es:(%rdi)
    6a62:	48 c7 85 78 f7 ff ff 	movq   $0x4,-0x888(%rbp)
    6a69:	04 00 00 00 
    6a6d:	66 c7 85 d2 f6 ff ff 	movw   $0xffff,-0x92e(%rbp)
    6a74:	ff ff 
    6a76:	48 8d 05 43 17 01 00 	lea    0x11743(%rip),%rax        # 181c0 <g_1302>
    6a7d:	48 89 85 80 f7 ff ff 	mov    %rax,-0x880(%rbp)
    6a84:	c7 85 dc f6 ff ff 00 	movl   $0x0,-0x924(%rbp)
    6a8b:	00 00 00 
    6a8e:	eb 14                	jmp    6aa4 <func_12+0x5a2>
    6a90:	8b 85 dc f6 ff ff    	mov    -0x924(%rbp),%eax
    6a96:	48 98                	cltq   
    6a98:	c6 44 05 d5 31       	movb   $0x31,-0x2b(%rbp,%rax,1)
    6a9d:	83 85 dc f6 ff ff 01 	addl   $0x1,-0x924(%rbp)
    6aa4:	83 bd dc f6 ff ff 02 	cmpl   $0x2,-0x924(%rbp)
    6aab:	7e e3                	jle    6a90 <func_12+0x58e>
    6aad:	8b 05 75 e5 00 00    	mov    0xe575(%rip),%eax        # 15028 <g_18>
    6ab3:	83 e8 01             	sub    $0x1,%eax
    6ab6:	89 05 6c e5 00 00    	mov    %eax,0xe56c(%rip)        # 15028 <g_18>
    6abc:	8b 05 66 e5 00 00    	mov    0xe566(%rip),%eax        # 15028 <g_18>
    6ac2:	85 c0                	test   %eax,%eax
    6ac4:	0f 89 4c ff ff ff    	jns    6a16 <func_12+0x514>
    6aca:	0f b6 05 67 e5 00 00 	movzbl 0xe567(%rip),%eax        # 15038 <g_27>
    6ad1:	83 e8 01             	sub    $0x1,%eax
    6ad4:	88 05 5e e5 00 00    	mov    %al,0xe55e(%rip)        # 15038 <g_27>
    6ada:	0f b6 05 57 e5 00 00 	movzbl 0xe557(%rip),%eax        # 15038 <g_27>
    6ae1:	84 c0                	test   %al,%al
    6ae3:	0f 8f 94 fe ff ff    	jg     697d <func_12+0x47b>
    6ae9:	48 8b 05 28 09 01 00 	mov    0x10928(%rip),%rax        # 17418 <g_419+0x18>
    6af0:	89 c2                	mov    %eax,%edx
    6af2:	48 8b 85 48 f7 ff ff 	mov    -0x8b8(%rbp),%rax
    6af9:	88 10                	mov    %dl,(%rax)
    6afb:	48 8b 85 48 f7 ff ff 	mov    -0x8b8(%rbp),%rax
    6b02:	0f b6 00             	movzbl (%rax),%eax
    6b05:	0f b6 d0             	movzbl %al,%edx
    6b08:	48 8b 8d f8 f6 ff ff 	mov    -0x908(%rbp),%rcx
    6b0f:	48 8b 85 40 f7 ff ff 	mov    -0x8c0(%rbp),%rax
    6b16:	48 89 08             	mov    %rcx,(%rax)
    6b19:	48 8b 85 40 f7 ff ff 	mov    -0x8c0(%rbp),%rax
    6b20:	48 8b 00             	mov    (%rax),%rax
    6b23:	48 85 c0             	test   %rax,%rax
    6b26:	0f 95 c0             	setne  %al
    6b29:	0f b6 c0             	movzbl %al,%eax
    6b2c:	89 d6                	mov    %edx,%esi
    6b2e:	89 c7                	mov    %eax,%edi
    6b30:	e8 37 d8 ff ff       	callq  436c <safe_rshift_func_int8_t_s_u>
    6b35:	48 8b 85 18 f7 ff ff 	mov    -0x8e8(%rbp),%rax
    6b3c:	8b 18                	mov    (%rax),%ebx
    6b3e:	48 8b 05 fb 2b 01 00 	mov    0x12bfb(%rip),%rax        # 19740 <g_650>
    6b45:	48 85 c0             	test   %rax,%rax
    6b48:	0f 94 c0             	sete   %al
    6b4b:	0f b6 d0             	movzbl %al,%edx
    6b4e:	8b 05 d0 e4 00 00    	mov    0xe4d0(%rip),%eax        # 15024 <g_3>
    6b54:	31 d0                	xor    %edx,%eax
    6b56:	48 98                	cltq   
    6b58:	48 89 05 81 e7 00 00 	mov    %rax,0xe781(%rip)        # 152e0 <g_245>
    6b5f:	4c 8b 25 7a e7 00 00 	mov    0xe77a(%rip),%r12        # 152e0 <g_245>
    6b66:	4c 8b 2d 0b 0a 01 00 	mov    0x10a0b(%rip),%r13        # 17578 <g_665+0x18>
    6b6d:	48 83 bd 50 f7 ff ff 	cmpq   $0x0,-0x8b0(%rbp)
    6b74:	00 
    6b75:	0f 94 c0             	sete   %al
    6b78:	0f b6 c0             	movzbl %al,%eax
    6b7b:	89 c6                	mov    %eax,%esi
    6b7d:	bf 31 00 00 00       	mov    $0x31,%edi
    6b82:	e8 ae d7 ff ff       	callq  4335 <safe_rshift_func_int8_t_s_s>
    6b87:	48 0f be c0          	movsbq %al,%rax
    6b8b:	4c 89 ee             	mov    %r13,%rsi
    6b8e:	48 89 c7             	mov    %rax,%rdi
    6b91:	e8 61 de ff ff       	callq  49f7 <safe_div_func_int64_t_s_s>
    6b96:	4c 89 e6             	mov    %r12,%rsi
    6b99:	48 89 c7             	mov    %rax,%rdi
    6b9c:	e8 8d e4 ff ff       	callq  502e <safe_add_func_uint64_t_u_u>
    6ba1:	89 de                	mov    %ebx,%esi
    6ba3:	89 c7                	mov    %eax,%edi
    6ba5:	e8 22 db ff ff       	callq  46cc <safe_mod_func_int32_t_s_s>
    6baa:	48 63 d0             	movslq %eax,%rdx
    6bad:	48 8b 05 6c 08 01 00 	mov    0x1086c(%rip),%rax        # 17420 <g_448>
    6bb4:	48 39 c2             	cmp    %rax,%rdx
    6bb7:	0f be 95 cc f6 ff ff 	movsbl -0x934(%rbp),%edx
    6bbe:	48 8b 05 83 2b 01 00 	mov    0x12b83(%rip),%rax        # 19748 <g_721>
    6bc5:	8b 00                	mov    (%rax),%eax
    6bc7:	39 c2                	cmp    %eax,%edx
    6bc9:	0f 9f c0             	setg   %al
    6bcc:	0f b6 d0             	movzbl %al,%edx
    6bcf:	48 8b 05 62 14 01 00 	mov    0x11462(%rip),%rax        # 18038 <g_948+0x18>
    6bd6:	48 39 c2             	cmp    %rax,%rdx
    6bd9:	75 0b                	jne    6be6 <func_12+0x6e4>
    6bdb:	0f b6 05 90 07 01 00 	movzbl 0x10790(%rip),%eax        # 17372 <g_416+0x72>
    6be2:	84 c0                	test   %al,%al
    6be4:	74 07                	je     6bed <func_12+0x6eb>
    6be6:	ba 01 00 00 00       	mov    $0x1,%edx
    6beb:	eb 05                	jmp    6bf2 <func_12+0x6f0>
    6bed:	ba 00 00 00 00       	mov    $0x0,%edx
    6bf2:	48 8b 85 18 f7 ff ff 	mov    -0x8e8(%rbp),%rax
    6bf9:	89 10                	mov    %edx,(%rax)
    6bfb:	48 8b 85 28 f7 ff ff 	mov    -0x8d8(%rbp),%rax
    6c02:	8b 10                	mov    (%rax),%edx
    6c04:	48 8b 85 c0 f6 ff ff 	mov    -0x940(%rbp),%rax
    6c0b:	8b 00                	mov    (%rax),%eax
    6c0d:	09 c2                	or     %eax,%edx
    6c0f:	48 8b 85 28 f7 ff ff 	mov    -0x8d8(%rbp),%rax
    6c16:	89 10                	mov    %edx,(%rax)
    6c18:	48 8d 05 31 2b 01 00 	lea    0x12b31(%rip),%rax        # 19750 <g_746>
    6c1f:	48 8b 00             	mov    (%rax),%rax
    6c22:	48 8b 5d d8          	mov    -0x28(%rbp),%rbx
    6c26:	64 48 33 1c 25 28 00 	xor    %fs:0x28,%rbx
    6c2d:	00 00 
    6c2f:	74 05                	je     6c36 <func_12+0x734>
    6c31:	e8 3a d4 ff ff       	callq  4070 <__stack_chk_fail@plt>
    6c36:	48 81 c4 38 09 00 00 	add    $0x938,%rsp
    6c3d:	5b                   	pop    %rbx
    6c3e:	41 5c                	pop    %r12
    6c40:	41 5d                	pop    %r13
    6c42:	5d                   	pop    %rbp
    6c43:	c3                   	retq   

0000000000006c44 <func_36>:
    6c44:	f3 0f 1e fa          	endbr64 
    6c48:	55                   	push   %rbp
    6c49:	48 89 e5             	mov    %rsp,%rbp
    6c4c:	48 89 7d f8          	mov    %rdi,-0x8(%rbp)
    6c50:	48 89 75 f0          	mov    %rsi,-0x10(%rbp)
    6c54:	c7 05 12 32 01 00 00 	movl   $0x0,0x13212(%rip)        # 19e70 <g_901>
    6c5b:	00 00 00 
    6c5e:	eb 28                	jmp    6c88 <func_36+0x44>
    6c60:	8b 05 0a 32 01 00    	mov    0x1320a(%rip),%eax        # 19e70 <g_901>
    6c66:	48 98                	cltq   
    6c68:	48 8d 14 00          	lea    (%rax,%rax,1),%rdx
    6c6c:	48 8d 05 2d 09 01 00 	lea    0x1092d(%rip),%rax        # 175a0 <g_668>
    6c73:	66 c7 04 02 09 0a    	movw   $0xa09,(%rdx,%rax,1)
    6c79:	8b 05 f1 31 01 00    	mov    0x131f1(%rip),%eax        # 19e70 <g_901>
    6c7f:	83 c0 01             	add    $0x1,%eax
    6c82:	89 05 e8 31 01 00    	mov    %eax,0x131e8(%rip)        # 19e70 <g_901>
    6c88:	8b 05 e2 31 01 00    	mov    0x131e2(%rip),%eax        # 19e70 <g_901>
    6c8e:	83 f8 06             	cmp    $0x6,%eax
    6c91:	7e cd                	jle    6c60 <func_36+0x1c>
    6c93:	48 8b 45 f8          	mov    -0x8(%rbp),%rax
    6c97:	48 c7 00 00 00 00 00 	movq   $0x0,(%rax)
    6c9e:	48 c7 40 08 00 00 00 	movq   $0x0,0x8(%rax)
    6ca5:	00 
    6ca6:	48 c7 40 10 00 00 00 	movq   $0x0,0x10(%rax)
    6cad:	00 
    6cae:	48 c7 40 18 00 00 00 	movq   $0x0,0x18(%rax)
    6cb5:	00 
    6cb6:	48 8b 45 f8          	mov    -0x8(%rbp),%rax
    6cba:	8b 10                	mov    (%rax),%edx
    6cbc:	81 e2 00 00 00 fc    	and    $0xfc000000,%edx
    6cc2:	81 ca f9 ff ff 03    	or     $0x3fffff9,%edx
    6cc8:	89 10                	mov    %edx,(%rax)
    6cca:	48 8b 45 f8          	mov    -0x8(%rbp),%rax
    6cce:	5d                   	pop    %rbp
    6ccf:	c3                   	retq   

0000000000006cd0 <func_38>:
    6cd0:	f3 0f 1e fa          	endbr64 
    6cd4:	55                   	push   %rbp
    6cd5:	48 89 e5             	mov    %rsp,%rbp
    6cd8:	41 57                	push   %r15
    6cda:	41 56                	push   %r14
    6cdc:	41 55                	push   %r13
    6cde:	41 54                	push   %r12
    6ce0:	53                   	push   %rbx
    6ce1:	48 81 ec 78 02 00 00 	sub    $0x278,%rsp
    6ce8:	48 89 bd 78 fd ff ff 	mov    %rdi,-0x288(%rbp)
    6cef:	64 48 8b 04 25 28 00 	mov    %fs:0x28,%rax
    6cf6:	00 00 
    6cf8:	48 89 45 c8          	mov    %rax,-0x38(%rbp)
    6cfc:	31 c0                	xor    %eax,%eax
    6cfe:	48 8d 05 33 e3 00 00 	lea    0xe333(%rip),%rax        # 15038 <g_27>
    6d05:	48 89 85 98 fd ff ff 	mov    %rax,-0x268(%rbp)
    6d0c:	48 c7 85 a0 fd ff ff 	movq   $0x0,-0x260(%rbp)
    6d13:	00 00 00 00 
    6d17:	48 c7 85 a8 fd ff ff 	movq   $0x0,-0x258(%rbp)
    6d1e:	00 00 00 00 
    6d22:	48 c7 85 b0 fd ff ff 	movq   $0x0,-0x250(%rbp)
    6d29:	00 00 00 00 
    6d2d:	48 8d 85 e0 fd ff ff 	lea    -0x220(%rbp),%rax
    6d34:	48 8d 15 a5 1d 01 00 	lea    0x11da5(%rip),%rdx        # 18ae0 <g_1830+0x540>
    6d3b:	b9 3c 00 00 00       	mov    $0x3c,%ecx
    6d40:	48 89 c7             	mov    %rax,%rdi
    6d43:	48 89 d6             	mov    %rdx,%rsi
    6d46:	f3 48 a5             	rep movsq %ds:(%rsi),%es:(%rdi)
    6d49:	48 8d 85 e0 fd ff ff 	lea    -0x220(%rbp),%rax
    6d50:	48 05 e0 00 00 00    	add    $0xe0,%rax
    6d56:	48 89 85 b8 fd ff ff 	mov    %rax,-0x248(%rbp)
    6d5d:	48 8d 05 d4 e2 00 00 	lea    0xe2d4(%rip),%rax        # 15038 <g_27>
    6d64:	48 89 85 c0 fd ff ff 	mov    %rax,-0x240(%rbp)
    6d6b:	48 8d 05 b6 30 01 00 	lea    0x130b6(%rip),%rax        # 19e28 <g_16>
    6d72:	48 89 85 c8 fd ff ff 	mov    %rax,-0x238(%rbp)
    6d79:	48 c7 85 d0 fd ff ff 	movq   $0x0,-0x230(%rbp)
    6d80:	00 00 00 00 
    6d84:	48 c7 85 90 fd ff ff 	movq   $0x0,-0x270(%rbp)
    6d8b:	00 00 00 00 
    6d8f:	48 8d 85 90 fd ff ff 	lea    -0x270(%rbp),%rax
    6d96:	48 89 85 d8 fd ff ff 	mov    %rax,-0x228(%rbp)
    6d9d:	c7 85 8c fd ff ff f7 	movl   $0xfffffff7,-0x274(%rbp)
    6da4:	ff ff ff 
    6da7:	48 83 bd 98 fd ff ff 	cmpq   $0x0,-0x268(%rbp)
    6dae:	00 
    6daf:	0f 95 c2             	setne  %dl
    6db2:	48 8b 05 07 29 01 00 	mov    0x12907(%rip),%rax        # 196c0 <g_41>
    6db9:	0f b6 d2             	movzbl %dl,%edx
    6dbc:	89 10                	mov    %edx,(%rax)
    6dbe:	48 8b 85 78 fd ff ff 	mov    -0x288(%rbp),%rax
    6dc5:	0f b6 c0             	movzbl %al,%eax
    6dc8:	89 85 74 fd ff ff    	mov    %eax,-0x28c(%rbp)
    6dce:	48 8b 85 78 fd ff ff 	mov    -0x288(%rbp),%rax
    6dd5:	44 0f be e8          	movsbl %al,%r13d
    6dd9:	48 8b 85 78 fd ff ff 	mov    -0x288(%rbp),%rax
    6de0:	44 0f b6 e0          	movzbl %al,%r12d
    6de4:	48 8b 85 78 fd ff ff 	mov    -0x288(%rbp),%rax
    6deb:	0f be d8             	movsbl %al,%ebx
    6dee:	48 8d 05 5b 29 01 00 	lea    0x1295b(%rip),%rax        # 19750 <g_746>
    6df5:	48 8b 00             	mov    (%rax),%rax
    6df8:	48 89 85 68 fd ff ff 	mov    %rax,-0x298(%rbp)
    6dff:	44 8b 35 da 05 01 00 	mov    0x105da(%rip),%r14d        # 173e0 <g_418>
    6e06:	4c 8b bd 78 fd ff ff 	mov    -0x288(%rbp),%r15
    6e0d:	48 8b 85 78 fd ff ff 	mov    -0x288(%rbp),%rax
    6e14:	89 85 70 fd ff ff    	mov    %eax,-0x290(%rbp)
    6e1a:	48 8b 85 78 fd ff ff 	mov    -0x288(%rbp),%rax
    6e21:	89 85 64 fd ff ff    	mov    %eax,-0x29c(%rbp)
    6e27:	48 8b 85 78 fd ff ff 	mov    -0x288(%rbp),%rax
    6e2e:	be 01 00 00 00       	mov    $0x1,%esi
    6e33:	89 c7                	mov    %eax,%edi
    6e35:	e8 c5 d8 ff ff       	callq  46ff <safe_div_func_int32_t_s_s>
    6e3a:	89 05 fc e1 00 00    	mov    %eax,0xe1fc(%rip)        # 1503c <g_33>
    6e40:	8b 05 f6 e1 00 00    	mov    0xe1f6(%rip),%eax        # 1503c <g_33>
    6e46:	85 c0                	test   %eax,%eax
    6e48:	75 0a                	jne    6e54 <func_38+0x184>
    6e4a:	8b 05 d4 e1 00 00    	mov    0xe1d4(%rip),%eax        # 15024 <g_3>
    6e50:	85 c0                	test   %eax,%eax
    6e52:	74 07                	je     6e5b <func_38+0x18b>
    6e54:	b8 01 00 00 00       	mov    $0x1,%eax
    6e59:	eb 05                	jmp    6e60 <func_38+0x190>
    6e5b:	b8 00 00 00 00       	mov    $0x0,%eax
    6e60:	0f b7 c0             	movzwl %ax,%eax
    6e63:	8b b5 64 fd ff ff    	mov    -0x29c(%rbp),%esi
    6e69:	89 c7                	mov    %eax,%edi
    6e6b:	e8 0a e0 ff ff       	callq  4e7a <safe_rshift_func_uint16_t_u_u>
    6e70:	48 8b 85 78 fd ff ff 	mov    -0x288(%rbp),%rax
    6e77:	89 c6                	mov    %eax,%esi
    6e79:	48 8b 85 b8 fd ff ff 	mov    -0x248(%rbp),%rax
    6e80:	48 8b 95 a0 fd ff ff 	mov    -0x260(%rbp),%rdx
    6e87:	48 89 10             	mov    %rdx,(%rax)
    6e8a:	48 8b 85 98 fd ff ff 	mov    -0x268(%rbp),%rax
    6e91:	4c 89 f9             	mov    %r15,%rcx
    6e94:	8b 95 70 fd ff ff    	mov    -0x290(%rbp),%edx
    6e9a:	48 89 c7             	mov    %rax,%rdi
    6e9d:	e8 d4 6a 00 00       	callq  d976 <func_65>
    6ea2:	48 8d 15 7f e1 00 00 	lea    0xe17f(%rip),%rdx        # 15028 <g_18>
    6ea9:	48 8d 35 74 e1 00 00 	lea    0xe174(%rip),%rsi        # 15024 <g_3>
    6eb0:	48 89 c7             	mov    %rax,%rdi
    6eb3:	e8 80 55 00 00       	callq  c438 <func_61>
    6eb8:	89 c7                	mov    %eax,%edi
    6eba:	48 8b 95 78 fd ff ff 	mov    -0x288(%rbp),%rdx
    6ec1:	48 8b 85 c0 fd ff ff 	mov    -0x240(%rbp),%rax
    6ec8:	48 89 d1             	mov    %rdx,%rcx
    6ecb:	48 89 c2             	mov    %rax,%rdx
    6ece:	48 8d 35 53 e1 00 00 	lea    0xe153(%rip),%rsi        # 15028 <g_18>
    6ed5:	e8 83 05 00 00       	callq  745d <func_56>
    6eda:	48 8b 95 c8 fd ff ff 	mov    -0x238(%rbp),%rdx
    6ee1:	48 89 02             	mov    %rax,(%rdx)
    6ee4:	48 8b 85 c8 fd ff ff 	mov    -0x238(%rbp),%rax
    6eeb:	48 8b 30             	mov    (%rax),%rsi
    6eee:	48 8b 85 78 fd ff ff 	mov    -0x288(%rbp),%rax
    6ef5:	0f be c0             	movsbl %al,%eax
    6ef8:	48 8b 95 78 fd ff ff 	mov    -0x288(%rbp),%rdx
    6eff:	4c 8b 85 68 fd ff ff 	mov    -0x298(%rbp),%r8
    6f06:	44 89 f1             	mov    %r14d,%ecx
    6f09:	89 c7                	mov    %eax,%edi
    6f0b:	e8 a1 02 00 00       	callq  71b1 <func_50>
    6f10:	8b 05 1a 2f 01 00    	mov    0x12f1a(%rip),%eax        # 19e30 <g_89>
    6f16:	44 8b 85 74 fd ff ff 	mov    -0x28c(%rbp),%r8d
    6f1d:	44 89 e9             	mov    %r13d,%ecx
    6f20:	44 89 e2             	mov    %r12d,%edx
    6f23:	89 de                	mov    %ebx,%esi
    6f25:	89 c7                	mov    %eax,%edi
    6f27:	e8 7d 00 00 00       	callq  6fa9 <func_44>
    6f2c:	48 8b 95 d8 fd ff ff 	mov    -0x228(%rbp),%rdx
    6f33:	48 89 02             	mov    %rax,(%rdx)
    6f36:	48 8b 85 d8 fd ff ff 	mov    -0x228(%rbp),%rax
    6f3d:	48 8b 00             	mov    (%rax),%rax
    6f40:	48 39 85 98 fd ff ff 	cmp    %rax,-0x268(%rbp)
    6f47:	0f 94 c0             	sete   %al
    6f4a:	0f b6 c0             	movzbl %al,%eax
    6f4d:	48 39 85 78 fd ff ff 	cmp    %rax,-0x288(%rbp)
    6f54:	0f 95 c1             	setne  %cl
    6f57:	48 8d 05 f2 27 01 00 	lea    0x127f2(%rip),%rax        # 19750 <g_746>
    6f5e:	48 8b 10             	mov    (%rax),%rdx
    6f61:	0f b6 c1             	movzbl %cl,%eax
    6f64:	89 02                	mov    %eax,(%rdx)
    6f66:	48 8b 05 53 27 01 00 	mov    0x12753(%rip),%rax        # 196c0 <g_41>
    6f6d:	8b 12                	mov    (%rdx),%edx
    6f6f:	89 10                	mov    %edx,(%rax)
    6f71:	8b 00                	mov    (%rax),%eax
    6f73:	89 85 8c fd ff ff    	mov    %eax,-0x274(%rbp)
    6f79:	0f b7 05 b2 04 01 00 	movzwl 0x104b2(%rip),%eax        # 17432 <g_586>
    6f80:	0f b7 c0             	movzwl %ax,%eax
    6f83:	48 8b 5d c8          	mov    -0x38(%rbp),%rbx
    6f87:	64 48 33 1c 25 28 00 	xor    %fs:0x28,%rbx
    6f8e:	00 00 
    6f90:	74 05                	je     6f97 <func_38+0x2c7>
    6f92:	e8 d9 d0 ff ff       	callq  4070 <__stack_chk_fail@plt>
    6f97:	48 81 c4 78 02 00 00 	add    $0x278,%rsp
    6f9e:	5b                   	pop    %rbx
    6f9f:	41 5c                	pop    %r12
    6fa1:	41 5d                	pop    %r13
    6fa3:	41 5e                	pop    %r14
    6fa5:	41 5f                	pop    %r15
    6fa7:	5d                   	pop    %rbp
    6fa8:	c3                   	retq   

0000000000006fa9 <func_44>:
    6fa9:	f3 0f 1e fa          	endbr64 
    6fad:	55                   	push   %rbp
    6fae:	48 89 e5             	mov    %rsp,%rbp
    6fb1:	41 55                	push   %r13
    6fb3:	41 54                	push   %r12
    6fb5:	53                   	push   %rbx
    6fb6:	48 81 ec 88 00 00 00 	sub    $0x88,%rsp
    6fbd:	89 bd 7c ff ff ff    	mov    %edi,-0x84(%rbp)
    6fc3:	89 c8                	mov    %ecx,%eax
    6fc5:	44 89 c7             	mov    %r8d,%edi
    6fc8:	89 f1                	mov    %esi,%ecx
    6fca:	88 8d 78 ff ff ff    	mov    %cl,-0x88(%rbp)
    6fd0:	88 95 74 ff ff ff    	mov    %dl,-0x8c(%rbp)
    6fd6:	88 85 70 ff ff ff    	mov    %al,-0x90(%rbp)
    6fdc:	89 f8                	mov    %edi,%eax
    6fde:	88 85 6c ff ff ff    	mov    %al,-0x94(%rbp)
    6fe4:	64 48 8b 04 25 28 00 	mov    %fs:0x28,%rax
    6feb:	00 00 
    6fed:	48 89 45 d8          	mov    %rax,-0x28(%rbp)
    6ff1:	31 c0                	xor    %eax,%eax
    6ff3:	c6 45 8a 01          	movb   $0x1,-0x76(%rbp)
    6ff7:	48 c7 45 a0 00 00 00 	movq   $0x0,-0x60(%rbp)
    6ffe:	00 
    6fff:	48 8d 05 32 2e 01 00 	lea    0x12e32(%rip),%rax        # 19e38 <g_137>
    7006:	48 89 45 a8          	mov    %rax,-0x58(%rbp)
    700a:	48 8d 05 4f 11 01 00 	lea    0x1114f(%rip),%rax        # 18160 <g_954>
    7011:	48 89 45 b0          	mov    %rax,-0x50(%rbp)
    7015:	c6 45 8b 01          	movb   $0x1,-0x75(%rbp)
    7019:	48 8d 05 30 27 01 00 	lea    0x12730(%rip),%rax        # 19750 <g_746>
    7020:	48 89 45 90          	mov    %rax,-0x70(%rbp)
    7024:	48 8d 45 90          	lea    -0x70(%rbp),%rax
    7028:	48 89 45 98          	mov    %rax,-0x68(%rbp)
    702c:	48 c7 45 b8 07 00 00 	movq   $0x7,-0x48(%rbp)
    7033:	00 
    7034:	c7 45 8c 00 00 00 00 	movl   $0x0,-0x74(%rbp)
    703b:	eb 12                	jmp    704f <func_44+0xa6>
    703d:	8b 45 8c             	mov    -0x74(%rbp),%eax
    7040:	48 98                	cltq   
    7042:	48 8d 55 98          	lea    -0x68(%rbp),%rdx
    7046:	48 89 54 c5 c0       	mov    %rdx,-0x40(%rbp,%rax,8)
    704b:	83 45 8c 01          	addl   $0x1,-0x74(%rbp)
    704f:	83 7d 8c 01          	cmpl   $0x1,-0x74(%rbp)
    7053:	7e e8                	jle    703d <func_44+0x94>
    7055:	80 bd 74 ff ff ff 00 	cmpb   $0x0,-0x8c(%rbp)
    705c:	0f 85 16 01 00 00    	jne    7178 <func_44+0x1cf>
    7062:	0f b7 15 65 12 01 00 	movzwl 0x11265(%rip),%edx        # 182ce <g_1311+0xee>
    7069:	48 8d 05 e0 26 01 00 	lea    0x126e0(%rip),%rax        # 19750 <g_746>
    7070:	48 8b 00             	mov    (%rax),%rax
    7073:	0f bf d2             	movswl %dx,%edx
    7076:	89 10                	mov    %edx,(%rax)
    7078:	8b 00                	mov    (%rax),%eax
    707a:	89 c7                	mov    %eax,%edi
    707c:	e8 15 d5 ff ff       	callq  4596 <safe_unary_minus_func_int32_t_s>
    7081:	0f b7 15 18 05 01 00 	movzwl 0x10518(%rip),%edx        # 175a0 <g_668>
    7088:	0f b6 45 8a          	movzbl -0x76(%rbp),%eax
    708c:	66 98                	cbtw   
    708e:	09 d0                	or     %edx,%eax
    7090:	66 89 05 09 05 01 00 	mov    %ax,0x10509(%rip)        # 175a0 <g_668>
    7097:	48 8b 05 9a 03 01 00 	mov    0x1039a(%rip),%rax        # 17438 <g_587>
    709e:	49 89 c5             	mov    %rax,%r13
    70a1:	8b 05 e5 06 01 00    	mov    0x106e5(%rip),%eax        # 1778c <g_774+0xc>
    70a7:	0f bf d8             	movswl %ax,%ebx
    70aa:	bf db 00 00 00       	mov    $0xdb,%edi
    70af:	e8 91 da ff ff       	callq  4b45 <safe_unary_minus_func_uint8_t_u>
    70b4:	0f b6 d0             	movzbl %al,%edx
    70b7:	0f b6 85 70 ff ff ff 	movzbl -0x90(%rbp),%eax
    70be:	0f be c0             	movsbl %al,%eax
    70c1:	39 c2                	cmp    %eax,%edx
    70c3:	0f 9c c0             	setl   %al
    70c6:	0f b6 c0             	movzbl %al,%eax
    70c9:	be 01 00 00 00       	mov    $0x1,%esi
    70ce:	89 c7                	mov    %eax,%edi
    70d0:	e8 be da ff ff       	callq  4b93 <safe_mul_func_uint8_t_u_u>
    70d5:	44 0f b6 e0          	movzbl %al,%r12d
    70d9:	0f b6 45 8a          	movzbl -0x76(%rbp),%eax
    70dd:	0f be d0             	movsbl %al,%edx
    70e0:	8b 85 7c ff ff ff    	mov    -0x84(%rbp),%eax
    70e6:	89 d6                	mov    %edx,%esi
    70e8:	89 c7                	mov    %eax,%edi
    70ea:	e8 c7 d4 ff ff       	callq  45b6 <safe_add_func_int32_t_s_s>
    70ef:	0f b6 c0             	movzbl %al,%eax
    70f2:	44 89 e6             	mov    %r12d,%esi
    70f5:	89 c7                	mov    %eax,%edi
    70f7:	e8 50 db ff ff       	callq  4c4c <safe_lshift_func_uint8_t_u_u>
    70fc:	0f b6 d0             	movzbl %al,%edx
    70ff:	48 8b 45 b0          	mov    -0x50(%rbp),%rax
    7103:	66 89 10             	mov    %dx,(%rax)
    7106:	be 10 00 00 00       	mov    $0x10,%esi
    710b:	bf 01 00 00 00       	mov    $0x1,%edi
    7110:	e8 dd d0 ff ff       	callq  41f2 <safe_sub_func_int8_t_s_s>
    7115:	0f be c0             	movsbl %al,%eax
    7118:	89 de                	mov    %ebx,%esi
    711a:	89 c7                	mov    %eax,%edi
    711c:	e8 b2 d2 ff ff       	callq  43d3 <safe_sub_func_int16_t_s_s>
    7121:	48 0f bf c0          	movswq %ax,%rax
    7125:	4c 89 ee             	mov    %r13,%rsi
    7128:	48 89 c7             	mov    %rax,%rdi
    712b:	e8 1b df ff ff       	callq  504b <safe_sub_func_uint64_t_u_u>
    7130:	0f be 95 78 ff ff ff 	movsbl -0x88(%rbp),%edx
    7137:	48 8b 45 a8          	mov    -0x58(%rbp),%rax
    713b:	89 10                	mov    %edx,(%rax)
    713d:	48 8b 45 a8          	mov    -0x58(%rbp),%rax
    7141:	8b 00                	mov    (%rax),%eax
    7143:	be 00 00 00 00       	mov    $0x0,%esi
    7148:	89 c7                	mov    %eax,%edi
    714a:	e8 69 dd ff ff       	callq  4eb8 <safe_add_func_uint32_t_u_u>
    714f:	0f b6 85 70 ff ff ff 	movzbl -0x90(%rbp),%eax
    7156:	0f be c0             	movsbl %al,%eax
    7159:	be 02 00 00 00       	mov    $0x2,%esi
    715e:	89 c7                	mov    %eax,%edi
    7160:	e8 3c d1 ff ff       	callq  42a1 <safe_lshift_func_int8_t_s_s>
    7165:	0f be 45 8b          	movsbl -0x75(%rbp),%eax
    7169:	be f1 98 ff ff       	mov    $0xffff98f1,%esi
    716e:	89 c7                	mov    %eax,%edi
    7170:	e8 a1 d2 ff ff       	callq  4416 <safe_mod_func_int16_t_s_s>
    7175:	66 85 c0             	test   %ax,%ax
    7178:	48 8b 45 98          	mov    -0x68(%rbp),%rax
    717c:	48 89 05 d5 25 01 00 	mov    %rax,0x125d5(%rip)        # 19758 <g_744>
    7183:	48 83 6d b8 01       	subq   $0x1,-0x48(%rbp)
    7188:	48 8d 05 c1 df 00 00 	lea    0xdfc1(%rip),%rax        # 15150 <g_181+0x30>
    718f:	48 8b 5d d8          	mov    -0x28(%rbp),%rbx
    7193:	64 48 33 1c 25 28 00 	xor    %fs:0x28,%rbx
    719a:	00 00 
    719c:	74 05                	je     71a3 <func_44+0x1fa>
    719e:	e8 cd ce ff ff       	callq  4070 <__stack_chk_fail@plt>
    71a3:	48 81 c4 88 00 00 00 	add    $0x88,%rsp
    71aa:	5b                   	pop    %rbx
    71ab:	41 5c                	pop    %r12
    71ad:	41 5d                	pop    %r13
    71af:	5d                   	pop    %rbp
    71b0:	c3                   	retq   

00000000000071b1 <func_50>:
    71b1:	f3 0f 1e fa          	endbr64 
    71b5:	55                   	push   %rbp
    71b6:	48 89 e5             	mov    %rsp,%rbp
    71b9:	53                   	push   %rbx
    71ba:	48 81 ec 98 00 00 00 	sub    $0x98,%rsp
    71c1:	89 f8                	mov    %edi,%eax
    71c3:	48 89 b5 70 ff ff ff 	mov    %rsi,-0x90(%rbp)
    71ca:	48 89 95 68 ff ff ff 	mov    %rdx,-0x98(%rbp)
    71d1:	89 8d 78 ff ff ff    	mov    %ecx,-0x88(%rbp)
    71d7:	4c 89 85 60 ff ff ff 	mov    %r8,-0xa0(%rbp)
    71de:	88 85 7c ff ff ff    	mov    %al,-0x84(%rbp)
    71e4:	64 48 8b 04 25 28 00 	mov    %fs:0x28,%rax
    71eb:	00 00 
    71ed:	48 89 45 e8          	mov    %rax,-0x18(%rbp)
    71f1:	31 c0                	xor    %eax,%eax
    71f3:	48 8d 05 3e de 00 00 	lea    0xde3e(%rip),%rax        # 15038 <g_27>
    71fa:	48 89 45 98          	mov    %rax,-0x68(%rbp)
    71fe:	48 c7 45 a0 00 00 00 	movq   $0x0,-0x60(%rbp)
    7205:	00 
    7206:	48 c7 45 88 00 00 00 	movq   $0x0,-0x78(%rbp)
    720d:	00 
    720e:	48 8d 45 88          	lea    -0x78(%rbp),%rax
    7212:	48 89 45 a8          	mov    %rax,-0x58(%rbp)
    7216:	48 8d 05 83 0f 01 00 	lea    0x10f83(%rip),%rax        # 181a0 <g_1299>
    721d:	48 89 45 90          	mov    %rax,-0x70(%rbp)
    7221:	48 8d 45 90          	lea    -0x70(%rbp),%rax
    7225:	48 89 45 b0          	mov    %rax,-0x50(%rbp)
    7229:	48 8b 05 18 25 01 00 	mov    0x12518(%rip),%rax        # 19748 <g_721>
    7230:	8b 30                	mov    (%rax),%esi
    7232:	48 8b 45 98          	mov    -0x68(%rbp),%rax
    7236:	b9 00 00 00 00       	mov    $0x0,%ecx
    723b:	ba 00 00 00 00       	mov    $0x0,%edx
    7240:	48 89 c7             	mov    %rax,%rdi
    7243:	e8 2e 67 00 00       	callq  d976 <func_65>
    7248:	48 89 45 a0          	mov    %rax,-0x60(%rbp)
    724c:	66 c7 05 3b 05 01 00 	movw   $0xc,0x1053b(%rip)        # 17790 <g_774+0x10>
    7253:	0c 00 
    7255:	e9 55 01 00 00       	jmpq   73af <func_50+0x1fe>
    725a:	48 c7 45 b8 00 00 00 	movq   $0x0,-0x48(%rbp)
    7261:	00 
    7262:	48 8d 05 bb 04 01 00 	lea    0x104bb(%rip),%rax        # 17724 <g_771+0x4>
    7269:	48 89 45 c0          	mov    %rax,-0x40(%rbp)
    726d:	48 8d 05 bc 2b 01 00 	lea    0x12bbc(%rip),%rax        # 19e30 <g_89>
    7274:	48 89 45 c8          	mov    %rax,-0x38(%rbp)
    7278:	48 8d 05 f1 04 01 00 	lea    0x104f1(%rip),%rax        # 17770 <g_773+0x10>
    727f:	48 89 45 d0          	mov    %rax,-0x30(%rbp)
    7283:	48 c7 45 d8 00 00 00 	movq   $0x0,-0x28(%rbp)
    728a:	00 
    728b:	48 8d 05 ee dd 00 00 	lea    0xddee(%rip),%rax        # 15080 <g_103>
    7292:	48 89 45 e0          	mov    %rax,-0x20(%rbp)
    7296:	0f b7 05 93 01 01 00 	movzwl 0x10193(%rip),%eax        # 17430 <g_563>
    729d:	98                   	cwtl   
    729e:	89 c7                	mov    %eax,%edi
    72a0:	e8 f8 d0 ff ff       	callq  439d <safe_unary_minus_func_int16_t_s>
    72a5:	89 c2                	mov    %eax,%edx
    72a7:	48 8b 05 a2 24 01 00 	mov    0x124a2(%rip),%rax        # 19750 <g_746>
    72ae:	0f bf d2             	movswl %dx,%edx
    72b1:	89 10                	mov    %edx,(%rax)
    72b3:	48 8b 05 96 24 01 00 	mov    0x12496(%rip),%rax        # 19750 <g_746>
    72ba:	48 8b 55 a0          	mov    -0x60(%rbp),%rdx
    72be:	8b 12                	mov    (%rdx),%edx
    72c0:	89 10                	mov    %edx,(%rax)
    72c2:	8b 10                	mov    (%rax),%edx
    72c4:	48 8b 45 c0          	mov    -0x40(%rbp),%rax
    72c8:	89 10                	mov    %edx,(%rax)
    72ca:	48 8b 45 c0          	mov    -0x40(%rbp),%rax
    72ce:	8b 10                	mov    (%rax),%edx
    72d0:	48 8b 45 c8          	mov    -0x38(%rbp),%rax
    72d4:	89 10                	mov    %edx,(%rax)
    72d6:	66 0f be 85 7c ff ff 	movsbw -0x84(%rbp),%ax
    72dd:	ff 
    72de:	0f b7 d8             	movzwl %ax,%ebx
    72e1:	48 8b 45 e0          	mov    -0x20(%rbp),%rax
    72e5:	0f b6 00             	movzbl (%rax),%eax
    72e8:	89 c2                	mov    %eax,%edx
    72ea:	48 8b 45 a0          	mov    -0x60(%rbp),%rax
    72ee:	8b 00                	mov    (%rax),%eax
    72f0:	f7 d0                	not    %eax
    72f2:	21 d0                	and    %edx,%eax
    72f4:	89 c2                	mov    %eax,%edx
    72f6:	48 8b 45 e0          	mov    -0x20(%rbp),%rax
    72fa:	88 10                	mov    %dl,(%rax)
    72fc:	48 8b 45 e0          	mov    -0x20(%rbp),%rax
    7300:	c6 00 06             	movb   $0x6,(%rax)
    7303:	48 83 7d a0 00       	cmpq   $0x0,-0x60(%rbp)
    7308:	0f 94 c0             	sete   %al
    730b:	0f b6 c0             	movzbl %al,%eax
    730e:	be 03 00 00 00       	mov    $0x3,%esi
    7313:	89 c7                	mov    %eax,%edi
    7315:	e8 b9 d0 ff ff       	callq  43d3 <safe_sub_func_int16_t_s_s>
    731a:	48 83 bd 68 ff ff ff 	cmpq   $0x0,-0x98(%rbp)
    7321:	00 
    7322:	48 83 7d d0 00       	cmpq   $0x0,-0x30(%rbp)
    7327:	0f 95 c0             	setne  %al
    732a:	0f b6 d0             	movzbl %al,%edx
    732d:	48 8b 45 a0          	mov    -0x60(%rbp),%rax
    7331:	8b 00                	mov    (%rax),%eax
    7333:	39 c2                	cmp    %eax,%edx
    7335:	0f 9f c0             	setg   %al
    7338:	0f b6 d0             	movzbl %al,%edx
    733b:	48 8b 05 a6 04 01 00 	mov    0x104a6(%rip),%rax        # 177e8 <g_894>
    7342:	48 39 c2             	cmp    %rax,%rdx
    7345:	0f 9f c0             	setg   %al
    7348:	0f b6 c0             	movzbl %al,%eax
    734b:	be 00 00 00 00       	mov    $0x0,%esi
    7350:	89 c7                	mov    %eax,%edi
    7352:	e8 9e d0 ff ff       	callq  43f5 <safe_mul_func_int16_t_s_s>
    7357:	0f b7 c0             	movzwl %ax,%eax
    735a:	89 de                	mov    %ebx,%esi
    735c:	89 c7                	mov    %eax,%edi
    735e:	e8 2b da ff ff       	callq  4d8e <safe_div_func_uint16_t_u_u>
    7363:	48 8b 45 a0          	mov    -0x60(%rbp),%rax
    7367:	8b 00                	mov    (%rax),%eax
    7369:	83 f8 01             	cmp    $0x1,%eax
    736c:	74 10                	je     737e <func_50+0x1cd>
    736e:	80 bd 7c ff ff ff 00 	cmpb   $0x0,-0x84(%rbp)
    7375:	74 07                	je     737e <func_50+0x1cd>
    7377:	ba 01 00 00 00       	mov    $0x1,%edx
    737c:	eb 05                	jmp    7383 <func_50+0x1d2>
    737e:	ba 00 00 00 00       	mov    $0x0,%edx
    7383:	48 8b 45 c8          	mov    -0x38(%rbp),%rax
    7387:	8b 00                	mov    (%rax),%eax
    7389:	21 c2                	and    %eax,%edx
    738b:	48 8b 45 c8          	mov    -0x38(%rbp),%rax
    738f:	89 10                	mov    %edx,(%rax)
    7391:	0f b7 05 f8 03 01 00 	movzwl 0x103f8(%rip),%eax        # 17790 <g_774+0x10>
    7398:	0f b7 c0             	movzwl %ax,%eax
    739b:	be 01 00 00 00       	mov    $0x1,%esi
    73a0:	48 89 c7             	mov    %rax,%rdi
    73a3:	e8 99 d4 ff ff       	callq  4841 <safe_add_func_int64_t_s_s>
    73a8:	66 89 05 e1 03 01 00 	mov    %ax,0x103e1(%rip)        # 17790 <g_774+0x10>
    73af:	0f b7 05 da 03 01 00 	movzwl 0x103da(%rip),%eax        # 17790 <g_774+0x10>
    73b6:	66 83 f8 1b          	cmp    $0x1b,%ax
    73ba:	0f 86 9a fe ff ff    	jbe    725a <func_50+0xa9>
    73c0:	48 8b 45 b0          	mov    -0x50(%rbp),%rax
    73c4:	48 89 05 bd 24 01 00 	mov    %rax,0x124bd(%rip)        # 19888 <g_1300>
    73cb:	48 8b 05 b6 24 01 00 	mov    0x124b6(%rip),%rax        # 19888 <g_1300>
    73d2:	48 85 c0             	test   %rax,%rax
    73d5:	0f 94 c0             	sete   %al
    73d8:	0f b6 d0             	movzbl %al,%edx
    73db:	0f b6 85 7c ff ff ff 	movzbl -0x84(%rbp),%eax
    73e2:	83 f0 01             	xor    $0x1,%eax
    73e5:	f7 d0                	not    %eax
    73e7:	c0 e8 07             	shr    $0x7,%al
    73ea:	0f b6 c0             	movzbl %al,%eax
    73ed:	89 d6                	mov    %edx,%esi
    73ef:	89 c7                	mov    %eax,%edi
    73f1:	e8 10 da ff ff       	callq  4e06 <safe_lshift_func_uint16_t_u_u>
    73f6:	8b 85 78 ff ff ff    	mov    -0x88(%rbp),%eax
    73fc:	0f b7 c0             	movzwl %ax,%eax
    73ff:	be 00 00 00 00       	mov    $0x0,%esi
    7404:	89 c7                	mov    %eax,%edi
    7406:	e8 b3 d9 ff ff       	callq  4dbe <safe_lshift_func_uint16_t_u_s>
    740b:	0f b7 d0             	movzwl %ax,%edx
    740e:	48 8b 45 a0          	mov    -0x60(%rbp),%rax
    7412:	8b 00                	mov    (%rax),%eax
    7414:	39 c2                	cmp    %eax,%edx
    7416:	0f 9c c0             	setl   %al
    7419:	0f b6 d0             	movzbl %al,%edx
    741c:	0f be 85 7c ff ff ff 	movsbl -0x84(%rbp),%eax
    7423:	09 c2                	or     %eax,%edx
    7425:	48 8b 85 60 ff ff ff 	mov    -0xa0(%rbp),%rax
    742c:	8b 00                	mov    (%rax),%eax
    742e:	09 c2                	or     %eax,%edx
    7430:	48 8b 85 60 ff ff ff 	mov    -0xa0(%rbp),%rax
    7437:	89 10                	mov    %edx,(%rax)
    7439:	48 8b 45 a0          	mov    -0x60(%rbp),%rax
    743d:	8b 00                	mov    (%rax),%eax
    743f:	48 8b 4d e8          	mov    -0x18(%rbp),%rcx
    7443:	64 48 33 0c 25 28 00 	xor    %fs:0x28,%rcx
    744a:	00 00 
    744c:	74 05                	je     7453 <func_50+0x2a2>
    744e:	e8 1d cc ff ff       	callq  4070 <__stack_chk_fail@plt>
    7453:	48 81 c4 98 00 00 00 	add    $0x98,%rsp
    745a:	5b                   	pop    %rbx
    745b:	5d                   	pop    %rbp
    745c:	c3                   	retq   

000000000000745d <func_56>:
    745d:	f3 0f 1e fa          	endbr64 
    7461:	55                   	push   %rbp
    7462:	48 89 e5             	mov    %rsp,%rbp
    7465:	41 57                	push   %r15
    7467:	41 56                	push   %r14
    7469:	41 55                	push   %r13
    746b:	41 54                	push   %r12
    746d:	53                   	push   %rbx
    746e:	48 81 ec 00 10 00 00 	sub    $0x1000,%rsp
    7475:	48 83 0c 24 00       	orq    $0x0,(%rsp)
    747a:	48 81 ec 38 07 00 00 	sub    $0x738,%rsp
    7481:	89 bd cc e8 ff ff    	mov    %edi,-0x1734(%rbp)
    7487:	48 89 b5 c0 e8 ff ff 	mov    %rsi,-0x1740(%rbp)
    748e:	48 89 95 b8 e8 ff ff 	mov    %rdx,-0x1748(%rbp)
    7495:	48 89 8d b0 e8 ff ff 	mov    %rcx,-0x1750(%rbp)
    749c:	64 48 8b 04 25 28 00 	mov    %fs:0x28,%rax
    74a3:	00 00 
    74a5:	48 89 45 c8          	mov    %rax,-0x38(%rbp)
    74a9:	31 c0                	xor    %eax,%eax
    74ab:	48 8d 05 66 dc 00 00 	lea    0xdc66(%rip),%rax        # 15118 <g_136>
    74b2:	48 89 85 48 ea ff ff 	mov    %rax,-0x15b8(%rbp)
    74b9:	48 8d 85 e0 f4 ff ff 	lea    -0xb20(%rbp),%rax
    74c0:	48 8d 15 f9 17 01 00 	lea    0x117f9(%rip),%rdx        # 18cc0 <g_1830+0x720>
    74c7:	b9 3c 00 00 00       	mov    $0x3c,%ecx
    74cc:	48 89 c7             	mov    %rax,%rdi
    74cf:	48 89 d6             	mov    %rdx,%rsi
    74d2:	f3 48 a5             	rep movsq %ds:(%rsi),%es:(%rdi)
    74d5:	48 8d 05 64 db 00 00 	lea    0xdb64(%rip),%rax        # 15040 <g_42>
    74dc:	48 89 85 50 f3 ff ff 	mov    %rax,-0xcb0(%rbp)
    74e3:	48 8d 05 56 db 00 00 	lea    0xdb56(%rip),%rax        # 15040 <g_42>
    74ea:	48 89 85 58 f3 ff ff 	mov    %rax,-0xca8(%rbp)
    74f1:	48 8d 85 88 ec ff ff 	lea    -0x1378(%rbp),%rax
    74f8:	48 89 85 60 f3 ff ff 	mov    %rax,-0xca0(%rbp)
    74ff:	48 c7 85 68 f3 ff ff 	movq   $0x0,-0xc98(%rbp)
    7506:	00 00 00 00 
    750a:	48 c7 85 70 f3 ff ff 	movq   $0x0,-0xc90(%rbp)
    7511:	00 00 00 00 
    7515:	48 c7 85 78 f3 ff ff 	movq   $0x0,-0xc88(%rbp)
    751c:	00 00 00 00 
    7520:	48 8d 05 19 db 00 00 	lea    0xdb19(%rip),%rax        # 15040 <g_42>
    7527:	48 89 85 80 f3 ff ff 	mov    %rax,-0xc80(%rbp)
    752e:	48 c7 85 88 f3 ff ff 	movq   $0x0,-0xc78(%rbp)
    7535:	00 00 00 00 
    7539:	48 8d 05 00 db 00 00 	lea    0xdb00(%rip),%rax        # 15040 <g_42>
    7540:	48 89 85 90 f3 ff ff 	mov    %rax,-0xc70(%rbp)
    7547:	48 8d 05 f2 da 00 00 	lea    0xdaf2(%rip),%rax        # 15040 <g_42>
    754e:	48 89 85 98 f3 ff ff 	mov    %rax,-0xc68(%rbp)
    7555:	48 8d 05 cc da 00 00 	lea    0xdacc(%rip),%rax        # 15028 <g_18>
    755c:	48 89 85 a0 f3 ff ff 	mov    %rax,-0xc60(%rbp)
    7563:	48 c7 85 a8 f3 ff ff 	movq   $0x0,-0xc58(%rbp)
    756a:	00 00 00 00 
    756e:	48 c7 85 b0 f3 ff ff 	movq   $0x0,-0xc50(%rbp)
    7575:	00 00 00 00 
    7579:	48 8d 05 c0 da 00 00 	lea    0xdac0(%rip),%rax        # 15040 <g_42>
    7580:	48 89 85 b8 f3 ff ff 	mov    %rax,-0xc48(%rbp)
    7587:	48 8d 85 88 ec ff ff 	lea    -0x1378(%rbp),%rax
    758e:	48 83 c0 04          	add    $0x4,%rax
    7592:	48 89 85 c0 f3 ff ff 	mov    %rax,-0xc40(%rbp)
    7599:	48 c7 85 c8 f3 ff ff 	movq   $0x0,-0xc38(%rbp)
    75a0:	00 00 00 00 
    75a4:	48 8d 05 95 da 00 00 	lea    0xda95(%rip),%rax        # 15040 <g_42>
    75ab:	48 89 85 d0 f3 ff ff 	mov    %rax,-0xc30(%rbp)
    75b2:	48 8d 05 6f da 00 00 	lea    0xda6f(%rip),%rax        # 15028 <g_18>
    75b9:	48 89 85 d8 f3 ff ff 	mov    %rax,-0xc28(%rbp)
    75c0:	48 8d 85 88 ec ff ff 	lea    -0x1378(%rbp),%rax
    75c7:	48 83 c0 04          	add    $0x4,%rax
    75cb:	48 89 85 e0 f3 ff ff 	mov    %rax,-0xc20(%rbp)
    75d2:	48 8d 05 67 da 00 00 	lea    0xda67(%rip),%rax        # 15040 <g_42>
    75d9:	48 89 85 e8 f3 ff ff 	mov    %rax,-0xc18(%rbp)
    75e0:	48 8d 05 59 da 00 00 	lea    0xda59(%rip),%rax        # 15040 <g_42>
    75e7:	48 89 85 f0 f3 ff ff 	mov    %rax,-0xc10(%rbp)
    75ee:	48 8d 85 88 ec ff ff 	lea    -0x1378(%rbp),%rax
    75f5:	48 83 c0 04          	add    $0x4,%rax
    75f9:	48 89 85 f8 f3 ff ff 	mov    %rax,-0xc08(%rbp)
    7600:	48 c7 85 00 f4 ff ff 	movq   $0x0,-0xc00(%rbp)
    7607:	00 00 00 00 
    760b:	48 8d 05 2e da 00 00 	lea    0xda2e(%rip),%rax        # 15040 <g_42>
    7612:	48 89 85 08 f4 ff ff 	mov    %rax,-0xbf8(%rbp)
    7619:	48 c7 85 10 f4 ff ff 	movq   $0x0,-0xbf0(%rbp)
    7620:	00 00 00 00 
    7624:	48 8d 05 fd d9 00 00 	lea    0xd9fd(%rip),%rax        # 15028 <g_18>
    762b:	48 89 85 18 f4 ff ff 	mov    %rax,-0xbe8(%rbp)
    7632:	48 8d 05 ef d9 00 00 	lea    0xd9ef(%rip),%rax        # 15028 <g_18>
    7639:	48 89 85 20 f4 ff ff 	mov    %rax,-0xbe0(%rbp)
    7640:	48 8d 05 f9 d9 00 00 	lea    0xd9f9(%rip),%rax        # 15040 <g_42>
    7647:	48 89 85 28 f4 ff ff 	mov    %rax,-0xbd8(%rbp)
    764e:	48 8d 85 88 ec ff ff 	lea    -0x1378(%rbp),%rax
    7655:	48 83 c0 04          	add    $0x4,%rax
    7659:	48 89 85 30 f4 ff ff 	mov    %rax,-0xbd0(%rbp)
    7660:	48 8d 85 88 ec ff ff 	lea    -0x1378(%rbp),%rax
    7667:	48 83 c0 04          	add    $0x4,%rax
    766b:	48 89 85 38 f4 ff ff 	mov    %rax,-0xbc8(%rbp)
    7672:	48 8d 05 af d9 00 00 	lea    0xd9af(%rip),%rax        # 15028 <g_18>
    7679:	48 89 85 40 f4 ff ff 	mov    %rax,-0xbc0(%rbp)
    7680:	48 8d 05 b9 d9 00 00 	lea    0xd9b9(%rip),%rax        # 15040 <g_42>
    7687:	48 89 85 48 f4 ff ff 	mov    %rax,-0xbb8(%rbp)
    768e:	48 8d 05 93 d9 00 00 	lea    0xd993(%rip),%rax        # 15028 <g_18>
    7695:	48 89 85 50 f4 ff ff 	mov    %rax,-0xbb0(%rbp)
    769c:	48 8d 05 9d d9 00 00 	lea    0xd99d(%rip),%rax        # 15040 <g_42>
    76a3:	48 89 85 58 f4 ff ff 	mov    %rax,-0xba8(%rbp)
    76aa:	48 c7 85 60 f4 ff ff 	movq   $0x0,-0xba0(%rbp)
    76b1:	00 00 00 00 
    76b5:	48 8d 05 6c d9 00 00 	lea    0xd96c(%rip),%rax        # 15028 <g_18>
    76bc:	48 89 85 68 f4 ff ff 	mov    %rax,-0xb98(%rbp)
    76c3:	48 c7 85 70 f4 ff ff 	movq   $0x0,-0xb90(%rbp)
    76ca:	00 00 00 00 
    76ce:	48 8d 05 6b d9 00 00 	lea    0xd96b(%rip),%rax        # 15040 <g_42>
    76d5:	48 89 85 78 f4 ff ff 	mov    %rax,-0xb88(%rbp)
    76dc:	48 8d 05 5d d9 00 00 	lea    0xd95d(%rip),%rax        # 15040 <g_42>
    76e3:	48 89 85 80 f4 ff ff 	mov    %rax,-0xb80(%rbp)
    76ea:	48 c7 85 88 f4 ff ff 	movq   $0x0,-0xb78(%rbp)
    76f1:	00 00 00 00 
    76f5:	48 8d 05 2c d9 00 00 	lea    0xd92c(%rip),%rax        # 15028 <g_18>
    76fc:	48 89 85 90 f4 ff ff 	mov    %rax,-0xb70(%rbp)
    7703:	48 8d 05 36 d9 00 00 	lea    0xd936(%rip),%rax        # 15040 <g_42>
    770a:	48 89 85 98 f4 ff ff 	mov    %rax,-0xb68(%rbp)
    7711:	48 8d 85 88 ec ff ff 	lea    -0x1378(%rbp),%rax
    7718:	48 83 c0 04          	add    $0x4,%rax
    771c:	48 89 85 a0 f4 ff ff 	mov    %rax,-0xb60(%rbp)
    7723:	48 8d 05 16 d9 00 00 	lea    0xd916(%rip),%rax        # 15040 <g_42>
    772a:	48 89 85 a8 f4 ff ff 	mov    %rax,-0xb58(%rbp)
    7731:	48 8d 05 ec d8 00 00 	lea    0xd8ec(%rip),%rax        # 15024 <g_3>
    7738:	48 89 85 b0 f4 ff ff 	mov    %rax,-0xb50(%rbp)
    773f:	48 8d 05 fa d8 00 00 	lea    0xd8fa(%rip),%rax        # 15040 <g_42>
    7746:	48 89 85 b8 f4 ff ff 	mov    %rax,-0xb48(%rbp)
    774d:	48 8d 85 88 ec ff ff 	lea    -0x1378(%rbp),%rax
    7754:	48 83 c0 04          	add    $0x4,%rax
    7758:	48 89 85 c0 f4 ff ff 	mov    %rax,-0xb40(%rbp)
    775f:	48 8d 05 da d8 00 00 	lea    0xd8da(%rip),%rax        # 15040 <g_42>
    7766:	48 89 85 c8 f4 ff ff 	mov    %rax,-0xb38(%rbp)
    776d:	48 c7 85 d0 f4 ff ff 	movq   $0x0,-0xb30(%rbp)
    7774:	00 00 00 00 
    7778:	48 8d 05 c1 d8 00 00 	lea    0xd8c1(%rip),%rax        # 15040 <g_42>
    777f:	48 89 85 d8 f4 ff ff 	mov    %rax,-0xb28(%rbp)
    7786:	48 b8 ef 70 c6 b0 eb 	movabs $0x3f9389ebb0c670ef,%rax
    778d:	89 93 3f 
    7790:	48 89 85 40 ea ff ff 	mov    %rax,-0x15c0(%rbp)
    7797:	c7 85 fc e8 ff ff 07 	movl   $0x7,-0x1704(%rbp)
    779e:	00 00 00 
    77a1:	48 c7 85 e0 e9 ff ff 	movq   $0x0,-0x1620(%rbp)
    77a8:	00 00 00 00 
    77ac:	48 8d 85 e0 e9 ff ff 	lea    -0x1620(%rbp),%rax
    77b3:	48 89 85 50 ea ff ff 	mov    %rax,-0x15b0(%rbp)
    77ba:	c7 85 40 ed ff ff ff 	movl   $0xf8f803ff,-0x12c0(%rbp)
    77c1:	03 f8 f8 
    77c4:	66 c7 85 44 ed ff ff 	movw   $0xff03,-0x12bc(%rbp)
    77cb:	03 ff 
    77cd:	c7 85 46 ed ff ff c7 	movl   $0xfff8ffc7,-0x12ba(%rbp)
    77d4:	ff f8 ff 
    77d7:	66 c7 85 4a ed ff ff 	movw   $0xc7c7,-0x12b6(%rbp)
    77de:	c7 c7 
    77e0:	c7 85 4c ed ff ff 5f 	movl   $0x5fffff5f,-0x12b4(%rbp)
    77e7:	ff ff 5f 
    77ea:	66 c7 85 50 ed ff ff 	movw   $0x5f03,-0x12b0(%rbp)
    77f1:	03 5f 
    77f3:	c7 85 52 ed ff ff 5f 	movl   $0xff5f035f,-0x12ae(%rbp)
    77fa:	03 5f ff 
    77fd:	66 c7 85 56 ed ff ff 	movw   $0x5fff,-0x12aa(%rbp)
    7804:	ff 5f 
    7806:	c7 85 58 ed ff ff c7 	movl   $0xf8ffc7c7,-0x12a8(%rbp)
    780d:	c7 ff f8 
    7810:	66 c7 85 5c ed ff ff 	movw   $0xc7ff,-0x12a4(%rbp)
    7817:	ff c7 
    7819:	c7 85 5e ed ff ff ff 	movl   $0xf8f803ff,-0x12a2(%rbp)
    7820:	03 f8 f8 
    7823:	66 c7 85 62 ed ff ff 	movw   $0xff03,-0x129e(%rbp)
    782a:	03 ff 
    782c:	c7 85 64 ed ff ff c7 	movl   $0xfff8ffc7,-0x129c(%rbp)
    7833:	ff f8 ff 
    7836:	66 c7 85 68 ed ff ff 	movw   $0xc7c7,-0x1298(%rbp)
    783d:	c7 c7 
    783f:	c7 85 6a ed ff ff 5f 	movl   $0x5fffff5f,-0x1296(%rbp)
    7846:	ff ff 5f 
    7849:	66 c7 85 6e ed ff ff 	movw   $0x5f03,-0x1292(%rbp)
    7850:	03 5f 
    7852:	c7 85 70 ed ff ff 5f 	movl   $0xff5f035f,-0x1290(%rbp)
    7859:	03 5f ff 
    785c:	66 c7 85 74 ed ff ff 	movw   $0x5fff,-0x128c(%rbp)
    7863:	ff 5f 
    7865:	48 8d 05 bc 1e 01 00 	lea    0x11ebc(%rip),%rax        # 19728 <g_415>
    786c:	48 89 85 10 ed ff ff 	mov    %rax,-0x12f0(%rbp)
    7873:	48 8d 05 ae 1e 01 00 	lea    0x11eae(%rip),%rax        # 19728 <g_415>
    787a:	48 89 85 18 ed ff ff 	mov    %rax,-0x12e8(%rbp)
    7881:	48 8d 05 a0 1e 01 00 	lea    0x11ea0(%rip),%rax        # 19728 <g_415>
    7888:	48 89 85 20 ed ff ff 	mov    %rax,-0x12e0(%rbp)
    788f:	48 8d 05 92 1e 01 00 	lea    0x11e92(%rip),%rax        # 19728 <g_415>
    7896:	48 89 85 28 ed ff ff 	mov    %rax,-0x12d8(%rbp)
    789d:	48 8d 05 84 1e 01 00 	lea    0x11e84(%rip),%rax        # 19728 <g_415>
    78a4:	48 89 85 30 ed ff ff 	mov    %rax,-0x12d0(%rbp)
    78ab:	66 c7 85 e8 e8 ff ff 	movw   $0x6c10,-0x1718(%rbp)
    78b2:	10 6c 
    78b4:	c7 85 d0 ec ff ff 7c 	movl   $0x9d2cfe7c,-0x1330(%rbp)
    78bb:	fe 2c 9d 
    78be:	c7 85 d4 ec ff ff ff 	movl   $0xffffffff,-0x132c(%rbp)
    78c5:	ff ff ff 
    78c8:	c7 85 d8 ec ff ff 7c 	movl   $0x9d2cfe7c,-0x1328(%rbp)
    78cf:	fe 2c 9d 
    78d2:	c7 85 dc ec ff ff 7c 	movl   $0x9d2cfe7c,-0x1324(%rbp)
    78d9:	fe 2c 9d 
    78dc:	c7 85 e0 ec ff ff ff 	movl   $0xffffffff,-0x1320(%rbp)
    78e3:	ff ff ff 
    78e6:	c7 85 e4 ec ff ff 7c 	movl   $0x9d2cfe7c,-0x131c(%rbp)
    78ed:	fe 2c 9d 
    78f0:	c7 85 e8 ec ff ff 7c 	movl   $0x9d2cfe7c,-0x1318(%rbp)
    78f7:	fe 2c 9d 
    78fa:	48 8d 05 df fd 00 00 	lea    0xfddf(%rip),%rax        # 176e0 <g_764>
    7901:	48 89 85 e8 e9 ff ff 	mov    %rax,-0x1618(%rbp)
    7908:	c7 85 50 e9 ff ff 0a 	movl   $0xa4342e0a,-0x16b0(%rbp)
    790f:	2e 34 a4 
    7912:	48 c7 85 c0 f6 ff ff 	movq   $0x0,-0x940(%rbp)
    7919:	00 00 00 00 
    791d:	48 8d 05 0e fe 00 00 	lea    0xfe0e(%rip),%rax        # 17732 <g_771+0x12>
    7924:	48 89 85 c8 f6 ff ff 	mov    %rax,-0x938(%rbp)
    792b:	48 8d 05 98 d9 00 00 	lea    0xd998(%rip),%rax        # 152ca <g_240+0x2a>
    7932:	48 89 85 d0 f6 ff ff 	mov    %rax,-0x930(%rbp)
    7939:	48 c7 85 d8 f6 ff ff 	movq   $0x0,-0x928(%rbp)
    7940:	00 00 00 00 
    7944:	48 c7 85 e0 f6 ff ff 	movq   $0x0,-0x920(%rbp)
    794b:	00 00 00 00 
    794f:	48 c7 85 e8 f6 ff ff 	movq   $0x0,-0x918(%rbp)
    7956:	00 00 00 00 
    795a:	48 8d 05 31 fe 00 00 	lea    0xfe31(%rip),%rax        # 17792 <g_774+0x12>
    7961:	48 89 85 f0 f6 ff ff 	mov    %rax,-0x910(%rbp)
    7968:	48 c7 85 f8 f6 ff ff 	movq   $0x0,-0x908(%rbp)
    796f:	00 00 00 00 
    7973:	48 c7 85 00 f7 ff ff 	movq   $0x0,-0x900(%rbp)
    797a:	00 00 00 00 
    797e:	48 8d 05 0d fe 00 00 	lea    0xfe0d(%rip),%rax        # 17792 <g_774+0x12>
    7985:	48 89 85 08 f7 ff ff 	mov    %rax,-0x8f8(%rbp)
    798c:	48 c7 85 10 f7 ff ff 	movq   $0x0,-0x8f0(%rbp)
    7993:	00 00 00 00 
    7997:	48 8d 05 74 fd 00 00 	lea    0xfd74(%rip),%rax        # 17712 <g_767+0x12>
    799e:	48 89 85 18 f7 ff ff 	mov    %rax,-0x8e8(%rbp)
    79a5:	48 c7 85 20 f7 ff ff 	movq   $0x0,-0x8e0(%rbp)
    79ac:	00 00 00 00 
    79b0:	48 8d 05 db fd 00 00 	lea    0xfddb(%rip),%rax        # 17792 <g_774+0x12>
    79b7:	48 89 85 28 f7 ff ff 	mov    %rax,-0x8d8(%rbp)
    79be:	48 8d 85 40 ed ff ff 	lea    -0x12c0(%rbp),%rax
    79c5:	48 83 c0 01          	add    $0x1,%rax
    79c9:	48 89 85 30 f7 ff ff 	mov    %rax,-0x8d0(%rbp)
    79d0:	48 c7 85 38 f7 ff ff 	movq   $0x0,-0x8c8(%rbp)
    79d7:	00 00 00 00 
    79db:	48 8d 05 b0 fd 00 00 	lea    0xfdb0(%rip),%rax        # 17792 <g_774+0x12>
    79e2:	48 89 85 40 f7 ff ff 	mov    %rax,-0x8c0(%rbp)
    79e9:	48 8d 05 22 fd 00 00 	lea    0xfd22(%rip),%rax        # 17712 <g_767+0x12>
    79f0:	48 89 85 48 f7 ff ff 	mov    %rax,-0x8b8(%rbp)
    79f7:	48 8d 05 d1 d8 00 00 	lea    0xd8d1(%rip),%rax        # 152cf <g_240+0x2f>
    79fe:	48 89 85 50 f7 ff ff 	mov    %rax,-0x8b0(%rbp)
    7a05:	48 8d 05 be d8 00 00 	lea    0xd8be(%rip),%rax        # 152ca <g_240+0x2a>
    7a0c:	48 89 85 58 f7 ff ff 	mov    %rax,-0x8a8(%rbp)
    7a13:	48 c7 85 60 f7 ff ff 	movq   $0x0,-0x8a0(%rbp)
    7a1a:	00 00 00 00 
    7a1e:	48 8d 05 ed fc 00 00 	lea    0xfced(%rip),%rax        # 17712 <g_767+0x12>
    7a25:	48 89 85 68 f7 ff ff 	mov    %rax,-0x898(%rbp)
    7a2c:	48 8d 05 97 d8 00 00 	lea    0xd897(%rip),%rax        # 152ca <g_240+0x2a>
    7a33:	48 89 85 70 f7 ff ff 	mov    %rax,-0x890(%rbp)
    7a3a:	48 c7 85 78 f7 ff ff 	movq   $0x0,-0x888(%rbp)
    7a41:	00 00 00 00 
    7a45:	48 8d 05 46 fd 00 00 	lea    0xfd46(%rip),%rax        # 17792 <g_774+0x12>
    7a4c:	48 89 85 80 f7 ff ff 	mov    %rax,-0x880(%rbp)
    7a53:	48 8d 05 38 fd 00 00 	lea    0xfd38(%rip),%rax        # 17792 <g_774+0x12>
    7a5a:	48 89 85 88 f7 ff ff 	mov    %rax,-0x878(%rbp)
    7a61:	48 8d 05 62 d8 00 00 	lea    0xd862(%rip),%rax        # 152ca <g_240+0x2a>
    7a68:	48 89 85 90 f7 ff ff 	mov    %rax,-0x870(%rbp)
    7a6f:	48 8d 05 74 d8 00 00 	lea    0xd874(%rip),%rax        # 152ea <g_339>
    7a76:	48 89 85 98 f7 ff ff 	mov    %rax,-0x868(%rbp)
    7a7d:	48 8d 05 0e fd 00 00 	lea    0xfd0e(%rip),%rax        # 17792 <g_774+0x12>
    7a84:	48 89 85 a0 f7 ff ff 	mov    %rax,-0x860(%rbp)
    7a8b:	48 c7 85 a8 f7 ff ff 	movq   $0x0,-0x858(%rbp)
    7a92:	00 00 00 00 
    7a96:	48 8d 05 f5 fc 00 00 	lea    0xfcf5(%rip),%rax        # 17792 <g_774+0x12>
    7a9d:	48 89 85 b0 f7 ff ff 	mov    %rax,-0x850(%rbp)
    7aa4:	48 c7 85 b8 f7 ff ff 	movq   $0x0,-0x848(%rbp)
    7aab:	00 00 00 00 
    7aaf:	48 c7 85 c0 f7 ff ff 	movq   $0x0,-0x840(%rbp)
    7ab6:	00 00 00 00 
    7aba:	48 8d 05 51 fc 00 00 	lea    0xfc51(%rip),%rax        # 17712 <g_767+0x12>
    7ac1:	48 89 85 c8 f7 ff ff 	mov    %rax,-0x838(%rbp)
    7ac8:	48 c7 85 d0 f7 ff ff 	movq   $0x0,-0x830(%rbp)
    7acf:	00 00 00 00 
    7ad3:	48 c7 85 d8 f7 ff ff 	movq   $0x0,-0x828(%rbp)
    7ada:	00 00 00 00 
    7ade:	48 8d 05 ea d7 00 00 	lea    0xd7ea(%rip),%rax        # 152cf <g_240+0x2f>
    7ae5:	48 89 85 e0 f7 ff ff 	mov    %rax,-0x820(%rbp)
    7aec:	48 c7 85 e8 f7 ff ff 	movq   $0x0,-0x818(%rbp)
    7af3:	00 00 00 00 
    7af7:	48 c7 85 f0 f7 ff ff 	movq   $0x0,-0x810(%rbp)
    7afe:	00 00 00 00 
    7b02:	48 c7 85 f8 f7 ff ff 	movq   $0x0,-0x808(%rbp)
    7b09:	00 00 00 00 
    7b0d:	48 8d 05 1e fc 00 00 	lea    0xfc1e(%rip),%rax        # 17732 <g_771+0x12>
    7b14:	48 89 85 00 f8 ff ff 	mov    %rax,-0x800(%rbp)
    7b1b:	48 8d 05 a8 d7 00 00 	lea    0xd7a8(%rip),%rax        # 152ca <g_240+0x2a>
    7b22:	48 89 85 08 f8 ff ff 	mov    %rax,-0x7f8(%rbp)
    7b29:	48 c7 85 10 f8 ff ff 	movq   $0x0,-0x7f0(%rbp)
    7b30:	00 00 00 00 
    7b34:	48 c7 85 18 f8 ff ff 	movq   $0x0,-0x7e8(%rbp)
    7b3b:	00 00 00 00 
    7b3f:	48 c7 85 20 f8 ff ff 	movq   $0x0,-0x7e0(%rbp)
    7b46:	00 00 00 00 
    7b4a:	48 8d 05 41 fc 00 00 	lea    0xfc41(%rip),%rax        # 17792 <g_774+0x12>
    7b51:	48 89 85 28 f8 ff ff 	mov    %rax,-0x7d8(%rbp)
    7b58:	48 c7 85 30 f8 ff ff 	movq   $0x0,-0x7d0(%rbp)
    7b5f:	00 00 00 00 
    7b63:	48 c7 85 38 f8 ff ff 	movq   $0x0,-0x7c8(%rbp)
    7b6a:	00 00 00 00 
    7b6e:	48 8d 05 1d fc 00 00 	lea    0xfc1d(%rip),%rax        # 17792 <g_774+0x12>
    7b75:	48 89 85 40 f8 ff ff 	mov    %rax,-0x7c0(%rbp)
    7b7c:	48 c7 85 48 f8 ff ff 	movq   $0x0,-0x7b8(%rbp)
    7b83:	00 00 00 00 
    7b87:	48 8d 05 84 fb 00 00 	lea    0xfb84(%rip),%rax        # 17712 <g_767+0x12>
    7b8e:	48 89 85 50 f8 ff ff 	mov    %rax,-0x7b0(%rbp)
    7b95:	48 c7 85 58 f8 ff ff 	movq   $0x0,-0x7a8(%rbp)
    7b9c:	00 00 00 00 
    7ba0:	48 8d 05 eb fb 00 00 	lea    0xfbeb(%rip),%rax        # 17792 <g_774+0x12>
    7ba7:	48 89 85 60 f8 ff ff 	mov    %rax,-0x7a0(%rbp)
    7bae:	48 8d 85 40 ed ff ff 	lea    -0x12c0(%rbp),%rax
    7bb5:	48 83 c0 01          	add    $0x1,%rax
    7bb9:	48 89 85 68 f8 ff ff 	mov    %rax,-0x798(%rbp)
    7bc0:	48 c7 85 70 f8 ff ff 	movq   $0x0,-0x790(%rbp)
    7bc7:	00 00 00 00 
    7bcb:	48 8d 05 c0 fb 00 00 	lea    0xfbc0(%rip),%rax        # 17792 <g_774+0x12>
    7bd2:	48 89 85 78 f8 ff ff 	mov    %rax,-0x788(%rbp)
    7bd9:	48 8d 05 32 fb 00 00 	lea    0xfb32(%rip),%rax        # 17712 <g_767+0x12>
    7be0:	48 89 85 80 f8 ff ff 	mov    %rax,-0x780(%rbp)
    7be7:	48 8d 05 e1 d6 00 00 	lea    0xd6e1(%rip),%rax        # 152cf <g_240+0x2f>
    7bee:	48 89 85 88 f8 ff ff 	mov    %rax,-0x778(%rbp)
    7bf5:	48 8d 05 ce d6 00 00 	lea    0xd6ce(%rip),%rax        # 152ca <g_240+0x2a>
    7bfc:	48 89 85 90 f8 ff ff 	mov    %rax,-0x770(%rbp)
    7c03:	48 c7 85 98 f8 ff ff 	movq   $0x0,-0x768(%rbp)
    7c0a:	00 00 00 00 
    7c0e:	48 8d 05 fd fa 00 00 	lea    0xfafd(%rip),%rax        # 17712 <g_767+0x12>
    7c15:	48 89 85 a0 f8 ff ff 	mov    %rax,-0x760(%rbp)
    7c1c:	48 8d 05 a7 d6 00 00 	lea    0xd6a7(%rip),%rax        # 152ca <g_240+0x2a>
    7c23:	48 89 85 a8 f8 ff ff 	mov    %rax,-0x758(%rbp)
    7c2a:	48 c7 85 b0 f8 ff ff 	movq   $0x0,-0x750(%rbp)
    7c31:	00 00 00 00 
    7c35:	48 8d 05 56 fb 00 00 	lea    0xfb56(%rip),%rax        # 17792 <g_774+0x12>
    7c3c:	48 89 85 b8 f8 ff ff 	mov    %rax,-0x748(%rbp)
    7c43:	48 8d 05 48 fb 00 00 	lea    0xfb48(%rip),%rax        # 17792 <g_774+0x12>
    7c4a:	48 89 85 c0 f8 ff ff 	mov    %rax,-0x740(%rbp)
    7c51:	48 8d 05 72 d6 00 00 	lea    0xd672(%rip),%rax        # 152ca <g_240+0x2a>
    7c58:	48 89 85 c8 f8 ff ff 	mov    %rax,-0x738(%rbp)
    7c5f:	48 8d 05 84 d6 00 00 	lea    0xd684(%rip),%rax        # 152ea <g_339>
    7c66:	48 89 85 d0 f8 ff ff 	mov    %rax,-0x730(%rbp)
    7c6d:	48 8d 05 1e fb 00 00 	lea    0xfb1e(%rip),%rax        # 17792 <g_774+0x12>
    7c74:	48 89 85 d8 f8 ff ff 	mov    %rax,-0x728(%rbp)
    7c7b:	48 c7 85 e0 f8 ff ff 	movq   $0x0,-0x720(%rbp)
    7c82:	00 00 00 00 
    7c86:	48 8d 05 05 fb 00 00 	lea    0xfb05(%rip),%rax        # 17792 <g_774+0x12>
    7c8d:	48 89 85 e8 f8 ff ff 	mov    %rax,-0x718(%rbp)
    7c94:	48 c7 85 f0 f8 ff ff 	movq   $0x0,-0x710(%rbp)
    7c9b:	00 00 00 00 
    7c9f:	48 c7 85 f8 f8 ff ff 	movq   $0x0,-0x708(%rbp)
    7ca6:	00 00 00 00 
    7caa:	48 8d 05 61 fa 00 00 	lea    0xfa61(%rip),%rax        # 17712 <g_767+0x12>
    7cb1:	48 89 85 00 f9 ff ff 	mov    %rax,-0x700(%rbp)
    7cb8:	48 c7 85 08 f9 ff ff 	movq   $0x0,-0x6f8(%rbp)
    7cbf:	00 00 00 00 
    7cc3:	48 c7 85 10 f9 ff ff 	movq   $0x0,-0x6f0(%rbp)
    7cca:	00 00 00 00 
    7cce:	48 8d 05 fa d5 00 00 	lea    0xd5fa(%rip),%rax        # 152cf <g_240+0x2f>
    7cd5:	48 89 85 18 f9 ff ff 	mov    %rax,-0x6e8(%rbp)
    7cdc:	48 c7 85 20 f9 ff ff 	movq   $0x0,-0x6e0(%rbp)
    7ce3:	00 00 00 00 
    7ce7:	48 c7 85 28 f9 ff ff 	movq   $0x0,-0x6d8(%rbp)
    7cee:	00 00 00 00 
    7cf2:	48 c7 85 30 f9 ff ff 	movq   $0x0,-0x6d0(%rbp)
    7cf9:	00 00 00 00 
    7cfd:	48 8d 05 2e fa 00 00 	lea    0xfa2e(%rip),%rax        # 17732 <g_771+0x12>
    7d04:	48 89 85 38 f9 ff ff 	mov    %rax,-0x6c8(%rbp)
    7d0b:	48 8d 05 b8 d5 00 00 	lea    0xd5b8(%rip),%rax        # 152ca <g_240+0x2a>
    7d12:	48 89 85 40 f9 ff ff 	mov    %rax,-0x6c0(%rbp)
    7d19:	48 c7 85 48 f9 ff ff 	movq   $0x0,-0x6b8(%rbp)
    7d20:	00 00 00 00 
    7d24:	48 c7 85 50 f9 ff ff 	movq   $0x0,-0x6b0(%rbp)
    7d2b:	00 00 00 00 
    7d2f:	48 c7 85 58 f9 ff ff 	movq   $0x0,-0x6a8(%rbp)
    7d36:	00 00 00 00 
    7d3a:	48 8d 05 51 fa 00 00 	lea    0xfa51(%rip),%rax        # 17792 <g_774+0x12>
    7d41:	48 89 85 60 f9 ff ff 	mov    %rax,-0x6a0(%rbp)
    7d48:	48 c7 85 68 f9 ff ff 	movq   $0x0,-0x698(%rbp)
    7d4f:	00 00 00 00 
    7d53:	48 c7 85 70 f9 ff ff 	movq   $0x0,-0x690(%rbp)
    7d5a:	00 00 00 00 
    7d5e:	48 8d 05 2d fa 00 00 	lea    0xfa2d(%rip),%rax        # 17792 <g_774+0x12>
    7d65:	48 89 85 78 f9 ff ff 	mov    %rax,-0x688(%rbp)
    7d6c:	48 8d 05 0d d3 00 00 	lea    0xd30d(%rip),%rax        # 15080 <g_103>
    7d73:	48 89 85 80 f9 ff ff 	mov    %rax,-0x680(%rbp)
    7d7a:	48 c7 85 88 f9 ff ff 	movq   $0x0,-0x678(%rbp)
    7d81:	00 00 00 00 
    7d85:	48 8d 05 5e d5 00 00 	lea    0xd55e(%rip),%rax        # 152ea <g_339>
    7d8c:	48 89 85 90 f9 ff ff 	mov    %rax,-0x670(%rbp)
    7d93:	48 8d 85 40 ed ff ff 	lea    -0x12c0(%rbp),%rax
    7d9a:	48 83 c0 13          	add    $0x13,%rax
    7d9e:	48 89 85 98 f9 ff ff 	mov    %rax,-0x668(%rbp)
    7da5:	48 8d 05 e6 f9 00 00 	lea    0xf9e6(%rip),%rax        # 17792 <g_774+0x12>
    7dac:	48 89 85 a0 f9 ff ff 	mov    %rax,-0x660(%rbp)
    7db3:	48 c7 85 a8 f9 ff ff 	movq   $0x0,-0x658(%rbp)
    7dba:	00 00 00 00 
    7dbe:	48 8d 05 cd f9 00 00 	lea    0xf9cd(%rip),%rax        # 17792 <g_774+0x12>
    7dc5:	48 89 85 b0 f9 ff ff 	mov    %rax,-0x650(%rbp)
    7dcc:	48 c7 85 b8 f9 ff ff 	movq   $0x0,-0x648(%rbp)
    7dd3:	00 00 00 00 
    7dd7:	48 c7 85 c0 f9 ff ff 	movq   $0x0,-0x640(%rbp)
    7dde:	00 00 00 00 
    7de2:	48 c7 85 c8 f9 ff ff 	movq   $0x0,-0x638(%rbp)
    7de9:	00 00 00 00 
    7ded:	48 c7 85 d0 f9 ff ff 	movq   $0x0,-0x630(%rbp)
    7df4:	00 00 00 00 
    7df8:	48 8d 85 40 ed ff ff 	lea    -0x12c0(%rbp),%rax
    7dff:	48 83 c0 06          	add    $0x6,%rax
    7e03:	48 89 85 d8 f9 ff ff 	mov    %rax,-0x628(%rbp)
    7e0a:	48 c7 85 e0 f9 ff ff 	movq   $0x0,-0x620(%rbp)
    7e11:	00 00 00 00 
    7e15:	48 8d 05 76 f9 00 00 	lea    0xf976(%rip),%rax        # 17792 <g_774+0x12>
    7e1c:	48 89 85 e8 f9 ff ff 	mov    %rax,-0x618(%rbp)
    7e23:	48 8d 85 40 ed ff ff 	lea    -0x12c0(%rbp),%rax
    7e2a:	48 83 c0 13          	add    $0x13,%rax
    7e2e:	48 89 85 f0 f9 ff ff 	mov    %rax,-0x610(%rbp)
    7e35:	48 8d 05 56 f9 00 00 	lea    0xf956(%rip),%rax        # 17792 <g_774+0x12>
    7e3c:	48 89 85 f8 f9 ff ff 	mov    %rax,-0x608(%rbp)
    7e43:	48 8d 05 c8 f8 00 00 	lea    0xf8c8(%rip),%rax        # 17712 <g_767+0x12>
    7e4a:	48 89 85 00 fa ff ff 	mov    %rax,-0x600(%rbp)
    7e51:	48 c7 85 08 fa ff ff 	movq   $0x0,-0x5f8(%rbp)
    7e58:	00 00 00 00 
    7e5c:	48 8d 85 40 ed ff ff 	lea    -0x12c0(%rbp),%rax
    7e63:	48 83 c0 13          	add    $0x13,%rax
    7e67:	48 89 85 10 fa ff ff 	mov    %rax,-0x5f0(%rbp)
    7e6e:	48 8d 05 75 d4 00 00 	lea    0xd475(%rip),%rax        # 152ea <g_339>
    7e75:	48 89 85 18 fa ff ff 	mov    %rax,-0x5e8(%rbp)
    7e7c:	48 8d 85 c0 f6 ff ff 	lea    -0x940(%rbp),%rax
    7e83:	48 05 50 01 00 00    	add    $0x150,%rax
    7e89:	48 89 85 70 ef ff ff 	mov    %rax,-0x1090(%rbp)
    7e90:	48 8d 85 c0 f6 ff ff 	lea    -0x940(%rbp),%rax
    7e97:	48 05 50 01 00 00    	add    $0x150,%rax
    7e9d:	48 89 85 78 ef ff ff 	mov    %rax,-0x1088(%rbp)
    7ea4:	48 8d 85 c0 f6 ff ff 	lea    -0x940(%rbp),%rax
    7eab:	48 05 50 01 00 00    	add    $0x150,%rax
    7eb1:	48 89 85 80 ef ff ff 	mov    %rax,-0x1080(%rbp)
    7eb8:	48 8d 85 c0 f6 ff ff 	lea    -0x940(%rbp),%rax
    7ebf:	48 05 50 01 00 00    	add    $0x150,%rax
    7ec5:	48 89 85 88 ef ff ff 	mov    %rax,-0x1078(%rbp)
    7ecc:	48 8d 85 c0 f6 ff ff 	lea    -0x940(%rbp),%rax
    7ed3:	48 05 50 01 00 00    	add    $0x150,%rax
    7ed9:	48 89 85 90 ef ff ff 	mov    %rax,-0x1070(%rbp)
    7ee0:	48 8d 85 c0 f6 ff ff 	lea    -0x940(%rbp),%rax
    7ee7:	48 05 50 01 00 00    	add    $0x150,%rax
    7eed:	48 89 85 98 ef ff ff 	mov    %rax,-0x1068(%rbp)
    7ef4:	48 8d 85 c0 f6 ff ff 	lea    -0x940(%rbp),%rax
    7efb:	48 05 50 01 00 00    	add    $0x150,%rax
    7f01:	48 89 85 a0 ef ff ff 	mov    %rax,-0x1060(%rbp)
    7f08:	48 8d 85 c0 f6 ff ff 	lea    -0x940(%rbp),%rax
    7f0f:	48 05 50 01 00 00    	add    $0x150,%rax
    7f15:	48 89 85 a8 ef ff ff 	mov    %rax,-0x1058(%rbp)
    7f1c:	48 8d 85 c0 f6 ff ff 	lea    -0x940(%rbp),%rax
    7f23:	48 05 50 01 00 00    	add    $0x150,%rax
    7f29:	48 89 85 b0 ef ff ff 	mov    %rax,-0x1050(%rbp)
    7f30:	48 8d 85 c0 f6 ff ff 	lea    -0x940(%rbp),%rax
    7f37:	48 05 50 01 00 00    	add    $0x150,%rax
    7f3d:	48 89 85 b8 ef ff ff 	mov    %rax,-0x1048(%rbp)
    7f44:	48 8d 85 c0 f6 ff ff 	lea    -0x940(%rbp),%rax
    7f4b:	48 05 50 01 00 00    	add    $0x150,%rax
    7f51:	48 89 85 c0 ef ff ff 	mov    %rax,-0x1040(%rbp)
    7f58:	48 8d 85 c0 f6 ff ff 	lea    -0x940(%rbp),%rax
    7f5f:	48 05 50 01 00 00    	add    $0x150,%rax
    7f65:	48 89 85 c8 ef ff ff 	mov    %rax,-0x1038(%rbp)
    7f6c:	48 8d 85 c0 f6 ff ff 	lea    -0x940(%rbp),%rax
    7f73:	48 05 50 01 00 00    	add    $0x150,%rax
    7f79:	48 89 85 d0 ef ff ff 	mov    %rax,-0x1030(%rbp)
    7f80:	48 8d 85 c0 f6 ff ff 	lea    -0x940(%rbp),%rax
    7f87:	48 05 50 01 00 00    	add    $0x150,%rax
    7f8d:	48 89 85 d8 ef ff ff 	mov    %rax,-0x1028(%rbp)
    7f94:	48 8d 85 c0 f6 ff ff 	lea    -0x940(%rbp),%rax
    7f9b:	48 05 50 01 00 00    	add    $0x150,%rax
    7fa1:	48 89 85 e0 ef ff ff 	mov    %rax,-0x1020(%rbp)
    7fa8:	48 8d 85 c0 f6 ff ff 	lea    -0x940(%rbp),%rax
    7faf:	48 05 50 01 00 00    	add    $0x150,%rax
    7fb5:	48 89 85 e8 ef ff ff 	mov    %rax,-0x1018(%rbp)
    7fbc:	c7 85 54 e9 ff ff 7b 	movl   $0xa4fb177b,-0x16ac(%rbp)
    7fc3:	17 fb a4 
    7fc6:	c6 85 dc e8 ff ff 07 	movb   $0x7,-0x1724(%rbp)
    7fcd:	48 8d 85 c0 f6 ff ff 	lea    -0x940(%rbp),%rax
    7fd4:	48 05 b0 00 00 00    	add    $0xb0,%rax
    7fda:	48 89 85 f0 e9 ff ff 	mov    %rax,-0x1610(%rbp)
    7fe1:	48 8d 85 f0 e9 ff ff 	lea    -0x1610(%rbp),%rax
    7fe8:	48 89 85 58 ea ff ff 	mov    %rax,-0x15a8(%rbp)
    7fef:	48 b8 a4 e5 d7 2e bb 	movabs $0xd26009bb2ed7e5a4,%rax
    7ff6:	09 60 d2 
    7ff9:	48 89 85 60 ea ff ff 	mov    %rax,-0x15a0(%rbp)
    8000:	48 8d 05 9d f5 00 00 	lea    0xf59d(%rip),%rax        # 175a4 <g_668+0x4>
    8007:	48 89 85 68 ea ff ff 	mov    %rax,-0x1598(%rbp)
    800e:	c6 85 dd e8 ff ff 65 	movb   $0x65,-0x1723(%rbp)
    8015:	48 8d 85 50 f3 ff ff 	lea    -0xcb0(%rbp),%rax
    801c:	48 05 88 01 00 00    	add    $0x188,%rax
    8022:	48 89 85 f8 e9 ff ff 	mov    %rax,-0x1608(%rbp)
    8029:	48 8d 85 f8 e9 ff ff 	lea    -0x1608(%rbp),%rax
    8030:	48 89 85 70 ea ff ff 	mov    %rax,-0x1590(%rbp)
    8037:	c6 85 de e8 ff ff a6 	movb   $0xa6,-0x1722(%rbp)
    803e:	c7 85 38 e9 ff ff 00 	movl   $0x0,-0x16c8(%rbp)
    8045:	00 00 00 
    8048:	eb 1a                	jmp    8064 <func_56+0xc07>
    804a:	8b 85 38 e9 ff ff    	mov    -0x16c8(%rbp),%eax
    8050:	48 98                	cltq   
    8052:	c7 84 85 88 ec ff ff 	movl   $0x611faa56,-0x1378(%rbp,%rax,4)
    8059:	56 aa 1f 61 
    805d:	83 85 38 e9 ff ff 01 	addl   $0x1,-0x16c8(%rbp)
    8064:	83 bd 38 e9 ff ff 01 	cmpl   $0x1,-0x16c8(%rbp)
    806b:	7e dd                	jle    804a <func_56+0xbed>
    806d:	48 8b 9d b0 e8 ff ff 	mov    -0x1750(%rbp),%rbx
    8074:	8b 85 8c ec ff ff    	mov    -0x1374(%rbp),%eax
    807a:	44 0f be e0          	movsbl %al,%r12d
    807e:	8b 85 8c ec ff ff    	mov    -0x1374(%rbp),%eax
    8084:	44 0f be e8          	movsbl %al,%r13d
    8088:	8b 85 8c ec ff ff    	mov    -0x1374(%rbp),%eax
    808e:	88 05 c2 d0 00 00    	mov    %al,0xd0c2(%rip)        # 15156 <g_181+0x36>
    8094:	0f b6 05 bb d0 00 00 	movzbl 0xd0bb(%rip),%eax        # 15156 <g_181+0x36>
    809b:	0f be d0             	movsbl %al,%edx
    809e:	8b 85 8c ec ff ff    	mov    -0x1374(%rbp),%eax
    80a4:	0f be c0             	movsbl %al,%eax
    80a7:	89 d6                	mov    %edx,%esi
    80a9:	89 c7                	mov    %eax,%edi
    80ab:	e8 ba c1 ff ff       	callq  426a <safe_div_func_int8_t_s_s>
    80b0:	0f be c0             	movsbl %al,%eax
    80b3:	44 89 ee             	mov    %r13d,%esi
    80b6:	89 c7                	mov    %eax,%edi
    80b8:	e8 35 c1 ff ff       	callq  41f2 <safe_sub_func_int8_t_s_s>
    80bd:	0f be c0             	movsbl %al,%eax
    80c0:	44 89 e6             	mov    %r12d,%esi
    80c3:	89 c7                	mov    %eax,%edi
    80c5:	e8 67 c1 ff ff       	callq  4231 <safe_mod_func_int8_t_s_s>
    80ca:	0f be c0             	movsbl %al,%eax
    80cd:	89 c6                	mov    %eax,%esi
    80cf:	bf a8 cd 01 e5       	mov    $0xe501cda8,%edi
    80d4:	e8 f7 cd ff ff       	callq  4ed0 <safe_sub_func_uint32_t_u_u>
    80d9:	89 c0                	mov    %eax,%eax
    80db:	48 89 de             	mov    %rbx,%rsi
    80de:	48 89 c7             	mov    %rax,%rdi
    80e1:	e8 c9 cf ff ff       	callq  50af <safe_div_func_uint64_t_u_u>
    80e6:	89 c2                	mov    %eax,%edx
    80e8:	48 83 bd 48 ea ff ff 	cmpq   $0x0,-0x15b8(%rbp)
    80ef:	00 
    80f0:	0f 95 c0             	setne  %al
    80f3:	0f b6 c0             	movzbl %al,%eax
    80f6:	89 d6                	mov    %edx,%esi
    80f8:	89 c7                	mov    %eax,%edi
    80fa:	e8 bf cc ff ff       	callq  4dbe <safe_lshift_func_uint16_t_u_s>
    80ff:	0f b7 d0             	movzwl %ax,%edx
    8102:	8b 85 8c ec ff ff    	mov    -0x1374(%rbp),%eax
    8108:	39 c2                	cmp    %eax,%edx
    810a:	0f 9c c0             	setl   %al
    810d:	0f b6 d0             	movzbl %al,%edx
    8110:	8b 85 8c ec ff ff    	mov    -0x1374(%rbp),%eax
    8116:	21 d0                	and    %edx,%eax
    8118:	89 05 22 cf 00 00    	mov    %eax,0xcf22(%rip)        # 15040 <g_42>
    811e:	8b 05 1c cf 00 00    	mov    0xcf1c(%rip),%eax        # 15040 <g_42>
    8124:	83 f0 01             	xor    $0x1,%eax
    8127:	89 05 13 cf 00 00    	mov    %eax,0xcf13(%rip)        # 15040 <g_42>
    812d:	48 83 85 40 ea ff ff 	addq   $0x1,-0x15c0(%rbp)
    8134:	01 
    8135:	c7 05 49 d1 00 00 00 	movl   $0x0,0xd149(%rip)        # 15288 <g_212>
    813c:	00 00 00 
    813f:	e9 b2 42 00 00       	jmpq   c3f6 <func_56+0x4f99>
    8144:	c7 85 58 e9 ff ff e0 	movl   $0xf5071ae0,-0x16a8(%rbp)
    814b:	1a 07 f5 
    814e:	c7 85 3c e9 ff ff 00 	movl   $0x0,-0x16c4(%rbp)
    8155:	00 00 00 
    8158:	c7 85 80 ed ff ff ff 	movl   $0xffffffff,-0x1280(%rbp)
    815f:	ff ff ff 
    8162:	c7 85 84 ed ff ff b5 	movl   $0xed5efbb5,-0x127c(%rbp)
    8169:	fb 5e ed 
    816c:	c7 85 88 ed ff ff b9 	movl   $0x318f53b9,-0x1278(%rbp)
    8173:	53 8f 31 
    8176:	c7 85 8c ed ff ff b9 	movl   $0x318f53b9,-0x1274(%rbp)
    817d:	53 8f 31 
    8180:	c7 85 90 ed ff ff b5 	movl   $0xed5efbb5,-0x1270(%rbp)
    8187:	fb 5e ed 
    818a:	c7 85 94 ed ff ff ff 	movl   $0xffffffff,-0x126c(%rbp)
    8191:	ff ff ff 
    8194:	c7 85 98 ed ff ff b5 	movl   $0xed5efbb5,-0x1268(%rbp)
    819b:	fb 5e ed 
    819e:	c7 85 9c ed ff ff 01 	movl   $0x1,-0x1264(%rbp)
    81a5:	00 00 00 
    81a8:	c7 85 a0 ed ff ff ff 	movl   $0xffffffff,-0x1260(%rbp)
    81af:	ff ff ff 
    81b2:	c7 85 a4 ed ff ff ff 	movl   $0xffffffff,-0x125c(%rbp)
    81b9:	ff ff ff 
    81bc:	c7 85 a8 ed ff ff 01 	movl   $0x1,-0x1258(%rbp)
    81c3:	00 00 00 
    81c6:	c7 85 ac ed ff ff b5 	movl   $0xed5efbb5,-0x1254(%rbp)
    81cd:	fb 5e ed 
    81d0:	c7 85 b0 ed ff ff 01 	movl   $0x1,-0x1250(%rbp)
    81d7:	00 00 00 
    81da:	c7 85 b4 ed ff ff ff 	movl   $0xffffffff,-0x124c(%rbp)
    81e1:	ff ff ff 
    81e4:	66 c7 85 ea e8 ff ff 	movw   $0x430f,-0x1716(%rbp)
    81eb:	0f 43 
    81ed:	48 8d 05 3c ce 00 00 	lea    0xce3c(%rip),%rax        # 15030 <g_26>
    81f4:	48 89 85 d0 ee ff ff 	mov    %rax,-0x1130(%rbp)
    81fb:	48 8d 05 2e ce 00 00 	lea    0xce2e(%rip),%rax        # 15030 <g_26>
    8202:	48 89 85 d8 ee ff ff 	mov    %rax,-0x1128(%rbp)
    8209:	48 8d 05 20 ce 00 00 	lea    0xce20(%rip),%rax        # 15030 <g_26>
    8210:	48 89 85 e0 ee ff ff 	mov    %rax,-0x1120(%rbp)
    8217:	48 8d 05 12 ce 00 00 	lea    0xce12(%rip),%rax        # 15030 <g_26>
    821e:	48 89 85 e8 ee ff ff 	mov    %rax,-0x1118(%rbp)
    8225:	48 8d 05 04 ce 00 00 	lea    0xce04(%rip),%rax        # 15030 <g_26>
    822c:	48 89 85 f0 ee ff ff 	mov    %rax,-0x1110(%rbp)
    8233:	48 8d 05 f6 cd 00 00 	lea    0xcdf6(%rip),%rax        # 15030 <g_26>
    823a:	48 89 85 f8 ee ff ff 	mov    %rax,-0x1108(%rbp)
    8241:	48 8d 05 e8 cd 00 00 	lea    0xcde8(%rip),%rax        # 15030 <g_26>
    8248:	48 89 85 00 ef ff ff 	mov    %rax,-0x1100(%rbp)
    824f:	48 8d 05 da cd 00 00 	lea    0xcdda(%rip),%rax        # 15030 <g_26>
    8256:	48 89 85 08 ef ff ff 	mov    %rax,-0x10f8(%rbp)
    825d:	48 8d 05 cc cd 00 00 	lea    0xcdcc(%rip),%rax        # 15030 <g_26>
    8264:	48 89 85 10 ef ff ff 	mov    %rax,-0x10f0(%rbp)
    826b:	48 8d 05 be cd 00 00 	lea    0xcdbe(%rip),%rax        # 15030 <g_26>
    8272:	48 89 85 18 ef ff ff 	mov    %rax,-0x10e8(%rbp)
    8279:	c7 85 40 e9 ff ff 9c 	movl   $0x33823c9c,-0x16c0(%rbp)
    8280:	3c 82 33 
    8283:	48 8d 05 9e 14 01 00 	lea    0x1149e(%rip),%rax        # 19728 <g_415>
    828a:	48 89 85 78 ea ff ff 	mov    %rax,-0x1588(%rbp)
    8291:	c7 85 5c e9 ff ff 74 	movl   $0xf230f674,-0x16a4(%rbp)
    8298:	f6 30 f2 
    829b:	c7 85 00 e9 ff ff 91 	movl   $0xab518f91,-0x1700(%rbp)
    82a2:	8f 51 ab 
    82a5:	48 8d 05 74 f4 00 00 	lea    0xf474(%rip),%rax        # 17720 <g_771>
    82ac:	48 89 85 00 ee ff ff 	mov    %rax,-0x1200(%rbp)
    82b3:	48 8d 05 66 f4 00 00 	lea    0xf466(%rip),%rax        # 17720 <g_771>
    82ba:	48 89 85 08 ee ff ff 	mov    %rax,-0x11f8(%rbp)
    82c1:	48 8d 05 58 f4 00 00 	lea    0xf458(%rip),%rax        # 17720 <g_771>
    82c8:	48 89 85 10 ee ff ff 	mov    %rax,-0x11f0(%rbp)
    82cf:	48 8d 05 4a f4 00 00 	lea    0xf44a(%rip),%rax        # 17720 <g_771>
    82d6:	48 89 85 18 ee ff ff 	mov    %rax,-0x11e8(%rbp)
    82dd:	48 8d 05 3c f4 00 00 	lea    0xf43c(%rip),%rax        # 17720 <g_771>
    82e4:	48 89 85 20 ee ff ff 	mov    %rax,-0x11e0(%rbp)
    82eb:	48 8d 05 2e f4 00 00 	lea    0xf42e(%rip),%rax        # 17720 <g_771>
    82f2:	48 89 85 28 ee ff ff 	mov    %rax,-0x11d8(%rbp)
    82f9:	48 8d 05 20 f4 00 00 	lea    0xf420(%rip),%rax        # 17720 <g_771>
    8300:	48 89 85 30 ee ff ff 	mov    %rax,-0x11d0(%rbp)
    8307:	48 8d 05 12 f4 00 00 	lea    0xf412(%rip),%rax        # 17720 <g_771>
    830e:	48 89 85 38 ee ff ff 	mov    %rax,-0x11c8(%rbp)
    8315:	c6 85 db e8 ff ff 15 	movb   $0x15,-0x1725(%rbp)
    831c:	48 b8 1c 1f d6 8e ea 	movabs $0x411ae2ea8ed61f1c,%rax
    8323:	e2 1a 41 
    8326:	48 89 85 80 ea ff ff 	mov    %rax,-0x1580(%rbp)
    832d:	48 8d 05 6c f4 00 00 	lea    0xf46c(%rip),%rax        # 177a0 <g_859>
    8334:	48 89 85 88 ea ff ff 	mov    %rax,-0x1578(%rbp)
    833b:	48 8d 85 30 f1 ff ff 	lea    -0xed0(%rbp),%rax
    8342:	48 8d 15 77 91 00 00 	lea    0x9177(%rip),%rdx        # 114c0 <g_1342+0x440>
    8349:	b9 1f 00 00 00       	mov    $0x1f,%ecx
    834e:	48 89 c7             	mov    %rax,%rdi
    8351:	48 89 d6             	mov    %rdx,%rsi
    8354:	f3 48 a5             	rep movsq %ds:(%rsi),%es:(%rdi)
    8357:	48 89 f2             	mov    %rsi,%rdx
    835a:	48 89 f8             	mov    %rdi,%rax
    835d:	8b 0a                	mov    (%rdx),%ecx
    835f:	89 08                	mov    %ecx,(%rax)
    8361:	c7 45 c1 00 00 00 00 	movl   $0x0,-0x3f(%rbp)
    8368:	66 c7 45 c5 00 00    	movw   $0x0,-0x3b(%rbp)
    836e:	c6 45 c7 00          	movb   $0x0,-0x39(%rbp)
    8372:	c6 85 df e8 ff ff ff 	movb   $0xff,-0x1721(%rbp)
    8379:	48 c7 85 90 ea ff ff 	movq   $0x0,-0x1570(%rbp)
    8380:	00 00 00 00 
    8384:	48 b8 fe 0e 49 e2 72 	movabs $0x32436072e2490efe,%rax
    838b:	60 43 32 
    838e:	48 89 85 98 ea ff ff 	mov    %rax,-0x1568(%rbp)
    8395:	c7 85 60 e9 ff ff 7d 	movl   $0xff00a27d,-0x16a0(%rbp)
    839c:	a2 00 ff 
    839f:	48 8d 05 fa f1 00 00 	lea    0xf1fa(%rip),%rax        # 175a0 <g_668>
    83a6:	48 89 85 a0 ea ff ff 	mov    %rax,-0x1560(%rbp)
    83ad:	48 c7 85 a8 ea ff ff 	movq   $0x0,-0x1558(%rbp)
    83b4:	00 00 00 00 
    83b8:	66 c7 85 ee e8 ff ff 	movw   $0x7d93,-0x1712(%rbp)
    83bf:	93 7d 
    83c1:	c7 85 44 e9 ff ff 00 	movl   $0x0,-0x16bc(%rbp)
    83c8:	00 00 00 
    83cb:	eb 1e                	jmp    83eb <func_56+0xf8e>
    83cd:	8b 85 44 e9 ff ff    	mov    -0x16bc(%rbp),%eax
    83d3:	48 98                	cltq   
    83d5:	48 8d 15 ee ce 00 00 	lea    0xceee(%rip),%rdx        # 152ca <g_240+0x2a>
    83dc:	48 89 94 c5 78 ec ff 	mov    %rdx,-0x1388(%rbp,%rax,8)
    83e3:	ff 
    83e4:	83 85 44 e9 ff ff 01 	addl   $0x1,-0x16bc(%rbp)
    83eb:	83 bd 44 e9 ff ff 00 	cmpl   $0x0,-0x16bc(%rbp)
    83f2:	7e d9                	jle    83cd <func_56+0xf70>
    83f4:	c7 85 44 e9 ff ff 00 	movl   $0x0,-0x16bc(%rbp)
    83fb:	00 00 00 
    83fe:	eb 1b                	jmp    841b <func_56+0xfbe>
    8400:	8b 85 44 e9 ff ff    	mov    -0x16bc(%rbp),%eax
    8406:	48 98                	cltq   
    8408:	48 c7 84 c5 b0 ec ff 	movq   $0x0,-0x1350(%rbp,%rax,8)
    840f:	ff 00 00 00 00 
    8414:	83 85 44 e9 ff ff 01 	addl   $0x1,-0x16bc(%rbp)
    841b:	83 bd 44 e9 ff ff 02 	cmpl   $0x2,-0x16bc(%rbp)
    8422:	7e dc                	jle    8400 <func_56+0xfa3>
    8424:	c7 85 44 e9 ff ff 00 	movl   $0x0,-0x16bc(%rbp)
    842b:	00 00 00 
    842e:	eb 1b                	jmp    844b <func_56+0xfee>
    8430:	8b 85 44 e9 ff ff    	mov    -0x16bc(%rbp),%eax
    8436:	48 98                	cltq   
    8438:	48 c7 84 c5 80 ec ff 	movq   $0x0,-0x1380(%rbp,%rax,8)
    843f:	ff 00 00 00 00 
    8444:	83 85 44 e9 ff ff 01 	addl   $0x1,-0x16bc(%rbp)
    844b:	83 bd 44 e9 ff ff 00 	cmpl   $0x0,-0x16bc(%rbp)
    8452:	7e dc                	jle    8430 <func_56+0xfd3>
    8454:	8b 85 58 e9 ff ff    	mov    -0x16a8(%rbp),%eax
    845a:	48 63 d8             	movslq %eax,%rbx
    845d:	0f b7 85 ea e8 ff ff 	movzwl -0x1716(%rbp),%eax
    8464:	83 c8 01             	or     $0x1,%eax
    8467:	0f b7 d0             	movzwl %ax,%edx
    846a:	0f b6 05 79 ce 00 00 	movzbl 0xce79(%rip),%eax        # 152ea <g_339>
    8471:	8d 48 ff             	lea    -0x1(%rax),%ecx
    8474:	88 0d 70 ce 00 00    	mov    %cl,0xce70(%rip)        # 152ea <g_339>
    847a:	0f b6 c0             	movzbl %al,%eax
    847d:	89 d6                	mov    %edx,%esi
    847f:	89 c7                	mov    %eax,%edi
    8481:	e8 07 c8 ff ff       	callq  4c8d <safe_rshift_func_uint8_t_u_s>
    8486:	44 0f b6 e0          	movzbl %al,%r12d
    848a:	48 8b 85 c0 e8 ff ff 	mov    -0x1740(%rbp),%rax
    8491:	48 85 c0             	test   %rax,%rax
    8494:	0f 95 c0             	setne  %al
    8497:	0f b6 d0             	movzbl %al,%edx
    849a:	48 8b 85 b8 e8 ff ff 	mov    -0x1748(%rbp),%rax
    84a1:	0f b6 00             	movzbl (%rax),%eax
    84a4:	0f be c0             	movsbl %al,%eax
    84a7:	89 d6                	mov    %edx,%esi
    84a9:	89 c7                	mov    %eax,%edi
    84ab:	e8 24 bd ff ff       	callq  41d4 <safe_add_func_int8_t_s_s>
    84b0:	0f be c0             	movsbl %al,%eax
    84b3:	be fb ff ff ff       	mov    $0xfffffffb,%esi
    84b8:	89 c7                	mov    %eax,%edi
    84ba:	e8 3e ca ff ff       	callq  4efd <safe_mod_func_uint32_t_u_u>
    84bf:	89 85 ac ed ff ff    	mov    %eax,-0x1254(%rbp)
    84c5:	8b 85 ac ed ff ff    	mov    -0x1254(%rbp),%eax
    84cb:	41 39 c4             	cmp    %eax,%r12d
    84ce:	0f 9d c0             	setge  %al
    84d1:	0f b6 d0             	movzbl %al,%edx
    84d4:	48 8b 85 48 ea ff ff 	mov    -0x15b8(%rbp),%rax
    84db:	66 89 10             	mov    %dx,(%rax)
    84de:	48 8b 85 48 ea ff ff 	mov    -0x15b8(%rbp),%rax
    84e5:	0f b7 00             	movzwl (%rax),%eax
    84e8:	0f b7 d0             	movzwl %ax,%edx
    84eb:	0f b7 05 36 ef 00 00 	movzwl 0xef36(%rip),%eax        # 17428 <g_484>
    84f2:	83 e8 01             	sub    $0x1,%eax
    84f5:	66 89 05 2c ef 00 00 	mov    %ax,0xef2c(%rip)        # 17428 <g_484>
    84fc:	48 8b 85 b0 e8 ff ff 	mov    -0x1750(%rbp),%rax
    8503:	0f b7 c0             	movzwl %ax,%eax
    8506:	89 d6                	mov    %edx,%esi
    8508:	89 c7                	mov    %eax,%edi
    850a:	e8 10 c8 ff ff       	callq  4d1f <safe_sub_func_uint16_t_u_u>
    850f:	0f b7 c0             	movzwl %ax,%eax
    8512:	48 89 de             	mov    %rbx,%rsi
    8515:	48 89 c7             	mov    %rax,%rdi
    8518:	e8 8b c3 ff ff       	callq  48a8 <safe_sub_func_int64_t_s_s>
    851d:	89 c2                	mov    %eax,%edx
    851f:	48 8b 85 b0 e8 ff ff 	mov    -0x1750(%rbp),%rax
    8526:	09 d0                	or     %edx,%eax
    8528:	0f b7 c0             	movzwl %ax,%eax
    852b:	89 c6                	mov    %eax,%esi
    852d:	bf 98 ee 00 00       	mov    $0xee98,%edi
    8532:	e8 25 c8 ff ff       	callq  4d5c <safe_mod_func_uint16_t_u_u>
    8537:	0f b7 d0             	movzwl %ax,%edx
    853a:	8b 05 f8 18 01 00    	mov    0x118f8(%rip),%eax        # 19e38 <g_137>
    8540:	39 c2                	cmp    %eax,%edx
    8542:	0f 93 c0             	setae  %al
    8545:	0f b6 c0             	movzbl %al,%eax
    8548:	48 89 05 e1 ca 00 00 	mov    %rax,0xcae1(%rip)        # 15030 <g_26>
    854f:	83 bd 3c e9 ff ff 00 	cmpl   $0x0,-0x16c4(%rbp)
    8556:	0f 9f c0             	setg   %al
    8559:	0f b6 c0             	movzbl %al,%eax
    855c:	be 00 00 00 00       	mov    $0x0,%esi
    8561:	89 c7                	mov    %eax,%edi
    8563:	e8 10 c6 ff ff       	callq  4b78 <safe_sub_func_uint8_t_u_u>
    8568:	be 0f 00 00 00       	mov    $0xf,%esi
    856d:	bf 00 00 00 00       	mov    $0x0,%edi
    8572:	e8 b3 bf ff ff       	callq  452a <safe_rshift_func_int16_t_s_s>
    8577:	98                   	cwtl   
    8578:	89 05 b2 18 01 00    	mov    %eax,0x118b2(%rip)        # 19e30 <g_89>
    857e:	8b 05 ac 18 01 00    	mov    0x118ac(%rip),%eax        # 19e30 <g_89>
    8584:	85 c0                	test   %eax,%eax
    8586:	0f 84 eb 10 00 00    	je     9677 <func_56+0x221a>
    858c:	48 8d 05 35 cc 00 00 	lea    0xcc35(%rip),%rax        # 151c8 <g_193+0x68>
    8593:	48 89 85 00 ea ff ff 	mov    %rax,-0x1600(%rbp)
    859a:	48 8d 85 00 ea ff ff 	lea    -0x1600(%rbp),%rax
    85a1:	48 89 85 08 ea ff ff 	mov    %rax,-0x15f8(%rbp)
    85a8:	48 8d 85 08 ea ff ff 	lea    -0x15f8(%rbp),%rax
    85af:	48 89 85 00 eb ff ff 	mov    %rax,-0x1500(%rbp)
    85b6:	48 8d 85 00 ea ff ff 	lea    -0x1600(%rbp),%rax
    85bd:	48 89 85 10 ea ff ff 	mov    %rax,-0x15f0(%rbp)
    85c4:	48 8d 85 10 ea ff ff 	lea    -0x15f0(%rbp),%rax
    85cb:	48 89 85 08 eb ff ff 	mov    %rax,-0x14f8(%rbp)
    85d2:	48 8d 05 53 ee 00 00 	lea    0xee53(%rip),%rax        # 1742c <g_518>
    85d9:	48 89 85 18 ea ff ff 	mov    %rax,-0x15e8(%rbp)
    85e0:	48 8d 85 18 ea ff ff 	lea    -0x15e8(%rbp),%rax
    85e7:	48 89 85 20 ea ff ff 	mov    %rax,-0x15e0(%rbp)
    85ee:	48 8d 85 20 ea ff ff 	lea    -0x15e0(%rbp),%rax
    85f5:	48 89 85 10 eb ff ff 	mov    %rax,-0x14f0(%rbp)
    85fc:	48 8d 05 1d 11 01 00 	lea    0x1111d(%rip),%rax        # 19720 <g_294>
    8603:	48 89 85 18 eb ff ff 	mov    %rax,-0x14e8(%rbp)
    860a:	48 8d 05 b5 ca 00 00 	lea    0xcab5(%rip),%rax        # 150c6 <g_133+0x26>
    8611:	48 89 85 28 ea ff ff 	mov    %rax,-0x15d8(%rbp)
    8618:	c6 85 e2 e8 ff ff 9a 	movb   $0x9a,-0x171e(%rbp)
    861f:	48 c7 85 20 eb ff ff 	movq   $0x1,-0x14e0(%rbp)
    8626:	01 00 00 00 
    862a:	48 8b 8d c0 ec ff ff 	mov    -0x1340(%rbp),%rcx
    8631:	48 8b 95 b0 ec ff ff 	mov    -0x1350(%rbp),%rdx
    8638:	48 8b 85 00 eb ff ff 	mov    -0x1500(%rbp),%rax
    863f:	48 89 10             	mov    %rdx,(%rax)
    8642:	48 8b 85 00 eb ff ff 	mov    -0x1500(%rbp),%rax
    8649:	48 8b 10             	mov    (%rax),%rdx
    864c:	48 8b 85 08 eb ff ff 	mov    -0x14f8(%rbp),%rax
    8653:	48 89 10             	mov    %rdx,(%rax)
    8656:	48 8b 85 08 eb ff ff 	mov    -0x14f8(%rbp),%rax
    865d:	48 8b 00             	mov    (%rax),%rax
    8660:	48 39 c1             	cmp    %rax,%rcx
    8663:	0f 94 c0             	sete   %al
    8666:	0f b6 d0             	movzbl %al,%edx
    8669:	48 8b 85 48 ea ff ff 	mov    -0x15b8(%rbp),%rax
    8670:	66 89 10             	mov    %dx,(%rax)
    8673:	48 8b 85 c0 e8 ff ff 	mov    -0x1740(%rbp),%rax
    867a:	8b 18                	mov    (%rax),%ebx
    867c:	48 8b 85 b8 e8 ff ff 	mov    -0x1748(%rbp),%rax
    8683:	0f b6 00             	movzbl (%rax),%eax
    8686:	44 0f be e0          	movsbl %al,%r12d
    868a:	48 8b 05 4f cc 00 00 	mov    0xcc4f(%rip),%rax        # 152e0 <g_245>
    8691:	44 0f b7 e8          	movzwl %ax,%r13d
    8695:	8b 85 3c e9 ff ff    	mov    -0x16c4(%rbp),%eax
    869b:	0f be d0             	movsbl %al,%edx
    869e:	48 8b 85 10 eb ff ff 	mov    -0x14f0(%rbp),%rax
    86a5:	48 8d 8d c0 e8 ff ff 	lea    -0x1740(%rbp),%rcx
    86ac:	48 89 08             	mov    %rcx,(%rax)
    86af:	48 8b 85 10 eb ff ff 	mov    -0x14f0(%rbp),%rax
    86b6:	48 8b 00             	mov    (%rax),%rax
    86b9:	48 8d 8d 50 f3 ff ff 	lea    -0xcb0(%rbp),%rcx
    86c0:	48 81 c1 18 01 00 00 	add    $0x118,%rcx
    86c7:	48 39 c8             	cmp    %rcx,%rax
    86ca:	0f 95 c0             	setne  %al
    86cd:	0f b6 c0             	movzbl %al,%eax
    86d0:	89 d6                	mov    %edx,%esi
    86d2:	89 c7                	mov    %eax,%edi
    86d4:	e8 91 bb ff ff       	callq  426a <safe_div_func_int8_t_s_s>
    86d9:	66 98                	cbtw   
    86db:	66 0d a8 e6          	or     $0xe6a8,%ax
    86df:	0f b7 c0             	movzwl %ax,%eax
    86e2:	44 89 ee             	mov    %r13d,%esi
    86e5:	89 c7                	mov    %eax,%edi
    86e7:	e8 33 c6 ff ff       	callq  4d1f <safe_sub_func_uint16_t_u_u>
    86ec:	be 06 00 00 00       	mov    $0x6,%esi
    86f1:	bf 36 00 00 00       	mov    $0x36,%edi
    86f6:	e8 92 c5 ff ff       	callq  4c8d <safe_rshift_func_uint8_t_u_s>
    86fb:	3c 04                	cmp    $0x4,%al
    86fd:	0f 96 c0             	setbe  %al
    8700:	0f b6 c0             	movzbl %al,%eax
    8703:	44 89 e6             	mov    %r12d,%esi
    8706:	89 c7                	mov    %eax,%edi
    8708:	e8 f8 c4 ff ff       	callq  4c05 <safe_lshift_func_uint8_t_u_s>
    870d:	8b 05 15 c9 00 00    	mov    0xc915(%rip),%eax        # 15028 <g_18>
    8713:	83 c8 01             	or     $0x1,%eax
    8716:	89 de                	mov    %ebx,%esi
    8718:	89 c7                	mov    %eax,%edi
    871a:	e8 ad bf ff ff       	callq  46cc <safe_mod_func_int32_t_s_s>
    871f:	48 8b 85 b8 e8 ff ff 	mov    -0x1748(%rbp),%rax
    8726:	0f b6 00             	movzbl (%rax),%eax
    8729:	0f be d0             	movsbl %al,%edx
    872c:	8b 85 fc e8 ff ff    	mov    -0x1704(%rbp),%eax
    8732:	39 c2                	cmp    %eax,%edx
    8734:	0f 96 c0             	setbe  %al
    8737:	0f b6 d0             	movzbl %al,%edx
    873a:	48 8b 85 18 ea ff ff 	mov    -0x15e8(%rbp),%rax
    8741:	8b 00                	mov    (%rax),%eax
    8743:	39 c2                	cmp    %eax,%edx
    8745:	0f 94 c0             	sete   %al
    8748:	0f b6 d0             	movzbl %al,%edx
    874b:	8b 85 80 ed ff ff    	mov    -0x1280(%rbp),%eax
    8751:	39 c2                	cmp    %eax,%edx
    8753:	0f 9d c0             	setge  %al
    8756:	0f b6 c0             	movzbl %al,%eax
    8759:	89 c6                	mov    %eax,%esi
    875b:	bf f8 ff 00 00       	mov    $0xfff8,%edi
    8760:	e8 ba c5 ff ff       	callq  4d1f <safe_sub_func_uint16_t_u_u>
    8765:	89 c2                	mov    %eax,%edx
    8767:	48 8b 85 18 ea ff ff 	mov    -0x15e8(%rbp),%rax
    876e:	0f b7 d2             	movzwl %dx,%edx
    8771:	89 10                	mov    %edx,(%rax)
    8773:	c6 05 70 cb 00 00 00 	movb   $0x0,0xcb70(%rip)        # 152ea <g_339>
    877a:	e9 d6 0e 00 00       	jmpq   9655 <func_56+0x21f8>
    877f:	c6 85 e3 e8 ff ff cc 	movb   $0xcc,-0x171d(%rbp)
    8786:	c7 85 74 e9 ff ff ba 	movl   $0xd1626ba,-0x168c(%rbp)
    878d:	26 16 0d 
    8790:	48 c7 85 30 ea ff ff 	movq   $0x0,-0x15d0(%rbp)
    8797:	00 00 00 00 
    879b:	48 8d 85 30 ea ff ff 	lea    -0x15d0(%rbp),%rax
    87a2:	48 89 85 38 ea ff ff 	mov    %rax,-0x15c8(%rbp)
    87a9:	48 8d 85 38 ea ff ff 	lea    -0x15c8(%rbp),%rax
    87b0:	48 89 85 28 eb ff ff 	mov    %rax,-0x14d8(%rbp)
    87b7:	48 8d 85 ea e8 ff ff 	lea    -0x1716(%rbp),%rax
    87be:	48 89 85 30 eb ff ff 	mov    %rax,-0x14d0(%rbp)
    87c5:	48 c7 85 38 eb ff ff 	movq   $0x0,-0x14c8(%rbp)
    87cc:	00 00 00 00 
    87d0:	48 c7 85 40 eb ff ff 	movq   $0x0,-0x14c0(%rbp)
    87d7:	00 00 00 00 
    87db:	48 c7 85 48 eb ff ff 	movq   $0x0,-0x14b8(%rbp)
    87e2:	00 00 00 00 
    87e6:	48 8d 05 63 c9 00 00 	lea    0xc963(%rip),%rax        # 15150 <g_181+0x30>
    87ed:	48 89 85 50 eb ff ff 	mov    %rax,-0x14b0(%rbp)
    87f4:	c7 85 48 e9 ff ff 00 	movl   $0x0,-0x16b8(%rbp)
    87fb:	00 00 00 
    87fe:	eb 79                	jmp    8879 <func_56+0x141c>
    8800:	c7 85 4c e9 ff ff 00 	movl   $0x0,-0x16b4(%rbp)
    8807:	00 00 00 
    880a:	eb 5d                	jmp    8869 <func_56+0x140c>
    880c:	c7 85 34 e9 ff ff 00 	movl   $0x0,-0x16cc(%rbp)
    8813:	00 00 00 
    8816:	eb 41                	jmp    8859 <func_56+0x13fc>
    8818:	8b 85 34 e9 ff ff    	mov    -0x16cc(%rbp),%eax
    881e:	48 63 f0             	movslq %eax,%rsi
    8821:	8b 85 4c e9 ff ff    	mov    -0x16b4(%rbp),%eax
    8827:	48 63 c8             	movslq %eax,%rcx
    882a:	8b 85 48 e9 ff ff    	mov    -0x16b8(%rbp),%eax
    8830:	48 63 d0             	movslq %eax,%rdx
    8833:	48 89 d0             	mov    %rdx,%rax
    8836:	48 01 c0             	add    %rax,%rax
    8839:	48 01 d0             	add    %rdx,%rax
    883c:	48 01 f0             	add    %rsi,%rax
    883f:	48 8d 14 08          	lea    (%rax,%rcx,1),%rdx
    8843:	48 8d 85 fc e8 ff ff 	lea    -0x1704(%rbp),%rax
    884a:	48 89 84 d5 20 ef ff 	mov    %rax,-0x10e0(%rbp,%rdx,8)
    8851:	ff 
    8852:	83 85 34 e9 ff ff 01 	addl   $0x1,-0x16cc(%rbp)
    8859:	83 bd 34 e9 ff ff 00 	cmpl   $0x0,-0x16cc(%rbp)
    8860:	7e b6                	jle    8818 <func_56+0x13bb>
    8862:	83 85 4c e9 ff ff 01 	addl   $0x1,-0x16b4(%rbp)
    8869:	83 bd 4c e9 ff ff 02 	cmpl   $0x2,-0x16b4(%rbp)
    8870:	7e 9a                	jle    880c <func_56+0x13af>
    8872:	83 85 48 e9 ff ff 01 	addl   $0x1,-0x16b8(%rbp)
    8879:	83 bd 48 e9 ff ff 01 	cmpl   $0x1,-0x16b8(%rbp)
    8880:	0f 8e 7a ff ff ff    	jle    8800 <func_56+0x13a3>
    8886:	c7 85 48 e9 ff ff 00 	movl   $0x0,-0x16b8(%rbp)
    888d:	00 00 00 
    8890:	eb 1e                	jmp    88b0 <func_56+0x1453>
    8892:	8b 85 48 e9 ff ff    	mov    -0x16b8(%rbp),%eax
    8898:	48 98                	cltq   
    889a:	48 8d 95 28 ea ff ff 	lea    -0x15d8(%rbp),%rdx
    88a1:	48 89 94 c5 f0 ef ff 	mov    %rdx,-0x1010(%rbp,%rax,8)
    88a8:	ff 
    88a9:	83 85 48 e9 ff ff 01 	addl   $0x1,-0x16b8(%rbp)
    88b0:	83 bd 48 e9 ff ff 05 	cmpl   $0x5,-0x16b8(%rbp)
    88b7:	7e d9                	jle    8892 <func_56+0x1435>
    88b9:	48 c7 05 6c c7 00 00 	movq   $0x1,0xc76c(%rip)        # 15030 <g_26>
    88c0:	01 00 00 00 
    88c4:	e9 69 04 00 00       	jmpq   8d32 <func_56+0x18d5>
    88c9:	c6 85 e4 e8 ff ff 00 	movb   $0x0,-0x171c(%rbp)
    88d0:	48 c7 05 45 eb 00 00 	movq   $0x0,0xeb45(%rip)        # 17420 <g_448>
    88d7:	00 00 00 00 
    88db:	e9 3c 02 00 00       	jmpq   8b1c <func_56+0x16bf>
    88e0:	8b 15 a2 c9 00 00    	mov    0xc9a2(%rip),%edx        # 15288 <g_212>
    88e6:	8b 05 9c c9 00 00    	mov    0xc99c(%rip),%eax        # 15288 <g_212>
    88ec:	8d 78 01             	lea    0x1(%rax),%edi
    88ef:	0f b6 05 f4 c9 00 00 	movzbl 0xc9f4(%rip),%eax        # 152ea <g_339>
    88f6:	0f b6 c0             	movzbl %al,%eax
    88f9:	48 8d 8d e0 f4 ff ff 	lea    -0xb20(%rbp),%rcx
    8900:	48 63 f0             	movslq %eax,%rsi
    8903:	89 d0                	mov    %edx,%eax
    8905:	48 89 c2             	mov    %rax,%rdx
    8908:	48 c1 e2 04          	shl    $0x4,%rdx
    890c:	48 29 c2             	sub    %rax,%rdx
    890f:	89 ff                	mov    %edi,%edi
    8911:	48 89 f8             	mov    %rdi,%rax
    8914:	48 01 c0             	add    %rax,%rax
    8917:	48 01 f8             	add    %rdi,%rax
    891a:	48 01 d0             	add    %rdx,%rax
    891d:	48 01 f0             	add    %rsi,%rax
    8920:	48 c1 e0 03          	shl    $0x3,%rax
    8924:	48 01 c8             	add    %rcx,%rax
    8927:	48 89 85 80 eb ff ff 	mov    %rax,-0x1480(%rbp)
    892e:	48 8d 05 1b c8 00 00 	lea    0xc81b(%rip),%rax        # 15150 <g_181+0x30>
    8935:	48 89 85 88 eb ff ff 	mov    %rax,-0x1478(%rbp)
    893c:	48 8b 15 ed c6 00 00 	mov    0xc6ed(%rip),%rdx        # 15030 <g_26>
    8943:	0f b6 05 a0 c9 00 00 	movzbl 0xc9a0(%rip),%eax        # 152ea <g_339>
    894a:	0f b6 c0             	movzbl %al,%eax
    894d:	83 c0 02             	add    $0x2,%eax
    8950:	48 63 c8             	movslq %eax,%rcx
    8953:	48 89 d0             	mov    %rdx,%rax
    8956:	48 c1 e0 02          	shl    $0x2,%rax
    895a:	48 01 d0             	add    %rdx,%rax
    895d:	48 01 c0             	add    %rax,%rax
    8960:	48 8d 14 08          	lea    (%rax,%rcx,1),%rdx
    8964:	48 8d 05 35 c9 00 00 	lea    0xc935(%rip),%rax        # 152a0 <g_240>
    896b:	48 01 d0             	add    %rdx,%rax
    896e:	0f b6 00             	movzbl (%rax),%eax
    8971:	84 c0                	test   %al,%al
    8973:	0f 85 b6 01 00 00    	jne    8b2f <func_56+0x16d2>
    8979:	48 8b 85 b0 e8 ff ff 	mov    -0x1750(%rbp),%rax
    8980:	48 3d d1 cc fd 31    	cmp    $0x31fdccd1,%rax
    8986:	0f 94 c2             	sete   %dl
    8989:	48 8b 85 18 ea ff ff 	mov    -0x15e8(%rbp),%rax
    8990:	0f b6 d2             	movzbl %dl,%edx
    8993:	89 10                	mov    %edx,(%rax)
    8995:	8b 10                	mov    (%rax),%edx
    8997:	8b 05 a3 c6 00 00    	mov    0xc6a3(%rip),%eax        # 15040 <g_42>
    899d:	09 d0                	or     %edx,%eax
    899f:	89 05 9b c6 00 00    	mov    %eax,0xc69b(%rip)        # 15040 <g_42>
    89a5:	48 8b 85 20 ea ff ff 	mov    -0x15e0(%rbp),%rax
    89ac:	48 8b 00             	mov    (%rax),%rax
    89af:	8b 00                	mov    (%rax),%eax
    89b1:	4c 63 e8             	movslq %eax,%r13
    89b4:	44 8b a5 b4 ed ff ff 	mov    -0x124c(%rbp),%r12d
    89bb:	48 8b 85 10 eb ff ff 	mov    -0x14f0(%rbp),%rax
    89c2:	48 8b 00             	mov    (%rax),%rax
    89c5:	48 8b 00             	mov    (%rax),%rax
    89c8:	8b 00                	mov    (%rax),%eax
    89ca:	0f bf d8             	movswl %ax,%ebx
    89cd:	8b 85 cc e8 ff ff    	mov    -0x1734(%rbp),%eax
    89d3:	89 c2                	mov    %eax,%edx
    89d5:	c6 85 e3 e8 ff ff 03 	movb   $0x3,-0x171d(%rbp)
    89dc:	48 8b 85 88 eb ff ff 	mov    -0x1478(%rbp),%rax
    89e3:	c6 00 03             	movb   $0x3,(%rax)
    89e6:	48 c7 05 8f c8 00 00 	movq   $0x0,0xc88f(%rip)        # 15280 <g_210>
    89ed:	00 00 00 00 
    89f1:	8b 85 74 e9 ff ff    	mov    -0x168c(%rbp),%eax
    89f7:	48 98                	cltq   
    89f9:	48 89 d6             	mov    %rdx,%rsi
    89fc:	48 89 c7             	mov    %rax,%rdi
    89ff:	e8 47 c6 ff ff       	callq  504b <safe_sub_func_uint64_t_u_u>
    8a04:	0f be c0             	movsbl %al,%eax
    8a07:	be 01 00 00 00       	mov    $0x1,%esi
    8a0c:	89 c7                	mov    %eax,%edi
    8a0e:	e8 22 b9 ff ff       	callq  4335 <safe_rshift_func_int8_t_s_s>
    8a13:	0f b6 c0             	movzbl %al,%eax
    8a16:	be 00 00 00 00       	mov    $0x0,%esi
    8a1b:	89 c7                	mov    %eax,%edi
    8a1d:	e8 e3 c1 ff ff       	callq  4c05 <safe_lshift_func_uint8_t_u_s>
    8a22:	84 c0                	test   %al,%al
    8a24:	0f 95 c0             	setne  %al
    8a27:	0f b6 d0             	movzbl %al,%edx
    8a2a:	48 8b 85 c0 e8 ff ff 	mov    -0x1740(%rbp),%rax
    8a31:	8b 00                	mov    (%rax),%eax
    8a33:	39 c2                	cmp    %eax,%edx
    8a35:	0f 9f c0             	setg   %al
    8a38:	0f b6 d0             	movzbl %al,%edx
    8a3b:	48 8b 85 48 ea ff ff 	mov    -0x15b8(%rbp),%rax
    8a42:	66 89 10             	mov    %dx,(%rax)
    8a45:	48 8b 85 48 ea ff ff 	mov    -0x15b8(%rbp),%rax
    8a4c:	0f b7 00             	movzwl (%rax),%eax
    8a4f:	98                   	cwtl   
    8a50:	89 de                	mov    %ebx,%esi
    8a52:	89 c7                	mov    %eax,%edi
    8a54:	e8 7a b9 ff ff       	callq  43d3 <safe_sub_func_int16_t_s_s>
    8a59:	0f bf d0             	movswl %ax,%edx
    8a5c:	8b 05 de c5 00 00    	mov    0xc5de(%rip),%eax        # 15040 <g_42>
    8a62:	0f b7 c0             	movzwl %ax,%eax
    8a65:	89 d6                	mov    %edx,%esi
    8a67:	89 c7                	mov    %eax,%edi
    8a69:	e8 98 c3 ff ff       	callq  4e06 <safe_lshift_func_uint16_t_u_u>
    8a6e:	8b 15 14 c8 00 00    	mov    0xc814(%rip),%edx        # 15288 <g_212>
    8a74:	8b 05 0e c8 00 00    	mov    0xc80e(%rip),%eax        # 15288 <g_212>
    8a7a:	8d 70 01             	lea    0x1(%rax),%esi
    8a7d:	0f b6 05 66 c8 00 00 	movzbl 0xc866(%rip),%eax        # 152ea <g_339>
    8a84:	0f b6 c0             	movzbl %al,%eax
    8a87:	48 63 c8             	movslq %eax,%rcx
    8a8a:	89 d0                	mov    %edx,%eax
    8a8c:	89 f6                	mov    %esi,%esi
    8a8e:	48 89 c2             	mov    %rax,%rdx
    8a91:	48 c1 e2 04          	shl    $0x4,%rdx
    8a95:	48 29 c2             	sub    %rax,%rdx
    8a98:	48 89 f0             	mov    %rsi,%rax
    8a9b:	48 01 c0             	add    %rax,%rax
    8a9e:	48 01 f0             	add    %rsi,%rax
    8aa1:	48 01 d0             	add    %rdx,%rax
    8aa4:	48 01 c8             	add    %rcx,%rax
    8aa7:	48 8b 94 c5 e0 f4 ff 	mov    -0xb20(%rbp,%rax,8),%rdx
    8aae:	ff 
    8aaf:	48 8b 85 80 eb ff ff 	mov    -0x1480(%rbp),%rax
    8ab6:	48 89 10             	mov    %rdx,(%rax)
    8ab9:	48 8b 85 80 eb ff ff 	mov    -0x1480(%rbp),%rax
    8ac0:	48 8b 00             	mov    (%rax),%rax
    8ac3:	48 8b 15 66 c5 00 00 	mov    0xc566(%rip),%rdx        # 15030 <g_26>
    8aca:	48 8d 5a 01          	lea    0x1(%rdx),%rbx
    8ace:	44 8b 35 b3 c7 00 00 	mov    0xc7b3(%rip),%r14d        # 15288 <g_212>
    8ad5:	4c 89 e9             	mov    %r13,%rcx
    8ad8:	44 89 e2             	mov    %r12d,%edx
    8adb:	be 01 00 00 00       	mov    $0x1,%esi
    8ae0:	48 89 c7             	mov    %rax,%rdi
    8ae3:	e8 8e 4e 00 00       	callq  d976 <func_65>
    8ae8:	48 89 c2             	mov    %rax,%rdx
    8aeb:	44 89 f1             	mov    %r14d,%ecx
    8aee:	48 89 d8             	mov    %rbx,%rax
    8af1:	48 c1 e0 02          	shl    $0x2,%rax
    8af5:	48 01 d8             	add    %rbx,%rax
    8af8:	48 01 c8             	add    %rcx,%rax
    8afb:	48 89 94 c5 50 f3 ff 	mov    %rdx,-0xcb0(%rbp,%rax,8)
    8b02:	ff 
    8b03:	80 bd e3 e8 ff ff 00 	cmpb   $0x0,-0x171d(%rbp)
    8b0a:	48 8b 05 0f e9 00 00 	mov    0xe90f(%rip),%rax        # 17420 <g_448>
    8b11:	48 83 c0 01          	add    $0x1,%rax
    8b15:	48 89 05 04 e9 00 00 	mov    %rax,0xe904(%rip)        # 17420 <g_448>
    8b1c:	48 8b 05 fd e8 00 00 	mov    0xe8fd(%rip),%rax        # 17420 <g_448>
    8b23:	48 83 f8 05          	cmp    $0x5,%rax
    8b27:	0f 86 b3 fd ff ff    	jbe    88e0 <func_56+0x1483>
    8b2d:	eb 01                	jmp    8b30 <func_56+0x16d3>
    8b2f:	90                   	nop
    8b30:	c7 05 56 c5 00 00 00 	movl   $0x0,0xc556(%rip)        # 15090 <g_131>
    8b37:	00 00 00 
    8b3a:	e9 90 01 00 00       	jmpq   8ccf <func_56+0x1872>
    8b3f:	66 c7 85 f4 e8 ff ff 	movw   $0xffff,-0x170c(%rbp)
    8b46:	ff ff 
    8b48:	48 8d 05 77 c5 00 00 	lea    0xc577(%rip),%rax        # 150c6 <g_133+0x26>
    8b4f:	48 89 85 90 eb ff ff 	mov    %rax,-0x1470(%rbp)
    8b56:	48 8d 05 db 12 01 00 	lea    0x112db(%rip),%rax        # 19e38 <g_137>
    8b5d:	48 89 85 98 eb ff ff 	mov    %rax,-0x1468(%rbp)
    8b64:	c7 85 84 e9 ff ff f9 	movl   $0xfffffff9,-0x167c(%rbp)
    8b6b:	ff ff ff 
    8b6e:	48 0f bf 9d f4 e8 ff 	movswq -0x170c(%rbp),%rbx
    8b75:	ff 
    8b76:	44 0f be a5 e4 e8 ff 	movsbl -0x171c(%rbp),%r12d
    8b7d:	ff 
    8b7e:	48 8b 85 b0 e8 ff ff 	mov    -0x1750(%rbp),%rax
    8b85:	98                   	cwtl   
    8b86:	89 c6                	mov    %eax,%esi
    8b88:	bf fd ff ff ff       	mov    $0xfffffffd,%edi
    8b8d:	e8 63 b8 ff ff       	callq  43f5 <safe_mul_func_int16_t_s_s>
    8b92:	66 85 c0             	test   %ax,%ax
    8b95:	74 13                	je     8baa <func_56+0x174d>
    8b97:	48 8b 85 b0 e8 ff ff 	mov    -0x1750(%rbp),%rax
    8b9e:	48 85 c0             	test   %rax,%rax
    8ba1:	74 07                	je     8baa <func_56+0x174d>
    8ba3:	ba 01 00 00 00       	mov    $0x1,%edx
    8ba8:	eb 05                	jmp    8baf <func_56+0x1752>
    8baa:	ba 00 00 00 00       	mov    $0x0,%edx
    8baf:	48 8b 85 b8 e8 ff ff 	mov    -0x1748(%rbp),%rax
    8bb6:	0f b6 00             	movzbl (%rax),%eax
    8bb9:	0f be c0             	movsbl %al,%eax
    8bbc:	21 d0                	and    %edx,%eax
    8bbe:	4c 63 e8             	movslq %eax,%r13
    8bc1:	48 8b 85 b0 e8 ff ff 	mov    -0x1750(%rbp),%rax
    8bc8:	89 c2                	mov    %eax,%edx
    8bca:	0f b7 85 ea e8 ff ff 	movzwl -0x1716(%rbp),%eax
    8bd1:	0f b7 c0             	movzwl %ax,%eax
    8bd4:	89 d6                	mov    %edx,%esi
    8bd6:	89 c7                	mov    %eax,%edi
    8bd8:	e8 6b c2 ff ff       	callq  4e48 <safe_rshift_func_uint16_t_u_s>
    8bdd:	0f b7 c0             	movzwl %ax,%eax
    8be0:	4c 89 ee             	mov    %r13,%rsi
    8be3:	48 89 c7             	mov    %rax,%rdi
    8be6:	e8 c9 bd ff ff       	callq  49b4 <safe_mod_func_int64_t_s_s>
    8beb:	44 89 e6             	mov    %r12d,%esi
    8bee:	89 c7                	mov    %eax,%edi
    8bf0:	e8 db c2 ff ff       	callq  4ed0 <safe_sub_func_uint32_t_u_u>
    8bf5:	89 c2                	mov    %eax,%edx
    8bf7:	48 8b 85 b0 e8 ff ff 	mov    -0x1750(%rbp),%rax
    8bfe:	48 39 c2             	cmp    %rax,%rdx
    8c01:	0f 96 c0             	setbe  %al
    8c04:	0f b6 d0             	movzbl %al,%edx
    8c07:	48 8b 85 48 ea ff ff 	mov    -0x15b8(%rbp),%rax
    8c0e:	66 89 10             	mov    %dx,(%rax)
    8c11:	48 8b 85 48 ea ff ff 	mov    -0x15b8(%rbp),%rax
    8c18:	0f b7 00             	movzwl (%rax),%eax
    8c1b:	0f bf d0             	movswl %ax,%edx
    8c1e:	8b 05 0c 12 01 00    	mov    0x1120c(%rip),%eax        # 19e30 <g_89>
    8c24:	39 c2                	cmp    %eax,%edx
    8c26:	0f 9c c0             	setl   %al
    8c29:	0f b6 c0             	movzbl %al,%eax
    8c2c:	48 89 de             	mov    %rbx,%rsi
    8c2f:	48 89 c7             	mov    %rax,%rdi
    8c32:	e8 78 c4 ff ff       	callq  50af <safe_div_func_uint64_t_u_u>
    8c37:	89 c2                	mov    %eax,%edx
    8c39:	8b 85 b4 ed ff ff    	mov    -0x124c(%rbp),%eax
    8c3f:	31 c2                	xor    %eax,%edx
    8c41:	48 8b 85 90 eb ff ff 	mov    -0x1470(%rbp),%rax
    8c48:	66 89 10             	mov    %dx,(%rax)
    8c4b:	48 8b 85 b8 e8 ff ff 	mov    -0x1748(%rbp),%rax
    8c52:	48 85 c0             	test   %rax,%rax
    8c55:	0f 94 c0             	sete   %al
    8c58:	0f b6 d0             	movzbl %al,%edx
    8c5b:	48 8b 85 98 eb ff ff 	mov    -0x1468(%rbp),%rax
    8c62:	89 10                	mov    %edx,(%rax)
    8c64:	be 03 00 00 00       	mov    $0x3,%esi
    8c69:	bf 00 00 00 00       	mov    $0x0,%edi
    8c6e:	e8 92 bf ff ff       	callq  4c05 <safe_lshift_func_uint8_t_u_s>
    8c73:	0f b6 c0             	movzbl %al,%eax
    8c76:	48 8b 95 b0 e8 ff ff 	mov    -0x1750(%rbp),%rdx
    8c7d:	09 d0                	or     %edx,%eax
    8c7f:	0f bf d0             	movswl %ax,%edx
    8c82:	48 8d 05 57 0a 01 00 	lea    0x10a57(%rip),%rax        # 196e0 <g_257>
    8c89:	48 39 85 28 eb ff ff 	cmp    %rax,-0x14d8(%rbp)
    8c90:	0f 94 c0             	sete   %al
    8c93:	0f b6 c0             	movzbl %al,%eax
    8c96:	89 d6                	mov    %edx,%esi
    8c98:	89 c7                	mov    %eax,%edi
    8c9a:	e8 14 b7 ff ff       	callq  43b3 <safe_add_func_int16_t_s_s>
    8c9f:	8b 85 90 ed ff ff    	mov    -0x1270(%rbp),%eax
    8ca5:	48 98                	cltq   
    8ca7:	48 89 05 d2 c5 00 00 	mov    %rax,0xc5d2(%rip)        # 15280 <g_210>
    8cae:	48 8b 05 cb c5 00 00 	mov    0xc5cb(%rip),%rax        # 15280 <g_210>
    8cb5:	35 ba b0 31 00       	xor    $0x31b0ba,%eax
    8cba:	89 85 84 e9 ff ff    	mov    %eax,-0x167c(%rbp)
    8cc0:	8b 05 ca c3 00 00    	mov    0xc3ca(%rip),%eax        # 15090 <g_131>
    8cc6:	83 c0 01             	add    $0x1,%eax
    8cc9:	89 05 c1 c3 00 00    	mov    %eax,0xc3c1(%rip)        # 15090 <g_131>
    8ccf:	8b 05 bb c3 00 00    	mov    0xc3bb(%rip),%eax        # 15090 <g_131>
    8cd5:	83 f8 02             	cmp    $0x2,%eax
    8cd8:	0f 86 61 fe ff ff    	jbe    8b3f <func_56+0x16e2>
    8cde:	48 8b 85 c0 e8 ff ff 	mov    -0x1740(%rbp),%rax
    8ce5:	8b 00                	mov    (%rax),%eax
    8ce7:	85 c0                	test   %eax,%eax
    8ce9:	75 34                	jne    8d1f <func_56+0x18c2>
    8ceb:	8b 05 97 c5 00 00    	mov    0xc597(%rip),%eax        # 15288 <g_212>
    8cf1:	8d 48 04             	lea    0x4(%rax),%ecx
    8cf4:	8b 05 8e c5 00 00    	mov    0xc58e(%rip),%eax        # 15288 <g_212>
    8cfa:	83 c0 01             	add    $0x1,%eax
    8cfd:	48 8b 95 c0 e8 ff ff 	mov    -0x1740(%rbp),%rdx
    8d04:	89 c6                	mov    %eax,%esi
    8d06:	89 c9                	mov    %ecx,%ecx
    8d08:	48 89 c8             	mov    %rcx,%rax
    8d0b:	48 c1 e0 02          	shl    $0x2,%rax
    8d0f:	48 01 c8             	add    %rcx,%rax
    8d12:	48 01 f0             	add    %rsi,%rax
    8d15:	48 89 94 c5 50 f3 ff 	mov    %rdx,-0xcb0(%rbp,%rax,8)
    8d1c:	ff 
    8d1d:	eb 01                	jmp    8d20 <func_56+0x18c3>
    8d1f:	90                   	nop
    8d20:	48 8b 05 09 c3 00 00 	mov    0xc309(%rip),%rax        # 15030 <g_26>
    8d27:	48 83 c0 01          	add    $0x1,%rax
    8d2b:	48 89 05 fe c2 00 00 	mov    %rax,0xc2fe(%rip)        # 15030 <g_26>
    8d32:	48 8b 05 f7 c2 00 00 	mov    0xc2f7(%rip),%rax        # 15030 <g_26>
    8d39:	48 83 f8 05          	cmp    $0x5,%rax
    8d3d:	0f 8e 86 fb ff ff    	jle    88c9 <func_56+0x146c>
    8d43:	48 8b 05 c6 09 01 00 	mov    0x109c6(%rip),%rax        # 19710 <g_256>
    8d4a:	48 8b 00             	mov    (%rax),%rax
    8d4d:	48 c7 00 00 00 00 00 	movq   $0x0,(%rax)
    8d54:	48 8b 85 b0 e8 ff ff 	mov    -0x1750(%rbp),%rax
    8d5b:	89 c2                	mov    %eax,%edx
    8d5d:	0f b7 05 cc e6 00 00 	movzwl 0xe6cc(%rip),%eax        # 17430 <g_563>
    8d64:	31 d0                	xor    %edx,%eax
    8d66:	66 89 05 c3 e6 00 00 	mov    %ax,0xe6c3(%rip)        # 17430 <g_563>
    8d6d:	bf 39 00 00 00       	mov    $0x39,%edi
    8d72:	e8 48 b4 ff ff       	callq  41bf <safe_unary_minus_func_int8_t_s>
    8d77:	44 0f be e8          	movsbl %al,%r13d
    8d7b:	48 8b 85 00 eb ff ff 	mov    -0x1500(%rbp),%rax
    8d82:	48 8b 00             	mov    (%rax),%rax
    8d85:	48 39 85 50 ea ff ff 	cmp    %rax,-0x15b0(%rbp)
    8d8c:	75 0a                	jne    8d98 <func_56+0x193b>
    8d8e:	8b 85 cc e8 ff ff    	mov    -0x1734(%rbp),%eax
    8d94:	85 c0                	test   %eax,%eax
    8d96:	74 07                	je     8d9f <func_56+0x1942>
    8d98:	b8 01 00 00 00       	mov    $0x1,%eax
    8d9d:	eb 05                	jmp    8da4 <func_56+0x1947>
    8d9f:	b8 00 00 00 00       	mov    $0x0,%eax
    8da4:	89 c3                	mov    %eax,%ebx
    8da6:	83 e3 01             	and    $0x1,%ebx
    8da9:	48 8b 85 18 ea ff ff 	mov    -0x15e8(%rbp),%rax
    8db0:	8b 00                	mov    (%rax),%eax
    8db2:	44 0f b6 e0          	movzbl %al,%r12d
    8db6:	48 8b 85 b8 e8 ff ff 	mov    -0x1748(%rbp),%rax
    8dbd:	0f b6 00             	movzbl (%rax),%eax
    8dc0:	0f b6 d0             	movzbl %al,%edx
    8dc3:	8b 05 bf c4 00 00    	mov    0xc4bf(%rip),%eax        # 15288 <g_212>
    8dc9:	8d 48 01             	lea    0x1(%rax),%ecx
    8dcc:	8b 05 b6 c4 00 00    	mov    0xc4b6(%rip),%eax        # 15288 <g_212>
    8dd2:	83 c0 02             	add    $0x2,%eax
    8dd5:	89 c6                	mov    %eax,%esi
    8dd7:	89 c9                	mov    %ecx,%ecx
    8dd9:	48 89 c8             	mov    %rcx,%rax
    8ddc:	48 c1 e0 02          	shl    $0x2,%rax
    8de0:	48 01 c8             	add    %rcx,%rax
    8de3:	48 01 c0             	add    %rax,%rax
    8de6:	48 8d 0c 30          	lea    (%rax,%rsi,1),%rcx
    8dea:	48 8d 05 af c4 00 00 	lea    0xc4af(%rip),%rax        # 152a0 <g_240>
    8df1:	48 01 c8             	add    %rcx,%rax
    8df4:	0f b6 00             	movzbl (%rax),%eax
    8df7:	0f b7 8d ea e8 ff ff 	movzwl -0x1716(%rbp),%ecx
    8dfe:	89 ce                	mov    %ecx,%esi
    8e00:	8b 0d 82 c4 00 00    	mov    0xc482(%rip),%ecx        # 15288 <g_212>
    8e06:	44 8d 41 01          	lea    0x1(%rcx),%r8d
    8e0a:	8b 0d 78 c4 00 00    	mov    0xc478(%rip),%ecx        # 15288 <g_212>
    8e10:	44 8d 49 02          	lea    0x2(%rcx),%r9d
    8e14:	21 c6                	and    %eax,%esi
    8e16:	44 89 cf             	mov    %r9d,%edi
    8e19:	44 89 c1             	mov    %r8d,%ecx
    8e1c:	48 89 c8             	mov    %rcx,%rax
    8e1f:	48 c1 e0 02          	shl    $0x2,%rax
    8e23:	48 01 c8             	add    %rcx,%rax
    8e26:	48 01 c0             	add    %rax,%rax
    8e29:	48 8d 0c 38          	lea    (%rax,%rdi,1),%rcx
    8e2d:	48 8d 05 6c c4 00 00 	lea    0xc46c(%rip),%rax        # 152a0 <g_240>
    8e34:	48 01 c8             	add    %rcx,%rax
    8e37:	40 88 30             	mov    %sil,(%rax)
    8e3a:	44 89 ce             	mov    %r9d,%esi
    8e3d:	44 89 c1             	mov    %r8d,%ecx
    8e40:	48 89 c8             	mov    %rcx,%rax
    8e43:	48 c1 e0 02          	shl    $0x2,%rax
    8e47:	48 01 c8             	add    %rcx,%rax
    8e4a:	48 01 c0             	add    %rax,%rax
    8e4d:	48 8d 0c 30          	lea    (%rax,%rsi,1),%rcx
    8e51:	48 8d 05 48 c4 00 00 	lea    0xc448(%rip),%rax        # 152a0 <g_240>
    8e58:	48 01 c8             	add    %rcx,%rax
    8e5b:	0f b6 00             	movzbl (%rax),%eax
    8e5e:	0f b6 c0             	movzbl %al,%eax
    8e61:	89 d6                	mov    %edx,%esi
    8e63:	89 c7                	mov    %eax,%edi
    8e65:	e8 0e bd ff ff       	callq  4b78 <safe_sub_func_uint8_t_u_u>
    8e6a:	0f b6 c0             	movzbl %al,%eax
    8e6d:	44 89 e6             	mov    %r12d,%esi
    8e70:	89 c7                	mov    %eax,%edi
    8e72:	e8 01 bd ff ff       	callq  4b78 <safe_sub_func_uint8_t_u_u>
    8e77:	0f b6 d0             	movzbl %al,%edx
    8e7a:	8b 05 c0 c1 00 00    	mov    0xc1c0(%rip),%eax        # 15040 <g_42>
    8e80:	39 c2                	cmp    %eax,%edx
    8e82:	0f 95 c0             	setne  %al
    8e85:	31 d8                	xor    %ebx,%eax
    8e87:	0f b6 c0             	movzbl %al,%eax
    8e8a:	44 21 e8             	and    %r13d,%eax
    8e8d:	85 c0                	test   %eax,%eax
    8e8f:	75 0c                	jne    8e9d <func_56+0x1a40>
    8e91:	48 8b 85 b0 e8 ff ff 	mov    -0x1750(%rbp),%rax
    8e98:	48 85 c0             	test   %rax,%rax
    8e9b:	74 07                	je     8ea4 <func_56+0x1a47>
    8e9d:	b8 01 00 00 00       	mov    $0x1,%eax
    8ea2:	eb 05                	jmp    8ea9 <func_56+0x1a4c>
    8ea4:	b8 00 00 00 00       	mov    $0x0,%eax
    8ea9:	89 c2                	mov    %eax,%edx
    8eab:	48 8b 85 30 eb ff ff 	mov    -0x14d0(%rbp),%rax
    8eb2:	66 89 10             	mov    %dx,(%rax)
    8eb5:	8b 05 7d 0f 01 00    	mov    0x10f7d(%rip),%eax        # 19e38 <g_137>
    8ebb:	85 c0                	test   %eax,%eax
    8ebd:	0f 94 c0             	sete   %al
    8ec0:	0f b6 c0             	movzbl %al,%eax
    8ec3:	0b 85 58 e9 ff ff    	or     -0x16a8(%rbp),%eax
    8ec9:	85 c0                	test   %eax,%eax
    8ecb:	74 13                	je     8ee0 <func_56+0x1a83>
    8ecd:	48 8b 85 b0 e8 ff ff 	mov    -0x1750(%rbp),%rax
    8ed4:	48 85 c0             	test   %rax,%rax
    8ed7:	74 07                	je     8ee0 <func_56+0x1a83>
    8ed9:	b8 01 00 00 00       	mov    $0x1,%eax
    8ede:	eb 05                	jmp    8ee5 <func_56+0x1a88>
    8ee0:	b8 00 00 00 00       	mov    $0x0,%eax
    8ee5:	89 c2                	mov    %eax,%edx
    8ee7:	48 8b 85 b0 e8 ff ff 	mov    -0x1750(%rbp),%rax
    8eee:	21 d0                	and    %edx,%eax
    8ef0:	89 05 4a c1 00 00    	mov    %eax,0xc14a(%rip)        # 15040 <g_42>
    8ef6:	48 8b 85 10 eb ff ff 	mov    -0x14f0(%rbp),%rax
    8efd:	48 8b 00             	mov    (%rax),%rax
    8f00:	48 8b 00             	mov    (%rax),%rax
    8f03:	44 8b 28             	mov    (%rax),%r13d
    8f06:	48 8b 05 73 c3 00 00 	mov    0xc373(%rip),%rax        # 15280 <g_210>
    8f0d:	0f b7 d8             	movzwl %ax,%ebx
    8f10:	48 8b 85 b8 e8 ff ff 	mov    -0x1748(%rbp),%rax
    8f17:	0f b6 00             	movzbl (%rax),%eax
    8f1a:	44 0f be e0          	movsbl %al,%r12d
    8f1e:	48 8b 15 eb e4 00 00 	mov    0xe4eb(%rip),%rdx        # 17410 <g_419+0x10>
    8f25:	48 8b 85 b0 e8 ff ff 	mov    -0x1750(%rbp),%rax
    8f2c:	48 39 c2             	cmp    %rax,%rdx
    8f2f:	83 bd 58 e9 ff ff 00 	cmpl   $0x0,-0x16a8(%rbp)
    8f36:	75 2c                	jne    8f64 <func_56+0x1b07>
    8f38:	8b 85 58 e9 ff ff    	mov    -0x16a8(%rbp),%eax
    8f3e:	48 63 d0             	movslq %eax,%rdx
    8f41:	48 8b 85 b0 e8 ff ff 	mov    -0x1750(%rbp),%rax
    8f48:	48 39 c2             	cmp    %rax,%rdx
    8f4b:	0f 95 c0             	setne  %al
    8f4e:	0f b6 c0             	movzbl %al,%eax
    8f51:	48 89 05 d8 c0 00 00 	mov    %rax,0xc0d8(%rip)        # 15030 <g_26>
    8f58:	48 8b 05 d1 c0 00 00 	mov    0xc0d1(%rip),%rax        # 15030 <g_26>
    8f5f:	48 85 c0             	test   %rax,%rax
    8f62:	74 07                	je     8f6b <func_56+0x1b0e>
    8f64:	ba 01 00 00 00       	mov    $0x1,%edx
    8f69:	eb 05                	jmp    8f70 <func_56+0x1b13>
    8f6b:	ba 00 00 00 00       	mov    $0x0,%edx
    8f70:	48 8b 85 c0 e8 ff ff 	mov    -0x1740(%rbp),%rax
    8f77:	8b 00                	mov    (%rax),%eax
    8f79:	39 c2                	cmp    %eax,%edx
    8f7b:	0f 95 c0             	setne  %al
    8f7e:	0f b6 c0             	movzbl %al,%eax
    8f81:	48 89 c6             	mov    %rax,%rsi
    8f84:	bf 00 00 00 00       	mov    $0x0,%edi
    8f89:	e8 bd c0 ff ff       	callq  504b <safe_sub_func_uint64_t_u_u>
    8f8e:	48 89 05 f3 c0 00 00 	mov    %rax,0xc0f3(%rip)        # 15088 <g_110>
    8f95:	48 8b 15 ec c0 00 00 	mov    0xc0ec(%rip),%rdx        # 15088 <g_110>
    8f9c:	0f b7 05 75 c1 00 00 	movzwl 0xc175(%rip),%eax        # 15118 <g_136>
    8fa3:	48 0f bf c0          	movswq %ax,%rax
    8fa7:	48 39 c2             	cmp    %rax,%rdx
    8faa:	73 0a                	jae    8fb6 <func_56+0x1b59>
    8fac:	0f b7 05 0f c1 00 00 	movzwl 0xc10f(%rip),%eax        # 150c2 <g_133+0x22>
    8fb3:	66 85 c0             	test   %ax,%ax
    8fb6:	48 8b 85 28 ea ff ff 	mov    -0x15d8(%rbp),%rax
    8fbd:	48 89 05 94 0e 01 00 	mov    %rax,0x10e94(%rip)        # 19e58 <g_580>
    8fc4:	48 8b 85 b8 e8 ff ff 	mov    -0x1748(%rbp),%rax
    8fcb:	0f b6 00             	movzbl (%rax),%eax
    8fce:	0f be c0             	movsbl %al,%eax
    8fd1:	44 89 e6             	mov    %r12d,%esi
    8fd4:	89 c7                	mov    %eax,%edi
    8fd6:	e8 37 b2 ff ff       	callq  4212 <safe_mul_func_int8_t_s_s>
    8fdb:	0f be c0             	movsbl %al,%eax
    8fde:	89 c6                	mov    %eax,%esi
    8fe0:	bf 87 58 d0 16       	mov    $0x16d05887,%edi
    8fe5:	e8 e6 be ff ff       	callq  4ed0 <safe_sub_func_uint32_t_u_u>
    8fea:	66 0f be 85 e2 e8 ff 	movsbw -0x171e(%rbp),%ax
    8ff1:	ff 
    8ff2:	0f b7 c0             	movzwl %ax,%eax
    8ff5:	89 de                	mov    %ebx,%esi
    8ff7:	89 c7                	mov    %eax,%edi
    8ff9:	e8 3f bd ff ff       	callq  4d3d <safe_mul_func_uint16_t_u_u>
    8ffe:	0f b7 c0             	movzwl %ax,%eax
    9001:	41 39 c5             	cmp    %eax,%r13d
    9004:	0f 95 c0             	setne  %al
    9007:	0f b6 d0             	movzbl %al,%edx
    900a:	8b 85 b4 ed ff ff    	mov    -0x124c(%rbp),%eax
    9010:	09 d0                	or     %edx,%eax
    9012:	89 85 b4 ed ff ff    	mov    %eax,-0x124c(%rbp)
    9018:	c7 05 0a e4 00 00 00 	movl   $0x0,0xe40a(%rip)        # 1742c <g_518>
    901f:	00 00 00 
    9022:	e9 0d 06 00 00       	jmpq   9634 <func_56+0x21d7>
    9027:	66 c7 85 f2 e8 ff ff 	movw   $0x5,-0x170e(%rbp)
    902e:	05 00 
    9030:	c7 85 78 e9 ff ff dd 	movl   $0x494daddd,-0x1688(%rbp)
    9037:	ad 4d 49 
    903a:	c7 85 7c e9 ff ff 33 	movl   $0x1c356833,-0x1684(%rbp)
    9041:	68 35 1c 
    9044:	48 c7 85 58 eb ff ff 	movq   $0x0,-0x14a8(%rbp)
    904b:	00 00 00 00 
    904f:	48 8d 05 0a e5 00 00 	lea    0xe50a(%rip),%rax        # 17560 <g_665>
    9056:	48 89 85 70 f0 ff ff 	mov    %rax,-0xf90(%rbp)
    905d:	48 c7 85 78 f0 ff ff 	movq   $0x0,-0xf88(%rbp)
    9064:	00 00 00 00 
    9068:	48 c7 85 80 f0 ff ff 	movq   $0x0,-0xf80(%rbp)
    906f:	00 00 00 00 
    9073:	48 8d 05 e6 e4 00 00 	lea    0xe4e6(%rip),%rax        # 17560 <g_665>
    907a:	48 89 85 88 f0 ff ff 	mov    %rax,-0xf78(%rbp)
    9081:	48 c7 85 90 f0 ff ff 	movq   $0x0,-0xf70(%rbp)
    9088:	00 00 00 00 
    908c:	48 c7 85 98 f0 ff ff 	movq   $0x0,-0xf68(%rbp)
    9093:	00 00 00 00 
    9097:	48 8d 85 70 f0 ff ff 	lea    -0xf90(%rbp),%rax
    909e:	48 83 c0 08          	add    $0x8,%rax
    90a2:	48 89 85 60 eb ff ff 	mov    %rax,-0x14a0(%rbp)
    90a9:	83 bd 40 e9 ff ff 00 	cmpl   $0x0,-0x16c0(%rbp)
    90b0:	0f 85 8e 05 00 00    	jne    9644 <func_56+0x21e7>
    90b6:	0f b6 85 41 ed ff ff 	movzbl -0x12bf(%rbp),%eax
    90bd:	0f b6 c0             	movzbl %al,%eax
    90c0:	48 89 85 20 eb ff ff 	mov    %rax,-0x14e0(%rbp)
    90c7:	48 83 bd 20 eb ff ff 	cmpq   $0x0,-0x14e0(%rbp)
    90ce:	00 
    90cf:	0f 84 af 03 00 00    	je     9484 <func_56+0x2027>
    90d5:	48 8d 85 20 fa ff ff 	lea    -0x5e0(%rbp),%rax
    90dc:	48 8d 15 dd 84 00 00 	lea    0x84dd(%rip),%rdx        # 115c0 <g_1342+0x540>
    90e3:	b9 78 00 00 00       	mov    $0x78,%ecx
    90e8:	48 89 c7             	mov    %rax,%rdi
    90eb:	48 89 d6             	mov    %rdx,%rsi
    90ee:	f3 48 a5             	rep movsq %ds:(%rsi),%es:(%rdi)
    90f1:	48 c7 85 30 f2 ff ff 	movq   $0xffffffffffffffff,-0xdd0(%rbp)
    90f8:	ff ff ff ff 
    90fc:	48 c7 85 38 f2 ff ff 	movq   $0x1,-0xdc8(%rbp)
    9103:	01 00 00 00 
    9107:	48 c7 85 40 f2 ff ff 	movq   $0xffffffffffffffff,-0xdc0(%rbp)
    910e:	ff ff ff ff 
    9112:	48 b8 e2 59 1c 07 b8 	movabs $0xfc4450b8071c59e2,%rax
    9119:	50 44 fc 
    911c:	48 89 85 48 f2 ff ff 	mov    %rax,-0xdb8(%rbp)
    9123:	48 c7 85 50 f2 ff ff 	movq   $0xffffffffffffffff,-0xdb0(%rbp)
    912a:	ff ff ff ff 
    912e:	48 c7 85 58 f2 ff ff 	movq   $0xfffffffffffffff8,-0xda8(%rbp)
    9135:	f8 ff ff ff 
    9139:	48 89 85 60 f2 ff ff 	mov    %rax,-0xda0(%rbp)
    9140:	48 89 85 68 f2 ff ff 	mov    %rax,-0xd98(%rbp)
    9147:	48 c7 85 70 f2 ff ff 	movq   $0xffffffffffffffff,-0xd90(%rbp)
    914e:	ff ff ff ff 
    9152:	48 c7 85 78 f2 ff ff 	movq   $0xffffffffffffffff,-0xd88(%rbp)
    9159:	ff ff ff ff 
    915d:	48 c7 85 80 f2 ff ff 	movq   $0xffffffffffffffff,-0xd80(%rbp)
    9164:	ff ff ff ff 
    9168:	48 c7 85 88 f2 ff ff 	movq   $0xffffffffffffffff,-0xd78(%rbp)
    916f:	ff ff ff ff 
    9173:	48 c7 85 90 f2 ff ff 	movq   $0xffffffffffffffff,-0xd70(%rbp)
    917a:	ff ff ff ff 
    917e:	48 c7 85 98 f2 ff ff 	movq   $0x1,-0xd68(%rbp)
    9185:	01 00 00 00 
    9189:	48 c7 85 a0 f2 ff ff 	movq   $0xfffffffffffffff8,-0xd60(%rbp)
    9190:	f8 ff ff ff 
    9194:	48 c7 85 a8 f2 ff ff 	movq   $0xffffffffffffffff,-0xd58(%rbp)
    919b:	ff ff ff ff 
    919f:	48 c7 85 b0 f2 ff ff 	movq   $0x1,-0xd50(%rbp)
    91a6:	01 00 00 00 
    91aa:	48 c7 85 b8 f2 ff ff 	movq   $0xffffffffffffffff,-0xd48(%rbp)
    91b1:	ff ff ff ff 
    91b5:	48 89 85 c0 f2 ff ff 	mov    %rax,-0xd40(%rbp)
    91bc:	48 c7 85 c8 f2 ff ff 	movq   $0xffffffffffffffff,-0xd38(%rbp)
    91c3:	ff ff ff ff 
    91c7:	48 c7 85 d0 f2 ff ff 	movq   $0xfffffffffffffff8,-0xd30(%rbp)
    91ce:	f8 ff ff ff 
    91d2:	48 89 85 d8 f2 ff ff 	mov    %rax,-0xd28(%rbp)
    91d9:	48 89 85 e0 f2 ff ff 	mov    %rax,-0xd20(%rbp)
    91e0:	48 c7 85 e8 f2 ff ff 	movq   $0xffffffffffffffff,-0xd18(%rbp)
    91e7:	ff ff ff ff 
    91eb:	48 c7 85 f0 f2 ff ff 	movq   $0xffffffffffffffff,-0xd10(%rbp)
    91f2:	ff ff ff ff 
    91f6:	48 c7 85 f8 f2 ff ff 	movq   $0xffffffffffffffff,-0xd08(%rbp)
    91fd:	ff ff ff ff 
    9201:	48 c7 85 00 f3 ff ff 	movq   $0xffffffffffffffff,-0xd00(%rbp)
    9208:	ff ff ff ff 
    920c:	48 c7 85 70 eb ff ff 	movq   $0x0,-0x1490(%rbp)
    9213:	00 00 00 00 
    9217:	48 8d 05 1e be 00 00 	lea    0xbe1e(%rip),%rax        # 1503c <g_33>
    921e:	48 89 85 78 eb ff ff 	mov    %rax,-0x1488(%rbp)
    9225:	8b 9d b4 ed ff ff    	mov    -0x124c(%rbp),%ebx
    922b:	44 8b 25 ae e1 00 00 	mov    0xe1ae(%rip),%r12d        # 173e0 <g_418>
    9232:	44 8b ad cc e8 ff ff 	mov    -0x1734(%rbp),%r13d
    9239:	8b 85 3c fd ff ff    	mov    -0x2c4(%rbp),%eax
    923f:	89 85 a8 e8 ff ff    	mov    %eax,-0x1758(%rbp)
    9245:	44 8b b5 cc e8 ff ff 	mov    -0x1734(%rbp),%r14d
    924c:	8b 85 7c e9 ff ff    	mov    -0x1684(%rbp),%eax
    9252:	4c 63 f8             	movslq %eax,%r15
    9255:	8b 85 3c fd ff ff    	mov    -0x2c4(%rbp),%eax
    925b:	98                   	cwtl   
    925c:	89 85 a0 e8 ff ff    	mov    %eax,-0x1760(%rbp)
    9262:	8b 85 cc e8 ff ff    	mov    -0x1734(%rbp),%eax
    9268:	3d e8 00 00 00       	cmp    $0xe8,%eax
    926d:	0f 96 c0             	setbe  %al
    9270:	0f b6 c0             	movzbl %al,%eax
    9273:	48 c7 85 30 f2 ff ff 	movq   $0x0,-0xdd0(%rbp)
    927a:	00 00 00 00 
    927e:	89 c6                	mov    %eax,%esi
    9280:	bf 00 00 00 00       	mov    $0x0,%edi
    9285:	e8 7b b3 ff ff       	callq  4605 <safe_sub_func_int32_t_s_s>
    928a:	0f b6 c0             	movzbl %al,%eax
    928d:	be e7 00 00 00       	mov    $0xe7,%esi
    9292:	89 c7                	mov    %eax,%edi
    9294:	e8 fa b8 ff ff       	callq  4b93 <safe_mul_func_uint8_t_u_u>
    9299:	84 c0                	test   %al,%al
    929b:	b8 01 00 00 00       	mov    $0x1,%eax
    92a0:	0f be c0             	movsbl %al,%eax
    92a3:	be 10 00 00 00       	mov    $0x10,%esi
    92a8:	89 c7                	mov    %eax,%edi
    92aa:	e8 43 af ff ff       	callq  41f2 <safe_sub_func_int8_t_s_s>
    92af:	3c 01                	cmp    $0x1,%al
    92b1:	0f 96 c0             	setbe  %al
    92b4:	0f b6 c0             	movzbl %al,%eax
    92b7:	8b b5 a0 e8 ff ff    	mov    -0x1760(%rbp),%esi
    92bd:	89 c7                	mov    %eax,%edi
    92bf:	e8 91 b1 ff ff       	callq  4455 <safe_div_func_int16_t_s_s>
    92c4:	48 0f bf c0          	movswq %ax,%rax
    92c8:	4c 89 fe             	mov    %r15,%rsi
    92cb:	48 89 c7             	mov    %rax,%rdi
    92ce:	e8 5b bd ff ff       	callq  502e <safe_add_func_uint64_t_u_u>
    92d3:	8b 05 b7 bd 00 00    	mov    0xbdb7(%rip),%eax        # 15090 <g_131>
    92d9:	85 c0                	test   %eax,%eax
    92db:	74 11                	je     92ee <func_56+0x1e91>
    92dd:	8b 05 fd e0 00 00    	mov    0xe0fd(%rip),%eax        # 173e0 <g_418>
    92e3:	85 c0                	test   %eax,%eax
    92e5:	74 07                	je     92ee <func_56+0x1e91>
    92e7:	ba 01 00 00 00       	mov    $0x1,%edx
    92ec:	eb 05                	jmp    92f3 <func_56+0x1e96>
    92ee:	ba 00 00 00 00       	mov    $0x0,%edx
    92f3:	48 8b 85 c0 e8 ff ff 	mov    -0x1740(%rbp),%rax
    92fa:	8b 00                	mov    (%rax),%eax
    92fc:	39 c2                	cmp    %eax,%edx
    92fe:	0f 9f c0             	setg   %al
    9301:	0f b6 c0             	movzbl %al,%eax
    9304:	8b 95 cc e8 ff ff    	mov    -0x1734(%rbp),%edx
    930a:	31 d0                	xor    %edx,%eax
    930c:	98                   	cwtl   
    930d:	44 89 f6             	mov    %r14d,%esi
    9310:	89 c7                	mov    %eax,%edi
    9312:	e8 4c b2 ff ff       	callq  4563 <safe_rshift_func_int16_t_s_u>
    9317:	98                   	cwtl   
    9318:	39 85 a8 e8 ff ff    	cmp    %eax,-0x1758(%rbp)
    931e:	0f 9d c0             	setge  %al
    9321:	0f b6 c0             	movzbl %al,%eax
    9324:	44 89 ee             	mov    %r13d,%esi
    9327:	89 c7                	mov    %eax,%edi
    9329:	e8 4c bb ff ff       	callq  4e7a <safe_rshift_func_uint16_t_u_u>
    932e:	48 8b 85 b8 e8 ff ff 	mov    -0x1748(%rbp),%rax
    9335:	0f b6 00             	movzbl (%rax),%eax
    9338:	0f b6 d0             	movzbl %al,%edx
    933b:	8b 85 cc e8 ff ff    	mov    -0x1734(%rbp),%eax
    9341:	0f b6 c0             	movzbl %al,%eax
    9344:	89 d6                	mov    %edx,%esi
    9346:	89 c7                	mov    %eax,%edi
    9348:	e8 2b b8 ff ff       	callq  4b78 <safe_sub_func_uint8_t_u_u>
    934d:	44 0f b6 e8          	movzbl %al,%r13d
    9351:	0f b7 85 ea e8 ff ff 	movzwl -0x1716(%rbp),%eax
    9358:	0f b7 c0             	movzwl %ax,%eax
    935b:	89 85 78 e9 ff ff    	mov    %eax,-0x1688(%rbp)
    9361:	48 8b 85 30 eb ff ff 	mov    -0x14d0(%rbp),%rax
    9368:	0f b7 00             	movzwl (%rax),%eax
    936b:	8d 48 01             	lea    0x1(%rax),%ecx
    936e:	48 8b 95 30 eb ff ff 	mov    -0x14d0(%rbp),%rdx
    9375:	66 89 0a             	mov    %cx,(%rdx)
    9378:	0f b7 15 2d bd 00 00 	movzwl 0xbd2d(%rip),%edx        # 150ac <g_133+0xc>
    937f:	31 d0                	xor    %edx,%eax
    9381:	66 89 05 24 bd 00 00 	mov    %ax,0xbd24(%rip)        # 150ac <g_133+0xc>
    9388:	0f b7 05 1d bd 00 00 	movzwl 0xbd1d(%rip),%eax        # 150ac <g_133+0xc>
    938f:	44 0f b7 f0          	movzwl %ax,%r14d
    9393:	66 83 85 f2 e8 ff ff 	addw   $0x1,-0x170e(%rbp)
    939a:	01 
    939b:	0f b7 85 f2 e8 ff ff 	movzwl -0x170e(%rbp),%eax
    93a2:	0f be d0             	movsbl %al,%edx
    93a5:	8b 85 58 e9 ff ff    	mov    -0x16a8(%rbp),%eax
    93ab:	0f be c0             	movsbl %al,%eax
    93ae:	89 d6                	mov    %edx,%esi
    93b0:	89 c7                	mov    %eax,%edi
    93b2:	e8 b3 ae ff ff       	callq  426a <safe_div_func_int8_t_s_s>
    93b7:	0f be c0             	movsbl %al,%eax
    93ba:	89 c7                	mov    %eax,%edi
    93bc:	e8 d5 b1 ff ff       	callq  4596 <safe_unary_minus_func_int32_t_s>
    93c1:	0f b7 c0             	movzwl %ax,%eax
    93c4:	44 89 f6             	mov    %r14d,%esi
    93c7:	89 c7                	mov    %eax,%edi
    93c9:	e8 6f b9 ff ff       	callq  4d3d <safe_mul_func_uint16_t_u_u>
    93ce:	0f b7 c0             	movzwl %ax,%eax
    93d1:	44 89 ee             	mov    %r13d,%esi
    93d4:	89 c7                	mov    %eax,%edi
    93d6:	e8 f1 b2 ff ff       	callq  46cc <safe_mod_func_int32_t_s_s>
    93db:	66 89 05 36 bd 00 00 	mov    %ax,0xbd36(%rip)        # 15118 <g_136>
    93e2:	0f b7 05 2f bd 00 00 	movzwl 0xbd2f(%rip),%eax        # 15118 <g_136>
    93e9:	48 0f bf d0          	movswq %ax,%rdx
    93ed:	8b 85 a4 ed ff ff    	mov    -0x125c(%rbp),%eax
    93f3:	48 63 c8             	movslq %eax,%rcx
    93f6:	48 8b 85 b0 e8 ff ff 	mov    -0x1750(%rbp),%rax
    93fd:	48 39 c1             	cmp    %rax,%rcx
    9400:	0f 95 c0             	setne  %al
    9403:	0f b6 c0             	movzbl %al,%eax
    9406:	48 39 c2             	cmp    %rax,%rdx
    9409:	0f 9d c0             	setge  %al
    940c:	0f b6 d0             	movzbl %al,%edx
    940f:	8b 85 cc e8 ff ff    	mov    -0x1734(%rbp),%eax
    9415:	39 c2                	cmp    %eax,%edx
    9417:	0f 95 c0             	setne  %al
    941a:	0f b6 c0             	movzbl %al,%eax
    941d:	44 89 e6             	mov    %r12d,%esi
    9420:	89 c7                	mov    %eax,%edi
    9422:	e8 03 b1 ff ff       	callq  452a <safe_rshift_func_int16_t_s_s>
    9427:	66 83 f8 01          	cmp    $0x1,%ax
    942b:	0f 96 c0             	setbe  %al
    942e:	0f b6 c0             	movzbl %al,%eax
    9431:	89 de                	mov    %ebx,%esi
    9433:	89 c7                	mov    %eax,%edi
    9435:	e8 cb b7 ff ff       	callq  4c05 <safe_lshift_func_uint8_t_u_s>
    943a:	ba 00 00 00 00       	mov    $0x0,%edx
    943f:	48 8b 85 78 eb ff ff 	mov    -0x1488(%rbp),%rax
    9446:	8b 00                	mov    (%rax),%eax
    9448:	21 c2                	and    %eax,%edx
    944a:	48 8b 85 78 eb ff ff 	mov    -0x1488(%rbp),%rax
    9451:	89 10                	mov    %edx,(%rax)
    9453:	48 8b 85 78 eb ff ff 	mov    -0x1488(%rbp),%rax
    945a:	8b 00                	mov    (%rax),%eax
    945c:	89 c7                	mov    %eax,%edi
    945e:	e8 43 ba ff ff       	callq  4ea6 <safe_unary_minus_func_uint32_t_u>
    9463:	8b 15 1f be 00 00    	mov    0xbe1f(%rip),%edx        # 15288 <g_212>
    9469:	39 d0                	cmp    %edx,%eax
    946b:	0f 97 c0             	seta   %al
    946e:	0f b6 d0             	movzbl %al,%edx
    9471:	8b 05 c9 bb 00 00    	mov    0xbbc9(%rip),%eax        # 15040 <g_42>
    9477:	21 d0                	and    %edx,%eax
    9479:	89 05 c1 bb 00 00    	mov    %eax,0xbbc1(%rip)        # 15040 <g_42>
    947f:	e9 7f 01 00 00       	jmpq   9603 <func_56+0x21a6>
    9484:	48 8d 05 9d 02 01 00 	lea    0x1029d(%rip),%rax        # 19728 <g_415>
    948b:	48 89 85 68 eb ff ff 	mov    %rax,-0x1498(%rbp)
    9492:	c7 85 80 e9 ff ff 08 	movl   $0x8,-0x1680(%rbp)
    9499:	00 00 00 
    949c:	48 8b 95 00 ea ff ff 	mov    -0x1600(%rbp),%rdx
    94a3:	48 8d 85 cc e8 ff ff 	lea    -0x1734(%rbp),%rax
    94aa:	48 39 c2             	cmp    %rax,%rdx
    94ad:	0f 94 c0             	sete   %al
    94b0:	44 0f b6 f0          	movzbl %al,%r14d
    94b4:	48 8b 85 18 ea ff ff 	mov    -0x15e8(%rbp),%rax
    94bb:	8b 00                	mov    (%rax),%eax
    94bd:	48 63 d8             	movslq %eax,%rbx
    94c0:	48 8b 85 b8 e8 ff ff 	mov    -0x1748(%rbp),%rax
    94c7:	0f b6 00             	movzbl (%rax),%eax
    94ca:	44 0f be e0          	movsbl %al,%r12d
    94ce:	be 00 00 00 00       	mov    $0x0,%esi
    94d3:	bf 00 00 00 00       	mov    $0x0,%edi
    94d8:	e8 e1 b7 ff ff       	callq  4cbe <safe_rshift_func_uint8_t_u_u>
    94dd:	44 0f b6 e8          	movzbl %al,%r13d
    94e1:	be 00 00 00 00       	mov    $0x0,%esi
    94e6:	bf 6a 00 00 00       	mov    $0x6a,%edi
    94eb:	e8 fe ad ff ff       	callq  42ee <safe_lshift_func_int8_t_s_u>
    94f0:	66 98                	cbtw   
    94f2:	0f b7 c0             	movzwl %ax,%eax
    94f5:	44 89 ee             	mov    %r13d,%esi
    94f8:	89 c7                	mov    %eax,%edi
    94fa:	e8 5d b8 ff ff       	callq  4d5c <safe_mod_func_uint16_t_u_u>
    94ff:	0f be c0             	movsbl %al,%eax
    9502:	44 89 e6             	mov    %r12d,%esi
    9505:	89 c7                	mov    %eax,%edi
    9507:	e8 c8 ac ff ff       	callq  41d4 <safe_add_func_int8_t_s_s>
    950c:	48 0f be c0          	movsbq %al,%rax
    9510:	48 89 de             	mov    %rbx,%rsi
    9513:	48 89 c7             	mov    %rax,%rdi
    9516:	e8 8d b3 ff ff       	callq  48a8 <safe_sub_func_int64_t_s_s>
    951b:	48 83 f8 04          	cmp    $0x4,%rax
    951f:	0f 95 c0             	setne  %al
    9522:	0f b6 c0             	movzbl %al,%eax
    9525:	be 01 00 00 00       	mov    $0x1,%esi
    952a:	89 c7                	mov    %eax,%edi
    952c:	e8 5c b7 ff ff       	callq  4c8d <safe_rshift_func_uint8_t_u_s>
    9531:	0f b6 c0             	movzbl %al,%eax
    9534:	44 89 f2             	mov    %r14d,%edx
    9537:	21 c2                	and    %eax,%edx
    9539:	0f b7 85 ea e8 ff ff 	movzwl -0x1716(%rbp),%eax
    9540:	0f b7 c0             	movzwl %ax,%eax
    9543:	39 c2                	cmp    %eax,%edx
    9545:	0f 94 c0             	sete   %al
    9548:	0f b6 d0             	movzbl %al,%edx
    954b:	0f b6 05 98 bd 00 00 	movzbl 0xbd98(%rip),%eax        # 152ea <g_339>
    9552:	0f b6 c0             	movzbl %al,%eax
    9555:	48 89 d6             	mov    %rdx,%rsi
    9558:	48 89 c7             	mov    %rax,%rdi
    955b:	e8 48 b3 ff ff       	callq  48a8 <safe_sub_func_int64_t_s_s>
    9560:	89 85 b4 ed ff ff    	mov    %eax,-0x124c(%rbp)
    9566:	0f b6 05 cb ba 00 00 	movzbl 0xbacb(%rip),%eax        # 15038 <g_27>
    956d:	3c 01                	cmp    $0x1,%al
    956f:	0f 9e c0             	setle  %al
    9572:	0f b6 c0             	movzbl %al,%eax
    9575:	be 01 00 00 00       	mov    $0x1,%esi
    957a:	89 c7                	mov    %eax,%edi
    957c:	e8 e2 af ff ff       	callq  4563 <safe_rshift_func_int16_t_s_u>
    9581:	48 8b 85 18 eb ff ff 	mov    -0x14e8(%rbp),%rax
    9588:	48 8d 95 b8 e8 ff ff 	lea    -0x1748(%rbp),%rdx
    958f:	48 89 10             	mov    %rdx,(%rax)
    9592:	be 00 00 00 00       	mov    $0x0,%esi
    9597:	bf 00 00 00 00       	mov    $0x0,%edi
    959c:	e8 15 b0 ff ff       	callq  45b6 <safe_add_func_int32_t_s_s>
    95a1:	0f be d0             	movsbl %al,%edx
    95a4:	48 8b 0d 7d 01 01 00 	mov    0x1017d(%rip),%rcx        # 19728 <g_415>
    95ab:	48 8b 85 68 eb ff ff 	mov    -0x1498(%rbp),%rax
    95b2:	48 89 08             	mov    %rcx,(%rax)
    95b5:	48 8b 85 68 eb ff ff 	mov    -0x1498(%rbp),%rax
    95bc:	48 8b 08             	mov    (%rax),%rcx
    95bf:	48 8b 05 7a 01 01 00 	mov    0x1017a(%rip),%rax        # 19740 <g_650>
    95c6:	48 39 c1             	cmp    %rax,%rcx
    95c9:	0f 95 c0             	setne  %al
    95cc:	0f b6 c0             	movzbl %al,%eax
    95cf:	89 d6                	mov    %edx,%esi
    95d1:	89 c7                	mov    %eax,%edi
    95d3:	e8 59 ac ff ff       	callq  4231 <safe_mod_func_int8_t_s_s>
    95d8:	0f be d0             	movsbl %al,%edx
    95db:	8b 85 cc e8 ff ff    	mov    -0x1734(%rbp),%eax
    95e1:	39 c2                	cmp    %eax,%edx
    95e3:	0f 92 c0             	setb   %al
    95e6:	0f b6 d0             	movzbl %al,%edx
    95e9:	8b 05 41 08 01 00    	mov    0x10841(%rip),%eax        # 19e30 <g_89>
    95ef:	31 d0                	xor    %edx,%eax
    95f1:	89 05 39 08 01 00    	mov    %eax,0x10839(%rip)        # 19e30 <g_89>
    95f7:	48 8b 85 50 eb ff ff 	mov    -0x14b0(%rbp),%rax
    95fe:	e9 0f 2e 00 00       	jmpq   c412 <func_56+0x4fb5>
    9603:	48 8d 15 36 df 00 00 	lea    0xdf36(%rip),%rdx        # 17540 <g_661>
    960a:	48 8b 85 60 eb ff ff 	mov    -0x14a0(%rbp),%rax
    9611:	48 89 10             	mov    %rdx,(%rax)
    9614:	8b 05 26 ba 00 00    	mov    0xba26(%rip),%eax        # 15040 <g_42>
    961a:	35 8e 67 ff af       	xor    $0xafff678e,%eax
    961f:	89 05 1b ba 00 00    	mov    %eax,0xba1b(%rip)        # 15040 <g_42>
    9625:	8b 05 01 de 00 00    	mov    0xde01(%rip),%eax        # 1742c <g_518>
    962b:	83 e8 01             	sub    $0x1,%eax
    962e:	89 05 f8 dd 00 00    	mov    %eax,0xddf8(%rip)        # 1742c <g_518>
    9634:	8b 05 f2 dd 00 00    	mov    0xddf2(%rip),%eax        # 1742c <g_518>
    963a:	85 c0                	test   %eax,%eax
    963c:	0f 89 e5 f9 ff ff    	jns    9027 <func_56+0x1bca>
    9642:	eb 01                	jmp    9645 <func_56+0x21e8>
    9644:	90                   	nop
    9645:	0f b6 05 9e bc 00 00 	movzbl 0xbc9e(%rip),%eax        # 152ea <g_339>
    964c:	83 c0 01             	add    $0x1,%eax
    964f:	88 05 95 bc 00 00    	mov    %al,0xbc95(%rip)        # 152ea <g_339>
    9655:	0f b6 05 8e bc 00 00 	movzbl 0xbc8e(%rip),%eax        # 152ea <g_339>
    965c:	3c 02                	cmp    $0x2,%al
    965e:	0f 86 1b f1 ff ff    	jbe    877f <func_56+0x1322>
    9664:	8b 05 d6 b9 00 00    	mov    0xb9d6(%rip),%eax        # 15040 <g_42>
    966a:	85 c0                	test   %eax,%eax
    966c:	0f 84 e0 14 00 00    	je     ab52 <func_56+0x36f5>
    9672:	e9 a7 ea ff ff       	jmpq   811e <func_56+0xcc1>
    9677:	48 8d 05 42 df 00 00 	lea    0xdf42(%rip),%rax        # 175c0 <g_673>
    967e:	48 89 85 b0 ea ff ff 	mov    %rax,-0x1550(%rbp)
    9685:	c7 85 64 e9 ff ff f6 	movl   $0x67c71f6,-0x169c(%rbp)
    968c:	71 7c 06 
    968f:	c7 85 68 e9 ff ff 00 	movl   $0x0,-0x1698(%rbp)
    9696:	00 00 00 
    9699:	48 8d 05 60 e0 00 00 	lea    0xe060(%rip),%rax        # 17700 <g_767>
    96a0:	48 89 85 38 ea ff ff 	mov    %rax,-0x15c8(%rbp)
    96a7:	48 c7 85 b8 ea ff ff 	movq   $0x0,-0x1548(%rbp)
    96ae:	00 00 00 00 
    96b2:	c7 85 04 e9 ff ff 00 	movl   $0x0,-0x16fc(%rbp)
    96b9:	00 00 00 
    96bc:	eb 1e                	jmp    96dc <func_56+0x227f>
    96be:	8b 85 04 e9 ff ff    	mov    -0x16fc(%rbp),%eax
    96c4:	48 98                	cltq   
    96c6:	48 8d 95 38 ea ff ff 	lea    -0x15c8(%rbp),%rdx
    96cd:	48 89 94 c5 30 f2 ff 	mov    %rdx,-0xdd0(%rbp,%rax,8)
    96d4:	ff 
    96d5:	83 85 04 e9 ff ff 01 	addl   $0x1,-0x16fc(%rbp)
    96dc:	83 bd 04 e9 ff ff 00 	cmpl   $0x0,-0x16fc(%rbp)
    96e3:	7e d9                	jle    96be <func_56+0x2261>
    96e5:	c7 05 a1 b9 00 00 00 	movl   $0x0,0xb9a1(%rip)        # 15090 <g_131>
    96ec:	00 00 00 
    96ef:	e9 1b 14 00 00       	jmpq   ab0f <func_56+0x36b2>
    96f4:	c7 85 08 e9 ff ff fe 	movl   $0x49c4f8fe,-0x16f8(%rbp)
    96fb:	f8 c4 49 
    96fe:	c7 85 0c e9 ff ff 09 	movl   $0x9,-0x16f4(%rbp)
    9705:	00 00 00 
    9708:	48 8d 05 51 df 00 00 	lea    0xdf51(%rip),%rax        # 17660 <g_711+0x40>
    970f:	48 89 85 c0 ea ff ff 	mov    %rax,-0x1540(%rbp)
    9716:	48 c7 05 5f bb 00 00 	movq   $0x0,0xbb5f(%rip)        # 15280 <g_210>
    971d:	00 00 00 00 
    9721:	e9 c9 00 00 00       	jmpq   97ef <func_56+0x2392>
    9726:	48 c7 85 f0 ea ff ff 	movq   $0x0,-0x1510(%rbp)
    972d:	00 00 00 00 
    9731:	48 8d 85 20 fa ff ff 	lea    -0x5e0(%rbp),%rax
    9738:	48 89 85 f8 ea ff ff 	mov    %rax,-0x1508(%rbp)
    973f:	c7 85 10 e9 ff ff 00 	movl   $0x0,-0x16f0(%rbp)
    9746:	00 00 00 
    9749:	eb 1e                	jmp    9769 <func_56+0x230c>
    974b:	8b 85 10 e9 ff ff    	mov    -0x16f0(%rbp),%eax
    9751:	48 98                	cltq   
    9753:	48 8d 15 86 de 00 00 	lea    0xde86(%rip),%rdx        # 175e0 <g_677>
    975a:	48 89 94 c5 20 fa ff 	mov    %rdx,-0x5e0(%rbp,%rax,8)
    9761:	ff 
    9762:	83 85 10 e9 ff ff 01 	addl   $0x1,-0x16f0(%rbp)
    9769:	83 bd 10 e9 ff ff 02 	cmpl   $0x2,-0x16f0(%rbp)
    9770:	7e d9                	jle    974b <func_56+0x22ee>
    9772:	83 85 08 e9 ff ff 01 	addl   $0x1,-0x16f8(%rbp)
    9779:	48 8b 85 f8 ea ff ff 	mov    -0x1508(%rbp),%rax
    9780:	48 8b 95 b0 ea ff ff 	mov    -0x1550(%rbp),%rdx
    9787:	48 89 10             	mov    %rdx,(%rax)
    978a:	c7 85 3c e9 ff ff 02 	movl   $0x2,-0x16c4(%rbp)
    9791:	00 00 00 
    9794:	eb 3b                	jmp    97d1 <func_56+0x2374>
    9796:	48 8b 15 e3 ba 00 00 	mov    0xbae3(%rip),%rdx        # 15280 <g_210>
    979d:	8b 05 e5 ba 00 00    	mov    0xbae5(%rip),%eax        # 15288 <g_212>
    97a3:	83 c0 07             	add    $0x7,%eax
    97a6:	89 c1                	mov    %eax,%ecx
    97a8:	48 89 d0             	mov    %rdx,%rax
    97ab:	48 c1 e0 02          	shl    $0x2,%rax
    97af:	48 01 d0             	add    %rdx,%rax
    97b2:	48 01 c0             	add    %rax,%rax
    97b5:	48 8d 14 08          	lea    (%rax,%rcx,1),%rdx
    97b9:	48 8d 05 e0 ba 00 00 	lea    0xbae0(%rip),%rax        # 152a0 <g_240>
    97c0:	48 01 d0             	add    %rdx,%rax
    97c3:	0f b6 00             	movzbl (%rax),%eax
    97c6:	84 c0                	test   %al,%al
    97c8:	75 12                	jne    97dc <func_56+0x237f>
    97ca:	83 ad 3c e9 ff ff 01 	subl   $0x1,-0x16c4(%rbp)
    97d1:	83 bd 3c e9 ff ff 00 	cmpl   $0x0,-0x16c4(%rbp)
    97d8:	79 bc                	jns    9796 <func_56+0x2339>
    97da:	eb 01                	jmp    97dd <func_56+0x2380>
    97dc:	90                   	nop
    97dd:	48 8b 05 9c ba 00 00 	mov    0xba9c(%rip),%rax        # 15280 <g_210>
    97e4:	48 83 c0 01          	add    $0x1,%rax
    97e8:	48 89 05 91 ba 00 00 	mov    %rax,0xba91(%rip)        # 15280 <g_210>
    97ef:	48 8b 05 8a ba 00 00 	mov    0xba8a(%rip),%rax        # 15280 <g_210>
    97f6:	48 83 f8 05          	cmp    $0x5,%rax
    97fa:	0f 8e 26 ff ff ff    	jle    9726 <func_56+0x22c9>
    9800:	8b 05 82 ba 00 00    	mov    0xba82(%rip),%eax        # 15288 <g_212>
    9806:	8d 50 03             	lea    0x3(%rax),%edx
    9809:	8b 05 79 ba 00 00    	mov    0xba79(%rip),%eax        # 15288 <g_212>
    980f:	83 c0 01             	add    $0x1,%eax
    9812:	89 c1                	mov    %eax,%ecx
    9814:	89 d2                	mov    %edx,%edx
    9816:	48 89 d0             	mov    %rdx,%rax
    9819:	48 c1 e0 02          	shl    $0x2,%rax
    981d:	48 01 d0             	add    %rdx,%rax
    9820:	48 01 c0             	add    %rax,%rax
    9823:	48 8d 14 08          	lea    (%rax,%rcx,1),%rdx
    9827:	48 8d 05 72 ba 00 00 	lea    0xba72(%rip),%rax        # 152a0 <g_240>
    982e:	48 01 d0             	add    %rdx,%rax
    9831:	0f b6 00             	movzbl (%rax),%eax
    9834:	84 c0                	test   %al,%al
    9836:	0f 85 e4 12 00 00    	jne    ab20 <func_56+0x36c3>
    983c:	48 c7 05 99 ba 00 00 	movq   $0x0,0xba99(%rip)        # 152e0 <g_245>
    9843:	00 00 00 00 
    9847:	e9 8a 02 00 00       	jmpq   9ad6 <func_56+0x2679>
    984c:	c6 85 e0 e8 ff ff 8d 	movb   $0x8d,-0x1720(%rbp)
    9853:	c7 85 6c e9 ff ff ff 	movl   $0xffffffff,-0x1694(%rbp)
    985a:	ff ff ff 
    985d:	c7 85 70 e9 ff ff 04 	movl   $0x4,-0x1690(%rbp)
    9864:	00 00 00 
    9867:	0f b6 85 e0 e8 ff ff 	movzbl -0x1720(%rbp),%eax
    986e:	83 c0 01             	add    $0x1,%eax
    9871:	88 85 e0 e8 ff ff    	mov    %al,-0x1720(%rbp)
    9877:	bf b9 de 00 00       	mov    $0xdeb9,%edi
    987c:	e8 68 b4 ff ff       	callq  4ce9 <safe_unary_minus_func_uint16_t_u>
    9881:	0f be d0             	movsbl %al,%edx
    9884:	8b 05 06 b8 00 00    	mov    0xb806(%rip),%eax        # 15090 <g_131>
    988a:	8d 48 01             	lea    0x1(%rax),%ecx
    988d:	8b 05 f5 b9 00 00    	mov    0xb9f5(%rip),%eax        # 15288 <g_212>
    9893:	83 c0 01             	add    $0x1,%eax
    9896:	89 c6                	mov    %eax,%esi
    9898:	89 c9                	mov    %ecx,%ecx
    989a:	48 89 c8             	mov    %rcx,%rax
    989d:	48 01 c0             	add    %rax,%rax
    98a0:	48 01 c8             	add    %rcx,%rax
    98a3:	48 01 c0             	add    %rax,%rax
    98a6:	48 8d 5d d0          	lea    -0x30(%rbp),%rbx
    98aa:	48 01 d8             	add    %rbx,%rax
    98ad:	48 01 f0             	add    %rsi,%rax
    98b0:	48 2d 90 12 00 00    	sub    $0x1290,%rax
    98b6:	0f b6 00             	movzbl (%rax),%eax
    98b9:	84 c0                	test   %al,%al
    98bb:	0f 95 c0             	setne  %al
    98be:	0f b6 c8             	movzbl %al,%ecx
    98c1:	8b 05 c1 b9 00 00    	mov    0xb9c1(%rip),%eax        # 15288 <g_212>
    98c7:	8d 78 02             	lea    0x2(%rax),%edi
    98ca:	8b 05 c0 b7 00 00    	mov    0xb7c0(%rip),%eax        # 15090 <g_131>
    98d0:	89 c6                	mov    %eax,%esi
    98d2:	89 f8                	mov    %edi,%eax
    98d4:	48 c1 e0 03          	shl    $0x3,%rax
    98d8:	48 01 f0             	add    %rsi,%rax
    98db:	48 8d 34 85 00 00 00 	lea    0x0(,%rax,4),%rsi
    98e2:	00 
    98e3:	48 8d 05 76 b8 00 00 	lea    0xb876(%rip),%rax        # 15160 <g_193>
    98ea:	8b 04 06             	mov    (%rsi,%rax,1),%eax
    98ed:	39 c1                	cmp    %eax,%ecx
    98ef:	0f 94 c0             	sete   %al
    98f2:	0f b6 c0             	movzbl %al,%eax
    98f5:	89 d6                	mov    %edx,%esi
    98f7:	89 c7                	mov    %eax,%edi
    98f9:	e8 6c a9 ff ff       	callq  426a <safe_div_func_int8_t_s_s>
    98fe:	84 c0                	test   %al,%al
    9900:	0f 84 b8 00 00 00    	je     99be <func_56+0x2561>
    9906:	48 8d 85 50 f3 ff ff 	lea    -0xcb0(%rbp),%rax
    990d:	48 05 18 01 00 00    	add    $0x118,%rax
    9913:	48 89 85 c8 ea ff ff 	mov    %rax,-0x1538(%rbp)
    991a:	48 8d 05 1f fe 00 00 	lea    0xfe1f(%rip),%rax        # 19740 <g_650>
    9921:	48 89 85 d0 ea ff ff 	mov    %rax,-0x1530(%rbp)
    9928:	48 8b 85 c8 ea ff ff 	mov    -0x1538(%rbp),%rax
    992f:	48 c7 00 00 00 00 00 	movq   $0x0,(%rax)
    9936:	48 8b 85 d0 ea ff ff 	mov    -0x1530(%rbp),%rax
    993d:	48 c7 00 00 00 00 00 	movq   $0x0,(%rax)
    9944:	8b 05 3e b9 00 00    	mov    0xb93e(%rip),%eax        # 15288 <g_212>
    994a:	83 c0 01             	add    $0x1,%eax
    994d:	48 8b 15 8c b9 00 00 	mov    0xb98c(%rip),%rdx        # 152e0 <g_245>
    9954:	89 c1                	mov    %eax,%ecx
    9956:	48 89 c8             	mov    %rcx,%rax
    9959:	48 c1 e0 02          	shl    $0x2,%rax
    995d:	48 01 c8             	add    %rcx,%rax
    9960:	48 01 c0             	add    %rax,%rax
    9963:	48 01 d0             	add    %rdx,%rax
    9966:	48 8d 14 00          	lea    (%rax,%rax,1),%rdx
    996a:	48 8d 05 2f b7 00 00 	lea    0xb72f(%rip),%rax        # 150a0 <g_133>
    9971:	0f b7 04 02          	movzwl (%rdx,%rax,1),%eax
    9975:	66 85 c0             	test   %ax,%ax
    9978:	0f 85 6b 01 00 00    	jne    9ae9 <func_56+0x268c>
    997e:	8b 05 04 b9 00 00    	mov    0xb904(%rip),%eax        # 15288 <g_212>
    9984:	8d 50 03             	lea    0x3(%rax),%edx
    9987:	8b 05 fb b8 00 00    	mov    0xb8fb(%rip),%eax        # 15288 <g_212>
    998d:	83 c0 06             	add    $0x6,%eax
    9990:	89 c1                	mov    %eax,%ecx
    9992:	89 d2                	mov    %edx,%edx
    9994:	48 89 d0             	mov    %rdx,%rax
    9997:	48 c1 e0 02          	shl    $0x2,%rax
    999b:	48 01 d0             	add    %rdx,%rax
    999e:	48 01 c0             	add    %rax,%rax
    99a1:	48 01 c8             	add    %rcx,%rax
    99a4:	48 8d 14 00          	lea    (%rax,%rax,1),%rdx
    99a8:	48 8d 05 f1 b6 00 00 	lea    0xb6f1(%rip),%rax        # 150a0 <g_133>
    99af:	0f b7 04 02          	movzwl (%rdx,%rax,1),%eax
    99b3:	0f b7 c0             	movzwl %ax,%eax
    99b6:	31 85 0c e9 ff ff    	xor    %eax,-0x16f4(%rbp)
    99bc:	eb 43                	jmp    9a01 <func_56+0x25a4>
    99be:	48 8b 85 c0 e8 ff ff 	mov    -0x1740(%rbp),%rax
    99c5:	8b 00                	mov    (%rax),%eax
    99c7:	89 85 0c e9 ff ff    	mov    %eax,-0x16f4(%rbp)
    99cd:	8b 05 b5 b8 00 00    	mov    0xb8b5(%rip),%eax        # 15288 <g_212>
    99d3:	8d 48 02             	lea    0x2(%rax),%ecx
    99d6:	8b 05 b4 b6 00 00    	mov    0xb6b4(%rip),%eax        # 15090 <g_131>
    99dc:	89 c2                	mov    %eax,%edx
    99de:	89 c8                	mov    %ecx,%eax
    99e0:	48 c1 e0 03          	shl    $0x3,%rax
    99e4:	48 01 d0             	add    %rdx,%rax
    99e7:	48 8d 14 85 00 00 00 	lea    0x0(,%rax,4),%rdx
    99ee:	00 
    99ef:	48 8d 05 6a b7 00 00 	lea    0xb76a(%rip),%rax        # 15160 <g_193>
    99f6:	8b 04 02             	mov    (%rdx,%rax,1),%eax
    99f9:	85 c0                	test   %eax,%eax
    99fb:	0f 85 eb 00 00 00    	jne    9aec <func_56+0x268f>
    9a01:	c7 85 40 e9 ff ff 00 	movl   $0x0,-0x16c0(%rbp)
    9a08:	00 00 00 
    9a0b:	e9 a7 00 00 00       	jmpq   9ab7 <func_56+0x265a>
    9a10:	c6 85 e1 e8 ff ff fa 	movb   $0xfa,-0x171f(%rbp)
    9a17:	8b 85 cc e8 ff ff    	mov    -0x1734(%rbp),%eax
    9a1d:	85 c0                	test   %eax,%eax
    9a1f:	0f 95 c0             	setne  %al
    9a22:	0f b6 d8             	movzbl %al,%ebx
    9a25:	48 8b 05 04 b6 00 00 	mov    0xb604(%rip),%rax        # 15030 <g_26>
    9a2c:	89 c6                	mov    %eax,%esi
    9a2e:	bf 00 00 00 00       	mov    $0x0,%edi
    9a33:	e8 10 b4 ff ff       	callq  4e48 <safe_rshift_func_uint16_t_u_s>
    9a38:	89 de                	mov    %ebx,%esi
    9a3a:	bf 00 00 00 00       	mov    $0x0,%edi
    9a3f:	e8 7a b2 ff ff       	callq  4cbe <safe_rshift_func_uint8_t_u_u>
    9a44:	0f be d0             	movsbl %al,%edx
    9a47:	48 8b 85 18 ed ff ff 	mov    -0x12e8(%rbp),%rax
    9a4e:	48 39 85 78 ea ff ff 	cmp    %rax,-0x1588(%rbp)
    9a55:	0f 95 c0             	setne  %al
    9a58:	32 85 e1 e8 ff ff    	xor    -0x171f(%rbp),%al
    9a5e:	0f be c0             	movsbl %al,%eax
    9a61:	89 d6                	mov    %edx,%esi
    9a63:	89 c7                	mov    %eax,%edi
    9a65:	e8 00 a8 ff ff       	callq  426a <safe_div_func_int8_t_s_s>
    9a6a:	8b 15 18 b8 00 00    	mov    0xb818(%rip),%edx        # 15288 <g_212>
    9a70:	0f be c8             	movsbl %al,%ecx
    9a73:	89 d6                	mov    %edx,%esi
    9a75:	8b 95 40 e9 ff ff    	mov    -0x16c0(%rbp),%edx
    9a7b:	48 89 d0             	mov    %rdx,%rax
    9a7e:	48 c1 e0 03          	shl    $0x3,%rax
    9a82:	48 29 d0             	sub    %rdx,%rax
    9a85:	48 01 f0             	add    %rsi,%rax
    9a88:	89 8c 85 80 ed ff ff 	mov    %ecx,-0x1280(%rbp,%rax,4)
    9a8f:	48 8b 85 c0 e8 ff ff 	mov    -0x1740(%rbp),%rax
    9a96:	8b 00                	mov    (%rax),%eax
    9a98:	85 c0                	test   %eax,%eax
    9a9a:	75 13                	jne    9aaf <func_56+0x2652>
    9a9c:	0f b7 85 e8 e8 ff ff 	movzwl -0x1718(%rbp),%eax
    9aa3:	83 e8 01             	sub    $0x1,%eax
    9aa6:	66 89 85 e8 e8 ff ff 	mov    %ax,-0x1718(%rbp)
    9aad:	eb 01                	jmp    9ab0 <func_56+0x2653>
    9aaf:	90                   	nop
    9ab0:	83 85 40 e9 ff ff 01 	addl   $0x1,-0x16c0(%rbp)
    9ab7:	83 bd 40 e9 ff ff 01 	cmpl   $0x1,-0x16c0(%rbp)
    9abe:	0f 86 4c ff ff ff    	jbe    9a10 <func_56+0x25b3>
    9ac4:	48 8b 05 15 b8 00 00 	mov    0xb815(%rip),%rax        # 152e0 <g_245>
    9acb:	48 83 c0 01          	add    $0x1,%rax
    9acf:	48 89 05 0a b8 00 00 	mov    %rax,0xb80a(%rip)        # 152e0 <g_245>
    9ad6:	48 8b 05 03 b8 00 00 	mov    0xb803(%rip),%rax        # 152e0 <g_245>
    9add:	48 83 f8 07          	cmp    $0x7,%rax
    9ae1:	0f 86 65 fd ff ff    	jbe    984c <func_56+0x23ef>
    9ae7:	eb 04                	jmp    9aed <func_56+0x2690>
    9ae9:	90                   	nop
    9aea:	eb 01                	jmp    9aed <func_56+0x2690>
    9aec:	90                   	nop
    9aed:	8b 05 0d db 00 00    	mov    0xdb0d(%rip),%eax        # 17600 <g_707>
    9af3:	83 c0 01             	add    $0x1,%eax
    9af6:	89 05 04 db 00 00    	mov    %eax,0xdb04(%rip)        # 17600 <g_707>
    9afc:	c6 05 7d b5 00 00 00 	movb   $0x0,0xb57d(%rip)        # 15080 <g_103>
    9b03:	90                   	nop
    9b04:	0f b6 05 75 b5 00 00 	movzbl 0xb575(%rip),%eax        # 15080 <g_103>
    9b0b:	3c 05                	cmp    $0x5,%al
    9b0d:	0f 87 ed 0f 00 00    	ja     ab00 <func_56+0x36a3>
    9b13:	c7 85 14 e9 ff ff 01 	movl   $0x1,-0x16ec(%rbp)
    9b1a:	00 00 00 
    9b1d:	c7 85 18 e9 ff ff 7a 	movl   $0xf531477a,-0x16e8(%rbp)
    9b24:	47 31 f5 
    9b27:	c7 85 1c e9 ff ff 01 	movl   $0x1,-0x16e4(%rbp)
    9b2e:	00 00 00 
    9b31:	48 8d 05 8e b5 00 00 	lea    0xb58e(%rip),%rax        # 150c6 <g_133+0x26>
    9b38:	48 89 85 d8 ea ff ff 	mov    %rax,-0x1528(%rbp)
    9b3f:	48 8d 85 e8 e9 ff ff 	lea    -0x1618(%rbp),%rax
    9b46:	48 89 85 e0 ea ff ff 	mov    %rax,-0x1520(%rbp)
    9b4d:	48 c7 05 30 b5 00 00 	movq   $0x1,0xb530(%rip)        # 15088 <g_110>
    9b54:	01 00 00 00 
    9b58:	e9 0a 0e 00 00       	jmpq   a967 <func_56+0x350a>
    9b5d:	8b 05 2d b5 00 00    	mov    0xb52d(%rip),%eax        # 15090 <g_131>
    9b63:	8d 48 01             	lea    0x1(%rax),%ecx
    9b66:	8b 05 1c b7 00 00    	mov    0xb71c(%rip),%eax        # 15288 <g_212>
    9b6c:	83 c0 02             	add    $0x2,%eax
    9b6f:	48 8d 95 50 f3 ff ff 	lea    -0xcb0(%rbp),%rdx
    9b76:	89 c6                	mov    %eax,%esi
    9b78:	89 c9                	mov    %ecx,%ecx
    9b7a:	48 89 c8             	mov    %rcx,%rax
    9b7d:	48 c1 e0 02          	shl    $0x2,%rax
    9b81:	48 01 c8             	add    %rcx,%rax
    9b84:	48 01 f0             	add    %rsi,%rax
    9b87:	48 c1 e0 03          	shl    $0x3,%rax
    9b8b:	48 01 d0             	add    %rdx,%rax
    9b8e:	48 89 85 20 fa ff ff 	mov    %rax,-0x5e0(%rbp)
    9b95:	8b 05 f5 b4 00 00    	mov    0xb4f5(%rip),%eax        # 15090 <g_131>
    9b9b:	8d 48 01             	lea    0x1(%rax),%ecx
    9b9e:	8b 05 e4 b6 00 00    	mov    0xb6e4(%rip),%eax        # 15288 <g_212>
    9ba4:	83 c0 02             	add    $0x2,%eax
    9ba7:	48 8d 95 50 f3 ff ff 	lea    -0xcb0(%rbp),%rdx
    9bae:	89 c6                	mov    %eax,%esi
    9bb0:	89 c9                	mov    %ecx,%ecx
    9bb2:	48 89 c8             	mov    %rcx,%rax
    9bb5:	48 c1 e0 02          	shl    $0x2,%rax
    9bb9:	48 01 c8             	add    %rcx,%rax
    9bbc:	48 01 f0             	add    %rsi,%rax
    9bbf:	48 c1 e0 03          	shl    $0x3,%rax
    9bc3:	48 01 d0             	add    %rdx,%rax
    9bc6:	48 89 85 28 fa ff ff 	mov    %rax,-0x5d8(%rbp)
    9bcd:	8b 05 bd b4 00 00    	mov    0xb4bd(%rip),%eax        # 15090 <g_131>
    9bd3:	8d 48 01             	lea    0x1(%rax),%ecx
    9bd6:	8b 05 ac b6 00 00    	mov    0xb6ac(%rip),%eax        # 15288 <g_212>
    9bdc:	83 c0 02             	add    $0x2,%eax
    9bdf:	48 8d 95 50 f3 ff ff 	lea    -0xcb0(%rbp),%rdx
    9be6:	89 c6                	mov    %eax,%esi
    9be8:	89 c9                	mov    %ecx,%ecx
    9bea:	48 89 c8             	mov    %rcx,%rax
    9bed:	48 c1 e0 02          	shl    $0x2,%rax
    9bf1:	48 01 c8             	add    %rcx,%rax
    9bf4:	48 01 f0             	add    %rsi,%rax
    9bf7:	48 c1 e0 03          	shl    $0x3,%rax
    9bfb:	48 01 d0             	add    %rdx,%rax
    9bfe:	48 89 85 30 fa ff ff 	mov    %rax,-0x5d0(%rbp)
    9c05:	8b 05 85 b4 00 00    	mov    0xb485(%rip),%eax        # 15090 <g_131>
    9c0b:	8d 48 01             	lea    0x1(%rax),%ecx
    9c0e:	8b 05 74 b6 00 00    	mov    0xb674(%rip),%eax        # 15288 <g_212>
    9c14:	83 c0 02             	add    $0x2,%eax
    9c17:	48 8d 95 50 f3 ff ff 	lea    -0xcb0(%rbp),%rdx
    9c1e:	89 c6                	mov    %eax,%esi
    9c20:	89 c9                	mov    %ecx,%ecx
    9c22:	48 89 c8             	mov    %rcx,%rax
    9c25:	48 c1 e0 02          	shl    $0x2,%rax
    9c29:	48 01 c8             	add    %rcx,%rax
    9c2c:	48 01 f0             	add    %rsi,%rax
    9c2f:	48 c1 e0 03          	shl    $0x3,%rax
    9c33:	48 01 d0             	add    %rdx,%rax
    9c36:	48 89 85 38 fa ff ff 	mov    %rax,-0x5c8(%rbp)
    9c3d:	8b 05 4d b4 00 00    	mov    0xb44d(%rip),%eax        # 15090 <g_131>
    9c43:	8d 48 01             	lea    0x1(%rax),%ecx
    9c46:	8b 05 3c b6 00 00    	mov    0xb63c(%rip),%eax        # 15288 <g_212>
    9c4c:	83 c0 02             	add    $0x2,%eax
    9c4f:	48 8d 95 50 f3 ff ff 	lea    -0xcb0(%rbp),%rdx
    9c56:	89 c6                	mov    %eax,%esi
    9c58:	89 c9                	mov    %ecx,%ecx
    9c5a:	48 89 c8             	mov    %rcx,%rax
    9c5d:	48 c1 e0 02          	shl    $0x2,%rax
    9c61:	48 01 c8             	add    %rcx,%rax
    9c64:	48 01 f0             	add    %rsi,%rax
    9c67:	48 c1 e0 03          	shl    $0x3,%rax
    9c6b:	48 01 d0             	add    %rdx,%rax
    9c6e:	48 89 85 40 fa ff ff 	mov    %rax,-0x5c0(%rbp)
    9c75:	8b 05 15 b4 00 00    	mov    0xb415(%rip),%eax        # 15090 <g_131>
    9c7b:	8d 48 01             	lea    0x1(%rax),%ecx
    9c7e:	8b 05 04 b6 00 00    	mov    0xb604(%rip),%eax        # 15288 <g_212>
    9c84:	83 c0 02             	add    $0x2,%eax
    9c87:	48 8d 95 50 f3 ff ff 	lea    -0xcb0(%rbp),%rdx
    9c8e:	89 c6                	mov    %eax,%esi
    9c90:	89 c9                	mov    %ecx,%ecx
    9c92:	48 89 c8             	mov    %rcx,%rax
    9c95:	48 c1 e0 02          	shl    $0x2,%rax
    9c99:	48 01 c8             	add    %rcx,%rax
    9c9c:	48 01 f0             	add    %rsi,%rax
    9c9f:	48 c1 e0 03          	shl    $0x3,%rax
    9ca3:	48 01 d0             	add    %rdx,%rax
    9ca6:	48 89 85 48 fa ff ff 	mov    %rax,-0x5b8(%rbp)
    9cad:	8b 05 dd b3 00 00    	mov    0xb3dd(%rip),%eax        # 15090 <g_131>
    9cb3:	8d 48 01             	lea    0x1(%rax),%ecx
    9cb6:	8b 05 cc b5 00 00    	mov    0xb5cc(%rip),%eax        # 15288 <g_212>
    9cbc:	83 c0 02             	add    $0x2,%eax
    9cbf:	48 8d 95 50 f3 ff ff 	lea    -0xcb0(%rbp),%rdx
    9cc6:	89 c6                	mov    %eax,%esi
    9cc8:	89 c9                	mov    %ecx,%ecx
    9cca:	48 89 c8             	mov    %rcx,%rax
    9ccd:	48 c1 e0 02          	shl    $0x2,%rax
    9cd1:	48 01 c8             	add    %rcx,%rax
    9cd4:	48 01 f0             	add    %rsi,%rax
    9cd7:	48 c1 e0 03          	shl    $0x3,%rax
    9cdb:	48 01 d0             	add    %rdx,%rax
    9cde:	48 89 85 50 fa ff ff 	mov    %rax,-0x5b0(%rbp)
    9ce5:	48 8d 85 50 f3 ff ff 	lea    -0xcb0(%rbp),%rax
    9cec:	48 83 c0 70          	add    $0x70,%rax
    9cf0:	48 89 85 58 fa ff ff 	mov    %rax,-0x5a8(%rbp)
    9cf7:	8b 05 93 b3 00 00    	mov    0xb393(%rip),%eax        # 15090 <g_131>
    9cfd:	8d 48 01             	lea    0x1(%rax),%ecx
    9d00:	8b 05 82 b5 00 00    	mov    0xb582(%rip),%eax        # 15288 <g_212>
    9d06:	83 c0 02             	add    $0x2,%eax
    9d09:	48 8d 95 50 f3 ff ff 	lea    -0xcb0(%rbp),%rdx
    9d10:	89 c6                	mov    %eax,%esi
    9d12:	89 c9                	mov    %ecx,%ecx
    9d14:	48 89 c8             	mov    %rcx,%rax
    9d17:	48 c1 e0 02          	shl    $0x2,%rax
    9d1b:	48 01 c8             	add    %rcx,%rax
    9d1e:	48 01 f0             	add    %rsi,%rax
    9d21:	48 c1 e0 03          	shl    $0x3,%rax
    9d25:	48 01 d0             	add    %rdx,%rax
    9d28:	48 89 85 60 fa ff ff 	mov    %rax,-0x5a0(%rbp)
    9d2f:	8b 05 5b b3 00 00    	mov    0xb35b(%rip),%eax        # 15090 <g_131>
    9d35:	8d 48 01             	lea    0x1(%rax),%ecx
    9d38:	8b 05 4a b5 00 00    	mov    0xb54a(%rip),%eax        # 15288 <g_212>
    9d3e:	83 c0 02             	add    $0x2,%eax
    9d41:	48 8d 95 50 f3 ff ff 	lea    -0xcb0(%rbp),%rdx
    9d48:	89 c6                	mov    %eax,%esi
    9d4a:	89 c9                	mov    %ecx,%ecx
    9d4c:	48 89 c8             	mov    %rcx,%rax
    9d4f:	48 c1 e0 02          	shl    $0x2,%rax
    9d53:	48 01 c8             	add    %rcx,%rax
    9d56:	48 01 f0             	add    %rsi,%rax
    9d59:	48 c1 e0 03          	shl    $0x3,%rax
    9d5d:	48 01 d0             	add    %rdx,%rax
    9d60:	48 89 85 68 fa ff ff 	mov    %rax,-0x598(%rbp)
    9d67:	48 8d 85 50 f3 ff ff 	lea    -0xcb0(%rbp),%rax
    9d6e:	48 83 c0 70          	add    $0x70,%rax
    9d72:	48 89 85 70 fa ff ff 	mov    %rax,-0x590(%rbp)
    9d79:	8b 05 11 b3 00 00    	mov    0xb311(%rip),%eax        # 15090 <g_131>
    9d7f:	8d 48 01             	lea    0x1(%rax),%ecx
    9d82:	8b 05 00 b5 00 00    	mov    0xb500(%rip),%eax        # 15288 <g_212>
    9d88:	83 c0 02             	add    $0x2,%eax
    9d8b:	48 8d 95 50 f3 ff ff 	lea    -0xcb0(%rbp),%rdx
    9d92:	89 c6                	mov    %eax,%esi
    9d94:	89 c9                	mov    %ecx,%ecx
    9d96:	48 89 c8             	mov    %rcx,%rax
    9d99:	48 c1 e0 02          	shl    $0x2,%rax
    9d9d:	48 01 c8             	add    %rcx,%rax
    9da0:	48 01 f0             	add    %rsi,%rax
    9da3:	48 c1 e0 03          	shl    $0x3,%rax
    9da7:	48 01 d0             	add    %rdx,%rax
    9daa:	48 89 85 78 fa ff ff 	mov    %rax,-0x588(%rbp)
    9db1:	48 8d 85 50 f3 ff ff 	lea    -0xcb0(%rbp),%rax
    9db8:	48 83 c0 70          	add    $0x70,%rax
    9dbc:	48 89 85 80 fa ff ff 	mov    %rax,-0x580(%rbp)
    9dc3:	8b 05 c7 b2 00 00    	mov    0xb2c7(%rip),%eax        # 15090 <g_131>
    9dc9:	8d 48 01             	lea    0x1(%rax),%ecx
    9dcc:	8b 05 b6 b4 00 00    	mov    0xb4b6(%rip),%eax        # 15288 <g_212>
    9dd2:	83 c0 02             	add    $0x2,%eax
    9dd5:	48 8d 95 50 f3 ff ff 	lea    -0xcb0(%rbp),%rdx
    9ddc:	89 c6                	mov    %eax,%esi
    9dde:	89 c9                	mov    %ecx,%ecx
    9de0:	48 89 c8             	mov    %rcx,%rax
    9de3:	48 c1 e0 02          	shl    $0x2,%rax
    9de7:	48 01 c8             	add    %rcx,%rax
    9dea:	48 01 f0             	add    %rsi,%rax
    9ded:	48 c1 e0 03          	shl    $0x3,%rax
    9df1:	48 01 d0             	add    %rdx,%rax
    9df4:	48 89 85 88 fa ff ff 	mov    %rax,-0x578(%rbp)
    9dfb:	48 8d 85 50 f3 ff ff 	lea    -0xcb0(%rbp),%rax
    9e02:	48 05 18 01 00 00    	add    $0x118,%rax
    9e08:	48 89 85 90 fa ff ff 	mov    %rax,-0x570(%rbp)
    9e0f:	48 8d 85 50 f3 ff ff 	lea    -0xcb0(%rbp),%rax
    9e16:	48 05 18 01 00 00    	add    $0x118,%rax
    9e1c:	48 89 85 98 fa ff ff 	mov    %rax,-0x568(%rbp)
    9e23:	8b 05 67 b2 00 00    	mov    0xb267(%rip),%eax        # 15090 <g_131>
    9e29:	8d 48 01             	lea    0x1(%rax),%ecx
    9e2c:	8b 05 56 b4 00 00    	mov    0xb456(%rip),%eax        # 15288 <g_212>
    9e32:	83 c0 02             	add    $0x2,%eax
    9e35:	48 8d 95 50 f3 ff ff 	lea    -0xcb0(%rbp),%rdx
    9e3c:	89 c6                	mov    %eax,%esi
    9e3e:	89 c9                	mov    %ecx,%ecx
    9e40:	48 89 c8             	mov    %rcx,%rax
    9e43:	48 c1 e0 02          	shl    $0x2,%rax
    9e47:	48 01 c8             	add    %rcx,%rax
    9e4a:	48 01 f0             	add    %rsi,%rax
    9e4d:	48 c1 e0 03          	shl    $0x3,%rax
    9e51:	48 01 d0             	add    %rdx,%rax
    9e54:	48 89 85 a0 fa ff ff 	mov    %rax,-0x560(%rbp)
    9e5b:	8b 05 2f b2 00 00    	mov    0xb22f(%rip),%eax        # 15090 <g_131>
    9e61:	8d 48 01             	lea    0x1(%rax),%ecx
    9e64:	8b 05 1e b4 00 00    	mov    0xb41e(%rip),%eax        # 15288 <g_212>
    9e6a:	83 c0 02             	add    $0x2,%eax
    9e6d:	48 8d 95 50 f3 ff ff 	lea    -0xcb0(%rbp),%rdx
    9e74:	89 c6                	mov    %eax,%esi
    9e76:	89 c9                	mov    %ecx,%ecx
    9e78:	48 89 c8             	mov    %rcx,%rax
    9e7b:	48 c1 e0 02          	shl    $0x2,%rax
    9e7f:	48 01 c8             	add    %rcx,%rax
    9e82:	48 01 f0             	add    %rsi,%rax
    9e85:	48 c1 e0 03          	shl    $0x3,%rax
    9e89:	48 01 d0             	add    %rdx,%rax
    9e8c:	48 89 85 a8 fa ff ff 	mov    %rax,-0x558(%rbp)
    9e93:	8b 05 f7 b1 00 00    	mov    0xb1f7(%rip),%eax        # 15090 <g_131>
    9e99:	8d 48 01             	lea    0x1(%rax),%ecx
    9e9c:	8b 05 e6 b3 00 00    	mov    0xb3e6(%rip),%eax        # 15288 <g_212>
    9ea2:	83 c0 02             	add    $0x2,%eax
    9ea5:	48 8d 95 50 f3 ff ff 	lea    -0xcb0(%rbp),%rdx
    9eac:	89 c6                	mov    %eax,%esi
    9eae:	89 c9                	mov    %ecx,%ecx
    9eb0:	48 89 c8             	mov    %rcx,%rax
    9eb3:	48 c1 e0 02          	shl    $0x2,%rax
    9eb7:	48 01 c8             	add    %rcx,%rax
    9eba:	48 01 f0             	add    %rsi,%rax
    9ebd:	48 c1 e0 03          	shl    $0x3,%rax
    9ec1:	48 01 d0             	add    %rdx,%rax
    9ec4:	48 89 85 b0 fa ff ff 	mov    %rax,-0x550(%rbp)
    9ecb:	48 8d 85 50 f3 ff ff 	lea    -0xcb0(%rbp),%rax
    9ed2:	48 05 18 01 00 00    	add    $0x118,%rax
    9ed8:	48 89 85 b8 fa ff ff 	mov    %rax,-0x548(%rbp)
    9edf:	48 8d 85 50 f3 ff ff 	lea    -0xcb0(%rbp),%rax
    9ee6:	48 05 18 01 00 00    	add    $0x118,%rax
    9eec:	48 89 85 c0 fa ff ff 	mov    %rax,-0x540(%rbp)
    9ef3:	48 8d 85 50 f3 ff ff 	lea    -0xcb0(%rbp),%rax
    9efa:	48 05 18 01 00 00    	add    $0x118,%rax
    9f00:	48 89 85 c8 fa ff ff 	mov    %rax,-0x538(%rbp)
    9f07:	8b 05 83 b1 00 00    	mov    0xb183(%rip),%eax        # 15090 <g_131>
    9f0d:	8d 48 01             	lea    0x1(%rax),%ecx
    9f10:	8b 05 72 b3 00 00    	mov    0xb372(%rip),%eax        # 15288 <g_212>
    9f16:	83 c0 02             	add    $0x2,%eax
    9f19:	48 8d 95 50 f3 ff ff 	lea    -0xcb0(%rbp),%rdx
    9f20:	89 c6                	mov    %eax,%esi
    9f22:	89 c9                	mov    %ecx,%ecx
    9f24:	48 89 c8             	mov    %rcx,%rax
    9f27:	48 c1 e0 02          	shl    $0x2,%rax
    9f2b:	48 01 c8             	add    %rcx,%rax
    9f2e:	48 01 f0             	add    %rsi,%rax
    9f31:	48 c1 e0 03          	shl    $0x3,%rax
    9f35:	48 01 d0             	add    %rdx,%rax
    9f38:	48 89 85 d0 fa ff ff 	mov    %rax,-0x530(%rbp)
    9f3f:	8b 05 4b b1 00 00    	mov    0xb14b(%rip),%eax        # 15090 <g_131>
    9f45:	8d 48 01             	lea    0x1(%rax),%ecx
    9f48:	8b 05 3a b3 00 00    	mov    0xb33a(%rip),%eax        # 15288 <g_212>
    9f4e:	83 c0 02             	add    $0x2,%eax
    9f51:	48 8d 95 50 f3 ff ff 	lea    -0xcb0(%rbp),%rdx
    9f58:	89 c6                	mov    %eax,%esi
    9f5a:	89 c9                	mov    %ecx,%ecx
    9f5c:	48 89 c8             	mov    %rcx,%rax
    9f5f:	48 c1 e0 02          	shl    $0x2,%rax
    9f63:	48 01 c8             	add    %rcx,%rax
    9f66:	48 01 f0             	add    %rsi,%rax
    9f69:	48 c1 e0 03          	shl    $0x3,%rax
    9f6d:	48 01 d0             	add    %rdx,%rax
    9f70:	48 89 85 d8 fa ff ff 	mov    %rax,-0x528(%rbp)
    9f77:	8b 05 13 b1 00 00    	mov    0xb113(%rip),%eax        # 15090 <g_131>
    9f7d:	8d 48 01             	lea    0x1(%rax),%ecx
    9f80:	8b 05 02 b3 00 00    	mov    0xb302(%rip),%eax        # 15288 <g_212>
    9f86:	83 c0 02             	add    $0x2,%eax
    9f89:	48 8d 95 50 f3 ff ff 	lea    -0xcb0(%rbp),%rdx
    9f90:	89 c6                	mov    %eax,%esi
    9f92:	89 c9                	mov    %ecx,%ecx
    9f94:	48 89 c8             	mov    %rcx,%rax
    9f97:	48 c1 e0 02          	shl    $0x2,%rax
    9f9b:	48 01 c8             	add    %rcx,%rax
    9f9e:	48 01 f0             	add    %rsi,%rax
    9fa1:	48 c1 e0 03          	shl    $0x3,%rax
    9fa5:	48 01 d0             	add    %rdx,%rax
    9fa8:	48 89 85 e0 fa ff ff 	mov    %rax,-0x520(%rbp)
    9faf:	48 8d 85 50 f3 ff ff 	lea    -0xcb0(%rbp),%rax
    9fb6:	48 05 18 01 00 00    	add    $0x118,%rax
    9fbc:	48 89 85 e8 fa ff ff 	mov    %rax,-0x518(%rbp)
    9fc3:	48 8d 85 50 f3 ff ff 	lea    -0xcb0(%rbp),%rax
    9fca:	48 05 18 01 00 00    	add    $0x118,%rax
    9fd0:	48 89 85 f0 fa ff ff 	mov    %rax,-0x510(%rbp)
    9fd7:	8b 05 b3 b0 00 00    	mov    0xb0b3(%rip),%eax        # 15090 <g_131>
    9fdd:	8d 48 01             	lea    0x1(%rax),%ecx
    9fe0:	8b 05 a2 b2 00 00    	mov    0xb2a2(%rip),%eax        # 15288 <g_212>
    9fe6:	83 c0 02             	add    $0x2,%eax
    9fe9:	48 8d 95 50 f3 ff ff 	lea    -0xcb0(%rbp),%rdx
    9ff0:	89 c6                	mov    %eax,%esi
    9ff2:	89 c9                	mov    %ecx,%ecx
    9ff4:	48 89 c8             	mov    %rcx,%rax
    9ff7:	48 c1 e0 02          	shl    $0x2,%rax
    9ffb:	48 01 c8             	add    %rcx,%rax
    9ffe:	48 01 f0             	add    %rsi,%rax
    a001:	48 c1 e0 03          	shl    $0x3,%rax
    a005:	48 01 d0             	add    %rdx,%rax
    a008:	48 89 85 f8 fa ff ff 	mov    %rax,-0x508(%rbp)
    a00f:	48 8d 85 50 f3 ff ff 	lea    -0xcb0(%rbp),%rax
    a016:	48 83 c0 70          	add    $0x70,%rax
    a01a:	48 89 85 00 fb ff ff 	mov    %rax,-0x500(%rbp)
    a021:	8b 05 69 b0 00 00    	mov    0xb069(%rip),%eax        # 15090 <g_131>
    a027:	8d 48 01             	lea    0x1(%rax),%ecx
    a02a:	8b 05 58 b2 00 00    	mov    0xb258(%rip),%eax        # 15288 <g_212>
    a030:	83 c0 02             	add    $0x2,%eax
    a033:	48 8d 95 50 f3 ff ff 	lea    -0xcb0(%rbp),%rdx
    a03a:	89 c6                	mov    %eax,%esi
    a03c:	89 c9                	mov    %ecx,%ecx
    a03e:	48 89 c8             	mov    %rcx,%rax
    a041:	48 c1 e0 02          	shl    $0x2,%rax
    a045:	48 01 c8             	add    %rcx,%rax
    a048:	48 01 f0             	add    %rsi,%rax
    a04b:	48 c1 e0 03          	shl    $0x3,%rax
    a04f:	48 01 d0             	add    %rdx,%rax
    a052:	48 89 85 08 fb ff ff 	mov    %rax,-0x4f8(%rbp)
    a059:	48 8d 85 50 f3 ff ff 	lea    -0xcb0(%rbp),%rax
    a060:	48 83 c0 70          	add    $0x70,%rax
    a064:	48 89 85 10 fb ff ff 	mov    %rax,-0x4f0(%rbp)
    a06b:	8b 05 1f b0 00 00    	mov    0xb01f(%rip),%eax        # 15090 <g_131>
    a071:	8d 48 01             	lea    0x1(%rax),%ecx
    a074:	8b 05 0e b2 00 00    	mov    0xb20e(%rip),%eax        # 15288 <g_212>
    a07a:	83 c0 02             	add    $0x2,%eax
    a07d:	48 8d 95 50 f3 ff ff 	lea    -0xcb0(%rbp),%rdx
    a084:	89 c6                	mov    %eax,%esi
    a086:	89 c9                	mov    %ecx,%ecx
    a088:	48 89 c8             	mov    %rcx,%rax
    a08b:	48 c1 e0 02          	shl    $0x2,%rax
    a08f:	48 01 c8             	add    %rcx,%rax
    a092:	48 01 f0             	add    %rsi,%rax
    a095:	48 c1 e0 03          	shl    $0x3,%rax
    a099:	48 01 d0             	add    %rdx,%rax
    a09c:	48 89 85 18 fb ff ff 	mov    %rax,-0x4e8(%rbp)
    a0a3:	8b 05 e7 af 00 00    	mov    0xafe7(%rip),%eax        # 15090 <g_131>
    a0a9:	8d 48 01             	lea    0x1(%rax),%ecx
    a0ac:	8b 05 d6 b1 00 00    	mov    0xb1d6(%rip),%eax        # 15288 <g_212>
    a0b2:	83 c0 02             	add    $0x2,%eax
    a0b5:	48 8d 95 50 f3 ff ff 	lea    -0xcb0(%rbp),%rdx
    a0bc:	89 c6                	mov    %eax,%esi
    a0be:	89 c9                	mov    %ecx,%ecx
    a0c0:	48 89 c8             	mov    %rcx,%rax
    a0c3:	48 c1 e0 02          	shl    $0x2,%rax
    a0c7:	48 01 c8             	add    %rcx,%rax
    a0ca:	48 01 f0             	add    %rsi,%rax
    a0cd:	48 c1 e0 03          	shl    $0x3,%rax
    a0d1:	48 01 d0             	add    %rdx,%rax
    a0d4:	48 89 85 20 fb ff ff 	mov    %rax,-0x4e0(%rbp)
    a0db:	48 8d 85 50 f3 ff ff 	lea    -0xcb0(%rbp),%rax
    a0e2:	48 83 c0 70          	add    $0x70,%rax
    a0e6:	48 89 85 28 fb ff ff 	mov    %rax,-0x4d8(%rbp)
    a0ed:	8b 05 9d af 00 00    	mov    0xaf9d(%rip),%eax        # 15090 <g_131>
    a0f3:	8d 48 01             	lea    0x1(%rax),%ecx
    a0f6:	8b 05 8c b1 00 00    	mov    0xb18c(%rip),%eax        # 15288 <g_212>
    a0fc:	83 c0 02             	add    $0x2,%eax
    a0ff:	48 8d 95 50 f3 ff ff 	lea    -0xcb0(%rbp),%rdx
    a106:	89 c6                	mov    %eax,%esi
    a108:	89 c9                	mov    %ecx,%ecx
    a10a:	48 89 c8             	mov    %rcx,%rax
    a10d:	48 c1 e0 02          	shl    $0x2,%rax
    a111:	48 01 c8             	add    %rcx,%rax
    a114:	48 01 f0             	add    %rsi,%rax
    a117:	48 c1 e0 03          	shl    $0x3,%rax
    a11b:	48 01 d0             	add    %rdx,%rax
    a11e:	48 89 85 30 fb ff ff 	mov    %rax,-0x4d0(%rbp)
    a125:	8b 05 65 af 00 00    	mov    0xaf65(%rip),%eax        # 15090 <g_131>
    a12b:	8d 48 01             	lea    0x1(%rax),%ecx
    a12e:	8b 05 54 b1 00 00    	mov    0xb154(%rip),%eax        # 15288 <g_212>
    a134:	83 c0 02             	add    $0x2,%eax
    a137:	48 8d 95 50 f3 ff ff 	lea    -0xcb0(%rbp),%rdx
    a13e:	89 c6                	mov    %eax,%esi
    a140:	89 c9                	mov    %ecx,%ecx
    a142:	48 89 c8             	mov    %rcx,%rax
    a145:	48 c1 e0 02          	shl    $0x2,%rax
    a149:	48 01 c8             	add    %rcx,%rax
    a14c:	48 01 f0             	add    %rsi,%rax
    a14f:	48 c1 e0 03          	shl    $0x3,%rax
    a153:	48 01 d0             	add    %rdx,%rax
    a156:	48 89 85 38 fb ff ff 	mov    %rax,-0x4c8(%rbp)
    a15d:	8b 05 2d af 00 00    	mov    0xaf2d(%rip),%eax        # 15090 <g_131>
    a163:	8d 48 01             	lea    0x1(%rax),%ecx
    a166:	8b 05 1c b1 00 00    	mov    0xb11c(%rip),%eax        # 15288 <g_212>
    a16c:	83 c0 02             	add    $0x2,%eax
    a16f:	48 8d 95 50 f3 ff ff 	lea    -0xcb0(%rbp),%rdx
    a176:	89 c6                	mov    %eax,%esi
    a178:	89 c9                	mov    %ecx,%ecx
    a17a:	48 89 c8             	mov    %rcx,%rax
    a17d:	48 c1 e0 02          	shl    $0x2,%rax
    a181:	48 01 c8             	add    %rcx,%rax
    a184:	48 01 f0             	add    %rsi,%rax
    a187:	48 c1 e0 03          	shl    $0x3,%rax
    a18b:	48 01 d0             	add    %rdx,%rax
    a18e:	48 89 85 40 fb ff ff 	mov    %rax,-0x4c0(%rbp)
    a195:	8b 05 f5 ae 00 00    	mov    0xaef5(%rip),%eax        # 15090 <g_131>
    a19b:	8d 48 01             	lea    0x1(%rax),%ecx
    a19e:	8b 05 e4 b0 00 00    	mov    0xb0e4(%rip),%eax        # 15288 <g_212>
    a1a4:	83 c0 02             	add    $0x2,%eax
    a1a7:	48 8d 95 50 f3 ff ff 	lea    -0xcb0(%rbp),%rdx
    a1ae:	89 c6                	mov    %eax,%esi
    a1b0:	89 c9                	mov    %ecx,%ecx
    a1b2:	48 89 c8             	mov    %rcx,%rax
    a1b5:	48 c1 e0 02          	shl    $0x2,%rax
    a1b9:	48 01 c8             	add    %rcx,%rax
    a1bc:	48 01 f0             	add    %rsi,%rax
    a1bf:	48 c1 e0 03          	shl    $0x3,%rax
    a1c3:	48 01 d0             	add    %rdx,%rax
    a1c6:	48 89 85 48 fb ff ff 	mov    %rax,-0x4b8(%rbp)
    a1cd:	8b 05 bd ae 00 00    	mov    0xaebd(%rip),%eax        # 15090 <g_131>
    a1d3:	8d 48 01             	lea    0x1(%rax),%ecx
    a1d6:	8b 05 ac b0 00 00    	mov    0xb0ac(%rip),%eax        # 15288 <g_212>
    a1dc:	83 c0 02             	add    $0x2,%eax
    a1df:	48 8d 95 50 f3 ff ff 	lea    -0xcb0(%rbp),%rdx
    a1e6:	89 c6                	mov    %eax,%esi
    a1e8:	89 c9                	mov    %ecx,%ecx
    a1ea:	48 89 c8             	mov    %rcx,%rax
    a1ed:	48 c1 e0 02          	shl    $0x2,%rax
    a1f1:	48 01 c8             	add    %rcx,%rax
    a1f4:	48 01 f0             	add    %rsi,%rax
    a1f7:	48 c1 e0 03          	shl    $0x3,%rax
    a1fb:	48 01 d0             	add    %rdx,%rax
    a1fe:	48 89 85 50 fb ff ff 	mov    %rax,-0x4b0(%rbp)
    a205:	8b 05 85 ae 00 00    	mov    0xae85(%rip),%eax        # 15090 <g_131>
    a20b:	8d 48 01             	lea    0x1(%rax),%ecx
    a20e:	8b 05 74 b0 00 00    	mov    0xb074(%rip),%eax        # 15288 <g_212>
    a214:	83 c0 02             	add    $0x2,%eax
    a217:	48 8d 95 50 f3 ff ff 	lea    -0xcb0(%rbp),%rdx
    a21e:	89 c6                	mov    %eax,%esi
    a220:	89 c9                	mov    %ecx,%ecx
    a222:	48 89 c8             	mov    %rcx,%rax
    a225:	48 c1 e0 02          	shl    $0x2,%rax
    a229:	48 01 c8             	add    %rcx,%rax
    a22c:	48 01 f0             	add    %rsi,%rax
    a22f:	48 c1 e0 03          	shl    $0x3,%rax
    a233:	48 01 d0             	add    %rdx,%rax
    a236:	48 89 85 58 fb ff ff 	mov    %rax,-0x4a8(%rbp)
    a23d:	8b 05 4d ae 00 00    	mov    0xae4d(%rip),%eax        # 15090 <g_131>
    a243:	8d 48 01             	lea    0x1(%rax),%ecx
    a246:	8b 05 3c b0 00 00    	mov    0xb03c(%rip),%eax        # 15288 <g_212>
    a24c:	83 c0 02             	add    $0x2,%eax
    a24f:	48 8d 95 50 f3 ff ff 	lea    -0xcb0(%rbp),%rdx
    a256:	89 c6                	mov    %eax,%esi
    a258:	89 c9                	mov    %ecx,%ecx
    a25a:	48 89 c8             	mov    %rcx,%rax
    a25d:	48 c1 e0 02          	shl    $0x2,%rax
    a261:	48 01 c8             	add    %rcx,%rax
    a264:	48 01 f0             	add    %rsi,%rax
    a267:	48 c1 e0 03          	shl    $0x3,%rax
    a26b:	48 01 d0             	add    %rdx,%rax
    a26e:	48 89 85 60 fb ff ff 	mov    %rax,-0x4a0(%rbp)
    a275:	8b 05 15 ae 00 00    	mov    0xae15(%rip),%eax        # 15090 <g_131>
    a27b:	8d 48 01             	lea    0x1(%rax),%ecx
    a27e:	8b 05 04 b0 00 00    	mov    0xb004(%rip),%eax        # 15288 <g_212>
    a284:	83 c0 02             	add    $0x2,%eax
    a287:	48 8d 95 50 f3 ff ff 	lea    -0xcb0(%rbp),%rdx
    a28e:	89 c6                	mov    %eax,%esi
    a290:	89 c9                	mov    %ecx,%ecx
    a292:	48 89 c8             	mov    %rcx,%rax
    a295:	48 c1 e0 02          	shl    $0x2,%rax
    a299:	48 01 c8             	add    %rcx,%rax
    a29c:	48 01 f0             	add    %rsi,%rax
    a29f:	48 c1 e0 03          	shl    $0x3,%rax
    a2a3:	48 01 d0             	add    %rdx,%rax
    a2a6:	48 89 85 68 fb ff ff 	mov    %rax,-0x498(%rbp)
    a2ad:	48 8d 85 50 f3 ff ff 	lea    -0xcb0(%rbp),%rax
    a2b4:	48 83 c0 70          	add    $0x70,%rax
    a2b8:	48 89 85 70 fb ff ff 	mov    %rax,-0x490(%rbp)
    a2bf:	8b 05 cb ad 00 00    	mov    0xadcb(%rip),%eax        # 15090 <g_131>
    a2c5:	8d 48 01             	lea    0x1(%rax),%ecx
    a2c8:	8b 05 ba af 00 00    	mov    0xafba(%rip),%eax        # 15288 <g_212>
    a2ce:	83 c0 02             	add    $0x2,%eax
    a2d1:	48 8d 95 50 f3 ff ff 	lea    -0xcb0(%rbp),%rdx
    a2d8:	89 c6                	mov    %eax,%esi
    a2da:	89 c9                	mov    %ecx,%ecx
    a2dc:	48 89 c8             	mov    %rcx,%rax
    a2df:	48 c1 e0 02          	shl    $0x2,%rax
    a2e3:	48 01 c8             	add    %rcx,%rax
    a2e6:	48 01 f0             	add    %rsi,%rax
    a2e9:	48 c1 e0 03          	shl    $0x3,%rax
    a2ed:	48 01 d0             	add    %rdx,%rax
    a2f0:	48 89 85 78 fb ff ff 	mov    %rax,-0x488(%rbp)
    a2f7:	8b 05 93 ad 00 00    	mov    0xad93(%rip),%eax        # 15090 <g_131>
    a2fd:	8d 48 01             	lea    0x1(%rax),%ecx
    a300:	8b 05 82 af 00 00    	mov    0xaf82(%rip),%eax        # 15288 <g_212>
    a306:	83 c0 02             	add    $0x2,%eax
    a309:	48 8d 95 50 f3 ff ff 	lea    -0xcb0(%rbp),%rdx
    a310:	89 c6                	mov    %eax,%esi
    a312:	89 c9                	mov    %ecx,%ecx
    a314:	48 89 c8             	mov    %rcx,%rax
    a317:	48 c1 e0 02          	shl    $0x2,%rax
    a31b:	48 01 c8             	add    %rcx,%rax
    a31e:	48 01 f0             	add    %rsi,%rax
    a321:	48 c1 e0 03          	shl    $0x3,%rax
    a325:	48 01 d0             	add    %rdx,%rax
    a328:	48 89 85 80 fb ff ff 	mov    %rax,-0x480(%rbp)
    a32f:	48 8d 85 50 f3 ff ff 	lea    -0xcb0(%rbp),%rax
    a336:	48 83 c0 70          	add    $0x70,%rax
    a33a:	48 89 85 88 fb ff ff 	mov    %rax,-0x478(%rbp)
    a341:	8b 05 49 ad 00 00    	mov    0xad49(%rip),%eax        # 15090 <g_131>
    a347:	8d 48 01             	lea    0x1(%rax),%ecx
    a34a:	8b 05 38 af 00 00    	mov    0xaf38(%rip),%eax        # 15288 <g_212>
    a350:	83 c0 02             	add    $0x2,%eax
    a353:	48 8d 95 50 f3 ff ff 	lea    -0xcb0(%rbp),%rdx
    a35a:	89 c6                	mov    %eax,%esi
    a35c:	89 c9                	mov    %ecx,%ecx
    a35e:	48 89 c8             	mov    %rcx,%rax
    a361:	48 c1 e0 02          	shl    $0x2,%rax
    a365:	48 01 c8             	add    %rcx,%rax
    a368:	48 01 f0             	add    %rsi,%rax
    a36b:	48 c1 e0 03          	shl    $0x3,%rax
    a36f:	48 01 d0             	add    %rdx,%rax
    a372:	48 89 85 90 fb ff ff 	mov    %rax,-0x470(%rbp)
    a379:	48 8d 85 50 f3 ff ff 	lea    -0xcb0(%rbp),%rax
    a380:	48 83 c0 70          	add    $0x70,%rax
    a384:	48 89 85 98 fb ff ff 	mov    %rax,-0x468(%rbp)
    a38b:	8b 05 ff ac 00 00    	mov    0xacff(%rip),%eax        # 15090 <g_131>
    a391:	8d 48 01             	lea    0x1(%rax),%ecx
    a394:	8b 05 ee ae 00 00    	mov    0xaeee(%rip),%eax        # 15288 <g_212>
    a39a:	83 c0 02             	add    $0x2,%eax
    a39d:	48 8d 95 50 f3 ff ff 	lea    -0xcb0(%rbp),%rdx
    a3a4:	89 c6                	mov    %eax,%esi
    a3a6:	89 c9                	mov    %ecx,%ecx
    a3a8:	48 89 c8             	mov    %rcx,%rax
    a3ab:	48 c1 e0 02          	shl    $0x2,%rax
    a3af:	48 01 c8             	add    %rcx,%rax
    a3b2:	48 01 f0             	add    %rsi,%rax
    a3b5:	48 c1 e0 03          	shl    $0x3,%rax
    a3b9:	48 01 d0             	add    %rdx,%rax
    a3bc:	48 89 85 a0 fb ff ff 	mov    %rax,-0x460(%rbp)
    a3c3:	48 8d 85 50 f3 ff ff 	lea    -0xcb0(%rbp),%rax
    a3ca:	48 05 18 01 00 00    	add    $0x118,%rax
    a3d0:	48 89 85 a8 fb ff ff 	mov    %rax,-0x458(%rbp)
    a3d7:	48 8d 85 50 f3 ff ff 	lea    -0xcb0(%rbp),%rax
    a3de:	48 05 18 01 00 00    	add    $0x118,%rax
    a3e4:	48 89 85 b0 fb ff ff 	mov    %rax,-0x450(%rbp)
    a3eb:	8b 05 9f ac 00 00    	mov    0xac9f(%rip),%eax        # 15090 <g_131>
    a3f1:	8d 48 01             	lea    0x1(%rax),%ecx
    a3f4:	8b 05 8e ae 00 00    	mov    0xae8e(%rip),%eax        # 15288 <g_212>
    a3fa:	83 c0 02             	add    $0x2,%eax
    a3fd:	48 8d 95 50 f3 ff ff 	lea    -0xcb0(%rbp),%rdx
    a404:	89 c6                	mov    %eax,%esi
    a406:	89 c9                	mov    %ecx,%ecx
    a408:	48 89 c8             	mov    %rcx,%rax
    a40b:	48 c1 e0 02          	shl    $0x2,%rax
    a40f:	48 01 c8             	add    %rcx,%rax
    a412:	48 01 f0             	add    %rsi,%rax
    a415:	48 c1 e0 03          	shl    $0x3,%rax
    a419:	48 01 d0             	add    %rdx,%rax
    a41c:	48 89 85 b8 fb ff ff 	mov    %rax,-0x448(%rbp)
    a423:	8b 05 67 ac 00 00    	mov    0xac67(%rip),%eax        # 15090 <g_131>
    a429:	8d 48 01             	lea    0x1(%rax),%ecx
    a42c:	8b 05 56 ae 00 00    	mov    0xae56(%rip),%eax        # 15288 <g_212>
    a432:	83 c0 02             	add    $0x2,%eax
    a435:	48 8d 95 50 f3 ff ff 	lea    -0xcb0(%rbp),%rdx
    a43c:	89 c6                	mov    %eax,%esi
    a43e:	89 c9                	mov    %ecx,%ecx
    a440:	48 89 c8             	mov    %rcx,%rax
    a443:	48 c1 e0 02          	shl    $0x2,%rax
    a447:	48 01 c8             	add    %rcx,%rax
    a44a:	48 01 f0             	add    %rsi,%rax
    a44d:	48 c1 e0 03          	shl    $0x3,%rax
    a451:	48 01 d0             	add    %rdx,%rax
    a454:	48 89 85 c0 fb ff ff 	mov    %rax,-0x440(%rbp)
    a45b:	8b 05 2f ac 00 00    	mov    0xac2f(%rip),%eax        # 15090 <g_131>
    a461:	8d 48 01             	lea    0x1(%rax),%ecx
    a464:	8b 05 1e ae 00 00    	mov    0xae1e(%rip),%eax        # 15288 <g_212>
    a46a:	83 c0 02             	add    $0x2,%eax
    a46d:	48 8d 95 50 f3 ff ff 	lea    -0xcb0(%rbp),%rdx
    a474:	89 c6                	mov    %eax,%esi
    a476:	89 c9                	mov    %ecx,%ecx
    a478:	48 89 c8             	mov    %rcx,%rax
    a47b:	48 c1 e0 02          	shl    $0x2,%rax
    a47f:	48 01 c8             	add    %rcx,%rax
    a482:	48 01 f0             	add    %rsi,%rax
    a485:	48 c1 e0 03          	shl    $0x3,%rax
    a489:	48 01 d0             	add    %rdx,%rax
    a48c:	48 89 85 c8 fb ff ff 	mov    %rax,-0x438(%rbp)
    a493:	48 8d 85 50 f3 ff ff 	lea    -0xcb0(%rbp),%rax
    a49a:	48 05 18 01 00 00    	add    $0x118,%rax
    a4a0:	48 89 85 d0 fb ff ff 	mov    %rax,-0x430(%rbp)
    a4a7:	48 8d 85 50 f3 ff ff 	lea    -0xcb0(%rbp),%rax
    a4ae:	48 05 18 01 00 00    	add    $0x118,%rax
    a4b4:	48 89 85 d8 fb ff ff 	mov    %rax,-0x428(%rbp)
    a4bb:	48 8d 85 50 f3 ff ff 	lea    -0xcb0(%rbp),%rax
    a4c2:	48 05 18 01 00 00    	add    $0x118,%rax
    a4c8:	48 89 85 e0 fb ff ff 	mov    %rax,-0x420(%rbp)
    a4cf:	8b 05 bb ab 00 00    	mov    0xabbb(%rip),%eax        # 15090 <g_131>
    a4d5:	8d 48 01             	lea    0x1(%rax),%ecx
    a4d8:	8b 05 aa ad 00 00    	mov    0xadaa(%rip),%eax        # 15288 <g_212>
    a4de:	83 c0 02             	add    $0x2,%eax
    a4e1:	48 8d 95 50 f3 ff ff 	lea    -0xcb0(%rbp),%rdx
    a4e8:	89 c6                	mov    %eax,%esi
    a4ea:	89 c9                	mov    %ecx,%ecx
    a4ec:	48 89 c8             	mov    %rcx,%rax
    a4ef:	48 c1 e0 02          	shl    $0x2,%rax
    a4f3:	48 01 c8             	add    %rcx,%rax
    a4f6:	48 01 f0             	add    %rsi,%rax
    a4f9:	48 c1 e0 03          	shl    $0x3,%rax
    a4fd:	48 01 d0             	add    %rdx,%rax
    a500:	48 89 85 e8 fb ff ff 	mov    %rax,-0x418(%rbp)
    a507:	8b 05 83 ab 00 00    	mov    0xab83(%rip),%eax        # 15090 <g_131>
    a50d:	8d 48 01             	lea    0x1(%rax),%ecx
    a510:	8b 05 72 ad 00 00    	mov    0xad72(%rip),%eax        # 15288 <g_212>
    a516:	83 c0 02             	add    $0x2,%eax
    a519:	48 8d 95 50 f3 ff ff 	lea    -0xcb0(%rbp),%rdx
    a520:	89 c6                	mov    %eax,%esi
    a522:	89 c9                	mov    %ecx,%ecx
    a524:	48 89 c8             	mov    %rcx,%rax
    a527:	48 c1 e0 02          	shl    $0x2,%rax
    a52b:	48 01 c8             	add    %rcx,%rax
    a52e:	48 01 f0             	add    %rsi,%rax
    a531:	48 c1 e0 03          	shl    $0x3,%rax
    a535:	48 01 d0             	add    %rdx,%rax
    a538:	48 89 85 f0 fb ff ff 	mov    %rax,-0x410(%rbp)
    a53f:	8b 05 4b ab 00 00    	mov    0xab4b(%rip),%eax        # 15090 <g_131>
    a545:	8d 48 01             	lea    0x1(%rax),%ecx
    a548:	8b 05 3a ad 00 00    	mov    0xad3a(%rip),%eax        # 15288 <g_212>
    a54e:	83 c0 02             	add    $0x2,%eax
    a551:	48 8d 95 50 f3 ff ff 	lea    -0xcb0(%rbp),%rdx
    a558:	89 c6                	mov    %eax,%esi
    a55a:	89 c9                	mov    %ecx,%ecx
    a55c:	48 89 c8             	mov    %rcx,%rax
    a55f:	48 c1 e0 02          	shl    $0x2,%rax
    a563:	48 01 c8             	add    %rcx,%rax
    a566:	48 01 f0             	add    %rsi,%rax
    a569:	48 c1 e0 03          	shl    $0x3,%rax
    a56d:	48 01 d0             	add    %rdx,%rax
    a570:	48 89 85 f8 fb ff ff 	mov    %rax,-0x408(%rbp)
    a577:	48 8d 85 50 f3 ff ff 	lea    -0xcb0(%rbp),%rax
    a57e:	48 05 18 01 00 00    	add    $0x118,%rax
    a584:	48 89 85 00 fc ff ff 	mov    %rax,-0x400(%rbp)
    a58b:	48 8d 85 50 f3 ff ff 	lea    -0xcb0(%rbp),%rax
    a592:	48 05 18 01 00 00    	add    $0x118,%rax
    a598:	48 89 85 08 fc ff ff 	mov    %rax,-0x3f8(%rbp)
    a59f:	8b 05 eb aa 00 00    	mov    0xaaeb(%rip),%eax        # 15090 <g_131>
    a5a5:	8d 48 01             	lea    0x1(%rax),%ecx
    a5a8:	8b 05 da ac 00 00    	mov    0xacda(%rip),%eax        # 15288 <g_212>
    a5ae:	83 c0 02             	add    $0x2,%eax
    a5b1:	48 8d 95 50 f3 ff ff 	lea    -0xcb0(%rbp),%rdx
    a5b8:	89 c6                	mov    %eax,%esi
    a5ba:	89 c9                	mov    %ecx,%ecx
    a5bc:	48 89 c8             	mov    %rcx,%rax
    a5bf:	48 c1 e0 02          	shl    $0x2,%rax
    a5c3:	48 01 c8             	add    %rcx,%rax
    a5c6:	48 01 f0             	add    %rsi,%rax
    a5c9:	48 c1 e0 03          	shl    $0x3,%rax
    a5cd:	48 01 d0             	add    %rdx,%rax
    a5d0:	48 89 85 10 fc ff ff 	mov    %rax,-0x3f0(%rbp)
    a5d7:	48 8d 05 32 ce 00 00 	lea    0xce32(%rip),%rax        # 17410 <g_419+0x10>
    a5de:	48 89 85 e8 ea ff ff 	mov    %rax,-0x1518(%rbp)
    a5e5:	66 c7 85 f0 e8 ff ff 	movw   $0x34d3,-0x1710(%rbp)
    a5ec:	d3 34 
    a5ee:	48 8b 05 4b f1 00 00 	mov    0xf14b(%rip),%rax        # 19740 <g_650>
    a5f5:	48 89 85 c0 ea ff ff 	mov    %rax,-0x1540(%rbp)
    a5fc:	b8 00 00 00 00       	mov    $0x0,%eax
    a601:	31 85 14 e9 ff ff    	xor    %eax,-0x16ec(%rbp)
    a607:	8b 05 2b f8 00 00    	mov    0xf82b(%rip),%eax        # 19e38 <g_137>
    a60d:	89 c3                	mov    %eax,%ebx
    a60f:	8b 85 cc e8 ff ff    	mov    -0x1734(%rbp),%eax
    a615:	0f be d0             	movsbl %al,%edx
    a618:	83 a5 18 e9 ff ff 08 	andl   $0x8,-0x16e8(%rbp)
    a61f:	81 bd 18 e9 ff ff 80 	cmpl   $0x3eff0c80,-0x16e8(%rbp)
    a626:	0c ff 3e 
    a629:	40 0f 94 c6          	sete   %sil
    a62d:	8b 05 5d aa 00 00    	mov    0xaa5d(%rip),%eax        # 15090 <g_131>
    a633:	8d 78 01             	lea    0x1(%rax),%edi
    a636:	8b 05 4c ac 00 00    	mov    0xac4c(%rip),%eax        # 15288 <g_212>
    a63c:	83 c0 04             	add    $0x4,%eax
    a63f:	89 c1                	mov    %eax,%ecx
    a641:	89 f8                	mov    %edi,%eax
    a643:	48 c1 e0 03          	shl    $0x3,%rax
    a647:	48 01 c8             	add    %rcx,%rax
    a64a:	48 8d 0c 85 00 00 00 	lea    0x0(,%rax,4),%rcx
    a651:	00 
    a652:	48 8d 05 07 ab 00 00 	lea    0xab07(%rip),%rax        # 15160 <g_193>
    a659:	8b 04 01             	mov    (%rcx,%rax,1),%eax
    a65c:	85 c0                	test   %eax,%eax
    a65e:	75 09                	jne    a669 <func_56+0x320c>
    a660:	83 bd 64 e9 ff ff 00 	cmpl   $0x0,-0x169c(%rbp)
    a667:	74 07                	je     a670 <func_56+0x3213>
    a669:	b8 01 00 00 00       	mov    $0x1,%eax
    a66e:	eb 05                	jmp    a675 <func_56+0x3218>
    a670:	b8 00 00 00 00       	mov    $0x0,%eax
    a675:	83 e0 01             	and    $0x1,%eax
    a678:	31 f0                	xor    %esi,%eax
    a67a:	0f b6 c0             	movzbl %al,%eax
    a67d:	89 85 d8 ec ff ff    	mov    %eax,-0x1328(%rbp)
    a683:	8b 8d d8 ec ff ff    	mov    -0x1328(%rbp),%ecx
    a689:	48 8b 85 b8 e8 ff ff 	mov    -0x1748(%rbp),%rax
    a690:	0f b6 00             	movzbl (%rax),%eax
    a693:	0f be c0             	movsbl %al,%eax
    a696:	39 c1                	cmp    %eax,%ecx
    a698:	0f 93 c0             	setae  %al
    a69b:	0f b6 c0             	movzbl %al,%eax
    a69e:	89 d6                	mov    %edx,%esi
    a6a0:	89 c7                	mov    %eax,%edi
    a6a2:	e8 6b 9b ff ff       	callq  4212 <safe_mul_func_int8_t_s_s>
    a6a7:	be 02 00 00 00       	mov    $0x2,%esi
    a6ac:	bf 02 00 00 00       	mov    $0x2,%edi
    a6b1:	e8 92 a7 ff ff       	callq  4e48 <safe_rshift_func_uint16_t_u_s>
    a6b6:	0f b7 c0             	movzwl %ax,%eax
    a6b9:	89 85 1c e9 ff ff    	mov    %eax,-0x16e4(%rbp)
    a6bf:	0f b6 05 ba a9 00 00 	movzbl 0xa9ba(%rip),%eax        # 15080 <g_103>
    a6c6:	0f b6 c0             	movzbl %al,%eax
    a6c9:	48 8b 15 b8 a9 00 00 	mov    0xa9b8(%rip),%rdx        # 15088 <g_110>
    a6d0:	48 8d 4a 01          	lea    0x1(%rdx),%rcx
    a6d4:	48 63 d0             	movslq %eax,%rdx
    a6d7:	48 89 d0             	mov    %rdx,%rax
    a6da:	48 01 c0             	add    %rax,%rax
    a6dd:	48 01 d0             	add    %rdx,%rax
    a6e0:	48 01 c0             	add    %rax,%rax
    a6e3:	48 8d 7d d0          	lea    -0x30(%rbp),%rdi
    a6e7:	48 01 f8             	add    %rdi,%rax
    a6ea:	48 01 c8             	add    %rcx,%rax
    a6ed:	48 2d 90 12 00 00    	sub    $0x1290,%rax
    a6f3:	0f b6 00             	movzbl (%rax),%eax
    a6f6:	0f b6 f0             	movzbl %al,%esi
    a6f9:	8b 05 89 ab 00 00    	mov    0xab89(%rip),%eax        # 15288 <g_212>
    a6ff:	8d 50 01             	lea    0x1(%rax),%edx
    a702:	48 8b 0d 7f a9 00 00 	mov    0xa97f(%rip),%rcx        # 15088 <g_110>
    a709:	8b 05 79 ab 00 00    	mov    0xab79(%rip),%eax        # 15288 <g_212>
    a70f:	89 c7                	mov    %eax,%edi
    a711:	89 d0                	mov    %edx,%eax
    a713:	48 89 c2             	mov    %rax,%rdx
    a716:	48 c1 e2 04          	shl    $0x4,%rdx
    a71a:	48 29 c2             	sub    %rax,%rdx
    a71d:	48 89 c8             	mov    %rcx,%rax
    a720:	48 01 c0             	add    %rax,%rax
    a723:	48 01 c8             	add    %rcx,%rax
    a726:	48 01 d0             	add    %rdx,%rax
    a729:	48 01 f8             	add    %rdi,%rax
    a72c:	48 8b 84 c5 e0 f4 ff 	mov    -0xb20(%rbp,%rax,8),%rax
    a733:	ff 
    a734:	8b 95 1c e9 ff ff    	mov    -0x16e4(%rbp),%edx
    a73a:	48 89 d9             	mov    %rbx,%rcx
    a73d:	48 89 c7             	mov    %rax,%rdi
    a740:	e8 31 32 00 00       	callq  d976 <func_65>
    a745:	48 89 05 fc ef 00 00 	mov    %rax,0xeffc(%rip)        # 19748 <g_721>
    a74c:	8b 1d 36 ab 00 00    	mov    0xab36(%rip),%ebx        # 15288 <g_212>
    a752:	8b 85 68 e9 ff ff    	mov    -0x1698(%rbp),%eax
    a758:	44 0f b6 e0          	movzbl %al,%r12d
    a75c:	48 8b 85 b0 e8 ff ff 	mov    -0x1750(%rbp),%rax
    a763:	48 89 85 a8 e8 ff ff 	mov    %rax,-0x1758(%rbp)
    a76a:	44 8b ad cc e8 ff ff 	mov    -0x1734(%rbp),%r13d
    a771:	44 8b b5 18 e9 ff ff 	mov    -0x16e8(%rbp),%r14d
    a778:	8b 85 cc e8 ff ff    	mov    -0x1734(%rbp),%eax
    a77e:	0f bf d0             	movswl %ax,%edx
    a781:	48 8b 05 c0 ef 00 00 	mov    0xefc0(%rip),%rax        # 19748 <g_721>
    a788:	8b 00                	mov    (%rax),%eax
    a78a:	83 f8 01             	cmp    $0x1,%eax
    a78d:	0f 95 c0             	setne  %al
    a790:	0f b6 c0             	movzbl %al,%eax
    a793:	89 d6                	mov    %edx,%esi
    a795:	89 c7                	mov    %eax,%edi
    a797:	e8 37 9c ff ff       	callq  43d3 <safe_sub_func_int16_t_s_s>
    a79c:	48 0f bf d0          	movswq %ax,%rdx
    a7a0:	48 8b 85 e8 ea ff ff 	mov    -0x1518(%rbp),%rax
    a7a7:	48 89 10             	mov    %rdx,(%rax)
    a7aa:	8b 85 cc e8 ff ff    	mov    -0x1734(%rbp),%eax
    a7b0:	89 c7                	mov    %eax,%edi
    a7b2:	48 89 bd a0 e8 ff ff 	mov    %rdi,-0x1760(%rbp)
    a7b9:	44 8b bd cc e8 ff ff 	mov    -0x1734(%rbp),%r15d
    a7c0:	48 c7 05 8d ef 00 00 	movq   $0x0,0xef8d(%rip)        # 19758 <g_744>
    a7c7:	00 00 00 00 
    a7cb:	b8 00 00 00 00       	mov    $0x0,%eax
    a7d0:	48 85 c0             	test   %rax,%rax
    a7d3:	0f 94 c0             	sete   %al
    a7d6:	0f b6 c8             	movzbl %al,%ecx
    a7d9:	0f b6 05 a0 a8 00 00 	movzbl 0xa8a0(%rip),%eax        # 15080 <g_103>
    a7e0:	0f b6 c0             	movzbl %al,%eax
    a7e3:	8b 15 9f aa 00 00    	mov    0xaa9f(%rip),%edx        # 15288 <g_212>
    a7e9:	83 c2 02             	add    $0x2,%edx
    a7ec:	89 d6                	mov    %edx,%esi
    a7ee:	48 63 d0             	movslq %eax,%rdx
    a7f1:	48 89 d0             	mov    %rdx,%rax
    a7f4:	48 c1 e0 02          	shl    $0x2,%rax
    a7f8:	48 01 d0             	add    %rdx,%rax
    a7fb:	48 01 c0             	add    %rax,%rax
    a7fe:	48 8d 14 30          	lea    (%rax,%rsi,1),%rdx
    a802:	48 8d 05 97 aa 00 00 	lea    0xaa97(%rip),%rax        # 152a0 <g_240>
    a809:	48 01 d0             	add    %rdx,%rax
    a80c:	0f b6 00             	movzbl (%rax),%eax
    a80f:	89 c2                	mov    %eax,%edx
    a811:	89 c8                	mov    %ecx,%eax
    a813:	89 d1                	mov    %edx,%ecx
    a815:	31 c1                	xor    %eax,%ecx
    a817:	0f b6 05 62 a8 00 00 	movzbl 0xa862(%rip),%eax        # 15080 <g_103>
    a81e:	0f b6 d0             	movzbl %al,%edx
    a821:	8b 05 61 aa 00 00    	mov    0xaa61(%rip),%eax        # 15288 <g_212>
    a827:	8d 78 02             	lea    0x2(%rax),%edi
    a82a:	41 89 c8             	mov    %ecx,%r8d
    a82d:	89 fe                	mov    %edi,%esi
    a82f:	48 63 ca             	movslq %edx,%rcx
    a832:	48 89 c8             	mov    %rcx,%rax
    a835:	48 c1 e0 02          	shl    $0x2,%rax
    a839:	48 01 c8             	add    %rcx,%rax
    a83c:	48 01 c0             	add    %rax,%rax
    a83f:	48 8d 0c 30          	lea    (%rax,%rsi,1),%rcx
    a843:	48 8d 05 56 aa 00 00 	lea    0xaa56(%rip),%rax        # 152a0 <g_240>
    a84a:	48 01 c8             	add    %rcx,%rax
    a84d:	44 88 00             	mov    %r8b,(%rax)
    a850:	89 f9                	mov    %edi,%ecx
    a852:	48 63 d2             	movslq %edx,%rdx
    a855:	48 89 d0             	mov    %rdx,%rax
    a858:	48 c1 e0 02          	shl    $0x2,%rax
    a85c:	48 01 d0             	add    %rdx,%rax
    a85f:	48 01 c0             	add    %rax,%rax
    a862:	48 8d 14 08          	lea    (%rax,%rcx,1),%rdx
    a866:	48 8d 05 33 aa 00 00 	lea    0xaa33(%rip),%rax        # 152a0 <g_240>
    a86d:	48 01 d0             	add    %rdx,%rax
    a870:	0f b6 00             	movzbl (%rax),%eax
    a873:	0f b6 c0             	movzbl %al,%eax
    a876:	be 00 00 00 00       	mov    $0x0,%esi
    a87b:	89 c7                	mov    %eax,%edi
    a87d:	e8 ca a3 ff ff       	callq  4c4c <safe_lshift_func_uint8_t_u_u>
    a882:	0f b6 c0             	movzbl %al,%eax
    a885:	be 01 00 00 00       	mov    $0x1,%esi
    a88a:	89 c7                	mov    %eax,%edi
    a88c:	e8 27 a6 ff ff       	callq  4eb8 <safe_add_func_uint32_t_u_u>
    a891:	3d fe 00 00 00       	cmp    $0xfe,%eax
    a896:	0f 96 c0             	setbe  %al
    a899:	0f b6 d0             	movzbl %al,%edx
    a89c:	48 8b 85 b0 e8 ff ff 	mov    -0x1750(%rbp),%rax
    a8a3:	48 39 c2             	cmp    %rax,%rdx
    a8a6:	0f 94 c0             	sete   %al
    a8a9:	0f b6 c0             	movzbl %al,%eax
    a8ac:	44 89 fe             	mov    %r15d,%esi
    a8af:	89 c7                	mov    %eax,%edi
    a8b1:	e8 c4 a5 ff ff       	callq  4e7a <safe_rshift_func_uint16_t_u_u>
    a8b6:	48 8b 05 8b ee 00 00 	mov    0xee8b(%rip),%rax        # 19748 <g_721>
    a8bd:	8b 00                	mov    (%rax),%eax
    a8bf:	48 98                	cltq   
    a8c1:	48 8b b5 a0 e8 ff ff 	mov    -0x1760(%rbp),%rsi
    a8c8:	48 89 c7             	mov    %rax,%rdi
    a8cb:	e8 71 9f ff ff       	callq  4841 <safe_add_func_int64_t_s_s>
    a8d0:	48 8b 85 c0 e8 ff ff 	mov    -0x1740(%rbp),%rax
    a8d7:	48 85 c0             	test   %rax,%rax
    a8da:	0f 95 c0             	setne  %al
    a8dd:	0f b6 c0             	movzbl %al,%eax
    a8e0:	44 89 f6             	mov    %r14d,%esi
    a8e3:	89 c7                	mov    %eax,%edi
    a8e5:	e8 f7 9b ff ff       	callq  44e1 <safe_lshift_func_int16_t_s_u>
    a8ea:	66 3d 4e 11          	cmp    $0x114e,%ax
    a8ee:	0f 9e c0             	setle  %al
    a8f1:	0f b6 c0             	movzbl %al,%eax
    a8f4:	44 89 ee             	mov    %r13d,%esi
    a8f7:	89 c7                	mov    %eax,%edi
    a8f9:	e8 f0 99 ff ff       	callq  42ee <safe_lshift_func_int8_t_s_u>
    a8fe:	48 0f be c0          	movsbq %al,%rax
    a902:	48 8b b5 a8 e8 ff ff 	mov    -0x1758(%rbp),%rsi
    a909:	48 89 c7             	mov    %rax,%rdi
    a90c:	e8 e6 a0 ff ff       	callq  49f7 <safe_div_func_int64_t_s_s>
    a911:	8b 15 79 a7 00 00    	mov    0xa779(%rip),%edx        # 15090 <g_131>
    a917:	89 d2                	mov    %edx,%edx
    a919:	48 39 d0             	cmp    %rdx,%rax
    a91c:	0f 9d c0             	setge  %al
    a91f:	0f b6 c0             	movzbl %al,%eax
    a922:	44 89 e6             	mov    %r12d,%esi
    a925:	89 c7                	mov    %eax,%edi
    a927:	e8 67 a2 ff ff       	callq  4b93 <safe_mul_func_uint8_t_u_u>
    a92c:	0f be c0             	movsbl %al,%eax
    a92f:	89 de                	mov    %ebx,%esi
    a931:	89 c7                	mov    %eax,%edi
    a933:	e8 b6 99 ff ff       	callq  42ee <safe_lshift_func_int8_t_s_u>
    a938:	48 8d 15 11 ee 00 00 	lea    0xee11(%rip),%rdx        # 19750 <g_746>
    a93f:	48 8b 12             	mov    (%rdx),%rdx
    a942:	8b 0a                	mov    (%rdx),%ecx
    a944:	0f be d0             	movsbl %al,%edx
    a947:	48 8d 05 02 ee 00 00 	lea    0xee02(%rip),%rax        # 19750 <g_746>
    a94e:	48 8b 00             	mov    (%rax),%rax
    a951:	21 ca                	and    %ecx,%edx
    a953:	89 10                	mov    %edx,(%rax)
    a955:	48 8b 05 2c a7 00 00 	mov    0xa72c(%rip),%rax        # 15088 <g_110>
    a95c:	48 83 c0 01          	add    $0x1,%rax
    a960:	48 89 05 21 a7 00 00 	mov    %rax,0xa721(%rip)        # 15088 <g_110>
    a967:	48 8b 05 1a a7 00 00 	mov    0xa71a(%rip),%rax        # 15088 <g_110>
    a96e:	48 83 f8 04          	cmp    $0x4,%rax
    a972:	0f 86 e5 f1 ff ff    	jbe    9b5d <func_56+0x2700>
    a978:	8b 9d 1c e9 ff ff    	mov    -0x16e4(%rbp),%ebx
    a97e:	0f b7 95 ea e8 ff ff 	movzwl -0x1716(%rbp),%edx
    a985:	48 8b 85 d8 ea ff ff 	mov    -0x1528(%rbp),%rax
    a98c:	66 89 10             	mov    %dx,(%rax)
    a98f:	8b 05 f3 a8 00 00    	mov    0xa8f3(%rip),%eax        # 15288 <g_212>
    a995:	8d 50 01             	lea    0x1(%rax),%edx
    a998:	8b 05 f2 a6 00 00    	mov    0xa6f2(%rip),%eax        # 15090 <g_131>
    a99e:	83 c0 02             	add    $0x2,%eax
    a9a1:	89 c1                	mov    %eax,%ecx
    a9a3:	89 d2                	mov    %edx,%edx
    a9a5:	48 89 d0             	mov    %rdx,%rax
    a9a8:	48 c1 e0 02          	shl    $0x2,%rax
    a9ac:	48 01 d0             	add    %rdx,%rax
    a9af:	48 01 c0             	add    %rax,%rax
    a9b2:	48 8d 14 08          	lea    (%rax,%rcx,1),%rdx
    a9b6:	48 8d 05 e3 a8 00 00 	lea    0xa8e3(%rip),%rax        # 152a0 <g_240>
    a9bd:	48 01 d0             	add    %rdx,%rax
    a9c0:	c6 00 fb             	movb   $0xfb,(%rax)
    a9c3:	8b 85 5c e9 ff ff    	mov    -0x16a4(%rbp),%eax
    a9c9:	0f b6 c0             	movzbl %al,%eax
    a9cc:	be fb 00 00 00       	mov    $0xfb,%esi
    a9d1:	89 c7                	mov    %eax,%edi
    a9d3:	e8 82 a1 ff ff       	callq  4b5a <safe_add_func_uint8_t_u_u>
    a9d8:	89 c7                	mov    %eax,%edi
    a9da:	0f b6 05 9f a6 00 00 	movzbl 0xa69f(%rip),%eax        # 15080 <g_103>
    a9e1:	0f b6 c0             	movzbl %al,%eax
    a9e4:	8d 50 01             	lea    0x1(%rax),%edx
    a9e7:	8b 35 9b a8 00 00    	mov    0xa89b(%rip),%esi        # 15288 <g_212>
    a9ed:	41 89 f0             	mov    %esi,%r8d
    a9f0:	48 63 ca             	movslq %edx,%rcx
    a9f3:	48 89 c8             	mov    %rcx,%rax
    a9f6:	48 01 c0             	add    %rax,%rax
    a9f9:	48 01 c8             	add    %rcx,%rax
    a9fc:	48 01 c0             	add    %rax,%rax
    a9ff:	48 8d 4d d0          	lea    -0x30(%rbp),%rcx
    aa03:	48 01 c8             	add    %rcx,%rax
    aa06:	4c 01 c0             	add    %r8,%rax
    aa09:	48 2d 90 12 00 00    	sub    $0x1290,%rax
    aa0f:	0f b6 00             	movzbl (%rax),%eax
    aa12:	44 8d 40 ff          	lea    -0x1(%rax),%r8d
    aa16:	41 89 f1             	mov    %esi,%r9d
    aa19:	48 63 ca             	movslq %edx,%rcx
    aa1c:	48 89 c8             	mov    %rcx,%rax
    aa1f:	48 01 c0             	add    %rax,%rax
    aa22:	48 01 c8             	add    %rcx,%rax
    aa25:	48 01 c0             	add    %rax,%rax
    aa28:	48 8d 4d d0          	lea    -0x30(%rbp),%rcx
    aa2c:	48 01 c8             	add    %rcx,%rax
    aa2f:	4c 01 c8             	add    %r9,%rax
    aa32:	48 2d 90 12 00 00    	sub    $0x1290,%rax
    aa38:	44 88 00             	mov    %r8b,(%rax)
    aa3b:	89 f1                	mov    %esi,%ecx
    aa3d:	48 63 d2             	movslq %edx,%rdx
    aa40:	48 89 d0             	mov    %rdx,%rax
    aa43:	48 01 c0             	add    %rax,%rax
    aa46:	48 01 d0             	add    %rdx,%rax
    aa49:	48 01 c0             	add    %rax,%rax
    aa4c:	48 8d 75 d0          	lea    -0x30(%rbp),%rsi
    aa50:	48 01 f0             	add    %rsi,%rax
    aa53:	48 01 c8             	add    %rcx,%rax
    aa56:	48 2d 90 12 00 00    	sub    $0x1290,%rax
    aa5c:	0f b6 00             	movzbl (%rax),%eax
    aa5f:	40 38 c7             	cmp    %al,%dil
    aa62:	0f 94 c0             	sete   %al
    aa65:	0f b6 d0             	movzbl %al,%edx
    aa68:	8b 85 00 e9 ff ff    	mov    -0x1700(%rbp),%eax
    aa6e:	3d 39 1a 00 00       	cmp    $0x1a39,%eax
    aa73:	0f 94 c0             	sete   %al
    aa76:	0f b6 c0             	movzbl %al,%eax
    aa79:	39 c2                	cmp    %eax,%edx
    aa7b:	7f 60                	jg     aadd <func_56+0x3680>
    aa7d:	0f b6 05 46 a8 00 00 	movzbl 0xa846(%rip),%eax        # 152ca <g_240+0x2a>
    aa84:	0f b6 c0             	movzbl %al,%eax
    aa87:	89 c6                	mov    %eax,%esi
    aa89:	bf 3a c6 bd ab       	mov    $0xabbdc63a,%edi
    aa8e:	e8 6a a4 ff ff       	callq  4efd <safe_mod_func_uint32_t_u_u>
    aa93:	89 85 3c e9 ff ff    	mov    %eax,-0x16c4(%rbp)
    aa99:	48 8b 95 e8 e9 ff ff 	mov    -0x1618(%rbp),%rdx
    aaa0:	48 8b 85 e0 ea ff ff 	mov    -0x1520(%rbp),%rax
    aaa7:	48 89 10             	mov    %rdx,(%rax)
    aaaa:	48 8b 85 e0 ea ff ff 	mov    -0x1520(%rbp),%rax
    aab1:	48 8b 00             	mov    (%rax),%rax
    aab4:	48 8d 15 85 ca 00 00 	lea    0xca85(%rip),%rdx        # 17540 <g_661>
    aabb:	48 39 d0             	cmp    %rdx,%rax
    aabe:	0f 94 c0             	sete   %al
    aac1:	0f b6 d0             	movzbl %al,%edx
    aac4:	8b 85 b4 ed ff ff    	mov    -0x124c(%rbp),%eax
    aaca:	0f b7 c0             	movzwl %ax,%eax
    aacd:	89 d6                	mov    %edx,%esi
    aacf:	89 c7                	mov    %eax,%edi
    aad1:	e8 67 a2 ff ff       	callq  4d3d <safe_mul_func_uint16_t_u_u>
    aad6:	b8 00 00 00 00       	mov    $0x0,%eax
    aadb:	eb 05                	jmp    aae2 <func_56+0x3685>
    aadd:	b8 01 00 00 00       	mov    $0x1,%eax
    aae2:	89 de                	mov    %ebx,%esi
    aae4:	89 c7                	mov    %eax,%edi
    aae6:	e8 cd a3 ff ff       	callq  4eb8 <safe_add_func_uint32_t_u_u>
    aaeb:	89 85 0c e9 ff ff    	mov    %eax,-0x16f4(%rbp)
    aaf1:	48 8b 05 28 ec 00 00 	mov    0xec28(%rip),%rax        # 19720 <g_294>
    aaf8:	48 8b 00             	mov    (%rax),%rax
    aafb:	e9 12 19 00 00       	jmpq   c412 <func_56+0x4fb5>
    ab00:	8b 05 8a a5 00 00    	mov    0xa58a(%rip),%eax        # 15090 <g_131>
    ab06:	83 c0 01             	add    $0x1,%eax
    ab09:	89 05 81 a5 00 00    	mov    %eax,0xa581(%rip)        # 15090 <g_131>
    ab0f:	8b 05 7b a5 00 00    	mov    0xa57b(%rip),%eax        # 15090 <g_131>
    ab15:	83 f8 07             	cmp    $0x7,%eax
    ab18:	0f 86 d6 eb ff ff    	jbe    96f4 <func_56+0x2297>
    ab1e:	eb 01                	jmp    ab21 <func_56+0x36c4>
    ab20:	90                   	nop
    ab21:	48 8b 85 38 ea ff ff 	mov    -0x15c8(%rbp),%rax
    ab28:	48 89 85 28 ee ff ff 	mov    %rax,-0x11d8(%rbp)
    ab2f:	48 8d 05 1a ec 00 00 	lea    0xec1a(%rip),%rax        # 19750 <g_746>
    ab36:	48 8b 00             	mov    (%rax),%rax
    ab39:	8b 00                	mov    (%rax),%eax
    ab3b:	85 c0                	test   %eax,%eax
    ab3d:	0f 85 c4 18 00 00    	jne    c407 <func_56+0x4faa>
    ab43:	0f b6 85 db e8 ff ff 	movzbl -0x1725(%rbp),%eax
    ab4a:	84 c0                	test   %al,%al
    ab4c:	0f 85 b8 18 00 00    	jne    c40a <func_56+0x4fad>
    ab52:	c6 85 db e8 ff ff 00 	movb   $0x0,-0x1725(%rbp)
    ab59:	e9 77 18 00 00       	jmpq   c3d5 <func_56+0x4f78>
    ab5e:	48 c7 85 10 ea ff ff 	movq   $0x0,-0x15f0(%rbp)
    ab65:	00 00 00 00 
    ab69:	48 8d 85 10 ea ff ff 	lea    -0x15f0(%rbp),%rax
    ab70:	48 89 85 a0 eb ff ff 	mov    %rax,-0x1460(%rbp)
    ab77:	48 c7 85 f0 ef ff ff 	movq   $0x0,-0x1010(%rbp)
    ab7e:	00 00 00 00 
    ab82:	48 c7 85 f8 ef ff ff 	movq   $0x0,-0x1008(%rbp)
    ab89:	00 00 00 00 
    ab8d:	48 8d 05 5e cb 00 00 	lea    0xcb5e(%rip),%rax        # 176f2 <g_764+0x12>
    ab94:	48 89 85 00 f0 ff ff 	mov    %rax,-0x1000(%rbp)
    ab9b:	48 c7 85 08 f0 ff ff 	movq   $0x0,-0xff8(%rbp)
    aba2:	00 00 00 00 
    aba6:	48 c7 85 10 f0 ff ff 	movq   $0x0,-0xff0(%rbp)
    abad:	00 00 00 00 
    abb1:	48 8d 05 3a cb 00 00 	lea    0xcb3a(%rip),%rax        # 176f2 <g_764+0x12>
    abb8:	48 89 85 18 f0 ff ff 	mov    %rax,-0xfe8(%rbp)
    abbf:	48 c7 85 20 f0 ff ff 	movq   $0x0,-0xfe0(%rbp)
    abc6:	00 00 00 00 
    abca:	48 c7 85 28 f0 ff ff 	movq   $0x0,-0xfd8(%rbp)
    abd1:	00 00 00 00 
    abd5:	48 c7 85 30 f0 ff ff 	movq   $0x0,-0xfd0(%rbp)
    abdc:	00 00 00 00 
    abe0:	48 8d 05 0b cb 00 00 	lea    0xcb0b(%rip),%rax        # 176f2 <g_764+0x12>
    abe7:	48 89 85 38 f0 ff ff 	mov    %rax,-0xfc8(%rbp)
    abee:	48 c7 85 40 f0 ff ff 	movq   $0x0,-0xfc0(%rbp)
    abf5:	00 00 00 00 
    abf9:	48 c7 85 48 f0 ff ff 	movq   $0x0,-0xfb8(%rbp)
    ac00:	00 00 00 00 
    ac04:	48 8d 05 e7 ca 00 00 	lea    0xcae7(%rip),%rax        # 176f2 <g_764+0x12>
    ac0b:	48 89 85 50 f0 ff ff 	mov    %rax,-0xfb0(%rbp)
    ac12:	48 c7 85 58 f0 ff ff 	movq   $0x0,-0xfa8(%rbp)
    ac19:	00 00 00 00 
    ac1d:	48 c7 85 60 f0 ff ff 	movq   $0x0,-0xfa0(%rbp)
    ac24:	00 00 00 00 
    ac28:	48 8d 05 c3 ca 00 00 	lea    0xcac3(%rip),%rax        # 176f2 <g_764+0x12>
    ac2f:	48 89 85 68 f0 ff ff 	mov    %rax,-0xf98(%rbp)
    ac36:	48 8d 85 f0 ef ff ff 	lea    -0x1010(%rbp),%rax
    ac3d:	48 83 c0 08          	add    $0x8,%rax
    ac41:	48 89 85 a8 eb ff ff 	mov    %rax,-0x1458(%rbp)
    ac48:	48 8d 85 e0 e9 ff ff 	lea    -0x1620(%rbp),%rax
    ac4f:	48 89 85 40 ee ff ff 	mov    %rax,-0x11c0(%rbp)
    ac56:	48 8d 85 e0 e9 ff ff 	lea    -0x1620(%rbp),%rax
    ac5d:	48 89 85 48 ee ff ff 	mov    %rax,-0x11b8(%rbp)
    ac64:	48 8d 85 e0 e9 ff ff 	lea    -0x1620(%rbp),%rax
    ac6b:	48 89 85 50 ee ff ff 	mov    %rax,-0x11b0(%rbp)
    ac72:	48 8d 85 e0 e9 ff ff 	lea    -0x1620(%rbp),%rax
    ac79:	48 89 85 58 ee ff ff 	mov    %rax,-0x11a8(%rbp)
    ac80:	48 8d 85 e0 e9 ff ff 	lea    -0x1620(%rbp),%rax
    ac87:	48 89 85 60 ee ff ff 	mov    %rax,-0x11a0(%rbp)
    ac8e:	48 8d 85 e0 e9 ff ff 	lea    -0x1620(%rbp),%rax
    ac95:	48 89 85 68 ee ff ff 	mov    %rax,-0x1198(%rbp)
    ac9c:	48 8d 85 e0 e9 ff ff 	lea    -0x1620(%rbp),%rax
    aca3:	48 89 85 70 ee ff ff 	mov    %rax,-0x1190(%rbp)
    acaa:	48 8d 85 e0 e9 ff ff 	lea    -0x1620(%rbp),%rax
    acb1:	48 89 85 78 ee ff ff 	mov    %rax,-0x1188(%rbp)
    acb8:	48 8d 85 40 ee ff ff 	lea    -0x11c0(%rbp),%rax
    acbf:	48 83 c0 08          	add    $0x8,%rax
    acc3:	48 89 85 b0 eb ff ff 	mov    %rax,-0x1450(%rbp)
    acca:	48 8d 85 00 ee ff ff 	lea    -0x1200(%rbp),%rax
    acd1:	48 83 c0 28          	add    $0x28,%rax
    acd5:	48 89 85 b8 eb ff ff 	mov    %rax,-0x1448(%rbp)
    acdc:	c7 85 88 e9 ff ff ff 	movl   $0xffffffff,-0x1678(%rbp)
    ace3:	ff ff ff 
    ace6:	c7 85 8c e9 ff ff 94 	movl   $0x29018694,-0x1674(%rbp)
    aced:	86 01 29 
    acf0:	c7 85 90 e9 ff ff c5 	movl   $0xfcb2a0c5,-0x1670(%rbp)
    acf7:	a0 b2 fc 
    acfa:	c7 85 94 e9 ff ff cf 	movl   $0xa51159cf,-0x166c(%rbp)
    ad01:	59 11 a5 
    ad04:	c7 85 98 e9 ff ff 13 	movl   $0x836a0513,-0x1668(%rbp)
    ad0b:	05 6a 83 
    ad0e:	c7 85 90 ec ff ff a9 	movl   $0x1dbe8ca9,-0x1370(%rbp)
    ad15:	8c be 1d 
    ad18:	c7 85 94 ec ff ff a9 	movl   $0x1dbe8ca9,-0x136c(%rbp)
    ad1f:	8c be 1d 
    ad22:	c7 85 98 ec ff ff a9 	movl   $0x1dbe8ca9,-0x1368(%rbp)
    ad29:	8c be 1d 
    ad2c:	c7 85 9c ec ff ff a9 	movl   $0x1dbe8ca9,-0x1364(%rbp)
    ad33:	8c be 1d 
    ad36:	c7 85 a0 ec ff ff a9 	movl   $0x1dbe8ca9,-0x1360(%rbp)
    ad3d:	8c be 1d 
    ad40:	48 8d 85 e0 f4 ff ff 	lea    -0xb20(%rbp),%rax
    ad47:	48 05 58 01 00 00    	add    $0x158,%rax
    ad4d:	48 89 85 18 ea ff ff 	mov    %rax,-0x15e8(%rbp)
    ad54:	48 c7 85 c0 eb ff ff 	movq   $0x0,-0x1440(%rbp)
    ad5b:	00 00 00 00 
    ad5f:	c7 85 9c e9 ff ff 36 	movl   $0xe8a78436,-0x1664(%rbp)
    ad66:	84 a7 e8 
    ad69:	48 b8 27 de 90 76 94 	movabs $0x6eec53947690de27,%rax
    ad70:	53 ec 6e 
    ad73:	48 89 85 c8 eb ff ff 	mov    %rax,-0x1438(%rbp)
    ad7a:	48 b8 00 c9 00 c9 00 	movabs $0xc900c900c900c900,%rax
    ad81:	c9 00 c9 
    ad84:	48 89 85 f0 ec ff ff 	mov    %rax,-0x1310(%rbp)
    ad8b:	66 c7 85 f8 ec ff ff 	movw   $0xc900,-0x1308(%rbp)
    ad92:	00 c9 
    ad94:	48 89 85 fa ec ff ff 	mov    %rax,-0x1306(%rbp)
    ad9b:	66 c7 85 02 ed ff ff 	movw   $0xc900,-0x12fe(%rbp)
    ada2:	00 c9 
    ada4:	48 89 85 04 ed ff ff 	mov    %rax,-0x12fc(%rbp)
    adab:	66 c7 85 0c ed ff ff 	movw   $0xc900,-0x12f4(%rbp)
    adb2:	00 c9 
    adb4:	48 8d 05 e5 c7 00 00 	lea    0xc7e5(%rip),%rax        # 175a0 <g_668>
    adbb:	48 89 85 d0 eb ff ff 	mov    %rax,-0x1430(%rbp)
    adc2:	48 8d 05 7f e9 00 00 	lea    0xe97f(%rip),%rax        # 19748 <g_721>
    adc9:	48 89 85 20 ea ff ff 	mov    %rax,-0x15e0(%rbp)
    add0:	48 8d 85 20 ea ff ff 	lea    -0x15e0(%rbp),%rax
    add7:	48 89 85 d8 eb ff ff 	mov    %rax,-0x1428(%rbp)
    adde:	c7 85 a0 e9 ff ff 02 	movl   $0xe0e43e02,-0x1660(%rbp)
    ade5:	3e e4 e0 
    ade8:	c7 85 a4 e9 ff ff 44 	movl   $0xa65bbf44,-0x165c(%rbp)
    adef:	bf 5b a6 
    adf2:	c7 85 70 f0 ff ff b3 	movl   $0xa71ab4b3,-0xf90(%rbp)
    adf9:	b4 1a a7 
    adfc:	c7 85 74 f0 ff ff 4c 	movl   $0x9633544c,-0xf8c(%rbp)
    ae03:	54 33 96 
    ae06:	c7 85 78 f0 ff ff 0f 	movl   $0x26dc2e0f,-0xf88(%rbp)
    ae0d:	2e dc 26 
    ae10:	c7 85 7c f0 ff ff ff 	movl   $0xffffffff,-0xf84(%rbp)
    ae17:	ff ff ff 
    ae1a:	c7 85 80 f0 ff ff ff 	movl   $0xffffffff,-0xf80(%rbp)
    ae21:	ff ff ff 
    ae24:	c7 85 84 f0 ff ff 0f 	movl   $0x26dc2e0f,-0xf7c(%rbp)
    ae2b:	2e dc 26 
    ae2e:	c7 85 88 f0 ff ff 4c 	movl   $0x9633544c,-0xf78(%rbp)
    ae35:	54 33 96 
    ae38:	c7 85 8c f0 ff ff b3 	movl   $0xa71ab4b3,-0xf74(%rbp)
    ae3f:	b4 1a a7 
    ae42:	c7 85 90 f0 ff ff 0f 	movl   $0x26dc2e0f,-0xf70(%rbp)
    ae49:	2e dc 26 
    ae4c:	c7 85 94 f0 ff ff b3 	movl   $0xa71ab4b3,-0xf6c(%rbp)
    ae53:	b4 1a a7 
    ae56:	c7 85 98 f0 ff ff 4c 	movl   $0x9633544c,-0xf68(%rbp)
    ae5d:	54 33 96 
    ae60:	c7 85 9c f0 ff ff 0f 	movl   $0x26dc2e0f,-0xf64(%rbp)
    ae67:	2e dc 26 
    ae6a:	c7 85 a0 f0 ff ff ff 	movl   $0xffffffff,-0xf60(%rbp)
    ae71:	ff ff ff 
    ae74:	c7 85 a4 f0 ff ff ff 	movl   $0xffffffff,-0xf5c(%rbp)
    ae7b:	ff ff ff 
    ae7e:	c7 85 a8 f0 ff ff 0f 	movl   $0x26dc2e0f,-0xf58(%rbp)
    ae85:	2e dc 26 
    ae88:	c7 85 ac f0 ff ff 4c 	movl   $0x9633544c,-0xf54(%rbp)
    ae8f:	54 33 96 
    ae92:	c7 85 b0 f0 ff ff b3 	movl   $0xa71ab4b3,-0xf50(%rbp)
    ae99:	b4 1a a7 
    ae9c:	c7 85 b4 f0 ff ff 0f 	movl   $0x26dc2e0f,-0xf4c(%rbp)
    aea3:	2e dc 26 
    aea6:	c7 85 b8 f0 ff ff b3 	movl   $0xa71ab4b3,-0xf48(%rbp)
    aead:	b4 1a a7 
    aeb0:	c7 85 bc f0 ff ff 4c 	movl   $0x9633544c,-0xf44(%rbp)
    aeb7:	54 33 96 
    aeba:	c7 85 c0 f0 ff ff 0f 	movl   $0x26dc2e0f,-0xf40(%rbp)
    aec1:	2e dc 26 
    aec4:	c7 85 c4 f0 ff ff ff 	movl   $0xffffffff,-0xf3c(%rbp)
    aecb:	ff ff ff 
    aece:	c7 85 c8 f0 ff ff ff 	movl   $0xffffffff,-0xf38(%rbp)
    aed5:	ff ff ff 
    aed8:	c7 85 cc f0 ff ff 0f 	movl   $0x26dc2e0f,-0xf34(%rbp)
    aedf:	2e dc 26 
    aee2:	c7 85 d0 f0 ff ff 4c 	movl   $0x9633544c,-0xf30(%rbp)
    aee9:	54 33 96 
    aeec:	c7 85 d4 f0 ff ff b3 	movl   $0xa71ab4b3,-0xf2c(%rbp)
    aef3:	b4 1a a7 
    aef6:	c7 85 d8 f0 ff ff 0f 	movl   $0x26dc2e0f,-0xf28(%rbp)
    aefd:	2e dc 26 
    af00:	c7 85 dc f0 ff ff b3 	movl   $0xa71ab4b3,-0xf24(%rbp)
    af07:	b4 1a a7 
    af0a:	c7 85 e0 f0 ff ff 4c 	movl   $0x9633544c,-0xf20(%rbp)
    af11:	54 33 96 
    af14:	c7 85 e4 f0 ff ff 0f 	movl   $0x26dc2e0f,-0xf1c(%rbp)
    af1b:	2e dc 26 
    af1e:	c7 85 e8 f0 ff ff ff 	movl   $0xffffffff,-0xf18(%rbp)
    af25:	ff ff ff 
    af28:	c7 85 ec f0 ff ff ff 	movl   $0xffffffff,-0xf14(%rbp)
    af2f:	ff ff ff 
    af32:	c7 85 f0 f0 ff ff 0f 	movl   $0x26dc2e0f,-0xf10(%rbp)
    af39:	2e dc 26 
    af3c:	c7 85 f4 f0 ff ff 4c 	movl   $0x9633544c,-0xf0c(%rbp)
    af43:	54 33 96 
    af46:	c7 85 f8 f0 ff ff b3 	movl   $0xa71ab4b3,-0xf08(%rbp)
    af4d:	b4 1a a7 
    af50:	c7 85 fc f0 ff ff 0f 	movl   $0x26dc2e0f,-0xf04(%rbp)
    af57:	2e dc 26 
    af5a:	c7 85 00 f1 ff ff b3 	movl   $0xa71ab4b3,-0xf00(%rbp)
    af61:	b4 1a a7 
    af64:	c7 85 04 f1 ff ff 4c 	movl   $0x9633544c,-0xefc(%rbp)
    af6b:	54 33 96 
    af6e:	c7 85 08 f1 ff ff 0f 	movl   $0x26dc2e0f,-0xef8(%rbp)
    af75:	2e dc 26 
    af78:	c7 85 0c f1 ff ff 01 	movl   $0x1,-0xef4(%rbp)
    af7f:	00 00 00 
    af82:	c7 85 10 f1 ff ff 01 	movl   $0x1,-0xef0(%rbp)
    af89:	00 00 00 
    af8c:	c7 85 14 f1 ff ff ff 	movl   $0xffffffff,-0xeec(%rbp)
    af93:	ff ff ff 
    af96:	c7 85 18 f1 ff ff 07 	movl   $0x7,-0xee8(%rbp)
    af9d:	00 00 00 
    afa0:	c7 85 1c f1 ff ff 2e 	movl   $0xc60b772e,-0xee4(%rbp)
    afa7:	77 0b c6 
    afaa:	c7 85 20 f1 ff ff ff 	movl   $0xffffffff,-0xee0(%rbp)
    afb1:	ff ff ff 
    afb4:	c6 85 e5 e8 ff ff 0c 	movb   $0xc,-0x171b(%rbp)
    afbb:	48 8d 05 9e 60 00 00 	lea    0x609e(%rip),%rax        # 11060 <g_1193>
    afc2:	48 89 85 e0 eb ff ff 	mov    %rax,-0x1420(%rbp)
    afc9:	48 8d 05 d0 e7 00 00 	lea    0xe7d0(%rip),%rax        # 197a0 <g_869>
    afd0:	48 89 85 20 ef ff ff 	mov    %rax,-0x10e0(%rbp)
    afd7:	48 8d 05 c2 e7 00 00 	lea    0xe7c2(%rip),%rax        # 197a0 <g_869>
    afde:	48 89 85 28 ef ff ff 	mov    %rax,-0x10d8(%rbp)
    afe5:	48 c7 85 30 ef ff ff 	movq   $0x0,-0x10d0(%rbp)
    afec:	00 00 00 00 
    aff0:	48 8d 05 a9 e7 00 00 	lea    0xe7a9(%rip),%rax        # 197a0 <g_869>
    aff7:	48 89 85 38 ef ff ff 	mov    %rax,-0x10c8(%rbp)
    affe:	48 8d 05 9b e7 00 00 	lea    0xe79b(%rip),%rax        # 197a0 <g_869>
    b005:	48 89 85 40 ef ff ff 	mov    %rax,-0x10c0(%rbp)
    b00c:	48 c7 85 48 ef ff ff 	movq   $0x0,-0x10b8(%rbp)
    b013:	00 00 00 00 
    b017:	48 8d 05 82 e7 00 00 	lea    0xe782(%rip),%rax        # 197a0 <g_869>
    b01e:	48 89 85 50 ef ff ff 	mov    %rax,-0x10b0(%rbp)
    b025:	48 8d 05 74 e7 00 00 	lea    0xe774(%rip),%rax        # 197a0 <g_869>
    b02c:	48 89 85 58 ef ff ff 	mov    %rax,-0x10a8(%rbp)
    b033:	48 c7 85 60 ef ff ff 	movq   $0x0,-0x10a0(%rbp)
    b03a:	00 00 00 00 
    b03e:	48 8d 05 5b e7 00 00 	lea    0xe75b(%rip),%rax        # 197a0 <g_869>
    b045:	48 89 85 68 ef ff ff 	mov    %rax,-0x1098(%rbp)
    b04c:	66 c7 85 f6 e8 ff ff 	movw   $0x5,-0x170a(%rbp)
    b053:	05 00 
    b055:	c7 85 20 e9 ff ff 00 	movl   $0x0,-0x16e0(%rbp)
    b05c:	00 00 00 
    b05f:	eb 1b                	jmp    b07c <func_56+0x3c1f>
    b061:	8b 85 20 e9 ff ff    	mov    -0x16e0(%rbp),%eax
    b067:	48 98                	cltq   
    b069:	48 c7 84 c5 80 ee ff 	movq   $0x0,-0x1180(%rbp,%rax,8)
    b070:	ff 00 00 00 00 
    b075:	83 85 20 e9 ff ff 01 	addl   $0x1,-0x16e0(%rbp)
    b07c:	83 bd 20 e9 ff ff 08 	cmpl   $0x8,-0x16e0(%rbp)
    b083:	7e dc                	jle    b061 <func_56+0x3c04>
    b085:	8b 05 fd a1 00 00    	mov    0xa1fd(%rip),%eax        # 15288 <g_212>
    b08b:	8d 48 03             	lea    0x3(%rax),%ecx
    b08e:	0f b6 85 db e8 ff ff 	movzbl -0x1725(%rbp),%eax
    b095:	0f b6 c0             	movzbl %al,%eax
    b098:	83 c0 07             	add    $0x7,%eax
    b09b:	48 63 d0             	movslq %eax,%rdx
    b09e:	89 c9                	mov    %ecx,%ecx
    b0a0:	48 89 c8             	mov    %rcx,%rax
    b0a3:	48 c1 e0 02          	shl    $0x2,%rax
    b0a7:	48 01 c8             	add    %rcx,%rax
    b0aa:	48 01 c0             	add    %rax,%rax
    b0ad:	48 01 c2             	add    %rax,%rdx
    b0b0:	48 8d 05 e9 a1 00 00 	lea    0xa1e9(%rip),%rax        # 152a0 <g_240>
    b0b7:	48 01 d0             	add    %rdx,%rax
    b0ba:	0f b6 00             	movzbl (%rax),%eax
    b0bd:	84 c0                	test   %al,%al
    b0bf:	0f 85 21 13 00 00    	jne    c3e6 <func_56+0x4f89>
    b0c5:	8b 05 3d c6 00 00    	mov    0xc63d(%rip),%eax        # 17708 <g_767+0x8>
    b0cb:	0f bf d8             	movswl %ax,%ebx
    b0ce:	48 8b 85 a0 eb ff ff 	mov    -0x1460(%rbp),%rax
    b0d5:	48 8d 15 ea a1 00 00 	lea    0xa1ea(%rip),%rdx        # 152c6 <g_240+0x26>
    b0dc:	48 89 10             	mov    %rdx,(%rax)
    b0df:	48 8b 85 a0 eb ff ff 	mov    -0x1460(%rbp),%rax
    b0e6:	48 8b 10             	mov    (%rax),%rdx
    b0e9:	48 8b 85 a8 eb ff ff 	mov    -0x1458(%rbp),%rax
    b0f0:	48 89 10             	mov    %rdx,(%rax)
    b0f3:	48 8b 95 48 ee ff ff 	mov    -0x11b8(%rbp),%rdx
    b0fa:	48 8b 85 b0 eb ff ff 	mov    -0x1450(%rbp),%rax
    b101:	48 89 10             	mov    %rdx,(%rax)
    b104:	48 8b 85 b0 eb ff ff 	mov    -0x1450(%rbp),%rax
    b10b:	48 8b 10             	mov    (%rax),%rdx
    b10e:	48 8b 05 4b ed 00 00 	mov    0xed4b(%rip),%rax        # 19e60 <g_782>
    b115:	48 39 c2             	cmp    %rax,%rdx
    b118:	0f 95 c0             	setne  %al
    b11b:	44 0f b6 f0          	movzbl %al,%r14d
    b11f:	8b 85 50 e9 ff ff    	mov    -0x16b0(%rbp),%eax
    b125:	44 0f be e0          	movsbl %al,%r12d
    b129:	48 8b 85 b8 e8 ff ff 	mov    -0x1748(%rbp),%rax
    b130:	0f b6 00             	movzbl (%rax),%eax
    b133:	44 0f be e8          	movsbl %al,%r13d
    b137:	8b 85 cc e8 ff ff    	mov    -0x1734(%rbp),%eax
    b13d:	89 c2                	mov    %eax,%edx
    b13f:	48 8b 85 b0 e8 ff ff 	mov    -0x1750(%rbp),%rax
    b146:	48 39 c2             	cmp    %rax,%rdx
    b149:	0f 93 c0             	setae  %al
    b14c:	0f b6 d0             	movzbl %al,%edx
    b14f:	0f b7 05 fa c5 00 00 	movzwl 0xc5fa(%rip),%eax        # 17750 <g_772+0x10>
    b156:	0f b6 c0             	movzbl %al,%eax
    b159:	89 d6                	mov    %edx,%esi
    b15b:	89 c7                	mov    %eax,%edi
    b15d:	e8 79 9a ff ff       	callq  4bdb <safe_div_func_uint8_t_u_u>
    b162:	0f b6 d0             	movzbl %al,%edx
    b165:	48 8b 85 b8 e8 ff ff 	mov    -0x1748(%rbp),%rax
    b16c:	0f b6 00             	movzbl (%rax),%eax
    b16f:	0f be c0             	movsbl %al,%eax
    b172:	39 c2                	cmp    %eax,%edx
    b174:	0f 94 c0             	sete   %al
    b177:	0f b6 c0             	movzbl %al,%eax
    b17a:	44 89 ee             	mov    %r13d,%esi
    b17d:	89 c7                	mov    %eax,%edi
    b17f:	e8 81 9a ff ff       	callq  4c05 <safe_lshift_func_uint8_t_u_s>
    b184:	0f be c0             	movsbl %al,%eax
    b187:	44 89 e6             	mov    %r12d,%esi
    b18a:	89 c7                	mov    %eax,%edi
    b18c:	e8 43 90 ff ff       	callq  41d4 <safe_add_func_int8_t_s_s>
    b191:	48 0f be c0          	movsbq %al,%rax
    b195:	25 e9 00 00 00       	and    $0xe9,%eax
    b19a:	48 85 c0             	test   %rax,%rax
    b19d:	75 0b                	jne    b1aa <func_56+0x3d4d>
    b19f:	0f b6 85 db e8 ff ff 	movzbl -0x1725(%rbp),%eax
    b1a6:	84 c0                	test   %al,%al
    b1a8:	74 07                	je     b1b1 <func_56+0x3d54>
    b1aa:	b8 01 00 00 00       	mov    $0x1,%eax
    b1af:	eb 05                	jmp    b1b6 <func_56+0x3d59>
    b1b1:	b8 00 00 00 00       	mov    $0x0,%eax
    b1b6:	44 39 f0             	cmp    %r14d,%eax
    b1b9:	0f 9d c0             	setge  %al
    b1bc:	0f b6 d0             	movzbl %al,%edx
    b1bf:	48 8b 85 48 ea ff ff 	mov    -0x15b8(%rbp),%rax
    b1c6:	66 89 10             	mov    %dx,(%rax)
    b1c9:	48 8b 85 48 ea ff ff 	mov    -0x15b8(%rbp),%rax
    b1d0:	0f b7 00             	movzwl (%rax),%eax
    b1d3:	48 0f bf d0          	movswq %ax,%rdx
    b1d7:	48 8b 85 b0 e8 ff ff 	mov    -0x1750(%rbp),%rax
    b1de:	48 21 d0             	and    %rdx,%rax
    b1e1:	8b 95 cc e8 ff ff    	mov    -0x1734(%rbp),%edx
    b1e7:	89 d2                	mov    %edx,%edx
    b1e9:	48 39 d0             	cmp    %rdx,%rax
    b1ec:	0f 94 c0             	sete   %al
    b1ef:	0f b6 d0             	movzbl %al,%edx
    b1f2:	0f b6 05 ca a0 00 00 	movzbl 0xa0ca(%rip),%eax        # 152c3 <g_240+0x23>
    b1f9:	0f b6 c0             	movzbl %al,%eax
    b1fc:	39 c2                	cmp    %eax,%edx
    b1fe:	b8 01 00 00 00       	mov    $0x1,%eax
    b203:	83 c8 f7             	or     $0xfffffff7,%eax
    b206:	98                   	cwtl   
    b207:	89 de                	mov    %ebx,%esi
    b209:	89 c7                	mov    %eax,%edi
    b20b:	e8 45 92 ff ff       	callq  4455 <safe_div_func_int16_t_s_s>
    b210:	8b 85 cc e8 ff ff    	mov    -0x1734(%rbp),%eax
    b216:	89 c2                	mov    %eax,%edx
    b218:	48 8b 85 b0 e8 ff ff 	mov    -0x1750(%rbp),%rax
    b21f:	48 09 c2             	or     %rax,%rdx
    b222:	8b 85 b0 ed ff ff    	mov    -0x1250(%rbp),%eax
    b228:	89 c1                	mov    %eax,%ecx
    b22a:	89 d0                	mov    %edx,%eax
    b22c:	31 c8                	xor    %ecx,%eax
    b22e:	89 85 b0 ed ff ff    	mov    %eax,-0x1250(%rbp)
    b234:	48 c7 85 40 ea ff ff 	movq   $0x0,-0x15c0(%rbp)
    b23b:	00 00 00 00 
    b23f:	e9 68 0f 00 00       	jmpq   c1ac <func_56+0x4d4f>
    b244:	c7 85 a8 e9 ff ff 03 	movl   $0x3,-0x1658(%rbp)
    b24b:	00 00 00 
    b24e:	48 8d 85 78 ec ff ff 	lea    -0x1388(%rbp),%rax
    b255:	48 89 85 28 ea ff ff 	mov    %rax,-0x15d8(%rbp)
    b25c:	c7 85 ac e9 ff ff af 	movl   $0x981e6baf,-0x1654(%rbp)
    b263:	6b 1e 98 
    b266:	c7 85 24 e9 ff ff 93 	movl   $0x7ca74393,-0x16dc(%rbp)
    b26d:	43 a7 7c 
    b270:	c7 85 b0 e9 ff ff 85 	movl   $0x2eb79085,-0x1650(%rbp)
    b277:	90 b7 2e 
    b27a:	c7 85 b4 e9 ff ff 07 	movl   $0x7,-0x164c(%rbp)
    b281:	00 00 00 
    b284:	48 8d 05 95 cd 00 00 	lea    0xcd95(%rip),%rax        # 18020 <g_948>
    b28b:	48 89 85 e8 eb ff ff 	mov    %rax,-0x1418(%rbp)
    b292:	48 8d 05 27 ce 00 00 	lea    0xce27(%rip),%rax        # 180c0 <g_950+0x80>
    b299:	48 89 85 c0 ed ff ff 	mov    %rax,-0x1240(%rbp)
    b2a0:	48 8d 05 19 ce 00 00 	lea    0xce19(%rip),%rax        # 180c0 <g_950+0x80>
    b2a7:	48 89 85 c8 ed ff ff 	mov    %rax,-0x1238(%rbp)
    b2ae:	48 8d 05 0b ce 00 00 	lea    0xce0b(%rip),%rax        # 180c0 <g_950+0x80>
    b2b5:	48 89 85 d0 ed ff ff 	mov    %rax,-0x1230(%rbp)
    b2bc:	48 8d 05 fd cd 00 00 	lea    0xcdfd(%rip),%rax        # 180c0 <g_950+0x80>
    b2c3:	48 89 85 d8 ed ff ff 	mov    %rax,-0x1228(%rbp)
    b2ca:	48 8d 05 ef cd 00 00 	lea    0xcdef(%rip),%rax        # 180c0 <g_950+0x80>
    b2d1:	48 89 85 e0 ed ff ff 	mov    %rax,-0x1220(%rbp)
    b2d8:	48 8d 05 e1 cd 00 00 	lea    0xcde1(%rip),%rax        # 180c0 <g_950+0x80>
    b2df:	48 89 85 e8 ed ff ff 	mov    %rax,-0x1218(%rbp)
    b2e6:	48 8d 05 d3 cd 00 00 	lea    0xcdd3(%rip),%rax        # 180c0 <g_950+0x80>
    b2ed:	48 89 85 f0 ed ff ff 	mov    %rax,-0x1210(%rbp)
    b2f4:	48 8d 05 65 ce 00 00 	lea    0xce65(%rip),%rax        # 18160 <g_954>
    b2fb:	48 89 85 f0 eb ff ff 	mov    %rax,-0x1410(%rbp)
    b302:	8b 85 a8 e9 ff ff    	mov    -0x1658(%rbp),%eax
    b308:	0f bf d8             	movswl %ax,%ebx
    b30b:	44 8b a5 a8 e9 ff ff 	mov    -0x1658(%rbp),%r12d
    b312:	8b 85 a8 e9 ff ff    	mov    -0x1658(%rbp),%eax
    b318:	44 0f b6 e8          	movzbl %al,%r13d
    b31c:	be 00 00 00 00       	mov    $0x0,%esi
    b321:	48 bf 51 0a 0f 99 6c 	movabs $0x3d82b86c990f0a51,%rdi
    b328:	b8 82 3d 
    b32b:	e8 1b 9d ff ff       	callq  504b <safe_sub_func_uint64_t_u_u>
    b330:	48 85 c0             	test   %rax,%rax
    b333:	0f 85 b4 00 00 00    	jne    b3ed <func_56+0x3f90>
    b339:	48 8b 85 b0 e8 ff ff 	mov    -0x1750(%rbp),%rax
    b340:	49 89 c7             	mov    %rax,%r15
    b343:	0f b6 85 db e8 ff ff 	movzbl -0x1725(%rbp),%eax
    b34a:	0f b6 c0             	movzbl %al,%eax
    b34d:	48 8b 95 40 ea ff ff 	mov    -0x15c0(%rbp),%rdx
    b354:	48 8d 4a 01          	lea    0x1(%rdx),%rcx
    b358:	48 63 d0             	movslq %eax,%rdx
    b35b:	48 89 d0             	mov    %rdx,%rax
    b35e:	48 c1 e0 02          	shl    $0x2,%rax
    b362:	48 01 d0             	add    %rdx,%rax
    b365:	48 01 c0             	add    %rax,%rax
    b368:	48 8d 14 08          	lea    (%rax,%rcx,1),%rdx
    b36c:	48 8d 05 2d 9f 00 00 	lea    0x9f2d(%rip),%rax        # 152a0 <g_240>
    b373:	48 01 d0             	add    %rdx,%rax
    b376:	c6 00 00             	movb   $0x0,(%rax)
    b379:	0f b6 05 b2 c3 00 00 	movzbl 0xc3b2(%rip),%eax        # 17732 <g_771+0x12>
    b380:	0f b6 c0             	movzbl %al,%eax
    b383:	be 04 00 00 00       	mov    $0x4,%esi
    b388:	89 c7                	mov    %eax,%edi
    b38a:	e8 b9 9a ff ff       	callq  4e48 <safe_rshift_func_uint16_t_u_s>
    b38f:	0f b6 c0             	movzbl %al,%eax
    b392:	be 00 00 00 00       	mov    $0x0,%esi
    b397:	89 c7                	mov    %eax,%edi
    b399:	e8 ae 98 ff ff       	callq  4c4c <safe_lshift_func_uint8_t_u_u>
    b39e:	41 89 c6             	mov    %eax,%r14d
    b3a1:	0f b7 05 b8 c3 00 00 	movzwl 0xc3b8(%rip),%eax        # 17760 <g_773>
    b3a8:	0f b7 d0             	movzwl %ax,%edx
    b3ab:	8b 85 cc e8 ff ff    	mov    -0x1734(%rbp),%eax
    b3b1:	39 c2                	cmp    %eax,%edx
    b3b3:	0f 95 c0             	setne  %al
    b3b6:	0f b6 c0             	movzbl %al,%eax
    b3b9:	89 85 58 e9 ff ff    	mov    %eax,-0x16a8(%rbp)
    b3bf:	8b 85 58 e9 ff ff    	mov    -0x16a8(%rbp),%eax
    b3c5:	0f b6 c0             	movzbl %al,%eax
    b3c8:	be b9 00 00 00       	mov    $0xb9,%esi
    b3cd:	89 c7                	mov    %eax,%edi
    b3cf:	e8 da 97 ff ff       	callq  4bae <safe_mod_func_uint8_t_u_u>
    b3d4:	41 38 c6             	cmp    %al,%r14b
    b3d7:	0f 93 c0             	setae  %al
    b3da:	0f b6 c0             	movzbl %al,%eax
    b3dd:	4c 89 fe             	mov    %r15,%rsi
    b3e0:	48 89 c7             	mov    %rax,%rdi
    b3e3:	e8 c0 94 ff ff       	callq  48a8 <safe_sub_func_int64_t_s_s>
    b3e8:	48 85 c0             	test   %rax,%rax
    b3eb:	74 07                	je     b3f4 <func_56+0x3f97>
    b3ed:	b8 01 00 00 00       	mov    $0x1,%eax
    b3f2:	eb 05                	jmp    b3f9 <func_56+0x3f9c>
    b3f4:	b8 00 00 00 00       	mov    $0x0,%eax
    b3f9:	0f b6 c0             	movzbl %al,%eax
    b3fc:	44 89 ee             	mov    %r13d,%esi
    b3ff:	89 c7                	mov    %eax,%edi
    b401:	e8 72 97 ff ff       	callq  4b78 <safe_sub_func_uint8_t_u_u>
    b406:	48 8b 85 b0 e8 ff ff 	mov    -0x1750(%rbp),%rax
    b40d:	48 85 c0             	test   %rax,%rax
    b410:	74 07                	je     b419 <func_56+0x3fbc>
    b412:	ba 01 00 00 00       	mov    $0x1,%edx
    b417:	eb 05                	jmp    b41e <func_56+0x3fc1>
    b419:	ba 00 00 00 00       	mov    $0x0,%edx
    b41e:	48 8b 85 b8 e8 ff ff 	mov    -0x1748(%rbp),%rax
    b425:	0f b6 00             	movzbl (%rax),%eax
    b428:	0f be c0             	movsbl %al,%eax
    b42b:	39 c2                	cmp    %eax,%edx
    b42d:	0f 9d c0             	setge  %al
    b430:	0f b6 c0             	movzbl %al,%eax
    b433:	44 89 e6             	mov    %r12d,%esi
    b436:	89 c7                	mov    %eax,%edi
    b438:	e8 c9 99 ff ff       	callq  4e06 <safe_lshift_func_uint16_t_u_u>
    b43d:	0f b7 c0             	movzwl %ax,%eax
    b440:	be 4b 13 0c f7       	mov    $0xf70c134b,%esi
    b445:	89 c7                	mov    %eax,%edi
    b447:	e8 6a 91 ff ff       	callq  45b6 <safe_add_func_int32_t_s_s>
    b44c:	8b 85 cc e8 ff ff    	mov    -0x1734(%rbp),%eax
    b452:	98                   	cwtl   
    b453:	89 de                	mov    %ebx,%esi
    b455:	89 c7                	mov    %eax,%edi
    b457:	e8 f9 8f ff ff       	callq  4455 <safe_div_func_int16_t_s_s>
    b45c:	98                   	cwtl   
    b45d:	33 85 3c e9 ff ff    	xor    -0x16c4(%rbp),%eax
    b463:	48 98                	cltq   
    b465:	48 0b 85 80 ea ff ff 	or     -0x1580(%rbp),%rax
    b46c:	48 85 c0             	test   %rax,%rax
    b46f:	74 0a                	je     b47b <func_56+0x401e>
    b471:	48 8b 05 98 bf 00 00 	mov    0xbf98(%rip),%rax        # 17410 <g_419+0x10>
    b478:	48 85 c0             	test   %rax,%rax
    b47b:	48 8d 85 28 ea ff ff 	lea    -0x15d8(%rbp),%rax
    b482:	48 89 85 f8 eb ff ff 	mov    %rax,-0x1408(%rbp)
    b489:	48 8d 85 30 f2 ff ff 	lea    -0xdd0(%rbp),%rax
    b490:	48 8d 15 e9 64 00 00 	lea    0x64e9(%rip),%rdx        # 11980 <g_1342+0x900>
    b497:	b9 24 00 00 00       	mov    $0x24,%ecx
    b49c:	48 89 c7             	mov    %rax,%rdi
    b49f:	48 89 d6             	mov    %rdx,%rsi
    b4a2:	f3 48 a5             	rep movsq %ds:(%rsi),%es:(%rdi)
    b4a5:	c7 85 b8 e9 ff ff 09 	movl   $0x9,-0x1648(%rbp)
    b4ac:	00 00 00 
    b4af:	c6 85 e6 e8 ff ff 55 	movb   $0x55,-0x171a(%rbp)
    b4b6:	8b 1d a8 c2 00 00    	mov    0xc2a8(%rip),%ebx        # 17764 <g_773+0x4>
    b4bc:	48 8b 85 b8 e8 ff ff 	mov    -0x1748(%rbp),%rax
    b4c3:	0f b6 00             	movzbl (%rax),%eax
    b4c6:	44 0f b6 e0          	movzbl %al,%r12d
    b4ca:	8b 85 2c f3 ff ff    	mov    -0xcd4(%rbp),%eax
    b4d0:	0f b6 c0             	movzbl %al,%eax
    b4d3:	89 c7                	mov    %eax,%edi
    b4d5:	e8 6b 96 ff ff       	callq  4b45 <safe_unary_minus_func_uint8_t_u>
    b4da:	44 0f b6 f8          	movzbl %al,%r15d
    b4de:	48 8b 05 13 c1 00 00 	mov    0xc113(%rip),%rax        # 175f8 <g_677+0x18>
    b4e5:	89 85 a8 e8 ff ff    	mov    %eax,-0x1758(%rbp)
    b4eb:	48 8b 85 b8 e8 ff ff 	mov    -0x1748(%rbp),%rax
    b4f2:	0f b6 00             	movzbl (%rax),%eax
    b4f5:	44 0f b6 e8          	movzbl %al,%r13d
    b4f9:	48 8b 85 b8 e8 ff ff 	mov    -0x1748(%rbp),%rax
    b500:	0f b6 00             	movzbl (%rax),%eax
    b503:	44 0f be f0          	movsbl %al,%r14d
    b507:	48 8b 85 b8 e8 ff ff 	mov    -0x1748(%rbp),%rax
    b50e:	0f b6 00             	movzbl (%rax),%eax
    b511:	0f b6 d0             	movzbl %al,%edx
    b514:	8b 85 b8 e9 ff ff    	mov    -0x1648(%rbp),%eax
    b51a:	0f b6 c0             	movzbl %al,%eax
    b51d:	89 d6                	mov    %edx,%esi
    b51f:	89 c7                	mov    %eax,%edi
    b521:	e8 b5 96 ff ff       	callq  4bdb <safe_div_func_uint8_t_u_u>
    b526:	3c 4c                	cmp    $0x4c,%al
    b528:	0f 97 c0             	seta   %al
    b52b:	0f b6 c0             	movzbl %al,%eax
    b52e:	44 89 f6             	mov    %r14d,%esi
    b531:	89 c7                	mov    %eax,%edi
    b533:	e8 fd 8d ff ff       	callq  4335 <safe_rshift_func_int8_t_s_s>
    b538:	88 05 54 c2 00 00    	mov    %al,0xc254(%rip)        # 17792 <g_774+0x12>
    b53e:	0f b6 05 4d c2 00 00 	movzbl 0xc24d(%rip),%eax        # 17792 <g_774+0x12>
    b545:	0f b6 c0             	movzbl %al,%eax
    b548:	44 89 ee             	mov    %r13d,%esi
    b54b:	89 c7                	mov    %eax,%edi
    b54d:	e8 08 96 ff ff       	callq  4b5a <safe_add_func_uint8_t_u_u>
    b552:	0f b6 c0             	movzbl %al,%eax
    b555:	33 85 a8 e8 ff ff    	xor    -0x1758(%rbp),%eax
    b55b:	44 31 f8             	xor    %r15d,%eax
    b55e:	89 85 3c e9 ff ff    	mov    %eax,-0x16c4(%rbp)
    b564:	8b 85 3c e9 ff ff    	mov    -0x16c4(%rbp),%eax
    b56a:	0f b6 c0             	movzbl %al,%eax
    b56d:	44 89 e6             	mov    %r12d,%esi
    b570:	89 c7                	mov    %eax,%edi
    b572:	e8 e3 95 ff ff       	callq  4b5a <safe_add_func_uint8_t_u_u>
    b577:	0f b6 c0             	movzbl %al,%eax
    b57a:	89 de                	mov    %ebx,%esi
    b57c:	89 c7                	mov    %eax,%edi
    b57e:	e8 82 96 ff ff       	callq  4c05 <safe_lshift_func_uint8_t_u_s>
    b583:	48 8b 95 28 ea ff ff 	mov    -0x15d8(%rbp),%rdx
    b58a:	48 8b 85 f8 eb ff ff 	mov    -0x1408(%rbp),%rax
    b591:	48 89 10             	mov    %rdx,(%rax)
    b594:	48 8b 85 f8 eb ff ff 	mov    -0x1408(%rbp),%rax
    b59b:	48 8b 00             	mov    (%rax),%rax
    b59e:	48 85 c0             	test   %rax,%rax
    b5a1:	75 07                	jne    b5aa <func_56+0x414d>
    b5a3:	b8 01 00 00 00       	mov    $0x1,%eax
    b5a8:	eb 05                	jmp    b5af <func_56+0x4152>
    b5aa:	b8 00 00 00 00       	mov    $0x0,%eax
    b5af:	0f b7 c0             	movzwl %ax,%eax
    b5b2:	be 00 00 00 00       	mov    $0x0,%esi
    b5b7:	89 c7                	mov    %eax,%edi
    b5b9:	e8 61 97 ff ff       	callq  4d1f <safe_sub_func_uint16_t_u_u>
    b5be:	0f b7 d0             	movzwl %ax,%edx
    b5c1:	48 8b 05 68 9a 00 00 	mov    0x9a68(%rip),%rax        # 15030 <g_26>
    b5c8:	48 39 c2             	cmp    %rax,%rdx
    b5cb:	0f 9d c0             	setge  %al
    b5ce:	0f b6 c8             	movzbl %al,%ecx
    b5d1:	48 8d 05 78 e1 00 00 	lea    0xe178(%rip),%rax        # 19750 <g_746>
    b5d8:	48 8b 00             	mov    (%rax),%rax
    b5db:	8b 10                	mov    (%rax),%edx
    b5dd:	48 8d 05 6c e1 00 00 	lea    0xe16c(%rip),%rax        # 19750 <g_746>
    b5e4:	48 8b 00             	mov    (%rax),%rax
    b5e7:	21 ca                	and    %ecx,%edx
    b5e9:	89 10                	mov    %edx,(%rax)
    b5eb:	48 8b 05 5e e1 00 00 	mov    0xe15e(%rip),%rax        # 19750 <g_746>
    b5f2:	8b 00                	mov    (%rax),%eax
    b5f4:	85 c0                	test   %eax,%eax
    b5f6:	0f 85 a1 0b 00 00    	jne    c19d <func_56+0x4d40>
    b5fc:	c7 05 06 c1 00 00 01 	movl   $0x1,0xc106(%rip)        # 1770c <g_767+0xc>
    b603:	00 00 00 
    b606:	90                   	nop
    b607:	8b 05 ff c0 00 00    	mov    0xc0ff(%rip),%eax        # 1770c <g_767+0xc>
    b60d:	85 c0                	test   %eax,%eax
    b60f:	0f 88 c4 06 00 00    	js     bcd9 <func_56+0x487c>
    b615:	48 8d 05 04 c1 00 00 	lea    0xc104(%rip),%rax        # 17720 <g_771>
    b61c:	48 89 85 48 ec ff ff 	mov    %rax,-0x13b8(%rbp)
    b623:	c7 85 c4 e9 ff ff fa 	movl   $0xe7dfa5fa,-0x163c(%rbp)
    b62a:	a5 df e7 
    b62d:	48 8d 05 fc c0 00 00 	lea    0xc0fc(%rip),%rax        # 17730 <g_771+0x10>
    b634:	48 89 85 20 fa ff ff 	mov    %rax,-0x5e0(%rbp)
    b63b:	48 8d 05 0e c1 00 00 	lea    0xc10e(%rip),%rax        # 17750 <g_772+0x10>
    b642:	48 89 85 28 fa ff ff 	mov    %rax,-0x5d8(%rbp)
    b649:	48 c7 85 30 fa ff ff 	movq   $0x0,-0x5d0(%rbp)
    b650:	00 00 00 00 
    b654:	48 8d 05 b5 c0 00 00 	lea    0xc0b5(%rip),%rax        # 17710 <g_767+0x10>
    b65b:	48 89 85 38 fa ff ff 	mov    %rax,-0x5c8(%rbp)
    b662:	48 8d 05 a7 c0 00 00 	lea    0xc0a7(%rip),%rax        # 17710 <g_767+0x10>
    b669:	48 89 85 40 fa ff ff 	mov    %rax,-0x5c0(%rbp)
    b670:	48 c7 85 48 fa ff ff 	movq   $0x0,-0x5b8(%rbp)
    b677:	00 00 00 00 
    b67b:	48 8d 05 ce c0 00 00 	lea    0xc0ce(%rip),%rax        # 17750 <g_772+0x10>
    b682:	48 89 85 50 fa ff ff 	mov    %rax,-0x5b0(%rbp)
    b689:	48 8d 05 a0 c0 00 00 	lea    0xc0a0(%rip),%rax        # 17730 <g_771+0x10>
    b690:	48 89 85 58 fa ff ff 	mov    %rax,-0x5a8(%rbp)
    b697:	48 c7 85 60 fa ff ff 	movq   $0x0,-0x5a0(%rbp)
    b69e:	00 00 00 00 
    b6a2:	48 8d 05 b7 c0 00 00 	lea    0xc0b7(%rip),%rax        # 17760 <g_773>
    b6a9:	48 89 85 68 fa ff ff 	mov    %rax,-0x598(%rbp)
    b6b0:	48 8d 05 a9 c0 00 00 	lea    0xc0a9(%rip),%rax        # 17760 <g_773>
    b6b7:	48 89 85 70 fa ff ff 	mov    %rax,-0x590(%rbp)
    b6be:	48 8d 05 4b c0 00 00 	lea    0xc04b(%rip),%rax        # 17710 <g_767+0x10>
    b6c5:	48 89 85 78 fa ff ff 	mov    %rax,-0x588(%rbp)
    b6cc:	48 8d 05 7d c0 00 00 	lea    0xc07d(%rip),%rax        # 17750 <g_772+0x10>
    b6d3:	48 89 85 80 fa ff ff 	mov    %rax,-0x580(%rbp)
    b6da:	48 c7 85 88 fa ff ff 	movq   $0x0,-0x578(%rbp)
    b6e1:	00 00 00 00 
    b6e5:	48 8d 05 44 c0 00 00 	lea    0xc044(%rip),%rax        # 17730 <g_771+0x10>
    b6ec:	48 89 85 90 fa ff ff 	mov    %rax,-0x570(%rbp)
    b6f3:	48 8d 05 06 c0 00 00 	lea    0xc006(%rip),%rax        # 17700 <g_767>
    b6fa:	48 89 85 98 fa ff ff 	mov    %rax,-0x568(%rbp)
    b701:	48 c7 85 a0 fa ff ff 	movq   $0x0,-0x560(%rbp)
    b708:	00 00 00 00 
    b70c:	48 8d 05 ed bf 00 00 	lea    0xbfed(%rip),%rax        # 17700 <g_767>
    b713:	48 89 85 a8 fa ff ff 	mov    %rax,-0x558(%rbp)
    b71a:	48 c7 85 b0 fa ff ff 	movq   $0x0,-0x550(%rbp)
    b721:	00 00 00 00 
    b725:	48 8d 05 e4 bf 00 00 	lea    0xbfe4(%rip),%rax        # 17710 <g_767+0x10>
    b72c:	48 89 85 b8 fa ff ff 	mov    %rax,-0x548(%rbp)
    b733:	48 8d 05 f6 bc 00 00 	lea    0xbcf6(%rip),%rax        # 17430 <g_563>
    b73a:	48 89 85 c0 fa ff ff 	mov    %rax,-0x540(%rbp)
    b741:	48 8d 05 b8 bf 00 00 	lea    0xbfb8(%rip),%rax        # 17700 <g_767>
    b748:	48 89 85 c8 fa ff ff 	mov    %rax,-0x538(%rbp)
    b74f:	48 8d 05 fa bf 00 00 	lea    0xbffa(%rip),%rax        # 17750 <g_772+0x10>
    b756:	48 89 85 d0 fa ff ff 	mov    %rax,-0x530(%rbp)
    b75d:	48 8d 05 cc bf 00 00 	lea    0xbfcc(%rip),%rax        # 17730 <g_771+0x10>
    b764:	48 89 85 d8 fa ff ff 	mov    %rax,-0x528(%rbp)
    b76b:	48 8d 85 e8 e8 ff ff 	lea    -0x1718(%rbp),%rax
    b772:	48 89 85 e0 fa ff ff 	mov    %rax,-0x520(%rbp)
    b779:	48 8d 05 80 bf 00 00 	lea    0xbf80(%rip),%rax        # 17700 <g_767>
    b780:	48 89 85 e8 fa ff ff 	mov    %rax,-0x518(%rbp)
    b787:	48 8d 85 e8 e8 ff ff 	lea    -0x1718(%rbp),%rax
    b78e:	48 89 85 f0 fa ff ff 	mov    %rax,-0x510(%rbp)
    b795:	48 8d 05 94 bf 00 00 	lea    0xbf94(%rip),%rax        # 17730 <g_771+0x10>
    b79c:	48 89 85 f8 fa ff ff 	mov    %rax,-0x508(%rbp)
    b7a3:	48 8d 05 a6 bf 00 00 	lea    0xbfa6(%rip),%rax        # 17750 <g_772+0x10>
    b7aa:	48 89 85 00 fb ff ff 	mov    %rax,-0x500(%rbp)
    b7b1:	48 8d 05 48 bf 00 00 	lea    0xbf48(%rip),%rax        # 17700 <g_767>
    b7b8:	48 89 85 08 fb ff ff 	mov    %rax,-0x4f8(%rbp)
    b7bf:	48 8d 85 e8 e8 ff ff 	lea    -0x1718(%rbp),%rax
    b7c6:	48 89 85 10 fb ff ff 	mov    %rax,-0x4f0(%rbp)
    b7cd:	48 8d 05 ac bf 00 00 	lea    0xbfac(%rip),%rax        # 17780 <g_774>
    b7d4:	48 89 85 18 fb ff ff 	mov    %rax,-0x4e8(%rbp)
    b7db:	48 c7 85 20 fb ff ff 	movq   $0x0,-0x4e0(%rbp)
    b7e2:	00 00 00 00 
    b7e6:	48 8d 05 73 bf 00 00 	lea    0xbf73(%rip),%rax        # 17760 <g_773>
    b7ed:	48 89 85 28 fb ff ff 	mov    %rax,-0x4d8(%rbp)
    b7f4:	48 8d 05 05 bf 00 00 	lea    0xbf05(%rip),%rax        # 17700 <g_767>
    b7fb:	48 89 85 30 fb ff ff 	mov    %rax,-0x4d0(%rbp)
    b802:	48 8d 05 07 bf 00 00 	lea    0xbf07(%rip),%rax        # 17710 <g_767+0x10>
    b809:	48 89 85 38 fb ff ff 	mov    %rax,-0x4c8(%rbp)
    b810:	48 8d 05 f9 be 00 00 	lea    0xbef9(%rip),%rax        # 17710 <g_767+0x10>
    b817:	48 89 85 40 fb ff ff 	mov    %rax,-0x4c0(%rbp)
    b81e:	48 8d 05 db be 00 00 	lea    0xbedb(%rip),%rax        # 17700 <g_767>
    b825:	48 89 85 48 fb ff ff 	mov    %rax,-0x4b8(%rbp)
    b82c:	48 8d 85 e8 e8 ff ff 	lea    -0x1718(%rbp),%rax
    b833:	48 89 85 50 fb ff ff 	mov    %rax,-0x4b0(%rbp)
    b83a:	48 8d 05 ef bb 00 00 	lea    0xbbef(%rip),%rax        # 17430 <g_563>
    b841:	48 89 85 58 fb ff ff 	mov    %rax,-0x4a8(%rbp)
    b848:	48 8d 05 01 bf 00 00 	lea    0xbf01(%rip),%rax        # 17750 <g_772+0x10>
    b84f:	48 89 85 60 fb ff ff 	mov    %rax,-0x4a0(%rbp)
    b856:	48 8d 05 f3 be 00 00 	lea    0xbef3(%rip),%rax        # 17750 <g_772+0x10>
    b85d:	48 89 85 68 fb ff ff 	mov    %rax,-0x498(%rbp)
    b864:	48 8d 05 e5 be 00 00 	lea    0xbee5(%rip),%rax        # 17750 <g_772+0x10>
    b86b:	48 89 85 70 fb ff ff 	mov    %rax,-0x490(%rbp)
    b872:	48 8d 05 b7 bb 00 00 	lea    0xbbb7(%rip),%rax        # 17430 <g_563>
    b879:	48 89 85 78 fb ff ff 	mov    %rax,-0x488(%rbp)
    b880:	48 8d 05 d9 be 00 00 	lea    0xbed9(%rip),%rax        # 17760 <g_773>
    b887:	48 89 85 80 fb ff ff 	mov    %rax,-0x480(%rbp)
    b88e:	48 8d 05 7b be 00 00 	lea    0xbe7b(%rip),%rax        # 17710 <g_767+0x10>
    b895:	48 89 85 88 fb ff ff 	mov    %rax,-0x478(%rbp)
    b89c:	48 8d 85 e8 e8 ff ff 	lea    -0x1718(%rbp),%rax
    b8a3:	48 89 85 90 fb ff ff 	mov    %rax,-0x470(%rbp)
    b8aa:	48 8d 85 e8 e8 ff ff 	lea    -0x1718(%rbp),%rax
    b8b1:	48 89 85 98 fb ff ff 	mov    %rax,-0x468(%rbp)
    b8b8:	48 8d 05 51 be 00 00 	lea    0xbe51(%rip),%rax        # 17710 <g_767+0x10>
    b8bf:	48 89 85 a0 fb ff ff 	mov    %rax,-0x460(%rbp)
    b8c6:	48 8d 05 93 be 00 00 	lea    0xbe93(%rip),%rax        # 17760 <g_773>
    b8cd:	48 89 85 a8 fb ff ff 	mov    %rax,-0x458(%rbp)
    b8d4:	48 8d 85 e8 e8 ff ff 	lea    -0x1718(%rbp),%rax
    b8db:	48 89 85 b0 fb ff ff 	mov    %rax,-0x450(%rbp)
    b8e2:	48 8d 05 dd 97 00 00 	lea    0x97dd(%rip),%rax        # 150c6 <g_133+0x26>
    b8e9:	48 89 85 b8 fb ff ff 	mov    %rax,-0x448(%rbp)
    b8f0:	48 8d 05 cf 97 00 00 	lea    0x97cf(%rip),%rax        # 150c6 <g_133+0x26>
    b8f7:	48 89 85 c0 fb ff ff 	mov    %rax,-0x440(%rbp)
    b8fe:	48 8d 85 e8 e8 ff ff 	lea    -0x1718(%rbp),%rax
    b905:	48 89 85 c8 fb ff ff 	mov    %rax,-0x438(%rbp)
    b90c:	48 c7 85 d0 fb ff ff 	movq   $0x0,-0x430(%rbp)
    b913:	00 00 00 00 
    b917:	48 8d 05 e2 bd 00 00 	lea    0xbde2(%rip),%rax        # 17700 <g_767>
    b91e:	48 89 85 d8 fb ff ff 	mov    %rax,-0x428(%rbp)
    b925:	48 8d 85 e8 e8 ff ff 	lea    -0x1718(%rbp),%rax
    b92c:	48 89 85 e0 fb ff ff 	mov    %rax,-0x420(%rbp)
    b933:	48 c7 85 e8 fb ff ff 	movq   $0x0,-0x418(%rbp)
    b93a:	00 00 00 00 
    b93e:	48 c7 85 f0 fb ff ff 	movq   $0x0,-0x410(%rbp)
    b945:	00 00 00 00 
    b949:	48 8d 05 00 be 00 00 	lea    0xbe00(%rip),%rax        # 17750 <g_772+0x10>
    b950:	48 89 85 f8 fb ff ff 	mov    %rax,-0x408(%rbp)
    b957:	48 8d 05 d2 ba 00 00 	lea    0xbad2(%rip),%rax        # 17430 <g_563>
    b95e:	48 89 85 00 fc ff ff 	mov    %rax,-0x400(%rbp)
    b965:	48 8d 05 e4 bd 00 00 	lea    0xbde4(%rip),%rax        # 17750 <g_772+0x10>
    b96c:	48 89 85 08 fc ff ff 	mov    %rax,-0x3f8(%rbp)
    b973:	48 8d 05 d6 bd 00 00 	lea    0xbdd6(%rip),%rax        # 17750 <g_772+0x10>
    b97a:	48 89 85 10 fc ff ff 	mov    %rax,-0x3f0(%rbp)
    b981:	48 8d 05 c8 bd 00 00 	lea    0xbdc8(%rip),%rax        # 17750 <g_772+0x10>
    b988:	48 89 85 18 fc ff ff 	mov    %rax,-0x3e8(%rbp)
    b98f:	48 8d 05 6a bd 00 00 	lea    0xbd6a(%rip),%rax        # 17700 <g_767>
    b996:	48 89 85 20 fc ff ff 	mov    %rax,-0x3e0(%rbp)
    b99d:	48 8d 05 5c bd 00 00 	lea    0xbd5c(%rip),%rax        # 17700 <g_767>
    b9a4:	48 89 85 28 fc ff ff 	mov    %rax,-0x3d8(%rbp)
    b9ab:	48 8d 05 14 97 00 00 	lea    0x9714(%rip),%rax        # 150c6 <g_133+0x26>
    b9b2:	48 89 85 30 fc ff ff 	mov    %rax,-0x3d0(%rbp)
    b9b9:	48 8d 85 e8 e8 ff ff 	lea    -0x1718(%rbp),%rax
    b9c0:	48 89 85 38 fc ff ff 	mov    %rax,-0x3c8(%rbp)
    b9c7:	48 c7 85 40 fc ff ff 	movq   $0x0,-0x3c0(%rbp)
    b9ce:	00 00 00 00 
    b9d2:	48 8d 85 e8 e8 ff ff 	lea    -0x1718(%rbp),%rax
    b9d9:	48 89 85 48 fc ff ff 	mov    %rax,-0x3b8(%rbp)
    b9e0:	48 8d 05 79 bd 00 00 	lea    0xbd79(%rip),%rax        # 17760 <g_773>
    b9e7:	48 89 85 50 fc ff ff 	mov    %rax,-0x3b0(%rbp)
    b9ee:	48 c7 85 58 fc ff ff 	movq   $0x0,-0x3a8(%rbp)
    b9f5:	00 00 00 00 
    b9f9:	48 8d 05 80 bd 00 00 	lea    0xbd80(%rip),%rax        # 17780 <g_774>
    ba00:	48 89 85 60 fc ff ff 	mov    %rax,-0x3a0(%rbp)
    ba07:	48 8d 85 e8 e8 ff ff 	lea    -0x1718(%rbp),%rax
    ba0e:	48 89 85 68 fc ff ff 	mov    %rax,-0x398(%rbp)
    ba15:	48 8d 05 64 bd 00 00 	lea    0xbd64(%rip),%rax        # 17780 <g_774>
    ba1c:	48 89 85 70 fc ff ff 	mov    %rax,-0x390(%rbp)
    ba23:	48 c7 85 78 fc ff ff 	movq   $0x0,-0x388(%rbp)
    ba2a:	00 00 00 00 
    ba2e:	48 8d 05 2b bd 00 00 	lea    0xbd2b(%rip),%rax        # 17760 <g_773>
    ba35:	48 89 85 80 fc ff ff 	mov    %rax,-0x380(%rbp)
    ba3c:	48 8d 05 bd bc 00 00 	lea    0xbcbd(%rip),%rax        # 17700 <g_767>
    ba43:	48 89 85 88 fc ff ff 	mov    %rax,-0x378(%rbp)
    ba4a:	48 8d 05 bf bc 00 00 	lea    0xbcbf(%rip),%rax        # 17710 <g_767+0x10>
    ba51:	48 89 85 90 fc ff ff 	mov    %rax,-0x370(%rbp)
    ba58:	48 8d 05 b1 bc 00 00 	lea    0xbcb1(%rip),%rax        # 17710 <g_767+0x10>
    ba5f:	48 89 85 98 fc ff ff 	mov    %rax,-0x368(%rbp)
    ba66:	48 8d 05 c3 bc 00 00 	lea    0xbcc3(%rip),%rax        # 17730 <g_771+0x10>
    ba6d:	48 89 85 a0 fc ff ff 	mov    %rax,-0x360(%rbp)
    ba74:	48 8d 05 d5 bc 00 00 	lea    0xbcd5(%rip),%rax        # 17750 <g_772+0x10>
    ba7b:	48 89 85 a8 fc ff ff 	mov    %rax,-0x358(%rbp)
    ba82:	48 8d 05 77 bc 00 00 	lea    0xbc77(%rip),%rax        # 17700 <g_767>
    ba89:	48 89 85 b0 fc ff ff 	mov    %rax,-0x350(%rbp)
    ba90:	48 8d 05 99 b9 00 00 	lea    0xb999(%rip),%rax        # 17430 <g_563>
    ba97:	48 89 85 b8 fc ff ff 	mov    %rax,-0x348(%rbp)
    ba9e:	48 8d 85 e8 e8 ff ff 	lea    -0x1718(%rbp),%rax
    baa5:	48 89 85 c0 fc ff ff 	mov    %rax,-0x340(%rbp)
    baac:	48 8d 05 5d bc 00 00 	lea    0xbc5d(%rip),%rax        # 17710 <g_767+0x10>
    bab3:	48 89 85 c8 fc ff ff 	mov    %rax,-0x338(%rbp)
    baba:	48 c7 85 d0 fc ff ff 	movq   $0x0,-0x330(%rbp)
    bac1:	00 00 00 00 
    bac5:	48 c7 85 d8 fc ff ff 	movq   $0x0,-0x328(%rbp)
    bacc:	00 00 00 00 
    bad0:	48 8d 85 e8 e8 ff ff 	lea    -0x1718(%rbp),%rax
    bad7:	48 89 85 e0 fc ff ff 	mov    %rax,-0x320(%rbp)
    bade:	48 8d 05 1b bc 00 00 	lea    0xbc1b(%rip),%rax        # 17700 <g_767>
    bae5:	48 89 85 e8 fc ff ff 	mov    %rax,-0x318(%rbp)
    baec:	48 c7 85 f0 fc ff ff 	movq   $0x0,-0x310(%rbp)
    baf3:	00 00 00 00 
    baf7:	48 8d 05 52 bc 00 00 	lea    0xbc52(%rip),%rax        # 17750 <g_772+0x10>
    bafe:	48 89 85 f8 fc ff ff 	mov    %rax,-0x308(%rbp)
    bb05:	48 8d 05 04 bc 00 00 	lea    0xbc04(%rip),%rax        # 17710 <g_767+0x10>
    bb0c:	48 89 85 00 fd ff ff 	mov    %rax,-0x300(%rbp)
    bb13:	48 8d 05 46 bc 00 00 	lea    0xbc46(%rip),%rax        # 17760 <g_773>
    bb1a:	48 89 85 08 fd ff ff 	mov    %rax,-0x2f8(%rbp)
    bb21:	48 8d 05 28 bc 00 00 	lea    0xbc28(%rip),%rax        # 17750 <g_772+0x10>
    bb28:	48 89 85 10 fd ff ff 	mov    %rax,-0x2f0(%rbp)
    bb2f:	48 8d 05 1a bc 00 00 	lea    0xbc1a(%rip),%rax        # 17750 <g_772+0x10>
    bb36:	48 89 85 18 fd ff ff 	mov    %rax,-0x2e8(%rbp)
    bb3d:	48 8d 05 bc bb 00 00 	lea    0xbbbc(%rip),%rax        # 17700 <g_767>
    bb44:	48 89 85 20 fd ff ff 	mov    %rax,-0x2e0(%rbp)
    bb4b:	48 8d 05 fe bb 00 00 	lea    0xbbfe(%rip),%rax        # 17750 <g_772+0x10>
    bb52:	48 89 85 28 fd ff ff 	mov    %rax,-0x2d8(%rbp)
    bb59:	48 8d 05 b0 bb 00 00 	lea    0xbbb0(%rip),%rax        # 17710 <g_767+0x10>
    bb60:	48 89 85 30 fd ff ff 	mov    %rax,-0x2d0(%rbp)
    bb67:	48 8d 05 58 95 00 00 	lea    0x9558(%rip),%rax        # 150c6 <g_133+0x26>
    bb6e:	48 89 85 38 fd ff ff 	mov    %rax,-0x2c8(%rbp)
    bb75:	c7 85 c8 e9 ff ff fa 	movl   $0xfffffffa,-0x1638(%rbp)
    bb7c:	ff ff ff 
    bb7f:	48 8d 05 12 dc 00 00 	lea    0xdc12(%rip),%rax        # 19798 <g_851+0x38>
    bb86:	48 89 85 50 ec ff ff 	mov    %rax,-0x13b0(%rbp)
    bb8d:	8b 95 c4 e9 ff ff    	mov    -0x163c(%rbp),%edx
    bb93:	0f b6 8d e6 e8 ff ff 	movzbl -0x171a(%rbp),%ecx
    bb9a:	48 8b 85 48 ec ff ff 	mov    -0x13b8(%rbp),%rax
    bba1:	66 89 08             	mov    %cx,(%rax)
    bba4:	48 8b 85 48 ec ff ff 	mov    -0x13b8(%rbp),%rax
    bbab:	0f b7 00             	movzwl (%rax),%eax
    bbae:	0f b7 c0             	movzwl %ax,%eax
    bbb1:	89 d6                	mov    %edx,%esi
    bbb3:	89 c7                	mov    %eax,%edi
    bbb5:	e8 4c 92 ff ff       	callq  4e06 <safe_lshift_func_uint16_t_u_u>
    bbba:	44 0f b7 e0          	movzwl %ax,%r12d
    bbbe:	48 8b 05 53 bb 00 00 	mov    0xbb53(%rip),%rax        # 17718 <g_767+0x18>
    bbc5:	41 89 c5             	mov    %eax,%r13d
    bbc8:	0f b7 05 01 ba 00 00 	movzwl 0xba01(%rip),%eax        # 175d0 <g_673+0x10>
    bbcf:	0f b7 d8             	movzwl %ax,%ebx
    bbd2:	83 bd c4 e9 ff ff 00 	cmpl   $0x0,-0x163c(%rbp)
    bbd9:	0f 85 85 00 00 00    	jne    bc64 <func_56+0x4807>
    bbdf:	48 8b 85 c0 e8 ff ff 	mov    -0x1740(%rbp),%rax
    bbe6:	8b 00                	mov    (%rax),%eax
    bbe8:	89 c2                	mov    %eax,%edx
    bbea:	8b 85 cc e8 ff ff    	mov    -0x1734(%rbp),%eax
    bbf0:	89 d6                	mov    %edx,%esi
    bbf2:	89 c7                	mov    %eax,%edi
    bbf4:	e8 2c 93 ff ff       	callq  4f25 <safe_div_func_uint32_t_u_u>
    bbf9:	48 8b 15 98 db 00 00 	mov    0xdb98(%rip),%rdx        # 19798 <g_851+0x38>
    bc00:	48 8b 85 50 ec ff ff 	mov    -0x13b0(%rbp),%rax
    bc07:	48 89 10             	mov    %rdx,(%rax)
    bc0a:	48 8b 85 50 ec ff ff 	mov    -0x13b0(%rbp),%rax
    bc11:	48 8b 00             	mov    (%rax),%rax
    bc14:	48 8d 15 4d e2 00 00 	lea    0xe24d(%rip),%rdx        # 19e68 <g_852>
    bc1b:	48 39 d0             	cmp    %rdx,%rax
    bc1e:	0f 95 c0             	setne  %al
    bc21:	0f b6 c0             	movzbl %al,%eax
    bc24:	be 04 00 00 00       	mov    $0x4,%esi
    bc29:	89 c7                	mov    %eax,%edi
    bc2b:	e8 18 92 ff ff       	callq  4e48 <safe_rshift_func_uint16_t_u_s>
    bc30:	0f b7 d0             	movzwl %ax,%edx
    bc33:	0f b7 05 aa 94 00 00 	movzwl 0x94aa(%rip),%eax        # 150e4 <g_133+0x44>
    bc3a:	83 c0 01             	add    $0x1,%eax
    bc3d:	66 89 05 a0 94 00 00 	mov    %ax,0x94a0(%rip)        # 150e4 <g_133+0x44>
    bc44:	0f b7 05 99 94 00 00 	movzwl 0x9499(%rip),%eax        # 150e4 <g_133+0x44>
    bc4b:	0f b7 c0             	movzwl %ax,%eax
    bc4e:	89 d6                	mov    %edx,%esi
    bc50:	89 c7                	mov    %eax,%edi
    bc52:	e8 37 91 ff ff       	callq  4d8e <safe_div_func_uint16_t_u_u>
    bc57:	0f b7 d0             	movzwl %ax,%edx
    bc5a:	8b 85 2c f3 ff ff    	mov    -0xcd4(%rbp),%eax
    bc60:	39 c2                	cmp    %eax,%edx
    bc62:	74 07                	je     bc6b <func_56+0x480e>
    bc64:	b8 01 00 00 00       	mov    $0x1,%eax
    bc69:	eb 05                	jmp    bc70 <func_56+0x4813>
    bc6b:	b8 00 00 00 00       	mov    $0x0,%eax
    bc70:	0f b7 c0             	movzwl %ax,%eax
    bc73:	89 de                	mov    %ebx,%esi
    bc75:	89 c7                	mov    %eax,%edi
    bc77:	e8 8a 91 ff ff       	callq  4e06 <safe_lshift_func_uint16_t_u_u>
    bc7c:	44 89 ee             	mov    %r13d,%esi
    bc7f:	bf 01 00 00 00       	mov    $0x1,%edi
    bc84:	e8 35 90 ff ff       	callq  4cbe <safe_rshift_func_uint8_t_u_u>
    bc89:	83 bd c4 e9 ff ff 00 	cmpl   $0x0,-0x163c(%rbp)
    bc90:	8b 85 2c f3 ff ff    	mov    -0xcd4(%rbp),%eax
    bc96:	48 63 d0             	movslq %eax,%rdx
    bc99:	48 8b 85 b0 e8 ff ff 	mov    -0x1750(%rbp),%rax
    bca0:	48 39 c2             	cmp    %rax,%rdx
    bca3:	77 11                	ja     bcb6 <func_56+0x4859>
    bca5:	8b 85 cc e8 ff ff    	mov    -0x1734(%rbp),%eax
    bcab:	85 c0                	test   %eax,%eax
    bcad:	74 07                	je     bcb6 <func_56+0x4859>
    bcaf:	b8 01 00 00 00       	mov    $0x1,%eax
    bcb4:	eb 05                	jmp    bcbb <func_56+0x485e>
    bcb6:	b8 00 00 00 00       	mov    $0x0,%eax
    bcbb:	44 39 e0             	cmp    %r12d,%eax
    bcbe:	0f 95 c0             	setne  %al
    bcc1:	0f b6 c0             	movzbl %al,%eax
    bcc4:	89 85 58 f2 ff ff    	mov    %eax,-0xda8(%rbp)
    bcca:	48 8b 05 4f da 00 00 	mov    0xda4f(%rip),%rax        # 19720 <g_294>
    bcd1:	48 8b 00             	mov    (%rax),%rax
    bcd4:	e9 39 07 00 00       	jmpq   c412 <func_56+0x4fb5>
    bcd9:	48 8b 05 68 da 00 00 	mov    0xda68(%rip),%rax        # 19748 <g_721>
    bce0:	8b 00                	mov    (%rax),%eax
    bce2:	85 c0                	test   %eax,%eax
    bce4:	0f 85 b6 04 00 00    	jne    c1a0 <func_56+0x4d43>
    bcea:	48 8b 85 c0 e8 ff ff 	mov    -0x1740(%rbp),%rax
    bcf1:	8b 00                	mov    (%rax),%eax
    bcf3:	85 c0                	test   %eax,%eax
    bcf5:	74 19                	je     bd10 <func_56+0x48b3>
    bcf7:	c6 85 e7 e8 ff ff f6 	movb   $0xf6,-0x1719(%rbp)
    bcfe:	80 bd e7 e8 ff ff 00 	cmpb   $0x0,-0x1719(%rbp)
    bd05:	0f 84 07 02 00 00    	je     bf12 <func_56+0x4ab5>
    bd0b:	e9 aa 04 00 00       	jmpq   c1ba <func_56+0x4d5d>
    bd10:	66 c7 85 f8 e8 ff ff 	movw   $0xb903,-0x1708(%rbp)
    bd17:	03 b9 
    bd19:	48 8d 85 fc e8 ff ff 	lea    -0x1704(%rbp),%rax
    bd20:	48 89 85 00 ec ff ff 	mov    %rax,-0x1400(%rbp)
    bd27:	66 c7 85 ec e8 ff ff 	movw   $0x323f,-0x1714(%rbp)
    bd2e:	3f 32 
    bd30:	8b 85 94 ec ff ff    	mov    -0x136c(%rbp),%eax
    bd36:	83 c0 01             	add    $0x1,%eax
    bd39:	89 85 94 ec ff ff    	mov    %eax,-0x136c(%rbp)
    bd3f:	0f b7 05 8a ba 00 00 	movzwl 0xba8a(%rip),%eax        # 177d0 <g_870+0x10>
    bd46:	0f b7 c0             	movzwl %ax,%eax
    bd49:	89 c6                	mov    %eax,%esi
    bd4b:	bf 01 00 00 00       	mov    $0x1,%edi
    bd50:	e8 aa 89 ff ff       	callq  46ff <safe_div_func_int32_t_s_s>
    bd55:	85 c0                	test   %eax,%eax
    bd57:	74 28                	je     bd81 <func_56+0x4924>
    bd59:	48 8b 05 e8 d9 00 00 	mov    0xd9e8(%rip),%rax        # 19748 <g_721>
    bd60:	8b 08                	mov    (%rax),%ecx
    bd62:	48 8b 05 ef d9 00 00 	mov    0xd9ef(%rip),%rax        # 19758 <g_744>
    bd69:	48 8b 00             	mov    (%rax),%rax
    bd6c:	48 8b 00             	mov    (%rax),%rax
    bd6f:	8b 10                	mov    (%rax),%edx
    bd71:	48 8b 05 d0 d9 00 00 	mov    0xd9d0(%rip),%rax        # 19748 <g_721>
    bd78:	09 ca                	or     %ecx,%edx
    bd7a:	89 10                	mov    %edx,(%rax)
    bd7c:	e9 41 01 00 00       	jmpq   bec2 <func_56+0x4a65>
    bd81:	48 8d 05 98 d9 00 00 	lea    0xd998(%rip),%rax        # 19720 <g_294>
    bd88:	48 89 85 30 ea ff ff 	mov    %rax,-0x15d0(%rbp)
    bd8f:	48 8d 85 30 ea ff ff 	lea    -0x15d0(%rbp),%rax
    bd96:	48 89 85 38 ea ff ff 	mov    %rax,-0x15c8(%rbp)
    bd9d:	48 8d 85 38 ea ff ff 	lea    -0x15c8(%rbp),%rax
    bda4:	48 89 85 08 ec ff ff 	mov    %rax,-0x13f8(%rbp)
    bdab:	48 8d 85 20 fa ff ff 	lea    -0x5e0(%rbp),%rax
    bdb2:	48 8d 15 e7 d0 00 00 	lea    0xd0e7(%rip),%rdx        # 18ea0 <g_1830+0x900>
    bdb9:	b9 b4 00 00 00       	mov    $0xb4,%ecx
    bdbe:	48 89 c7             	mov    %rax,%rdi
    bdc1:	48 89 d6             	mov    %rdx,%rsi
    bdc4:	f3 48 a5             	rep movsq %ds:(%rsi),%es:(%rdi)
    bdc7:	48 8d 05 42 b6 00 00 	lea    0xb642(%rip),%rax        # 17410 <g_419+0x10>
    bdce:	48 89 85 10 ec ff ff 	mov    %rax,-0x13f0(%rbp)
    bdd5:	48 8b 05 54 92 00 00 	mov    0x9254(%rip),%rax        # 15030 <g_26>
    bddc:	48 85 c0             	test   %rax,%rax
    bddf:	74 05                	je     bde6 <func_56+0x4989>
    bde1:	e9 47 c3 ff ff       	jmpq   812d <func_56+0xcd0>
    bde6:	48 8b 95 38 ea ff ff 	mov    -0x15c8(%rbp),%rdx
    bded:	48 8b 85 08 ec ff ff 	mov    -0x13f8(%rbp),%rax
    bdf4:	48 89 10             	mov    %rdx,(%rax)
    bdf7:	0f b6 05 82 92 00 00 	movzbl 0x9282(%rip),%eax        # 15080 <g_103>
    bdfe:	0f b6 c0             	movzbl %al,%eax
    be01:	89 c6                	mov    %eax,%esi
    be03:	bf ff 00 00 00       	mov    $0xff,%edi
    be08:	e8 86 8d ff ff       	callq  4b93 <safe_mul_func_uint8_t_u_u>
    be0d:	0f b7 05 5c b9 00 00 	movzwl 0xb95c(%rip),%eax        # 17770 <g_773+0x10>
    be14:	0f bf d8             	movswl %ax,%ebx
    be17:	8b 85 cc e8 ff ff    	mov    -0x1734(%rbp),%eax
    be1d:	41 89 c4             	mov    %eax,%r12d
    be20:	48 8b 85 c0 eb ff ff 	mov    -0x1440(%rbp),%rax
    be27:	0f bf d0             	movswl %ax,%edx
    be2a:	48 8d 85 b8 e8 ff ff 	lea    -0x1748(%rbp),%rax
    be31:	48 89 85 80 ee ff ff 	mov    %rax,-0x1180(%rbp)
    be38:	48 8b 8d 80 ee ff ff 	mov    -0x1180(%rbp),%rcx
    be3f:	48 8b 85 18 ea ff ff 	mov    -0x15e8(%rbp),%rax
    be46:	48 39 c1             	cmp    %rax,%rcx
    be49:	75 10                	jne    be5b <func_56+0x49fe>
    be4b:	83 bd a8 e9 ff ff 00 	cmpl   $0x0,-0x1658(%rbp)
    be52:	74 07                	je     be5b <func_56+0x49fe>
    be54:	b8 01 00 00 00       	mov    $0x1,%eax
    be59:	eb 05                	jmp    be60 <func_56+0x4a03>
    be5b:	b8 00 00 00 00       	mov    $0x0,%eax
    be60:	98                   	cwtl   
    be61:	89 d6                	mov    %edx,%esi
    be63:	89 c7                	mov    %eax,%edi
    be65:	e8 69 85 ff ff       	callq  43d3 <safe_sub_func_int16_t_s_s>
    be6a:	48 0f bf d0          	movswq %ax,%rdx
    be6e:	48 8b 85 10 ec ff ff 	mov    -0x13f0(%rbp),%rax
    be75:	48 89 10             	mov    %rdx,(%rax)
    be78:	48 8b 85 10 ec ff ff 	mov    -0x13f0(%rbp),%rax
    be7f:	48 8b 00             	mov    (%rax),%rax
    be82:	49 39 c4             	cmp    %rax,%r12
    be85:	0f 92 c0             	setb   %al
    be88:	0f b6 c0             	movzbl %al,%eax
    be8b:	89 de                	mov    %ebx,%esi
    be8d:	89 c7                	mov    %eax,%edi
    be8f:	e8 c1 85 ff ff       	callq  4455 <safe_div_func_int16_t_s_s>
    be94:	66 83 f8 06          	cmp    $0x6,%ax
    be98:	74 07                	je     bea1 <func_56+0x4a44>
    be9a:	ba 01 00 00 00       	mov    $0x1,%edx
    be9f:	eb 05                	jmp    bea6 <func_56+0x4a49>
    bea1:	ba 00 00 00 00       	mov    $0x0,%edx
    bea6:	48 8b 05 a3 d8 00 00 	mov    0xd8a3(%rip),%rax        # 19750 <g_746>
    bead:	81 ca 53 58 d4 69    	or     $0x69d45853,%edx
    beb3:	89 10                	mov    %edx,(%rax)
    beb5:	83 bd 9c e9 ff ff 00 	cmpl   $0x0,-0x1664(%rbp)
    bebc:	0f 85 e1 02 00 00    	jne    c1a3 <func_56+0x4d46>
    bec2:	c7 85 24 e9 ff ff 01 	movl   $0x1,-0x16dc(%rbp)
    bec9:	00 00 00 
    becc:	eb 3b                	jmp    bf09 <func_56+0x4aac>
    bece:	48 8b 15 d3 d8 00 00 	mov    0xd8d3(%rip),%rdx        # 197a8 <g_868>
    bed5:	48 8b 05 cc d8 00 00 	mov    0xd8cc(%rip),%rax        # 197a8 <g_868>
    bedc:	48 8b 12             	mov    (%rdx),%rdx
    bedf:	48 89 10             	mov    %rdx,(%rax)
    bee2:	66 83 bd f8 e8 ff ff 	cmpw   $0x0,-0x1708(%rbp)
    bee9:	00 
    beea:	0f 9f c0             	setg   %al
    beed:	0f b6 c0             	movzbl %al,%eax
    bef0:	89 c2                	mov    %eax,%edx
    bef2:	0f b7 85 ec e8 ff ff 	movzwl -0x1714(%rbp),%eax
    bef9:	31 d0                	xor    %edx,%eax
    befb:	66 89 85 ec e8 ff ff 	mov    %ax,-0x1714(%rbp)
    bf02:	83 ad 24 e9 ff ff 01 	subl   $0x1,-0x16dc(%rbp)
    bf09:	83 bd 24 e9 ff ff 00 	cmpl   $0x0,-0x16dc(%rbp)
    bf10:	79 bc                	jns    bece <func_56+0x4a71>
    bf12:	66 c7 05 25 b5 00 00 	movw   $0x3464,0xb525(%rip)        # 17440 <g_604>
    bf19:	64 34 
    bf1b:	0f b7 15 1e b5 00 00 	movzwl 0xb51e(%rip),%edx        # 17440 <g_604>
    bf22:	48 8b 85 48 ea ff ff 	mov    -0x15b8(%rbp),%rax
    bf29:	66 89 10             	mov    %dx,(%rax)
    bf2c:	48 8b 85 48 ea ff ff 	mov    -0x15b8(%rbp),%rax
    bf33:	0f b7 00             	movzwl (%rax),%eax
    bf36:	44 0f bf e0          	movswl %ax,%r12d
    bf3a:	48 8b 85 c8 eb ff ff 	mov    -0x1438(%rbp),%rax
    bf41:	0f b7 c0             	movzwl %ax,%eax
    bf44:	be 03 00 00 00       	mov    $0x3,%esi
    bf49:	89 c7                	mov    %eax,%edi
    bf4b:	e8 ed 8d ff ff       	callq  4d3d <safe_mul_func_uint16_t_u_u>
    bf50:	0f b7 c0             	movzwl %ax,%eax
    bf53:	39 85 ac e9 ff ff    	cmp    %eax,-0x1654(%rbp)
    bf59:	0f 95 c0             	setne  %al
    bf5c:	0f b6 d0             	movzbl %al,%edx
    bf5f:	0f b6 05 d2 90 00 00 	movzbl 0x90d2(%rip),%eax        # 15038 <g_27>
    bf66:	0f be c0             	movsbl %al,%eax
    bf69:	39 c2                	cmp    %eax,%edx
    bf6b:	0f 9d c0             	setge  %al
    bf6e:	0f b6 d8             	movzbl %al,%ebx
    bf71:	8b 15 bd de 00 00    	mov    0xdebd(%rip),%edx        # 19e34 <g_135>
    bf77:	48 8d 05 d2 d7 00 00 	lea    0xd7d2(%rip),%rax        # 19750 <g_746>
    bf7e:	48 8b 00             	mov    (%rax),%rax
    bf81:	8b 00                	mov    (%rax),%eax
    bf83:	89 d6                	mov    %edx,%esi
    bf85:	89 c7                	mov    %eax,%edi
    bf87:	e8 40 87 ff ff       	callq  46cc <safe_mod_func_int32_t_s_s>
    bf8c:	48 98                	cltq   
    bf8e:	48 89 de             	mov    %rbx,%rsi
    bf91:	48 89 c7             	mov    %rax,%rdi
    bf94:	e8 0f 89 ff ff       	callq  48a8 <safe_sub_func_int64_t_s_s>
    bf99:	0f bf d0             	movswl %ax,%edx
    bf9c:	8b 85 cc e8 ff ff    	mov    -0x1734(%rbp),%eax
    bfa2:	98                   	cwtl   
    bfa3:	89 d6                	mov    %edx,%esi
    bfa5:	89 c7                	mov    %eax,%edi
    bfa7:	e8 a9 84 ff ff       	callq  4455 <safe_div_func_int16_t_s_s>
    bfac:	8b 05 8a 90 00 00    	mov    0x908a(%rip),%eax        # 1503c <g_33>
    bfb2:	85 c0                	test   %eax,%eax
    bfb4:	74 13                	je     bfc9 <func_56+0x4b6c>
    bfb6:	48 8b 85 b0 e8 ff ff 	mov    -0x1750(%rbp),%rax
    bfbd:	48 85 c0             	test   %rax,%rax
    bfc0:	74 07                	je     bfc9 <func_56+0x4b6c>
    bfc2:	b8 01 00 00 00       	mov    $0x1,%eax
    bfc7:	eb 05                	jmp    bfce <func_56+0x4b71>
    bfc9:	b8 00 00 00 00       	mov    $0x0,%eax
    bfce:	44 39 e0             	cmp    %r12d,%eax
    bfd1:	0f 9f c0             	setg   %al
    bfd4:	0f b6 c0             	movzbl %al,%eax
    bfd7:	be d3 00 00 00       	mov    $0xd3,%esi
    bfdc:	89 c7                	mov    %eax,%edi
    bfde:	e8 77 8b ff ff       	callq  4b5a <safe_add_func_uint8_t_u_u>
    bfe3:	84 c0                	test   %al,%al
    bfe5:	0f 94 c0             	sete   %al
    bfe8:	0f b6 d0             	movzbl %al,%edx
    bfeb:	0f b7 05 ee 90 00 00 	movzwl 0x90ee(%rip),%eax        # 150e0 <g_133+0x40>
    bff2:	0f b7 c0             	movzwl %ax,%eax
    bff5:	39 c2                	cmp    %eax,%edx
    bff7:	0f 9e c0             	setle  %al
    bffa:	0f b6 c0             	movzbl %al,%eax
    bffd:	89 85 ac e9 ff ff    	mov    %eax,-0x1654(%rbp)
    c003:	c7 05 27 de 00 00 02 	movl   $0x2,0xde27(%rip)        # 19e34 <g_135>
    c00a:	00 00 00 
    c00d:	e9 7b 01 00 00       	jmpq   c18d <func_56+0x4d30>
    c012:	c7 85 bc e9 ff ff 98 	movl   $0x40b49b98,-0x1644(%rbp)
    c019:	9b b4 40 
    c01c:	48 c7 85 18 ec ff ff 	movq   $0xffffffffffffffff,-0x13e8(%rbp)
    c023:	ff ff ff ff 
    c027:	c7 05 f7 b6 00 00 00 	movl   $0x0,0xb6f7(%rip)        # 17728 <g_771+0x8>
    c02e:	00 00 00 
    c031:	e9 1b 01 00 00       	jmpq   c151 <func_56+0x4cf4>
    c036:	48 8d 05 f3 b6 00 00 	lea    0xb6f3(%rip),%rax        # 17730 <g_771+0x10>
    c03d:	48 89 85 20 ec ff ff 	mov    %rax,-0x13e0(%rbp)
    c044:	48 8d 05 45 90 00 00 	lea    0x9045(%rip),%rax        # 15090 <g_131>
    c04b:	48 89 85 28 ec ff ff 	mov    %rax,-0x13d8(%rbp)
    c052:	48 c7 85 30 ec ff ff 	movq   $0x0,-0x13d0(%rbp)
    c059:	00 00 00 00 
    c05d:	48 8d 85 00 e9 ff ff 	lea    -0x1700(%rbp),%rax
    c064:	48 89 85 38 ec ff ff 	mov    %rax,-0x13c8(%rbp)
    c06b:	48 8d 85 28 ea ff ff 	lea    -0x15d8(%rbp),%rax
    c072:	48 89 85 40 ec ff ff 	mov    %rax,-0x13c0(%rbp)
    c079:	c7 85 c0 e9 ff ff 05 	movl   $0x5,-0x1640(%rbp)
    c080:	00 00 00 
    c083:	c7 85 28 e9 ff ff 00 	movl   $0x0,-0x16d8(%rbp)
    c08a:	00 00 00 
    c08d:	eb 4c                	jmp    c0db <func_56+0x4c7e>
    c08f:	c7 85 2c e9 ff ff 00 	movl   $0x0,-0x16d4(%rbp)
    c096:	00 00 00 
    c099:	eb 30                	jmp    c0cb <func_56+0x4c6e>
    c09b:	8b 85 2c e9 ff ff    	mov    -0x16d4(%rbp),%eax
    c0a1:	48 63 c8             	movslq %eax,%rcx
    c0a4:	8b 85 28 e9 ff ff    	mov    -0x16d8(%rbp),%eax
    c0aa:	48 63 d0             	movslq %eax,%rdx
    c0ad:	48 89 d0             	mov    %rdx,%rax
    c0b0:	48 01 c0             	add    %rax,%rax
    c0b3:	48 01 d0             	add    %rdx,%rax
    c0b6:	48 01 c8             	add    %rcx,%rax
    c0b9:	c7 84 85 20 fa ff ff 	movl   $0xffffffff,-0x5e0(%rbp,%rax,4)
    c0c0:	ff ff ff ff 
    c0c4:	83 85 2c e9 ff ff 01 	addl   $0x1,-0x16d4(%rbp)
    c0cb:	83 bd 2c e9 ff ff 02 	cmpl   $0x2,-0x16d4(%rbp)
    c0d2:	7e c7                	jle    c09b <func_56+0x4c3e>
    c0d4:	83 85 28 e9 ff ff 01 	addl   $0x1,-0x16d8(%rbp)
    c0db:	83 bd 28 e9 ff ff 01 	cmpl   $0x1,-0x16d8(%rbp)
    c0e2:	7e ab                	jle    c08f <func_56+0x4c32>
    c0e4:	48 8b 05 6d d6 00 00 	mov    0xd66d(%rip),%rax        # 19758 <g_744>
    c0eb:	48 8b 00             	mov    (%rax),%rax
    c0ee:	48 8b 00             	mov    (%rax),%rax
    c0f1:	8b 10                	mov    (%rax),%edx
    c0f3:	48 8b 05 5e d6 00 00 	mov    0xd65e(%rip),%rax        # 19758 <g_744>
    c0fa:	48 8b 00             	mov    (%rax),%rax
    c0fd:	48 8b 00             	mov    (%rax),%rax
    c100:	83 ca 01             	or     $0x1,%edx
    c103:	89 10                	mov    %edx,(%rax)
    c105:	8b 05 75 c0 00 00    	mov    0xc075(%rip),%eax        # 18180 <g_1009>
    c10b:	0f b6 c0             	movzbl %al,%eax
    c10e:	89 c6                	mov    %eax,%esi
    c110:	bf 05 00 00 00       	mov    $0x5,%edi
    c115:	e8 40 8a ff ff       	callq  4b5a <safe_add_func_uint8_t_u_u>
    c11a:	89 c2                	mov    %eax,%edx
    c11c:	48 8b 05 25 d6 00 00 	mov    0xd625(%rip),%rax        # 19748 <g_721>
    c123:	0f b6 d2             	movzbl %dl,%edx
    c126:	89 10                	mov    %edx,(%rax)
    c128:	48 8d 05 21 d6 00 00 	lea    0xd621(%rip),%rax        # 19750 <g_746>
    c12f:	48 8b 00             	mov    (%rax),%rax
    c132:	8b 95 2c fa ff ff    	mov    -0x5d4(%rbp),%edx
    c138:	89 10                	mov    %edx,(%rax)
    c13a:	8b 00                	mov    (%rax),%eax
    c13c:	89 85 94 e9 ff ff    	mov    %eax,-0x166c(%rbp)
    c142:	8b 05 e0 b5 00 00    	mov    0xb5e0(%rip),%eax        # 17728 <g_771+0x8>
    c148:	83 c0 01             	add    $0x1,%eax
    c14b:	89 05 d7 b5 00 00    	mov    %eax,0xb5d7(%rip)        # 17728 <g_771+0x8>
    c151:	8b 05 d1 b5 00 00    	mov    0xb5d1(%rip),%eax        # 17728 <g_771+0x8>
    c157:	83 f8 01             	cmp    $0x1,%eax
    c15a:	0f 86 d6 fe ff ff    	jbe    c036 <func_56+0x4bd9>
    c160:	48 8b 85 c0 e8 ff ff 	mov    -0x1740(%rbp),%rax
    c167:	8b 00                	mov    (%rax),%eax
    c169:	85 c0                	test   %eax,%eax
    c16b:	74 11                	je     c17e <func_56+0x4d21>
    c16d:	8b 05 c1 dc 00 00    	mov    0xdcc1(%rip),%eax        # 19e34 <g_135>
    c173:	83 e8 01             	sub    $0x1,%eax
    c176:	89 05 b8 dc 00 00    	mov    %eax,0xdcb8(%rip)        # 19e34 <g_135>
    c17c:	eb 0f                	jmp    c18d <func_56+0x4d30>
    c17e:	48 8b 05 9b d5 00 00 	mov    0xd59b(%rip),%rax        # 19720 <g_294>
    c185:	48 8b 00             	mov    (%rax),%rax
    c188:	e9 85 02 00 00       	jmpq   c412 <func_56+0x4fb5>
    c18d:	8b 05 a1 dc 00 00    	mov    0xdca1(%rip),%eax        # 19e34 <g_135>
    c193:	85 c0                	test   %eax,%eax
    c195:	0f 89 77 fe ff ff    	jns    c012 <func_56+0x4bb5>
    c19b:	eb 07                	jmp    c1a4 <func_56+0x4d47>
    c19d:	90                   	nop
    c19e:	eb 04                	jmp    c1a4 <func_56+0x4d47>
    c1a0:	90                   	nop
    c1a1:	eb 01                	jmp    c1a4 <func_56+0x4d47>
    c1a3:	90                   	nop
    c1a4:	48 83 85 40 ea ff ff 	addq   $0x1,-0x15c0(%rbp)
    c1ab:	01 
    c1ac:	48 83 bd 40 ea ff ff 	cmpq   $0x2,-0x15c0(%rbp)
    c1b3:	02 
    c1b4:	0f 86 8a f0 ff ff    	jbe    b244 <func_56+0x3de7>
    c1ba:	48 c7 85 b0 e8 ff ff 	movq   $0x0,-0x1750(%rbp)
    c1c1:	00 00 00 00 
    c1c5:	e9 d3 00 00 00       	jmpq   c29d <func_56+0x4e40>
    c1ca:	c7 85 d8 e9 ff ff d5 	movl   $0xd10efdd5,-0x1628(%rbp)
    c1d1:	fd 0e d1 
    c1d4:	c7 85 dc e9 ff ff 7b 	movl   $0xab6297b,-0x1624(%rbp)
    c1db:	29 b6 0a 
    c1de:	48 8d 85 20 fa ff ff 	lea    -0x5e0(%rbp),%rax
    c1e5:	48 8d 15 b4 58 00 00 	lea    0x58b4(%rip),%rdx        # 11aa0 <g_1342+0xa20>
    c1ec:	b9 46 00 00 00       	mov    $0x46,%ecx
    c1f1:	48 89 c7             	mov    %rax,%rdi
    c1f4:	48 89 d6             	mov    %rdx,%rsi
    c1f7:	f3 48 a5             	rep movsq %ds:(%rsi),%es:(%rdi)
    c1fa:	48 b8 6e 47 2d bf ec 	movabs $0xec674decbf2d476e,%rax
    c201:	4d 67 ec 
    c204:	48 89 85 70 ec ff ff 	mov    %rax,-0x1390(%rbp)
    c20b:	48 8d 05 96 b3 00 00 	lea    0xb396(%rip),%rax        # 175a8 <g_668+0x8>
    c212:	48 89 85 30 f2 ff ff 	mov    %rax,-0xdd0(%rbp)
    c219:	48 8d 05 20 b2 00 00 	lea    0xb220(%rip),%rax        # 17440 <g_604>
    c220:	48 89 85 38 f2 ff ff 	mov    %rax,-0xdc8(%rbp)
    c227:	48 8d 05 7a b3 00 00 	lea    0xb37a(%rip),%rax        # 175a8 <g_668+0x8>
    c22e:	48 89 85 40 f2 ff ff 	mov    %rax,-0xdc0(%rbp)
    c235:	48 8d 05 04 b2 00 00 	lea    0xb204(%rip),%rax        # 17440 <g_604>
    c23c:	48 89 85 48 f2 ff ff 	mov    %rax,-0xdb8(%rbp)
    c243:	48 8d 05 5e b3 00 00 	lea    0xb35e(%rip),%rax        # 175a8 <g_668+0x8>
    c24a:	48 89 85 50 f2 ff ff 	mov    %rax,-0xdb0(%rbp)
    c251:	48 8d 05 e8 b1 00 00 	lea    0xb1e8(%rip),%rax        # 17440 <g_604>
    c258:	48 89 85 58 f2 ff ff 	mov    %rax,-0xda8(%rbp)
    c25f:	48 8d 05 42 b3 00 00 	lea    0xb342(%rip),%rax        # 175a8 <g_668+0x8>
    c266:	48 89 85 60 f2 ff ff 	mov    %rax,-0xda0(%rbp)
    c26d:	48 8d 05 cc b1 00 00 	lea    0xb1cc(%rip),%rax        # 17440 <g_604>
    c274:	48 89 85 68 f2 ff ff 	mov    %rax,-0xd98(%rbp)
    c27b:	0f b6 85 f1 ec ff ff 	movzbl -0x130f(%rbp),%eax
    c282:	83 c0 01             	add    $0x1,%eax
    c285:	88 85 f1 ec ff ff    	mov    %al,-0x130f(%rbp)
    c28b:	48 8b 85 b0 e8 ff ff 	mov    -0x1750(%rbp),%rax
    c292:	48 83 c0 01          	add    $0x1,%rax
    c296:	48 89 85 b0 e8 ff ff 	mov    %rax,-0x1750(%rbp)
    c29d:	48 8b 85 b0 e8 ff ff 	mov    -0x1750(%rbp),%rax
    c2a4:	48 83 f8 04          	cmp    $0x4,%rax
    c2a8:	0f 86 1c ff ff ff    	jbe    c1ca <func_56+0x4d6d>
    c2ae:	66 c7 05 a9 b4 00 00 	movw   $0x0,0xb4a9(%rip)        # 17760 <g_773>
    c2b5:	00 00 
    c2b7:	e9 f8 00 00 00       	jmpq   c3b4 <func_56+0x4f57>
    c2bc:	48 c7 85 58 ec ff ff 	movq   $0x0,-0x13a8(%rbp)
    c2c3:	00 00 00 00 
    c2c7:	c7 85 cc e9 ff ff 06 	movl   $0x6,-0x1634(%rbp)
    c2ce:	00 00 00 
    c2d1:	c7 85 d0 e9 ff ff 39 	movl   $0xc3079939,-0x1630(%rbp)
    c2d8:	99 07 c3 
    c2db:	48 8d 85 30 f2 ff ff 	lea    -0xdd0(%rbp),%rax
    c2e2:	48 89 85 60 ec ff ff 	mov    %rax,-0x13a0(%rbp)
    c2e9:	c7 85 d4 e9 ff ff 01 	movl   $0x1,-0x162c(%rbp)
    c2f0:	00 00 00 
    c2f3:	66 c7 85 fa e8 ff ff 	movw   $0x1,-0x1706(%rbp)
    c2fa:	01 00 
    c2fc:	48 8d 85 e8 e9 ff ff 	lea    -0x1618(%rbp),%rax
    c303:	48 89 85 68 ec ff ff 	mov    %rax,-0x1398(%rbp)
    c30a:	c7 85 30 e9 ff ff 00 	movl   $0x0,-0x16d0(%rbp)
    c311:	00 00 00 
    c314:	eb 1a                	jmp    c330 <func_56+0x4ed3>
    c316:	8b 85 30 e9 ff ff    	mov    -0x16d0(%rbp),%eax
    c31c:	48 98                	cltq   
    c31e:	c7 84 85 c0 ed ff ff 	movl   $0xb46fd452,-0x1240(%rbp,%rax,4)
    c325:	52 d4 6f b4 
    c329:	83 85 30 e9 ff ff 01 	addl   $0x1,-0x16d0(%rbp)
    c330:	83 bd 30 e9 ff ff 05 	cmpl   $0x5,-0x16d0(%rbp)
    c337:	7e dd                	jle    c316 <func_56+0x4eb9>
    c339:	c7 85 30 e9 ff ff 00 	movl   $0x0,-0x16d0(%rbp)
    c340:	00 00 00 
    c343:	eb 1e                	jmp    c363 <func_56+0x4f06>
    c345:	8b 85 30 e9 ff ff    	mov    -0x16d0(%rbp),%eax
    c34b:	48 98                	cltq   
    c34d:	48 8d 95 18 ea ff ff 	lea    -0x15e8(%rbp),%rdx
    c354:	48 89 94 c5 20 fa ff 	mov    %rdx,-0x5e0(%rbp,%rax,8)
    c35b:	ff 
    c35c:	83 85 30 e9 ff ff 01 	addl   $0x1,-0x16d0(%rbp)
    c363:	83 bd 30 e9 ff ff 05 	cmpl   $0x5,-0x16d0(%rbp)
    c36a:	7e d9                	jle    c345 <func_56+0x4ee8>
    c36c:	c7 85 30 e9 ff ff 00 	movl   $0x0,-0x16d0(%rbp)
    c373:	00 00 00 
    c376:	eb 22                	jmp    c39a <func_56+0x4f3d>
    c378:	8b 85 30 e9 ff ff    	mov    -0x16d0(%rbp),%eax
    c37e:	48 98                	cltq   
    c380:	48 8d 95 20 fa ff ff 	lea    -0x5e0(%rbp),%rdx
    c387:	48 83 c2 10          	add    $0x10,%rdx
    c38b:	48 89 94 c5 30 f2 ff 	mov    %rdx,-0xdd0(%rbp,%rax,8)
    c392:	ff 
    c393:	83 85 30 e9 ff ff 01 	addl   $0x1,-0x16d0(%rbp)
    c39a:	83 bd 30 e9 ff ff 03 	cmpl   $0x3,-0x16d0(%rbp)
    c3a1:	7e d5                	jle    c378 <func_56+0x4f1b>
    c3a3:	0f b7 05 b6 b3 00 00 	movzwl 0xb3b6(%rip),%eax        # 17760 <g_773>
    c3aa:	83 c0 01             	add    $0x1,%eax
    c3ad:	66 89 05 ac b3 00 00 	mov    %ax,0xb3ac(%rip)        # 17760 <g_773>
    c3b4:	0f b7 05 a5 b3 00 00 	movzwl 0xb3a5(%rip),%eax        # 17760 <g_773>
    c3bb:	66 83 f8 05          	cmp    $0x5,%ax
    c3bf:	0f 86 f7 fe ff ff    	jbe    c2bc <func_56+0x4e5f>
    c3c5:	0f b6 85 db e8 ff ff 	movzbl -0x1725(%rbp),%eax
    c3cc:	83 c0 01             	add    $0x1,%eax
    c3cf:	88 85 db e8 ff ff    	mov    %al,-0x1725(%rbp)
    c3d5:	0f b6 85 db e8 ff ff 	movzbl -0x1725(%rbp),%eax
    c3dc:	3c 02                	cmp    $0x2,%al
    c3de:	0f 86 7a e7 ff ff    	jbe    ab5e <func_56+0x3701>
    c3e4:	eb 01                	jmp    c3e7 <func_56+0x4f8a>
    c3e6:	90                   	nop
    c3e7:	8b 05 9b 8e 00 00    	mov    0x8e9b(%rip),%eax        # 15288 <g_212>
    c3ed:	83 c0 01             	add    $0x1,%eax
    c3f0:	89 05 92 8e 00 00    	mov    %eax,0x8e92(%rip)        # 15288 <g_212>
    c3f6:	8b 05 8c 8e 00 00    	mov    0x8e8c(%rip),%eax        # 15288 <g_212>
    c3fc:	83 f8 02             	cmp    $0x2,%eax
    c3ff:	0f 86 3f bd ff ff    	jbe    8144 <func_56+0xce7>
    c405:	eb 04                	jmp    c40b <func_56+0x4fae>
    c407:	90                   	nop
    c408:	eb 01                	jmp    c40b <func_56+0x4fae>
    c40a:	90                   	nop
    c40b:	48 8b 85 b8 e8 ff ff 	mov    -0x1748(%rbp),%rax
    c412:	48 8b 5d c8          	mov    -0x38(%rbp),%rbx
    c416:	64 48 33 1c 25 28 00 	xor    %fs:0x28,%rbx
    c41d:	00 00 
    c41f:	74 05                	je     c426 <func_56+0x4fc9>
    c421:	e8 4a 7c ff ff       	callq  4070 <__stack_chk_fail@plt>
    c426:	48 81 c4 38 17 00 00 	add    $0x1738,%rsp
    c42d:	5b                   	pop    %rbx
    c42e:	41 5c                	pop    %r12
    c430:	41 5d                	pop    %r13
    c432:	41 5e                	pop    %r14
    c434:	41 5f                	pop    %r15
    c436:	5d                   	pop    %rbp
    c437:	c3                   	retq   

000000000000c438 <func_61>:
    c438:	f3 0f 1e fa          	endbr64 
    c43c:	55                   	push   %rbp
    c43d:	48 89 e5             	mov    %rsp,%rbp
    c440:	41 55                	push   %r13
    c442:	41 54                	push   %r12
    c444:	53                   	push   %rbx
    c445:	48 81 ec 88 07 00 00 	sub    $0x788,%rsp
    c44c:	48 89 bd 78 f8 ff ff 	mov    %rdi,-0x788(%rbp)
    c453:	48 89 b5 70 f8 ff ff 	mov    %rsi,-0x790(%rbp)
    c45a:	48 89 95 68 f8 ff ff 	mov    %rdx,-0x798(%rbp)
    c461:	64 48 8b 04 25 28 00 	mov    %fs:0x28,%rax
    c468:	00 00 
    c46a:	48 89 45 d8          	mov    %rax,-0x28(%rbp)
    c46e:	31 c0                	xor    %eax,%eax
    c470:	48 8d 05 b9 d9 00 00 	lea    0xd9b9(%rip),%rax        # 19e30 <g_89>
    c477:	48 89 85 c8 f8 ff ff 	mov    %rax,-0x738(%rbp)
    c47e:	48 8d 85 c8 f8 ff ff 	lea    -0x738(%rbp),%rax
    c485:	48 89 85 d0 f8 ff ff 	mov    %rax,-0x730(%rbp)
    c48c:	48 8d 85 d0 f8 ff ff 	lea    -0x730(%rbp),%rax
    c493:	48 89 85 d8 f8 ff ff 	mov    %rax,-0x728(%rbp)
    c49a:	c7 85 c0 f9 ff ff ff 	movl   $0xffffffff,-0x640(%rbp)
    c4a1:	ff ff ff 
    c4a4:	c7 85 c4 f9 ff ff ff 	movl   $0xffffffff,-0x63c(%rbp)
    c4ab:	ff ff ff 
    c4ae:	c7 85 c8 f9 ff ff ff 	movl   $0xffffffff,-0x638(%rbp)
    c4b5:	ff ff ff 
    c4b8:	c7 85 cc f9 ff ff ff 	movl   $0xffffffff,-0x634(%rbp)
    c4bf:	ff ff ff 
    c4c2:	c7 85 d0 f9 ff ff ff 	movl   $0xffffffff,-0x630(%rbp)
    c4c9:	ff ff ff 
    c4cc:	c7 85 d4 f9 ff ff ff 	movl   $0xffffffff,-0x62c(%rbp)
    c4d3:	ff ff ff 
    c4d6:	c7 85 d8 f9 ff ff ff 	movl   $0xffffffff,-0x628(%rbp)
    c4dd:	ff ff ff 
    c4e0:	c7 85 dc f9 ff ff ff 	movl   $0xffffffff,-0x624(%rbp)
    c4e7:	ff ff ff 
    c4ea:	c7 85 e0 f9 ff ff ff 	movl   $0xffffffff,-0x620(%rbp)
    c4f1:	ff ff ff 
    c4f4:	c7 85 e4 f9 ff ff ff 	movl   $0xffffffff,-0x61c(%rbp)
    c4fb:	ff ff ff 
    c4fe:	48 8d 85 50 fd ff ff 	lea    -0x2b0(%rbp),%rax
    c505:	48 8d 15 34 cf 00 00 	lea    0xcf34(%rip),%rdx        # 19440 <g_1830+0xea0>
    c50c:	b9 50 00 00 00       	mov    $0x50,%ecx
    c511:	48 89 c7             	mov    %rax,%rdi
    c514:	48 89 d6             	mov    %rdx,%rsi
    c517:	f3 48 a5             	rep movsq %ds:(%rsi),%es:(%rdi)
    c51a:	66 c7 85 86 f8 ff ff 	movw   $0xfffa,-0x77a(%rbp)
    c521:	fa ff 
    c523:	48 b8 a8 30 db 9a a1 	movabs $0x909a0ba19adb30a8,%rax
    c52a:	0b 9a 90 
    c52d:	48 89 85 08 f9 ff ff 	mov    %rax,-0x6f8(%rbp)
    c534:	c7 85 94 f8 ff ff 00 	movl   $0x0,-0x76c(%rbp)
    c53b:	00 00 00 
    c53e:	48 c7 85 70 fa ff ff 	movq   $0x0,-0x590(%rbp)
    c545:	00 00 00 00 
    c549:	48 8d 05 90 d1 00 00 	lea    0xd190(%rip),%rax        # 196e0 <g_257>
    c550:	48 89 85 78 fa ff ff 	mov    %rax,-0x588(%rbp)
    c557:	48 c7 85 80 fa ff ff 	movq   $0x0,-0x580(%rbp)
    c55e:	00 00 00 00 
    c562:	48 8d 05 77 d1 00 00 	lea    0xd177(%rip),%rax        # 196e0 <g_257>
    c569:	48 89 85 88 fa ff ff 	mov    %rax,-0x578(%rbp)
    c570:	48 c7 85 90 fa ff ff 	movq   $0x0,-0x570(%rbp)
    c577:	00 00 00 00 
    c57b:	48 8d 05 5e d1 00 00 	lea    0xd15e(%rip),%rax        # 196e0 <g_257>
    c582:	48 89 85 98 fa ff ff 	mov    %rax,-0x568(%rbp)
    c589:	48 c7 85 a0 fa ff ff 	movq   $0x0,-0x560(%rbp)
    c590:	00 00 00 00 
    c594:	48 8d 05 45 d1 00 00 	lea    0xd145(%rip),%rax        # 196e0 <g_257>
    c59b:	48 89 85 a8 fa ff ff 	mov    %rax,-0x558(%rbp)
    c5a2:	48 c7 85 b0 fa ff ff 	movq   $0x0,-0x550(%rbp)
    c5a9:	00 00 00 00 
    c5ad:	66 c7 85 c0 fa ff ff 	movw   $0xfffe,-0x540(%rbp)
    c5b4:	fe ff 
    c5b6:	66 c7 85 c2 fa ff ff 	movw   $0x0,-0x53e(%rbp)
    c5bd:	00 00 
    c5bf:	66 c7 85 c4 fa ff ff 	movw   $0x6,-0x53c(%rbp)
    c5c6:	06 00 
    c5c8:	66 c7 85 c6 fa ff ff 	movw   $0x6,-0x53a(%rbp)
    c5cf:	06 00 
    c5d1:	66 c7 85 c8 fa ff ff 	movw   $0x0,-0x538(%rbp)
    c5d8:	00 00 
    c5da:	66 c7 85 ca fa ff ff 	movw   $0xfffe,-0x536(%rbp)
    c5e1:	fe ff 
    c5e3:	66 c7 85 cc fa ff ff 	movw   $0x9,-0x534(%rbp)
    c5ea:	09 00 
    c5ec:	66 c7 85 ce fa ff ff 	movw   $0x9,-0x532(%rbp)
    c5f3:	09 00 
    c5f5:	66 c7 85 d0 fa ff ff 	movw   $0xfffe,-0x530(%rbp)
    c5fc:	fe ff 
    c5fe:	66 c7 85 d2 fa ff ff 	movw   $0xfffa,-0x52e(%rbp)
    c605:	fa ff 
    c607:	66 c7 85 d4 fa ff ff 	movw   $0x8ff2,-0x52c(%rbp)
    c60e:	f2 8f 
    c610:	66 c7 85 d6 fa ff ff 	movw   $0xfaad,-0x52a(%rbp)
    c617:	ad fa 
    c619:	66 c7 85 d8 fa ff ff 	movw   $0x8ff2,-0x528(%rbp)
    c620:	f2 8f 
    c622:	66 c7 85 da fa ff ff 	movw   $0xfffa,-0x526(%rbp)
    c629:	fa ff 
    c62b:	66 c7 85 dc fa ff ff 	movw   $0x8ff2,-0x524(%rbp)
    c632:	f2 8f 
    c634:	66 c7 85 de fa ff ff 	movw   $0xfaad,-0x522(%rbp)
    c63b:	ad fa 
    c63d:	66 c7 85 e0 fa ff ff 	movw   $0x8ff2,-0x520(%rbp)
    c644:	f2 8f 
    c646:	66 c7 85 e2 fa ff ff 	movw   $0xfffa,-0x51e(%rbp)
    c64d:	fa ff 
    c64f:	66 c7 85 e4 fa ff ff 	movw   $0x0,-0x51c(%rbp)
    c656:	00 00 
    c658:	66 c7 85 e6 fa ff ff 	movw   $0x6,-0x51a(%rbp)
    c65f:	06 00 
    c661:	66 c7 85 e8 fa ff ff 	movw   $0x6,-0x518(%rbp)
    c668:	06 00 
    c66a:	66 c7 85 ea fa ff ff 	movw   $0x0,-0x516(%rbp)
    c671:	00 00 
    c673:	66 c7 85 ec fa ff ff 	movw   $0xfffe,-0x514(%rbp)
    c67a:	fe ff 
    c67c:	66 c7 85 ee fa ff ff 	movw   $0x9,-0x512(%rbp)
    c683:	09 00 
    c685:	66 c7 85 f0 fa ff ff 	movw   $0x9,-0x510(%rbp)
    c68c:	09 00 
    c68e:	66 c7 85 f2 fa ff ff 	movw   $0xfffe,-0x50e(%rbp)
    c695:	fe ff 
    c697:	66 c7 85 f4 fa ff ff 	movw   $0x0,-0x50c(%rbp)
    c69e:	00 00 
    c6a0:	66 c7 85 f6 fa ff ff 	movw   $0xfffe,-0x50a(%rbp)
    c6a7:	fe ff 
    c6a9:	66 c7 85 f8 fa ff ff 	movw   $0x8ff2,-0x508(%rbp)
    c6b0:	f2 8f 
    c6b2:	66 c7 85 fa fa ff ff 	movw   $0xfffe,-0x506(%rbp)
    c6b9:	fe ff 
    c6bb:	66 c7 85 fc fa ff ff 	movw   $0x1,-0x504(%rbp)
    c6c2:	01 00 
    c6c4:	66 c7 85 fe fa ff ff 	movw   $0xfffe,-0x502(%rbp)
    c6cb:	fe ff 
    c6cd:	66 c7 85 00 fb ff ff 	movw   $0x8ff2,-0x500(%rbp)
    c6d4:	f2 8f 
    c6d6:	66 c7 85 02 fb ff ff 	movw   $0xfffe,-0x4fe(%rbp)
    c6dd:	fe ff 
    c6df:	66 c7 85 04 fb ff ff 	movw   $0x1,-0x4fc(%rbp)
    c6e6:	01 00 
    c6e8:	66 c7 85 06 fb ff ff 	movw   $0xfffe,-0x4fa(%rbp)
    c6ef:	fe ff 
    c6f1:	66 c7 85 08 fb ff ff 	movw   $0x0,-0x4f8(%rbp)
    c6f8:	00 00 
    c6fa:	66 c7 85 0a fb ff ff 	movw   $0x0,-0x4f6(%rbp)
    c701:	00 00 
    c703:	66 c7 85 0c fb ff ff 	movw   $0x9,-0x4f4(%rbp)
    c70a:	09 00 
    c70c:	66 c7 85 0e fb ff ff 	movw   $0x6,-0x4f2(%rbp)
    c713:	06 00 
    c715:	66 c7 85 10 fb ff ff 	movw   $0xfffe,-0x4f0(%rbp)
    c71c:	fe ff 
    c71e:	66 c7 85 12 fb ff ff 	movw   $0xfffe,-0x4ee(%rbp)
    c725:	fe ff 
    c727:	66 c7 85 14 fb ff ff 	movw   $0x6,-0x4ec(%rbp)
    c72e:	06 00 
    c730:	66 c7 85 16 fb ff ff 	movw   $0x9,-0x4ea(%rbp)
    c737:	09 00 
    c739:	66 c7 85 18 fb ff ff 	movw   $0x0,-0x4e8(%rbp)
    c740:	00 00 
    c742:	66 c7 85 1a fb ff ff 	movw   $0xfffa,-0x4e6(%rbp)
    c749:	fa ff 
    c74b:	66 c7 85 1c fb ff ff 	movw   $0x1,-0x4e4(%rbp)
    c752:	01 00 
    c754:	66 c7 85 1e fb ff ff 	movw   $0xfaad,-0x4e2(%rbp)
    c75b:	ad fa 
    c75d:	66 c7 85 20 fb ff ff 	movw   $0x1,-0x4e0(%rbp)
    c764:	01 00 
    c766:	66 c7 85 22 fb ff ff 	movw   $0xfffa,-0x4de(%rbp)
    c76d:	fa ff 
    c76f:	66 c7 85 24 fb ff ff 	movw   $0x1,-0x4dc(%rbp)
    c776:	01 00 
    c778:	66 c7 85 26 fb ff ff 	movw   $0xfaad,-0x4da(%rbp)
    c77f:	ad fa 
    c781:	66 c7 85 28 fb ff ff 	movw   $0x1,-0x4d8(%rbp)
    c788:	01 00 
    c78a:	66 c7 85 2a fb ff ff 	movw   $0xfffa,-0x4d6(%rbp)
    c791:	fa ff 
    c793:	66 c7 85 2c fb ff ff 	movw   $0xfffe,-0x4d4(%rbp)
    c79a:	fe ff 
    c79c:	66 c7 85 2e fb ff ff 	movw   $0x6,-0x4d2(%rbp)
    c7a3:	06 00 
    c7a5:	66 c7 85 30 fb ff ff 	movw   $0x9,-0x4d0(%rbp)
    c7ac:	09 00 
    c7ae:	66 c7 85 32 fb ff ff 	movw   $0x0,-0x4ce(%rbp)
    c7b5:	00 00 
    c7b7:	66 c7 85 34 fb ff ff 	movw   $0x0,-0x4cc(%rbp)
    c7be:	00 00 
    c7c0:	66 c7 85 36 fb ff ff 	movw   $0x9,-0x4ca(%rbp)
    c7c7:	09 00 
    c7c9:	66 c7 85 38 fb ff ff 	movw   $0x6,-0x4c8(%rbp)
    c7d0:	06 00 
    c7d2:	66 c7 85 3a fb ff ff 	movw   $0xfffe,-0x4c6(%rbp)
    c7d9:	fe ff 
    c7db:	66 c7 85 3c fb ff ff 	movw   $0xfffe,-0x4c4(%rbp)
    c7e2:	fe ff 
    c7e4:	66 c7 85 3e fb ff ff 	movw   $0xfffe,-0x4c2(%rbp)
    c7eb:	fe ff 
    c7ed:	66 c7 85 40 fb ff ff 	movw   $0x1,-0x4c0(%rbp)
    c7f4:	01 00 
    c7f6:	66 c7 85 42 fb ff ff 	movw   $0xfffe,-0x4be(%rbp)
    c7fd:	fe ff 
    c7ff:	66 c7 85 44 fb ff ff 	movw   $0x8ff2,-0x4bc(%rbp)
    c806:	f2 8f 
    c808:	66 c7 85 46 fb ff ff 	movw   $0xfffe,-0x4ba(%rbp)
    c80f:	fe ff 
    c811:	66 c7 85 48 fb ff ff 	movw   $0x1,-0x4b8(%rbp)
    c818:	01 00 
    c81a:	66 c7 85 4a fb ff ff 	movw   $0xfffe,-0x4b6(%rbp)
    c821:	fe ff 
    c823:	66 c7 85 4c fb ff ff 	movw   $0x8ff2,-0x4b4(%rbp)
    c82a:	f2 8f 
    c82c:	66 c7 85 4e fb ff ff 	movw   $0xfffe,-0x4b2(%rbp)
    c833:	fe ff 
    c835:	48 8d 05 f8 d5 00 00 	lea    0xd5f8(%rip),%rax        # 19e34 <g_135>
    c83c:	48 89 85 e0 f8 ff ff 	mov    %rax,-0x720(%rbp)
    c843:	48 8d 85 e0 f8 ff ff 	lea    -0x720(%rbp),%rax
    c84a:	48 89 85 e8 f8 ff ff 	mov    %rax,-0x718(%rbp)
    c851:	48 8d 85 c8 f8 ff ff 	lea    -0x738(%rbp),%rax
    c858:	48 89 85 10 f9 ff ff 	mov    %rax,-0x6f0(%rbp)
    c85f:	66 c7 85 88 f8 ff ff 	movw   $0x941,-0x778(%rbp)
    c866:	41 09 
    c868:	48 c7 05 bd 87 00 00 	movq   $0x0,0x87bd(%rip)        # 15030 <g_26>
    c86f:	00 00 00 00 
    c873:	e9 0a 01 00 00       	jmpq   c982 <func_61+0x54a>
    c878:	c7 85 e0 fb ff ff 70 	movl   $0xf4020d70,-0x420(%rbp)
    c87f:	0d 02 f4 
    c882:	c7 85 e4 fb ff ff 70 	movl   $0xf4020d70,-0x41c(%rbp)
    c889:	0d 02 f4 
    c88c:	c7 85 e8 fb ff ff 70 	movl   $0xf4020d70,-0x418(%rbp)
    c893:	0d 02 f4 
    c896:	c7 85 ec fb ff ff 70 	movl   $0xf4020d70,-0x414(%rbp)
    c89d:	0d 02 f4 
    c8a0:	c7 85 f0 fb ff ff 70 	movl   $0xf4020d70,-0x410(%rbp)
    c8a7:	0d 02 f4 
    c8aa:	c7 85 f4 fb ff ff 70 	movl   $0xf4020d70,-0x40c(%rbp)
    c8b1:	0d 02 f4 
    c8b4:	c7 85 f8 fb ff ff 70 	movl   $0xf4020d70,-0x408(%rbp)
    c8bb:	0d 02 f4 
    c8be:	c7 85 fc fb ff ff 70 	movl   $0xf4020d70,-0x404(%rbp)
    c8c5:	0d 02 f4 
    c8c8:	c7 85 00 fc ff ff 70 	movl   $0xf4020d70,-0x400(%rbp)
    c8cf:	0d 02 f4 
    c8d2:	48 8d 05 a7 87 00 00 	lea    0x87a7(%rip),%rax        # 15080 <g_103>
    c8d9:	48 89 85 18 f9 ff ff 	mov    %rax,-0x6e8(%rbp)
    c8e0:	c7 85 98 f8 ff ff df 	movl   $0xae80b3df,-0x768(%rbp)
    c8e7:	b3 80 ae 
    c8ea:	48 8d 85 c8 f8 ff ff 	lea    -0x738(%rbp),%rax
    c8f1:	48 89 85 00 f9 ff ff 	mov    %rax,-0x700(%rbp)
    c8f8:	48 8d 85 00 f9 ff ff 	lea    -0x700(%rbp),%rax
    c8ff:	48 89 85 20 f9 ff ff 	mov    %rax,-0x6e0(%rbp)
    c906:	c7 05 2c 87 00 00 e3 	movl   $0xffffffe3,0x872c(%rip)        # 1503c <g_33>
    c90d:	ff ff ff 
    c910:	eb 40                	jmp    c952 <func_61+0x51a>
    c912:	c7 85 9c f8 ff ff 6c 	movl   $0x9178fb6c,-0x764(%rbp)
    c919:	fb 78 91 
    c91c:	c7 85 a0 f8 ff ff 77 	movl   $0x58852677,-0x760(%rbp)
    c923:	26 85 58 
    c926:	c7 85 a4 f8 ff ff 01 	movl   $0x1,-0x75c(%rbp)
    c92d:	00 00 00 
    c930:	66 c7 85 8a f8 ff ff 	movw   $0x984a,-0x776(%rbp)
    c937:	4a 98 
    c939:	c7 85 a8 f8 ff ff 67 	movl   $0xab2c1c67,-0x758(%rbp)
    c940:	1c 2c ab 
    c943:	8b 05 f3 86 00 00    	mov    0x86f3(%rip),%eax        # 1503c <g_33>
    c949:	83 c0 01             	add    $0x1,%eax
    c94c:	89 05 ea 86 00 00    	mov    %eax,0x86ea(%rip)        # 1503c <g_33>
    c952:	8b 05 e4 86 00 00    	mov    0x86e4(%rip),%eax        # 1503c <g_33>
    c958:	83 f8 2e             	cmp    $0x2e,%eax
    c95b:	75 b5                	jne    c912 <func_61+0x4da>
    c95d:	48 8b 85 20 f9 ff ff 	mov    -0x6e0(%rbp),%rax
    c964:	48 8b 00             	mov    (%rax),%rax
    c967:	48 8b 00             	mov    (%rax),%rax
    c96a:	8b 00                	mov    (%rax),%eax
    c96c:	85 c0                	test   %eax,%eax
    c96e:	75 25                	jne    c995 <func_61+0x55d>
    c970:	48 8b 05 b9 86 00 00 	mov    0x86b9(%rip),%rax        # 15030 <g_26>
    c977:	48 83 e8 01          	sub    $0x1,%rax
    c97b:	48 89 05 ae 86 00 00 	mov    %rax,0x86ae(%rip)        # 15030 <g_26>
    c982:	48 8b 05 a7 86 00 00 	mov    0x86a7(%rip),%rax        # 15030 <g_26>
    c989:	48 83 f8 e2          	cmp    $0xffffffffffffffe2,%rax
    c98d:	0f 84 e5 fe ff ff    	je     c878 <func_61+0x440>
    c993:	eb 01                	jmp    c996 <func_61+0x55e>
    c995:	90                   	nop
    c996:	c7 05 f0 86 00 00 00 	movl   $0x0,0x86f0(%rip)        # 15090 <g_131>
    c99d:	00 00 00 
    c9a0:	e9 9a 0f 00 00       	jmpq   d93f <func_61+0x1507>
    c9a5:	48 8d 05 74 cd 00 00 	lea    0xcd74(%rip),%rax        # 19720 <g_294>
    c9ac:	48 89 85 28 f9 ff ff 	mov    %rax,-0x6d8(%rbp)
    c9b3:	48 8d 85 d8 f8 ff ff 	lea    -0x728(%rbp),%rax
    c9ba:	48 89 85 f0 f8 ff ff 	mov    %rax,-0x710(%rbp)
    c9c1:	48 8d 85 f0 f8 ff ff 	lea    -0x710(%rbp),%rax
    c9c8:	48 89 85 30 f9 ff ff 	mov    %rax,-0x6d0(%rbp)
    c9cf:	c7 85 ac f8 ff ff 50 	movl   $0xa32a4950,-0x754(%rbp)
    c9d6:	49 2a a3 
    c9d9:	c7 85 b0 f8 ff ff 07 	movl   $0x7,-0x750(%rbp)
    c9e0:	00 00 00 
    c9e3:	48 b8 b4 b8 81 f3 56 	movabs $0x8bcc4756f381b8b4,%rax
    c9ea:	47 cc 8b 
    c9ed:	48 89 85 38 f9 ff ff 	mov    %rax,-0x6c8(%rbp)
    c9f4:	66 c7 85 86 f8 ff ff 	movw   $0x0,-0x77a(%rbp)
    c9fb:	00 00 
    c9fd:	e9 9a 0c 00 00       	jmpq   d69c <func_61+0x1264>
    ca02:	48 8d 05 37 86 00 00 	lea    0x8637(%rip),%rax        # 15040 <g_42>
    ca09:	48 89 85 60 f9 ff ff 	mov    %rax,-0x6a0(%rbp)
    ca10:	48 8d 05 21 86 00 00 	lea    0x8621(%rip),%rax        # 15038 <g_27>
    ca17:	48 89 85 68 f9 ff ff 	mov    %rax,-0x698(%rbp)
    ca1e:	66 c7 85 a0 f9 ff ff 	movw   $0xeb04,-0x660(%rbp)
    ca25:	04 eb 
    ca27:	c6 85 a2 f9 ff ff 78 	movb   $0x78,-0x65e(%rbp)
    ca2e:	66 c7 85 a3 f9 ff ff 	movw   $0xeb78,-0x65d(%rbp)
    ca35:	78 eb 
    ca37:	c6 85 a5 f9 ff ff 04 	movb   $0x4,-0x65b(%rbp)
    ca3e:	66 c7 85 a6 f9 ff ff 	movw   $0x8ceb,-0x65a(%rbp)
    ca45:	eb 8c 
    ca47:	c6 85 a8 f9 ff ff 8c 	movb   $0x8c,-0x658(%rbp)
    ca4e:	66 c7 85 a9 f9 ff ff 	movw   $0x7801,-0x657(%rbp)
    ca55:	01 78 
    ca57:	c6 85 ab f9 ff ff 04 	movb   $0x4,-0x655(%rbp)
    ca5e:	66 c7 85 ac f9 ff ff 	movw   $0xffc8,-0x654(%rbp)
    ca65:	c8 ff 
    ca67:	c6 85 ae f9 ff ff 78 	movb   $0x78,-0x652(%rbp)
    ca6e:	66 c7 85 af f9 ff ff 	movw   $0xc8,-0x651(%rbp)
    ca75:	c8 00 
    ca77:	c6 85 b1 f9 ff ff eb 	movb   $0xeb,-0x64f(%rbp)
    ca7e:	66 c7 85 b2 f9 ff ff 	movw   $0xe401,-0x64e(%rbp)
    ca85:	01 e4 
    ca87:	c6 85 b4 f9 ff ff 01 	movb   $0x1,-0x64c(%rbp)
    ca8e:	66 c7 85 b5 f9 ff ff 	movw   $0xeb,-0x64b(%rbp)
    ca95:	eb 00 
    ca97:	c6 85 b7 f9 ff ff c8 	movb   $0xc8,-0x649(%rbp)
    ca9e:	48 8d 85 d0 f8 ff ff 	lea    -0x730(%rbp),%rax
    caa5:	48 89 85 50 fb ff ff 	mov    %rax,-0x4b0(%rbp)
    caac:	48 8d 85 d0 f8 ff ff 	lea    -0x730(%rbp),%rax
    cab3:	48 89 85 58 fb ff ff 	mov    %rax,-0x4a8(%rbp)
    caba:	48 8d 85 d0 f8 ff ff 	lea    -0x730(%rbp),%rax
    cac1:	48 89 85 60 fb ff ff 	mov    %rax,-0x4a0(%rbp)
    cac8:	48 8d 85 d0 f8 ff ff 	lea    -0x730(%rbp),%rax
    cacf:	48 89 85 68 fb ff ff 	mov    %rax,-0x498(%rbp)
    cad6:	48 8d 85 d0 f8 ff ff 	lea    -0x730(%rbp),%rax
    cadd:	48 89 85 70 fb ff ff 	mov    %rax,-0x490(%rbp)
    cae4:	48 c7 85 78 fb ff ff 	movq   $0x0,-0x488(%rbp)
    caeb:	00 00 00 00 
    caef:	48 8d 85 d0 f8 ff ff 	lea    -0x730(%rbp),%rax
    caf6:	48 89 85 80 fb ff ff 	mov    %rax,-0x480(%rbp)
    cafd:	48 8d 85 d0 f8 ff ff 	lea    -0x730(%rbp),%rax
    cb04:	48 89 85 88 fb ff ff 	mov    %rax,-0x478(%rbp)
    cb0b:	48 8d 85 d0 f8 ff ff 	lea    -0x730(%rbp),%rax
    cb12:	48 89 85 90 fb ff ff 	mov    %rax,-0x470(%rbp)
    cb19:	48 8d 85 d0 f8 ff ff 	lea    -0x730(%rbp),%rax
    cb20:	48 89 85 98 fb ff ff 	mov    %rax,-0x468(%rbp)
    cb27:	48 c7 85 a0 fb ff ff 	movq   $0x0,-0x460(%rbp)
    cb2e:	00 00 00 00 
    cb32:	48 c7 85 a8 fb ff ff 	movq   $0x0,-0x458(%rbp)
    cb39:	00 00 00 00 
    cb3d:	48 8d 85 d0 f8 ff ff 	lea    -0x730(%rbp),%rax
    cb44:	48 89 85 b0 fb ff ff 	mov    %rax,-0x450(%rbp)
    cb4b:	48 8d 85 d0 f8 ff ff 	lea    -0x730(%rbp),%rax
    cb52:	48 89 85 b8 fb ff ff 	mov    %rax,-0x448(%rbp)
    cb59:	48 8d 85 d0 f8 ff ff 	lea    -0x730(%rbp),%rax
    cb60:	48 89 85 c0 fb ff ff 	mov    %rax,-0x440(%rbp)
    cb67:	48 8d 85 d0 f8 ff ff 	lea    -0x730(%rbp),%rax
    cb6e:	48 89 85 c8 fb ff ff 	mov    %rax,-0x438(%rbp)
    cb75:	48 8d 85 d0 f8 ff ff 	lea    -0x730(%rbp),%rax
    cb7c:	48 89 85 d0 fb ff ff 	mov    %rax,-0x430(%rbp)
    cb83:	48 c7 85 d8 fb ff ff 	movq   $0x0,-0x428(%rbp)
    cb8a:	00 00 00 00 
    cb8e:	48 8d 85 d0 f8 ff ff 	lea    -0x730(%rbp),%rax
    cb95:	48 89 85 f0 f9 ff ff 	mov    %rax,-0x610(%rbp)
    cb9c:	48 8d 85 d0 f8 ff ff 	lea    -0x730(%rbp),%rax
    cba3:	48 89 85 f8 f9 ff ff 	mov    %rax,-0x608(%rbp)
    cbaa:	48 8d 85 d0 f8 ff ff 	lea    -0x730(%rbp),%rax
    cbb1:	48 89 85 00 fa ff ff 	mov    %rax,-0x600(%rbp)
    cbb8:	48 8d 85 d0 f8 ff ff 	lea    -0x730(%rbp),%rax
    cbbf:	48 89 85 08 fa ff ff 	mov    %rax,-0x5f8(%rbp)
    cbc6:	48 8d 85 d0 f8 ff ff 	lea    -0x730(%rbp),%rax
    cbcd:	48 89 85 10 fa ff ff 	mov    %rax,-0x5f0(%rbp)
    cbd4:	48 8d 85 d0 f8 ff ff 	lea    -0x730(%rbp),%rax
    cbdb:	48 89 85 18 fa ff ff 	mov    %rax,-0x5e8(%rbp)
    cbe2:	48 8d 85 d0 f8 ff ff 	lea    -0x730(%rbp),%rax
    cbe9:	48 89 85 20 fa ff ff 	mov    %rax,-0x5e0(%rbp)
    cbf0:	c7 85 8c f8 ff ff fb 	movl   $0xfffffffb,-0x774(%rbp)
    cbf7:	ff ff ff 
    cbfa:	c7 05 38 84 00 00 00 	movl   $0x0,0x8438(%rip)        # 1503c <g_33>
    cc01:	00 00 00 
    cc04:	e9 81 00 00 00       	jmpq   cc8a <func_61+0x852>
    cc09:	48 8d 05 18 d2 00 00 	lea    0xd218(%rip),%rax        # 19e28 <g_16>
    cc10:	48 89 85 f8 f8 ff ff 	mov    %rax,-0x708(%rbp)
    cc17:	c7 85 c4 f8 ff ff ff 	movl   $0xffffffff,-0x73c(%rbp)
    cc1e:	ff ff ff 
    cc21:	48 c7 85 00 f9 ff ff 	movq   $0x0,-0x700(%rbp)
    cc28:	00 00 00 00 
    cc2c:	48 8d 85 00 f9 ff ff 	lea    -0x700(%rbp),%rax
    cc33:	48 89 85 98 f9 ff ff 	mov    %rax,-0x668(%rbp)
    cc3a:	c7 85 90 f8 ff ff 00 	movl   $0x0,-0x770(%rbp)
    cc41:	00 00 00 
    cc44:	eb 1e                	jmp    cc64 <func_61+0x82c>
    cc46:	8b 85 90 f8 ff ff    	mov    -0x770(%rbp),%eax
    cc4c:	48 98                	cltq   
    cc4e:	48 8d 95 f8 f8 ff ff 	lea    -0x708(%rbp),%rdx
    cc55:	48 89 94 c5 e0 fb ff 	mov    %rdx,-0x420(%rbp,%rax,8)
    cc5c:	ff 
    cc5d:	83 85 90 f8 ff ff 01 	addl   $0x1,-0x770(%rbp)
    cc64:	83 bd 90 f8 ff ff 01 	cmpl   $0x1,-0x770(%rbp)
    cc6b:	7e d9                	jle    cc46 <func_61+0x80e>
    cc6d:	48 8d 05 b4 d1 00 00 	lea    0xd1b4(%rip),%rax        # 19e28 <g_16>
    cc74:	48 89 05 a5 ca 00 00 	mov    %rax,0xcaa5(%rip)        # 19720 <g_294>
    cc7b:	8b 05 bb 83 00 00    	mov    0x83bb(%rip),%eax        # 1503c <g_33>
    cc81:	83 c0 01             	add    $0x1,%eax
    cc84:	89 05 b2 83 00 00    	mov    %eax,0x83b2(%rip)        # 1503c <g_33>
    cc8a:	8b 05 ac 83 00 00    	mov    0x83ac(%rip),%eax        # 1503c <g_33>
    cc90:	83 f8 05             	cmp    $0x5,%eax
    cc93:	0f 86 70 ff ff ff    	jbe    cc09 <func_61+0x7d1>
    cc99:	c7 05 8d d1 00 00 00 	movl   $0x0,0xd18d(%rip)        # 19e30 <g_89>
    cca0:	00 00 00 
    cca3:	e9 d7 09 00 00       	jmpq   d67f <func_61+0x1247>
    cca8:	48 8d 05 8d 83 00 00 	lea    0x838d(%rip),%rax        # 1503c <g_33>
    ccaf:	48 89 85 30 fa ff ff 	mov    %rax,-0x5d0(%rbp)
    ccb6:	48 8d 05 7f 83 00 00 	lea    0x837f(%rip),%rax        # 1503c <g_33>
    ccbd:	48 89 85 38 fa ff ff 	mov    %rax,-0x5c8(%rbp)
    ccc4:	48 8d 05 71 83 00 00 	lea    0x8371(%rip),%rax        # 1503c <g_33>
    cccb:	48 89 85 40 fa ff ff 	mov    %rax,-0x5c0(%rbp)
    ccd2:	48 8d 05 63 83 00 00 	lea    0x8363(%rip),%rax        # 1503c <g_33>
    ccd9:	48 89 85 48 fa ff ff 	mov    %rax,-0x5b8(%rbp)
    cce0:	48 8d 05 55 83 00 00 	lea    0x8355(%rip),%rax        # 1503c <g_33>
    cce7:	48 89 85 50 fa ff ff 	mov    %rax,-0x5b0(%rbp)
    ccee:	48 8d 05 47 83 00 00 	lea    0x8347(%rip),%rax        # 1503c <g_33>
    ccf5:	48 89 85 58 fa ff ff 	mov    %rax,-0x5a8(%rbp)
    ccfc:	48 8d 05 39 83 00 00 	lea    0x8339(%rip),%rax        # 1503c <g_33>
    cd03:	48 89 85 60 fa ff ff 	mov    %rax,-0x5a0(%rbp)
    cd0a:	48 8d 05 2b 83 00 00 	lea    0x832b(%rip),%rax        # 1503c <g_33>
    cd11:	48 89 85 68 fa ff ff 	mov    %rax,-0x598(%rbp)
    cd18:	c7 85 b4 f8 ff ff a2 	movl   $0xed0b2ea2,-0x74c(%rbp)
    cd1f:	2e 0b ed 
    cd22:	48 8d 85 c0 fa ff ff 	lea    -0x540(%rbp),%rax
    cd29:	48 83 c0 4c          	add    $0x4c,%rax
    cd2d:	48 89 85 70 f9 ff ff 	mov    %rax,-0x690(%rbp)
    cd34:	0f b7 85 36 fb ff ff 	movzwl -0x4ca(%rbp),%eax
    cd3b:	0f bf d8             	movswl %ax,%ebx
    cd3e:	48 8b 85 30 f9 ff ff 	mov    -0x6d0(%rbp),%rax
    cd45:	48 8b 00             	mov    (%rax),%rax
    cd48:	48 8b 00             	mov    (%rax),%rax
    cd4b:	48 8b 00             	mov    (%rax),%rax
    cd4e:	48 8b 00             	mov    (%rax),%rax
    cd51:	8b 10                	mov    (%rax),%edx
    cd53:	8b 85 b4 f8 ff ff    	mov    -0x74c(%rbp),%eax
    cd59:	0f b6 c0             	movzbl %al,%eax
    cd5c:	89 d6                	mov    %edx,%esi
    cd5e:	89 c7                	mov    %eax,%edi
    cd60:	e8 a0 7e ff ff       	callq  4c05 <safe_lshift_func_uint8_t_u_s>
    cd65:	0f b6 c0             	movzbl %al,%eax
    cd68:	89 de                	mov    %ebx,%esi
    cd6a:	89 c7                	mov    %eax,%edi
    cd6c:	e8 b4 81 ff ff       	callq  4f25 <safe_div_func_uint32_t_u_u>
    cd71:	89 c2                	mov    %eax,%edx
    cd73:	48 8b 85 30 f9 ff ff 	mov    -0x6d0(%rbp),%rax
    cd7a:	48 8b 00             	mov    (%rax),%rax
    cd7d:	48 8b 00             	mov    (%rax),%rax
    cd80:	48 8b 00             	mov    (%rax),%rax
    cd83:	48 8b 00             	mov    (%rax),%rax
    cd86:	8b 00                	mov    (%rax),%eax
    cd88:	21 d0                	and    %edx,%eax
    cd8a:	0f be c0             	movsbl %al,%eax
    cd8d:	83 e0 0a             	and    $0xa,%eax
    cd90:	be 05 00 00 00       	mov    $0x5,%esi
    cd95:	89 c7                	mov    %eax,%edi
    cd97:	e8 05 75 ff ff       	callq  42a1 <safe_lshift_func_int8_t_s_s>
    cd9c:	48 8b 85 d0 f8 ff ff 	mov    -0x730(%rbp),%rax
    cda3:	48 8b 00             	mov    (%rax),%rax
    cda6:	8b 00                	mov    (%rax),%eax
    cda8:	98                   	cwtl   
    cda9:	48 8b 8d b8 fb ff ff 	mov    -0x448(%rbp),%rcx
    cdb0:	48 c7 85 20 fa ff ff 	movq   $0x0,-0x5e0(%rbp)
    cdb7:	00 00 00 00 
    cdbb:	48 8b 95 20 fa ff ff 	mov    -0x5e0(%rbp),%rdx
    cdc2:	48 39 d1             	cmp    %rdx,%rcx
    cdc5:	48 83 bd 70 f8 ff ff 	cmpq   $0x0,-0x790(%rbp)
    cdcc:	00 
    cdcd:	0f 95 c2             	setne  %dl
    cdd0:	0f b6 d2             	movzbl %dl,%edx
    cdd3:	39 95 ac f8 ff ff    	cmp    %edx,-0x754(%rbp)
    cdd9:	0f 9c c2             	setl   %dl
    cddc:	0f b6 d2             	movzbl %dl,%edx
    cddf:	89 15 57 82 00 00    	mov    %edx,0x8257(%rip)        # 1503c <g_33>
    cde5:	89 c6                	mov    %eax,%esi
    cde7:	bf 01 00 00 00       	mov    $0x1,%edi
    cdec:	e8 64 76 ff ff       	callq  4455 <safe_div_func_int16_t_s_s>
    cdf1:	66 85 c0             	test   %ax,%ax
    cdf4:	0f 84 2a 03 00 00    	je     d124 <func_61+0xcec>
    cdfa:	48 c7 85 80 f9 ff ff 	movq   $0x0,-0x680(%rbp)
    ce01:	00 00 00 00 
    ce05:	48 8d 85 c0 fa ff ff 	lea    -0x540(%rbp),%rax
    ce0c:	48 83 c0 76          	add    $0x76,%rax
    ce10:	48 89 85 e0 fb ff ff 	mov    %rax,-0x420(%rbp)
    ce17:	48 8d 85 c0 fa ff ff 	lea    -0x540(%rbp),%rax
    ce1e:	48 83 c0 76          	add    $0x76,%rax
    ce22:	48 89 85 e8 fb ff ff 	mov    %rax,-0x418(%rbp)
    ce29:	48 8d 85 c0 fa ff ff 	lea    -0x540(%rbp),%rax
    ce30:	48 83 c0 4c          	add    $0x4c,%rax
    ce34:	48 89 85 f0 fb ff ff 	mov    %rax,-0x410(%rbp)
    ce3b:	48 8d 85 c0 fa ff ff 	lea    -0x540(%rbp),%rax
    ce42:	48 83 c0 76          	add    $0x76,%rax
    ce46:	48 89 85 f8 fb ff ff 	mov    %rax,-0x408(%rbp)
    ce4d:	48 8d 85 c0 fa ff ff 	lea    -0x540(%rbp),%rax
    ce54:	48 83 c0 76          	add    $0x76,%rax
    ce58:	48 89 85 00 fc ff ff 	mov    %rax,-0x400(%rbp)
    ce5f:	48 8d 85 c0 fa ff ff 	lea    -0x540(%rbp),%rax
    ce66:	48 83 c0 4c          	add    $0x4c,%rax
    ce6a:	48 89 85 08 fc ff ff 	mov    %rax,-0x3f8(%rbp)
    ce71:	48 8d 85 c0 fa ff ff 	lea    -0x540(%rbp),%rax
    ce78:	48 83 c0 76          	add    $0x76,%rax
    ce7c:	48 89 85 10 fc ff ff 	mov    %rax,-0x3f0(%rbp)
    ce83:	48 8d 85 c0 fa ff ff 	lea    -0x540(%rbp),%rax
    ce8a:	48 83 c0 2e          	add    $0x2e,%rax
    ce8e:	48 89 85 18 fc ff ff 	mov    %rax,-0x3e8(%rbp)
    ce95:	48 8d 05 7c 82 00 00 	lea    0x827c(%rip),%rax        # 15118 <g_136>
    ce9c:	48 89 85 20 fc ff ff 	mov    %rax,-0x3e0(%rbp)
    cea3:	48 8d 05 6e 82 00 00 	lea    0x826e(%rip),%rax        # 15118 <g_136>
    ceaa:	48 89 85 28 fc ff ff 	mov    %rax,-0x3d8(%rbp)
    ceb1:	48 8d 85 c0 fa ff ff 	lea    -0x540(%rbp),%rax
    ceb8:	48 83 c0 2e          	add    $0x2e,%rax
    cebc:	48 89 85 30 fc ff ff 	mov    %rax,-0x3d0(%rbp)
    cec3:	48 8d 05 4e 82 00 00 	lea    0x824e(%rip),%rax        # 15118 <g_136>
    ceca:	48 89 85 38 fc ff ff 	mov    %rax,-0x3c8(%rbp)
    ced1:	48 8d 05 40 82 00 00 	lea    0x8240(%rip),%rax        # 15118 <g_136>
    ced8:	48 89 85 40 fc ff ff 	mov    %rax,-0x3c0(%rbp)
    cedf:	48 8d 85 c0 fa ff ff 	lea    -0x540(%rbp),%rax
    cee6:	48 83 c0 2e          	add    $0x2e,%rax
    ceea:	48 89 85 48 fc ff ff 	mov    %rax,-0x3b8(%rbp)
    cef1:	c7 85 bc f8 ff ff b6 	movl   $0xdb5b27b6,-0x744(%rbp)
    cef8:	27 5b db 
    cefb:	48 8b 85 60 f9 ff ff 	mov    -0x6a0(%rbp),%rax
    cf02:	8b 95 b4 f8 ff ff    	mov    -0x74c(%rbp),%edx
    cf08:	89 10                	mov    %edx,(%rax)
    cf0a:	48 8b 05 3f cf 00 00 	mov    0xcf3f(%rip),%rax        # 19e50 <g_358>
    cf11:	48 89 05 38 cf 00 00 	mov    %rax,0xcf38(%rip)        # 19e50 <g_358>
    cf18:	8b 85 b4 f8 ff ff    	mov    -0x74c(%rbp),%eax
    cf1e:	98                   	cwtl   
    cf1f:	66 c7 05 f0 81 00 00 	movw   $0xfffb,0x81f0(%rip)        # 15118 <g_136>
    cf26:	fb ff 
    cf28:	89 c6                	mov    %eax,%esi
    cf2a:	bf fb ff ff ff       	mov    $0xfffffffb,%edi
    cf2f:	e8 9f 74 ff ff       	callq  43d3 <safe_sub_func_int16_t_s_s>
    cf34:	0f bf d0             	movswl %ax,%edx
    cf37:	8b 05 03 81 00 00    	mov    0x8103(%rip),%eax        # 15040 <g_42>
    cf3d:	31 d0                	xor    %edx,%eax
    cf3f:	89 05 fb 80 00 00    	mov    %eax,0x80fb(%rip)        # 15040 <g_42>
    cf45:	8b 05 f5 80 00 00    	mov    0x80f5(%rip),%eax        # 15040 <g_42>
    cf4b:	89 85 b4 f8 ff ff    	mov    %eax,-0x74c(%rbp)
    cf51:	83 bd b4 f8 ff ff 00 	cmpl   $0x0,-0x74c(%rbp)
    cf58:	0f 84 9f 01 00 00    	je     d0fd <func_61+0xcc5>
    cf5e:	48 8d 85 a0 f9 ff ff 	lea    -0x660(%rbp),%rax
    cf65:	48 83 c0 16          	add    $0x16,%rax
    cf69:	48 89 85 88 f9 ff ff 	mov    %rax,-0x678(%rbp)
    cf70:	48 8d 05 d9 81 00 00 	lea    0x81d9(%rip),%rax        # 15150 <g_181+0x30>
    cf77:	48 89 85 90 f9 ff ff 	mov    %rax,-0x670(%rbp)
    cf7e:	c7 85 c0 f8 ff ff a2 	movl   $0xeb2906a2,-0x740(%rbp)
    cf85:	06 29 eb 
    cf88:	0f b6 05 3b 83 00 00 	movzbl 0x833b(%rip),%eax        # 152ca <g_240+0x2a>
    cf8f:	44 0f b6 e8          	movzbl %al,%r13d
    cf93:	48 8b 85 30 f9 ff ff 	mov    -0x6d0(%rbp),%rax
    cf9a:	48 8b 00             	mov    (%rax),%rax
    cf9d:	48 8b 00             	mov    (%rax),%rax
    cfa0:	48 8b 00             	mov    (%rax),%rax
    cfa3:	48 8b 00             	mov    (%rax),%rax
    cfa6:	8b 00                	mov    (%rax),%eax
    cfa8:	0f be d8             	movsbl %al,%ebx
    cfab:	8b 85 bc f8 ff ff    	mov    -0x744(%rbp),%eax
    cfb1:	44 0f b7 e0          	movzwl %ax,%r12d
    cfb5:	8b 05 79 ce 00 00    	mov    0xce79(%rip),%eax        # 19e34 <g_135>
    cfbb:	85 c0                	test   %eax,%eax
    cfbd:	0f 9f c0             	setg   %al
    cfc0:	0f b6 c0             	movzbl %al,%eax
    cfc3:	89 c7                	mov    %eax,%edi
    cfc5:	e8 dc 7e ff ff       	callq  4ea6 <safe_unary_minus_func_uint32_t_u>
    cfca:	44 89 e6             	mov    %r12d,%esi
    cfcd:	bf 00 00 00 00       	mov    $0x0,%edi
    cfd2:	e8 28 7d ff ff       	callq  4cff <safe_add_func_uint16_t_u_u>
    cfd7:	89 c2                	mov    %eax,%edx
    cfd9:	48 8b 85 88 f9 ff ff 	mov    -0x678(%rbp),%rax
    cfe0:	88 10                	mov    %dl,(%rax)
    cfe2:	48 8b 85 88 f9 ff ff 	mov    -0x678(%rbp),%rax
    cfe9:	0f b6 10             	movzbl (%rax),%edx
    cfec:	48 8b 85 90 f9 ff ff 	mov    -0x670(%rbp),%rax
    cff3:	88 10                	mov    %dl,(%rax)
    cff5:	0f b6 05 ee 82 00 00 	movzbl 0x82ee(%rip),%eax        # 152ea <g_339>
    cffc:	0f b6 c0             	movzbl %al,%eax
    cfff:	48 8d 15 12 81 00 00 	lea    0x8112(%rip),%rdx        # 15118 <g_136>
    d006:	48 39 95 70 f9 ff ff 	cmp    %rdx,-0x690(%rbp)
    d00d:	0f 95 c2             	setne  %dl
    d010:	0f b6 d2             	movzbl %dl,%edx
    d013:	48 8b 0d 6e 80 00 00 	mov    0x806e(%rip),%rcx        # 15088 <g_110>
    d01a:	09 ca                	or     %ecx,%edx
    d01c:	31 d0                	xor    %edx,%eax
    d01e:	44 0f bf e0          	movswl %ax,%r12d
    d022:	8b 85 bc f8 ff ff    	mov    -0x744(%rbp),%eax
    d028:	48 98                	cltq   
    d02a:	48 be 9c 75 02 ca 78 	movabs $0x6ea0178ca02759c,%rsi
    d031:	01 ea 06 
    d034:	48 89 c7             	mov    %rax,%rdi
    d037:	e8 6c 78 ff ff       	callq  48a8 <safe_sub_func_int64_t_s_s>
    d03c:	98                   	cwtl   
    d03d:	44 89 e6             	mov    %r12d,%esi
    d040:	89 c7                	mov    %eax,%edi
    d042:	e8 ae 73 ff ff       	callq  43f5 <safe_mul_func_int16_t_s_s>
    d047:	0f bf d0             	movswl %ax,%edx
    d04a:	8b 05 d8 7f 00 00    	mov    0x7fd8(%rip),%eax        # 15028 <g_18>
    d050:	39 c2                	cmp    %eax,%edx
    d052:	0f 9f c0             	setg   %al
    d055:	0f b6 c0             	movzbl %al,%eax
    d058:	be 05 00 00 00       	mov    $0x5,%esi
    d05d:	89 c7                	mov    %eax,%edi
    d05f:	e8 5a 7d ff ff       	callq  4dbe <safe_lshift_func_uint16_t_u_s>
    d064:	0f b7 c0             	movzwl %ax,%eax
    d067:	8b 95 c0 f8 ff ff    	mov    -0x740(%rbp),%edx
    d06d:	89 d6                	mov    %edx,%esi
    d06f:	89 c7                	mov    %eax,%edi
    d071:	e8 48 7d ff ff       	callq  4dbe <safe_lshift_func_uint16_t_u_s>
    d076:	66 85 c0             	test   %ax,%ax
    d079:	0f 94 c0             	sete   %al
    d07c:	0f b6 c0             	movzbl %al,%eax
    d07f:	89 c7                	mov    %eax,%edi
    d081:	e8 17 73 ff ff       	callq  439d <safe_unary_minus_func_int16_t_s>
    d086:	89 de                	mov    %ebx,%esi
    d088:	bf ff ff ff ff       	mov    $0xffffffff,%edi
    d08d:	e8 9f 71 ff ff       	callq  4231 <safe_mod_func_int8_t_s_s>
    d092:	0f b6 c0             	movzbl %al,%eax
    d095:	be 01 00 00 00       	mov    $0x1,%esi
    d09a:	89 c7                	mov    %eax,%edi
    d09c:	e8 ec 7b ff ff       	callq  4c8d <safe_rshift_func_uint8_t_u_s>
    d0a1:	0f b6 c0             	movzbl %al,%eax
    d0a4:	be 02 00 00 00       	mov    $0x2,%esi
    d0a9:	89 c7                	mov    %eax,%edi
    d0ab:	e8 56 7d ff ff       	callq  4e06 <safe_lshift_func_uint16_t_u_u>
    d0b0:	0f b7 c0             	movzwl %ax,%eax
    d0b3:	41 39 c5             	cmp    %eax,%r13d
    d0b6:	74 20                	je     d0d8 <func_61+0xca0>
    d0b8:	48 8b 85 30 f9 ff ff 	mov    -0x6d0(%rbp),%rax
    d0bf:	48 8b 00             	mov    (%rax),%rax
    d0c2:	48 8b 00             	mov    (%rax),%rax
    d0c5:	48 8b 00             	mov    (%rax),%rax
    d0c8:	48 8b 00             	mov    (%rax),%rax
    d0cb:	8b 00                	mov    (%rax),%eax
    d0cd:	85 c0                	test   %eax,%eax
    d0cf:	74 07                	je     d0d8 <func_61+0xca0>
    d0d1:	b8 01 00 00 00       	mov    $0x1,%eax
    d0d6:	eb 05                	jmp    d0dd <func_61+0xca5>
    d0d8:	b8 00 00 00 00       	mov    $0x0,%eax
    d0dd:	98                   	cwtl   
    d0de:	be 09 00 00 00       	mov    $0x9,%esi
    d0e3:	89 c7                	mov    %eax,%edi
    d0e5:	e8 79 74 ff ff       	callq  4563 <safe_rshift_func_int16_t_s_u>
    d0ea:	0f bf d0             	movswl %ax,%edx
    d0ed:	8b 05 4d 7f 00 00    	mov    0x7f4d(%rip),%eax        # 15040 <g_42>
    d0f3:	31 d0                	xor    %edx,%eax
    d0f5:	89 05 45 7f 00 00    	mov    %eax,0x7f45(%rip)        # 15040 <g_42>
    d0fb:	eb 18                	jmp    d115 <func_61+0xcdd>
    d0fd:	83 85 8c f8 ff ff 01 	addl   $0x1,-0x774(%rbp)
    d104:	48 8b 85 c8 f8 ff ff 	mov    -0x738(%rbp),%rax
    d10b:	8b 00                	mov    (%rax),%eax
    d10d:	85 c0                	test   %eax,%eax
    d10f:	0f 85 5b 05 00 00    	jne    d670 <func_61+0x1238>
    d115:	c7 85 bc f8 ff ff 01 	movl   $0x1,-0x744(%rbp)
    d11c:	00 00 00 
    d11f:	e9 28 05 00 00       	jmpq   d64c <func_61+0x1214>
    d124:	48 8d 85 a0 f9 ff ff 	lea    -0x660(%rbp),%rax
    d12b:	48 83 c0 16          	add    $0x16,%rax
    d12f:	48 89 85 78 f9 ff ff 	mov    %rax,-0x688(%rbp)
    d136:	c7 85 b8 f8 ff ff 69 	movl   $0x5390f69,-0x748(%rbp)
    d13d:	0f 39 05 
    d140:	48 8d 05 59 a0 00 00 	lea    0xa059(%rip),%rax        # 171a0 <g_413+0x1ea0>
    d147:	48 89 85 00 f9 ff ff 	mov    %rax,-0x700(%rbp)
    d14e:	48 8b 85 60 f9 ff ff 	mov    -0x6a0(%rbp),%rax
    d155:	8b 00                	mov    (%rax),%eax
    d157:	33 85 b4 f8 ff ff    	xor    -0x74c(%rbp),%eax
    d15d:	89 c2                	mov    %eax,%edx
    d15f:	48 8b 85 60 f9 ff ff 	mov    -0x6a0(%rbp),%rax
    d166:	89 10                	mov    %edx,(%rax)
    d168:	48 8b 85 d8 f8 ff ff 	mov    -0x728(%rbp),%rax
    d16f:	48 8b 00             	mov    (%rax),%rax
    d172:	48 8b 00             	mov    (%rax),%rax
    d175:	8b 00                	mov    (%rax),%eax
    d177:	0f b7 d8             	movzwl %ax,%ebx
    d17a:	c7 05 bc 7e 00 00 00 	movl   $0x0,0x7ebc(%rip)        # 15040 <g_42>
    d181:	00 00 00 
    d184:	8b 85 b8 f8 ff ff    	mov    -0x748(%rbp),%eax
    d18a:	44 0f b6 e0          	movzbl %al,%r12d
    d18e:	8b 85 b4 f8 ff ff    	mov    -0x74c(%rbp),%eax
    d194:	44 0f b7 e8          	movzwl %ax,%r13d
    d198:	48 8b 85 30 f9 ff ff 	mov    -0x6d0(%rbp),%rax
    d19f:	48 8b 00             	mov    (%rax),%rax
    d1a2:	48 8b 00             	mov    (%rax),%rax
    d1a5:	48 8b 00             	mov    (%rax),%rax
    d1a8:	48 8b 00             	mov    (%rax),%rax
    d1ab:	8b 00                	mov    (%rax),%eax
    d1ad:	89 c6                	mov    %eax,%esi
    d1af:	48 8b 85 78 f8 ff ff 	mov    -0x788(%rbp),%rax
    d1b6:	8b 00                	mov    (%rax),%eax
    d1b8:	85 c0                	test   %eax,%eax
    d1ba:	75 0a                	jne    d1c6 <func_61+0xd8e>
    d1bc:	48 83 bd 78 f9 ff ff 	cmpq   $0x0,-0x688(%rbp)
    d1c3:	00 
    d1c4:	74 07                	je     d1cd <func_61+0xd95>
    d1c6:	ba 01 00 00 00       	mov    $0x1,%edx
    d1cb:	eb 05                	jmp    d1d2 <func_61+0xd9a>
    d1cd:	ba 00 00 00 00       	mov    $0x0,%edx
    d1d2:	8b 05 4c 7e 00 00    	mov    0x7e4c(%rip),%eax        # 15024 <g_3>
    d1d8:	89 c1                	mov    %eax,%ecx
    d1da:	48 8b 85 78 f9 ff ff 	mov    -0x688(%rbp),%rax
    d1e1:	88 08                	mov    %cl,(%rax)
    d1e3:	48 8b 85 78 f9 ff ff 	mov    -0x688(%rbp),%rax
    d1ea:	0f b6 00             	movzbl (%rax),%eax
    d1ed:	0f be c0             	movsbl %al,%eax
    d1f0:	39 c2                	cmp    %eax,%edx
    d1f2:	0f 95 c0             	setne  %al
    d1f5:	89 c2                	mov    %eax,%edx
    d1f7:	48 8b 85 f0 f8 ff ff 	mov    -0x710(%rbp),%rax
    d1fe:	48 8b 00             	mov    (%rax),%rax
    d201:	48 8b 00             	mov    (%rax),%rax
    d204:	48 8b 00             	mov    (%rax),%rax
    d207:	8b 00                	mov    (%rax),%eax
    d209:	21 d0                	and    %edx,%eax
    d20b:	09 f0                	or     %esi,%eax
    d20d:	0f b6 c0             	movzbl %al,%eax
    d210:	be 03 00 00 00       	mov    $0x3,%esi
    d215:	89 c7                	mov    %eax,%edi
    d217:	e8 a2 7a ff ff       	callq  4cbe <safe_rshift_func_uint8_t_u_u>
    d21c:	be 0f 00 00 00       	mov    $0xf,%esi
    d221:	bf 04 00 00 00       	mov    $0x4,%edi
    d226:	e8 38 73 ff ff       	callq  4563 <safe_rshift_func_int16_t_s_u>
    d22b:	8b 05 f3 7d 00 00    	mov    0x7df3(%rip),%eax        # 15024 <g_3>
    d231:	35 2e 5e 00 00       	xor    $0x5e2e,%eax
    d236:	39 85 b8 f8 ff ff    	cmp    %eax,-0x748(%rbp)
    d23c:	0f 9d c0             	setge  %al
    d23f:	0f b6 c0             	movzbl %al,%eax
    d242:	44 89 ee             	mov    %r13d,%esi
    d245:	89 c7                	mov    %eax,%edi
    d247:	e8 42 7b ff ff       	callq  4d8e <safe_div_func_uint16_t_u_u>
    d24c:	98                   	cwtl   
    d24d:	be 05 00 00 00       	mov    $0x5,%esi
    d252:	89 c7                	mov    %eax,%edi
    d254:	e8 0a 73 ff ff       	callq  4563 <safe_rshift_func_int16_t_s_u>
    d259:	0f b6 c0             	movzbl %al,%eax
    d25c:	44 89 e6             	mov    %r12d,%esi
    d25f:	89 c7                	mov    %eax,%edi
    d261:	e8 f4 78 ff ff       	callq  4b5a <safe_add_func_uint8_t_u_u>
    d266:	0f b6 c0             	movzbl %al,%eax
    d269:	be 3b 56 38 43       	mov    $0x4338563b,%esi
    d26e:	89 c7                	mov    %eax,%edi
    d270:	e8 90 73 ff ff       	callq  4605 <safe_sub_func_int32_t_s_s>
    d275:	0f b7 c0             	movzwl %ax,%eax
    d278:	89 de                	mov    %ebx,%esi
    d27a:	89 c7                	mov    %eax,%edi
    d27c:	e8 bc 7a ff ff       	callq  4d3d <safe_mul_func_uint16_t_u_u>
    d281:	66 85 c0             	test   %ax,%ax
    d284:	74 3d                	je     d2c3 <func_61+0xe8b>
    d286:	c6 85 85 f8 ff ff f8 	movb   $0xf8,-0x77b(%rbp)
    d28d:	8b 85 b4 f8 ff ff    	mov    -0x74c(%rbp),%eax
    d293:	88 85 85 f8 ff ff    	mov    %al,-0x77b(%rbp)
    d299:	0f b6 95 85 f8 ff ff 	movzbl -0x77b(%rbp),%edx
    d2a0:	48 8b 85 60 f9 ff ff 	mov    -0x6a0(%rbp),%rax
    d2a7:	89 10                	mov    %edx,(%rax)
    d2a9:	48 8b 85 30 f9 ff ff 	mov    -0x6d0(%rbp),%rax
    d2b0:	48 8b 00             	mov    (%rax),%rax
    d2b3:	48 8b 00             	mov    (%rax),%rax
    d2b6:	48 8b 00             	mov    (%rax),%rax
    d2b9:	48 8b 00             	mov    (%rax),%rax
    d2bc:	8b 00                	mov    (%rax),%eax
    d2be:	e9 91 06 00 00       	jmpq   d954 <func_61+0x151c>
    d2c3:	48 8d 85 e8 f8 ff ff 	lea    -0x718(%rbp),%rax
    d2ca:	48 89 85 e0 fb ff ff 	mov    %rax,-0x420(%rbp)
    d2d1:	48 8d 85 e8 f8 ff ff 	lea    -0x718(%rbp),%rax
    d2d8:	48 89 85 e8 fb ff ff 	mov    %rax,-0x418(%rbp)
    d2df:	48 8d 85 e8 f8 ff ff 	lea    -0x718(%rbp),%rax
    d2e6:	48 89 85 f0 fb ff ff 	mov    %rax,-0x410(%rbp)
    d2ed:	48 8d 85 e8 f8 ff ff 	lea    -0x718(%rbp),%rax
    d2f4:	48 89 85 f8 fb ff ff 	mov    %rax,-0x408(%rbp)
    d2fb:	48 8d 85 e8 f8 ff ff 	lea    -0x718(%rbp),%rax
    d302:	48 89 85 00 fc ff ff 	mov    %rax,-0x400(%rbp)
    d309:	48 8d 85 e8 f8 ff ff 	lea    -0x718(%rbp),%rax
    d310:	48 89 85 08 fc ff ff 	mov    %rax,-0x3f8(%rbp)
    d317:	48 8d 85 e8 f8 ff ff 	lea    -0x718(%rbp),%rax
    d31e:	48 89 85 10 fc ff ff 	mov    %rax,-0x3f0(%rbp)
    d325:	48 8d 85 e8 f8 ff ff 	lea    -0x718(%rbp),%rax
    d32c:	48 89 85 18 fc ff ff 	mov    %rax,-0x3e8(%rbp)
    d333:	48 8d 85 e8 f8 ff ff 	lea    -0x718(%rbp),%rax
    d33a:	48 89 85 20 fc ff ff 	mov    %rax,-0x3e0(%rbp)
    d341:	48 8d 85 e8 f8 ff ff 	lea    -0x718(%rbp),%rax
    d348:	48 89 85 28 fc ff ff 	mov    %rax,-0x3d8(%rbp)
    d34f:	48 c7 85 30 fc ff ff 	movq   $0x0,-0x3d0(%rbp)
    d356:	00 00 00 00 
    d35a:	48 8d 85 e8 f8 ff ff 	lea    -0x718(%rbp),%rax
    d361:	48 89 85 38 fc ff ff 	mov    %rax,-0x3c8(%rbp)
    d368:	48 8d 85 e8 f8 ff ff 	lea    -0x718(%rbp),%rax
    d36f:	48 89 85 40 fc ff ff 	mov    %rax,-0x3c0(%rbp)
    d376:	48 8d 85 e8 f8 ff ff 	lea    -0x718(%rbp),%rax
    d37d:	48 89 85 48 fc ff ff 	mov    %rax,-0x3b8(%rbp)
    d384:	48 c7 85 50 fc ff ff 	movq   $0x0,-0x3b0(%rbp)
    d38b:	00 00 00 00 
    d38f:	48 8d 85 e8 f8 ff ff 	lea    -0x718(%rbp),%rax
    d396:	48 89 85 58 fc ff ff 	mov    %rax,-0x3a8(%rbp)
    d39d:	48 c7 85 60 fc ff ff 	movq   $0x0,-0x3a0(%rbp)
    d3a4:	00 00 00 00 
    d3a8:	48 8d 85 e8 f8 ff ff 	lea    -0x718(%rbp),%rax
    d3af:	48 89 85 68 fc ff ff 	mov    %rax,-0x398(%rbp)
    d3b6:	48 8d 85 e8 f8 ff ff 	lea    -0x718(%rbp),%rax
    d3bd:	48 89 85 70 fc ff ff 	mov    %rax,-0x390(%rbp)
    d3c4:	48 8d 85 e8 f8 ff ff 	lea    -0x718(%rbp),%rax
    d3cb:	48 89 85 78 fc ff ff 	mov    %rax,-0x388(%rbp)
    d3d2:	48 8d 85 e8 f8 ff ff 	lea    -0x718(%rbp),%rax
    d3d9:	48 89 85 80 fc ff ff 	mov    %rax,-0x380(%rbp)
    d3e0:	48 8d 85 e8 f8 ff ff 	lea    -0x718(%rbp),%rax
    d3e7:	48 89 85 88 fc ff ff 	mov    %rax,-0x378(%rbp)
    d3ee:	48 8d 85 e8 f8 ff ff 	lea    -0x718(%rbp),%rax
    d3f5:	48 89 85 90 fc ff ff 	mov    %rax,-0x370(%rbp)
    d3fc:	48 8d 85 e8 f8 ff ff 	lea    -0x718(%rbp),%rax
    d403:	48 89 85 98 fc ff ff 	mov    %rax,-0x368(%rbp)
    d40a:	48 8d 85 e8 f8 ff ff 	lea    -0x718(%rbp),%rax
    d411:	48 89 85 a0 fc ff ff 	mov    %rax,-0x360(%rbp)
    d418:	48 8d 85 e8 f8 ff ff 	lea    -0x718(%rbp),%rax
    d41f:	48 89 85 a8 fc ff ff 	mov    %rax,-0x358(%rbp)
    d426:	48 8d 85 e8 f8 ff ff 	lea    -0x718(%rbp),%rax
    d42d:	48 89 85 b0 fc ff ff 	mov    %rax,-0x350(%rbp)
    d434:	48 8d 85 e8 f8 ff ff 	lea    -0x718(%rbp),%rax
    d43b:	48 89 85 b8 fc ff ff 	mov    %rax,-0x348(%rbp)
    d442:	48 c7 85 c0 fc ff ff 	movq   $0x0,-0x340(%rbp)
    d449:	00 00 00 00 
    d44d:	48 8d 85 e8 f8 ff ff 	lea    -0x718(%rbp),%rax
    d454:	48 89 85 c8 fc ff ff 	mov    %rax,-0x338(%rbp)
    d45b:	48 8d 85 e8 f8 ff ff 	lea    -0x718(%rbp),%rax
    d462:	48 89 85 d0 fc ff ff 	mov    %rax,-0x330(%rbp)
    d469:	48 8d 85 e8 f8 ff ff 	lea    -0x718(%rbp),%rax
    d470:	48 89 85 d8 fc ff ff 	mov    %rax,-0x328(%rbp)
    d477:	48 c7 85 e0 fc ff ff 	movq   $0x0,-0x320(%rbp)
    d47e:	00 00 00 00 
    d482:	48 8d 85 e8 f8 ff ff 	lea    -0x718(%rbp),%rax
    d489:	48 89 85 e8 fc ff ff 	mov    %rax,-0x318(%rbp)
    d490:	48 c7 85 f0 fc ff ff 	movq   $0x0,-0x310(%rbp)
    d497:	00 00 00 00 
    d49b:	48 8d 85 e8 f8 ff ff 	lea    -0x718(%rbp),%rax
    d4a2:	48 89 85 f8 fc ff ff 	mov    %rax,-0x308(%rbp)
    d4a9:	48 8d 85 e8 f8 ff ff 	lea    -0x718(%rbp),%rax
    d4b0:	48 89 85 00 fd ff ff 	mov    %rax,-0x300(%rbp)
    d4b7:	48 8d 85 e8 f8 ff ff 	lea    -0x718(%rbp),%rax
    d4be:	48 89 85 08 fd ff ff 	mov    %rax,-0x2f8(%rbp)
    d4c5:	48 8d 85 e8 f8 ff ff 	lea    -0x718(%rbp),%rax
    d4cc:	48 89 85 10 fd ff ff 	mov    %rax,-0x2f0(%rbp)
    d4d3:	48 8d 85 e8 f8 ff ff 	lea    -0x718(%rbp),%rax
    d4da:	48 89 85 18 fd ff ff 	mov    %rax,-0x2e8(%rbp)
    d4e1:	48 8d 85 e8 f8 ff ff 	lea    -0x718(%rbp),%rax
    d4e8:	48 89 85 20 fd ff ff 	mov    %rax,-0x2e0(%rbp)
    d4ef:	48 8d 85 e8 f8 ff ff 	lea    -0x718(%rbp),%rax
    d4f6:	48 89 85 28 fd ff ff 	mov    %rax,-0x2d8(%rbp)
    d4fd:	48 8d 85 e8 f8 ff ff 	lea    -0x718(%rbp),%rax
    d504:	48 89 85 30 fd ff ff 	mov    %rax,-0x2d0(%rbp)
    d50b:	48 8d 85 e8 f8 ff ff 	lea    -0x718(%rbp),%rax
    d512:	48 89 85 38 fd ff ff 	mov    %rax,-0x2c8(%rbp)
    d519:	48 8d 85 e8 f8 ff ff 	lea    -0x718(%rbp),%rax
    d520:	48 89 85 40 fd ff ff 	mov    %rax,-0x2c0(%rbp)
    d527:	48 8b 85 f0 f8 ff ff 	mov    -0x710(%rbp),%rax
    d52e:	48 8b 00             	mov    (%rax),%rax
    d531:	48 8b 00             	mov    (%rax),%rax
    d534:	48 8b 00             	mov    (%rax),%rax
    d537:	8b 00                	mov    (%rax),%eax
    d539:	85 c0                	test   %eax,%eax
    d53b:	0f 85 4f 01 00 00    	jne    d690 <func_61+0x1258>
    d541:	83 bd b8 f8 ff ff 00 	cmpl   $0x0,-0x748(%rbp)
    d548:	0f 85 45 01 00 00    	jne    d693 <func_61+0x125b>
    d54e:	48 8b 85 e8 f8 ff ff 	mov    -0x718(%rbp),%rax
    d555:	48 89 85 e8 f8 ff ff 	mov    %rax,-0x718(%rbp)
    d55c:	48 8b 85 60 f9 ff ff 	mov    -0x6a0(%rbp),%rax
    d563:	8b 00                	mov    (%rax),%eax
    d565:	83 c8 02             	or     $0x2,%eax
    d568:	89 c2                	mov    %eax,%edx
    d56a:	48 8b 85 60 f9 ff ff 	mov    -0x6a0(%rbp),%rax
    d571:	89 10                	mov    %edx,(%rax)
    d573:	c7 05 0b 7d 00 00 00 	movl   $0x0,0x7d0b(%rip)        # 15288 <g_212>
    d57a:	00 00 00 
    d57d:	e9 a9 00 00 00       	jmpq   d62b <func_61+0x11f3>
    d582:	48 8d 85 00 f9 ff ff 	lea    -0x700(%rbp),%rax
    d589:	48 89 85 e0 fb ff ff 	mov    %rax,-0x420(%rbp)
    d590:	48 8d 85 00 f9 ff ff 	lea    -0x700(%rbp),%rax
    d597:	48 89 85 e8 fb ff ff 	mov    %rax,-0x418(%rbp)
    d59e:	48 8d 85 00 f9 ff ff 	lea    -0x700(%rbp),%rax
    d5a5:	48 89 85 f0 fb ff ff 	mov    %rax,-0x410(%rbp)
    d5ac:	48 8d 85 00 f9 ff ff 	lea    -0x700(%rbp),%rax
    d5b3:	48 89 85 f8 fb ff ff 	mov    %rax,-0x408(%rbp)
    d5ba:	48 8d 85 00 f9 ff ff 	lea    -0x700(%rbp),%rax
    d5c1:	48 89 85 00 fc ff ff 	mov    %rax,-0x400(%rbp)
    d5c8:	48 8d 85 00 f9 ff ff 	lea    -0x700(%rbp),%rax
    d5cf:	48 89 85 08 fc ff ff 	mov    %rax,-0x3f8(%rbp)
    d5d6:	48 8d 85 00 f9 ff ff 	lea    -0x700(%rbp),%rax
    d5dd:	48 89 85 10 fc ff ff 	mov    %rax,-0x3f0(%rbp)
    d5e4:	48 8d 85 00 f9 ff ff 	lea    -0x700(%rbp),%rax
    d5eb:	48 89 85 18 fc ff ff 	mov    %rax,-0x3e8(%rbp)
    d5f2:	48 8d 85 00 f9 ff ff 	lea    -0x700(%rbp),%rax
    d5f9:	48 89 85 20 fc ff ff 	mov    %rax,-0x3e0(%rbp)
    d600:	48 8d 85 00 f9 ff ff 	lea    -0x700(%rbp),%rax
    d607:	48 89 85 28 fc ff ff 	mov    %rax,-0x3d8(%rbp)
    d60e:	48 8b 85 00 f9 ff ff 	mov    -0x700(%rbp),%rax
    d615:	48 89 05 0c c1 00 00 	mov    %rax,0xc10c(%rip)        # 19728 <g_415>
    d61c:	8b 05 66 7c 00 00    	mov    0x7c66(%rip),%eax        # 15288 <g_212>
    d622:	83 c0 01             	add    $0x1,%eax
    d625:	89 05 5d 7c 00 00    	mov    %eax,0x7c5d(%rip)        # 15288 <g_212>
    d62b:	8b 05 57 7c 00 00    	mov    0x7c57(%rip),%eax        # 15288 <g_212>
    d631:	83 f8 01             	cmp    $0x1,%eax
    d634:	0f 86 48 ff ff ff    	jbe    d582 <func_61+0x114a>
    d63a:	48 8b 05 cf 9d 00 00 	mov    0x9dcf(%rip),%rax        # 17410 <g_419+0x10>
    d641:	48 83 c0 01          	add    $0x1,%rax
    d645:	48 89 05 c4 9d 00 00 	mov    %rax,0x9dc4(%rip)        # 17410 <g_419+0x10>
    d64c:	48 8b 85 f0 f8 ff ff 	mov    -0x710(%rbp),%rax
    d653:	48 8b 00             	mov    (%rax),%rax
    d656:	48 8b 00             	mov    (%rax),%rax
    d659:	48 8b 95 70 f8 ff ff 	mov    -0x790(%rbp),%rdx
    d660:	48 89 10             	mov    %rdx,(%rax)
    d663:	48 8b 85 60 f9 ff ff 	mov    -0x6a0(%rbp),%rax
    d66a:	c7 00 80 27 ec b3    	movl   $0xb3ec2780,(%rax)
    d670:	8b 05 ba c7 00 00    	mov    0xc7ba(%rip),%eax        # 19e30 <g_89>
    d676:	83 c0 01             	add    $0x1,%eax
    d679:	89 05 b1 c7 00 00    	mov    %eax,0xc7b1(%rip)        # 19e30 <g_89>
    d67f:	8b 05 ab c7 00 00    	mov    0xc7ab(%rip),%eax        # 19e30 <g_89>
    d685:	83 f8 01             	cmp    $0x1,%eax
    d688:	0f 8e 1a f6 ff ff    	jle    cca8 <func_61+0x870>
    d68e:	eb 04                	jmp    d694 <func_61+0x125c>
    d690:	90                   	nop
    d691:	eb 01                	jmp    d694 <func_61+0x125c>
    d693:	90                   	nop
    d694:	66 83 85 86 f8 ff ff 	addw   $0x1,-0x77a(%rbp)
    d69b:	01 
    d69c:	66 83 bd 86 f8 ff ff 	cmpw   $0x8,-0x77a(%rbp)
    d6a3:	08 
    d6a4:	0f 86 58 f3 ff ff    	jbe    ca02 <func_61+0x5ca>
    d6aa:	48 c7 85 08 f9 ff ff 	movq   $0x0,-0x6f8(%rbp)
    d6b1:	00 00 00 00 
    d6b5:	e9 68 02 00 00       	jmpq   d922 <func_61+0x14ea>
    d6ba:	48 c7 85 40 f9 ff ff 	movq   $0x0,-0x6c0(%rbp)
    d6c1:	00 00 00 00 
    d6c5:	48 c7 85 48 f9 ff ff 	movq   $0x0,-0x6b8(%rbp)
    d6cc:	00 00 00 00 
    d6d0:	48 8d 05 61 c7 00 00 	lea    0xc761(%rip),%rax        # 19e38 <g_137>
    d6d7:	48 89 85 50 f9 ff ff 	mov    %rax,-0x6b0(%rbp)
    d6de:	48 8d 05 4b 79 00 00 	lea    0x794b(%rip),%rax        # 15030 <g_26>
    d6e5:	48 89 85 58 f9 ff ff 	mov    %rax,-0x6a8(%rbp)
    d6ec:	8b 15 9e 79 00 00    	mov    0x799e(%rip),%edx        # 15090 <g_131>
    d6f2:	48 8b 85 08 f9 ff ff 	mov    -0x6f8(%rbp),%rax
    d6f9:	48 8d 48 01          	lea    0x1(%rax),%rcx
    d6fd:	89 d2                	mov    %edx,%edx
    d6ff:	48 89 d0             	mov    %rdx,%rax
    d702:	48 c1 e0 02          	shl    $0x2,%rax
    d706:	48 01 d0             	add    %rdx,%rax
    d709:	48 01 c0             	add    %rax,%rax
    d70c:	48 8d 14 08          	lea    (%rax,%rcx,1),%rdx
    d710:	48 8d 05 89 7b 00 00 	lea    0x7b89(%rip),%rax        # 152a0 <g_240>
    d717:	48 01 d0             	add    %rdx,%rax
    d71a:	0f b6 00             	movzbl (%rax),%eax
    d71d:	0f b6 d8             	movzbl %al,%ebx
    d720:	48 8b 85 78 f8 ff ff 	mov    -0x788(%rbp),%rax
    d727:	8b 00                	mov    (%rax),%eax
    d729:	41 89 c5             	mov    %eax,%r13d
    d72c:	0f b6 05 97 7b 00 00 	movzbl 0x7b97(%rip),%eax        # 152ca <g_240+0x2a>
    d733:	44 0f b6 e0          	movzbl %al,%r12d
    d737:	48 8b 85 68 f8 ff ff 	mov    -0x798(%rbp),%rax
    d73e:	8b 00                	mov    (%rax),%eax
    d740:	48 8b 95 10 f9 ff ff 	mov    -0x6f0(%rbp),%rdx
    d747:	48 8b 12             	mov    (%rdx),%rdx
    d74a:	8b 12                	mov    (%rdx),%edx
    d74c:	89 d1                	mov    %edx,%ecx
    d74e:	48 8b 95 38 f9 ff ff 	mov    -0x6c8(%rbp),%rdx
    d755:	09 ca                	or     %ecx,%edx
    d757:	89 c6                	mov    %eax,%esi
    d759:	89 d7                	mov    %edx,%edi
    d75b:	e8 9f 6f ff ff       	callq  46ff <safe_div_func_int32_t_s_s>
    d760:	48 8b 95 d8 f8 ff ff 	mov    -0x728(%rbp),%rdx
    d767:	48 8b 12             	mov    (%rdx),%rdx
    d76a:	48 8b 12             	mov    (%rdx),%rdx
    d76d:	8b 12                	mov    (%rdx),%edx
    d76f:	39 d0                	cmp    %edx,%eax
    d771:	0f 94 c0             	sete   %al
    d774:	0f b6 c0             	movzbl %al,%eax
    d777:	89 c7                	mov    %eax,%edi
    d779:	e8 41 6a ff ff       	callq  41bf <safe_unary_minus_func_int8_t_s>
    d77e:	44 89 e6             	mov    %r12d,%esi
    d781:	bf 00 00 00 00       	mov    $0x0,%edi
    d786:	e8 7b 76 ff ff       	callq  4e06 <safe_lshift_func_uint16_t_u_u>
    d78b:	0f b6 c0             	movzbl %al,%eax
    d78e:	89 c7                	mov    %eax,%edi
    d790:	e8 b0 73 ff ff       	callq  4b45 <safe_unary_minus_func_uint8_t_u>
    d795:	0f b6 15 2e 7b 00 00 	movzbl 0x7b2e(%rip),%edx        # 152ca <g_240+0x2a>
    d79c:	38 d0                	cmp    %dl,%al
    d79e:	0f 97 c0             	seta   %al
    d7a1:	0f b6 c0             	movzbl %al,%eax
    d7a4:	44 89 ee             	mov    %r13d,%esi
    d7a7:	89 c7                	mov    %eax,%edi
    d7a9:	e8 77 77 ff ff       	callq  4f25 <safe_div_func_uint32_t_u_u>
    d7ae:	48 8b 95 d0 f8 ff ff 	mov    -0x730(%rbp),%rdx
    d7b5:	48 8b 12             	mov    (%rdx),%rdx
    d7b8:	8b 12                	mov    (%rdx),%edx
    d7ba:	39 d0                	cmp    %edx,%eax
    d7bc:	0f 97 c0             	seta   %al
    d7bf:	0f b6 d0             	movzbl %al,%edx
    d7c2:	48 8b 85 30 f9 ff ff 	mov    -0x6d0(%rbp),%rax
    d7c9:	48 8b 00             	mov    (%rax),%rax
    d7cc:	48 8b 00             	mov    (%rax),%rax
    d7cf:	48 8b 00             	mov    (%rax),%rax
    d7d2:	48 8b 00             	mov    (%rax),%rax
    d7d5:	8b 00                	mov    (%rax),%eax
    d7d7:	39 c2                	cmp    %eax,%edx
    d7d9:	0f 9e c0             	setle  %al
    d7dc:	0f b6 d0             	movzbl %al,%edx
    d7df:	48 8b 85 f0 f8 ff ff 	mov    -0x710(%rbp),%rax
    d7e6:	48 8b 00             	mov    (%rax),%rax
    d7e9:	48 8b 00             	mov    (%rax),%rax
    d7ec:	48 8b 00             	mov    (%rax),%rax
    d7ef:	8b 00                	mov    (%rax),%eax
    d7f1:	39 c2                	cmp    %eax,%edx
    d7f3:	0f 9f c0             	setg   %al
    d7f6:	44 0f b6 e0          	movzbl %al,%r12d
    d7fa:	48 83 bd 10 f9 ff ff 	cmpq   $0x0,-0x6f0(%rbp)
    d801:	00 
    d802:	0f 95 c0             	setne  %al
    d805:	44 0f b6 e8          	movzbl %al,%r13d
    d809:	c7 05 2d 78 00 00 04 	movl   $0x4,0x782d(%rip)        # 15040 <g_42>
    d810:	00 00 00 
    d813:	48 8b 85 c8 f8 ff ff 	mov    -0x738(%rbp),%rax
    d81a:	8b 00                	mov    (%rax),%eax
    d81c:	0f be d0             	movsbl %al,%edx
    d81f:	8b 0d 6b 78 00 00    	mov    0x786b(%rip),%ecx        # 15090 <g_131>
    d825:	48 8b 85 08 f9 ff ff 	mov    -0x6f8(%rbp),%rax
    d82c:	48 8d 70 01          	lea    0x1(%rax),%rsi
    d830:	89 c9                	mov    %ecx,%ecx
    d832:	48 89 c8             	mov    %rcx,%rax
    d835:	48 c1 e0 02          	shl    $0x2,%rax
    d839:	48 01 c8             	add    %rcx,%rax
    d83c:	48 01 c0             	add    %rax,%rax
    d83f:	48 8d 0c 30          	lea    (%rax,%rsi,1),%rcx
    d843:	48 8d 05 56 7a 00 00 	lea    0x7a56(%rip),%rax        # 152a0 <g_240>
    d84a:	48 01 c8             	add    %rcx,%rax
    d84d:	0f b6 00             	movzbl (%rax),%eax
    d850:	88 05 03 79 00 00    	mov    %al,0x7903(%rip)        # 15159 <g_181+0x39>
    d856:	0f b6 05 fc 78 00 00 	movzbl 0x78fc(%rip),%eax        # 15159 <g_181+0x39>
    d85d:	0f be c0             	movsbl %al,%eax
    d860:	89 d6                	mov    %edx,%esi
    d862:	89 c7                	mov    %eax,%edi
    d864:	e8 89 69 ff ff       	callq  41f2 <safe_sub_func_int8_t_s_s>
    d869:	0f be d0             	movsbl %al,%edx
    d86c:	48 8b 85 50 f9 ff ff 	mov    -0x6b0(%rbp),%rax
    d873:	89 10                	mov    %edx,(%rax)
    d875:	48 8b 85 50 f9 ff ff 	mov    -0x6b0(%rbp),%rax
    d87c:	8b 00                	mov    (%rax),%eax
    d87e:	f7 d0                	not    %eax
    d880:	0f b7 c0             	movzwl %ax,%eax
    d883:	44 89 ee             	mov    %r13d,%esi
    d886:	89 c7                	mov    %eax,%edi
    d888:	e8 79 75 ff ff       	callq  4e06 <safe_lshift_func_uint16_t_u_u>
    d88d:	8b 15 fd 77 00 00    	mov    0x77fd(%rip),%edx        # 15090 <g_131>
    d893:	48 8b 85 08 f9 ff ff 	mov    -0x6f8(%rbp),%rax
    d89a:	48 8d 48 01          	lea    0x1(%rax),%rcx
    d89e:	89 d2                	mov    %edx,%edx
    d8a0:	48 89 d0             	mov    %rdx,%rax
    d8a3:	48 c1 e0 02          	shl    $0x2,%rax
    d8a7:	48 01 d0             	add    %rdx,%rax
    d8aa:	48 01 c0             	add    %rax,%rax
    d8ad:	48 8d 14 08          	lea    (%rax,%rcx,1),%rdx
    d8b1:	48 8d 05 e8 79 00 00 	lea    0x79e8(%rip),%rax        # 152a0 <g_240>
    d8b8:	48 01 d0             	add    %rdx,%rax
    d8bb:	0f b6 00             	movzbl (%rax),%eax
    d8be:	0f be c0             	movsbl %al,%eax
    d8c1:	44 89 e6             	mov    %r12d,%esi
    d8c4:	89 c7                	mov    %eax,%edi
    d8c6:	e8 47 69 ff ff       	callq  4212 <safe_mul_func_int8_t_s_s>
    d8cb:	48 0f be d0          	movsbq %al,%rdx
    d8cf:	48 8b 85 58 f9 ff ff 	mov    -0x6a8(%rbp),%rax
    d8d6:	48 89 10             	mov    %rdx,(%rax)
    d8d9:	48 8b 85 58 f9 ff ff 	mov    -0x6a8(%rbp),%rax
    d8e0:	48 8b 00             	mov    (%rax),%rax
    d8e3:	89 c2                	mov    %eax,%edx
    d8e5:	0f b6 05 94 77 00 00 	movzbl 0x7794(%rip),%eax        # 15080 <g_103>
    d8ec:	31 d0                	xor    %edx,%eax
    d8ee:	0f b6 c0             	movzbl %al,%eax
    d8f1:	89 de                	mov    %ebx,%esi
    d8f3:	89 c7                	mov    %eax,%edi
    d8f5:	e8 e1 72 ff ff       	callq  4bdb <safe_div_func_uint8_t_u_u>
    d8fa:	0f b6 d0             	movzbl %al,%edx
    d8fd:	0f b7 85 88 f8 ff ff 	movzwl -0x778(%rbp),%eax
    d904:	31 d0                	xor    %edx,%eax
    d906:	48 63 d0             	movslq %eax,%rdx
    d909:	48 8b 05 10 9b 00 00 	mov    0x9b10(%rip),%rax        # 17420 <g_448>
    d910:	48 31 d0             	xor    %rdx,%rax
    d913:	48 89 05 06 9b 00 00 	mov    %rax,0x9b06(%rip)        # 17420 <g_448>
    d91a:	48 83 85 08 f9 ff ff 	addq   $0x1,-0x6f8(%rbp)
    d921:	01 
    d922:	48 83 bd 08 f9 ff ff 	cmpq   $0x5,-0x6f8(%rbp)
    d929:	05 
    d92a:	0f 8e 8a fd ff ff    	jle    d6ba <func_61+0x1282>
    d930:	8b 05 5a 77 00 00    	mov    0x775a(%rip),%eax        # 15090 <g_131>
    d936:	83 c0 01             	add    $0x1,%eax
    d939:	89 05 51 77 00 00    	mov    %eax,0x7751(%rip)        # 15090 <g_131>
    d93f:	8b 05 4b 77 00 00    	mov    0x774b(%rip),%eax        # 15090 <g_131>
    d945:	83 f8 05             	cmp    $0x5,%eax
    d948:	0f 86 57 f0 ff ff    	jbe    c9a5 <func_61+0x56d>
    d94e:	8b 05 60 78 00 00    	mov    0x7860(%rip),%eax        # 151b4 <g_193+0x54>
    d954:	48 8b 5d d8          	mov    -0x28(%rbp),%rbx
    d958:	64 48 33 1c 25 28 00 	xor    %fs:0x28,%rbx
    d95f:	00 00 
    d961:	74 05                	je     d968 <func_61+0x1530>
    d963:	e8 08 67 ff ff       	callq  4070 <__stack_chk_fail@plt>
    d968:	48 81 c4 88 07 00 00 	add    $0x788,%rsp
    d96f:	5b                   	pop    %rbx
    d970:	41 5c                	pop    %r12
    d972:	41 5d                	pop    %r13
    d974:	5d                   	pop    %rbp
    d975:	c3                   	retq   

000000000000d976 <func_65>:
    d976:	f3 0f 1e fa          	endbr64 
    d97a:	55                   	push   %rbp
    d97b:	48 89 e5             	mov    %rsp,%rbp
    d97e:	48 89 7d f8          	mov    %rdi,-0x8(%rbp)
    d982:	89 75 f4             	mov    %esi,-0xc(%rbp)
    d985:	89 55 f0             	mov    %edx,-0x10(%rbp)
    d988:	48 89 4d e8          	mov    %rcx,-0x18(%rbp)
    d98c:	48 8d 05 91 76 00 00 	lea    0x7691(%rip),%rax        # 15024 <g_3>
    d993:	5d                   	pop    %rbp
    d994:	c3                   	retq   

000000000000d995 <main>:
    d995:	f3 0f 1e fa          	endbr64 
    d999:	55                   	push   %rbp
    d99a:	48 89 e5             	mov    %rsp,%rbp
    d99d:	48 83 ec 50          	sub    $0x50,%rsp
    d9a1:	89 7d dc             	mov    %edi,-0x24(%rbp)
    d9a4:	48 89 75 d0          	mov    %rsi,-0x30(%rbp)
    d9a8:	64 48 8b 04 25 28 00 	mov    %fs:0x28,%rax
    d9af:	00 00 
    d9b1:	48 89 45 f8          	mov    %rax,-0x8(%rbp)
    d9b5:	31 c0                	xor    %eax,%eax
    d9b7:	c7 45 f4 00 00 00 00 	movl   $0x0,-0xc(%rbp)
    d9be:	83 7d dc 02          	cmpl   $0x2,-0x24(%rbp)
    d9c2:	75 25                	jne    d9e9 <main+0x54>
    d9c4:	48 8b 45 d0          	mov    -0x30(%rbp),%rax
    d9c8:	48 83 c0 08          	add    $0x8,%rax
    d9cc:	48 8b 00             	mov    (%rax),%rax
    d9cf:	48 8d 35 fa 42 00 00 	lea    0x42fa(%rip),%rsi        # 11cd0 <g_1342+0xc50>
    d9d6:	48 89 c7             	mov    %rax,%rdi
    d9d9:	e8 b2 66 ff ff       	callq  4090 <strcmp@plt>
    d9de:	85 c0                	test   %eax,%eax
    d9e0:	75 07                	jne    d9e9 <main+0x54>
    d9e2:	c7 45 f4 01 00 00 00 	movl   $0x1,-0xc(%rbp)
    d9e9:	e8 9b 67 ff ff       	callq  4189 <platform_main_begin>
    d9ee:	e8 a5 7b ff ff       	callq  5598 <crc32_gentab>
    d9f3:	48 8d 45 b0          	lea    -0x50(%rbp),%rax
    d9f7:	48 89 c7             	mov    %rax,%rdi
    d9fa:	e8 b6 7d ff ff       	callq  57b5 <func_1>
    d9ff:	8b 05 1f 76 00 00    	mov    0x761f(%rip),%eax        # 15024 <g_3>
    da05:	48 98                	cltq   
    da07:	8b 55 f4             	mov    -0xc(%rbp),%edx
    da0a:	48 8d 35 c1 42 00 00 	lea    0x42c1(%rip),%rsi        # 11cd2 <g_1342+0xc52>
    da11:	48 89 c7             	mov    %rax,%rdi
    da14:	e8 da 7c ff ff       	callq  56f3 <transparent_crc>
    da19:	8b 05 09 76 00 00    	mov    0x7609(%rip),%eax        # 15028 <g_18>
    da1f:	48 98                	cltq   
    da21:	8b 55 f4             	mov    -0xc(%rbp),%edx
    da24:	48 8d 35 ab 42 00 00 	lea    0x42ab(%rip),%rsi        # 11cd6 <g_1342+0xc56>
    da2b:	48 89 c7             	mov    %rax,%rdi
    da2e:	e8 c0 7c ff ff       	callq  56f3 <transparent_crc>
    da33:	48 8b 05 f6 75 00 00 	mov    0x75f6(%rip),%rax        # 15030 <g_26>
    da3a:	48 89 c1             	mov    %rax,%rcx
    da3d:	8b 45 f4             	mov    -0xc(%rbp),%eax
    da40:	89 c2                	mov    %eax,%edx
    da42:	48 8d 35 92 42 00 00 	lea    0x4292(%rip),%rsi        # 11cdb <g_1342+0xc5b>
    da49:	48 89 cf             	mov    %rcx,%rdi
    da4c:	e8 a2 7c ff ff       	callq  56f3 <transparent_crc>
    da51:	0f b6 05 e0 75 00 00 	movzbl 0x75e0(%rip),%eax        # 15038 <g_27>
    da58:	48 0f be c0          	movsbq %al,%rax
    da5c:	8b 55 f4             	mov    -0xc(%rbp),%edx
    da5f:	48 8d 35 7a 42 00 00 	lea    0x427a(%rip),%rsi        # 11ce0 <g_1342+0xc60>
    da66:	48 89 c7             	mov    %rax,%rdi
    da69:	e8 85 7c ff ff       	callq  56f3 <transparent_crc>
    da6e:	8b 05 c8 75 00 00    	mov    0x75c8(%rip),%eax        # 1503c <g_33>
    da74:	89 c1                	mov    %eax,%ecx
    da76:	8b 45 f4             	mov    -0xc(%rbp),%eax
    da79:	89 c2                	mov    %eax,%edx
    da7b:	48 8d 35 63 42 00 00 	lea    0x4263(%rip),%rsi        # 11ce5 <g_1342+0xc65>
    da82:	48 89 cf             	mov    %rcx,%rdi
    da85:	e8 69 7c ff ff       	callq  56f3 <transparent_crc>
    da8a:	8b 05 b0 75 00 00    	mov    0x75b0(%rip),%eax        # 15040 <g_42>
    da90:	48 98                	cltq   
    da92:	8b 55 f4             	mov    -0xc(%rbp),%edx
    da95:	48 8d 35 4e 42 00 00 	lea    0x424e(%rip),%rsi        # 11cea <g_1342+0xc6a>
    da9c:	48 89 c7             	mov    %rax,%rdi
    da9f:	e8 4f 7c ff ff       	callq  56f3 <transparent_crc>
    daa4:	0f b7 05 b5 75 00 00 	movzwl 0x75b5(%rip),%eax        # 15060 <g_43>
    daab:	0f b7 c0             	movzwl %ax,%eax
    daae:	8b 55 f4             	mov    -0xc(%rbp),%edx
    dab1:	48 8d 35 37 42 00 00 	lea    0x4237(%rip),%rsi        # 11cef <g_1342+0xc6f>
    dab8:	48 89 c7             	mov    %rax,%rdi
    dabb:	e8 33 7c ff ff       	callq  56f3 <transparent_crc>
    dac0:	8b 05 9e 75 00 00    	mov    0x759e(%rip),%eax        # 15064 <g_43+0x4>
    dac6:	48 98                	cltq   
    dac8:	8b 55 f4             	mov    -0xc(%rbp),%edx
    dacb:	48 8d 35 28 42 00 00 	lea    0x4228(%rip),%rsi        # 11cfa <g_1342+0xc7a>
    dad2:	48 89 c7             	mov    %rax,%rdi
    dad5:	e8 19 7c ff ff       	callq  56f3 <transparent_crc>
    dada:	8b 05 88 75 00 00    	mov    0x7588(%rip),%eax        # 15068 <g_43+0x8>
    dae0:	89 c1                	mov    %eax,%ecx
    dae2:	8b 45 f4             	mov    -0xc(%rbp),%eax
    dae5:	89 c2                	mov    %eax,%edx
    dae7:	48 8d 35 17 42 00 00 	lea    0x4217(%rip),%rsi        # 11d05 <g_1342+0xc85>
    daee:	48 89 cf             	mov    %rcx,%rdi
    daf1:	e8 fd 7b ff ff       	callq  56f3 <transparent_crc>
    daf6:	8b 05 70 75 00 00    	mov    0x7570(%rip),%eax        # 1506c <g_43+0xc>
    dafc:	48 98                	cltq   
    dafe:	8b 55 f4             	mov    -0xc(%rbp),%edx
    db01:	48 8d 35 08 42 00 00 	lea    0x4208(%rip),%rsi        # 11d10 <g_1342+0xc90>
    db08:	48 89 c7             	mov    %rax,%rdi
    db0b:	e8 e3 7b ff ff       	callq  56f3 <transparent_crc>
    db10:	0f b7 05 59 75 00 00 	movzwl 0x7559(%rip),%eax        # 15070 <g_43+0x10>
    db17:	0f b7 c0             	movzwl %ax,%eax
    db1a:	8b 55 f4             	mov    -0xc(%rbp),%edx
    db1d:	48 8d 35 f7 41 00 00 	lea    0x41f7(%rip),%rsi        # 11d1b <g_1342+0xc9b>
    db24:	48 89 c7             	mov    %rax,%rdi
    db27:	e8 c7 7b ff ff       	callq  56f3 <transparent_crc>
    db2c:	0f b6 05 3f 75 00 00 	movzbl 0x753f(%rip),%eax        # 15072 <g_43+0x12>
    db33:	0f b6 c0             	movzbl %al,%eax
    db36:	8b 55 f4             	mov    -0xc(%rbp),%edx
    db39:	48 8d 35 e6 41 00 00 	lea    0x41e6(%rip),%rsi        # 11d26 <g_1342+0xca6>
    db40:	48 89 c7             	mov    %rax,%rdi
    db43:	e8 ab 7b ff ff       	callq  56f3 <transparent_crc>
    db48:	8b 05 26 75 00 00    	mov    0x7526(%rip),%eax        # 15074 <g_43+0x14>
    db4e:	89 c1                	mov    %eax,%ecx
    db50:	8b 45 f4             	mov    -0xc(%rbp),%eax
    db53:	89 c2                	mov    %eax,%edx
    db55:	48 8d 35 d5 41 00 00 	lea    0x41d5(%rip),%rsi        # 11d31 <g_1342+0xcb1>
    db5c:	48 89 cf             	mov    %rcx,%rdi
    db5f:	e8 8f 7b ff ff       	callq  56f3 <transparent_crc>
    db64:	48 8b 05 0d 75 00 00 	mov    0x750d(%rip),%rax        # 15078 <g_43+0x18>
    db6b:	48 89 c1             	mov    %rax,%rcx
    db6e:	8b 45 f4             	mov    -0xc(%rbp),%eax
    db71:	89 c2                	mov    %eax,%edx
    db73:	48 8d 35 c2 41 00 00 	lea    0x41c2(%rip),%rsi        # 11d3c <g_1342+0xcbc>
    db7a:	48 89 cf             	mov    %rcx,%rdi
    db7d:	e8 71 7b ff ff       	callq  56f3 <transparent_crc>
    db82:	8b 05 a8 c2 00 00    	mov    0xc2a8(%rip),%eax        # 19e30 <g_89>
    db88:	48 98                	cltq   
    db8a:	8b 55 f4             	mov    -0xc(%rbp),%edx
    db8d:	48 8d 35 b3 41 00 00 	lea    0x41b3(%rip),%rsi        # 11d47 <g_1342+0xcc7>
    db94:	48 89 c7             	mov    %rax,%rdi
    db97:	e8 57 7b ff ff       	callq  56f3 <transparent_crc>
    db9c:	0f b6 05 dd 74 00 00 	movzbl 0x74dd(%rip),%eax        # 15080 <g_103>
    dba3:	0f b6 c0             	movzbl %al,%eax
    dba6:	8b 55 f4             	mov    -0xc(%rbp),%edx
    dba9:	48 8d 35 9c 41 00 00 	lea    0x419c(%rip),%rsi        # 11d4c <g_1342+0xccc>
    dbb0:	48 89 c7             	mov    %rax,%rdi
    dbb3:	e8 3b 7b ff ff       	callq  56f3 <transparent_crc>
    dbb8:	48 8b 05 c9 74 00 00 	mov    0x74c9(%rip),%rax        # 15088 <g_110>
    dbbf:	8b 55 f4             	mov    -0xc(%rbp),%edx
    dbc2:	48 8d 35 89 41 00 00 	lea    0x4189(%rip),%rsi        # 11d52 <g_1342+0xcd2>
    dbc9:	48 89 c7             	mov    %rax,%rdi
    dbcc:	e8 22 7b ff ff       	callq  56f3 <transparent_crc>
    dbd1:	8b 05 b9 74 00 00    	mov    0x74b9(%rip),%eax        # 15090 <g_131>
    dbd7:	89 c1                	mov    %eax,%ecx
    dbd9:	8b 45 f4             	mov    -0xc(%rbp),%eax
    dbdc:	89 c2                	mov    %eax,%edx
    dbde:	48 8d 35 73 41 00 00 	lea    0x4173(%rip),%rsi        # 11d58 <g_1342+0xcd8>
    dbe5:	48 89 cf             	mov    %rcx,%rdi
    dbe8:	e8 06 7b ff ff       	callq  56f3 <transparent_crc>
    dbed:	c7 45 e8 00 00 00 00 	movl   $0x0,-0x18(%rbp)
    dbf4:	eb 76                	jmp    dc6c <main+0x2d7>
    dbf6:	c7 45 ec 00 00 00 00 	movl   $0x0,-0x14(%rbp)
    dbfd:	eb 63                	jmp    dc62 <main+0x2cd>
    dbff:	8b 45 ec             	mov    -0x14(%rbp),%eax
    dc02:	48 63 c8             	movslq %eax,%rcx
    dc05:	8b 45 e8             	mov    -0x18(%rbp),%eax
    dc08:	48 63 d0             	movslq %eax,%rdx
    dc0b:	48 89 d0             	mov    %rdx,%rax
    dc0e:	48 c1 e0 02          	shl    $0x2,%rax
    dc12:	48 01 d0             	add    %rdx,%rax
    dc15:	48 01 c0             	add    %rax,%rax
    dc18:	48 01 c8             	add    %rcx,%rax
    dc1b:	48 8d 14 00          	lea    (%rax,%rax,1),%rdx
    dc1f:	48 8d 05 7a 74 00 00 	lea    0x747a(%rip),%rax        # 150a0 <g_133>
    dc26:	0f b7 04 02          	movzwl (%rdx,%rax,1),%eax
    dc2a:	0f b7 c0             	movzwl %ax,%eax
    dc2d:	8b 55 f4             	mov    -0xc(%rbp),%edx
    dc30:	48 8d 35 27 41 00 00 	lea    0x4127(%rip),%rsi        # 11d5e <g_1342+0xcde>
    dc37:	48 89 c7             	mov    %rax,%rdi
    dc3a:	e8 b4 7a ff ff       	callq  56f3 <transparent_crc>
    dc3f:	83 7d f4 00          	cmpl   $0x0,-0xc(%rbp)
    dc43:	74 19                	je     dc5e <main+0x2c9>
    dc45:	8b 55 ec             	mov    -0x14(%rbp),%edx
    dc48:	8b 45 e8             	mov    -0x18(%rbp),%eax
    dc4b:	89 c6                	mov    %eax,%esi
    dc4d:	48 8d 3d 16 41 00 00 	lea    0x4116(%rip),%rdi        # 11d6a <g_1342+0xcea>
    dc54:	b8 00 00 00 00       	mov    $0x0,%eax
    dc59:	e8 22 64 ff ff       	callq  4080 <printf@plt>
    dc5e:	83 45 ec 01          	addl   $0x1,-0x14(%rbp)
    dc62:	83 7d ec 09          	cmpl   $0x9,-0x14(%rbp)
    dc66:	7e 97                	jle    dbff <main+0x26a>
    dc68:	83 45 e8 01          	addl   $0x1,-0x18(%rbp)
    dc6c:	83 7d e8 05          	cmpl   $0x5,-0x18(%rbp)
    dc70:	7e 84                	jle    dbf6 <main+0x261>
    dc72:	8b 05 bc c1 00 00    	mov    0xc1bc(%rip),%eax        # 19e34 <g_135>
    dc78:	48 98                	cltq   
    dc7a:	8b 55 f4             	mov    -0xc(%rbp),%edx
    dc7d:	48 8d 35 f8 40 00 00 	lea    0x40f8(%rip),%rsi        # 11d7c <g_1342+0xcfc>
    dc84:	48 89 c7             	mov    %rax,%rdi
    dc87:	e8 67 7a ff ff       	callq  56f3 <transparent_crc>
    dc8c:	0f b7 05 85 74 00 00 	movzwl 0x7485(%rip),%eax        # 15118 <g_136>
    dc93:	48 0f bf c0          	movswq %ax,%rax
    dc97:	8b 55 f4             	mov    -0xc(%rbp),%edx
    dc9a:	48 8d 35 e1 40 00 00 	lea    0x40e1(%rip),%rsi        # 11d82 <g_1342+0xd02>
    dca1:	48 89 c7             	mov    %rax,%rdi
    dca4:	e8 4a 7a ff ff       	callq  56f3 <transparent_crc>
    dca9:	8b 05 89 c1 00 00    	mov    0xc189(%rip),%eax        # 19e38 <g_137>
    dcaf:	89 c1                	mov    %eax,%ecx
    dcb1:	8b 45 f4             	mov    -0xc(%rbp),%eax
    dcb4:	89 c2                	mov    %eax,%edx
    dcb6:	48 8d 35 cb 40 00 00 	lea    0x40cb(%rip),%rsi        # 11d88 <g_1342+0xd08>
    dcbd:	48 89 cf             	mov    %rcx,%rdi
    dcc0:	e8 2e 7a ff ff       	callq  56f3 <transparent_crc>
    dcc5:	c7 45 e8 00 00 00 00 	movl   $0x0,-0x18(%rbp)
    dccc:	e9 96 00 00 00       	jmpq   dd67 <main+0x3d2>
    dcd1:	c7 45 ec 00 00 00 00 	movl   $0x0,-0x14(%rbp)
    dcd8:	eb 7f                	jmp    dd59 <main+0x3c4>
    dcda:	c7 45 f0 00 00 00 00 	movl   $0x0,-0x10(%rbp)
    dce1:	eb 6c                	jmp    dd4f <main+0x3ba>
    dce3:	8b 45 f0             	mov    -0x10(%rbp),%eax
    dce6:	48 63 f0             	movslq %eax,%rsi
    dce9:	8b 45 ec             	mov    -0x14(%rbp),%eax
    dcec:	48 63 c8             	movslq %eax,%rcx
    dcef:	8b 45 e8             	mov    -0x18(%rbp),%eax
    dcf2:	48 63 d0             	movslq %eax,%rdx
    dcf5:	48 89 d0             	mov    %rdx,%rax
    dcf8:	48 c1 e0 03          	shl    $0x3,%rax
    dcfc:	48 01 d0             	add    %rdx,%rax
    dcff:	48 01 f0             	add    %rsi,%rax
    dd02:	48 8d 14 08          	lea    (%rax,%rcx,1),%rdx
    dd06:	48 8d 05 13 74 00 00 	lea    0x7413(%rip),%rax        # 15120 <g_181>
    dd0d:	48 01 d0             	add    %rdx,%rax
    dd10:	0f b6 00             	movzbl (%rax),%eax
    dd13:	48 0f be c0          	movsbq %al,%rax
    dd17:	8b 55 f4             	mov    -0xc(%rbp),%edx
    dd1a:	48 8d 35 6d 40 00 00 	lea    0x406d(%rip),%rsi        # 11d8e <g_1342+0xd0e>
    dd21:	48 89 c7             	mov    %rax,%rdi
    dd24:	e8 ca 79 ff ff       	callq  56f3 <transparent_crc>
    dd29:	83 7d f4 00          	cmpl   $0x0,-0xc(%rbp)
    dd2d:	74 1c                	je     dd4b <main+0x3b6>
    dd2f:	8b 4d f0             	mov    -0x10(%rbp),%ecx
    dd32:	8b 55 ec             	mov    -0x14(%rbp),%edx
    dd35:	8b 45 e8             	mov    -0x18(%rbp),%eax
    dd38:	89 c6                	mov    %eax,%esi
    dd3a:	48 8d 3d 5c 40 00 00 	lea    0x405c(%rip),%rdi        # 11d9d <g_1342+0xd1d>
    dd41:	b8 00 00 00 00       	mov    $0x0,%eax
    dd46:	e8 35 63 ff ff       	callq  4080 <printf@plt>
    dd4b:	83 45 f0 01          	addl   $0x1,-0x10(%rbp)
    dd4f:	83 7d f0 00          	cmpl   $0x0,-0x10(%rbp)
    dd53:	7e 8e                	jle    dce3 <main+0x34e>
    dd55:	83 45 ec 01          	addl   $0x1,-0x14(%rbp)
    dd59:	83 7d ec 08          	cmpl   $0x8,-0x14(%rbp)
    dd5d:	0f 8e 77 ff ff ff    	jle    dcda <main+0x345>
    dd63:	83 45 e8 01          	addl   $0x1,-0x18(%rbp)
    dd67:	83 7d e8 06          	cmpl   $0x6,-0x18(%rbp)
    dd6b:	0f 8e 60 ff ff ff    	jle    dcd1 <main+0x33c>
    dd71:	c7 45 e8 00 00 00 00 	movl   $0x0,-0x18(%rbp)
    dd78:	eb 6e                	jmp    dde8 <main+0x453>
    dd7a:	c7 45 ec 00 00 00 00 	movl   $0x0,-0x14(%rbp)
    dd81:	eb 5b                	jmp    ddde <main+0x449>
    dd83:	8b 45 ec             	mov    -0x14(%rbp),%eax
    dd86:	48 98                	cltq   
    dd88:	8b 55 e8             	mov    -0x18(%rbp),%edx
    dd8b:	48 63 d2             	movslq %edx,%rdx
    dd8e:	48 c1 e2 03          	shl    $0x3,%rdx
    dd92:	48 01 d0             	add    %rdx,%rax
    dd95:	48 8d 14 85 00 00 00 	lea    0x0(,%rax,4),%rdx
    dd9c:	00 
    dd9d:	48 8d 05 bc 73 00 00 	lea    0x73bc(%rip),%rax        # 15160 <g_193>
    dda4:	8b 04 02             	mov    (%rdx,%rax,1),%eax
    dda7:	48 98                	cltq   
    dda9:	8b 55 f4             	mov    -0xc(%rbp),%edx
    ddac:	48 8d 35 00 40 00 00 	lea    0x4000(%rip),%rsi        # 11db3 <g_1342+0xd33>
    ddb3:	48 89 c7             	mov    %rax,%rdi
    ddb6:	e8 38 79 ff ff       	callq  56f3 <transparent_crc>
    ddbb:	83 7d f4 00          	cmpl   $0x0,-0xc(%rbp)
    ddbf:	74 19                	je     ddda <main+0x445>
    ddc1:	8b 55 ec             	mov    -0x14(%rbp),%edx
    ddc4:	8b 45 e8             	mov    -0x18(%rbp),%eax
    ddc7:	89 c6                	mov    %eax,%esi
    ddc9:	48 8d 3d 9a 3f 00 00 	lea    0x3f9a(%rip),%rdi        # 11d6a <g_1342+0xcea>
    ddd0:	b8 00 00 00 00       	mov    $0x0,%eax
    ddd5:	e8 a6 62 ff ff       	callq  4080 <printf@plt>
    ddda:	83 45 ec 01          	addl   $0x1,-0x14(%rbp)
    ddde:	83 7d ec 07          	cmpl   $0x7,-0x14(%rbp)
    dde2:	7e 9f                	jle    dd83 <main+0x3ee>
    dde4:	83 45 e8 01          	addl   $0x1,-0x18(%rbp)
    dde8:	83 7d e8 08          	cmpl   $0x8,-0x18(%rbp)
    ddec:	7e 8c                	jle    dd7a <main+0x3e5>
    ddee:	48 8b 05 8b 74 00 00 	mov    0x748b(%rip),%rax        # 15280 <g_210>
    ddf5:	48 89 c1             	mov    %rax,%rcx
    ddf8:	8b 45 f4             	mov    -0xc(%rbp),%eax
    ddfb:	89 c2                	mov    %eax,%edx
    ddfd:	48 8d 35 bb 3f 00 00 	lea    0x3fbb(%rip),%rsi        # 11dbf <g_1342+0xd3f>
    de04:	48 89 cf             	mov    %rcx,%rdi
    de07:	e8 e7 78 ff ff       	callq  56f3 <transparent_crc>
    de0c:	8b 05 76 74 00 00    	mov    0x7476(%rip),%eax        # 15288 <g_212>
    de12:	89 c1                	mov    %eax,%ecx
    de14:	8b 45 f4             	mov    -0xc(%rbp),%eax
    de17:	89 c2                	mov    %eax,%edx
    de19:	48 8d 35 a5 3f 00 00 	lea    0x3fa5(%rip),%rsi        # 11dc5 <g_1342+0xd45>
    de20:	48 89 cf             	mov    %rcx,%rdi
    de23:	e8 cb 78 ff ff       	callq  56f3 <transparent_crc>
    de28:	c7 45 e8 00 00 00 00 	movl   $0x0,-0x18(%rbp)
    de2f:	eb 75                	jmp    dea6 <main+0x511>
    de31:	c7 45 ec 00 00 00 00 	movl   $0x0,-0x14(%rbp)
    de38:	eb 62                	jmp    de9c <main+0x507>
    de3a:	8b 45 ec             	mov    -0x14(%rbp),%eax
    de3d:	48 63 c8             	movslq %eax,%rcx
    de40:	8b 45 e8             	mov    -0x18(%rbp),%eax
    de43:	48 63 d0             	movslq %eax,%rdx
    de46:	48 89 d0             	mov    %rdx,%rax
    de49:	48 c1 e0 02          	shl    $0x2,%rax
    de4d:	48 01 d0             	add    %rdx,%rax
    de50:	48 01 c0             	add    %rax,%rax
    de53:	48 8d 14 08          	lea    (%rax,%rcx,1),%rdx
    de57:	48 8d 05 42 74 00 00 	lea    0x7442(%rip),%rax        # 152a0 <g_240>
    de5e:	48 01 d0             	add    %rdx,%rax
    de61:	0f b6 00             	movzbl (%rax),%eax
    de64:	0f b6 c0             	movzbl %al,%eax
    de67:	8b 55 f4             	mov    -0xc(%rbp),%edx
    de6a:	48 8d 35 5a 3f 00 00 	lea    0x3f5a(%rip),%rsi        # 11dcb <g_1342+0xd4b>
    de71:	48 89 c7             	mov    %rax,%rdi
    de74:	e8 7a 78 ff ff       	callq  56f3 <transparent_crc>
    de79:	83 7d f4 00          	cmpl   $0x0,-0xc(%rbp)
    de7d:	74 19                	je     de98 <main+0x503>
    de7f:	8b 55 ec             	mov    -0x14(%rbp),%edx
    de82:	8b 45 e8             	mov    -0x18(%rbp),%eax
    de85:	89 c6                	mov    %eax,%esi
    de87:	48 8d 3d dc 3e 00 00 	lea    0x3edc(%rip),%rdi        # 11d6a <g_1342+0xcea>
    de8e:	b8 00 00 00 00       	mov    $0x0,%eax
    de93:	e8 e8 61 ff ff       	callq  4080 <printf@plt>
    de98:	83 45 ec 01          	addl   $0x1,-0x14(%rbp)
    de9c:	83 7d ec 09          	cmpl   $0x9,-0x14(%rbp)
    dea0:	7e 98                	jle    de3a <main+0x4a5>
    dea2:	83 45 e8 01          	addl   $0x1,-0x18(%rbp)
    dea6:	83 7d e8 05          	cmpl   $0x5,-0x18(%rbp)
    deaa:	7e 85                	jle    de31 <main+0x49c>
    deac:	48 8b 05 2d 74 00 00 	mov    0x742d(%rip),%rax        # 152e0 <g_245>
    deb3:	8b 55 f4             	mov    -0xc(%rbp),%edx
    deb6:	48 8d 35 1a 3f 00 00 	lea    0x3f1a(%rip),%rsi        # 11dd7 <g_1342+0xd57>
    debd:	48 89 c7             	mov    %rax,%rdi
    dec0:	e8 2e 78 ff ff       	callq  56f3 <transparent_crc>
    dec5:	0f b7 05 1c 74 00 00 	movzwl 0x741c(%rip),%eax        # 152e8 <g_266>
    decc:	0f b7 c0             	movzwl %ax,%eax
    decf:	8b 55 f4             	mov    -0xc(%rbp),%edx
    ded2:	48 8d 35 04 3f 00 00 	lea    0x3f04(%rip),%rsi        # 11ddd <g_1342+0xd5d>
    ded9:	48 89 c7             	mov    %rax,%rdi
    dedc:	e8 12 78 ff ff       	callq  56f3 <transparent_crc>
    dee1:	0f b6 05 02 74 00 00 	movzbl 0x7402(%rip),%eax        # 152ea <g_339>
    dee8:	0f b6 c0             	movzbl %al,%eax
    deeb:	8b 55 f4             	mov    -0xc(%rbp),%edx
    deee:	48 8d 35 ee 3e 00 00 	lea    0x3eee(%rip),%rsi        # 11de3 <g_1342+0xd63>
    def5:	48 89 c7             	mov    %rax,%rdi
    def8:	e8 f6 77 ff ff       	callq  56f3 <transparent_crc>
    defd:	c7 45 e8 00 00 00 00 	movl   $0x0,-0x18(%rbp)
    df04:	e9 88 02 00 00       	jmpq   e191 <main+0x7fc>
    df09:	c7 45 ec 00 00 00 00 	movl   $0x0,-0x14(%rbp)
    df10:	e9 6e 02 00 00       	jmpq   e183 <main+0x7ee>
    df15:	c7 45 f0 00 00 00 00 	movl   $0x0,-0x10(%rbp)
    df1c:	e9 54 02 00 00       	jmpq   e175 <main+0x7e0>
    df21:	8b 45 f0             	mov    -0x10(%rbp),%eax
    df24:	48 98                	cltq   
    df26:	8b 55 e8             	mov    -0x18(%rbp),%edx
    df29:	48 63 ca             	movslq %edx,%rcx
    df2c:	8b 55 ec             	mov    -0x14(%rbp),%edx
    df2f:	48 63 d2             	movslq %edx,%rdx
    df32:	48 c1 e1 03          	shl    $0x3,%rcx
    df36:	48 01 ca             	add    %rcx,%rdx
    df39:	48 c1 e2 02          	shl    $0x2,%rdx
    df3d:	48 01 d0             	add    %rdx,%rax
    df40:	48 c1 e0 05          	shl    $0x5,%rax
    df44:	48 89 c2             	mov    %rax,%rdx
    df47:	48 8d 05 b2 73 00 00 	lea    0x73b2(%rip),%rax        # 15300 <g_413>
    df4e:	0f b7 04 02          	movzwl (%rdx,%rax,1),%eax
    df52:	0f b7 c0             	movzwl %ax,%eax
    df55:	8b 55 f4             	mov    -0xc(%rbp),%edx
    df58:	48 8d 35 8a 3e 00 00 	lea    0x3e8a(%rip),%rsi        # 11de9 <g_1342+0xd69>
    df5f:	48 89 c7             	mov    %rax,%rdi
    df62:	e8 8c 77 ff ff       	callq  56f3 <transparent_crc>
    df67:	8b 45 f0             	mov    -0x10(%rbp),%eax
    df6a:	48 98                	cltq   
    df6c:	8b 55 e8             	mov    -0x18(%rbp),%edx
    df6f:	48 63 ca             	movslq %edx,%rcx
    df72:	8b 55 ec             	mov    -0x14(%rbp),%edx
    df75:	48 63 d2             	movslq %edx,%rdx
    df78:	48 c1 e1 03          	shl    $0x3,%rcx
    df7c:	48 01 ca             	add    %rcx,%rdx
    df7f:	48 c1 e2 02          	shl    $0x2,%rdx
    df83:	48 01 d0             	add    %rdx,%rax
    df86:	48 c1 e0 05          	shl    $0x5,%rax
    df8a:	48 89 c2             	mov    %rax,%rdx
    df8d:	48 8d 05 70 73 00 00 	lea    0x7370(%rip),%rax        # 15304 <g_413+0x4>
    df94:	8b 04 02             	mov    (%rdx,%rax,1),%eax
    df97:	48 98                	cltq   
    df99:	8b 55 f4             	mov    -0xc(%rbp),%edx
    df9c:	48 8d 35 5b 3e 00 00 	lea    0x3e5b(%rip),%rsi        # 11dfe <g_1342+0xd7e>
    dfa3:	48 89 c7             	mov    %rax,%rdi
    dfa6:	e8 48 77 ff ff       	callq  56f3 <transparent_crc>
    dfab:	8b 45 f0             	mov    -0x10(%rbp),%eax
    dfae:	48 98                	cltq   
    dfb0:	8b 55 e8             	mov    -0x18(%rbp),%edx
    dfb3:	48 63 ca             	movslq %edx,%rcx
    dfb6:	8b 55 ec             	mov    -0x14(%rbp),%edx
    dfb9:	48 63 d2             	movslq %edx,%rdx
    dfbc:	48 c1 e1 03          	shl    $0x3,%rcx
    dfc0:	48 01 ca             	add    %rcx,%rdx
    dfc3:	48 c1 e2 02          	shl    $0x2,%rdx
    dfc7:	48 01 d0             	add    %rdx,%rax
    dfca:	48 c1 e0 05          	shl    $0x5,%rax
    dfce:	48 89 c2             	mov    %rax,%rdx
    dfd1:	48 8d 05 30 73 00 00 	lea    0x7330(%rip),%rax        # 15308 <g_413+0x8>
    dfd8:	8b 04 02             	mov    (%rdx,%rax,1),%eax
    dfdb:	89 c1                	mov    %eax,%ecx
    dfdd:	8b 45 f4             	mov    -0xc(%rbp),%eax
    dfe0:	89 c2                	mov    %eax,%edx
    dfe2:	48 8d 35 2a 3e 00 00 	lea    0x3e2a(%rip),%rsi        # 11e13 <g_1342+0xd93>
    dfe9:	48 89 cf             	mov    %rcx,%rdi
    dfec:	e8 02 77 ff ff       	callq  56f3 <transparent_crc>
    dff1:	8b 45 f0             	mov    -0x10(%rbp),%eax
    dff4:	48 98                	cltq   
    dff6:	8b 55 e8             	mov    -0x18(%rbp),%edx
    dff9:	48 63 ca             	movslq %edx,%rcx
    dffc:	8b 55 ec             	mov    -0x14(%rbp),%edx
    dfff:	48 63 d2             	movslq %edx,%rdx
    e002:	48 c1 e1 03          	shl    $0x3,%rcx
    e006:	48 01 ca             	add    %rcx,%rdx
    e009:	48 c1 e2 02          	shl    $0x2,%rdx
    e00d:	48 01 d0             	add    %rdx,%rax
    e010:	48 c1 e0 05          	shl    $0x5,%rax
    e014:	48 89 c2             	mov    %rax,%rdx
    e017:	48 8d 05 ee 72 00 00 	lea    0x72ee(%rip),%rax        # 1530c <g_413+0xc>
    e01e:	8b 04 02             	mov    (%rdx,%rax,1),%eax
    e021:	48 98                	cltq   
    e023:	8b 55 f4             	mov    -0xc(%rbp),%edx
    e026:	48 8d 35 fb 3d 00 00 	lea    0x3dfb(%rip),%rsi        # 11e28 <g_1342+0xda8>
    e02d:	48 89 c7             	mov    %rax,%rdi
    e030:	e8 be 76 ff ff       	callq  56f3 <transparent_crc>
    e035:	8b 45 f0             	mov    -0x10(%rbp),%eax
    e038:	48 98                	cltq   
    e03a:	8b 55 e8             	mov    -0x18(%rbp),%edx
    e03d:	48 63 ca             	movslq %edx,%rcx
    e040:	8b 55 ec             	mov    -0x14(%rbp),%edx
    e043:	48 63 d2             	movslq %edx,%rdx
    e046:	48 c1 e1 03          	shl    $0x3,%rcx
    e04a:	48 01 ca             	add    %rcx,%rdx
    e04d:	48 c1 e2 02          	shl    $0x2,%rdx
    e051:	48 01 d0             	add    %rdx,%rax
    e054:	48 c1 e0 05          	shl    $0x5,%rax
    e058:	48 89 c2             	mov    %rax,%rdx
    e05b:	48 8d 05 ae 72 00 00 	lea    0x72ae(%rip),%rax        # 15310 <g_413+0x10>
    e062:	0f b7 04 02          	movzwl (%rdx,%rax,1),%eax
    e066:	0f b7 c0             	movzwl %ax,%eax
    e069:	8b 55 f4             	mov    -0xc(%rbp),%edx
    e06c:	48 8d 35 ca 3d 00 00 	lea    0x3dca(%rip),%rsi        # 11e3d <g_1342+0xdbd>
    e073:	48 89 c7             	mov    %rax,%rdi
    e076:	e8 78 76 ff ff       	callq  56f3 <transparent_crc>
    e07b:	8b 45 f0             	mov    -0x10(%rbp),%eax
    e07e:	48 98                	cltq   
    e080:	8b 55 e8             	mov    -0x18(%rbp),%edx
    e083:	48 63 ca             	movslq %edx,%rcx
    e086:	8b 55 ec             	mov    -0x14(%rbp),%edx
    e089:	48 63 d2             	movslq %edx,%rdx
    e08c:	48 c1 e1 03          	shl    $0x3,%rcx
    e090:	48 01 ca             	add    %rcx,%rdx
    e093:	48 c1 e2 02          	shl    $0x2,%rdx
    e097:	48 01 d0             	add    %rdx,%rax
    e09a:	48 c1 e0 05          	shl    $0x5,%rax
    e09e:	48 89 c2             	mov    %rax,%rdx
    e0a1:	48 8d 05 6a 72 00 00 	lea    0x726a(%rip),%rax        # 15312 <g_413+0x12>
    e0a8:	0f b6 04 02          	movzbl (%rdx,%rax,1),%eax
    e0ac:	0f b6 c0             	movzbl %al,%eax
    e0af:	8b 55 f4             	mov    -0xc(%rbp),%edx
    e0b2:	48 8d 35 99 3d 00 00 	lea    0x3d99(%rip),%rsi        # 11e52 <g_1342+0xdd2>
    e0b9:	48 89 c7             	mov    %rax,%rdi
    e0bc:	e8 32 76 ff ff       	callq  56f3 <transparent_crc>
    e0c1:	8b 45 f0             	mov    -0x10(%rbp),%eax
    e0c4:	48 98                	cltq   
    e0c6:	8b 55 e8             	mov    -0x18(%rbp),%edx
    e0c9:	48 63 ca             	movslq %edx,%rcx
    e0cc:	8b 55 ec             	mov    -0x14(%rbp),%edx
    e0cf:	48 63 d2             	movslq %edx,%rdx
    e0d2:	48 c1 e1 03          	shl    $0x3,%rcx
    e0d6:	48 01 ca             	add    %rcx,%rdx
    e0d9:	48 c1 e2 02          	shl    $0x2,%rdx
    e0dd:	48 01 d0             	add    %rdx,%rax
    e0e0:	48 c1 e0 05          	shl    $0x5,%rax
    e0e4:	48 89 c2             	mov    %rax,%rdx
    e0e7:	48 8d 05 26 72 00 00 	lea    0x7226(%rip),%rax        # 15314 <g_413+0x14>
    e0ee:	8b 04 02             	mov    (%rdx,%rax,1),%eax
    e0f1:	89 c1                	mov    %eax,%ecx
    e0f3:	8b 45 f4             	mov    -0xc(%rbp),%eax
    e0f6:	89 c2                	mov    %eax,%edx
    e0f8:	48 8d 35 68 3d 00 00 	lea    0x3d68(%rip),%rsi        # 11e67 <g_1342+0xde7>
    e0ff:	48 89 cf             	mov    %rcx,%rdi
    e102:	e8 ec 75 ff ff       	callq  56f3 <transparent_crc>
    e107:	8b 45 f0             	mov    -0x10(%rbp),%eax
    e10a:	48 98                	cltq   
    e10c:	8b 55 e8             	mov    -0x18(%rbp),%edx
    e10f:	48 63 ca             	movslq %edx,%rcx
    e112:	8b 55 ec             	mov    -0x14(%rbp),%edx
    e115:	48 63 d2             	movslq %edx,%rdx
    e118:	48 c1 e1 03          	shl    $0x3,%rcx
    e11c:	48 01 ca             	add    %rcx,%rdx
    e11f:	48 c1 e2 02          	shl    $0x2,%rdx
    e123:	48 01 d0             	add    %rdx,%rax
    e126:	48 c1 e0 05          	shl    $0x5,%rax
    e12a:	48 89 c2             	mov    %rax,%rdx
    e12d:	48 8d 05 e4 71 00 00 	lea    0x71e4(%rip),%rax        # 15318 <g_413+0x18>
    e134:	48 8b 04 02          	mov    (%rdx,%rax,1),%rax
    e138:	48 89 c1             	mov    %rax,%rcx
    e13b:	8b 45 f4             	mov    -0xc(%rbp),%eax
    e13e:	89 c2                	mov    %eax,%edx
    e140:	48 8d 35 35 3d 00 00 	lea    0x3d35(%rip),%rsi        # 11e7c <g_1342+0xdfc>
    e147:	48 89 cf             	mov    %rcx,%rdi
    e14a:	e8 a4 75 ff ff       	callq  56f3 <transparent_crc>
    e14f:	83 7d f4 00          	cmpl   $0x0,-0xc(%rbp)
    e153:	74 1c                	je     e171 <main+0x7dc>
    e155:	8b 4d f0             	mov    -0x10(%rbp),%ecx
    e158:	8b 55 ec             	mov    -0x14(%rbp),%edx
    e15b:	8b 45 e8             	mov    -0x18(%rbp),%eax
    e15e:	89 c6                	mov    %eax,%esi
    e160:	48 8d 3d 36 3c 00 00 	lea    0x3c36(%rip),%rdi        # 11d9d <g_1342+0xd1d>
    e167:	b8 00 00 00 00       	mov    $0x0,%eax
    e16c:	e8 0f 5f ff ff       	callq  4080 <printf@plt>
    e171:	83 45 f0 01          	addl   $0x1,-0x10(%rbp)
    e175:	83 7d f0 03          	cmpl   $0x3,-0x10(%rbp)
    e179:	0f 8e a2 fd ff ff    	jle    df21 <main+0x58c>
    e17f:	83 45 ec 01          	addl   $0x1,-0x14(%rbp)
    e183:	83 7d ec 07          	cmpl   $0x7,-0x14(%rbp)
    e187:	0f 8e 88 fd ff ff    	jle    df15 <main+0x580>
    e18d:	83 45 e8 01          	addl   $0x1,-0x18(%rbp)
    e191:	83 7d e8 07          	cmpl   $0x7,-0x18(%rbp)
    e195:	0f 8e 6e fd ff ff    	jle    df09 <main+0x574>
    e19b:	c7 45 e8 00 00 00 00 	movl   $0x0,-0x18(%rbp)
    e1a2:	e9 7e 01 00 00       	jmpq   e325 <main+0x990>
    e1a7:	8b 45 e8             	mov    -0x18(%rbp),%eax
    e1aa:	48 98                	cltq   
    e1ac:	48 c1 e0 05          	shl    $0x5,%rax
    e1b0:	48 89 c2             	mov    %rax,%rdx
    e1b3:	48 8d 05 46 91 00 00 	lea    0x9146(%rip),%rax        # 17300 <g_416>
    e1ba:	0f b7 04 02          	movzwl (%rdx,%rax,1),%eax
    e1be:	0f b7 c0             	movzwl %ax,%eax
    e1c1:	8b 55 f4             	mov    -0xc(%rbp),%edx
    e1c4:	48 8d 35 c6 3c 00 00 	lea    0x3cc6(%rip),%rsi        # 11e91 <g_1342+0xe11>
    e1cb:	48 89 c7             	mov    %rax,%rdi
    e1ce:	e8 20 75 ff ff       	callq  56f3 <transparent_crc>
    e1d3:	8b 45 e8             	mov    -0x18(%rbp),%eax
    e1d6:	48 98                	cltq   
    e1d8:	48 c1 e0 05          	shl    $0x5,%rax
    e1dc:	48 89 c2             	mov    %rax,%rdx
    e1df:	48 8d 05 1e 91 00 00 	lea    0x911e(%rip),%rax        # 17304 <g_416+0x4>
    e1e6:	8b 04 02             	mov    (%rdx,%rax,1),%eax
    e1e9:	48 98                	cltq   
    e1eb:	8b 55 f4             	mov    -0xc(%rbp),%edx
    e1ee:	48 8d 35 ab 3c 00 00 	lea    0x3cab(%rip),%rsi        # 11ea0 <g_1342+0xe20>
    e1f5:	48 89 c7             	mov    %rax,%rdi
    e1f8:	e8 f6 74 ff ff       	callq  56f3 <transparent_crc>
    e1fd:	8b 45 e8             	mov    -0x18(%rbp),%eax
    e200:	48 98                	cltq   
    e202:	48 c1 e0 05          	shl    $0x5,%rax
    e206:	48 89 c2             	mov    %rax,%rdx
    e209:	48 8d 05 f8 90 00 00 	lea    0x90f8(%rip),%rax        # 17308 <g_416+0x8>
    e210:	8b 04 02             	mov    (%rdx,%rax,1),%eax
    e213:	89 c1                	mov    %eax,%ecx
    e215:	8b 45 f4             	mov    -0xc(%rbp),%eax
    e218:	89 c2                	mov    %eax,%edx
    e21a:	48 8d 35 8e 3c 00 00 	lea    0x3c8e(%rip),%rsi        # 11eaf <g_1342+0xe2f>
    e221:	48 89 cf             	mov    %rcx,%rdi
    e224:	e8 ca 74 ff ff       	callq  56f3 <transparent_crc>
    e229:	8b 45 e8             	mov    -0x18(%rbp),%eax
    e22c:	48 98                	cltq   
    e22e:	48 c1 e0 05          	shl    $0x5,%rax
    e232:	48 89 c2             	mov    %rax,%rdx
    e235:	48 8d 05 d0 90 00 00 	lea    0x90d0(%rip),%rax        # 1730c <g_416+0xc>
    e23c:	8b 04 02             	mov    (%rdx,%rax,1),%eax
    e23f:	48 98                	cltq   
    e241:	8b 55 f4             	mov    -0xc(%rbp),%edx
    e244:	48 8d 35 73 3c 00 00 	lea    0x3c73(%rip),%rsi        # 11ebe <g_1342+0xe3e>
    e24b:	48 89 c7             	mov    %rax,%rdi
    e24e:	e8 a0 74 ff ff       	callq  56f3 <transparent_crc>
    e253:	8b 45 e8             	mov    -0x18(%rbp),%eax
    e256:	48 98                	cltq   
    e258:	48 c1 e0 05          	shl    $0x5,%rax
    e25c:	48 89 c2             	mov    %rax,%rdx
    e25f:	48 8d 05 aa 90 00 00 	lea    0x90aa(%rip),%rax        # 17310 <g_416+0x10>
    e266:	0f b7 04 02          	movzwl (%rdx,%rax,1),%eax
    e26a:	0f b7 c0             	movzwl %ax,%eax
    e26d:	8b 55 f4             	mov    -0xc(%rbp),%edx
    e270:	48 8d 35 56 3c 00 00 	lea    0x3c56(%rip),%rsi        # 11ecd <g_1342+0xe4d>
    e277:	48 89 c7             	mov    %rax,%rdi
    e27a:	e8 74 74 ff ff       	callq  56f3 <transparent_crc>
    e27f:	8b 45 e8             	mov    -0x18(%rbp),%eax
    e282:	48 98                	cltq   
    e284:	48 c1 e0 05          	shl    $0x5,%rax
    e288:	48 89 c2             	mov    %rax,%rdx
    e28b:	48 8d 05 80 90 00 00 	lea    0x9080(%rip),%rax        # 17312 <g_416+0x12>
    e292:	0f b6 04 02          	movzbl (%rdx,%rax,1),%eax
    e296:	0f b6 c0             	movzbl %al,%eax
    e299:	8b 55 f4             	mov    -0xc(%rbp),%edx
    e29c:	48 8d 35 39 3c 00 00 	lea    0x3c39(%rip),%rsi        # 11edc <g_1342+0xe5c>
    e2a3:	48 89 c7             	mov    %rax,%rdi
    e2a6:	e8 48 74 ff ff       	callq  56f3 <transparent_crc>
    e2ab:	8b 45 e8             	mov    -0x18(%rbp),%eax
    e2ae:	48 98                	cltq   
    e2b0:	48 c1 e0 05          	shl    $0x5,%rax
    e2b4:	48 89 c2             	mov    %rax,%rdx
    e2b7:	48 8d 05 56 90 00 00 	lea    0x9056(%rip),%rax        # 17314 <g_416+0x14>
    e2be:	8b 04 02             	mov    (%rdx,%rax,1),%eax
    e2c1:	89 c1                	mov    %eax,%ecx
    e2c3:	8b 45 f4             	mov    -0xc(%rbp),%eax
    e2c6:	89 c2                	mov    %eax,%edx
    e2c8:	48 8d 35 1c 3c 00 00 	lea    0x3c1c(%rip),%rsi        # 11eeb <g_1342+0xe6b>
    e2cf:	48 89 cf             	mov    %rcx,%rdi
    e2d2:	e8 1c 74 ff ff       	callq  56f3 <transparent_crc>
    e2d7:	8b 45 e8             	mov    -0x18(%rbp),%eax
    e2da:	48 98                	cltq   
    e2dc:	48 c1 e0 05          	shl    $0x5,%rax
    e2e0:	48 89 c2             	mov    %rax,%rdx
    e2e3:	48 8d 05 2e 90 00 00 	lea    0x902e(%rip),%rax        # 17318 <g_416+0x18>
    e2ea:	48 8b 04 02          	mov    (%rdx,%rax,1),%rax
    e2ee:	48 89 c1             	mov    %rax,%rcx
    e2f1:	8b 45 f4             	mov    -0xc(%rbp),%eax
    e2f4:	89 c2                	mov    %eax,%edx
    e2f6:	48 8d 35 fd 3b 00 00 	lea    0x3bfd(%rip),%rsi        # 11efa <g_1342+0xe7a>
    e2fd:	48 89 cf             	mov    %rcx,%rdi
    e300:	e8 ee 73 ff ff       	callq  56f3 <transparent_crc>
    e305:	83 7d f4 00          	cmpl   $0x0,-0xc(%rbp)
    e309:	74 16                	je     e321 <main+0x98c>
    e30b:	8b 45 e8             	mov    -0x18(%rbp),%eax
    e30e:	89 c6                	mov    %eax,%esi
    e310:	48 8d 3d f2 3b 00 00 	lea    0x3bf2(%rip),%rdi        # 11f09 <g_1342+0xe89>
    e317:	b8 00 00 00 00       	mov    $0x0,%eax
    e31c:	e8 5f 5d ff ff       	callq  4080 <printf@plt>
    e321:	83 45 e8 01          	addl   $0x1,-0x18(%rbp)
    e325:	83 7d e8 06          	cmpl   $0x6,-0x18(%rbp)
    e329:	0f 8e 78 fe ff ff    	jle    e1a7 <main+0x812>
    e32f:	8b 05 ab 90 00 00    	mov    0x90ab(%rip),%eax        # 173e0 <g_418>
    e335:	48 98                	cltq   
    e337:	8b 55 f4             	mov    -0xc(%rbp),%edx
    e33a:	48 8d 35 d6 3b 00 00 	lea    0x3bd6(%rip),%rsi        # 11f17 <g_1342+0xe97>
    e341:	48 89 c7             	mov    %rax,%rdi
    e344:	e8 aa 73 ff ff       	callq  56f3 <transparent_crc>
    e349:	c7 45 e8 00 00 00 00 	movl   $0x0,-0x18(%rbp)
    e350:	eb 4a                	jmp    e39c <main+0xa07>
    e352:	8b 45 e8             	mov    -0x18(%rbp),%eax
    e355:	48 98                	cltq   
    e357:	48 8d 14 c5 00 00 00 	lea    0x0(,%rax,8),%rdx
    e35e:	00 
    e35f:	48 8d 05 9a 90 00 00 	lea    0x909a(%rip),%rax        # 17400 <g_419>
    e366:	48 8b 04 02          	mov    (%rdx,%rax,1),%rax
    e36a:	8b 55 f4             	mov    -0xc(%rbp),%edx
    e36d:	48 8d 35 a9 3b 00 00 	lea    0x3ba9(%rip),%rsi        # 11f1d <g_1342+0xe9d>
    e374:	48 89 c7             	mov    %rax,%rdi
    e377:	e8 77 73 ff ff       	callq  56f3 <transparent_crc>
    e37c:	83 7d f4 00          	cmpl   $0x0,-0xc(%rbp)
    e380:	74 16                	je     e398 <main+0xa03>
    e382:	8b 45 e8             	mov    -0x18(%rbp),%eax
    e385:	89 c6                	mov    %eax,%esi
    e387:	48 8d 3d 7b 3b 00 00 	lea    0x3b7b(%rip),%rdi        # 11f09 <g_1342+0xe89>
    e38e:	b8 00 00 00 00       	mov    $0x0,%eax
    e393:	e8 e8 5c ff ff       	callq  4080 <printf@plt>
    e398:	83 45 e8 01          	addl   $0x1,-0x18(%rbp)
    e39c:	83 7d e8 03          	cmpl   $0x3,-0x18(%rbp)
    e3a0:	7e b0                	jle    e352 <main+0x9bd>
    e3a2:	48 8b 05 77 90 00 00 	mov    0x9077(%rip),%rax        # 17420 <g_448>
    e3a9:	8b 55 f4             	mov    -0xc(%rbp),%edx
    e3ac:	48 8d 35 73 3b 00 00 	lea    0x3b73(%rip),%rsi        # 11f26 <g_1342+0xea6>
    e3b3:	48 89 c7             	mov    %rax,%rdi
    e3b6:	e8 38 73 ff ff       	callq  56f3 <transparent_crc>
    e3bb:	0f b7 05 66 90 00 00 	movzwl 0x9066(%rip),%eax        # 17428 <g_484>
    e3c2:	0f b7 c0             	movzwl %ax,%eax
    e3c5:	8b 55 f4             	mov    -0xc(%rbp),%edx
    e3c8:	48 8d 35 5d 3b 00 00 	lea    0x3b5d(%rip),%rsi        # 11f2c <g_1342+0xeac>
    e3cf:	48 89 c7             	mov    %rax,%rdi
    e3d2:	e8 1c 73 ff ff       	callq  56f3 <transparent_crc>
    e3d7:	8b 05 4f 90 00 00    	mov    0x904f(%rip),%eax        # 1742c <g_518>
    e3dd:	48 98                	cltq   
    e3df:	8b 55 f4             	mov    -0xc(%rbp),%edx
    e3e2:	48 8d 35 49 3b 00 00 	lea    0x3b49(%rip),%rsi        # 11f32 <g_1342+0xeb2>
    e3e9:	48 89 c7             	mov    %rax,%rdi
    e3ec:	e8 02 73 ff ff       	callq  56f3 <transparent_crc>
    e3f1:	0f b7 05 38 90 00 00 	movzwl 0x9038(%rip),%eax        # 17430 <g_563>
    e3f8:	0f b7 c0             	movzwl %ax,%eax
    e3fb:	8b 55 f4             	mov    -0xc(%rbp),%edx
    e3fe:	48 8d 35 33 3b 00 00 	lea    0x3b33(%rip),%rsi        # 11f38 <g_1342+0xeb8>
    e405:	48 89 c7             	mov    %rax,%rdi
    e408:	e8 e6 72 ff ff       	callq  56f3 <transparent_crc>
    e40d:	0f b7 05 1e 90 00 00 	movzwl 0x901e(%rip),%eax        # 17432 <g_586>
    e414:	0f b7 c0             	movzwl %ax,%eax
    e417:	8b 55 f4             	mov    -0xc(%rbp),%edx
    e41a:	48 8d 35 1d 3b 00 00 	lea    0x3b1d(%rip),%rsi        # 11f3e <g_1342+0xebe>
    e421:	48 89 c7             	mov    %rax,%rdi
    e424:	e8 ca 72 ff ff       	callq  56f3 <transparent_crc>
    e429:	48 8b 05 08 90 00 00 	mov    0x9008(%rip),%rax        # 17438 <g_587>
    e430:	48 89 c1             	mov    %rax,%rcx
    e433:	8b 45 f4             	mov    -0xc(%rbp),%eax
    e436:	89 c2                	mov    %eax,%edx
    e438:	48 8d 35 05 3b 00 00 	lea    0x3b05(%rip),%rsi        # 11f44 <g_1342+0xec4>
    e43f:	48 89 cf             	mov    %rcx,%rdi
    e442:	e8 ac 72 ff ff       	callq  56f3 <transparent_crc>
    e447:	0f b7 05 f2 8f 00 00 	movzwl 0x8ff2(%rip),%eax        # 17440 <g_604>
    e44e:	48 0f bf c0          	movswq %ax,%rax
    e452:	8b 55 f4             	mov    -0xc(%rbp),%edx
    e455:	48 8d 35 ee 3a 00 00 	lea    0x3aee(%rip),%rsi        # 11f4a <g_1342+0xeca>
    e45c:	48 89 c7             	mov    %rax,%rdi
    e45f:	e8 8f 72 ff ff       	callq  56f3 <transparent_crc>
    e464:	c7 45 e8 00 00 00 00 	movl   $0x0,-0x18(%rbp)
    e46b:	eb 6e                	jmp    e4db <main+0xb46>
    e46d:	c7 45 ec 00 00 00 00 	movl   $0x0,-0x14(%rbp)
    e474:	eb 5b                	jmp    e4d1 <main+0xb3c>
    e476:	8b 45 ec             	mov    -0x14(%rbp),%eax
    e479:	48 98                	cltq   
    e47b:	8b 55 e8             	mov    -0x18(%rbp),%edx
    e47e:	48 63 d2             	movslq %edx,%rdx
    e481:	48 c1 e2 03          	shl    $0x3,%rdx
    e485:	48 01 d0             	add    %rdx,%rax
    e488:	48 8d 14 85 00 00 00 	lea    0x0(,%rax,4),%rdx
    e48f:	00 
    e490:	48 8d 05 c9 8f 00 00 	lea    0x8fc9(%rip),%rax        # 17460 <g_618>
    e497:	8b 04 02             	mov    (%rdx,%rax,1),%eax
    e49a:	48 98                	cltq   
    e49c:	8b 55 f4             	mov    -0xc(%rbp),%edx
    e49f:	48 8d 35 aa 3a 00 00 	lea    0x3aaa(%rip),%rsi        # 11f50 <g_1342+0xed0>
    e4a6:	48 89 c7             	mov    %rax,%rdi
    e4a9:	e8 45 72 ff ff       	callq  56f3 <transparent_crc>
    e4ae:	83 7d f4 00          	cmpl   $0x0,-0xc(%rbp)
    e4b2:	74 19                	je     e4cd <main+0xb38>
    e4b4:	8b 55 ec             	mov    -0x14(%rbp),%edx
    e4b7:	8b 45 e8             	mov    -0x18(%rbp),%eax
    e4ba:	89 c6                	mov    %eax,%esi
    e4bc:	48 8d 3d a7 38 00 00 	lea    0x38a7(%rip),%rdi        # 11d6a <g_1342+0xcea>
    e4c3:	b8 00 00 00 00       	mov    $0x0,%eax
    e4c8:	e8 b3 5b ff ff       	callq  4080 <printf@plt>
    e4cd:	83 45 ec 01          	addl   $0x1,-0x14(%rbp)
    e4d1:	83 7d ec 07          	cmpl   $0x7,-0x14(%rbp)
    e4d5:	7e 9f                	jle    e476 <main+0xae1>
    e4d7:	83 45 e8 01          	addl   $0x1,-0x18(%rbp)
    e4db:	83 7d e8 00          	cmpl   $0x0,-0x18(%rbp)
    e4df:	7e 8c                	jle    e46d <main+0xad8>
    e4e1:	c7 45 e8 00 00 00 00 	movl   $0x0,-0x18(%rbp)
    e4e8:	e9 7e 01 00 00       	jmpq   e66b <main+0xcd6>
    e4ed:	8b 45 e8             	mov    -0x18(%rbp),%eax
    e4f0:	48 98                	cltq   
    e4f2:	48 c1 e0 05          	shl    $0x5,%rax
    e4f6:	48 89 c2             	mov    %rax,%rdx
    e4f9:	48 8d 05 80 8f 00 00 	lea    0x8f80(%rip),%rax        # 17480 <g_651>
    e500:	0f b7 04 02          	movzwl (%rdx,%rax,1),%eax
    e504:	0f b7 c0             	movzwl %ax,%eax
    e507:	8b 55 f4             	mov    -0xc(%rbp),%edx
    e50a:	48 8d 35 4b 3a 00 00 	lea    0x3a4b(%rip),%rsi        # 11f5c <g_1342+0xedc>
    e511:	48 89 c7             	mov    %rax,%rdi
    e514:	e8 da 71 ff ff       	callq  56f3 <transparent_crc>
    e519:	8b 45 e8             	mov    -0x18(%rbp),%eax
    e51c:	48 98                	cltq   
    e51e:	48 c1 e0 05          	shl    $0x5,%rax
    e522:	48 89 c2             	mov    %rax,%rdx
    e525:	48 8d 05 58 8f 00 00 	lea    0x8f58(%rip),%rax        # 17484 <g_651+0x4>
    e52c:	8b 04 02             	mov    (%rdx,%rax,1),%eax
    e52f:	48 98                	cltq   
    e531:	8b 55 f4             	mov    -0xc(%rbp),%edx
    e534:	48 8d 35 30 3a 00 00 	lea    0x3a30(%rip),%rsi        # 11f6b <g_1342+0xeeb>
    e53b:	48 89 c7             	mov    %rax,%rdi
    e53e:	e8 b0 71 ff ff       	callq  56f3 <transparent_crc>
    e543:	8b 45 e8             	mov    -0x18(%rbp),%eax
    e546:	48 98                	cltq   
    e548:	48 c1 e0 05          	shl    $0x5,%rax
    e54c:	48 89 c2             	mov    %rax,%rdx
    e54f:	48 8d 05 32 8f 00 00 	lea    0x8f32(%rip),%rax        # 17488 <g_651+0x8>
    e556:	8b 04 02             	mov    (%rdx,%rax,1),%eax
    e559:	89 c1                	mov    %eax,%ecx
    e55b:	8b 45 f4             	mov    -0xc(%rbp),%eax
    e55e:	89 c2                	mov    %eax,%edx
    e560:	48 8d 35 13 3a 00 00 	lea    0x3a13(%rip),%rsi        # 11f7a <g_1342+0xefa>
    e567:	48 89 cf             	mov    %rcx,%rdi
    e56a:	e8 84 71 ff ff       	callq  56f3 <transparent_crc>
    e56f:	8b 45 e8             	mov    -0x18(%rbp),%eax
    e572:	48 98                	cltq   
    e574:	48 c1 e0 05          	shl    $0x5,%rax
    e578:	48 89 c2             	mov    %rax,%rdx
    e57b:	48 8d 05 0a 8f 00 00 	lea    0x8f0a(%rip),%rax        # 1748c <g_651+0xc>
    e582:	8b 04 02             	mov    (%rdx,%rax,1),%eax
    e585:	48 98                	cltq   
    e587:	8b 55 f4             	mov    -0xc(%rbp),%edx
    e58a:	48 8d 35 f8 39 00 00 	lea    0x39f8(%rip),%rsi        # 11f89 <g_1342+0xf09>
    e591:	48 89 c7             	mov    %rax,%rdi
    e594:	e8 5a 71 ff ff       	callq  56f3 <transparent_crc>
    e599:	8b 45 e8             	mov    -0x18(%rbp),%eax
    e59c:	48 98                	cltq   
    e59e:	48 c1 e0 05          	shl    $0x5,%rax
    e5a2:	48 89 c2             	mov    %rax,%rdx
    e5a5:	48 8d 05 e4 8e 00 00 	lea    0x8ee4(%rip),%rax        # 17490 <g_651+0x10>
    e5ac:	0f b7 04 02          	movzwl (%rdx,%rax,1),%eax
    e5b0:	0f b7 c0             	movzwl %ax,%eax
    e5b3:	8b 55 f4             	mov    -0xc(%rbp),%edx
    e5b6:	48 8d 35 db 39 00 00 	lea    0x39db(%rip),%rsi        # 11f98 <g_1342+0xf18>
    e5bd:	48 89 c7             	mov    %rax,%rdi
    e5c0:	e8 2e 71 ff ff       	callq  56f3 <transparent_crc>
    e5c5:	8b 45 e8             	mov    -0x18(%rbp),%eax
    e5c8:	48 98                	cltq   
    e5ca:	48 c1 e0 05          	shl    $0x5,%rax
    e5ce:	48 89 c2             	mov    %rax,%rdx
    e5d1:	48 8d 05 ba 8e 00 00 	lea    0x8eba(%rip),%rax        # 17492 <g_651+0x12>
    e5d8:	0f b6 04 02          	movzbl (%rdx,%rax,1),%eax
    e5dc:	0f b6 c0             	movzbl %al,%eax
    e5df:	8b 55 f4             	mov    -0xc(%rbp),%edx
    e5e2:	48 8d 35 be 39 00 00 	lea    0x39be(%rip),%rsi        # 11fa7 <g_1342+0xf27>
    e5e9:	48 89 c7             	mov    %rax,%rdi
    e5ec:	e8 02 71 ff ff       	callq  56f3 <transparent_crc>
    e5f1:	8b 45 e8             	mov    -0x18(%rbp),%eax
    e5f4:	48 98                	cltq   
    e5f6:	48 c1 e0 05          	shl    $0x5,%rax
    e5fa:	48 89 c2             	mov    %rax,%rdx
    e5fd:	48 8d 05 90 8e 00 00 	lea    0x8e90(%rip),%rax        # 17494 <g_651+0x14>
    e604:	8b 04 02             	mov    (%rdx,%rax,1),%eax
    e607:	89 c1                	mov    %eax,%ecx
    e609:	8b 45 f4             	mov    -0xc(%rbp),%eax
    e60c:	89 c2                	mov    %eax,%edx
    e60e:	48 8d 35 a1 39 00 00 	lea    0x39a1(%rip),%rsi        # 11fb6 <g_1342+0xf36>
    e615:	48 89 cf             	mov    %rcx,%rdi
    e618:	e8 d6 70 ff ff       	callq  56f3 <transparent_crc>
    e61d:	8b 45 e8             	mov    -0x18(%rbp),%eax
    e620:	48 98                	cltq   
    e622:	48 c1 e0 05          	shl    $0x5,%rax
    e626:	48 89 c2             	mov    %rax,%rdx
    e629:	48 8d 05 68 8e 00 00 	lea    0x8e68(%rip),%rax        # 17498 <g_651+0x18>
    e630:	48 8b 04 02          	mov    (%rdx,%rax,1),%rax
    e634:	48 89 c1             	mov    %rax,%rcx
    e637:	8b 45 f4             	mov    -0xc(%rbp),%eax
    e63a:	89 c2                	mov    %eax,%edx
    e63c:	48 8d 35 82 39 00 00 	lea    0x3982(%rip),%rsi        # 11fc5 <g_1342+0xf45>
    e643:	48 89 cf             	mov    %rcx,%rdi
    e646:	e8 a8 70 ff ff       	callq  56f3 <transparent_crc>
    e64b:	83 7d f4 00          	cmpl   $0x0,-0xc(%rbp)
    e64f:	74 16                	je     e667 <main+0xcd2>
    e651:	8b 45 e8             	mov    -0x18(%rbp),%eax
    e654:	89 c6                	mov    %eax,%esi
    e656:	48 8d 3d ac 38 00 00 	lea    0x38ac(%rip),%rdi        # 11f09 <g_1342+0xe89>
    e65d:	b8 00 00 00 00       	mov    $0x0,%eax
    e662:	e8 19 5a ff ff       	callq  4080 <printf@plt>
    e667:	83 45 e8 01          	addl   $0x1,-0x18(%rbp)
    e66b:	83 7d e8 05          	cmpl   $0x5,-0x18(%rbp)
    e66f:	0f 8e 78 fe ff ff    	jle    e4ed <main+0xb58>
    e675:	0f b7 05 c4 8e 00 00 	movzwl 0x8ec4(%rip),%eax        # 17540 <g_661>
    e67c:	0f b7 c0             	movzwl %ax,%eax
    e67f:	8b 55 f4             	mov    -0xc(%rbp),%edx
    e682:	48 8d 35 4b 39 00 00 	lea    0x394b(%rip),%rsi        # 11fd4 <g_1342+0xf54>
    e689:	48 89 c7             	mov    %rax,%rdi
    e68c:	e8 62 70 ff ff       	callq  56f3 <transparent_crc>
    e691:	8b 05 ad 8e 00 00    	mov    0x8ead(%rip),%eax        # 17544 <g_661+0x4>
    e697:	48 98                	cltq   
    e699:	8b 55 f4             	mov    -0xc(%rbp),%edx
    e69c:	48 8d 35 3d 39 00 00 	lea    0x393d(%rip),%rsi        # 11fe0 <g_1342+0xf60>
    e6a3:	48 89 c7             	mov    %rax,%rdi
    e6a6:	e8 48 70 ff ff       	callq  56f3 <transparent_crc>
    e6ab:	8b 05 97 8e 00 00    	mov    0x8e97(%rip),%eax        # 17548 <g_661+0x8>
    e6b1:	89 c1                	mov    %eax,%ecx
    e6b3:	8b 45 f4             	mov    -0xc(%rbp),%eax
    e6b6:	89 c2                	mov    %eax,%edx
    e6b8:	48 8d 35 2d 39 00 00 	lea    0x392d(%rip),%rsi        # 11fec <g_1342+0xf6c>
    e6bf:	48 89 cf             	mov    %rcx,%rdi
    e6c2:	e8 2c 70 ff ff       	callq  56f3 <transparent_crc>
    e6c7:	8b 05 7f 8e 00 00    	mov    0x8e7f(%rip),%eax        # 1754c <g_661+0xc>
    e6cd:	48 98                	cltq   
    e6cf:	8b 55 f4             	mov    -0xc(%rbp),%edx
    e6d2:	48 8d 35 1f 39 00 00 	lea    0x391f(%rip),%rsi        # 11ff8 <g_1342+0xf78>
    e6d9:	48 89 c7             	mov    %rax,%rdi
    e6dc:	e8 12 70 ff ff       	callq  56f3 <transparent_crc>
    e6e1:	0f b7 05 68 8e 00 00 	movzwl 0x8e68(%rip),%eax        # 17550 <g_661+0x10>
    e6e8:	0f b7 c0             	movzwl %ax,%eax
    e6eb:	8b 55 f4             	mov    -0xc(%rbp),%edx
    e6ee:	48 8d 35 0f 39 00 00 	lea    0x390f(%rip),%rsi        # 12004 <g_1342+0xf84>
    e6f5:	48 89 c7             	mov    %rax,%rdi
    e6f8:	e8 f6 6f ff ff       	callq  56f3 <transparent_crc>
    e6fd:	0f b6 05 4e 8e 00 00 	movzbl 0x8e4e(%rip),%eax        # 17552 <g_661+0x12>
    e704:	0f b6 c0             	movzbl %al,%eax
    e707:	8b 55 f4             	mov    -0xc(%rbp),%edx
    e70a:	48 8d 35 ff 38 00 00 	lea    0x38ff(%rip),%rsi        # 12010 <g_1342+0xf90>
    e711:	48 89 c7             	mov    %rax,%rdi
    e714:	e8 da 6f ff ff       	callq  56f3 <transparent_crc>
    e719:	8b 05 35 8e 00 00    	mov    0x8e35(%rip),%eax        # 17554 <g_661+0x14>
    e71f:	89 c1                	mov    %eax,%ecx
    e721:	8b 45 f4             	mov    -0xc(%rbp),%eax
    e724:	89 c2                	mov    %eax,%edx
    e726:	48 8d 35 ef 38 00 00 	lea    0x38ef(%rip),%rsi        # 1201c <g_1342+0xf9c>
    e72d:	48 89 cf             	mov    %rcx,%rdi
    e730:	e8 be 6f ff ff       	callq  56f3 <transparent_crc>
    e735:	48 8b 05 1c 8e 00 00 	mov    0x8e1c(%rip),%rax        # 17558 <g_661+0x18>
    e73c:	48 89 c1             	mov    %rax,%rcx
    e73f:	8b 45 f4             	mov    -0xc(%rbp),%eax
    e742:	89 c2                	mov    %eax,%edx
    e744:	48 8d 35 dd 38 00 00 	lea    0x38dd(%rip),%rsi        # 12028 <g_1342+0xfa8>
    e74b:	48 89 cf             	mov    %rcx,%rdi
    e74e:	e8 a0 6f ff ff       	callq  56f3 <transparent_crc>
    e753:	0f b7 05 06 8e 00 00 	movzwl 0x8e06(%rip),%eax        # 17560 <g_665>
    e75a:	0f b7 c0             	movzwl %ax,%eax
    e75d:	8b 55 f4             	mov    -0xc(%rbp),%edx
    e760:	48 8d 35 cd 38 00 00 	lea    0x38cd(%rip),%rsi        # 12034 <g_1342+0xfb4>
    e767:	48 89 c7             	mov    %rax,%rdi
    e76a:	e8 84 6f ff ff       	callq  56f3 <transparent_crc>
    e76f:	8b 05 ef 8d 00 00    	mov    0x8def(%rip),%eax        # 17564 <g_665+0x4>
    e775:	48 98                	cltq   
    e777:	8b 55 f4             	mov    -0xc(%rbp),%edx
    e77a:	48 8d 35 bf 38 00 00 	lea    0x38bf(%rip),%rsi        # 12040 <g_1342+0xfc0>
    e781:	48 89 c7             	mov    %rax,%rdi
    e784:	e8 6a 6f ff ff       	callq  56f3 <transparent_crc>
    e789:	8b 05 d9 8d 00 00    	mov    0x8dd9(%rip),%eax        # 17568 <g_665+0x8>
    e78f:	89 c1                	mov    %eax,%ecx
    e791:	8b 45 f4             	mov    -0xc(%rbp),%eax
    e794:	89 c2                	mov    %eax,%edx
    e796:	48 8d 35 af 38 00 00 	lea    0x38af(%rip),%rsi        # 1204c <g_1342+0xfcc>
    e79d:	48 89 cf             	mov    %rcx,%rdi
    e7a0:	e8 4e 6f ff ff       	callq  56f3 <transparent_crc>
    e7a5:	8b 05 c1 8d 00 00    	mov    0x8dc1(%rip),%eax        # 1756c <g_665+0xc>
    e7ab:	48 98                	cltq   
    e7ad:	8b 55 f4             	mov    -0xc(%rbp),%edx
    e7b0:	48 8d 35 a1 38 00 00 	lea    0x38a1(%rip),%rsi        # 12058 <g_1342+0xfd8>
    e7b7:	48 89 c7             	mov    %rax,%rdi
    e7ba:	e8 34 6f ff ff       	callq  56f3 <transparent_crc>
    e7bf:	0f b7 05 aa 8d 00 00 	movzwl 0x8daa(%rip),%eax        # 17570 <g_665+0x10>
    e7c6:	0f b7 c0             	movzwl %ax,%eax
    e7c9:	8b 55 f4             	mov    -0xc(%rbp),%edx
    e7cc:	48 8d 35 91 38 00 00 	lea    0x3891(%rip),%rsi        # 12064 <g_1342+0xfe4>
    e7d3:	48 89 c7             	mov    %rax,%rdi
    e7d6:	e8 18 6f ff ff       	callq  56f3 <transparent_crc>
    e7db:	0f b6 05 90 8d 00 00 	movzbl 0x8d90(%rip),%eax        # 17572 <g_665+0x12>
    e7e2:	0f b6 c0             	movzbl %al,%eax
    e7e5:	8b 55 f4             	mov    -0xc(%rbp),%edx
    e7e8:	48 8d 35 81 38 00 00 	lea    0x3881(%rip),%rsi        # 12070 <g_1342+0xff0>
    e7ef:	48 89 c7             	mov    %rax,%rdi
    e7f2:	e8 fc 6e ff ff       	callq  56f3 <transparent_crc>
    e7f7:	8b 05 77 8d 00 00    	mov    0x8d77(%rip),%eax        # 17574 <g_665+0x14>
    e7fd:	89 c1                	mov    %eax,%ecx
    e7ff:	8b 45 f4             	mov    -0xc(%rbp),%eax
    e802:	89 c2                	mov    %eax,%edx
    e804:	48 8d 35 71 38 00 00 	lea    0x3871(%rip),%rsi        # 1207c <g_1342+0xffc>
    e80b:	48 89 cf             	mov    %rcx,%rdi
    e80e:	e8 e0 6e ff ff       	callq  56f3 <transparent_crc>
    e813:	48 8b 05 5e 8d 00 00 	mov    0x8d5e(%rip),%rax        # 17578 <g_665+0x18>
    e81a:	48 89 c1             	mov    %rax,%rcx
    e81d:	8b 45 f4             	mov    -0xc(%rbp),%eax
    e820:	89 c2                	mov    %eax,%edx
    e822:	48 8d 35 5f 38 00 00 	lea    0x385f(%rip),%rsi        # 12088 <g_1342+0x1008>
    e829:	48 89 cf             	mov    %rcx,%rdi
    e82c:	e8 c2 6e ff ff       	callq  56f3 <transparent_crc>
    e831:	0f b7 05 48 8d 00 00 	movzwl 0x8d48(%rip),%eax        # 17580 <g_666>
    e838:	0f b7 c0             	movzwl %ax,%eax
    e83b:	8b 55 f4             	mov    -0xc(%rbp),%edx
    e83e:	48 8d 35 4f 38 00 00 	lea    0x384f(%rip),%rsi        # 12094 <g_1342+0x1014>
    e845:	48 89 c7             	mov    %rax,%rdi
    e848:	e8 a6 6e ff ff       	callq  56f3 <transparent_crc>
    e84d:	8b 05 31 8d 00 00    	mov    0x8d31(%rip),%eax        # 17584 <g_666+0x4>
    e853:	48 98                	cltq   
    e855:	8b 55 f4             	mov    -0xc(%rbp),%edx
    e858:	48 8d 35 41 38 00 00 	lea    0x3841(%rip),%rsi        # 120a0 <g_1342+0x1020>
    e85f:	48 89 c7             	mov    %rax,%rdi
    e862:	e8 8c 6e ff ff       	callq  56f3 <transparent_crc>
    e867:	8b 05 1b 8d 00 00    	mov    0x8d1b(%rip),%eax        # 17588 <g_666+0x8>
    e86d:	89 c1                	mov    %eax,%ecx
    e86f:	8b 45 f4             	mov    -0xc(%rbp),%eax
    e872:	89 c2                	mov    %eax,%edx
    e874:	48 8d 35 31 38 00 00 	lea    0x3831(%rip),%rsi        # 120ac <g_1342+0x102c>
    e87b:	48 89 cf             	mov    %rcx,%rdi
    e87e:	e8 70 6e ff ff       	callq  56f3 <transparent_crc>
    e883:	8b 05 03 8d 00 00    	mov    0x8d03(%rip),%eax        # 1758c <g_666+0xc>
    e889:	48 98                	cltq   
    e88b:	8b 55 f4             	mov    -0xc(%rbp),%edx
    e88e:	48 8d 35 23 38 00 00 	lea    0x3823(%rip),%rsi        # 120b8 <g_1342+0x1038>
    e895:	48 89 c7             	mov    %rax,%rdi
    e898:	e8 56 6e ff ff       	callq  56f3 <transparent_crc>
    e89d:	0f b7 05 ec 8c 00 00 	movzwl 0x8cec(%rip),%eax        # 17590 <g_666+0x10>
    e8a4:	0f b7 c0             	movzwl %ax,%eax
    e8a7:	8b 55 f4             	mov    -0xc(%rbp),%edx
    e8aa:	48 8d 35 13 38 00 00 	lea    0x3813(%rip),%rsi        # 120c4 <g_1342+0x1044>
    e8b1:	48 89 c7             	mov    %rax,%rdi
    e8b4:	e8 3a 6e ff ff       	callq  56f3 <transparent_crc>
    e8b9:	0f b6 05 d2 8c 00 00 	movzbl 0x8cd2(%rip),%eax        # 17592 <g_666+0x12>
    e8c0:	0f b6 c0             	movzbl %al,%eax
    e8c3:	8b 55 f4             	mov    -0xc(%rbp),%edx
    e8c6:	48 8d 35 03 38 00 00 	lea    0x3803(%rip),%rsi        # 120d0 <g_1342+0x1050>
    e8cd:	48 89 c7             	mov    %rax,%rdi
    e8d0:	e8 1e 6e ff ff       	callq  56f3 <transparent_crc>
    e8d5:	8b 05 b9 8c 00 00    	mov    0x8cb9(%rip),%eax        # 17594 <g_666+0x14>
    e8db:	89 c1                	mov    %eax,%ecx
    e8dd:	8b 45 f4             	mov    -0xc(%rbp),%eax
    e8e0:	89 c2                	mov    %eax,%edx
    e8e2:	48 8d 35 f3 37 00 00 	lea    0x37f3(%rip),%rsi        # 120dc <g_1342+0x105c>
    e8e9:	48 89 cf             	mov    %rcx,%rdi
    e8ec:	e8 02 6e ff ff       	callq  56f3 <transparent_crc>
    e8f1:	48 8b 05 a0 8c 00 00 	mov    0x8ca0(%rip),%rax        # 17598 <g_666+0x18>
    e8f8:	48 89 c1             	mov    %rax,%rcx
    e8fb:	8b 45 f4             	mov    -0xc(%rbp),%eax
    e8fe:	89 c2                	mov    %eax,%edx
    e900:	48 8d 35 e1 37 00 00 	lea    0x37e1(%rip),%rsi        # 120e8 <g_1342+0x1068>
    e907:	48 89 cf             	mov    %rcx,%rdi
    e90a:	e8 e4 6d ff ff       	callq  56f3 <transparent_crc>
    e90f:	c7 45 e8 00 00 00 00 	movl   $0x0,-0x18(%rbp)
    e916:	eb 4a                	jmp    e962 <main+0xfcd>
    e918:	8b 45 e8             	mov    -0x18(%rbp),%eax
    e91b:	48 98                	cltq   
    e91d:	48 8d 14 00          	lea    (%rax,%rax,1),%rdx
    e921:	48 8d 05 78 8c 00 00 	lea    0x8c78(%rip),%rax        # 175a0 <g_668>
    e928:	0f b7 04 02          	movzwl (%rdx,%rax,1),%eax
    e92c:	48 0f bf c0          	movswq %ax,%rax
    e930:	8b 55 f4             	mov    -0xc(%rbp),%edx
    e933:	48 8d 35 ba 37 00 00 	lea    0x37ba(%rip),%rsi        # 120f4 <g_1342+0x1074>
    e93a:	48 89 c7             	mov    %rax,%rdi
    e93d:	e8 b1 6d ff ff       	callq  56f3 <transparent_crc>
    e942:	83 7d f4 00          	cmpl   $0x0,-0xc(%rbp)
    e946:	74 16                	je     e95e <main+0xfc9>
    e948:	8b 45 e8             	mov    -0x18(%rbp),%eax
    e94b:	89 c6                	mov    %eax,%esi
    e94d:	48 8d 3d b5 35 00 00 	lea    0x35b5(%rip),%rdi        # 11f09 <g_1342+0xe89>
    e954:	b8 00 00 00 00       	mov    $0x0,%eax
    e959:	e8 22 57 ff ff       	callq  4080 <printf@plt>
    e95e:	83 45 e8 01          	addl   $0x1,-0x18(%rbp)
    e962:	83 7d e8 06          	cmpl   $0x6,-0x18(%rbp)
    e966:	7e b0                	jle    e918 <main+0xf83>
    e968:	0f b7 05 51 8c 00 00 	movzwl 0x8c51(%rip),%eax        # 175c0 <g_673>
    e96f:	0f b7 c0             	movzwl %ax,%eax
    e972:	8b 55 f4             	mov    -0xc(%rbp),%edx
    e975:	48 8d 35 81 37 00 00 	lea    0x3781(%rip),%rsi        # 120fd <g_1342+0x107d>
    e97c:	48 89 c7             	mov    %rax,%rdi
    e97f:	e8 6f 6d ff ff       	callq  56f3 <transparent_crc>
    e984:	8b 05 3a 8c 00 00    	mov    0x8c3a(%rip),%eax        # 175c4 <g_673+0x4>
    e98a:	48 98                	cltq   
    e98c:	8b 55 f4             	mov    -0xc(%rbp),%edx
    e98f:	48 8d 35 73 37 00 00 	lea    0x3773(%rip),%rsi        # 12109 <g_1342+0x1089>
    e996:	48 89 c7             	mov    %rax,%rdi
    e999:	e8 55 6d ff ff       	callq  56f3 <transparent_crc>
    e99e:	8b 05 24 8c 00 00    	mov    0x8c24(%rip),%eax        # 175c8 <g_673+0x8>
    e9a4:	89 c1                	mov    %eax,%ecx
    e9a6:	8b 45 f4             	mov    -0xc(%rbp),%eax
    e9a9:	89 c2                	mov    %eax,%edx
    e9ab:	48 8d 35 63 37 00 00 	lea    0x3763(%rip),%rsi        # 12115 <g_1342+0x1095>
    e9b2:	48 89 cf             	mov    %rcx,%rdi
    e9b5:	e8 39 6d ff ff       	callq  56f3 <transparent_crc>
    e9ba:	8b 05 0c 8c 00 00    	mov    0x8c0c(%rip),%eax        # 175cc <g_673+0xc>
    e9c0:	48 98                	cltq   
    e9c2:	8b 55 f4             	mov    -0xc(%rbp),%edx
    e9c5:	48 8d 35 55 37 00 00 	lea    0x3755(%rip),%rsi        # 12121 <g_1342+0x10a1>
    e9cc:	48 89 c7             	mov    %rax,%rdi
    e9cf:	e8 1f 6d ff ff       	callq  56f3 <transparent_crc>
    e9d4:	0f b7 05 f5 8b 00 00 	movzwl 0x8bf5(%rip),%eax        # 175d0 <g_673+0x10>
    e9db:	0f b7 c0             	movzwl %ax,%eax
    e9de:	8b 55 f4             	mov    -0xc(%rbp),%edx
    e9e1:	48 8d 35 45 37 00 00 	lea    0x3745(%rip),%rsi        # 1212d <g_1342+0x10ad>
    e9e8:	48 89 c7             	mov    %rax,%rdi
    e9eb:	e8 03 6d ff ff       	callq  56f3 <transparent_crc>
    e9f0:	0f b6 05 db 8b 00 00 	movzbl 0x8bdb(%rip),%eax        # 175d2 <g_673+0x12>
    e9f7:	0f b6 c0             	movzbl %al,%eax
    e9fa:	8b 55 f4             	mov    -0xc(%rbp),%edx
    e9fd:	48 8d 35 35 37 00 00 	lea    0x3735(%rip),%rsi        # 12139 <g_1342+0x10b9>
    ea04:	48 89 c7             	mov    %rax,%rdi
    ea07:	e8 e7 6c ff ff       	callq  56f3 <transparent_crc>
    ea0c:	8b 05 c2 8b 00 00    	mov    0x8bc2(%rip),%eax        # 175d4 <g_673+0x14>
    ea12:	89 c1                	mov    %eax,%ecx
    ea14:	8b 45 f4             	mov    -0xc(%rbp),%eax
    ea17:	89 c2                	mov    %eax,%edx
    ea19:	48 8d 35 25 37 00 00 	lea    0x3725(%rip),%rsi        # 12145 <g_1342+0x10c5>
    ea20:	48 89 cf             	mov    %rcx,%rdi
    ea23:	e8 cb 6c ff ff       	callq  56f3 <transparent_crc>
    ea28:	48 8b 05 a9 8b 00 00 	mov    0x8ba9(%rip),%rax        # 175d8 <g_673+0x18>
    ea2f:	48 89 c1             	mov    %rax,%rcx
    ea32:	8b 45 f4             	mov    -0xc(%rbp),%eax
    ea35:	89 c2                	mov    %eax,%edx
    ea37:	48 8d 35 13 37 00 00 	lea    0x3713(%rip),%rsi        # 12151 <g_1342+0x10d1>
    ea3e:	48 89 cf             	mov    %rcx,%rdi
    ea41:	e8 ad 6c ff ff       	callq  56f3 <transparent_crc>
    ea46:	0f b7 05 93 8b 00 00 	movzwl 0x8b93(%rip),%eax        # 175e0 <g_677>
    ea4d:	0f b7 c0             	movzwl %ax,%eax
    ea50:	8b 55 f4             	mov    -0xc(%rbp),%edx
    ea53:	48 8d 35 03 37 00 00 	lea    0x3703(%rip),%rsi        # 1215d <g_1342+0x10dd>
    ea5a:	48 89 c7             	mov    %rax,%rdi
    ea5d:	e8 91 6c ff ff       	callq  56f3 <transparent_crc>
    ea62:	8b 05 7c 8b 00 00    	mov    0x8b7c(%rip),%eax        # 175e4 <g_677+0x4>
    ea68:	48 98                	cltq   
    ea6a:	8b 55 f4             	mov    -0xc(%rbp),%edx
    ea6d:	48 8d 35 f5 36 00 00 	lea    0x36f5(%rip),%rsi        # 12169 <g_1342+0x10e9>
    ea74:	48 89 c7             	mov    %rax,%rdi
    ea77:	e8 77 6c ff ff       	callq  56f3 <transparent_crc>
    ea7c:	8b 05 66 8b 00 00    	mov    0x8b66(%rip),%eax        # 175e8 <g_677+0x8>
    ea82:	89 c1                	mov    %eax,%ecx
    ea84:	8b 45 f4             	mov    -0xc(%rbp),%eax
    ea87:	89 c2                	mov    %eax,%edx
    ea89:	48 8d 35 e5 36 00 00 	lea    0x36e5(%rip),%rsi        # 12175 <g_1342+0x10f5>
    ea90:	48 89 cf             	mov    %rcx,%rdi
    ea93:	e8 5b 6c ff ff       	callq  56f3 <transparent_crc>
    ea98:	8b 05 4e 8b 00 00    	mov    0x8b4e(%rip),%eax        # 175ec <g_677+0xc>
    ea9e:	48 98                	cltq   
    eaa0:	8b 55 f4             	mov    -0xc(%rbp),%edx
    eaa3:	48 8d 35 d7 36 00 00 	lea    0x36d7(%rip),%rsi        # 12181 <g_1342+0x1101>
    eaaa:	48 89 c7             	mov    %rax,%rdi
    eaad:	e8 41 6c ff ff       	callq  56f3 <transparent_crc>
    eab2:	0f b7 05 37 8b 00 00 	movzwl 0x8b37(%rip),%eax        # 175f0 <g_677+0x10>
    eab9:	0f b7 c0             	movzwl %ax,%eax
    eabc:	8b 55 f4             	mov    -0xc(%rbp),%edx
    eabf:	48 8d 35 c7 36 00 00 	lea    0x36c7(%rip),%rsi        # 1218d <g_1342+0x110d>
    eac6:	48 89 c7             	mov    %rax,%rdi
    eac9:	e8 25 6c ff ff       	callq  56f3 <transparent_crc>
    eace:	0f b6 05 1d 8b 00 00 	movzbl 0x8b1d(%rip),%eax        # 175f2 <g_677+0x12>
    ead5:	0f b6 c0             	movzbl %al,%eax
    ead8:	8b 55 f4             	mov    -0xc(%rbp),%edx
    eadb:	48 8d 35 b7 36 00 00 	lea    0x36b7(%rip),%rsi        # 12199 <g_1342+0x1119>
    eae2:	48 89 c7             	mov    %rax,%rdi
    eae5:	e8 09 6c ff ff       	callq  56f3 <transparent_crc>
    eaea:	8b 05 04 8b 00 00    	mov    0x8b04(%rip),%eax        # 175f4 <g_677+0x14>
    eaf0:	89 c1                	mov    %eax,%ecx
    eaf2:	8b 45 f4             	mov    -0xc(%rbp),%eax
    eaf5:	89 c2                	mov    %eax,%edx
    eaf7:	48 8d 35 a7 36 00 00 	lea    0x36a7(%rip),%rsi        # 121a5 <g_1342+0x1125>
    eafe:	48 89 cf             	mov    %rcx,%rdi
    eb01:	e8 ed 6b ff ff       	callq  56f3 <transparent_crc>
    eb06:	48 8b 05 eb 8a 00 00 	mov    0x8aeb(%rip),%rax        # 175f8 <g_677+0x18>
    eb0d:	48 89 c1             	mov    %rax,%rcx
    eb10:	8b 45 f4             	mov    -0xc(%rbp),%eax
    eb13:	89 c2                	mov    %eax,%edx
    eb15:	48 8d 35 95 36 00 00 	lea    0x3695(%rip),%rsi        # 121b1 <g_1342+0x1131>
    eb1c:	48 89 cf             	mov    %rcx,%rdi
    eb1f:	e8 cf 6b ff ff       	callq  56f3 <transparent_crc>
    eb24:	8b 05 d6 8a 00 00    	mov    0x8ad6(%rip),%eax        # 17600 <g_707>
    eb2a:	89 c1                	mov    %eax,%ecx
    eb2c:	8b 45 f4             	mov    -0xc(%rbp),%eax
    eb2f:	89 c2                	mov    %eax,%edx
    eb31:	48 8d 35 85 36 00 00 	lea    0x3685(%rip),%rsi        # 121bd <g_1342+0x113d>
    eb38:	48 89 cf             	mov    %rcx,%rdi
    eb3b:	e8 b3 6b ff ff       	callq  56f3 <transparent_crc>
    eb40:	c7 45 e8 00 00 00 00 	movl   $0x0,-0x18(%rbp)
    eb47:	e9 7e 01 00 00       	jmpq   ecca <main+0x1335>
    eb4c:	8b 45 e8             	mov    -0x18(%rbp),%eax
    eb4f:	48 98                	cltq   
    eb51:	48 c1 e0 05          	shl    $0x5,%rax
    eb55:	48 89 c2             	mov    %rax,%rdx
    eb58:	48 8d 05 c1 8a 00 00 	lea    0x8ac1(%rip),%rax        # 17620 <g_711>
    eb5f:	0f b7 04 02          	movzwl (%rdx,%rax,1),%eax
    eb63:	0f b7 c0             	movzwl %ax,%eax
    eb66:	8b 55 f4             	mov    -0xc(%rbp),%edx
    eb69:	48 8d 35 53 36 00 00 	lea    0x3653(%rip),%rsi        # 121c3 <g_1342+0x1143>
    eb70:	48 89 c7             	mov    %rax,%rdi
    eb73:	e8 7b 6b ff ff       	callq  56f3 <transparent_crc>
    eb78:	8b 45 e8             	mov    -0x18(%rbp),%eax
    eb7b:	48 98                	cltq   
    eb7d:	48 c1 e0 05          	shl    $0x5,%rax
    eb81:	48 89 c2             	mov    %rax,%rdx
    eb84:	48 8d 05 99 8a 00 00 	lea    0x8a99(%rip),%rax        # 17624 <g_711+0x4>
    eb8b:	8b 04 02             	mov    (%rdx,%rax,1),%eax
    eb8e:	48 98                	cltq   
    eb90:	8b 55 f4             	mov    -0xc(%rbp),%edx
    eb93:	48 8d 35 38 36 00 00 	lea    0x3638(%rip),%rsi        # 121d2 <g_1342+0x1152>
    eb9a:	48 89 c7             	mov    %rax,%rdi
    eb9d:	e8 51 6b ff ff       	callq  56f3 <transparent_crc>
    eba2:	8b 45 e8             	mov    -0x18(%rbp),%eax
    eba5:	48 98                	cltq   
    eba7:	48 c1 e0 05          	shl    $0x5,%rax
    ebab:	48 89 c2             	mov    %rax,%rdx
    ebae:	48 8d 05 73 8a 00 00 	lea    0x8a73(%rip),%rax        # 17628 <g_711+0x8>
    ebb5:	8b 04 02             	mov    (%rdx,%rax,1),%eax
    ebb8:	89 c1                	mov    %eax,%ecx
    ebba:	8b 45 f4             	mov    -0xc(%rbp),%eax
    ebbd:	89 c2                	mov    %eax,%edx
    ebbf:	48 8d 35 1b 36 00 00 	lea    0x361b(%rip),%rsi        # 121e1 <g_1342+0x1161>
    ebc6:	48 89 cf             	mov    %rcx,%rdi
    ebc9:	e8 25 6b ff ff       	callq  56f3 <transparent_crc>
    ebce:	8b 45 e8             	mov    -0x18(%rbp),%eax
    ebd1:	48 98                	cltq   
    ebd3:	48 c1 e0 05          	shl    $0x5,%rax
    ebd7:	48 89 c2             	mov    %rax,%rdx
    ebda:	48 8d 05 4b 8a 00 00 	lea    0x8a4b(%rip),%rax        # 1762c <g_711+0xc>
    ebe1:	8b 04 02             	mov    (%rdx,%rax,1),%eax
    ebe4:	48 98                	cltq   
    ebe6:	8b 55 f4             	mov    -0xc(%rbp),%edx
    ebe9:	48 8d 35 00 36 00 00 	lea    0x3600(%rip),%rsi        # 121f0 <g_1342+0x1170>
    ebf0:	48 89 c7             	mov    %rax,%rdi
    ebf3:	e8 fb 6a ff ff       	callq  56f3 <transparent_crc>
    ebf8:	8b 45 e8             	mov    -0x18(%rbp),%eax
    ebfb:	48 98                	cltq   
    ebfd:	48 c1 e0 05          	shl    $0x5,%rax
    ec01:	48 89 c2             	mov    %rax,%rdx
    ec04:	48 8d 05 25 8a 00 00 	lea    0x8a25(%rip),%rax        # 17630 <g_711+0x10>
    ec0b:	0f b7 04 02          	movzwl (%rdx,%rax,1),%eax
    ec0f:	0f b7 c0             	movzwl %ax,%eax
    ec12:	8b 55 f4             	mov    -0xc(%rbp),%edx
    ec15:	48 8d 35 e3 35 00 00 	lea    0x35e3(%rip),%rsi        # 121ff <g_1342+0x117f>
    ec1c:	48 89 c7             	mov    %rax,%rdi
    ec1f:	e8 cf 6a ff ff       	callq  56f3 <transparent_crc>
    ec24:	8b 45 e8             	mov    -0x18(%rbp),%eax
    ec27:	48 98                	cltq   
    ec29:	48 c1 e0 05          	shl    $0x5,%rax
    ec2d:	48 89 c2             	mov    %rax,%rdx
    ec30:	48 8d 05 fb 89 00 00 	lea    0x89fb(%rip),%rax        # 17632 <g_711+0x12>
    ec37:	0f b6 04 02          	movzbl (%rdx,%rax,1),%eax
    ec3b:	0f b6 c0             	movzbl %al,%eax
    ec3e:	8b 55 f4             	mov    -0xc(%rbp),%edx
    ec41:	48 8d 35 c6 35 00 00 	lea    0x35c6(%rip),%rsi        # 1220e <g_1342+0x118e>
    ec48:	48 89 c7             	mov    %rax,%rdi
    ec4b:	e8 a3 6a ff ff       	callq  56f3 <transparent_crc>
    ec50:	8b 45 e8             	mov    -0x18(%rbp),%eax
    ec53:	48 98                	cltq   
    ec55:	48 c1 e0 05          	shl    $0x5,%rax
    ec59:	48 89 c2             	mov    %rax,%rdx
    ec5c:	48 8d 05 d1 89 00 00 	lea    0x89d1(%rip),%rax        # 17634 <g_711+0x14>
    ec63:	8b 04 02             	mov    (%rdx,%rax,1),%eax
    ec66:	89 c1                	mov    %eax,%ecx
    ec68:	8b 45 f4             	mov    -0xc(%rbp),%eax
    ec6b:	89 c2                	mov    %eax,%edx
    ec6d:	48 8d 35 a9 35 00 00 	lea    0x35a9(%rip),%rsi        # 1221d <g_1342+0x119d>
    ec74:	48 89 cf             	mov    %rcx,%rdi
    ec77:	e8 77 6a ff ff       	callq  56f3 <transparent_crc>
    ec7c:	8b 45 e8             	mov    -0x18(%rbp),%eax
    ec7f:	48 98                	cltq   
    ec81:	48 c1 e0 05          	shl    $0x5,%rax
    ec85:	48 89 c2             	mov    %rax,%rdx
    ec88:	48 8d 05 a9 89 00 00 	lea    0x89a9(%rip),%rax        # 17638 <g_711+0x18>
    ec8f:	48 8b 04 02          	mov    (%rdx,%rax,1),%rax
    ec93:	48 89 c1             	mov    %rax,%rcx
    ec96:	8b 45 f4             	mov    -0xc(%rbp),%eax
    ec99:	89 c2                	mov    %eax,%edx
    ec9b:	48 8d 35 8a 35 00 00 	lea    0x358a(%rip),%rsi        # 1222c <g_1342+0x11ac>
    eca2:	48 89 cf             	mov    %rcx,%rdi
    eca5:	e8 49 6a ff ff       	callq  56f3 <transparent_crc>
    ecaa:	83 7d f4 00          	cmpl   $0x0,-0xc(%rbp)
    ecae:	74 16                	je     ecc6 <main+0x1331>
    ecb0:	8b 45 e8             	mov    -0x18(%rbp),%eax
    ecb3:	89 c6                	mov    %eax,%esi
    ecb5:	48 8d 3d 4d 32 00 00 	lea    0x324d(%rip),%rdi        # 11f09 <g_1342+0xe89>
    ecbc:	b8 00 00 00 00       	mov    $0x0,%eax
    ecc1:	e8 ba 53 ff ff       	callq  4080 <printf@plt>
    ecc6:	83 45 e8 01          	addl   $0x1,-0x18(%rbp)
    ecca:	83 7d e8 05          	cmpl   $0x5,-0x18(%rbp)
    ecce:	0f 8e 78 fe ff ff    	jle    eb4c <main+0x11b7>
    ecd4:	0f b7 05 05 8a 00 00 	movzwl 0x8a05(%rip),%eax        # 176e0 <g_764>
    ecdb:	0f b7 c0             	movzwl %ax,%eax
    ecde:	8b 55 f4             	mov    -0xc(%rbp),%edx
    ece1:	48 8d 35 53 35 00 00 	lea    0x3553(%rip),%rsi        # 1223b <g_1342+0x11bb>
    ece8:	48 89 c7             	mov    %rax,%rdi
    eceb:	e8 03 6a ff ff       	callq  56f3 <transparent_crc>
    ecf0:	8b 05 ee 89 00 00    	mov    0x89ee(%rip),%eax        # 176e4 <g_764+0x4>
    ecf6:	48 98                	cltq   
    ecf8:	8b 55 f4             	mov    -0xc(%rbp),%edx
    ecfb:	48 8d 35 45 35 00 00 	lea    0x3545(%rip),%rsi        # 12247 <g_1342+0x11c7>
    ed02:	48 89 c7             	mov    %rax,%rdi
    ed05:	e8 e9 69 ff ff       	callq  56f3 <transparent_crc>
    ed0a:	8b 05 d8 89 00 00    	mov    0x89d8(%rip),%eax        # 176e8 <g_764+0x8>
    ed10:	89 c1                	mov    %eax,%ecx
    ed12:	8b 45 f4             	mov    -0xc(%rbp),%eax
    ed15:	89 c2                	mov    %eax,%edx
    ed17:	48 8d 35 35 35 00 00 	lea    0x3535(%rip),%rsi        # 12253 <g_1342+0x11d3>
    ed1e:	48 89 cf             	mov    %rcx,%rdi
    ed21:	e8 cd 69 ff ff       	callq  56f3 <transparent_crc>
    ed26:	8b 05 c0 89 00 00    	mov    0x89c0(%rip),%eax        # 176ec <g_764+0xc>
    ed2c:	48 98                	cltq   
    ed2e:	8b 55 f4             	mov    -0xc(%rbp),%edx
    ed31:	48 8d 35 27 35 00 00 	lea    0x3527(%rip),%rsi        # 1225f <g_1342+0x11df>
    ed38:	48 89 c7             	mov    %rax,%rdi
    ed3b:	e8 b3 69 ff ff       	callq  56f3 <transparent_crc>
    ed40:	0f b7 05 a9 89 00 00 	movzwl 0x89a9(%rip),%eax        # 176f0 <g_764+0x10>
    ed47:	0f b7 c0             	movzwl %ax,%eax
    ed4a:	8b 55 f4             	mov    -0xc(%rbp),%edx
    ed4d:	48 8d 35 17 35 00 00 	lea    0x3517(%rip),%rsi        # 1226b <g_1342+0x11eb>
    ed54:	48 89 c7             	mov    %rax,%rdi
    ed57:	e8 97 69 ff ff       	callq  56f3 <transparent_crc>
    ed5c:	0f b6 05 8f 89 00 00 	movzbl 0x898f(%rip),%eax        # 176f2 <g_764+0x12>
    ed63:	0f b6 c0             	movzbl %al,%eax
    ed66:	8b 55 f4             	mov    -0xc(%rbp),%edx
    ed69:	48 8d 35 07 35 00 00 	lea    0x3507(%rip),%rsi        # 12277 <g_1342+0x11f7>
    ed70:	48 89 c7             	mov    %rax,%rdi
    ed73:	e8 7b 69 ff ff       	callq  56f3 <transparent_crc>
    ed78:	8b 05 76 89 00 00    	mov    0x8976(%rip),%eax        # 176f4 <g_764+0x14>
    ed7e:	89 c1                	mov    %eax,%ecx
    ed80:	8b 45 f4             	mov    -0xc(%rbp),%eax
    ed83:	89 c2                	mov    %eax,%edx
    ed85:	48 8d 35 f7 34 00 00 	lea    0x34f7(%rip),%rsi        # 12283 <g_1342+0x1203>
    ed8c:	48 89 cf             	mov    %rcx,%rdi
    ed8f:	e8 5f 69 ff ff       	callq  56f3 <transparent_crc>
    ed94:	48 8b 05 5d 89 00 00 	mov    0x895d(%rip),%rax        # 176f8 <g_764+0x18>
    ed9b:	48 89 c1             	mov    %rax,%rcx
    ed9e:	8b 45 f4             	mov    -0xc(%rbp),%eax
    eda1:	89 c2                	mov    %eax,%edx
    eda3:	48 8d 35 e5 34 00 00 	lea    0x34e5(%rip),%rsi        # 1228f <g_1342+0x120f>
    edaa:	48 89 cf             	mov    %rcx,%rdi
    edad:	e8 41 69 ff ff       	callq  56f3 <transparent_crc>
    edb2:	0f b7 05 47 89 00 00 	movzwl 0x8947(%rip),%eax        # 17700 <g_767>
    edb9:	0f b7 c0             	movzwl %ax,%eax
    edbc:	8b 55 f4             	mov    -0xc(%rbp),%edx
    edbf:	48 8d 35 d5 34 00 00 	lea    0x34d5(%rip),%rsi        # 1229b <g_1342+0x121b>
    edc6:	48 89 c7             	mov    %rax,%rdi
    edc9:	e8 25 69 ff ff       	callq  56f3 <transparent_crc>
    edce:	8b 05 30 89 00 00    	mov    0x8930(%rip),%eax        # 17704 <g_767+0x4>
    edd4:	48 98                	cltq   
    edd6:	8b 55 f4             	mov    -0xc(%rbp),%edx
    edd9:	48 8d 35 c4 34 00 00 	lea    0x34c4(%rip),%rsi        # 122a4 <g_1342+0x1224>
    ede0:	48 89 c7             	mov    %rax,%rdi
    ede3:	e8 0b 69 ff ff       	callq  56f3 <transparent_crc>
    ede8:	8b 05 1a 89 00 00    	mov    0x891a(%rip),%eax        # 17708 <g_767+0x8>
    edee:	89 c1                	mov    %eax,%ecx
    edf0:	8b 45 f4             	mov    -0xc(%rbp),%eax
    edf3:	89 c2                	mov    %eax,%edx
    edf5:	48 8d 35 b1 34 00 00 	lea    0x34b1(%rip),%rsi        # 122ad <g_1342+0x122d>
    edfc:	48 89 cf             	mov    %rcx,%rdi
    edff:	e8 ef 68 ff ff       	callq  56f3 <transparent_crc>
    ee04:	8b 05 02 89 00 00    	mov    0x8902(%rip),%eax        # 1770c <g_767+0xc>
    ee0a:	48 98                	cltq   
    ee0c:	8b 55 f4             	mov    -0xc(%rbp),%edx
    ee0f:	48 8d 35 a0 34 00 00 	lea    0x34a0(%rip),%rsi        # 122b6 <g_1342+0x1236>
    ee16:	48 89 c7             	mov    %rax,%rdi
    ee19:	e8 d5 68 ff ff       	callq  56f3 <transparent_crc>
    ee1e:	0f b7 05 eb 88 00 00 	movzwl 0x88eb(%rip),%eax        # 17710 <g_767+0x10>
    ee25:	0f b7 c0             	movzwl %ax,%eax
    ee28:	8b 55 f4             	mov    -0xc(%rbp),%edx
    ee2b:	48 8d 35 8d 34 00 00 	lea    0x348d(%rip),%rsi        # 122bf <g_1342+0x123f>
    ee32:	48 89 c7             	mov    %rax,%rdi
    ee35:	e8 b9 68 ff ff       	callq  56f3 <transparent_crc>
    ee3a:	0f b6 05 d1 88 00 00 	movzbl 0x88d1(%rip),%eax        # 17712 <g_767+0x12>
    ee41:	0f b6 c0             	movzbl %al,%eax
    ee44:	8b 55 f4             	mov    -0xc(%rbp),%edx
    ee47:	48 8d 35 7a 34 00 00 	lea    0x347a(%rip),%rsi        # 122c8 <g_1342+0x1248>
    ee4e:	48 89 c7             	mov    %rax,%rdi
    ee51:	e8 9d 68 ff ff       	callq  56f3 <transparent_crc>
    ee56:	8b 05 b8 88 00 00    	mov    0x88b8(%rip),%eax        # 17714 <g_767+0x14>
    ee5c:	89 c1                	mov    %eax,%ecx
    ee5e:	8b 45 f4             	mov    -0xc(%rbp),%eax
    ee61:	89 c2                	mov    %eax,%edx
    ee63:	48 8d 35 67 34 00 00 	lea    0x3467(%rip),%rsi        # 122d1 <g_1342+0x1251>
    ee6a:	48 89 cf             	mov    %rcx,%rdi
    ee6d:	e8 81 68 ff ff       	callq  56f3 <transparent_crc>
    ee72:	48 8b 05 9f 88 00 00 	mov    0x889f(%rip),%rax        # 17718 <g_767+0x18>
    ee79:	48 89 c1             	mov    %rax,%rcx
    ee7c:	8b 45 f4             	mov    -0xc(%rbp),%eax
    ee7f:	89 c2                	mov    %eax,%edx
    ee81:	48 8d 35 52 34 00 00 	lea    0x3452(%rip),%rsi        # 122da <g_1342+0x125a>
    ee88:	48 89 cf             	mov    %rcx,%rdi
    ee8b:	e8 63 68 ff ff       	callq  56f3 <transparent_crc>
    ee90:	0f b7 05 89 88 00 00 	movzwl 0x8889(%rip),%eax        # 17720 <g_771>
    ee97:	0f b7 c0             	movzwl %ax,%eax
    ee9a:	8b 55 f4             	mov    -0xc(%rbp),%edx
    ee9d:	48 8d 35 3f 34 00 00 	lea    0x343f(%rip),%rsi        # 122e3 <g_1342+0x1263>
    eea4:	48 89 c7             	mov    %rax,%rdi
    eea7:	e8 47 68 ff ff       	callq  56f3 <transparent_crc>
    eeac:	8b 05 72 88 00 00    	mov    0x8872(%rip),%eax        # 17724 <g_771+0x4>
    eeb2:	48 98                	cltq   
    eeb4:	8b 55 f4             	mov    -0xc(%rbp),%edx
    eeb7:	48 8d 35 2e 34 00 00 	lea    0x342e(%rip),%rsi        # 122ec <g_1342+0x126c>
    eebe:	48 89 c7             	mov    %rax,%rdi
    eec1:	e8 2d 68 ff ff       	callq  56f3 <transparent_crc>
    eec6:	8b 05 5c 88 00 00    	mov    0x885c(%rip),%eax        # 17728 <g_771+0x8>
    eecc:	89 c1                	mov    %eax,%ecx
    eece:	8b 45 f4             	mov    -0xc(%rbp),%eax
    eed1:	89 c2                	mov    %eax,%edx
    eed3:	48 8d 35 1b 34 00 00 	lea    0x341b(%rip),%rsi        # 122f5 <g_1342+0x1275>
    eeda:	48 89 cf             	mov    %rcx,%rdi
    eedd:	e8 11 68 ff ff       	callq  56f3 <transparent_crc>
    eee2:	8b 05 44 88 00 00    	mov    0x8844(%rip),%eax        # 1772c <g_771+0xc>
    eee8:	48 98                	cltq   
    eeea:	8b 55 f4             	mov    -0xc(%rbp),%edx
    eeed:	48 8d 35 0a 34 00 00 	lea    0x340a(%rip),%rsi        # 122fe <g_1342+0x127e>
    eef4:	48 89 c7             	mov    %rax,%rdi
    eef7:	e8 f7 67 ff ff       	callq  56f3 <transparent_crc>
    eefc:	0f b7 05 2d 88 00 00 	movzwl 0x882d(%rip),%eax        # 17730 <g_771+0x10>
    ef03:	0f b7 c0             	movzwl %ax,%eax
    ef06:	8b 55 f4             	mov    -0xc(%rbp),%edx
    ef09:	48 8d 35 f7 33 00 00 	lea    0x33f7(%rip),%rsi        # 12307 <g_1342+0x1287>
    ef10:	48 89 c7             	mov    %rax,%rdi
    ef13:	e8 db 67 ff ff       	callq  56f3 <transparent_crc>
    ef18:	0f b6 05 13 88 00 00 	movzbl 0x8813(%rip),%eax        # 17732 <g_771+0x12>
    ef1f:	0f b6 c0             	movzbl %al,%eax
    ef22:	8b 55 f4             	mov    -0xc(%rbp),%edx
    ef25:	48 8d 35 e4 33 00 00 	lea    0x33e4(%rip),%rsi        # 12310 <g_1342+0x1290>
    ef2c:	48 89 c7             	mov    %rax,%rdi
    ef2f:	e8 bf 67 ff ff       	callq  56f3 <transparent_crc>
    ef34:	8b 05 fa 87 00 00    	mov    0x87fa(%rip),%eax        # 17734 <g_771+0x14>
    ef3a:	89 c1                	mov    %eax,%ecx
    ef3c:	8b 45 f4             	mov    -0xc(%rbp),%eax
    ef3f:	89 c2                	mov    %eax,%edx
    ef41:	48 8d 35 d1 33 00 00 	lea    0x33d1(%rip),%rsi        # 12319 <g_1342+0x1299>
    ef48:	48 89 cf             	mov    %rcx,%rdi
    ef4b:	e8 a3 67 ff ff       	callq  56f3 <transparent_crc>
    ef50:	48 8b 05 e1 87 00 00 	mov    0x87e1(%rip),%rax        # 17738 <g_771+0x18>
    ef57:	48 89 c1             	mov    %rax,%rcx
    ef5a:	8b 45 f4             	mov    -0xc(%rbp),%eax
    ef5d:	89 c2                	mov    %eax,%edx
    ef5f:	48 8d 35 bc 33 00 00 	lea    0x33bc(%rip),%rsi        # 12322 <g_1342+0x12a2>
    ef66:	48 89 cf             	mov    %rcx,%rdi
    ef69:	e8 85 67 ff ff       	callq  56f3 <transparent_crc>
    ef6e:	0f b7 05 cb 87 00 00 	movzwl 0x87cb(%rip),%eax        # 17740 <g_772>
    ef75:	0f b7 c0             	movzwl %ax,%eax
    ef78:	8b 55 f4             	mov    -0xc(%rbp),%edx
    ef7b:	48 8d 35 a9 33 00 00 	lea    0x33a9(%rip),%rsi        # 1232b <g_1342+0x12ab>
    ef82:	48 89 c7             	mov    %rax,%rdi
    ef85:	e8 69 67 ff ff       	callq  56f3 <transparent_crc>
    ef8a:	8b 05 b4 87 00 00    	mov    0x87b4(%rip),%eax        # 17744 <g_772+0x4>
    ef90:	48 98                	cltq   
    ef92:	8b 55 f4             	mov    -0xc(%rbp),%edx
    ef95:	48 8d 35 98 33 00 00 	lea    0x3398(%rip),%rsi        # 12334 <g_1342+0x12b4>
    ef9c:	48 89 c7             	mov    %rax,%rdi
    ef9f:	e8 4f 67 ff ff       	callq  56f3 <transparent_crc>
    efa4:	8b 05 9e 87 00 00    	mov    0x879e(%rip),%eax        # 17748 <g_772+0x8>
    efaa:	89 c1                	mov    %eax,%ecx
    efac:	8b 45 f4             	mov    -0xc(%rbp),%eax
    efaf:	89 c2                	mov    %eax,%edx
    efb1:	48 8d 35 85 33 00 00 	lea    0x3385(%rip),%rsi        # 1233d <g_1342+0x12bd>
    efb8:	48 89 cf             	mov    %rcx,%rdi
    efbb:	e8 33 67 ff ff       	callq  56f3 <transparent_crc>
    efc0:	8b 05 86 87 00 00    	mov    0x8786(%rip),%eax        # 1774c <g_772+0xc>
    efc6:	48 98                	cltq   
    efc8:	8b 55 f4             	mov    -0xc(%rbp),%edx
    efcb:	48 8d 35 74 33 00 00 	lea    0x3374(%rip),%rsi        # 12346 <g_1342+0x12c6>
    efd2:	48 89 c7             	mov    %rax,%rdi
    efd5:	e8 19 67 ff ff       	callq  56f3 <transparent_crc>
    efda:	0f b7 05 6f 87 00 00 	movzwl 0x876f(%rip),%eax        # 17750 <g_772+0x10>
    efe1:	0f b7 c0             	movzwl %ax,%eax
    efe4:	8b 55 f4             	mov    -0xc(%rbp),%edx
    efe7:	48 8d 35 61 33 00 00 	lea    0x3361(%rip),%rsi        # 1234f <g_1342+0x12cf>
    efee:	48 89 c7             	mov    %rax,%rdi
    eff1:	e8 fd 66 ff ff       	callq  56f3 <transparent_crc>
    eff6:	0f b6 05 55 87 00 00 	movzbl 0x8755(%rip),%eax        # 17752 <g_772+0x12>
    effd:	0f b6 c0             	movzbl %al,%eax
    f000:	8b 55 f4             	mov    -0xc(%rbp),%edx
    f003:	48 8d 35 4e 33 00 00 	lea    0x334e(%rip),%rsi        # 12358 <g_1342+0x12d8>
    f00a:	48 89 c7             	mov    %rax,%rdi
    f00d:	e8 e1 66 ff ff       	callq  56f3 <transparent_crc>
    f012:	8b 05 3c 87 00 00    	mov    0x873c(%rip),%eax        # 17754 <g_772+0x14>
    f018:	89 c1                	mov    %eax,%ecx
    f01a:	8b 45 f4             	mov    -0xc(%rbp),%eax
    f01d:	89 c2                	mov    %eax,%edx
    f01f:	48 8d 35 3b 33 00 00 	lea    0x333b(%rip),%rsi        # 12361 <g_1342+0x12e1>
    f026:	48 89 cf             	mov    %rcx,%rdi
    f029:	e8 c5 66 ff ff       	callq  56f3 <transparent_crc>
    f02e:	48 8b 05 23 87 00 00 	mov    0x8723(%rip),%rax        # 17758 <g_772+0x18>
    f035:	48 89 c1             	mov    %rax,%rcx
    f038:	8b 45 f4             	mov    -0xc(%rbp),%eax
    f03b:	89 c2                	mov    %eax,%edx
    f03d:	48 8d 35 26 33 00 00 	lea    0x3326(%rip),%rsi        # 1236a <g_1342+0x12ea>
    f044:	48 89 cf             	mov    %rcx,%rdi
    f047:	e8 a7 66 ff ff       	callq  56f3 <transparent_crc>
    f04c:	0f b7 05 0d 87 00 00 	movzwl 0x870d(%rip),%eax        # 17760 <g_773>
    f053:	0f b7 c0             	movzwl %ax,%eax
    f056:	8b 55 f4             	mov    -0xc(%rbp),%edx
    f059:	48 8d 35 13 33 00 00 	lea    0x3313(%rip),%rsi        # 12373 <g_1342+0x12f3>
    f060:	48 89 c7             	mov    %rax,%rdi
    f063:	e8 8b 66 ff ff       	callq  56f3 <transparent_crc>
    f068:	8b 05 f6 86 00 00    	mov    0x86f6(%rip),%eax        # 17764 <g_773+0x4>
    f06e:	48 98                	cltq   
    f070:	8b 55 f4             	mov    -0xc(%rbp),%edx
    f073:	48 8d 35 02 33 00 00 	lea    0x3302(%rip),%rsi        # 1237c <g_1342+0x12fc>
    f07a:	48 89 c7             	mov    %rax,%rdi
    f07d:	e8 71 66 ff ff       	callq  56f3 <transparent_crc>
    f082:	8b 05 e0 86 00 00    	mov    0x86e0(%rip),%eax        # 17768 <g_773+0x8>
    f088:	89 c1                	mov    %eax,%ecx
    f08a:	8b 45 f4             	mov    -0xc(%rbp),%eax
    f08d:	89 c2                	mov    %eax,%edx
    f08f:	48 8d 35 ef 32 00 00 	lea    0x32ef(%rip),%rsi        # 12385 <g_1342+0x1305>
    f096:	48 89 cf             	mov    %rcx,%rdi
    f099:	e8 55 66 ff ff       	callq  56f3 <transparent_crc>
    f09e:	8b 05 c8 86 00 00    	mov    0x86c8(%rip),%eax        # 1776c <g_773+0xc>
    f0a4:	48 98                	cltq   
    f0a6:	8b 55 f4             	mov    -0xc(%rbp),%edx
    f0a9:	48 8d 35 de 32 00 00 	lea    0x32de(%rip),%rsi        # 1238e <g_1342+0x130e>
    f0b0:	48 89 c7             	mov    %rax,%rdi
    f0b3:	e8 3b 66 ff ff       	callq  56f3 <transparent_crc>
    f0b8:	0f b7 05 b1 86 00 00 	movzwl 0x86b1(%rip),%eax        # 17770 <g_773+0x10>
    f0bf:	0f b7 c0             	movzwl %ax,%eax
    f0c2:	8b 55 f4             	mov    -0xc(%rbp),%edx
    f0c5:	48 8d 35 cb 32 00 00 	lea    0x32cb(%rip),%rsi        # 12397 <g_1342+0x1317>
    f0cc:	48 89 c7             	mov    %rax,%rdi
    f0cf:	e8 1f 66 ff ff       	callq  56f3 <transparent_crc>
    f0d4:	0f b6 05 97 86 00 00 	movzbl 0x8697(%rip),%eax        # 17772 <g_773+0x12>
    f0db:	0f b6 c0             	movzbl %al,%eax
    f0de:	8b 55 f4             	mov    -0xc(%rbp),%edx
    f0e1:	48 8d 35 b8 32 00 00 	lea    0x32b8(%rip),%rsi        # 123a0 <g_1342+0x1320>
    f0e8:	48 89 c7             	mov    %rax,%rdi
    f0eb:	e8 03 66 ff ff       	callq  56f3 <transparent_crc>
    f0f0:	8b 05 7e 86 00 00    	mov    0x867e(%rip),%eax        # 17774 <g_773+0x14>
    f0f6:	89 c1                	mov    %eax,%ecx
    f0f8:	8b 45 f4             	mov    -0xc(%rbp),%eax
    f0fb:	89 c2                	mov    %eax,%edx
    f0fd:	48 8d 35 a5 32 00 00 	lea    0x32a5(%rip),%rsi        # 123a9 <g_1342+0x1329>
    f104:	48 89 cf             	mov    %rcx,%rdi
    f107:	e8 e7 65 ff ff       	callq  56f3 <transparent_crc>
    f10c:	48 8b 05 65 86 00 00 	mov    0x8665(%rip),%rax        # 17778 <g_773+0x18>
    f113:	48 89 c1             	mov    %rax,%rcx
    f116:	8b 45 f4             	mov    -0xc(%rbp),%eax
    f119:	89 c2                	mov    %eax,%edx
    f11b:	48 8d 35 90 32 00 00 	lea    0x3290(%rip),%rsi        # 123b2 <g_1342+0x1332>
    f122:	48 89 cf             	mov    %rcx,%rdi
    f125:	e8 c9 65 ff ff       	callq  56f3 <transparent_crc>
    f12a:	0f b7 05 4f 86 00 00 	movzwl 0x864f(%rip),%eax        # 17780 <g_774>
    f131:	0f b7 c0             	movzwl %ax,%eax
    f134:	8b 55 f4             	mov    -0xc(%rbp),%edx
    f137:	48 8d 35 7d 32 00 00 	lea    0x327d(%rip),%rsi        # 123bb <g_1342+0x133b>
    f13e:	48 89 c7             	mov    %rax,%rdi
    f141:	e8 ad 65 ff ff       	callq  56f3 <transparent_crc>
    f146:	8b 05 38 86 00 00    	mov    0x8638(%rip),%eax        # 17784 <g_774+0x4>
    f14c:	48 98                	cltq   
    f14e:	8b 55 f4             	mov    -0xc(%rbp),%edx
    f151:	48 8d 35 6c 32 00 00 	lea    0x326c(%rip),%rsi        # 123c4 <g_1342+0x1344>
    f158:	48 89 c7             	mov    %rax,%rdi
    f15b:	e8 93 65 ff ff       	callq  56f3 <transparent_crc>
    f160:	8b 05 22 86 00 00    	mov    0x8622(%rip),%eax        # 17788 <g_774+0x8>
    f166:	89 c1                	mov    %eax,%ecx
    f168:	8b 45 f4             	mov    -0xc(%rbp),%eax
    f16b:	89 c2                	mov    %eax,%edx
    f16d:	48 8d 35 59 32 00 00 	lea    0x3259(%rip),%rsi        # 123cd <g_1342+0x134d>
    f174:	48 89 cf             	mov    %rcx,%rdi
    f177:	e8 77 65 ff ff       	callq  56f3 <transparent_crc>
    f17c:	8b 05 0a 86 00 00    	mov    0x860a(%rip),%eax        # 1778c <g_774+0xc>
    f182:	48 98                	cltq   
    f184:	8b 55 f4             	mov    -0xc(%rbp),%edx
    f187:	48 8d 35 48 32 00 00 	lea    0x3248(%rip),%rsi        # 123d6 <g_1342+0x1356>
    f18e:	48 89 c7             	mov    %rax,%rdi
    f191:	e8 5d 65 ff ff       	callq  56f3 <transparent_crc>
    f196:	0f b7 05 f3 85 00 00 	movzwl 0x85f3(%rip),%eax        # 17790 <g_774+0x10>
    f19d:	0f b7 c0             	movzwl %ax,%eax
    f1a0:	8b 55 f4             	mov    -0xc(%rbp),%edx
    f1a3:	48 8d 35 35 32 00 00 	lea    0x3235(%rip),%rsi        # 123df <g_1342+0x135f>
    f1aa:	48 89 c7             	mov    %rax,%rdi
    f1ad:	e8 41 65 ff ff       	callq  56f3 <transparent_crc>
    f1b2:	0f b6 05 d9 85 00 00 	movzbl 0x85d9(%rip),%eax        # 17792 <g_774+0x12>
    f1b9:	0f b6 c0             	movzbl %al,%eax
    f1bc:	8b 55 f4             	mov    -0xc(%rbp),%edx
    f1bf:	48 8d 35 22 32 00 00 	lea    0x3222(%rip),%rsi        # 123e8 <g_1342+0x1368>
    f1c6:	48 89 c7             	mov    %rax,%rdi
    f1c9:	e8 25 65 ff ff       	callq  56f3 <transparent_crc>
    f1ce:	8b 05 c0 85 00 00    	mov    0x85c0(%rip),%eax        # 17794 <g_774+0x14>
    f1d4:	89 c1                	mov    %eax,%ecx
    f1d6:	8b 45 f4             	mov    -0xc(%rbp),%eax
    f1d9:	89 c2                	mov    %eax,%edx
    f1db:	48 8d 35 0f 32 00 00 	lea    0x320f(%rip),%rsi        # 123f1 <g_1342+0x1371>
    f1e2:	48 89 cf             	mov    %rcx,%rdi
    f1e5:	e8 09 65 ff ff       	callq  56f3 <transparent_crc>
    f1ea:	48 8b 05 a7 85 00 00 	mov    0x85a7(%rip),%rax        # 17798 <g_774+0x18>
    f1f1:	48 89 c1             	mov    %rax,%rcx
    f1f4:	8b 45 f4             	mov    -0xc(%rbp),%eax
    f1f7:	89 c2                	mov    %eax,%edx
    f1f9:	48 8d 35 fa 31 00 00 	lea    0x31fa(%rip),%rsi        # 123fa <g_1342+0x137a>
    f200:	48 89 cf             	mov    %rcx,%rdi
    f203:	e8 eb 64 ff ff       	callq  56f3 <transparent_crc>
    f208:	8b 05 92 85 00 00    	mov    0x8592(%rip),%eax        # 177a0 <g_859>
    f20e:	c1 e0 06             	shl    $0x6,%eax
    f211:	c1 f8 06             	sar    $0x6,%eax
    f214:	48 98                	cltq   
    f216:	8b 55 f4             	mov    -0xc(%rbp),%edx
    f219:	48 8d 35 e3 31 00 00 	lea    0x31e3(%rip),%rsi        # 12403 <g_1342+0x1383>
    f220:	48 89 c7             	mov    %rax,%rdi
    f223:	e8 cb 64 ff ff       	callq  56f3 <transparent_crc>
    f228:	0f b7 05 91 85 00 00 	movzwl 0x8591(%rip),%eax        # 177c0 <g_870>
    f22f:	0f b7 c0             	movzwl %ax,%eax
    f232:	8b 55 f4             	mov    -0xc(%rbp),%edx
    f235:	48 8d 35 d0 31 00 00 	lea    0x31d0(%rip),%rsi        # 1240c <g_1342+0x138c>
    f23c:	48 89 c7             	mov    %rax,%rdi
    f23f:	e8 af 64 ff ff       	callq  56f3 <transparent_crc>
    f244:	8b 05 7a 85 00 00    	mov    0x857a(%rip),%eax        # 177c4 <g_870+0x4>
    f24a:	48 98                	cltq   
    f24c:	8b 55 f4             	mov    -0xc(%rbp),%edx
    f24f:	48 8d 35 c2 31 00 00 	lea    0x31c2(%rip),%rsi        # 12418 <g_1342+0x1398>
    f256:	48 89 c7             	mov    %rax,%rdi
    f259:	e8 95 64 ff ff       	callq  56f3 <transparent_crc>
    f25e:	8b 05 64 85 00 00    	mov    0x8564(%rip),%eax        # 177c8 <g_870+0x8>
    f264:	89 c1                	mov    %eax,%ecx
    f266:	8b 45 f4             	mov    -0xc(%rbp),%eax
    f269:	89 c2                	mov    %eax,%edx
    f26b:	48 8d 35 b2 31 00 00 	lea    0x31b2(%rip),%rsi        # 12424 <g_1342+0x13a4>
    f272:	48 89 cf             	mov    %rcx,%rdi
    f275:	e8 79 64 ff ff       	callq  56f3 <transparent_crc>
    f27a:	8b 05 4c 85 00 00    	mov    0x854c(%rip),%eax        # 177cc <g_870+0xc>
    f280:	48 98                	cltq   
    f282:	8b 55 f4             	mov    -0xc(%rbp),%edx
    f285:	48 8d 35 a4 31 00 00 	lea    0x31a4(%rip),%rsi        # 12430 <g_1342+0x13b0>
    f28c:	48 89 c7             	mov    %rax,%rdi
    f28f:	e8 5f 64 ff ff       	callq  56f3 <transparent_crc>
    f294:	0f b7 05 35 85 00 00 	movzwl 0x8535(%rip),%eax        # 177d0 <g_870+0x10>
    f29b:	0f b7 c0             	movzwl %ax,%eax
    f29e:	8b 55 f4             	mov    -0xc(%rbp),%edx
    f2a1:	48 8d 35 94 31 00 00 	lea    0x3194(%rip),%rsi        # 1243c <g_1342+0x13bc>
    f2a8:	48 89 c7             	mov    %rax,%rdi
    f2ab:	e8 43 64 ff ff       	callq  56f3 <transparent_crc>
    f2b0:	0f b6 05 1b 85 00 00 	movzbl 0x851b(%rip),%eax        # 177d2 <g_870+0x12>
    f2b7:	0f b6 c0             	movzbl %al,%eax
    f2ba:	8b 55 f4             	mov    -0xc(%rbp),%edx
    f2bd:	48 8d 35 84 31 00 00 	lea    0x3184(%rip),%rsi        # 12448 <g_1342+0x13c8>
    f2c4:	48 89 c7             	mov    %rax,%rdi
    f2c7:	e8 27 64 ff ff       	callq  56f3 <transparent_crc>
    f2cc:	8b 05 02 85 00 00    	mov    0x8502(%rip),%eax        # 177d4 <g_870+0x14>
    f2d2:	89 c1                	mov    %eax,%ecx
    f2d4:	8b 45 f4             	mov    -0xc(%rbp),%eax
    f2d7:	89 c2                	mov    %eax,%edx
    f2d9:	48 8d 35 74 31 00 00 	lea    0x3174(%rip),%rsi        # 12454 <g_1342+0x13d4>
    f2e0:	48 89 cf             	mov    %rcx,%rdi
    f2e3:	e8 0b 64 ff ff       	callq  56f3 <transparent_crc>
    f2e8:	48 8b 05 e9 84 00 00 	mov    0x84e9(%rip),%rax        # 177d8 <g_870+0x18>
    f2ef:	48 89 c1             	mov    %rax,%rcx
    f2f2:	8b 45 f4             	mov    -0xc(%rbp),%eax
    f2f5:	89 c2                	mov    %eax,%edx
    f2f7:	48 8d 35 62 31 00 00 	lea    0x3162(%rip),%rsi        # 12460 <g_1342+0x13e0>
    f2fe:	48 89 cf             	mov    %rcx,%rdi
    f301:	e8 ed 63 ff ff       	callq  56f3 <transparent_crc>
    f306:	8b 05 d4 84 00 00    	mov    0x84d4(%rip),%eax        # 177e0 <g_893>
    f30c:	48 98                	cltq   
    f30e:	8b 55 f4             	mov    -0xc(%rbp),%edx
    f311:	48 8d 35 54 31 00 00 	lea    0x3154(%rip),%rsi        # 1246c <g_1342+0x13ec>
    f318:	48 89 c7             	mov    %rax,%rdi
    f31b:	e8 d3 63 ff ff       	callq  56f3 <transparent_crc>
    f320:	48 8b 05 c1 84 00 00 	mov    0x84c1(%rip),%rax        # 177e8 <g_894>
    f327:	48 89 c1             	mov    %rax,%rcx
    f32a:	8b 45 f4             	mov    -0xc(%rbp),%eax
    f32d:	89 c2                	mov    %eax,%edx
    f32f:	48 8d 35 3c 31 00 00 	lea    0x313c(%rip),%rsi        # 12472 <g_1342+0x13f2>
    f336:	48 89 cf             	mov    %rcx,%rdi
    f339:	e8 b5 63 ff ff       	callq  56f3 <transparent_crc>
    f33e:	c7 45 e8 00 00 00 00 	movl   $0x0,-0x18(%rbp)
    f345:	e9 9c 00 00 00       	jmpq   f3e6 <main+0x1a51>
    f34a:	c7 45 ec 00 00 00 00 	movl   $0x0,-0x14(%rbp)
    f351:	e9 82 00 00 00       	jmpq   f3d8 <main+0x1a43>
    f356:	c7 45 f0 00 00 00 00 	movl   $0x0,-0x10(%rbp)
    f35d:	eb 6f                	jmp    f3ce <main+0x1a39>
    f35f:	8b 45 f0             	mov    -0x10(%rbp),%eax
    f362:	48 98                	cltq   
    f364:	8b 55 e8             	mov    -0x18(%rbp),%edx
    f367:	48 63 ca             	movslq %edx,%rcx
    f36a:	8b 55 ec             	mov    -0x14(%rbp),%edx
    f36d:	48 63 d2             	movslq %edx,%rdx
    f370:	48 c1 e1 02          	shl    $0x2,%rcx
    f374:	48 01 ca             	add    %rcx,%rdx
    f377:	48 c1 e2 03          	shl    $0x3,%rdx
    f37b:	48 01 d0             	add    %rdx,%rax
    f37e:	48 8d 14 c5 00 00 00 	lea    0x0(,%rax,8),%rdx
    f385:	00 
    f386:	48 8d 05 73 84 00 00 	lea    0x8473(%rip),%rax        # 17800 <g_896>
    f38d:	48 8b 04 02          	mov    (%rdx,%rax,1),%rax
    f391:	48 89 c1             	mov    %rax,%rcx
    f394:	8b 45 f4             	mov    -0xc(%rbp),%eax
    f397:	89 c2                	mov    %eax,%edx
    f399:	48 8d 35 d8 30 00 00 	lea    0x30d8(%rip),%rsi        # 12478 <g_1342+0x13f8>
    f3a0:	48 89 cf             	mov    %rcx,%rdi
    f3a3:	e8 4b 63 ff ff       	callq  56f3 <transparent_crc>
    f3a8:	83 7d f4 00          	cmpl   $0x0,-0xc(%rbp)
    f3ac:	74 1c                	je     f3ca <main+0x1a35>
    f3ae:	8b 4d f0             	mov    -0x10(%rbp),%ecx
    f3b1:	8b 55 ec             	mov    -0x14(%rbp),%edx
    f3b4:	8b 45 e8             	mov    -0x18(%rbp),%eax
    f3b7:	89 c6                	mov    %eax,%esi
    f3b9:	48 8d 3d dd 29 00 00 	lea    0x29dd(%rip),%rdi        # 11d9d <g_1342+0xd1d>
    f3c0:	b8 00 00 00 00       	mov    $0x0,%eax
    f3c5:	e8 b6 4c ff ff       	callq  4080 <printf@plt>
    f3ca:	83 45 f0 01          	addl   $0x1,-0x10(%rbp)
    f3ce:	83 7d f0 07          	cmpl   $0x7,-0x10(%rbp)
    f3d2:	7e 8b                	jle    f35f <main+0x19ca>
    f3d4:	83 45 ec 01          	addl   $0x1,-0x14(%rbp)
    f3d8:	83 7d ec 03          	cmpl   $0x3,-0x14(%rbp)
    f3dc:	0f 8e 74 ff ff ff    	jle    f356 <main+0x19c1>
    f3e2:	83 45 e8 01          	addl   $0x1,-0x18(%rbp)
    f3e6:	83 7d e8 07          	cmpl   $0x7,-0x18(%rbp)
    f3ea:	0f 8e 5a ff ff ff    	jle    f34a <main+0x19b5>
    f3f0:	8b 05 0a 8c 00 00    	mov    0x8c0a(%rip),%eax        # 18000 <g_899>
    f3f6:	48 98                	cltq   
    f3f8:	8b 55 f4             	mov    -0xc(%rbp),%edx
    f3fb:	48 8d 35 85 30 00 00 	lea    0x3085(%rip),%rsi        # 12487 <g_1342+0x1407>
    f402:	48 89 c7             	mov    %rax,%rdi
    f405:	e8 e9 62 ff ff       	callq  56f3 <transparent_crc>
    f40a:	8b 05 60 aa 00 00    	mov    0xaa60(%rip),%eax        # 19e70 <g_901>
    f410:	48 98                	cltq   
    f412:	8b 55 f4             	mov    -0xc(%rbp),%edx
    f415:	48 8d 35 71 30 00 00 	lea    0x3071(%rip),%rsi        # 1248d <g_1342+0x140d>
    f41c:	48 89 c7             	mov    %rax,%rdi
    f41f:	e8 cf 62 ff ff       	callq  56f3 <transparent_crc>
    f424:	0f b6 05 d9 8b 00 00 	movzbl 0x8bd9(%rip),%eax        # 18004 <g_902>
    f42b:	48 0f be c0          	movsbq %al,%rax
    f42f:	8b 55 f4             	mov    -0xc(%rbp),%edx
    f432:	48 8d 35 5a 30 00 00 	lea    0x305a(%rip),%rsi        # 12493 <g_1342+0x1413>
    f439:	48 89 c7             	mov    %rax,%rdi
    f43c:	e8 b2 62 ff ff       	callq  56f3 <transparent_crc>
    f441:	c7 45 e8 00 00 00 00 	movl   $0x0,-0x18(%rbp)
    f448:	eb 4d                	jmp    f497 <main+0x1b02>
    f44a:	8b 45 e8             	mov    -0x18(%rbp),%eax
    f44d:	48 98                	cltq   
    f44f:	48 8d 14 85 00 00 00 	lea    0x0(,%rax,4),%rdx
    f456:	00 
    f457:	48 8d 05 aa 8b 00 00 	lea    0x8baa(%rip),%rax        # 18008 <g_903>
    f45e:	8b 04 02             	mov    (%rdx,%rax,1),%eax
    f461:	89 c1                	mov    %eax,%ecx
    f463:	8b 45 f4             	mov    -0xc(%rbp),%eax
    f466:	89 c2                	mov    %eax,%edx
    f468:	48 8d 35 2a 30 00 00 	lea    0x302a(%rip),%rsi        # 12499 <g_1342+0x1419>
    f46f:	48 89 cf             	mov    %rcx,%rdi
    f472:	e8 7c 62 ff ff       	callq  56f3 <transparent_crc>
    f477:	83 7d f4 00          	cmpl   $0x0,-0xc(%rbp)
    f47b:	74 16                	je     f493 <main+0x1afe>
    f47d:	8b 45 e8             	mov    -0x18(%rbp),%eax
    f480:	89 c6                	mov    %eax,%esi
    f482:	48 8d 3d 80 2a 00 00 	lea    0x2a80(%rip),%rdi        # 11f09 <g_1342+0xe89>
    f489:	b8 00 00 00 00       	mov    $0x0,%eax
    f48e:	e8 ed 4b ff ff       	callq  4080 <printf@plt>
    f493:	83 45 e8 01          	addl   $0x1,-0x18(%rbp)
    f497:	83 7d e8 00          	cmpl   $0x0,-0x18(%rbp)
    f49b:	7e ad                	jle    f44a <main+0x1ab5>
    f49d:	0f b7 05 7c 8b 00 00 	movzwl 0x8b7c(%rip),%eax        # 18020 <g_948>
    f4a4:	0f b7 c0             	movzwl %ax,%eax
    f4a7:	8b 55 f4             	mov    -0xc(%rbp),%edx
    f4aa:	48 8d 35 f1 2f 00 00 	lea    0x2ff1(%rip),%rsi        # 124a2 <g_1342+0x1422>
    f4b1:	48 89 c7             	mov    %rax,%rdi
    f4b4:	e8 3a 62 ff ff       	callq  56f3 <transparent_crc>
    f4b9:	8b 05 65 8b 00 00    	mov    0x8b65(%rip),%eax        # 18024 <g_948+0x4>
    f4bf:	48 98                	cltq   
    f4c1:	8b 55 f4             	mov    -0xc(%rbp),%edx
    f4c4:	48 8d 35 e3 2f 00 00 	lea    0x2fe3(%rip),%rsi        # 124ae <g_1342+0x142e>
    f4cb:	48 89 c7             	mov    %rax,%rdi
    f4ce:	e8 20 62 ff ff       	callq  56f3 <transparent_crc>
    f4d3:	8b 05 4f 8b 00 00    	mov    0x8b4f(%rip),%eax        # 18028 <g_948+0x8>
    f4d9:	89 c1                	mov    %eax,%ecx
    f4db:	8b 45 f4             	mov    -0xc(%rbp),%eax
    f4de:	89 c2                	mov    %eax,%edx
    f4e0:	48 8d 35 d3 2f 00 00 	lea    0x2fd3(%rip),%rsi        # 124ba <g_1342+0x143a>
    f4e7:	48 89 cf             	mov    %rcx,%rdi
    f4ea:	e8 04 62 ff ff       	callq  56f3 <transparent_crc>
    f4ef:	8b 05 37 8b 00 00    	mov    0x8b37(%rip),%eax        # 1802c <g_948+0xc>
    f4f5:	48 98                	cltq   
    f4f7:	8b 55 f4             	mov    -0xc(%rbp),%edx
    f4fa:	48 8d 35 c5 2f 00 00 	lea    0x2fc5(%rip),%rsi        # 124c6 <g_1342+0x1446>
    f501:	48 89 c7             	mov    %rax,%rdi
    f504:	e8 ea 61 ff ff       	callq  56f3 <transparent_crc>
    f509:	0f b7 05 20 8b 00 00 	movzwl 0x8b20(%rip),%eax        # 18030 <g_948+0x10>
    f510:	0f b7 c0             	movzwl %ax,%eax
    f513:	8b 55 f4             	mov    -0xc(%rbp),%edx
    f516:	48 8d 35 b5 2f 00 00 	lea    0x2fb5(%rip),%rsi        # 124d2 <g_1342+0x1452>
    f51d:	48 89 c7             	mov    %rax,%rdi
    f520:	e8 ce 61 ff ff       	callq  56f3 <transparent_crc>
    f525:	0f b6 05 06 8b 00 00 	movzbl 0x8b06(%rip),%eax        # 18032 <g_948+0x12>
    f52c:	0f b6 c0             	movzbl %al,%eax
    f52f:	8b 55 f4             	mov    -0xc(%rbp),%edx
    f532:	48 8d 35 a5 2f 00 00 	lea    0x2fa5(%rip),%rsi        # 124de <g_1342+0x145e>
    f539:	48 89 c7             	mov    %rax,%rdi
    f53c:	e8 b2 61 ff ff       	callq  56f3 <transparent_crc>
    f541:	8b 05 ed 8a 00 00    	mov    0x8aed(%rip),%eax        # 18034 <g_948+0x14>
    f547:	89 c1                	mov    %eax,%ecx
    f549:	8b 45 f4             	mov    -0xc(%rbp),%eax
    f54c:	89 c2                	mov    %eax,%edx
    f54e:	48 8d 35 95 2f 00 00 	lea    0x2f95(%rip),%rsi        # 124ea <g_1342+0x146a>
    f555:	48 89 cf             	mov    %rcx,%rdi
    f558:	e8 96 61 ff ff       	callq  56f3 <transparent_crc>
    f55d:	48 8b 05 d4 8a 00 00 	mov    0x8ad4(%rip),%rax        # 18038 <g_948+0x18>
    f564:	48 89 c1             	mov    %rax,%rcx
    f567:	8b 45 f4             	mov    -0xc(%rbp),%eax
    f56a:	89 c2                	mov    %eax,%edx
    f56c:	48 8d 35 83 2f 00 00 	lea    0x2f83(%rip),%rsi        # 124f6 <g_1342+0x1476>
    f573:	48 89 cf             	mov    %rcx,%rdi
    f576:	e8 78 61 ff ff       	callq  56f3 <transparent_crc>
    f57b:	c7 45 e8 00 00 00 00 	movl   $0x0,-0x18(%rbp)
    f582:	eb 50                	jmp    f5d4 <main+0x1c3f>
    f584:	8b 45 e8             	mov    -0x18(%rbp),%eax
    f587:	48 98                	cltq   
    f589:	48 c1 e0 05          	shl    $0x5,%rax
    f58d:	48 89 c2             	mov    %rax,%rdx
    f590:	48 8d 05 a9 8a 00 00 	lea    0x8aa9(%rip),%rax        # 18040 <g_950>
    f597:	8b 04 02             	mov    (%rdx,%rax,1),%eax
    f59a:	c1 e0 06             	shl    $0x6,%eax
    f59d:	c1 f8 06             	sar    $0x6,%eax
    f5a0:	48 98                	cltq   
    f5a2:	8b 55 f4             	mov    -0xc(%rbp),%edx
    f5a5:	48 8d 35 56 2f 00 00 	lea    0x2f56(%rip),%rsi        # 12502 <g_1342+0x1482>
    f5ac:	48 89 c7             	mov    %rax,%rdi
    f5af:	e8 3f 61 ff ff       	callq  56f3 <transparent_crc>
    f5b4:	83 7d f4 00          	cmpl   $0x0,-0xc(%rbp)
    f5b8:	74 16                	je     f5d0 <main+0x1c3b>
    f5ba:	8b 45 e8             	mov    -0x18(%rbp),%eax
    f5bd:	89 c6                	mov    %eax,%esi
    f5bf:	48 8d 3d 43 29 00 00 	lea    0x2943(%rip),%rdi        # 11f09 <g_1342+0xe89>
    f5c6:	b8 00 00 00 00       	mov    $0x0,%eax
    f5cb:	e8 b0 4a ff ff       	callq  4080 <printf@plt>
    f5d0:	83 45 e8 01          	addl   $0x1,-0x18(%rbp)
    f5d4:	83 7d e8 07          	cmpl   $0x7,-0x18(%rbp)
    f5d8:	7e aa                	jle    f584 <main+0x1bef>
    f5da:	8b 05 60 8b 00 00    	mov    0x8b60(%rip),%eax        # 18140 <g_951>
    f5e0:	c1 e0 06             	shl    $0x6,%eax
    f5e3:	c1 f8 06             	sar    $0x6,%eax
    f5e6:	48 98                	cltq   
    f5e8:	8b 55 f4             	mov    -0xc(%rbp),%edx
    f5eb:	48 8d 35 1c 2f 00 00 	lea    0x2f1c(%rip),%rsi        # 1250e <g_1342+0x148e>
    f5f2:	48 89 c7             	mov    %rax,%rdi
    f5f5:	e8 f9 60 ff ff       	callq  56f3 <transparent_crc>
    f5fa:	0f b7 05 5f 8b 00 00 	movzwl 0x8b5f(%rip),%eax        # 18160 <g_954>
    f601:	0f b7 c0             	movzwl %ax,%eax
    f604:	8b 55 f4             	mov    -0xc(%rbp),%edx
    f607:	48 8d 35 09 2f 00 00 	lea    0x2f09(%rip),%rsi        # 12517 <g_1342+0x1497>
    f60e:	48 89 c7             	mov    %rax,%rdi
    f611:	e8 dd 60 ff ff       	callq  56f3 <transparent_crc>
    f616:	8b 05 48 8b 00 00    	mov    0x8b48(%rip),%eax        # 18164 <g_954+0x4>
    f61c:	48 98                	cltq   
    f61e:	8b 55 f4             	mov    -0xc(%rbp),%edx
    f621:	48 8d 35 f8 2e 00 00 	lea    0x2ef8(%rip),%rsi        # 12520 <g_1342+0x14a0>
    f628:	48 89 c7             	mov    %rax,%rdi
    f62b:	e8 c3 60 ff ff       	callq  56f3 <transparent_crc>
    f630:	8b 05 32 8b 00 00    	mov    0x8b32(%rip),%eax        # 18168 <g_954+0x8>
    f636:	89 c1                	mov    %eax,%ecx
    f638:	8b 45 f4             	mov    -0xc(%rbp),%eax
    f63b:	89 c2                	mov    %eax,%edx
    f63d:	48 8d 35 e5 2e 00 00 	lea    0x2ee5(%rip),%rsi        # 12529 <g_1342+0x14a9>
    f644:	48 89 cf             	mov    %rcx,%rdi
    f647:	e8 a7 60 ff ff       	callq  56f3 <transparent_crc>
    f64c:	8b 05 1a 8b 00 00    	mov    0x8b1a(%rip),%eax        # 1816c <g_954+0xc>
    f652:	48 98                	cltq   
    f654:	8b 55 f4             	mov    -0xc(%rbp),%edx
    f657:	48 8d 35 d4 2e 00 00 	lea    0x2ed4(%rip),%rsi        # 12532 <g_1342+0x14b2>
    f65e:	48 89 c7             	mov    %rax,%rdi
    f661:	e8 8d 60 ff ff       	callq  56f3 <transparent_crc>
    f666:	0f b7 05 03 8b 00 00 	movzwl 0x8b03(%rip),%eax        # 18170 <g_954+0x10>
    f66d:	0f b7 c0             	movzwl %ax,%eax
    f670:	8b 55 f4             	mov    -0xc(%rbp),%edx
    f673:	48 8d 35 c1 2e 00 00 	lea    0x2ec1(%rip),%rsi        # 1253b <g_1342+0x14bb>
    f67a:	48 89 c7             	mov    %rax,%rdi
    f67d:	e8 71 60 ff ff       	callq  56f3 <transparent_crc>
    f682:	0f b6 05 e9 8a 00 00 	movzbl 0x8ae9(%rip),%eax        # 18172 <g_954+0x12>
    f689:	0f b6 c0             	movzbl %al,%eax
    f68c:	8b 55 f4             	mov    -0xc(%rbp),%edx
    f68f:	48 8d 35 ae 2e 00 00 	lea    0x2eae(%rip),%rsi        # 12544 <g_1342+0x14c4>
    f696:	48 89 c7             	mov    %rax,%rdi
    f699:	e8 55 60 ff ff       	callq  56f3 <transparent_crc>
    f69e:	8b 05 d0 8a 00 00    	mov    0x8ad0(%rip),%eax        # 18174 <g_954+0x14>
    f6a4:	89 c1                	mov    %eax,%ecx
    f6a6:	8b 45 f4             	mov    -0xc(%rbp),%eax
    f6a9:	89 c2                	mov    %eax,%edx
    f6ab:	48 8d 35 9b 2e 00 00 	lea    0x2e9b(%rip),%rsi        # 1254d <g_1342+0x14cd>
    f6b2:	48 89 cf             	mov    %rcx,%rdi
    f6b5:	e8 39 60 ff ff       	callq  56f3 <transparent_crc>
    f6ba:	48 8b 05 b7 8a 00 00 	mov    0x8ab7(%rip),%rax        # 18178 <g_954+0x18>
    f6c1:	48 89 c1             	mov    %rax,%rcx
    f6c4:	8b 45 f4             	mov    -0xc(%rbp),%eax
    f6c7:	89 c2                	mov    %eax,%edx
    f6c9:	48 8d 35 86 2e 00 00 	lea    0x2e86(%rip),%rsi        # 12556 <g_1342+0x14d6>
    f6d0:	48 89 cf             	mov    %rcx,%rdi
    f6d3:	e8 1b 60 ff ff       	callq  56f3 <transparent_crc>
    f6d8:	8b 05 a2 8a 00 00    	mov    0x8aa2(%rip),%eax        # 18180 <g_1009>
    f6de:	48 98                	cltq   
    f6e0:	8b 55 f4             	mov    -0xc(%rbp),%edx
    f6e3:	48 8d 35 75 2e 00 00 	lea    0x2e75(%rip),%rsi        # 1255f <g_1342+0x14df>
    f6ea:	48 89 c7             	mov    %rax,%rdi
    f6ed:	e8 01 60 ff ff       	callq  56f3 <transparent_crc>
    f6f2:	0f b7 05 8b 8a 00 00 	movzwl 0x8a8b(%rip),%eax        # 18184 <g_1052>
    f6f9:	0f b7 c0             	movzwl %ax,%eax
    f6fc:	8b 55 f4             	mov    -0xc(%rbp),%edx
    f6ff:	48 8d 35 60 2e 00 00 	lea    0x2e60(%rip),%rsi        # 12566 <g_1342+0x14e6>
    f706:	48 89 c7             	mov    %rax,%rdi
    f709:	e8 e5 5f ff ff       	callq  56f3 <transparent_crc>
    f70e:	48 8b 05 6b a7 00 00 	mov    0xa76b(%rip),%rax        # 19e80 <g_1090>
    f715:	8b 55 f4             	mov    -0xc(%rbp),%edx
    f718:	48 8d 35 4e 2e 00 00 	lea    0x2e4e(%rip),%rsi        # 1256d <g_1342+0x14ed>
    f71f:	48 89 c7             	mov    %rax,%rdi
    f722:	e8 cc 5f ff ff       	callq  56f3 <transparent_crc>
    f727:	0f b7 05 58 8a 00 00 	movzwl 0x8a58(%rip),%eax        # 18186 <g_1176>
    f72e:	0f b7 c0             	movzwl %ax,%eax
    f731:	8b 55 f4             	mov    -0xc(%rbp),%edx
    f734:	48 8d 35 39 2e 00 00 	lea    0x2e39(%rip),%rsi        # 12574 <g_1342+0x14f4>
    f73b:	48 89 c7             	mov    %rax,%rdi
    f73e:	e8 b0 5f ff ff       	callq  56f3 <transparent_crc>
    f743:	b8 a6 38 00 00       	mov    $0x38a6,%eax
    f748:	48 0f bf c0          	movswq %ax,%rax
    f74c:	8b 55 f4             	mov    -0xc(%rbp),%edx
    f74f:	48 8d 35 25 2e 00 00 	lea    0x2e25(%rip),%rsi        # 1257b <g_1342+0x14fb>
    f756:	48 89 c7             	mov    %rax,%rdi
    f759:	e8 95 5f ff ff       	callq  56f3 <transparent_crc>
    f75e:	0f b7 05 3b 8a 00 00 	movzwl 0x8a3b(%rip),%eax        # 181a0 <g_1299>
    f765:	0f b7 c0             	movzwl %ax,%eax
    f768:	8b 55 f4             	mov    -0xc(%rbp),%edx
    f76b:	48 8d 35 10 2e 00 00 	lea    0x2e10(%rip),%rsi        # 12582 <g_1342+0x1502>
    f772:	48 89 c7             	mov    %rax,%rdi
    f775:	e8 79 5f ff ff       	callq  56f3 <transparent_crc>
    f77a:	8b 05 24 8a 00 00    	mov    0x8a24(%rip),%eax        # 181a4 <g_1299+0x4>
    f780:	48 98                	cltq   
    f782:	8b 55 f4             	mov    -0xc(%rbp),%edx
    f785:	48 8d 35 00 2e 00 00 	lea    0x2e00(%rip),%rsi        # 1258c <g_1342+0x150c>
    f78c:	48 89 c7             	mov    %rax,%rdi
    f78f:	e8 5f 5f ff ff       	callq  56f3 <transparent_crc>
    f794:	8b 05 0e 8a 00 00    	mov    0x8a0e(%rip),%eax        # 181a8 <g_1299+0x8>
    f79a:	89 c1                	mov    %eax,%ecx
    f79c:	8b 45 f4             	mov    -0xc(%rbp),%eax
    f79f:	89 c2                	mov    %eax,%edx
    f7a1:	48 8d 35 ee 2d 00 00 	lea    0x2dee(%rip),%rsi        # 12596 <g_1342+0x1516>
    f7a8:	48 89 cf             	mov    %rcx,%rdi
    f7ab:	e8 43 5f ff ff       	callq  56f3 <transparent_crc>
    f7b0:	8b 05 f6 89 00 00    	mov    0x89f6(%rip),%eax        # 181ac <g_1299+0xc>
    f7b6:	48 98                	cltq   
    f7b8:	8b 55 f4             	mov    -0xc(%rbp),%edx
    f7bb:	48 8d 35 de 2d 00 00 	lea    0x2dde(%rip),%rsi        # 125a0 <g_1342+0x1520>
    f7c2:	48 89 c7             	mov    %rax,%rdi
    f7c5:	e8 29 5f ff ff       	callq  56f3 <transparent_crc>
    f7ca:	0f b7 05 df 89 00 00 	movzwl 0x89df(%rip),%eax        # 181b0 <g_1299+0x10>
    f7d1:	0f b7 c0             	movzwl %ax,%eax
    f7d4:	8b 55 f4             	mov    -0xc(%rbp),%edx
    f7d7:	48 8d 35 cc 2d 00 00 	lea    0x2dcc(%rip),%rsi        # 125aa <g_1342+0x152a>
    f7de:	48 89 c7             	mov    %rax,%rdi
    f7e1:	e8 0d 5f ff ff       	callq  56f3 <transparent_crc>
    f7e6:	0f b6 05 c5 89 00 00 	movzbl 0x89c5(%rip),%eax        # 181b2 <g_1299+0x12>
    f7ed:	0f b6 c0             	movzbl %al,%eax
    f7f0:	8b 55 f4             	mov    -0xc(%rbp),%edx
    f7f3:	48 8d 35 ba 2d 00 00 	lea    0x2dba(%rip),%rsi        # 125b4 <g_1342+0x1534>
    f7fa:	48 89 c7             	mov    %rax,%rdi
    f7fd:	e8 f1 5e ff ff       	callq  56f3 <transparent_crc>
    f802:	8b 05 ac 89 00 00    	mov    0x89ac(%rip),%eax        # 181b4 <g_1299+0x14>
    f808:	89 c1                	mov    %eax,%ecx
    f80a:	8b 45 f4             	mov    -0xc(%rbp),%eax
    f80d:	89 c2                	mov    %eax,%edx
    f80f:	48 8d 35 a8 2d 00 00 	lea    0x2da8(%rip),%rsi        # 125be <g_1342+0x153e>
    f816:	48 89 cf             	mov    %rcx,%rdi
    f819:	e8 d5 5e ff ff       	callq  56f3 <transparent_crc>
    f81e:	48 8b 05 93 89 00 00 	mov    0x8993(%rip),%rax        # 181b8 <g_1299+0x18>
    f825:	48 89 c1             	mov    %rax,%rcx
    f828:	8b 45 f4             	mov    -0xc(%rbp),%eax
    f82b:	89 c2                	mov    %eax,%edx
    f82d:	48 8d 35 94 2d 00 00 	lea    0x2d94(%rip),%rsi        # 125c8 <g_1342+0x1548>
    f834:	48 89 cf             	mov    %rcx,%rdi
    f837:	e8 b7 5e ff ff       	callq  56f3 <transparent_crc>
    f83c:	0f b7 05 7d 89 00 00 	movzwl 0x897d(%rip),%eax        # 181c0 <g_1302>
    f843:	0f b7 c0             	movzwl %ax,%eax
    f846:	8b 55 f4             	mov    -0xc(%rbp),%edx
    f849:	48 8d 35 82 2d 00 00 	lea    0x2d82(%rip),%rsi        # 125d2 <g_1342+0x1552>
    f850:	48 89 c7             	mov    %rax,%rdi
    f853:	e8 9b 5e ff ff       	callq  56f3 <transparent_crc>
    f858:	8b 05 66 89 00 00    	mov    0x8966(%rip),%eax        # 181c4 <g_1302+0x4>
    f85e:	48 98                	cltq   
    f860:	8b 55 f4             	mov    -0xc(%rbp),%edx
    f863:	48 8d 35 72 2d 00 00 	lea    0x2d72(%rip),%rsi        # 125dc <g_1342+0x155c>
    f86a:	48 89 c7             	mov    %rax,%rdi
    f86d:	e8 81 5e ff ff       	callq  56f3 <transparent_crc>
    f872:	8b 05 50 89 00 00    	mov    0x8950(%rip),%eax        # 181c8 <g_1302+0x8>
    f878:	89 c1                	mov    %eax,%ecx
    f87a:	8b 45 f4             	mov    -0xc(%rbp),%eax
    f87d:	89 c2                	mov    %eax,%edx
    f87f:	48 8d 35 60 2d 00 00 	lea    0x2d60(%rip),%rsi        # 125e6 <g_1342+0x1566>
    f886:	48 89 cf             	mov    %rcx,%rdi
    f889:	e8 65 5e ff ff       	callq  56f3 <transparent_crc>
    f88e:	8b 05 38 89 00 00    	mov    0x8938(%rip),%eax        # 181cc <g_1302+0xc>
    f894:	48 98                	cltq   
    f896:	8b 55 f4             	mov    -0xc(%rbp),%edx
    f899:	48 8d 35 50 2d 00 00 	lea    0x2d50(%rip),%rsi        # 125f0 <g_1342+0x1570>
    f8a0:	48 89 c7             	mov    %rax,%rdi
    f8a3:	e8 4b 5e ff ff       	callq  56f3 <transparent_crc>
    f8a8:	0f b7 05 21 89 00 00 	movzwl 0x8921(%rip),%eax        # 181d0 <g_1302+0x10>
    f8af:	0f b7 c0             	movzwl %ax,%eax
    f8b2:	8b 55 f4             	mov    -0xc(%rbp),%edx
    f8b5:	48 8d 35 3e 2d 00 00 	lea    0x2d3e(%rip),%rsi        # 125fa <g_1342+0x157a>
    f8bc:	48 89 c7             	mov    %rax,%rdi
    f8bf:	e8 2f 5e ff ff       	callq  56f3 <transparent_crc>
    f8c4:	0f b6 05 07 89 00 00 	movzbl 0x8907(%rip),%eax        # 181d2 <g_1302+0x12>
    f8cb:	0f b6 c0             	movzbl %al,%eax
    f8ce:	8b 55 f4             	mov    -0xc(%rbp),%edx
    f8d1:	48 8d 35 2c 2d 00 00 	lea    0x2d2c(%rip),%rsi        # 12604 <g_1342+0x1584>
    f8d8:	48 89 c7             	mov    %rax,%rdi
    f8db:	e8 13 5e ff ff       	callq  56f3 <transparent_crc>
    f8e0:	8b 05 ee 88 00 00    	mov    0x88ee(%rip),%eax        # 181d4 <g_1302+0x14>
    f8e6:	89 c1                	mov    %eax,%ecx
    f8e8:	8b 45 f4             	mov    -0xc(%rbp),%eax
    f8eb:	89 c2                	mov    %eax,%edx
    f8ed:	48 8d 35 1a 2d 00 00 	lea    0x2d1a(%rip),%rsi        # 1260e <g_1342+0x158e>
    f8f4:	48 89 cf             	mov    %rcx,%rdi
    f8f7:	e8 f7 5d ff ff       	callq  56f3 <transparent_crc>
    f8fc:	48 8b 05 d5 88 00 00 	mov    0x88d5(%rip),%rax        # 181d8 <g_1302+0x18>
    f903:	48 89 c1             	mov    %rax,%rcx
    f906:	8b 45 f4             	mov    -0xc(%rbp),%eax
    f909:	89 c2                	mov    %eax,%edx
    f90b:	48 8d 35 06 2d 00 00 	lea    0x2d06(%rip),%rsi        # 12618 <g_1342+0x1598>
    f912:	48 89 cf             	mov    %rcx,%rdi
    f915:	e8 d9 5d ff ff       	callq  56f3 <transparent_crc>
    f91a:	c7 45 e8 00 00 00 00 	movl   $0x0,-0x18(%rbp)
    f921:	e9 b4 00 00 00       	jmpq   f9da <main+0x2045>
    f926:	c7 45 ec 00 00 00 00 	movl   $0x0,-0x14(%rbp)
    f92d:	e9 9a 00 00 00       	jmpq   f9cc <main+0x2037>
    f932:	c7 45 f0 00 00 00 00 	movl   $0x0,-0x10(%rbp)
    f939:	e9 80 00 00 00       	jmpq   f9be <main+0x2029>
    f93e:	8b 45 f0             	mov    -0x10(%rbp),%eax
    f941:	48 63 f0             	movslq %eax,%rsi
    f944:	8b 45 e8             	mov    -0x18(%rbp),%eax
    f947:	48 63 d0             	movslq %eax,%rdx
    f94a:	8b 45 ec             	mov    -0x14(%rbp),%eax
    f94d:	48 63 c8             	movslq %eax,%rcx
    f950:	48 89 d0             	mov    %rdx,%rax
    f953:	48 01 c0             	add    %rax,%rax
    f956:	48 01 d0             	add    %rdx,%rax
    f959:	48 8d 14 c5 00 00 00 	lea    0x0(,%rax,8),%rdx
    f960:	00 
    f961:	48 01 d0             	add    %rdx,%rax
    f964:	48 89 ca             	mov    %rcx,%rdx
    f967:	48 01 d2             	add    %rdx,%rdx
    f96a:	48 01 ca             	add    %rcx,%rdx
    f96d:	48 01 d0             	add    %rdx,%rax
    f970:	48 01 f0             	add    %rsi,%rax
    f973:	48 8d 14 00          	lea    (%rax,%rax,1),%rdx
    f977:	48 8d 05 62 88 00 00 	lea    0x8862(%rip),%rax        # 181e0 <g_1311>
    f97e:	0f b7 04 02          	movzwl (%rdx,%rax,1),%eax
    f982:	48 0f bf c0          	movswq %ax,%rax
    f986:	8b 55 f4             	mov    -0xc(%rbp),%edx
    f989:	48 8d 35 92 2c 00 00 	lea    0x2c92(%rip),%rsi        # 12622 <g_1342+0x15a2>
    f990:	48 89 c7             	mov    %rax,%rdi
    f993:	e8 5b 5d ff ff       	callq  56f3 <transparent_crc>
    f998:	83 7d f4 00          	cmpl   $0x0,-0xc(%rbp)
    f99c:	74 1c                	je     f9ba <main+0x2025>
    f99e:	8b 4d f0             	mov    -0x10(%rbp),%ecx
    f9a1:	8b 55 ec             	mov    -0x14(%rbp),%edx
    f9a4:	8b 45 e8             	mov    -0x18(%rbp),%eax
    f9a7:	89 c6                	mov    %eax,%esi
    f9a9:	48 8d 3d ed 23 00 00 	lea    0x23ed(%rip),%rdi        # 11d9d <g_1342+0xd1d>
    f9b0:	b8 00 00 00 00       	mov    $0x0,%eax
    f9b5:	e8 c6 46 ff ff       	callq  4080 <printf@plt>
    f9ba:	83 45 f0 01          	addl   $0x1,-0x10(%rbp)
    f9be:	83 7d f0 02          	cmpl   $0x2,-0x10(%rbp)
    f9c2:	0f 8e 76 ff ff ff    	jle    f93e <main+0x1fa9>
    f9c8:	83 45 ec 01          	addl   $0x1,-0x14(%rbp)
    f9cc:	83 7d ec 08          	cmpl   $0x8,-0x14(%rbp)
    f9d0:	0f 8e 5c ff ff ff    	jle    f932 <main+0x1f9d>
    f9d6:	83 45 e8 01          	addl   $0x1,-0x18(%rbp)
    f9da:	83 7d e8 07          	cmpl   $0x7,-0x18(%rbp)
    f9de:	0f 8e 42 ff ff ff    	jle    f926 <main+0x1f91>
    f9e4:	b8 f9 ff ff ff       	mov    $0xfffffff9,%eax
    f9e9:	48 98                	cltq   
    f9eb:	8b 55 f4             	mov    -0xc(%rbp),%edx
    f9ee:	48 8d 35 3d 2c 00 00 	lea    0x2c3d(%rip),%rsi        # 12632 <g_1342+0x15b2>
    f9f5:	48 89 c7             	mov    %rax,%rdi
    f9f8:	e8 f6 5c ff ff       	callq  56f3 <transparent_crc>
    f9fd:	8b 05 8d 89 00 00    	mov    0x898d(%rip),%eax        # 18390 <g_1351>
    fa03:	48 98                	cltq   
    fa05:	8b 55 f4             	mov    -0xc(%rbp),%edx
    fa08:	48 8d 35 2d 2c 00 00 	lea    0x2c2d(%rip),%rsi        # 1263c <g_1342+0x15bc>
    fa0f:	48 89 c7             	mov    %rax,%rdi
    fa12:	e8 dc 5c ff ff       	callq  56f3 <transparent_crc>
    fa17:	48 8b 05 82 89 00 00 	mov    0x8982(%rip),%rax        # 183a0 <g_1352>
    fa1e:	c1 e0 06             	shl    $0x6,%eax
    fa21:	c1 f8 06             	sar    $0x6,%eax
    fa24:	48 98                	cltq   
    fa26:	8b 55 f4             	mov    -0xc(%rbp),%edx
    fa29:	48 8d 35 13 2c 00 00 	lea    0x2c13(%rip),%rsi        # 12643 <g_1342+0x15c3>
    fa30:	48 89 c7             	mov    %rax,%rdi
    fa33:	e8 bb 5c ff ff       	callq  56f3 <transparent_crc>
    fa38:	0f b7 05 81 89 00 00 	movzwl 0x8981(%rip),%eax        # 183c0 <g_1374>
    fa3f:	0f b7 c0             	movzwl %ax,%eax
    fa42:	8b 55 f4             	mov    -0xc(%rbp),%edx
    fa45:	48 8d 35 01 2c 00 00 	lea    0x2c01(%rip),%rsi        # 1264d <g_1342+0x15cd>
    fa4c:	48 89 c7             	mov    %rax,%rdi
    fa4f:	e8 9f 5c ff ff       	callq  56f3 <transparent_crc>
    fa54:	8b 05 6a 89 00 00    	mov    0x896a(%rip),%eax        # 183c4 <g_1374+0x4>
    fa5a:	48 98                	cltq   
    fa5c:	8b 55 f4             	mov    -0xc(%rbp),%edx
    fa5f:	48 8d 35 f4 2b 00 00 	lea    0x2bf4(%rip),%rsi        # 1265a <g_1342+0x15da>
    fa66:	48 89 c7             	mov    %rax,%rdi
    fa69:	e8 85 5c ff ff       	callq  56f3 <transparent_crc>
    fa6e:	8b 05 54 89 00 00    	mov    0x8954(%rip),%eax        # 183c8 <g_1374+0x8>
    fa74:	89 c1                	mov    %eax,%ecx
    fa76:	8b 45 f4             	mov    -0xc(%rbp),%eax
    fa79:	89 c2                	mov    %eax,%edx
    fa7b:	48 8d 35 e5 2b 00 00 	lea    0x2be5(%rip),%rsi        # 12667 <g_1342+0x15e7>
    fa82:	48 89 cf             	mov    %rcx,%rdi
    fa85:	e8 69 5c ff ff       	callq  56f3 <transparent_crc>
    fa8a:	8b 05 3c 89 00 00    	mov    0x893c(%rip),%eax        # 183cc <g_1374+0xc>
    fa90:	48 98                	cltq   
    fa92:	8b 55 f4             	mov    -0xc(%rbp),%edx
    fa95:	48 8d 35 d8 2b 00 00 	lea    0x2bd8(%rip),%rsi        # 12674 <g_1342+0x15f4>
    fa9c:	48 89 c7             	mov    %rax,%rdi
    fa9f:	e8 4f 5c ff ff       	callq  56f3 <transparent_crc>
    faa4:	0f b7 05 25 89 00 00 	movzwl 0x8925(%rip),%eax        # 183d0 <g_1374+0x10>
    faab:	0f b7 c0             	movzwl %ax,%eax
    faae:	8b 55 f4             	mov    -0xc(%rbp),%edx
    fab1:	48 8d 35 c9 2b 00 00 	lea    0x2bc9(%rip),%rsi        # 12681 <g_1342+0x1601>
    fab8:	48 89 c7             	mov    %rax,%rdi
    fabb:	e8 33 5c ff ff       	callq  56f3 <transparent_crc>
    fac0:	0f b6 05 0b 89 00 00 	movzbl 0x890b(%rip),%eax        # 183d2 <g_1374+0x12>
    fac7:	0f b6 c0             	movzbl %al,%eax
    faca:	8b 55 f4             	mov    -0xc(%rbp),%edx
    facd:	48 8d 35 ba 2b 00 00 	lea    0x2bba(%rip),%rsi        # 1268e <g_1342+0x160e>
    fad4:	48 89 c7             	mov    %rax,%rdi
    fad7:	e8 17 5c ff ff       	callq  56f3 <transparent_crc>
    fadc:	8b 05 f2 88 00 00    	mov    0x88f2(%rip),%eax        # 183d4 <g_1374+0x14>
    fae2:	89 c1                	mov    %eax,%ecx
    fae4:	8b 45 f4             	mov    -0xc(%rbp),%eax
    fae7:	89 c2                	mov    %eax,%edx
    fae9:	48 8d 35 ab 2b 00 00 	lea    0x2bab(%rip),%rsi        # 1269b <g_1342+0x161b>
    faf0:	48 89 cf             	mov    %rcx,%rdi
    faf3:	e8 fb 5b ff ff       	callq  56f3 <transparent_crc>
    faf8:	48 8b 05 d9 88 00 00 	mov    0x88d9(%rip),%rax        # 183d8 <g_1374+0x18>
    faff:	48 89 c1             	mov    %rax,%rcx
    fb02:	8b 45 f4             	mov    -0xc(%rbp),%eax
    fb05:	89 c2                	mov    %eax,%edx
    fb07:	48 8d 35 9a 2b 00 00 	lea    0x2b9a(%rip),%rsi        # 126a8 <g_1342+0x1628>
    fb0e:	48 89 cf             	mov    %rcx,%rdi
    fb11:	e8 dd 5b ff ff       	callq  56f3 <transparent_crc>
    fb16:	0f b7 05 c3 88 00 00 	movzwl 0x88c3(%rip),%eax        # 183e0 <g_1378>
    fb1d:	0f b7 c0             	movzwl %ax,%eax
    fb20:	8b 55 f4             	mov    -0xc(%rbp),%edx
    fb23:	48 8d 35 8b 2b 00 00 	lea    0x2b8b(%rip),%rsi        # 126b5 <g_1342+0x1635>
    fb2a:	48 89 c7             	mov    %rax,%rdi
    fb2d:	e8 c1 5b ff ff       	callq  56f3 <transparent_crc>
    fb32:	0f b6 05 a9 88 00 00 	movzbl 0x88a9(%rip),%eax        # 183e2 <g_1393>
    fb39:	0f b6 c0             	movzbl %al,%eax
    fb3c:	8b 55 f4             	mov    -0xc(%rbp),%edx
    fb3f:	48 8d 35 76 2b 00 00 	lea    0x2b76(%rip),%rsi        # 126bc <g_1342+0x163c>
    fb46:	48 89 c7             	mov    %rax,%rdi
    fb49:	e8 a5 5b ff ff       	callq  56f3 <transparent_crc>
    fb4e:	0f b7 05 ab 88 00 00 	movzwl 0x88ab(%rip),%eax        # 18400 <g_1433>
    fb55:	0f b7 c0             	movzwl %ax,%eax
    fb58:	8b 55 f4             	mov    -0xc(%rbp),%edx
    fb5b:	48 8d 35 61 2b 00 00 	lea    0x2b61(%rip),%rsi        # 126c3 <g_1342+0x1643>
    fb62:	48 89 c7             	mov    %rax,%rdi
    fb65:	e8 89 5b ff ff       	callq  56f3 <transparent_crc>
    fb6a:	8b 05 94 88 00 00    	mov    0x8894(%rip),%eax        # 18404 <g_1433+0x4>
    fb70:	48 98                	cltq   
    fb72:	8b 55 f4             	mov    -0xc(%rbp),%edx
    fb75:	48 8d 35 54 2b 00 00 	lea    0x2b54(%rip),%rsi        # 126d0 <g_1342+0x1650>
    fb7c:	48 89 c7             	mov    %rax,%rdi
    fb7f:	e8 6f 5b ff ff       	callq  56f3 <transparent_crc>
    fb84:	8b 05 7e 88 00 00    	mov    0x887e(%rip),%eax        # 18408 <g_1433+0x8>
    fb8a:	89 c1                	mov    %eax,%ecx
    fb8c:	8b 45 f4             	mov    -0xc(%rbp),%eax
    fb8f:	89 c2                	mov    %eax,%edx
    fb91:	48 8d 35 45 2b 00 00 	lea    0x2b45(%rip),%rsi        # 126dd <g_1342+0x165d>
    fb98:	48 89 cf             	mov    %rcx,%rdi
    fb9b:	e8 53 5b ff ff       	callq  56f3 <transparent_crc>
    fba0:	8b 05 66 88 00 00    	mov    0x8866(%rip),%eax        # 1840c <g_1433+0xc>
    fba6:	48 98                	cltq   
    fba8:	8b 55 f4             	mov    -0xc(%rbp),%edx
    fbab:	48 8d 35 38 2b 00 00 	lea    0x2b38(%rip),%rsi        # 126ea <g_1342+0x166a>
    fbb2:	48 89 c7             	mov    %rax,%rdi
    fbb5:	e8 39 5b ff ff       	callq  56f3 <transparent_crc>
    fbba:	0f b7 05 4f 88 00 00 	movzwl 0x884f(%rip),%eax        # 18410 <g_1433+0x10>
    fbc1:	0f b7 c0             	movzwl %ax,%eax
    fbc4:	8b 55 f4             	mov    -0xc(%rbp),%edx
    fbc7:	48 8d 35 29 2b 00 00 	lea    0x2b29(%rip),%rsi        # 126f7 <g_1342+0x1677>
    fbce:	48 89 c7             	mov    %rax,%rdi
    fbd1:	e8 1d 5b ff ff       	callq  56f3 <transparent_crc>
    fbd6:	0f b6 05 35 88 00 00 	movzbl 0x8835(%rip),%eax        # 18412 <g_1433+0x12>
    fbdd:	0f b6 c0             	movzbl %al,%eax
    fbe0:	8b 55 f4             	mov    -0xc(%rbp),%edx
    fbe3:	48 8d 35 1a 2b 00 00 	lea    0x2b1a(%rip),%rsi        # 12704 <g_1342+0x1684>
    fbea:	48 89 c7             	mov    %rax,%rdi
    fbed:	e8 01 5b ff ff       	callq  56f3 <transparent_crc>
    fbf2:	8b 05 1c 88 00 00    	mov    0x881c(%rip),%eax        # 18414 <g_1433+0x14>
    fbf8:	89 c1                	mov    %eax,%ecx
    fbfa:	8b 45 f4             	mov    -0xc(%rbp),%eax
    fbfd:	89 c2                	mov    %eax,%edx
    fbff:	48 8d 35 0b 2b 00 00 	lea    0x2b0b(%rip),%rsi        # 12711 <g_1342+0x1691>
    fc06:	48 89 cf             	mov    %rcx,%rdi
    fc09:	e8 e5 5a ff ff       	callq  56f3 <transparent_crc>
    fc0e:	48 8b 05 03 88 00 00 	mov    0x8803(%rip),%rax        # 18418 <g_1433+0x18>
    fc15:	48 89 c1             	mov    %rax,%rcx
    fc18:	8b 45 f4             	mov    -0xc(%rbp),%eax
    fc1b:	89 c2                	mov    %eax,%edx
    fc1d:	48 8d 35 fa 2a 00 00 	lea    0x2afa(%rip),%rsi        # 1271e <g_1342+0x169e>
    fc24:	48 89 cf             	mov    %rcx,%rdi
    fc27:	e8 c7 5a ff ff       	callq  56f3 <transparent_crc>
    fc2c:	0f b7 05 ed 87 00 00 	movzwl 0x87ed(%rip),%eax        # 18420 <g_1441>
    fc33:	0f b7 c0             	movzwl %ax,%eax
    fc36:	8b 55 f4             	mov    -0xc(%rbp),%edx
    fc39:	48 8d 35 eb 2a 00 00 	lea    0x2aeb(%rip),%rsi        # 1272b <g_1342+0x16ab>
    fc40:	48 89 c7             	mov    %rax,%rdi
    fc43:	e8 ab 5a ff ff       	callq  56f3 <transparent_crc>
    fc48:	8b 05 d6 87 00 00    	mov    0x87d6(%rip),%eax        # 18424 <g_1441+0x4>
    fc4e:	48 98                	cltq   
    fc50:	8b 55 f4             	mov    -0xc(%rbp),%edx
    fc53:	48 8d 35 db 2a 00 00 	lea    0x2adb(%rip),%rsi        # 12735 <g_1342+0x16b5>
    fc5a:	48 89 c7             	mov    %rax,%rdi
    fc5d:	e8 91 5a ff ff       	callq  56f3 <transparent_crc>
    fc62:	8b 05 c0 87 00 00    	mov    0x87c0(%rip),%eax        # 18428 <g_1441+0x8>
    fc68:	89 c1                	mov    %eax,%ecx
    fc6a:	8b 45 f4             	mov    -0xc(%rbp),%eax
    fc6d:	89 c2                	mov    %eax,%edx
    fc6f:	48 8d 35 c9 2a 00 00 	lea    0x2ac9(%rip),%rsi        # 1273f <g_1342+0x16bf>
    fc76:	48 89 cf             	mov    %rcx,%rdi
    fc79:	e8 75 5a ff ff       	callq  56f3 <transparent_crc>
    fc7e:	8b 05 a8 87 00 00    	mov    0x87a8(%rip),%eax        # 1842c <g_1441+0xc>
    fc84:	48 98                	cltq   
    fc86:	8b 55 f4             	mov    -0xc(%rbp),%edx
    fc89:	48 8d 35 b9 2a 00 00 	lea    0x2ab9(%rip),%rsi        # 12749 <g_1342+0x16c9>
    fc90:	48 89 c7             	mov    %rax,%rdi
    fc93:	e8 5b 5a ff ff       	callq  56f3 <transparent_crc>
    fc98:	0f b7 05 91 87 00 00 	movzwl 0x8791(%rip),%eax        # 18430 <g_1441+0x10>
    fc9f:	0f b7 c0             	movzwl %ax,%eax
    fca2:	8b 55 f4             	mov    -0xc(%rbp),%edx
    fca5:	48 8d 35 a7 2a 00 00 	lea    0x2aa7(%rip),%rsi        # 12753 <g_1342+0x16d3>
    fcac:	48 89 c7             	mov    %rax,%rdi
    fcaf:	e8 3f 5a ff ff       	callq  56f3 <transparent_crc>
    fcb4:	0f b6 05 77 87 00 00 	movzbl 0x8777(%rip),%eax        # 18432 <g_1441+0x12>
    fcbb:	0f b6 c0             	movzbl %al,%eax
    fcbe:	8b 55 f4             	mov    -0xc(%rbp),%edx
    fcc1:	48 8d 35 95 2a 00 00 	lea    0x2a95(%rip),%rsi        # 1275d <g_1342+0x16dd>
    fcc8:	48 89 c7             	mov    %rax,%rdi
    fccb:	e8 23 5a ff ff       	callq  56f3 <transparent_crc>
    fcd0:	8b 05 5e 87 00 00    	mov    0x875e(%rip),%eax        # 18434 <g_1441+0x14>
    fcd6:	89 c1                	mov    %eax,%ecx
    fcd8:	8b 45 f4             	mov    -0xc(%rbp),%eax
    fcdb:	89 c2                	mov    %eax,%edx
    fcdd:	48 8d 35 83 2a 00 00 	lea    0x2a83(%rip),%rsi        # 12767 <g_1342+0x16e7>
    fce4:	48 89 cf             	mov    %rcx,%rdi
    fce7:	e8 07 5a ff ff       	callq  56f3 <transparent_crc>
    fcec:	48 8b 05 45 87 00 00 	mov    0x8745(%rip),%rax        # 18438 <g_1441+0x18>
    fcf3:	48 89 c1             	mov    %rax,%rcx
    fcf6:	8b 45 f4             	mov    -0xc(%rbp),%eax
    fcf9:	89 c2                	mov    %eax,%edx
    fcfb:	48 8d 35 6f 2a 00 00 	lea    0x2a6f(%rip),%rsi        # 12771 <g_1342+0x16f1>
    fd02:	48 89 cf             	mov    %rcx,%rdi
    fd05:	e8 e9 59 ff ff       	callq  56f3 <transparent_crc>
    fd0a:	8b 05 30 87 00 00    	mov    0x8730(%rip),%eax        # 18440 <g_1469>
    fd10:	89 c1                	mov    %eax,%ecx
    fd12:	8b 45 f4             	mov    -0xc(%rbp),%eax
    fd15:	89 c2                	mov    %eax,%edx
    fd17:	48 8d 35 5d 2a 00 00 	lea    0x2a5d(%rip),%rsi        # 1277b <g_1342+0x16fb>
    fd1e:	48 89 cf             	mov    %rcx,%rdi
    fd21:	e8 cd 59 ff ff       	callq  56f3 <transparent_crc>
    fd26:	0f b7 05 33 87 00 00 	movzwl 0x8733(%rip),%eax        # 18460 <g_1558>
    fd2d:	0f b7 c0             	movzwl %ax,%eax
    fd30:	8b 55 f4             	mov    -0xc(%rbp),%edx
    fd33:	48 8d 35 48 2a 00 00 	lea    0x2a48(%rip),%rsi        # 12782 <g_1342+0x1702>
    fd3a:	48 89 c7             	mov    %rax,%rdi
    fd3d:	e8 b1 59 ff ff       	callq  56f3 <transparent_crc>
    fd42:	8b 05 1c 87 00 00    	mov    0x871c(%rip),%eax        # 18464 <g_1558+0x4>
    fd48:	48 98                	cltq   
    fd4a:	8b 55 f4             	mov    -0xc(%rbp),%edx
    fd4d:	48 8d 35 3b 2a 00 00 	lea    0x2a3b(%rip),%rsi        # 1278f <g_1342+0x170f>
    fd54:	48 89 c7             	mov    %rax,%rdi
    fd57:	e8 97 59 ff ff       	callq  56f3 <transparent_crc>
    fd5c:	8b 05 06 87 00 00    	mov    0x8706(%rip),%eax        # 18468 <g_1558+0x8>
    fd62:	89 c1                	mov    %eax,%ecx
    fd64:	8b 45 f4             	mov    -0xc(%rbp),%eax
    fd67:	89 c2                	mov    %eax,%edx
    fd69:	48 8d 35 2c 2a 00 00 	lea    0x2a2c(%rip),%rsi        # 1279c <g_1342+0x171c>
    fd70:	48 89 cf             	mov    %rcx,%rdi
    fd73:	e8 7b 59 ff ff       	callq  56f3 <transparent_crc>
    fd78:	8b 05 ee 86 00 00    	mov    0x86ee(%rip),%eax        # 1846c <g_1558+0xc>
    fd7e:	48 98                	cltq   
    fd80:	8b 55 f4             	mov    -0xc(%rbp),%edx
    fd83:	48 8d 35 1f 2a 00 00 	lea    0x2a1f(%rip),%rsi        # 127a9 <g_1342+0x1729>
    fd8a:	48 89 c7             	mov    %rax,%rdi
    fd8d:	e8 61 59 ff ff       	callq  56f3 <transparent_crc>
    fd92:	0f b7 05 d7 86 00 00 	movzwl 0x86d7(%rip),%eax        # 18470 <g_1558+0x10>
    fd99:	0f b7 c0             	movzwl %ax,%eax
    fd9c:	8b 55 f4             	mov    -0xc(%rbp),%edx
    fd9f:	48 8d 35 10 2a 00 00 	lea    0x2a10(%rip),%rsi        # 127b6 <g_1342+0x1736>
    fda6:	48 89 c7             	mov    %rax,%rdi
    fda9:	e8 45 59 ff ff       	callq  56f3 <transparent_crc>
    fdae:	0f b6 05 bd 86 00 00 	movzbl 0x86bd(%rip),%eax        # 18472 <g_1558+0x12>
    fdb5:	0f b6 c0             	movzbl %al,%eax
    fdb8:	8b 55 f4             	mov    -0xc(%rbp),%edx
    fdbb:	48 8d 35 01 2a 00 00 	lea    0x2a01(%rip),%rsi        # 127c3 <g_1342+0x1743>
    fdc2:	48 89 c7             	mov    %rax,%rdi
    fdc5:	e8 29 59 ff ff       	callq  56f3 <transparent_crc>
    fdca:	8b 05 a4 86 00 00    	mov    0x86a4(%rip),%eax        # 18474 <g_1558+0x14>
    fdd0:	89 c1                	mov    %eax,%ecx
    fdd2:	8b 45 f4             	mov    -0xc(%rbp),%eax
    fdd5:	89 c2                	mov    %eax,%edx
    fdd7:	48 8d 35 f2 29 00 00 	lea    0x29f2(%rip),%rsi        # 127d0 <g_1342+0x1750>
    fdde:	48 89 cf             	mov    %rcx,%rdi
    fde1:	e8 0d 59 ff ff       	callq  56f3 <transparent_crc>
    fde6:	48 8b 05 8b 86 00 00 	mov    0x868b(%rip),%rax        # 18478 <g_1558+0x18>
    fded:	48 89 c1             	mov    %rax,%rcx
    fdf0:	8b 45 f4             	mov    -0xc(%rbp),%eax
    fdf3:	89 c2                	mov    %eax,%edx
    fdf5:	48 8d 35 e1 29 00 00 	lea    0x29e1(%rip),%rsi        # 127dd <g_1342+0x175d>
    fdfc:	48 89 cf             	mov    %rcx,%rdi
    fdff:	e8 ef 58 ff ff       	callq  56f3 <transparent_crc>
    fe04:	0f b7 05 75 86 00 00 	movzwl 0x8675(%rip),%eax        # 18480 <g_1577>
    fe0b:	0f b7 c0             	movzwl %ax,%eax
    fe0e:	8b 55 f4             	mov    -0xc(%rbp),%edx
    fe11:	48 8d 35 d2 29 00 00 	lea    0x29d2(%rip),%rsi        # 127ea <g_1342+0x176a>
    fe18:	48 89 c7             	mov    %rax,%rdi
    fe1b:	e8 d3 58 ff ff       	callq  56f3 <transparent_crc>
    fe20:	8b 05 5e 86 00 00    	mov    0x865e(%rip),%eax        # 18484 <g_1577+0x4>
    fe26:	48 98                	cltq   
    fe28:	8b 55 f4             	mov    -0xc(%rbp),%edx
    fe2b:	48 8d 35 c5 29 00 00 	lea    0x29c5(%rip),%rsi        # 127f7 <g_1342+0x1777>
    fe32:	48 89 c7             	mov    %rax,%rdi
    fe35:	e8 b9 58 ff ff       	callq  56f3 <transparent_crc>
    fe3a:	8b 05 48 86 00 00    	mov    0x8648(%rip),%eax        # 18488 <g_1577+0x8>
    fe40:	89 c1                	mov    %eax,%ecx
    fe42:	8b 45 f4             	mov    -0xc(%rbp),%eax
    fe45:	89 c2                	mov    %eax,%edx
    fe47:	48 8d 35 b6 29 00 00 	lea    0x29b6(%rip),%rsi        # 12804 <g_1342+0x1784>
    fe4e:	48 89 cf             	mov    %rcx,%rdi
    fe51:	e8 9d 58 ff ff       	callq  56f3 <transparent_crc>
    fe56:	8b 05 30 86 00 00    	mov    0x8630(%rip),%eax        # 1848c <g_1577+0xc>
    fe5c:	48 98                	cltq   
    fe5e:	8b 55 f4             	mov    -0xc(%rbp),%edx
    fe61:	48 8d 35 a9 29 00 00 	lea    0x29a9(%rip),%rsi        # 12811 <g_1342+0x1791>
    fe68:	48 89 c7             	mov    %rax,%rdi
    fe6b:	e8 83 58 ff ff       	callq  56f3 <transparent_crc>
    fe70:	0f b7 05 19 86 00 00 	movzwl 0x8619(%rip),%eax        # 18490 <g_1577+0x10>
    fe77:	0f b7 c0             	movzwl %ax,%eax
    fe7a:	8b 55 f4             	mov    -0xc(%rbp),%edx
    fe7d:	48 8d 35 9a 29 00 00 	lea    0x299a(%rip),%rsi        # 1281e <g_1342+0x179e>
    fe84:	48 89 c7             	mov    %rax,%rdi
    fe87:	e8 67 58 ff ff       	callq  56f3 <transparent_crc>
    fe8c:	0f b6 05 ff 85 00 00 	movzbl 0x85ff(%rip),%eax        # 18492 <g_1577+0x12>
    fe93:	0f b6 c0             	movzbl %al,%eax
    fe96:	8b 55 f4             	mov    -0xc(%rbp),%edx
    fe99:	48 8d 35 8b 29 00 00 	lea    0x298b(%rip),%rsi        # 1282b <g_1342+0x17ab>
    fea0:	48 89 c7             	mov    %rax,%rdi
    fea3:	e8 4b 58 ff ff       	callq  56f3 <transparent_crc>
    fea8:	8b 05 e6 85 00 00    	mov    0x85e6(%rip),%eax        # 18494 <g_1577+0x14>
    feae:	89 c1                	mov    %eax,%ecx
    feb0:	8b 45 f4             	mov    -0xc(%rbp),%eax
    feb3:	89 c2                	mov    %eax,%edx
    feb5:	48 8d 35 7c 29 00 00 	lea    0x297c(%rip),%rsi        # 12838 <g_1342+0x17b8>
    febc:	48 89 cf             	mov    %rcx,%rdi
    febf:	e8 2f 58 ff ff       	callq  56f3 <transparent_crc>
    fec4:	48 8b 05 cd 85 00 00 	mov    0x85cd(%rip),%rax        # 18498 <g_1577+0x18>
    fecb:	48 89 c1             	mov    %rax,%rcx
    fece:	8b 45 f4             	mov    -0xc(%rbp),%eax
    fed1:	89 c2                	mov    %eax,%edx
    fed3:	48 8d 35 6b 29 00 00 	lea    0x296b(%rip),%rsi        # 12845 <g_1342+0x17c5>
    feda:	48 89 cf             	mov    %rcx,%rdi
    fedd:	e8 11 58 ff ff       	callq  56f3 <transparent_crc>
    fee2:	0f b7 05 b7 85 00 00 	movzwl 0x85b7(%rip),%eax        # 184a0 <g_1663>
    fee9:	0f b7 c0             	movzwl %ax,%eax
    feec:	8b 55 f4             	mov    -0xc(%rbp),%edx
    feef:	48 8d 35 5c 29 00 00 	lea    0x295c(%rip),%rsi        # 12852 <g_1342+0x17d2>
    fef6:	48 89 c7             	mov    %rax,%rdi
    fef9:	e8 f5 57 ff ff       	callq  56f3 <transparent_crc>
    fefe:	8b 05 a0 85 00 00    	mov    0x85a0(%rip),%eax        # 184a4 <g_1663+0x4>
    ff04:	48 98                	cltq   
    ff06:	8b 55 f4             	mov    -0xc(%rbp),%edx
    ff09:	48 8d 35 4f 29 00 00 	lea    0x294f(%rip),%rsi        # 1285f <g_1342+0x17df>
    ff10:	48 89 c7             	mov    %rax,%rdi
    ff13:	e8 db 57 ff ff       	callq  56f3 <transparent_crc>
    ff18:	8b 05 8a 85 00 00    	mov    0x858a(%rip),%eax        # 184a8 <g_1663+0x8>
    ff1e:	89 c1                	mov    %eax,%ecx
    ff20:	8b 45 f4             	mov    -0xc(%rbp),%eax
    ff23:	89 c2                	mov    %eax,%edx
    ff25:	48 8d 35 40 29 00 00 	lea    0x2940(%rip),%rsi        # 1286c <g_1342+0x17ec>
    ff2c:	48 89 cf             	mov    %rcx,%rdi
    ff2f:	e8 bf 57 ff ff       	callq  56f3 <transparent_crc>
    ff34:	8b 05 72 85 00 00    	mov    0x8572(%rip),%eax        # 184ac <g_1663+0xc>
    ff3a:	48 98                	cltq   
    ff3c:	8b 55 f4             	mov    -0xc(%rbp),%edx
    ff3f:	48 8d 35 33 29 00 00 	lea    0x2933(%rip),%rsi        # 12879 <g_1342+0x17f9>
    ff46:	48 89 c7             	mov    %rax,%rdi
    ff49:	e8 a5 57 ff ff       	callq  56f3 <transparent_crc>
    ff4e:	0f b7 05 5b 85 00 00 	movzwl 0x855b(%rip),%eax        # 184b0 <g_1663+0x10>
    ff55:	0f b7 c0             	movzwl %ax,%eax
    ff58:	8b 55 f4             	mov    -0xc(%rbp),%edx
    ff5b:	48 8d 35 24 29 00 00 	lea    0x2924(%rip),%rsi        # 12886 <g_1342+0x1806>
    ff62:	48 89 c7             	mov    %rax,%rdi
    ff65:	e8 89 57 ff ff       	callq  56f3 <transparent_crc>
    ff6a:	0f b6 05 41 85 00 00 	movzbl 0x8541(%rip),%eax        # 184b2 <g_1663+0x12>
    ff71:	0f b6 c0             	movzbl %al,%eax
    ff74:	8b 55 f4             	mov    -0xc(%rbp),%edx
    ff77:	48 8d 35 15 29 00 00 	lea    0x2915(%rip),%rsi        # 12893 <g_1342+0x1813>
    ff7e:	48 89 c7             	mov    %rax,%rdi
    ff81:	e8 6d 57 ff ff       	callq  56f3 <transparent_crc>
    ff86:	8b 05 28 85 00 00    	mov    0x8528(%rip),%eax        # 184b4 <g_1663+0x14>
    ff8c:	89 c1                	mov    %eax,%ecx
    ff8e:	8b 45 f4             	mov    -0xc(%rbp),%eax
    ff91:	89 c2                	mov    %eax,%edx
    ff93:	48 8d 35 06 29 00 00 	lea    0x2906(%rip),%rsi        # 128a0 <g_1342+0x1820>
    ff9a:	48 89 cf             	mov    %rcx,%rdi
    ff9d:	e8 51 57 ff ff       	callq  56f3 <transparent_crc>
    ffa2:	48 8b 05 0f 85 00 00 	mov    0x850f(%rip),%rax        # 184b8 <g_1663+0x18>
    ffa9:	48 89 c1             	mov    %rax,%rcx
    ffac:	8b 45 f4             	mov    -0xc(%rbp),%eax
    ffaf:	89 c2                	mov    %eax,%edx
    ffb1:	48 8d 35 f5 28 00 00 	lea    0x28f5(%rip),%rsi        # 128ad <g_1342+0x182d>
    ffb8:	48 89 cf             	mov    %rcx,%rdi
    ffbb:	e8 33 57 ff ff       	callq  56f3 <transparent_crc>
    ffc0:	8b 05 fa 84 00 00    	mov    0x84fa(%rip),%eax        # 184c0 <g_1695>
    ffc6:	c1 e0 06             	shl    $0x6,%eax
    ffc9:	c1 f8 06             	sar    $0x6,%eax
    ffcc:	48 98                	cltq   
    ffce:	8b 55 f4             	mov    -0xc(%rbp),%edx
    ffd1:	48 8d 35 e2 28 00 00 	lea    0x28e2(%rip),%rsi        # 128ba <g_1342+0x183a>
    ffd8:	48 89 c7             	mov    %rax,%rdi
    ffdb:	e8 13 57 ff ff       	callq  56f3 <transparent_crc>
    ffe0:	0f b7 05 f9 84 00 00 	movzwl 0x84f9(%rip),%eax        # 184e0 <g_1750>
    ffe7:	0f b7 c0             	movzwl %ax,%eax
    ffea:	8b 55 f4             	mov    -0xc(%rbp),%edx
    ffed:	48 8d 35 d0 28 00 00 	lea    0x28d0(%rip),%rsi        # 128c4 <g_1342+0x1844>
    fff4:	48 89 c7             	mov    %rax,%rdi
    fff7:	e8 f7 56 ff ff       	callq  56f3 <transparent_crc>
    fffc:	8b 05 e2 84 00 00    	mov    0x84e2(%rip),%eax        # 184e4 <g_1750+0x4>
   10002:	48 98                	cltq   
   10004:	8b 55 f4             	mov    -0xc(%rbp),%edx
   10007:	48 8d 35 c3 28 00 00 	lea    0x28c3(%rip),%rsi        # 128d1 <g_1342+0x1851>
   1000e:	48 89 c7             	mov    %rax,%rdi
   10011:	e8 dd 56 ff ff       	callq  56f3 <transparent_crc>
   10016:	8b 05 cc 84 00 00    	mov    0x84cc(%rip),%eax        # 184e8 <g_1750+0x8>
   1001c:	89 c1                	mov    %eax,%ecx
   1001e:	8b 45 f4             	mov    -0xc(%rbp),%eax
   10021:	89 c2                	mov    %eax,%edx
   10023:	48 8d 35 b4 28 00 00 	lea    0x28b4(%rip),%rsi        # 128de <g_1342+0x185e>
   1002a:	48 89 cf             	mov    %rcx,%rdi
   1002d:	e8 c1 56 ff ff       	callq  56f3 <transparent_crc>
   10032:	8b 05 b4 84 00 00    	mov    0x84b4(%rip),%eax        # 184ec <g_1750+0xc>
   10038:	48 98                	cltq   
   1003a:	8b 55 f4             	mov    -0xc(%rbp),%edx
   1003d:	48 8d 35 a7 28 00 00 	lea    0x28a7(%rip),%rsi        # 128eb <g_1342+0x186b>
   10044:	48 89 c7             	mov    %rax,%rdi
   10047:	e8 a7 56 ff ff       	callq  56f3 <transparent_crc>
   1004c:	0f b7 05 9d 84 00 00 	movzwl 0x849d(%rip),%eax        # 184f0 <g_1750+0x10>
   10053:	0f b7 c0             	movzwl %ax,%eax
   10056:	8b 55 f4             	mov    -0xc(%rbp),%edx
   10059:	48 8d 35 98 28 00 00 	lea    0x2898(%rip),%rsi        # 128f8 <g_1342+0x1878>
   10060:	48 89 c7             	mov    %rax,%rdi
   10063:	e8 8b 56 ff ff       	callq  56f3 <transparent_crc>
   10068:	0f b6 05 83 84 00 00 	movzbl 0x8483(%rip),%eax        # 184f2 <g_1750+0x12>
   1006f:	0f b6 c0             	movzbl %al,%eax
   10072:	8b 55 f4             	mov    -0xc(%rbp),%edx
   10075:	48 8d 35 89 28 00 00 	lea    0x2889(%rip),%rsi        # 12905 <g_1342+0x1885>
   1007c:	48 89 c7             	mov    %rax,%rdi
   1007f:	e8 6f 56 ff ff       	callq  56f3 <transparent_crc>
   10084:	8b 05 6a 84 00 00    	mov    0x846a(%rip),%eax        # 184f4 <g_1750+0x14>
   1008a:	89 c1                	mov    %eax,%ecx
   1008c:	8b 45 f4             	mov    -0xc(%rbp),%eax
   1008f:	89 c2                	mov    %eax,%edx
   10091:	48 8d 35 7a 28 00 00 	lea    0x287a(%rip),%rsi        # 12912 <g_1342+0x1892>
   10098:	48 89 cf             	mov    %rcx,%rdi
   1009b:	e8 53 56 ff ff       	callq  56f3 <transparent_crc>
   100a0:	48 8b 05 51 84 00 00 	mov    0x8451(%rip),%rax        # 184f8 <g_1750+0x18>
   100a7:	48 89 c1             	mov    %rax,%rcx
   100aa:	8b 45 f4             	mov    -0xc(%rbp),%eax
   100ad:	89 c2                	mov    %eax,%edx
   100af:	48 8d 35 69 28 00 00 	lea    0x2869(%rip),%rsi        # 1291f <g_1342+0x189f>
   100b6:	48 89 cf             	mov    %rcx,%rdi
   100b9:	e8 35 56 ff ff       	callq  56f3 <transparent_crc>
   100be:	0f b7 05 3b 84 00 00 	movzwl 0x843b(%rip),%eax        # 18500 <g_1758>
   100c5:	0f b7 c0             	movzwl %ax,%eax
   100c8:	8b 55 f4             	mov    -0xc(%rbp),%edx
   100cb:	48 8d 35 5a 28 00 00 	lea    0x285a(%rip),%rsi        # 1292c <g_1342+0x18ac>
   100d2:	48 89 c7             	mov    %rax,%rdi
   100d5:	e8 19 56 ff ff       	callq  56f3 <transparent_crc>
   100da:	8b 05 24 84 00 00    	mov    0x8424(%rip),%eax        # 18504 <g_1758+0x4>
   100e0:	48 98                	cltq   
   100e2:	8b 55 f4             	mov    -0xc(%rbp),%edx
   100e5:	48 8d 35 4d 28 00 00 	lea    0x284d(%rip),%rsi        # 12939 <g_1342+0x18b9>
   100ec:	48 89 c7             	mov    %rax,%rdi
   100ef:	e8 ff 55 ff ff       	callq  56f3 <transparent_crc>
   100f4:	8b 05 0e 84 00 00    	mov    0x840e(%rip),%eax        # 18508 <g_1758+0x8>
   100fa:	89 c1                	mov    %eax,%ecx
   100fc:	8b 45 f4             	mov    -0xc(%rbp),%eax
   100ff:	89 c2                	mov    %eax,%edx
   10101:	48 8d 35 3e 28 00 00 	lea    0x283e(%rip),%rsi        # 12946 <g_1342+0x18c6>
   10108:	48 89 cf             	mov    %rcx,%rdi
   1010b:	e8 e3 55 ff ff       	callq  56f3 <transparent_crc>
   10110:	8b 05 f6 83 00 00    	mov    0x83f6(%rip),%eax        # 1850c <g_1758+0xc>
   10116:	48 98                	cltq   
   10118:	8b 55 f4             	mov    -0xc(%rbp),%edx
   1011b:	48 8d 35 31 28 00 00 	lea    0x2831(%rip),%rsi        # 12953 <g_1342+0x18d3>
   10122:	48 89 c7             	mov    %rax,%rdi
   10125:	e8 c9 55 ff ff       	callq  56f3 <transparent_crc>
   1012a:	0f b7 05 df 83 00 00 	movzwl 0x83df(%rip),%eax        # 18510 <g_1758+0x10>
   10131:	0f b7 c0             	movzwl %ax,%eax
   10134:	8b 55 f4             	mov    -0xc(%rbp),%edx
   10137:	48 8d 35 22 28 00 00 	lea    0x2822(%rip),%rsi        # 12960 <g_1342+0x18e0>
   1013e:	48 89 c7             	mov    %rax,%rdi
   10141:	e8 ad 55 ff ff       	callq  56f3 <transparent_crc>
   10146:	0f b6 05 c5 83 00 00 	movzbl 0x83c5(%rip),%eax        # 18512 <g_1758+0x12>
   1014d:	0f b6 c0             	movzbl %al,%eax
   10150:	8b 55 f4             	mov    -0xc(%rbp),%edx
   10153:	48 8d 35 13 28 00 00 	lea    0x2813(%rip),%rsi        # 1296d <g_1342+0x18ed>
   1015a:	48 89 c7             	mov    %rax,%rdi
   1015d:	e8 91 55 ff ff       	callq  56f3 <transparent_crc>
   10162:	8b 05 ac 83 00 00    	mov    0x83ac(%rip),%eax        # 18514 <g_1758+0x14>
   10168:	89 c1                	mov    %eax,%ecx
   1016a:	8b 45 f4             	mov    -0xc(%rbp),%eax
   1016d:	89 c2                	mov    %eax,%edx
   1016f:	48 8d 35 04 28 00 00 	lea    0x2804(%rip),%rsi        # 1297a <g_1342+0x18fa>
   10176:	48 89 cf             	mov    %rcx,%rdi
   10179:	e8 75 55 ff ff       	callq  56f3 <transparent_crc>
   1017e:	48 8b 05 93 83 00 00 	mov    0x8393(%rip),%rax        # 18518 <g_1758+0x18>
   10185:	48 89 c1             	mov    %rax,%rcx
   10188:	8b 45 f4             	mov    -0xc(%rbp),%eax
   1018b:	89 c2                	mov    %eax,%edx
   1018d:	48 8d 35 f3 27 00 00 	lea    0x27f3(%rip),%rsi        # 12987 <g_1342+0x1907>
   10194:	48 89 cf             	mov    %rcx,%rdi
   10197:	e8 57 55 ff ff       	callq  56f3 <transparent_crc>
   1019c:	48 8b 05 7d 83 00 00 	mov    0x837d(%rip),%rax        # 18520 <g_1767>
   101a3:	48 89 c1             	mov    %rax,%rcx
   101a6:	8b 45 f4             	mov    -0xc(%rbp),%eax
   101a9:	89 c2                	mov    %eax,%edx
   101ab:	48 8d 35 e2 27 00 00 	lea    0x27e2(%rip),%rsi        # 12994 <g_1342+0x1914>
   101b2:	48 89 cf             	mov    %rcx,%rdi
   101b5:	e8 39 55 ff ff       	callq  56f3 <transparent_crc>
   101ba:	48 8b 05 7f 83 00 00 	mov    0x837f(%rip),%rax        # 18540 <g_1799>
   101c1:	c1 e0 06             	shl    $0x6,%eax
   101c4:	c1 f8 06             	sar    $0x6,%eax
   101c7:	48 98                	cltq   
   101c9:	8b 55 f4             	mov    -0xc(%rbp),%edx
   101cc:	48 8d 35 c8 27 00 00 	lea    0x27c8(%rip),%rsi        # 1299b <g_1342+0x191b>
   101d3:	48 89 c7             	mov    %rax,%rdi
   101d6:	e8 18 55 ff ff       	callq  56f3 <transparent_crc>
   101db:	48 8b 05 7e 83 00 00 	mov    0x837e(%rip),%rax        # 18560 <g_1802>
   101e2:	c1 e0 06             	shl    $0x6,%eax
   101e5:	c1 f8 06             	sar    $0x6,%eax
   101e8:	48 98                	cltq   
   101ea:	8b 55 f4             	mov    -0xc(%rbp),%edx
   101ed:	48 8d 35 b1 27 00 00 	lea    0x27b1(%rip),%rsi        # 129a5 <g_1342+0x1925>
   101f4:	48 89 c7             	mov    %rax,%rdi
   101f7:	e8 f7 54 ff ff       	callq  56f3 <transparent_crc>
   101fc:	0f b7 05 7d 83 00 00 	movzwl 0x837d(%rip),%eax        # 18580 <g_1813>
   10203:	48 0f bf c0          	movswq %ax,%rax
   10207:	8b 55 f4             	mov    -0xc(%rbp),%edx
   1020a:	48 8d 35 9e 27 00 00 	lea    0x279e(%rip),%rsi        # 129af <g_1342+0x192f>
   10211:	48 89 c7             	mov    %rax,%rdi
   10214:	e8 da 54 ff ff       	callq  56f3 <transparent_crc>
   10219:	0f b7 05 80 83 00 00 	movzwl 0x8380(%rip),%eax        # 185a0 <g_1830>
   10220:	0f b7 c0             	movzwl %ax,%eax
   10223:	8b 55 f4             	mov    -0xc(%rbp),%edx
   10226:	48 8d 35 89 27 00 00 	lea    0x2789(%rip),%rsi        # 129b6 <g_1342+0x1936>
   1022d:	48 89 c7             	mov    %rax,%rdi
   10230:	e8 be 54 ff ff       	callq  56f3 <transparent_crc>
   10235:	8b 05 69 83 00 00    	mov    0x8369(%rip),%eax        # 185a4 <g_1830+0x4>
   1023b:	48 98                	cltq   
   1023d:	8b 55 f4             	mov    -0xc(%rbp),%edx
   10240:	48 8d 35 7c 27 00 00 	lea    0x277c(%rip),%rsi        # 129c3 <g_1342+0x1943>
   10247:	48 89 c7             	mov    %rax,%rdi
   1024a:	e8 a4 54 ff ff       	callq  56f3 <transparent_crc>
   1024f:	8b 05 53 83 00 00    	mov    0x8353(%rip),%eax        # 185a8 <g_1830+0x8>
   10255:	89 c1                	mov    %eax,%ecx
   10257:	8b 45 f4             	mov    -0xc(%rbp),%eax
   1025a:	89 c2                	mov    %eax,%edx
   1025c:	48 8d 35 6d 27 00 00 	lea    0x276d(%rip),%rsi        # 129d0 <g_1342+0x1950>
   10263:	48 89 cf             	mov    %rcx,%rdi
   10266:	e8 88 54 ff ff       	callq  56f3 <transparent_crc>
   1026b:	8b 05 3b 83 00 00    	mov    0x833b(%rip),%eax        # 185ac <g_1830+0xc>
   10271:	48 98                	cltq   
   10273:	8b 55 f4             	mov    -0xc(%rbp),%edx
   10276:	48 8d 35 60 27 00 00 	lea    0x2760(%rip),%rsi        # 129dd <g_1342+0x195d>
   1027d:	48 89 c7             	mov    %rax,%rdi
   10280:	e8 6e 54 ff ff       	callq  56f3 <transparent_crc>
   10285:	0f b7 05 24 83 00 00 	movzwl 0x8324(%rip),%eax        # 185b0 <g_1830+0x10>
   1028c:	0f b7 c0             	movzwl %ax,%eax
   1028f:	8b 55 f4             	mov    -0xc(%rbp),%edx
   10292:	48 8d 35 51 27 00 00 	lea    0x2751(%rip),%rsi        # 129ea <g_1342+0x196a>
   10299:	48 89 c7             	mov    %rax,%rdi
   1029c:	e8 52 54 ff ff       	callq  56f3 <transparent_crc>
   102a1:	0f b6 05 0a 83 00 00 	movzbl 0x830a(%rip),%eax        # 185b2 <g_1830+0x12>
   102a8:	0f b6 c0             	movzbl %al,%eax
   102ab:	8b 55 f4             	mov    -0xc(%rbp),%edx
   102ae:	48 8d 35 42 27 00 00 	lea    0x2742(%rip),%rsi        # 129f7 <g_1342+0x1977>
   102b5:	48 89 c7             	mov    %rax,%rdi
   102b8:	e8 36 54 ff ff       	callq  56f3 <transparent_crc>
   102bd:	8b 05 f1 82 00 00    	mov    0x82f1(%rip),%eax        # 185b4 <g_1830+0x14>
   102c3:	89 c1                	mov    %eax,%ecx
   102c5:	8b 45 f4             	mov    -0xc(%rbp),%eax
   102c8:	89 c2                	mov    %eax,%edx
   102ca:	48 8d 35 33 27 00 00 	lea    0x2733(%rip),%rsi        # 12a04 <g_1342+0x1984>
   102d1:	48 89 cf             	mov    %rcx,%rdi
   102d4:	e8 1a 54 ff ff       	callq  56f3 <transparent_crc>
   102d9:	48 8b 05 d8 82 00 00 	mov    0x82d8(%rip),%rax        # 185b8 <g_1830+0x18>
   102e0:	48 89 c1             	mov    %rax,%rcx
   102e3:	8b 45 f4             	mov    -0xc(%rbp),%eax
   102e6:	89 c2                	mov    %eax,%edx
   102e8:	48 8d 35 22 27 00 00 	lea    0x2722(%rip),%rsi        # 12a11 <g_1342+0x1991>
   102ef:	48 89 cf             	mov    %rcx,%rdi
   102f2:	e8 fc 53 ff ff       	callq  56f3 <transparent_crc>
   102f7:	8b 05 23 4d 00 00    	mov    0x4d23(%rip),%eax        # 15020 <crc32_context>
   102fd:	f7 d0                	not    %eax
   102ff:	89 c2                	mov    %eax,%edx
   10301:	8b 45 f4             	mov    -0xc(%rbp),%eax
   10304:	89 c6                	mov    %eax,%esi
   10306:	89 d7                	mov    %edx,%edi
   10308:	e8 87 3e ff ff       	callq  4194 <platform_main_end>
   1030d:	b8 00 00 00 00       	mov    $0x0,%eax
   10312:	48 8b 4d f8          	mov    -0x8(%rbp),%rcx
   10316:	64 48 33 0c 25 28 00 	xor    %fs:0x28,%rcx
   1031d:	00 00 
   1031f:	74 05                	je     10326 <main+0x2991>
   10321:	e8 4a 3d ff ff       	callq  4070 <__stack_chk_fail@plt>
   10326:	c9                   	leaveq 
   10327:	c3                   	retq   
   10328:	0f 1f 84 00 00 00 00 	nopl   0x0(%rax,%rax,1)
   1032f:	00 

0000000000010330 <__libc_csu_init>:
   10330:	f3 0f 1e fa          	endbr64 
   10334:	41 57                	push   %r15
   10336:	4c 8d 3d 43 4a 00 00 	lea    0x4a43(%rip),%r15        # 14d80 <__frame_dummy_init_array_entry>
   1033d:	41 56                	push   %r14
   1033f:	49 89 d6             	mov    %rdx,%r14
   10342:	41 55                	push   %r13
   10344:	49 89 f5             	mov    %rsi,%r13
   10347:	41 54                	push   %r12
   10349:	41 89 fc             	mov    %edi,%r12d
   1034c:	55                   	push   %rbp
   1034d:	48 8d 2d 34 4a 00 00 	lea    0x4a34(%rip),%rbp        # 14d88 <__do_global_dtors_aux_fini_array_entry>
   10354:	53                   	push   %rbx
   10355:	4c 29 fd             	sub    %r15,%rbp
   10358:	48 83 ec 08          	sub    $0x8,%rsp
   1035c:	e8 9f 3c ff ff       	callq  4000 <_init>
   10361:	48 c1 fd 03          	sar    $0x3,%rbp
   10365:	74 1f                	je     10386 <__libc_csu_init+0x56>
   10367:	31 db                	xor    %ebx,%ebx
   10369:	0f 1f 80 00 00 00 00 	nopl   0x0(%rax)
   10370:	4c 89 f2             	mov    %r14,%rdx
   10373:	4c 89 ee             	mov    %r13,%rsi
   10376:	44 89 e7             	mov    %r12d,%edi
   10379:	41 ff 14 df          	callq  *(%r15,%rbx,8)
   1037d:	48 83 c3 01          	add    $0x1,%rbx
   10381:	48 39 dd             	cmp    %rbx,%rbp
   10384:	75 ea                	jne    10370 <__libc_csu_init+0x40>
   10386:	48 83 c4 08          	add    $0x8,%rsp
   1038a:	5b                   	pop    %rbx
   1038b:	5d                   	pop    %rbp
   1038c:	41 5c                	pop    %r12
   1038e:	41 5d                	pop    %r13
   10390:	41 5e                	pop    %r14
   10392:	41 5f                	pop    %r15
   10394:	c3                   	retq   
   10395:	66 66 2e 0f 1f 84 00 	data16 nopw %cs:0x0(%rax,%rax,1)
   1039c:	00 00 00 00 

00000000000103a0 <__libc_csu_fini>:
   103a0:	f3 0f 1e fa          	endbr64 
   103a4:	c3                   	retq   
