


Disassembly of section .text:

000000000000b0a0 <_start>:
    b0a0:	f3 0f 1e fa          	endbr64 
    b0a4:	31 ed                	xor    %ebp,%ebp
    b0a6:	49 89 d1             	mov    %rdx,%r9
    b0a9:	5e                   	pop    %rsi
    b0aa:	48 89 e2             	mov    %rsp,%rdx
    b0ad:	48 83 e4 f0          	and    $0xfffffffffffffff0,%rsp
    b0b1:	50                   	push   %rax
    b0b2:	54                   	push   %rsp
    b0b3:	4c 8d 05 16 34 01 00 	lea    0x13416(%rip),%r8        # 1e4d0 <__libc_csu_fini>
    b0ba:	48 8d 0d 9f 33 01 00 	lea    0x1339f(%rip),%rcx        # 1e460 <__libc_csu_init>
    b0c1:	48 8d 3d ce 26 01 00 	lea    0x126ce(%rip),%rdi        # 1d796 <main>
    b0c8:	ff 15 fa 8e 01 00    	callq  *0x18efa(%rip)        # 23fc8 <__libc_start_main@GLIBC_2.2.5>
    b0ce:	f4                   	hlt    
    b0cf:	90                   	nop

000000000000b0d0 <deregister_tm_clones>:
    b0d0:	48 8d 3d 39 d7 01 00 	lea    0x1d739(%rip),%rdi        # 28810 <__TMC_END__>
    b0d7:	48 8d 05 32 d7 01 00 	lea    0x1d732(%rip),%rax        # 28810 <__TMC_END__>
    b0de:	48 39 f8             	cmp    %rdi,%rax
    b0e1:	74 15                	je     b0f8 <deregister_tm_clones+0x28>
    b0e3:	48 8b 05 d6 8e 01 00 	mov    0x18ed6(%rip),%rax        # 23fc0 <_ITM_deregisterTMCloneTable>
    b0ea:	48 85 c0             	test   %rax,%rax
    b0ed:	74 09                	je     b0f8 <deregister_tm_clones+0x28>
    b0ef:	ff e0                	jmpq   *%rax
    b0f1:	0f 1f 80 00 00 00 00 	nopl   0x0(%rax)
    b0f8:	c3                   	retq   
    b0f9:	0f 1f 80 00 00 00 00 	nopl   0x0(%rax)

000000000000b100 <register_tm_clones>:
    b100:	48 8d 3d 09 d7 01 00 	lea    0x1d709(%rip),%rdi        # 28810 <__TMC_END__>
    b107:	48 8d 35 02 d7 01 00 	lea    0x1d702(%rip),%rsi        # 28810 <__TMC_END__>
    b10e:	48 29 fe             	sub    %rdi,%rsi
    b111:	48 89 f0             	mov    %rsi,%rax
    b114:	48 c1 ee 3f          	shr    $0x3f,%rsi
    b118:	48 c1 f8 03          	sar    $0x3,%rax
    b11c:	48 01 c6             	add    %rax,%rsi
    b11f:	48 d1 fe             	sar    %rsi
    b122:	74 14                	je     b138 <register_tm_clones+0x38>
    b124:	48 8b 05 ad 8e 01 00 	mov    0x18ead(%rip),%rax        # 23fd8 <_ITM_registerTMCloneTable>
    b12b:	48 85 c0             	test   %rax,%rax
    b12e:	74 08                	je     b138 <register_tm_clones+0x38>
    b130:	ff e0                	jmpq   *%rax
    b132:	66 0f 1f 44 00 00    	nopw   0x0(%rax,%rax,1)
    b138:	c3                   	retq   
    b139:	0f 1f 80 00 00 00 00 	nopl   0x0(%rax)

000000000000b140 <__do_global_dtors_aux>:
    b140:	f3 0f 1e fa          	endbr64 
    b144:	80 3d d5 d6 01 00 00 	cmpb   $0x0,0x1d6d5(%rip)        # 28820 <completed.8061>
    b14b:	75 2b                	jne    b178 <__do_global_dtors_aux+0x38>
    b14d:	55                   	push   %rbp
    b14e:	48 83 3d 8a 8e 01 00 	cmpq   $0x0,0x18e8a(%rip)        # 23fe0 <__cxa_finalize@GLIBC_2.2.5>
    b155:	00 
    b156:	48 89 e5             	mov    %rsp,%rbp
    b159:	74 0c                	je     b167 <__do_global_dtors_aux+0x27>
    b15b:	48 8b 3d a6 8e 01 00 	mov    0x18ea6(%rip),%rdi        # 24008 <__dso_handle>
    b162:	e8 f9 fe ff ff       	callq  b060 <__cxa_finalize@plt>
    b167:	e8 64 ff ff ff       	callq  b0d0 <deregister_tm_clones>
    b16c:	c6 05 ad d6 01 00 01 	movb   $0x1,0x1d6ad(%rip)        # 28820 <completed.8061>
    b173:	5d                   	pop    %rbp
    b174:	c3                   	retq   
    b175:	0f 1f 00             	nopl   (%rax)
    b178:	c3                   	retq   
    b179:	0f 1f 80 00 00 00 00 	nopl   0x0(%rax)

000000000000b180 <frame_dummy>:
    b180:	f3 0f 1e fa          	endbr64 
    b184:	e9 77 ff ff ff       	jmpq   b100 <register_tm_clones>

000000000000b189 <platform_main_begin>:
    b189:	f3 0f 1e fa          	endbr64 
    b18d:	55                   	push   %rbp
    b18e:	48 89 e5             	mov    %rsp,%rbp
    b191:	90                   	nop
    b192:	5d                   	pop    %rbp
    b193:	c3                   	retq   

000000000000b194 <platform_main_end>:
    b194:	f3 0f 1e fa          	endbr64 
    b198:	55                   	push   %rbp
    b199:	48 89 e5             	mov    %rsp,%rbp
    b19c:	48 83 ec 10          	sub    $0x10,%rsp
    b1a0:	89 7d fc             	mov    %edi,-0x4(%rbp)
    b1a3:	89 75 f8             	mov    %esi,-0x8(%rbp)
    b1a6:	8b 45 fc             	mov    -0x4(%rbp),%eax
    b1a9:	89 c6                	mov    %eax,%esi
    b1ab:	48 8d 3d 6e 3e 01 00 	lea    0x13e6e(%rip),%rdi        # 1f020 <_IO_stdin_used+0x20>
    b1b2:	b8 00 00 00 00       	mov    $0x0,%eax
    b1b7:	e8 c4 fe ff ff       	callq  b080 <printf@plt>
    b1bc:	90                   	nop
    b1bd:	c9                   	leaveq 
    b1be:	c3                   	retq   

000000000000b1bf <safe_unary_minus_func_int8_t_s>:
    b1bf:	f3 0f 1e fa          	endbr64 
    b1c3:	55                   	push   %rbp
    b1c4:	48 89 e5             	mov    %rsp,%rbp
    b1c7:	89 f8                	mov    %edi,%eax
    b1c9:	88 45 fc             	mov    %al,-0x4(%rbp)
    b1cc:	0f b6 45 fc          	movzbl -0x4(%rbp),%eax
    b1d0:	f7 d8                	neg    %eax
    b1d2:	5d                   	pop    %rbp
    b1d3:	c3                   	retq   

000000000000b1d4 <safe_add_func_int8_t_s_s>:
    b1d4:	f3 0f 1e fa          	endbr64 
    b1d8:	55                   	push   %rbp
    b1d9:	48 89 e5             	mov    %rsp,%rbp
    b1dc:	89 fa                	mov    %edi,%edx
    b1de:	89 f0                	mov    %esi,%eax
    b1e0:	88 55 fc             	mov    %dl,-0x4(%rbp)
    b1e3:	88 45 f8             	mov    %al,-0x8(%rbp)
    b1e6:	0f b6 55 fc          	movzbl -0x4(%rbp),%edx
    b1ea:	0f b6 45 f8          	movzbl -0x8(%rbp),%eax
    b1ee:	01 d0                	add    %edx,%eax
    b1f0:	5d                   	pop    %rbp
    b1f1:	c3                   	retq   

000000000000b1f2 <safe_sub_func_int8_t_s_s>:
    b1f2:	f3 0f 1e fa          	endbr64 
    b1f6:	55                   	push   %rbp
    b1f7:	48 89 e5             	mov    %rsp,%rbp
    b1fa:	89 fa                	mov    %edi,%edx
    b1fc:	89 f0                	mov    %esi,%eax
    b1fe:	88 55 fc             	mov    %dl,-0x4(%rbp)
    b201:	88 45 f8             	mov    %al,-0x8(%rbp)
    b204:	0f b6 55 fc          	movzbl -0x4(%rbp),%edx
    b208:	0f b6 45 f8          	movzbl -0x8(%rbp),%eax
    b20c:	29 c2                	sub    %eax,%edx
    b20e:	89 d0                	mov    %edx,%eax
    b210:	5d                   	pop    %rbp
    b211:	c3                   	retq   

000000000000b212 <safe_mul_func_int8_t_s_s>:
    b212:	f3 0f 1e fa          	endbr64 
    b216:	55                   	push   %rbp
    b217:	48 89 e5             	mov    %rsp,%rbp
    b21a:	89 fa                	mov    %edi,%edx
    b21c:	89 f0                	mov    %esi,%eax
    b21e:	88 55 fc             	mov    %dl,-0x4(%rbp)
    b221:	88 45 f8             	mov    %al,-0x8(%rbp)
    b224:	0f b6 45 fc          	movzbl -0x4(%rbp),%eax
    b228:	0f b6 55 f8          	movzbl -0x8(%rbp),%edx
    b22c:	0f af c2             	imul   %edx,%eax
    b22f:	5d                   	pop    %rbp
    b230:	c3                   	retq   

000000000000b231 <safe_mod_func_int8_t_s_s>:
    b231:	f3 0f 1e fa          	endbr64 
    b235:	55                   	push   %rbp
    b236:	48 89 e5             	mov    %rsp,%rbp
    b239:	89 fa                	mov    %edi,%edx
    b23b:	89 f0                	mov    %esi,%eax
    b23d:	88 55 fc             	mov    %dl,-0x4(%rbp)
    b240:	88 45 f8             	mov    %al,-0x8(%rbp)
    b243:	80 7d f8 00          	cmpb   $0x0,-0x8(%rbp)
    b247:	74 1b                	je     b264 <safe_mod_func_int8_t_s_s+0x33>
    b249:	80 7d fc 80          	cmpb   $0x80,-0x4(%rbp)
    b24d:	75 06                	jne    b255 <safe_mod_func_int8_t_s_s+0x24>
    b24f:	80 7d f8 ff          	cmpb   $0xff,-0x8(%rbp)
    b253:	74 0f                	je     b264 <safe_mod_func_int8_t_s_s+0x33>
    b255:	0f be 45 fc          	movsbl -0x4(%rbp),%eax
    b259:	0f be 4d f8          	movsbl -0x8(%rbp),%ecx
    b25d:	99                   	cltd   
    b25e:	f7 f9                	idiv   %ecx
    b260:	89 d0                	mov    %edx,%eax
    b262:	eb 04                	jmp    b268 <safe_mod_func_int8_t_s_s+0x37>
    b264:	0f b6 45 fc          	movzbl -0x4(%rbp),%eax
    b268:	5d                   	pop    %rbp
    b269:	c3                   	retq   

000000000000b26a <safe_div_func_int8_t_s_s>:
    b26a:	f3 0f 1e fa          	endbr64 
    b26e:	55                   	push   %rbp
    b26f:	48 89 e5             	mov    %rsp,%rbp
    b272:	89 fa                	mov    %edi,%edx
    b274:	89 f0                	mov    %esi,%eax
    b276:	88 55 fc             	mov    %dl,-0x4(%rbp)
    b279:	88 45 f8             	mov    %al,-0x8(%rbp)
    b27c:	80 7d f8 00          	cmpb   $0x0,-0x8(%rbp)
    b280:	74 19                	je     b29b <safe_div_func_int8_t_s_s+0x31>
    b282:	80 7d fc 80          	cmpb   $0x80,-0x4(%rbp)
    b286:	75 06                	jne    b28e <safe_div_func_int8_t_s_s+0x24>
    b288:	80 7d f8 ff          	cmpb   $0xff,-0x8(%rbp)
    b28c:	74 0d                	je     b29b <safe_div_func_int8_t_s_s+0x31>
    b28e:	0f be 45 fc          	movsbl -0x4(%rbp),%eax
    b292:	0f be 4d f8          	movsbl -0x8(%rbp),%ecx
    b296:	99                   	cltd   
    b297:	f7 f9                	idiv   %ecx
    b299:	eb 04                	jmp    b29f <safe_div_func_int8_t_s_s+0x35>
    b29b:	0f b6 45 fc          	movzbl -0x4(%rbp),%eax
    b29f:	5d                   	pop    %rbp
    b2a0:	c3                   	retq   

000000000000b2a1 <safe_lshift_func_int8_t_s_s>:
    b2a1:	f3 0f 1e fa          	endbr64 
    b2a5:	55                   	push   %rbp
    b2a6:	48 89 e5             	mov    %rsp,%rbp
    b2a9:	89 f8                	mov    %edi,%eax
    b2ab:	89 75 f8             	mov    %esi,-0x8(%rbp)
    b2ae:	88 45 fc             	mov    %al,-0x4(%rbp)
    b2b1:	80 7d fc 00          	cmpb   $0x0,-0x4(%rbp)
    b2b5:	78 31                	js     b2e8 <safe_lshift_func_int8_t_s_s+0x47>
    b2b7:	83 7d f8 00          	cmpl   $0x0,-0x8(%rbp)
    b2bb:	78 2b                	js     b2e8 <safe_lshift_func_int8_t_s_s+0x47>
    b2bd:	83 7d f8 1f          	cmpl   $0x1f,-0x8(%rbp)
    b2c1:	7f 25                	jg     b2e8 <safe_lshift_func_int8_t_s_s+0x47>
    b2c3:	0f be 55 fc          	movsbl -0x4(%rbp),%edx
    b2c7:	8b 45 f8             	mov    -0x8(%rbp),%eax
    b2ca:	be 7f 00 00 00       	mov    $0x7f,%esi
    b2cf:	89 c1                	mov    %eax,%ecx
    b2d1:	d3 fe                	sar    %cl,%esi
    b2d3:	89 f0                	mov    %esi,%eax
    b2d5:	39 c2                	cmp    %eax,%edx
    b2d7:	7f 0f                	jg     b2e8 <safe_lshift_func_int8_t_s_s+0x47>
    b2d9:	0f be 55 fc          	movsbl -0x4(%rbp),%edx
    b2dd:	8b 45 f8             	mov    -0x8(%rbp),%eax
    b2e0:	89 c1                	mov    %eax,%ecx
    b2e2:	d3 e2                	shl    %cl,%edx
    b2e4:	89 d0                	mov    %edx,%eax
    b2e6:	eb 04                	jmp    b2ec <safe_lshift_func_int8_t_s_s+0x4b>
    b2e8:	0f b6 45 fc          	movzbl -0x4(%rbp),%eax
    b2ec:	5d                   	pop    %rbp
    b2ed:	c3                   	retq   

000000000000b2ee <safe_lshift_func_int8_t_s_u>:
    b2ee:	f3 0f 1e fa          	endbr64 
    b2f2:	55                   	push   %rbp
    b2f3:	48 89 e5             	mov    %rsp,%rbp
    b2f6:	89 f8                	mov    %edi,%eax
    b2f8:	89 75 f8             	mov    %esi,-0x8(%rbp)
    b2fb:	88 45 fc             	mov    %al,-0x4(%rbp)
    b2fe:	80 7d fc 00          	cmpb   $0x0,-0x4(%rbp)
    b302:	78 2b                	js     b32f <safe_lshift_func_int8_t_s_u+0x41>
    b304:	83 7d f8 1f          	cmpl   $0x1f,-0x8(%rbp)
    b308:	77 25                	ja     b32f <safe_lshift_func_int8_t_s_u+0x41>
    b30a:	0f be 55 fc          	movsbl -0x4(%rbp),%edx
    b30e:	8b 45 f8             	mov    -0x8(%rbp),%eax
    b311:	be 7f 00 00 00       	mov    $0x7f,%esi
    b316:	89 c1                	mov    %eax,%ecx
    b318:	d3 fe                	sar    %cl,%esi
    b31a:	89 f0                	mov    %esi,%eax
    b31c:	39 c2                	cmp    %eax,%edx
    b31e:	7f 0f                	jg     b32f <safe_lshift_func_int8_t_s_u+0x41>
    b320:	0f be 55 fc          	movsbl -0x4(%rbp),%edx
    b324:	8b 45 f8             	mov    -0x8(%rbp),%eax
    b327:	89 c1                	mov    %eax,%ecx
    b329:	d3 e2                	shl    %cl,%edx
    b32b:	89 d0                	mov    %edx,%eax
    b32d:	eb 04                	jmp    b333 <safe_lshift_func_int8_t_s_u+0x45>
    b32f:	0f b6 45 fc          	movzbl -0x4(%rbp),%eax
    b333:	5d                   	pop    %rbp
    b334:	c3                   	retq   

000000000000b335 <safe_rshift_func_int8_t_s_s>:
    b335:	f3 0f 1e fa          	endbr64 
    b339:	55                   	push   %rbp
    b33a:	48 89 e5             	mov    %rsp,%rbp
    b33d:	89 f8                	mov    %edi,%eax
    b33f:	89 75 f8             	mov    %esi,-0x8(%rbp)
    b342:	88 45 fc             	mov    %al,-0x4(%rbp)
    b345:	80 7d fc 00          	cmpb   $0x0,-0x4(%rbp)
    b349:	78 1b                	js     b366 <safe_rshift_func_int8_t_s_s+0x31>
    b34b:	83 7d f8 00          	cmpl   $0x0,-0x8(%rbp)
    b34f:	78 15                	js     b366 <safe_rshift_func_int8_t_s_s+0x31>
    b351:	83 7d f8 1f          	cmpl   $0x1f,-0x8(%rbp)
    b355:	7f 0f                	jg     b366 <safe_rshift_func_int8_t_s_s+0x31>
    b357:	0f be 55 fc          	movsbl -0x4(%rbp),%edx
    b35b:	8b 45 f8             	mov    -0x8(%rbp),%eax
    b35e:	89 c1                	mov    %eax,%ecx
    b360:	d3 fa                	sar    %cl,%edx
    b362:	89 d0                	mov    %edx,%eax
    b364:	eb 04                	jmp    b36a <safe_rshift_func_int8_t_s_s+0x35>
    b366:	0f b6 45 fc          	movzbl -0x4(%rbp),%eax
    b36a:	5d                   	pop    %rbp
    b36b:	c3                   	retq   

000000000000b36c <safe_rshift_func_int8_t_s_u>:
    b36c:	f3 0f 1e fa          	endbr64 
    b370:	55                   	push   %rbp
    b371:	48 89 e5             	mov    %rsp,%rbp
    b374:	89 f8                	mov    %edi,%eax
    b376:	89 75 f8             	mov    %esi,-0x8(%rbp)
    b379:	88 45 fc             	mov    %al,-0x4(%rbp)
    b37c:	80 7d fc 00          	cmpb   $0x0,-0x4(%rbp)
    b380:	78 15                	js     b397 <safe_rshift_func_int8_t_s_u+0x2b>
    b382:	83 7d f8 1f          	cmpl   $0x1f,-0x8(%rbp)
    b386:	77 0f                	ja     b397 <safe_rshift_func_int8_t_s_u+0x2b>
    b388:	0f be 55 fc          	movsbl -0x4(%rbp),%edx
    b38c:	8b 45 f8             	mov    -0x8(%rbp),%eax
    b38f:	89 c1                	mov    %eax,%ecx
    b391:	d3 fa                	sar    %cl,%edx
    b393:	89 d0                	mov    %edx,%eax
    b395:	eb 04                	jmp    b39b <safe_rshift_func_int8_t_s_u+0x2f>
    b397:	0f b6 45 fc          	movzbl -0x4(%rbp),%eax
    b39b:	5d                   	pop    %rbp
    b39c:	c3                   	retq   

000000000000b39d <safe_unary_minus_func_int16_t_s>:
    b39d:	f3 0f 1e fa          	endbr64 
    b3a1:	55                   	push   %rbp
    b3a2:	48 89 e5             	mov    %rsp,%rbp
    b3a5:	89 f8                	mov    %edi,%eax
    b3a7:	66 89 45 fc          	mov    %ax,-0x4(%rbp)
    b3ab:	0f b7 45 fc          	movzwl -0x4(%rbp),%eax
    b3af:	f7 d8                	neg    %eax
    b3b1:	5d                   	pop    %rbp
    b3b2:	c3                   	retq   

000000000000b3b3 <safe_add_func_int16_t_s_s>:
    b3b3:	f3 0f 1e fa          	endbr64 
    b3b7:	55                   	push   %rbp
    b3b8:	48 89 e5             	mov    %rsp,%rbp
    b3bb:	89 fa                	mov    %edi,%edx
    b3bd:	89 f0                	mov    %esi,%eax
    b3bf:	66 89 55 fc          	mov    %dx,-0x4(%rbp)
    b3c3:	66 89 45 f8          	mov    %ax,-0x8(%rbp)
    b3c7:	0f b7 55 fc          	movzwl -0x4(%rbp),%edx
    b3cb:	0f b7 45 f8          	movzwl -0x8(%rbp),%eax
    b3cf:	01 d0                	add    %edx,%eax
    b3d1:	5d                   	pop    %rbp
    b3d2:	c3                   	retq   

000000000000b3d3 <safe_sub_func_int16_t_s_s>:
    b3d3:	f3 0f 1e fa          	endbr64 
    b3d7:	55                   	push   %rbp
    b3d8:	48 89 e5             	mov    %rsp,%rbp
    b3db:	89 fa                	mov    %edi,%edx
    b3dd:	89 f0                	mov    %esi,%eax
    b3df:	66 89 55 fc          	mov    %dx,-0x4(%rbp)
    b3e3:	66 89 45 f8          	mov    %ax,-0x8(%rbp)
    b3e7:	0f b7 55 fc          	movzwl -0x4(%rbp),%edx
    b3eb:	0f b7 45 f8          	movzwl -0x8(%rbp),%eax
    b3ef:	29 c2                	sub    %eax,%edx
    b3f1:	89 d0                	mov    %edx,%eax
    b3f3:	5d                   	pop    %rbp
    b3f4:	c3                   	retq   

000000000000b3f5 <safe_mul_func_int16_t_s_s>:
    b3f5:	f3 0f 1e fa          	endbr64 
    b3f9:	55                   	push   %rbp
    b3fa:	48 89 e5             	mov    %rsp,%rbp
    b3fd:	89 fa                	mov    %edi,%edx
    b3ff:	89 f0                	mov    %esi,%eax
    b401:	66 89 55 fc          	mov    %dx,-0x4(%rbp)
    b405:	66 89 45 f8          	mov    %ax,-0x8(%rbp)
    b409:	0f b7 55 fc          	movzwl -0x4(%rbp),%edx
    b40d:	0f b7 45 f8          	movzwl -0x8(%rbp),%eax
    b411:	0f af c2             	imul   %edx,%eax
    b414:	5d                   	pop    %rbp
    b415:	c3                   	retq   

000000000000b416 <safe_mod_func_int16_t_s_s>:
    b416:	f3 0f 1e fa          	endbr64 
    b41a:	55                   	push   %rbp
    b41b:	48 89 e5             	mov    %rsp,%rbp
    b41e:	89 fa                	mov    %edi,%edx
    b420:	89 f0                	mov    %esi,%eax
    b422:	66 89 55 fc          	mov    %dx,-0x4(%rbp)
    b426:	66 89 45 f8          	mov    %ax,-0x8(%rbp)
    b42a:	66 83 7d f8 00       	cmpw   $0x0,-0x8(%rbp)
    b42f:	74 1e                	je     b44f <safe_mod_func_int16_t_s_s+0x39>
    b431:	66 81 7d fc 00 80    	cmpw   $0x8000,-0x4(%rbp)
    b437:	75 07                	jne    b440 <safe_mod_func_int16_t_s_s+0x2a>
    b439:	66 83 7d f8 ff       	cmpw   $0xffff,-0x8(%rbp)
    b43e:	74 0f                	je     b44f <safe_mod_func_int16_t_s_s+0x39>
    b440:	0f bf 45 fc          	movswl -0x4(%rbp),%eax
    b444:	0f bf 4d f8          	movswl -0x8(%rbp),%ecx
    b448:	99                   	cltd   
    b449:	f7 f9                	idiv   %ecx
    b44b:	89 d0                	mov    %edx,%eax
    b44d:	eb 04                	jmp    b453 <safe_mod_func_int16_t_s_s+0x3d>
    b44f:	0f b7 45 fc          	movzwl -0x4(%rbp),%eax
    b453:	5d                   	pop    %rbp
    b454:	c3                   	retq   

000000000000b455 <safe_div_func_int16_t_s_s>:
    b455:	f3 0f 1e fa          	endbr64 
    b459:	55                   	push   %rbp
    b45a:	48 89 e5             	mov    %rsp,%rbp
    b45d:	89 fa                	mov    %edi,%edx
    b45f:	89 f0                	mov    %esi,%eax
    b461:	66 89 55 fc          	mov    %dx,-0x4(%rbp)
    b465:	66 89 45 f8          	mov    %ax,-0x8(%rbp)
    b469:	66 83 7d f8 00       	cmpw   $0x0,-0x8(%rbp)
    b46e:	74 1c                	je     b48c <safe_div_func_int16_t_s_s+0x37>
    b470:	66 81 7d fc 00 80    	cmpw   $0x8000,-0x4(%rbp)
    b476:	75 07                	jne    b47f <safe_div_func_int16_t_s_s+0x2a>
    b478:	66 83 7d f8 ff       	cmpw   $0xffff,-0x8(%rbp)
    b47d:	74 0d                	je     b48c <safe_div_func_int16_t_s_s+0x37>
    b47f:	0f bf 45 fc          	movswl -0x4(%rbp),%eax
    b483:	0f bf 4d f8          	movswl -0x8(%rbp),%ecx
    b487:	99                   	cltd   
    b488:	f7 f9                	idiv   %ecx
    b48a:	eb 04                	jmp    b490 <safe_div_func_int16_t_s_s+0x3b>
    b48c:	0f b7 45 fc          	movzwl -0x4(%rbp),%eax
    b490:	5d                   	pop    %rbp
    b491:	c3                   	retq   

000000000000b492 <safe_lshift_func_int16_t_s_s>:
    b492:	f3 0f 1e fa          	endbr64 
    b496:	55                   	push   %rbp
    b497:	48 89 e5             	mov    %rsp,%rbp
    b49a:	89 f8                	mov    %edi,%eax
    b49c:	89 75 f8             	mov    %esi,-0x8(%rbp)
    b49f:	66 89 45 fc          	mov    %ax,-0x4(%rbp)
    b4a3:	66 83 7d fc 00       	cmpw   $0x0,-0x4(%rbp)
    b4a8:	78 31                	js     b4db <safe_lshift_func_int16_t_s_s+0x49>
    b4aa:	83 7d f8 00          	cmpl   $0x0,-0x8(%rbp)
    b4ae:	78 2b                	js     b4db <safe_lshift_func_int16_t_s_s+0x49>
    b4b0:	83 7d f8 1f          	cmpl   $0x1f,-0x8(%rbp)
    b4b4:	7f 25                	jg     b4db <safe_lshift_func_int16_t_s_s+0x49>
    b4b6:	0f bf 55 fc          	movswl -0x4(%rbp),%edx
    b4ba:	8b 45 f8             	mov    -0x8(%rbp),%eax
    b4bd:	be ff 7f 00 00       	mov    $0x7fff,%esi
    b4c2:	89 c1                	mov    %eax,%ecx
    b4c4:	d3 fe                	sar    %cl,%esi
    b4c6:	89 f0                	mov    %esi,%eax
    b4c8:	39 c2                	cmp    %eax,%edx
    b4ca:	7f 0f                	jg     b4db <safe_lshift_func_int16_t_s_s+0x49>
    b4cc:	0f bf 55 fc          	movswl -0x4(%rbp),%edx
    b4d0:	8b 45 f8             	mov    -0x8(%rbp),%eax
    b4d3:	89 c1                	mov    %eax,%ecx
    b4d5:	d3 e2                	shl    %cl,%edx
    b4d7:	89 d0                	mov    %edx,%eax
    b4d9:	eb 04                	jmp    b4df <safe_lshift_func_int16_t_s_s+0x4d>
    b4db:	0f b7 45 fc          	movzwl -0x4(%rbp),%eax
    b4df:	5d                   	pop    %rbp
    b4e0:	c3                   	retq   

000000000000b4e1 <safe_lshift_func_int16_t_s_u>:
    b4e1:	f3 0f 1e fa          	endbr64 
    b4e5:	55                   	push   %rbp
    b4e6:	48 89 e5             	mov    %rsp,%rbp
    b4e9:	89 f8                	mov    %edi,%eax
    b4eb:	89 75 f8             	mov    %esi,-0x8(%rbp)
    b4ee:	66 89 45 fc          	mov    %ax,-0x4(%rbp)
    b4f2:	66 83 7d fc 00       	cmpw   $0x0,-0x4(%rbp)
    b4f7:	78 2b                	js     b524 <safe_lshift_func_int16_t_s_u+0x43>
    b4f9:	83 7d f8 1f          	cmpl   $0x1f,-0x8(%rbp)
    b4fd:	77 25                	ja     b524 <safe_lshift_func_int16_t_s_u+0x43>
    b4ff:	0f bf 55 fc          	movswl -0x4(%rbp),%edx
    b503:	8b 45 f8             	mov    -0x8(%rbp),%eax
    b506:	be ff 7f 00 00       	mov    $0x7fff,%esi
    b50b:	89 c1                	mov    %eax,%ecx
    b50d:	d3 fe                	sar    %cl,%esi
    b50f:	89 f0                	mov    %esi,%eax
    b511:	39 c2                	cmp    %eax,%edx
    b513:	7f 0f                	jg     b524 <safe_lshift_func_int16_t_s_u+0x43>
    b515:	0f bf 55 fc          	movswl -0x4(%rbp),%edx
    b519:	8b 45 f8             	mov    -0x8(%rbp),%eax
    b51c:	89 c1                	mov    %eax,%ecx
    b51e:	d3 e2                	shl    %cl,%edx
    b520:	89 d0                	mov    %edx,%eax
    b522:	eb 04                	jmp    b528 <safe_lshift_func_int16_t_s_u+0x47>
    b524:	0f b7 45 fc          	movzwl -0x4(%rbp),%eax
    b528:	5d                   	pop    %rbp
    b529:	c3                   	retq   

000000000000b52a <safe_rshift_func_int16_t_s_s>:
    b52a:	f3 0f 1e fa          	endbr64 
    b52e:	55                   	push   %rbp
    b52f:	48 89 e5             	mov    %rsp,%rbp
    b532:	89 f8                	mov    %edi,%eax
    b534:	89 75 f8             	mov    %esi,-0x8(%rbp)
    b537:	66 89 45 fc          	mov    %ax,-0x4(%rbp)
    b53b:	66 83 7d fc 00       	cmpw   $0x0,-0x4(%rbp)
    b540:	78 1b                	js     b55d <safe_rshift_func_int16_t_s_s+0x33>
    b542:	83 7d f8 00          	cmpl   $0x0,-0x8(%rbp)
    b546:	78 15                	js     b55d <safe_rshift_func_int16_t_s_s+0x33>
    b548:	83 7d f8 1f          	cmpl   $0x1f,-0x8(%rbp)
    b54c:	7f 0f                	jg     b55d <safe_rshift_func_int16_t_s_s+0x33>
    b54e:	0f bf 55 fc          	movswl -0x4(%rbp),%edx
    b552:	8b 45 f8             	mov    -0x8(%rbp),%eax
    b555:	89 c1                	mov    %eax,%ecx
    b557:	d3 fa                	sar    %cl,%edx
    b559:	89 d0                	mov    %edx,%eax
    b55b:	eb 04                	jmp    b561 <safe_rshift_func_int16_t_s_s+0x37>
    b55d:	0f b7 45 fc          	movzwl -0x4(%rbp),%eax
    b561:	5d                   	pop    %rbp
    b562:	c3                   	retq   

000000000000b563 <safe_rshift_func_int16_t_s_u>:
    b563:	f3 0f 1e fa          	endbr64 
    b567:	55                   	push   %rbp
    b568:	48 89 e5             	mov    %rsp,%rbp
    b56b:	89 f8                	mov    %edi,%eax
    b56d:	89 75 f8             	mov    %esi,-0x8(%rbp)
    b570:	66 89 45 fc          	mov    %ax,-0x4(%rbp)
    b574:	66 83 7d fc 00       	cmpw   $0x0,-0x4(%rbp)
    b579:	78 15                	js     b590 <safe_rshift_func_int16_t_s_u+0x2d>
    b57b:	83 7d f8 1f          	cmpl   $0x1f,-0x8(%rbp)
    b57f:	77 0f                	ja     b590 <safe_rshift_func_int16_t_s_u+0x2d>
    b581:	0f bf 55 fc          	movswl -0x4(%rbp),%edx
    b585:	8b 45 f8             	mov    -0x8(%rbp),%eax
    b588:	89 c1                	mov    %eax,%ecx
    b58a:	d3 fa                	sar    %cl,%edx
    b58c:	89 d0                	mov    %edx,%eax
    b58e:	eb 04                	jmp    b594 <safe_rshift_func_int16_t_s_u+0x31>
    b590:	0f b7 45 fc          	movzwl -0x4(%rbp),%eax
    b594:	5d                   	pop    %rbp
    b595:	c3                   	retq   

000000000000b596 <safe_unary_minus_func_int32_t_s>:
    b596:	f3 0f 1e fa          	endbr64 
    b59a:	55                   	push   %rbp
    b59b:	48 89 e5             	mov    %rsp,%rbp
    b59e:	89 7d fc             	mov    %edi,-0x4(%rbp)
    b5a1:	81 7d fc 00 00 00 80 	cmpl   $0x80000000,-0x4(%rbp)
    b5a8:	74 07                	je     b5b1 <safe_unary_minus_func_int32_t_s+0x1b>
    b5aa:	8b 45 fc             	mov    -0x4(%rbp),%eax
    b5ad:	f7 d8                	neg    %eax
    b5af:	eb 03                	jmp    b5b4 <safe_unary_minus_func_int32_t_s+0x1e>
    b5b1:	8b 45 fc             	mov    -0x4(%rbp),%eax
    b5b4:	5d                   	pop    %rbp
    b5b5:	c3                   	retq   

000000000000b5b6 <safe_add_func_int32_t_s_s>:
    b5b6:	f3 0f 1e fa          	endbr64 
    b5ba:	55                   	push   %rbp
    b5bb:	48 89 e5             	mov    %rsp,%rbp
    b5be:	89 7d fc             	mov    %edi,-0x4(%rbp)
    b5c1:	89 75 f8             	mov    %esi,-0x8(%rbp)
    b5c4:	83 7d fc 00          	cmpl   $0x0,-0x4(%rbp)
    b5c8:	7e 13                	jle    b5dd <safe_add_func_int32_t_s_s+0x27>
    b5ca:	83 7d f8 00          	cmpl   $0x0,-0x8(%rbp)
    b5ce:	7e 0d                	jle    b5dd <safe_add_func_int32_t_s_s+0x27>
    b5d0:	b8 ff ff ff 7f       	mov    $0x7fffffff,%eax
    b5d5:	2b 45 f8             	sub    -0x8(%rbp),%eax
    b5d8:	39 45 fc             	cmp    %eax,-0x4(%rbp)
    b5db:	7f 23                	jg     b600 <safe_add_func_int32_t_s_s+0x4a>
    b5dd:	83 7d fc 00          	cmpl   $0x0,-0x4(%rbp)
    b5e1:	79 13                	jns    b5f6 <safe_add_func_int32_t_s_s+0x40>
    b5e3:	83 7d f8 00          	cmpl   $0x0,-0x8(%rbp)
    b5e7:	79 0d                	jns    b5f6 <safe_add_func_int32_t_s_s+0x40>
    b5e9:	b8 00 00 00 80       	mov    $0x80000000,%eax
    b5ee:	2b 45 f8             	sub    -0x8(%rbp),%eax
    b5f1:	39 45 fc             	cmp    %eax,-0x4(%rbp)
    b5f4:	7c 0a                	jl     b600 <safe_add_func_int32_t_s_s+0x4a>
    b5f6:	8b 55 fc             	mov    -0x4(%rbp),%edx
    b5f9:	8b 45 f8             	mov    -0x8(%rbp),%eax
    b5fc:	01 d0                	add    %edx,%eax
    b5fe:	eb 03                	jmp    b603 <safe_add_func_int32_t_s_s+0x4d>
    b600:	8b 45 fc             	mov    -0x4(%rbp),%eax
    b603:	5d                   	pop    %rbp
    b604:	c3                   	retq   

000000000000b605 <safe_sub_func_int32_t_s_s>:
    b605:	f3 0f 1e fa          	endbr64 
    b609:	55                   	push   %rbp
    b60a:	48 89 e5             	mov    %rsp,%rbp
    b60d:	89 7d fc             	mov    %edi,-0x4(%rbp)
    b610:	89 75 f8             	mov    %esi,-0x8(%rbp)
    b613:	8b 45 fc             	mov    -0x4(%rbp),%eax
    b616:	33 45 f8             	xor    -0x8(%rbp),%eax
    b619:	89 c2                	mov    %eax,%edx
    b61b:	8b 45 fc             	mov    -0x4(%rbp),%eax
    b61e:	33 45 f8             	xor    -0x8(%rbp),%eax
    b621:	25 00 00 00 80       	and    $0x80000000,%eax
    b626:	33 45 fc             	xor    -0x4(%rbp),%eax
    b629:	2b 45 f8             	sub    -0x8(%rbp),%eax
    b62c:	33 45 f8             	xor    -0x8(%rbp),%eax
    b62f:	21 d0                	and    %edx,%eax
    b631:	85 c0                	test   %eax,%eax
    b633:	78 08                	js     b63d <safe_sub_func_int32_t_s_s+0x38>
    b635:	8b 45 fc             	mov    -0x4(%rbp),%eax
    b638:	2b 45 f8             	sub    -0x8(%rbp),%eax
    b63b:	eb 03                	jmp    b640 <safe_sub_func_int32_t_s_s+0x3b>
    b63d:	8b 45 fc             	mov    -0x4(%rbp),%eax
    b640:	5d                   	pop    %rbp
    b641:	c3                   	retq   

000000000000b642 <safe_mul_func_int32_t_s_s>:
    b642:	f3 0f 1e fa          	endbr64 
    b646:	55                   	push   %rbp
    b647:	48 89 e5             	mov    %rsp,%rbp
    b64a:	89 7d fc             	mov    %edi,-0x4(%rbp)
    b64d:	89 75 f8             	mov    %esi,-0x8(%rbp)
    b650:	83 7d fc 00          	cmpl   $0x0,-0x4(%rbp)
    b654:	7e 14                	jle    b66a <safe_mul_func_int32_t_s_s+0x28>
    b656:	83 7d f8 00          	cmpl   $0x0,-0x8(%rbp)
    b65a:	7e 0e                	jle    b66a <safe_mul_func_int32_t_s_s+0x28>
    b65c:	b8 ff ff ff 7f       	mov    $0x7fffffff,%eax
    b661:	99                   	cltd   
    b662:	f7 7d f8             	idivl  -0x8(%rbp)
    b665:	39 45 fc             	cmp    %eax,-0x4(%rbp)
    b668:	7f 5d                	jg     b6c7 <safe_mul_func_int32_t_s_s+0x85>
    b66a:	83 7d fc 00          	cmpl   $0x0,-0x4(%rbp)
    b66e:	7e 14                	jle    b684 <safe_mul_func_int32_t_s_s+0x42>
    b670:	83 7d f8 00          	cmpl   $0x0,-0x8(%rbp)
    b674:	7f 0e                	jg     b684 <safe_mul_func_int32_t_s_s+0x42>
    b676:	b8 00 00 00 80       	mov    $0x80000000,%eax
    b67b:	99                   	cltd   
    b67c:	f7 7d fc             	idivl  -0x4(%rbp)
    b67f:	39 45 f8             	cmp    %eax,-0x8(%rbp)
    b682:	7c 43                	jl     b6c7 <safe_mul_func_int32_t_s_s+0x85>
    b684:	83 7d fc 00          	cmpl   $0x0,-0x4(%rbp)
    b688:	7f 14                	jg     b69e <safe_mul_func_int32_t_s_s+0x5c>
    b68a:	83 7d f8 00          	cmpl   $0x0,-0x8(%rbp)
    b68e:	7e 0e                	jle    b69e <safe_mul_func_int32_t_s_s+0x5c>
    b690:	b8 00 00 00 80       	mov    $0x80000000,%eax
    b695:	99                   	cltd   
    b696:	f7 7d f8             	idivl  -0x8(%rbp)
    b699:	39 45 fc             	cmp    %eax,-0x4(%rbp)
    b69c:	7c 29                	jl     b6c7 <safe_mul_func_int32_t_s_s+0x85>
    b69e:	83 7d fc 00          	cmpl   $0x0,-0x4(%rbp)
    b6a2:	7f 1a                	jg     b6be <safe_mul_func_int32_t_s_s+0x7c>
    b6a4:	83 7d f8 00          	cmpl   $0x0,-0x8(%rbp)
    b6a8:	7f 14                	jg     b6be <safe_mul_func_int32_t_s_s+0x7c>
    b6aa:	83 7d fc 00          	cmpl   $0x0,-0x4(%rbp)
    b6ae:	74 0e                	je     b6be <safe_mul_func_int32_t_s_s+0x7c>
    b6b0:	b8 ff ff ff 7f       	mov    $0x7fffffff,%eax
    b6b5:	99                   	cltd   
    b6b6:	f7 7d fc             	idivl  -0x4(%rbp)
    b6b9:	39 45 f8             	cmp    %eax,-0x8(%rbp)
    b6bc:	7c 09                	jl     b6c7 <safe_mul_func_int32_t_s_s+0x85>
    b6be:	8b 45 fc             	mov    -0x4(%rbp),%eax
    b6c1:	0f af 45 f8          	imul   -0x8(%rbp),%eax
    b6c5:	eb 03                	jmp    b6ca <safe_mul_func_int32_t_s_s+0x88>
    b6c7:	8b 45 fc             	mov    -0x4(%rbp),%eax
    b6ca:	5d                   	pop    %rbp
    b6cb:	c3                   	retq   

000000000000b6cc <safe_mod_func_int32_t_s_s>:
    b6cc:	f3 0f 1e fa          	endbr64 
    b6d0:	55                   	push   %rbp
    b6d1:	48 89 e5             	mov    %rsp,%rbp
    b6d4:	89 7d fc             	mov    %edi,-0x4(%rbp)
    b6d7:	89 75 f8             	mov    %esi,-0x8(%rbp)
    b6da:	83 7d f8 00          	cmpl   $0x0,-0x8(%rbp)
    b6de:	74 1a                	je     b6fa <safe_mod_func_int32_t_s_s+0x2e>
    b6e0:	81 7d fc 00 00 00 80 	cmpl   $0x80000000,-0x4(%rbp)
    b6e7:	75 06                	jne    b6ef <safe_mod_func_int32_t_s_s+0x23>
    b6e9:	83 7d f8 ff          	cmpl   $0xffffffff,-0x8(%rbp)
    b6ed:	74 0b                	je     b6fa <safe_mod_func_int32_t_s_s+0x2e>
    b6ef:	8b 45 fc             	mov    -0x4(%rbp),%eax
    b6f2:	99                   	cltd   
    b6f3:	f7 7d f8             	idivl  -0x8(%rbp)
    b6f6:	89 d0                	mov    %edx,%eax
    b6f8:	eb 03                	jmp    b6fd <safe_mod_func_int32_t_s_s+0x31>
    b6fa:	8b 45 fc             	mov    -0x4(%rbp),%eax
    b6fd:	5d                   	pop    %rbp
    b6fe:	c3                   	retq   

000000000000b6ff <safe_div_func_int32_t_s_s>:
    b6ff:	f3 0f 1e fa          	endbr64 
    b703:	55                   	push   %rbp
    b704:	48 89 e5             	mov    %rsp,%rbp
    b707:	89 7d fc             	mov    %edi,-0x4(%rbp)
    b70a:	89 75 f8             	mov    %esi,-0x8(%rbp)
    b70d:	83 7d f8 00          	cmpl   $0x0,-0x8(%rbp)
    b711:	74 18                	je     b72b <safe_div_func_int32_t_s_s+0x2c>
    b713:	81 7d fc 00 00 00 80 	cmpl   $0x80000000,-0x4(%rbp)
    b71a:	75 06                	jne    b722 <safe_div_func_int32_t_s_s+0x23>
    b71c:	83 7d f8 ff          	cmpl   $0xffffffff,-0x8(%rbp)
    b720:	74 09                	je     b72b <safe_div_func_int32_t_s_s+0x2c>
    b722:	8b 45 fc             	mov    -0x4(%rbp),%eax
    b725:	99                   	cltd   
    b726:	f7 7d f8             	idivl  -0x8(%rbp)
    b729:	eb 03                	jmp    b72e <safe_div_func_int32_t_s_s+0x2f>
    b72b:	8b 45 fc             	mov    -0x4(%rbp),%eax
    b72e:	5d                   	pop    %rbp
    b72f:	c3                   	retq   

000000000000b730 <safe_lshift_func_int32_t_s_s>:
    b730:	f3 0f 1e fa          	endbr64 
    b734:	55                   	push   %rbp
    b735:	48 89 e5             	mov    %rsp,%rbp
    b738:	89 7d fc             	mov    %edi,-0x4(%rbp)
    b73b:	89 75 f8             	mov    %esi,-0x8(%rbp)
    b73e:	83 7d fc 00          	cmpl   $0x0,-0x4(%rbp)
    b742:	78 2d                	js     b771 <safe_lshift_func_int32_t_s_s+0x41>
    b744:	83 7d f8 00          	cmpl   $0x0,-0x8(%rbp)
    b748:	78 27                	js     b771 <safe_lshift_func_int32_t_s_s+0x41>
    b74a:	83 7d f8 1f          	cmpl   $0x1f,-0x8(%rbp)
    b74e:	7f 21                	jg     b771 <safe_lshift_func_int32_t_s_s+0x41>
    b750:	8b 45 f8             	mov    -0x8(%rbp),%eax
    b753:	ba ff ff ff 7f       	mov    $0x7fffffff,%edx
    b758:	89 c1                	mov    %eax,%ecx
    b75a:	d3 fa                	sar    %cl,%edx
    b75c:	89 d0                	mov    %edx,%eax
    b75e:	39 45 fc             	cmp    %eax,-0x4(%rbp)
    b761:	7f 0e                	jg     b771 <safe_lshift_func_int32_t_s_s+0x41>
    b763:	8b 45 f8             	mov    -0x8(%rbp),%eax
    b766:	8b 55 fc             	mov    -0x4(%rbp),%edx
    b769:	89 c1                	mov    %eax,%ecx
    b76b:	d3 e2                	shl    %cl,%edx
    b76d:	89 d0                	mov    %edx,%eax
    b76f:	eb 03                	jmp    b774 <safe_lshift_func_int32_t_s_s+0x44>
    b771:	8b 45 fc             	mov    -0x4(%rbp),%eax
    b774:	5d                   	pop    %rbp
    b775:	c3                   	retq   

000000000000b776 <safe_lshift_func_int32_t_s_u>:
    b776:	f3 0f 1e fa          	endbr64 
    b77a:	55                   	push   %rbp
    b77b:	48 89 e5             	mov    %rsp,%rbp
    b77e:	89 7d fc             	mov    %edi,-0x4(%rbp)
    b781:	89 75 f8             	mov    %esi,-0x8(%rbp)
    b784:	83 7d fc 00          	cmpl   $0x0,-0x4(%rbp)
    b788:	78 27                	js     b7b1 <safe_lshift_func_int32_t_s_u+0x3b>
    b78a:	83 7d f8 1f          	cmpl   $0x1f,-0x8(%rbp)
    b78e:	77 21                	ja     b7b1 <safe_lshift_func_int32_t_s_u+0x3b>
    b790:	8b 45 f8             	mov    -0x8(%rbp),%eax
    b793:	ba ff ff ff 7f       	mov    $0x7fffffff,%edx
    b798:	89 c1                	mov    %eax,%ecx
    b79a:	d3 fa                	sar    %cl,%edx
    b79c:	89 d0                	mov    %edx,%eax
    b79e:	39 45 fc             	cmp    %eax,-0x4(%rbp)
    b7a1:	7f 0e                	jg     b7b1 <safe_lshift_func_int32_t_s_u+0x3b>
    b7a3:	8b 45 f8             	mov    -0x8(%rbp),%eax
    b7a6:	8b 55 fc             	mov    -0x4(%rbp),%edx
    b7a9:	89 c1                	mov    %eax,%ecx
    b7ab:	d3 e2                	shl    %cl,%edx
    b7ad:	89 d0                	mov    %edx,%eax
    b7af:	eb 03                	jmp    b7b4 <safe_lshift_func_int32_t_s_u+0x3e>
    b7b1:	8b 45 fc             	mov    -0x4(%rbp),%eax
    b7b4:	5d                   	pop    %rbp
    b7b5:	c3                   	retq   

000000000000b7b6 <safe_rshift_func_int32_t_s_s>:
    b7b6:	f3 0f 1e fa          	endbr64 
    b7ba:	55                   	push   %rbp
    b7bb:	48 89 e5             	mov    %rsp,%rbp
    b7be:	89 7d fc             	mov    %edi,-0x4(%rbp)
    b7c1:	89 75 f8             	mov    %esi,-0x8(%rbp)
    b7c4:	83 7d fc 00          	cmpl   $0x0,-0x4(%rbp)
    b7c8:	78 1a                	js     b7e4 <safe_rshift_func_int32_t_s_s+0x2e>
    b7ca:	83 7d f8 00          	cmpl   $0x0,-0x8(%rbp)
    b7ce:	78 14                	js     b7e4 <safe_rshift_func_int32_t_s_s+0x2e>
    b7d0:	83 7d f8 1f          	cmpl   $0x1f,-0x8(%rbp)
    b7d4:	7f 0e                	jg     b7e4 <safe_rshift_func_int32_t_s_s+0x2e>
    b7d6:	8b 45 f8             	mov    -0x8(%rbp),%eax
    b7d9:	8b 55 fc             	mov    -0x4(%rbp),%edx
    b7dc:	89 c1                	mov    %eax,%ecx
    b7de:	d3 fa                	sar    %cl,%edx
    b7e0:	89 d0                	mov    %edx,%eax
    b7e2:	eb 03                	jmp    b7e7 <safe_rshift_func_int32_t_s_s+0x31>
    b7e4:	8b 45 fc             	mov    -0x4(%rbp),%eax
    b7e7:	5d                   	pop    %rbp
    b7e8:	c3                   	retq   

000000000000b7e9 <safe_rshift_func_int32_t_s_u>:
    b7e9:	f3 0f 1e fa          	endbr64 
    b7ed:	55                   	push   %rbp
    b7ee:	48 89 e5             	mov    %rsp,%rbp
    b7f1:	89 7d fc             	mov    %edi,-0x4(%rbp)
    b7f4:	89 75 f8             	mov    %esi,-0x8(%rbp)
    b7f7:	83 7d fc 00          	cmpl   $0x0,-0x4(%rbp)
    b7fb:	78 14                	js     b811 <safe_rshift_func_int32_t_s_u+0x28>
    b7fd:	83 7d f8 1f          	cmpl   $0x1f,-0x8(%rbp)
    b801:	77 0e                	ja     b811 <safe_rshift_func_int32_t_s_u+0x28>
    b803:	8b 45 f8             	mov    -0x8(%rbp),%eax
    b806:	8b 55 fc             	mov    -0x4(%rbp),%edx
    b809:	89 c1                	mov    %eax,%ecx
    b80b:	d3 fa                	sar    %cl,%edx
    b80d:	89 d0                	mov    %edx,%eax
    b80f:	eb 03                	jmp    b814 <safe_rshift_func_int32_t_s_u+0x2b>
    b811:	8b 45 fc             	mov    -0x4(%rbp),%eax
    b814:	5d                   	pop    %rbp
    b815:	c3                   	retq   

000000000000b816 <safe_unary_minus_func_int64_t_s>:
    b816:	f3 0f 1e fa          	endbr64 
    b81a:	55                   	push   %rbp
    b81b:	48 89 e5             	mov    %rsp,%rbp
    b81e:	48 89 7d f8          	mov    %rdi,-0x8(%rbp)
    b822:	48 b8 00 00 00 00 00 	movabs $0x8000000000000000,%rax
    b829:	00 00 80 
    b82c:	48 39 45 f8          	cmp    %rax,-0x8(%rbp)
    b830:	74 09                	je     b83b <safe_unary_minus_func_int64_t_s+0x25>
    b832:	48 8b 45 f8          	mov    -0x8(%rbp),%rax
    b836:	48 f7 d8             	neg    %rax
    b839:	eb 04                	jmp    b83f <safe_unary_minus_func_int64_t_s+0x29>
    b83b:	48 8b 45 f8          	mov    -0x8(%rbp),%rax
    b83f:	5d                   	pop    %rbp
    b840:	c3                   	retq   

000000000000b841 <safe_add_func_int64_t_s_s>:
    b841:	f3 0f 1e fa          	endbr64 
    b845:	55                   	push   %rbp
    b846:	48 89 e5             	mov    %rsp,%rbp
    b849:	48 89 7d f8          	mov    %rdi,-0x8(%rbp)
    b84d:	48 89 75 f0          	mov    %rsi,-0x10(%rbp)
    b851:	48 83 7d f8 00       	cmpq   $0x0,-0x8(%rbp)
    b856:	7e 1b                	jle    b873 <safe_add_func_int64_t_s_s+0x32>
    b858:	48 83 7d f0 00       	cmpq   $0x0,-0x10(%rbp)
    b85d:	7e 14                	jle    b873 <safe_add_func_int64_t_s_s+0x32>
    b85f:	48 b8 ff ff ff ff ff 	movabs $0x7fffffffffffffff,%rax
    b866:	ff ff 7f 
    b869:	48 2b 45 f0          	sub    -0x10(%rbp),%rax
    b86d:	48 39 45 f8          	cmp    %rax,-0x8(%rbp)
    b871:	7f 2f                	jg     b8a2 <safe_add_func_int64_t_s_s+0x61>
    b873:	48 83 7d f8 00       	cmpq   $0x0,-0x8(%rbp)
    b878:	79 1b                	jns    b895 <safe_add_func_int64_t_s_s+0x54>
    b87a:	48 83 7d f0 00       	cmpq   $0x0,-0x10(%rbp)
    b87f:	79 14                	jns    b895 <safe_add_func_int64_t_s_s+0x54>
    b881:	48 b8 00 00 00 00 00 	movabs $0x8000000000000000,%rax
    b888:	00 00 80 
    b88b:	48 2b 45 f0          	sub    -0x10(%rbp),%rax
    b88f:	48 39 45 f8          	cmp    %rax,-0x8(%rbp)
    b893:	7c 0d                	jl     b8a2 <safe_add_func_int64_t_s_s+0x61>
    b895:	48 8b 55 f8          	mov    -0x8(%rbp),%rdx
    b899:	48 8b 45 f0          	mov    -0x10(%rbp),%rax
    b89d:	48 01 d0             	add    %rdx,%rax
    b8a0:	eb 04                	jmp    b8a6 <safe_add_func_int64_t_s_s+0x65>
    b8a2:	48 8b 45 f8          	mov    -0x8(%rbp),%rax
    b8a6:	5d                   	pop    %rbp
    b8a7:	c3                   	retq   

000000000000b8a8 <safe_sub_func_int64_t_s_s>:
    b8a8:	f3 0f 1e fa          	endbr64 
    b8ac:	55                   	push   %rbp
    b8ad:	48 89 e5             	mov    %rsp,%rbp
    b8b0:	48 89 7d f8          	mov    %rdi,-0x8(%rbp)
    b8b4:	48 89 75 f0          	mov    %rsi,-0x10(%rbp)
    b8b8:	48 8b 45 f8          	mov    -0x8(%rbp),%rax
    b8bc:	48 33 45 f0          	xor    -0x10(%rbp),%rax
    b8c0:	48 89 c2             	mov    %rax,%rdx
    b8c3:	48 8b 45 f8          	mov    -0x8(%rbp),%rax
    b8c7:	48 33 45 f0          	xor    -0x10(%rbp),%rax
    b8cb:	48 b9 00 00 00 00 00 	movabs $0x8000000000000000,%rcx
    b8d2:	00 00 80 
    b8d5:	48 21 c8             	and    %rcx,%rax
    b8d8:	48 33 45 f8          	xor    -0x8(%rbp),%rax
    b8dc:	48 2b 45 f0          	sub    -0x10(%rbp),%rax
    b8e0:	48 33 45 f0          	xor    -0x10(%rbp),%rax
    b8e4:	48 21 d0             	and    %rdx,%rax
    b8e7:	48 85 c0             	test   %rax,%rax
    b8ea:	78 0a                	js     b8f6 <safe_sub_func_int64_t_s_s+0x4e>
    b8ec:	48 8b 45 f8          	mov    -0x8(%rbp),%rax
    b8f0:	48 2b 45 f0          	sub    -0x10(%rbp),%rax
    b8f4:	eb 04                	jmp    b8fa <safe_sub_func_int64_t_s_s+0x52>
    b8f6:	48 8b 45 f8          	mov    -0x8(%rbp),%rax
    b8fa:	5d                   	pop    %rbp
    b8fb:	c3                   	retq   

000000000000b8fc <safe_mul_func_int64_t_s_s>:
    b8fc:	f3 0f 1e fa          	endbr64 
    b900:	55                   	push   %rbp
    b901:	48 89 e5             	mov    %rsp,%rbp
    b904:	48 89 7d f8          	mov    %rdi,-0x8(%rbp)
    b908:	48 89 75 f0          	mov    %rsi,-0x10(%rbp)
    b90c:	48 83 7d f8 00       	cmpq   $0x0,-0x8(%rbp)
    b911:	7e 1d                	jle    b930 <safe_mul_func_int64_t_s_s+0x34>
    b913:	48 83 7d f0 00       	cmpq   $0x0,-0x10(%rbp)
    b918:	7e 16                	jle    b930 <safe_mul_func_int64_t_s_s+0x34>
    b91a:	48 b8 ff ff ff ff ff 	movabs $0x7fffffffffffffff,%rax
    b921:	ff ff 7f 
    b924:	48 99                	cqto   
    b926:	48 f7 7d f0          	idivq  -0x10(%rbp)
    b92a:	48 39 45 f8          	cmp    %rax,-0x8(%rbp)
    b92e:	7f 7e                	jg     b9ae <safe_mul_func_int64_t_s_s+0xb2>
    b930:	48 83 7d f8 00       	cmpq   $0x0,-0x8(%rbp)
    b935:	7e 1d                	jle    b954 <safe_mul_func_int64_t_s_s+0x58>
    b937:	48 83 7d f0 00       	cmpq   $0x0,-0x10(%rbp)
    b93c:	7f 16                	jg     b954 <safe_mul_func_int64_t_s_s+0x58>
    b93e:	48 b8 00 00 00 00 00 	movabs $0x8000000000000000,%rax
    b945:	00 00 80 
    b948:	48 99                	cqto   
    b94a:	48 f7 7d f8          	idivq  -0x8(%rbp)
    b94e:	48 39 45 f0          	cmp    %rax,-0x10(%rbp)
    b952:	7c 5a                	jl     b9ae <safe_mul_func_int64_t_s_s+0xb2>
    b954:	48 83 7d f8 00       	cmpq   $0x0,-0x8(%rbp)
    b959:	7f 1d                	jg     b978 <safe_mul_func_int64_t_s_s+0x7c>
    b95b:	48 83 7d f0 00       	cmpq   $0x0,-0x10(%rbp)
    b960:	7e 16                	jle    b978 <safe_mul_func_int64_t_s_s+0x7c>
    b962:	48 b8 00 00 00 00 00 	movabs $0x8000000000000000,%rax
    b969:	00 00 80 
    b96c:	48 99                	cqto   
    b96e:	48 f7 7d f0          	idivq  -0x10(%rbp)
    b972:	48 39 45 f8          	cmp    %rax,-0x8(%rbp)
    b976:	7c 36                	jl     b9ae <safe_mul_func_int64_t_s_s+0xb2>
    b978:	48 83 7d f8 00       	cmpq   $0x0,-0x8(%rbp)
    b97d:	7f 24                	jg     b9a3 <safe_mul_func_int64_t_s_s+0xa7>
    b97f:	48 83 7d f0 00       	cmpq   $0x0,-0x10(%rbp)
    b984:	7f 1d                	jg     b9a3 <safe_mul_func_int64_t_s_s+0xa7>
    b986:	48 83 7d f8 00       	cmpq   $0x0,-0x8(%rbp)
    b98b:	74 16                	je     b9a3 <safe_mul_func_int64_t_s_s+0xa7>
    b98d:	48 b8 ff ff ff ff ff 	movabs $0x7fffffffffffffff,%rax
    b994:	ff ff 7f 
    b997:	48 99                	cqto   
    b999:	48 f7 7d f8          	idivq  -0x8(%rbp)
    b99d:	48 39 45 f0          	cmp    %rax,-0x10(%rbp)
    b9a1:	7c 0b                	jl     b9ae <safe_mul_func_int64_t_s_s+0xb2>
    b9a3:	48 8b 45 f8          	mov    -0x8(%rbp),%rax
    b9a7:	48 0f af 45 f0       	imul   -0x10(%rbp),%rax
    b9ac:	eb 04                	jmp    b9b2 <safe_mul_func_int64_t_s_s+0xb6>
    b9ae:	48 8b 45 f8          	mov    -0x8(%rbp),%rax
    b9b2:	5d                   	pop    %rbp
    b9b3:	c3                   	retq   

000000000000b9b4 <safe_mod_func_int64_t_s_s>:
    b9b4:	f3 0f 1e fa          	endbr64 
    b9b8:	55                   	push   %rbp
    b9b9:	48 89 e5             	mov    %rsp,%rbp
    b9bc:	48 89 7d f8          	mov    %rdi,-0x8(%rbp)
    b9c0:	48 89 75 f0          	mov    %rsi,-0x10(%rbp)
    b9c4:	48 83 7d f0 00       	cmpq   $0x0,-0x10(%rbp)
    b9c9:	74 26                	je     b9f1 <safe_mod_func_int64_t_s_s+0x3d>
    b9cb:	48 b8 00 00 00 00 00 	movabs $0x8000000000000000,%rax
    b9d2:	00 00 80 
    b9d5:	48 39 45 f8          	cmp    %rax,-0x8(%rbp)
    b9d9:	75 07                	jne    b9e2 <safe_mod_func_int64_t_s_s+0x2e>
    b9db:	48 83 7d f0 ff       	cmpq   $0xffffffffffffffff,-0x10(%rbp)
    b9e0:	74 0f                	je     b9f1 <safe_mod_func_int64_t_s_s+0x3d>
    b9e2:	48 8b 45 f8          	mov    -0x8(%rbp),%rax
    b9e6:	48 99                	cqto   
    b9e8:	48 f7 7d f0          	idivq  -0x10(%rbp)
    b9ec:	48 89 d0             	mov    %rdx,%rax
    b9ef:	eb 04                	jmp    b9f5 <safe_mod_func_int64_t_s_s+0x41>
    b9f1:	48 8b 45 f8          	mov    -0x8(%rbp),%rax
    b9f5:	5d                   	pop    %rbp
    b9f6:	c3                   	retq   

000000000000b9f7 <safe_div_func_int64_t_s_s>:
    b9f7:	f3 0f 1e fa          	endbr64 
    b9fb:	55                   	push   %rbp
    b9fc:	48 89 e5             	mov    %rsp,%rbp
    b9ff:	48 89 7d f8          	mov    %rdi,-0x8(%rbp)
    ba03:	48 89 75 f0          	mov    %rsi,-0x10(%rbp)
    ba07:	48 83 7d f0 00       	cmpq   $0x0,-0x10(%rbp)
    ba0c:	74 23                	je     ba31 <safe_div_func_int64_t_s_s+0x3a>
    ba0e:	48 b8 00 00 00 00 00 	movabs $0x8000000000000000,%rax
    ba15:	00 00 80 
    ba18:	48 39 45 f8          	cmp    %rax,-0x8(%rbp)
    ba1c:	75 07                	jne    ba25 <safe_div_func_int64_t_s_s+0x2e>
    ba1e:	48 83 7d f0 ff       	cmpq   $0xffffffffffffffff,-0x10(%rbp)
    ba23:	74 0c                	je     ba31 <safe_div_func_int64_t_s_s+0x3a>
    ba25:	48 8b 45 f8          	mov    -0x8(%rbp),%rax
    ba29:	48 99                	cqto   
    ba2b:	48 f7 7d f0          	idivq  -0x10(%rbp)
    ba2f:	eb 04                	jmp    ba35 <safe_div_func_int64_t_s_s+0x3e>
    ba31:	48 8b 45 f8          	mov    -0x8(%rbp),%rax
    ba35:	5d                   	pop    %rbp
    ba36:	c3                   	retq   

000000000000ba37 <safe_lshift_func_int64_t_s_s>:
    ba37:	f3 0f 1e fa          	endbr64 
    ba3b:	55                   	push   %rbp
    ba3c:	48 89 e5             	mov    %rsp,%rbp
    ba3f:	48 89 7d f8          	mov    %rdi,-0x8(%rbp)
    ba43:	89 75 f4             	mov    %esi,-0xc(%rbp)
    ba46:	48 83 7d f8 00       	cmpq   $0x0,-0x8(%rbp)
    ba4b:	78 38                	js     ba85 <safe_lshift_func_int64_t_s_s+0x4e>
    ba4d:	83 7d f4 00          	cmpl   $0x0,-0xc(%rbp)
    ba51:	78 32                	js     ba85 <safe_lshift_func_int64_t_s_s+0x4e>
    ba53:	83 7d f4 1f          	cmpl   $0x1f,-0xc(%rbp)
    ba57:	7f 2c                	jg     ba85 <safe_lshift_func_int64_t_s_s+0x4e>
    ba59:	8b 45 f4             	mov    -0xc(%rbp),%eax
    ba5c:	48 ba ff ff ff ff ff 	movabs $0x7fffffffffffffff,%rdx
    ba63:	ff ff 7f 
    ba66:	89 c1                	mov    %eax,%ecx
    ba68:	48 d3 fa             	sar    %cl,%rdx
    ba6b:	48 89 d0             	mov    %rdx,%rax
    ba6e:	48 39 45 f8          	cmp    %rax,-0x8(%rbp)
    ba72:	7f 11                	jg     ba85 <safe_lshift_func_int64_t_s_s+0x4e>
    ba74:	8b 45 f4             	mov    -0xc(%rbp),%eax
    ba77:	48 8b 55 f8          	mov    -0x8(%rbp),%rdx
    ba7b:	89 c1                	mov    %eax,%ecx
    ba7d:	48 d3 e2             	shl    %cl,%rdx
    ba80:	48 89 d0             	mov    %rdx,%rax
    ba83:	eb 04                	jmp    ba89 <safe_lshift_func_int64_t_s_s+0x52>
    ba85:	48 8b 45 f8          	mov    -0x8(%rbp),%rax
    ba89:	5d                   	pop    %rbp
    ba8a:	c3                   	retq   

000000000000ba8b <safe_lshift_func_int64_t_s_u>:
    ba8b:	f3 0f 1e fa          	endbr64 
    ba8f:	55                   	push   %rbp
    ba90:	48 89 e5             	mov    %rsp,%rbp
    ba93:	48 89 7d f8          	mov    %rdi,-0x8(%rbp)
    ba97:	89 75 f4             	mov    %esi,-0xc(%rbp)
    ba9a:	48 83 7d f8 00       	cmpq   $0x0,-0x8(%rbp)
    ba9f:	78 32                	js     bad3 <safe_lshift_func_int64_t_s_u+0x48>
    baa1:	83 7d f4 1f          	cmpl   $0x1f,-0xc(%rbp)
    baa5:	77 2c                	ja     bad3 <safe_lshift_func_int64_t_s_u+0x48>
    baa7:	8b 45 f4             	mov    -0xc(%rbp),%eax
    baaa:	48 ba ff ff ff ff ff 	movabs $0x7fffffffffffffff,%rdx
    bab1:	ff ff 7f 
    bab4:	89 c1                	mov    %eax,%ecx
    bab6:	48 d3 fa             	sar    %cl,%rdx
    bab9:	48 89 d0             	mov    %rdx,%rax
    babc:	48 39 45 f8          	cmp    %rax,-0x8(%rbp)
    bac0:	7f 11                	jg     bad3 <safe_lshift_func_int64_t_s_u+0x48>
    bac2:	8b 45 f4             	mov    -0xc(%rbp),%eax
    bac5:	48 8b 55 f8          	mov    -0x8(%rbp),%rdx
    bac9:	89 c1                	mov    %eax,%ecx
    bacb:	48 d3 e2             	shl    %cl,%rdx
    bace:	48 89 d0             	mov    %rdx,%rax
    bad1:	eb 04                	jmp    bad7 <safe_lshift_func_int64_t_s_u+0x4c>
    bad3:	48 8b 45 f8          	mov    -0x8(%rbp),%rax
    bad7:	5d                   	pop    %rbp
    bad8:	c3                   	retq   

000000000000bad9 <safe_rshift_func_int64_t_s_s>:
    bad9:	f3 0f 1e fa          	endbr64 
    badd:	55                   	push   %rbp
    bade:	48 89 e5             	mov    %rsp,%rbp
    bae1:	48 89 7d f8          	mov    %rdi,-0x8(%rbp)
    bae5:	89 75 f4             	mov    %esi,-0xc(%rbp)
    bae8:	48 83 7d f8 00       	cmpq   $0x0,-0x8(%rbp)
    baed:	78 1d                	js     bb0c <safe_rshift_func_int64_t_s_s+0x33>
    baef:	83 7d f4 00          	cmpl   $0x0,-0xc(%rbp)
    baf3:	78 17                	js     bb0c <safe_rshift_func_int64_t_s_s+0x33>
    baf5:	83 7d f4 1f          	cmpl   $0x1f,-0xc(%rbp)
    baf9:	7f 11                	jg     bb0c <safe_rshift_func_int64_t_s_s+0x33>
    bafb:	8b 45 f4             	mov    -0xc(%rbp),%eax
    bafe:	48 8b 55 f8          	mov    -0x8(%rbp),%rdx
    bb02:	89 c1                	mov    %eax,%ecx
    bb04:	48 d3 fa             	sar    %cl,%rdx
    bb07:	48 89 d0             	mov    %rdx,%rax
    bb0a:	eb 04                	jmp    bb10 <safe_rshift_func_int64_t_s_s+0x37>
    bb0c:	48 8b 45 f8          	mov    -0x8(%rbp),%rax
    bb10:	5d                   	pop    %rbp
    bb11:	c3                   	retq   

000000000000bb12 <safe_rshift_func_int64_t_s_u>:
    bb12:	f3 0f 1e fa          	endbr64 
    bb16:	55                   	push   %rbp
    bb17:	48 89 e5             	mov    %rsp,%rbp
    bb1a:	48 89 7d f8          	mov    %rdi,-0x8(%rbp)
    bb1e:	89 75 f4             	mov    %esi,-0xc(%rbp)
    bb21:	48 83 7d f8 00       	cmpq   $0x0,-0x8(%rbp)
    bb26:	78 17                	js     bb3f <safe_rshift_func_int64_t_s_u+0x2d>
    bb28:	83 7d f4 1f          	cmpl   $0x1f,-0xc(%rbp)
    bb2c:	77 11                	ja     bb3f <safe_rshift_func_int64_t_s_u+0x2d>
    bb2e:	8b 45 f4             	mov    -0xc(%rbp),%eax
    bb31:	48 8b 55 f8          	mov    -0x8(%rbp),%rdx
    bb35:	89 c1                	mov    %eax,%ecx
    bb37:	48 d3 fa             	sar    %cl,%rdx
    bb3a:	48 89 d0             	mov    %rdx,%rax
    bb3d:	eb 04                	jmp    bb43 <safe_rshift_func_int64_t_s_u+0x31>
    bb3f:	48 8b 45 f8          	mov    -0x8(%rbp),%rax
    bb43:	5d                   	pop    %rbp
    bb44:	c3                   	retq   

000000000000bb45 <safe_unary_minus_func_uint8_t_u>:
    bb45:	f3 0f 1e fa          	endbr64 
    bb49:	55                   	push   %rbp
    bb4a:	48 89 e5             	mov    %rsp,%rbp
    bb4d:	89 f8                	mov    %edi,%eax
    bb4f:	88 45 fc             	mov    %al,-0x4(%rbp)
    bb52:	0f b6 45 fc          	movzbl -0x4(%rbp),%eax
    bb56:	f7 d8                	neg    %eax
    bb58:	5d                   	pop    %rbp
    bb59:	c3                   	retq   

000000000000bb5a <safe_add_func_uint8_t_u_u>:
    bb5a:	f3 0f 1e fa          	endbr64 
    bb5e:	55                   	push   %rbp
    bb5f:	48 89 e5             	mov    %rsp,%rbp
    bb62:	89 fa                	mov    %edi,%edx
    bb64:	89 f0                	mov    %esi,%eax
    bb66:	88 55 fc             	mov    %dl,-0x4(%rbp)
    bb69:	88 45 f8             	mov    %al,-0x8(%rbp)
    bb6c:	0f b6 55 fc          	movzbl -0x4(%rbp),%edx
    bb70:	0f b6 45 f8          	movzbl -0x8(%rbp),%eax
    bb74:	01 d0                	add    %edx,%eax
    bb76:	5d                   	pop    %rbp
    bb77:	c3                   	retq   

000000000000bb78 <safe_sub_func_uint8_t_u_u>:
    bb78:	f3 0f 1e fa          	endbr64 
    bb7c:	55                   	push   %rbp
    bb7d:	48 89 e5             	mov    %rsp,%rbp
    bb80:	89 fa                	mov    %edi,%edx
    bb82:	89 f0                	mov    %esi,%eax
    bb84:	88 55 fc             	mov    %dl,-0x4(%rbp)
    bb87:	88 45 f8             	mov    %al,-0x8(%rbp)
    bb8a:	0f b6 45 fc          	movzbl -0x4(%rbp),%eax
    bb8e:	2a 45 f8             	sub    -0x8(%rbp),%al
    bb91:	5d                   	pop    %rbp
    bb92:	c3                   	retq   

000000000000bb93 <safe_mul_func_uint8_t_u_u>:
    bb93:	f3 0f 1e fa          	endbr64 
    bb97:	55                   	push   %rbp
    bb98:	48 89 e5             	mov    %rsp,%rbp
    bb9b:	89 fa                	mov    %edi,%edx
    bb9d:	89 f0                	mov    %esi,%eax
    bb9f:	88 55 fc             	mov    %dl,-0x4(%rbp)
    bba2:	88 45 f8             	mov    %al,-0x8(%rbp)
    bba5:	0f b6 45 fc          	movzbl -0x4(%rbp),%eax
    bba9:	f6 65 f8             	mulb   -0x8(%rbp)
    bbac:	5d                   	pop    %rbp
    bbad:	c3                   	retq   

000000000000bbae <safe_mod_func_uint8_t_u_u>:
    bbae:	f3 0f 1e fa          	endbr64 
    bbb2:	55                   	push   %rbp
    bbb3:	48 89 e5             	mov    %rsp,%rbp
    bbb6:	89 fa                	mov    %edi,%edx
    bbb8:	89 f0                	mov    %esi,%eax
    bbba:	88 55 fc             	mov    %dl,-0x4(%rbp)
    bbbd:	88 45 f8             	mov    %al,-0x8(%rbp)
    bbc0:	80 7d f8 00          	cmpb   $0x0,-0x8(%rbp)
    bbc4:	74 0f                	je     bbd5 <safe_mod_func_uint8_t_u_u+0x27>
    bbc6:	0f b6 45 fc          	movzbl -0x4(%rbp),%eax
    bbca:	0f b6 c0             	movzbl %al,%eax
    bbcd:	f6 75 f8             	divb   -0x8(%rbp)
    bbd0:	0f b6 c4             	movzbl %ah,%eax
    bbd3:	eb 04                	jmp    bbd9 <safe_mod_func_uint8_t_u_u+0x2b>
    bbd5:	0f b6 45 fc          	movzbl -0x4(%rbp),%eax
    bbd9:	5d                   	pop    %rbp
    bbda:	c3                   	retq   

000000000000bbdb <safe_div_func_uint8_t_u_u>:
    bbdb:	f3 0f 1e fa          	endbr64 
    bbdf:	55                   	push   %rbp
    bbe0:	48 89 e5             	mov    %rsp,%rbp
    bbe3:	89 fa                	mov    %edi,%edx
    bbe5:	89 f0                	mov    %esi,%eax
    bbe7:	88 55 fc             	mov    %dl,-0x4(%rbp)
    bbea:	88 45 f8             	mov    %al,-0x8(%rbp)
    bbed:	80 7d f8 00          	cmpb   $0x0,-0x8(%rbp)
    bbf1:	74 0c                	je     bbff <safe_div_func_uint8_t_u_u+0x24>
    bbf3:	0f b6 45 fc          	movzbl -0x4(%rbp),%eax
    bbf7:	0f b6 c0             	movzbl %al,%eax
    bbfa:	f6 75 f8             	divb   -0x8(%rbp)
    bbfd:	eb 04                	jmp    bc03 <safe_div_func_uint8_t_u_u+0x28>
    bbff:	0f b6 45 fc          	movzbl -0x4(%rbp),%eax
    bc03:	5d                   	pop    %rbp
    bc04:	c3                   	retq   

000000000000bc05 <safe_lshift_func_uint8_t_u_s>:
    bc05:	f3 0f 1e fa          	endbr64 
    bc09:	55                   	push   %rbp
    bc0a:	48 89 e5             	mov    %rsp,%rbp
    bc0d:	89 f8                	mov    %edi,%eax
    bc0f:	89 75 f8             	mov    %esi,-0x8(%rbp)
    bc12:	88 45 fc             	mov    %al,-0x4(%rbp)
    bc15:	83 7d f8 00          	cmpl   $0x0,-0x8(%rbp)
    bc19:	78 2b                	js     bc46 <safe_lshift_func_uint8_t_u_s+0x41>
    bc1b:	83 7d f8 1f          	cmpl   $0x1f,-0x8(%rbp)
    bc1f:	7f 25                	jg     bc46 <safe_lshift_func_uint8_t_u_s+0x41>
    bc21:	0f b6 55 fc          	movzbl -0x4(%rbp),%edx
    bc25:	8b 45 f8             	mov    -0x8(%rbp),%eax
    bc28:	be ff 00 00 00       	mov    $0xff,%esi
    bc2d:	89 c1                	mov    %eax,%ecx
    bc2f:	d3 fe                	sar    %cl,%esi
    bc31:	89 f0                	mov    %esi,%eax
    bc33:	39 c2                	cmp    %eax,%edx
    bc35:	7f 0f                	jg     bc46 <safe_lshift_func_uint8_t_u_s+0x41>
    bc37:	0f b6 55 fc          	movzbl -0x4(%rbp),%edx
    bc3b:	8b 45 f8             	mov    -0x8(%rbp),%eax
    bc3e:	89 c1                	mov    %eax,%ecx
    bc40:	d3 e2                	shl    %cl,%edx
    bc42:	89 d0                	mov    %edx,%eax
    bc44:	eb 04                	jmp    bc4a <safe_lshift_func_uint8_t_u_s+0x45>
    bc46:	0f b6 45 fc          	movzbl -0x4(%rbp),%eax
    bc4a:	5d                   	pop    %rbp
    bc4b:	c3                   	retq   

000000000000bc4c <safe_lshift_func_uint8_t_u_u>:
    bc4c:	f3 0f 1e fa          	endbr64 
    bc50:	55                   	push   %rbp
    bc51:	48 89 e5             	mov    %rsp,%rbp
    bc54:	89 f8                	mov    %edi,%eax
    bc56:	89 75 f8             	mov    %esi,-0x8(%rbp)
    bc59:	88 45 fc             	mov    %al,-0x4(%rbp)
    bc5c:	83 7d f8 1f          	cmpl   $0x1f,-0x8(%rbp)
    bc60:	77 25                	ja     bc87 <safe_lshift_func_uint8_t_u_u+0x3b>
    bc62:	0f b6 55 fc          	movzbl -0x4(%rbp),%edx
    bc66:	8b 45 f8             	mov    -0x8(%rbp),%eax
    bc69:	be ff 00 00 00       	mov    $0xff,%esi
    bc6e:	89 c1                	mov    %eax,%ecx
    bc70:	d3 fe                	sar    %cl,%esi
    bc72:	89 f0                	mov    %esi,%eax
    bc74:	39 c2                	cmp    %eax,%edx
    bc76:	7f 0f                	jg     bc87 <safe_lshift_func_uint8_t_u_u+0x3b>
    bc78:	0f b6 55 fc          	movzbl -0x4(%rbp),%edx
    bc7c:	8b 45 f8             	mov    -0x8(%rbp),%eax
    bc7f:	89 c1                	mov    %eax,%ecx
    bc81:	d3 e2                	shl    %cl,%edx
    bc83:	89 d0                	mov    %edx,%eax
    bc85:	eb 04                	jmp    bc8b <safe_lshift_func_uint8_t_u_u+0x3f>
    bc87:	0f b6 45 fc          	movzbl -0x4(%rbp),%eax
    bc8b:	5d                   	pop    %rbp
    bc8c:	c3                   	retq   

000000000000bc8d <safe_rshift_func_uint8_t_u_s>:
    bc8d:	f3 0f 1e fa          	endbr64 
    bc91:	55                   	push   %rbp
    bc92:	48 89 e5             	mov    %rsp,%rbp
    bc95:	89 f8                	mov    %edi,%eax
    bc97:	89 75 f8             	mov    %esi,-0x8(%rbp)
    bc9a:	88 45 fc             	mov    %al,-0x4(%rbp)
    bc9d:	83 7d f8 00          	cmpl   $0x0,-0x8(%rbp)
    bca1:	78 15                	js     bcb8 <safe_rshift_func_uint8_t_u_s+0x2b>
    bca3:	83 7d f8 1f          	cmpl   $0x1f,-0x8(%rbp)
    bca7:	7f 0f                	jg     bcb8 <safe_rshift_func_uint8_t_u_s+0x2b>
    bca9:	0f b6 55 fc          	movzbl -0x4(%rbp),%edx
    bcad:	8b 45 f8             	mov    -0x8(%rbp),%eax
    bcb0:	89 c1                	mov    %eax,%ecx
    bcb2:	d3 fa                	sar    %cl,%edx
    bcb4:	89 d0                	mov    %edx,%eax
    bcb6:	eb 04                	jmp    bcbc <safe_rshift_func_uint8_t_u_s+0x2f>
    bcb8:	0f b6 45 fc          	movzbl -0x4(%rbp),%eax
    bcbc:	5d                   	pop    %rbp
    bcbd:	c3                   	retq   

000000000000bcbe <safe_rshift_func_uint8_t_u_u>:
    bcbe:	f3 0f 1e fa          	endbr64 
    bcc2:	55                   	push   %rbp
    bcc3:	48 89 e5             	mov    %rsp,%rbp
    bcc6:	89 f8                	mov    %edi,%eax
    bcc8:	89 75 f8             	mov    %esi,-0x8(%rbp)
    bccb:	88 45 fc             	mov    %al,-0x4(%rbp)
    bcce:	83 7d f8 1f          	cmpl   $0x1f,-0x8(%rbp)
    bcd2:	77 0f                	ja     bce3 <safe_rshift_func_uint8_t_u_u+0x25>
    bcd4:	0f b6 55 fc          	movzbl -0x4(%rbp),%edx
    bcd8:	8b 45 f8             	mov    -0x8(%rbp),%eax
    bcdb:	89 c1                	mov    %eax,%ecx
    bcdd:	d3 fa                	sar    %cl,%edx
    bcdf:	89 d0                	mov    %edx,%eax
    bce1:	eb 04                	jmp    bce7 <safe_rshift_func_uint8_t_u_u+0x29>
    bce3:	0f b6 45 fc          	movzbl -0x4(%rbp),%eax
    bce7:	5d                   	pop    %rbp
    bce8:	c3                   	retq   

000000000000bce9 <safe_unary_minus_func_uint16_t_u>:
    bce9:	f3 0f 1e fa          	endbr64 
    bced:	55                   	push   %rbp
    bcee:	48 89 e5             	mov    %rsp,%rbp
    bcf1:	89 f8                	mov    %edi,%eax
    bcf3:	66 89 45 fc          	mov    %ax,-0x4(%rbp)
    bcf7:	0f b7 45 fc          	movzwl -0x4(%rbp),%eax
    bcfb:	f7 d8                	neg    %eax
    bcfd:	5d                   	pop    %rbp
    bcfe:	c3                   	retq   

000000000000bcff <safe_add_func_uint16_t_u_u>:
    bcff:	f3 0f 1e fa          	endbr64 
    bd03:	55                   	push   %rbp
    bd04:	48 89 e5             	mov    %rsp,%rbp
    bd07:	89 fa                	mov    %edi,%edx
    bd09:	89 f0                	mov    %esi,%eax
    bd0b:	66 89 55 fc          	mov    %dx,-0x4(%rbp)
    bd0f:	66 89 45 f8          	mov    %ax,-0x8(%rbp)
    bd13:	0f b7 55 fc          	movzwl -0x4(%rbp),%edx
    bd17:	0f b7 45 f8          	movzwl -0x8(%rbp),%eax
    bd1b:	01 d0                	add    %edx,%eax
    bd1d:	5d                   	pop    %rbp
    bd1e:	c3                   	retq   

000000000000bd1f <safe_sub_func_uint16_t_u_u>:
    bd1f:	f3 0f 1e fa          	endbr64 
    bd23:	55                   	push   %rbp
    bd24:	48 89 e5             	mov    %rsp,%rbp
    bd27:	89 fa                	mov    %edi,%edx
    bd29:	89 f0                	mov    %esi,%eax
    bd2b:	66 89 55 fc          	mov    %dx,-0x4(%rbp)
    bd2f:	66 89 45 f8          	mov    %ax,-0x8(%rbp)
    bd33:	0f b7 45 fc          	movzwl -0x4(%rbp),%eax
    bd37:	66 2b 45 f8          	sub    -0x8(%rbp),%ax
    bd3b:	5d                   	pop    %rbp
    bd3c:	c3                   	retq   

000000000000bd3d <safe_mul_func_uint16_t_u_u>:
    bd3d:	f3 0f 1e fa          	endbr64 
    bd41:	55                   	push   %rbp
    bd42:	48 89 e5             	mov    %rsp,%rbp
    bd45:	89 fa                	mov    %edi,%edx
    bd47:	89 f0                	mov    %esi,%eax
    bd49:	66 89 55 fc          	mov    %dx,-0x4(%rbp)
    bd4d:	66 89 45 f8          	mov    %ax,-0x8(%rbp)
    bd51:	0f b7 45 fc          	movzwl -0x4(%rbp),%eax
    bd55:	66 0f af 45 f8       	imul   -0x8(%rbp),%ax
    bd5a:	5d                   	pop    %rbp
    bd5b:	c3                   	retq   

000000000000bd5c <safe_mod_func_uint16_t_u_u>:
    bd5c:	f3 0f 1e fa          	endbr64 
    bd60:	55                   	push   %rbp
    bd61:	48 89 e5             	mov    %rsp,%rbp
    bd64:	89 fa                	mov    %edi,%edx
    bd66:	89 f0                	mov    %esi,%eax
    bd68:	66 89 55 fc          	mov    %dx,-0x4(%rbp)
    bd6c:	66 89 45 f8          	mov    %ax,-0x8(%rbp)
    bd70:	66 83 7d f8 00       	cmpw   $0x0,-0x8(%rbp)
    bd75:	74 11                	je     bd88 <safe_mod_func_uint16_t_u_u+0x2c>
    bd77:	0f b7 45 fc          	movzwl -0x4(%rbp),%eax
    bd7b:	ba 00 00 00 00       	mov    $0x0,%edx
    bd80:	66 f7 75 f8          	divw   -0x8(%rbp)
    bd84:	89 d0                	mov    %edx,%eax
    bd86:	eb 04                	jmp    bd8c <safe_mod_func_uint16_t_u_u+0x30>
    bd88:	0f b7 45 fc          	movzwl -0x4(%rbp),%eax
    bd8c:	5d                   	pop    %rbp
    bd8d:	c3                   	retq   

000000000000bd8e <safe_div_func_uint16_t_u_u>:
    bd8e:	f3 0f 1e fa          	endbr64 
    bd92:	55                   	push   %rbp
    bd93:	48 89 e5             	mov    %rsp,%rbp
    bd96:	89 fa                	mov    %edi,%edx
    bd98:	89 f0                	mov    %esi,%eax
    bd9a:	66 89 55 fc          	mov    %dx,-0x4(%rbp)
    bd9e:	66 89 45 f8          	mov    %ax,-0x8(%rbp)
    bda2:	66 83 7d f8 00       	cmpw   $0x0,-0x8(%rbp)
    bda7:	74 0f                	je     bdb8 <safe_div_func_uint16_t_u_u+0x2a>
    bda9:	0f b7 45 fc          	movzwl -0x4(%rbp),%eax
    bdad:	ba 00 00 00 00       	mov    $0x0,%edx
    bdb2:	66 f7 75 f8          	divw   -0x8(%rbp)
    bdb6:	eb 04                	jmp    bdbc <safe_div_func_uint16_t_u_u+0x2e>
    bdb8:	0f b7 45 fc          	movzwl -0x4(%rbp),%eax
    bdbc:	5d                   	pop    %rbp
    bdbd:	c3                   	retq   

000000000000bdbe <safe_lshift_func_uint16_t_u_s>:
    bdbe:	f3 0f 1e fa          	endbr64 
    bdc2:	55                   	push   %rbp
    bdc3:	48 89 e5             	mov    %rsp,%rbp
    bdc6:	89 f8                	mov    %edi,%eax
    bdc8:	89 75 f8             	mov    %esi,-0x8(%rbp)
    bdcb:	66 89 45 fc          	mov    %ax,-0x4(%rbp)
    bdcf:	83 7d f8 00          	cmpl   $0x0,-0x8(%rbp)
    bdd3:	78 2b                	js     be00 <safe_lshift_func_uint16_t_u_s+0x42>
    bdd5:	83 7d f8 1f          	cmpl   $0x1f,-0x8(%rbp)
    bdd9:	7f 25                	jg     be00 <safe_lshift_func_uint16_t_u_s+0x42>
    bddb:	0f b7 55 fc          	movzwl -0x4(%rbp),%edx
    bddf:	8b 45 f8             	mov    -0x8(%rbp),%eax
    bde2:	be ff ff 00 00       	mov    $0xffff,%esi
    bde7:	89 c1                	mov    %eax,%ecx
    bde9:	d3 fe                	sar    %cl,%esi
    bdeb:	89 f0                	mov    %esi,%eax
    bded:	39 c2                	cmp    %eax,%edx
    bdef:	7f 0f                	jg     be00 <safe_lshift_func_uint16_t_u_s+0x42>
    bdf1:	0f b7 55 fc          	movzwl -0x4(%rbp),%edx
    bdf5:	8b 45 f8             	mov    -0x8(%rbp),%eax
    bdf8:	89 c1                	mov    %eax,%ecx
    bdfa:	d3 e2                	shl    %cl,%edx
    bdfc:	89 d0                	mov    %edx,%eax
    bdfe:	eb 04                	jmp    be04 <safe_lshift_func_uint16_t_u_s+0x46>
    be00:	0f b7 45 fc          	movzwl -0x4(%rbp),%eax
    be04:	5d                   	pop    %rbp
    be05:	c3                   	retq   

000000000000be06 <safe_lshift_func_uint16_t_u_u>:
    be06:	f3 0f 1e fa          	endbr64 
    be0a:	55                   	push   %rbp
    be0b:	48 89 e5             	mov    %rsp,%rbp
    be0e:	89 f8                	mov    %edi,%eax
    be10:	89 75 f8             	mov    %esi,-0x8(%rbp)
    be13:	66 89 45 fc          	mov    %ax,-0x4(%rbp)
    be17:	83 7d f8 1f          	cmpl   $0x1f,-0x8(%rbp)
    be1b:	77 25                	ja     be42 <safe_lshift_func_uint16_t_u_u+0x3c>
    be1d:	0f b7 55 fc          	movzwl -0x4(%rbp),%edx
    be21:	8b 45 f8             	mov    -0x8(%rbp),%eax
    be24:	be ff ff 00 00       	mov    $0xffff,%esi
    be29:	89 c1                	mov    %eax,%ecx
    be2b:	d3 fe                	sar    %cl,%esi
    be2d:	89 f0                	mov    %esi,%eax
    be2f:	39 c2                	cmp    %eax,%edx
    be31:	7f 0f                	jg     be42 <safe_lshift_func_uint16_t_u_u+0x3c>
    be33:	0f b7 55 fc          	movzwl -0x4(%rbp),%edx
    be37:	8b 45 f8             	mov    -0x8(%rbp),%eax
    be3a:	89 c1                	mov    %eax,%ecx
    be3c:	d3 e2                	shl    %cl,%edx
    be3e:	89 d0                	mov    %edx,%eax
    be40:	eb 04                	jmp    be46 <safe_lshift_func_uint16_t_u_u+0x40>
    be42:	0f b7 45 fc          	movzwl -0x4(%rbp),%eax
    be46:	5d                   	pop    %rbp
    be47:	c3                   	retq   

000000000000be48 <safe_rshift_func_uint16_t_u_s>:
    be48:	f3 0f 1e fa          	endbr64 
    be4c:	55                   	push   %rbp
    be4d:	48 89 e5             	mov    %rsp,%rbp
    be50:	89 f8                	mov    %edi,%eax
    be52:	89 75 f8             	mov    %esi,-0x8(%rbp)
    be55:	66 89 45 fc          	mov    %ax,-0x4(%rbp)
    be59:	83 7d f8 00          	cmpl   $0x0,-0x8(%rbp)
    be5d:	78 15                	js     be74 <safe_rshift_func_uint16_t_u_s+0x2c>
    be5f:	83 7d f8 1f          	cmpl   $0x1f,-0x8(%rbp)
    be63:	7f 0f                	jg     be74 <safe_rshift_func_uint16_t_u_s+0x2c>
    be65:	0f b7 55 fc          	movzwl -0x4(%rbp),%edx
    be69:	8b 45 f8             	mov    -0x8(%rbp),%eax
    be6c:	89 c1                	mov    %eax,%ecx
    be6e:	d3 fa                	sar    %cl,%edx
    be70:	89 d0                	mov    %edx,%eax
    be72:	eb 04                	jmp    be78 <safe_rshift_func_uint16_t_u_s+0x30>
    be74:	0f b7 45 fc          	movzwl -0x4(%rbp),%eax
    be78:	5d                   	pop    %rbp
    be79:	c3                   	retq   

000000000000be7a <safe_rshift_func_uint16_t_u_u>:
    be7a:	f3 0f 1e fa          	endbr64 
    be7e:	55                   	push   %rbp
    be7f:	48 89 e5             	mov    %rsp,%rbp
    be82:	89 f8                	mov    %edi,%eax
    be84:	89 75 f8             	mov    %esi,-0x8(%rbp)
    be87:	66 89 45 fc          	mov    %ax,-0x4(%rbp)
    be8b:	83 7d f8 1f          	cmpl   $0x1f,-0x8(%rbp)
    be8f:	77 0f                	ja     bea0 <safe_rshift_func_uint16_t_u_u+0x26>
    be91:	0f b7 55 fc          	movzwl -0x4(%rbp),%edx
    be95:	8b 45 f8             	mov    -0x8(%rbp),%eax
    be98:	89 c1                	mov    %eax,%ecx
    be9a:	d3 fa                	sar    %cl,%edx
    be9c:	89 d0                	mov    %edx,%eax
    be9e:	eb 04                	jmp    bea4 <safe_rshift_func_uint16_t_u_u+0x2a>
    bea0:	0f b7 45 fc          	movzwl -0x4(%rbp),%eax
    bea4:	5d                   	pop    %rbp
    bea5:	c3                   	retq   

000000000000bea6 <safe_unary_minus_func_uint32_t_u>:
    bea6:	f3 0f 1e fa          	endbr64 
    beaa:	55                   	push   %rbp
    beab:	48 89 e5             	mov    %rsp,%rbp
    beae:	89 7d fc             	mov    %edi,-0x4(%rbp)
    beb1:	8b 45 fc             	mov    -0x4(%rbp),%eax
    beb4:	f7 d8                	neg    %eax
    beb6:	5d                   	pop    %rbp
    beb7:	c3                   	retq   

000000000000beb8 <safe_add_func_uint32_t_u_u>:
    beb8:	f3 0f 1e fa          	endbr64 
    bebc:	55                   	push   %rbp
    bebd:	48 89 e5             	mov    %rsp,%rbp
    bec0:	89 7d fc             	mov    %edi,-0x4(%rbp)
    bec3:	89 75 f8             	mov    %esi,-0x8(%rbp)
    bec6:	8b 55 fc             	mov    -0x4(%rbp),%edx
    bec9:	8b 45 f8             	mov    -0x8(%rbp),%eax
    becc:	01 d0                	add    %edx,%eax
    bece:	5d                   	pop    %rbp
    becf:	c3                   	retq   

000000000000bed0 <safe_sub_func_uint32_t_u_u>:
    bed0:	f3 0f 1e fa          	endbr64 
    bed4:	55                   	push   %rbp
    bed5:	48 89 e5             	mov    %rsp,%rbp
    bed8:	89 7d fc             	mov    %edi,-0x4(%rbp)
    bedb:	89 75 f8             	mov    %esi,-0x8(%rbp)
    bede:	8b 45 fc             	mov    -0x4(%rbp),%eax
    bee1:	2b 45 f8             	sub    -0x8(%rbp),%eax
    bee4:	5d                   	pop    %rbp
    bee5:	c3                   	retq   

000000000000bee6 <safe_mul_func_uint32_t_u_u>:
    bee6:	f3 0f 1e fa          	endbr64 
    beea:	55                   	push   %rbp
    beeb:	48 89 e5             	mov    %rsp,%rbp
    beee:	89 7d fc             	mov    %edi,-0x4(%rbp)
    bef1:	89 75 f8             	mov    %esi,-0x8(%rbp)
    bef4:	8b 45 fc             	mov    -0x4(%rbp),%eax
    bef7:	0f af 45 f8          	imul   -0x8(%rbp),%eax
    befb:	5d                   	pop    %rbp
    befc:	c3                   	retq   

000000000000befd <safe_mod_func_uint32_t_u_u>:
    befd:	f3 0f 1e fa          	endbr64 
    bf01:	55                   	push   %rbp
    bf02:	48 89 e5             	mov    %rsp,%rbp
    bf05:	89 7d fc             	mov    %edi,-0x4(%rbp)
    bf08:	89 75 f8             	mov    %esi,-0x8(%rbp)
    bf0b:	83 7d f8 00          	cmpl   $0x0,-0x8(%rbp)
    bf0f:	74 0f                	je     bf20 <safe_mod_func_uint32_t_u_u+0x23>
    bf11:	8b 45 fc             	mov    -0x4(%rbp),%eax
    bf14:	ba 00 00 00 00       	mov    $0x0,%edx
    bf19:	f7 75 f8             	divl   -0x8(%rbp)
    bf1c:	89 d0                	mov    %edx,%eax
    bf1e:	eb 03                	jmp    bf23 <safe_mod_func_uint32_t_u_u+0x26>
    bf20:	8b 45 fc             	mov    -0x4(%rbp),%eax
    bf23:	5d                   	pop    %rbp
    bf24:	c3                   	retq   

000000000000bf25 <safe_div_func_uint32_t_u_u>:
    bf25:	f3 0f 1e fa          	endbr64 
    bf29:	55                   	push   %rbp
    bf2a:	48 89 e5             	mov    %rsp,%rbp
    bf2d:	89 7d fc             	mov    %edi,-0x4(%rbp)
    bf30:	89 75 f8             	mov    %esi,-0x8(%rbp)
    bf33:	83 7d f8 00          	cmpl   $0x0,-0x8(%rbp)
    bf37:	74 0d                	je     bf46 <safe_div_func_uint32_t_u_u+0x21>
    bf39:	8b 45 fc             	mov    -0x4(%rbp),%eax
    bf3c:	ba 00 00 00 00       	mov    $0x0,%edx
    bf41:	f7 75 f8             	divl   -0x8(%rbp)
    bf44:	eb 03                	jmp    bf49 <safe_div_func_uint32_t_u_u+0x24>
    bf46:	8b 45 fc             	mov    -0x4(%rbp),%eax
    bf49:	5d                   	pop    %rbp
    bf4a:	c3                   	retq   

000000000000bf4b <safe_lshift_func_uint32_t_u_s>:
    bf4b:	f3 0f 1e fa          	endbr64 
    bf4f:	55                   	push   %rbp
    bf50:	48 89 e5             	mov    %rsp,%rbp
    bf53:	89 7d fc             	mov    %edi,-0x4(%rbp)
    bf56:	89 75 f8             	mov    %esi,-0x8(%rbp)
    bf59:	83 7d f8 00          	cmpl   $0x0,-0x8(%rbp)
    bf5d:	78 27                	js     bf86 <safe_lshift_func_uint32_t_u_s+0x3b>
    bf5f:	83 7d f8 1f          	cmpl   $0x1f,-0x8(%rbp)
    bf63:	7f 21                	jg     bf86 <safe_lshift_func_uint32_t_u_s+0x3b>
    bf65:	8b 45 f8             	mov    -0x8(%rbp),%eax
    bf68:	ba ff ff ff ff       	mov    $0xffffffff,%edx
    bf6d:	89 c1                	mov    %eax,%ecx
    bf6f:	d3 ea                	shr    %cl,%edx
    bf71:	89 d0                	mov    %edx,%eax
    bf73:	39 45 fc             	cmp    %eax,-0x4(%rbp)
    bf76:	77 0e                	ja     bf86 <safe_lshift_func_uint32_t_u_s+0x3b>
    bf78:	8b 45 f8             	mov    -0x8(%rbp),%eax
    bf7b:	8b 55 fc             	mov    -0x4(%rbp),%edx
    bf7e:	89 c1                	mov    %eax,%ecx
    bf80:	d3 e2                	shl    %cl,%edx
    bf82:	89 d0                	mov    %edx,%eax
    bf84:	eb 03                	jmp    bf89 <safe_lshift_func_uint32_t_u_s+0x3e>
    bf86:	8b 45 fc             	mov    -0x4(%rbp),%eax
    bf89:	5d                   	pop    %rbp
    bf8a:	c3                   	retq   

000000000000bf8b <safe_lshift_func_uint32_t_u_u>:
    bf8b:	f3 0f 1e fa          	endbr64 
    bf8f:	55                   	push   %rbp
    bf90:	48 89 e5             	mov    %rsp,%rbp
    bf93:	89 7d fc             	mov    %edi,-0x4(%rbp)
    bf96:	89 75 f8             	mov    %esi,-0x8(%rbp)
    bf99:	83 7d f8 1f          	cmpl   $0x1f,-0x8(%rbp)
    bf9d:	77 21                	ja     bfc0 <safe_lshift_func_uint32_t_u_u+0x35>
    bf9f:	8b 45 f8             	mov    -0x8(%rbp),%eax
    bfa2:	ba ff ff ff ff       	mov    $0xffffffff,%edx
    bfa7:	89 c1                	mov    %eax,%ecx
    bfa9:	d3 ea                	shr    %cl,%edx
    bfab:	89 d0                	mov    %edx,%eax
    bfad:	39 45 fc             	cmp    %eax,-0x4(%rbp)
    bfb0:	77 0e                	ja     bfc0 <safe_lshift_func_uint32_t_u_u+0x35>
    bfb2:	8b 45 f8             	mov    -0x8(%rbp),%eax
    bfb5:	8b 55 fc             	mov    -0x4(%rbp),%edx
    bfb8:	89 c1                	mov    %eax,%ecx
    bfba:	d3 e2                	shl    %cl,%edx
    bfbc:	89 d0                	mov    %edx,%eax
    bfbe:	eb 03                	jmp    bfc3 <safe_lshift_func_uint32_t_u_u+0x38>
    bfc0:	8b 45 fc             	mov    -0x4(%rbp),%eax
    bfc3:	5d                   	pop    %rbp
    bfc4:	c3                   	retq   

000000000000bfc5 <safe_rshift_func_uint32_t_u_s>:
    bfc5:	f3 0f 1e fa          	endbr64 
    bfc9:	55                   	push   %rbp
    bfca:	48 89 e5             	mov    %rsp,%rbp
    bfcd:	89 7d fc             	mov    %edi,-0x4(%rbp)
    bfd0:	89 75 f8             	mov    %esi,-0x8(%rbp)
    bfd3:	83 7d f8 00          	cmpl   $0x0,-0x8(%rbp)
    bfd7:	78 14                	js     bfed <safe_rshift_func_uint32_t_u_s+0x28>
    bfd9:	83 7d f8 1f          	cmpl   $0x1f,-0x8(%rbp)
    bfdd:	7f 0e                	jg     bfed <safe_rshift_func_uint32_t_u_s+0x28>
    bfdf:	8b 45 f8             	mov    -0x8(%rbp),%eax
    bfe2:	8b 55 fc             	mov    -0x4(%rbp),%edx
    bfe5:	89 c1                	mov    %eax,%ecx
    bfe7:	d3 ea                	shr    %cl,%edx
    bfe9:	89 d0                	mov    %edx,%eax
    bfeb:	eb 03                	jmp    bff0 <safe_rshift_func_uint32_t_u_s+0x2b>
    bfed:	8b 45 fc             	mov    -0x4(%rbp),%eax
    bff0:	5d                   	pop    %rbp
    bff1:	c3                   	retq   

000000000000bff2 <safe_rshift_func_uint32_t_u_u>:
    bff2:	f3 0f 1e fa          	endbr64 
    bff6:	55                   	push   %rbp
    bff7:	48 89 e5             	mov    %rsp,%rbp
    bffa:	89 7d fc             	mov    %edi,-0x4(%rbp)
    bffd:	89 75 f8             	mov    %esi,-0x8(%rbp)
    c000:	83 7d f8 1f          	cmpl   $0x1f,-0x8(%rbp)
    c004:	77 0e                	ja     c014 <safe_rshift_func_uint32_t_u_u+0x22>
    c006:	8b 45 f8             	mov    -0x8(%rbp),%eax
    c009:	8b 55 fc             	mov    -0x4(%rbp),%edx
    c00c:	89 c1                	mov    %eax,%ecx
    c00e:	d3 ea                	shr    %cl,%edx
    c010:	89 d0                	mov    %edx,%eax
    c012:	eb 03                	jmp    c017 <safe_rshift_func_uint32_t_u_u+0x25>
    c014:	8b 45 fc             	mov    -0x4(%rbp),%eax
    c017:	5d                   	pop    %rbp
    c018:	c3                   	retq   

000000000000c019 <safe_unary_minus_func_uint64_t_u>:
    c019:	f3 0f 1e fa          	endbr64 
    c01d:	55                   	push   %rbp
    c01e:	48 89 e5             	mov    %rsp,%rbp
    c021:	48 89 7d f8          	mov    %rdi,-0x8(%rbp)
    c025:	48 8b 45 f8          	mov    -0x8(%rbp),%rax
    c029:	48 f7 d8             	neg    %rax
    c02c:	5d                   	pop    %rbp
    c02d:	c3                   	retq   

000000000000c02e <safe_add_func_uint64_t_u_u>:
    c02e:	f3 0f 1e fa          	endbr64 
    c032:	55                   	push   %rbp
    c033:	48 89 e5             	mov    %rsp,%rbp
    c036:	48 89 7d f8          	mov    %rdi,-0x8(%rbp)
    c03a:	48 89 75 f0          	mov    %rsi,-0x10(%rbp)
    c03e:	48 8b 55 f8          	mov    -0x8(%rbp),%rdx
    c042:	48 8b 45 f0          	mov    -0x10(%rbp),%rax
    c046:	48 01 d0             	add    %rdx,%rax
    c049:	5d                   	pop    %rbp
    c04a:	c3                   	retq   

000000000000c04b <safe_sub_func_uint64_t_u_u>:
    c04b:	f3 0f 1e fa          	endbr64 
    c04f:	55                   	push   %rbp
    c050:	48 89 e5             	mov    %rsp,%rbp
    c053:	48 89 7d f8          	mov    %rdi,-0x8(%rbp)
    c057:	48 89 75 f0          	mov    %rsi,-0x10(%rbp)
    c05b:	48 8b 45 f8          	mov    -0x8(%rbp),%rax
    c05f:	48 2b 45 f0          	sub    -0x10(%rbp),%rax
    c063:	5d                   	pop    %rbp
    c064:	c3                   	retq   

000000000000c065 <safe_mul_func_uint64_t_u_u>:
    c065:	f3 0f 1e fa          	endbr64 
    c069:	55                   	push   %rbp
    c06a:	48 89 e5             	mov    %rsp,%rbp
    c06d:	48 89 7d f8          	mov    %rdi,-0x8(%rbp)
    c071:	48 89 75 f0          	mov    %rsi,-0x10(%rbp)
    c075:	48 8b 45 f8          	mov    -0x8(%rbp),%rax
    c079:	48 0f af 45 f0       	imul   -0x10(%rbp),%rax
    c07e:	5d                   	pop    %rbp
    c07f:	c3                   	retq   

000000000000c080 <safe_mod_func_uint64_t_u_u>:
    c080:	f3 0f 1e fa          	endbr64 
    c084:	55                   	push   %rbp
    c085:	48 89 e5             	mov    %rsp,%rbp
    c088:	48 89 7d f8          	mov    %rdi,-0x8(%rbp)
    c08c:	48 89 75 f0          	mov    %rsi,-0x10(%rbp)
    c090:	48 83 7d f0 00       	cmpq   $0x0,-0x10(%rbp)
    c095:	74 12                	je     c0a9 <safe_mod_func_uint64_t_u_u+0x29>
    c097:	48 8b 45 f8          	mov    -0x8(%rbp),%rax
    c09b:	ba 00 00 00 00       	mov    $0x0,%edx
    c0a0:	48 f7 75 f0          	divq   -0x10(%rbp)
    c0a4:	48 89 d0             	mov    %rdx,%rax
    c0a7:	eb 04                	jmp    c0ad <safe_mod_func_uint64_t_u_u+0x2d>
    c0a9:	48 8b 45 f8          	mov    -0x8(%rbp),%rax
    c0ad:	5d                   	pop    %rbp
    c0ae:	c3                   	retq   

000000000000c0af <safe_div_func_uint64_t_u_u>:
    c0af:	f3 0f 1e fa          	endbr64 
    c0b3:	55                   	push   %rbp
    c0b4:	48 89 e5             	mov    %rsp,%rbp
    c0b7:	48 89 7d f8          	mov    %rdi,-0x8(%rbp)
    c0bb:	48 89 75 f0          	mov    %rsi,-0x10(%rbp)
    c0bf:	48 83 7d f0 00       	cmpq   $0x0,-0x10(%rbp)
    c0c4:	74 0f                	je     c0d5 <safe_div_func_uint64_t_u_u+0x26>
    c0c6:	48 8b 45 f8          	mov    -0x8(%rbp),%rax
    c0ca:	ba 00 00 00 00       	mov    $0x0,%edx
    c0cf:	48 f7 75 f0          	divq   -0x10(%rbp)
    c0d3:	eb 04                	jmp    c0d9 <safe_div_func_uint64_t_u_u+0x2a>
    c0d5:	48 8b 45 f8          	mov    -0x8(%rbp),%rax
    c0d9:	5d                   	pop    %rbp
    c0da:	c3                   	retq   

000000000000c0db <safe_lshift_func_uint64_t_u_s>:
    c0db:	f3 0f 1e fa          	endbr64 
    c0df:	55                   	push   %rbp
    c0e0:	48 89 e5             	mov    %rsp,%rbp
    c0e3:	48 89 7d f8          	mov    %rdi,-0x8(%rbp)
    c0e7:	89 75 f4             	mov    %esi,-0xc(%rbp)
    c0ea:	83 7d f4 00          	cmpl   $0x0,-0xc(%rbp)
    c0ee:	78 2f                	js     c11f <safe_lshift_func_uint64_t_u_s+0x44>
    c0f0:	83 7d f4 1f          	cmpl   $0x1f,-0xc(%rbp)
    c0f4:	7f 29                	jg     c11f <safe_lshift_func_uint64_t_u_s+0x44>
    c0f6:	8b 45 f4             	mov    -0xc(%rbp),%eax
    c0f9:	48 c7 c2 ff ff ff ff 	mov    $0xffffffffffffffff,%rdx
    c100:	89 c1                	mov    %eax,%ecx
    c102:	48 d3 ea             	shr    %cl,%rdx
    c105:	48 89 d0             	mov    %rdx,%rax
    c108:	48 39 45 f8          	cmp    %rax,-0x8(%rbp)
    c10c:	77 11                	ja     c11f <safe_lshift_func_uint64_t_u_s+0x44>
    c10e:	8b 45 f4             	mov    -0xc(%rbp),%eax
    c111:	48 8b 55 f8          	mov    -0x8(%rbp),%rdx
    c115:	89 c1                	mov    %eax,%ecx
    c117:	48 d3 e2             	shl    %cl,%rdx
    c11a:	48 89 d0             	mov    %rdx,%rax
    c11d:	eb 04                	jmp    c123 <safe_lshift_func_uint64_t_u_s+0x48>
    c11f:	48 8b 45 f8          	mov    -0x8(%rbp),%rax
    c123:	5d                   	pop    %rbp
    c124:	c3                   	retq   

000000000000c125 <safe_lshift_func_uint64_t_u_u>:
    c125:	f3 0f 1e fa          	endbr64 
    c129:	55                   	push   %rbp
    c12a:	48 89 e5             	mov    %rsp,%rbp
    c12d:	48 89 7d f8          	mov    %rdi,-0x8(%rbp)
    c131:	89 75 f4             	mov    %esi,-0xc(%rbp)
    c134:	83 7d f4 1f          	cmpl   $0x1f,-0xc(%rbp)
    c138:	77 29                	ja     c163 <safe_lshift_func_uint64_t_u_u+0x3e>
    c13a:	8b 45 f4             	mov    -0xc(%rbp),%eax
    c13d:	48 c7 c2 ff ff ff ff 	mov    $0xffffffffffffffff,%rdx
    c144:	89 c1                	mov    %eax,%ecx
    c146:	48 d3 ea             	shr    %cl,%rdx
    c149:	48 89 d0             	mov    %rdx,%rax
    c14c:	48 39 45 f8          	cmp    %rax,-0x8(%rbp)
    c150:	77 11                	ja     c163 <safe_lshift_func_uint64_t_u_u+0x3e>
    c152:	8b 45 f4             	mov    -0xc(%rbp),%eax
    c155:	48 8b 55 f8          	mov    -0x8(%rbp),%rdx
    c159:	89 c1                	mov    %eax,%ecx
    c15b:	48 d3 e2             	shl    %cl,%rdx
    c15e:	48 89 d0             	mov    %rdx,%rax
    c161:	eb 04                	jmp    c167 <safe_lshift_func_uint64_t_u_u+0x42>
    c163:	48 8b 45 f8          	mov    -0x8(%rbp),%rax
    c167:	5d                   	pop    %rbp
    c168:	c3                   	retq   

000000000000c169 <safe_rshift_func_uint64_t_u_s>:
    c169:	f3 0f 1e fa          	endbr64 
    c16d:	55                   	push   %rbp
    c16e:	48 89 e5             	mov    %rsp,%rbp
    c171:	48 89 7d f8          	mov    %rdi,-0x8(%rbp)
    c175:	89 75 f4             	mov    %esi,-0xc(%rbp)
    c178:	83 7d f4 00          	cmpl   $0x0,-0xc(%rbp)
    c17c:	78 17                	js     c195 <safe_rshift_func_uint64_t_u_s+0x2c>
    c17e:	83 7d f4 1f          	cmpl   $0x1f,-0xc(%rbp)
    c182:	7f 11                	jg     c195 <safe_rshift_func_uint64_t_u_s+0x2c>
    c184:	8b 45 f4             	mov    -0xc(%rbp),%eax
    c187:	48 8b 55 f8          	mov    -0x8(%rbp),%rdx
    c18b:	89 c1                	mov    %eax,%ecx
    c18d:	48 d3 ea             	shr    %cl,%rdx
    c190:	48 89 d0             	mov    %rdx,%rax
    c193:	eb 04                	jmp    c199 <safe_rshift_func_uint64_t_u_s+0x30>
    c195:	48 8b 45 f8          	mov    -0x8(%rbp),%rax
    c199:	5d                   	pop    %rbp
    c19a:	c3                   	retq   

000000000000c19b <safe_rshift_func_uint64_t_u_u>:
    c19b:	f3 0f 1e fa          	endbr64 
    c19f:	55                   	push   %rbp
    c1a0:	48 89 e5             	mov    %rsp,%rbp
    c1a3:	48 89 7d f8          	mov    %rdi,-0x8(%rbp)
    c1a7:	89 75 f4             	mov    %esi,-0xc(%rbp)
    c1aa:	83 7d f4 1f          	cmpl   $0x1f,-0xc(%rbp)
    c1ae:	77 11                	ja     c1c1 <safe_rshift_func_uint64_t_u_u+0x26>
    c1b0:	8b 45 f4             	mov    -0xc(%rbp),%eax
    c1b3:	48 8b 55 f8          	mov    -0x8(%rbp),%rdx
    c1b7:	89 c1                	mov    %eax,%ecx
    c1b9:	48 d3 ea             	shr    %cl,%rdx
    c1bc:	48 89 d0             	mov    %rdx,%rax
    c1bf:	eb 04                	jmp    c1c5 <safe_rshift_func_uint64_t_u_u+0x2a>
    c1c1:	48 8b 45 f8          	mov    -0x8(%rbp),%rax
    c1c5:	5d                   	pop    %rbp
    c1c6:	c3                   	retq   

000000000000c1c7 <safe_add_func_float_f_f>:
    c1c7:	f3 0f 1e fa          	endbr64 
    c1cb:	55                   	push   %rbp
    c1cc:	48 89 e5             	mov    %rsp,%rbp
    c1cf:	f3 0f 11 45 fc       	movss  %xmm0,-0x4(%rbp)
    c1d4:	f3 0f 11 4d f8       	movss  %xmm1,-0x8(%rbp)
    c1d9:	f3 0f 10 4d fc       	movss  -0x4(%rbp),%xmm1
    c1de:	f3 0f 10 05 7a 4d 01 	movss  0x14d7a(%rip),%xmm0        # 20f60 <l_710.5357+0x20>
    c1e5:	00 
    c1e6:	f3 0f 59 c8          	mulss  %xmm0,%xmm1
    c1ea:	f3 0f 10 55 f8       	movss  -0x8(%rbp),%xmm2
    c1ef:	f3 0f 10 05 69 4d 01 	movss  0x14d69(%rip),%xmm0        # 20f60 <l_710.5357+0x20>
    c1f6:	00 
    c1f7:	f3 0f 59 c2          	mulss  %xmm2,%xmm0
    c1fb:	f3 0f 58 c1          	addss  %xmm1,%xmm0
    c1ff:	f3 0f 10 0d 69 4d 01 	movss  0x14d69(%rip),%xmm1        # 20f70 <l_710.5357+0x30>
    c206:	00 
    c207:	0f 54 c1             	andps  %xmm1,%xmm0
    c20a:	0f 2f 05 6f 4d 01 00 	comiss 0x14d6f(%rip),%xmm0        # 20f80 <l_710.5357+0x40>
    c211:	76 07                	jbe    c21a <safe_add_func_float_f_f+0x53>
    c213:	f3 0f 10 45 fc       	movss  -0x4(%rbp),%xmm0
    c218:	eb 0a                	jmp    c224 <safe_add_func_float_f_f+0x5d>
    c21a:	f3 0f 10 45 fc       	movss  -0x4(%rbp),%xmm0
    c21f:	f3 0f 58 45 f8       	addss  -0x8(%rbp),%xmm0
    c224:	5d                   	pop    %rbp
    c225:	c3                   	retq   

000000000000c226 <safe_sub_func_float_f_f>:
    c226:	f3 0f 1e fa          	endbr64 
    c22a:	55                   	push   %rbp
    c22b:	48 89 e5             	mov    %rsp,%rbp
    c22e:	f3 0f 11 45 fc       	movss  %xmm0,-0x4(%rbp)
    c233:	f3 0f 11 4d f8       	movss  %xmm1,-0x8(%rbp)
    c238:	f3 0f 10 4d fc       	movss  -0x4(%rbp),%xmm1
    c23d:	f3 0f 10 05 1b 4d 01 	movss  0x14d1b(%rip),%xmm0        # 20f60 <l_710.5357+0x20>
    c244:	00 
    c245:	f3 0f 59 c1          	mulss  %xmm1,%xmm0
    c249:	f3 0f 10 55 f8       	movss  -0x8(%rbp),%xmm2
    c24e:	f3 0f 10 0d 0a 4d 01 	movss  0x14d0a(%rip),%xmm1        # 20f60 <l_710.5357+0x20>
    c255:	00 
    c256:	f3 0f 59 ca          	mulss  %xmm2,%xmm1
    c25a:	f3 0f 5c c1          	subss  %xmm1,%xmm0
    c25e:	f3 0f 10 0d 0a 4d 01 	movss  0x14d0a(%rip),%xmm1        # 20f70 <l_710.5357+0x30>
    c265:	00 
    c266:	0f 54 c1             	andps  %xmm1,%xmm0
    c269:	0f 2f 05 10 4d 01 00 	comiss 0x14d10(%rip),%xmm0        # 20f80 <l_710.5357+0x40>
    c270:	76 07                	jbe    c279 <safe_sub_func_float_f_f+0x53>
    c272:	f3 0f 10 45 fc       	movss  -0x4(%rbp),%xmm0
    c277:	eb 0a                	jmp    c283 <safe_sub_func_float_f_f+0x5d>
    c279:	f3 0f 10 45 fc       	movss  -0x4(%rbp),%xmm0
    c27e:	f3 0f 5c 45 f8       	subss  -0x8(%rbp),%xmm0
    c283:	5d                   	pop    %rbp
    c284:	c3                   	retq   

000000000000c285 <safe_mul_func_float_f_f>:
    c285:	f3 0f 1e fa          	endbr64 
    c289:	55                   	push   %rbp
    c28a:	48 89 e5             	mov    %rsp,%rbp
    c28d:	f3 0f 11 45 fc       	movss  %xmm0,-0x4(%rbp)
    c292:	f3 0f 11 4d f8       	movss  %xmm1,-0x8(%rbp)
    c297:	f3 0f 10 4d fc       	movss  -0x4(%rbp),%xmm1
    c29c:	f3 0f 10 05 e0 4c 01 	movss  0x14ce0(%rip),%xmm0        # 20f84 <l_710.5357+0x44>
    c2a3:	00 
    c2a4:	f3 0f 59 c8          	mulss  %xmm0,%xmm1
    c2a8:	f3 0f 10 55 f8       	movss  -0x8(%rbp),%xmm2
    c2ad:	f3 0f 10 05 d3 4c 01 	movss  0x14cd3(%rip),%xmm0        # 20f88 <l_710.5357+0x48>
    c2b4:	00 
    c2b5:	f3 0f 59 c2          	mulss  %xmm2,%xmm0
    c2b9:	f3 0f 59 c1          	mulss  %xmm1,%xmm0
    c2bd:	f3 0f 10 0d ab 4c 01 	movss  0x14cab(%rip),%xmm1        # 20f70 <l_710.5357+0x30>
    c2c4:	00 
    c2c5:	0f 54 c1             	andps  %xmm1,%xmm0
    c2c8:	0f 2f 05 bd 4c 01 00 	comiss 0x14cbd(%rip),%xmm0        # 20f8c <l_710.5357+0x4c>
    c2cf:	76 07                	jbe    c2d8 <safe_mul_func_float_f_f+0x53>
    c2d1:	f3 0f 10 45 fc       	movss  -0x4(%rbp),%xmm0
    c2d6:	eb 0a                	jmp    c2e2 <safe_mul_func_float_f_f+0x5d>
    c2d8:	f3 0f 10 45 fc       	movss  -0x4(%rbp),%xmm0
    c2dd:	f3 0f 59 45 f8       	mulss  -0x8(%rbp),%xmm0
    c2e2:	5d                   	pop    %rbp
    c2e3:	c3                   	retq   

000000000000c2e4 <safe_div_func_float_f_f>:
    c2e4:	f3 0f 1e fa          	endbr64 
    c2e8:	55                   	push   %rbp
    c2e9:	48 89 e5             	mov    %rsp,%rbp
    c2ec:	f3 0f 11 45 fc       	movss  %xmm0,-0x4(%rbp)
    c2f1:	f3 0f 11 4d f8       	movss  %xmm1,-0x8(%rbp)
    c2f6:	f3 0f 10 45 f8       	movss  -0x8(%rbp),%xmm0
    c2fb:	f3 0f 10 0d 6d 4c 01 	movss  0x14c6d(%rip),%xmm1        # 20f70 <l_710.5357+0x30>
    c302:	00 
    c303:	0f 54 c8             	andps  %xmm0,%xmm1
    c306:	f3 0f 10 05 82 4c 01 	movss  0x14c82(%rip),%xmm0        # 20f90 <l_710.5357+0x50>
    c30d:	00 
    c30e:	0f 2f c1             	comiss %xmm1,%xmm0
    c311:	0f 97 c0             	seta   %al
    c314:	83 f0 01             	xor    $0x1,%eax
    c317:	84 c0                	test   %al,%al
    c319:	75 56                	jne    c371 <safe_div_func_float_f_f+0x8d>
    c31b:	66 0f ef c0          	pxor   %xmm0,%xmm0
    c31f:	0f 2e 45 f8          	ucomiss -0x8(%rbp),%xmm0
    c323:	7a 0a                	jp     c32f <safe_div_func_float_f_f+0x4b>
    c325:	66 0f ef c0          	pxor   %xmm0,%xmm0
    c329:	0f 2e 45 f8          	ucomiss -0x8(%rbp),%xmm0
    c32d:	74 4e                	je     c37d <safe_div_func_float_f_f+0x99>
    c32f:	f3 0f 10 4d fc       	movss  -0x4(%rbp),%xmm1
    c334:	f3 0f 10 05 58 4c 01 	movss  0x14c58(%rip),%xmm0        # 20f94 <l_710.5357+0x54>
    c33b:	00 
    c33c:	f3 0f 59 c1          	mulss  %xmm1,%xmm0
    c340:	f3 0f 10 55 f8       	movss  -0x8(%rbp),%xmm2
    c345:	f3 0f 10 0d 4b 4c 01 	movss  0x14c4b(%rip),%xmm1        # 20f98 <l_710.5357+0x58>
    c34c:	00 
    c34d:	f3 0f 59 ca          	mulss  %xmm2,%xmm1
    c351:	f3 0f 5e c1          	divss  %xmm1,%xmm0
    c355:	f3 0f 10 0d 13 4c 01 	movss  0x14c13(%rip),%xmm1        # 20f70 <l_710.5357+0x30>
    c35c:	00 
    c35d:	0f 54 c1             	andps  %xmm1,%xmm0
    c360:	0f 2f 05 35 4c 01 00 	comiss 0x14c35(%rip),%xmm0        # 20f9c <l_710.5357+0x5c>
    c367:	0f 97 c0             	seta   %al
    c36a:	83 f0 01             	xor    $0x1,%eax
    c36d:	84 c0                	test   %al,%al
    c36f:	74 0c                	je     c37d <safe_div_func_float_f_f+0x99>
    c371:	f3 0f 10 45 fc       	movss  -0x4(%rbp),%xmm0
    c376:	f3 0f 5e 45 f8       	divss  -0x8(%rbp),%xmm0
    c37b:	eb 05                	jmp    c382 <safe_div_func_float_f_f+0x9e>
    c37d:	f3 0f 10 45 fc       	movss  -0x4(%rbp),%xmm0
    c382:	5d                   	pop    %rbp
    c383:	c3                   	retq   

000000000000c384 <safe_add_func_double_f_f>:
    c384:	f3 0f 1e fa          	endbr64 
    c388:	55                   	push   %rbp
    c389:	48 89 e5             	mov    %rsp,%rbp
    c38c:	f2 0f 11 45 f8       	movsd  %xmm0,-0x8(%rbp)
    c391:	f2 0f 11 4d f0       	movsd  %xmm1,-0x10(%rbp)
    c396:	f2 0f 10 4d f8       	movsd  -0x8(%rbp),%xmm1
    c39b:	f2 0f 10 05 fd 4b 01 	movsd  0x14bfd(%rip),%xmm0        # 20fa0 <l_710.5357+0x60>
    c3a2:	00 
    c3a3:	f2 0f 59 c8          	mulsd  %xmm0,%xmm1
    c3a7:	f2 0f 10 55 f0       	movsd  -0x10(%rbp),%xmm2
    c3ac:	f2 0f 10 05 ec 4b 01 	movsd  0x14bec(%rip),%xmm0        # 20fa0 <l_710.5357+0x60>
    c3b3:	00 
    c3b4:	f2 0f 59 c2          	mulsd  %xmm2,%xmm0
    c3b8:	f2 0f 58 c1          	addsd  %xmm1,%xmm0
    c3bc:	f3 0f 7e 0d ec 4b 01 	movq   0x14bec(%rip),%xmm1        # 20fb0 <l_710.5357+0x70>
    c3c3:	00 
    c3c4:	66 0f 54 c1          	andpd  %xmm1,%xmm0
    c3c8:	66 0f 2f 05 f0 4b 01 	comisd 0x14bf0(%rip),%xmm0        # 20fc0 <l_710.5357+0x80>
    c3cf:	00 
    c3d0:	76 07                	jbe    c3d9 <safe_add_func_double_f_f+0x55>
    c3d2:	f2 0f 10 45 f8       	movsd  -0x8(%rbp),%xmm0
    c3d7:	eb 0a                	jmp    c3e3 <safe_add_func_double_f_f+0x5f>
    c3d9:	f2 0f 10 45 f8       	movsd  -0x8(%rbp),%xmm0
    c3de:	f2 0f 58 45 f0       	addsd  -0x10(%rbp),%xmm0
    c3e3:	5d                   	pop    %rbp
    c3e4:	c3                   	retq   

000000000000c3e5 <safe_sub_func_double_f_f>:
    c3e5:	f3 0f 1e fa          	endbr64 
    c3e9:	55                   	push   %rbp
    c3ea:	48 89 e5             	mov    %rsp,%rbp
    c3ed:	f2 0f 11 45 f8       	movsd  %xmm0,-0x8(%rbp)
    c3f2:	f2 0f 11 4d f0       	movsd  %xmm1,-0x10(%rbp)
    c3f7:	f2 0f 10 4d f8       	movsd  -0x8(%rbp),%xmm1
    c3fc:	f2 0f 10 05 9c 4b 01 	movsd  0x14b9c(%rip),%xmm0        # 20fa0 <l_710.5357+0x60>
    c403:	00 
    c404:	f2 0f 59 c1          	mulsd  %xmm1,%xmm0
    c408:	f2 0f 10 55 f0       	movsd  -0x10(%rbp),%xmm2
    c40d:	f2 0f 10 0d 8b 4b 01 	movsd  0x14b8b(%rip),%xmm1        # 20fa0 <l_710.5357+0x60>
    c414:	00 
    c415:	f2 0f 59 ca          	mulsd  %xmm2,%xmm1
    c419:	f2 0f 5c c1          	subsd  %xmm1,%xmm0
    c41d:	f3 0f 7e 0d 8b 4b 01 	movq   0x14b8b(%rip),%xmm1        # 20fb0 <l_710.5357+0x70>
    c424:	00 
    c425:	66 0f 54 c1          	andpd  %xmm1,%xmm0
    c429:	66 0f 2f 05 8f 4b 01 	comisd 0x14b8f(%rip),%xmm0        # 20fc0 <l_710.5357+0x80>
    c430:	00 
    c431:	76 07                	jbe    c43a <safe_sub_func_double_f_f+0x55>
    c433:	f2 0f 10 45 f8       	movsd  -0x8(%rbp),%xmm0
    c438:	eb 0a                	jmp    c444 <safe_sub_func_double_f_f+0x5f>
    c43a:	f2 0f 10 45 f8       	movsd  -0x8(%rbp),%xmm0
    c43f:	f2 0f 5c 45 f0       	subsd  -0x10(%rbp),%xmm0
    c444:	5d                   	pop    %rbp
    c445:	c3                   	retq   

000000000000c446 <safe_mul_func_double_f_f>:
    c446:	f3 0f 1e fa          	endbr64 
    c44a:	55                   	push   %rbp
    c44b:	48 89 e5             	mov    %rsp,%rbp
    c44e:	f2 0f 11 45 f8       	movsd  %xmm0,-0x8(%rbp)
    c453:	f2 0f 11 4d f0       	movsd  %xmm1,-0x10(%rbp)
    c458:	f2 0f 10 4d f8       	movsd  -0x8(%rbp),%xmm1
    c45d:	f2 0f 10 05 63 4b 01 	movsd  0x14b63(%rip),%xmm0        # 20fc8 <l_710.5357+0x88>
    c464:	00 
    c465:	f2 0f 59 c8          	mulsd  %xmm0,%xmm1
    c469:	f2 0f 10 55 f0       	movsd  -0x10(%rbp),%xmm2
    c46e:	f2 0f 10 05 5a 4b 01 	movsd  0x14b5a(%rip),%xmm0        # 20fd0 <l_710.5357+0x90>
    c475:	00 
    c476:	f2 0f 59 c2          	mulsd  %xmm2,%xmm0
    c47a:	f2 0f 59 c1          	mulsd  %xmm1,%xmm0
    c47e:	f3 0f 7e 0d 2a 4b 01 	movq   0x14b2a(%rip),%xmm1        # 20fb0 <l_710.5357+0x70>
    c485:	00 
    c486:	66 0f 54 c1          	andpd  %xmm1,%xmm0
    c48a:	66 0f 2f 05 46 4b 01 	comisd 0x14b46(%rip),%xmm0        # 20fd8 <l_710.5357+0x98>
    c491:	00 
    c492:	76 07                	jbe    c49b <safe_mul_func_double_f_f+0x55>
    c494:	f2 0f 10 45 f8       	movsd  -0x8(%rbp),%xmm0
    c499:	eb 0a                	jmp    c4a5 <safe_mul_func_double_f_f+0x5f>
    c49b:	f2 0f 10 45 f8       	movsd  -0x8(%rbp),%xmm0
    c4a0:	f2 0f 59 45 f0       	mulsd  -0x10(%rbp),%xmm0
    c4a5:	5d                   	pop    %rbp
    c4a6:	c3                   	retq   

000000000000c4a7 <safe_div_func_double_f_f>:
    c4a7:	f3 0f 1e fa          	endbr64 
    c4ab:	55                   	push   %rbp
    c4ac:	48 89 e5             	mov    %rsp,%rbp
    c4af:	f2 0f 11 45 f8       	movsd  %xmm0,-0x8(%rbp)
    c4b4:	f2 0f 11 4d f0       	movsd  %xmm1,-0x10(%rbp)
    c4b9:	f2 0f 10 45 f0       	movsd  -0x10(%rbp),%xmm0
    c4be:	f3 0f 7e 0d ea 4a 01 	movq   0x14aea(%rip),%xmm1        # 20fb0 <l_710.5357+0x70>
    c4c5:	00 
    c4c6:	66 0f 54 c8          	andpd  %xmm0,%xmm1
    c4ca:	f2 0f 10 05 0e 4b 01 	movsd  0x14b0e(%rip),%xmm0        # 20fe0 <l_710.5357+0xa0>
    c4d1:	00 
    c4d2:	66 0f 2f c1          	comisd %xmm1,%xmm0
    c4d6:	0f 97 c0             	seta   %al
    c4d9:	83 f0 01             	xor    $0x1,%eax
    c4dc:	84 c0                	test   %al,%al
    c4de:	75 5a                	jne    c53a <safe_div_func_double_f_f+0x93>
    c4e0:	66 0f ef c0          	pxor   %xmm0,%xmm0
    c4e4:	66 0f 2e 45 f0       	ucomisd -0x10(%rbp),%xmm0
    c4e9:	7a 0b                	jp     c4f6 <safe_div_func_double_f_f+0x4f>
    c4eb:	66 0f ef c0          	pxor   %xmm0,%xmm0
    c4ef:	66 0f 2e 45 f0       	ucomisd -0x10(%rbp),%xmm0
    c4f4:	74 50                	je     c546 <safe_div_func_double_f_f+0x9f>
    c4f6:	f2 0f 10 4d f8       	movsd  -0x8(%rbp),%xmm1
    c4fb:	f2 0f 10 05 e5 4a 01 	movsd  0x14ae5(%rip),%xmm0        # 20fe8 <l_710.5357+0xa8>
    c502:	00 
    c503:	f2 0f 59 c1          	mulsd  %xmm1,%xmm0
    c507:	f2 0f 10 55 f0       	movsd  -0x10(%rbp),%xmm2
    c50c:	f2 0f 10 0d dc 4a 01 	movsd  0x14adc(%rip),%xmm1        # 20ff0 <l_710.5357+0xb0>
    c513:	00 
    c514:	f2 0f 59 ca          	mulsd  %xmm2,%xmm1
    c518:	f2 0f 5e c1          	divsd  %xmm1,%xmm0
    c51c:	f3 0f 7e 0d 8c 4a 01 	movq   0x14a8c(%rip),%xmm1        # 20fb0 <l_710.5357+0x70>
    c523:	00 
    c524:	66 0f 54 c1          	andpd  %xmm1,%xmm0
    c528:	66 0f 2f 05 c8 4a 01 	comisd 0x14ac8(%rip),%xmm0        # 20ff8 <l_710.5357+0xb8>
    c52f:	00 
    c530:	0f 97 c0             	seta   %al
    c533:	83 f0 01             	xor    $0x1,%eax
    c536:	84 c0                	test   %al,%al
    c538:	74 0c                	je     c546 <safe_div_func_double_f_f+0x9f>
    c53a:	f2 0f 10 45 f8       	movsd  -0x8(%rbp),%xmm0
    c53f:	f2 0f 5e 45 f0       	divsd  -0x10(%rbp),%xmm0
    c544:	eb 05                	jmp    c54b <safe_div_func_double_f_f+0xa4>
    c546:	f2 0f 10 45 f8       	movsd  -0x8(%rbp),%xmm0
    c54b:	5d                   	pop    %rbp
    c54c:	c3                   	retq   

000000000000c54d <safe_convert_func_float_to_int32_t>:
    c54d:	f3 0f 1e fa          	endbr64 
    c551:	55                   	push   %rbp
    c552:	48 89 e5             	mov    %rsp,%rbp
    c555:	f3 0f 11 45 fc       	movss  %xmm0,-0x4(%rbp)
    c55a:	f3 0f 10 05 9e 4a 01 	movss  0x14a9e(%rip),%xmm0        # 21000 <l_710.5357+0xc0>
    c561:	00 
    c562:	0f 2f 45 fc          	comiss -0x4(%rbp),%xmm0
    c566:	0f 93 c0             	setae  %al
    c569:	83 f0 01             	xor    $0x1,%eax
    c56c:	84 c0                	test   %al,%al
    c56e:	74 21                	je     c591 <safe_convert_func_float_to_int32_t+0x44>
    c570:	f3 0f 10 45 fc       	movss  -0x4(%rbp),%xmm0
    c575:	0f 2f 05 88 4a 01 00 	comiss 0x14a88(%rip),%xmm0        # 21004 <l_710.5357+0xc4>
    c57c:	0f 93 c0             	setae  %al
    c57f:	83 f0 01             	xor    $0x1,%eax
    c582:	84 c0                	test   %al,%al
    c584:	74 0b                	je     c591 <safe_convert_func_float_to_int32_t+0x44>
    c586:	f3 0f 10 45 fc       	movss  -0x4(%rbp),%xmm0
    c58b:	f3 0f 2c c0          	cvttss2si %xmm0,%eax
    c58f:	eb 05                	jmp    c596 <safe_convert_func_float_to_int32_t+0x49>
    c591:	b8 ff ff ff 7f       	mov    $0x7fffffff,%eax
    c596:	5d                   	pop    %rbp
    c597:	c3                   	retq   

000000000000c598 <crc32_gentab>:
    c598:	f3 0f 1e fa          	endbr64 
    c59c:	55                   	push   %rbp
    c59d:	48 89 e5             	mov    %rsp,%rbp
    c5a0:	c7 45 fc 20 83 b8 ed 	movl   $0xedb88320,-0x4(%rbp)
    c5a7:	c7 45 f4 00 00 00 00 	movl   $0x0,-0xc(%rbp)
    c5ae:	eb 51                	jmp    c601 <crc32_gentab+0x69>
    c5b0:	8b 45 f4             	mov    -0xc(%rbp),%eax
    c5b3:	89 45 f0             	mov    %eax,-0x10(%rbp)
    c5b6:	c7 45 f8 08 00 00 00 	movl   $0x8,-0x8(%rbp)
    c5bd:	eb 1e                	jmp    c5dd <crc32_gentab+0x45>
    c5bf:	8b 45 f0             	mov    -0x10(%rbp),%eax
    c5c2:	83 e0 01             	and    $0x1,%eax
    c5c5:	85 c0                	test   %eax,%eax
    c5c7:	74 0d                	je     c5d6 <crc32_gentab+0x3e>
    c5c9:	8b 45 f0             	mov    -0x10(%rbp),%eax
    c5cc:	d1 e8                	shr    %eax
    c5ce:	33 45 fc             	xor    -0x4(%rbp),%eax
    c5d1:	89 45 f0             	mov    %eax,-0x10(%rbp)
    c5d4:	eb 03                	jmp    c5d9 <crc32_gentab+0x41>
    c5d6:	d1 6d f0             	shrl   -0x10(%rbp)
    c5d9:	83 6d f8 01          	subl   $0x1,-0x8(%rbp)
    c5dd:	83 7d f8 00          	cmpl   $0x0,-0x8(%rbp)
    c5e1:	7f dc                	jg     c5bf <crc32_gentab+0x27>
    c5e3:	8b 45 f4             	mov    -0xc(%rbp),%eax
    c5e6:	48 98                	cltq   
    c5e8:	48 8d 0c 85 00 00 00 	lea    0x0(,%rax,4),%rcx
    c5ef:	00 
    c5f0:	48 8d 15 49 c2 01 00 	lea    0x1c249(%rip),%rdx        # 28840 <crc32_tab>
    c5f7:	8b 45 f0             	mov    -0x10(%rbp),%eax
    c5fa:	89 04 11             	mov    %eax,(%rcx,%rdx,1)
    c5fd:	83 45 f4 01          	addl   $0x1,-0xc(%rbp)
    c601:	81 7d f4 ff 00 00 00 	cmpl   $0xff,-0xc(%rbp)
    c608:	7e a6                	jle    c5b0 <crc32_gentab+0x18>
    c60a:	90                   	nop
    c60b:	90                   	nop
    c60c:	5d                   	pop    %rbp
    c60d:	c3                   	retq   

000000000000c60e <crc32_byte>:
    c60e:	f3 0f 1e fa          	endbr64 
    c612:	55                   	push   %rbp
    c613:	48 89 e5             	mov    %rsp,%rbp
    c616:	89 f8                	mov    %edi,%eax
    c618:	88 45 fc             	mov    %al,-0x4(%rbp)
    c61b:	8b 05 ff 79 01 00    	mov    0x179ff(%rip),%eax        # 24020 <crc32_context>
    c621:	c1 e8 08             	shr    $0x8,%eax
    c624:	89 c1                	mov    %eax,%ecx
    c626:	0f b6 55 fc          	movzbl -0x4(%rbp),%edx
    c62a:	8b 05 f0 79 01 00    	mov    0x179f0(%rip),%eax        # 24020 <crc32_context>
    c630:	31 d0                	xor    %edx,%eax
    c632:	0f b6 c0             	movzbl %al,%eax
    c635:	89 c0                	mov    %eax,%eax
    c637:	48 8d 14 85 00 00 00 	lea    0x0(,%rax,4),%rdx
    c63e:	00 
    c63f:	48 8d 05 fa c1 01 00 	lea    0x1c1fa(%rip),%rax        # 28840 <crc32_tab>
    c646:	8b 04 02             	mov    (%rdx,%rax,1),%eax
    c649:	31 c8                	xor    %ecx,%eax
    c64b:	89 05 cf 79 01 00    	mov    %eax,0x179cf(%rip)        # 24020 <crc32_context>
    c651:	90                   	nop
    c652:	5d                   	pop    %rbp
    c653:	c3                   	retq   

000000000000c654 <crc32_8bytes>:
    c654:	f3 0f 1e fa          	endbr64 
    c658:	55                   	push   %rbp
    c659:	48 89 e5             	mov    %rsp,%rbp
    c65c:	48 83 ec 08          	sub    $0x8,%rsp
    c660:	48 89 7d f8          	mov    %rdi,-0x8(%rbp)
    c664:	48 8b 45 f8          	mov    -0x8(%rbp),%rax
    c668:	0f b6 c0             	movzbl %al,%eax
    c66b:	89 c7                	mov    %eax,%edi
    c66d:	e8 9c ff ff ff       	callq  c60e <crc32_byte>
    c672:	48 8b 45 f8          	mov    -0x8(%rbp),%rax
    c676:	48 c1 e8 08          	shr    $0x8,%rax
    c67a:	0f b6 c0             	movzbl %al,%eax
    c67d:	89 c7                	mov    %eax,%edi
    c67f:	e8 8a ff ff ff       	callq  c60e <crc32_byte>
    c684:	48 8b 45 f8          	mov    -0x8(%rbp),%rax
    c688:	48 c1 e8 10          	shr    $0x10,%rax
    c68c:	0f b6 c0             	movzbl %al,%eax
    c68f:	89 c7                	mov    %eax,%edi
    c691:	e8 78 ff ff ff       	callq  c60e <crc32_byte>
    c696:	48 8b 45 f8          	mov    -0x8(%rbp),%rax
    c69a:	48 c1 e8 18          	shr    $0x18,%rax
    c69e:	0f b6 c0             	movzbl %al,%eax
    c6a1:	89 c7                	mov    %eax,%edi
    c6a3:	e8 66 ff ff ff       	callq  c60e <crc32_byte>
    c6a8:	48 8b 45 f8          	mov    -0x8(%rbp),%rax
    c6ac:	48 c1 e8 20          	shr    $0x20,%rax
    c6b0:	0f b6 c0             	movzbl %al,%eax
    c6b3:	89 c7                	mov    %eax,%edi
    c6b5:	e8 54 ff ff ff       	callq  c60e <crc32_byte>
    c6ba:	48 8b 45 f8          	mov    -0x8(%rbp),%rax
    c6be:	48 c1 e8 28          	shr    $0x28,%rax
    c6c2:	0f b6 c0             	movzbl %al,%eax
    c6c5:	89 c7                	mov    %eax,%edi
    c6c7:	e8 42 ff ff ff       	callq  c60e <crc32_byte>
    c6cc:	48 8b 45 f8          	mov    -0x8(%rbp),%rax
    c6d0:	48 c1 e8 30          	shr    $0x30,%rax
    c6d4:	0f b6 c0             	movzbl %al,%eax
    c6d7:	89 c7                	mov    %eax,%edi
    c6d9:	e8 30 ff ff ff       	callq  c60e <crc32_byte>
    c6de:	48 8b 45 f8          	mov    -0x8(%rbp),%rax
    c6e2:	48 c1 e8 38          	shr    $0x38,%rax
    c6e6:	0f b6 c0             	movzbl %al,%eax
    c6e9:	89 c7                	mov    %eax,%edi
    c6eb:	e8 1e ff ff ff       	callq  c60e <crc32_byte>
    c6f0:	90                   	nop
    c6f1:	c9                   	leaveq 
    c6f2:	c3                   	retq   

000000000000c6f3 <transparent_crc>:
    c6f3:	f3 0f 1e fa          	endbr64 
    c6f7:	55                   	push   %rbp
    c6f8:	48 89 e5             	mov    %rsp,%rbp
    c6fb:	48 83 ec 20          	sub    $0x20,%rsp
    c6ff:	48 89 7d f8          	mov    %rdi,-0x8(%rbp)
    c703:	48 89 75 f0          	mov    %rsi,-0x10(%rbp)
    c707:	89 55 ec             	mov    %edx,-0x14(%rbp)
    c70a:	48 8b 45 f8          	mov    -0x8(%rbp),%rax
    c70e:	48 89 c7             	mov    %rax,%rdi
    c711:	e8 3e ff ff ff       	callq  c654 <crc32_8bytes>
    c716:	83 7d ec 00          	cmpl   $0x0,-0x14(%rbp)
    c71a:	74 22                	je     c73e <transparent_crc+0x4b>
    c71c:	8b 05 fe 78 01 00    	mov    0x178fe(%rip),%eax        # 24020 <crc32_context>
    c722:	f7 d0                	not    %eax
    c724:	89 c2                	mov    %eax,%edx
    c726:	48 8b 45 f0          	mov    -0x10(%rbp),%rax
    c72a:	48 89 c6             	mov    %rax,%rsi
    c72d:	48 8d 3d fc 28 01 00 	lea    0x128fc(%rip),%rdi        # 1f030 <_IO_stdin_used+0x30>
    c734:	b8 00 00 00 00       	mov    $0x0,%eax
    c739:	e8 42 e9 ff ff       	callq  b080 <printf@plt>
    c73e:	90                   	nop
    c73f:	c9                   	leaveq 
    c740:	c3                   	retq   

000000000000c741 <transparent_crc_bytes>:
    c741:	f3 0f 1e fa          	endbr64 
    c745:	55                   	push   %rbp
    c746:	48 89 e5             	mov    %rsp,%rbp
    c749:	48 83 ec 30          	sub    $0x30,%rsp
    c74d:	48 89 7d e8          	mov    %rdi,-0x18(%rbp)
    c751:	89 75 e4             	mov    %esi,-0x1c(%rbp)
    c754:	48 89 55 d8          	mov    %rdx,-0x28(%rbp)
    c758:	89 4d e0             	mov    %ecx,-0x20(%rbp)
    c75b:	c7 45 fc 00 00 00 00 	movl   $0x0,-0x4(%rbp)
    c762:	eb 1e                	jmp    c782 <transparent_crc_bytes+0x41>
    c764:	8b 45 fc             	mov    -0x4(%rbp),%eax
    c767:	48 63 d0             	movslq %eax,%rdx
    c76a:	48 8b 45 e8          	mov    -0x18(%rbp),%rax
    c76e:	48 01 d0             	add    %rdx,%rax
    c771:	0f b6 00             	movzbl (%rax),%eax
    c774:	0f b6 c0             	movzbl %al,%eax
    c777:	89 c7                	mov    %eax,%edi
    c779:	e8 90 fe ff ff       	callq  c60e <crc32_byte>
    c77e:	83 45 fc 01          	addl   $0x1,-0x4(%rbp)
    c782:	8b 45 fc             	mov    -0x4(%rbp),%eax
    c785:	3b 45 e4             	cmp    -0x1c(%rbp),%eax
    c788:	7c da                	jl     c764 <transparent_crc_bytes+0x23>
    c78a:	83 7d e0 00          	cmpl   $0x0,-0x20(%rbp)
    c78e:	74 22                	je     c7b2 <transparent_crc_bytes+0x71>
    c790:	8b 05 8a 78 01 00    	mov    0x1788a(%rip),%eax        # 24020 <crc32_context>
    c796:	f7 d0                	not    %eax
    c798:	89 c2                	mov    %eax,%edx
    c79a:	48 8b 45 d8          	mov    -0x28(%rbp),%rax
    c79e:	48 89 c6             	mov    %rax,%rsi
    c7a1:	48 8d 3d 88 28 01 00 	lea    0x12888(%rip),%rdi        # 1f030 <_IO_stdin_used+0x30>
    c7a8:	b8 00 00 00 00       	mov    $0x0,%eax
    c7ad:	e8 ce e8 ff ff       	callq  b080 <printf@plt>
    c7b2:	90                   	nop
    c7b3:	c9                   	leaveq 
    c7b4:	c3                   	retq   

000000000000c7b5 <func_1>:
    c7b5:	f3 0f 1e fa          	endbr64 
    c7b9:	55                   	push   %rbp
    c7ba:	48 89 e5             	mov    %rsp,%rbp
    c7bd:	41 57                	push   %r15
    c7bf:	41 56                	push   %r14
    c7c1:	41 55                	push   %r13
    c7c3:	41 54                	push   %r12
    c7c5:	53                   	push   %rbx
    c7c6:	48 81 ec 68 08 00 00 	sub    $0x868,%rsp
    c7cd:	64 48 8b 04 25 28 00 	mov    %fs:0x28,%rax
    c7d4:	00 00 
    c7d6:	48 89 45 c8          	mov    %rax,-0x38(%rbp)
    c7da:	31 c0                	xor    %eax,%eax
    c7dc:	48 c7 85 f8 f7 ff ff 	movq   $0x0,-0x808(%rbp)
    c7e3:	00 00 00 00 
    c7e7:	c7 85 94 f7 ff ff f1 	movl   $0xdf11caf1,-0x86c(%rbp)
    c7ee:	ca 11 df 
    c7f1:	c7 85 98 f7 ff ff 01 	movl   $0x1,-0x868(%rbp)
    c7f8:	00 00 00 
    c7fb:	c7 85 9c f7 ff ff 06 	movl   $0x6,-0x864(%rbp)
    c802:	00 00 00 
    c805:	c7 85 a0 f7 ff ff f7 	movl   $0xfffffff7,-0x860(%rbp)
    c80c:	ff ff ff 
    c80f:	c7 85 a4 f7 ff ff 08 	movl   $0x8,-0x85c(%rbp)
    c816:	00 00 00 
    c819:	c7 85 a8 f7 ff ff d7 	movl   $0x942075d7,-0x858(%rbp)
    c820:	75 20 94 
    c823:	c7 85 ac f7 ff ff 00 	movl   $0x0,-0x854(%rbp)
    c82a:	00 00 00 
    c82d:	c7 85 b0 f7 ff ff 0e 	movl   $0xa57a880e,-0x850(%rbp)
    c834:	88 7a a5 
    c837:	c7 85 b4 f7 ff ff 63 	movl   $0xbca0f963,-0x84c(%rbp)
    c83e:	f9 a0 bc 
    c841:	c7 85 90 f8 ff ff 88 	movl   $0xc0bf2888,-0x770(%rbp)
    c848:	28 bf c0 
    c84b:	c7 85 94 f8 ff ff 88 	movl   $0xc0bf2888,-0x76c(%rbp)
    c852:	28 bf c0 
    c855:	c7 85 98 f8 ff ff 88 	movl   $0xc0bf2888,-0x768(%rbp)
    c85c:	28 bf c0 
    c85f:	c7 85 9c f8 ff ff 88 	movl   $0xc0bf2888,-0x764(%rbp)
    c866:	28 bf c0 
    c869:	c7 85 74 f7 ff ff 33 	movl   $0x8f974433,-0x88c(%rbp)
    c870:	44 97 8f 
    c873:	48 8d 05 c6 7b 01 00 	lea    0x17bc6(%rip),%rax        # 24440 <g_431>
    c87a:	48 89 85 00 f8 ff ff 	mov    %rax,-0x800(%rbp)
    c881:	c6 85 70 f7 ff ff ff 	movb   $0xff,-0x890(%rbp)
    c888:	66 c7 85 72 f7 ff ff 	movw   $0x2845,-0x88e(%rbp)
    c88f:	45 28 
    c891:	66 c7 85 82 f8 ff ff 	movw   $0xeafc,-0x77e(%rbp)
    c898:	fc ea 
    c89a:	c6 85 84 f8 ff ff fc 	movb   $0xfc,-0x77c(%rbp)
    c8a1:	66 c7 85 85 f8 ff ff 	movw   $0xeafc,-0x77b(%rbp)
    c8a8:	fc ea 
    c8aa:	c6 85 87 f8 ff ff fc 	movb   $0xfc,-0x779(%rbp)
    c8b1:	48 c7 85 c8 f7 ff ff 	movq   $0x0,-0x838(%rbp)
    c8b8:	00 00 00 00 
    c8bc:	c7 85 c8 f7 ff ff 9a 	movl   $0x3ee96b9a,-0x838(%rbp)
    c8c3:	6b e9 3e 
    c8c6:	48 c7 85 d0 f7 ff ff 	movq   $0x0,-0x830(%rbp)
    c8cd:	00 00 00 00 
    c8d1:	48 8d 85 d0 f7 ff ff 	lea    -0x830(%rbp),%rax
    c8d8:	48 89 85 d8 f7 ff ff 	mov    %rax,-0x828(%rbp)
    c8df:	48 8d 85 d8 f7 ff ff 	lea    -0x828(%rbp),%rax
    c8e6:	48 89 85 e0 f7 ff ff 	mov    %rax,-0x820(%rbp)
    c8ed:	48 8d 85 e0 f7 ff ff 	lea    -0x820(%rbp),%rax
    c8f4:	48 89 85 e8 f7 ff ff 	mov    %rax,-0x818(%rbp)
    c8fb:	48 8d 85 e8 f7 ff ff 	lea    -0x818(%rbp),%rax
    c902:	48 89 85 08 f8 ff ff 	mov    %rax,-0x7f8(%rbp)
    c909:	c7 85 b8 f7 ff ff 72 	movl   $0xce10ac72,-0x848(%rbp)
    c910:	ac 10 ce 
    c913:	48 8d 85 a0 f8 ff ff 	lea    -0x760(%rbp),%rax
    c91a:	48 83 c0 08          	add    $0x8,%rax
    c91e:	48 89 85 10 f8 ff ff 	mov    %rax,-0x7f0(%rbp)
    c925:	c7 85 78 f7 ff ff 00 	movl   $0x0,-0x888(%rbp)
    c92c:	00 00 00 
    c92f:	eb 1e                	jmp    c94f <func_1+0x19a>
    c931:	8b 85 78 f7 ff ff    	mov    -0x888(%rbp),%eax
    c937:	48 98                	cltq   
    c939:	48 8d 15 08 c3 01 00 	lea    0x1c308(%rip),%rdx        # 28c48 <g_51>
    c940:	48 89 94 c5 a0 f8 ff 	mov    %rdx,-0x760(%rbp,%rax,8)
    c947:	ff 
    c948:	83 85 78 f7 ff ff 01 	addl   $0x1,-0x888(%rbp)
    c94f:	83 bd 78 f7 ff ff 01 	cmpl   $0x1,-0x888(%rbp)
    c956:	7e d9                	jle    c931 <func_1+0x17c>
    c958:	c7 05 a2 77 01 00 00 	movl   $0x0,0x177a2(%rip)        # 24104 <g_3+0x4>
    c95f:	00 00 00 
    c962:	e9 59 0c 00 00       	jmpq   d5c0 <func_1+0xe0b>
    c967:	48 8d 05 b6 77 01 00 	lea    0x177b6(%rip),%rax        # 24124 <g_7>
    c96e:	48 89 85 68 f8 ff ff 	mov    %rax,-0x798(%rbp)
    c975:	48 c7 85 70 f8 ff ff 	movq   $0x0,-0x790(%rbp)
    c97c:	00 00 00 00 
    c980:	48 c7 85 78 f8 ff ff 	movq   $0x0,-0x788(%rbp)
    c987:	00 00 00 00 
    c98b:	48 c7 85 f0 f7 ff ff 	movq   $0x0,-0x810(%rbp)
    c992:	00 00 00 00 
    c996:	48 8d 85 f0 f7 ff ff 	lea    -0x810(%rbp),%rax
    c99d:	48 89 85 80 f9 ff ff 	mov    %rax,-0x680(%rbp)
    c9a4:	48 8d 85 f0 f7 ff ff 	lea    -0x810(%rbp),%rax
    c9ab:	48 89 85 88 f9 ff ff 	mov    %rax,-0x678(%rbp)
    c9b2:	48 8d 85 f0 f7 ff ff 	lea    -0x810(%rbp),%rax
    c9b9:	48 89 85 90 f9 ff ff 	mov    %rax,-0x670(%rbp)
    c9c0:	48 8d 85 f0 f7 ff ff 	lea    -0x810(%rbp),%rax
    c9c7:	48 89 85 98 f9 ff ff 	mov    %rax,-0x668(%rbp)
    c9ce:	48 8d 85 f0 f7 ff ff 	lea    -0x810(%rbp),%rax
    c9d5:	48 89 85 a0 f9 ff ff 	mov    %rax,-0x660(%rbp)
    c9dc:	48 8d 85 f0 f7 ff ff 	lea    -0x810(%rbp),%rax
    c9e3:	48 89 85 a8 f9 ff ff 	mov    %rax,-0x658(%rbp)
    c9ea:	48 8d 85 f0 f7 ff ff 	lea    -0x810(%rbp),%rax
    c9f1:	48 89 85 b0 f9 ff ff 	mov    %rax,-0x650(%rbp)
    c9f8:	48 c7 85 b8 f9 ff ff 	movq   $0x0,-0x648(%rbp)
    c9ff:	00 00 00 00 
    ca03:	48 8d 85 f0 f7 ff ff 	lea    -0x810(%rbp),%rax
    ca0a:	48 89 85 c0 f9 ff ff 	mov    %rax,-0x640(%rbp)
    ca11:	48 8d 85 f0 f7 ff ff 	lea    -0x810(%rbp),%rax
    ca18:	48 89 85 c8 f9 ff ff 	mov    %rax,-0x638(%rbp)
    ca1f:	48 8d 85 f0 f7 ff ff 	lea    -0x810(%rbp),%rax
    ca26:	48 89 85 d0 f9 ff ff 	mov    %rax,-0x630(%rbp)
    ca2d:	48 c7 85 d8 f9 ff ff 	movq   $0x0,-0x628(%rbp)
    ca34:	00 00 00 00 
    ca38:	48 8d 85 f0 f7 ff ff 	lea    -0x810(%rbp),%rax
    ca3f:	48 89 85 e0 f9 ff ff 	mov    %rax,-0x620(%rbp)
    ca46:	48 8d 85 f0 f7 ff ff 	lea    -0x810(%rbp),%rax
    ca4d:	48 89 85 e8 f9 ff ff 	mov    %rax,-0x618(%rbp)
    ca54:	48 8d 85 f0 f7 ff ff 	lea    -0x810(%rbp),%rax
    ca5b:	48 89 85 f0 f9 ff ff 	mov    %rax,-0x610(%rbp)
    ca62:	48 8d 85 f0 f7 ff ff 	lea    -0x810(%rbp),%rax
    ca69:	48 89 85 f8 f9 ff ff 	mov    %rax,-0x608(%rbp)
    ca70:	48 c7 85 00 fa ff ff 	movq   $0x0,-0x600(%rbp)
    ca77:	00 00 00 00 
    ca7b:	48 8d 85 f0 f7 ff ff 	lea    -0x810(%rbp),%rax
    ca82:	48 89 85 08 fa ff ff 	mov    %rax,-0x5f8(%rbp)
    ca89:	48 8d 85 f0 f7 ff ff 	lea    -0x810(%rbp),%rax
    ca90:	48 89 85 10 fa ff ff 	mov    %rax,-0x5f0(%rbp)
    ca97:	48 8d 85 f0 f7 ff ff 	lea    -0x810(%rbp),%rax
    ca9e:	48 89 85 18 fa ff ff 	mov    %rax,-0x5e8(%rbp)
    caa5:	48 8d 85 f0 f7 ff ff 	lea    -0x810(%rbp),%rax
    caac:	48 89 85 20 fa ff ff 	mov    %rax,-0x5e0(%rbp)
    cab3:	48 8d 85 f0 f7 ff ff 	lea    -0x810(%rbp),%rax
    caba:	48 89 85 28 fa ff ff 	mov    %rax,-0x5d8(%rbp)
    cac1:	48 8d 85 f0 f7 ff ff 	lea    -0x810(%rbp),%rax
    cac8:	48 89 85 30 fa ff ff 	mov    %rax,-0x5d0(%rbp)
    cacf:	48 8d 85 f0 f7 ff ff 	lea    -0x810(%rbp),%rax
    cad6:	48 89 85 38 fa ff ff 	mov    %rax,-0x5c8(%rbp)
    cadd:	48 8d 85 f0 f7 ff ff 	lea    -0x810(%rbp),%rax
    cae4:	48 89 85 40 fa ff ff 	mov    %rax,-0x5c0(%rbp)
    caeb:	48 8d 85 f0 f7 ff ff 	lea    -0x810(%rbp),%rax
    caf2:	48 89 85 48 fa ff ff 	mov    %rax,-0x5b8(%rbp)
    caf9:	48 8d 85 f0 f7 ff ff 	lea    -0x810(%rbp),%rax
    cb00:	48 89 85 50 fa ff ff 	mov    %rax,-0x5b0(%rbp)
    cb07:	48 8d 85 f0 f7 ff ff 	lea    -0x810(%rbp),%rax
    cb0e:	48 89 85 58 fa ff ff 	mov    %rax,-0x5a8(%rbp)
    cb15:	48 8d 85 f0 f7 ff ff 	lea    -0x810(%rbp),%rax
    cb1c:	48 89 85 60 fa ff ff 	mov    %rax,-0x5a0(%rbp)
    cb23:	48 c7 85 68 fa ff ff 	movq   $0x0,-0x598(%rbp)
    cb2a:	00 00 00 00 
    cb2e:	48 8d 85 f0 f7 ff ff 	lea    -0x810(%rbp),%rax
    cb35:	48 89 85 70 fa ff ff 	mov    %rax,-0x590(%rbp)
    cb3c:	48 8d 85 f0 f7 ff ff 	lea    -0x810(%rbp),%rax
    cb43:	48 89 85 78 fa ff ff 	mov    %rax,-0x588(%rbp)
    cb4a:	48 8d 85 f0 f7 ff ff 	lea    -0x810(%rbp),%rax
    cb51:	48 89 85 80 fa ff ff 	mov    %rax,-0x580(%rbp)
    cb58:	48 8d 85 f0 f7 ff ff 	lea    -0x810(%rbp),%rax
    cb5f:	48 89 85 88 fa ff ff 	mov    %rax,-0x578(%rbp)
    cb66:	48 8d 85 f0 f7 ff ff 	lea    -0x810(%rbp),%rax
    cb6d:	48 89 85 90 fa ff ff 	mov    %rax,-0x570(%rbp)
    cb74:	48 8d 85 f0 f7 ff ff 	lea    -0x810(%rbp),%rax
    cb7b:	48 89 85 98 fa ff ff 	mov    %rax,-0x568(%rbp)
    cb82:	48 8d 85 f0 f7 ff ff 	lea    -0x810(%rbp),%rax
    cb89:	48 89 85 a0 fa ff ff 	mov    %rax,-0x560(%rbp)
    cb90:	48 c7 85 a8 fa ff ff 	movq   $0x0,-0x558(%rbp)
    cb97:	00 00 00 00 
    cb9b:	48 8d 85 f0 f7 ff ff 	lea    -0x810(%rbp),%rax
    cba2:	48 89 85 b0 fa ff ff 	mov    %rax,-0x550(%rbp)
    cba9:	48 8d 85 f0 f7 ff ff 	lea    -0x810(%rbp),%rax
    cbb0:	48 89 85 b8 fa ff ff 	mov    %rax,-0x548(%rbp)
    cbb7:	48 8d 85 f0 f7 ff ff 	lea    -0x810(%rbp),%rax
    cbbe:	48 89 85 c0 fa ff ff 	mov    %rax,-0x540(%rbp)
    cbc5:	48 8d 85 f0 f7 ff ff 	lea    -0x810(%rbp),%rax
    cbcc:	48 89 85 c8 fa ff ff 	mov    %rax,-0x538(%rbp)
    cbd3:	48 8d 85 f0 f7 ff ff 	lea    -0x810(%rbp),%rax
    cbda:	48 89 85 d0 fa ff ff 	mov    %rax,-0x530(%rbp)
    cbe1:	48 8d 85 f0 f7 ff ff 	lea    -0x810(%rbp),%rax
    cbe8:	48 89 85 d8 fa ff ff 	mov    %rax,-0x528(%rbp)
    cbef:	48 8d 85 f0 f7 ff ff 	lea    -0x810(%rbp),%rax
    cbf6:	48 89 85 e0 fa ff ff 	mov    %rax,-0x520(%rbp)
    cbfd:	48 8d 85 f0 f7 ff ff 	lea    -0x810(%rbp),%rax
    cc04:	48 89 85 e8 fa ff ff 	mov    %rax,-0x518(%rbp)
    cc0b:	48 8d 85 f0 f7 ff ff 	lea    -0x810(%rbp),%rax
    cc12:	48 89 85 f0 fa ff ff 	mov    %rax,-0x510(%rbp)
    cc19:	48 8d 85 f0 f7 ff ff 	lea    -0x810(%rbp),%rax
    cc20:	48 89 85 f8 fa ff ff 	mov    %rax,-0x508(%rbp)
    cc27:	48 8d 85 f0 f7 ff ff 	lea    -0x810(%rbp),%rax
    cc2e:	48 89 85 00 fb ff ff 	mov    %rax,-0x500(%rbp)
    cc35:	48 8d 85 f0 f7 ff ff 	lea    -0x810(%rbp),%rax
    cc3c:	48 89 85 08 fb ff ff 	mov    %rax,-0x4f8(%rbp)
    cc43:	48 8d 85 f0 f7 ff ff 	lea    -0x810(%rbp),%rax
    cc4a:	48 89 85 10 fb ff ff 	mov    %rax,-0x4f0(%rbp)
    cc51:	48 8d 85 f0 f7 ff ff 	lea    -0x810(%rbp),%rax
    cc58:	48 89 85 18 fb ff ff 	mov    %rax,-0x4e8(%rbp)
    cc5f:	48 8d 85 f0 f7 ff ff 	lea    -0x810(%rbp),%rax
    cc66:	48 89 85 20 fb ff ff 	mov    %rax,-0x4e0(%rbp)
    cc6d:	48 8d 85 f0 f7 ff ff 	lea    -0x810(%rbp),%rax
    cc74:	48 89 85 28 fb ff ff 	mov    %rax,-0x4d8(%rbp)
    cc7b:	48 8d 85 f0 f7 ff ff 	lea    -0x810(%rbp),%rax
    cc82:	48 89 85 30 fb ff ff 	mov    %rax,-0x4d0(%rbp)
    cc89:	48 8d 85 f0 f7 ff ff 	lea    -0x810(%rbp),%rax
    cc90:	48 89 85 38 fb ff ff 	mov    %rax,-0x4c8(%rbp)
    cc97:	48 8d 85 f0 f7 ff ff 	lea    -0x810(%rbp),%rax
    cc9e:	48 89 85 40 fb ff ff 	mov    %rax,-0x4c0(%rbp)
    cca5:	48 8d 85 f0 f7 ff ff 	lea    -0x810(%rbp),%rax
    ccac:	48 89 85 48 fb ff ff 	mov    %rax,-0x4b8(%rbp)
    ccb3:	48 8d 85 f0 f7 ff ff 	lea    -0x810(%rbp),%rax
    ccba:	48 89 85 50 fb ff ff 	mov    %rax,-0x4b0(%rbp)
    ccc1:	48 c7 85 58 fb ff ff 	movq   $0x0,-0x4a8(%rbp)
    ccc8:	00 00 00 00 
    cccc:	48 8d 85 f0 f7 ff ff 	lea    -0x810(%rbp),%rax
    ccd3:	48 89 85 60 fb ff ff 	mov    %rax,-0x4a0(%rbp)
    ccda:	48 8d 85 f0 f7 ff ff 	lea    -0x810(%rbp),%rax
    cce1:	48 89 85 68 fb ff ff 	mov    %rax,-0x498(%rbp)
    cce8:	48 8d 85 f0 f7 ff ff 	lea    -0x810(%rbp),%rax
    ccef:	48 89 85 70 fb ff ff 	mov    %rax,-0x490(%rbp)
    ccf6:	48 8d 85 f0 f7 ff ff 	lea    -0x810(%rbp),%rax
    ccfd:	48 89 85 78 fb ff ff 	mov    %rax,-0x488(%rbp)
    cd04:	48 8d 85 f0 f7 ff ff 	lea    -0x810(%rbp),%rax
    cd0b:	48 89 85 80 fb ff ff 	mov    %rax,-0x480(%rbp)
    cd12:	48 8d 85 f0 f7 ff ff 	lea    -0x810(%rbp),%rax
    cd19:	48 89 85 88 fb ff ff 	mov    %rax,-0x478(%rbp)
    cd20:	48 8d 85 f0 f7 ff ff 	lea    -0x810(%rbp),%rax
    cd27:	48 89 85 90 fb ff ff 	mov    %rax,-0x470(%rbp)
    cd2e:	48 8d 85 f0 f7 ff ff 	lea    -0x810(%rbp),%rax
    cd35:	48 89 85 98 fb ff ff 	mov    %rax,-0x468(%rbp)
    cd3c:	48 c7 85 a0 fb ff ff 	movq   $0x0,-0x460(%rbp)
    cd43:	00 00 00 00 
    cd47:	48 8d 85 f0 f7 ff ff 	lea    -0x810(%rbp),%rax
    cd4e:	48 89 85 a8 fb ff ff 	mov    %rax,-0x458(%rbp)
    cd55:	48 8d 85 f0 f7 ff ff 	lea    -0x810(%rbp),%rax
    cd5c:	48 89 85 b0 fb ff ff 	mov    %rax,-0x450(%rbp)
    cd63:	48 8d 85 f0 f7 ff ff 	lea    -0x810(%rbp),%rax
    cd6a:	48 89 85 b8 fb ff ff 	mov    %rax,-0x448(%rbp)
    cd71:	48 8d 85 f0 f7 ff ff 	lea    -0x810(%rbp),%rax
    cd78:	48 89 85 c0 fb ff ff 	mov    %rax,-0x440(%rbp)
    cd7f:	48 8d 85 f0 f7 ff ff 	lea    -0x810(%rbp),%rax
    cd86:	48 89 85 c8 fb ff ff 	mov    %rax,-0x438(%rbp)
    cd8d:	48 8d 85 f0 f7 ff ff 	lea    -0x810(%rbp),%rax
    cd94:	48 89 85 d0 fb ff ff 	mov    %rax,-0x430(%rbp)
    cd9b:	48 8d 85 f0 f7 ff ff 	lea    -0x810(%rbp),%rax
    cda2:	48 89 85 d8 fb ff ff 	mov    %rax,-0x428(%rbp)
    cda9:	48 c7 85 e0 fb ff ff 	movq   $0x0,-0x420(%rbp)
    cdb0:	00 00 00 00 
    cdb4:	48 8d 85 f0 f7 ff ff 	lea    -0x810(%rbp),%rax
    cdbb:	48 89 85 e8 fb ff ff 	mov    %rax,-0x418(%rbp)
    cdc2:	48 8d 85 f0 f7 ff ff 	lea    -0x810(%rbp),%rax
    cdc9:	48 89 85 f0 fb ff ff 	mov    %rax,-0x410(%rbp)
    cdd0:	48 8d 85 f0 f7 ff ff 	lea    -0x810(%rbp),%rax
    cdd7:	48 89 85 f8 fb ff ff 	mov    %rax,-0x408(%rbp)
    cdde:	48 8d 85 f0 f7 ff ff 	lea    -0x810(%rbp),%rax
    cde5:	48 89 85 00 fc ff ff 	mov    %rax,-0x400(%rbp)
    cdec:	48 c7 85 08 fc ff ff 	movq   $0x0,-0x3f8(%rbp)
    cdf3:	00 00 00 00 
    cdf7:	48 8d 85 f0 f7 ff ff 	lea    -0x810(%rbp),%rax
    cdfe:	48 89 85 10 fc ff ff 	mov    %rax,-0x3f0(%rbp)
    ce05:	48 8d 85 f0 f7 ff ff 	lea    -0x810(%rbp),%rax
    ce0c:	48 89 85 18 fc ff ff 	mov    %rax,-0x3e8(%rbp)
    ce13:	48 8d 85 f0 f7 ff ff 	lea    -0x810(%rbp),%rax
    ce1a:	48 89 85 20 fc ff ff 	mov    %rax,-0x3e0(%rbp)
    ce21:	48 8d 85 f0 f7 ff ff 	lea    -0x810(%rbp),%rax
    ce28:	48 89 85 28 fc ff ff 	mov    %rax,-0x3d8(%rbp)
    ce2f:	48 8d 85 f0 f7 ff ff 	lea    -0x810(%rbp),%rax
    ce36:	48 89 85 30 fc ff ff 	mov    %rax,-0x3d0(%rbp)
    ce3d:	48 8d 85 f0 f7 ff ff 	lea    -0x810(%rbp),%rax
    ce44:	48 89 85 38 fc ff ff 	mov    %rax,-0x3c8(%rbp)
    ce4b:	48 8d 85 f0 f7 ff ff 	lea    -0x810(%rbp),%rax
    ce52:	48 89 85 40 fc ff ff 	mov    %rax,-0x3c0(%rbp)
    ce59:	48 8d 85 f0 f7 ff ff 	lea    -0x810(%rbp),%rax
    ce60:	48 89 85 48 fc ff ff 	mov    %rax,-0x3b8(%rbp)
    ce67:	48 8d 85 f0 f7 ff ff 	lea    -0x810(%rbp),%rax
    ce6e:	48 89 85 50 fc ff ff 	mov    %rax,-0x3b0(%rbp)
    ce75:	48 8d 85 f0 f7 ff ff 	lea    -0x810(%rbp),%rax
    ce7c:	48 89 85 58 fc ff ff 	mov    %rax,-0x3a8(%rbp)
    ce83:	48 8d 85 f0 f7 ff ff 	lea    -0x810(%rbp),%rax
    ce8a:	48 89 85 60 fc ff ff 	mov    %rax,-0x3a0(%rbp)
    ce91:	48 8d 85 f0 f7 ff ff 	lea    -0x810(%rbp),%rax
    ce98:	48 89 85 68 fc ff ff 	mov    %rax,-0x398(%rbp)
    ce9f:	48 8d 85 f0 f7 ff ff 	lea    -0x810(%rbp),%rax
    cea6:	48 89 85 70 fc ff ff 	mov    %rax,-0x390(%rbp)
    cead:	48 8d 85 f0 f7 ff ff 	lea    -0x810(%rbp),%rax
    ceb4:	48 89 85 78 fc ff ff 	mov    %rax,-0x388(%rbp)
    cebb:	48 8d 85 f0 f7 ff ff 	lea    -0x810(%rbp),%rax
    cec2:	48 89 85 80 fc ff ff 	mov    %rax,-0x380(%rbp)
    cec9:	48 8d 85 f0 f7 ff ff 	lea    -0x810(%rbp),%rax
    ced0:	48 89 85 88 fc ff ff 	mov    %rax,-0x378(%rbp)
    ced7:	48 8d 85 f0 f7 ff ff 	lea    -0x810(%rbp),%rax
    cede:	48 89 85 90 fc ff ff 	mov    %rax,-0x370(%rbp)
    cee5:	48 8d 85 f0 f7 ff ff 	lea    -0x810(%rbp),%rax
    ceec:	48 89 85 98 fc ff ff 	mov    %rax,-0x368(%rbp)
    cef3:	48 8d 85 f0 f7 ff ff 	lea    -0x810(%rbp),%rax
    cefa:	48 89 85 a0 fc ff ff 	mov    %rax,-0x360(%rbp)
    cf01:	48 8d 85 f0 f7 ff ff 	lea    -0x810(%rbp),%rax
    cf08:	48 89 85 a8 fc ff ff 	mov    %rax,-0x358(%rbp)
    cf0f:	48 8d 85 f0 f7 ff ff 	lea    -0x810(%rbp),%rax
    cf16:	48 89 85 b0 fc ff ff 	mov    %rax,-0x350(%rbp)
    cf1d:	48 8d 85 f0 f7 ff ff 	lea    -0x810(%rbp),%rax
    cf24:	48 89 85 b8 fc ff ff 	mov    %rax,-0x348(%rbp)
    cf2b:	48 8d 85 f0 f7 ff ff 	lea    -0x810(%rbp),%rax
    cf32:	48 89 85 c0 fc ff ff 	mov    %rax,-0x340(%rbp)
    cf39:	48 8d 85 f0 f7 ff ff 	lea    -0x810(%rbp),%rax
    cf40:	48 89 85 c8 fc ff ff 	mov    %rax,-0x338(%rbp)
    cf47:	48 c7 85 d0 fc ff ff 	movq   $0x0,-0x330(%rbp)
    cf4e:	00 00 00 00 
    cf52:	48 8d 85 f0 f7 ff ff 	lea    -0x810(%rbp),%rax
    cf59:	48 89 85 d8 fc ff ff 	mov    %rax,-0x328(%rbp)
    cf60:	48 8d 85 f0 f7 ff ff 	lea    -0x810(%rbp),%rax
    cf67:	48 89 85 e0 fc ff ff 	mov    %rax,-0x320(%rbp)
    cf6e:	48 8d 85 f0 f7 ff ff 	lea    -0x810(%rbp),%rax
    cf75:	48 89 85 e8 fc ff ff 	mov    %rax,-0x318(%rbp)
    cf7c:	48 8d 85 f0 f7 ff ff 	lea    -0x810(%rbp),%rax
    cf83:	48 89 85 f0 fc ff ff 	mov    %rax,-0x310(%rbp)
    cf8a:	48 8d 85 f0 f7 ff ff 	lea    -0x810(%rbp),%rax
    cf91:	48 89 85 f8 fc ff ff 	mov    %rax,-0x308(%rbp)
    cf98:	48 8d 85 f0 f7 ff ff 	lea    -0x810(%rbp),%rax
    cf9f:	48 89 85 00 fd ff ff 	mov    %rax,-0x300(%rbp)
    cfa6:	48 8d 85 f0 f7 ff ff 	lea    -0x810(%rbp),%rax
    cfad:	48 89 85 08 fd ff ff 	mov    %rax,-0x2f8(%rbp)
    cfb4:	48 8d 85 f0 f7 ff ff 	lea    -0x810(%rbp),%rax
    cfbb:	48 89 85 10 fd ff ff 	mov    %rax,-0x2f0(%rbp)
    cfc2:	48 c7 85 18 fd ff ff 	movq   $0x0,-0x2e8(%rbp)
    cfc9:	00 00 00 00 
    cfcd:	48 c7 85 20 fd ff ff 	movq   $0x0,-0x2e0(%rbp)
    cfd4:	00 00 00 00 
    cfd8:	48 8d 85 f0 f7 ff ff 	lea    -0x810(%rbp),%rax
    cfdf:	48 89 85 28 fd ff ff 	mov    %rax,-0x2d8(%rbp)
    cfe6:	48 8d 85 f0 f7 ff ff 	lea    -0x810(%rbp),%rax
    cfed:	48 89 85 30 fd ff ff 	mov    %rax,-0x2d0(%rbp)
    cff4:	48 c7 85 38 fd ff ff 	movq   $0x0,-0x2c8(%rbp)
    cffb:	00 00 00 00 
    cfff:	48 8d 85 f0 f7 ff ff 	lea    -0x810(%rbp),%rax
    d006:	48 89 85 40 fd ff ff 	mov    %rax,-0x2c0(%rbp)
    d00d:	48 8d 85 f0 f7 ff ff 	lea    -0x810(%rbp),%rax
    d014:	48 89 85 48 fd ff ff 	mov    %rax,-0x2b8(%rbp)
    d01b:	48 8d 85 f0 f7 ff ff 	lea    -0x810(%rbp),%rax
    d022:	48 89 85 50 fd ff ff 	mov    %rax,-0x2b0(%rbp)
    d029:	48 8d 85 f0 f7 ff ff 	lea    -0x810(%rbp),%rax
    d030:	48 89 85 58 fd ff ff 	mov    %rax,-0x2a8(%rbp)
    d037:	48 8d 85 f0 f7 ff ff 	lea    -0x810(%rbp),%rax
    d03e:	48 89 85 60 fd ff ff 	mov    %rax,-0x2a0(%rbp)
    d045:	48 c7 85 68 fd ff ff 	movq   $0x0,-0x298(%rbp)
    d04c:	00 00 00 00 
    d050:	48 8d 85 f0 f7 ff ff 	lea    -0x810(%rbp),%rax
    d057:	48 89 85 70 fd ff ff 	mov    %rax,-0x290(%rbp)
    d05e:	48 c7 85 78 fd ff ff 	movq   $0x0,-0x288(%rbp)
    d065:	00 00 00 00 
    d069:	48 c7 85 80 fd ff ff 	movq   $0x0,-0x280(%rbp)
    d070:	00 00 00 00 
    d074:	48 c7 85 88 fd ff ff 	movq   $0x0,-0x278(%rbp)
    d07b:	00 00 00 00 
    d07f:	48 8d 85 f0 f7 ff ff 	lea    -0x810(%rbp),%rax
    d086:	48 89 85 90 fd ff ff 	mov    %rax,-0x270(%rbp)
    d08d:	48 8d 85 f0 f7 ff ff 	lea    -0x810(%rbp),%rax
    d094:	48 89 85 98 fd ff ff 	mov    %rax,-0x268(%rbp)
    d09b:	48 8d 85 f0 f7 ff ff 	lea    -0x810(%rbp),%rax
    d0a2:	48 89 85 a0 fd ff ff 	mov    %rax,-0x260(%rbp)
    d0a9:	48 c7 85 a8 fd ff ff 	movq   $0x0,-0x258(%rbp)
    d0b0:	00 00 00 00 
    d0b4:	48 8d 85 f0 f7 ff ff 	lea    -0x810(%rbp),%rax
    d0bb:	48 89 85 b0 fd ff ff 	mov    %rax,-0x250(%rbp)
    d0c2:	48 c7 85 b8 fd ff ff 	movq   $0x0,-0x248(%rbp)
    d0c9:	00 00 00 00 
    d0cd:	48 8d 85 f0 f7 ff ff 	lea    -0x810(%rbp),%rax
    d0d4:	48 89 85 c0 fd ff ff 	mov    %rax,-0x240(%rbp)
    d0db:	48 8d 85 f0 f7 ff ff 	lea    -0x810(%rbp),%rax
    d0e2:	48 89 85 c8 fd ff ff 	mov    %rax,-0x238(%rbp)
    d0e9:	48 8d 85 f0 f7 ff ff 	lea    -0x810(%rbp),%rax
    d0f0:	48 89 85 d0 fd ff ff 	mov    %rax,-0x230(%rbp)
    d0f7:	48 8d 85 f0 f7 ff ff 	lea    -0x810(%rbp),%rax
    d0fe:	48 89 85 d8 fd ff ff 	mov    %rax,-0x228(%rbp)
    d105:	48 8d 85 f0 f7 ff ff 	lea    -0x810(%rbp),%rax
    d10c:	48 89 85 e0 fd ff ff 	mov    %rax,-0x220(%rbp)
    d113:	48 8d 85 f0 f7 ff ff 	lea    -0x810(%rbp),%rax
    d11a:	48 89 85 e8 fd ff ff 	mov    %rax,-0x218(%rbp)
    d121:	48 8d 85 f0 f7 ff ff 	lea    -0x810(%rbp),%rax
    d128:	48 89 85 f0 fd ff ff 	mov    %rax,-0x210(%rbp)
    d12f:	48 8d 85 f0 f7 ff ff 	lea    -0x810(%rbp),%rax
    d136:	48 89 85 f8 fd ff ff 	mov    %rax,-0x208(%rbp)
    d13d:	48 8d 85 f0 f7 ff ff 	lea    -0x810(%rbp),%rax
    d144:	48 89 85 00 fe ff ff 	mov    %rax,-0x200(%rbp)
    d14b:	48 8d 85 f0 f7 ff ff 	lea    -0x810(%rbp),%rax
    d152:	48 89 85 08 fe ff ff 	mov    %rax,-0x1f8(%rbp)
    d159:	48 8d 85 f0 f7 ff ff 	lea    -0x810(%rbp),%rax
    d160:	48 89 85 10 fe ff ff 	mov    %rax,-0x1f0(%rbp)
    d167:	48 c7 85 18 fe ff ff 	movq   $0x0,-0x1e8(%rbp)
    d16e:	00 00 00 00 
    d172:	48 8d 85 f0 f7 ff ff 	lea    -0x810(%rbp),%rax
    d179:	48 89 85 20 fe ff ff 	mov    %rax,-0x1e0(%rbp)
    d180:	48 8d 85 f0 f7 ff ff 	lea    -0x810(%rbp),%rax
    d187:	48 89 85 28 fe ff ff 	mov    %rax,-0x1d8(%rbp)
    d18e:	48 8d 85 f0 f7 ff ff 	lea    -0x810(%rbp),%rax
    d195:	48 89 85 30 fe ff ff 	mov    %rax,-0x1d0(%rbp)
    d19c:	48 8d 85 f0 f7 ff ff 	lea    -0x810(%rbp),%rax
    d1a3:	48 89 85 38 fe ff ff 	mov    %rax,-0x1c8(%rbp)
    d1aa:	48 8d 85 f0 f7 ff ff 	lea    -0x810(%rbp),%rax
    d1b1:	48 89 85 40 fe ff ff 	mov    %rax,-0x1c0(%rbp)
    d1b8:	48 8d 85 f0 f7 ff ff 	lea    -0x810(%rbp),%rax
    d1bf:	48 89 85 48 fe ff ff 	mov    %rax,-0x1b8(%rbp)
    d1c6:	48 8d 85 f0 f7 ff ff 	lea    -0x810(%rbp),%rax
    d1cd:	48 89 85 50 fe ff ff 	mov    %rax,-0x1b0(%rbp)
    d1d4:	48 8d 85 f0 f7 ff ff 	lea    -0x810(%rbp),%rax
    d1db:	48 89 85 58 fe ff ff 	mov    %rax,-0x1a8(%rbp)
    d1e2:	48 8d 85 f0 f7 ff ff 	lea    -0x810(%rbp),%rax
    d1e9:	48 89 85 60 fe ff ff 	mov    %rax,-0x1a0(%rbp)
    d1f0:	48 8d 85 f0 f7 ff ff 	lea    -0x810(%rbp),%rax
    d1f7:	48 89 85 68 fe ff ff 	mov    %rax,-0x198(%rbp)
    d1fe:	48 c7 85 70 fe ff ff 	movq   $0x0,-0x190(%rbp)
    d205:	00 00 00 00 
    d209:	48 8d 85 f0 f7 ff ff 	lea    -0x810(%rbp),%rax
    d210:	48 89 85 78 fe ff ff 	mov    %rax,-0x188(%rbp)
    d217:	48 8d 85 f0 f7 ff ff 	lea    -0x810(%rbp),%rax
    d21e:	48 89 85 80 fe ff ff 	mov    %rax,-0x180(%rbp)
    d225:	48 8d 85 f0 f7 ff ff 	lea    -0x810(%rbp),%rax
    d22c:	48 89 85 88 fe ff ff 	mov    %rax,-0x178(%rbp)
    d233:	48 8d 85 f0 f7 ff ff 	lea    -0x810(%rbp),%rax
    d23a:	48 89 85 90 fe ff ff 	mov    %rax,-0x170(%rbp)
    d241:	48 8d 85 f0 f7 ff ff 	lea    -0x810(%rbp),%rax
    d248:	48 89 85 98 fe ff ff 	mov    %rax,-0x168(%rbp)
    d24f:	48 8d 85 f0 f7 ff ff 	lea    -0x810(%rbp),%rax
    d256:	48 89 85 a0 fe ff ff 	mov    %rax,-0x160(%rbp)
    d25d:	48 c7 85 a8 fe ff ff 	movq   $0x0,-0x158(%rbp)
    d264:	00 00 00 00 
    d268:	48 8d 85 f0 f7 ff ff 	lea    -0x810(%rbp),%rax
    d26f:	48 89 85 b0 fe ff ff 	mov    %rax,-0x150(%rbp)
    d276:	48 8d 85 f0 f7 ff ff 	lea    -0x810(%rbp),%rax
    d27d:	48 89 85 b8 fe ff ff 	mov    %rax,-0x148(%rbp)
    d284:	48 c7 85 c0 fe ff ff 	movq   $0x0,-0x140(%rbp)
    d28b:	00 00 00 00 
    d28f:	48 8d 85 f0 f7 ff ff 	lea    -0x810(%rbp),%rax
    d296:	48 89 85 c8 fe ff ff 	mov    %rax,-0x138(%rbp)
    d29d:	48 8d 85 f0 f7 ff ff 	lea    -0x810(%rbp),%rax
    d2a4:	48 89 85 d0 fe ff ff 	mov    %rax,-0x130(%rbp)
    d2ab:	48 c7 85 d8 fe ff ff 	movq   $0x0,-0x128(%rbp)
    d2b2:	00 00 00 00 
    d2b6:	48 8d 85 f0 f7 ff ff 	lea    -0x810(%rbp),%rax
    d2bd:	48 89 85 e0 fe ff ff 	mov    %rax,-0x120(%rbp)
    d2c4:	48 8d 85 f0 f7 ff ff 	lea    -0x810(%rbp),%rax
    d2cb:	48 89 85 e8 fe ff ff 	mov    %rax,-0x118(%rbp)
    d2d2:	48 8d 85 f0 f7 ff ff 	lea    -0x810(%rbp),%rax
    d2d9:	48 89 85 f0 fe ff ff 	mov    %rax,-0x110(%rbp)
    d2e0:	48 c7 85 f8 fe ff ff 	movq   $0x0,-0x108(%rbp)
    d2e7:	00 00 00 00 
    d2eb:	48 8d 85 f0 f7 ff ff 	lea    -0x810(%rbp),%rax
    d2f2:	48 89 85 00 ff ff ff 	mov    %rax,-0x100(%rbp)
    d2f9:	48 8d 85 f0 f7 ff ff 	lea    -0x810(%rbp),%rax
    d300:	48 89 85 08 ff ff ff 	mov    %rax,-0xf8(%rbp)
    d307:	48 8d 85 f0 f7 ff ff 	lea    -0x810(%rbp),%rax
    d30e:	48 89 85 10 ff ff ff 	mov    %rax,-0xf0(%rbp)
    d315:	48 c7 85 18 ff ff ff 	movq   $0x0,-0xe8(%rbp)
    d31c:	00 00 00 00 
    d320:	48 8d 85 f0 f7 ff ff 	lea    -0x810(%rbp),%rax
    d327:	48 89 85 20 ff ff ff 	mov    %rax,-0xe0(%rbp)
    d32e:	48 c7 85 28 ff ff ff 	movq   $0x0,-0xd8(%rbp)
    d335:	00 00 00 00 
    d339:	48 8d 85 f0 f7 ff ff 	lea    -0x810(%rbp),%rax
    d340:	48 89 85 30 ff ff ff 	mov    %rax,-0xd0(%rbp)
    d347:	48 8d 85 f0 f7 ff ff 	lea    -0x810(%rbp),%rax
    d34e:	48 89 85 38 ff ff ff 	mov    %rax,-0xc8(%rbp)
    d355:	48 8d 85 f0 f7 ff ff 	lea    -0x810(%rbp),%rax
    d35c:	48 89 85 40 ff ff ff 	mov    %rax,-0xc0(%rbp)
    d363:	48 c7 85 48 ff ff ff 	movq   $0x0,-0xb8(%rbp)
    d36a:	00 00 00 00 
    d36e:	48 8d 85 f0 f7 ff ff 	lea    -0x810(%rbp),%rax
    d375:	48 89 85 50 ff ff ff 	mov    %rax,-0xb0(%rbp)
    d37c:	48 8d 85 f0 f7 ff ff 	lea    -0x810(%rbp),%rax
    d383:	48 89 85 58 ff ff ff 	mov    %rax,-0xa8(%rbp)
    d38a:	48 8d 85 f0 f7 ff ff 	lea    -0x810(%rbp),%rax
    d391:	48 89 85 60 ff ff ff 	mov    %rax,-0xa0(%rbp)
    d398:	48 8d 85 f0 f7 ff ff 	lea    -0x810(%rbp),%rax
    d39f:	48 89 85 68 ff ff ff 	mov    %rax,-0x98(%rbp)
    d3a6:	48 8d 85 f0 f7 ff ff 	lea    -0x810(%rbp),%rax
    d3ad:	48 89 85 70 ff ff ff 	mov    %rax,-0x90(%rbp)
    d3b4:	48 8d 85 f0 f7 ff ff 	lea    -0x810(%rbp),%rax
    d3bb:	48 89 85 78 ff ff ff 	mov    %rax,-0x88(%rbp)
    d3c2:	48 8d 85 f0 f7 ff ff 	lea    -0x810(%rbp),%rax
    d3c9:	48 89 45 80          	mov    %rax,-0x80(%rbp)
    d3cd:	48 c7 45 88 00 00 00 	movq   $0x0,-0x78(%rbp)
    d3d4:	00 
    d3d5:	48 8d 85 f0 f7 ff ff 	lea    -0x810(%rbp),%rax
    d3dc:	48 89 45 90          	mov    %rax,-0x70(%rbp)
    d3e0:	48 8d 85 f0 f7 ff ff 	lea    -0x810(%rbp),%rax
    d3e7:	48 89 45 98          	mov    %rax,-0x68(%rbp)
    d3eb:	48 8d 85 f0 f7 ff ff 	lea    -0x810(%rbp),%rax
    d3f2:	48 89 45 a0          	mov    %rax,-0x60(%rbp)
    d3f6:	48 c7 45 a8 00 00 00 	movq   $0x0,-0x58(%rbp)
    d3fd:	00 
    d3fe:	48 c7 45 b0 00 00 00 	movq   $0x0,-0x50(%rbp)
    d405:	00 
    d406:	48 c7 45 b8 00 00 00 	movq   $0x0,-0x48(%rbp)
    d40d:	00 
    d40e:	c7 85 7c f7 ff ff 00 	movl   $0x0,-0x884(%rbp)
    d415:	00 00 00 
    d418:	eb 1e                	jmp    d438 <func_1+0xc83>
    d41a:	8b 85 7c f7 ff ff    	mov    -0x884(%rbp),%eax
    d420:	48 98                	cltq   
    d422:	48 8d 15 fb 6c 01 00 	lea    0x16cfb(%rip),%rdx        # 24124 <g_7>
    d429:	48 89 94 c5 88 f8 ff 	mov    %rdx,-0x778(%rbp,%rax,8)
    d430:	ff 
    d431:	83 85 7c f7 ff ff 01 	addl   $0x1,-0x884(%rbp)
    d438:	83 bd 7c f7 ff ff 00 	cmpl   $0x0,-0x884(%rbp)
    d43f:	7e d9                	jle    d41a <func_1+0xc65>
    d441:	c7 85 7c f7 ff ff 00 	movl   $0x0,-0x884(%rbp)
    d448:	00 00 00 
    d44b:	eb 7d                	jmp    d4ca <func_1+0xd15>
    d44d:	c7 85 80 f7 ff ff 00 	movl   $0x0,-0x880(%rbp)
    d454:	00 00 00 
    d457:	eb 61                	jmp    d4ba <func_1+0xd05>
    d459:	c7 85 84 f7 ff ff 00 	movl   $0x0,-0x87c(%rbp)
    d460:	00 00 00 
    d463:	eb 45                	jmp    d4aa <func_1+0xcf5>
    d465:	8b 85 84 f7 ff ff    	mov    -0x87c(%rbp),%eax
    d46b:	48 63 f0             	movslq %eax,%rsi
    d46e:	8b 85 7c f7 ff ff    	mov    -0x884(%rbp),%eax
    d474:	48 98                	cltq   
    d476:	8b 95 80 f7 ff ff    	mov    -0x880(%rbp),%edx
    d47c:	48 63 ca             	movslq %edx,%rcx
    d47f:	48 89 c2             	mov    %rax,%rdx
    d482:	48 c1 e2 03          	shl    $0x3,%rdx
    d486:	48 01 c2             	add    %rax,%rdx
    d489:	48 89 c8             	mov    %rcx,%rax
    d48c:	48 01 c0             	add    %rax,%rax
    d48f:	48 01 c8             	add    %rcx,%rax
    d492:	48 01 d0             	add    %rdx,%rax
    d495:	48 01 f0             	add    %rsi,%rax
    d498:	c7 84 85 00 f9 ff ff 	movl   $0x69867f5d,-0x700(%rbp,%rax,4)
    d49f:	5d 7f 86 69 
    d4a3:	83 85 84 f7 ff ff 01 	addl   $0x1,-0x87c(%rbp)
    d4aa:	83 bd 84 f7 ff ff 02 	cmpl   $0x2,-0x87c(%rbp)
    d4b1:	7e b2                	jle    d465 <func_1+0xcb0>
    d4b3:	83 85 80 f7 ff ff 01 	addl   $0x1,-0x880(%rbp)
    d4ba:	83 bd 80 f7 ff ff 02 	cmpl   $0x2,-0x880(%rbp)
    d4c1:	7e 96                	jle    d459 <func_1+0xca4>
    d4c3:	83 85 7c f7 ff ff 01 	addl   $0x1,-0x884(%rbp)
    d4ca:	83 bd 7c f7 ff ff 00 	cmpl   $0x0,-0x884(%rbp)
    d4d1:	0f 8e 76 ff ff ff    	jle    d44d <func_1+0xc98>
    d4d7:	8b 15 43 6c 01 00    	mov    0x16c43(%rip),%edx        # 24120 <g_3+0x20>
    d4dd:	48 8b 85 68 f8 ff ff 	mov    -0x798(%rbp),%rax
    d4e4:	89 10                	mov    %edx,(%rax)
    d4e6:	48 8d 05 17 6c 01 00 	lea    0x16c17(%rip),%rax        # 24104 <g_3+0x4>
    d4ed:	48 89 85 f8 f7 ff ff 	mov    %rax,-0x808(%rbp)
    d4f4:	48 8b 85 f8 f7 ff ff 	mov    -0x808(%rbp),%rax
    d4fb:	48 89 05 1e 9d 01 00 	mov    %rax,0x19d1e(%rip)        # 27220 <g_13>
    d502:	c7 05 18 6c 01 00 00 	movl   $0x0,0x16c18(%rip)        # 24124 <g_7>
    d509:	00 00 00 
    d50c:	eb 7e                	jmp    d58c <func_1+0xdd7>
    d50e:	c7 85 c4 f7 ff ff 0b 	movl   $0x4b81230b,-0x83c(%rbp)
    d515:	23 81 4b 
    d518:	c7 85 88 f7 ff ff 00 	movl   $0x0,-0x878(%rbp)
    d51f:	00 00 00 
    d522:	eb 1e                	jmp    d542 <func_1+0xd8d>
    d524:	8b 85 88 f7 ff ff    	mov    -0x878(%rbp),%eax
    d52a:	48 98                	cltq   
    d52c:	48 8d 15 f5 6b 01 00 	lea    0x16bf5(%rip),%rdx        # 24128 <g_18>
    d533:	48 89 94 c5 b0 f8 ff 	mov    %rdx,-0x750(%rbp,%rax,8)
    d53a:	ff 
    d53b:	83 85 88 f7 ff ff 01 	addl   $0x1,-0x878(%rbp)
    d542:	83 bd 88 f7 ff ff 01 	cmpl   $0x1,-0x878(%rbp)
    d549:	7e d9                	jle    d524 <func_1+0xd6f>
    d54b:	8b 05 d7 6b 01 00    	mov    0x16bd7(%rip),%eax        # 24128 <g_18>
    d551:	23 85 c4 f7 ff ff    	and    -0x83c(%rbp),%eax
    d557:	89 05 cb 6b 01 00    	mov    %eax,0x16bcb(%rip)        # 24128 <g_18>
    d55d:	8b 15 c5 6b 01 00    	mov    0x16bc5(%rip),%edx        # 24128 <g_18>
    d563:	8b 05 4f 6b 01 00    	mov    0x16b4f(%rip),%eax        # 240b8 <g_2+0x78>
    d569:	09 d0                	or     %edx,%eax
    d56b:	89 05 47 6b 01 00    	mov    %eax,0x16b47(%rip)        # 240b8 <g_2+0x78>
    d571:	8b 05 ad 6b 01 00    	mov    0x16bad(%rip),%eax        # 24124 <g_7>
    d577:	48 98                	cltq   
    d579:	be 02 00 00 00       	mov    $0x2,%esi
    d57e:	48 89 c7             	mov    %rax,%rdi
    d581:	e8 bb e2 ff ff       	callq  b841 <safe_add_func_int64_t_s_s>
    d586:	89 05 98 6b 01 00    	mov    %eax,0x16b98(%rip)        # 24124 <g_7>
    d58c:	8b 05 92 6b 01 00    	mov    0x16b92(%rip),%eax        # 24124 <g_7>
    d592:	83 f8 07             	cmp    $0x7,%eax
    d595:	0f 8f 73 ff ff ff    	jg     d50e <func_1+0xd59>
    d59b:	83 85 74 f7 ff ff 01 	addl   $0x1,-0x88c(%rbp)
    d5a2:	8b 05 5c 6b 01 00    	mov    0x16b5c(%rip),%eax        # 24104 <g_3+0x4>
    d5a8:	0f b6 c0             	movzbl %al,%eax
    d5ab:	be 01 00 00 00       	mov    $0x1,%esi
    d5b0:	89 c7                	mov    %eax,%edi
    d5b2:	e8 c1 e5 ff ff       	callq  bb78 <safe_sub_func_uint8_t_u_u>
    d5b7:	0f b6 c0             	movzbl %al,%eax
    d5ba:	89 05 44 6b 01 00    	mov    %eax,0x16b44(%rip)        # 24104 <g_3+0x4>
    d5c0:	8b 05 3e 6b 01 00    	mov    0x16b3e(%rip),%eax        # 24104 <g_3+0x4>
    d5c6:	83 f8 fc             	cmp    $0xfffffffc,%eax
    d5c9:	0f 8c 98 f3 ff ff    	jl     c967 <func_1+0x1b2>
    d5cf:	8b 9d 9c f7 ff ff    	mov    -0x864(%rbp),%ebx
    d5d5:	8b 85 9c f7 ff ff    	mov    -0x864(%rbp),%eax
    d5db:	44 0f b7 e8          	movzwl %ax,%r13d
    d5df:	8b 85 94 f7 ff ff    	mov    -0x86c(%rbp),%eax
    d5e5:	4c 63 e0             	movslq %eax,%r12
    d5e8:	44 0f b6 b5 70 f7 ff 	movzbl -0x890(%rbp),%r14d
    d5ef:	ff 
    d5f0:	48 83 bd 00 f8 ff ff 	cmpq   $0x0,-0x800(%rbp)
    d5f7:	00 
    d5f8:	75 0c                	jne    d606 <func_1+0xe51>
    d5fa:	0f b7 05 f3 6d 01 00 	movzwl 0x16df3(%rip),%eax        # 243f4 <g_286>
    d601:	66 85 c0             	test   %ax,%ax
    d604:	74 07                	je     d60d <func_1+0xe58>
    d606:	b8 01 00 00 00       	mov    $0x1,%eax
    d60b:	eb 05                	jmp    d612 <func_1+0xe5d>
    d60d:	b8 00 00 00 00       	mov    $0x0,%eax
    d612:	be 5f 4b 01 14       	mov    $0x14014b5f,%esi
    d617:	89 c7                	mov    %eax,%edi
    d619:	e8 07 e9 ff ff       	callq  bf25 <safe_div_func_uint32_t_u_u>
    d61e:	8b 95 94 f7 ff ff    	mov    -0x86c(%rbp),%edx
    d624:	39 d0                	cmp    %edx,%eax
    d626:	0f 97 c0             	seta   %al
    d629:	0f b6 c0             	movzbl %al,%eax
    d62c:	f7 d0                	not    %eax
    d62e:	89 c2                	mov    %eax,%edx
    d630:	8b 85 a0 f7 ff ff    	mov    -0x860(%rbp),%eax
    d636:	31 d0                	xor    %edx,%eax
    d638:	98                   	cwtl   
    d639:	44 89 f6             	mov    %r14d,%esi
    d63c:	89 c7                	mov    %eax,%edi
    d63e:	e8 70 dd ff ff       	callq  b3b3 <safe_add_func_int16_t_s_s>
    d643:	4c 0f bf f0          	movswq %ax,%r14
    d647:	8b 15 7f 6b 01 00    	mov    0x16b7f(%rip),%edx        # 241cc <g_139+0x2c>
    d64d:	8b 85 98 f8 ff ff    	mov    -0x768(%rbp),%eax
    d653:	83 c8 05             	or     $0x5,%eax
    d656:	89 85 98 f8 ff ff    	mov    %eax,-0x768(%rbp)
    d65c:	8b 85 98 f8 ff ff    	mov    -0x768(%rbp),%eax
    d662:	21 c2                	and    %eax,%edx
    d664:	41 89 d7             	mov    %edx,%r15d
    d667:	8b 05 b7 6a 01 00    	mov    0x16ab7(%rip),%eax        # 24124 <g_7>
    d66d:	89 c7                	mov    %eax,%edi
    d66f:	e8 32 e8 ff ff       	callq  bea6 <safe_unary_minus_func_uint32_t_u>
    d674:	89 c7                	mov    %eax,%edi
    d676:	e8 f4 53 00 00       	callq  12a6f <func_52>
    d67b:	48 89 c6             	mov    %rax,%rsi
    d67e:	48 8b 05 c3 b5 01 00 	mov    0x1b5c3(%rip),%rax        # 28c48 <g_51>
    d685:	4c 8d 05 f9 6a 01 00 	lea    0x16af9(%rip),%r8        # 24185 <g_90+0x25>
    d68c:	4c 89 f1             	mov    %r14,%rcx
    d68f:	44 89 fa             	mov    %r15d,%edx
    d692:	48 89 c7             	mov    %rax,%rdi
    d695:	e8 ca 4f 00 00       	callq  12664 <func_45>
    d69a:	0f b7 d0             	movzwl %ax,%edx
    d69d:	8b 0d 61 6a 01 00    	mov    0x16a61(%rip),%ecx        # 24104 <g_3+0x4>
    d6a3:	8b 05 7f 6a 01 00    	mov    0x16a7f(%rip),%eax        # 24128 <g_18>
    d6a9:	39 c1                	cmp    %eax,%ecx
    d6ab:	0f 94 c0             	sete   %al
    d6ae:	0f b6 c0             	movzbl %al,%eax
    d6b1:	89 d6                	mov    %edx,%esi
    d6b3:	89 c7                	mov    %eax,%edi
    d6b5:	e8 83 e6 ff ff       	callq  bd3d <safe_mul_func_uint16_t_u_u>
    d6ba:	0f b7 c0             	movzwl %ax,%eax
    d6bd:	44 89 ea             	mov    %r13d,%edx
    d6c0:	4c 89 e6             	mov    %r12,%rsi
    d6c3:	89 c7                	mov    %eax,%edi
    d6c5:	e8 27 4a 00 00       	callq  120f1 <func_39>
    d6ca:	89 85 90 f8 ff ff    	mov    %eax,-0x770(%rbp)
    d6d0:	8b 85 90 f8 ff ff    	mov    -0x770(%rbp),%eax
    d6d6:	48 98                	cltq   
    d6d8:	89 de                	mov    %ebx,%esi
    d6da:	48 89 c7             	mov    %rax,%rdi
    d6dd:	e8 c2 06 00 00       	callq  dda4 <func_36>
    d6e2:	0f b7 85 72 f7 ff ff 	movzwl -0x88e(%rbp),%eax
    d6e9:	0b 85 a4 f7 ff ff    	or     -0x85c(%rbp),%eax
    d6ef:	48 98                	cltq   
    d6f1:	48 be 53 7d c0 7e 70 	movabs $0x13d7b9707ec07d53,%rsi
    d6f8:	b9 d7 13 
    d6fb:	48 89 c7             	mov    %rax,%rdi
    d6fe:	e8 b1 e2 ff ff       	callq  b9b4 <safe_mod_func_int64_t_s_s>
    d703:	48 85 c0             	test   %rax,%rax
    d706:	74 09                	je     d711 <func_1+0xf5c>
    d708:	83 bd a4 f7 ff ff 00 	cmpl   $0x0,-0x85c(%rbp)
    d70f:	75 19                	jne    d72a <func_1+0xf75>
    d711:	48 8b 05 e0 b0 01 00 	mov    0x1b0e0(%rip),%rax        # 287f8 <g_2175>
    d718:	48 8b 00             	mov    (%rax),%rax
    d71b:	48 8b 00             	mov    (%rax),%rax
    d71e:	48 8b 00             	mov    (%rax),%rax
    d721:	48 8b 00             	mov    (%rax),%rax
    d724:	48 8b 00             	mov    (%rax),%rax
    d727:	48 85 c0             	test   %rax,%rax
    d72a:	90                   	nop
    d72b:	0f b6 95 84 f8 ff ff 	movzbl -0x77c(%rbp),%edx
    d732:	48 8b 05 a7 a8 01 00 	mov    0x1a8a7(%rip),%rax        # 27fe0 <g_1722>
    d739:	48 8b 00             	mov    (%rax),%rax
    d73c:	0f be d2             	movsbl %dl,%edx
    d73f:	89 10                	mov    %edx,(%rax)
    d741:	48 8b 05 08 a3 01 00 	mov    0x1a308(%rip),%rax        # 27a50 <g_1091>
    d748:	48 8b 00             	mov    (%rax),%rax
    d74b:	8b 00                	mov    (%rax),%eax
    d74d:	85 c0                	test   %eax,%eax
    d74f:	0f 84 9c 02 00 00    	je     d9f1 <func_1+0x123c>
    d755:	8b 85 f0 f7 ff ff    	mov    -0x810(%rbp),%eax
    d75b:	25 00 00 f0 ff       	and    $0xfff00000,%eax
    d760:	89 85 f0 f7 ff ff    	mov    %eax,-0x810(%rbp)
    d766:	c7 85 bc f7 ff ff 07 	movl   $0x7,-0x844(%rbp)
    d76d:	00 00 00 
    d770:	48 8d 05 39 71 01 00 	lea    0x17139(%rip),%rax        # 248b0 <g_2283>
    d777:	48 89 85 00 f9 ff ff 	mov    %rax,-0x700(%rbp)
    d77e:	48 8d 05 2b 71 01 00 	lea    0x1712b(%rip),%rax        # 248b0 <g_2283>
    d785:	48 89 85 08 f9 ff ff 	mov    %rax,-0x6f8(%rbp)
    d78c:	48 8d 05 1d 71 01 00 	lea    0x1711d(%rip),%rax        # 248b0 <g_2283>
    d793:	48 89 85 10 f9 ff ff 	mov    %rax,-0x6f0(%rbp)
    d79a:	48 8d 05 0f 71 01 00 	lea    0x1710f(%rip),%rax        # 248b0 <g_2283>
    d7a1:	48 89 85 18 f9 ff ff 	mov    %rax,-0x6e8(%rbp)
    d7a8:	48 8d 05 01 71 01 00 	lea    0x17101(%rip),%rax        # 248b0 <g_2283>
    d7af:	48 89 85 20 f9 ff ff 	mov    %rax,-0x6e0(%rbp)
    d7b6:	48 8d 05 f3 70 01 00 	lea    0x170f3(%rip),%rax        # 248b0 <g_2283>
    d7bd:	48 89 85 28 f9 ff ff 	mov    %rax,-0x6d8(%rbp)
    d7c4:	48 8d 05 e5 70 01 00 	lea    0x170e5(%rip),%rax        # 248b0 <g_2283>
    d7cb:	48 89 85 30 f9 ff ff 	mov    %rax,-0x6d0(%rbp)
    d7d2:	48 8d 05 d7 70 01 00 	lea    0x170d7(%rip),%rax        # 248b0 <g_2283>
    d7d9:	48 89 85 38 f9 ff ff 	mov    %rax,-0x6c8(%rbp)
    d7e0:	48 8d 05 c9 70 01 00 	lea    0x170c9(%rip),%rax        # 248b0 <g_2283>
    d7e7:	48 89 85 40 f9 ff ff 	mov    %rax,-0x6c0(%rbp)
    d7ee:	48 8d 05 bb 70 01 00 	lea    0x170bb(%rip),%rax        # 248b0 <g_2283>
    d7f5:	48 89 85 48 f9 ff ff 	mov    %rax,-0x6b8(%rbp)
    d7fc:	48 8d 05 ad 70 01 00 	lea    0x170ad(%rip),%rax        # 248b0 <g_2283>
    d803:	48 89 85 50 f9 ff ff 	mov    %rax,-0x6b0(%rbp)
    d80a:	48 8d 05 9f 70 01 00 	lea    0x1709f(%rip),%rax        # 248b0 <g_2283>
    d811:	48 89 85 58 f9 ff ff 	mov    %rax,-0x6a8(%rbp)
    d818:	48 8d 05 91 70 01 00 	lea    0x17091(%rip),%rax        # 248b0 <g_2283>
    d81f:	48 89 85 60 f9 ff ff 	mov    %rax,-0x6a0(%rbp)
    d826:	48 8d 05 83 70 01 00 	lea    0x17083(%rip),%rax        # 248b0 <g_2283>
    d82d:	48 89 85 68 f9 ff ff 	mov    %rax,-0x698(%rbp)
    d834:	48 8d 05 75 70 01 00 	lea    0x17075(%rip),%rax        # 248b0 <g_2283>
    d83b:	48 89 85 70 f9 ff ff 	mov    %rax,-0x690(%rbp)
    d842:	48 b8 54 4e eb 96 5e 	movabs $0x1636ca5e96eb4e54,%rax
    d849:	ca 36 16 
    d84c:	48 89 85 50 f8 ff ff 	mov    %rax,-0x7b0(%rbp)
    d853:	48 8d 85 80 f9 ff ff 	lea    -0x680(%rbp),%rax
    d85a:	48 8d 15 1f 18 01 00 	lea    0x1181f(%rip),%rdx        # 1f080 <g_985+0x1c>
    d861:	b9 78 00 00 00       	mov    $0x78,%ecx
    d866:	48 89 c7             	mov    %rax,%rdi
    d869:	48 89 d6             	mov    %rdx,%rsi
    d86c:	f3 48 a5             	rep movsq %ds:(%rsi),%es:(%rdi)
    d86f:	c7 85 c0 f7 ff ff fa 	movl   $0xfffffffa,-0x840(%rbp)
    d876:	ff ff ff 
    d879:	48 c7 85 58 f8 ff ff 	movq   $0xfffffffffffffffc,-0x7a8(%rbp)
    d880:	fc ff ff ff 
    d884:	48 8d 05 2d b7 01 00 	lea    0x1b72d(%rip),%rax        # 28fb8 <g_302+0x8>
    d88b:	48 89 85 60 f8 ff ff 	mov    %rax,-0x7a0(%rbp)
    d892:	c7 85 8c f7 ff ff 00 	movl   $0x0,-0x874(%rbp)
    d899:	00 00 00 
    d89c:	eb 1e                	jmp    d8bc <func_1+0x1107>
    d89e:	8b 85 8c f7 ff ff    	mov    -0x874(%rbp),%eax
    d8a4:	48 98                	cltq   
    d8a6:	48 8d 15 27 6c 01 00 	lea    0x16c27(%rip),%rdx        # 244d4 <g_892>
    d8ad:	48 89 94 c5 b0 f8 ff 	mov    %rdx,-0x750(%rbp,%rax,8)
    d8b4:	ff 
    d8b5:	83 85 8c f7 ff ff 01 	addl   $0x1,-0x874(%rbp)
    d8bc:	83 bd 8c f7 ff ff 09 	cmpl   $0x9,-0x874(%rbp)
    d8c3:	7e d9                	jle    d89e <func_1+0x10e9>
    d8c5:	8b 85 4c fc ff ff    	mov    -0x3b4(%rbp),%eax
    d8cb:	0f b7 d8             	movzwl %ax,%ebx
    d8ce:	8b 85 f0 f7 ff ff    	mov    -0x810(%rbp),%eax
    d8d4:	25 ff ff 0f 00       	and    $0xfffff,%eax
    d8d9:	41 89 c4             	mov    %eax,%r12d
    d8dc:	48 8b 05 75 a7 01 00 	mov    0x1a775(%rip),%rax        # 28058 <g_2157>
    d8e3:	0f b6 00             	movzbl (%rax),%eax
    d8e6:	0f b6 c0             	movzbl %al,%eax
    d8e9:	89 85 bc f7 ff ff    	mov    %eax,-0x844(%rbp)
    d8ef:	48 8b 05 8a 99 01 00 	mov    0x1998a(%rip),%rax        # 27280 <g_138>
    d8f6:	8b 00                	mov    (%rax),%eax
    d8f8:	89 c1                	mov    %eax,%ecx
    d8fa:	0f b6 05 85 68 01 00 	movzbl 0x16885(%rip),%eax        # 24186 <g_90+0x26>
    d901:	3c 01                	cmp    $0x1,%al
    d903:	0f 94 c0             	sete   %al
    d906:	0f b6 c0             	movzbl %al,%eax
    d909:	48 8b 15 68 99 01 00 	mov    0x19968(%rip),%rdx        # 27278 <g_115>
    d910:	48 8b 12             	mov    (%rdx),%rdx
    d913:	0f b6 12             	movzbl (%rdx),%edx
    d916:	0f be d2             	movsbl %dl,%edx
    d919:	89 95 bc f7 ff ff    	mov    %edx,-0x844(%rbp)
    d91f:	39 85 bc f7 ff ff    	cmp    %eax,-0x844(%rbp)
    d925:	0f 95 c0             	setne  %al
    d928:	0f b6 c0             	movzbl %al,%eax
    d92b:	89 ce                	mov    %ecx,%esi
    d92d:	89 c7                	mov    %eax,%edi
    d92f:	e8 f1 e5 ff ff       	callq  bf25 <safe_div_func_uint32_t_u_u>
    d934:	89 c0                	mov    %eax,%eax
    d936:	48 39 85 50 f8 ff ff 	cmp    %rax,-0x7b0(%rbp)
    d93d:	0f 92 c0             	setb   %al
    d940:	0f b6 c0             	movzbl %al,%eax
    d943:	4c 89 e6             	mov    %r12,%rsi
    d946:	48 89 c7             	mov    %rax,%rdi
    d949:	e8 61 e7 ff ff       	callq  c0af <safe_div_func_uint64_t_u_u>
    d94e:	8b 95 4c fc ff ff    	mov    -0x3b4(%rbp),%edx
    d954:	89 d2                	mov    %edx,%edx
    d956:	48 39 d0             	cmp    %rdx,%rax
    d959:	48 8b 05 f8 a6 01 00 	mov    0x1a6f8(%rip),%rax        # 28058 <g_2157>
    d960:	0f b6 00             	movzbl (%rax),%eax
    d963:	0f b6 c0             	movzbl %al,%eax
    d966:	48 8b 95 50 f8 ff ff 	mov    -0x7b0(%rbp),%rdx
    d96d:	21 d0                	and    %edx,%eax
    d96f:	0f b7 c0             	movzwl %ax,%eax
    d972:	89 de                	mov    %ebx,%esi
    d974:	89 c7                	mov    %eax,%edi
    d976:	e8 84 e3 ff ff       	callq  bcff <safe_add_func_uint16_t_u_u>
    d97b:	83 f0 88             	xor    $0xffffff88,%eax
    d97e:	0f be c0             	movsbl %al,%eax
    d981:	89 c7                	mov    %eax,%edi
    d983:	e8 37 d8 ff ff       	callq  b1bf <safe_unary_minus_func_int8_t_s>
    d988:	be 00 00 00 00       	mov    $0x0,%esi
    d98d:	bf 01 00 00 00       	mov    $0x1,%edi
    d992:	e8 f6 e2 ff ff       	callq  bc8d <safe_rshift_func_uint8_t_u_s>
    d997:	0f b6 d0             	movzbl %al,%edx
    d99a:	48 8b 05 b7 a6 01 00 	mov    0x1a6b7(%rip),%rax        # 28058 <g_2157>
    d9a1:	0f b6 00             	movzbl (%rax),%eax
    d9a4:	0f b6 c0             	movzbl %al,%eax
    d9a7:	89 d6                	mov    %edx,%esi
    d9a9:	89 c7                	mov    %eax,%edi
    d9ab:	e8 55 e2 ff ff       	callq  bc05 <safe_lshift_func_uint8_t_u_s>
    d9b0:	3c a4                	cmp    $0xa4,%al
    d9b2:	0f 97 c0             	seta   %al
    d9b5:	0f b6 c0             	movzbl %al,%eax
    d9b8:	89 85 c0 f7 ff ff    	mov    %eax,-0x840(%rbp)
    d9be:	8b 85 c0 f7 ff ff    	mov    -0x840(%rbp),%eax
    d9c4:	0c b0                	or     $0xb0,%al
    d9c6:	48 98                	cltq   
    d9c8:	48 39 85 58 f8 ff ff 	cmp    %rax,-0x7a8(%rbp)
    d9cf:	0f 94 c0             	sete   %al
    d9d2:	0f b6 c0             	movzbl %al,%eax
    d9d5:	21 85 a8 f7 ff ff    	and    %eax,-0x858(%rbp)
    d9db:	48 8b 05 0e 9c 01 00 	mov    0x19c0e(%rip),%rax        # 275f0 <g_479>
    d9e2:	48 8b 95 60 f8 ff ff 	mov    -0x7a0(%rbp),%rdx
    d9e9:	48 89 10             	mov    %rdx,(%rax)
    d9ec:	e9 75 03 00 00       	jmpq   dd66 <func_1+0x15b1>
    d9f1:	48 c7 85 18 f8 ff ff 	movq   $0x0,-0x7e8(%rbp)
    d9f8:	00 00 00 00 
    d9fc:	48 8d 05 85 b6 01 00 	lea    0x1b685(%rip),%rax        # 29088 <g_1547>
    da03:	48 89 85 20 f8 ff ff 	mov    %rax,-0x7e0(%rbp)
    da0a:	48 8d 05 df b6 01 00 	lea    0x1b6df(%rip),%rax        # 290f0 <g_1843>
    da11:	48 89 85 28 f8 ff ff 	mov    %rax,-0x7d8(%rbp)
    da18:	48 8d 05 69 b5 01 00 	lea    0x1b569(%rip),%rax        # 28f88 <g_233>
    da1f:	48 89 85 30 f8 ff ff 	mov    %rax,-0x7d0(%rbp)
    da26:	48 8d 05 c3 b6 01 00 	lea    0x1b6c3(%rip),%rax        # 290f0 <g_1843>
    da2d:	48 89 85 38 f8 ff ff 	mov    %rax,-0x7c8(%rbp)
    da34:	48 c7 85 40 f8 ff ff 	movq   $0x0,-0x7c0(%rbp)
    da3b:	00 00 00 00 
    da3f:	c7 85 00 f9 ff ff 47 	movl   $0x7cc35247,-0x700(%rbp)
    da46:	52 c3 7c 
    da49:	c7 85 04 f9 ff ff 47 	movl   $0x7cc35247,-0x6fc(%rbp)
    da50:	52 c3 7c 
    da53:	c7 85 08 f9 ff ff 47 	movl   $0x7cc35247,-0x6f8(%rbp)
    da5a:	52 c3 7c 
    da5d:	c7 85 0c f9 ff ff 47 	movl   $0x7cc35247,-0x6f4(%rbp)
    da64:	52 c3 7c 
    da67:	48 8d 05 7a 9b 01 00 	lea    0x19b7a(%rip),%rax        # 275e8 <g_371+0x28>
    da6e:	48 89 85 80 f9 ff ff 	mov    %rax,-0x680(%rbp)
    da75:	48 8d 05 5c 9b 01 00 	lea    0x19b5c(%rip),%rax        # 275d8 <g_371+0x18>
    da7c:	48 89 85 88 f9 ff ff 	mov    %rax,-0x678(%rbp)
    da83:	48 8d 05 5e 9b 01 00 	lea    0x19b5e(%rip),%rax        # 275e8 <g_371+0x28>
    da8a:	48 89 85 90 f9 ff ff 	mov    %rax,-0x670(%rbp)
    da91:	48 8d 05 50 9b 01 00 	lea    0x19b50(%rip),%rax        # 275e8 <g_371+0x28>
    da98:	48 89 85 98 f9 ff ff 	mov    %rax,-0x668(%rbp)
    da9f:	48 8d 05 32 9b 01 00 	lea    0x19b32(%rip),%rax        # 275d8 <g_371+0x18>
    daa6:	48 89 85 a0 f9 ff ff 	mov    %rax,-0x660(%rbp)
    daad:	48 8d 05 34 9b 01 00 	lea    0x19b34(%rip),%rax        # 275e8 <g_371+0x28>
    dab4:	48 89 85 a8 f9 ff ff 	mov    %rax,-0x658(%rbp)
    dabb:	48 8d 05 26 9b 01 00 	lea    0x19b26(%rip),%rax        # 275e8 <g_371+0x28>
    dac2:	48 89 85 b0 f9 ff ff 	mov    %rax,-0x650(%rbp)
    dac9:	48 8d 05 18 9b 01 00 	lea    0x19b18(%rip),%rax        # 275e8 <g_371+0x28>
    dad0:	48 89 85 b8 f9 ff ff 	mov    %rax,-0x648(%rbp)
    dad7:	48 8d 05 0a 9b 01 00 	lea    0x19b0a(%rip),%rax        # 275e8 <g_371+0x28>
    dade:	48 89 85 c0 f9 ff ff 	mov    %rax,-0x640(%rbp)
    dae5:	48 c7 85 c8 f9 ff ff 	movq   $0x0,-0x638(%rbp)
    daec:	00 00 00 00 
    daf0:	48 c7 85 d0 f9 ff ff 	movq   $0x0,-0x630(%rbp)
    daf7:	00 00 00 00 
    dafb:	48 8d 05 e6 9a 01 00 	lea    0x19ae6(%rip),%rax        # 275e8 <g_371+0x28>
    db02:	48 89 85 d8 f9 ff ff 	mov    %rax,-0x628(%rbp)
    db09:	48 c7 85 e0 f9 ff ff 	movq   $0x0,-0x620(%rbp)
    db10:	00 00 00 00 
    db14:	48 c7 85 e8 f9 ff ff 	movq   $0x0,-0x618(%rbp)
    db1b:	00 00 00 00 
    db1f:	48 8d 05 c2 9a 01 00 	lea    0x19ac2(%rip),%rax        # 275e8 <g_371+0x28>
    db26:	48 89 85 f0 f9 ff ff 	mov    %rax,-0x610(%rbp)
    db2d:	48 c7 85 f8 f9 ff ff 	movq   $0x0,-0x608(%rbp)
    db34:	00 00 00 00 
    db38:	48 8d 05 a9 9a 01 00 	lea    0x19aa9(%rip),%rax        # 275e8 <g_371+0x28>
    db3f:	48 89 85 00 fa ff ff 	mov    %rax,-0x600(%rbp)
    db46:	48 8d 05 9b 9a 01 00 	lea    0x19a9b(%rip),%rax        # 275e8 <g_371+0x28>
    db4d:	48 89 85 08 fa ff ff 	mov    %rax,-0x5f8(%rbp)
    db54:	48 8d 05 7d 9a 01 00 	lea    0x19a7d(%rip),%rax        # 275d8 <g_371+0x18>
    db5b:	48 89 85 10 fa ff ff 	mov    %rax,-0x5f0(%rbp)
    db62:	48 8d 05 7f 9a 01 00 	lea    0x19a7f(%rip),%rax        # 275e8 <g_371+0x28>
    db69:	48 89 85 18 fa ff ff 	mov    %rax,-0x5e8(%rbp)
    db70:	48 8d 05 71 9a 01 00 	lea    0x19a71(%rip),%rax        # 275e8 <g_371+0x28>
    db77:	48 89 85 20 fa ff ff 	mov    %rax,-0x5e0(%rbp)
    db7e:	48 8d 05 53 9a 01 00 	lea    0x19a53(%rip),%rax        # 275d8 <g_371+0x18>
    db85:	48 89 85 28 fa ff ff 	mov    %rax,-0x5d8(%rbp)
    db8c:	48 8d 05 55 9a 01 00 	lea    0x19a55(%rip),%rax        # 275e8 <g_371+0x28>
    db93:	48 89 85 30 fa ff ff 	mov    %rax,-0x5d0(%rbp)
    db9a:	48 8d 05 47 9a 01 00 	lea    0x19a47(%rip),%rax        # 275e8 <g_371+0x28>
    dba1:	48 89 85 38 fa ff ff 	mov    %rax,-0x5c8(%rbp)
    dba8:	48 8d 05 c1 b4 01 00 	lea    0x1b4c1(%rip),%rax        # 29070 <g_1271>
    dbaf:	48 89 85 f0 f7 ff ff 	mov    %rax,-0x810(%rbp)
    dbb6:	48 8d 85 f0 f7 ff ff 	lea    -0x810(%rbp),%rax
    dbbd:	48 89 85 48 f8 ff ff 	mov    %rax,-0x7b8(%rbp)
    dbc4:	c6 85 71 f7 ff ff 32 	movb   $0x32,-0x88f(%rbp)
    dbcb:	c7 85 90 f7 ff ff 00 	movl   $0x0,-0x870(%rbp)
    dbd2:	00 00 00 
    dbd5:	eb 1e                	jmp    dbf5 <func_1+0x1440>
    dbd7:	8b 85 90 f7 ff ff    	mov    -0x870(%rbp),%eax
    dbdd:	48 98                	cltq   
    dbdf:	48 8d 15 a2 b3 01 00 	lea    0x1b3a2(%rip),%rdx        # 28f88 <g_233>
    dbe6:	48 89 94 c5 88 f8 ff 	mov    %rdx,-0x778(%rbp,%rax,8)
    dbed:	ff 
    dbee:	83 85 90 f7 ff ff 01 	addl   $0x1,-0x870(%rbp)
    dbf5:	83 bd 90 f7 ff ff 00 	cmpl   $0x0,-0x870(%rbp)
    dbfc:	7e d9                	jle    dbd7 <func_1+0x1422>
    dbfe:	c7 85 90 f7 ff ff 00 	movl   $0x0,-0x870(%rbp)
    dc05:	00 00 00 
    dc08:	eb 1e                	jmp    dc28 <func_1+0x1473>
    dc0a:	8b 85 90 f7 ff ff    	mov    -0x870(%rbp),%eax
    dc10:	48 98                	cltq   
    dc12:	48 8d 15 df 68 01 00 	lea    0x168df(%rip),%rdx        # 244f8 <g_1387+0x8>
    dc19:	48 89 94 c5 b0 f8 ff 	mov    %rdx,-0x750(%rbp,%rax,8)
    dc20:	ff 
    dc21:	83 85 90 f7 ff ff 01 	addl   $0x1,-0x870(%rbp)
    dc28:	83 bd 90 f7 ff ff 00 	cmpl   $0x0,-0x870(%rbp)
    dc2f:	7e d9                	jle    dc0a <func_1+0x1455>
    dc31:	8b 85 04 f9 ff ff    	mov    -0x6fc(%rbp),%eax
    dc37:	48 63 d8             	movslq %eax,%rbx
    dc3a:	48 8b 05 27 96 01 00 	mov    0x19627(%rip),%rax        # 27268 <g_89>
    dc41:	0f b6 00             	movzbl (%rax),%eax
    dc44:	44 0f b6 e0          	movzbl %al,%r12d
    dc48:	44 8b 35 a1 65 01 00 	mov    0x165a1(%rip),%r14d        # 241f0 <g_139+0x50>
    dc4f:	0f b6 85 71 f7 ff ff 	movzbl -0x88f(%rbp),%eax
    dc56:	44 0f be e8          	movsbl %al,%r13d
    dc5a:	0f b6 85 82 f8 ff ff 	movzbl -0x77e(%rbp),%eax
    dc61:	0f be d0             	movsbl %al,%edx
    dc64:	8b 85 04 f9 ff ff    	mov    -0x6fc(%rbp),%eax
    dc6a:	85 c0                	test   %eax,%eax
    dc6c:	74 2c                	je     dc9a <func_1+0x14e5>
    dc6e:	48 8b 05 8b b4 01 00 	mov    0x1b48b(%rip),%rax        # 29100 <g_2381>
    dc75:	48 8b 85 48 f8 ff ff 	mov    -0x7b8(%rbp),%rax
    dc7c:	48 89 85 08 f8 ff ff 	mov    %rax,-0x7f8(%rbp)
    dc83:	48 8d 85 f0 f7 ff ff 	lea    -0x810(%rbp),%rax
    dc8a:	48 39 85 08 f8 ff ff 	cmp    %rax,-0x7f8(%rbp)
    dc91:	75 07                	jne    dc9a <func_1+0x14e5>
    dc93:	b8 01 00 00 00       	mov    $0x1,%eax
    dc98:	eb 05                	jmp    dc9f <func_1+0x14ea>
    dc9a:	b8 00 00 00 00       	mov    $0x0,%eax
    dc9f:	98                   	cwtl   
    dca0:	89 d6                	mov    %edx,%esi
    dca2:	89 c7                	mov    %eax,%edi
    dca4:	e8 2a d7 ff ff       	callq  b3d3 <safe_sub_func_int16_t_s_s>
    dca9:	0f be c0             	movsbl %al,%eax
    dcac:	44 89 ee             	mov    %r13d,%esi
    dcaf:	89 c7                	mov    %eax,%edi
    dcb1:	e8 7b d5 ff ff       	callq  b231 <safe_mod_func_int8_t_s_s>
    dcb6:	0f be c0             	movsbl %al,%eax
    dcb9:	be 06 00 00 00       	mov    $0x6,%esi
    dcbe:	89 c7                	mov    %eax,%edi
    dcc0:	e8 2d d5 ff ff       	callq  b1f2 <safe_sub_func_int8_t_s_s>
    dcc5:	0f be c0             	movsbl %al,%eax
    dcc8:	44 31 f0             	xor    %r14d,%eax
    dccb:	33 85 b8 f7 ff ff    	xor    -0x848(%rbp),%eax
    dcd1:	89 c2                	mov    %eax,%edx
    dcd3:	8b 85 08 f9 ff ff    	mov    -0x6f8(%rbp),%eax
    dcd9:	98                   	cwtl   
    dcda:	89 d6                	mov    %edx,%esi
    dcdc:	89 c7                	mov    %eax,%edi
    dcde:	e8 80 d8 ff ff       	callq  b563 <safe_rshift_func_int16_t_s_u>
    dce3:	66 85 c0             	test   %ax,%ax
    dce6:	48 8b 85 88 f9 ff ff 	mov    -0x678(%rbp),%rax
    dced:	48 85 c0             	test   %rax,%rax
    dcf0:	0f 95 c0             	setne  %al
    dcf3:	0f b6 d0             	movzbl %al,%edx
    dcf6:	8b 85 00 f9 ff ff    	mov    -0x700(%rbp),%eax
    dcfc:	39 c2                	cmp    %eax,%edx
    dcfe:	0f 9d c0             	setge  %al
    dd01:	0f b6 c0             	movzbl %al,%eax
    dd04:	44 89 e6             	mov    %r12d,%esi
    dd07:	89 c7                	mov    %eax,%edi
    dd09:	e8 cd de ff ff       	callq  bbdb <safe_div_func_uint8_t_u_u>
    dd0e:	48 89 de             	mov    %rbx,%rsi
    dd11:	bf 00 00 00 00       	mov    $0x0,%edi
    dd16:	e8 dc dc ff ff       	callq  b9f7 <safe_div_func_int64_t_s_s>
    dd1b:	8b 95 0c f9 ff ff    	mov    -0x6f4(%rbp),%edx
    dd21:	48 63 d2             	movslq %edx,%rdx
    dd24:	48 39 d0             	cmp    %rdx,%rax
    dd27:	0f 9c c0             	setl   %al
    dd2a:	0f b6 d0             	movzbl %al,%edx
    dd2d:	48 8b 05 ac 66 01 00 	mov    0x166ac(%rip),%rax        # 243e0 <g_143>
    dd34:	48 8d 48 01          	lea    0x1(%rax),%rcx
    dd38:	48 89 0d a1 66 01 00 	mov    %rcx,0x166a1(%rip)        # 243e0 <g_143>
    dd3f:	48 89 d6             	mov    %rdx,%rsi
    dd42:	48 89 c7             	mov    %rax,%rdi
    dd45:	e8 e4 e2 ff ff       	callq  c02e <safe_add_func_uint64_t_u_u>
    dd4a:	89 c2                	mov    %eax,%edx
    dd4c:	8b 85 a8 f7 ff ff    	mov    -0x858(%rbp),%eax
    dd52:	09 d0                	or     %edx,%eax
    dd54:	89 85 a8 f7 ff ff    	mov    %eax,-0x858(%rbp)
    dd5a:	8b 85 a8 f7 ff ff    	mov    -0x858(%rbp),%eax
    dd60:	31 85 98 f7 ff ff    	xor    %eax,-0x868(%rbp)
    dd66:	48 8b 85 10 f8 ff ff 	mov    -0x7f0(%rbp),%rax
    dd6d:	48 8d 95 c8 f7 ff ff 	lea    -0x838(%rbp),%rdx
    dd74:	48 89 10             	mov    %rdx,(%rax)
    dd77:	48 8b 05 aa b3 01 00 	mov    0x1b3aa(%rip),%rax        # 29128 <g_2387+0x8>
    dd7e:	48 8b 5d c8          	mov    -0x38(%rbp),%rbx
    dd82:	64 48 33 1c 25 28 00 	xor    %fs:0x28,%rbx
    dd89:	00 00 
    dd8b:	74 05                	je     dd92 <func_1+0x15dd>
    dd8d:	e8 de d2 ff ff       	callq  b070 <__stack_chk_fail@plt>
    dd92:	48 81 c4 68 08 00 00 	add    $0x868,%rsp
    dd99:	5b                   	pop    %rbx
    dd9a:	41 5c                	pop    %r12
    dd9c:	41 5d                	pop    %r13
    dd9e:	41 5e                	pop    %r14
    dda0:	41 5f                	pop    %r15
    dda2:	5d                   	pop    %rbp
    dda3:	c3                   	retq   

000000000000dda4 <func_36>:
    dda4:	f3 0f 1e fa          	endbr64 
    dda8:	55                   	push   %rbp
    dda9:	48 89 e5             	mov    %rsp,%rbp
    ddac:	41 57                	push   %r15
    ddae:	41 56                	push   %r14
    ddb0:	41 55                	push   %r13
    ddb2:	41 54                	push   %r12
    ddb4:	53                   	push   %rbx
    ddb5:	48 81 ec 00 10 00 00 	sub    $0x1000,%rsp
    ddbc:	48 83 0c 24 00       	orq    $0x0,(%rsp)
    ddc1:	48 81 ec 28 08 00 00 	sub    $0x828,%rsp
    ddc8:	48 89 bd c8 e7 ff ff 	mov    %rdi,-0x1838(%rbp)
    ddcf:	89 b5 c4 e7 ff ff    	mov    %esi,-0x183c(%rbp)
    ddd5:	64 48 8b 04 25 28 00 	mov    %fs:0x28,%rax
    dddc:	00 00 
    ddde:	48 89 45 c8          	mov    %rax,-0x38(%rbp)
    dde2:	31 c0                	xor    %eax,%eax
    dde4:	c7 85 e8 e7 ff ff 00 	movl   $0x0,-0x1818(%rbp)
    ddeb:	00 00 00 
    ddee:	c7 85 14 e8 ff ff 2c 	movl   $0x9ae94a2c,-0x17ec(%rbp)
    ddf5:	4a e9 9a 
    ddf8:	c7 85 ec e7 ff ff 00 	movl   $0x0,-0x1814(%rbp)
    ddff:	00 00 00 
    de02:	c7 85 f0 e7 ff ff 00 	movl   $0x0,-0x1810(%rbp)
    de09:	00 00 00 
    de0c:	48 8d 05 d9 66 01 00 	lea    0x166d9(%rip),%rax        # 244ec <g_1264>
    de13:	48 89 85 f8 e9 ff ff 	mov    %rax,-0x1608(%rbp)
    de1a:	48 c7 85 30 e9 ff ff 	movq   $0x0,-0x16d0(%rbp)
    de21:	00 00 00 00 
    de25:	48 8d 85 30 e9 ff ff 	lea    -0x16d0(%rbp),%rax
    de2c:	48 89 85 00 ea ff ff 	mov    %rax,-0x1600(%rbp)
    de33:	48 c7 85 38 e9 ff ff 	movq   $0x0,-0x16c8(%rbp)
    de3a:	00 00 00 00 
    de3e:	48 8d 85 38 e9 ff ff 	lea    -0x16c8(%rbp),%rax
    de45:	48 89 85 08 ea ff ff 	mov    %rax,-0x15f8(%rbp)
    de4c:	48 8d 05 15 94 01 00 	lea    0x19415(%rip),%rax        # 27268 <g_89>
    de53:	48 89 85 40 e9 ff ff 	mov    %rax,-0x16c0(%rbp)
    de5a:	48 8d 85 40 e9 ff ff 	lea    -0x16c0(%rbp),%rax
    de61:	48 89 85 48 e9 ff ff 	mov    %rax,-0x16b8(%rbp)
    de68:	48 8d 85 48 e9 ff ff 	lea    -0x16b8(%rbp),%rax
    de6f:	48 89 85 50 e9 ff ff 	mov    %rax,-0x16b0(%rbp)
    de76:	48 8d 85 50 e9 ff ff 	lea    -0x16b0(%rbp),%rax
    de7d:	48 89 85 10 ea ff ff 	mov    %rax,-0x15f0(%rbp)
    de84:	c7 85 f4 e7 ff ff 01 	movl   $0x1,-0x180c(%rbp)
    de8b:	00 00 00 
    de8e:	c7 85 40 e8 ff ff 01 	movl   $0x1,-0x17c0(%rbp)
    de95:	00 00 00 
    de98:	c7 85 f8 e7 ff ff 5f 	movl   $0x6a80b5f,-0x1808(%rbp)
    de9f:	0b a8 06 
    dea2:	c6 85 dd e7 ff ff 00 	movb   $0x0,-0x1823(%rbp)
    dea9:	48 b8 dd a5 f6 5b 9e 	movabs $0x385a2b9e5bf6a5dd,%rax
    deb0:	2b 5a 38 
    deb3:	48 89 85 d8 e9 ff ff 	mov    %rax,-0x1628(%rbp)
    deba:	48 8d 05 7f 94 01 00 	lea    0x1947f(%rip),%rax        # 27340 <g_297+0xa0>
    dec1:	48 89 85 58 e9 ff ff 	mov    %rax,-0x16a8(%rbp)
    dec8:	48 8d 85 58 e9 ff ff 	lea    -0x16a8(%rbp),%rax
    decf:	48 89 85 60 e9 ff ff 	mov    %rax,-0x16a0(%rbp)
    ded6:	48 8d 85 60 e9 ff ff 	lea    -0x16a0(%rbp),%rax
    dedd:	48 89 85 68 e9 ff ff 	mov    %rax,-0x1698(%rbp)
    dee4:	48 8d 05 15 b1 01 00 	lea    0x1b115(%rip),%rax        # 29000 <g_564>
    deeb:	48 89 85 a0 ec ff ff 	mov    %rax,-0x1360(%rbp)
    def2:	48 c7 85 a8 ec ff ff 	movq   $0x0,-0x1358(%rbp)
    def9:	00 00 00 00 
    defd:	48 8d 05 fc b0 01 00 	lea    0x1b0fc(%rip),%rax        # 29000 <g_564>
    df04:	48 89 85 b0 ec ff ff 	mov    %rax,-0x1350(%rbp)
    df0b:	48 c7 85 b8 ec ff ff 	movq   $0x0,-0x1348(%rbp)
    df12:	00 00 00 00 
    df16:	48 8d 05 e3 b0 01 00 	lea    0x1b0e3(%rip),%rax        # 29000 <g_564>
    df1d:	48 89 85 c0 ec ff ff 	mov    %rax,-0x1340(%rbp)
    df24:	48 c7 85 c8 ec ff ff 	movq   $0x0,-0x1338(%rbp)
    df2b:	00 00 00 00 
    df2f:	48 8d 05 ca b0 01 00 	lea    0x1b0ca(%rip),%rax        # 29000 <g_564>
    df36:	48 89 85 d0 ec ff ff 	mov    %rax,-0x1330(%rbp)
    df3d:	48 c7 85 d8 ec ff ff 	movq   $0x0,-0x1328(%rbp)
    df44:	00 00 00 00 
    df48:	c7 85 fc e7 ff ff 08 	movl   $0x8,-0x1804(%rbp)
    df4f:	00 00 00 
    df52:	c7 85 44 e8 ff ff 32 	movl   $0xa50de532,-0x17bc(%rbp)
    df59:	e5 0d a5 
    df5c:	48 b8 10 4d 3d 29 24 	movabs $0x74958024293d4d10,%rax
    df63:	80 95 74 
    df66:	48 89 85 18 ea ff ff 	mov    %rax,-0x15e8(%rbp)
    df6d:	c7 85 48 e8 ff ff fc 	movl   $0xfffffffc,-0x17b8(%rbp)
    df74:	ff ff ff 
    df77:	c7 85 4c e8 ff ff 64 	movl   $0xc1b9a364,-0x17b4(%rbp)
    df7e:	a3 b9 c1 
    df81:	c7 85 50 e8 ff ff b0 	movl   $0x6d320b0,-0x17b0(%rbp)
    df88:	20 d3 06 
    df8b:	c7 85 54 e8 ff ff da 	movl   $0x9be12cda,-0x17ac(%rbp)
    df92:	2c e1 9b 
    df95:	c7 85 58 e8 ff ff 17 	movl   $0xc850a317,-0x17a8(%rbp)
    df9c:	a3 50 c8 
    df9f:	c7 85 5c e8 ff ff 03 	movl   $0x3,-0x17a4(%rbp)
    dfa6:	00 00 00 
    dfa9:	c7 85 60 e8 ff ff a0 	movl   $0xcdd6e3a0,-0x17a0(%rbp)
    dfb0:	e3 d6 cd 
    dfb3:	c7 85 64 e8 ff ff 06 	movl   $0xec6aa606,-0x179c(%rbp)
    dfba:	a6 6a ec 
    dfbd:	c7 85 68 e8 ff ff fd 	movl   $0xfffffffd,-0x1798(%rbp)
    dfc4:	ff ff ff 
    dfc7:	c7 85 6c e8 ff ff f9 	movl   $0xfa1320f9,-0x1794(%rbp)
    dfce:	20 13 fa 
    dfd1:	c7 85 70 e8 ff ff 28 	movl   $0x7cdd0628,-0x1790(%rbp)
    dfd8:	06 dd 7c 
    dfdb:	48 c7 85 30 ed ff ff 	movq   $0x0,-0x12d0(%rbp)
    dfe2:	00 00 00 00 
    dfe6:	48 c7 85 38 ed ff ff 	movq   $0x0,-0x12c8(%rbp)
    dfed:	00 00 00 00 
    dff1:	48 c7 85 40 ed ff ff 	movq   $0x0,-0x12c0(%rbp)
    dff8:	00 00 00 00 
    dffc:	48 c7 85 48 ed ff ff 	movq   $0x0,-0x12b8(%rbp)
    e003:	00 00 00 00 
    e007:	48 c7 85 50 ed ff ff 	movq   $0x0,-0x12b0(%rbp)
    e00e:	00 00 00 00 
    e012:	48 c7 85 58 ed ff ff 	movq   $0x0,-0x12a8(%rbp)
    e019:	00 00 00 00 
    e01d:	48 c7 85 60 ed ff ff 	movq   $0x0,-0x12a0(%rbp)
    e024:	00 00 00 00 
    e028:	48 c7 85 68 ed ff ff 	movq   $0x0,-0x1298(%rbp)
    e02f:	00 00 00 00 
    e033:	48 c7 85 70 ed ff ff 	movq   $0x0,-0x1290(%rbp)
    e03a:	00 00 00 00 
    e03e:	48 c7 85 78 ed ff ff 	movq   $0x0,-0x1288(%rbp)
    e045:	00 00 00 00 
    e049:	c7 85 30 ed ff ff 95 	movl   $0xcd953295,-0x12d0(%rbp)
    e050:	32 95 cd 
    e053:	c7 85 38 ed ff ff 95 	movl   $0xcd953295,-0x12c8(%rbp)
    e05a:	32 95 cd 
    e05d:	c7 85 40 ed ff ff 95 	movl   $0xcd953295,-0x12c0(%rbp)
    e064:	32 95 cd 
    e067:	c7 85 48 ed ff ff 95 	movl   $0xcd953295,-0x12b8(%rbp)
    e06e:	32 95 cd 
    e071:	c7 85 50 ed ff ff 95 	movl   $0xcd953295,-0x12b0(%rbp)
    e078:	32 95 cd 
    e07b:	c7 85 58 ed ff ff 95 	movl   $0xcd953295,-0x12a8(%rbp)
    e082:	32 95 cd 
    e085:	c7 85 60 ed ff ff 95 	movl   $0xcd953295,-0x12a0(%rbp)
    e08c:	32 95 cd 
    e08f:	c7 85 68 ed ff ff 95 	movl   $0xcd953295,-0x1298(%rbp)
    e096:	32 95 cd 
    e099:	c7 85 70 ed ff ff 95 	movl   $0xcd953295,-0x1290(%rbp)
    e0a0:	32 95 cd 
    e0a3:	c7 85 78 ed ff ff 95 	movl   $0xcd953295,-0x1288(%rbp)
    e0aa:	32 95 cd 
    e0ad:	48 8d 05 50 64 01 00 	lea    0x16450(%rip),%rax        # 24504 <g_1423>
    e0b4:	48 89 85 20 ea ff ff 	mov    %rax,-0x15e0(%rbp)
    e0bb:	c7 85 40 ee ff ff e6 	movl   $0xe67b7be6,-0x11c0(%rbp)
    e0c2:	7b 7b e6 
    e0c5:	66 c7 85 44 ee ff ff 	movw   $0xb1,-0x11bc(%rbp)
    e0cc:	b1 00 
    e0ce:	c6 85 46 ee ff ff f6 	movb   $0xf6,-0x11ba(%rbp)
    e0d5:	c7 85 47 ee ff ff 00 	movl   $0x9002800,-0x11b9(%rbp)
    e0dc:	28 00 09 
    e0df:	66 c7 85 4b ee ff ff 	movw   $0x3b7b,-0x11b5(%rbp)
    e0e6:	7b 3b 
    e0e8:	c6 85 4d ee ff ff 01 	movb   $0x1,-0x11b3(%rbp)
    e0ef:	c7 85 4e ee ff ff 6c 	movl   $0x101c06c,-0x11b2(%rbp)
    e0f6:	c0 01 01 
    e0f9:	66 c7 85 52 ee ff ff 	movw   $0xffc4,-0x11ae(%rbp)
    e100:	c4 ff 
    e102:	c6 85 54 ee ff ff f6 	movb   $0xf6,-0x11ac(%rbp)
    e109:	c7 85 55 ee ff ff 00 	movl   $0x100,-0x11ab(%rbp)
    e110:	01 00 00 
    e113:	66 c7 85 59 ee ff ff 	movw   $0xb4ae,-0x11a7(%rbp)
    e11a:	ae b4 
    e11c:	c6 85 5b ee ff ff fe 	movb   $0xfe,-0x11a5(%rbp)
    e123:	c7 85 5c ee ff ff 01 	movl   $0xa104ee01,-0x11a4(%rbp)
    e12a:	ee 04 a1 
    e12d:	66 c7 85 60 ee ff ff 	movw   $0x7cd,-0x11a0(%rbp)
    e134:	cd 07 
    e136:	c6 85 62 ee ff ff 00 	movb   $0x0,-0x119e(%rbp)
    e13d:	c7 85 63 ee ff ff ff 	movl   $0xff7b01ff,-0x119d(%rbp)
    e144:	01 7b ff 
    e147:	66 c7 85 67 ee ff ff 	movw   $0x8e,-0x1199(%rbp)
    e14e:	8e 00 
    e150:	c6 85 69 ee ff ff 01 	movb   $0x1,-0x1197(%rbp)
    e157:	c7 85 6a ee ff ff 3b 	movl   $0x101f63b,-0x1196(%rbp)
    e15e:	f6 01 01 
    e161:	66 c7 85 6e ee ff ff 	movw   $0x2814,-0x1192(%rbp)
    e168:	14 28 
    e16a:	c6 85 70 ee ff ff 9b 	movb   $0x9b,-0x1190(%rbp)
    e171:	c7 85 71 ee ff ff 3b 	movl   $0x1ffc03b,-0x118f(%rbp)
    e178:	c0 ff 01 
    e17b:	66 c7 85 75 ee ff ff 	movw   $0xcb,-0x118b(%rbp)
    e182:	cb 00 
    e184:	c6 85 77 ee ff ff 7b 	movb   $0x7b,-0x1189(%rbp)
    e18b:	c7 85 78 ee ff ff ff 	movl   $0xfb0109ff,-0x1188(%rbp)
    e192:	09 01 fb 
    e195:	66 c7 85 7c ee ff ff 	movw   $0xbf01,-0x1184(%rbp)
    e19c:	01 bf 
    e19e:	c6 85 7e ee ff ff 02 	movb   $0x2,-0x1182(%rbp)
    e1a5:	c7 85 7f ee ff ff 01 	movl   $0xf9f90201,-0x1181(%rbp)
    e1ac:	02 f9 f9 
    e1af:	66 c7 85 83 ee ff ff 	movw   $0x102,-0x117d(%rbp)
    e1b6:	02 01 
    e1b8:	c6 85 85 ee ff ff e0 	movb   $0xe0,-0x117b(%rbp)
    e1bf:	c7 85 86 ee ff ff 00 	movl   $0xff140700,-0x117a(%rbp)
    e1c6:	07 14 ff 
    e1c9:	66 c7 85 8a ee ff ff 	movw   $0xf7b1,-0x1176(%rbp)
    e1d0:	b1 f7 
    e1d2:	c6 85 8c ee ff ff 01 	movb   $0x1,-0x1174(%rbp)
    e1d9:	c7 85 8d ee ff ff 6c 	movl   $0x4ae066c,-0x1173(%rbp)
    e1e0:	06 ae 04 
    e1e3:	66 c7 85 91 ee ff ff 	movw   $0xf6fb,-0x116f(%rbp)
    e1ea:	fb f6 
    e1ec:	c6 85 93 ee ff ff 00 	movb   $0x0,-0x116d(%rbp)
    e1f3:	c7 85 94 ee ff ff 00 	movl   $0x12d0700,-0x116c(%rbp)
    e1fa:	07 2d 01 
    e1fd:	66 c7 85 98 ee ff ff 	movw   $0x6c,-0x1168(%rbp)
    e204:	6c 00 
    e206:	c6 85 9a ee ff ff fb 	movb   $0xfb,-0x1166(%rbp)
    e20d:	c7 85 9b ee ff ff e6 	movl   $0x570002e6,-0x1165(%rbp)
    e214:	02 00 57 
    e217:	66 c7 85 9f ee ff ff 	movw   $0x0,-0x1161(%rbp)
    e21e:	00 00 
    e220:	c6 85 a1 ee ff ff eb 	movb   $0xeb,-0x115f(%rbp)
    e227:	c7 85 a2 ee ff ff f6 	movl   $0x90409f6,-0x115e(%rbp)
    e22e:	09 04 09 
    e231:	66 c7 85 a6 ee ff ff 	movw   $0x7b02,-0x115a(%rbp)
    e238:	02 7b 
    e23a:	c6 85 a8 ee ff ff 01 	movb   $0x1,-0x1158(%rbp)
    e241:	c7 85 a9 ee ff ff 00 	movl   $0xfbc000,-0x1157(%rbp)
    e248:	c0 fb 00 
    e24b:	66 c7 85 ad ee ff ff 	movw   $0xffee,-0x1153(%rbp)
    e252:	ee ff 
    e254:	c6 85 af ee ff ff f6 	movb   $0xf6,-0x1151(%rbp)
    e25b:	c7 85 b0 ee ff ff 00 	movl   $0x4fbf600,-0x1150(%rbp)
    e262:	f6 fb 04 
    e265:	66 c7 85 b4 ee ff ff 	movw   $0x6ae,-0x114c(%rbp)
    e26c:	ae 06 
    e26e:	c6 85 b6 ee ff ff 6c 	movb   $0x6c,-0x114a(%rbp)
    e275:	c7 85 b7 ee ff ff c4 	movl   $0x830401c4,-0x1149(%rbp)
    e27c:	01 04 83 
    e27f:	66 c7 85 bb ee ff ff 	movw   $0xffff,-0x1145(%rbp)
    e286:	ff ff 
    e288:	c6 85 bd ee ff ff c0 	movb   $0xc0,-0x1143(%rbp)
    e28f:	c7 85 be ee ff ff ff 	movl   $0x700eeff,-0x1142(%rbp)
    e296:	ee 00 07 
    e299:	66 c7 85 c2 ee ff ff 	movw   $0x7,-0x113e(%rbp)
    e2a0:	07 00 
    e2a2:	c6 85 c4 ee ff ff ee 	movb   $0xee,-0x113c(%rbp)
    e2a9:	c7 85 c5 ee ff ff 7b 	movl   $0x12d017b,-0x113b(%rbp)
    e2b0:	01 2d 01 
    e2b3:	66 c7 85 c9 ee ff ff 	movw   $0x1cd,-0x1137(%rbp)
    e2ba:	cd 01 
    e2bc:	c6 85 cb ee ff ff e0 	movb   $0xe0,-0x1135(%rbp)
    e2c3:	48 8d 05 9e 8f 01 00 	lea    0x18f9e(%rip),%rax        # 27268 <g_89>
    e2ca:	48 89 85 28 ea ff ff 	mov    %rax,-0x15d8(%rbp)
    e2d1:	8b 85 00 e8 ff ff    	mov    -0x1800(%rbp),%eax
    e2d7:	25 00 00 f0 ff       	and    $0xfff00000,%eax
    e2dc:	0d 59 8f 0c 00       	or     $0xc8f59,%eax
    e2e1:	89 85 00 e8 ff ff    	mov    %eax,-0x1800(%rbp)
    e2e7:	c6 85 e0 e7 ff ff ff 	movb   $0xff,-0x1820(%rbp)
    e2ee:	c6 05 01 61 01 00 00 	movb   $0x0,0x16101(%rip)        # 243f6 <g_315>
    e2f5:	e9 0c 01 00 00       	jmpq   e406 <func_36+0x662>
    e2fa:	48 b8 2b 5b da ab 10 	movabs $0x6217cf10abda5b2b,%rax
    e301:	cf 17 62 
    e304:	48 89 85 c0 eb ff ff 	mov    %rax,-0x1440(%rbp)
    e30b:	c7 85 0c e8 ff ff 00 	movl   $0x0,-0x17f4(%rbp)
    e312:	00 00 00 
    e315:	eb 1a                	jmp    e331 <func_36+0x58d>
    e317:	8b 85 0c e8 ff ff    	mov    -0x17f4(%rbp),%eax
    e31d:	48 98                	cltq   
    e31f:	c7 84 85 f0 f4 ff ff 	movl   $0xe7b6a4c7,-0xb10(%rbp,%rax,4)
    e326:	c7 a4 b6 e7 
    e32a:	83 85 0c e8 ff ff 01 	addl   $0x1,-0x17f4(%rbp)
    e331:	83 bd 0c e8 ff ff 01 	cmpl   $0x1,-0x17f4(%rbp)
    e338:	7e dd                	jle    e317 <func_36+0x573>
    e33a:	48 c7 05 9b 60 01 00 	movq   $0x0,0x1609b(%rip)        # 243e0 <g_143>
    e341:	00 00 00 00 
    e345:	e9 9b 00 00 00       	jmpq   e3e5 <func_36+0x641>
    e34a:	48 c7 85 c8 eb ff ff 	movq   $0x0,-0x1438(%rbp)
    e351:	00 00 00 00 
    e355:	48 c7 85 d0 eb ff ff 	movq   $0x0,-0x1430(%rbp)
    e35c:	00 00 00 00 
    e360:	48 8d 05 9d 5d 01 00 	lea    0x15d9d(%rip),%rax        # 24104 <g_3+0x4>
    e367:	48 89 85 d8 eb ff ff 	mov    %rax,-0x1428(%rbp)
    e36e:	48 8d 05 ab 61 01 00 	lea    0x161ab(%rip),%rax        # 24520 <g_1488>
    e375:	48 89 85 e0 eb ff ff 	mov    %rax,-0x1420(%rbp)
    e37c:	48 c7 85 e8 eb ff ff 	movq   $0x0,-0x1418(%rbp)
    e383:	00 00 00 00 
    e387:	48 8d 85 f0 f7 ff ff 	lea    -0x810(%rbp),%rax
    e38e:	48 8d 15 2b 65 01 00 	lea    0x1652b(%rip),%rdx        # 248c0 <g_2284+0xf>
    e395:	b9 48 00 00 00       	mov    $0x48,%ecx
    e39a:	48 89 c7             	mov    %rax,%rdi
    e39d:	48 89 d6             	mov    %rdx,%rsi
    e3a0:	f3 48 a5             	rep movsq %ds:(%rsi),%es:(%rdi)
    e3a3:	c6 85 e3 e7 ff ff 90 	movb   $0x90,-0x181d(%rbp)
    e3aa:	48 8d 05 45 60 01 00 	lea    0x16045(%rip),%rax        # 243f6 <g_315>
    e3b1:	48 89 85 f0 eb ff ff 	mov    %rax,-0x1410(%rbp)
    e3b8:	80 ad e3 e7 ff ff 01 	subb   $0x1,-0x181d(%rbp)
    e3bf:	48 8b 05 d2 92 01 00 	mov    0x192d2(%rip),%rax        # 27698 <g_914>
    e3c6:	48 8b 00             	mov    (%rax),%rax
    e3c9:	48 8b 95 f0 eb ff ff 	mov    -0x1410(%rbp),%rdx
    e3d0:	48 89 10             	mov    %rdx,(%rax)
    e3d3:	48 8b 05 06 60 01 00 	mov    0x16006(%rip),%rax        # 243e0 <g_143>
    e3da:	48 83 c0 01          	add    $0x1,%rax
    e3de:	48 89 05 fb 5f 01 00 	mov    %rax,0x15ffb(%rip)        # 243e0 <g_143>
    e3e5:	48 8b 05 f4 5f 01 00 	mov    0x15ff4(%rip),%rax        # 243e0 <g_143>
    e3ec:	48 83 f8 01          	cmp    $0x1,%rax
    e3f0:	0f 86 54 ff ff ff    	jbe    e34a <func_36+0x5a6>
    e3f6:	0f b6 05 f9 5f 01 00 	movzbl 0x15ff9(%rip),%eax        # 243f6 <g_315>
    e3fd:	83 c0 01             	add    $0x1,%eax
    e400:	88 05 f0 5f 01 00    	mov    %al,0x15ff0(%rip)        # 243f6 <g_315>
    e406:	0f b6 05 e9 5f 01 00 	movzbl 0x15fe9(%rip),%eax        # 243f6 <g_315>
    e40d:	3c 0a                	cmp    $0xa,%al
    e40f:	0f 8f e5 fe ff ff    	jg     e2fa <func_36+0x556>
    e415:	48 8b 85 00 ea ff ff 	mov    -0x1600(%rbp),%rax
    e41c:	48 8b 95 f8 e9 ff ff 	mov    -0x1608(%rbp),%rdx
    e423:	48 89 10             	mov    %rdx,(%rax)
    e426:	8b 85 c4 e7 ff ff    	mov    -0x183c(%rbp),%eax
    e42c:	85 c0                	test   %eax,%eax
    e42e:	0f 84 f0 37 00 00    	je     11c24 <func_36+0x3e80>
    e434:	48 b8 29 44 db 46 dd 	movabs $0xcb6ae2dd46db4429,%rax
    e43b:	e2 6a cb 
    e43e:	48 89 85 60 ea ff ff 	mov    %rax,-0x15a0(%rbp)
    e445:	c6 85 de e7 ff ff df 	movb   $0xdf,-0x1822(%rbp)
    e44c:	c7 85 10 e8 ff ff c6 	movl   $0x1c5a52c6,-0x17f0(%rbp)
    e453:	52 5a 1c 
    e456:	c7 85 18 e8 ff ff 7c 	movl   $0x9c46947c,-0x17e8(%rbp)
    e45d:	94 46 9c 
    e460:	c7 85 1c e8 ff ff f8 	movl   $0xfffffff8,-0x17e4(%rbp)
    e467:	ff ff ff 
    e46a:	c7 85 7c e8 ff ff f7 	movl   $0xfffffff7,-0x1784(%rbp)
    e471:	ff ff ff 
    e474:	48 8d 85 f0 f4 ff ff 	lea    -0xb10(%rbp),%rax
    e47b:	48 8d 15 be 0f 01 00 	lea    0x10fbe(%rip),%rdx        # 1f440 <g_985+0x3dc>
    e482:	b9 60 00 00 00       	mov    $0x60,%ecx
    e487:	48 89 c7             	mov    %rax,%rdi
    e48a:	48 89 d6             	mov    %rdx,%rsi
    e48d:	f3 48 a5             	rep movsq %ds:(%rsi),%es:(%rdi)
    e490:	8b 85 f8 eb ff ff    	mov    -0x1408(%rbp),%eax
    e496:	25 00 00 f0 ff       	and    $0xfff00000,%eax
    e49b:	0d 26 39 0a 00       	or     $0xa3926,%eax
    e4a0:	89 85 f8 eb ff ff    	mov    %eax,-0x1408(%rbp)
    e4a6:	8b 85 fc eb ff ff    	mov    -0x1404(%rbp),%eax
    e4ac:	25 00 00 f0 ff       	and    $0xfff00000,%eax
    e4b1:	0d 26 39 0a 00       	or     $0xa3926,%eax
    e4b6:	89 85 fc eb ff ff    	mov    %eax,-0x1404(%rbp)
    e4bc:	48 8d 85 f0 f2 ff ff 	lea    -0xd10(%rbp),%rax
    e4c3:	48 8d 15 76 12 01 00 	lea    0x11276(%rip),%rdx        # 1f740 <g_985+0x6dc>
    e4ca:	b9 40 00 00 00       	mov    $0x40,%ecx
    e4cf:	48 89 c7             	mov    %rax,%rdi
    e4d2:	48 89 d6             	mov    %rdx,%rsi
    e4d5:	f3 48 a5             	rep movsq %ds:(%rsi),%es:(%rdi)
    e4d8:	48 8d 05 61 5c 01 00 	lea    0x15c61(%rip),%rax        # 24140 <g_74>
    e4df:	48 89 85 68 ea ff ff 	mov    %rax,-0x1598(%rbp)
    e4e6:	48 8d 05 fb 5e 01 00 	lea    0x15efb(%rip),%rax        # 243e8 <g_147>
    e4ed:	48 89 85 70 ea ff ff 	mov    %rax,-0x1590(%rbp)
    e4f4:	48 8d 05 95 8e 01 00 	lea    0x18e95(%rip),%rax        # 27390 <g_297+0xf0>
    e4fb:	48 89 85 e0 ec ff ff 	mov    %rax,-0x1320(%rbp)
    e502:	48 8d 05 87 8e 01 00 	lea    0x18e87(%rip),%rax        # 27390 <g_297+0xf0>
    e509:	48 89 85 e8 ec ff ff 	mov    %rax,-0x1318(%rbp)
    e510:	48 8d 05 79 8e 01 00 	lea    0x18e79(%rip),%rax        # 27390 <g_297+0xf0>
    e517:	48 89 85 f0 ec ff ff 	mov    %rax,-0x1310(%rbp)
    e51e:	48 8d 05 6b 8e 01 00 	lea    0x18e6b(%rip),%rax        # 27390 <g_297+0xf0>
    e525:	48 89 85 f8 ec ff ff 	mov    %rax,-0x1308(%rbp)
    e52c:	48 8d 05 5d 8e 01 00 	lea    0x18e5d(%rip),%rax        # 27390 <g_297+0xf0>
    e533:	48 89 85 00 ed ff ff 	mov    %rax,-0x1300(%rbp)
    e53a:	48 8d 05 4f 8e 01 00 	lea    0x18e4f(%rip),%rax        # 27390 <g_297+0xf0>
    e541:	48 89 85 08 ed ff ff 	mov    %rax,-0x12f8(%rbp)
    e548:	48 8d 05 41 8e 01 00 	lea    0x18e41(%rip),%rax        # 27390 <g_297+0xf0>
    e54f:	48 89 85 10 ed ff ff 	mov    %rax,-0x12f0(%rbp)
    e556:	48 8d 05 33 8e 01 00 	lea    0x18e33(%rip),%rax        # 27390 <g_297+0xf0>
    e55d:	48 89 85 18 ed ff ff 	mov    %rax,-0x12e8(%rbp)
    e564:	48 8d 05 25 8e 01 00 	lea    0x18e25(%rip),%rax        # 27390 <g_297+0xf0>
    e56b:	48 89 85 20 ed ff ff 	mov    %rax,-0x12e0(%rbp)
    e572:	48 8d 05 e7 60 01 00 	lea    0x160e7(%rip),%rax        # 24660 <g_2050>
    e579:	48 89 85 70 e9 ff ff 	mov    %rax,-0x1690(%rbp)
    e580:	48 8d 85 70 e9 ff ff 	lea    -0x1690(%rbp),%rax
    e587:	48 89 85 78 e9 ff ff 	mov    %rax,-0x1688(%rbp)
    e58e:	48 8d 85 78 e9 ff ff 	lea    -0x1688(%rbp),%rax
    e595:	48 89 85 80 e9 ff ff 	mov    %rax,-0x1680(%rbp)
    e59c:	48 8d 85 80 e9 ff ff 	lea    -0x1680(%rbp),%rax
    e5a3:	48 89 85 88 e9 ff ff 	mov    %rax,-0x1678(%rbp)
    e5aa:	48 8d 85 88 e9 ff ff 	lea    -0x1678(%rbp),%rax
    e5b1:	48 89 85 78 ea ff ff 	mov    %rax,-0x1588(%rbp)
    e5b8:	c7 85 80 e8 ff ff 76 	movl   $0x80db9176,-0x1780(%rbp)
    e5bf:	91 db 80 
    e5c2:	48 8d 05 a7 8d 01 00 	lea    0x18da7(%rip),%rax        # 27370 <g_297+0xd0>
    e5c9:	48 89 85 90 e9 ff ff 	mov    %rax,-0x1670(%rbp)
    e5d0:	48 8d 85 90 e9 ff ff 	lea    -0x1670(%rbp),%rax
    e5d7:	48 89 85 98 e9 ff ff 	mov    %rax,-0x1668(%rbp)
    e5de:	48 8d 85 98 e9 ff ff 	lea    -0x1668(%rbp),%rax
    e5e5:	48 89 85 60 ec ff ff 	mov    %rax,-0x13a0(%rbp)
    e5ec:	48 8d 85 98 e9 ff ff 	lea    -0x1668(%rbp),%rax
    e5f3:	48 89 85 68 ec ff ff 	mov    %rax,-0x1398(%rbp)
    e5fa:	48 8d 85 98 e9 ff ff 	lea    -0x1668(%rbp),%rax
    e601:	48 89 85 70 ec ff ff 	mov    %rax,-0x1390(%rbp)
    e608:	48 8d 85 98 e9 ff ff 	lea    -0x1668(%rbp),%rax
    e60f:	48 89 85 78 ec ff ff 	mov    %rax,-0x1388(%rbp)
    e616:	48 8d 85 98 e9 ff ff 	lea    -0x1668(%rbp),%rax
    e61d:	48 89 85 80 ec ff ff 	mov    %rax,-0x1380(%rbp)
    e624:	48 8d 85 98 e9 ff ff 	lea    -0x1668(%rbp),%rax
    e62b:	48 89 85 88 ec ff ff 	mov    %rax,-0x1378(%rbp)
    e632:	48 8d 85 98 e9 ff ff 	lea    -0x1668(%rbp),%rax
    e639:	48 89 85 90 ec ff ff 	mov    %rax,-0x1370(%rbp)
    e640:	48 8d 85 60 ec ff ff 	lea    -0x13a0(%rbp),%rax
    e647:	48 83 c0 30          	add    $0x30,%rax
    e64b:	48 89 85 80 ea ff ff 	mov    %rax,-0x1580(%rbp)
    e652:	66 c7 85 e6 e7 ff ff 	movw   $0x44e,-0x181a(%rbp)
    e659:	4e 04 
    e65b:	c7 85 84 e8 ff ff 01 	movl   $0x1,-0x177c(%rbp)
    e662:	00 00 00 
    e665:	c7 85 88 e8 ff ff ff 	movl   $0xffffffff,-0x1778(%rbp)
    e66c:	ff ff ff 
    e66f:	c6 85 e1 e7 ff ff 09 	movb   $0x9,-0x181f(%rbp)
    e676:	c7 85 8c e8 ff ff 9d 	movl   $0x84222e9d,-0x1774(%rbp)
    e67d:	2e 22 84 
    e680:	8b 85 ec e7 ff ff    	mov    -0x1814(%rbp),%eax
    e686:	48 98                	cltq   
    e688:	48 39 85 60 ea ff ff 	cmp    %rax,-0x15a0(%rbp)
    e68f:	0f 93 c0             	setae  %al
    e692:	0f b6 c0             	movzbl %al,%eax
    e695:	89 85 ec e7 ff ff    	mov    %eax,-0x1814(%rbp)
    e69b:	8b 95 ec e7 ff ff    	mov    -0x1814(%rbp),%edx
    e6a1:	8b 85 c4 e7 ff ff    	mov    -0x183c(%rbp),%eax
    e6a7:	0f b7 c0             	movzwl %ax,%eax
    e6aa:	89 d6                	mov    %edx,%esi
    e6ac:	89 c7                	mov    %eax,%edi
    e6ae:	e8 95 d7 ff ff       	callq  be48 <safe_rshift_func_uint16_t_u_s>
    e6b3:	66 85 c0             	test   %ax,%ax
    e6b6:	0f 84 da 19 00 00    	je     10096 <func_36+0x22f2>
    e6bc:	48 c7 85 a8 e9 ff ff 	movq   $0x0,-0x1658(%rbp)
    e6c3:	00 00 00 00 
    e6c7:	48 8d 85 a8 e9 ff ff 	lea    -0x1658(%rbp),%rax
    e6ce:	48 89 85 f0 ea ff ff 	mov    %rax,-0x1510(%rbp)
    e6d5:	48 c7 85 e0 e9 ff ff 	movq   $0xfffffffffffffff9,-0x1620(%rbp)
    e6dc:	f9 ff ff ff 
    e6e0:	48 c7 85 f8 ea ff ff 	movq   $0x0,-0x1508(%rbp)
    e6e7:	00 00 00 00 
    e6eb:	c7 85 94 e8 ff ff f8 	movl   $0xfffffff8,-0x176c(%rbp)
    e6f2:	ff ff ff 
    e6f5:	c7 85 98 e8 ff ff f6 	movl   $0x48f0bf6,-0x1768(%rbp)
    e6fc:	0b 8f 04 
    e6ff:	c7 85 9c e8 ff ff ff 	movl   $0xffffffff,-0x1764(%rbp)
    e706:	ff ff ff 
    e709:	c7 85 a0 e8 ff ff fa 	movl   $0xfffffffa,-0x1760(%rbp)
    e710:	ff ff ff 
    e713:	48 b8 f7 34 b6 20 47 	movabs $0xa077284720b634f7,%rax
    e71a:	28 77 a0 
    e71d:	48 89 85 00 eb ff ff 	mov    %rax,-0x1500(%rbp)
    e724:	c7 85 a4 e8 ff ff 36 	movl   $0xfa39ac36,-0x175c(%rbp)
    e72b:	ac 39 fa 
    e72e:	48 8d 05 5f 5a 01 00 	lea    0x15a5f(%rip),%rax        # 24194 <g_133>
    e735:	48 89 85 08 eb ff ff 	mov    %rax,-0x14f8(%rbp)
    e73c:	48 c7 85 b0 e9 ff ff 	movq   $0x0,-0x1650(%rbp)
    e743:	00 00 00 00 
    e747:	48 8d 85 b0 e9 ff ff 	lea    -0x1650(%rbp),%rax
    e74e:	48 89 85 b8 e9 ff ff 	mov    %rax,-0x1648(%rbp)
    e755:	48 c7 85 80 ed ff ff 	movq   $0x2,-0x1280(%rbp)
    e75c:	02 00 00 00 
    e760:	48 b8 ce 48 52 2f 70 	movabs $0x778637702f5248ce,%rax
    e767:	37 86 77 
    e76a:	48 89 85 88 ed ff ff 	mov    %rax,-0x1278(%rbp)
    e771:	48 c7 85 90 ed ff ff 	movq   $0x2,-0x1270(%rbp)
    e778:	02 00 00 00 
    e77c:	48 c7 85 98 ed ff ff 	movq   $0x2,-0x1268(%rbp)
    e783:	02 00 00 00 
    e787:	48 89 85 a0 ed ff ff 	mov    %rax,-0x1260(%rbp)
    e78e:	48 c7 85 a8 ed ff ff 	movq   $0x2,-0x1258(%rbp)
    e795:	02 00 00 00 
    e799:	48 8d 05 54 5c 01 00 	lea    0x15c54(%rip),%rax        # 243f4 <g_286>
    e7a0:	48 89 85 10 eb ff ff 	mov    %rax,-0x14f0(%rbp)
    e7a7:	48 8d 05 2a 8e 01 00 	lea    0x18e2a(%rip),%rax        # 275d8 <g_371+0x18>
    e7ae:	48 89 85 c0 e9 ff ff 	mov    %rax,-0x1640(%rbp)
    e7b5:	48 8d 85 c0 e9 ff ff 	lea    -0x1640(%rbp),%rax
    e7bc:	48 89 85 18 eb ff ff 	mov    %rax,-0x14e8(%rbp)
    e7c3:	48 8d 05 ce a7 01 00 	lea    0x1a7ce(%rip),%rax        # 28f98 <g_238>
    e7ca:	48 89 85 20 eb ff ff 	mov    %rax,-0x14e0(%rbp)
    e7d1:	c7 85 14 e8 ff ff 00 	movl   $0x0,-0x17ec(%rbp)
    e7d8:	00 00 00 
    e7db:	e9 a2 16 00 00       	jmpq   fe82 <func_36+0x20de>
    e7e0:	48 8d 85 f0 f0 ff ff 	lea    -0xf10(%rbp),%rax
    e7e7:	48 8d 15 12 63 01 00 	lea    0x16312(%rip),%rdx        # 24b00 <g_2284+0x24f>
    e7ee:	b9 31 00 00 00       	mov    $0x31,%ecx
    e7f3:	48 89 c7             	mov    %rax,%rdi
    e7f6:	48 89 d6             	mov    %rdx,%rsi
    e7f9:	f3 48 a5             	rep movsq %ds:(%rsi),%es:(%rdi)
    e7fc:	c7 85 a8 e8 ff ff fe 	movl   $0xfffffffe,-0x1758(%rbp)
    e803:	ff ff ff 
    e806:	48 c7 85 c8 e9 ff ff 	movq   $0x0,-0x1638(%rbp)
    e80d:	00 00 00 00 
    e811:	48 8d 85 c8 e9 ff ff 	lea    -0x1638(%rbp),%rax
    e818:	48 89 85 28 eb ff ff 	mov    %rax,-0x14d8(%rbp)
    e81f:	c7 85 ac e8 ff ff fc 	movl   $0xfffffffc,-0x1754(%rbp)
    e826:	ff ff ff 
    e829:	c7 85 b0 e8 ff ff 60 	movl   $0xd7724c60,-0x1750(%rbp)
    e830:	4c 72 d7 
    e833:	c7 85 b4 e8 ff ff d5 	movl   $0xa67171d5,-0x174c(%rbp)
    e83a:	71 71 a6 
    e83d:	c7 85 b8 e8 ff ff e3 	movl   $0xd8f1f7e3,-0x1748(%rbp)
    e844:	f7 f1 d8 
    e847:	48 b8 29 30 ff d6 42 	movabs $0xbc193a42d6ff3029,%rax
    e84e:	3a 19 bc 
    e851:	48 89 85 d0 ee ff ff 	mov    %rax,-0x1130(%rbp)
    e858:	66 c7 85 d8 ee ff ff 	movw   $0x9fc,-0x1128(%rbp)
    e85f:	fc 09 
    e861:	48 b8 c1 29 ff f7 01 	movabs $0xfff70101f7ff29c1,%rax
    e868:	01 f7 ff 
    e86b:	48 89 85 da ee ff ff 	mov    %rax,-0x1126(%rbp)
    e872:	66 c7 85 e2 ee ff ff 	movw   $0xc129,-0x111e(%rbp)
    e879:	29 c1 
    e87b:	48 b8 3a ff f7 fb af 	movabs $0xf70901affbf7ff3a,%rax
    e882:	01 09 f7 
    e885:	48 89 85 e4 ee ff ff 	mov    %rax,-0x111c(%rbp)
    e88c:	66 c7 85 ec ee ff ff 	movw   $0x242,-0x1114(%rbp)
    e893:	42 02 
    e895:	48 b8 d6 01 bc ff af 	movabs $0x363a01afffbc01d6,%rax
    e89c:	01 3a 36 
    e89f:	48 89 85 ee ee ff ff 	mov    %rax,-0x1112(%rbp)
    e8a6:	66 c7 85 f6 ee ff ff 	movw   $0xc1ff,-0x110a(%rbp)
    e8ad:	ff c1 
    e8af:	48 b8 af 09 7d 01 01 	movabs $0x101fa01017d09af,%rax
    e8b6:	fa 01 01 
    e8b9:	48 89 85 f8 ee ff ff 	mov    %rax,-0x1108(%rbp)
    e8c0:	66 c7 85 00 ef ff ff 	movw   $0x97d,-0x1100(%rbp)
    e8c7:	7d 09 
    e8c9:	48 b8 f7 fa f7 01 42 	movabs $0xfb01ff4201f7faf7,%rax
    e8d0:	ff 01 fb 
    e8d3:	48 89 85 02 ef ff ff 	mov    %rax,-0x10fe(%rbp)
    e8da:	66 c7 85 0a ef ff ff 	movw   $0xfc01,-0x10f6(%rbp)
    e8e1:	01 fc 
    e8e3:	48 b8 f7 bc 01 7e 3a 	movabs $0x7e01ff3a7e01bcf7,%rax
    e8ea:	ff 01 7e 
    e8ed:	48 89 85 0c ef ff ff 	mov    %rax,-0x10f4(%rbp)
    e8f4:	66 c7 85 14 ef ff ff 	movw   $0xd6fa,-0x10ec(%rbp)
    e8fb:	fa d6 
    e8fd:	48 b8 f7 7a c5 7e 02 	movabs $0x2fafa027ec57af7,%rax
    e904:	fa fa 02 
    e907:	48 89 85 16 ef ff ff 	mov    %rax,-0x10ea(%rbp)
    e90e:	66 c7 85 1e ef ff ff 	movw   $0xc57e,-0x10e2(%rbp)
    e915:	7e c5 
    e917:	48 8d 05 d2 58 01 00 	lea    0x158d2(%rip),%rax        # 241f0 <g_139+0x50>
    e91e:	48 89 85 60 ef ff ff 	mov    %rax,-0x10a0(%rbp)
    e925:	48 8d 05 c4 58 01 00 	lea    0x158c4(%rip),%rax        # 241f0 <g_139+0x50>
    e92c:	48 89 85 68 ef ff ff 	mov    %rax,-0x1098(%rbp)
    e933:	48 8d 05 b6 58 01 00 	lea    0x158b6(%rip),%rax        # 241f0 <g_139+0x50>
    e93a:	48 89 85 70 ef ff ff 	mov    %rax,-0x1090(%rbp)
    e941:	48 8d 05 a8 58 01 00 	lea    0x158a8(%rip),%rax        # 241f0 <g_139+0x50>
    e948:	48 89 85 78 ef ff ff 	mov    %rax,-0x1088(%rbp)
    e94f:	48 8d 05 9a 58 01 00 	lea    0x1589a(%rip),%rax        # 241f0 <g_139+0x50>
    e956:	48 89 85 80 ef ff ff 	mov    %rax,-0x1080(%rbp)
    e95d:	48 8d 05 8c 58 01 00 	lea    0x1588c(%rip),%rax        # 241f0 <g_139+0x50>
    e964:	48 89 85 88 ef ff ff 	mov    %rax,-0x1078(%rbp)
    e96b:	48 8d 05 7e 58 01 00 	lea    0x1587e(%rip),%rax        # 241f0 <g_139+0x50>
    e972:	48 89 85 90 ef ff ff 	mov    %rax,-0x1070(%rbp)
    e979:	48 8d 05 70 58 01 00 	lea    0x15870(%rip),%rax        # 241f0 <g_139+0x50>
    e980:	48 89 85 98 ef ff ff 	mov    %rax,-0x1068(%rbp)
    e987:	48 8d 05 62 58 01 00 	lea    0x15862(%rip),%rax        # 241f0 <g_139+0x50>
    e98e:	48 89 85 a0 ef ff ff 	mov    %rax,-0x1060(%rbp)
    e995:	48 8d 05 54 58 01 00 	lea    0x15854(%rip),%rax        # 241f0 <g_139+0x50>
    e99c:	48 89 85 a8 ef ff ff 	mov    %rax,-0x1058(%rbp)
    e9a3:	c7 85 bc e8 ff ff 04 	movl   $0x4,-0x1744(%rbp)
    e9aa:	00 00 00 
    e9ad:	48 83 ad e0 e9 ff ff 	subq   $0x1,-0x1620(%rbp)
    e9b4:	01 
    e9b5:	48 8b 85 e0 e9 ff ff 	mov    -0x1620(%rbp),%rax
    e9bc:	98                   	cwtl   
    e9bd:	c7 85 a8 e8 ff ff 4f 	movl   $0x465ae84f,-0x1758(%rbp)
    e9c4:	e8 5a 46 
    e9c7:	89 c6                	mov    %eax,%esi
    e9c9:	bf 00 00 00 00       	mov    $0x0,%edi
    e9ce:	e8 22 ca ff ff       	callq  b3f5 <safe_mul_func_int16_t_s_s>
    e9d3:	66 85 c0             	test   %ax,%ax
    e9d6:	74 73                	je     ea4b <func_36+0xca7>
    e9d8:	c7 85 20 e8 ff ff 00 	movl   $0x0,-0x17e0(%rbp)
    e9df:	00 00 00 
    e9e2:	eb 1b                	jmp    e9ff <func_36+0xc5b>
    e9e4:	8b 85 20 e8 ff ff    	mov    -0x17e0(%rbp),%eax
    e9ea:	48 98                	cltq   
    e9ec:	48 c7 84 c5 f0 f7 ff 	movq   $0x0,-0x810(%rbp,%rax,8)
    e9f3:	ff 00 00 00 00 
    e9f8:	83 85 20 e8 ff ff 01 	addl   $0x1,-0x17e0(%rbp)
    e9ff:	83 bd 20 e8 ff ff 01 	cmpl   $0x1,-0x17e0(%rbp)
    ea06:	7e dc                	jle    e9e4 <func_36+0xc40>
    ea08:	48 8b 05 31 8c 01 00 	mov    0x18c31(%rip),%rax        # 27640 <g_566>
    ea0f:	48 8b 00             	mov    (%rax),%rax
    ea12:	48 8b 00             	mov    (%rax),%rax
    ea15:	48 8b 00             	mov    (%rax),%rax
    ea18:	48 8b 05 b1 5b 01 00 	mov    0x15bb1(%rip),%rax        # 245d0 <g_1845+0x50>
    ea1f:	48 8b 85 c8 e7 ff ff 	mov    -0x1838(%rbp),%rax
    ea26:	48 35 5d 9d 00 00    	xor    $0x9d5d,%rax
    ea2c:	48 39 85 c8 e7 ff ff 	cmp    %rax,-0x1838(%rbp)
    ea33:	0f 9e c0             	setle  %al
    ea36:	0f b6 c0             	movzbl %al,%eax
    ea39:	89 85 a8 e8 ff ff    	mov    %eax,-0x1758(%rbp)
    ea3f:	83 85 14 e8 ff ff 01 	addl   $0x1,-0x17ec(%rbp)
    ea46:	e9 37 14 00 00       	jmpq   fe82 <func_36+0x20de>
    ea4b:	48 b8 5a 2d 72 2e bc 	movabs $0xf0b6e1bc2e722d5a,%rax
    ea52:	e1 b6 f0 
    ea55:	48 89 85 e8 e9 ff ff 	mov    %rax,-0x1618(%rbp)
    ea5c:	c7 85 c0 e8 ff ff 00 	movl   $0x0,-0x1740(%rbp)
    ea63:	00 00 00 
    ea66:	c7 85 a0 e9 ff ff da 	movl   $0x2de34dda,-0x1660(%rbp)
    ea6d:	4d e3 2d 
    ea70:	c6 85 08 e8 ff ff 01 	movb   $0x1,-0x17f8(%rbp)
    ea77:	c7 85 24 e8 ff ff 00 	movl   $0x0,-0x17dc(%rbp)
    ea7e:	00 00 00 
    ea81:	eb 1a                	jmp    ea9d <func_36+0xcf9>
    ea83:	8b 85 24 e8 ff ff    	mov    -0x17dc(%rbp),%eax
    ea89:	48 98                	cltq   
    ea8b:	c7 84 85 00 ec ff ff 	movl   $0x9,-0x1400(%rbp,%rax,4)
    ea92:	09 00 00 00 
    ea96:	83 85 24 e8 ff ff 01 	addl   $0x1,-0x17dc(%rbp)
    ea9d:	83 bd 24 e8 ff ff 06 	cmpl   $0x6,-0x17dc(%rbp)
    eaa4:	7e dd                	jle    ea83 <func_36+0xcdf>
    eaa6:	48 c7 85 e0 e9 ff ff 	movq   $0x0,-0x1620(%rbp)
    eaad:	00 00 00 00 
    eab1:	48 83 bd e0 e9 ff ff 	cmpq   $0x1,-0x1620(%rbp)
    eab8:	01 
    eab9:	77 17                	ja     ead2 <func_36+0xd2e>
    eabb:	8b 85 c4 e7 ff ff    	mov    -0x183c(%rbp),%eax
    eac1:	85 c0                	test   %eax,%eax
    eac3:	75 0c                	jne    ead1 <func_36+0xd2d>
    eac5:	0f b6 85 de e7 ff ff 	movzbl -0x1822(%rbp),%eax
    eacc:	e9 fa 35 00 00       	jmpq   120cb <func_36+0x4327>
    ead1:	90                   	nop
    ead2:	c7 05 0c 59 01 00 00 	movl   $0x0,0x1590c(%rip)        # 243e8 <g_147>
    ead9:	00 00 00 
    eadc:	e9 89 00 00 00       	jmpq   eb6a <func_36+0xdc6>
    eae1:	48 8d 05 1c 56 01 00 	lea    0x1561c(%rip),%rax        # 24104 <g_3+0x4>
    eae8:	48 89 85 40 eb ff ff 	mov    %rax,-0x14c0(%rbp)
    eaef:	48 8d 05 fa 56 01 00 	lea    0x156fa(%rip),%rax        # 241f0 <g_139+0x50>
    eaf6:	48 89 85 48 eb ff ff 	mov    %rax,-0x14b8(%rbp)
    eafd:	48 8d 85 f0 e7 ff ff 	lea    -0x1810(%rbp),%rax
    eb04:	48 89 85 50 eb ff ff 	mov    %rax,-0x14b0(%rbp)
    eb0b:	48 8d 85 f0 f7 ff ff 	lea    -0x810(%rbp),%rax
    eb12:	48 8d 15 87 61 01 00 	lea    0x16187(%rip),%rdx        # 24ca0 <g_2284+0x3ef>
    eb19:	b9 48 00 00 00       	mov    $0x48,%ecx
    eb1e:	48 89 c7             	mov    %rax,%rdi
    eb21:	48 89 d6             	mov    %rdx,%rsi
    eb24:	f3 48 a5             	rep movsq %ds:(%rsi),%es:(%rdi)
    eb27:	48 83 85 e8 e9 ff ff 	addq   $0x1,-0x1618(%rbp)
    eb2e:	01 
    eb2f:	48 83 bd c8 e7 ff ff 	cmpq   $0x0,-0x1838(%rbp)
    eb36:	00 
    eb37:	75 12                	jne    eb4b <func_36+0xda7>
    eb39:	0f b6 85 d1 ee ff ff 	movzbl -0x112f(%rbp),%eax
    eb40:	83 e8 01             	sub    $0x1,%eax
    eb43:	88 85 d1 ee ff ff    	mov    %al,-0x112f(%rbp)
    eb49:	eb 01                	jmp    eb4c <func_36+0xda8>
    eb4b:	90                   	nop
    eb4c:	8b 05 96 58 01 00    	mov    0x15896(%rip),%eax        # 243e8 <g_147>
    eb52:	0f b7 c0             	movzwl %ax,%eax
    eb55:	be 08 00 00 00       	mov    $0x8,%esi
    eb5a:	89 c7                	mov    %eax,%edi
    eb5c:	e8 9e d1 ff ff       	callq  bcff <safe_add_func_uint16_t_u_u>
    eb61:	0f b7 c0             	movzwl %ax,%eax
    eb64:	89 05 7e 58 01 00    	mov    %eax,0x1587e(%rip)        # 243e8 <g_147>
    eb6a:	8b 05 78 58 01 00    	mov    0x15878(%rip),%eax        # 243e8 <g_147>
    eb70:	83 f8 36             	cmp    $0x36,%eax
    eb73:	0f 87 68 ff ff ff    	ja     eae1 <func_36+0xd3d>
    eb79:	48 c7 85 e8 e9 ff ff 	movq   $0xffffffffffffffec,-0x1618(%rbp)
    eb80:	ec ff ff ff 
    eb84:	e9 a7 02 00 00       	jmpq   ee30 <func_36+0x108c>
    eb89:	48 c7 85 30 eb ff ff 	movq   $0x0,-0x14d0(%rbp)
    eb90:	00 00 00 00 
    eb94:	48 8d 05 f9 55 01 00 	lea    0x155f9(%rip),%rax        # 24194 <g_133>
    eb9b:	48 89 85 d0 e9 ff ff 	mov    %rax,-0x1630(%rbp)
    eba2:	48 8d 85 d0 e9 ff ff 	lea    -0x1630(%rbp),%rax
    eba9:	48 89 85 f0 f7 ff ff 	mov    %rax,-0x810(%rbp)
    ebb0:	48 8d 85 d0 e9 ff ff 	lea    -0x1630(%rbp),%rax
    ebb7:	48 89 85 f8 f7 ff ff 	mov    %rax,-0x808(%rbp)
    ebbe:	48 8d 85 d0 e9 ff ff 	lea    -0x1630(%rbp),%rax
    ebc5:	48 89 85 00 f8 ff ff 	mov    %rax,-0x800(%rbp)
    ebcc:	48 8d 85 d0 e9 ff ff 	lea    -0x1630(%rbp),%rax
    ebd3:	48 89 85 08 f8 ff ff 	mov    %rax,-0x7f8(%rbp)
    ebda:	48 8d 85 d0 e9 ff ff 	lea    -0x1630(%rbp),%rax
    ebe1:	48 89 85 10 f8 ff ff 	mov    %rax,-0x7f0(%rbp)
    ebe8:	48 8d 85 d0 e9 ff ff 	lea    -0x1630(%rbp),%rax
    ebef:	48 89 85 18 f8 ff ff 	mov    %rax,-0x7e8(%rbp)
    ebf6:	48 8d 85 d0 e9 ff ff 	lea    -0x1630(%rbp),%rax
    ebfd:	48 89 85 20 f8 ff ff 	mov    %rax,-0x7e0(%rbp)
    ec04:	48 8d 85 d0 e9 ff ff 	lea    -0x1630(%rbp),%rax
    ec0b:	48 89 85 28 f8 ff ff 	mov    %rax,-0x7d8(%rbp)
    ec12:	48 8d 85 d0 e9 ff ff 	lea    -0x1630(%rbp),%rax
    ec19:	48 89 85 30 f8 ff ff 	mov    %rax,-0x7d0(%rbp)
    ec20:	48 8d 85 d0 e9 ff ff 	lea    -0x1630(%rbp),%rax
    ec27:	48 89 85 38 f8 ff ff 	mov    %rax,-0x7c8(%rbp)
    ec2e:	c7 85 30 ec ff ff ff 	movl   $0xffffffff,-0x13d0(%rbp)
    ec35:	ff ff ff 
    ec38:	c7 85 34 ec ff ff 44 	movl   $0x78075444,-0x13cc(%rbp)
    ec3f:	54 07 78 
    ec42:	c7 85 38 ec ff ff 44 	movl   $0x78075444,-0x13c8(%rbp)
    ec49:	54 07 78 
    ec4c:	c7 85 3c ec ff ff ff 	movl   $0xffffffff,-0x13c4(%rbp)
    ec53:	ff ff ff 
    ec56:	c7 85 40 ec ff ff 44 	movl   $0x78075444,-0x13c0(%rbp)
    ec5d:	54 07 78 
    ec60:	c7 85 44 ec ff ff 44 	movl   $0x78075444,-0x13bc(%rbp)
    ec67:	54 07 78 
    ec6a:	c7 85 48 ec ff ff ff 	movl   $0xffffffff,-0x13b8(%rbp)
    ec71:	ff ff ff 
    ec74:	c7 85 4c ec ff ff 44 	movl   $0x78075444,-0x13b4(%rbp)
    ec7b:	54 07 78 
    ec7e:	c7 85 50 ec ff ff 44 	movl   $0x78075444,-0x13b0(%rbp)
    ec85:	54 07 78 
    ec88:	48 8d 85 b8 e9 ff ff 	lea    -0x1648(%rbp),%rax
    ec8f:	48 89 85 d0 ed ff ff 	mov    %rax,-0x1230(%rbp)
    ec96:	48 8d 85 b8 e9 ff ff 	lea    -0x1648(%rbp),%rax
    ec9d:	48 89 85 d8 ed ff ff 	mov    %rax,-0x1228(%rbp)
    eca4:	48 8d 85 b8 e9 ff ff 	lea    -0x1648(%rbp),%rax
    ecab:	48 89 85 e0 ed ff ff 	mov    %rax,-0x1220(%rbp)
    ecb2:	48 8d 85 b8 e9 ff ff 	lea    -0x1648(%rbp),%rax
    ecb9:	48 89 85 e8 ed ff ff 	mov    %rax,-0x1218(%rbp)
    ecc0:	48 8d 85 b8 e9 ff ff 	lea    -0x1648(%rbp),%rax
    ecc7:	48 89 85 f0 ed ff ff 	mov    %rax,-0x1210(%rbp)
    ecce:	48 8d 85 b8 e9 ff ff 	lea    -0x1648(%rbp),%rax
    ecd5:	48 89 85 f8 ed ff ff 	mov    %rax,-0x1208(%rbp)
    ecdc:	48 8d 85 d0 ee ff ff 	lea    -0x1130(%rbp),%rax
    ece3:	48 83 c0 17          	add    $0x17,%rax
    ece7:	48 89 85 38 eb ff ff 	mov    %rax,-0x14c8(%rbp)
    ecee:	8b 85 c4 e7 ff ff    	mov    -0x183c(%rbp),%eax
    ecf4:	0f b6 d8             	movzbl %al,%ebx
    ecf7:	48 8b 05 6a 85 01 00 	mov    0x1856a(%rip),%rax        # 27268 <g_89>
    ecfe:	0f b6 00             	movzbl (%rax),%eax
    ed01:	44 0f be e0          	movsbl %al,%r12d
    ed05:	8b 85 00 ec ff ff    	mov    -0x1400(%rbp),%eax
    ed0b:	39 85 10 e8 ff ff    	cmp    %eax,-0x17f0(%rbp)
    ed11:	0f 9d c0             	setge  %al
    ed14:	0f b6 d0             	movzbl %al,%edx
    ed17:	8b 85 c4 e7 ff ff    	mov    -0x183c(%rbp),%eax
    ed1d:	0f b6 c0             	movzbl %al,%eax
    ed20:	89 d6                	mov    %edx,%esi
    ed22:	89 c7                	mov    %eax,%edi
    ed24:	e8 6a ce ff ff       	callq  bb93 <safe_mul_func_uint8_t_u_u>
    ed29:	41 89 c5             	mov    %eax,%r13d
    ed2c:	48 8b 05 05 89 01 00 	mov    0x18905(%rip),%rax        # 27638 <g_567>
    ed33:	48 8b 00             	mov    (%rax),%rax
    ed36:	48 8b 00             	mov    (%rax),%rax
    ed39:	48 83 f8 05          	cmp    $0x5,%rax
    ed3d:	48 8d 05 50 54 01 00 	lea    0x15450(%rip),%rax        # 24194 <g_133>
    ed44:	48 89 85 08 eb ff ff 	mov    %rax,-0x14f8(%rbp)
    ed4b:	48 8b 85 b8 e9 ff ff 	mov    -0x1648(%rbp),%rax
    ed52:	48 89 85 b8 e9 ff ff 	mov    %rax,-0x1648(%rbp)
    ed59:	48 8b 85 b8 e9 ff ff 	mov    -0x1648(%rbp),%rax
    ed60:	48 8d 15 11 89 01 00 	lea    0x18911(%rip),%rdx        # 27678 <g_843+0x18>
    ed67:	48 39 d0             	cmp    %rdx,%rax
    ed6a:	48 be fa 7f db 04 b1 	movabs $0x5d05aeb104db7ffa,%rsi
    ed71:	ae 05 5d 
    ed74:	bf 01 00 00 00       	mov    $0x1,%edi
    ed79:	e8 2a cb ff ff       	callq  b8a8 <safe_sub_func_int64_t_s_s>
    ed7e:	89 c2                	mov    %eax,%edx
    ed80:	48 8b 85 38 eb ff ff 	mov    -0x14c8(%rbp),%rax
    ed87:	88 10                	mov    %dl,(%rax)
    ed89:	48 8b 85 38 eb ff ff 	mov    -0x14c8(%rbp),%rax
    ed90:	0f b6 00             	movzbl (%rax),%eax
    ed93:	84 c0                	test   %al,%al
    ed95:	74 11                	je     eda8 <func_36+0x1004>
    ed97:	48 83 bd c8 e7 ff ff 	cmpq   $0x0,-0x1838(%rbp)
    ed9e:	00 
    ed9f:	74 07                	je     eda8 <func_36+0x1004>
    eda1:	b8 01 00 00 00       	mov    $0x1,%eax
    eda6:	eb 05                	jmp    edad <func_36+0x1009>
    eda8:	b8 00 00 00 00       	mov    $0x0,%eax
    edad:	44 21 e8             	and    %r13d,%eax
    edb0:	0f be c0             	movsbl %al,%eax
    edb3:	44 89 e6             	mov    %r12d,%esi
    edb6:	89 c7                	mov    %eax,%edi
    edb8:	e8 35 c4 ff ff       	callq  b1f2 <safe_sub_func_int8_t_s_s>
    edbd:	8b 85 f4 e7 ff ff    	mov    -0x180c(%rbp),%eax
    edc3:	98                   	cwtl   
    edc4:	be 06 00 00 00       	mov    $0x6,%esi
    edc9:	89 c7                	mov    %eax,%edi
    edcb:	e8 11 c7 ff ff       	callq  b4e1 <safe_lshift_func_int16_t_s_u>
    edd0:	0f b6 c0             	movzbl %al,%eax
    edd3:	89 de                	mov    %ebx,%esi
    edd5:	89 c7                	mov    %eax,%edi
    edd7:	e8 d2 cd ff ff       	callq  bbae <safe_mod_func_uint8_t_u_u>
    eddc:	0f b6 c0             	movzbl %al,%eax
    eddf:	be 00 00 00 00       	mov    $0x0,%esi
    ede4:	89 c7                	mov    %eax,%edi
    ede6:	e8 34 cf ff ff       	callq  bd1f <safe_sub_func_uint16_t_u_u>
    edeb:	48 83 bd 60 ea ff ff 	cmpq   $0x0,-0x15a0(%rbp)
    edf2:	00 
    edf3:	0f 95 c0             	setne  %al
    edf6:	0f b6 d0             	movzbl %al,%edx
    edf9:	8b 85 f8 e7 ff ff    	mov    -0x1808(%rbp),%eax
    edff:	21 d0                	and    %edx,%eax
    ee01:	89 85 f8 e7 ff ff    	mov    %eax,-0x1808(%rbp)
    ee07:	48 8d 85 a0 e9 ff ff 	lea    -0x1660(%rbp),%rax
    ee0e:	48 89 85 88 ef ff ff 	mov    %rax,-0x1078(%rbp)
    ee15:	48 8b 85 e8 e9 ff ff 	mov    -0x1618(%rbp),%rax
    ee1c:	be 05 00 00 00       	mov    $0x5,%esi
    ee21:	48 89 c7             	mov    %rax,%rdi
    ee24:	e8 05 d2 ff ff       	callq  c02e <safe_add_func_uint64_t_u_u>
    ee29:	48 89 85 e8 e9 ff ff 	mov    %rax,-0x1618(%rbp)
    ee30:	48 83 bd e8 e9 ff ff 	cmpq   $0x2e,-0x1618(%rbp)
    ee37:	2e 
    ee38:	0f 86 4b fd ff ff    	jbe    eb89 <func_36+0xde5>
    ee3e:	48 83 bd c8 e7 ff ff 	cmpq   $0x0,-0x1838(%rbp)
    ee45:	00 
    ee46:	74 0c                	je     ee54 <func_36+0x10b0>
    ee48:	0f b6 85 08 e8 ff ff 	movzbl -0x17f8(%rbp),%eax
    ee4f:	e9 77 32 00 00       	jmpq   120cb <func_36+0x4327>
    ee54:	48 8d 85 d0 ee ff ff 	lea    -0x1130(%rbp),%rax
    ee5b:	48 83 c0 01          	add    $0x1,%rax
    ee5f:	48 89 85 f0 f7 ff ff 	mov    %rax,-0x810(%rbp)
    ee66:	48 8d 05 67 56 01 00 	lea    0x15667(%rip),%rax        # 244d4 <g_892>
    ee6d:	48 89 85 f8 f7 ff ff 	mov    %rax,-0x808(%rbp)
    ee74:	48 8d 05 71 55 01 00 	lea    0x15571(%rip),%rax        # 243ec <g_161>
    ee7b:	48 89 85 00 f8 ff ff 	mov    %rax,-0x800(%rbp)
    ee82:	48 8d 05 4b 56 01 00 	lea    0x1564b(%rip),%rax        # 244d4 <g_892>
    ee89:	48 89 85 08 f8 ff ff 	mov    %rax,-0x7f8(%rbp)
    ee90:	48 8d 85 d0 ee ff ff 	lea    -0x1130(%rbp),%rax
    ee97:	48 83 c0 1c          	add    $0x1c,%rax
    ee9b:	48 89 85 10 f8 ff ff 	mov    %rax,-0x7f0(%rbp)
    eea2:	48 8d 05 2b 56 01 00 	lea    0x1562b(%rip),%rax        # 244d4 <g_892>
    eea9:	48 89 85 18 f8 ff ff 	mov    %rax,-0x7e8(%rbp)
    eeb0:	48 8d 85 d0 ee ff ff 	lea    -0x1130(%rbp),%rax
    eeb7:	48 83 c0 01          	add    $0x1,%rax
    eebb:	48 89 85 20 f8 ff ff 	mov    %rax,-0x7e0(%rbp)
    eec2:	48 c7 85 28 f8 ff ff 	movq   $0x0,-0x7d8(%rbp)
    eec9:	00 00 00 00 
    eecd:	48 8d 85 d0 ee ff ff 	lea    -0x1130(%rbp),%rax
    eed4:	48 83 c0 08          	add    $0x8,%rax
    eed8:	48 89 85 30 f8 ff ff 	mov    %rax,-0x7d0(%rbp)
    eedf:	48 8d 05 ee 55 01 00 	lea    0x155ee(%rip),%rax        # 244d4 <g_892>
    eee6:	48 89 85 38 f8 ff ff 	mov    %rax,-0x7c8(%rbp)
    eeed:	48 8d 05 e0 55 01 00 	lea    0x155e0(%rip),%rax        # 244d4 <g_892>
    eef4:	48 89 85 40 f8 ff ff 	mov    %rax,-0x7c0(%rbp)
    eefb:	48 8d 05 ea 54 01 00 	lea    0x154ea(%rip),%rax        # 243ec <g_161>
    ef02:	48 89 85 48 f8 ff ff 	mov    %rax,-0x7b8(%rbp)
    ef09:	48 8d 05 c4 55 01 00 	lea    0x155c4(%rip),%rax        # 244d4 <g_892>
    ef10:	48 89 85 50 f8 ff ff 	mov    %rax,-0x7b0(%rbp)
    ef17:	48 8d 85 d0 ee ff ff 	lea    -0x1130(%rbp),%rax
    ef1e:	48 83 c0 01          	add    $0x1,%rax
    ef22:	48 89 85 58 f8 ff ff 	mov    %rax,-0x7a8(%rbp)
    ef29:	48 8d 05 a4 55 01 00 	lea    0x155a4(%rip),%rax        # 244d4 <g_892>
    ef30:	48 89 85 60 f8 ff ff 	mov    %rax,-0x7a0(%rbp)
    ef37:	48 8d 05 96 55 01 00 	lea    0x15596(%rip),%rax        # 244d4 <g_892>
    ef3e:	48 89 85 68 f8 ff ff 	mov    %rax,-0x798(%rbp)
    ef45:	48 8d 85 d0 ee ff ff 	lea    -0x1130(%rbp),%rax
    ef4c:	48 83 c0 01          	add    $0x1,%rax
    ef50:	48 89 85 70 f8 ff ff 	mov    %rax,-0x790(%rbp)
    ef57:	48 8d 85 d0 ee ff ff 	lea    -0x1130(%rbp),%rax
    ef5e:	48 83 c0 45          	add    $0x45,%rax
    ef62:	48 89 85 78 f8 ff ff 	mov    %rax,-0x788(%rbp)
    ef69:	48 8d 05 64 55 01 00 	lea    0x15564(%rip),%rax        # 244d4 <g_892>
    ef70:	48 89 85 80 f8 ff ff 	mov    %rax,-0x780(%rbp)
    ef77:	48 8d 85 d0 ee ff ff 	lea    -0x1130(%rbp),%rax
    ef7e:	48 83 c0 01          	add    $0x1,%rax
    ef82:	48 89 85 88 f8 ff ff 	mov    %rax,-0x778(%rbp)
    ef89:	48 c7 85 90 f8 ff ff 	movq   $0x0,-0x770(%rbp)
    ef90:	00 00 00 00 
    ef94:	48 8d 05 39 55 01 00 	lea    0x15539(%rip),%rax        # 244d4 <g_892>
    ef9b:	48 89 85 98 f8 ff ff 	mov    %rax,-0x768(%rbp)
    efa2:	48 8d 85 d0 ee ff ff 	lea    -0x1130(%rbp),%rax
    efa9:	48 83 c0 2e          	add    $0x2e,%rax
    efad:	48 89 85 a0 f8 ff ff 	mov    %rax,-0x760(%rbp)
    efb4:	48 8d 05 19 55 01 00 	lea    0x15519(%rip),%rax        # 244d4 <g_892>
    efbb:	48 89 85 a8 f8 ff ff 	mov    %rax,-0x758(%rbp)
    efc2:	48 8d 05 0b 55 01 00 	lea    0x1550b(%rip),%rax        # 244d4 <g_892>
    efc9:	48 89 85 b0 f8 ff ff 	mov    %rax,-0x750(%rbp)
    efd0:	48 8d 05 fd 54 01 00 	lea    0x154fd(%rip),%rax        # 244d4 <g_892>
    efd7:	48 89 85 b8 f8 ff ff 	mov    %rax,-0x748(%rbp)
    efde:	48 8d 05 ef 54 01 00 	lea    0x154ef(%rip),%rax        # 244d4 <g_892>
    efe5:	48 89 85 c0 f8 ff ff 	mov    %rax,-0x740(%rbp)
    efec:	48 8d 85 d0 ee ff ff 	lea    -0x1130(%rbp),%rax
    eff3:	48 83 c0 01          	add    $0x1,%rax
    eff7:	48 89 85 c8 f8 ff ff 	mov    %rax,-0x738(%rbp)
    effe:	48 8d 05 cf 54 01 00 	lea    0x154cf(%rip),%rax        # 244d4 <g_892>
    f005:	48 89 85 d0 f8 ff ff 	mov    %rax,-0x730(%rbp)
    f00c:	48 8d 05 c1 54 01 00 	lea    0x154c1(%rip),%rax        # 244d4 <g_892>
    f013:	48 89 85 d8 f8 ff ff 	mov    %rax,-0x728(%rbp)
    f01a:	48 8d 05 b3 54 01 00 	lea    0x154b3(%rip),%rax        # 244d4 <g_892>
    f021:	48 89 85 e0 f8 ff ff 	mov    %rax,-0x720(%rbp)
    f028:	48 8d 85 d0 ee ff ff 	lea    -0x1130(%rbp),%rax
    f02f:	48 83 c0 36          	add    $0x36,%rax
    f033:	48 89 85 e8 f8 ff ff 	mov    %rax,-0x718(%rbp)
    f03a:	48 8d 05 93 54 01 00 	lea    0x15493(%rip),%rax        # 244d4 <g_892>
    f041:	48 89 85 f0 f8 ff ff 	mov    %rax,-0x710(%rbp)
    f048:	48 8d 05 85 54 01 00 	lea    0x15485(%rip),%rax        # 244d4 <g_892>
    f04f:	48 89 85 f8 f8 ff ff 	mov    %rax,-0x708(%rbp)
    f056:	48 8d 85 d0 ee ff ff 	lea    -0x1130(%rbp),%rax
    f05d:	48 83 c0 47          	add    $0x47,%rax
    f061:	48 89 85 00 f9 ff ff 	mov    %rax,-0x700(%rbp)
    f068:	48 c7 85 08 f9 ff ff 	movq   $0x0,-0x6f8(%rbp)
    f06f:	00 00 00 00 
    f073:	48 8d 85 d0 ee ff ff 	lea    -0x1130(%rbp),%rax
    f07a:	48 83 c0 45          	add    $0x45,%rax
    f07e:	48 89 85 10 f9 ff ff 	mov    %rax,-0x6f0(%rbp)
    f085:	48 8d 05 48 54 01 00 	lea    0x15448(%rip),%rax        # 244d4 <g_892>
    f08c:	48 89 85 18 f9 ff ff 	mov    %rax,-0x6e8(%rbp)
    f093:	48 8d 05 3a 54 01 00 	lea    0x1543a(%rip),%rax        # 244d4 <g_892>
    f09a:	48 89 85 20 f9 ff ff 	mov    %rax,-0x6e0(%rbp)
    f0a1:	48 c7 85 28 f9 ff ff 	movq   $0x0,-0x6d8(%rbp)
    f0a8:	00 00 00 00 
    f0ac:	48 8d 05 21 54 01 00 	lea    0x15421(%rip),%rax        # 244d4 <g_892>
    f0b3:	48 89 85 30 f9 ff ff 	mov    %rax,-0x6d0(%rbp)
    f0ba:	48 8d 85 d0 ee ff ff 	lea    -0x1130(%rbp),%rax
    f0c1:	48 83 c0 2d          	add    $0x2d,%rax
    f0c5:	48 89 85 38 f9 ff ff 	mov    %rax,-0x6c8(%rbp)
    f0cc:	48 8d 85 d0 ee ff ff 	lea    -0x1130(%rbp),%rax
    f0d3:	48 83 c0 01          	add    $0x1,%rax
    f0d7:	48 89 85 40 f9 ff ff 	mov    %rax,-0x6c0(%rbp)
    f0de:	48 8d 05 ef 53 01 00 	lea    0x153ef(%rip),%rax        # 244d4 <g_892>
    f0e5:	48 89 85 48 f9 ff ff 	mov    %rax,-0x6b8(%rbp)
    f0ec:	48 c7 85 50 f9 ff ff 	movq   $0x0,-0x6b0(%rbp)
    f0f3:	00 00 00 00 
    f0f7:	48 8d 05 d6 53 01 00 	lea    0x153d6(%rip),%rax        # 244d4 <g_892>
    f0fe:	48 89 85 58 f9 ff ff 	mov    %rax,-0x6a8(%rbp)
    f105:	48 8d 05 c8 53 01 00 	lea    0x153c8(%rip),%rax        # 244d4 <g_892>
    f10c:	48 89 85 60 f9 ff ff 	mov    %rax,-0x6a0(%rbp)
    f113:	48 8d 85 d0 ee ff ff 	lea    -0x1130(%rbp),%rax
    f11a:	48 83 c0 2e          	add    $0x2e,%rax
    f11e:	48 89 85 68 f9 ff ff 	mov    %rax,-0x698(%rbp)
    f125:	48 8d 85 d0 ee ff ff 	lea    -0x1130(%rbp),%rax
    f12c:	48 83 c0 36          	add    $0x36,%rax
    f130:	48 89 85 70 f9 ff ff 	mov    %rax,-0x690(%rbp)
    f137:	48 c7 85 78 f9 ff ff 	movq   $0x0,-0x688(%rbp)
    f13e:	00 00 00 00 
    f142:	48 8d 05 8b 53 01 00 	lea    0x1538b(%rip),%rax        # 244d4 <g_892>
    f149:	48 89 85 80 f9 ff ff 	mov    %rax,-0x680(%rbp)
    f150:	48 8d 85 d0 ee ff ff 	lea    -0x1130(%rbp),%rax
    f157:	48 83 c0 05          	add    $0x5,%rax
    f15b:	48 89 85 88 f9 ff ff 	mov    %rax,-0x678(%rbp)
    f162:	48 8d 85 d0 ee ff ff 	lea    -0x1130(%rbp),%rax
    f169:	48 83 c0 45          	add    $0x45,%rax
    f16d:	48 89 85 90 f9 ff ff 	mov    %rax,-0x670(%rbp)
    f174:	48 8d 05 59 53 01 00 	lea    0x15359(%rip),%rax        # 244d4 <g_892>
    f17b:	48 89 85 98 f9 ff ff 	mov    %rax,-0x668(%rbp)
    f182:	48 c7 85 a0 f9 ff ff 	movq   $0x0,-0x660(%rbp)
    f189:	00 00 00 00 
    f18d:	48 8d 05 40 53 01 00 	lea    0x15340(%rip),%rax        # 244d4 <g_892>
    f194:	48 89 85 a8 f9 ff ff 	mov    %rax,-0x658(%rbp)
    f19b:	48 8d 85 d0 ee ff ff 	lea    -0x1130(%rbp),%rax
    f1a2:	48 83 c0 34          	add    $0x34,%rax
    f1a6:	48 89 85 b0 f9 ff ff 	mov    %rax,-0x650(%rbp)
    f1ad:	48 8d 05 20 53 01 00 	lea    0x15320(%rip),%rax        # 244d4 <g_892>
    f1b4:	48 89 85 b8 f9 ff ff 	mov    %rax,-0x648(%rbp)
    f1bb:	48 c7 85 c0 f9 ff ff 	movq   $0x0,-0x640(%rbp)
    f1c2:	00 00 00 00 
    f1c6:	48 c7 85 c8 f9 ff ff 	movq   $0x0,-0x638(%rbp)
    f1cd:	00 00 00 00 
    f1d1:	48 8d 05 14 52 01 00 	lea    0x15214(%rip),%rax        # 243ec <g_161>
    f1d8:	48 89 85 d0 f9 ff ff 	mov    %rax,-0x630(%rbp)
    f1df:	48 8d 85 d0 ee ff ff 	lea    -0x1130(%rbp),%rax
    f1e6:	48 83 c0 19          	add    $0x19,%rax
    f1ea:	48 89 85 d8 f9 ff ff 	mov    %rax,-0x628(%rbp)
    f1f1:	48 c7 85 e0 f9 ff ff 	movq   $0x0,-0x620(%rbp)
    f1f8:	00 00 00 00 
    f1fc:	48 8d 85 d0 ee ff ff 	lea    -0x1130(%rbp),%rax
    f203:	48 83 c0 01          	add    $0x1,%rax
    f207:	48 89 85 e8 f9 ff ff 	mov    %rax,-0x618(%rbp)
    f20e:	48 8d 05 bf 52 01 00 	lea    0x152bf(%rip),%rax        # 244d4 <g_892>
    f215:	48 89 85 f0 f9 ff ff 	mov    %rax,-0x610(%rbp)
    f21c:	48 8d 05 b1 52 01 00 	lea    0x152b1(%rip),%rax        # 244d4 <g_892>
    f223:	48 89 85 f8 f9 ff ff 	mov    %rax,-0x608(%rbp)
    f22a:	48 8d 05 a3 52 01 00 	lea    0x152a3(%rip),%rax        # 244d4 <g_892>
    f231:	48 89 85 00 fa ff ff 	mov    %rax,-0x600(%rbp)
    f238:	48 8d 05 ad 51 01 00 	lea    0x151ad(%rip),%rax        # 243ec <g_161>
    f23f:	48 89 85 08 fa ff ff 	mov    %rax,-0x5f8(%rbp)
    f246:	48 c7 85 10 fa ff ff 	movq   $0x0,-0x5f0(%rbp)
    f24d:	00 00 00 00 
    f251:	48 8d 85 d0 ee ff ff 	lea    -0x1130(%rbp),%rax
    f258:	48 83 c0 01          	add    $0x1,%rax
    f25c:	48 89 85 18 fa ff ff 	mov    %rax,-0x5e8(%rbp)
    f263:	48 8d 05 6a 52 01 00 	lea    0x1526a(%rip),%rax        # 244d4 <g_892>
    f26a:	48 89 85 20 fa ff ff 	mov    %rax,-0x5e0(%rbp)
    f271:	48 8d 85 d0 ee ff ff 	lea    -0x1130(%rbp),%rax
    f278:	48 83 c0 1c          	add    $0x1c,%rax
    f27c:	48 89 85 28 fa ff ff 	mov    %rax,-0x5d8(%rbp)
    f283:	48 8d 85 d0 ee ff ff 	lea    -0x1130(%rbp),%rax
    f28a:	48 83 c0 36          	add    $0x36,%rax
    f28e:	48 89 85 30 fa ff ff 	mov    %rax,-0x5d0(%rbp)
    f295:	48 8d 85 d0 ee ff ff 	lea    -0x1130(%rbp),%rax
    f29c:	48 83 c0 4b          	add    $0x4b,%rax
    f2a0:	48 89 85 38 fa ff ff 	mov    %rax,-0x5c8(%rbp)
    f2a7:	48 8d 05 3e 51 01 00 	lea    0x1513e(%rip),%rax        # 243ec <g_161>
    f2ae:	48 89 85 40 fa ff ff 	mov    %rax,-0x5c0(%rbp)
    f2b5:	48 8d 05 18 52 01 00 	lea    0x15218(%rip),%rax        # 244d4 <g_892>
    f2bc:	48 89 85 48 fa ff ff 	mov    %rax,-0x5b8(%rbp)
    f2c3:	48 8d 85 d0 ee ff ff 	lea    -0x1130(%rbp),%rax
    f2ca:	48 83 c0 0e          	add    $0xe,%rax
    f2ce:	48 89 85 50 fa ff ff 	mov    %rax,-0x5b0(%rbp)
    f2d5:	48 8d 85 d0 ee ff ff 	lea    -0x1130(%rbp),%rax
    f2dc:	48 83 c0 01          	add    $0x1,%rax
    f2e0:	48 89 85 58 fa ff ff 	mov    %rax,-0x5a8(%rbp)
    f2e7:	48 8d 85 d0 ee ff ff 	lea    -0x1130(%rbp),%rax
    f2ee:	48 83 c0 0e          	add    $0xe,%rax
    f2f2:	48 89 85 60 fa ff ff 	mov    %rax,-0x5a0(%rbp)
    f2f9:	48 8d 05 d4 51 01 00 	lea    0x151d4(%rip),%rax        # 244d4 <g_892>
    f300:	48 89 85 68 fa ff ff 	mov    %rax,-0x598(%rbp)
    f307:	48 8d 85 d0 ee ff ff 	lea    -0x1130(%rbp),%rax
    f30e:	48 83 c0 0e          	add    $0xe,%rax
    f312:	48 89 85 70 fa ff ff 	mov    %rax,-0x590(%rbp)
    f319:	48 8d 05 b4 51 01 00 	lea    0x151b4(%rip),%rax        # 244d4 <g_892>
    f320:	48 89 85 78 fa ff ff 	mov    %rax,-0x588(%rbp)
    f327:	48 c7 85 80 fa ff ff 	movq   $0x0,-0x580(%rbp)
    f32e:	00 00 00 00 
    f332:	48 8d 85 d0 ee ff ff 	lea    -0x1130(%rbp),%rax
    f339:	48 83 c0 45          	add    $0x45,%rax
    f33d:	48 89 85 88 fa ff ff 	mov    %rax,-0x578(%rbp)
    f344:	48 8d 85 d0 ee ff ff 	lea    -0x1130(%rbp),%rax
    f34b:	48 83 c0 24          	add    $0x24,%rax
    f34f:	48 89 85 90 fa ff ff 	mov    %rax,-0x570(%rbp)
    f356:	48 8d 05 77 51 01 00 	lea    0x15177(%rip),%rax        # 244d4 <g_892>
    f35d:	48 89 85 98 fa ff ff 	mov    %rax,-0x568(%rbp)
    f364:	48 8d 85 d0 ee ff ff 	lea    -0x1130(%rbp),%rax
    f36b:	48 83 c0 01          	add    $0x1,%rax
    f36f:	48 89 85 a0 fa ff ff 	mov    %rax,-0x560(%rbp)
    f376:	48 8d 85 d0 ee ff ff 	lea    -0x1130(%rbp),%rax
    f37d:	48 83 c0 05          	add    $0x5,%rax
    f381:	48 89 85 a8 fa ff ff 	mov    %rax,-0x558(%rbp)
    f388:	48 8d 05 45 51 01 00 	lea    0x15145(%rip),%rax        # 244d4 <g_892>
    f38f:	48 89 85 b0 fa ff ff 	mov    %rax,-0x550(%rbp)
    f396:	48 8d 05 37 51 01 00 	lea    0x15137(%rip),%rax        # 244d4 <g_892>
    f39d:	48 89 85 b8 fa ff ff 	mov    %rax,-0x548(%rbp)
    f3a4:	48 8d 05 41 50 01 00 	lea    0x15041(%rip),%rax        # 243ec <g_161>
    f3ab:	48 89 85 c0 fa ff ff 	mov    %rax,-0x540(%rbp)
    f3b2:	48 c7 85 c8 fa ff ff 	movq   $0x0,-0x538(%rbp)
    f3b9:	00 00 00 00 
    f3bd:	48 8d 05 10 51 01 00 	lea    0x15110(%rip),%rax        # 244d4 <g_892>
    f3c4:	48 89 85 d0 fa ff ff 	mov    %rax,-0x530(%rbp)
    f3cb:	48 8d 05 02 51 01 00 	lea    0x15102(%rip),%rax        # 244d4 <g_892>
    f3d2:	48 89 85 d8 fa ff ff 	mov    %rax,-0x528(%rbp)
    f3d9:	48 8d 85 d0 ee ff ff 	lea    -0x1130(%rbp),%rax
    f3e0:	48 83 c0 24          	add    $0x24,%rax
    f3e4:	48 89 85 e0 fa ff ff 	mov    %rax,-0x520(%rbp)
    f3eb:	48 8d 85 d0 ee ff ff 	lea    -0x1130(%rbp),%rax
    f3f2:	48 83 c0 2d          	add    $0x2d,%rax
    f3f6:	48 89 85 e8 fa ff ff 	mov    %rax,-0x518(%rbp)
    f3fd:	48 8d 05 d0 50 01 00 	lea    0x150d0(%rip),%rax        # 244d4 <g_892>
    f404:	48 89 85 f0 fa ff ff 	mov    %rax,-0x510(%rbp)
    f40b:	48 c7 85 f8 fa ff ff 	movq   $0x0,-0x508(%rbp)
    f412:	00 00 00 00 
    f416:	48 c7 85 00 fb ff ff 	movq   $0x0,-0x500(%rbp)
    f41d:	00 00 00 00 
    f421:	48 8d 05 ac 50 01 00 	lea    0x150ac(%rip),%rax        # 244d4 <g_892>
    f428:	48 89 85 08 fb ff ff 	mov    %rax,-0x4f8(%rbp)
    f42f:	48 8d 85 d0 ee ff ff 	lea    -0x1130(%rbp),%rax
    f436:	48 83 c0 24          	add    $0x24,%rax
    f43a:	48 89 85 10 fb ff ff 	mov    %rax,-0x4f0(%rbp)
    f441:	48 8d 05 8c 50 01 00 	lea    0x1508c(%rip),%rax        # 244d4 <g_892>
    f448:	48 89 85 18 fb ff ff 	mov    %rax,-0x4e8(%rbp)
    f44f:	48 8d 05 7e 50 01 00 	lea    0x1507e(%rip),%rax        # 244d4 <g_892>
    f456:	48 89 85 20 fb ff ff 	mov    %rax,-0x4e0(%rbp)
    f45d:	48 8d 05 88 4f 01 00 	lea    0x14f88(%rip),%rax        # 243ec <g_161>
    f464:	48 89 85 28 fb ff ff 	mov    %rax,-0x4d8(%rbp)
    f46b:	48 8d 05 7a 4f 01 00 	lea    0x14f7a(%rip),%rax        # 243ec <g_161>
    f472:	48 89 85 30 fb ff ff 	mov    %rax,-0x4d0(%rbp)
    f479:	48 c7 85 38 fb ff ff 	movq   $0x0,-0x4c8(%rbp)
    f480:	00 00 00 00 
    f484:	48 8d 05 61 4f 01 00 	lea    0x14f61(%rip),%rax        # 243ec <g_161>
    f48b:	48 89 85 40 fb ff ff 	mov    %rax,-0x4c0(%rbp)
    f492:	48 c7 85 48 fb ff ff 	movq   $0x0,-0x4b8(%rbp)
    f499:	00 00 00 00 
    f49d:	48 8d 05 48 4f 01 00 	lea    0x14f48(%rip),%rax        # 243ec <g_161>
    f4a4:	48 89 85 50 fb ff ff 	mov    %rax,-0x4b0(%rbp)
    f4ab:	48 8d 85 d0 ee ff ff 	lea    -0x1130(%rbp),%rax
    f4b2:	48 83 c0 01          	add    $0x1,%rax
    f4b6:	48 89 85 58 fb ff ff 	mov    %rax,-0x4a8(%rbp)
    f4bd:	48 8d 05 10 50 01 00 	lea    0x15010(%rip),%rax        # 244d4 <g_892>
    f4c4:	48 89 85 60 fb ff ff 	mov    %rax,-0x4a0(%rbp)
    f4cb:	48 8d 85 d0 ee ff ff 	lea    -0x1130(%rbp),%rax
    f4d2:	48 83 c0 47          	add    $0x47,%rax
    f4d6:	48 89 85 68 fb ff ff 	mov    %rax,-0x498(%rbp)
    f4dd:	48 8d 05 f0 4f 01 00 	lea    0x14ff0(%rip),%rax        # 244d4 <g_892>
    f4e4:	48 89 85 70 fb ff ff 	mov    %rax,-0x490(%rbp)
    f4eb:	48 8d 85 d0 ee ff ff 	lea    -0x1130(%rbp),%rax
    f4f2:	48 83 c0 46          	add    $0x46,%rax
    f4f6:	48 89 85 78 fb ff ff 	mov    %rax,-0x488(%rbp)
    f4fd:	48 8d 05 d0 4f 01 00 	lea    0x14fd0(%rip),%rax        # 244d4 <g_892>
    f504:	48 89 85 80 fb ff ff 	mov    %rax,-0x480(%rbp)
    f50b:	48 8d 85 d0 ee ff ff 	lea    -0x1130(%rbp),%rax
    f512:	48 83 c0 01          	add    $0x1,%rax
    f516:	48 89 85 88 fb ff ff 	mov    %rax,-0x478(%rbp)
    f51d:	48 8d 05 b0 4f 01 00 	lea    0x14fb0(%rip),%rax        # 244d4 <g_892>
    f524:	48 89 85 90 fb ff ff 	mov    %rax,-0x470(%rbp)
    f52b:	48 8d 05 a2 4f 01 00 	lea    0x14fa2(%rip),%rax        # 244d4 <g_892>
    f532:	48 89 85 98 fb ff ff 	mov    %rax,-0x468(%rbp)
    f539:	48 c7 85 a0 fb ff ff 	movq   $0x0,-0x460(%rbp)
    f540:	00 00 00 00 
    f544:	48 c7 85 a8 fb ff ff 	movq   $0x0,-0x458(%rbp)
    f54b:	00 00 00 00 
    f54f:	48 c7 85 b0 fb ff ff 	movq   $0x0,-0x450(%rbp)
    f556:	00 00 00 00 
    f55a:	48 8d 85 d0 ee ff ff 	lea    -0x1130(%rbp),%rax
    f561:	48 83 c0 2e          	add    $0x2e,%rax
    f565:	48 89 85 b8 fb ff ff 	mov    %rax,-0x448(%rbp)
    f56c:	48 8d 85 d0 ee ff ff 	lea    -0x1130(%rbp),%rax
    f573:	48 83 c0 01          	add    $0x1,%rax
    f577:	48 89 85 c0 fb ff ff 	mov    %rax,-0x440(%rbp)
    f57e:	48 8d 05 4f 4f 01 00 	lea    0x14f4f(%rip),%rax        # 244d4 <g_892>
    f585:	48 89 85 c8 fb ff ff 	mov    %rax,-0x438(%rbp)
    f58c:	48 c7 85 d0 fb ff ff 	movq   $0x0,-0x430(%rbp)
    f593:	00 00 00 00 
    f597:	48 8d 05 4e 4e 01 00 	lea    0x14e4e(%rip),%rax        # 243ec <g_161>
    f59e:	48 89 85 d8 fb ff ff 	mov    %rax,-0x428(%rbp)
    f5a5:	48 c7 85 e0 fb ff ff 	movq   $0x0,-0x420(%rbp)
    f5ac:	00 00 00 00 
    f5b0:	48 8d 05 1d 4f 01 00 	lea    0x14f1d(%rip),%rax        # 244d4 <g_892>
    f5b7:	48 89 85 e8 fb ff ff 	mov    %rax,-0x418(%rbp)
    f5be:	48 8d 85 d0 ee ff ff 	lea    -0x1130(%rbp),%rax
    f5c5:	48 83 c0 2e          	add    $0x2e,%rax
    f5c9:	48 89 85 f0 fb ff ff 	mov    %rax,-0x410(%rbp)
    f5d0:	48 c7 85 f8 fb ff ff 	movq   $0x0,-0x408(%rbp)
    f5d7:	00 00 00 00 
    f5db:	48 8d 85 d0 ee ff ff 	lea    -0x1130(%rbp),%rax
    f5e2:	48 83 c0 0d          	add    $0xd,%rax
    f5e6:	48 89 85 00 fc ff ff 	mov    %rax,-0x400(%rbp)
    f5ed:	48 c7 85 08 fc ff ff 	movq   $0x0,-0x3f8(%rbp)
    f5f4:	00 00 00 00 
    f5f8:	48 8d 85 d0 ee ff ff 	lea    -0x1130(%rbp),%rax
    f5ff:	48 83 c0 01          	add    $0x1,%rax
    f603:	48 89 85 10 fc ff ff 	mov    %rax,-0x3f0(%rbp)
    f60a:	48 8d 85 d0 ee ff ff 	lea    -0x1130(%rbp),%rax
    f611:	48 83 c0 01          	add    $0x1,%rax
    f615:	48 89 85 18 fc ff ff 	mov    %rax,-0x3e8(%rbp)
    f61c:	48 c7 85 20 fc ff ff 	movq   $0x0,-0x3e0(%rbp)
    f623:	00 00 00 00 
    f627:	48 c7 85 28 fc ff ff 	movq   $0x0,-0x3d8(%rbp)
    f62e:	00 00 00 00 
    f632:	48 c7 85 30 fc ff ff 	movq   $0x0,-0x3d0(%rbp)
    f639:	00 00 00 00 
    f63d:	48 8d 05 a8 4d 01 00 	lea    0x14da8(%rip),%rax        # 243ec <g_161>
    f644:	48 89 85 38 fc ff ff 	mov    %rax,-0x3c8(%rbp)
    f64b:	48 8d 85 d0 ee ff ff 	lea    -0x1130(%rbp),%rax
    f652:	48 83 c0 37          	add    $0x37,%rax
    f656:	48 89 85 40 fc ff ff 	mov    %rax,-0x3c0(%rbp)
    f65d:	48 c7 85 48 fc ff ff 	movq   $0x0,-0x3b8(%rbp)
    f664:	00 00 00 00 
    f668:	48 8d 85 d0 ee ff ff 	lea    -0x1130(%rbp),%rax
    f66f:	48 83 c0 01          	add    $0x1,%rax
    f673:	48 89 85 50 fc ff ff 	mov    %rax,-0x3b0(%rbp)
    f67a:	48 8d 05 53 4e 01 00 	lea    0x14e53(%rip),%rax        # 244d4 <g_892>
    f681:	48 89 85 58 fc ff ff 	mov    %rax,-0x3a8(%rbp)
    f688:	48 8d 85 d0 ee ff ff 	lea    -0x1130(%rbp),%rax
    f68f:	48 83 c0 14          	add    $0x14,%rax
    f693:	48 89 85 60 fc ff ff 	mov    %rax,-0x3a0(%rbp)
    f69a:	48 8d 85 d0 ee ff ff 	lea    -0x1130(%rbp),%rax
    f6a1:	48 83 c0 19          	add    $0x19,%rax
    f6a5:	48 89 85 68 fc ff ff 	mov    %rax,-0x398(%rbp)
    f6ac:	48 8d 85 d0 ee ff ff 	lea    -0x1130(%rbp),%rax
    f6b3:	48 83 c0 47          	add    $0x47,%rax
    f6b7:	48 89 85 70 fc ff ff 	mov    %rax,-0x390(%rbp)
    f6be:	48 8d 05 0f 4e 01 00 	lea    0x14e0f(%rip),%rax        # 244d4 <g_892>
    f6c5:	48 89 85 78 fc ff ff 	mov    %rax,-0x388(%rbp)
    f6cc:	48 8d 05 01 4e 01 00 	lea    0x14e01(%rip),%rax        # 244d4 <g_892>
    f6d3:	48 89 85 80 fc ff ff 	mov    %rax,-0x380(%rbp)
    f6da:	48 c7 85 88 fc ff ff 	movq   $0x0,-0x378(%rbp)
    f6e1:	00 00 00 00 
    f6e5:	48 8d 85 d0 ee ff ff 	lea    -0x1130(%rbp),%rax
    f6ec:	48 83 c0 32          	add    $0x32,%rax
    f6f0:	48 89 85 90 fc ff ff 	mov    %rax,-0x370(%rbp)
    f6f7:	48 8d 05 d6 4d 01 00 	lea    0x14dd6(%rip),%rax        # 244d4 <g_892>
    f6fe:	48 89 85 98 fc ff ff 	mov    %rax,-0x368(%rbp)
    f705:	48 c7 85 a0 fc ff ff 	movq   $0x0,-0x360(%rbp)
    f70c:	00 00 00 00 
    f710:	48 c7 85 a8 fc ff ff 	movq   $0x0,-0x358(%rbp)
    f717:	00 00 00 00 
    f71b:	48 c7 85 b0 fc ff ff 	movq   $0x0,-0x350(%rbp)
    f722:	00 00 00 00 
    f726:	48 8d 05 a7 4d 01 00 	lea    0x14da7(%rip),%rax        # 244d4 <g_892>
    f72d:	48 89 85 b8 fc ff ff 	mov    %rax,-0x348(%rbp)
    f734:	48 8d 05 99 4d 01 00 	lea    0x14d99(%rip),%rax        # 244d4 <g_892>
    f73b:	48 89 85 c0 fc ff ff 	mov    %rax,-0x340(%rbp)
    f742:	48 8d 85 d0 ee ff ff 	lea    -0x1130(%rbp),%rax
    f749:	48 83 c0 45          	add    $0x45,%rax
    f74d:	48 89 85 c8 fc ff ff 	mov    %rax,-0x338(%rbp)
    f754:	48 c7 85 d0 fc ff ff 	movq   $0x0,-0x330(%rbp)
    f75b:	00 00 00 00 
    f75f:	48 8d 85 d0 ee ff ff 	lea    -0x1130(%rbp),%rax
    f766:	48 83 c0 08          	add    $0x8,%rax
    f76a:	48 89 85 d8 fc ff ff 	mov    %rax,-0x328(%rbp)
    f771:	48 8d 05 5c 4d 01 00 	lea    0x14d5c(%rip),%rax        # 244d4 <g_892>
    f778:	48 89 85 e0 fc ff ff 	mov    %rax,-0x320(%rbp)
    f77f:	48 8d 85 d0 ee ff ff 	lea    -0x1130(%rbp),%rax
    f786:	48 83 c0 01          	add    $0x1,%rax
    f78a:	48 89 85 e8 fc ff ff 	mov    %rax,-0x318(%rbp)
    f791:	48 8d 85 d0 ee ff ff 	lea    -0x1130(%rbp),%rax
    f798:	48 83 c0 01          	add    $0x1,%rax
    f79c:	48 89 85 f0 fc ff ff 	mov    %rax,-0x310(%rbp)
    f7a3:	48 c7 85 f8 fc ff ff 	movq   $0x0,-0x308(%rbp)
    f7aa:	00 00 00 00 
    f7ae:	48 8d 05 1f 4d 01 00 	lea    0x14d1f(%rip),%rax        # 244d4 <g_892>
    f7b5:	48 89 85 00 fd ff ff 	mov    %rax,-0x300(%rbp)
    f7bc:	48 c7 85 08 fd ff ff 	movq   $0x0,-0x2f8(%rbp)
    f7c3:	00 00 00 00 
    f7c7:	48 8d 05 06 4d 01 00 	lea    0x14d06(%rip),%rax        # 244d4 <g_892>
    f7ce:	48 89 85 10 fd ff ff 	mov    %rax,-0x2f0(%rbp)
    f7d5:	48 c7 85 18 fd ff ff 	movq   $0x0,-0x2e8(%rbp)
    f7dc:	00 00 00 00 
    f7e0:	48 8d 85 d0 ee ff ff 	lea    -0x1130(%rbp),%rax
    f7e7:	48 83 c0 2e          	add    $0x2e,%rax
    f7eb:	48 89 85 20 fd ff ff 	mov    %rax,-0x2e0(%rbp)
    f7f2:	48 8d 05 db 4c 01 00 	lea    0x14cdb(%rip),%rax        # 244d4 <g_892>
    f7f9:	48 89 85 28 fd ff ff 	mov    %rax,-0x2d8(%rbp)
    f800:	48 8d 05 e5 4b 01 00 	lea    0x14be5(%rip),%rax        # 243ec <g_161>
    f807:	48 89 85 30 fd ff ff 	mov    %rax,-0x2d0(%rbp)
    f80e:	48 8d 05 bf 4c 01 00 	lea    0x14cbf(%rip),%rax        # 244d4 <g_892>
    f815:	48 89 85 38 fd ff ff 	mov    %rax,-0x2c8(%rbp)
    f81c:	48 c7 85 40 fd ff ff 	movq   $0x0,-0x2c0(%rbp)
    f823:	00 00 00 00 
    f827:	48 8d 05 a6 4c 01 00 	lea    0x14ca6(%rip),%rax        # 244d4 <g_892>
    f82e:	48 89 85 48 fd ff ff 	mov    %rax,-0x2b8(%rbp)
    f835:	48 8d 05 98 4c 01 00 	lea    0x14c98(%rip),%rax        # 244d4 <g_892>
    f83c:	48 89 85 50 fd ff ff 	mov    %rax,-0x2b0(%rbp)
    f843:	48 8d 85 d0 ee ff ff 	lea    -0x1130(%rbp),%rax
    f84a:	48 83 c0 01          	add    $0x1,%rax
    f84e:	48 89 85 58 fd ff ff 	mov    %rax,-0x2a8(%rbp)
    f855:	48 8d 85 d0 ee ff ff 	lea    -0x1130(%rbp),%rax
    f85c:	48 83 c0 1c          	add    $0x1c,%rax
    f860:	48 89 85 60 fd ff ff 	mov    %rax,-0x2a0(%rbp)
    f867:	48 c7 85 68 fd ff ff 	movq   $0x0,-0x298(%rbp)
    f86e:	00 00 00 00 
    f872:	48 8d 85 d0 ee ff ff 	lea    -0x1130(%rbp),%rax
    f879:	48 83 c0 47          	add    $0x47,%rax
    f87d:	48 89 85 70 fd ff ff 	mov    %rax,-0x290(%rbp)
    f884:	48 c7 85 78 fd ff ff 	movq   $0x0,-0x288(%rbp)
    f88b:	00 00 00 00 
    f88f:	48 c7 85 80 fd ff ff 	movq   $0x0,-0x280(%rbp)
    f896:	00 00 00 00 
    f89a:	48 c7 85 88 fd ff ff 	movq   $0x0,-0x278(%rbp)
    f8a1:	00 00 00 00 
    f8a5:	48 8d 05 28 4c 01 00 	lea    0x14c28(%rip),%rax        # 244d4 <g_892>
    f8ac:	48 89 85 90 fd ff ff 	mov    %rax,-0x270(%rbp)
    f8b3:	48 8d 05 32 4b 01 00 	lea    0x14b32(%rip),%rax        # 243ec <g_161>
    f8ba:	48 89 85 98 fd ff ff 	mov    %rax,-0x268(%rbp)
    f8c1:	48 c7 85 a0 fd ff ff 	movq   $0x0,-0x260(%rbp)
    f8c8:	00 00 00 00 
    f8cc:	48 8d 85 d0 ee ff ff 	lea    -0x1130(%rbp),%rax
    f8d3:	48 83 c0 01          	add    $0x1,%rax
    f8d7:	48 89 85 a8 fd ff ff 	mov    %rax,-0x258(%rbp)
    f8de:	48 c7 85 b0 fd ff ff 	movq   $0x0,-0x250(%rbp)
    f8e5:	00 00 00 00 
    f8e9:	48 8d 85 d0 ee ff ff 	lea    -0x1130(%rbp),%rax
    f8f0:	48 83 c0 01          	add    $0x1,%rax
    f8f4:	48 89 85 b8 fd ff ff 	mov    %rax,-0x248(%rbp)
    f8fb:	48 8d 05 d2 4b 01 00 	lea    0x14bd2(%rip),%rax        # 244d4 <g_892>
    f902:	48 89 85 c0 fd ff ff 	mov    %rax,-0x240(%rbp)
    f909:	48 8d 05 c4 4b 01 00 	lea    0x14bc4(%rip),%rax        # 244d4 <g_892>
    f910:	48 89 85 c8 fd ff ff 	mov    %rax,-0x238(%rbp)
    f917:	48 8d 85 d0 ee ff ff 	lea    -0x1130(%rbp),%rax
    f91e:	48 83 c0 01          	add    $0x1,%rax
    f922:	48 89 85 d0 fd ff ff 	mov    %rax,-0x230(%rbp)
    f929:	48 8d 85 d0 ee ff ff 	lea    -0x1130(%rbp),%rax
    f930:	48 83 c0 01          	add    $0x1,%rax
    f934:	48 89 85 d8 fd ff ff 	mov    %rax,-0x228(%rbp)
    f93b:	48 8d 85 d0 ee ff ff 	lea    -0x1130(%rbp),%rax
    f942:	48 83 c0 2e          	add    $0x2e,%rax
    f946:	48 89 85 e0 fd ff ff 	mov    %rax,-0x220(%rbp)
    f94d:	48 8d 05 80 4b 01 00 	lea    0x14b80(%rip),%rax        # 244d4 <g_892>
    f954:	48 89 85 e8 fd ff ff 	mov    %rax,-0x218(%rbp)
    f95b:	48 8d 05 72 4b 01 00 	lea    0x14b72(%rip),%rax        # 244d4 <g_892>
    f962:	48 89 85 f0 fd ff ff 	mov    %rax,-0x210(%rbp)
    f969:	48 8d 85 d0 ee ff ff 	lea    -0x1130(%rbp),%rax
    f970:	48 83 c0 14          	add    $0x14,%rax
    f974:	48 89 85 f8 fd ff ff 	mov    %rax,-0x208(%rbp)
    f97b:	48 8d 05 52 4b 01 00 	lea    0x14b52(%rip),%rax        # 244d4 <g_892>
    f982:	48 89 85 00 fe ff ff 	mov    %rax,-0x200(%rbp)
    f989:	48 8d 85 d0 ee ff ff 	lea    -0x1130(%rbp),%rax
    f990:	48 83 c0 01          	add    $0x1,%rax
    f994:	48 89 85 08 fe ff ff 	mov    %rax,-0x1f8(%rbp)
    f99b:	48 8d 05 4a 4a 01 00 	lea    0x14a4a(%rip),%rax        # 243ec <g_161>
    f9a2:	48 89 85 10 fe ff ff 	mov    %rax,-0x1f0(%rbp)
    f9a9:	48 8d 85 d0 ee ff ff 	lea    -0x1130(%rbp),%rax
    f9b0:	48 83 c0 01          	add    $0x1,%rax
    f9b4:	48 89 85 18 fe ff ff 	mov    %rax,-0x1e8(%rbp)
    f9bb:	48 8d 05 2a 4a 01 00 	lea    0x14a2a(%rip),%rax        # 243ec <g_161>
    f9c2:	48 89 85 20 fe ff ff 	mov    %rax,-0x1e0(%rbp)
    f9c9:	48 8d 85 d0 ee ff ff 	lea    -0x1130(%rbp),%rax
    f9d0:	48 83 c0 01          	add    $0x1,%rax
    f9d4:	48 89 85 28 fe ff ff 	mov    %rax,-0x1d8(%rbp)
    f9db:	48 c7 85 30 fe ff ff 	movq   $0x0,-0x1d0(%rbp)
    f9e2:	00 00 00 00 
    f9e6:	48 8d 85 d0 ee ff ff 	lea    -0x1130(%rbp),%rax
    f9ed:	48 83 c0 2e          	add    $0x2e,%rax
    f9f1:	48 89 85 38 fe ff ff 	mov    %rax,-0x1c8(%rbp)
    f9f8:	48 8d 85 d0 ee ff ff 	lea    -0x1130(%rbp),%rax
    f9ff:	48 83 c0 01          	add    $0x1,%rax
    fa03:	48 89 85 40 fe ff ff 	mov    %rax,-0x1c0(%rbp)
    fa0a:	48 8d 85 d0 ee ff ff 	lea    -0x1130(%rbp),%rax
    fa11:	48 83 c0 14          	add    $0x14,%rax
    fa15:	48 89 85 48 fe ff ff 	mov    %rax,-0x1b8(%rbp)
    fa1c:	48 8d 05 b1 4a 01 00 	lea    0x14ab1(%rip),%rax        # 244d4 <g_892>
    fa23:	48 89 85 50 fe ff ff 	mov    %rax,-0x1b0(%rbp)
    fa2a:	48 8d 05 a3 4a 01 00 	lea    0x14aa3(%rip),%rax        # 244d4 <g_892>
    fa31:	48 89 85 58 fe ff ff 	mov    %rax,-0x1a8(%rbp)
    fa38:	48 c7 85 60 fe ff ff 	movq   $0x0,-0x1a0(%rbp)
    fa3f:	00 00 00 00 
    fa43:	48 c7 85 68 fe ff ff 	movq   $0x0,-0x198(%rbp)
    fa4a:	00 00 00 00 
    fa4e:	48 8d 85 d0 ee ff ff 	lea    -0x1130(%rbp),%rax
    fa55:	48 83 c0 01          	add    $0x1,%rax
    fa59:	48 89 85 70 fe ff ff 	mov    %rax,-0x190(%rbp)
    fa60:	48 c7 85 78 fe ff ff 	movq   $0x0,-0x188(%rbp)
    fa67:	00 00 00 00 
    fa6b:	48 8d 85 d0 ee ff ff 	lea    -0x1130(%rbp),%rax
    fa72:	48 83 c0 47          	add    $0x47,%rax
    fa76:	48 89 85 80 fe ff ff 	mov    %rax,-0x180(%rbp)
    fa7d:	48 8d 85 d0 ee ff ff 	lea    -0x1130(%rbp),%rax
    fa84:	48 83 c0 36          	add    $0x36,%rax
    fa88:	48 89 85 88 fe ff ff 	mov    %rax,-0x178(%rbp)
    fa8f:	48 8d 05 3e 4a 01 00 	lea    0x14a3e(%rip),%rax        # 244d4 <g_892>
    fa96:	48 89 85 90 fe ff ff 	mov    %rax,-0x170(%rbp)
    fa9d:	48 8d 05 48 49 01 00 	lea    0x14948(%rip),%rax        # 243ec <g_161>
    faa4:	48 89 85 98 fe ff ff 	mov    %rax,-0x168(%rbp)
    faab:	48 8d 05 3a 49 01 00 	lea    0x1493a(%rip),%rax        # 243ec <g_161>
    fab2:	48 89 85 a0 fe ff ff 	mov    %rax,-0x160(%rbp)
    fab9:	48 8d 85 d0 ee ff ff 	lea    -0x1130(%rbp),%rax
    fac0:	48 83 c0 45          	add    $0x45,%rax
    fac4:	48 89 85 a8 fe ff ff 	mov    %rax,-0x158(%rbp)
    facb:	48 8d 05 02 4a 01 00 	lea    0x14a02(%rip),%rax        # 244d4 <g_892>
    fad2:	48 89 85 b0 fe ff ff 	mov    %rax,-0x150(%rbp)
    fad9:	48 8d 05 f4 49 01 00 	lea    0x149f4(%rip),%rax        # 244d4 <g_892>
    fae0:	48 89 85 b8 fe ff ff 	mov    %rax,-0x148(%rbp)
    fae7:	48 8d 05 e6 49 01 00 	lea    0x149e6(%rip),%rax        # 244d4 <g_892>
    faee:	48 89 85 c0 fe ff ff 	mov    %rax,-0x140(%rbp)
    faf5:	48 8d 05 d8 49 01 00 	lea    0x149d8(%rip),%rax        # 244d4 <g_892>
    fafc:	48 89 85 c8 fe ff ff 	mov    %rax,-0x138(%rbp)
    fb03:	48 c7 85 d0 fe ff ff 	movq   $0x0,-0x130(%rbp)
    fb0a:	00 00 00 00 
    fb0e:	48 8d 85 d0 ee ff ff 	lea    -0x1130(%rbp),%rax
    fb15:	48 83 c0 01          	add    $0x1,%rax
    fb19:	48 89 85 d8 fe ff ff 	mov    %rax,-0x128(%rbp)
    fb20:	48 8d 05 ad 49 01 00 	lea    0x149ad(%rip),%rax        # 244d4 <g_892>
    fb27:	48 89 85 e0 fe ff ff 	mov    %rax,-0x120(%rbp)
    fb2e:	48 c7 85 e8 fe ff ff 	movq   $0x0,-0x118(%rbp)
    fb35:	00 00 00 00 
    fb39:	48 8d 85 d0 ee ff ff 	lea    -0x1130(%rbp),%rax
    fb40:	48 83 c0 01          	add    $0x1,%rax
    fb44:	48 89 85 f0 fe ff ff 	mov    %rax,-0x110(%rbp)
    fb4b:	48 8d 05 82 49 01 00 	lea    0x14982(%rip),%rax        # 244d4 <g_892>
    fb52:	48 89 85 f8 fe ff ff 	mov    %rax,-0x108(%rbp)
    fb59:	48 8d 85 d0 ee ff ff 	lea    -0x1130(%rbp),%rax
    fb60:	48 83 c0 01          	add    $0x1,%rax
    fb64:	48 89 85 00 ff ff ff 	mov    %rax,-0x100(%rbp)
    fb6b:	48 8d 05 7a 48 01 00 	lea    0x1487a(%rip),%rax        # 243ec <g_161>
    fb72:	48 89 85 08 ff ff ff 	mov    %rax,-0xf8(%rbp)
    fb79:	48 8d 85 d0 ee ff ff 	lea    -0x1130(%rbp),%rax
    fb80:	48 83 c0 01          	add    $0x1,%rax
    fb84:	48 89 85 10 ff ff ff 	mov    %rax,-0xf0(%rbp)
    fb8b:	48 8d 05 5a 48 01 00 	lea    0x1485a(%rip),%rax        # 243ec <g_161>
    fb92:	48 89 85 18 ff ff ff 	mov    %rax,-0xe8(%rbp)
    fb99:	48 8d 05 34 49 01 00 	lea    0x14934(%rip),%rax        # 244d4 <g_892>
    fba0:	48 89 85 20 ff ff ff 	mov    %rax,-0xe0(%rbp)
    fba7:	48 8d 05 26 49 01 00 	lea    0x14926(%rip),%rax        # 244d4 <g_892>
    fbae:	48 89 85 28 ff ff ff 	mov    %rax,-0xd8(%rbp)
    fbb5:	48 8d 05 30 48 01 00 	lea    0x14830(%rip),%rax        # 243ec <g_161>
    fbbc:	48 89 85 30 ff ff ff 	mov    %rax,-0xd0(%rbp)
    fbc3:	48 8d 85 d0 ee ff ff 	lea    -0x1130(%rbp),%rax
    fbca:	48 83 c0 34          	add    $0x34,%rax
    fbce:	48 89 85 38 ff ff ff 	mov    %rax,-0xc8(%rbp)
    fbd5:	48 8d 85 d0 ee ff ff 	lea    -0x1130(%rbp),%rax
    fbdc:	48 83 c0 01          	add    $0x1,%rax
    fbe0:	48 89 85 40 ff ff ff 	mov    %rax,-0xc0(%rbp)
    fbe7:	48 c7 85 48 ff ff ff 	movq   $0x0,-0xb8(%rbp)
    fbee:	00 00 00 00 
    fbf2:	48 c7 85 50 ff ff ff 	movq   $0x0,-0xb0(%rbp)
    fbf9:	00 00 00 00 
    fbfd:	48 8d 85 d0 ee ff ff 	lea    -0x1130(%rbp),%rax
    fc04:	48 83 c0 01          	add    $0x1,%rax
    fc08:	48 89 85 58 ff ff ff 	mov    %rax,-0xa8(%rbp)
    fc0f:	48 8d 85 d0 ee ff ff 	lea    -0x1130(%rbp),%rax
    fc16:	48 83 c0 01          	add    $0x1,%rax
    fc1a:	48 89 85 60 ff ff ff 	mov    %rax,-0xa0(%rbp)
    fc21:	48 8d 05 ac 48 01 00 	lea    0x148ac(%rip),%rax        # 244d4 <g_892>
    fc28:	48 89 85 68 ff ff ff 	mov    %rax,-0x98(%rbp)
    fc2f:	48 8d 05 9e 48 01 00 	lea    0x1489e(%rip),%rax        # 244d4 <g_892>
    fc36:	48 89 85 70 ff ff ff 	mov    %rax,-0x90(%rbp)
    fc3d:	48 8d 05 90 48 01 00 	lea    0x14890(%rip),%rax        # 244d4 <g_892>
    fc44:	48 89 85 78 ff ff ff 	mov    %rax,-0x88(%rbp)
    fc4b:	48 8d 05 82 48 01 00 	lea    0x14882(%rip),%rax        # 244d4 <g_892>
    fc52:	48 89 45 80          	mov    %rax,-0x80(%rbp)
    fc56:	48 8d 05 77 48 01 00 	lea    0x14877(%rip),%rax        # 244d4 <g_892>
    fc5d:	48 89 45 88          	mov    %rax,-0x78(%rbp)
    fc61:	48 8d 05 6c 48 01 00 	lea    0x1486c(%rip),%rax        # 244d4 <g_892>
    fc68:	48 89 45 90          	mov    %rax,-0x70(%rbp)
    fc6c:	48 8d 05 61 48 01 00 	lea    0x14861(%rip),%rax        # 244d4 <g_892>
    fc73:	48 89 45 98          	mov    %rax,-0x68(%rbp)
    fc77:	48 8d 05 56 48 01 00 	lea    0x14856(%rip),%rax        # 244d4 <g_892>
    fc7e:	48 89 45 a0          	mov    %rax,-0x60(%rbp)
    fc82:	48 8d 85 d0 ee ff ff 	lea    -0x1130(%rbp),%rax
    fc89:	48 83 c0 0e          	add    $0xe,%rax
    fc8d:	48 89 45 a8          	mov    %rax,-0x58(%rbp)
    fc91:	48 8d 05 3c 48 01 00 	lea    0x1483c(%rip),%rax        # 244d4 <g_892>
    fc98:	48 89 45 b0          	mov    %rax,-0x50(%rbp)
    fc9c:	48 8d 85 d0 ee ff ff 	lea    -0x1130(%rbp),%rax
    fca3:	48 83 c0 36          	add    $0x36,%rax
    fca7:	48 89 45 b8          	mov    %rax,-0x48(%rbp)
    fcab:	c7 85 c4 e8 ff ff 81 	movl   $0x941b181,-0x173c(%rbp)
    fcb2:	b1 41 09 
    fcb5:	c7 85 c8 e8 ff ff 01 	movl   $0x1,-0x1738(%rbp)
    fcbc:	00 00 00 
    fcbf:	8b 85 c4 e7 ff ff    	mov    -0x183c(%rbp),%eax
    fcc5:	41 89 c7             	mov    %eax,%r15d
    fcc8:	0f b6 85 08 e8 ff ff 	movzbl -0x17f8(%rbp),%eax
    fccf:	48 0f be d8          	movsbq %al,%rbx
    fcd3:	48 8b 85 a0 ed ff ff 	mov    -0x1260(%rbp),%rax
    fcda:	48 8d 50 ff          	lea    -0x1(%rax),%rdx
    fcde:	48 89 95 a0 ed ff ff 	mov    %rdx,-0x1260(%rbp)
    fce5:	0f b6 c0             	movzbl %al,%eax
    fce8:	be 04 00 00 00       	mov    $0x4,%esi
    fced:	89 c7                	mov    %eax,%edi
    fcef:	e8 58 bf ff ff       	callq  bc4c <safe_lshift_func_uint8_t_u_u>
    fcf4:	44 0f b6 e8          	movzbl %al,%r13d
    fcf8:	8b 85 c4 e7 ff ff    	mov    -0x183c(%rbp),%eax
    fcfe:	89 c0                	mov    %eax,%eax
    fd00:	48 89 c6             	mov    %rax,%rsi
    fd03:	bf 00 00 00 00       	mov    $0x0,%edi
    fd08:	e8 ea bc ff ff       	callq  b9f7 <safe_div_func_int64_t_s_s>
    fd0d:	0f b6 c0             	movzbl %al,%eax
    fd10:	be 06 00 00 00       	mov    $0x6,%esi
    fd15:	89 c7                	mov    %eax,%edi
    fd17:	e8 e9 be ff ff       	callq  bc05 <safe_lshift_func_uint8_t_u_s>
    fd1c:	44 0f b6 f0          	movzbl %al,%r14d
    fd20:	48 8b 85 c8 e7 ff ff 	mov    -0x1838(%rbp),%rax
    fd27:	89 85 c0 e7 ff ff    	mov    %eax,-0x1840(%rbp)
    fd2d:	0f b6 05 48 44 01 00 	movzbl 0x14448(%rip),%eax        # 2417c <g_90+0x1c>
    fd34:	66 98                	cbtw   
    fd36:	44 0f b7 e0          	movzwl %ax,%r12d
    fd3a:	8b 85 00 ec ff ff    	mov    -0x1400(%rbp),%eax
    fd40:	89 c2                	mov    %eax,%edx
    fd42:	8b 85 bc e8 ff ff    	mov    -0x1744(%rbp),%eax
    fd48:	89 c6                	mov    %eax,%esi
    fd4a:	89 d7                	mov    %edx,%edi
    fd4c:	e8 ac c1 ff ff       	callq  befd <safe_mod_func_uint32_t_u_u>
    fd51:	98                   	cwtl   
    fd52:	be ff ff ff ff       	mov    $0xffffffff,%esi
    fd57:	89 c7                	mov    %eax,%edi
    fd59:	e8 75 b6 ff ff       	callq  b3d3 <safe_sub_func_int16_t_s_s>
    fd5e:	66 85 c0             	test   %ax,%ax
    fd61:	0f 95 c0             	setne  %al
    fd64:	0f b6 c0             	movzbl %al,%eax
    fd67:	44 89 e6             	mov    %r12d,%esi
    fd6a:	89 c7                	mov    %eax,%edi
    fd6c:	e8 ae bf ff ff       	callq  bd1f <safe_sub_func_uint16_t_u_u>
    fd71:	0f b7 c0             	movzwl %ax,%eax
    fd74:	89 85 c4 e8 ff ff    	mov    %eax,-0x173c(%rbp)
    fd7a:	8b 85 c4 e8 ff ff    	mov    -0x173c(%rbp),%eax
    fd80:	0f b6 c0             	movzbl %al,%eax
    fd83:	8b b5 c0 e7 ff ff    	mov    -0x1840(%rbp),%esi
    fd89:	89 c7                	mov    %eax,%edi
    fd8b:	e8 fd be ff ff       	callq  bc8d <safe_rshift_func_uint8_t_u_s>
    fd90:	44 0f b6 e0          	movzbl %al,%r12d
    fd94:	0f b6 05 bd 48 01 00 	movzbl 0x148bd(%rip),%eax        # 24658 <g_1935>
    fd9b:	83 c8 02             	or     $0x2,%eax
    fd9e:	88 05 b4 48 01 00    	mov    %al,0x148b4(%rip)        # 24658 <g_1935>
    fda4:	0f b6 05 ad 48 01 00 	movzbl 0x148ad(%rip),%eax        # 24658 <g_1935>
    fdab:	0f b6 d0             	movzbl %al,%edx
    fdae:	8b 8d c4 e7 ff ff    	mov    -0x183c(%rbp),%ecx
    fdb4:	8b 85 10 e8 ff ff    	mov    -0x17f0(%rbp),%eax
    fdba:	39 c1                	cmp    %eax,%ecx
    fdbc:	0f 96 c0             	setbe  %al
    fdbf:	0f b6 c0             	movzbl %al,%eax
    fdc2:	89 d6                	mov    %edx,%esi
    fdc4:	89 c7                	mov    %eax,%edi
    fdc6:	e8 05 c1 ff ff       	callq  bed0 <safe_sub_func_uint32_t_u_u>
    fdcb:	83 f8 02             	cmp    $0x2,%eax
    fdce:	0f 94 c0             	sete   %al
    fdd1:	0f b6 c0             	movzbl %al,%eax
    fdd4:	44 89 e6             	mov    %r12d,%esi
    fdd7:	89 c7                	mov    %eax,%edi
    fdd9:	e8 21 b9 ff ff       	callq  b6ff <safe_div_func_int32_t_s_s>
    fdde:	89 c2                	mov    %eax,%edx
    fde0:	8b 85 c4 e7 ff ff    	mov    -0x183c(%rbp),%eax
    fde6:	09 d0                	or     %edx,%eax
    fde8:	85 c0                	test   %eax,%eax
    fdea:	74 11                	je     fdfd <func_36+0x2059>
    fdec:	8b 85 c4 e7 ff ff    	mov    -0x183c(%rbp),%eax
    fdf2:	85 c0                	test   %eax,%eax
    fdf4:	74 07                	je     fdfd <func_36+0x2059>
    fdf6:	ba 01 00 00 00       	mov    $0x1,%edx
    fdfb:	eb 05                	jmp    fe02 <func_36+0x205e>
    fdfd:	ba 00 00 00 00       	mov    $0x0,%edx
    fe02:	48 8b 05 77 74 01 00 	mov    0x17477(%rip),%rax        # 27280 <g_138>
    fe09:	89 10                	mov    %edx,(%rax)
    fe0b:	8b 00                	mov    (%rax),%eax
    fe0d:	89 c6                	mov    %eax,%esi
    fe0f:	bf ff ff ff ff       	mov    $0xffffffff,%edi
    fe14:	e8 ec b7 ff ff       	callq  b605 <safe_sub_func_int32_t_s_s>
    fe19:	8b 95 78 f5 ff ff    	mov    -0xa88(%rbp),%edx
    fe1f:	39 d0                	cmp    %edx,%eax
    fe21:	0f 9e c0             	setle  %al
    fe24:	0f b6 c0             	movzbl %al,%eax
    fe27:	44 31 f0             	xor    %r14d,%eax
    fe2a:	39 85 1c e8 ff ff    	cmp    %eax,-0x17e4(%rbp)
    fe30:	0f 9d c0             	setge  %al
    fe33:	0f b6 c0             	movzbl %al,%eax
    fe36:	41 39 c5             	cmp    %eax,%r13d
    fe39:	0f 94 c0             	sete   %al
    fe3c:	0f b6 c0             	movzbl %al,%eax
    fe3f:	21 85 c8 e8 ff ff    	and    %eax,-0x1738(%rbp)
    fe45:	48 89 de             	mov    %rbx,%rsi
    fe48:	48 bf cd 39 c7 a7 db 	movabs $0x7ab2e6dba7c739cd,%rdi
    fe4f:	e6 b2 7a 
    fe52:	e8 58 c2 ff ff       	callq  c0af <safe_div_func_uint64_t_u_u>
    fe57:	48 3d b5 9b 92 11    	cmp    $0x11929bb5,%rax
    fe5d:	0f 96 c0             	setbe  %al
    fe60:	0f b6 c0             	movzbl %al,%eax
    fe63:	44 89 fe             	mov    %r15d,%esi
    fe66:	89 c7                	mov    %eax,%edi
    fe68:	e8 34 b4 ff ff       	callq  b2a1 <safe_lshift_func_int8_t_s_s>
    fe6d:	0f be c0             	movsbl %al,%eax
    fe70:	89 85 ec e7 ff ff    	mov    %eax,-0x1814(%rbp)
    fe76:	0f b6 85 08 e8 ff ff 	movzbl -0x17f8(%rbp),%eax
    fe7d:	e9 49 22 00 00       	jmpq   120cb <func_36+0x4327>
    fe82:	83 bd 14 e8 ff ff 05 	cmpl   $0x5,-0x17ec(%rbp)
    fe89:	0f 8e 51 e9 ff ff    	jle    e7e0 <func_36+0xa3c>
    fe8f:	bf 00 00 00 00       	mov    $0x0,%edi
    fe94:	e8 ac bc ff ff       	callq  bb45 <safe_unary_minus_func_uint8_t_u>
    fe99:	0f b6 d0             	movzbl %al,%edx
    fe9c:	48 8b 05 c5 7b 01 00 	mov    0x17bc5(%rip),%rax        # 27a68 <g_1162>
    fea3:	8b 00                	mov    (%rax),%eax
    fea5:	89 d6                	mov    %edx,%esi
    fea7:	89 c7                	mov    %eax,%edi
    fea9:	e8 22 c0 ff ff       	callq  bed0 <safe_sub_func_uint32_t_u_u>
    feae:	48 8b 95 10 eb ff ff 	mov    -0x14f0(%rbp),%rdx
    feb5:	0f b7 12             	movzwl (%rdx),%edx
    feb8:	31 d0                	xor    %edx,%eax
    feba:	89 c2                	mov    %eax,%edx
    febc:	48 8b 85 10 eb ff ff 	mov    -0x14f0(%rbp),%rax
    fec3:	66 89 10             	mov    %dx,(%rax)
    fec6:	48 8b 85 10 eb ff ff 	mov    -0x14f0(%rbp),%rax
    fecd:	0f b7 00             	movzwl (%rax),%eax
    fed0:	44 0f bf f0          	movswl %ax,%r14d
    fed4:	8b 85 c4 e7 ff ff    	mov    -0x183c(%rbp),%eax
    feda:	0f bf d8             	movswl %ax,%ebx
    fedd:	48 8b 85 90 f4 ff ff 	mov    -0xb70(%rbp),%rax
    fee4:	44 0f b6 e0          	movzbl %al,%r12d
    fee8:	48 8b 85 c8 e7 ff ff 	mov    -0x1838(%rbp),%rax
    feef:	89 c7                	mov    %eax,%edi
    fef1:	e8 a0 b6 ff ff       	callq  b596 <safe_unary_minus_func_int32_t_s>
    fef6:	8b 85 c4 e7 ff ff    	mov    -0x183c(%rbp),%eax
    fefc:	44 0f bf e8          	movswl %ax,%r13d
    ff00:	48 8b 05 d9 44 01 00 	mov    0x144d9(%rip),%rax        # 243e0 <g_143>
    ff07:	41 89 c7             	mov    %eax,%r15d
    ff0a:	8b 85 1c e8 ff ff    	mov    -0x17e4(%rbp),%eax
    ff10:	98                   	cwtl   
    ff11:	be 0a 00 00 00       	mov    $0xa,%esi
    ff16:	89 c7                	mov    %eax,%edi
    ff18:	e8 0d b6 ff ff       	callq  b52a <safe_rshift_func_int16_t_s_s>
    ff1d:	66 85 c0             	test   %ax,%ax
    ff20:	75 0a                	jne    ff2c <func_36+0x2188>
    ff22:	8b 85 c4 e7 ff ff    	mov    -0x183c(%rbp),%eax
    ff28:	85 c0                	test   %eax,%eax
    ff2a:	74 07                	je     ff33 <func_36+0x218f>
    ff2c:	b8 01 00 00 00       	mov    $0x1,%eax
    ff31:	eb 05                	jmp    ff38 <func_36+0x2194>
    ff33:	b8 00 00 00 00       	mov    $0x0,%eax
    ff38:	0f b7 c0             	movzwl %ax,%eax
    ff3b:	44 89 fe             	mov    %r15d,%esi
    ff3e:	89 c7                	mov    %eax,%edi
    ff40:	e8 79 be ff ff       	callq  bdbe <safe_lshift_func_uint16_t_u_s>
    ff45:	0f b7 c0             	movzwl %ax,%eax
    ff48:	48 39 85 c8 e7 ff ff 	cmp    %rax,-0x1838(%rbp)
    ff4f:	0f 94 c0             	sete   %al
    ff52:	0f b6 c0             	movzbl %al,%eax
    ff55:	44 89 ee             	mov    %r13d,%esi
    ff58:	89 c7                	mov    %eax,%edi
    ff5a:	e8 74 b4 ff ff       	callq  b3d3 <safe_sub_func_int16_t_s_s>
    ff5f:	48 8b 85 20 eb ff ff 	mov    -0x14e0(%rbp),%rax
    ff66:	48 c7 00 00 00 00 00 	movq   $0x0,(%rax)
    ff6d:	48 8b 85 20 eb ff ff 	mov    -0x14e0(%rbp),%rax
    ff74:	48 8b 00             	mov    (%rax),%rax
    ff77:	48 85 c0             	test   %rax,%rax
    ff7a:	74 08                	je     ff84 <func_36+0x21e0>
    ff7c:	8b 85 c4 e7 ff ff    	mov    -0x183c(%rbp),%eax
    ff82:	85 c0                	test   %eax,%eax
    ff84:	83 bd 40 e8 ff ff 00 	cmpl   $0x0,-0x17c0(%rbp)
    ff8b:	74 07                	je     ff94 <func_36+0x21f0>
    ff8d:	b8 01 00 00 00       	mov    $0x1,%eax
    ff92:	eb 05                	jmp    ff99 <func_36+0x21f5>
    ff94:	b8 00 00 00 00       	mov    $0x0,%eax
    ff99:	0f b6 c0             	movzbl %al,%eax
    ff9c:	44 89 e6             	mov    %r12d,%esi
    ff9f:	89 c7                	mov    %eax,%edi
    ffa1:	e8 08 bc ff ff       	callq  bbae <safe_mod_func_uint8_t_u_u>
    ffa6:	48 8b 95 c0 e9 ff ff 	mov    -0x1640(%rbp),%rdx
    ffad:	48 8b 12             	mov    (%rdx),%rdx
    ffb0:	48 8b 0a             	mov    (%rdx),%rcx
    ffb3:	0f b6 d0             	movzbl %al,%edx
    ffb6:	48 8b 85 c0 e9 ff ff 	mov    -0x1640(%rbp),%rax
    ffbd:	48 8b 00             	mov    (%rax),%rax
    ffc0:	48 31 ca             	xor    %rcx,%rdx
    ffc3:	48 89 10             	mov    %rdx,(%rax)
    ffc6:	48 8b 05 6b 76 01 00 	mov    0x1766b(%rip),%rax        # 27638 <g_567>
    ffcd:	48 8b 00             	mov    (%rax),%rax
    ffd0:	48 8b 00             	mov    (%rax),%rax
    ffd3:	48 85 c0             	test   %rax,%rax
    ffd6:	74 12                	je     ffea <func_36+0x2246>
    ffd8:	0f b6 05 17 44 01 00 	movzbl 0x14417(%rip),%eax        # 243f6 <g_315>
    ffdf:	84 c0                	test   %al,%al
    ffe1:	74 07                	je     ffea <func_36+0x2246>
    ffe3:	b8 01 00 00 00       	mov    $0x1,%eax
    ffe8:	eb 05                	jmp    ffef <func_36+0x224b>
    ffea:	b8 00 00 00 00       	mov    $0x0,%eax
    ffef:	be f8 ff ff ff       	mov    $0xfffffff8,%esi
    fff4:	89 c7                	mov    %eax,%edi
    fff6:	e8 04 b7 ff ff       	callq  b6ff <safe_div_func_int32_t_s_s>
    fffb:	0f be c0             	movsbl %al,%eax
    fffe:	be 05 00 00 00       	mov    $0x5,%esi
   10003:	89 c7                	mov    %eax,%edi
   10005:	e8 2b b3 ff ff       	callq  b335 <safe_rshift_func_int8_t_s_s>
   1000a:	66 98                	cbtw   
   1000c:	0f b7 c0             	movzwl %ax,%eax
   1000f:	be 51 aa 00 00       	mov    $0xaa51,%esi
   10014:	89 c7                	mov    %eax,%edi
   10016:	e8 73 bd ff ff       	callq  bd8e <safe_div_func_uint16_t_u_u>
   1001b:	8b 85 c4 e7 ff ff    	mov    -0x183c(%rbp),%eax
   10021:	85 c0                	test   %eax,%eax
   10023:	74 1c                	je     10041 <func_36+0x229d>
   10025:	48 8b 05 14 76 01 00 	mov    0x17614(%rip),%rax        # 27640 <g_566>
   1002c:	48 8b 00             	mov    (%rax),%rax
   1002f:	48 8b 00             	mov    (%rax),%rax
   10032:	48 8b 00             	mov    (%rax),%rax
   10035:	48 85 c0             	test   %rax,%rax
   10038:	74 07                	je     10041 <func_36+0x229d>
   1003a:	b8 01 00 00 00       	mov    $0x1,%eax
   1003f:	eb 05                	jmp    10046 <func_36+0x22a2>
   10041:	b8 00 00 00 00       	mov    $0x0,%eax
   10046:	98                   	cwtl   
   10047:	89 de                	mov    %ebx,%esi
   10049:	89 c7                	mov    %eax,%edi
   1004b:	e8 c6 b3 ff ff       	callq  b416 <safe_mod_func_int16_t_s_s>
   10050:	0f bf d0             	movswl %ax,%edx
   10053:	8b 85 10 e8 ff ff    	mov    -0x17f0(%rbp),%eax
   10059:	89 d6                	mov    %edx,%esi
   1005b:	89 c7                	mov    %eax,%edi
   1005d:	e8 a3 b5 ff ff       	callq  b605 <safe_sub_func_int32_t_s_s>
   10062:	41 39 c6             	cmp    %eax,%r14d
   10065:	0f 9d c0             	setge  %al
   10068:	0f b6 d0             	movzbl %al,%edx
   1006b:	0f b6 05 62 44 01 00 	movzbl 0x14462(%rip),%eax        # 244d4 <g_892>
   10072:	0f b6 c0             	movzbl %al,%eax
   10075:	39 c2                	cmp    %eax,%edx
   10077:	0f 9c c0             	setl   %al
   1007a:	0f b6 c8             	movzbl %al,%ecx
   1007d:	48 8b 05 fc 71 01 00 	mov    0x171fc(%rip),%rax        # 27280 <g_138>
   10084:	8b 10                	mov    (%rax),%edx
   10086:	48 8b 05 f3 71 01 00 	mov    0x171f3(%rip),%rax        # 27280 <g_138>
   1008d:	21 ca                	and    %ecx,%edx
   1008f:	89 10                	mov    %edx,(%rax)
   10091:	e9 44 09 00 00       	jmpq   109da <func_36+0x2c36>
   10096:	c7 85 04 e8 ff ff 03 	movl   $0x3,-0x17fc(%rbp)
   1009d:	00 00 00 
   100a0:	c6 85 80 ed ff ff ce 	movb   $0xce,-0x1280(%rbp)
   100a7:	c6 85 81 ed ff ff ce 	movb   $0xce,-0x127f(%rbp)
   100ae:	c6 85 82 ed ff ff ce 	movb   $0xce,-0x127e(%rbp)
   100b5:	c6 85 83 ed ff ff ce 	movb   $0xce,-0x127d(%rbp)
   100bc:	c6 85 84 ed ff ff ce 	movb   $0xce,-0x127c(%rbp)
   100c3:	c6 85 85 ed ff ff ce 	movb   $0xce,-0x127b(%rbp)
   100ca:	c6 85 86 ed ff ff ce 	movb   $0xce,-0x127a(%rbp)
   100d1:	c6 85 87 ed ff ff ce 	movb   $0xce,-0x1279(%rbp)
   100d8:	c6 85 88 ed ff ff ce 	movb   $0xce,-0x1278(%rbp)
   100df:	48 c7 85 a0 e9 ff ff 	movq   $0x0,-0x1660(%rbp)
   100e6:	00 00 00 00 
   100ea:	48 8d 85 a0 e9 ff ff 	lea    -0x1660(%rbp),%rax
   100f1:	48 89 85 88 ea ff ff 	mov    %rax,-0x1578(%rbp)
   100f8:	48 8d 05 41 72 01 00 	lea    0x17241(%rip),%rax        # 27340 <g_297+0xa0>
   100ff:	48 89 85 a8 e9 ff ff 	mov    %rax,-0x1658(%rbp)
   10106:	48 8d 85 a8 e9 ff ff 	lea    -0x1658(%rbp),%rax
   1010d:	48 89 85 b0 e9 ff ff 	mov    %rax,-0x1650(%rbp)
   10114:	48 8d 85 b0 e9 ff ff 	lea    -0x1650(%rbp),%rax
   1011b:	48 89 85 60 ef ff ff 	mov    %rax,-0x10a0(%rbp)
   10122:	48 8d 85 b0 e9 ff ff 	lea    -0x1650(%rbp),%rax
   10129:	48 89 85 68 ef ff ff 	mov    %rax,-0x1098(%rbp)
   10130:	48 8d 85 b0 e9 ff ff 	lea    -0x1650(%rbp),%rax
   10137:	48 89 85 70 ef ff ff 	mov    %rax,-0x1090(%rbp)
   1013e:	48 8d 85 b0 e9 ff ff 	lea    -0x1650(%rbp),%rax
   10145:	48 89 85 78 ef ff ff 	mov    %rax,-0x1088(%rbp)
   1014c:	48 8d 85 b0 e9 ff ff 	lea    -0x1650(%rbp),%rax
   10153:	48 89 85 80 ef ff ff 	mov    %rax,-0x1080(%rbp)
   1015a:	48 8d 85 b0 e9 ff ff 	lea    -0x1650(%rbp),%rax
   10161:	48 89 85 88 ef ff ff 	mov    %rax,-0x1078(%rbp)
   10168:	48 8d 85 b0 e9 ff ff 	lea    -0x1650(%rbp),%rax
   1016f:	48 89 85 90 ef ff ff 	mov    %rax,-0x1070(%rbp)
   10176:	48 8d 85 b0 e9 ff ff 	lea    -0x1650(%rbp),%rax
   1017d:	48 89 85 98 ef ff ff 	mov    %rax,-0x1068(%rbp)
   10184:	48 8d 85 b0 e9 ff ff 	lea    -0x1650(%rbp),%rax
   1018b:	48 89 85 a0 ef ff ff 	mov    %rax,-0x1060(%rbp)
   10192:	48 8d 85 b0 e9 ff ff 	lea    -0x1650(%rbp),%rax
   10199:	48 89 85 a8 ef ff ff 	mov    %rax,-0x1058(%rbp)
   101a0:	48 8d 85 b0 e9 ff ff 	lea    -0x1650(%rbp),%rax
   101a7:	48 89 85 b0 ef ff ff 	mov    %rax,-0x1050(%rbp)
   101ae:	48 8d 85 b0 e9 ff ff 	lea    -0x1650(%rbp),%rax
   101b5:	48 89 85 b8 ef ff ff 	mov    %rax,-0x1048(%rbp)
   101bc:	48 8d 85 b0 e9 ff ff 	lea    -0x1650(%rbp),%rax
   101c3:	48 89 85 c0 ef ff ff 	mov    %rax,-0x1040(%rbp)
   101ca:	48 8d 85 b0 e9 ff ff 	lea    -0x1650(%rbp),%rax
   101d1:	48 89 85 c8 ef ff ff 	mov    %rax,-0x1038(%rbp)
   101d8:	c7 05 ee 42 01 00 00 	movl   $0x0,0x142ee(%rip)        # 244d0 <g_747>
   101df:	00 00 00 
   101e2:	e9 e4 07 00 00       	jmpq   109cb <func_36+0x2c27>
   101e7:	48 8d 05 e6 42 01 00 	lea    0x142e6(%rip),%rax        # 244d4 <g_892>
   101ee:	48 89 85 d0 ee ff ff 	mov    %rax,-0x1130(%rbp)
   101f5:	48 8d 05 d8 42 01 00 	lea    0x142d8(%rip),%rax        # 244d4 <g_892>
   101fc:	48 89 85 d8 ee ff ff 	mov    %rax,-0x1128(%rbp)
   10203:	48 8d 05 ca 42 01 00 	lea    0x142ca(%rip),%rax        # 244d4 <g_892>
   1020a:	48 89 85 e0 ee ff ff 	mov    %rax,-0x1120(%rbp)
   10211:	48 8d 05 bc 42 01 00 	lea    0x142bc(%rip),%rax        # 244d4 <g_892>
   10218:	48 89 85 e8 ee ff ff 	mov    %rax,-0x1118(%rbp)
   1021f:	48 8d 05 ae 42 01 00 	lea    0x142ae(%rip),%rax        # 244d4 <g_892>
   10226:	48 89 85 f0 ee ff ff 	mov    %rax,-0x1110(%rbp)
   1022d:	48 8d 05 a0 42 01 00 	lea    0x142a0(%rip),%rax        # 244d4 <g_892>
   10234:	48 89 85 f8 ee ff ff 	mov    %rax,-0x1108(%rbp)
   1023b:	48 8d 05 92 42 01 00 	lea    0x14292(%rip),%rax        # 244d4 <g_892>
   10242:	48 89 85 00 ef ff ff 	mov    %rax,-0x1100(%rbp)
   10249:	48 8d 05 84 42 01 00 	lea    0x14284(%rip),%rax        # 244d4 <g_892>
   10250:	48 89 85 08 ef ff ff 	mov    %rax,-0x10f8(%rbp)
   10257:	48 8d 05 76 42 01 00 	lea    0x14276(%rip),%rax        # 244d4 <g_892>
   1025e:	48 89 85 10 ef ff ff 	mov    %rax,-0x10f0(%rbp)
   10265:	48 8d 05 68 42 01 00 	lea    0x14268(%rip),%rax        # 244d4 <g_892>
   1026c:	48 89 85 18 ef ff ff 	mov    %rax,-0x10e8(%rbp)
   10273:	48 8d 85 d0 ee ff ff 	lea    -0x1130(%rbp),%rax
   1027a:	48 83 c0 18          	add    $0x18,%rax
   1027e:	48 89 85 b8 e9 ff ff 	mov    %rax,-0x1648(%rbp)
   10285:	48 8d 85 f0 f0 ff ff 	lea    -0xf10(%rbp),%rax
   1028c:	48 83 c0 38          	add    $0x38,%rax
   10290:	48 89 85 90 ea ff ff 	mov    %rax,-0x1570(%rbp)
   10297:	48 8d 85 f8 e7 ff ff 	lea    -0x1808(%rbp),%rax
   1029e:	48 89 85 c0 e9 ff ff 	mov    %rax,-0x1640(%rbp)
   102a5:	48 8d 05 94 70 01 00 	lea    0x17094(%rip),%rax        # 27340 <g_297+0xa0>
   102ac:	48 89 85 98 ea ff ff 	mov    %rax,-0x1568(%rbp)
   102b3:	c7 85 28 e8 ff ff 00 	movl   $0x0,-0x17d8(%rbp)
   102ba:	00 00 00 
   102bd:	eb 52                	jmp    10311 <func_36+0x256d>
   102bf:	c7 85 2c e8 ff ff 00 	movl   $0x0,-0x17d4(%rbp)
   102c6:	00 00 00 
   102c9:	eb 36                	jmp    10301 <func_36+0x255d>
   102cb:	8b 85 2c e8 ff ff    	mov    -0x17d4(%rbp),%eax
   102d1:	48 63 c8             	movslq %eax,%rcx
   102d4:	8b 85 28 e8 ff ff    	mov    -0x17d8(%rbp),%eax
   102da:	48 63 d0             	movslq %eax,%rdx
   102dd:	48 89 d0             	mov    %rdx,%rax
   102e0:	48 c1 e0 02          	shl    $0x2,%rax
   102e4:	48 01 d0             	add    %rdx,%rax
   102e7:	48 8d 14 08          	lea    (%rax,%rcx,1),%rdx
   102eb:	48 8d 85 b8 e9 ff ff 	lea    -0x1648(%rbp),%rax
   102f2:	48 89 84 d5 f0 f0 ff 	mov    %rax,-0xf10(%rbp,%rdx,8)
   102f9:	ff 
   102fa:	83 85 2c e8 ff ff 01 	addl   $0x1,-0x17d4(%rbp)
   10301:	83 bd 2c e8 ff ff 04 	cmpl   $0x4,-0x17d4(%rbp)
   10308:	7e c1                	jle    102cb <func_36+0x2527>
   1030a:	83 85 28 e8 ff ff 01 	addl   $0x1,-0x17d8(%rbp)
   10311:	83 bd 28 e8 ff ff 03 	cmpl   $0x3,-0x17d8(%rbp)
   10318:	7e a5                	jle    102bf <func_36+0x251b>
   1031a:	8b 05 b0 41 01 00    	mov    0x141b0(%rip),%eax        # 244d0 <g_747>
   10320:	89 c0                	mov    %eax,%eax
   10322:	48 8d 14 c5 00 00 00 	lea    0x0(,%rax,8),%rdx
   10329:	00 
   1032a:	48 8d 05 2f 41 01 00 	lea    0x1412f(%rip),%rax        # 24460 <g_569>
   10331:	48 8b 04 02          	mov    (%rdx,%rax,1),%rax
   10335:	89 c2                	mov    %eax,%edx
   10337:	8b 85 04 e8 ff ff    	mov    -0x17fc(%rbp),%eax
   1033d:	21 d0                	and    %edx,%eax
   1033f:	89 85 04 e8 ff ff    	mov    %eax,-0x17fc(%rbp)
   10345:	48 83 bd 90 ea ff ff 	cmpq   $0x0,-0x1570(%rbp)
   1034c:	00 
   1034d:	75 13                	jne    10362 <func_36+0x25be>
   1034f:	48 8d 85 04 e8 ff ff 	lea    -0x17fc(%rbp),%rax
   10356:	48 89 85 c0 e9 ff ff 	mov    %rax,-0x1640(%rbp)
   1035d:	e9 ec 00 00 00       	jmpq   1044e <func_36+0x26aa>
   10362:	c7 85 30 e8 ff ff 00 	movl   $0x0,-0x17d0(%rbp)
   10369:	00 00 00 
   1036c:	eb 1a                	jmp    10388 <func_36+0x25e4>
   1036e:	8b 85 30 e8 ff ff    	mov    -0x17d0(%rbp),%eax
   10374:	48 98                	cltq   
   10376:	c7 84 85 f0 f7 ff ff 	movl   $0xf70c5360,-0x810(%rbp,%rax,4)
   1037d:	60 53 0c f7 
   10381:	83 85 30 e8 ff ff 01 	addl   $0x1,-0x17d0(%rbp)
   10388:	83 bd 30 e8 ff ff 02 	cmpl   $0x2,-0x17d0(%rbp)
   1038f:	7e dd                	jle    1036e <func_36+0x25ca>
   10391:	c7 85 ec e7 ff ff 00 	movl   $0x0,-0x1814(%rbp)
   10398:	00 00 00 
   1039b:	eb 1c                	jmp    103b9 <func_36+0x2615>
   1039d:	48 8b 85 c0 e9 ff ff 	mov    -0x1640(%rbp),%rax
   103a4:	c7 00 2d aa f0 3e    	movl   $0x3ef0aa2d,(%rax)
   103aa:	8b 85 ec e7 ff ff    	mov    -0x1814(%rbp),%eax
   103b0:	83 c0 01             	add    $0x1,%eax
   103b3:	89 85 ec e7 ff ff    	mov    %eax,-0x1814(%rbp)
   103b9:	8b 85 ec e7 ff ff    	mov    -0x1814(%rbp),%eax
   103bf:	83 f8 02             	cmp    $0x2,%eax
   103c2:	7e d9                	jle    1039d <func_36+0x25f9>
   103c4:	c7 05 5a 3d 01 00 02 	movl   $0x2,0x13d5a(%rip)        # 24128 <g_18>
   103cb:	00 00 00 
   103ce:	90                   	nop
   103cf:	8b 05 53 3d 01 00    	mov    0x13d53(%rip),%eax        # 24128 <g_18>
   103d5:	85 c0                	test   %eax,%eax
   103d7:	78 0c                	js     103e5 <func_36+0x2641>
   103d9:	0f b6 85 84 ed ff ff 	movzbl -0x127c(%rbp),%eax
   103e0:	e9 e6 1c 00 00       	jmpq   120cb <func_36+0x4327>
   103e5:	c7 85 10 e8 ff ff 01 	movl   $0x1,-0x17f0(%rbp)
   103ec:	00 00 00 
   103ef:	eb 30                	jmp    10421 <func_36+0x267d>
   103f1:	8b 05 d9 40 01 00    	mov    0x140d9(%rip),%eax        # 244d0 <g_747>
   103f7:	89 c0                	mov    %eax,%eax
   103f9:	48 8d 14 c5 00 00 00 	lea    0x0(,%rax,8),%rdx
   10400:	00 
   10401:	48 8d 05 58 40 01 00 	lea    0x14058(%rip),%rax        # 24460 <g_569>
   10408:	48 8b 14 02          	mov    (%rdx,%rax,1),%rdx
   1040c:	8b 85 f0 f7 ff ff    	mov    -0x810(%rbp),%eax
   10412:	31 d0                	xor    %edx,%eax
   10414:	89 85 f0 f7 ff ff    	mov    %eax,-0x810(%rbp)
   1041a:	83 ad 10 e8 ff ff 01 	subl   $0x1,-0x17f0(%rbp)
   10421:	83 bd 10 e8 ff ff 00 	cmpl   $0x0,-0x17f0(%rbp)
   10428:	79 c7                	jns    103f1 <func_36+0x264d>
   1042a:	8b 05 a0 40 01 00    	mov    0x140a0(%rip),%eax        # 244d0 <g_747>
   10430:	89 c0                	mov    %eax,%eax
   10432:	48 8d 14 c5 00 00 00 	lea    0x0(,%rax,8),%rdx
   10439:	00 
   1043a:	48 8d 05 1f 40 01 00 	lea    0x1401f(%rip),%rax        # 24460 <g_569>
   10441:	48 8b 14 02          	mov    (%rdx,%rax,1),%rdx
   10445:	48 8b 05 7c 7b 01 00 	mov    0x17b7c(%rip),%rax        # 27fc8 <g_1685>
   1044c:	89 10                	mov    %edx,(%rax)
   1044e:	8b 05 7c 40 01 00    	mov    0x1407c(%rip),%eax        # 244d0 <g_747>
   10454:	89 c0                	mov    %eax,%eax
   10456:	48 8d 14 c5 00 00 00 	lea    0x0(,%rax,8),%rdx
   1045d:	00 
   1045e:	48 8d 05 fb 3f 01 00 	lea    0x13ffb(%rip),%rax        # 24460 <g_569>
   10465:	48 8b 04 02          	mov    (%rdx,%rax,1),%rax
   10469:	48 8d 85 c4 e7 ff ff 	lea    -0x183c(%rbp),%rax
   10470:	48 89 85 70 ea ff ff 	mov    %rax,-0x1590(%rbp)
   10477:	48 8d 85 c4 e7 ff ff 	lea    -0x183c(%rbp),%rax
   1047e:	48 39 85 68 ea ff ff 	cmp    %rax,-0x1598(%rbp)
   10485:	0f 85 3e 02 00 00    	jne    106c9 <func_36+0x2925>
   1048b:	c6 85 df e7 ff ff 9d 	movb   $0x9d,-0x1821(%rbp)
   10492:	48 8d 05 ec 3c 01 00 	lea    0x13cec(%rip),%rax        # 24185 <g_90+0x25>
   10499:	48 89 85 a0 ea ff ff 	mov    %rax,-0x1560(%rbp)
   104a0:	c7 85 90 e8 ff ff e2 	movl   $0xf70b97e2,-0x1770(%rbp)
   104a7:	97 0b f7 
   104aa:	48 c7 85 c8 e7 ff ff 	movq   $0x0,-0x1838(%rbp)
   104b1:	00 00 00 00 
   104b5:	e9 fc 01 00 00       	jmpq   106b6 <func_36+0x2912>
   104ba:	8b 85 08 e8 ff ff    	mov    -0x17f8(%rbp),%eax
   104c0:	25 00 00 f0 ff       	and    $0xfff00000,%eax
   104c5:	89 85 08 e8 ff ff    	mov    %eax,-0x17f8(%rbp)
   104cb:	48 c7 85 c8 ea ff ff 	movq   $0x0,-0x1538(%rbp)
   104d2:	00 00 00 00 
   104d6:	48 8d 05 83 71 01 00 	lea    0x17183(%rip),%rax        # 27660 <g_843>
   104dd:	48 89 85 d0 ea ff ff 	mov    %rax,-0x1530(%rbp)
   104e4:	48 8d 85 e8 e7 ff ff 	lea    -0x1818(%rbp),%rax
   104eb:	48 89 85 d8 ea ff ff 	mov    %rax,-0x1528(%rbp)
   104f2:	48 8d 85 c0 e9 ff ff 	lea    -0x1640(%rbp),%rax
   104f9:	48 89 85 e0 ea ff ff 	mov    %rax,-0x1520(%rbp)
   10500:	48 8d 05 a9 6e 01 00 	lea    0x16ea9(%rip),%rax        # 273b0 <g_297+0x110>
   10507:	48 89 85 c8 e9 ff ff 	mov    %rax,-0x1638(%rbp)
   1050e:	48 8d 85 c8 e9 ff ff 	lea    -0x1638(%rbp),%rax
   10515:	48 89 85 d0 e9 ff ff 	mov    %rax,-0x1630(%rbp)
   1051c:	48 8d 85 d0 e9 ff ff 	lea    -0x1630(%rbp),%rax
   10523:	48 89 85 f0 f7 ff ff 	mov    %rax,-0x810(%rbp)
   1052a:	48 c7 85 f8 f7 ff ff 	movq   $0x0,-0x808(%rbp)
   10531:	00 00 00 00 
   10535:	48 8d 85 d0 e9 ff ff 	lea    -0x1630(%rbp),%rax
   1053c:	48 89 85 00 f8 ff ff 	mov    %rax,-0x800(%rbp)
   10543:	48 8d 85 d0 e9 ff ff 	lea    -0x1630(%rbp),%rax
   1054a:	48 89 85 08 f8 ff ff 	mov    %rax,-0x7f8(%rbp)
   10551:	48 8d 85 d0 e9 ff ff 	lea    -0x1630(%rbp),%rax
   10558:	48 89 85 10 f8 ff ff 	mov    %rax,-0x7f0(%rbp)
   1055f:	48 8d 85 d0 e9 ff ff 	lea    -0x1630(%rbp),%rax
   10566:	48 89 85 18 f8 ff ff 	mov    %rax,-0x7e8(%rbp)
   1056d:	48 c7 85 20 f8 ff ff 	movq   $0x0,-0x7e0(%rbp)
   10574:	00 00 00 00 
   10578:	48 8d 85 d0 e9 ff ff 	lea    -0x1630(%rbp),%rax
   1057f:	48 89 85 28 f8 ff ff 	mov    %rax,-0x7d8(%rbp)
   10586:	48 c7 85 30 f8 ff ff 	movq   $0x0,-0x7d0(%rbp)
   1058d:	00 00 00 00 
   10591:	48 8d 85 d0 e9 ff ff 	lea    -0x1630(%rbp),%rax
   10598:	48 89 85 38 f8 ff ff 	mov    %rax,-0x7c8(%rbp)
   1059f:	48 8d 85 d0 e9 ff ff 	lea    -0x1630(%rbp),%rax
   105a6:	48 89 85 40 f8 ff ff 	mov    %rax,-0x7c0(%rbp)
   105ad:	48 c7 85 48 f8 ff ff 	movq   $0x0,-0x7b8(%rbp)
   105b4:	00 00 00 00 
   105b8:	48 8d 85 d0 e9 ff ff 	lea    -0x1630(%rbp),%rax
   105bf:	48 89 85 50 f8 ff ff 	mov    %rax,-0x7b0(%rbp)
   105c6:	48 c7 85 58 f8 ff ff 	movq   $0x0,-0x7a8(%rbp)
   105cd:	00 00 00 00 
   105d1:	48 8d 85 d0 e9 ff ff 	lea    -0x1630(%rbp),%rax
   105d8:	48 89 85 60 f8 ff ff 	mov    %rax,-0x7a0(%rbp)
   105df:	48 8d 85 d0 e9 ff ff 	lea    -0x1630(%rbp),%rax
   105e6:	48 89 85 68 f8 ff ff 	mov    %rax,-0x798(%rbp)
   105ed:	48 8d 85 d0 e9 ff ff 	lea    -0x1630(%rbp),%rax
   105f4:	48 89 85 70 f8 ff ff 	mov    %rax,-0x790(%rbp)
   105fb:	48 8d 85 d0 e9 ff ff 	lea    -0x1630(%rbp),%rax
   10602:	48 89 85 78 f8 ff ff 	mov    %rax,-0x788(%rbp)
   10609:	48 c7 85 80 f8 ff ff 	movq   $0x0,-0x780(%rbp)
   10610:	00 00 00 00 
   10614:	48 8d 85 d0 e9 ff ff 	lea    -0x1630(%rbp),%rax
   1061b:	48 89 85 88 f8 ff ff 	mov    %rax,-0x778(%rbp)
   10622:	48 8d 85 d0 e9 ff ff 	lea    -0x1630(%rbp),%rax
   10629:	48 89 85 90 f8 ff ff 	mov    %rax,-0x770(%rbp)
   10630:	48 8d 85 f8 e7 ff ff 	lea    -0x1808(%rbp),%rax
   10637:	48 89 85 e8 ea ff ff 	mov    %rax,-0x1518(%rbp)
   1063e:	48 8d 05 b3 3e 01 00 	lea    0x13eb3(%rip),%rax        # 244f8 <g_1387+0x8>
   10645:	48 89 85 d0 ed ff ff 	mov    %rax,-0x1230(%rbp)
   1064c:	48 8d 05 a5 3e 01 00 	lea    0x13ea5(%rip),%rax        # 244f8 <g_1387+0x8>
   10653:	48 89 85 d8 ed ff ff 	mov    %rax,-0x1228(%rbp)
   1065a:	48 8d 05 97 3e 01 00 	lea    0x13e97(%rip),%rax        # 244f8 <g_1387+0x8>
   10661:	48 89 85 e0 ed ff ff 	mov    %rax,-0x1220(%rbp)
   10668:	48 8d 05 89 3e 01 00 	lea    0x13e89(%rip),%rax        # 244f8 <g_1387+0x8>
   1066f:	48 89 85 e8 ed ff ff 	mov    %rax,-0x1218(%rbp)
   10676:	48 8d 05 7b 3e 01 00 	lea    0x13e7b(%rip),%rax        # 244f8 <g_1387+0x8>
   1067d:	48 89 85 f0 ed ff ff 	mov    %rax,-0x1210(%rbp)
   10684:	48 8d 05 6d 3e 01 00 	lea    0x13e6d(%rip),%rax        # 244f8 <g_1387+0x8>
   1068b:	48 89 85 f8 ed ff ff 	mov    %rax,-0x1208(%rbp)
   10692:	48 8d 05 5f 3e 01 00 	lea    0x13e5f(%rip),%rax        # 244f8 <g_1387+0x8>
   10699:	48 89 85 00 ee ff ff 	mov    %rax,-0x1200(%rbp)
   106a0:	48 8d 05 51 3e 01 00 	lea    0x13e51(%rip),%rax        # 244f8 <g_1387+0x8>
   106a7:	48 89 85 08 ee ff ff 	mov    %rax,-0x11f8(%rbp)
   106ae:	48 83 85 c8 e7 ff ff 	addq   $0x1,-0x1838(%rbp)
   106b5:	01 
   106b6:	48 83 bd c8 e7 ff ff 	cmpq   $0x2,-0x1838(%rbp)
   106bd:	02 
   106be:	0f 8e f6 fd ff ff    	jle    104ba <func_36+0x2716>
   106c4:	e9 bb 00 00 00       	jmpq   10784 <func_36+0x29e0>
   106c9:	48 8d 05 34 3a 01 00 	lea    0x13a34(%rip),%rax        # 24104 <g_3+0x4>
   106d0:	48 89 85 f0 f7 ff ff 	mov    %rax,-0x810(%rbp)
   106d7:	48 8d 85 f4 e7 ff ff 	lea    -0x180c(%rbp),%rax
   106de:	48 89 85 f8 f7 ff ff 	mov    %rax,-0x808(%rbp)
   106e5:	48 8d 85 f4 e7 ff ff 	lea    -0x180c(%rbp),%rax
   106ec:	48 89 85 00 f8 ff ff 	mov    %rax,-0x800(%rbp)
   106f3:	48 8d 05 0a 3a 01 00 	lea    0x13a0a(%rip),%rax        # 24104 <g_3+0x4>
   106fa:	48 89 85 08 f8 ff ff 	mov    %rax,-0x7f8(%rbp)
   10701:	48 8d 85 f4 e7 ff ff 	lea    -0x180c(%rbp),%rax
   10708:	48 89 85 10 f8 ff ff 	mov    %rax,-0x7f0(%rbp)
   1070f:	48 8d 85 f4 e7 ff ff 	lea    -0x180c(%rbp),%rax
   10716:	48 89 85 18 f8 ff ff 	mov    %rax,-0x7e8(%rbp)
   1071d:	48 8d 05 e0 39 01 00 	lea    0x139e0(%rip),%rax        # 24104 <g_3+0x4>
   10724:	48 89 85 20 f8 ff ff 	mov    %rax,-0x7e0(%rbp)
   1072b:	c6 85 d0 e9 ff ff fc 	movb   $0xfc,-0x1630(%rbp)
   10732:	c6 05 b3 3c 01 00 00 	movb   $0x0,0x13cb3(%rip)        # 243ec <g_161>
   10739:	eb 1e                	jmp    10759 <func_36+0x29b5>
   1073b:	48 8d 85 04 e8 ff ff 	lea    -0x17fc(%rbp),%rax
   10742:	48 89 85 20 f8 ff ff 	mov    %rax,-0x7e0(%rbp)
   10749:	0f b6 05 9c 3c 01 00 	movzbl 0x13c9c(%rip),%eax        # 243ec <g_161>
   10750:	83 c0 01             	add    $0x1,%eax
   10753:	88 05 93 3c 01 00    	mov    %al,0x13c93(%rip)        # 243ec <g_161>
   10759:	0f b6 05 8c 3c 01 00 	movzbl 0x13c8c(%rip),%eax        # 243ec <g_161>
   10760:	3c 02                	cmp    $0x2,%al
   10762:	76 d7                	jbe    1073b <func_36+0x2997>
   10764:	48 8b 05 e5 72 01 00 	mov    0x172e5(%rip),%rax        # 27a50 <g_1091>
   1076b:	48 8b 00             	mov    (%rax),%rax
   1076e:	8b 00                	mov    (%rax),%eax
   10770:	85 c0                	test   %eax,%eax
   10772:	0f 85 62 02 00 00    	jne    109da <func_36+0x2c36>
   10778:	0f b6 85 d0 e9 ff ff 	movzbl -0x1630(%rbp),%eax
   1077f:	e9 47 19 00 00       	jmpq   120cb <func_36+0x4327>
   10784:	c7 85 c4 e7 ff ff 00 	movl   $0x0,-0x183c(%rbp)
   1078b:	00 00 00 
   1078e:	e9 1a 02 00 00       	jmpq   109ad <func_36+0x2c09>
   10793:	8b 85 d0 e9 ff ff    	mov    -0x1630(%rbp),%eax
   10799:	25 00 00 f0 ff       	and    $0xfff00000,%eax
   1079e:	0d c7 1b 06 00       	or     $0x61bc7,%eax
   107a3:	89 85 d0 e9 ff ff    	mov    %eax,-0x1630(%rbp)
   107a9:	c7 85 7c e8 ff ff 00 	movl   $0x0,-0x1784(%rbp)
   107b0:	00 00 00 
   107b3:	83 bd 7c e8 ff ff 01 	cmpl   $0x1,-0x1784(%rbp)
   107ba:	7f 0c                	jg     107c8 <func_36+0x2a24>
   107bc:	0f b6 85 dd e7 ff ff 	movzbl -0x1823(%rbp),%eax
   107c3:	e9 03 19 00 00       	jmpq   120cb <func_36+0x4327>
   107c8:	c7 05 6e 39 01 00 00 	movl   $0x0,0x1396e(%rip)        # 24140 <g_74>
   107cf:	00 00 00 
   107d2:	eb 56                	jmp    1082a <func_36+0x2a86>
   107d4:	48 8b 85 08 ed ff ff 	mov    -0x12f8(%rbp),%rax
   107db:	48 39 85 98 ea ff ff 	cmp    %rax,-0x1568(%rbp)
   107e2:	0f 94 c2             	sete   %dl
   107e5:	8b 0d 55 39 01 00    	mov    0x13955(%rip),%ecx        # 24140 <g_74>
   107eb:	8b 85 c4 e7 ff ff    	mov    -0x183c(%rbp),%eax
   107f1:	8d 78 06             	lea    0x6(%rax),%edi
   107f4:	8b 05 46 39 01 00    	mov    0x13946(%rip),%eax        # 24140 <g_74>
   107fa:	8d 70 05             	lea    0x5(%rax),%esi
   107fd:	0f b6 c2             	movzbl %dl,%eax
   10800:	89 f6                	mov    %esi,%esi
   10802:	89 ca                	mov    %ecx,%edx
   10804:	89 f9                	mov    %edi,%ecx
   10806:	48 c1 e2 03          	shl    $0x3,%rdx
   1080a:	48 01 ca             	add    %rcx,%rdx
   1080d:	48 c1 e2 03          	shl    $0x3,%rdx
   10811:	48 01 f2             	add    %rsi,%rdx
   10814:	89 84 95 f0 f4 ff ff 	mov    %eax,-0xb10(%rbp,%rdx,4)
   1081b:	8b 05 1f 39 01 00    	mov    0x1391f(%rip),%eax        # 24140 <g_74>
   10821:	83 c0 01             	add    $0x1,%eax
   10824:	89 05 16 39 01 00    	mov    %eax,0x13916(%rip)        # 24140 <g_74>
   1082a:	8b 05 10 39 01 00    	mov    0x13910(%rip),%eax        # 24140 <g_74>
   10830:	83 f8 02             	cmp    $0x2,%eax
   10833:	76 9f                	jbe    107d4 <func_36+0x2a30>
   10835:	c7 05 55 39 01 00 01 	movl   $0x1,0x13955(%rip)        # 24194 <g_133>
   1083c:	00 00 00 
   1083f:	e9 8d 00 00 00       	jmpq   108d1 <func_36+0x2b2d>
   10844:	c6 85 f0 f7 ff ff 09 	movb   $0x9,-0x810(%rbp)
   1084b:	c6 85 f1 f7 ff ff a2 	movb   $0xa2,-0x80f(%rbp)
   10852:	c6 85 f2 f7 ff ff 09 	movb   $0x9,-0x80e(%rbp)
   10859:	c6 85 f3 f7 ff ff 09 	movb   $0x9,-0x80d(%rbp)
   10860:	c6 85 f4 f7 ff ff a2 	movb   $0xa2,-0x80c(%rbp)
   10867:	c6 85 f5 f7 ff ff 09 	movb   $0x9,-0x80b(%rbp)
   1086e:	c6 85 f6 f7 ff ff 09 	movb   $0x9,-0x80a(%rbp)
   10875:	c6 85 f7 f7 ff ff a2 	movb   $0xa2,-0x809(%rbp)
   1087c:	c6 85 f8 f7 ff ff 09 	movb   $0x9,-0x808(%rbp)
   10883:	c6 85 f9 f7 ff ff 09 	movb   $0x9,-0x807(%rbp)
   1088a:	48 8d 05 c7 3d 01 00 	lea    0x13dc7(%rip),%rax        # 24658 <g_1935>
   10891:	48 89 85 a8 ea ff ff 	mov    %rax,-0x1558(%rbp)
   10898:	48 8d 05 f3 38 01 00 	lea    0x138f3(%rip),%rax        # 24192 <g_129>
   1089f:	48 89 85 b0 ea ff ff 	mov    %rax,-0x1550(%rbp)
   108a6:	48 8d 85 e8 e7 ff ff 	lea    -0x1818(%rbp),%rax
   108ad:	48 89 85 b8 ea ff ff 	mov    %rax,-0x1548(%rbp)
   108b4:	48 8d 85 c0 e9 ff ff 	lea    -0x1640(%rbp),%rax
   108bb:	48 89 85 c0 ea ff ff 	mov    %rax,-0x1540(%rbp)
   108c2:	8b 05 cc 38 01 00    	mov    0x138cc(%rip),%eax        # 24194 <g_133>
   108c8:	83 e8 01             	sub    $0x1,%eax
   108cb:	89 05 c3 38 01 00    	mov    %eax,0x138c3(%rip)        # 24194 <g_133>
   108d1:	8b 05 bd 38 01 00    	mov    0x138bd(%rip),%eax        # 24194 <g_133>
   108d7:	85 c0                	test   %eax,%eax
   108d9:	0f 89 65 ff ff ff    	jns    10844 <func_36+0x2aa0>
   108df:	48 8b 85 c0 e9 ff ff 	mov    -0x1640(%rbp),%rax
   108e6:	8b 00                	mov    (%rax),%eax
   108e8:	85 c0                	test   %eax,%eax
   108ea:	0f 85 ad 00 00 00    	jne    1099d <func_36+0x2bf9>
   108f0:	c6 85 de e7 ff ff 00 	movb   $0x0,-0x1822(%rbp)
   108f7:	e9 90 00 00 00       	jmpq   1098c <func_36+0x2be8>
   108fc:	0f b6 85 de e7 ff ff 	movzbl -0x1822(%rbp),%eax
   10903:	0f be c0             	movsbl %al,%eax
   10906:	0f b6 95 de e7 ff ff 	movzbl -0x1822(%rbp),%edx
   1090d:	0f be d2             	movsbl %dl,%edx
   10910:	8d 4a 04             	lea    0x4(%rdx),%ecx
   10913:	8b 15 b7 3b 01 00    	mov    0x13bb7(%rip),%edx        # 244d0 <g_747>
   10919:	83 c2 02             	add    $0x2,%edx
   1091c:	89 d6                	mov    %edx,%esi
   1091e:	48 63 d0             	movslq %eax,%rdx
   10921:	48 63 c1             	movslq %ecx,%rax
   10924:	48 c1 e2 03          	shl    $0x3,%rdx
   10928:	48 01 d0             	add    %rdx,%rax
   1092b:	48 c1 e0 03          	shl    $0x3,%rax
   1092f:	48 01 f0             	add    %rsi,%rax
   10932:	8b 94 85 f0 f4 ff ff 	mov    -0xb10(%rbp,%rax,4),%edx
   10939:	0f b6 85 de e7 ff ff 	movzbl -0x1822(%rbp),%eax
   10940:	0f be c0             	movsbl %al,%eax
   10943:	0f b6 8d de e7 ff ff 	movzbl -0x1822(%rbp),%ecx
   1094a:	0f be c9             	movsbl %cl,%ecx
   1094d:	8d 71 04             	lea    0x4(%rcx),%esi
   10950:	8b 0d 7a 3b 01 00    	mov    0x13b7a(%rip),%ecx        # 244d0 <g_747>
   10956:	83 c1 02             	add    $0x2,%ecx
   10959:	81 e2 83 18 cb 67    	and    $0x67cb1883,%edx
   1095f:	89 cf                	mov    %ecx,%edi
   10961:	48 63 c8             	movslq %eax,%rcx
   10964:	48 63 c6             	movslq %esi,%rax
   10967:	48 c1 e1 03          	shl    $0x3,%rcx
   1096b:	48 01 c8             	add    %rcx,%rax
   1096e:	48 c1 e0 03          	shl    $0x3,%rax
   10972:	48 01 f8             	add    %rdi,%rax
   10975:	89 94 85 f0 f4 ff ff 	mov    %edx,-0xb10(%rbp,%rax,4)
   1097c:	0f b6 85 de e7 ff ff 	movzbl -0x1822(%rbp),%eax
   10983:	83 c0 01             	add    $0x1,%eax
   10986:	88 85 de e7 ff ff    	mov    %al,-0x1822(%rbp)
   1098c:	0f b6 85 de e7 ff ff 	movzbl -0x1822(%rbp),%eax
   10993:	3c 01                	cmp    $0x1,%al
   10995:	0f 8e 61 ff ff ff    	jle    108fc <func_36+0x2b58>
   1099b:	eb 01                	jmp    1099e <func_36+0x2bfa>
   1099d:	90                   	nop
   1099e:	8b 85 c4 e7 ff ff    	mov    -0x183c(%rbp),%eax
   109a4:	83 c0 01             	add    $0x1,%eax
   109a7:	89 85 c4 e7 ff ff    	mov    %eax,-0x183c(%rbp)
   109ad:	8b 85 c4 e7 ff ff    	mov    -0x183c(%rbp),%eax
   109b3:	83 f8 01             	cmp    $0x1,%eax
   109b6:	0f 86 d7 fd ff ff    	jbe    10793 <func_36+0x29ef>
   109bc:	8b 05 0e 3b 01 00    	mov    0x13b0e(%rip),%eax        # 244d0 <g_747>
   109c2:	83 c0 01             	add    $0x1,%eax
   109c5:	89 05 05 3b 01 00    	mov    %eax,0x13b05(%rip)        # 244d0 <g_747>
   109cb:	8b 05 ff 3a 01 00    	mov    0x13aff(%rip),%eax        # 244d0 <g_747>
   109d1:	83 f8 04             	cmp    $0x4,%eax
   109d4:	0f 86 0d f8 ff ff    	jbe    101e7 <func_36+0x2443>
   109da:	48 8b 85 d8 e9 ff ff 	mov    -0x1628(%rbp),%rax
   109e1:	48 c7 c6 f9 ff ff ff 	mov    $0xfffffffffffffff9,%rsi
   109e8:	48 89 c7             	mov    %rax,%rdi
   109eb:	e8 bf b6 ff ff       	callq  c0af <safe_div_func_uint64_t_u_u>
   109f0:	0f be c0             	movsbl %al,%eax
   109f3:	be 02 00 00 00       	mov    $0x2,%esi
   109f8:	89 c7                	mov    %eax,%edi
   109fa:	e8 36 a9 ff ff       	callq  b335 <safe_rshift_func_int8_t_s_s>
   109ff:	84 c0                	test   %al,%al
   10a01:	0f 84 89 02 00 00    	je     10c90 <func_36+0x2eec>
   10a07:	c7 45 c1 ff ff ff ff 	movl   $0xffffffff,-0x3f(%rbp)
   10a0e:	66 c7 45 c5 ff ff    	movw   $0xffff,-0x3b(%rbp)
   10a14:	c6 45 c7 ff          	movb   $0xff,-0x39(%rbp)
   10a18:	c6 85 c8 e9 ff ff 67 	movb   $0x67,-0x1638(%rbp)
   10a1f:	48 8d 85 f0 f0 ff ff 	lea    -0xf10(%rbp),%rax
   10a26:	48 89 85 d0 e9 ff ff 	mov    %rax,-0x1630(%rbp)
   10a2d:	48 8d 85 d0 e9 ff ff 	lea    -0x1630(%rbp),%rax
   10a34:	48 89 85 f0 f7 ff ff 	mov    %rax,-0x810(%rbp)
   10a3b:	48 8d 85 d0 e9 ff ff 	lea    -0x1630(%rbp),%rax
   10a42:	48 89 85 f8 f7 ff ff 	mov    %rax,-0x808(%rbp)
   10a49:	48 8d 85 d0 e9 ff ff 	lea    -0x1630(%rbp),%rax
   10a50:	48 89 85 00 f8 ff ff 	mov    %rax,-0x800(%rbp)
   10a57:	48 8d 85 d0 e9 ff ff 	lea    -0x1630(%rbp),%rax
   10a5e:	48 89 85 08 f8 ff ff 	mov    %rax,-0x7f8(%rbp)
   10a65:	48 8d 85 d0 e9 ff ff 	lea    -0x1630(%rbp),%rax
   10a6c:	48 89 85 10 f8 ff ff 	mov    %rax,-0x7f0(%rbp)
   10a73:	48 8d 85 d0 e9 ff ff 	lea    -0x1630(%rbp),%rax
   10a7a:	48 89 85 18 f8 ff ff 	mov    %rax,-0x7e8(%rbp)
   10a81:	48 8d 85 d0 e9 ff ff 	lea    -0x1630(%rbp),%rax
   10a88:	48 89 85 20 f8 ff ff 	mov    %rax,-0x7e0(%rbp)
   10a8f:	48 8d 85 d0 e9 ff ff 	lea    -0x1630(%rbp),%rax
   10a96:	48 89 85 28 f8 ff ff 	mov    %rax,-0x7d8(%rbp)
   10a9d:	48 8d 85 f0 f7 ff ff 	lea    -0x810(%rbp),%rax
   10aa4:	48 83 c0 08          	add    $0x8,%rax
   10aa8:	48 89 85 b8 eb ff ff 	mov    %rax,-0x1448(%rbp)
   10aaf:	c7 85 34 e8 ff ff 00 	movl   $0x0,-0x17cc(%rbp)
   10ab6:	00 00 00 
   10ab9:	eb 1e                	jmp    10ad9 <func_36+0x2d35>
   10abb:	8b 85 34 e8 ff ff    	mov    -0x17cc(%rbp),%eax
   10ac1:	48 98                	cltq   
   10ac3:	48 8d 15 0e 6b 01 00 	lea    0x16b0e(%rip),%rdx        # 275d8 <g_371+0x18>
   10aca:	48 89 94 c5 f0 f0 ff 	mov    %rdx,-0xf10(%rbp,%rax,8)
   10ad1:	ff 
   10ad2:	83 85 34 e8 ff ff 01 	addl   $0x1,-0x17cc(%rbp)
   10ad9:	83 bd 34 e8 ff ff 00 	cmpl   $0x0,-0x17cc(%rbp)
   10ae0:	7e d9                	jle    10abb <func_36+0x2d17>
   10ae2:	81 a5 18 e8 ff ff 07 	andl   $0x9ef2c07,-0x17e8(%rbp)
   10ae9:	2c ef 09 
   10aec:	8b 85 18 e8 ff ff    	mov    -0x17e8(%rbp),%eax
   10af2:	4c 63 f0             	movslq %eax,%r14
   10af5:	48 8b 85 c8 e7 ff ff 	mov    -0x1838(%rbp),%rax
   10afc:	0f b7 d8             	movzwl %ax,%ebx
   10aff:	8b 85 fc f5 ff ff    	mov    -0xa04(%rbp),%eax
   10b05:	41 89 c7             	mov    %eax,%r15d
   10b08:	8b 85 e8 e7 ff ff    	mov    -0x1818(%rbp),%eax
   10b0e:	89 85 c0 e7 ff ff    	mov    %eax,-0x1840(%rbp)
   10b14:	8b 85 c4 e7 ff ff    	mov    -0x183c(%rbp),%eax
   10b1a:	44 0f bf e0          	movswl %ax,%r12d
   10b1e:	48 c7 85 78 ea ff ff 	movq   $0x0,-0x1588(%rbp)
   10b25:	00 00 00 00 
   10b29:	48 83 bd b8 eb ff ff 	cmpq   $0x0,-0x1448(%rbp)
   10b30:	00 
   10b31:	0f 94 c0             	sete   %al
   10b34:	0f b6 c0             	movzbl %al,%eax
   10b37:	89 c7                	mov    %eax,%edi
   10b39:	e8 2c b4 00 00       	callq  1bf6a <func_97>
   10b3e:	8b 85 fc eb ff ff    	mov    -0x1404(%rbp),%eax
   10b44:	25 ff ff 0f 00       	and    $0xfffff,%eax
   10b49:	89 85 bc e7 ff ff    	mov    %eax,-0x1844(%rbp)
   10b4f:	48 8b 85 c8 e7 ff ff 	mov    -0x1838(%rbp),%rax
   10b56:	44 0f bf e8          	movswl %ax,%r13d
   10b5a:	48 8b 85 c8 e7 ff ff 	mov    -0x1838(%rbp),%rax
   10b61:	0f b6 c0             	movzbl %al,%eax
   10b64:	be 06 00 00 00       	mov    $0x6,%esi
   10b69:	89 c7                	mov    %eax,%edi
   10b6b:	e8 1d b1 ff ff       	callq  bc8d <safe_rshift_func_uint8_t_u_s>
   10b70:	48 8d 05 d1 6e 01 00 	lea    0x16ed1(%rip),%rax        # 27a48 <g_1063+0x48>
   10b77:	48 39 85 80 ea ff ff 	cmp    %rax,-0x1580(%rbp)
   10b7e:	0f 95 c0             	setne  %al
   10b81:	0f b6 c0             	movzbl %al,%eax
   10b84:	be 01 d1 00 00       	mov    $0xd101,%esi
   10b89:	89 c7                	mov    %eax,%edi
   10b8b:	e8 6f b1 ff ff       	callq  bcff <safe_add_func_uint16_t_u_u>
   10b90:	66 3d 38 3f          	cmp    $0x3f38,%ax
   10b94:	0f 95 c0             	setne  %al
   10b97:	0f b6 c0             	movzbl %al,%eax
   10b9a:	44 89 ee             	mov    %r13d,%esi
   10b9d:	89 c7                	mov    %eax,%edi
   10b9f:	e8 b1 a8 ff ff       	callq  b455 <safe_div_func_int16_t_s_s>
   10ba4:	66 83 f8 02          	cmp    $0x2,%ax
   10ba8:	0f 95 c0             	setne  %al
   10bab:	0f b6 c0             	movzbl %al,%eax
   10bae:	39 85 bc e7 ff ff    	cmp    %eax,-0x1844(%rbp)
   10bb4:	0f 9d c0             	setge  %al
   10bb7:	0f b6 c0             	movzbl %al,%eax
   10bba:	48 8b 95 c8 e7 ff ff 	mov    -0x1838(%rbp),%rdx
   10bc1:	21 c2                	and    %eax,%edx
   10bc3:	8b 85 c4 e7 ff ff    	mov    -0x183c(%rbp),%eax
   10bc9:	09 d0                	or     %edx,%eax
   10bcb:	98                   	cwtl   
   10bcc:	44 89 e6             	mov    %r12d,%esi
   10bcf:	89 c7                	mov    %eax,%edi
   10bd1:	e8 7f a8 ff ff       	callq  b455 <safe_div_func_int16_t_s_s>
   10bd6:	8b 85 fc f5 ff ff    	mov    -0xa04(%rbp),%eax
   10bdc:	48 98                	cltq   
   10bde:	48 39 85 c8 e7 ff ff 	cmp    %rax,-0x1838(%rbp)
   10be5:	0f 9d c0             	setge  %al
   10be8:	0f b6 c0             	movzbl %al,%eax
   10beb:	48 8b 95 c8 e7 ff ff 	mov    -0x1838(%rbp),%rdx
   10bf2:	48 89 d6             	mov    %rdx,%rsi
   10bf5:	48 89 c7             	mov    %rax,%rdi
   10bf8:	e8 44 ac ff ff       	callq  b841 <safe_add_func_int64_t_s_s>
   10bfd:	89 c2                	mov    %eax,%edx
   10bff:	0f b6 45 c5          	movzbl -0x3b(%rbp),%eax
   10c03:	0f be c0             	movsbl %al,%eax
   10c06:	89 d6                	mov    %edx,%esi
   10c08:	89 c7                	mov    %eax,%edi
   10c0a:	e8 16 b3 ff ff       	callq  bf25 <safe_div_func_uint32_t_u_u>
   10c0f:	8b b5 c0 e7 ff ff    	mov    -0x1840(%rbp),%esi
   10c15:	89 c7                	mov    %eax,%edi
   10c17:	e8 b4 b2 ff ff       	callq  bed0 <safe_sub_func_uint32_t_u_u>
   10c1c:	0f be c0             	movsbl %al,%eax
   10c1f:	44 89 fe             	mov    %r15d,%esi
   10c22:	89 c7                	mov    %eax,%edi
   10c24:	e8 43 a7 ff ff       	callq  b36c <safe_rshift_func_int8_t_s_u>
   10c29:	84 c0                	test   %al,%al
   10c2b:	75 08                	jne    10c35 <func_36+0x2e91>
   10c2d:	66 83 bd e6 e7 ff ff 	cmpw   $0x0,-0x181a(%rbp)
   10c34:	00 
   10c35:	89 de                	mov    %ebx,%esi
   10c37:	bf 01 00 00 00       	mov    $0x1,%edi
   10c3c:	e8 fc b0 ff ff       	callq  bd3d <safe_mul_func_uint16_t_u_u>
   10c41:	0f b7 d0             	movzwl %ax,%edx
   10c44:	48 8b 85 78 e9 ff ff 	mov    -0x1688(%rbp),%rax
   10c4b:	48 8b 00             	mov    (%rax),%rax
   10c4e:	48 33 95 c8 e7 ff ff 	xor    -0x1838(%rbp),%rdx
   10c55:	48 89 10             	mov    %rdx,(%rax)
   10c58:	48 8b 00             	mov    (%rax),%rax
   10c5b:	49 39 c6             	cmp    %rax,%r14
   10c5e:	0f 9d c0             	setge  %al
   10c61:	0f b6 c0             	movzbl %al,%eax
   10c64:	89 85 f8 e7 ff ff    	mov    %eax,-0x1808(%rbp)
   10c6a:	c6 85 dd e7 ff ff 01 	movb   $0x1,-0x1823(%rbp)
   10c71:	90                   	nop
   10c72:	0f b6 85 dd e7 ff ff 	movzbl -0x1823(%rbp),%eax
   10c79:	84 c0                	test   %al,%al
   10c7b:	0f 88 76 0f 00 00    	js     11bf7 <func_36+0x3e53>
   10c81:	48 8b 05 90 69 01 00 	mov    0x16990(%rip),%rax        # 27618 <g_516>
   10c88:	0f b6 00             	movzbl (%rax),%eax
   10c8b:	e9 3b 14 00 00       	jmpq   120cb <func_36+0x4327>
   10c90:	c7 85 cc e8 ff ff 41 	movl   $0x5a647c41,-0x1734(%rbp)
   10c97:	7c 64 5a 
   10c9a:	48 8d 05 af 71 01 00 	lea    0x171af(%rip),%rax        # 27e50 <g_1266>
   10ca1:	48 89 85 58 eb ff ff 	mov    %rax,-0x14a8(%rbp)
   10ca8:	c6 85 c0 e9 ff ff 01 	movb   $0x1,-0x1640(%rbp)
   10caf:	c7 85 d0 e8 ff ff f4 	movl   $0xa1684f4,-0x1730(%rbp)
   10cb6:	84 16 0a 
   10cb9:	c7 85 d4 e8 ff ff 91 	movl   $0x1e6a7191,-0x172c(%rbp)
   10cc0:	71 6a 1e 
   10cc3:	c7 85 d8 e8 ff ff e7 	movl   $0xad19c2e7,-0x1728(%rbp)
   10cca:	c2 19 ad 
   10ccd:	c7 85 dc e8 ff ff c2 	movl   $0xbaaccac2,-0x1724(%rbp)
   10cd4:	ca ac ba 
   10cd7:	c7 85 e0 e8 ff ff 01 	movl   $0x1,-0x1720(%rbp)
   10cde:	00 00 00 
   10ce1:	c7 85 e4 e8 ff ff 7c 	movl   $0xc60c517c,-0x171c(%rbp)
   10ce8:	51 0c c6 
   10ceb:	66 c7 85 e4 e7 ff ff 	movw   $0x1,-0x181c(%rbp)
   10cf2:	01 00 
   10cf4:	c7 85 e8 e8 ff ff 00 	movl   $0x0,-0x1718(%rbp)
   10cfb:	00 00 00 
   10cfe:	c7 85 ec e8 ff ff 04 	movl   $0x4,-0x1714(%rbp)
   10d05:	00 00 00 
   10d08:	c7 85 f0 e8 ff ff 03 	movl   $0x3,-0x1710(%rbp)
   10d0f:	00 00 00 
   10d12:	c7 85 f4 e8 ff ff a7 	movl   $0xabef68a7,-0x170c(%rbp)
   10d19:	68 ef ab 
   10d1c:	c7 85 f8 e8 ff ff fd 	movl   $0xfffffffd,-0x1708(%rbp)
   10d23:	ff ff ff 
   10d26:	c7 85 fc e8 ff ff dc 	movl   $0xba489edc,-0x1704(%rbp)
   10d2d:	9e 48 ba 
   10d30:	c7 85 00 e9 ff ff 01 	movl   $0x1,-0x1700(%rbp)
   10d37:	00 00 00 
   10d3a:	48 8d 85 60 ef ff ff 	lea    -0x10a0(%rbp),%rax
   10d41:	48 8d 15 f8 eb 00 00 	lea    0xebf8(%rip),%rdx        # 1f940 <g_985+0x8dc>
   10d48:	b9 32 00 00 00       	mov    $0x32,%ecx
   10d4d:	48 89 c7             	mov    %rax,%rdi
   10d50:	48 89 d6             	mov    %rdx,%rsi
   10d53:	f3 48 a5             	rep movsq %ds:(%rsi),%es:(%rdi)
   10d56:	48 8d 05 87 37 01 00 	lea    0x13787(%rip),%rax        # 244e4 <g_1168>
   10d5d:	48 89 85 60 eb ff ff 	mov    %rax,-0x14a0(%rbp)
   10d64:	48 c7 85 00 ec ff ff 	movq   $0x0,-0x1400(%rbp)
   10d6b:	00 00 00 00 
   10d6f:	48 c7 85 08 ec ff ff 	movq   $0x0,-0x13f8(%rbp)
   10d76:	00 00 00 00 
   10d7a:	48 c7 85 10 ec ff ff 	movq   $0x0,-0x13f0(%rbp)
   10d81:	00 00 00 00 
   10d85:	48 c7 85 18 ec ff ff 	movq   $0x0,-0x13e8(%rbp)
   10d8c:	00 00 00 00 
   10d90:	48 c7 85 20 ec ff ff 	movq   $0x0,-0x13e0(%rbp)
   10d97:	00 00 00 00 
   10d9b:	48 c7 05 ba 38 01 00 	movq   $0x0,0x138ba(%rip)        # 24660 <g_2050>
   10da2:	00 00 00 00 
   10da6:	e9 0f 0b 00 00       	jmpq   118ba <func_36+0x3b16>
   10dab:	c7 85 30 ec ff ff 09 	movl   $0x9,-0x13d0(%rbp)
   10db2:	00 00 00 
   10db5:	c7 85 34 ec ff ff 09 	movl   $0x9,-0x13cc(%rbp)
   10dbc:	00 00 00 
   10dbf:	c7 85 38 ec ff ff 75 	movl   $0x12868075,-0x13c8(%rbp)
   10dc6:	80 86 12 
   10dc9:	c7 85 3c ec ff ff 09 	movl   $0x9,-0x13c4(%rbp)
   10dd0:	00 00 00 
   10dd3:	c7 85 40 ec ff ff 09 	movl   $0x9,-0x13c0(%rbp)
   10dda:	00 00 00 
   10ddd:	c7 85 44 ec ff ff 75 	movl   $0x12868075,-0x13bc(%rbp)
   10de4:	80 86 12 
   10de7:	c7 85 48 ec ff ff 09 	movl   $0x9,-0x13b8(%rbp)
   10dee:	00 00 00 
   10df1:	c7 85 4c ec ff ff 09 	movl   $0x9,-0x13b4(%rbp)
   10df8:	00 00 00 
   10dfb:	c7 85 50 ec ff ff 75 	movl   $0x12868075,-0x13b0(%rbp)
   10e02:	80 86 12 
   10e05:	c7 85 54 ec ff ff 09 	movl   $0x9,-0x13ac(%rbp)
   10e0c:	00 00 00 
   10e0f:	48 8d 05 62 82 01 00 	lea    0x18262(%rip),%rax        # 29078 <g_1288>
   10e16:	48 89 85 88 eb ff ff 	mov    %rax,-0x1478(%rbp)
   10e1d:	48 8d 85 fc e7 ff ff 	lea    -0x1804(%rbp),%rax
   10e24:	48 89 85 90 eb ff ff 	mov    %rax,-0x1470(%rbp)
   10e2b:	48 8d 85 f0 f4 ff ff 	lea    -0xb10(%rbp),%rax
   10e32:	48 05 f4 02 00 00    	add    $0x2f4,%rax
   10e38:	48 89 85 98 eb ff ff 	mov    %rax,-0x1468(%rbp)
   10e3f:	48 8d 05 be 32 01 00 	lea    0x132be(%rip),%rax        # 24104 <g_3+0x4>
   10e46:	48 89 85 a0 eb ff ff 	mov    %rax,-0x1460(%rbp)
   10e4d:	48 8d 05 d4 32 01 00 	lea    0x132d4(%rip),%rax        # 24128 <g_18>
   10e54:	48 89 85 d0 ee ff ff 	mov    %rax,-0x1130(%rbp)
   10e5b:	48 8d 05 d6 32 01 00 	lea    0x132d6(%rip),%rax        # 24138 <g_59+0x8>
   10e62:	48 89 85 d8 ee ff ff 	mov    %rax,-0x1128(%rbp)
   10e69:	48 8d 85 f4 e7 ff ff 	lea    -0x180c(%rbp),%rax
   10e70:	48 89 85 e0 ee ff ff 	mov    %rax,-0x1120(%rbp)
   10e77:	48 8d 85 ec e7 ff ff 	lea    -0x1814(%rbp),%rax
   10e7e:	48 89 85 e8 ee ff ff 	mov    %rax,-0x1118(%rbp)
   10e85:	48 8d 05 ac 32 01 00 	lea    0x132ac(%rip),%rax        # 24138 <g_59+0x8>
   10e8c:	48 89 85 f0 ee ff ff 	mov    %rax,-0x1110(%rbp)
   10e93:	48 8d 05 9e 32 01 00 	lea    0x1329e(%rip),%rax        # 24138 <g_59+0x8>
   10e9a:	48 89 85 f8 ee ff ff 	mov    %rax,-0x1108(%rbp)
   10ea1:	48 8d 85 ec e7 ff ff 	lea    -0x1814(%rbp),%rax
   10ea8:	48 89 85 00 ef ff ff 	mov    %rax,-0x1100(%rbp)
   10eaf:	48 8d 05 82 32 01 00 	lea    0x13282(%rip),%rax        # 24138 <g_59+0x8>
   10eb6:	48 89 85 08 ef ff ff 	mov    %rax,-0x10f8(%rbp)
   10ebd:	48 c7 85 10 ef ff ff 	movq   $0x0,-0x10f0(%rbp)
   10ec4:	00 00 00 00 
   10ec8:	48 8d 05 59 32 01 00 	lea    0x13259(%rip),%rax        # 24128 <g_18>
   10ecf:	48 89 85 18 ef ff ff 	mov    %rax,-0x10e8(%rbp)
   10ed6:	48 8d 05 5b 32 01 00 	lea    0x1325b(%rip),%rax        # 24138 <g_59+0x8>
   10edd:	48 89 85 20 ef ff ff 	mov    %rax,-0x10e0(%rbp)
   10ee4:	48 8d 85 f4 e7 ff ff 	lea    -0x180c(%rbp),%rax
   10eeb:	48 89 85 28 ef ff ff 	mov    %rax,-0x10d8(%rbp)
   10ef2:	48 8d 85 ec e7 ff ff 	lea    -0x1814(%rbp),%rax
   10ef9:	48 89 85 30 ef ff ff 	mov    %rax,-0x10d0(%rbp)
   10f00:	48 8d 05 31 32 01 00 	lea    0x13231(%rip),%rax        # 24138 <g_59+0x8>
   10f07:	48 89 85 38 ef ff ff 	mov    %rax,-0x10c8(%rbp)
   10f0e:	48 8d 05 23 32 01 00 	lea    0x13223(%rip),%rax        # 24138 <g_59+0x8>
   10f15:	48 89 85 40 ef ff ff 	mov    %rax,-0x10c0(%rbp)
   10f1c:	48 8d 85 ec e7 ff ff 	lea    -0x1814(%rbp),%rax
   10f23:	48 89 85 48 ef ff ff 	mov    %rax,-0x10b8(%rbp)
   10f2a:	48 8d 05 07 32 01 00 	lea    0x13207(%rip),%rax        # 24138 <g_59+0x8>
   10f31:	48 89 85 50 ef ff ff 	mov    %rax,-0x10b0(%rbp)
   10f38:	48 c7 85 58 ef ff ff 	movq   $0x0,-0x10a8(%rbp)
   10f3f:	00 00 00 00 
   10f43:	c7 85 20 e9 ff ff 56 	movl   $0x11ada656,-0x16e0(%rbp)
   10f4a:	a6 ad 11 
   10f4d:	c7 85 24 e9 ff ff 86 	movl   $0x7bc75286,-0x16dc(%rbp)
   10f54:	52 c7 7b 
   10f57:	48 8d 05 8e 34 01 00 	lea    0x1348e(%rip),%rax        # 243ec <g_161>
   10f5e:	48 89 85 d0 e9 ff ff 	mov    %rax,-0x1630(%rbp)
   10f65:	48 8d 85 d0 e9 ff ff 	lea    -0x1630(%rbp),%rax
   10f6c:	48 89 85 f0 f0 ff ff 	mov    %rax,-0xf10(%rbp)
   10f73:	48 8d 85 d0 e9 ff ff 	lea    -0x1630(%rbp),%rax
   10f7a:	48 89 85 f8 f0 ff ff 	mov    %rax,-0xf08(%rbp)
   10f81:	48 8d 85 d0 e9 ff ff 	lea    -0x1630(%rbp),%rax
   10f88:	48 89 85 00 f1 ff ff 	mov    %rax,-0xf00(%rbp)
   10f8f:	48 c7 85 08 f1 ff ff 	movq   $0x0,-0xef8(%rbp)
   10f96:	00 00 00 00 
   10f9a:	48 8d 85 d0 e9 ff ff 	lea    -0x1630(%rbp),%rax
   10fa1:	48 89 85 10 f1 ff ff 	mov    %rax,-0xef0(%rbp)
   10fa8:	48 8d 85 d0 e9 ff ff 	lea    -0x1630(%rbp),%rax
   10faf:	48 89 85 18 f1 ff ff 	mov    %rax,-0xee8(%rbp)
   10fb6:	48 8d 85 d0 e9 ff ff 	lea    -0x1630(%rbp),%rax
   10fbd:	48 89 85 20 f1 ff ff 	mov    %rax,-0xee0(%rbp)
   10fc4:	48 c7 85 28 f1 ff ff 	movq   $0x0,-0xed8(%rbp)
   10fcb:	00 00 00 00 
   10fcf:	48 8d 85 d0 e9 ff ff 	lea    -0x1630(%rbp),%rax
   10fd6:	48 89 85 30 f1 ff ff 	mov    %rax,-0xed0(%rbp)
   10fdd:	48 8d 85 d0 e9 ff ff 	lea    -0x1630(%rbp),%rax
   10fe4:	48 89 85 38 f1 ff ff 	mov    %rax,-0xec8(%rbp)
   10feb:	48 8d 85 d0 e9 ff ff 	lea    -0x1630(%rbp),%rax
   10ff2:	48 89 85 40 f1 ff ff 	mov    %rax,-0xec0(%rbp)
   10ff9:	48 8d 85 d0 e9 ff ff 	lea    -0x1630(%rbp),%rax
   11000:	48 89 85 48 f1 ff ff 	mov    %rax,-0xeb8(%rbp)
   11007:	48 8d 85 d0 e9 ff ff 	lea    -0x1630(%rbp),%rax
   1100e:	48 89 85 50 f1 ff ff 	mov    %rax,-0xeb0(%rbp)
   11015:	48 c7 85 58 f1 ff ff 	movq   $0x0,-0xea8(%rbp)
   1101c:	00 00 00 00 
   11020:	48 c7 85 60 f1 ff ff 	movq   $0x0,-0xea0(%rbp)
   11027:	00 00 00 00 
   1102b:	48 8d 85 d0 e9 ff ff 	lea    -0x1630(%rbp),%rax
   11032:	48 89 85 68 f1 ff ff 	mov    %rax,-0xe98(%rbp)
   11039:	48 8d 85 d0 e9 ff ff 	lea    -0x1630(%rbp),%rax
   11040:	48 89 85 70 f1 ff ff 	mov    %rax,-0xe90(%rbp)
   11047:	48 8d 85 d0 e9 ff ff 	lea    -0x1630(%rbp),%rax
   1104e:	48 89 85 78 f1 ff ff 	mov    %rax,-0xe88(%rbp)
   11055:	48 8d 85 d0 e9 ff ff 	lea    -0x1630(%rbp),%rax
   1105c:	48 89 85 80 f1 ff ff 	mov    %rax,-0xe80(%rbp)
   11063:	48 8d 85 d0 e9 ff ff 	lea    -0x1630(%rbp),%rax
   1106a:	48 89 85 88 f1 ff ff 	mov    %rax,-0xe78(%rbp)
   11071:	48 8d 85 d0 e9 ff ff 	lea    -0x1630(%rbp),%rax
   11078:	48 89 85 90 f1 ff ff 	mov    %rax,-0xe70(%rbp)
   1107f:	48 8d 85 d0 e9 ff ff 	lea    -0x1630(%rbp),%rax
   11086:	48 89 85 98 f1 ff ff 	mov    %rax,-0xe68(%rbp)
   1108d:	48 c7 85 a0 f1 ff ff 	movq   $0x0,-0xe60(%rbp)
   11094:	00 00 00 00 
   11098:	48 c7 85 a8 f1 ff ff 	movq   $0x0,-0xe58(%rbp)
   1109f:	00 00 00 00 
   110a3:	48 8d 85 d0 e9 ff ff 	lea    -0x1630(%rbp),%rax
   110aa:	48 89 85 b0 f1 ff ff 	mov    %rax,-0xe50(%rbp)
   110b1:	48 8d 85 d0 e9 ff ff 	lea    -0x1630(%rbp),%rax
   110b8:	48 89 85 b8 f1 ff ff 	mov    %rax,-0xe48(%rbp)
   110bf:	48 8d 85 d0 e9 ff ff 	lea    -0x1630(%rbp),%rax
   110c6:	48 89 85 c0 f1 ff ff 	mov    %rax,-0xe40(%rbp)
   110cd:	48 c7 85 c8 f1 ff ff 	movq   $0x0,-0xe38(%rbp)
   110d4:	00 00 00 00 
   110d8:	48 8d 85 d0 e9 ff ff 	lea    -0x1630(%rbp),%rax
   110df:	48 89 85 d0 f1 ff ff 	mov    %rax,-0xe30(%rbp)
   110e6:	48 8d 85 d0 e9 ff ff 	lea    -0x1630(%rbp),%rax
   110ed:	48 89 85 d8 f1 ff ff 	mov    %rax,-0xe28(%rbp)
   110f4:	48 8d 85 d0 e9 ff ff 	lea    -0x1630(%rbp),%rax
   110fb:	48 89 85 e0 f1 ff ff 	mov    %rax,-0xe20(%rbp)
   11102:	48 8d 85 d0 e9 ff ff 	lea    -0x1630(%rbp),%rax
   11109:	48 89 85 e8 f1 ff ff 	mov    %rax,-0xe18(%rbp)
   11110:	48 8d 85 d0 e9 ff ff 	lea    -0x1630(%rbp),%rax
   11117:	48 89 85 f0 f1 ff ff 	mov    %rax,-0xe10(%rbp)
   1111e:	48 8d 85 d0 e9 ff ff 	lea    -0x1630(%rbp),%rax
   11125:	48 89 85 f8 f1 ff ff 	mov    %rax,-0xe08(%rbp)
   1112c:	48 8d 85 d0 e9 ff ff 	lea    -0x1630(%rbp),%rax
   11133:	48 89 85 00 f2 ff ff 	mov    %rax,-0xe00(%rbp)
   1113a:	48 c7 85 08 f2 ff ff 	movq   $0x0,-0xdf8(%rbp)
   11141:	00 00 00 00 
   11145:	48 8d 85 d0 e9 ff ff 	lea    -0x1630(%rbp),%rax
   1114c:	48 89 85 10 f2 ff ff 	mov    %rax,-0xdf0(%rbp)
   11153:	48 8d 85 d0 e9 ff ff 	lea    -0x1630(%rbp),%rax
   1115a:	48 89 85 18 f2 ff ff 	mov    %rax,-0xde8(%rbp)
   11161:	48 c7 85 20 f2 ff ff 	movq   $0x0,-0xde0(%rbp)
   11168:	00 00 00 00 
   1116c:	48 8d 85 d0 e9 ff ff 	lea    -0x1630(%rbp),%rax
   11173:	48 89 85 28 f2 ff ff 	mov    %rax,-0xdd8(%rbp)
   1117a:	48 8d 85 d0 e9 ff ff 	lea    -0x1630(%rbp),%rax
   11181:	48 89 85 30 f2 ff ff 	mov    %rax,-0xdd0(%rbp)
   11188:	48 8d 85 d0 e9 ff ff 	lea    -0x1630(%rbp),%rax
   1118f:	48 89 85 38 f2 ff ff 	mov    %rax,-0xdc8(%rbp)
   11196:	48 c7 85 40 f2 ff ff 	movq   $0x0,-0xdc0(%rbp)
   1119d:	00 00 00 00 
   111a1:	48 8d 85 d0 e9 ff ff 	lea    -0x1630(%rbp),%rax
   111a8:	48 89 85 48 f2 ff ff 	mov    %rax,-0xdb8(%rbp)
   111af:	48 8d 85 d0 e9 ff ff 	lea    -0x1630(%rbp),%rax
   111b6:	48 89 85 50 f2 ff ff 	mov    %rax,-0xdb0(%rbp)
   111bd:	48 8d 85 d0 e9 ff ff 	lea    -0x1630(%rbp),%rax
   111c4:	48 89 85 58 f2 ff ff 	mov    %rax,-0xda8(%rbp)
   111cb:	48 8d 85 d0 e9 ff ff 	lea    -0x1630(%rbp),%rax
   111d2:	48 89 85 60 f2 ff ff 	mov    %rax,-0xda0(%rbp)
   111d9:	48 8d 85 d0 e9 ff ff 	lea    -0x1630(%rbp),%rax
   111e0:	48 89 85 68 f2 ff ff 	mov    %rax,-0xd98(%rbp)
   111e7:	48 c7 85 70 f2 ff ff 	movq   $0x0,-0xd90(%rbp)
   111ee:	00 00 00 00 
   111f2:	48 8d 85 d0 e9 ff ff 	lea    -0x1630(%rbp),%rax
   111f9:	48 89 85 78 f2 ff ff 	mov    %rax,-0xd88(%rbp)
   11200:	48 8d 85 d0 e9 ff ff 	lea    -0x1630(%rbp),%rax
   11207:	48 89 85 80 f2 ff ff 	mov    %rax,-0xd80(%rbp)
   1120e:	48 8d 85 d0 e9 ff ff 	lea    -0x1630(%rbp),%rax
   11215:	48 89 85 88 f2 ff ff 	mov    %rax,-0xd78(%rbp)
   1121c:	48 8d 85 d0 e9 ff ff 	lea    -0x1630(%rbp),%rax
   11223:	48 89 85 90 f2 ff ff 	mov    %rax,-0xd70(%rbp)
   1122a:	48 8d 85 d0 e9 ff ff 	lea    -0x1630(%rbp),%rax
   11231:	48 89 85 98 f2 ff ff 	mov    %rax,-0xd68(%rbp)
   11238:	48 c7 85 a0 f2 ff ff 	movq   $0x0,-0xd60(%rbp)
   1123f:	00 00 00 00 
   11243:	48 8d 85 d0 e9 ff ff 	lea    -0x1630(%rbp),%rax
   1124a:	48 89 85 a8 f2 ff ff 	mov    %rax,-0xd58(%rbp)
   11251:	48 8d 85 d0 e9 ff ff 	lea    -0x1630(%rbp),%rax
   11258:	48 89 85 b0 f2 ff ff 	mov    %rax,-0xd50(%rbp)
   1125f:	48 8d 85 d0 e9 ff ff 	lea    -0x1630(%rbp),%rax
   11266:	48 89 85 b8 f2 ff ff 	mov    %rax,-0xd48(%rbp)
   1126d:	48 c7 85 c0 f2 ff ff 	movq   $0x0,-0xd40(%rbp)
   11274:	00 00 00 00 
   11278:	48 8d 85 d0 e9 ff ff 	lea    -0x1630(%rbp),%rax
   1127f:	48 89 85 c8 f2 ff ff 	mov    %rax,-0xd38(%rbp)
   11286:	48 8d 85 d0 e9 ff ff 	lea    -0x1630(%rbp),%rax
   1128d:	48 89 85 d0 f2 ff ff 	mov    %rax,-0xd30(%rbp)
   11294:	48 c7 85 d8 f2 ff ff 	movq   $0x0,-0xd28(%rbp)
   1129b:	00 00 00 00 
   1129f:	48 8d 85 d0 e9 ff ff 	lea    -0x1630(%rbp),%rax
   112a6:	48 89 85 e0 f2 ff ff 	mov    %rax,-0xd20(%rbp)
   112ad:	48 c7 85 80 ed ff ff 	movq   $0x0,-0x1280(%rbp)
   112b4:	00 00 00 00 
   112b8:	48 c7 85 88 ed ff ff 	movq   $0x0,-0x1278(%rbp)
   112bf:	00 00 00 00 
   112c3:	48 c7 85 90 ed ff ff 	movq   $0x0,-0x1270(%rbp)
   112ca:	00 00 00 00 
   112ce:	48 c7 85 98 ed ff ff 	movq   $0x0,-0x1268(%rbp)
   112d5:	00 00 00 00 
   112d9:	48 c7 85 a0 ed ff ff 	movq   $0x0,-0x1260(%rbp)
   112e0:	00 00 00 00 
   112e4:	48 c7 85 a8 ed ff ff 	movq   $0x0,-0x1258(%rbp)
   112eb:	00 00 00 00 
   112ef:	48 c7 85 b0 ed ff ff 	movq   $0x0,-0x1250(%rbp)
   112f6:	00 00 00 00 
   112fa:	48 c7 85 b8 ed ff ff 	movq   $0x0,-0x1248(%rbp)
   11301:	00 00 00 00 
   11305:	48 c7 85 c0 ed ff ff 	movq   $0x0,-0x1240(%rbp)
   1130c:	00 00 00 00 
   11310:	48 c7 85 c8 ed ff ff 	movq   $0x0,-0x1238(%rbp)
   11317:	00 00 00 00 
   1131b:	c7 05 c3 31 01 00 00 	movl   $0x0,0x131c3(%rip)        # 244e8 <g_1215>
   11322:	00 00 00 
   11325:	e9 88 00 00 00       	jmpq   113b2 <func_36+0x360e>
   1132a:	48 8b 05 8f 6c 01 00 	mov    0x16c8f(%rip),%rax        # 27fc0 <g_1346>
   11331:	8b 00                	mov    (%rax),%eax
   11333:	85 c0                	test   %eax,%eax
   11335:	0f 85 88 00 00 00    	jne    113c3 <func_36+0x361f>
   1133b:	c7 85 f0 e7 ff ff ab 	movl   $0xe477c1ab,-0x1810(%rbp)
   11342:	c1 77 e4 
   11345:	48 8b 05 34 5f 01 00 	mov    0x15f34(%rip),%rax        # 27280 <g_138>
   1134c:	8b 95 f0 e7 ff ff    	mov    -0x1810(%rbp),%edx
   11352:	89 10                	mov    %edx,(%rax)
   11354:	48 c7 85 d8 e9 ff ff 	movq   $0x1,-0x1628(%rbp)
   1135b:	01 00 00 00 
   1135f:	eb 38                	jmp    11399 <func_36+0x35f5>
   11361:	8b 85 ec e7 ff ff    	mov    -0x1814(%rbp),%eax
   11367:	f7 d0                	not    %eax
   11369:	89 85 ec e7 ff ff    	mov    %eax,-0x1814(%rbp)
   1136f:	48 8b 05 52 6c 01 00 	mov    0x16c52(%rip),%rax        # 27fc8 <g_1685>
   11376:	8b 10                	mov    (%rax),%edx
   11378:	0f b6 85 de e7 ff ff 	movzbl -0x1822(%rbp),%eax
   1137f:	0f be c0             	movsbl %al,%eax
   11382:	f7 d0                	not    %eax
   11384:	89 c1                	mov    %eax,%ecx
   11386:	48 8b 05 3b 6c 01 00 	mov    0x16c3b(%rip),%rax        # 27fc8 <g_1685>
   1138d:	21 ca                	and    %ecx,%edx
   1138f:	89 10                	mov    %edx,(%rax)
   11391:	48 83 ad d8 e9 ff ff 	subq   $0x1,-0x1628(%rbp)
   11398:	01 
   11399:	48 83 bd d8 e9 ff ff 	cmpq   $0x0,-0x1628(%rbp)
   113a0:	00 
   113a1:	79 be                	jns    11361 <func_36+0x35bd>
   113a3:	8b 05 3f 31 01 00    	mov    0x1313f(%rip),%eax        # 244e8 <g_1215>
   113a9:	83 c0 01             	add    $0x1,%eax
   113ac:	89 05 36 31 01 00    	mov    %eax,0x13136(%rip)        # 244e8 <g_1215>
   113b2:	8b 05 30 31 01 00    	mov    0x13130(%rip),%eax        # 244e8 <g_1215>
   113b8:	83 f8 01             	cmp    $0x1,%eax
   113bb:	0f 8e 69 ff ff ff    	jle    1132a <func_36+0x3586>
   113c1:	eb 01                	jmp    113c4 <func_36+0x3620>
   113c3:	90                   	nop
   113c4:	48 c7 05 11 30 01 00 	movq   $0x0,0x13011(%rip)        # 243e0 <g_143>
   113cb:	00 00 00 00 
   113cf:	e9 92 04 00 00       	jmpq   11866 <func_36+0x3ac2>
   113d4:	48 b8 42 0a 64 22 4b 	movabs $0xac884a4b22640a42,%rax
   113db:	4a 88 ac 
   113de:	48 89 85 f0 e9 ff ff 	mov    %rax,-0x1610(%rbp)
   113e5:	c7 85 28 e9 ff ff ff 	movl   $0xffffffff,-0x16d8(%rbp)
   113ec:	ff ff ff 
   113ef:	c7 85 1c e8 ff ff 00 	movl   $0x0,-0x17e4(%rbp)
   113f6:	00 00 00 
   113f9:	e9 a1 00 00 00       	jmpq   1149f <func_36+0x36fb>
   113fe:	48 8d 85 f0 f7 ff ff 	lea    -0x810(%rbp),%rax
   11405:	48 8d 15 d4 3a 01 00 	lea    0x13ad4(%rip),%rdx        # 24ee0 <g_2284+0x62f>
   1140c:	b9 f0 00 00 00       	mov    $0xf0,%ecx
   11411:	48 89 c7             	mov    %rax,%rdi
   11414:	48 89 d6             	mov    %rdx,%rsi
   11417:	f3 48 a5             	rep movsq %ds:(%rsi),%es:(%rdi)
   1141a:	48 8b 85 f0 e9 ff ff 	mov    -0x1610(%rbp),%rax
   11421:	48 8d 50 01          	lea    0x1(%rax),%rdx
   11425:	48 89 95 f0 e9 ff ff 	mov    %rdx,-0x1610(%rbp)
   1142c:	48 8b 15 95 6b 01 00 	mov    0x16b95(%rip),%rdx        # 27fc8 <g_1685>
   11433:	8b 12                	mov    (%rdx),%edx
   11435:	31 c2                	xor    %eax,%edx
   11437:	48 8b 05 8a 6b 01 00 	mov    0x16b8a(%rip),%rax        # 27fc8 <g_1685>
   1143e:	89 10                	mov    %edx,(%rax)
   11440:	8b 85 1c e8 ff ff    	mov    -0x17e4(%rbp),%eax
   11446:	8d 48 01             	lea    0x1(%rax),%ecx
   11449:	8b 85 1c e8 ff ff    	mov    -0x17e4(%rbp),%eax
   1144f:	83 c0 01             	add    $0x1,%eax
   11452:	48 63 f0             	movslq %eax,%rsi
   11455:	8b 85 1c e8 ff ff    	mov    -0x17e4(%rbp),%eax
   1145b:	48 63 d0             	movslq %eax,%rdx
   1145e:	48 63 c9             	movslq %ecx,%rcx
   11461:	48 89 d0             	mov    %rdx,%rax
   11464:	48 c1 e0 02          	shl    $0x2,%rax
   11468:	48 01 d0             	add    %rdx,%rax
   1146b:	48 8d 14 85 00 00 00 	lea    0x0(,%rax,4),%rdx
   11472:	00 
   11473:	48 01 d0             	add    %rdx,%rax
   11476:	48 89 ca             	mov    %rcx,%rdx
   11479:	48 c1 e2 02          	shl    $0x2,%rdx
   1147d:	48 01 ca             	add    %rcx,%rdx
   11480:	48 01 d0             	add    %rdx,%rax
   11483:	48 8d 14 30          	lea    (%rax,%rsi,1),%rdx
   11487:	48 8d 05 d2 2c 01 00 	lea    0x12cd2(%rip),%rax        # 24160 <g_90>
   1148e:	48 01 d0             	add    %rdx,%rax
   11491:	0f b6 00             	movzbl (%rax),%eax
   11494:	84 c0                	test   %al,%al
   11496:	75 16                	jne    114ae <func_36+0x370a>
   11498:	83 85 1c e8 ff ff 01 	addl   $0x1,-0x17e4(%rbp)
   1149f:	83 bd 1c e8 ff ff 00 	cmpl   $0x0,-0x17e4(%rbp)
   114a6:	0f 8e 52 ff ff ff    	jle    113fe <func_36+0x365a>
   114ac:	eb 01                	jmp    114af <func_36+0x370b>
   114ae:	90                   	nop
   114af:	c7 05 2f 30 01 00 00 	movl   $0x0,0x1302f(%rip)        # 244e8 <g_1215>
   114b6:	00 00 00 
   114b9:	e9 55 02 00 00       	jmpq   11713 <func_36+0x396f>
   114be:	48 8d 85 68 e9 ff ff 	lea    -0x1698(%rbp),%rax
   114c5:	48 89 85 a8 eb ff ff 	mov    %rax,-0x1458(%rbp)
   114cc:	48 8d 85 f0 f7 ff ff 	lea    -0x810(%rbp),%rax
   114d3:	48 8d 15 86 41 01 00 	lea    0x14186(%rip),%rdx        # 25660 <g_2284+0xdaf>
   114da:	b9 28 00 00 00       	mov    $0x28,%ecx
   114df:	48 89 c7             	mov    %rax,%rdi
   114e2:	48 89 d6             	mov    %rdx,%rsi
   114e5:	f3 48 a5             	rep movsq %ds:(%rsi),%es:(%rdi)
   114e8:	48 8d 85 f0 f7 ff ff 	lea    -0x810(%rbp),%rax
   114ef:	48 05 c8 00 00 00    	add    $0xc8,%rax
   114f5:	48 89 85 d0 ed ff ff 	mov    %rax,-0x1230(%rbp)
   114fc:	48 8d 85 f0 f7 ff ff 	lea    -0x810(%rbp),%rax
   11503:	48 05 c8 00 00 00    	add    $0xc8,%rax
   11509:	48 89 85 d8 ed ff ff 	mov    %rax,-0x1228(%rbp)
   11510:	48 8d 85 f0 f7 ff ff 	lea    -0x810(%rbp),%rax
   11517:	48 83 c0 20          	add    $0x20,%rax
   1151b:	48 89 85 e0 ed ff ff 	mov    %rax,-0x1220(%rbp)
   11522:	48 8d 85 f0 f7 ff ff 	lea    -0x810(%rbp),%rax
   11529:	48 05 c8 00 00 00    	add    $0xc8,%rax
   1152f:	48 89 85 e8 ed ff ff 	mov    %rax,-0x1218(%rbp)
   11536:	48 8d 85 f0 f7 ff ff 	lea    -0x810(%rbp),%rax
   1153d:	48 05 c8 00 00 00    	add    $0xc8,%rax
   11543:	48 89 85 f0 ed ff ff 	mov    %rax,-0x1210(%rbp)
   1154a:	48 8d 85 f0 f7 ff ff 	lea    -0x810(%rbp),%rax
   11551:	48 83 c0 20          	add    $0x20,%rax
   11555:	48 89 85 f8 ed ff ff 	mov    %rax,-0x1208(%rbp)
   1155c:	48 8d 85 f0 f7 ff ff 	lea    -0x810(%rbp),%rax
   11563:	48 05 c8 00 00 00    	add    $0xc8,%rax
   11569:	48 89 85 00 ee ff ff 	mov    %rax,-0x1200(%rbp)
   11570:	48 8d 85 f0 f7 ff ff 	lea    -0x810(%rbp),%rax
   11577:	48 05 c8 00 00 00    	add    $0xc8,%rax
   1157d:	48 89 85 08 ee ff ff 	mov    %rax,-0x11f8(%rbp)
   11584:	48 8d 85 f0 f7 ff ff 	lea    -0x810(%rbp),%rax
   1158b:	48 83 c0 20          	add    $0x20,%rax
   1158f:	48 89 85 10 ee ff ff 	mov    %rax,-0x11f0(%rbp)
   11596:	48 8d 85 f0 f7 ff ff 	lea    -0x810(%rbp),%rax
   1159d:	48 05 c8 00 00 00    	add    $0xc8,%rax
   115a3:	48 89 85 18 ee ff ff 	mov    %rax,-0x11e8(%rbp)
   115aa:	48 8d 85 f0 f7 ff ff 	lea    -0x810(%rbp),%rax
   115b1:	48 05 c8 00 00 00    	add    $0xc8,%rax
   115b7:	48 89 85 20 ee ff ff 	mov    %rax,-0x11e0(%rbp)
   115be:	48 8d 85 f0 f7 ff ff 	lea    -0x810(%rbp),%rax
   115c5:	48 83 c0 20          	add    $0x20,%rax
   115c9:	48 89 85 28 ee ff ff 	mov    %rax,-0x11d8(%rbp)
   115d0:	48 8d 85 f0 f7 ff ff 	lea    -0x810(%rbp),%rax
   115d7:	48 05 c8 00 00 00    	add    $0xc8,%rax
   115dd:	48 89 85 30 ee ff ff 	mov    %rax,-0x11d0(%rbp)
   115e4:	48 8d 85 f0 f7 ff ff 	lea    -0x810(%rbp),%rax
   115eb:	48 05 c8 00 00 00    	add    $0xc8,%rax
   115f1:	48 89 85 38 ee ff ff 	mov    %rax,-0x11c8(%rbp)
   115f8:	48 8d 85 d0 ed ff ff 	lea    -0x1230(%rbp),%rax
   115ff:	48 83 c0 60          	add    $0x60,%rax
   11603:	48 89 85 b0 eb ff ff 	mov    %rax,-0x1450(%rbp)
   1160a:	48 8b 95 68 e9 ff ff 	mov    -0x1698(%rbp),%rdx
   11611:	48 8b 85 a8 eb ff ff 	mov    -0x1458(%rbp),%rax
   11618:	48 89 10             	mov    %rdx,(%rax)
   1161b:	8b 85 38 ec ff ff    	mov    -0x13c8(%rbp),%eax
   11621:	83 e8 01             	sub    $0x1,%eax
   11624:	89 85 38 ec ff ff    	mov    %eax,-0x13c8(%rbp)
   1162a:	0f b6 85 dd e7 ff ff 	movzbl -0x1823(%rbp),%eax
   11631:	0f be d8             	movsbl %al,%ebx
   11634:	48 8b 85 c8 e7 ff ff 	mov    -0x1838(%rbp),%rax
   1163b:	41 89 c4             	mov    %eax,%r12d
   1163e:	48 8b 05 0b 6a 01 00 	mov    0x16a0b(%rip),%rax        # 28050 <g_2093>
   11645:	48 85 c0             	test   %rax,%rax
   11648:	0f 95 c0             	setne  %al
   1164b:	0f b6 c0             	movzbl %al,%eax
   1164e:	f7 d0                	not    %eax
   11650:	89 c6                	mov    %eax,%esi
   11652:	bf fe ff ff ff       	mov    $0xfffffffe,%edi
   11657:	e8 10 9d ff ff       	callq  b36c <safe_rshift_func_int8_t_s_u>
   1165c:	48 8b 95 30 ee ff ff 	mov    -0x11d0(%rbp),%rdx
   11663:	48 8b 85 b0 eb ff ff 	mov    -0x1450(%rbp),%rax
   1166a:	48 89 10             	mov    %rdx,(%rax)
   1166d:	48 8b 85 b0 eb ff ff 	mov    -0x1450(%rbp),%rax
   11674:	48 8b 10             	mov    (%rax),%rdx
   11677:	48 8b 85 d0 ec ff ff 	mov    -0x1330(%rbp),%rax
   1167e:	48 39 c2             	cmp    %rax,%rdx
   11681:	75 0b                	jne    1168e <func_36+0x38ea>
   11683:	48 8b 05 3e 69 01 00 	mov    0x1693e(%rip),%rax        # 27fc8 <g_1685>
   1168a:	8b 00                	mov    (%rax),%eax
   1168c:	85 c0                	test   %eax,%eax
   1168e:	0f b6 85 de e7 ff ff 	movzbl -0x1822(%rbp),%eax
   11695:	0f be c0             	movsbl %al,%eax
   11698:	44 89 e6             	mov    %r12d,%esi
   1169b:	89 c7                	mov    %eax,%edi
   1169d:	e8 14 9f ff ff       	callq  b5b6 <safe_add_func_int32_t_s_s>
   116a2:	98                   	cwtl   
   116a3:	be fa ff ff ff       	mov    $0xfffffffa,%esi
   116a8:	89 c7                	mov    %eax,%edi
   116aa:	e8 04 9d ff ff       	callq  b3b3 <safe_add_func_int16_t_s_s>
   116af:	0f be c0             	movsbl %al,%eax
   116b2:	89 de                	mov    %ebx,%esi
   116b4:	89 c7                	mov    %eax,%edi
   116b6:	e8 37 9b ff ff       	callq  b1f2 <safe_sub_func_int8_t_s_s>
   116bb:	66 98                	cbtw   
   116bd:	0f b7 c0             	movzwl %ax,%eax
   116c0:	25 7d 08 00 00       	and    $0x87d,%eax
   116c5:	89 c6                	mov    %eax,%esi
   116c7:	bf 81 24 00 00       	mov    $0x2481,%edi
   116cc:	e8 2e a6 ff ff       	callq  bcff <safe_add_func_uint16_t_u_u>
   116d1:	0f b7 c0             	movzwl %ax,%eax
   116d4:	39 85 cc e8 ff ff    	cmp    %eax,-0x1734(%rbp)
   116da:	0f 9c c0             	setl   %al
   116dd:	0f b6 d0             	movzbl %al,%edx
   116e0:	8b 85 18 e8 ff ff    	mov    -0x17e8(%rbp),%eax
   116e6:	89 d6                	mov    %edx,%esi
   116e8:	89 c7                	mov    %eax,%edi
   116ea:	e8 c9 a7 ff ff       	callq  beb8 <safe_add_func_uint32_t_u_u>
   116ef:	89 c7                	mov    %eax,%edi
   116f1:	e8 a0 9e ff ff       	callq  b596 <safe_unary_minus_func_int32_t_s>
   116f6:	8b 95 fc e7 ff ff    	mov    -0x1804(%rbp),%edx
   116fc:	21 d0                	and    %edx,%eax
   116fe:	89 85 fc e7 ff ff    	mov    %eax,-0x1804(%rbp)
   11704:	8b 05 de 2d 01 00    	mov    0x12dde(%rip),%eax        # 244e8 <g_1215>
   1170a:	83 c0 01             	add    $0x1,%eax
   1170d:	89 05 d5 2d 01 00    	mov    %eax,0x12dd5(%rip)        # 244e8 <g_1215>
   11713:	8b 05 cf 2d 01 00    	mov    0x12dcf(%rip),%eax        # 244e8 <g_1215>
   11719:	85 c0                	test   %eax,%eax
   1171b:	0f 8e 9d fd ff ff    	jle    114be <func_36+0x371a>
   11721:	c7 05 f9 29 01 00 00 	movl   $0x0,0x129f9(%rip)        # 24124 <g_7>
   11728:	00 00 00 
   1172b:	90                   	nop
   1172c:	8b 05 f2 29 01 00    	mov    0x129f2(%rip),%eax        # 24124 <g_7>
   11732:	85 c0                	test   %eax,%eax
   11734:	0f 8f 0a 01 00 00    	jg     11844 <func_36+0x3aa0>
   1173a:	c7 85 2c e9 ff ff 01 	movl   $0x1,-0x16d4(%rbp)
   11741:	00 00 00 
   11744:	48 8b 85 88 eb ff ff 	mov    -0x1478(%rbp),%rax
   1174b:	48 3b 85 58 eb ff ff 	cmp    -0x14a8(%rbp),%rax
   11752:	0f 94 c0             	sete   %al
   11755:	0f b6 c0             	movzbl %al,%eax
   11758:	8b 95 2c e9 ff ff    	mov    -0x16d4(%rbp),%edx
   1175e:	89 d6                	mov    %edx,%esi
   11760:	89 c7                	mov    %eax,%edi
   11762:	e8 7a 9d ff ff       	callq  b4e1 <safe_lshift_func_int16_t_s_u>
   11767:	0f b6 05 c2 2c 01 00 	movzbl 0x12cc2(%rip),%eax        # 24430 <g_405+0x30>
   1176e:	0f b6 c0             	movzbl %al,%eax
   11771:	be fb ff ff ff       	mov    $0xfffffffb,%esi
   11776:	89 c7                	mov    %eax,%edi
   11778:	e8 36 9c ff ff       	callq  b3b3 <safe_add_func_int16_t_s_s>
   1177d:	41 89 c4             	mov    %eax,%r12d
   11780:	48 8b 05 81 5e 01 00 	mov    0x15e81(%rip),%rax        # 27608 <g_500>
   11787:	48 8b 00             	mov    (%rax),%rax
   1178a:	0f b6 00             	movzbl (%rax),%eax
   1178d:	0f be c0             	movsbl %al,%eax
   11790:	89 85 28 e9 ff ff    	mov    %eax,-0x16d8(%rbp)
   11796:	8b 85 28 e9 ff ff    	mov    -0x16d8(%rbp),%eax
   1179c:	0f b6 d8             	movzbl %al,%ebx
   1179f:	48 8b 05 5a 5e 01 00 	mov    0x15e5a(%rip),%rax        # 27600 <g_501>
   117a6:	0f b6 00             	movzbl (%rax),%eax
   117a9:	0f be c0             	movsbl %al,%eax
   117ac:	be 02 00 00 00       	mov    $0x2,%esi
   117b1:	89 c7                	mov    %eax,%edi
   117b3:	e8 e9 9a ff ff       	callq  b2a1 <safe_lshift_func_int8_t_s_s>
   117b8:	0f b6 c0             	movzbl %al,%eax
   117bb:	89 de                	mov    %ebx,%esi
   117bd:	89 c7                	mov    %eax,%edi
   117bf:	e8 17 a4 ff ff       	callq  bbdb <safe_div_func_uint8_t_u_u>
   117c4:	0f b6 d0             	movzbl %al,%edx
   117c7:	8b 85 90 f7 ff ff    	mov    -0x870(%rbp),%eax
   117cd:	89 c1                	mov    %eax,%ecx
   117cf:	8b 85 c4 e7 ff ff    	mov    -0x183c(%rbp),%eax
   117d5:	21 c8                	and    %ecx,%eax
   117d7:	98                   	cwtl   
   117d8:	89 d6                	mov    %edx,%esi
   117da:	89 c7                	mov    %eax,%edi
   117dc:	e8 b1 9c ff ff       	callq  b492 <safe_lshift_func_int16_t_s_s>
   117e1:	66 41 39 c4          	cmp    %ax,%r12w
   117e5:	0f 9c c0             	setl   %al
   117e8:	0f b6 c0             	movzbl %al,%eax
   117eb:	0b 85 cc e8 ff ff    	or     -0x1734(%rbp),%eax
   117f1:	48 98                	cltq   
   117f3:	48 39 85 c8 e7 ff ff 	cmp    %rax,-0x1838(%rbp)
   117fa:	0f 9c c0             	setl   %al
   117fd:	0f b6 c8             	movzbl %al,%ecx
   11800:	48 8b 05 79 5a 01 00 	mov    0x15a79(%rip),%rax        # 27280 <g_138>
   11807:	8b 10                	mov    (%rax),%edx
   11809:	48 8b 05 70 5a 01 00 	mov    0x15a70(%rip),%rax        # 27280 <g_138>
   11810:	31 ca                	xor    %ecx,%edx
   11812:	89 10                	mov    %edx,(%rax)
   11814:	48 8b 05 35 62 01 00 	mov    0x16235(%rip),%rax        # 27a50 <g_1091>
   1181b:	48 8b 15 be 2b 01 00 	mov    0x12bbe(%rip),%rdx        # 243e0 <g_143>
   11822:	48 8b 00             	mov    (%rax),%rax
   11825:	48 8d 0c d5 00 00 00 	lea    0x0(,%rdx,8),%rcx
   1182c:	00 
   1182d:	48 8d 15 0c 5a 01 00 	lea    0x15a0c(%rip),%rdx        # 27240 <g_58>
   11834:	48 89 04 11          	mov    %rax,(%rcx,%rdx,1)
   11838:	0f b6 85 c0 e9 ff ff 	movzbl -0x1640(%rbp),%eax
   1183f:	e9 87 08 00 00       	jmpq   120cb <func_36+0x4327>
   11844:	0f b6 85 c0 e9 ff ff 	movzbl -0x1640(%rbp),%eax
   1184b:	84 c0                	test   %al,%al
   1184d:	74 05                	je     11854 <func_36+0x3ab0>
   1184f:	e9 47 f5 ff ff       	jmpq   10d9b <func_36+0x2ff7>
   11854:	48 8b 05 85 2b 01 00 	mov    0x12b85(%rip),%rax        # 243e0 <g_143>
   1185b:	48 83 c0 01          	add    $0x1,%rax
   1185f:	48 89 05 7a 2b 01 00 	mov    %rax,0x12b7a(%rip)        # 243e0 <g_143>
   11866:	48 8b 05 73 2b 01 00 	mov    0x12b73(%rip),%rax        # 243e0 <g_143>
   1186d:	48 83 f8 01          	cmp    $0x1,%rax
   11871:	0f 86 5d fb ff ff    	jbe    113d4 <func_36+0x3630>
   11877:	83 ad 24 e9 ff ff 01 	subl   $0x1,-0x16dc(%rbp)
   1187e:	48 8b 85 c8 f2 ff ff 	mov    -0xd38(%rbp),%rax
   11885:	48 89 05 6c 78 01 00 	mov    %rax,0x1786c(%rip)        # 290f8 <g_2155>
   1188c:	48 8b 05 65 78 01 00 	mov    0x17865(%rip),%rax        # 290f8 <g_2155>
   11893:	48 89 05 1e 6c 01 00 	mov    %rax,0x16c1e(%rip)        # 284b8 <g_2156+0x458>
   1189a:	48 8b 05 bf 2d 01 00 	mov    0x12dbf(%rip),%rax        # 24660 <g_2050>
   118a1:	0f b6 c0             	movzbl %al,%eax
   118a4:	be 03 00 00 00       	mov    $0x3,%esi
   118a9:	89 c7                	mov    %eax,%edi
   118ab:	e8 c8 a2 ff ff       	callq  bb78 <safe_sub_func_uint8_t_u_u>
   118b0:	0f b6 c0             	movzbl %al,%eax
   118b3:	48 89 05 a6 2d 01 00 	mov    %rax,0x12da6(%rip)        # 24660 <g_2050>
   118ba:	48 8b 05 9f 2d 01 00 	mov    0x12d9f(%rip),%rax        # 24660 <g_2050>
   118c1:	48 83 f8 e4          	cmp    $0xffffffffffffffe4,%rax
   118c5:	0f 84 e0 f4 ff ff    	je     10dab <func_36+0x3007>
   118cb:	8b 9d 88 e8 ff ff    	mov    -0x1778(%rbp),%ebx
   118d1:	44 8b 25 50 28 01 00 	mov    0x12850(%rip),%r12d        # 24128 <g_18>
   118d8:	0f b6 85 dd e7 ff ff 	movzbl -0x1823(%rbp),%eax
   118df:	88 85 de e7 ff ff    	mov    %al,-0x1822(%rbp)
   118e5:	44 8b ad 84 e8 ff ff 	mov    -0x177c(%rbp),%r13d
   118ec:	0f b7 85 e6 e7 ff ff 	movzwl -0x181a(%rbp),%eax
   118f3:	44 0f be f0          	movsbl %al,%r14d
   118f7:	8b 85 c4 e7 ff ff    	mov    -0x183c(%rbp),%eax
   118fd:	89 c2                	mov    %eax,%edx
   118ff:	8b 85 e8 e7 ff ff    	mov    -0x1818(%rbp),%eax
   11905:	85 c0                	test   %eax,%eax
   11907:	7f 07                	jg     11910 <func_36+0x3b6c>
   11909:	b8 0f 1a 9e 0a       	mov    $0xa9e1a0f,%eax
   1190e:	eb 05                	jmp    11915 <func_36+0x3b71>
   11910:	b8 0e 1a 9e 0a       	mov    $0xa9e1a0e,%eax
   11915:	48 89 d6             	mov    %rdx,%rsi
   11918:	48 89 c7             	mov    %rax,%rdi
   1191b:	e8 d7 a0 ff ff       	callq  b9f7 <safe_div_func_int64_t_s_s>
   11920:	0f be c0             	movsbl %al,%eax
   11923:	44 89 f6             	mov    %r14d,%esi
   11926:	89 c7                	mov    %eax,%edi
   11928:	e8 3d 99 ff ff       	callq  b26a <safe_div_func_int8_t_s_s>
   1192d:	0f be d0             	movsbl %al,%edx
   11930:	48 8b 05 c1 6e 01 00 	mov    0x16ec1(%rip),%rax        # 287f8 <g_2175>
   11937:	48 85 c0             	test   %rax,%rax
   1193a:	0f 94 c0             	sete   %al
   1193d:	f7 d0                	not    %eax
   1193f:	0f be c0             	movsbl %al,%eax
   11942:	89 d6                	mov    %edx,%esi
   11944:	89 c7                	mov    %eax,%edi
   11946:	e8 ea 99 ff ff       	callq  b335 <safe_rshift_func_int8_t_s_s>
   1194b:	8b 95 c0 ef ff ff    	mov    -0x1040(%rbp),%edx
   11951:	0f be c0             	movsbl %al,%eax
   11954:	21 d0                	and    %edx,%eax
   11956:	89 85 c0 ef ff ff    	mov    %eax,-0x1040(%rbp)
   1195c:	8b 85 e4 e8 ff ff    	mov    -0x171c(%rbp),%eax
   11962:	89 85 40 f5 ff ff    	mov    %eax,-0xac0(%rbp)
   11968:	8b 85 40 f5 ff ff    	mov    -0xac0(%rbp),%eax
   1196e:	44 89 ee             	mov    %r13d,%esi
   11971:	89 c7                	mov    %eax,%edi
   11973:	e8 85 a5 ff ff       	callq  befd <safe_mod_func_uint32_t_u_u>
   11978:	89 c2                	mov    %eax,%edx
   1197a:	48 8b 85 60 ea ff ff 	mov    -0x15a0(%rbp),%rax
   11981:	0f b6 c0             	movzbl %al,%eax
   11984:	89 d6                	mov    %edx,%esi
   11986:	89 c7                	mov    %eax,%edi
   11988:	e8 00 a3 ff ff       	callq  bc8d <safe_rshift_func_uint8_t_u_s>
   1198d:	0f b6 c0             	movzbl %al,%eax
   11990:	89 85 7c e8 ff ff    	mov    %eax,-0x1784(%rbp)
   11996:	8b 85 7c e8 ff ff    	mov    -0x1784(%rbp),%eax
   1199c:	98                   	cwtl   
   1199d:	44 89 e6             	mov    %r12d,%esi
   119a0:	89 c7                	mov    %eax,%edi
   119a2:	e8 83 9b ff ff       	callq  b52a <safe_rshift_func_int16_t_s_s>
   119a7:	66 83 f8 6e          	cmp    $0x6e,%ax
   119ab:	0f 94 c0             	sete   %al
   119ae:	0f b6 d0             	movzbl %al,%edx
   119b1:	48 8b 05 38 6e 01 00 	mov    0x16e38(%rip),%rax        # 287f0 <g_2176>
   119b8:	48 8b 00             	mov    (%rax),%rax
   119bb:	48 8b 00             	mov    (%rax),%rax
   119be:	48 8b 00             	mov    (%rax),%rax
   119c1:	48 8b 00             	mov    (%rax),%rax
   119c4:	21 c2                	and    %eax,%edx
   119c6:	8b 85 14 e8 ff ff    	mov    -0x17ec(%rbp),%eax
   119cc:	89 c6                	mov    %eax,%esi
   119ce:	89 d7                	mov    %edx,%edi
   119d0:	e8 e1 9b ff ff       	callq  b5b6 <safe_add_func_int32_t_s_s>
   119d5:	0f be c0             	movsbl %al,%eax
   119d8:	89 c6                	mov    %eax,%esi
   119da:	bf 88 ff ff ff       	mov    $0xffffff88,%edi
   119df:	e8 2e 98 ff ff       	callq  b212 <safe_mul_func_int8_t_s_s>
   119e4:	66 98                	cbtw   
   119e6:	0f b7 c0             	movzwl %ax,%eax
   119e9:	89 de                	mov    %ebx,%esi
   119eb:	89 c7                	mov    %eax,%edi
   119ed:	e8 88 a4 ff ff       	callq  be7a <safe_rshift_func_uint16_t_u_u>
   119f2:	48 8b 85 c8 e7 ff ff 	mov    -0x1838(%rbp),%rax
   119f9:	21 85 d8 e8 ff ff    	and    %eax,-0x1728(%rbp)
   119ff:	66 c7 85 e4 e7 ff ff 	movw   $0xffe6,-0x181c(%rbp)
   11a06:	e6 ff 
   11a08:	e9 d9 01 00 00       	jmpq   11be6 <func_36+0x3e42>
   11a0d:	c7 85 04 e9 ff ff 02 	movl   $0x2,-0x16fc(%rbp)
   11a14:	00 00 00 
   11a17:	48 c7 85 68 eb ff ff 	movq   $0x0,-0x1498(%rbp)
   11a1e:	00 00 00 00 
   11a22:	c7 85 08 e9 ff ff 6e 	movl   $0x704a96e,-0x16f8(%rbp)
   11a29:	a9 04 07 
   11a2c:	c7 85 0c e9 ff ff f8 	movl   $0xfffffff8,-0x16f4(%rbp)
   11a33:	ff ff ff 
   11a36:	c7 85 10 e9 ff ff fa 	movl   $0xfffffffa,-0x16f0(%rbp)
   11a3d:	ff ff ff 
   11a40:	c7 85 14 e9 ff ff f7 	movl   $0xfffffff7,-0x16ec(%rbp)
   11a47:	ff ff ff 
   11a4a:	c7 85 18 e9 ff ff c4 	movl   $0x8db56ec4,-0x16e8(%rbp)
   11a51:	6e b5 8d 
   11a54:	8b 85 c8 e9 ff ff    	mov    -0x1638(%rbp),%eax
   11a5a:	25 00 00 f0 ff       	and    $0xfff00000,%eax
   11a5f:	89 85 c8 e9 ff ff    	mov    %eax,-0x1638(%rbp)
   11a65:	48 8d 05 fc 57 01 00 	lea    0x157fc(%rip),%rax        # 27268 <g_89>
   11a6c:	48 89 85 70 eb ff ff 	mov    %rax,-0x1490(%rbp)
   11a73:	c7 85 38 e8 ff ff 00 	movl   $0x0,-0x17c8(%rbp)
   11a7a:	00 00 00 
   11a7d:	eb 4c                	jmp    11acb <func_36+0x3d27>
   11a7f:	c7 85 3c e8 ff ff 00 	movl   $0x0,-0x17c4(%rbp)
   11a86:	00 00 00 
   11a89:	eb 30                	jmp    11abb <func_36+0x3d17>
   11a8b:	8b 85 3c e8 ff ff    	mov    -0x17c4(%rbp),%eax
   11a91:	48 63 c8             	movslq %eax,%rcx
   11a94:	8b 85 38 e8 ff ff    	mov    -0x17c8(%rbp),%eax
   11a9a:	48 63 d0             	movslq %eax,%rdx
   11a9d:	48 89 d0             	mov    %rdx,%rax
   11aa0:	48 01 c0             	add    %rax,%rax
   11aa3:	48 01 d0             	add    %rdx,%rax
   11aa6:	48 01 c8             	add    %rcx,%rax
   11aa9:	c7 84 85 d0 ee ff ff 	movl   $0xffffffff,-0x1130(%rbp,%rax,4)
   11ab0:	ff ff ff ff 
   11ab4:	83 85 3c e8 ff ff 01 	addl   $0x1,-0x17c4(%rbp)
   11abb:	83 bd 3c e8 ff ff 02 	cmpl   $0x2,-0x17c4(%rbp)
   11ac2:	7e c7                	jle    11a8b <func_36+0x3ce7>
   11ac4:	83 85 38 e8 ff ff 01 	addl   $0x1,-0x17c8(%rbp)
   11acb:	83 bd 38 e8 ff ff 00 	cmpl   $0x0,-0x17c8(%rbp)
   11ad2:	7e ab                	jle    11a7f <func_36+0x3cdb>
   11ad4:	48 83 bd c8 e7 ff ff 	cmpq   $0x0,-0x1838(%rbp)
   11adb:	00 
   11adc:	0f 85 14 01 00 00    	jne    11bf6 <func_36+0x3e52>
   11ae2:	48 c7 05 73 2b 01 00 	movq   $0x0,0x12b73(%rip)        # 24660 <g_2050>
   11ae9:	00 00 00 00 
   11aed:	e9 8b 00 00 00       	jmpq   11b7d <func_36+0x3dd9>
   11af2:	c6 85 e2 e7 ff ff 6d 	movb   $0x6d,-0x181e(%rbp)
   11af9:	48 8d 05 60 5b 01 00 	lea    0x15b60(%rip),%rax        # 27660 <g_843>
   11b00:	48 89 85 d0 e9 ff ff 	mov    %rax,-0x1630(%rbp)
   11b07:	48 8d 85 d0 e9 ff ff 	lea    -0x1630(%rbp),%rax
   11b0e:	48 89 85 78 eb ff ff 	mov    %rax,-0x1488(%rbp)
   11b15:	48 8d 85 f0 f0 ff ff 	lea    -0xf10(%rbp),%rax
   11b1c:	48 8d 15 bd df 00 00 	lea    0xdfbd(%rip),%rdx        # 1fae0 <g_985+0xa7c>
   11b23:	b9 31 00 00 00       	mov    $0x31,%ecx
   11b28:	48 89 c7             	mov    %rax,%rdi
   11b2b:	48 89 d6             	mov    %rdx,%rsi
   11b2e:	f3 48 a5             	rep movsq %ds:(%rsi),%es:(%rdi)
   11b31:	c7 85 1c e9 ff ff d0 	movl   $0xde25d9d0,-0x16e4(%rbp)
   11b38:	d9 25 de 
   11b3b:	48 8d 85 f0 f7 ff ff 	lea    -0x810(%rbp),%rax
   11b42:	48 8d 15 57 3c 01 00 	lea    0x13c57(%rip),%rdx        # 257a0 <g_2284+0xeef>
   11b49:	b9 64 00 00 00       	mov    $0x64,%ecx
   11b4e:	48 89 c7             	mov    %rax,%rdi
   11b51:	48 89 d6             	mov    %rdx,%rsi
   11b54:	f3 48 a5             	rep movsq %ds:(%rsi),%es:(%rdi)
   11b57:	48 8d 85 f0 f7 ff ff 	lea    -0x810(%rbp),%rax
   11b5e:	48 05 c8 02 00 00    	add    $0x2c8,%rax
   11b64:	48 89 85 80 eb ff ff 	mov    %rax,-0x1480(%rbp)
   11b6b:	48 8b 05 ee 2a 01 00 	mov    0x12aee(%rip),%rax        # 24660 <g_2050>
   11b72:	48 83 e8 01          	sub    $0x1,%rax
   11b76:	48 89 05 e3 2a 01 00 	mov    %rax,0x12ae3(%rip)        # 24660 <g_2050>
   11b7d:	48 8b 05 dc 2a 01 00 	mov    0x12adc(%rip),%rax        # 24660 <g_2050>
   11b84:	48 83 f8 fb          	cmp    $0xfffffffffffffffb,%rax
   11b88:	0f 84 64 ff ff ff    	je     11af2 <func_36+0x3d4e>
   11b8e:	48 8b 85 c8 e7 ff ff 	mov    -0x1838(%rbp),%rax
   11b95:	89 c2                	mov    %eax,%edx
   11b97:	48 8b 05 5a 6c 01 00 	mov    0x16c5a(%rip),%rax        # 287f8 <g_2175>
   11b9e:	48 8b 00             	mov    (%rax),%rax
   11ba1:	48 8b 00             	mov    (%rax),%rax
   11ba4:	48 8b 00             	mov    (%rax),%rax
   11ba7:	48 8b 00             	mov    (%rax),%rax
   11baa:	48 8b 00             	mov    (%rax),%rax
   11bad:	89 d6                	mov    %edx,%esi
   11baf:	89 c7                	mov    %eax,%edi
   11bb1:	e8 47 a3 ff ff       	callq  befd <safe_mod_func_uint32_t_u_u>
   11bb6:	48 8b 95 20 ea ff ff 	mov    -0x15e0(%rbp),%rdx
   11bbd:	8b 12                	mov    (%rdx),%edx
   11bbf:	09 d0                	or     %edx,%eax
   11bc1:	89 c2                	mov    %eax,%edx
   11bc3:	48 8b 85 20 ea ff ff 	mov    -0x15e0(%rbp),%rax
   11bca:	89 10                	mov    %edx,(%rax)
   11bcc:	0f bf 85 e4 e7 ff ff 	movswl -0x181c(%rbp),%eax
   11bd3:	be 09 00 00 00       	mov    $0x9,%esi
   11bd8:	89 c7                	mov    %eax,%edi
   11bda:	e8 d7 99 ff ff       	callq  b5b6 <safe_add_func_int32_t_s_s>
   11bdf:	66 89 85 e4 e7 ff ff 	mov    %ax,-0x181c(%rbp)
   11be6:	66 83 bd e4 e7 ff ff 	cmpw   $0xfff8,-0x181c(%rbp)
   11bed:	f8 
   11bee:	0f 8c 19 fe ff ff    	jl     11a0d <func_36+0x3c69>
   11bf4:	eb 01                	jmp    11bf7 <func_36+0x3e53>
   11bf6:	90                   	nop
   11bf7:	48 8b 85 90 f4 ff ff 	mov    -0xb70(%rbp),%rax
   11bfe:	48 85 c0             	test   %rax,%rax
   11c01:	74 0c                	je     11c0f <func_36+0x3e6b>
   11c03:	0f b6 85 dd e7 ff ff 	movzbl -0x1823(%rbp),%eax
   11c0a:	e9 bc 04 00 00       	jmpq   120cb <func_36+0x4327>
   11c0f:	48 8b 05 82 5a 01 00 	mov    0x15a82(%rip),%rax        # 27698 <g_914>
   11c16:	48 8b 00             	mov    (%rax),%rax
   11c19:	48 8b 00             	mov    (%rax),%rax
   11c1c:	0f b6 00             	movzbl (%rax),%eax
   11c1f:	e9 a7 04 00 00       	jmpq   120cb <func_36+0x4327>
   11c24:	c7 85 74 e8 ff ff 18 	movl   $0xc662f218,-0x178c(%rbp)
   11c2b:	f2 62 c6 
   11c2e:	c7 85 78 e8 ff ff 00 	movl   $0x0,-0x1788(%rbp)
   11c35:	00 00 00 
   11c38:	48 8d 05 95 28 01 00 	lea    0x12895(%rip),%rax        # 244d4 <g_892>
   11c3f:	48 89 85 30 ea ff ff 	mov    %rax,-0x15d0(%rbp)
   11c46:	48 8d 05 cb 59 01 00 	lea    0x159cb(%rip),%rax        # 27618 <g_516>
   11c4d:	48 89 85 38 ea ff ff 	mov    %rax,-0x15c8(%rbp)
   11c54:	48 c7 85 b8 e9 ff ff 	movq   $0x0,-0x1648(%rbp)
   11c5b:	00 00 00 00 
   11c5f:	c7 85 b8 e9 ff ff e8 	movl   $0x2acf96e8,-0x1648(%rbp)
   11c66:	96 cf 2a 
   11c69:	48 8d 05 f8 55 01 00 	lea    0x155f8(%rip),%rax        # 27268 <g_89>
   11c70:	48 89 85 40 ea ff ff 	mov    %rax,-0x15c0(%rbp)
   11c77:	48 8d 05 fa 59 01 00 	lea    0x159fa(%rip),%rax        # 27678 <g_843+0x18>
   11c7e:	48 89 85 48 ea ff ff 	mov    %rax,-0x15b8(%rbp)
   11c85:	48 8b 85 c8 e7 ff ff 	mov    -0x1838(%rbp),%rax
   11c8c:	89 c2                	mov    %eax,%edx
   11c8e:	8b 85 c4 e7 ff ff    	mov    -0x183c(%rbp),%eax
   11c94:	89 d6                	mov    %edx,%esi
   11c96:	89 c7                	mov    %eax,%edi
   11c98:	e8 1b a2 ff ff       	callq  beb8 <safe_add_func_uint32_t_u_u>
   11c9d:	8b 95 78 e8 ff ff    	mov    -0x1788(%rbp),%edx
   11ca3:	39 d0                	cmp    %edx,%eax
   11ca5:	0f 96 c0             	setbe  %al
   11ca8:	0f b6 d0             	movzbl %al,%edx
   11cab:	8b 85 c4 e7 ff ff    	mov    -0x183c(%rbp),%eax
   11cb1:	09 c2                	or     %eax,%edx
   11cb3:	48 8b 05 ae 5d 01 00 	mov    0x15dae(%rip),%rax        # 27a68 <g_1162>
   11cba:	8b 00                	mov    (%rax),%eax
   11cbc:	39 c2                	cmp    %eax,%edx
   11cbe:	8b 85 78 e8 ff ff    	mov    -0x1788(%rbp),%eax
   11cc4:	48 98                	cltq   
   11cc6:	48 8b 95 20 ea ff ff 	mov    -0x15e0(%rbp),%rdx
   11ccd:	8b 12                	mov    (%rdx),%edx
   11ccf:	83 85 74 e8 ff ff 01 	addl   $0x1,-0x178c(%rbp)
   11cd6:	33 95 74 e8 ff ff    	xor    -0x178c(%rbp),%edx
   11cdc:	89 d2                	mov    %edx,%edx
   11cde:	48 89 c6             	mov    %rax,%rsi
   11ce1:	48 89 d7             	mov    %rdx,%rdi
   11ce4:	e8 45 a3 ff ff       	callq  c02e <safe_add_func_uint64_t_u_u>
   11ce9:	0f b6 d8             	movzbl %al,%ebx
   11cec:	48 8b 85 48 e9 ff ff 	mov    -0x16b8(%rbp),%rax
   11cf3:	48 8b 10             	mov    (%rax),%rdx
   11cf6:	48 8b 85 10 ea ff ff 	mov    -0x15f0(%rbp),%rax
   11cfd:	48 8b 00             	mov    (%rax),%rax
   11d00:	48 8b 00             	mov    (%rax),%rax
   11d03:	48 8b 00             	mov    (%rax),%rax
   11d06:	48 39 c2             	cmp    %rax,%rdx
   11d09:	0f 95 c0             	setne  %al
   11d0c:	0f b6 c0             	movzbl %al,%eax
   11d0f:	48 89 c6             	mov    %rax,%rsi
   11d12:	bf 00 00 00 00       	mov    $0x0,%edi
   11d17:	e8 12 a3 ff ff       	callq  c02e <safe_add_func_uint64_t_u_u>
   11d1c:	0f b6 c0             	movzbl %al,%eax
   11d1f:	89 c6                	mov    %eax,%esi
   11d21:	bf 2f 00 00 00       	mov    $0x2f,%edi
   11d26:	e8 b0 9e ff ff       	callq  bbdb <safe_div_func_uint8_t_u_u>
   11d2b:	89 c2                	mov    %eax,%edx
   11d2d:	48 8b 85 20 ea ff ff 	mov    -0x15e0(%rbp),%rax
   11d34:	8b 00                	mov    (%rax),%eax
   11d36:	09 d0                	or     %edx,%eax
   11d38:	0f b6 c0             	movzbl %al,%eax
   11d3b:	89 de                	mov    %ebx,%esi
   11d3d:	89 c7                	mov    %eax,%edi
   11d3f:	e8 97 9e ff ff       	callq  bbdb <safe_div_func_uint8_t_u_u>
   11d44:	48 8b 85 20 ea ff ff 	mov    -0x15e0(%rbp),%rax
   11d4b:	c7 00 d9 de 06 5c    	movl   $0x5c06ded9,(%rax)
   11d51:	48 8b 05 70 62 01 00 	mov    0x16270(%rip),%rax        # 27fc8 <g_1685>
   11d58:	8b 10                	mov    (%rax),%edx
   11d5a:	48 8b 85 c8 e7 ff ff 	mov    -0x1838(%rbp),%rax
   11d61:	89 c1                	mov    %eax,%ecx
   11d63:	48 8b 05 5e 62 01 00 	mov    0x1625e(%rip),%rax        # 27fc8 <g_1685>
   11d6a:	21 ca                	and    %ecx,%edx
   11d6c:	89 10                	mov    %edx,(%rax)
   11d6e:	48 8b 9d c8 e7 ff ff 	mov    -0x1838(%rbp),%rbx
   11d75:	48 8b 05 a4 54 01 00 	mov    0x154a4(%rip),%rax        # 27220 <g_13>
   11d7c:	44 8b 20             	mov    (%rax),%r12d
   11d7f:	48 8b 05 d2 62 01 00 	mov    0x162d2(%rip),%rax        # 28058 <g_2157>
   11d86:	0f b6 00             	movzbl (%rax),%eax
   11d89:	0f b6 c0             	movzbl %al,%eax
   11d8c:	89 c7                	mov    %eax,%edi
   11d8e:	e8 b2 9d ff ff       	callq  bb45 <safe_unary_minus_func_uint8_t_u>
   11d93:	48 8b 85 38 ea ff ff 	mov    -0x15c8(%rbp),%rax
   11d9a:	48 89 05 67 6a 01 00 	mov    %rax,0x16a67(%rip)        # 28808 <g_2281>
   11da1:	48 8b 05 60 6a 01 00 	mov    0x16a60(%rip),%rax        # 28808 <g_2281>
   11da8:	48 85 c0             	test   %rax,%rax
   11dab:	0f 95 c0             	setne  %al
   11dae:	44 0f b6 e8          	movzbl %al,%r13d
   11db2:	8b 85 c4 e7 ff ff    	mov    -0x183c(%rbp),%eax
   11db8:	0f b6 c0             	movzbl %al,%eax
   11dbb:	89 c6                	mov    %eax,%esi
   11dbd:	bf 01 00 00 00       	mov    $0x1,%edi
   11dc2:	e8 cc 9d ff ff       	callq  bb93 <safe_mul_func_uint8_t_u_u>
   11dc7:	0f b6 d0             	movzbl %al,%edx
   11dca:	48 8b 85 10 ea ff ff 	mov    -0x15f0(%rbp),%rax
   11dd1:	48 8b 00             	mov    (%rax),%rax
   11dd4:	48 8b 00             	mov    (%rax),%rax
   11dd7:	48 8b 00             	mov    (%rax),%rax
   11dda:	48 8b 8d 40 ea ff ff 	mov    -0x15c0(%rbp),%rcx
   11de1:	48 89 8d 28 ea ff ff 	mov    %rcx,-0x15d8(%rbp)
   11de8:	48 39 85 28 ea ff ff 	cmp    %rax,-0x15d8(%rbp)
   11def:	0f 94 c0             	sete   %al
   11df2:	0f b6 c0             	movzbl %al,%eax
   11df5:	89 d6                	mov    %edx,%esi
   11df7:	89 c7                	mov    %eax,%edi
   11df9:	e8 f0 94 ff ff       	callq  b2ee <safe_lshift_func_int8_t_s_u>
   11dfe:	0f be c0             	movsbl %al,%eax
   11e01:	41 39 c5             	cmp    %eax,%r13d
   11e04:	0f 95 c0             	setne  %al
   11e07:	0f b6 c0             	movzbl %al,%eax
   11e0a:	44 89 e6             	mov    %r12d,%esi
   11e0d:	89 c7                	mov    %eax,%edi
   11e0f:	e8 b8 98 ff ff       	callq  b6cc <safe_mod_func_int32_t_s_s>
   11e14:	0f b6 d0             	movzbl %al,%edx
   11e17:	48 8b 85 c8 e7 ff ff 	mov    -0x1838(%rbp),%rax
   11e1e:	89 c1                	mov    %eax,%ecx
   11e20:	48 8b 85 30 ea ff ff 	mov    -0x15d0(%rbp),%rax
   11e27:	88 08                	mov    %cl,(%rax)
   11e29:	48 8b 85 30 ea ff ff 	mov    -0x15d0(%rbp),%rax
   11e30:	0f b6 00             	movzbl (%rax),%eax
   11e33:	0f b6 c0             	movzbl %al,%eax
   11e36:	89 d6                	mov    %edx,%esi
   11e38:	89 c7                	mov    %eax,%edi
   11e3a:	e8 9c 9d ff ff       	callq  bbdb <safe_div_func_uint8_t_u_u>
   11e3f:	0f b6 c0             	movzbl %al,%eax
   11e42:	be 53 ca 44 7b       	mov    $0x7b44ca53,%esi
   11e47:	89 c7                	mov    %eax,%edi
   11e49:	e8 68 97 ff ff       	callq  b5b6 <safe_add_func_int32_t_s_s>
   11e4e:	48 98                	cltq   
   11e50:	48 89 de             	mov    %rbx,%rsi
   11e53:	48 89 c7             	mov    %rax,%rdi
   11e56:	e8 d3 a1 ff ff       	callq  c02e <safe_add_func_uint64_t_u_u>
   11e5b:	48 85 c0             	test   %rax,%rax
   11e5e:	74 11                	je     11e71 <func_36+0x40cd>
   11e60:	8b 85 b8 e9 ff ff    	mov    -0x1648(%rbp),%eax
   11e66:	85 c0                	test   %eax,%eax
   11e68:	74 07                	je     11e71 <func_36+0x40cd>
   11e6a:	ba 01 00 00 00       	mov    $0x1,%edx
   11e6f:	eb 05                	jmp    11e76 <func_36+0x40d2>
   11e71:	ba 00 00 00 00       	mov    $0x0,%edx
   11e76:	48 8b 05 4b 61 01 00 	mov    0x1614b(%rip),%rax        # 27fc8 <g_1685>
   11e7d:	89 10                	mov    %edx,(%rax)
   11e7f:	48 c7 05 b6 25 01 00 	movq   $0xfffffffffffffff1,0x125b6(%rip)        # 24440 <g_431>
   11e86:	f1 ff ff ff 
   11e8a:	e9 24 02 00 00       	jmpq   120b3 <func_36+0x430f>
   11e8f:	48 8d 05 52 57 01 00 	lea    0x15752(%rip),%rax        # 275e8 <g_371+0x28>
   11e96:	48 89 85 c0 e9 ff ff 	mov    %rax,-0x1640(%rbp)
   11e9d:	48 8d 85 c0 e9 ff ff 	lea    -0x1640(%rbp),%rax
   11ea4:	48 89 85 c8 e9 ff ff 	mov    %rax,-0x1638(%rbp)
   11eab:	48 8d 85 c8 e9 ff ff 	lea    -0x1638(%rbp),%rax
   11eb2:	48 89 85 50 ea ff ff 	mov    %rax,-0x15b0(%rbp)
   11eb9:	48 c7 85 d0 e9 ff ff 	movq   $0x0,-0x1630(%rbp)
   11ec0:	00 00 00 00 
   11ec4:	c7 05 9a 71 01 00 1d 	movl   $0x1d,0x1719a(%rip)        # 29068 <g_1211>
   11ecb:	00 00 00 
   11ece:	e9 b2 01 00 00       	jmpq   12085 <func_36+0x42e1>
   11ed3:	48 c7 85 f0 f7 ff ff 	movq   $0x0,-0x810(%rbp)
   11eda:	00 00 00 00 
   11ede:	48 8d 85 d0 e9 ff ff 	lea    -0x1630(%rbp),%rax
   11ee5:	48 89 85 f8 f7 ff ff 	mov    %rax,-0x808(%rbp)
   11eec:	48 8d 85 d0 e9 ff ff 	lea    -0x1630(%rbp),%rax
   11ef3:	48 89 85 00 f8 ff ff 	mov    %rax,-0x800(%rbp)
   11efa:	48 c7 85 08 f8 ff ff 	movq   $0x0,-0x7f8(%rbp)
   11f01:	00 00 00 00 
   11f05:	48 8d 85 d0 e9 ff ff 	lea    -0x1630(%rbp),%rax
   11f0c:	48 89 85 10 f8 ff ff 	mov    %rax,-0x7f0(%rbp)
   11f13:	48 8d 85 d0 e9 ff ff 	lea    -0x1630(%rbp),%rax
   11f1a:	48 89 85 18 f8 ff ff 	mov    %rax,-0x7e8(%rbp)
   11f21:	48 c7 85 20 f8 ff ff 	movq   $0x0,-0x7e0(%rbp)
   11f28:	00 00 00 00 
   11f2c:	48 8d 85 d0 e9 ff ff 	lea    -0x1630(%rbp),%rax
   11f33:	48 89 85 28 f8 ff ff 	mov    %rax,-0x7d8(%rbp)
   11f3a:	48 8d 05 ab 24 01 00 	lea    0x124ab(%rip),%rax        # 243ec <g_161>
   11f41:	48 89 85 58 ea ff ff 	mov    %rax,-0x15a8(%rbp)
   11f48:	8b 9d b8 e9 ff ff    	mov    -0x1648(%rbp),%ebx
   11f4e:	48 8b 05 13 53 01 00 	mov    0x15313(%rip),%rax        # 27268 <g_89>
   11f55:	0f b6 00             	movzbl (%rax),%eax
   11f58:	44 0f be e0          	movsbl %al,%r12d
   11f5c:	48 8b 85 c8 e7 ff ff 	mov    -0x1838(%rbp),%rax
   11f63:	0f bf d0             	movswl %ax,%edx
   11f66:	48 8b 85 d0 e9 ff ff 	mov    -0x1630(%rbp),%rax
   11f6d:	48 89 85 48 ea ff ff 	mov    %rax,-0x15b8(%rbp)
   11f74:	48 83 bd 48 ea ff ff 	cmpq   $0x0,-0x15b8(%rbp)
   11f7b:	00 
   11f7c:	0f 95 c0             	setne  %al
   11f7f:	0f b6 c0             	movzbl %al,%eax
   11f82:	89 d6                	mov    %edx,%esi
   11f84:	89 c7                	mov    %eax,%edi
   11f86:	e8 48 94 ff ff       	callq  b3d3 <safe_sub_func_int16_t_s_s>
   11f8b:	66 85 c0             	test   %ax,%ax
   11f8e:	0f 94 c0             	sete   %al
   11f91:	89 c2                	mov    %eax,%edx
   11f93:	48 8b 85 30 ea ff ff 	mov    -0x15d0(%rbp),%rax
   11f9a:	88 10                	mov    %dl,(%rax)
   11f9c:	48 8b 85 30 ea ff ff 	mov    -0x15d0(%rbp),%rax
   11fa3:	0f b6 00             	movzbl (%rax),%eax
   11fa6:	3c a5                	cmp    $0xa5,%al
   11fa8:	0f 97 c0             	seta   %al
   11fab:	0f b6 d0             	movzbl %al,%edx
   11fae:	8b 85 c4 e7 ff ff    	mov    -0x183c(%rbp),%eax
   11fb4:	39 c2                	cmp    %eax,%edx
   11fb6:	0f 95 c0             	setne  %al
   11fb9:	0f b6 c0             	movzbl %al,%eax
   11fbc:	be 0b 00 00 00       	mov    $0xb,%esi
   11fc1:	89 c7                	mov    %eax,%edi
   11fc3:	e8 b2 9e ff ff       	callq  be7a <safe_rshift_func_uint16_t_u_u>
   11fc8:	89 c2                	mov    %eax,%edx
   11fca:	48 8b 85 58 ea ff ff 	mov    -0x15a8(%rbp),%rax
   11fd1:	88 10                	mov    %dl,(%rax)
   11fd3:	48 8b 85 58 ea ff ff 	mov    -0x15a8(%rbp),%rax
   11fda:	0f b6 00             	movzbl (%rax),%eax
   11fdd:	0f b6 c0             	movzbl %al,%eax
   11fe0:	44 89 e6             	mov    %r12d,%esi
   11fe3:	89 c7                	mov    %eax,%edi
   11fe5:	e8 a3 9c ff ff       	callq  bc8d <safe_rshift_func_uint8_t_u_s>
   11fea:	84 c0                	test   %al,%al
   11fec:	0f 95 c0             	setne  %al
   11fef:	0f b6 c0             	movzbl %al,%eax
   11ff2:	be 74 00 00 00       	mov    $0x74,%esi
   11ff7:	89 c7                	mov    %eax,%edi
   11ff9:	e8 14 92 ff ff       	callq  b212 <safe_mul_func_int8_t_s_s>
   11ffe:	89 de                	mov    %ebx,%esi
   12000:	bf ac 00 00 00       	mov    $0xac,%edi
   12005:	e8 20 95 ff ff       	callq  b52a <safe_rshift_func_int16_t_s_s>
   1200a:	48 8b 85 50 ea ff ff 	mov    -0x15b0(%rbp),%rax
   12011:	48 8b 00             	mov    (%rax),%rax
   12014:	48 8b 00             	mov    (%rax),%rax
   12017:	48 8b 00             	mov    (%rax),%rax
   1201a:	48 8b 95 c8 e7 ff ff 	mov    -0x1838(%rbp),%rdx
   12021:	48 89 10             	mov    %rdx,(%rax)
   12024:	48 8b 00             	mov    (%rax),%rax
   12027:	8b 95 c4 e7 ff ff    	mov    -0x183c(%rbp),%edx
   1202d:	89 d2                	mov    %edx,%edx
   1202f:	48 39 d0             	cmp    %rdx,%rax
   12032:	7e 0a                	jle    1203e <func_36+0x429a>
   12034:	48 83 bd c8 e7 ff ff 	cmpq   $0x0,-0x1838(%rbp)
   1203b:	00 
   1203c:	74 07                	je     12045 <func_36+0x42a1>
   1203e:	ba 01 00 00 00       	mov    $0x1,%edx
   12043:	eb 05                	jmp    1204a <func_36+0x42a6>
   12045:	ba 00 00 00 00       	mov    $0x0,%edx
   1204a:	48 8b 05 2f 52 01 00 	mov    0x1522f(%rip),%rax        # 27280 <g_138>
   12051:	89 10                	mov    %edx,(%rax)
   12053:	48 8b 05 76 5f 01 00 	mov    0x15f76(%rip),%rax        # 27fd0 <g_1684>
   1205a:	48 8b 00             	mov    (%rax),%rax
   1205d:	48 8b 95 c8 e7 ff ff 	mov    -0x1838(%rbp),%rdx
   12064:	89 10                	mov    %edx,(%rax)
   12066:	0f be 95 e0 e7 ff ff 	movsbl -0x1820(%rbp),%edx
   1206d:	48 8b 85 20 ea ff ff 	mov    -0x15e0(%rbp),%rax
   12074:	89 10                	mov    %edx,(%rax)
   12076:	8b 05 ec 6f 01 00    	mov    0x16fec(%rip),%eax        # 29068 <g_1211>
   1207c:	83 e8 01             	sub    $0x1,%eax
   1207f:	89 05 e3 6f 01 00    	mov    %eax,0x16fe3(%rip)        # 29068 <g_1211>
   12085:	8b 05 dd 6f 01 00    	mov    0x16fdd(%rip),%eax        # 29068 <g_1211>
   1208b:	83 f8 16             	cmp    $0x16,%eax
   1208e:	0f 87 3f fe ff ff    	ja     11ed3 <func_36+0x412f>
   12094:	48 8b 05 a5 23 01 00 	mov    0x123a5(%rip),%rax        # 24440 <g_431>
   1209b:	98                   	cwtl   
   1209c:	be 08 00 00 00       	mov    $0x8,%esi
   120a1:	89 c7                	mov    %eax,%edi
   120a3:	e8 0b 93 ff ff       	callq  b3b3 <safe_add_func_int16_t_s_s>
   120a8:	48 0f bf c0          	movswq %ax,%rax
   120ac:	48 89 05 8d 23 01 00 	mov    %rax,0x1238d(%rip)        # 24440 <g_431>
   120b3:	48 8b 05 86 23 01 00 	mov    0x12386(%rip),%rax        # 24440 <g_431>
   120ba:	48 83 f8 0c          	cmp    $0xc,%rax
   120be:	0f 8f cb fd ff ff    	jg     11e8f <func_36+0x40eb>
   120c4:	0f b6 85 dd e7 ff ff 	movzbl -0x1823(%rbp),%eax
   120cb:	48 8b 5d c8          	mov    -0x38(%rbp),%rbx
   120cf:	64 48 33 1c 25 28 00 	xor    %fs:0x28,%rbx
   120d6:	00 00 
   120d8:	74 05                	je     120df <func_36+0x433b>
   120da:	e8 91 8f ff ff       	callq  b070 <__stack_chk_fail@plt>
   120df:	48 81 c4 28 18 00 00 	add    $0x1828,%rsp
   120e6:	5b                   	pop    %rbx
   120e7:	41 5c                	pop    %r12
   120e9:	41 5d                	pop    %r13
   120eb:	41 5e                	pop    %r14
   120ed:	41 5f                	pop    %r15
   120ef:	5d                   	pop    %rbp
   120f0:	c3                   	retq   

00000000000120f1 <func_39>:
   120f1:	f3 0f 1e fa          	endbr64 
   120f5:	55                   	push   %rbp
   120f6:	48 89 e5             	mov    %rsp,%rbp
   120f9:	53                   	push   %rbx
   120fa:	48 81 ec 78 06 00 00 	sub    $0x678,%rsp
   12101:	89 bd 8c f9 ff ff    	mov    %edi,-0x674(%rbp)
   12107:	48 89 b5 80 f9 ff ff 	mov    %rsi,-0x680(%rbp)
   1210e:	89 d0                	mov    %edx,%eax
   12110:	66 89 85 88 f9 ff ff 	mov    %ax,-0x678(%rbp)
   12117:	64 48 8b 04 25 28 00 	mov    %fs:0x28,%rax
   1211e:	00 00 
   12120:	48 89 45 e8          	mov    %rax,-0x18(%rbp)
   12124:	31 c0                	xor    %eax,%eax
   12126:	48 8d 85 40 fd ff ff 	lea    -0x2c0(%rbp),%rax
   1212d:	48 8d 15 4c db 00 00 	lea    0xdb4c(%rip),%rdx        # 1fc80 <g_985+0xc1c>
   12134:	b9 54 00 00 00       	mov    $0x54,%ecx
   12139:	48 89 c7             	mov    %rax,%rdi
   1213c:	48 89 d6             	mov    %rdx,%rsi
   1213f:	f3 48 a5             	rep movsq %ds:(%rsi),%es:(%rdi)
   12142:	66 c7 05 95 23 01 00 	movw   $0xfffb,0x12395(%rip)        # 244e0 <g_1166>
   12149:	fb ff 
   1214b:	e9 d8 04 00 00       	jmpq   12628 <func_39+0x537>
   12150:	48 8d 05 29 6e 01 00 	lea    0x16e29(%rip),%rax        # 28f80 <g_210>
   12157:	48 89 85 a0 f9 ff ff 	mov    %rax,-0x660(%rbp)
   1215e:	48 c7 85 70 fa ff ff 	movq   $0x0,-0x590(%rbp)
   12165:	00 00 00 00 
   12169:	48 c7 85 78 fa ff ff 	movq   $0x0,-0x588(%rbp)
   12170:	00 00 00 00 
   12174:	48 c7 85 80 fa ff ff 	movq   $0x0,-0x580(%rbp)
   1217b:	00 00 00 00 
   1217f:	48 c7 85 88 fa ff ff 	movq   $0x0,-0x578(%rbp)
   12186:	00 00 00 00 
   1218a:	48 c7 85 90 fa ff ff 	movq   $0x0,-0x570(%rbp)
   12191:	00 00 00 00 
   12195:	48 c7 85 98 fa ff ff 	movq   $0x0,-0x568(%rbp)
   1219c:	00 00 00 00 
   121a0:	48 c7 85 a0 fa ff ff 	movq   $0x0,-0x560(%rbp)
   121a7:	00 00 00 00 
   121ab:	48 c7 85 a8 fa ff ff 	movq   $0x0,-0x558(%rbp)
   121b2:	00 00 00 00 
   121b6:	48 c7 85 b0 fa ff ff 	movq   $0x0,-0x550(%rbp)
   121bd:	00 00 00 00 
   121c1:	48 8d 85 c0 fa ff ff 	lea    -0x540(%rbp),%rax
   121c8:	48 8d 15 f1 38 01 00 	lea    0x138f1(%rip),%rdx        # 25ac0 <g_2284+0x120f>
   121cf:	b9 50 00 00 00       	mov    $0x50,%ecx
   121d4:	48 89 c7             	mov    %rax,%rdi
   121d7:	48 89 d6             	mov    %rdx,%rsi
   121da:	f3 48 a5             	rep movsq %ds:(%rsi),%es:(%rdi)
   121dd:	c7 85 98 f9 ff ff fb 	movl   $0xfffffffb,-0x668(%rbp)
   121e4:	ff ff ff 
   121e7:	c7 05 33 1f 01 00 01 	movl   $0x1,0x11f33(%rip)        # 24124 <g_7>
   121ee:	00 00 00 
   121f1:	e9 04 04 00 00       	jmpq   125fa <func_39+0x509>
   121f6:	48 8d 85 a0 f9 ff ff 	lea    -0x660(%rbp),%rax
   121fd:	48 89 85 b8 f9 ff ff 	mov    %rax,-0x648(%rbp)
   12204:	48 8d 85 70 fa ff ff 	lea    -0x590(%rbp),%rax
   1220b:	48 83 c0 10          	add    $0x10,%rax
   1220f:	48 89 85 c0 f9 ff ff 	mov    %rax,-0x640(%rbp)
   12216:	c7 85 9c f9 ff ff fb 	movl   $0xfffffffb,-0x664(%rbp)
   1221d:	ff ff ff 
   12220:	48 8d 05 e1 59 01 00 	lea    0x159e1(%rip),%rax        # 27c08 <g_1161+0x188>
   12227:	48 89 85 c8 f9 ff ff 	mov    %rax,-0x638(%rbp)
   1222e:	48 8b 95 a0 f9 ff ff 	mov    -0x660(%rbp),%rdx
   12235:	48 8b 85 b8 f9 ff ff 	mov    -0x648(%rbp),%rax
   1223c:	48 89 10             	mov    %rdx,(%rax)
   1223f:	48 8b 85 b8 f9 ff ff 	mov    -0x648(%rbp),%rax
   12246:	48 8b 08             	mov    (%rax),%rcx
   12249:	48 8b 95 80 fa ff ff 	mov    -0x580(%rbp),%rdx
   12250:	48 8b 85 c0 f9 ff ff 	mov    -0x640(%rbp),%rax
   12257:	48 89 10             	mov    %rdx,(%rax)
   1225a:	48 8b 85 c0 f9 ff ff 	mov    -0x640(%rbp),%rax
   12261:	48 8b 00             	mov    (%rax),%rax
   12264:	48 39 c1             	cmp    %rax,%rcx
   12267:	0f 94 c0             	sete   %al
   1226a:	0f b6 c0             	movzbl %al,%eax
   1226d:	48 8b 95 e0 fe ff ff 	mov    -0x120(%rbp),%rdx
   12274:	48 98                	cltq   
   12276:	48 21 d0             	and    %rdx,%rax
   12279:	48 89 85 e0 fe ff ff 	mov    %rax,-0x120(%rbp)
   12280:	c7 05 de 6d 01 00 00 	movl   $0x0,0x16dde(%rip)        # 29068 <g_1211>
   12287:	00 00 00 
   1228a:	e9 4a 03 00 00       	jmpq   125d9 <func_39+0x4e8>
   1228f:	c7 85 94 f9 ff ff 00 	movl   $0x0,-0x66c(%rbp)
   12296:	00 00 00 
   12299:	eb 1e                	jmp    122b9 <func_39+0x1c8>
   1229b:	8b 85 94 f9 ff ff    	mov    -0x66c(%rbp),%eax
   122a1:	48 98                	cltq   
   122a3:	48 8d 15 8e 22 01 00 	lea    0x1228e(%rip),%rdx        # 24538 <g_1488+0x18>
   122aa:	48 89 94 c5 f0 f9 ff 	mov    %rdx,-0x610(%rbp,%rax,8)
   122b1:	ff 
   122b2:	83 85 94 f9 ff ff 01 	addl   $0x1,-0x66c(%rbp)
   122b9:	83 bd 94 f9 ff ff 06 	cmpl   $0x6,-0x66c(%rbp)
   122c0:	7e d9                	jle    1229b <func_39+0x1aa>
   122c2:	8b 05 a0 6d 01 00    	mov    0x16da0(%rip),%eax        # 29068 <g_1211>
   122c8:	8d 70 06             	lea    0x6(%rax),%esi
   122cb:	8b 15 97 6d 01 00    	mov    0x16d97(%rip),%edx        # 29068 <g_1211>
   122d1:	8b 05 91 6d 01 00    	mov    0x16d91(%rip),%eax        # 29068 <g_1211>
   122d7:	83 c0 02             	add    $0x2,%eax
   122da:	89 c1                	mov    %eax,%ecx
   122dc:	89 f0                	mov    %esi,%eax
   122de:	89 d2                	mov    %edx,%edx
   122e0:	48 01 c0             	add    %rax,%rax
   122e3:	48 01 d0             	add    %rdx,%rax
   122e6:	48 c1 e0 02          	shl    $0x2,%rax
   122ea:	48 8d 14 08          	lea    (%rax,%rcx,1),%rdx
   122ee:	48 8d 05 0b 21 01 00 	lea    0x1210b(%rip),%rax        # 24400 <g_405>
   122f5:	48 01 d0             	add    %rdx,%rax
   122f8:	0f b6 00             	movzbl (%rax),%eax
   122fb:	84 c0                	test   %al,%al
   122fd:	0f 85 e7 02 00 00    	jne    125ea <func_39+0x4f9>
   12303:	66 c7 05 e8 20 01 00 	movw   $0x0,0x120e8(%rip)        # 243f4 <g_286>
   1230a:	00 00 
   1230c:	e9 96 02 00 00       	jmpq   125a7 <func_39+0x4b6>
   12311:	c6 85 93 f9 ff ff 67 	movb   $0x67,-0x66d(%rbp)
   12318:	48 8d 05 81 5a 01 00 	lea    0x15a81(%rip),%rax        # 27da0 <g_1160>
   1231f:	48 89 85 30 fa ff ff 	mov    %rax,-0x5d0(%rbp)
   12326:	48 8d 05 73 5a 01 00 	lea    0x15a73(%rip),%rax        # 27da0 <g_1160>
   1232d:	48 89 85 38 fa ff ff 	mov    %rax,-0x5c8(%rbp)
   12334:	48 8d 05 65 5a 01 00 	lea    0x15a65(%rip),%rax        # 27da0 <g_1160>
   1233b:	48 89 85 40 fa ff ff 	mov    %rax,-0x5c0(%rbp)
   12342:	48 8d 05 57 5a 01 00 	lea    0x15a57(%rip),%rax        # 27da0 <g_1160>
   12349:	48 89 85 48 fa ff ff 	mov    %rax,-0x5b8(%rbp)
   12350:	48 8d 05 49 5a 01 00 	lea    0x15a49(%rip),%rax        # 27da0 <g_1160>
   12357:	48 89 85 50 fa ff ff 	mov    %rax,-0x5b0(%rbp)
   1235e:	48 8d 05 3b 5a 01 00 	lea    0x15a3b(%rip),%rax        # 27da0 <g_1160>
   12365:	48 89 85 58 fa ff ff 	mov    %rax,-0x5a8(%rbp)
   1236c:	48 8d 05 2d 5a 01 00 	lea    0x15a2d(%rip),%rax        # 27da0 <g_1160>
   12373:	48 89 85 60 fa ff ff 	mov    %rax,-0x5a0(%rbp)
   1237a:	48 8d 05 1f 5a 01 00 	lea    0x15a1f(%rip),%rax        # 27da0 <g_1160>
   12381:	48 89 85 68 fa ff ff 	mov    %rax,-0x598(%rbp)
   12388:	c7 05 56 20 01 00 00 	movl   $0x0,0x12056(%rip)        # 243e8 <g_147>
   1238f:	00 00 00 
   12392:	e9 d2 01 00 00       	jmpq   12569 <func_39+0x478>
   12397:	48 8d 05 4e 20 01 00 	lea    0x1204e(%rip),%rax        # 243ec <g_161>
   1239e:	48 89 85 d0 f9 ff ff 	mov    %rax,-0x630(%rbp)
   123a5:	48 c7 85 d8 f9 ff ff 	movq   $0x0,-0x628(%rbp)
   123ac:	00 00 00 00 
   123b0:	48 8d 05 99 21 01 00 	lea    0x12199(%rip),%rax        # 24550 <g_1679>
   123b7:	48 89 85 a8 f9 ff ff 	mov    %rax,-0x658(%rbp)
   123be:	48 8d 85 a8 f9 ff ff 	lea    -0x658(%rbp),%rax
   123c5:	48 89 85 e0 f9 ff ff 	mov    %rax,-0x620(%rbp)
   123cc:	48 8d 05 19 21 01 00 	lea    0x12119(%rip),%rax        # 244ec <g_1264>
   123d3:	48 89 85 b0 f9 ff ff 	mov    %rax,-0x650(%rbp)
   123da:	48 8d 85 b0 f9 ff ff 	lea    -0x650(%rbp),%rax
   123e1:	48 89 85 e8 f9 ff ff 	mov    %rax,-0x618(%rbp)
   123e8:	0f b6 85 93 f9 ff ff 	movzbl -0x66d(%rbp),%eax
   123ef:	89 c7                	mov    %eax,%edi
   123f1:	e8 b0 9a ff ff       	callq  bea6 <safe_unary_minus_func_uint32_t_u>
   123f6:	85 c0                	test   %eax,%eax
   123f8:	75 09                	jne    12403 <func_39+0x312>
   123fa:	83 bd 9c f9 ff ff 00 	cmpl   $0x0,-0x664(%rbp)
   12401:	74 07                	je     1240a <func_39+0x319>
   12403:	b8 01 00 00 00       	mov    $0x1,%eax
   12408:	eb 05                	jmp    1240f <func_39+0x31e>
   1240a:	b8 00 00 00 00       	mov    $0x0,%eax
   1240f:	89 c3                	mov    %eax,%ebx
   12411:	83 e3 01             	and    $0x1,%ebx
   12414:	48 8b 05 3d 21 01 00 	mov    0x1213d(%rip),%rax        # 24558 <g_1785>
   1241b:	48 8b 05 3e 56 01 00 	mov    0x1563e(%rip),%rax        # 27a60 <g_1099>
   12422:	48 8b 95 10 fa ff ff 	mov    -0x5f0(%rbp),%rdx
   12429:	48 8b 05 30 56 01 00 	mov    0x15630(%rip),%rax        # 27a60 <g_1099>
   12430:	48 8b 00             	mov    (%rax),%rax
   12433:	48 39 c2             	cmp    %rax,%rdx
   12436:	75 69                	jne    124a1 <func_39+0x3b0>
   12438:	48 8b 85 e8 fd ff ff 	mov    -0x218(%rbp),%rax
   1243f:	0f b7 d0             	movzwl %ax,%edx
   12442:	66 83 bd 88 f9 ff ff 	cmpw   $0x0,-0x678(%rbp)
   12449:	00 
   1244a:	74 11                	je     1245d <func_39+0x36c>
   1244c:	48 83 bd 80 f9 ff ff 	cmpq   $0x0,-0x680(%rbp)
   12453:	00 
   12454:	74 07                	je     1245d <func_39+0x36c>
   12456:	b8 01 00 00 00       	mov    $0x1,%eax
   1245b:	eb 05                	jmp    12462 <func_39+0x371>
   1245d:	b8 00 00 00 00       	mov    $0x0,%eax
   12462:	3d 8f d9 ac 33       	cmp    $0x33acd98f,%eax
   12467:	0f 9e c0             	setle  %al
   1246a:	0f b6 c0             	movzbl %al,%eax
   1246d:	89 d6                	mov    %edx,%esi
   1246f:	89 c7                	mov    %eax,%edi
   12471:	e8 a9 98 ff ff       	callq  bd1f <safe_sub_func_uint16_t_u_u>
   12476:	0f b7 c0             	movzwl %ax,%eax
   12479:	48 be 36 94 ce 7a 3f 	movabs $0xc9559c3f7ace9436,%rsi
   12480:	9c 55 c9 
   12483:	48 89 c7             	mov    %rax,%rdi
   12486:	e8 b6 93 ff ff       	callq  b841 <safe_add_func_int64_t_s_s>
   1248b:	48 85 c0             	test   %rax,%rax
   1248e:	75 0a                	jne    1249a <func_39+0x3a9>
   12490:	66 83 bd 88 f9 ff ff 	cmpw   $0x0,-0x678(%rbp)
   12497:	00 
   12498:	74 07                	je     124a1 <func_39+0x3b0>
   1249a:	b8 01 00 00 00       	mov    $0x1,%eax
   1249f:	eb 05                	jmp    124a6 <func_39+0x3b5>
   124a1:	b8 00 00 00 00       	mov    $0x0,%eax
   124a6:	0f b7 c0             	movzwl %ax,%eax
   124a9:	89 c7                	mov    %eax,%edi
   124ab:	e8 39 98 ff ff       	callq  bce9 <safe_unary_minus_func_uint16_t_u>
   124b0:	0f b6 d0             	movzbl %al,%edx
   124b3:	8b 8d 8c f9 ff ff    	mov    -0x674(%rbp),%ecx
   124b9:	48 8b 05 80 1f 01 00 	mov    0x11f80(%rip),%rax        # 24440 <g_431>
   124c0:	48 39 c1             	cmp    %rax,%rcx
   124c3:	0f 9d c0             	setge  %al
   124c6:	0f b6 c0             	movzbl %al,%eax
   124c9:	89 d6                	mov    %edx,%esi
   124cb:	89 c7                	mov    %eax,%edi
   124cd:	e8 c1 96 ff ff       	callq  bb93 <safe_mul_func_uint8_t_u_u>
   124d2:	48 8b 05 bf 6b 01 00 	mov    0x16bbf(%rip),%rax        # 29098 <g_1719>
   124d9:	48 85 c0             	test   %rax,%rax
   124dc:	0f 94 c0             	sete   %al
   124df:	89 c2                	mov    %eax,%edx
   124e1:	48 8b 85 d0 f9 ff ff 	mov    -0x630(%rbp),%rax
   124e8:	88 10                	mov    %dl,(%rax)
   124ea:	48 8b 85 d0 f9 ff ff 	mov    -0x630(%rbp),%rax
   124f1:	0f b6 00             	movzbl (%rax),%eax
   124f4:	0f b6 d0             	movzbl %al,%edx
   124f7:	48 8b 05 0a 51 01 00 	mov    0x1510a(%rip),%rax        # 27608 <g_500>
   124fe:	48 8b 00             	mov    (%rax),%rax
   12501:	0f b6 00             	movzbl (%rax),%eax
   12504:	0f be c0             	movsbl %al,%eax
   12507:	39 c2                	cmp    %eax,%edx
   12509:	0f 9c c0             	setl   %al
   1250c:	09 d8                	or     %ebx,%eax
   1250e:	0f b6 c0             	movzbl %al,%eax
   12511:	48 89 c7             	mov    %rax,%rdi
   12514:	e8 00 9b ff ff       	callq  c019 <safe_unary_minus_func_uint64_t_u>
   12519:	48 8b 85 e0 f9 ff ff 	mov    -0x620(%rbp),%rax
   12520:	48 c7 00 00 00 00 00 	movq   $0x0,(%rax)
   12527:	48 8b 85 e0 f9 ff ff 	mov    -0x620(%rbp),%rax
   1252e:	48 8b 10             	mov    (%rax),%rdx
   12531:	48 8b 85 e8 f9 ff ff 	mov    -0x618(%rbp),%rax
   12538:	48 89 10             	mov    %rdx,(%rax)
   1253b:	48 8b 85 00 ff ff ff 	mov    -0x100(%rbp),%rax
   12542:	48 85 c0             	test   %rax,%rax
   12545:	75 33                	jne    1257a <func_39+0x489>
   12547:	66 83 bd 88 f9 ff ff 	cmpw   $0x0,-0x678(%rbp)
   1254e:	00 
   1254f:	75 2c                	jne    1257d <func_39+0x48c>
   12551:	8b 05 91 1e 01 00    	mov    0x11e91(%rip),%eax        # 243e8 <g_147>
   12557:	be 05 00 00 00       	mov    $0x5,%esi
   1255c:	89 c7                	mov    %eax,%edi
   1255e:	e8 55 99 ff ff       	callq  beb8 <safe_add_func_uint32_t_u_u>
   12563:	89 05 7f 1e 01 00    	mov    %eax,0x11e7f(%rip)        # 243e8 <g_147>
   12569:	8b 05 79 1e 01 00    	mov    0x11e79(%rip),%eax        # 243e8 <g_147>
   1256f:	83 f8 2f             	cmp    $0x2f,%eax
   12572:	0f 87 1f fe ff ff    	ja     12397 <func_39+0x2a6>
   12578:	eb 04                	jmp    1257e <func_39+0x48d>
   1257a:	90                   	nop
   1257b:	eb 01                	jmp    1257e <func_39+0x48d>
   1257d:	90                   	nop
   1257e:	48 8b 85 c8 f9 ff ff 	mov    -0x638(%rbp),%rax
   12585:	48 89 85 e0 fc ff ff 	mov    %rax,-0x320(%rbp)
   1258c:	0f b7 05 61 1e 01 00 	movzwl 0x11e61(%rip),%eax        # 243f4 <g_286>
   12593:	98                   	cwtl   
   12594:	be 02 00 00 00       	mov    $0x2,%esi
   12599:	89 c7                	mov    %eax,%edi
   1259b:	e8 65 90 ff ff       	callq  b605 <safe_sub_func_int32_t_s_s>
   125a0:	66 89 05 4d 1e 01 00 	mov    %ax,0x11e4d(%rip)        # 243f4 <g_286>
   125a7:	0f b7 05 46 1e 01 00 	movzwl 0x11e46(%rip),%eax        # 243f4 <g_286>
   125ae:	66 83 f8 eb          	cmp    $0xffeb,%ax
   125b2:	0f 8c 59 fd ff ff    	jl     12311 <func_39+0x220>
   125b8:	48 8b 15 09 5a 01 00 	mov    0x15a09(%rip),%rdx        # 27fc8 <g_1685>
   125bf:	48 8b 05 02 5a 01 00 	mov    0x15a02(%rip),%rax        # 27fc8 <g_1685>
   125c6:	8b 12                	mov    (%rdx),%edx
   125c8:	89 10                	mov    %edx,(%rax)
   125ca:	8b 05 98 6a 01 00    	mov    0x16a98(%rip),%eax        # 29068 <g_1211>
   125d0:	83 c0 01             	add    $0x1,%eax
   125d3:	89 05 8f 6a 01 00    	mov    %eax,0x16a8f(%rip)        # 29068 <g_1211>
   125d9:	8b 05 89 6a 01 00    	mov    0x16a89(%rip),%eax        # 29068 <g_1211>
   125df:	83 f8 01             	cmp    $0x1,%eax
   125e2:	0f 86 a7 fc ff ff    	jbe    1228f <func_39+0x19e>
   125e8:	eb 01                	jmp    125eb <func_39+0x4fa>
   125ea:	90                   	nop
   125eb:	8b 05 33 1b 01 00    	mov    0x11b33(%rip),%eax        # 24124 <g_7>
   125f1:	83 e8 01             	sub    $0x1,%eax
   125f4:	89 05 2a 1b 01 00    	mov    %eax,0x11b2a(%rip)        # 24124 <g_7>
   125fa:	8b 05 24 1b 01 00    	mov    0x11b24(%rip),%eax        # 24124 <g_7>
   12600:	85 c0                	test   %eax,%eax
   12602:	0f 89 ee fb ff ff    	jns    121f6 <func_39+0x105>
   12608:	48 8b 05 71 4c 01 00 	mov    0x14c71(%rip),%rax        # 27280 <g_138>
   1260f:	8b 95 98 f9 ff ff    	mov    -0x668(%rbp),%edx
   12615:	89 10                	mov    %edx,(%rax)
   12617:	0f b7 05 c2 1e 01 00 	movzwl 0x11ec2(%rip),%eax        # 244e0 <g_1166>
   1261e:	83 c0 01             	add    $0x1,%eax
   12621:	66 89 05 b8 1e 01 00 	mov    %ax,0x11eb8(%rip)        # 244e0 <g_1166>
   12628:	0f b7 05 b1 1e 01 00 	movzwl 0x11eb1(%rip),%eax        # 244e0 <g_1166>
   1262f:	66 83 f8 2d          	cmp    $0x2d,%ax
   12633:	0f 86 17 fb ff ff    	jbe    12150 <func_39+0x5f>
   12639:	48 8b 05 f8 4f 01 00 	mov    0x14ff8(%rip),%rax        # 27638 <g_567>
   12640:	48 8b 00             	mov    (%rax),%rax
   12643:	48 8b 00             	mov    (%rax),%rax
   12646:	48 8b 5d e8          	mov    -0x18(%rbp),%rbx
   1264a:	64 48 33 1c 25 28 00 	xor    %fs:0x28,%rbx
   12651:	00 00 
   12653:	74 05                	je     1265a <func_39+0x569>
   12655:	e8 16 8a ff ff       	callq  b070 <__stack_chk_fail@plt>
   1265a:	48 81 c4 78 06 00 00 	add    $0x678,%rsp
   12661:	5b                   	pop    %rbx
   12662:	5d                   	pop    %rbp
   12663:	c3                   	retq   

0000000000012664 <func_45>:
   12664:	f3 0f 1e fa          	endbr64 
   12668:	55                   	push   %rbp
   12669:	48 89 e5             	mov    %rsp,%rbp
   1266c:	41 54                	push   %r12
   1266e:	53                   	push   %rbx
   1266f:	48 81 ec 50 01 00 00 	sub    $0x150,%rsp
   12676:	48 89 bd c8 fe ff ff 	mov    %rdi,-0x138(%rbp)
   1267d:	48 89 b5 c0 fe ff ff 	mov    %rsi,-0x140(%rbp)
   12684:	89 95 bc fe ff ff    	mov    %edx,-0x144(%rbp)
   1268a:	48 89 8d b0 fe ff ff 	mov    %rcx,-0x150(%rbp)
   12691:	4c 89 85 a8 fe ff ff 	mov    %r8,-0x158(%rbp)
   12698:	64 48 8b 04 25 28 00 	mov    %fs:0x28,%rax
   1269f:	00 00 
   126a1:	48 89 45 e8          	mov    %rax,-0x18(%rbp)
   126a5:	31 c0                	xor    %eax,%eax
   126a7:	c7 85 10 ff ff ff f7 	movl   $0xfffffff7,-0xf0(%rbp)
   126ae:	ff ff ff 
   126b1:	c7 85 14 ff ff ff 49 	movl   $0x5c472349,-0xec(%rbp)
   126b8:	23 47 5c 
   126bb:	c7 85 18 ff ff ff 49 	movl   $0x5c472349,-0xe8(%rbp)
   126c2:	23 47 5c 
   126c5:	c7 85 1c ff ff ff f7 	movl   $0xfffffff7,-0xe4(%rbp)
   126cc:	ff ff ff 
   126cf:	c7 85 20 ff ff ff 13 	movl   $0x4805ec13,-0xe0(%rbp)
   126d6:	ec 05 48 
   126d9:	c7 85 24 ff ff ff 01 	movl   $0x1,-0xdc(%rbp)
   126e0:	00 00 00 
   126e3:	c7 85 28 ff ff ff 5f 	movl   $0xd6a7c75f,-0xd8(%rbp)
   126ea:	c7 a7 d6 
   126ed:	c7 85 2c ff ff ff 49 	movl   $0x5c472349,-0xd4(%rbp)
   126f4:	23 47 5c 
   126f7:	c7 85 30 ff ff ff 13 	movl   $0x4805ec13,-0xd0(%rbp)
   126fe:	ec 05 48 
   12701:	c7 85 34 ff ff ff 5f 	movl   $0xd6a7c75f,-0xcc(%rbp)
   12708:	c7 a7 d6 
   1270b:	c7 85 38 ff ff ff 13 	movl   $0x4805ec13,-0xc8(%rbp)
   12712:	ec 05 48 
   12715:	c7 85 3c ff ff ff 49 	movl   $0x5c472349,-0xc4(%rbp)
   1271c:	23 47 5c 
   1271f:	c7 85 40 ff ff ff 84 	movl   $0x86127984,-0xc0(%rbp)
   12726:	79 12 86 
   12729:	c7 85 44 ff ff ff 49 	movl   $0x5c472349,-0xbc(%rbp)
   12730:	23 47 5c 
   12733:	c7 85 48 ff ff ff 01 	movl   $0x1,-0xb8(%rbp)
   1273a:	00 00 00 
   1273d:	c7 85 4c ff ff ff 84 	movl   $0x86127984,-0xb4(%rbp)
   12744:	79 12 86 
   12747:	c7 85 50 ff ff ff 13 	movl   $0x4805ec13,-0xb0(%rbp)
   1274e:	ec 05 48 
   12751:	c7 85 54 ff ff ff 13 	movl   $0x4805ec13,-0xac(%rbp)
   12758:	ec 05 48 
   1275b:	c7 85 58 ff ff ff f7 	movl   $0xfffffff7,-0xa8(%rbp)
   12762:	ff ff ff 
   12765:	c7 85 5c ff ff ff 49 	movl   $0x5c472349,-0xa4(%rbp)
   1276c:	23 47 5c 
   1276f:	c7 85 60 ff ff ff 49 	movl   $0x5c472349,-0xa0(%rbp)
   12776:	23 47 5c 
   12779:	c7 85 64 ff ff ff f7 	movl   $0xfffffff7,-0x9c(%rbp)
   12780:	ff ff ff 
   12783:	c7 85 68 ff ff ff 13 	movl   $0x4805ec13,-0x98(%rbp)
   1278a:	ec 05 48 
   1278d:	c7 85 6c ff ff ff 01 	movl   $0x1,-0x94(%rbp)
   12794:	00 00 00 
   12797:	c7 85 70 ff ff ff 5f 	movl   $0xd6a7c75f,-0x90(%rbp)
   1279e:	c7 a7 d6 
   127a1:	c7 85 74 ff ff ff 49 	movl   $0x5c472349,-0x8c(%rbp)
   127a8:	23 47 5c 
   127ab:	c7 85 78 ff ff ff 13 	movl   $0x4805ec13,-0x88(%rbp)
   127b2:	ec 05 48 
   127b5:	c7 85 7c ff ff ff 5f 	movl   $0xd6a7c75f,-0x84(%rbp)
   127bc:	c7 a7 d6 
   127bf:	c7 45 80 13 ec 05 48 	movl   $0x4805ec13,-0x80(%rbp)
   127c6:	c7 45 84 49 23 47 5c 	movl   $0x5c472349,-0x7c(%rbp)
   127cd:	c7 45 88 84 79 12 86 	movl   $0x86127984,-0x78(%rbp)
   127d4:	c7 45 8c 49 23 47 5c 	movl   $0x5c472349,-0x74(%rbp)
   127db:	c7 45 90 01 00 00 00 	movl   $0x1,-0x70(%rbp)
   127e2:	c7 45 94 84 79 12 86 	movl   $0x86127984,-0x6c(%rbp)
   127e9:	c7 45 98 13 ec 05 48 	movl   $0x4805ec13,-0x68(%rbp)
   127f0:	c7 45 9c 13 ec 05 48 	movl   $0x4805ec13,-0x64(%rbp)
   127f7:	c7 45 a0 f7 ff ff ff 	movl   $0xfffffff7,-0x60(%rbp)
   127fe:	c7 45 a4 49 23 47 5c 	movl   $0x5c472349,-0x5c(%rbp)
   12805:	c7 45 a8 49 23 47 5c 	movl   $0x5c472349,-0x58(%rbp)
   1280c:	c7 45 ac f7 ff ff ff 	movl   $0xfffffff7,-0x54(%rbp)
   12813:	c7 45 b0 13 ec 05 48 	movl   $0x4805ec13,-0x50(%rbp)
   1281a:	c7 45 b4 01 00 00 00 	movl   $0x1,-0x4c(%rbp)
   12821:	c7 45 b8 5f c7 a7 d6 	movl   $0xd6a7c75f,-0x48(%rbp)
   12828:	c7 45 bc 49 23 47 5c 	movl   $0x5c472349,-0x44(%rbp)
   1282f:	c7 45 c0 13 ec 05 48 	movl   $0x4805ec13,-0x40(%rbp)
   12836:	c7 45 c4 5f c7 a7 d6 	movl   $0xd6a7c75f,-0x3c(%rbp)
   1283d:	c7 45 c8 13 ec 05 48 	movl   $0x4805ec13,-0x38(%rbp)
   12844:	c7 45 cc 49 23 47 5c 	movl   $0x5c472349,-0x34(%rbp)
   1284b:	c7 45 d0 84 79 12 86 	movl   $0x86127984,-0x30(%rbp)
   12852:	c7 45 d4 49 23 47 5c 	movl   $0x5c472349,-0x2c(%rbp)
   12859:	c7 45 d8 01 00 00 00 	movl   $0x1,-0x28(%rbp)
   12860:	c7 45 dc 84 79 12 86 	movl   $0x86127984,-0x24(%rbp)
   12867:	c7 45 e0 13 ec 05 48 	movl   $0x4805ec13,-0x20(%rbp)
   1286e:	c7 45 e4 13 ec 05 48 	movl   $0x4805ec13,-0x1c(%rbp)
   12875:	48 c7 85 d0 fe ff ff 	movq   $0x0,-0x130(%rbp)
   1287c:	00 00 00 00 
   12880:	48 8d 05 6d 1b 01 00 	lea    0x11b6d(%rip),%rax        # 243f4 <g_286>
   12887:	48 89 85 d8 fe ff ff 	mov    %rax,-0x128(%rbp)
   1288e:	48 8d 05 a3 18 01 00 	lea    0x118a3(%rip),%rax        # 24138 <g_59+0x8>
   12895:	48 89 85 e0 fe ff ff 	mov    %rax,-0x120(%rbp)
   1289c:	48 8d 05 dd 49 01 00 	lea    0x149dd(%rip),%rax        # 27280 <g_138>
   128a3:	48 89 85 e8 fe ff ff 	mov    %rax,-0x118(%rbp)
   128aa:	48 8d 05 8f 49 01 00 	lea    0x1498f(%rip),%rax        # 27240 <g_58>
   128b1:	48 89 85 f0 fe ff ff 	mov    %rax,-0x110(%rbp)
   128b8:	48 c7 85 f8 fe ff ff 	movq   $0xffffffffffffffff,-0x108(%rbp)
   128bf:	ff ff ff ff 
   128c3:	48 8d 05 c8 18 01 00 	lea    0x118c8(%rip),%rax        # 24192 <g_129>
   128ca:	48 89 85 00 ff ff ff 	mov    %rax,-0x100(%rbp)
   128d1:	48 8d 05 a8 66 01 00 	lea    0x166a8(%rip),%rax        # 28f80 <g_210>
   128d8:	48 89 85 08 ff ff ff 	mov    %rax,-0xf8(%rbp)
   128df:	48 8b 85 b0 fe ff ff 	mov    -0x150(%rbp),%rax
   128e6:	0f bf d8             	movswl %ax,%ebx
   128e9:	48 8b 85 d8 fe ff ff 	mov    -0x128(%rbp),%rax
   128f0:	0f b7 00             	movzwl (%rax),%eax
   128f3:	8b 55 ac             	mov    -0x54(%rbp),%edx
   128f6:	31 c2                	xor    %eax,%edx
   128f8:	48 8b 85 d8 fe ff ff 	mov    -0x128(%rbp),%rax
   128ff:	66 89 10             	mov    %dx,(%rax)
   12902:	48 8b 85 d8 fe ff ff 	mov    -0x128(%rbp),%rax
   12909:	44 0f b7 20          	movzwl (%rax),%r12d
   1290d:	48 8b 85 00 ff ff ff 	mov    -0x100(%rbp),%rax
   12914:	66 c7 00 06 00       	movw   $0x6,(%rax)
   12919:	48 8b 85 f8 fe ff ff 	mov    -0x108(%rbp),%rax
   12920:	0f b7 c0             	movzwl %ax,%eax
   12923:	be 06 00 00 00       	mov    $0x6,%esi
   12928:	89 c7                	mov    %eax,%edi
   1292a:	e8 f0 93 ff ff       	callq  bd1f <safe_sub_func_uint16_t_u_u>
   1292f:	0f b7 d0             	movzwl %ax,%edx
   12932:	48 8b 85 08 ff ff ff 	mov    -0xf8(%rbp),%rax
   12939:	48 89 10             	mov    %rdx,(%rax)
   1293c:	48 8b 85 08 ff ff ff 	mov    -0xf8(%rbp),%rax
   12943:	48 8b 00             	mov    (%rax),%rax
   12946:	48 89 c6             	mov    %rax,%rsi
   12949:	48 8b 85 e8 fe ff ff 	mov    -0x118(%rbp),%rax
   12950:	48 8b 95 e0 fe ff ff 	mov    -0x120(%rbp),%rdx
   12957:	48 89 10             	mov    %rdx,(%rax)
   1295a:	48 8b 85 e8 fe ff ff 	mov    -0x118(%rbp),%rax
   12961:	48 8b 08             	mov    (%rax),%rcx
   12964:	48 8b 85 f0 fe ff ff 	mov    -0x110(%rbp),%rax
   1296b:	48 8b 95 e0 fe ff ff 	mov    -0x120(%rbp),%rdx
   12972:	48 89 10             	mov    %rdx,(%rax)
   12975:	48 8b 85 f0 fe ff ff 	mov    -0x110(%rbp),%rax
   1297c:	48 8b 00             	mov    (%rax),%rax
   1297f:	48 39 c1             	cmp    %rax,%rcx
   12982:	0f 94 c0             	sete   %al
   12985:	0f b6 c0             	movzbl %al,%eax
   12988:	48 89 c7             	mov    %rax,%rdi
   1298b:	e8 f0 96 ff ff       	callq  c080 <safe_mod_func_uint64_t_u_u>
   12990:	bf f7 00 00 00       	mov    $0xf7,%edi
   12995:	e8 ab 91 ff ff       	callq  bb45 <safe_unary_minus_func_uint8_t_u>
   1299a:	84 c0                	test   %al,%al
   1299c:	0f 95 c0             	setne  %al
   1299f:	0f b6 c0             	movzbl %al,%eax
   129a2:	89 c6                	mov    %eax,%esi
   129a4:	bf 01 00 00 00       	mov    $0x1,%edi
   129a9:	e8 68 8a ff ff       	callq  b416 <safe_mod_func_int16_t_s_s>
   129ae:	0f bf d0             	movswl %ax,%edx
   129b1:	0f b7 85 c8 fe ff ff 	movzwl -0x138(%rbp),%eax
   129b8:	0f b7 c0             	movzwl %ax,%eax
   129bb:	39 c2                	cmp    %eax,%edx
   129bd:	0f 9e c0             	setle  %al
   129c0:	0f b6 c0             	movzbl %al,%eax
   129c3:	89 c7                	mov    %eax,%edi
   129c5:	e8 d3 89 ff ff       	callq  b39d <safe_unary_minus_func_int16_t_s>
   129ca:	66 41 39 c4          	cmp    %ax,%r12w
   129ce:	7f 15                	jg     129e5 <func_45+0x381>
   129d0:	48 8b 85 a8 fe ff ff 	mov    -0x158(%rbp),%rax
   129d7:	0f b6 00             	movzbl (%rax),%eax
   129da:	84 c0                	test   %al,%al
   129dc:	74 07                	je     129e5 <func_45+0x381>
   129de:	b8 01 00 00 00       	mov    $0x1,%eax
   129e3:	eb 05                	jmp    129ea <func_45+0x386>
   129e5:	b8 00 00 00 00       	mov    $0x0,%eax
   129ea:	0f b7 c0             	movzwl %ax,%eax
   129ed:	be 00 00 00 00       	mov    $0x0,%esi
   129f2:	89 c7                	mov    %eax,%edi
   129f4:	e8 c5 93 ff ff       	callq  bdbe <safe_lshift_func_uint16_t_u_s>
   129f9:	48 8b 85 b0 fe ff ff 	mov    -0x150(%rbp),%rax
   12a00:	0f b6 d0             	movzbl %al,%edx
   12a03:	8b 85 bc fe ff ff    	mov    -0x144(%rbp),%eax
   12a09:	0f b6 c0             	movzbl %al,%eax
   12a0c:	89 d6                	mov    %edx,%esi
   12a0e:	89 c7                	mov    %eax,%edi
   12a10:	e8 63 91 ff ff       	callq  bb78 <safe_sub_func_uint8_t_u_u>
   12a15:	0f b6 c0             	movzbl %al,%eax
   12a18:	89 de                	mov    %ebx,%esi
   12a1a:	89 c7                	mov    %eax,%edi
   12a1c:	e8 92 89 ff ff       	callq  b3b3 <safe_add_func_int16_t_s_s>
   12a21:	0f bf d0             	movswl %ax,%edx
   12a24:	8b 85 c8 fe ff ff    	mov    -0x138(%rbp),%eax
   12a2a:	39 c2                	cmp    %eax,%edx
   12a2c:	0f 9f c0             	setg   %al
   12a2f:	0f b6 c8             	movzbl %al,%ecx
   12a32:	48 8b 05 8f 55 01 00 	mov    0x1558f(%rip),%rax        # 27fc8 <g_1685>
   12a39:	8b 10                	mov    (%rax),%edx
   12a3b:	48 8b 05 86 55 01 00 	mov    0x15586(%rip),%rax        # 27fc8 <g_1685>
   12a42:	21 ca                	and    %ecx,%edx
   12a44:	89 10                	mov    %edx,(%rax)
   12a46:	48 8b 85 e0 fe ff ff 	mov    -0x120(%rbp),%rax
   12a4d:	8b 00                	mov    (%rax),%eax
   12a4f:	48 8b 5d e8          	mov    -0x18(%rbp),%rbx
   12a53:	64 48 33 1c 25 28 00 	xor    %fs:0x28,%rbx
   12a5a:	00 00 
   12a5c:	74 05                	je     12a63 <func_45+0x3ff>
   12a5e:	e8 0d 86 ff ff       	callq  b070 <__stack_chk_fail@plt>
   12a63:	48 81 c4 50 01 00 00 	add    $0x150,%rsp
   12a6a:	5b                   	pop    %rbx
   12a6b:	41 5c                	pop    %r12
   12a6d:	5d                   	pop    %rbp
   12a6e:	c3                   	retq   

0000000000012a6f <func_52>:
   12a6f:	f3 0f 1e fa          	endbr64 
   12a73:	55                   	push   %rbp
   12a74:	48 89 e5             	mov    %rsp,%rbp
   12a77:	48 81 ec 20 03 00 00 	sub    $0x320,%rsp
   12a7e:	89 bd ec fc ff ff    	mov    %edi,-0x314(%rbp)
   12a84:	64 48 8b 04 25 28 00 	mov    %fs:0x28,%rax
   12a8b:	00 00 
   12a8d:	48 89 45 f8          	mov    %rax,-0x8(%rbp)
   12a91:	31 c0                	xor    %eax,%eax
   12a93:	8b 85 00 fd ff ff    	mov    -0x300(%rbp),%eax
   12a99:	25 00 00 f0 ff       	and    $0xfff00000,%eax
   12a9e:	0d e0 70 0f 00       	or     $0xf70e0,%eax
   12aa3:	89 85 00 fd ff ff    	mov    %eax,-0x300(%rbp)
   12aa9:	48 8d 05 e0 64 01 00 	lea    0x164e0(%rip),%rax        # 28f90 <g_235>
   12ab0:	48 89 85 90 fd ff ff 	mov    %rax,-0x270(%rbp)
   12ab7:	48 8d 05 d2 64 01 00 	lea    0x164d2(%rip),%rax        # 28f90 <g_235>
   12abe:	48 89 85 98 fd ff ff 	mov    %rax,-0x268(%rbp)
   12ac5:	48 8d 05 c4 64 01 00 	lea    0x164c4(%rip),%rax        # 28f90 <g_235>
   12acc:	48 89 85 a0 fd ff ff 	mov    %rax,-0x260(%rbp)
   12ad3:	48 8d 05 b6 64 01 00 	lea    0x164b6(%rip),%rax        # 28f90 <g_235>
   12ada:	48 89 85 a8 fd ff ff 	mov    %rax,-0x258(%rbp)
   12ae1:	48 8d 05 a8 64 01 00 	lea    0x164a8(%rip),%rax        # 28f90 <g_235>
   12ae8:	48 89 85 b0 fd ff ff 	mov    %rax,-0x250(%rbp)
   12aef:	48 8d 05 9a 64 01 00 	lea    0x1649a(%rip),%rax        # 28f90 <g_235>
   12af6:	48 89 85 b8 fd ff ff 	mov    %rax,-0x248(%rbp)
   12afd:	48 8d 85 90 fd ff ff 	lea    -0x270(%rbp),%rax
   12b04:	48 83 c0 28          	add    $0x28,%rax
   12b08:	48 89 85 40 fd ff ff 	mov    %rax,-0x2c0(%rbp)
   12b0f:	48 c7 85 48 fd ff ff 	movq   $0x0,-0x2b8(%rbp)
   12b16:	00 00 00 00 
   12b1a:	48 c7 85 28 fd ff ff 	movq   $0x0,-0x2d8(%rbp)
   12b21:	00 00 00 00 
   12b25:	48 8d 85 28 fd ff ff 	lea    -0x2d8(%rbp),%rax
   12b2c:	48 89 85 30 fd ff ff 	mov    %rax,-0x2d0(%rbp)
   12b33:	48 8d 85 30 fd ff ff 	lea    -0x2d0(%rbp),%rax
   12b3a:	48 89 85 50 fd ff ff 	mov    %rax,-0x2b0(%rbp)
   12b41:	c7 85 14 fd ff ff 03 	movl   $0x3,-0x2ec(%rbp)
   12b48:	00 00 00 
   12b4b:	48 8d 05 a2 19 01 00 	lea    0x119a2(%rip),%rax        # 244f4 <g_1387+0x4>
   12b52:	48 89 85 58 fd ff ff 	mov    %rax,-0x2a8(%rbp)
   12b59:	48 8d 05 a4 19 01 00 	lea    0x119a4(%rip),%rax        # 24504 <g_1423>
   12b60:	48 89 85 60 fd ff ff 	mov    %rax,-0x2a0(%rbp)
   12b67:	48 8d 05 7a 19 01 00 	lea    0x1197a(%rip),%rax        # 244e8 <g_1215>
   12b6e:	48 89 85 10 ff ff ff 	mov    %rax,-0xf0(%rbp)
   12b75:	48 8d 05 80 19 01 00 	lea    0x11980(%rip),%rax        # 244fc <g_1387+0xc>
   12b7c:	48 89 85 18 ff ff ff 	mov    %rax,-0xe8(%rbp)
   12b83:	48 8d 05 72 19 01 00 	lea    0x11972(%rip),%rax        # 244fc <g_1387+0xc>
   12b8a:	48 89 85 20 ff ff ff 	mov    %rax,-0xe0(%rbp)
   12b91:	48 8d 05 50 19 01 00 	lea    0x11950(%rip),%rax        # 244e8 <g_1215>
   12b98:	48 89 85 28 ff ff ff 	mov    %rax,-0xd8(%rbp)
   12b9f:	48 8d 05 56 19 01 00 	lea    0x11956(%rip),%rax        # 244fc <g_1387+0xc>
   12ba6:	48 89 85 30 ff ff ff 	mov    %rax,-0xd0(%rbp)
   12bad:	48 8d 05 48 19 01 00 	lea    0x11948(%rip),%rax        # 244fc <g_1387+0xc>
   12bb4:	48 89 85 38 ff ff ff 	mov    %rax,-0xc8(%rbp)
   12bbb:	48 8d 05 26 19 01 00 	lea    0x11926(%rip),%rax        # 244e8 <g_1215>
   12bc2:	48 89 85 40 ff ff ff 	mov    %rax,-0xc0(%rbp)
   12bc9:	48 8d 05 2c 19 01 00 	lea    0x1192c(%rip),%rax        # 244fc <g_1387+0xc>
   12bd0:	48 89 85 48 ff ff ff 	mov    %rax,-0xb8(%rbp)
   12bd7:	48 8d 05 0a 19 01 00 	lea    0x1190a(%rip),%rax        # 244e8 <g_1215>
   12bde:	48 89 85 50 ff ff ff 	mov    %rax,-0xb0(%rbp)
   12be5:	48 8d 05 10 19 01 00 	lea    0x11910(%rip),%rax        # 244fc <g_1387+0xc>
   12bec:	48 89 85 58 ff ff ff 	mov    %rax,-0xa8(%rbp)
   12bf3:	48 8d 05 02 19 01 00 	lea    0x11902(%rip),%rax        # 244fc <g_1387+0xc>
   12bfa:	48 89 85 60 ff ff ff 	mov    %rax,-0xa0(%rbp)
   12c01:	48 8d 05 e0 18 01 00 	lea    0x118e0(%rip),%rax        # 244e8 <g_1215>
   12c08:	48 89 85 68 ff ff ff 	mov    %rax,-0x98(%rbp)
   12c0f:	48 8d 05 e6 18 01 00 	lea    0x118e6(%rip),%rax        # 244fc <g_1387+0xc>
   12c16:	48 89 85 70 ff ff ff 	mov    %rax,-0x90(%rbp)
   12c1d:	48 8d 05 d8 18 01 00 	lea    0x118d8(%rip),%rax        # 244fc <g_1387+0xc>
   12c24:	48 89 85 78 ff ff ff 	mov    %rax,-0x88(%rbp)
   12c2b:	48 8d 05 b6 18 01 00 	lea    0x118b6(%rip),%rax        # 244e8 <g_1215>
   12c32:	48 89 45 80          	mov    %rax,-0x80(%rbp)
   12c36:	48 8d 05 ab 18 01 00 	lea    0x118ab(%rip),%rax        # 244e8 <g_1215>
   12c3d:	48 89 45 88          	mov    %rax,-0x78(%rbp)
   12c41:	48 8d 05 f0 14 01 00 	lea    0x114f0(%rip),%rax        # 24138 <g_59+0x8>
   12c48:	48 89 45 90          	mov    %rax,-0x70(%rbp)
   12c4c:	48 8d 05 95 18 01 00 	lea    0x11895(%rip),%rax        # 244e8 <g_1215>
   12c53:	48 89 45 98          	mov    %rax,-0x68(%rbp)
   12c57:	48 8d 05 8a 18 01 00 	lea    0x1188a(%rip),%rax        # 244e8 <g_1215>
   12c5e:	48 89 45 a0          	mov    %rax,-0x60(%rbp)
   12c62:	48 8d 05 cf 14 01 00 	lea    0x114cf(%rip),%rax        # 24138 <g_59+0x8>
   12c69:	48 89 45 a8          	mov    %rax,-0x58(%rbp)
   12c6d:	48 8d 05 74 18 01 00 	lea    0x11874(%rip),%rax        # 244e8 <g_1215>
   12c74:	48 89 45 b0          	mov    %rax,-0x50(%rbp)
   12c78:	48 8d 05 69 18 01 00 	lea    0x11869(%rip),%rax        # 244e8 <g_1215>
   12c7f:	48 89 45 b8          	mov    %rax,-0x48(%rbp)
   12c83:	48 8d 05 72 18 01 00 	lea    0x11872(%rip),%rax        # 244fc <g_1387+0xc>
   12c8a:	48 89 45 c0          	mov    %rax,-0x40(%rbp)
   12c8e:	48 8d 05 67 18 01 00 	lea    0x11867(%rip),%rax        # 244fc <g_1387+0xc>
   12c95:	48 89 45 c8          	mov    %rax,-0x38(%rbp)
   12c99:	48 8d 05 48 18 01 00 	lea    0x11848(%rip),%rax        # 244e8 <g_1215>
   12ca0:	48 89 45 d0          	mov    %rax,-0x30(%rbp)
   12ca4:	48 8d 05 51 18 01 00 	lea    0x11851(%rip),%rax        # 244fc <g_1387+0xc>
   12cab:	48 89 45 d8          	mov    %rax,-0x28(%rbp)
   12caf:	48 8d 05 46 18 01 00 	lea    0x11846(%rip),%rax        # 244fc <g_1387+0xc>
   12cb6:	48 89 45 e0          	mov    %rax,-0x20(%rbp)
   12cba:	48 8d 05 27 18 01 00 	lea    0x11827(%rip),%rax        # 244e8 <g_1215>
   12cc1:	48 89 45 e8          	mov    %rax,-0x18(%rbp)
   12cc5:	c7 85 04 fd ff ff 00 	movl   $0x0,-0x2fc(%rbp)
   12ccc:	00 00 00 
   12ccf:	eb 1b                	jmp    12cec <func_52+0x27d>
   12cd1:	8b 85 04 fd ff ff    	mov    -0x2fc(%rbp),%eax
   12cd7:	48 98                	cltq   
   12cd9:	48 c7 84 c5 70 fd ff 	movq   $0x1,-0x290(%rbp,%rax,8)
   12ce0:	ff 01 00 00 00 
   12ce5:	83 85 04 fd ff ff 01 	addl   $0x1,-0x2fc(%rbp)
   12cec:	83 bd 04 fd ff ff 02 	cmpl   $0x2,-0x2fc(%rbp)
   12cf3:	7e dc                	jle    12cd1 <func_52+0x262>
   12cf5:	c7 85 ec fc ff ff 1c 	movl   $0x1c,-0x314(%rbp)
   12cfc:	00 00 00 
   12cff:	e9 4e 03 00 00       	jmpq   13052 <func_52+0x5e3>
   12d04:	66 c7 85 fc fc ff ff 	movw   $0xc16a,-0x304(%rbp)
   12d0b:	6a c1 
   12d0d:	c7 85 18 fd ff ff 00 	movl   $0x0,-0x2e8(%rbp)
   12d14:	00 00 00 
   12d17:	c7 85 50 fe ff ff 74 	movl   $0xbe367a74,-0x1b0(%rbp)
   12d1e:	7a 36 be 
   12d21:	c7 85 54 fe ff ff ff 	movl   $0xffffffff,-0x1ac(%rbp)
   12d28:	ff ff ff 
   12d2b:	c7 85 58 fe ff ff 20 	movl   $0x7f2c2f20,-0x1a8(%rbp)
   12d32:	2f 2c 7f 
   12d35:	c7 85 5c fe ff ff ff 	movl   $0xffffffff,-0x1a4(%rbp)
   12d3c:	ff ff ff 
   12d3f:	c7 85 60 fe ff ff 74 	movl   $0xbe367a74,-0x1a0(%rbp)
   12d46:	7a 36 be 
   12d49:	c7 85 64 fe ff ff ff 	movl   $0xffffffff,-0x19c(%rbp)
   12d50:	ff ff ff 
   12d53:	c7 85 68 fe ff ff 20 	movl   $0x7f2c2f20,-0x198(%rbp)
   12d5a:	2f 2c 7f 
   12d5d:	c7 85 6c fe ff ff ff 	movl   $0xffffffff,-0x194(%rbp)
   12d64:	ff ff ff 
   12d67:	c7 85 70 fe ff ff 74 	movl   $0xbe367a74,-0x190(%rbp)
   12d6e:	7a 36 be 
   12d71:	c7 85 74 fe ff ff ff 	movl   $0xffffffff,-0x18c(%rbp)
   12d78:	ff ff ff 
   12d7b:	c7 85 78 fe ff ff 20 	movl   $0x7f2c2f20,-0x188(%rbp)
   12d82:	2f 2c 7f 
   12d85:	c7 85 7c fe ff ff ff 	movl   $0xffffffff,-0x184(%rbp)
   12d8c:	ff ff ff 
   12d8f:	c7 85 80 fe ff ff 74 	movl   $0xbe367a74,-0x180(%rbp)
   12d96:	7a 36 be 
   12d99:	c7 85 84 fe ff ff ff 	movl   $0xffffffff,-0x17c(%rbp)
   12da0:	ff ff ff 
   12da3:	c7 85 88 fe ff ff 20 	movl   $0x7f2c2f20,-0x178(%rbp)
   12daa:	2f 2c 7f 
   12dad:	c7 85 8c fe ff ff ff 	movl   $0xffffffff,-0x174(%rbp)
   12db4:	ff ff ff 
   12db7:	c7 85 90 fe ff ff 74 	movl   $0xbe367a74,-0x170(%rbp)
   12dbe:	7a 36 be 
   12dc1:	c7 85 94 fe ff ff ff 	movl   $0xffffffff,-0x16c(%rbp)
   12dc8:	ff ff ff 
   12dcb:	c7 85 98 fe ff ff 20 	movl   $0x7f2c2f20,-0x168(%rbp)
   12dd2:	2f 2c 7f 
   12dd5:	c7 85 9c fe ff ff ff 	movl   $0xffffffff,-0x164(%rbp)
   12ddc:	ff ff ff 
   12ddf:	c7 85 a0 fe ff ff 74 	movl   $0xbe367a74,-0x160(%rbp)
   12de6:	7a 36 be 
   12de9:	c7 85 a4 fe ff ff ff 	movl   $0xffffffff,-0x15c(%rbp)
   12df0:	ff ff ff 
   12df3:	c7 85 a8 fe ff ff 20 	movl   $0x7f2c2f20,-0x158(%rbp)
   12dfa:	2f 2c 7f 
   12dfd:	c7 85 ac fe ff ff ff 	movl   $0xffffffff,-0x154(%rbp)
   12e04:	ff ff ff 
   12e07:	c7 85 b0 fe ff ff 74 	movl   $0xbe367a74,-0x150(%rbp)
   12e0e:	7a 36 be 
   12e11:	c7 85 b4 fe ff ff ff 	movl   $0xffffffff,-0x14c(%rbp)
   12e18:	ff ff ff 
   12e1b:	c7 85 b8 fe ff ff 20 	movl   $0x7f2c2f20,-0x148(%rbp)
   12e22:	2f 2c 7f 
   12e25:	c7 85 bc fe ff ff ff 	movl   $0xffffffff,-0x144(%rbp)
   12e2c:	ff ff ff 
   12e2f:	c7 85 c0 fe ff ff 74 	movl   $0xbe367a74,-0x140(%rbp)
   12e36:	7a 36 be 
   12e39:	c7 85 c4 fe ff ff ff 	movl   $0xffffffff,-0x13c(%rbp)
   12e40:	ff ff ff 
   12e43:	c7 85 c8 fe ff ff 20 	movl   $0x7f2c2f20,-0x138(%rbp)
   12e4a:	2f 2c 7f 
   12e4d:	c7 85 cc fe ff ff ff 	movl   $0xffffffff,-0x134(%rbp)
   12e54:	ff ff ff 
   12e57:	c7 85 d0 fe ff ff 74 	movl   $0xbe367a74,-0x130(%rbp)
   12e5e:	7a 36 be 
   12e61:	c7 85 d4 fe ff ff ff 	movl   $0xffffffff,-0x12c(%rbp)
   12e68:	ff ff ff 
   12e6b:	c7 85 d8 fe ff ff 20 	movl   $0x7f2c2f20,-0x128(%rbp)
   12e72:	2f 2c 7f 
   12e75:	c7 85 dc fe ff ff ff 	movl   $0xffffffff,-0x124(%rbp)
   12e7c:	ff ff ff 
   12e7f:	c7 85 e0 fe ff ff 74 	movl   $0xbe367a74,-0x120(%rbp)
   12e86:	7a 36 be 
   12e89:	c7 85 e4 fe ff ff ff 	movl   $0xffffffff,-0x11c(%rbp)
   12e90:	ff ff ff 
   12e93:	c7 85 e8 fe ff ff 20 	movl   $0x7f2c2f20,-0x118(%rbp)
   12e9a:	2f 2c 7f 
   12e9d:	c7 85 ec fe ff ff ff 	movl   $0xffffffff,-0x114(%rbp)
   12ea4:	ff ff ff 
   12ea7:	c7 85 f0 fe ff ff 74 	movl   $0xbe367a74,-0x110(%rbp)
   12eae:	7a 36 be 
   12eb1:	c7 85 f4 fe ff ff ff 	movl   $0xffffffff,-0x10c(%rbp)
   12eb8:	ff ff ff 
   12ebb:	c7 85 f8 fe ff ff 20 	movl   $0x7f2c2f20,-0x108(%rbp)
   12ec2:	2f 2c 7f 
   12ec5:	c7 85 fc fe ff ff ff 	movl   $0xffffffff,-0x104(%rbp)
   12ecc:	ff ff ff 
   12ecf:	c7 85 00 ff ff ff 74 	movl   $0xbe367a74,-0x100(%rbp)
   12ed6:	7a 36 be 
   12ed9:	c7 85 04 ff ff ff ff 	movl   $0xffffffff,-0xfc(%rbp)
   12ee0:	ff ff ff 
   12ee3:	c7 85 08 ff ff ff 20 	movl   $0x7f2c2f20,-0xf8(%rbp)
   12eea:	2f 2c 7f 
   12eed:	c7 85 0c ff ff ff ff 	movl   $0xffffffff,-0xf4(%rbp)
   12ef4:	ff ff ff 
   12ef7:	c7 05 23 12 01 00 00 	movl   $0x0,0x11223(%rip)        # 24124 <g_7>
   12efe:	00 00 00 
   12f01:	e9 21 01 00 00       	jmpq   13027 <func_52+0x5b8>
   12f06:	66 c7 85 fe fc ff ff 	movw   $0x3279,-0x302(%rbp)
   12f0d:	79 32 
   12f0f:	c7 85 1c fd ff ff 01 	movl   $0x1,-0x2e4(%rbp)
   12f16:	00 00 00 
   12f19:	c7 85 20 fd ff ff fb 	movl   $0xfffffffb,-0x2e0(%rbp)
   12f20:	ff ff ff 
   12f23:	c7 85 08 fd ff ff 00 	movl   $0x0,-0x2f8(%rbp)
   12f2a:	00 00 00 
   12f2d:	eb 4c                	jmp    12f7b <func_52+0x50c>
   12f2f:	c7 85 0c fd ff ff 00 	movl   $0x0,-0x2f4(%rbp)
   12f36:	00 00 00 
   12f39:	eb 30                	jmp    12f6b <func_52+0x4fc>
   12f3b:	8b 85 0c fd ff ff    	mov    -0x2f4(%rbp),%eax
   12f41:	48 63 c8             	movslq %eax,%rcx
   12f44:	8b 85 08 fd ff ff    	mov    -0x2f8(%rbp),%eax
   12f4a:	48 63 d0             	movslq %eax,%rdx
   12f4d:	48 89 d0             	mov    %rdx,%rax
   12f50:	48 01 c0             	add    %rax,%rax
   12f53:	48 01 d0             	add    %rdx,%rax
   12f56:	48 01 c8             	add    %rcx,%rax
   12f59:	c7 84 85 c0 fd ff ff 	movl   $0x3fe0bdd9,-0x240(%rbp,%rax,4)
   12f60:	d9 bd e0 3f 
   12f64:	83 85 0c fd ff ff 01 	addl   $0x1,-0x2f4(%rbp)
   12f6b:	83 bd 0c fd ff ff 02 	cmpl   $0x2,-0x2f4(%rbp)
   12f72:	7e c7                	jle    12f3b <func_52+0x4cc>
   12f74:	83 85 08 fd ff ff 01 	addl   $0x1,-0x2f8(%rbp)
   12f7b:	83 bd 08 fd ff ff 04 	cmpl   $0x4,-0x2f8(%rbp)
   12f82:	7e ab                	jle    12f2f <func_52+0x4c0>
   12f84:	48 8b 05 d5 42 01 00 	mov    0x142d5(%rip),%rax        # 27260 <g_57>
   12f8b:	48 8d 15 72 11 01 00 	lea    0x11172(%rip),%rdx        # 24104 <g_3+0x4>
   12f92:	48 89 10             	mov    %rdx,(%rax)
   12f95:	c7 05 99 11 01 00 00 	movl   $0x0,0x11199(%rip)        # 24138 <g_59+0x8>
   12f9c:	00 00 00 
   12f9f:	eb 6c                	jmp    1300d <func_52+0x59e>
   12fa1:	c7 85 24 fd ff ff 01 	movl   $0x1,-0x2dc(%rbp)
   12fa8:	00 00 00 
   12fab:	48 8d 05 22 15 01 00 	lea    0x11522(%rip),%rax        # 244d4 <g_892>
   12fb2:	48 89 85 38 fd ff ff 	mov    %rax,-0x2c8(%rbp)
   12fb9:	48 8d 85 00 fe ff ff 	lea    -0x200(%rbp),%rax
   12fc0:	48 83 c0 20          	add    $0x20,%rax
   12fc4:	48 89 85 68 fd ff ff 	mov    %rax,-0x298(%rbp)
   12fcb:	c7 85 10 fd ff ff 00 	movl   $0x0,-0x2f0(%rbp)
   12fd2:	00 00 00 
   12fd5:	eb 1e                	jmp    12ff5 <func_52+0x586>
   12fd7:	8b 85 10 fd ff ff    	mov    -0x2f0(%rbp),%eax
   12fdd:	48 98                	cltq   
   12fdf:	48 8d 95 38 fd ff ff 	lea    -0x2c8(%rbp),%rdx
   12fe6:	48 89 94 c5 00 fe ff 	mov    %rdx,-0x200(%rbp,%rax,8)
   12fed:	ff 
   12fee:	83 85 10 fd ff ff 01 	addl   $0x1,-0x2f0(%rbp)
   12ff5:	83 bd 10 fd ff ff 08 	cmpl   $0x8,-0x2f0(%rbp)
   12ffc:	7e d9                	jle    12fd7 <func_52+0x568>
   12ffe:	8b 05 34 11 01 00    	mov    0x11134(%rip),%eax        # 24138 <g_59+0x8>
   13004:	83 c0 01             	add    $0x1,%eax
   13007:	89 05 2b 11 01 00    	mov    %eax,0x1112b(%rip)        # 24138 <g_59+0x8>
   1300d:	8b 05 25 11 01 00    	mov    0x11125(%rip),%eax        # 24138 <g_59+0x8>
   13013:	83 f8 02             	cmp    $0x2,%eax
   13016:	7e 89                	jle    12fa1 <func_52+0x532>
   13018:	8b 05 06 11 01 00    	mov    0x11106(%rip),%eax        # 24124 <g_7>
   1301e:	83 c0 01             	add    $0x1,%eax
   13021:	89 05 fd 10 01 00    	mov    %eax,0x110fd(%rip)        # 24124 <g_7>
   13027:	8b 05 f7 10 01 00    	mov    0x110f7(%rip),%eax        # 24124 <g_7>
   1302d:	83 f8 02             	cmp    $0x2,%eax
   13030:	0f 8e d0 fe ff ff    	jle    12f06 <func_52+0x497>
   13036:	83 bd ec fc ff ff 00 	cmpl   $0x0,-0x314(%rbp)
   1303d:	75 0b                	jne    1304a <func_52+0x5db>
   1303f:	83 bd ec fc ff ff 00 	cmpl   $0x0,-0x314(%rbp)
   13046:	75 19                	jne    13061 <func_52+0x5f2>
   13048:	eb 01                	jmp    1304b <func_52+0x5dc>
   1304a:	90                   	nop
   1304b:	83 ad ec fc ff ff 01 	subl   $0x1,-0x314(%rbp)
   13052:	83 bd ec fc ff ff 0e 	cmpl   $0xe,-0x314(%rbp)
   13059:	0f 8f a5 fc ff ff    	jg     12d04 <func_52+0x295>
   1305f:	eb 01                	jmp    13062 <func_52+0x5f3>
   13061:	90                   	nop
   13062:	48 8b 85 70 fd ff ff 	mov    -0x290(%rbp),%rax
   13069:	48 83 c0 01          	add    $0x1,%rax
   1306d:	48 89 85 70 fd ff ff 	mov    %rax,-0x290(%rbp)
   13074:	48 8b 85 28 fd ff ff 	mov    -0x2d8(%rbp),%rax
   1307b:	48 8b 75 f8          	mov    -0x8(%rbp),%rsi
   1307f:	64 48 33 34 25 28 00 	xor    %fs:0x28,%rsi
   13086:	00 00 
   13088:	74 05                	je     1308f <func_52+0x620>
   1308a:	e8 e1 7f ff ff       	callq  b070 <__stack_chk_fail@plt>
   1308f:	c9                   	leaveq 
   13090:	c3                   	retq   

0000000000013091 <func_62>:
   13091:	f3 0f 1e fa          	endbr64 
   13095:	55                   	push   %rbp
   13096:	48 89 e5             	mov    %rsp,%rbp
   13099:	41 57                	push   %r15
   1309b:	41 56                	push   %r14
   1309d:	41 55                	push   %r13
   1309f:	41 54                	push   %r12
   130a1:	53                   	push   %rbx
   130a2:	48 81 ec 00 10 00 00 	sub    $0x1000,%rsp
   130a9:	48 83 0c 24 00       	orq    $0x0,(%rsp)
   130ae:	48 81 ec 58 05 00 00 	sub    $0x558,%rsp
   130b5:	89 bd 8c ea ff ff    	mov    %edi,-0x1574(%rbp)
   130bb:	64 48 8b 04 25 28 00 	mov    %fs:0x28,%rax
   130c2:	00 00 
   130c4:	48 89 45 c8          	mov    %rax,-0x38(%rbp)
   130c8:	31 c0                	xor    %eax,%eax
   130ca:	48 8d 85 f0 f3 ff ff 	lea    -0xc10(%rbp),%rax
   130d1:	48 8d 15 68 2c 01 00 	lea    0x12c68(%rip),%rdx        # 25d40 <g_2284+0x148f>
   130d8:	b9 36 00 00 00       	mov    $0x36,%ecx
   130dd:	48 89 c7             	mov    %rax,%rdi
   130e0:	48 89 d6             	mov    %rdx,%rsi
   130e3:	f3 48 a5             	rep movsq %ds:(%rsi),%es:(%rdi)
   130e6:	c7 85 a8 ea ff ff 60 	movl   $0xc0caa660,-0x1558(%rbp)
   130ed:	a6 ca c0 
   130f0:	c6 85 9a ea ff ff f6 	movb   $0xf6,-0x1566(%rbp)
   130f7:	48 c7 85 98 eb ff ff 	movq   $0x0,-0x1468(%rbp)
   130fe:	00 00 00 00 
   13102:	48 8d 05 5f 41 01 00 	lea    0x1415f(%rip),%rax        # 27268 <g_89>
   13109:	48 89 85 a0 eb ff ff 	mov    %rax,-0x1460(%rbp)
   13110:	c6 85 9b ea ff ff ce 	movb   $0xce,-0x1565(%rbp)
   13117:	48 8d 05 32 41 01 00 	lea    0x14132(%rip),%rax        # 27250 <g_58+0x10>
   1311e:	48 89 85 50 eb ff ff 	mov    %rax,-0x14b0(%rbp)
   13125:	48 8d 05 3c 49 01 00 	lea    0x1493c(%rip),%rax        # 27a68 <g_1162>
   1312c:	48 89 85 a8 eb ff ff 	mov    %rax,-0x1458(%rbp)
   13133:	48 8d 05 58 10 01 00 	lea    0x11058(%rip),%rax        # 24192 <g_129>
   1313a:	48 89 85 b0 eb ff ff 	mov    %rax,-0x1450(%rbp)
   13141:	48 8d 85 e0 f7 ff ff 	lea    -0x820(%rbp),%rax
   13148:	48 8d 15 b1 2d 01 00 	lea    0x12db1(%rip),%rdx        # 25f00 <g_2284+0x164f>
   1314f:	b9 fc 00 00 00       	mov    $0xfc,%ecx
   13154:	48 89 c7             	mov    %rax,%rdi
   13157:	48 89 d6             	mov    %rdx,%rsi
   1315a:	f3 48 a5             	rep movsq %ds:(%rsi),%es:(%rdi)
   1315d:	c7 85 e8 ea ff ff 01 	movl   $0x1,-0x1518(%rbp)
   13164:	00 00 00 
   13167:	48 8d 85 a0 f2 ff ff 	lea    -0xd60(%rbp),%rax
   1316e:	48 8d 15 6b 35 01 00 	lea    0x1356b(%rip),%rdx        # 266e0 <g_2284+0x1e2f>
   13175:	b9 2a 00 00 00       	mov    $0x2a,%ecx
   1317a:	48 89 c7             	mov    %rax,%rdi
   1317d:	48 89 d6             	mov    %rdx,%rsi
   13180:	f3 48 a5             	rep movsq %ds:(%rsi),%es:(%rdi)
   13183:	48 b8 d8 e8 8c f8 40 	movabs $0xe5819140f88ce8d8,%rax
   1318a:	91 81 e5 
   1318d:	48 89 85 58 eb ff ff 	mov    %rax,-0x14a8(%rbp)
   13194:	48 8d 05 d5 5e 01 00 	lea    0x15ed5(%rip),%rax        # 29070 <g_1271>
   1319b:	48 89 85 60 eb ff ff 	mov    %rax,-0x14a0(%rbp)
   131a2:	c6 85 9c ea ff ff ff 	movb   $0xff,-0x1564(%rbp)
   131a9:	48 c7 85 b8 eb ff ff 	movq   $0x0,-0x1448(%rbp)
   131b0:	00 00 00 00 
   131b4:	48 8d 05 d5 5d 01 00 	lea    0x15dd5(%rip),%rax        # 28f90 <g_235>
   131bb:	48 89 85 68 eb ff ff 	mov    %rax,-0x1498(%rbp)
   131c2:	48 8d 85 68 eb ff ff 	lea    -0x1498(%rbp),%rax
   131c9:	48 89 85 70 eb ff ff 	mov    %rax,-0x1490(%rbp)
   131d0:	48 8d 85 70 eb ff ff 	lea    -0x1490(%rbp),%rax
   131d7:	48 89 85 70 ed ff ff 	mov    %rax,-0x1290(%rbp)
   131de:	48 8d 85 70 eb ff ff 	lea    -0x1490(%rbp),%rax
   131e5:	48 89 85 78 ed ff ff 	mov    %rax,-0x1288(%rbp)
   131ec:	48 8d 85 70 eb ff ff 	lea    -0x1490(%rbp),%rax
   131f3:	48 89 85 80 ed ff ff 	mov    %rax,-0x1280(%rbp)
   131fa:	48 8d 85 70 eb ff ff 	lea    -0x1490(%rbp),%rax
   13201:	48 89 85 88 ed ff ff 	mov    %rax,-0x1278(%rbp)
   13208:	48 8d 85 70 eb ff ff 	lea    -0x1490(%rbp),%rax
   1320f:	48 89 85 90 ed ff ff 	mov    %rax,-0x1270(%rbp)
   13216:	48 8d 85 70 eb ff ff 	lea    -0x1490(%rbp),%rax
   1321d:	48 89 85 98 ed ff ff 	mov    %rax,-0x1268(%rbp)
   13224:	48 8d 85 a0 ed ff ff 	lea    -0x1260(%rbp),%rax
   1322b:	48 83 c0 20          	add    $0x20,%rax
   1322f:	48 89 85 c0 eb ff ff 	mov    %rax,-0x1440(%rbp)
   13236:	48 8d 05 53 5e 01 00 	lea    0x15e53(%rip),%rax        # 29090 <g_1659>
   1323d:	48 89 85 c8 eb ff ff 	mov    %rax,-0x1438(%rbp)
   13244:	48 8d 85 a0 f2 ff ff 	lea    -0xd60(%rbp),%rax
   1324b:	48 83 c0 60          	add    $0x60,%rax
   1324f:	48 89 85 d0 eb ff ff 	mov    %rax,-0x1430(%rbp)
   13256:	48 c7 85 d8 eb ff ff 	movq   $0x0,-0x1428(%rbp)
   1325d:	00 00 00 00 
   13261:	48 c7 85 e0 eb ff ff 	movq   $0x0,-0x1420(%rbp)
   13268:	00 00 00 00 
   1326c:	48 c7 85 e8 eb ff ff 	movq   $0x0,-0x1418(%rbp)
   13273:	00 00 00 00 
   13277:	48 8d 85 00 ef ff ff 	lea    -0x1100(%rbp),%rax
   1327e:	48 8d 15 bb 35 01 00 	lea    0x135bb(%rip),%rdx        # 26840 <g_2284+0x1f8f>
   13285:	b9 24 00 00 00       	mov    $0x24,%ecx
   1328a:	48 89 c7             	mov    %rax,%rdi
   1328d:	48 89 d6             	mov    %rdx,%rsi
   13290:	f3 48 a5             	rep movsq %ds:(%rsi),%es:(%rdi)
   13293:	48 8d 05 b6 12 01 00 	lea    0x112b6(%rip),%rax        # 24550 <g_1679>
   1329a:	48 89 85 f0 eb ff ff 	mov    %rax,-0x1410(%rbp)
   132a1:	48 8d 85 20 f0 ff ff 	lea    -0xfe0(%rbp),%rax
   132a8:	48 8d 15 71 cc 00 00 	lea    0xcc71(%rip),%rdx        # 1ff20 <g_985+0xebc>
   132af:	b9 28 00 00 00       	mov    $0x28,%ecx
   132b4:	48 89 c7             	mov    %rax,%rdi
   132b7:	48 89 d6             	mov    %rdx,%rsi
   132ba:	f3 48 a5             	rep movsq %ds:(%rsi),%es:(%rdi)
   132bd:	c6 85 9d ea ff ff 00 	movb   $0x0,-0x1563(%rbp)
   132c4:	c7 85 ac ea ff ff 00 	movl   $0x0,-0x1554(%rbp)
   132cb:	00 00 00 
   132ce:	eb 22                	jmp    132f2 <func_62+0x261>
   132d0:	8b 85 ac ea ff ff    	mov    -0x1554(%rbp),%eax
   132d6:	48 98                	cltq   
   132d8:	48 8d 95 70 ed ff ff 	lea    -0x1290(%rbp),%rdx
   132df:	48 83 c2 08          	add    $0x8,%rdx
   132e3:	48 89 94 c5 00 ed ff 	mov    %rdx,-0x1300(%rbp,%rax,8)
   132ea:	ff 
   132eb:	83 85 ac ea ff ff 01 	addl   $0x1,-0x1554(%rbp)
   132f2:	83 bd ac ea ff ff 02 	cmpl   $0x2,-0x1554(%rbp)
   132f9:	7e d5                	jle    132d0 <func_62+0x23f>
   132fb:	c7 85 ac ea ff ff 00 	movl   $0x0,-0x1554(%rbp)
   13302:	00 00 00 
   13305:	eb 1b                	jmp    13322 <func_62+0x291>
   13307:	8b 85 ac ea ff ff    	mov    -0x1554(%rbp),%eax
   1330d:	48 98                	cltq   
   1330f:	48 c7 84 c5 a0 ed ff 	movq   $0x0,-0x1260(%rbp,%rax,8)
   13316:	ff 00 00 00 00 
   1331b:	83 85 ac ea ff ff 01 	addl   $0x1,-0x1554(%rbp)
   13322:	83 bd ac ea ff ff 06 	cmpl   $0x6,-0x1554(%rbp)
   13329:	7e dc                	jle    13307 <func_62+0x276>
   1332b:	be d5 00 00 00       	mov    $0xd5,%esi
   13330:	bf 01 00 00 00       	mov    $0x1,%edi
   13335:	e8 20 88 ff ff       	callq  bb5a <safe_add_func_uint8_t_u_u>
   1333a:	8b 85 8c ea ff ff    	mov    -0x1574(%rbp),%eax
   13340:	25 ff ff 0f 00       	and    $0xfffff,%eax
   13345:	41 89 c5             	mov    %eax,%r13d
   13348:	48 8b 05 41 5c 01 00 	mov    0x15c41(%rip),%rax        # 28f90 <g_235>
   1334f:	41 89 c6             	mov    %eax,%r14d
   13352:	48 8b 9d 50 eb ff ff 	mov    -0x14b0(%rbp),%rbx
   13359:	0f b6 85 9b ea ff ff 	movzbl -0x1565(%rbp),%eax
   13360:	44 0f b6 e0          	movzbl %al,%r12d
   13364:	48 8b 85 50 eb ff ff 	mov    -0x14b0(%rbp),%rax
   1336b:	48 85 c0             	test   %rax,%rax
   1336e:	0f 95 c0             	setne  %al
   13371:	0f b6 c0             	movzbl %al,%eax
   13374:	8b 95 8c ea ff ff    	mov    -0x1574(%rbp),%edx
   1337a:	81 e2 ff ff 0f 00    	and    $0xfffff,%edx
   13380:	39 d0                	cmp    %edx,%eax
   13382:	0f 9e c0             	setle  %al
   13385:	0f b6 c0             	movzbl %al,%eax
   13388:	89 c7                	mov    %eax,%edi
   1338a:	e8 d5 40 00 00       	callq  17464 <func_94>
   1338f:	89 c7                	mov    %eax,%edi
   13391:	0f b6 85 9b ea ff ff 	movzbl -0x1565(%rbp),%eax
   13398:	0f b6 f0             	movzbl %al,%esi
   1339b:	48 8b 15 c6 3e 01 00 	mov    0x13ec6(%rip),%rdx        # 27268 <g_89>
   133a2:	48 8b 85 a0 eb ff ff 	mov    -0x1460(%rbp),%rax
   133a9:	48 89 10             	mov    %rdx,(%rax)
   133ac:	48 8b 85 a0 eb ff ff 	mov    -0x1460(%rbp),%rax
   133b3:	48 8b 00             	mov    (%rax),%rax
   133b6:	48 8b 15 8b 58 01 00 	mov    0x1588b(%rip),%rdx        # 28c48 <g_51>
   133bd:	49 89 d0             	mov    %rdx,%r8
   133c0:	44 89 e1             	mov    %r12d,%ecx
   133c3:	89 fa                	mov    %edi,%edx
   133c5:	48 89 c7             	mov    %rax,%rdi
   133c8:	e8 59 40 00 00       	callq  17426 <func_83>
   133cd:	8b b5 8c ea ff ff    	mov    -0x1574(%rbp),%esi
   133d3:	0f b6 85 9a ea ff ff 	movzbl -0x1566(%rbp),%eax
   133da:	45 89 f0             	mov    %r14d,%r8d
   133dd:	48 89 d9             	mov    %rbx,%rcx
   133e0:	48 8d 15 9e 0d 01 00 	lea    0x10d9e(%rip),%rdx        # 24185 <g_90+0x25>
   133e7:	89 c7                	mov    %eax,%edi
   133e9:	e8 c1 1d 00 00       	callq  151af <func_76>
   133ee:	48 8b 95 a8 eb ff ff 	mov    -0x1458(%rbp),%rdx
   133f5:	48 89 02             	mov    %rax,(%rdx)
   133f8:	48 8b 85 a8 eb ff ff 	mov    -0x1458(%rbp),%rax
   133ff:	48 8b 10             	mov    (%rax),%rdx
   13402:	48 8b 05 1f 42 01 00 	mov    0x1421f(%rip),%rax        # 27628 <g_546>
   13409:	48 8b 00             	mov    (%rax),%rax
   1340c:	48 8b 00             	mov    (%rax),%rax
   1340f:	48 39 c2             	cmp    %rax,%rdx
   13412:	0f 94 c0             	sete   %al
   13415:	0f b6 c0             	movzbl %al,%eax
   13418:	c7 85 a8 ea ff ff 00 	movl   $0x0,-0x1558(%rbp)
   1341f:	00 00 00 
   13422:	89 c6                	mov    %eax,%esi
   13424:	bf 00 00 00 00       	mov    $0x0,%edi
   13429:	e8 8a 8a ff ff       	callq  beb8 <safe_add_func_uint32_t_u_u>
   1342e:	44 89 ee             	mov    %r13d,%esi
   13431:	bf ea ff ff ff       	mov    $0xffffffea,%edi
   13436:	e8 66 7e ff ff       	callq  b2a1 <safe_lshift_func_int8_t_s_s>
   1343b:	66 0f be d0          	movsbw %al,%dx
   1343f:	48 8b 85 b0 eb ff ff 	mov    -0x1450(%rbp),%rax
   13446:	66 89 10             	mov    %dx,(%rax)
   13449:	48 8b 85 b0 eb ff ff 	mov    -0x1450(%rbp),%rax
   13450:	0f b7 00             	movzwl (%rax),%eax
   13453:	66 85 c0             	test   %ax,%ax
   13456:	0f 95 c0             	setne  %al
   13459:	0f b6 c0             	movzbl %al,%eax
   1345c:	48 be 00 33 57 9f 78 	movabs $0xdfa4c4789f573300,%rsi
   13463:	c4 a4 df 
   13466:	48 89 c7             	mov    %rax,%rdi
   13469:	e8 d3 83 ff ff       	callq  b841 <safe_add_func_int64_t_s_s>
   1346e:	48 83 f8 01          	cmp    $0x1,%rax
   13472:	0f 9e c0             	setle  %al
   13475:	0f b6 d0             	movzbl %al,%edx
   13478:	8b 05 82 10 01 00    	mov    0x11082(%rip),%eax        # 24500 <g_1387+0x10>
   1347e:	09 d0                	or     %edx,%eax
   13480:	89 05 7a 10 01 00    	mov    %eax,0x1107a(%rip)        # 24500 <g_1387+0x10>
   13486:	8b 05 74 10 01 00    	mov    0x11074(%rip),%eax        # 24500 <g_1387+0x10>
   1348c:	8b 95 8c ea ff ff    	mov    -0x1574(%rbp),%edx
   13492:	81 e2 ff ff 0f 00    	and    $0xfffff,%edx
   13498:	39 d0                	cmp    %edx,%eax
   1349a:	74 10                	je     134ac <func_62+0x41b>
   1349c:	8b 85 8c ea ff ff    	mov    -0x1574(%rbp),%eax
   134a2:	25 ff ff 0f 00       	and    $0xfffff,%eax
   134a7:	e9 dd 1c 00 00       	jmpq   15189 <func_62+0x20f8>
   134ac:	c7 85 20 ed ff ff 01 	movl   $0x1,-0x12e0(%rbp)
   134b3:	00 00 00 
   134b6:	c7 85 24 ed ff ff 01 	movl   $0x1,-0x12dc(%rbp)
   134bd:	00 00 00 
   134c0:	c7 85 28 ed ff ff 01 	movl   $0x1,-0x12d8(%rbp)
   134c7:	00 00 00 
   134ca:	c7 85 2c ed ff ff 01 	movl   $0x1,-0x12d4(%rbp)
   134d1:	00 00 00 
   134d4:	c7 85 30 ed ff ff 01 	movl   $0x1,-0x12d0(%rbp)
   134db:	00 00 00 
   134de:	c7 85 34 ed ff ff 01 	movl   $0x1,-0x12cc(%rbp)
   134e5:	00 00 00 
   134e8:	c7 85 38 ed ff ff 01 	movl   $0x1,-0x12c8(%rbp)
   134ef:	00 00 00 
   134f2:	c7 85 3c ed ff ff 01 	movl   $0x1,-0x12c4(%rbp)
   134f9:	00 00 00 
   134fc:	c7 85 ec ea ff ff f9 	movl   $0xfffffff9,-0x1514(%rbp)
   13503:	ff ff ff 
   13506:	c7 85 b0 ea ff ff ff 	movl   $0xffffffff,-0x1550(%rbp)
   1350d:	ff ff ff 
   13510:	c7 85 b4 ea ff ff 01 	movl   $0x1,-0x154c(%rbp)
   13517:	00 00 00 
   1351a:	c7 85 f0 ea ff ff 37 	movl   $0x4e52e737,-0x1510(%rbp)
   13521:	e7 52 4e 
   13524:	c7 85 f4 ea ff ff cd 	movl   $0xa2f683cd,-0x150c(%rbp)
   1352b:	83 f6 a2 
   1352e:	c7 85 b8 ea ff ff 01 	movl   $0x1,-0x1548(%rbp)
   13535:	00 00 00 
   13538:	c7 85 f8 ea ff ff 05 	movl   $0x5,-0x1508(%rbp)
   1353f:	00 00 00 
   13542:	48 8d 05 ff 3c 01 00 	lea    0x13cff(%rip),%rax        # 27248 <g_58+0x8>
   13549:	48 89 85 f8 eb ff ff 	mov    %rax,-0x1408(%rbp)
   13550:	48 c7 85 00 ec ff ff 	movq   $0x0,-0x1400(%rbp)
   13557:	00 00 00 00 
   1355b:	48 c7 85 08 ec ff ff 	movq   $0x0,-0x13f8(%rbp)
   13562:	00 00 00 00 
   13566:	48 8d 05 89 0e 01 00 	lea    0x10e89(%rip),%rax        # 243f6 <g_315>
   1356d:	48 89 85 10 ec ff ff 	mov    %rax,-0x13f0(%rbp)
   13574:	c7 85 bc ea ff ff 00 	movl   $0x0,-0x1544(%rbp)
   1357b:	00 00 00 
   1357e:	eb 1e                	jmp    1359e <func_62+0x50d>
   13580:	8b 85 bc ea ff ff    	mov    -0x1544(%rbp),%eax
   13586:	48 98                	cltq   
   13588:	48 8d 15 65 0f 01 00 	lea    0x10f65(%rip),%rdx        # 244f4 <g_1387+0x4>
   1358f:	48 89 94 c5 e0 ec ff 	mov    %rdx,-0x1320(%rbp,%rax,8)
   13596:	ff 
   13597:	83 85 bc ea ff ff 01 	addl   $0x1,-0x1544(%rbp)
   1359e:	83 bd bc ea ff ff 01 	cmpl   $0x1,-0x1544(%rbp)
   135a5:	7e d9                	jle    13580 <func_62+0x4ef>
   135a7:	66 c7 05 e2 0b 01 00 	movw   $0x0,0x10be2(%rip)        # 24192 <g_129>
   135ae:	00 00 
   135b0:	e9 87 19 00 00       	jmpq   14f3c <func_62+0x1eab>
   135b5:	c7 85 fc ea ff ff fd 	movl   $0xfffffffd,-0x1504(%rbp)
   135bc:	ff ff ff 
   135bf:	c7 85 c0 ea ff ff 00 	movl   $0x0,-0x1540(%rbp)
   135c6:	00 00 00 
   135c9:	c7 85 c4 ea ff ff 51 	movl   $0xf3acfc51,-0x153c(%rbp)
   135d0:	fc ac f3 
   135d3:	c7 85 c8 ea ff ff 09 	movl   $0x9,-0x1538(%rbp)
   135da:	00 00 00 
   135dd:	c7 85 00 eb ff ff d7 	movl   $0xeb811bd7,-0x1500(%rbp)
   135e4:	1b 81 eb 
   135e7:	c7 85 04 eb ff ff 80 	movl   $0x25306680,-0x14fc(%rbp)
   135ee:	66 30 25 
   135f1:	c7 85 08 eb ff ff 07 	movl   $0x7,-0x14f8(%rbp)
   135f8:	00 00 00 
   135fb:	c7 85 cc ea ff ff de 	movl   $0xa785f1de,-0x1534(%rbp)
   13602:	f1 85 a7 
   13605:	c7 85 f0 ec ff ff 01 	movl   $0x98e1601,-0x1310(%rbp)
   1360c:	16 8e 09 
   1360f:	c7 85 f4 ec ff ff 01 	movl   $0x98e1601,-0x130c(%rbp)
   13616:	16 8e 09 
   13619:	c7 85 f8 ec ff ff 01 	movl   $0x98e1601,-0x1308(%rbp)
   13620:	16 8e 09 
   13623:	c7 85 fc ec ff ff 01 	movl   $0x98e1601,-0x1304(%rbp)
   1362a:	16 8e 09 
   1362d:	66 c7 85 a0 ea ff ff 	movw   $0x69d5,-0x1560(%rbp)
   13634:	d5 69 
   13636:	66 c7 85 a2 ea ff ff 	movw   $0x10f1,-0x155e(%rbp)
   1363d:	f1 10 
   1363f:	48 c7 85 18 ec ff ff 	movq   $0x0,-0x13e8(%rbp)
   13646:	00 00 00 00 
   1364a:	c7 85 d0 ea ff ff 00 	movl   $0x0,-0x1530(%rbp)
   13651:	00 00 00 
   13654:	eb 1e                	jmp    13674 <func_62+0x5e3>
   13656:	8b 85 d0 ea ff ff    	mov    -0x1530(%rbp),%eax
   1365c:	48 98                	cltq   
   1365e:	48 8d 15 0b 5a 01 00 	lea    0x15a0b(%rip),%rdx        # 29070 <g_1271>
   13665:	48 89 94 c5 40 ed ff 	mov    %rdx,-0x12c0(%rbp,%rax,8)
   1366c:	ff 
   1366d:	83 85 d0 ea ff ff 01 	addl   $0x1,-0x1530(%rbp)
   13674:	83 bd d0 ea ff ff 04 	cmpl   $0x4,-0x1530(%rbp)
   1367b:	7e d9                	jle    13656 <func_62+0x5c5>
   1367d:	8b 85 20 ed ff ff    	mov    -0x12e0(%rbp),%eax
   13683:	83 c0 01             	add    $0x1,%eax
   13686:	89 85 20 ed ff ff    	mov    %eax,-0x12e0(%rbp)
   1368c:	c7 85 c0 ea ff ff f8 	movl   $0xfffffff8,-0x1540(%rbp)
   13693:	ff ff ff 
   13696:	e9 39 0b 00 00       	jmpq   141d4 <func_62+0x1143>
   1369b:	c7 85 28 eb ff ff 00 	movl   $0x0,-0x14d8(%rbp)
   136a2:	00 00 00 
   136a5:	c7 85 2c eb ff ff ff 	movl   $0xffffffff,-0x14d4(%rbp)
   136ac:	ff ff ff 
   136af:	c7 85 30 eb ff ff 05 	movl   $0x5,-0x14d0(%rbp)
   136b6:	00 00 00 
   136b9:	c7 85 34 eb ff ff ff 	movl   $0xffffffff,-0x14cc(%rbp)
   136c0:	ff ff ff 
   136c3:	c7 85 38 eb ff ff ed 	movl   $0x2f324fed,-0x14c8(%rbp)
   136ca:	4f 32 2f 
   136cd:	c7 85 3c eb ff ff ff 	movl   $0xffffffff,-0x14c4(%rbp)
   136d4:	ff ff ff 
   136d7:	c7 85 40 eb ff ff d4 	movl   $0xd71edd4,-0x14c0(%rbp)
   136de:	ed 71 0d 
   136e1:	c7 85 44 eb ff ff 07 	movl   $0x7,-0x14bc(%rbp)
   136e8:	00 00 00 
   136eb:	48 8d 05 2e 0e 01 00 	lea    0x10e2e(%rip),%rax        # 24520 <g_1488>
   136f2:	48 89 85 78 ec ff ff 	mov    %rax,-0x1388(%rbp)
   136f9:	0f b7 85 a0 ea ff ff 	movzwl -0x1560(%rbp),%eax
   13700:	83 c0 01             	add    $0x1,%eax
   13703:	66 89 85 a0 ea ff ff 	mov    %ax,-0x1560(%rbp)
   1370a:	8b 05 f4 0d 01 00    	mov    0x10df4(%rip),%eax        # 24504 <g_1423>
   13710:	85 c0                	test   %eax,%eax
   13712:	0f 84 ae 01 00 00    	je     138c6 <func_62+0x835>
   13718:	c7 85 4c eb ff ff 48 	movl   $0x97135948,-0x14b4(%rbp)
   1371f:	59 13 97 
   13722:	48 c7 85 c0 ec ff ff 	movq   $0x0,-0x1340(%rbp)
   13729:	00 00 00 00 
   1372d:	48 8d 05 c0 0c 01 00 	lea    0x10cc0(%rip),%rax        # 243f4 <g_286>
   13734:	48 89 85 c8 ec ff ff 	mov    %rax,-0x1338(%rbp)
   1373b:	48 8d 05 b4 0c 01 00 	lea    0x10cb4(%rip),%rax        # 243f6 <g_315>
   13742:	48 89 85 d0 ec ff ff 	mov    %rax,-0x1330(%rbp)
   13749:	0f b6 05 9c 0c 01 00 	movzbl 0x10c9c(%rip),%eax        # 243ec <g_161>
   13750:	0f b6 d8             	movzbl %al,%ebx
   13753:	8b 85 44 eb ff ff    	mov    -0x14bc(%rbp),%eax
   13759:	44 0f b6 e0          	movzbl %al,%r12d
   1375d:	48 8b 85 00 f3 ff ff 	mov    -0xd00(%rbp),%rax
   13764:	48 85 c0             	test   %rax,%rax
   13767:	0f 95 c0             	setne  %al
   1376a:	0f b6 d0             	movzbl %al,%edx
   1376d:	48 8b 85 c8 ec ff ff 	mov    -0x1338(%rbp),%rax
   13774:	66 89 10             	mov    %dx,(%rax)
   13777:	8b 85 8c ea ff ff    	mov    -0x1574(%rbp),%eax
   1377d:	25 ff ff 0f 00       	and    $0xfffff,%eax
   13782:	41 89 c6             	mov    %eax,%r14d
   13785:	44 8b ad 44 eb ff ff 	mov    -0x14bc(%rbp),%r13d
   1378c:	0f b6 05 8f 0c 01 00 	movzbl 0x10c8f(%rip),%eax        # 24422 <g_405+0x22>
   13793:	0f be d0             	movsbl %al,%edx
   13796:	48 8b 0d cb 0a 01 00 	mov    0x10acb(%rip),%rcx        # 24268 <g_141+0x68>
   1379d:	8b 85 4c eb ff ff    	mov    -0x14b4(%rbp),%eax
   137a3:	48 98                	cltq   
   137a5:	48 39 c1             	cmp    %rax,%rcx
   137a8:	0f 9d c0             	setge  %al
   137ab:	0f b6 c0             	movzbl %al,%eax
   137ae:	89 d6                	mov    %edx,%esi
   137b0:	89 c7                	mov    %eax,%edi
   137b2:	e8 5b 7a ff ff       	callq  b212 <safe_mul_func_int8_t_s_s>
   137b7:	0f be c0             	movsbl %al,%eax
   137ba:	39 85 c4 ea ff ff    	cmp    %eax,-0x153c(%rbp)
   137c0:	0f 9f c0             	setg   %al
   137c3:	0f b6 c0             	movzbl %al,%eax
   137c6:	44 89 ee             	mov    %r13d,%esi
   137c9:	89 c7                	mov    %eax,%edi
   137cb:	e8 11 7d ff ff       	callq  b4e1 <safe_lshift_func_int16_t_s_u>
   137d0:	98                   	cwtl   
   137d1:	44 89 f6             	mov    %r14d,%esi
   137d4:	89 c7                	mov    %eax,%edi
   137d6:	e8 b7 7c ff ff       	callq  b492 <safe_lshift_func_int16_t_s_s>
   137db:	44 0f b6 e8          	movzbl %al,%r13d
   137df:	0f b7 05 62 54 01 00 	movzwl 0x15462(%rip),%eax        # 28c48 <g_51>
   137e6:	0f b6 c0             	movzbl %al,%eax
   137e9:	be 00 00 00 00       	mov    $0x0,%esi
   137ee:	89 c7                	mov    %eax,%edi
   137f0:	e8 57 84 ff ff       	callq  bc4c <safe_lshift_func_uint8_t_u_u>
   137f5:	0f b6 c0             	movzbl %al,%eax
   137f8:	44 89 ee             	mov    %r13d,%esi
   137fb:	89 c7                	mov    %eax,%edi
   137fd:	e8 91 83 ff ff       	callq  bb93 <safe_mul_func_uint8_t_u_u>
   13802:	89 c2                	mov    %eax,%edx
   13804:	48 8b 85 d0 ec ff ff 	mov    -0x1330(%rbp),%rax
   1380b:	88 10                	mov    %dl,(%rax)
   1380d:	48 8b 85 d0 ec ff ff 	mov    -0x1330(%rbp),%rax
   13814:	0f b6 00             	movzbl (%rax),%eax
   13817:	0f be c0             	movsbl %al,%eax
   1381a:	be 00 00 00 00       	mov    $0x0,%esi
   1381f:	89 c7                	mov    %eax,%edi
   13821:	e8 cc 79 ff ff       	callq  b1f2 <safe_sub_func_int8_t_s_s>
   13826:	0f be d0             	movsbl %al,%edx
   13829:	8b 85 4c eb ff ff    	mov    -0x14b4(%rbp),%eax
   1382f:	89 d6                	mov    %edx,%esi
   13831:	89 c7                	mov    %eax,%edi
   13833:	e8 94 7e ff ff       	callq  b6cc <safe_mod_func_int32_t_s_s>
   13838:	89 c2                	mov    %eax,%edx
   1383a:	8b 85 8c ea ff ff    	mov    -0x1574(%rbp),%eax
   13840:	25 ff ff 0f 00       	and    $0xfffff,%eax
   13845:	0f be c0             	movsbl %al,%eax
   13848:	89 d6                	mov    %edx,%esi
   1384a:	89 c7                	mov    %eax,%edi
   1384c:	e8 50 7a ff ff       	callq  b2a1 <safe_lshift_func_int8_t_s_s>
   13851:	0f be c0             	movsbl %al,%eax
   13854:	be 00 00 00 00       	mov    $0x0,%esi
   13859:	89 c7                	mov    %eax,%edi
   1385b:	e8 a5 7d ff ff       	callq  b605 <safe_sub_func_int32_t_s_s>
   13860:	8b 05 02 58 01 00    	mov    0x15802(%rip),%eax        # 29068 <g_1211>
   13866:	0f be d0             	movsbl %al,%edx
   13869:	8b 85 8c ea ff ff    	mov    -0x1574(%rbp),%eax
   1386f:	25 ff ff 0f 00       	and    $0xfffff,%eax
   13874:	89 c1                	mov    %eax,%ecx
   13876:	48 8b 05 eb 39 01 00 	mov    0x139eb(%rip),%rax        # 27268 <g_89>
   1387d:	88 08                	mov    %cl,(%rax)
   1387f:	0f b6 00             	movzbl (%rax),%eax
   13882:	0f be c0             	movsbl %al,%eax
   13885:	89 d6                	mov    %edx,%esi
   13887:	89 c7                	mov    %eax,%edi
   13889:	e8 dc 79 ff ff       	callq  b26a <safe_div_func_int8_t_s_s>
   1388e:	0f b6 c0             	movzbl %al,%eax
   13891:	44 89 e6             	mov    %r12d,%esi
   13894:	89 c7                	mov    %eax,%edi
   13896:	e8 13 83 ff ff       	callq  bbae <safe_mod_func_uint8_t_u_u>
   1389b:	89 c2                	mov    %eax,%edx
   1389d:	8b 85 8c ea ff ff    	mov    -0x1574(%rbp),%eax
   138a3:	25 ff ff 0f 00       	and    $0xfffff,%eax
   138a8:	09 d0                	or     %edx,%eax
   138aa:	0f b6 c0             	movzbl %al,%eax
   138ad:	89 de                	mov    %ebx,%esi
   138af:	89 c7                	mov    %eax,%edi
   138b1:	e8 dd 82 ff ff       	callq  bb93 <safe_mul_func_uint8_t_u_u>
   138b6:	b8 00 00 00 00       	mov    $0x0,%eax
   138bb:	21 85 c8 ea ff ff    	and    %eax,-0x1538(%rbp)
   138c1:	e9 07 09 00 00       	jmpq   141cd <func_62+0x113c>
   138c6:	66 c7 85 a6 ea ff ff 	movw   $0xffff,-0x155a(%rbp)
   138cd:	ff ff 
   138cf:	c7 85 d4 ea ff ff f8 	movl   $0xfffffff8,-0x152c(%rbp)
   138d6:	ff ff ff 
   138d9:	48 8d 85 e0 f7 ff ff 	lea    -0x820(%rbp),%rax
   138e0:	48 05 10 03 00 00    	add    $0x310,%rax
   138e6:	48 89 85 80 ec ff ff 	mov    %rax,-0x1380(%rbp)
   138ed:	48 8d 85 9a ea ff ff 	lea    -0x1566(%rbp),%rax
   138f4:	48 89 85 e0 ed ff ff 	mov    %rax,-0x1220(%rbp)
   138fb:	48 8d 85 9a ea ff ff 	lea    -0x1566(%rbp),%rax
   13902:	48 89 85 e8 ed ff ff 	mov    %rax,-0x1218(%rbp)
   13909:	48 c7 85 f0 ed ff ff 	movq   $0x0,-0x1210(%rbp)
   13910:	00 00 00 00 
   13914:	48 8d 85 9a ea ff ff 	lea    -0x1566(%rbp),%rax
   1391b:	48 89 85 f8 ed ff ff 	mov    %rax,-0x1208(%rbp)
   13922:	48 8d 85 9a ea ff ff 	lea    -0x1566(%rbp),%rax
   13929:	48 89 85 00 ee ff ff 	mov    %rax,-0x1200(%rbp)
   13930:	48 c7 85 08 ee ff ff 	movq   $0x0,-0x11f8(%rbp)
   13937:	00 00 00 00 
   1393b:	48 c7 85 78 eb ff ff 	movq   $0x0,-0x1488(%rbp)
   13942:	00 00 00 00 
   13946:	48 8d 85 78 eb ff ff 	lea    -0x1488(%rbp),%rax
   1394d:	48 89 85 80 eb ff ff 	mov    %rax,-0x1480(%rbp)
   13954:	48 8d 85 80 eb ff ff 	lea    -0x1480(%rbp),%rax
   1395b:	48 89 85 88 eb ff ff 	mov    %rax,-0x1478(%rbp)
   13962:	48 8d 85 88 eb ff ff 	lea    -0x1478(%rbp),%rax
   13969:	48 89 85 88 ec ff ff 	mov    %rax,-0x1378(%rbp)
   13970:	c7 85 d8 ea ff ff 00 	movl   $0x0,-0x1528(%rbp)
   13977:	00 00 00 
   1397a:	eb 46                	jmp    139c2 <func_62+0x931>
   1397c:	c7 85 dc ea ff ff 00 	movl   $0x0,-0x1524(%rbp)
   13983:	00 00 00 
   13986:	eb 2a                	jmp    139b2 <func_62+0x921>
   13988:	8b 85 dc ea ff ff    	mov    -0x1524(%rbp),%eax
   1398e:	48 63 d0             	movslq %eax,%rdx
   13991:	8b 85 d8 ea ff ff    	mov    -0x1528(%rbp),%eax
   13997:	48 98                	cltq   
   13999:	48 01 d0             	add    %rdx,%rax
   1399c:	48 8d 15 e5 3c 01 00 	lea    0x13ce5(%rip),%rdx        # 27688 <g_843+0x28>
   139a3:	48 89 94 c5 d8 ec ff 	mov    %rdx,-0x1328(%rbp,%rax,8)
   139aa:	ff 
   139ab:	83 85 dc ea ff ff 01 	addl   $0x1,-0x1524(%rbp)
   139b2:	83 bd dc ea ff ff 00 	cmpl   $0x0,-0x1524(%rbp)
   139b9:	7e cd                	jle    13988 <func_62+0x8f7>
   139bb:	83 85 d8 ea ff ff 01 	addl   $0x1,-0x1528(%rbp)
   139c2:	83 bd d8 ea ff ff 00 	cmpl   $0x0,-0x1528(%rbp)
   139c9:	7e b1                	jle    1397c <func_62+0x8eb>
   139cb:	c7 85 b0 ea ff ff 06 	movl   $0x6,-0x1550(%rbp)
   139d2:	00 00 00 
   139d5:	e9 b1 05 00 00       	jmpq   13f8b <func_62+0xefa>
   139da:	48 8d 85 9b ea ff ff 	lea    -0x1565(%rbp),%rax
   139e1:	48 89 85 98 ec ff ff 	mov    %rax,-0x1368(%rbp)
   139e8:	48 8d 05 fd 09 01 00 	lea    0x109fd(%rip),%rax        # 243ec <g_161>
   139ef:	48 89 85 a0 ec ff ff 	mov    %rax,-0x1360(%rbp)
   139f6:	48 c7 85 a8 ec ff ff 	movq   $0x0,-0x1358(%rbp)
   139fd:	00 00 00 00 
   13a01:	48 c7 85 b0 ec ff ff 	movq   $0x0,-0x1350(%rbp)
   13a08:	00 00 00 00 
   13a0c:	48 c7 85 b8 ec ff ff 	movq   $0x0,-0x1348(%rbp)
   13a13:	00 00 00 00 
   13a17:	48 c7 85 60 f1 ff ff 	movq   $0x0,-0xea0(%rbp)
   13a1e:	00 00 00 00 
   13a22:	48 c7 85 68 f1 ff ff 	movq   $0x0,-0xe98(%rbp)
   13a29:	00 00 00 00 
   13a2d:	48 8d 05 c0 09 01 00 	lea    0x109c0(%rip),%rax        # 243f4 <g_286>
   13a34:	48 89 85 70 f1 ff ff 	mov    %rax,-0xe90(%rbp)
   13a3b:	48 c7 85 78 f1 ff ff 	movq   $0x0,-0xe88(%rbp)
   13a42:	00 00 00 00 
   13a46:	48 c7 85 80 f1 ff ff 	movq   $0x0,-0xe80(%rbp)
   13a4d:	00 00 00 00 
   13a51:	48 8d 05 9c 09 01 00 	lea    0x1099c(%rip),%rax        # 243f4 <g_286>
   13a58:	48 89 85 88 f1 ff ff 	mov    %rax,-0xe78(%rbp)
   13a5f:	48 c7 85 90 f1 ff ff 	movq   $0x0,-0xe70(%rbp)
   13a66:	00 00 00 00 
   13a6a:	48 c7 85 98 f1 ff ff 	movq   $0x0,-0xe68(%rbp)
   13a71:	00 00 00 00 
   13a75:	48 8d 05 cc 51 01 00 	lea    0x151cc(%rip),%rax        # 28c48 <g_51>
   13a7c:	48 89 85 90 eb ff ff 	mov    %rax,-0x1470(%rbp)
   13a83:	48 8d 85 90 eb ff ff 	lea    -0x1470(%rbp),%rax
   13a8a:	48 89 85 a0 f5 ff ff 	mov    %rax,-0xa60(%rbp)
   13a91:	48 8d 85 90 eb ff ff 	lea    -0x1470(%rbp),%rax
   13a98:	48 89 85 a8 f5 ff ff 	mov    %rax,-0xa58(%rbp)
   13a9f:	48 c7 85 b0 f5 ff ff 	movq   $0x0,-0xa50(%rbp)
   13aa6:	00 00 00 00 
   13aaa:	48 8d 85 90 eb ff ff 	lea    -0x1470(%rbp),%rax
   13ab1:	48 89 85 b8 f5 ff ff 	mov    %rax,-0xa48(%rbp)
   13ab8:	48 8d 85 90 eb ff ff 	lea    -0x1470(%rbp),%rax
   13abf:	48 89 85 c0 f5 ff ff 	mov    %rax,-0xa40(%rbp)
   13ac6:	48 8d 85 90 eb ff ff 	lea    -0x1470(%rbp),%rax
   13acd:	48 89 85 c8 f5 ff ff 	mov    %rax,-0xa38(%rbp)
   13ad4:	48 c7 85 d0 f5 ff ff 	movq   $0x0,-0xa30(%rbp)
   13adb:	00 00 00 00 
   13adf:	48 8d 85 90 eb ff ff 	lea    -0x1470(%rbp),%rax
   13ae6:	48 89 85 d8 f5 ff ff 	mov    %rax,-0xa28(%rbp)
   13aed:	48 8d 85 90 eb ff ff 	lea    -0x1470(%rbp),%rax
   13af4:	48 89 85 e0 f5 ff ff 	mov    %rax,-0xa20(%rbp)
   13afb:	48 8d 85 90 eb ff ff 	lea    -0x1470(%rbp),%rax
   13b02:	48 89 85 e8 f5 ff ff 	mov    %rax,-0xa18(%rbp)
   13b09:	48 8d 85 90 eb ff ff 	lea    -0x1470(%rbp),%rax
   13b10:	48 89 85 f0 f5 ff ff 	mov    %rax,-0xa10(%rbp)
   13b17:	48 8d 85 90 eb ff ff 	lea    -0x1470(%rbp),%rax
   13b1e:	48 89 85 f8 f5 ff ff 	mov    %rax,-0xa08(%rbp)
   13b25:	48 8d 85 90 eb ff ff 	lea    -0x1470(%rbp),%rax
   13b2c:	48 89 85 00 f6 ff ff 	mov    %rax,-0xa00(%rbp)
   13b33:	48 8d 85 90 eb ff ff 	lea    -0x1470(%rbp),%rax
   13b3a:	48 89 85 08 f6 ff ff 	mov    %rax,-0x9f8(%rbp)
   13b41:	48 8d 85 90 eb ff ff 	lea    -0x1470(%rbp),%rax
   13b48:	48 89 85 10 f6 ff ff 	mov    %rax,-0x9f0(%rbp)
   13b4f:	48 c7 85 18 f6 ff ff 	movq   $0x0,-0x9e8(%rbp)
   13b56:	00 00 00 00 
   13b5a:	48 8d 85 90 eb ff ff 	lea    -0x1470(%rbp),%rax
   13b61:	48 89 85 20 f6 ff ff 	mov    %rax,-0x9e0(%rbp)
   13b68:	48 8d 85 90 eb ff ff 	lea    -0x1470(%rbp),%rax
   13b6f:	48 89 85 28 f6 ff ff 	mov    %rax,-0x9d8(%rbp)
   13b76:	48 8d 85 90 eb ff ff 	lea    -0x1470(%rbp),%rax
   13b7d:	48 89 85 30 f6 ff ff 	mov    %rax,-0x9d0(%rbp)
   13b84:	48 8d 85 90 eb ff ff 	lea    -0x1470(%rbp),%rax
   13b8b:	48 89 85 38 f6 ff ff 	mov    %rax,-0x9c8(%rbp)
   13b92:	48 8d 85 90 eb ff ff 	lea    -0x1470(%rbp),%rax
   13b99:	48 89 85 40 f6 ff ff 	mov    %rax,-0x9c0(%rbp)
   13ba0:	48 8d 85 90 eb ff ff 	lea    -0x1470(%rbp),%rax
   13ba7:	48 89 85 48 f6 ff ff 	mov    %rax,-0x9b8(%rbp)
   13bae:	48 8d 85 90 eb ff ff 	lea    -0x1470(%rbp),%rax
   13bb5:	48 89 85 50 f6 ff ff 	mov    %rax,-0x9b0(%rbp)
   13bbc:	48 8d 85 90 eb ff ff 	lea    -0x1470(%rbp),%rax
   13bc3:	48 89 85 58 f6 ff ff 	mov    %rax,-0x9a8(%rbp)
   13bca:	48 8d 85 90 eb ff ff 	lea    -0x1470(%rbp),%rax
   13bd1:	48 89 85 60 f6 ff ff 	mov    %rax,-0x9a0(%rbp)
   13bd8:	48 8d 85 90 eb ff ff 	lea    -0x1470(%rbp),%rax
   13bdf:	48 89 85 68 f6 ff ff 	mov    %rax,-0x998(%rbp)
   13be6:	48 8d 85 90 eb ff ff 	lea    -0x1470(%rbp),%rax
   13bed:	48 89 85 70 f6 ff ff 	mov    %rax,-0x990(%rbp)
   13bf4:	48 c7 85 78 f6 ff ff 	movq   $0x0,-0x988(%rbp)
   13bfb:	00 00 00 00 
   13bff:	48 8d 85 90 eb ff ff 	lea    -0x1470(%rbp),%rax
   13c06:	48 89 85 80 f6 ff ff 	mov    %rax,-0x980(%rbp)
   13c0d:	48 c7 85 88 f6 ff ff 	movq   $0x0,-0x978(%rbp)
   13c14:	00 00 00 00 
   13c18:	48 8d 85 90 eb ff ff 	lea    -0x1470(%rbp),%rax
   13c1f:	48 89 85 90 f6 ff ff 	mov    %rax,-0x970(%rbp)
   13c26:	48 8d 85 90 eb ff ff 	lea    -0x1470(%rbp),%rax
   13c2d:	48 89 85 98 f6 ff ff 	mov    %rax,-0x968(%rbp)
   13c34:	48 8d 85 90 eb ff ff 	lea    -0x1470(%rbp),%rax
   13c3b:	48 89 85 a0 f6 ff ff 	mov    %rax,-0x960(%rbp)
   13c42:	48 8d 85 90 eb ff ff 	lea    -0x1470(%rbp),%rax
   13c49:	48 89 85 a8 f6 ff ff 	mov    %rax,-0x958(%rbp)
   13c50:	48 8d 85 90 eb ff ff 	lea    -0x1470(%rbp),%rax
   13c57:	48 89 85 b0 f6 ff ff 	mov    %rax,-0x950(%rbp)
   13c5e:	48 8d 85 90 eb ff ff 	lea    -0x1470(%rbp),%rax
   13c65:	48 89 85 b8 f6 ff ff 	mov    %rax,-0x948(%rbp)
   13c6c:	48 8d 85 90 eb ff ff 	lea    -0x1470(%rbp),%rax
   13c73:	48 89 85 c0 f6 ff ff 	mov    %rax,-0x940(%rbp)
   13c7a:	48 8d 85 90 eb ff ff 	lea    -0x1470(%rbp),%rax
   13c81:	48 89 85 c8 f6 ff ff 	mov    %rax,-0x938(%rbp)
   13c88:	48 8d 85 90 eb ff ff 	lea    -0x1470(%rbp),%rax
   13c8f:	48 89 85 d0 f6 ff ff 	mov    %rax,-0x930(%rbp)
   13c96:	48 8d 85 90 eb ff ff 	lea    -0x1470(%rbp),%rax
   13c9d:	48 89 85 d8 f6 ff ff 	mov    %rax,-0x928(%rbp)
   13ca4:	48 8d 85 90 eb ff ff 	lea    -0x1470(%rbp),%rax
   13cab:	48 89 85 e0 f6 ff ff 	mov    %rax,-0x920(%rbp)
   13cb2:	48 8d 85 90 eb ff ff 	lea    -0x1470(%rbp),%rax
   13cb9:	48 89 85 e8 f6 ff ff 	mov    %rax,-0x918(%rbp)
   13cc0:	48 c7 85 f0 f6 ff ff 	movq   $0x0,-0x910(%rbp)
   13cc7:	00 00 00 00 
   13ccb:	48 8d 85 90 eb ff ff 	lea    -0x1470(%rbp),%rax
   13cd2:	48 89 85 f8 f6 ff ff 	mov    %rax,-0x908(%rbp)
   13cd9:	48 c7 85 00 f7 ff ff 	movq   $0x0,-0x900(%rbp)
   13ce0:	00 00 00 00 
   13ce4:	48 8d 85 90 eb ff ff 	lea    -0x1470(%rbp),%rax
   13ceb:	48 89 85 08 f7 ff ff 	mov    %rax,-0x8f8(%rbp)
   13cf2:	48 8d 85 90 eb ff ff 	lea    -0x1470(%rbp),%rax
   13cf9:	48 89 85 10 f7 ff ff 	mov    %rax,-0x8f0(%rbp)
   13d00:	48 8d 85 90 eb ff ff 	lea    -0x1470(%rbp),%rax
   13d07:	48 89 85 18 f7 ff ff 	mov    %rax,-0x8e8(%rbp)
   13d0e:	48 8d 85 90 eb ff ff 	lea    -0x1470(%rbp),%rax
   13d15:	48 89 85 20 f7 ff ff 	mov    %rax,-0x8e0(%rbp)
   13d1c:	48 8d 85 90 eb ff ff 	lea    -0x1470(%rbp),%rax
   13d23:	48 89 85 28 f7 ff ff 	mov    %rax,-0x8d8(%rbp)
   13d2a:	48 8d 85 90 eb ff ff 	lea    -0x1470(%rbp),%rax
   13d31:	48 89 85 30 f7 ff ff 	mov    %rax,-0x8d0(%rbp)
   13d38:	48 8d 85 90 eb ff ff 	lea    -0x1470(%rbp),%rax
   13d3f:	48 89 85 38 f7 ff ff 	mov    %rax,-0x8c8(%rbp)
   13d46:	48 8d 85 90 eb ff ff 	lea    -0x1470(%rbp),%rax
   13d4d:	48 89 85 40 f7 ff ff 	mov    %rax,-0x8c0(%rbp)
   13d54:	48 8d 85 90 eb ff ff 	lea    -0x1470(%rbp),%rax
   13d5b:	48 89 85 48 f7 ff ff 	mov    %rax,-0x8b8(%rbp)
   13d62:	48 8d 85 90 eb ff ff 	lea    -0x1470(%rbp),%rax
   13d69:	48 89 85 50 f7 ff ff 	mov    %rax,-0x8b0(%rbp)
   13d70:	48 8d 85 90 eb ff ff 	lea    -0x1470(%rbp),%rax
   13d77:	48 89 85 58 f7 ff ff 	mov    %rax,-0x8a8(%rbp)
   13d7e:	48 c7 85 60 f7 ff ff 	movq   $0x0,-0x8a0(%rbp)
   13d85:	00 00 00 00 
   13d89:	48 8d 85 90 eb ff ff 	lea    -0x1470(%rbp),%rax
   13d90:	48 89 85 68 f7 ff ff 	mov    %rax,-0x898(%rbp)
   13d97:	48 8d 85 90 eb ff ff 	lea    -0x1470(%rbp),%rax
   13d9e:	48 89 85 70 f7 ff ff 	mov    %rax,-0x890(%rbp)
   13da5:	48 8d 85 90 eb ff ff 	lea    -0x1470(%rbp),%rax
   13dac:	48 89 85 78 f7 ff ff 	mov    %rax,-0x888(%rbp)
   13db3:	48 8d 85 90 eb ff ff 	lea    -0x1470(%rbp),%rax
   13dba:	48 89 85 80 f7 ff ff 	mov    %rax,-0x880(%rbp)
   13dc1:	48 8d 85 90 eb ff ff 	lea    -0x1470(%rbp),%rax
   13dc8:	48 89 85 88 f7 ff ff 	mov    %rax,-0x878(%rbp)
   13dcf:	48 c7 85 90 f7 ff ff 	movq   $0x0,-0x870(%rbp)
   13dd6:	00 00 00 00 
   13dda:	48 8d 85 90 eb ff ff 	lea    -0x1470(%rbp),%rax
   13de1:	48 89 85 98 f7 ff ff 	mov    %rax,-0x868(%rbp)
   13de8:	48 8d 85 90 eb ff ff 	lea    -0x1470(%rbp),%rax
   13def:	48 89 85 a0 f7 ff ff 	mov    %rax,-0x860(%rbp)
   13df6:	48 8d 85 90 eb ff ff 	lea    -0x1470(%rbp),%rax
   13dfd:	48 89 85 a8 f7 ff ff 	mov    %rax,-0x858(%rbp)
   13e04:	48 8d 85 90 eb ff ff 	lea    -0x1470(%rbp),%rax
   13e0b:	48 89 85 b0 f7 ff ff 	mov    %rax,-0x850(%rbp)
   13e12:	48 8d 85 90 eb ff ff 	lea    -0x1470(%rbp),%rax
   13e19:	48 89 85 b8 f7 ff ff 	mov    %rax,-0x848(%rbp)
   13e20:	48 8d 85 90 eb ff ff 	lea    -0x1470(%rbp),%rax
   13e27:	48 89 85 c0 f7 ff ff 	mov    %rax,-0x840(%rbp)
   13e2e:	48 8d 85 90 eb ff ff 	lea    -0x1470(%rbp),%rax
   13e35:	48 89 85 c8 f7 ff ff 	mov    %rax,-0x838(%rbp)
   13e3c:	48 8d 85 90 eb ff ff 	lea    -0x1470(%rbp),%rax
   13e43:	48 89 85 d0 f7 ff ff 	mov    %rax,-0x830(%rbp)
   13e4a:	48 8d 85 90 eb ff ff 	lea    -0x1470(%rbp),%rax
   13e51:	48 89 85 d8 f7 ff ff 	mov    %rax,-0x828(%rbp)
   13e58:	48 8b 85 98 ec ff ff 	mov    -0x1368(%rbp),%rax
   13e5f:	0f b6 00             	movzbl (%rax),%eax
   13e62:	8d 50 ff             	lea    -0x1(%rax),%edx
   13e65:	48 8b 85 98 ec ff ff 	mov    -0x1368(%rbp),%rax
   13e6c:	88 10                	mov    %dl,(%rax)
   13e6e:	48 8b 85 98 ec ff ff 	mov    -0x1368(%rbp),%rax
   13e75:	0f b6 00             	movzbl (%rax),%eax
   13e78:	0f b6 c0             	movzbl %al,%eax
   13e7b:	be 01 00 00 00       	mov    $0x1,%esi
   13e80:	89 c7                	mov    %eax,%edi
   13e82:	e8 d3 7c ff ff       	callq  bb5a <safe_add_func_uint8_t_u_u>
   13e87:	0f be d0             	movsbl %al,%edx
   13e8a:	8b 85 8c ea ff ff    	mov    -0x1574(%rbp),%eax
   13e90:	25 ff ff 0f 00       	and    $0xfffff,%eax
   13e95:	0f be c0             	movsbl %al,%eax
   13e98:	89 d6                	mov    %edx,%esi
   13e9a:	89 c7                	mov    %eax,%edi
   13e9c:	e8 71 73 ff ff       	callq  b212 <safe_mul_func_int8_t_s_s>
   13ea1:	0f be c0             	movsbl %al,%eax
   13ea4:	09 85 d4 ea ff ff    	or     %eax,-0x152c(%rbp)
   13eaa:	83 bd fc ea ff ff 00 	cmpl   $0x0,-0x1504(%rbp)
   13eb1:	0f 95 c0             	setne  %al
   13eb4:	44 0f b6 e0          	movzbl %al,%r12d
   13eb8:	83 bd cc ea ff ff 00 	cmpl   $0x0,-0x1534(%rbp)
   13ebf:	74 11                	je     13ed2 <func_62+0xe41>
   13ec1:	66 83 bd a6 ea ff ff 	cmpw   $0x0,-0x155a(%rbp)
   13ec8:	00 
   13ec9:	74 07                	je     13ed2 <func_62+0xe41>
   13ecb:	ba 01 00 00 00       	mov    $0x1,%edx
   13ed0:	eb 05                	jmp    13ed7 <func_62+0xe46>
   13ed2:	ba 00 00 00 00       	mov    $0x0,%edx
   13ed7:	8b 85 8c ea ff ff    	mov    -0x1574(%rbp),%eax
   13edd:	25 ff ff 0f 00       	and    $0xfffff,%eax
   13ee2:	39 c2                	cmp    %eax,%edx
   13ee4:	0f 9e c0             	setle  %al
   13ee7:	0f b6 c0             	movzbl %al,%eax
   13eea:	be 01 00 00 00       	mov    $0x1,%esi
   13eef:	89 c7                	mov    %eax,%edi
   13ef1:	e8 bd 74 ff ff       	callq  b3b3 <safe_add_func_int16_t_s_s>
   13ef6:	8b 85 8c ea ff ff    	mov    -0x1574(%rbp),%eax
   13efc:	25 ff ff 0f 00       	and    $0xfffff,%eax
   13f01:	89 c1                	mov    %eax,%ecx
   13f03:	8b 85 8c ea ff ff    	mov    -0x1574(%rbp),%eax
   13f09:	25 ff ff 0f 00       	and    $0xfffff,%eax
   13f0e:	89 c0                	mov    %eax,%eax
   13f10:	48 83 c8 f6          	or     $0xfffffffffffffff6,%rax
   13f14:	48 89 c2             	mov    %rax,%rdx
   13f17:	8b 85 8c ea ff ff    	mov    -0x1574(%rbp),%eax
   13f1d:	25 ff ff 0f 00       	and    $0xfffff,%eax
   13f22:	89 c0                	mov    %eax,%eax
   13f24:	48 39 c2             	cmp    %rax,%rdx
   13f27:	0f 9c c0             	setl   %al
   13f2a:	21 c8                	and    %ecx,%eax
   13f2c:	0f be d8             	movsbl %al,%ebx
   13f2f:	8b 95 3c eb ff ff    	mov    -0x14c4(%rbp),%edx
   13f35:	8b 85 b8 ea ff ff    	mov    -0x1548(%rbp),%eax
   13f3b:	89 d6                	mov    %edx,%esi
   13f3d:	89 c7                	mov    %eax,%edi
   13f3f:	e8 72 76 ff ff       	callq  b5b6 <safe_add_func_int32_t_s_s>
   13f44:	39 85 38 eb ff ff    	cmp    %eax,-0x14c8(%rbp)
   13f4a:	0f 9c c0             	setl   %al
   13f4d:	0f b6 c0             	movzbl %al,%eax
   13f50:	89 de                	mov    %ebx,%esi
   13f52:	89 c7                	mov    %eax,%edi
   13f54:	e8 11 73 ff ff       	callq  b26a <safe_div_func_int8_t_s_s>
   13f59:	0f be c0             	movsbl %al,%eax
   13f5c:	41 39 c4             	cmp    %eax,%r12d
   13f5f:	0f 9c c0             	setl   %al
   13f62:	0f b6 c0             	movzbl %al,%eax
   13f65:	89 85 f0 ea ff ff    	mov    %eax,-0x1510(%rbp)
   13f6b:	48 c7 85 18 ec ff ff 	movq   $0x0,-0x13e8(%rbp)
   13f72:	00 00 00 00 
   13f76:	48 8b 85 18 ec ff ff 	mov    -0x13e8(%rbp),%rax
   13f7d:	48 89 85 78 ec ff ff 	mov    %rax,-0x1388(%rbp)
   13f84:	83 85 b0 ea ff ff 01 	addl   $0x1,-0x1550(%rbp)
   13f8b:	83 bd b0 ea ff ff 16 	cmpl   $0x16,-0x1550(%rbp)
   13f92:	0f 8e 42 fa ff ff    	jle    139da <func_62+0x949>
   13f98:	8b 85 28 ed ff ff    	mov    -0x12d8(%rbp),%eax
   13f9e:	89 c2                	mov    %eax,%edx
   13fa0:	48 83 bd 88 ec ff ff 	cmpq   $0x0,-0x1378(%rbp)
   13fa7:	00 
   13fa8:	0f 94 c0             	sete   %al
   13fab:	0f b6 c0             	movzbl %al,%eax
   13fae:	89 d6                	mov    %edx,%esi
   13fb0:	89 c7                	mov    %eax,%edi
   13fb2:	e8 07 7e ff ff       	callq  bdbe <safe_lshift_func_uint16_t_u_s>
   13fb7:	0f be d8             	movsbl %al,%ebx
   13fba:	8b 85 8c ea ff ff    	mov    -0x1574(%rbp),%eax
   13fc0:	25 ff ff 0f 00       	and    $0xfffff,%eax
   13fc5:	0f b6 d0             	movzbl %al,%edx
   13fc8:	8b 85 8c ea ff ff    	mov    -0x1574(%rbp),%eax
   13fce:	25 ff ff 0f 00       	and    $0xfffff,%eax
   13fd3:	0f b6 c0             	movzbl %al,%eax
   13fd6:	89 d6                	mov    %edx,%esi
   13fd8:	89 c7                	mov    %eax,%edi
   13fda:	e8 fc 7b ff ff       	callq  bbdb <safe_div_func_uint8_t_u_u>
   13fdf:	0f b6 d0             	movzbl %al,%edx
   13fe2:	48 8d 85 e0 f7 ff ff 	lea    -0x820(%rbp),%rax
   13fe9:	48 05 b8 07 00 00    	add    $0x7b8,%rax
   13fef:	48 89 85 f8 eb ff ff 	mov    %rax,-0x1408(%rbp)
   13ff6:	48 8b 85 f8 eb ff ff 	mov    -0x1408(%rbp),%rax
   13ffd:	48 3b 85 80 ec ff ff 	cmp    -0x1380(%rbp),%rax
   14004:	0f 94 c1             	sete   %cl
   14007:	48 8b 05 6a 32 01 00 	mov    0x1326a(%rip),%rax        # 27278 <g_115>
   1400e:	48 8b 00             	mov    (%rax),%rax
   14011:	88 08                	mov    %cl,(%rax)
   14013:	0f b6 00             	movzbl (%rax),%eax
   14016:	0f be c0             	movsbl %al,%eax
   14019:	89 85 34 eb ff ff    	mov    %eax,-0x14cc(%rbp)
   1401f:	8b 85 34 eb ff ff    	mov    -0x14cc(%rbp),%eax
   14025:	0f be c0             	movsbl %al,%eax
   14028:	89 d6                	mov    %edx,%esi
   1402a:	89 c7                	mov    %eax,%edi
   1402c:	e8 70 72 ff ff       	callq  b2a1 <safe_lshift_func_int8_t_s_s>
   14031:	0f be c0             	movsbl %al,%eax
   14034:	89 de                	mov    %ebx,%esi
   14036:	89 c7                	mov    %eax,%edi
   14038:	e8 d5 71 ff ff       	callq  b212 <safe_mul_func_int8_t_s_s>
   1403d:	8b 85 8c ea ff ff    	mov    -0x1574(%rbp),%eax
   14043:	25 ff ff 0f 00       	and    $0xfffff,%eax
   14048:	0f be c0             	movsbl %al,%eax
   1404b:	be 05 00 00 00       	mov    $0x5,%esi
   14050:	89 c7                	mov    %eax,%edi
   14052:	e8 97 72 ff ff       	callq  b2ee <safe_lshift_func_int8_t_s_u>
   14057:	0f be c0             	movsbl %al,%eax
   1405a:	be 01 00 00 00       	mov    $0x1,%esi
   1405f:	89 c7                	mov    %eax,%edi
   14061:	e8 3b 72 ff ff       	callq  b2a1 <safe_lshift_func_int8_t_s_s>
   14066:	0f be c0             	movsbl %al,%eax
   14069:	be 01 00 00 00       	mov    $0x1,%esi
   1406e:	89 c7                	mov    %eax,%edi
   14070:	e8 5e 73 ff ff       	callq  b3d3 <safe_sub_func_int16_t_s_s>
   14075:	66 85 c0             	test   %ax,%ax
   14078:	0f 84 13 01 00 00    	je     14191 <func_62+0x1100>
   1407e:	48 8b 85 f8 eb ff ff 	mov    -0x1408(%rbp),%rax
   14085:	48 8b 10             	mov    (%rax),%rdx
   14088:	48 8b 85 f8 eb ff ff 	mov    -0x1408(%rbp),%rax
   1408f:	48 89 10             	mov    %rdx,(%rax)
   14092:	8b 85 8c ea ff ff    	mov    -0x1574(%rbp),%eax
   14098:	25 ff ff 0f 00       	and    $0xfffff,%eax
   1409d:	83 f8 01             	cmp    $0x1,%eax
   140a0:	0f 97 c0             	seta   %al
   140a3:	44 0f b6 e0          	movzbl %al,%r12d
   140a7:	8b 85 8c ea ff ff    	mov    -0x1574(%rbp),%eax
   140ad:	25 ff ff 0f 00       	and    $0xfffff,%eax
   140b2:	0f b6 d0             	movzbl %al,%edx
   140b5:	8b 85 8c ea ff ff    	mov    -0x1574(%rbp),%eax
   140bb:	25 ff ff 0f 00       	and    $0xfffff,%eax
   140c0:	89 c1                	mov    %eax,%ecx
   140c2:	8b 85 2c eb ff ff    	mov    -0x14d4(%rbp),%eax
   140c8:	09 c8                	or     %ecx,%eax
   140ca:	0f b6 c0             	movzbl %al,%eax
   140cd:	89 d6                	mov    %edx,%esi
   140cf:	89 c7                	mov    %eax,%edi
   140d1:	e8 d8 7a ff ff       	callq  bbae <safe_mod_func_uint8_t_u_u>
   140d6:	0f b6 c0             	movzbl %al,%eax
   140d9:	39 85 34 eb ff ff    	cmp    %eax,-0x14cc(%rbp)
   140df:	0f 9e c0             	setle  %al
   140e2:	0f b6 d8             	movzbl %al,%ebx
   140e5:	be 01 00 00 00       	mov    $0x1,%esi
   140ea:	bf 0a f7 ff ff       	mov    $0xfffff70a,%edi
   140ef:	e8 ed 73 ff ff       	callq  b4e1 <safe_lshift_func_int16_t_s_u>
   140f4:	0f b7 c0             	movzwl %ax,%eax
   140f7:	be 0d 00 00 00       	mov    $0xd,%esi
   140fc:	89 c7                	mov    %eax,%edi
   140fe:	e8 45 7d ff ff       	callq  be48 <safe_rshift_func_uint16_t_u_s>
   14103:	8b 85 8c ea ff ff    	mov    -0x1574(%rbp),%eax
   14109:	25 ff ff 0f 00       	and    $0xfffff,%eax
   1410e:	89 c2                	mov    %eax,%edx
   14110:	8b 85 30 eb ff ff    	mov    -0x14d0(%rbp),%eax
   14116:	0f b7 c0             	movzwl %ax,%eax
   14119:	89 d6                	mov    %edx,%esi
   1411b:	89 c7                	mov    %eax,%edi
   1411d:	e8 58 7d ff ff       	callq  be7a <safe_rshift_func_uint16_t_u_u>
   14122:	be 01 00 00 00       	mov    $0x1,%esi
   14127:	bf 07 00 00 00       	mov    $0x7,%edi
   1412c:	e8 70 71 ff ff       	callq  b2a1 <safe_lshift_func_int8_t_s_s>
   14131:	48 0f be c0          	movsbq %al,%rax
   14135:	48 89 de             	mov    %rbx,%rsi
   14138:	48 89 c7             	mov    %rax,%rdi
   1413b:	e8 01 77 ff ff       	callq  b841 <safe_add_func_int64_t_s_s>
   14140:	49 39 c4             	cmp    %rax,%r12
   14143:	0f 9d c0             	setge  %al
   14146:	0f b6 d0             	movzbl %al,%edx
   14149:	48 8b 05 c0 34 01 00 	mov    0x134c0(%rip),%rax        # 27610 <g_499>
   14150:	48 8b 00             	mov    (%rax),%rax
   14153:	48 8b 00             	mov    (%rax),%rax
   14156:	0f b6 00             	movzbl (%rax),%eax
   14159:	0f be c0             	movsbl %al,%eax
   1415c:	09 d0                	or     %edx,%eax
   1415e:	48 98                	cltq   
   14160:	be 01 00 00 00       	mov    $0x1,%esi
   14165:	48 89 c7             	mov    %rax,%rdi
   14168:	e8 de 7e ff ff       	callq  c04b <safe_sub_func_uint64_t_u_u>
   1416d:	8b 95 8c ea ff ff    	mov    -0x1574(%rbp),%edx
   14173:	81 e2 ff ff 0f 00    	and    $0xfffff,%edx
   14179:	89 d2                	mov    %edx,%edx
   1417b:	48 09 c2             	or     %rax,%rdx
   1417e:	48 8b 85 58 eb ff ff 	mov    -0x14a8(%rbp),%rax
   14185:	48 21 d0             	and    %rdx,%rax
   14188:	48 89 85 58 eb ff ff 	mov    %rax,-0x14a8(%rbp)
   1418f:	eb 3c                	jmp    141cd <func_62+0x113c>
   14191:	48 8d 05 b0 34 01 00 	lea    0x134b0(%rip),%rax        # 27648 <g_800>
   14198:	48 89 85 90 ec ff ff 	mov    %rax,-0x1370(%rbp)
   1419f:	c7 85 48 eb ff ff ce 	movl   $0xfa0189ce,-0x14b8(%rbp)
   141a6:	89 01 fa 
   141a9:	48 83 bd 90 ec ff ff 	cmpq   $0x0,-0x1370(%rbp)
   141b0:	00 
   141b1:	0f 95 c0             	setne  %al
   141b4:	0f b6 c0             	movzbl %al,%eax
   141b7:	09 85 48 eb ff ff    	or     %eax,-0x14b8(%rbp)
   141bd:	8b 85 8c ea ff ff    	mov    -0x1574(%rbp),%eax
   141c3:	25 ff ff 0f 00       	and    $0xfffff,%eax
   141c8:	e9 bc 0f 00 00       	jmpq   15189 <func_62+0x20f8>
   141cd:	83 ad c0 ea ff ff 01 	subl   $0x1,-0x1540(%rbp)
   141d4:	83 bd c0 ea ff ff e8 	cmpl   $0xffffffe8,-0x1540(%rbp)
   141db:	0f 84 ba f4 ff ff    	je     1369b <func_62+0x60a>
   141e1:	c7 85 a8 ea ff ff 00 	movl   $0x0,-0x1558(%rbp)
   141e8:	00 00 00 
   141eb:	e9 2e 0d 00 00       	jmpq   14f1e <func_62+0x1e8d>
   141f0:	48 8d 05 e9 02 01 00 	lea    0x102e9(%rip),%rax        # 244e0 <g_1166>
   141f7:	48 89 85 20 ec ff ff 	mov    %rax,-0x13e0(%rbp)
   141fe:	48 8d 05 db 01 01 00 	lea    0x101db(%rip),%rax        # 243e0 <g_143>
   14205:	48 89 85 28 ec ff ff 	mov    %rax,-0x13d8(%rbp)
   1420c:	48 8d 85 a0 f5 ff ff 	lea    -0xa60(%rbp),%rax
   14213:	48 8d 15 46 be 00 00 	lea    0xbe46(%rip),%rdx        # 20060 <g_985+0xffc>
   1421a:	b9 3c 00 00 00       	mov    $0x3c,%ecx
   1421f:	48 89 c7             	mov    %rax,%rdi
   14222:	48 89 d6             	mov    %rdx,%rsi
   14225:	f3 48 a5             	rep movsq %ds:(%rsi),%es:(%rdi)
   14228:	48 8d 05 61 34 01 00 	lea    0x13461(%rip),%rax        # 27690 <g_915>
   1422f:	48 89 85 30 ec ff ff 	mov    %rax,-0x13d0(%rbp)
   14236:	48 c7 85 38 ec ff ff 	movq   $0x0,-0x13c8(%rbp)
   1423d:	00 00 00 00 
   14241:	48 c7 85 40 ec ff ff 	movq   $0x0,-0x13c0(%rbp)
   14248:	00 00 00 00 
   1424c:	48 8d 05 45 34 01 00 	lea    0x13445(%rip),%rax        # 27698 <g_914>
   14253:	48 89 85 48 ec ff ff 	mov    %rax,-0x13b8(%rbp)
   1425a:	c6 85 9e ea ff ff f6 	movb   $0xf6,-0x1562(%rbp)
   14261:	48 8b 05 98 33 01 00 	mov    0x13398(%rip),%rax        # 27600 <g_501>
   14268:	0f b6 00             	movzbl (%rax),%eax
   1426b:	66 44 0f be e0       	movsbw %al,%r12w
   14270:	8b 05 42 fe 00 00    	mov    0xfe42(%rip),%eax        # 240b8 <g_2+0x78>
   14276:	89 c6                	mov    %eax,%esi
   14278:	bf 0c 6c 00 00       	mov    $0x6c0c,%edi
   1427d:	e8 c6 7b ff ff       	callq  be48 <safe_rshift_func_uint16_t_u_s>
   14282:	8b 85 8c ea ff ff    	mov    -0x1574(%rbp),%eax
   14288:	25 ff ff 0f 00       	and    $0xfffff,%eax
   1428d:	41 89 c5             	mov    %eax,%r13d
   14290:	48 8b 05 89 2f 01 00 	mov    0x12f89(%rip),%rax        # 27220 <g_13>
   14297:	8b 18                	mov    (%rax),%ebx
   14299:	48 8b 05 68 33 01 00 	mov    0x13368(%rip),%rax        # 27608 <g_500>
   142a0:	48 8b 00             	mov    (%rax),%rax
   142a3:	0f b6 00             	movzbl (%rax),%eax
   142a6:	0f be c0             	movsbl %al,%eax
   142a9:	89 c6                	mov    %eax,%esi
   142ab:	bf f8 00 00 00       	mov    $0xf8,%edi
   142b0:	e8 d8 79 ff ff       	callq  bc8d <safe_rshift_func_uint8_t_u_s>
   142b5:	48 8d 05 8c 37 01 00 	lea    0x1378c(%rip),%rax        # 27a48 <g_1063+0x48>
   142bc:	48 39 85 00 ec ff ff 	cmp    %rax,-0x1400(%rbp)
   142c3:	0f 94 c0             	sete   %al
   142c6:	0f b6 c0             	movzbl %al,%eax
   142c9:	89 de                	mov    %ebx,%esi
   142cb:	89 c7                	mov    %eax,%edi
   142cd:	e8 fa 73 ff ff       	callq  b6cc <safe_mod_func_int32_t_s_s>
   142d2:	41 39 c5             	cmp    %eax,%r13d
   142d5:	be fa ff ff ff       	mov    $0xfffffffa,%esi
   142da:	bf 00 00 00 00       	mov    $0x0,%edi
   142df:	e8 ec 7b ff ff       	callq  bed0 <safe_sub_func_uint32_t_u_u>
   142e4:	8b 85 8c ea ff ff    	mov    -0x1574(%rbp),%eax
   142ea:	25 ff ff 0f 00       	and    $0xfffff,%eax
   142ef:	0f b7 d0             	movzwl %ax,%edx
   142f2:	8b 85 8c ea ff ff    	mov    -0x1574(%rbp),%eax
   142f8:	25 ff ff 0f 00       	and    $0xfffff,%eax
   142fd:	0f b7 c0             	movzwl %ax,%eax
   14300:	89 d6                	mov    %edx,%esi
   14302:	89 c7                	mov    %eax,%edi
   14304:	e8 34 7a ff ff       	callq  bd3d <safe_mul_func_uint16_t_u_u>
   14309:	be d9 28 00 00       	mov    $0x28d9,%esi
   1430e:	bf 00 00 00 00       	mov    $0x0,%edi
   14313:	e8 dd 70 ff ff       	callq  b3f5 <safe_mul_func_int16_t_s_s>
   14318:	98                   	cwtl   
   14319:	8b 95 8c ea ff ff    	mov    -0x1574(%rbp),%edx
   1431f:	81 e2 ff ff 0f 00    	and    $0xfffff,%edx
   14325:	09 d0                	or     %edx,%eax
   14327:	48 63 d0             	movslq %eax,%rdx
   1432a:	48 8b 85 28 ec ff ff 	mov    -0x13d8(%rbp),%rax
   14331:	48 89 10             	mov    %rdx,(%rax)
   14334:	48 8b 85 28 ec ff ff 	mov    -0x13d8(%rbp),%rax
   1433b:	48 8b 00             	mov    (%rax),%rax
   1433e:	48 85 c0             	test   %rax,%rax
   14341:	74 07                	je     1434a <func_62+0x12b9>
   14343:	b8 01 00 00 00       	mov    $0x1,%eax
   14348:	eb 05                	jmp    1434f <func_62+0x12be>
   1434a:	b8 00 00 00 00       	mov    $0x0,%eax
   1434f:	44 21 e0             	and    %r12d,%eax
   14352:	0f b7 c0             	movzwl %ax,%eax
   14355:	be ff ff 00 00       	mov    $0xffff,%esi
   1435a:	89 c7                	mov    %eax,%edi
   1435c:	e8 2d 7a ff ff       	callq  bd8e <safe_div_func_uint16_t_u_u>
   14361:	8b 85 14 f6 ff ff    	mov    -0x9ec(%rbp),%eax
   14367:	85 c0                	test   %eax,%eax
   14369:	0f 84 ed 07 00 00    	je     14b5c <func_62+0x1acb>
   1436f:	c6 85 9f ea ff ff ff 	movb   $0xff,-0x1561(%rbp)
   14376:	c7 85 e0 ea ff ff 00 	movl   $0x0,-0x1520(%rbp)
   1437d:	00 00 00 
   14380:	48 8d 05 f1 32 01 00 	lea    0x132f1(%rip),%rax        # 27678 <g_843+0x18>
   14387:	48 89 85 e0 ed ff ff 	mov    %rax,-0x1220(%rbp)
   1438e:	48 8d 05 e3 32 01 00 	lea    0x132e3(%rip),%rax        # 27678 <g_843+0x18>
   14395:	48 89 85 e8 ed ff ff 	mov    %rax,-0x1218(%rbp)
   1439c:	48 8d 05 d5 32 01 00 	lea    0x132d5(%rip),%rax        # 27678 <g_843+0x18>
   143a3:	48 89 85 f0 ed ff ff 	mov    %rax,-0x1210(%rbp)
   143aa:	48 8d 05 c7 32 01 00 	lea    0x132c7(%rip),%rax        # 27678 <g_843+0x18>
   143b1:	48 89 85 f8 ed ff ff 	mov    %rax,-0x1208(%rbp)
   143b8:	48 8d 05 b9 32 01 00 	lea    0x132b9(%rip),%rax        # 27678 <g_843+0x18>
   143bf:	48 89 85 00 ee ff ff 	mov    %rax,-0x1200(%rbp)
   143c6:	48 8d 05 ab 32 01 00 	lea    0x132ab(%rip),%rax        # 27678 <g_843+0x18>
   143cd:	48 89 85 08 ee ff ff 	mov    %rax,-0x11f8(%rbp)
   143d4:	48 8d 05 9d 32 01 00 	lea    0x1329d(%rip),%rax        # 27678 <g_843+0x18>
   143db:	48 89 85 10 ee ff ff 	mov    %rax,-0x11f0(%rbp)
   143e2:	48 8d 85 50 eb ff ff 	lea    -0x14b0(%rbp),%rax
   143e9:	48 89 85 18 ee ff ff 	mov    %rax,-0x11e8(%rbp)
   143f0:	48 8d 85 50 eb ff ff 	lea    -0x14b0(%rbp),%rax
   143f7:	48 89 85 20 ee ff ff 	mov    %rax,-0x11e0(%rbp)
   143fe:	48 8d 85 50 eb ff ff 	lea    -0x14b0(%rbp),%rax
   14405:	48 89 85 28 ee ff ff 	mov    %rax,-0x11d8(%rbp)
   1440c:	48 8d 85 50 eb ff ff 	lea    -0x14b0(%rbp),%rax
   14413:	48 89 85 30 ee ff ff 	mov    %rax,-0x11d0(%rbp)
   1441a:	48 8d 85 50 eb ff ff 	lea    -0x14b0(%rbp),%rax
   14421:	48 89 85 38 ee ff ff 	mov    %rax,-0x11c8(%rbp)
   14428:	48 8d 85 50 eb ff ff 	lea    -0x14b0(%rbp),%rax
   1442f:	48 89 85 40 ee ff ff 	mov    %rax,-0x11c0(%rbp)
   14436:	48 8d 85 50 eb ff ff 	lea    -0x14b0(%rbp),%rax
   1443d:	48 89 85 48 ee ff ff 	mov    %rax,-0x11b8(%rbp)
   14444:	48 8d 05 2d 32 01 00 	lea    0x1322d(%rip),%rax        # 27678 <g_843+0x18>
   1444b:	48 89 85 50 ee ff ff 	mov    %rax,-0x11b0(%rbp)
   14452:	48 8d 05 1f 32 01 00 	lea    0x1321f(%rip),%rax        # 27678 <g_843+0x18>
   14459:	48 89 85 58 ee ff ff 	mov    %rax,-0x11a8(%rbp)
   14460:	48 8d 05 11 32 01 00 	lea    0x13211(%rip),%rax        # 27678 <g_843+0x18>
   14467:	48 89 85 60 ee ff ff 	mov    %rax,-0x11a0(%rbp)
   1446e:	48 8d 05 03 32 01 00 	lea    0x13203(%rip),%rax        # 27678 <g_843+0x18>
   14475:	48 89 85 68 ee ff ff 	mov    %rax,-0x1198(%rbp)
   1447c:	48 8d 05 f5 31 01 00 	lea    0x131f5(%rip),%rax        # 27678 <g_843+0x18>
   14483:	48 89 85 70 ee ff ff 	mov    %rax,-0x1190(%rbp)
   1448a:	48 8d 05 e7 31 01 00 	lea    0x131e7(%rip),%rax        # 27678 <g_843+0x18>
   14491:	48 89 85 78 ee ff ff 	mov    %rax,-0x1188(%rbp)
   14498:	48 8d 05 d9 31 01 00 	lea    0x131d9(%rip),%rax        # 27678 <g_843+0x18>
   1449f:	48 89 85 80 ee ff ff 	mov    %rax,-0x1180(%rbp)
   144a6:	48 8d 85 50 eb ff ff 	lea    -0x14b0(%rbp),%rax
   144ad:	48 89 85 88 ee ff ff 	mov    %rax,-0x1178(%rbp)
   144b4:	48 8d 85 50 eb ff ff 	lea    -0x14b0(%rbp),%rax
   144bb:	48 89 85 90 ee ff ff 	mov    %rax,-0x1170(%rbp)
   144c2:	48 8d 85 50 eb ff ff 	lea    -0x14b0(%rbp),%rax
   144c9:	48 89 85 98 ee ff ff 	mov    %rax,-0x1168(%rbp)
   144d0:	48 8d 85 50 eb ff ff 	lea    -0x14b0(%rbp),%rax
   144d7:	48 89 85 a0 ee ff ff 	mov    %rax,-0x1160(%rbp)
   144de:	48 8d 85 50 eb ff ff 	lea    -0x14b0(%rbp),%rax
   144e5:	48 89 85 a8 ee ff ff 	mov    %rax,-0x1158(%rbp)
   144ec:	48 8d 85 50 eb ff ff 	lea    -0x14b0(%rbp),%rax
   144f3:	48 89 85 b0 ee ff ff 	mov    %rax,-0x1150(%rbp)
   144fa:	48 8d 85 50 eb ff ff 	lea    -0x14b0(%rbp),%rax
   14501:	48 89 85 b8 ee ff ff 	mov    %rax,-0x1148(%rbp)
   14508:	48 8d 05 69 31 01 00 	lea    0x13169(%rip),%rax        # 27678 <g_843+0x18>
   1450f:	48 89 85 c0 ee ff ff 	mov    %rax,-0x1140(%rbp)
   14516:	48 8d 05 5b 31 01 00 	lea    0x1315b(%rip),%rax        # 27678 <g_843+0x18>
   1451d:	48 89 85 c8 ee ff ff 	mov    %rax,-0x1138(%rbp)
   14524:	48 8d 05 4d 31 01 00 	lea    0x1314d(%rip),%rax        # 27678 <g_843+0x18>
   1452b:	48 89 85 d0 ee ff ff 	mov    %rax,-0x1130(%rbp)
   14532:	48 8d 05 3f 31 01 00 	lea    0x1313f(%rip),%rax        # 27678 <g_843+0x18>
   14539:	48 89 85 d8 ee ff ff 	mov    %rax,-0x1128(%rbp)
   14540:	48 8d 05 31 31 01 00 	lea    0x13131(%rip),%rax        # 27678 <g_843+0x18>
   14547:	48 89 85 e0 ee ff ff 	mov    %rax,-0x1120(%rbp)
   1454e:	48 8d 05 23 31 01 00 	lea    0x13123(%rip),%rax        # 27678 <g_843+0x18>
   14555:	48 89 85 e8 ee ff ff 	mov    %rax,-0x1118(%rbp)
   1455c:	48 8d 05 15 31 01 00 	lea    0x13115(%rip),%rax        # 27678 <g_843+0x18>
   14563:	48 89 85 f0 ee ff ff 	mov    %rax,-0x1110(%rbp)
   1456a:	c7 85 b4 ea ff ff 00 	movl   $0x0,-0x154c(%rbp)
   14571:	00 00 00 
   14574:	e9 1b 04 00 00       	jmpq   14994 <func_62+0x1903>
   14579:	48 8d 85 40 ed ff ff 	lea    -0x12c0(%rbp),%rax
   14580:	48 83 c0 20          	add    $0x20,%rax
   14584:	48 89 85 60 f1 ff ff 	mov    %rax,-0xea0(%rbp)
   1458b:	48 8d 85 40 ed ff ff 	lea    -0x12c0(%rbp),%rax
   14592:	48 83 c0 10          	add    $0x10,%rax
   14596:	48 89 85 68 f1 ff ff 	mov    %rax,-0xe98(%rbp)
   1459d:	48 8d 85 40 ed ff ff 	lea    -0x12c0(%rbp),%rax
   145a4:	48 83 c0 10          	add    $0x10,%rax
   145a8:	48 89 85 70 f1 ff ff 	mov    %rax,-0xe90(%rbp)
   145af:	48 8d 85 40 ed ff ff 	lea    -0x12c0(%rbp),%rax
   145b6:	48 83 c0 20          	add    $0x20,%rax
   145ba:	48 89 85 78 f1 ff ff 	mov    %rax,-0xe88(%rbp)
   145c1:	48 8d 85 40 ed ff ff 	lea    -0x12c0(%rbp),%rax
   145c8:	48 83 c0 10          	add    $0x10,%rax
   145cc:	48 89 85 80 f1 ff ff 	mov    %rax,-0xe80(%rbp)
   145d3:	48 8d 85 40 ed ff ff 	lea    -0x12c0(%rbp),%rax
   145da:	48 83 c0 20          	add    $0x20,%rax
   145de:	48 89 85 88 f1 ff ff 	mov    %rax,-0xe78(%rbp)
   145e5:	48 c7 85 90 f1 ff ff 	movq   $0x0,-0xe70(%rbp)
   145ec:	00 00 00 00 
   145f0:	48 c7 85 98 f1 ff ff 	movq   $0x0,-0xe68(%rbp)
   145f7:	00 00 00 00 
   145fb:	48 c7 85 a0 f1 ff ff 	movq   $0x0,-0xe60(%rbp)
   14602:	00 00 00 00 
   14606:	48 c7 85 a8 f1 ff ff 	movq   $0x0,-0xe58(%rbp)
   1460d:	00 00 00 00 
   14611:	48 8d 85 40 ed ff ff 	lea    -0x12c0(%rbp),%rax
   14618:	48 83 c0 10          	add    $0x10,%rax
   1461c:	48 89 85 b0 f1 ff ff 	mov    %rax,-0xe50(%rbp)
   14623:	48 8d 85 40 ed ff ff 	lea    -0x12c0(%rbp),%rax
   1462a:	48 83 c0 08          	add    $0x8,%rax
   1462e:	48 89 85 b8 f1 ff ff 	mov    %rax,-0xe48(%rbp)
   14635:	48 c7 85 c0 f1 ff ff 	movq   $0x0,-0xe40(%rbp)
   1463c:	00 00 00 00 
   14640:	48 8d 85 40 ed ff ff 	lea    -0x12c0(%rbp),%rax
   14647:	48 83 c0 10          	add    $0x10,%rax
   1464b:	48 89 85 c8 f1 ff ff 	mov    %rax,-0xe38(%rbp)
   14652:	48 c7 85 d0 f1 ff ff 	movq   $0x0,-0xe30(%rbp)
   14659:	00 00 00 00 
   1465d:	48 c7 85 d8 f1 ff ff 	movq   $0x0,-0xe28(%rbp)
   14664:	00 00 00 00 
   14668:	48 8d 85 40 ed ff ff 	lea    -0x12c0(%rbp),%rax
   1466f:	48 83 c0 10          	add    $0x10,%rax
   14673:	48 89 85 e0 f1 ff ff 	mov    %rax,-0xe20(%rbp)
   1467a:	48 8d 85 40 ed ff ff 	lea    -0x12c0(%rbp),%rax
   14681:	48 83 c0 08          	add    $0x8,%rax
   14685:	48 89 85 e8 f1 ff ff 	mov    %rax,-0xe18(%rbp)
   1468c:	48 8d 85 40 ed ff ff 	lea    -0x12c0(%rbp),%rax
   14693:	48 83 c0 10          	add    $0x10,%rax
   14697:	48 89 85 f0 f1 ff ff 	mov    %rax,-0xe10(%rbp)
   1469e:	48 c7 85 f8 f1 ff ff 	movq   $0x0,-0xe08(%rbp)
   146a5:	00 00 00 00 
   146a9:	48 8d 85 40 ed ff ff 	lea    -0x12c0(%rbp),%rax
   146b0:	48 83 c0 20          	add    $0x20,%rax
   146b4:	48 89 85 00 f2 ff ff 	mov    %rax,-0xe00(%rbp)
   146bb:	48 8d 85 40 ed ff ff 	lea    -0x12c0(%rbp),%rax
   146c2:	48 83 c0 08          	add    $0x8,%rax
   146c6:	48 89 85 08 f2 ff ff 	mov    %rax,-0xdf8(%rbp)
   146cd:	48 8d 85 40 ed ff ff 	lea    -0x12c0(%rbp),%rax
   146d4:	48 83 c0 10          	add    $0x10,%rax
   146d8:	48 89 85 10 f2 ff ff 	mov    %rax,-0xdf0(%rbp)
   146df:	48 c7 85 18 f2 ff ff 	movq   $0x0,-0xde8(%rbp)
   146e6:	00 00 00 00 
   146ea:	48 8d 85 40 ed ff ff 	lea    -0x12c0(%rbp),%rax
   146f1:	48 83 c0 08          	add    $0x8,%rax
   146f5:	48 89 85 20 f2 ff ff 	mov    %rax,-0xde0(%rbp)
   146fc:	48 8d 85 40 ed ff ff 	lea    -0x12c0(%rbp),%rax
   14703:	48 83 c0 10          	add    $0x10,%rax
   14707:	48 89 85 28 f2 ff ff 	mov    %rax,-0xdd8(%rbp)
   1470e:	48 8d 85 40 ed ff ff 	lea    -0x12c0(%rbp),%rax
   14715:	48 83 c0 10          	add    $0x10,%rax
   14719:	48 89 85 30 f2 ff ff 	mov    %rax,-0xdd0(%rbp)
   14720:	48 8d 85 40 ed ff ff 	lea    -0x12c0(%rbp),%rax
   14727:	48 83 c0 08          	add    $0x8,%rax
   1472b:	48 89 85 38 f2 ff ff 	mov    %rax,-0xdc8(%rbp)
   14732:	48 8d 85 40 ed ff ff 	lea    -0x12c0(%rbp),%rax
   14739:	48 83 c0 10          	add    $0x10,%rax
   1473d:	48 89 85 40 f2 ff ff 	mov    %rax,-0xdc0(%rbp)
   14744:	48 c7 85 48 f2 ff ff 	movq   $0x0,-0xdb8(%rbp)
   1474b:	00 00 00 00 
   1474f:	48 8d 85 40 ed ff ff 	lea    -0x12c0(%rbp),%rax
   14756:	48 83 c0 10          	add    $0x10,%rax
   1475a:	48 89 85 50 f2 ff ff 	mov    %rax,-0xdb0(%rbp)
   14761:	48 c7 85 58 f2 ff ff 	movq   $0x0,-0xda8(%rbp)
   14768:	00 00 00 00 
   1476c:	48 8d 85 40 ed ff ff 	lea    -0x12c0(%rbp),%rax
   14773:	48 83 c0 08          	add    $0x8,%rax
   14777:	48 89 85 60 f2 ff ff 	mov    %rax,-0xda0(%rbp)
   1477e:	48 8d 85 40 ed ff ff 	lea    -0x12c0(%rbp),%rax
   14785:	48 83 c0 20          	add    $0x20,%rax
   14789:	48 89 85 68 f2 ff ff 	mov    %rax,-0xd98(%rbp)
   14790:	48 8d 85 40 ed ff ff 	lea    -0x12c0(%rbp),%rax
   14797:	48 83 c0 10          	add    $0x10,%rax
   1479b:	48 89 85 70 f2 ff ff 	mov    %rax,-0xd90(%rbp)
   147a2:	48 8d 85 40 ed ff ff 	lea    -0x12c0(%rbp),%rax
   147a9:	48 83 c0 20          	add    $0x20,%rax
   147ad:	48 89 85 78 f2 ff ff 	mov    %rax,-0xd88(%rbp)
   147b4:	48 8d 85 40 ed ff ff 	lea    -0x12c0(%rbp),%rax
   147bb:	48 83 c0 20          	add    $0x20,%rax
   147bf:	48 89 85 80 f2 ff ff 	mov    %rax,-0xd80(%rbp)
   147c6:	48 8d 85 40 ed ff ff 	lea    -0x12c0(%rbp),%rax
   147cd:	48 83 c0 10          	add    $0x10,%rax
   147d1:	48 89 85 88 f2 ff ff 	mov    %rax,-0xd78(%rbp)
   147d8:	48 8d 85 40 ed ff ff 	lea    -0x12c0(%rbp),%rax
   147df:	48 83 c0 10          	add    $0x10,%rax
   147e3:	48 89 85 90 f2 ff ff 	mov    %rax,-0xd70(%rbp)
   147ea:	48 8d 85 40 ed ff ff 	lea    -0x12c0(%rbp),%rax
   147f1:	48 83 c0 20          	add    $0x20,%rax
   147f5:	48 89 85 98 f2 ff ff 	mov    %rax,-0xd68(%rbp)
   147fc:	c7 85 e4 ea ff ff 00 	movl   $0x0,-0x151c(%rbp)
   14803:	00 00 00 
   14806:	eb 1a                	jmp    14822 <func_62+0x1791>
   14808:	8b 85 e4 ea ff ff    	mov    -0x151c(%rbp),%eax
   1480e:	48 98                	cltq   
   14810:	c7 84 85 d8 ec ff ff 	movl   $0x0,-0x1328(%rbp,%rax,4)
   14817:	00 00 00 00 
   1481b:	83 85 e4 ea ff ff 01 	addl   $0x1,-0x151c(%rbp)
   14822:	83 bd e4 ea ff ff 01 	cmpl   $0x1,-0x151c(%rbp)
   14829:	7e dd                	jle    14808 <func_62+0x1777>
   1482b:	8b 05 d3 fc 00 00    	mov    0xfcd3(%rip),%eax        # 24504 <g_1423>
   14831:	0f bf d8             	movswl %ax,%ebx
   14834:	8b 85 8c ea ff ff    	mov    -0x1574(%rbp),%eax
   1483a:	25 ff ff 0f 00       	and    $0xfffff,%eax
   1483f:	44 0f b6 e0          	movzbl %al,%r12d
   14843:	8b 85 8c ea ff ff    	mov    -0x1574(%rbp),%eax
   14849:	25 ff ff 0f 00       	and    $0xfffff,%eax
   1484e:	41 89 c6             	mov    %eax,%r14d
   14851:	8b 85 8c ea ff ff    	mov    -0x1574(%rbp),%eax
   14857:	25 ff ff 0f 00       	and    $0xfffff,%eax
   1485c:	41 89 c5             	mov    %eax,%r13d
   1485f:	8b 85 8c ea ff ff    	mov    -0x1574(%rbp),%eax
   14865:	25 ff ff 0f 00       	and    $0xfffff,%eax
   1486a:	89 c2                	mov    %eax,%edx
   1486c:	8b 85 dc ec ff ff    	mov    -0x1324(%rbp),%eax
   14872:	85 c0                	test   %eax,%eax
   14874:	0f 94 c0             	sete   %al
   14877:	0f b6 c0             	movzbl %al,%eax
   1487a:	39 c2                	cmp    %eax,%edx
   1487c:	0f 9e c0             	setle  %al
   1487f:	0f b6 c0             	movzbl %al,%eax
   14882:	89 85 d8 ec ff ff    	mov    %eax,-0x1328(%rbp)
   14888:	8b 85 d8 ec ff ff    	mov    -0x1328(%rbp),%eax
   1488e:	88 85 9f ea ff ff    	mov    %al,-0x1561(%rbp)
   14894:	8b 85 8c ea ff ff    	mov    -0x1574(%rbp),%eax
   1489a:	25 ff ff 0f 00       	and    $0xfffff,%eax
   1489f:	98                   	cwtl   
   148a0:	83 e0 01             	and    $0x1,%eax
   148a3:	be 0c 00 00 00       	mov    $0xc,%esi
   148a8:	89 c7                	mov    %eax,%edi
   148aa:	e8 7b 6c ff ff       	callq  b52a <safe_rshift_func_int16_t_s_s>
   148af:	89 c2                	mov    %eax,%edx
   148b1:	48 8b 85 20 ec ff ff 	mov    -0x13e0(%rbp),%rax
   148b8:	66 89 10             	mov    %dx,(%rax)
   148bb:	48 83 bd 08 ec ff ff 	cmpq   $0x0,-0x13f8(%rbp)
   148c2:	00 
   148c3:	75 11                	jne    148d6 <func_62+0x1845>
   148c5:	8b 85 00 f7 ff ff    	mov    -0x900(%rbp),%eax
   148cb:	85 c0                	test   %eax,%eax
   148cd:	74 07                	je     148d6 <func_62+0x1845>
   148cf:	b8 01 00 00 00       	mov    $0x1,%eax
   148d4:	eb 05                	jmp    148db <func_62+0x184a>
   148d6:	b8 00 00 00 00       	mov    $0x0,%eax
   148db:	89 c1                	mov    %eax,%ecx
   148dd:	8b 85 8c ea ff ff    	mov    -0x1574(%rbp),%eax
   148e3:	25 ff ff 0f 00       	and    $0xfffff,%eax
   148e8:	89 c6                	mov    %eax,%esi
   148ea:	48 8b 85 50 ed ff ff 	mov    -0x12b0(%rbp),%rax
   148f1:	48 89 85 50 ed ff ff 	mov    %rax,-0x12b0(%rbp)
   148f8:	48 8b 95 50 ed ff ff 	mov    -0x12b0(%rbp),%rdx
   148ff:	48 8b 85 60 eb ff ff 	mov    -0x14a0(%rbp),%rax
   14906:	48 39 c2             	cmp    %rax,%rdx
   14909:	0f 95 c0             	setne  %al
   1490c:	0f b6 c0             	movzbl %al,%eax
   1490f:	39 c6                	cmp    %eax,%esi
   14911:	0f 95 c0             	setne  %al
   14914:	0f b6 c0             	movzbl %al,%eax
   14917:	89 ce                	mov    %ecx,%esi
   14919:	89 c7                	mov    %eax,%edi
   1491b:	e8 4c 6a ff ff       	callq  b36c <safe_rshift_func_int8_t_s_u>
   14920:	0f b6 c0             	movzbl %al,%eax
   14923:	be 02 00 00 00       	mov    $0x2,%esi
   14928:	89 c7                	mov    %eax,%edi
   1492a:	e8 5e 73 ff ff       	callq  bc8d <safe_rshift_func_uint8_t_u_s>
   1492f:	0f b6 c0             	movzbl %al,%eax
   14932:	4c 89 ee             	mov    %r13,%rsi
   14935:	48 89 c7             	mov    %rax,%rdi
   14938:	e8 0e 77 ff ff       	callq  c04b <safe_sub_func_uint64_t_u_u>
   1493d:	89 85 e0 ea ff ff    	mov    %eax,-0x1520(%rbp)
   14943:	83 bd e0 ea ff ff 00 	cmpl   $0x0,-0x1520(%rbp)
   1494a:	75 0f                	jne    1495b <func_62+0x18ca>
   1494c:	8b 85 8c ea ff ff    	mov    -0x1574(%rbp),%eax
   14952:	25 ff ff 0f 00       	and    $0xfffff,%eax
   14957:	85 c0                	test   %eax,%eax
   14959:	74 07                	je     14962 <func_62+0x18d1>
   1495b:	b8 01 00 00 00       	mov    $0x1,%eax
   14960:	eb 05                	jmp    14967 <func_62+0x18d6>
   14962:	b8 00 00 00 00       	mov    $0x0,%eax
   14967:	44 39 f0             	cmp    %r14d,%eax
   1496a:	0f 9f c0             	setg   %al
   1496d:	0f b6 c0             	movzbl %al,%eax
   14970:	44 89 e6             	mov    %r12d,%esi
   14973:	89 c7                	mov    %eax,%edi
   14975:	e8 e0 71 ff ff       	callq  bb5a <safe_add_func_uint8_t_u_u>
   1497a:	0f b6 c0             	movzbl %al,%eax
   1497d:	89 de                	mov    %ebx,%esi
   1497f:	89 c7                	mov    %eax,%edi
   14981:	e8 4d 6a ff ff       	callq  b3d3 <safe_sub_func_int16_t_s_s>
   14986:	98                   	cwtl   
   14987:	89 85 14 f6 ff ff    	mov    %eax,-0x9ec(%rbp)
   1498d:	83 ad b4 ea ff ff 01 	subl   $0x1,-0x154c(%rbp)
   14994:	83 bd b4 ea ff ff fd 	cmpl   $0xfffffffd,-0x154c(%rbp)
   1499b:	0f 8c d8 fb ff ff    	jl     14579 <func_62+0x14e8>
   149a1:	c6 05 4f fa 00 00 e9 	movb   $0xe9,0xfa4f(%rip)        # 243f7 <g_336>
   149a8:	eb 2f                	jmp    149d9 <func_62+0x1948>
   149aa:	8b 85 8c ea ff ff    	mov    -0x1574(%rbp),%eax
   149b0:	25 ff ff 0f 00       	and    $0xfffff,%eax
   149b5:	31 85 e0 ea ff ff    	xor    %eax,-0x1520(%rbp)
   149bb:	0f b6 05 35 fa 00 00 	movzbl 0xfa35(%rip),%eax        # 243f7 <g_336>
   149c2:	48 0f be c0          	movsbq %al,%rax
   149c6:	be 08 00 00 00       	mov    $0x8,%esi
   149cb:	48 89 c7             	mov    %rax,%rdi
   149ce:	e8 5b 76 ff ff       	callq  c02e <safe_add_func_uint64_t_u_u>
   149d3:	88 05 1e fa 00 00    	mov    %al,0xfa1e(%rip)        # 243f7 <g_336>
   149d9:	0f b6 05 17 fa 00 00 	movzbl 0xfa17(%rip),%eax        # 243f7 <g_336>
   149e0:	3c 0d                	cmp    $0xd,%al
   149e2:	74 c6                	je     149aa <func_62+0x1919>
   149e4:	c7 85 04 eb ff ff 04 	movl   $0x4,-0x14fc(%rbp)
   149eb:	00 00 00 
   149ee:	83 bd 04 eb ff ff 00 	cmpl   $0x0,-0x14fc(%rbp)
   149f5:	78 24                	js     14a1b <func_62+0x198a>
   149f7:	c7 85 24 eb ff ff fe 	movl   $0xfffffffe,-0x14dc(%rbp)
   149fe:	ff ff ff 
   14a01:	48 8b 05 b8 35 01 00 	mov    0x135b8(%rip),%rax        # 27fc0 <g_1346>
   14a08:	8b 00                	mov    (%rax),%eax
   14a0a:	31 85 24 eb ff ff    	xor    %eax,-0x14dc(%rbp)
   14a10:	8b 85 58 f7 ff ff    	mov    -0x8a8(%rbp),%eax
   14a16:	e9 6e 07 00 00       	jmpq   15189 <func_62+0x20f8>
   14a1b:	48 8b 05 2e 34 01 00 	mov    0x1342e(%rip),%rax        # 27e50 <g_1266>
   14a22:	8b 10                	mov    (%rax),%edx
   14a24:	83 c2 01             	add    $0x1,%edx
   14a27:	89 10                	mov    %edx,(%rax)
   14a29:	48 8b 85 28 ec ff ff 	mov    -0x13d8(%rbp),%rax
   14a30:	48 c7 00 ff ff ff ff 	movq   $0xffffffffffffffff,(%rax)
   14a37:	48 8b 85 28 ec ff ff 	mov    -0x13d8(%rbp),%rax
   14a3e:	48 8b 00             	mov    (%rax),%rax
   14a41:	48 83 f8 fd          	cmp    $0xfffffffffffffffd,%rax
   14a45:	0f 97 c0             	seta   %al
   14a48:	0f b6 c0             	movzbl %al,%eax
   14a4b:	89 85 00 eb ff ff    	mov    %eax,-0x1500(%rbp)
   14a51:	83 bd 00 eb ff ff 00 	cmpl   $0x0,-0x1500(%rbp)
   14a58:	75 0d                	jne    14a67 <func_62+0x19d6>
   14a5a:	8b 85 8c ea ff ff    	mov    -0x1574(%rbp),%eax
   14a60:	25 ff ff 0f 00       	and    $0xfffff,%eax
   14a65:	85 c0                	test   %eax,%eax
   14a67:	8b 85 8c ea ff ff    	mov    -0x1574(%rbp),%eax
   14a6d:	25 ff ff 0f 00       	and    $0xfffff,%eax
   14a72:	0f b7 d8             	movzwl %ax,%ebx
   14a75:	48 8b 85 20 ec ff ff 	mov    -0x13e0(%rbp),%rax
   14a7c:	0f b7 00             	movzwl (%rax),%eax
   14a7f:	8d 50 01             	lea    0x1(%rax),%edx
   14a82:	48 8b 85 20 ec ff ff 	mov    -0x13e0(%rbp),%rax
   14a89:	66 89 10             	mov    %dx,(%rax)
   14a8c:	8b 85 8c ea ff ff    	mov    -0x1574(%rbp),%eax
   14a92:	25 ff ff 0f 00       	and    $0xfffff,%eax
   14a97:	0f be d0             	movsbl %al,%edx
   14a9a:	8b 85 8c ea ff ff    	mov    -0x1574(%rbp),%eax
   14aa0:	25 ff ff 0f 00       	and    $0xfffff,%eax
   14aa5:	0f be c0             	movsbl %al,%eax
   14aa8:	89 d6                	mov    %edx,%esi
   14aaa:	89 c7                	mov    %eax,%edi
   14aac:	e8 23 67 ff ff       	callq  b1d4 <safe_add_func_int8_t_s_s>
   14ab1:	66 98                	cbtw   
   14ab3:	f7 d0                	not    %eax
   14ab5:	0f b7 c0             	movzwl %ax,%eax
   14ab8:	89 de                	mov    %ebx,%esi
   14aba:	89 c7                	mov    %eax,%edi
   14abc:	e8 5e 72 ff ff       	callq  bd1f <safe_sub_func_uint16_t_u_u>
   14ac1:	0f b7 c0             	movzwl %ax,%eax
   14ac4:	8b 95 8c ea ff ff    	mov    -0x1574(%rbp),%edx
   14aca:	81 e2 ff ff 0f 00    	and    $0xfffff,%edx
   14ad0:	39 d0                	cmp    %edx,%eax
   14ad2:	0f 9c c0             	setl   %al
   14ad5:	0f b6 c0             	movzbl %al,%eax
   14ad8:	be cf ad dd 74       	mov    $0x74ddadcf,%esi
   14add:	89 c7                	mov    %eax,%edi
   14adf:	e8 e8 6b ff ff       	callq  b6cc <safe_mod_func_int32_t_s_s>
   14ae4:	48 8b 15 1d 2b 01 00 	mov    0x12b1d(%rip),%rdx        # 27608 <g_500>
   14aeb:	48 8b 12             	mov    (%rdx),%rdx
   14aee:	0f b6 12             	movzbl (%rdx),%edx
   14af1:	0f be d2             	movsbl %dl,%edx
   14af4:	39 d0                	cmp    %edx,%eax
   14af6:	7f 24                	jg     14b1c <func_62+0x1a8b>
   14af8:	48 8b 85 50 eb ff ff 	mov    -0x14b0(%rbp),%rax
   14aff:	48 8b 95 e8 ec ff ff 	mov    -0x1318(%rbp),%rdx
   14b06:	48 89 10             	mov    %rdx,(%rax)
   14b09:	66 83 bd a2 ea ff ff 	cmpw   $0x0,-0x155e(%rbp)
   14b10:	00 
   14b11:	0f 84 19 01 00 00    	je     14c30 <func_62+0x1b9f>
   14b17:	e9 fb 03 00 00       	jmpq   14f17 <func_62+0x1e86>
   14b1c:	48 c7 85 58 ec ff ff 	movq   $0xffffffffffffffff,-0x13a8(%rbp)
   14b23:	ff ff ff ff 
   14b27:	8b 85 00 eb ff ff    	mov    -0x1500(%rbp),%eax
   14b2d:	31 85 cc ea ff ff    	xor    %eax,-0x1534(%rbp)
   14b33:	8b 85 8c ea ff ff    	mov    -0x1574(%rbp),%eax
   14b39:	25 ff ff 0f 00       	and    $0xfffff,%eax
   14b3e:	85 c0                	test   %eax,%eax
   14b40:	0f 95 c0             	setne  %al
   14b43:	0f b6 c0             	movzbl %al,%eax
   14b46:	f7 d0                	not    %eax
   14b48:	23 85 fc ea ff ff    	and    -0x1504(%rbp),%eax
   14b4e:	48 98                	cltq   
   14b50:	48 89 85 58 ec ff ff 	mov    %rax,-0x13a8(%rbp)
   14b57:	e9 d4 00 00 00       	jmpq   14c30 <func_62+0x1b9f>
   14b5c:	c7 85 0c eb ff ff fb 	movl   $0xfffffffb,-0x14f4(%rbp)
   14b63:	ff ff ff 
   14b66:	c7 85 10 eb ff ff 24 	movl   $0xe5adf924,-0x14f0(%rbp)
   14b6d:	f9 ad e5 
   14b70:	c7 85 14 eb ff ff 5c 	movl   $0xc0d9ed5c,-0x14ec(%rbp)
   14b77:	ed d9 c0 
   14b7a:	c7 85 18 eb ff ff 7c 	movl   $0xa654267c,-0x14e8(%rbp)
   14b81:	26 54 a6 
   14b84:	c7 85 1c eb ff ff ab 	movl   $0xfa1347ab,-0x14e4(%rbp)
   14b8b:	47 13 fa 
   14b8e:	c7 05 38 f9 00 00 00 	movl   $0x0,0xf938(%rip)        # 244d0 <g_747>
   14b95:	00 00 00 
   14b98:	e9 84 00 00 00       	jmpq   14c21 <func_62+0x1b90>
   14b9d:	c7 85 20 eb ff ff 6b 	movl   $0xd60ae46b,-0x14e0(%rbp)
   14ba4:	e4 0a d6 
   14ba7:	48 8d 05 62 2a 01 00 	lea    0x12a62(%rip),%rax        # 27610 <g_499>
   14bae:	48 89 85 90 eb ff ff 	mov    %rax,-0x1470(%rbp)
   14bb5:	48 8d 85 90 eb ff ff 	lea    -0x1470(%rbp),%rax
   14bbc:	48 89 85 50 ec ff ff 	mov    %rax,-0x13b0(%rbp)
   14bc3:	48 8b 05 f6 33 01 00 	mov    0x133f6(%rip),%rax        # 27fc0 <g_1346>
   14bca:	c7 00 01 00 00 00    	movl   $0x1,(%rax)
   14bd0:	8b 00                	mov    (%rax),%eax
   14bd2:	89 85 0c eb ff ff    	mov    %eax,-0x14f4(%rbp)
   14bd8:	8b 85 8c ea ff ff    	mov    -0x1574(%rbp),%eax
   14bde:	25 ff ff 0f 00       	and    $0xfffff,%eax
   14be3:	89 c2                	mov    %eax,%edx
   14be5:	8b 85 0c eb ff ff    	mov    -0x14f4(%rbp),%eax
   14beb:	89 c6                	mov    %eax,%esi
   14bed:	89 d7                	mov    %edx,%edi
   14bef:	e8 c2 69 ff ff       	callq  b5b6 <safe_add_func_int32_t_s_s>
   14bf4:	09 85 c4 ea ff ff    	or     %eax,-0x153c(%rbp)
   14bfa:	80 85 9c ea ff ff 01 	addb   $0x1,-0x1564(%rbp)
   14c01:	48 8b 85 50 ec ff ff 	mov    -0x13b0(%rbp),%rax
   14c08:	48 8d 15 01 2a 01 00 	lea    0x12a01(%rip),%rdx        # 27610 <g_499>
   14c0f:	48 89 10             	mov    %rdx,(%rax)
   14c12:	8b 05 b8 f8 00 00    	mov    0xf8b8(%rip),%eax        # 244d0 <g_747>
   14c18:	83 c0 01             	add    $0x1,%eax
   14c1b:	89 05 af f8 00 00    	mov    %eax,0xf8af(%rip)        # 244d0 <g_747>
   14c21:	8b 05 a9 f8 00 00    	mov    0xf8a9(%rip),%eax        # 244d0 <g_747>
   14c27:	83 f8 04             	cmp    $0x4,%eax
   14c2a:	0f 86 6d ff ff ff    	jbe    14b9d <func_62+0x1b0c>
   14c30:	8b 85 8c ea ff ff    	mov    -0x1574(%rbp),%eax
   14c36:	25 ff ff 0f 00       	and    $0xfffff,%eax
   14c3b:	41 89 c5             	mov    %eax,%r13d
   14c3e:	8b 85 8c ea ff ff    	mov    -0x1574(%rbp),%eax
   14c44:	25 ff ff 0f 00       	and    $0xfffff,%eax
   14c49:	41 89 c6             	mov    %eax,%r14d
   14c4c:	8b 85 8c ea ff ff    	mov    -0x1574(%rbp),%eax
   14c52:	25 ff ff 0f 00       	and    $0xfffff,%eax
   14c57:	41 89 c7             	mov    %eax,%r15d
   14c5a:	48 8b 85 48 ec ff ff 	mov    -0x13b8(%rbp),%rax
   14c61:	48 8d 15 28 2a 01 00 	lea    0x12a28(%rip),%rdx        # 27690 <g_915>
   14c68:	48 89 10             	mov    %rdx,(%rax)
   14c6b:	48 8b 85 48 ec ff ff 	mov    -0x13b8(%rbp),%rax
   14c72:	48 8b 00             	mov    (%rax),%rax
   14c75:	48 39 85 30 ec ff ff 	cmp    %rax,-0x13d0(%rbp)
   14c7c:	0f 94 c2             	sete   %dl
   14c7f:	48 8b 85 a0 eb ff ff 	mov    -0x1460(%rbp),%rax
   14c86:	48 8b 00             	mov    (%rax),%rax
   14c89:	88 10                	mov    %dl,(%rax)
   14c8b:	0f b6 00             	movzbl (%rax),%eax
   14c8e:	0f be d0             	movsbl %al,%edx
   14c91:	8b 85 8c ea ff ff    	mov    -0x1574(%rbp),%eax
   14c97:	25 ff ff 0f 00       	and    $0xfffff,%eax
   14c9c:	0f b6 c0             	movzbl %al,%eax
   14c9f:	89 d6                	mov    %edx,%esi
   14ca1:	89 c7                	mov    %eax,%edi
   14ca3:	e8 5d 6f ff ff       	callq  bc05 <safe_lshift_func_uint8_t_u_s>
   14ca8:	44 0f b6 e0          	movzbl %al,%r12d
   14cac:	8b 85 8c ea ff ff    	mov    -0x1574(%rbp),%eax
   14cb2:	25 ff ff 0f 00       	and    $0xfffff,%eax
   14cb7:	0f b7 d8             	movzwl %ax,%ebx
   14cba:	8b 85 8c ea ff ff    	mov    -0x1574(%rbp),%eax
   14cc0:	25 ff ff 0f 00       	and    $0xfffff,%eax
   14cc5:	0f bf d0             	movswl %ax,%edx
   14cc8:	48 83 bd b8 eb ff ff 	cmpq   $0x0,-0x1448(%rbp)
   14ccf:	00 
   14cd0:	0f 94 c0             	sete   %al
   14cd3:	0f b6 c0             	movzbl %al,%eax
   14cd6:	89 d6                	mov    %edx,%esi
   14cd8:	89 c7                	mov    %eax,%edi
   14cda:	e8 16 67 ff ff       	callq  b3f5 <safe_mul_func_int16_t_s_s>
   14cdf:	0f b6 c0             	movzbl %al,%eax
   14ce2:	be 07 00 00 00       	mov    $0x7,%esi
   14ce7:	89 c7                	mov    %eax,%edi
   14ce9:	e8 17 6f ff ff       	callq  bc05 <safe_lshift_func_uint8_t_u_s>
   14cee:	0f b6 c0             	movzbl %al,%eax
   14cf1:	8b 95 8c ea ff ff    	mov    -0x1574(%rbp),%edx
   14cf7:	81 e2 ff ff 0f 00    	and    $0xfffff,%edx
   14cfd:	89 d2                	mov    %edx,%edx
   14cff:	48 89 c6             	mov    %rax,%rsi
   14d02:	48 89 d7             	mov    %rdx,%rdi
   14d05:	e8 37 6b ff ff       	callq  b841 <safe_add_func_int64_t_s_s>
   14d0a:	48 85 c0             	test   %rax,%rax
   14d0d:	74 07                	je     14d16 <func_62+0x1c85>
   14d0f:	b8 01 00 00 00       	mov    $0x1,%eax
   14d14:	eb 05                	jmp    14d1b <func_62+0x1c8a>
   14d16:	b8 00 00 00 00       	mov    $0x0,%eax
   14d1b:	0f b7 c0             	movzwl %ax,%eax
   14d1e:	89 de                	mov    %ebx,%esi
   14d20:	89 c7                	mov    %eax,%edi
   14d22:	e8 16 70 ff ff       	callq  bd3d <safe_mul_func_uint16_t_u_u>
   14d27:	66 41 39 c4          	cmp    %ax,%r12w
   14d2b:	0f 94 c0             	sete   %al
   14d2e:	0f b6 c0             	movzbl %al,%eax
   14d31:	4c 89 fe             	mov    %r15,%rsi
   14d34:	48 89 c7             	mov    %rax,%rdi
   14d37:	e8 73 73 ff ff       	callq  c0af <safe_div_func_uint64_t_u_u>
   14d3c:	4c 89 f6             	mov    %r14,%rsi
   14d3f:	48 89 c7             	mov    %rax,%rdi
   14d42:	e8 04 73 ff ff       	callq  c04b <safe_sub_func_uint64_t_u_u>
   14d47:	48 8b 05 ea 28 01 00 	mov    0x128ea(%rip),%rax        # 27638 <g_567>
   14d4e:	48 8b 00             	mov    (%rax),%rax
   14d51:	48 8b 00             	mov    (%rax),%rax
   14d54:	8b 95 8c ea ff ff    	mov    -0x1574(%rbp),%edx
   14d5a:	81 e2 ff ff 0f 00    	and    $0xfffff,%edx
   14d60:	89 d2                	mov    %edx,%edx
   14d62:	48 09 d0             	or     %rdx,%rax
   14d65:	48 3d 09 80 ff ff    	cmp    $0xffffffffffff8009,%rax
   14d6b:	0f 94 c0             	sete   %al
   14d6e:	0f b6 d0             	movzbl %al,%edx
   14d71:	8b 85 7c f7 ff ff    	mov    -0x884(%rbp),%eax
   14d77:	09 c2                	or     %eax,%edx
   14d79:	8b 85 8c ea ff ff    	mov    -0x1574(%rbp),%eax
   14d7f:	25 ff ff 0f 00       	and    $0xfffff,%eax
   14d84:	21 c2                	and    %eax,%edx
   14d86:	8b 85 a4 f6 ff ff    	mov    -0x95c(%rbp),%eax
   14d8c:	39 c2                	cmp    %eax,%edx
   14d8e:	0f 94 c0             	sete   %al
   14d91:	0f b6 c0             	movzbl %al,%eax
   14d94:	44 89 ee             	mov    %r13d,%esi
   14d97:	89 c7                	mov    %eax,%edi
   14d99:	e8 dc 70 ff ff       	callq  be7a <safe_rshift_func_uint16_t_u_u>
   14d9e:	0f b7 c0             	movzwl %ax,%eax
   14da1:	89 85 c4 ea ff ff    	mov    %eax,-0x153c(%rbp)
   14da7:	48 c7 85 58 eb ff ff 	movq   $0xfffffffffffffff9,-0x14a8(%rbp)
   14dae:	f9 ff ff ff 
   14db2:	e9 4c 01 00 00       	jmpq   14f03 <func_62+0x1e72>
   14db7:	66 c7 85 a4 ea ff ff 	movw   $0x9f5a,-0x155c(%rbp)
   14dbe:	5a 9f 
   14dc0:	48 8d 85 60 f1 ff ff 	lea    -0xea0(%rbp),%rax
   14dc7:	48 8d 15 72 b4 00 00 	lea    0xb472(%rip),%rdx        # 20240 <g_985+0x11dc>
   14dce:	b9 28 00 00 00       	mov    $0x28,%ecx
   14dd3:	48 89 c7             	mov    %rax,%rdi
   14dd6:	48 89 d6             	mov    %rdx,%rsi
   14dd9:	f3 48 a5             	rep movsq %ds:(%rsi),%es:(%rdi)
   14ddc:	c7 85 b8 ea ff ff 01 	movl   $0x1,-0x1548(%rbp)
   14de3:	00 00 00 
   14de6:	83 bd b8 ea ff ff 00 	cmpl   $0x0,-0x1548(%rbp)
   14ded:	78 63                	js     14e52 <func_62+0x1dc1>
   14def:	48 8d 05 06 f7 00 00 	lea    0xf706(%rip),%rax        # 244fc <g_1387+0xc>
   14df6:	48 89 85 68 ec ff ff 	mov    %rax,-0x1398(%rbp)
   14dfd:	48 8d 85 e0 ec ff ff 	lea    -0x1320(%rbp),%rax
   14e04:	48 83 c0 08          	add    $0x8,%rax
   14e08:	48 89 85 70 ec ff ff 	mov    %rax,-0x1390(%rbp)
   14e0f:	48 8b 85 50 eb ff ff 	mov    -0x14b0(%rbp),%rax
   14e16:	48 8d 95 f0 ec ff ff 	lea    -0x1310(%rbp),%rdx
   14e1d:	48 83 c2 08          	add    $0x8,%rdx
   14e21:	48 89 10             	mov    %rdx,(%rax)
   14e24:	48 8b 85 50 eb ff ff 	mov    -0x14b0(%rbp),%rax
   14e2b:	48 8b 95 68 ec ff ff 	mov    -0x1398(%rbp),%rdx
   14e32:	48 89 10             	mov    %rdx,(%rax)
   14e35:	48 8b 10             	mov    (%rax),%rdx
   14e38:	48 8b 85 70 ec ff ff 	mov    -0x1390(%rbp),%rax
   14e3f:	48 89 10             	mov    %rdx,(%rax)
   14e42:	8b 85 8c ea ff ff    	mov    -0x1574(%rbp),%eax
   14e48:	25 ff ff 0f 00       	and    $0xfffff,%eax
   14e4d:	e9 37 03 00 00       	jmpq   15189 <func_62+0x20f8>
   14e52:	8b 85 14 f2 ff ff    	mov    -0xdec(%rbp),%eax
   14e58:	0f b7 d0             	movzwl %ax,%edx
   14e5b:	c7 85 14 f6 ff ff 01 	movl   $0x1,-0x9ec(%rbp)
   14e62:	00 00 00 
   14e65:	8b 85 14 f6 ff ff    	mov    -0x9ec(%rbp),%eax
   14e6b:	89 c1                	mov    %eax,%ecx
   14e6d:	0f b7 85 a4 ea ff ff 	movzwl -0x155c(%rbp),%eax
   14e74:	09 c8                	or     %ecx,%eax
   14e76:	66 89 85 a4 ea ff ff 	mov    %ax,-0x155c(%rbp)
   14e7d:	83 bd c8 ea ff ff 01 	cmpl   $0x1,-0x1538(%rbp)
   14e84:	0f 9e c0             	setle  %al
   14e87:	0f b6 c0             	movzbl %al,%eax
   14e8a:	89 d6                	mov    %edx,%esi
   14e8c:	89 c7                	mov    %eax,%edi
   14e8e:	e8 fb 6e ff ff       	callq  bd8e <safe_div_func_uint16_t_u_u>
   14e93:	0f b7 c0             	movzwl %ax,%eax
   14e96:	8b 95 8c ea ff ff    	mov    -0x1574(%rbp),%edx
   14e9c:	81 e2 ff ff 0f 00    	and    $0xfffff,%edx
   14ea2:	39 d0                	cmp    %edx,%eax
   14ea4:	7c 2c                	jl     14ed2 <func_62+0x1e41>
   14ea6:	48 8d 85 00 ed ff ff 	lea    -0x1300(%rbp),%rax
   14ead:	48 83 c0 08          	add    $0x8,%rax
   14eb1:	48 89 85 60 ec ff ff 	mov    %rax,-0x13a0(%rbp)
   14eb8:	48 8b 95 08 ed ff ff 	mov    -0x12f8(%rbp),%rdx
   14ebf:	48 8b 85 60 ec ff ff 	mov    -0x13a0(%rbp),%rax
   14ec6:	48 89 10             	mov    %rdx,(%rax)
   14ec9:	80 bd 9e ea ff ff 00 	cmpb   $0x0,-0x1562(%rbp)
   14ed0:	eb 15                	jmp    14ee7 <func_62+0x1e56>
   14ed2:	8b 85 04 f2 ff ff    	mov    -0xdfc(%rbp),%eax
   14ed8:	85 c0                	test   %eax,%eax
   14eda:	75 3a                	jne    14f16 <func_62+0x1e85>
   14edc:	48 c7 05 61 f6 00 00 	movq   $0x4b033130,0xf661(%rip)        # 24548 <g_1645>
   14ee3:	30 31 03 4b 
   14ee7:	48 8b 85 58 eb ff ff 	mov    -0x14a8(%rbp),%rax
   14eee:	be 05 00 00 00       	mov    $0x5,%esi
   14ef3:	89 c7                	mov    %eax,%edi
   14ef5:	e8 bc 66 ff ff       	callq  b5b6 <safe_add_func_int32_t_s_s>
   14efa:	48 98                	cltq   
   14efc:	48 89 85 58 eb ff ff 	mov    %rax,-0x14a8(%rbp)
   14f03:	48 8b 85 58 eb ff ff 	mov    -0x14a8(%rbp),%rax
   14f0a:	48 83 f8 ff          	cmp    $0xffffffffffffffff,%rax
   14f0e:	0f 84 a3 fe ff ff    	je     14db7 <func_62+0x1d26>
   14f14:	eb 01                	jmp    14f17 <func_62+0x1e86>
   14f16:	90                   	nop
   14f17:	83 ad a8 ea ff ff 01 	subl   $0x1,-0x1558(%rbp)
   14f1e:	83 bd a8 ea ff ff e5 	cmpl   $0xffffffe5,-0x1558(%rbp)
   14f25:	0f 8d c5 f2 ff ff    	jge    141f0 <func_62+0x115f>
   14f2b:	0f b7 05 60 f2 00 00 	movzwl 0xf260(%rip),%eax        # 24192 <g_129>
   14f32:	83 c0 01             	add    $0x1,%eax
   14f35:	66 89 05 56 f2 00 00 	mov    %ax,0xf256(%rip)        # 24192 <g_129>
   14f3c:	0f b7 05 4f f2 00 00 	movzwl 0xf24f(%rip),%eax        # 24192 <g_129>
   14f43:	66 83 f8 3c          	cmp    $0x3c,%ax
   14f47:	0f 84 68 e6 ff ff    	je     135b5 <func_62+0x524>
   14f4d:	48 8d 85 9a ea ff ff 	lea    -0x1566(%rbp),%rax
   14f54:	48 89 85 10 ec ff ff 	mov    %rax,-0x13f0(%rbp)
   14f5b:	0f b7 05 be f5 00 00 	movzwl 0xf5be(%rip),%eax        # 24520 <g_1488>
   14f62:	0f b7 d0             	movzwl %ax,%edx
   14f65:	48 8b 05 f4 2a 01 00 	mov    0x12af4(%rip),%rax        # 27a60 <g_1099>
   14f6c:	8b 85 8c ea ff ff    	mov    -0x1574(%rbp),%eax
   14f72:	25 ff ff 0f 00       	and    $0xfffff,%eax
   14f77:	89 c6                	mov    %eax,%esi
   14f79:	48 8b 0d 10 41 01 00 	mov    0x14110(%rip),%rcx        # 29090 <g_1659>
   14f80:	48 8b 85 c8 eb ff ff 	mov    -0x1438(%rbp),%rax
   14f87:	48 89 08             	mov    %rcx,(%rax)
   14f8a:	48 8b 85 c8 eb ff ff 	mov    -0x1438(%rbp),%rax
   14f91:	48 8b 00             	mov    (%rax),%rax
   14f94:	48 39 85 c0 eb ff ff 	cmp    %rax,-0x1440(%rbp)
   14f9b:	0f 95 c0             	setne  %al
   14f9e:	0f b6 c0             	movzbl %al,%eax
   14fa1:	21 c6                	and    %eax,%esi
   14fa3:	48 8b 85 d0 eb ff ff 	mov    -0x1430(%rbp),%rax
   14faa:	48 8d 8d 58 eb ff ff 	lea    -0x14a8(%rbp),%rcx
   14fb1:	48 89 08             	mov    %rcx,(%rax)
   14fb4:	48 8b 85 d0 eb ff ff 	mov    -0x1430(%rbp),%rax
   14fbb:	48 8b 00             	mov    (%rax),%rax
   14fbe:	48 39 85 d8 eb ff ff 	cmp    %rax,-0x1428(%rbp)
   14fc5:	0f 95 c0             	setne  %al
   14fc8:	0f b6 c0             	movzbl %al,%eax
   14fcb:	31 f0                	xor    %esi,%eax
   14fcd:	48 63 c8             	movslq %eax,%rcx
   14fd0:	48 8b 05 69 f4 00 00 	mov    0xf469(%rip),%rax        # 24440 <g_431>
   14fd7:	48 39 c1             	cmp    %rax,%rcx
   14fda:	0f 94 c0             	sete   %al
   14fdd:	0f b6 c0             	movzbl %al,%eax
   14fe0:	48 89 85 e0 eb ff ff 	mov    %rax,-0x1420(%rbp)
   14fe7:	48 8b 85 e0 eb ff ff 	mov    -0x1420(%rbp),%rax
   14fee:	0f be c0             	movsbl %al,%eax
   14ff1:	89 d6                	mov    %edx,%esi
   14ff3:	89 c7                	mov    %eax,%edi
   14ff5:	e8 72 63 ff ff       	callq  b36c <safe_rshift_func_int8_t_s_u>
   14ffa:	8b 85 8c ea ff ff    	mov    -0x1574(%rbp),%eax
   15000:	25 ff ff 0f 00       	and    $0xfffff,%eax
   15005:	0f b6 c0             	movzbl %al,%eax
   15008:	be 06 00 00 00       	mov    $0x6,%esi
   1500d:	89 c7                	mov    %eax,%edi
   1500f:	e8 f1 6b ff ff       	callq  bc05 <safe_lshift_func_uint8_t_u_s>
   15014:	0f b6 c0             	movzbl %al,%eax
   15017:	be 04 00 00 00       	mov    $0x4,%esi
   1501c:	89 c7                	mov    %eax,%edi
   1501e:	e8 6f 64 ff ff       	callq  b492 <safe_lshift_func_int16_t_s_s>
   15023:	8b 85 8c ea ff ff    	mov    -0x1574(%rbp),%eax
   15029:	25 ff ff 0f 00       	and    $0xfffff,%eax
   1502e:	89 c1                	mov    %eax,%ecx
   15030:	48 8b 05 49 3f 01 00 	mov    0x13f49(%rip),%rax        # 28f80 <g_210>
   15037:	89 c2                	mov    %eax,%edx
   15039:	48 8b 05 80 2f 01 00 	mov    0x12f80(%rip),%rax        # 27fc0 <g_1346>
   15040:	21 ca                	and    %ecx,%edx
   15042:	89 10                	mov    %edx,(%rax)
   15044:	c6 05 89 f4 00 00 6d 	movb   $0x6d,0xf489(%rip)        # 244d4 <g_892>
   1504b:	8b 85 8c ea ff ff    	mov    -0x1574(%rbp),%eax
   15051:	25 ff ff 0f 00       	and    $0xfffff,%eax
   15056:	41 89 c4             	mov    %eax,%r12d
   15059:	48 8b 05 f0 2d 01 00 	mov    0x12df0(%rip),%rax        # 27e50 <g_1266>
   15060:	8b 00                	mov    (%rax),%eax
   15062:	41 89 c5             	mov    %eax,%r13d
   15065:	48 8b 05 fc 21 01 00 	mov    0x121fc(%rip),%rax        # 27268 <g_89>
   1506c:	0f b6 00             	movzbl (%rax),%eax
   1506f:	0f b6 d8             	movzbl %al,%ebx
   15072:	8b 85 8c ea ff ff    	mov    -0x1574(%rbp),%eax
   15078:	25 ff ff 0f 00       	and    $0xfffff,%eax
   1507d:	41 89 c6             	mov    %eax,%r14d
   15080:	8b 85 8c ea ff ff    	mov    -0x1574(%rbp),%eax
   15086:	25 ff ff 0f 00       	and    $0xfffff,%eax
   1508b:	89 c1                	mov    %eax,%ecx
   1508d:	48 8b 85 c0 eb ff ff 	mov    -0x1440(%rbp),%rax
   15094:	48 8b 00             	mov    (%rax),%rax
   15097:	48 8d 95 8c ea ff ff 	lea    -0x1574(%rbp),%rdx
   1509e:	48 89 95 f0 eb ff ff 	mov    %rdx,-0x1410(%rbp)
   150a5:	48 39 85 f0 eb ff ff 	cmp    %rax,-0x1410(%rbp)
   150ac:	0f 94 c0             	sete   %al
   150af:	0f b6 c0             	movzbl %al,%eax
   150b2:	8b 95 8c ea ff ff    	mov    -0x1574(%rbp),%edx
   150b8:	81 e2 ff ff 0f 00    	and    $0xfffff,%edx
   150be:	39 d0                	cmp    %edx,%eax
   150c0:	0f 9d c0             	setge  %al
   150c3:	0f b6 c0             	movzbl %al,%eax
   150c6:	48 89 ce             	mov    %rcx,%rsi
   150c9:	48 89 c7             	mov    %rax,%rdi
   150cc:	e8 7a 6f ff ff       	callq  c04b <safe_sub_func_uint64_t_u_u>
   150d1:	48 89 c1             	mov    %rax,%rcx
   150d4:	48 8b 85 70 eb ff ff 	mov    -0x1490(%rbp),%rax
   150db:	48 8d 15 e6 f2 00 00 	lea    0xf2e6(%rip),%rdx        # 243c8 <g_141+0x1c8>
   150e2:	48 89 10             	mov    %rdx,(%rax)
   150e5:	48 89 ce             	mov    %rcx,%rsi
   150e8:	bf 01 00 00 00       	mov    $0x1,%edi
   150ed:	e8 05 69 ff ff       	callq  b9f7 <safe_div_func_int64_t_s_s>
   150f2:	49 39 c6             	cmp    %rax,%r14
   150f5:	0f 94 c0             	sete   %al
   150f8:	0f b6 d0             	movzbl %al,%edx
   150fb:	48 8b 05 6e 21 01 00 	mov    0x1216e(%rip),%rax        # 27270 <g_116>
   15102:	0f b6 00             	movzbl (%rax),%eax
   15105:	0f be c0             	movsbl %al,%eax
   15108:	89 d6                	mov    %edx,%esi
   1510a:	89 c7                	mov    %eax,%edi
   1510c:	e8 c3 60 ff ff       	callq  b1d4 <safe_add_func_int8_t_s_s>
   15111:	0f b6 c0             	movzbl %al,%eax
   15114:	89 de                	mov    %ebx,%esi
   15116:	89 c7                	mov    %eax,%edi
   15118:	e8 76 6a ff ff       	callq  bb93 <safe_mul_func_uint8_t_u_u>
   1511d:	84 c0                	test   %al,%al
   1511f:	0f 95 c0             	setne  %al
   15122:	0f b6 d0             	movzbl %al,%edx
   15125:	8b 85 8c ea ff ff    	mov    -0x1574(%rbp),%eax
   1512b:	25 ff ff 0f 00       	and    $0xfffff,%eax
   15130:	89 c1                	mov    %eax,%ecx
   15132:	48 8b 05 87 2e 01 00 	mov    0x12e87(%rip),%rax        # 27fc0 <g_1346>
   15139:	09 ca                	or     %ecx,%edx
   1513b:	89 10                	mov    %edx,(%rax)
   1513d:	8b 00                	mov    (%rax),%eax
   1513f:	44 89 ee             	mov    %r13d,%esi
   15142:	89 c7                	mov    %eax,%edi
   15144:	e8 bc 64 ff ff       	callq  b605 <safe_sub_func_int32_t_s_s>
   15149:	44 89 e6             	mov    %r12d,%esi
   1514c:	89 c7                	mov    %eax,%edi
   1514e:	e8 7d 6d ff ff       	callq  bed0 <safe_sub_func_uint32_t_u_u>
   15153:	89 c2                	mov    %eax,%edx
   15155:	48 8b 85 a0 eb ff ff 	mov    -0x1460(%rbp),%rax
   1515c:	48 8b 00             	mov    (%rax),%rax
   1515f:	88 10                	mov    %dl,(%rax)
   15161:	0f b6 00             	movzbl (%rax),%eax
   15164:	66 98                	cbtw   
   15166:	66 89 85 7a f0 ff ff 	mov    %ax,-0xf86(%rbp)
   1516d:	0f b7 85 7a f0 ff ff 	movzwl -0xf86(%rbp),%eax
   15174:	66 85 c0             	test   %ax,%ax
   15177:	c6 85 9d ea ff ff 00 	movb   $0x0,-0x1563(%rbp)
   1517e:	8b 85 8c ea ff ff    	mov    -0x1574(%rbp),%eax
   15184:	25 ff ff 0f 00       	and    $0xfffff,%eax
   15189:	48 8b 5d c8          	mov    -0x38(%rbp),%rbx
   1518d:	64 48 33 1c 25 28 00 	xor    %fs:0x28,%rbx
   15194:	00 00 
   15196:	74 05                	je     1519d <func_62+0x210c>
   15198:	e8 d3 5e ff ff       	callq  b070 <__stack_chk_fail@plt>
   1519d:	48 81 c4 58 15 00 00 	add    $0x1558,%rsp
   151a4:	5b                   	pop    %rbx
   151a5:	41 5c                	pop    %r12
   151a7:	41 5d                	pop    %r13
   151a9:	41 5e                	pop    %r14
   151ab:	41 5f                	pop    %r15
   151ad:	5d                   	pop    %rbp
   151ae:	c3                   	retq   

00000000000151af <func_76>:
   151af:	f3 0f 1e fa          	endbr64 
   151b3:	55                   	push   %rbp
   151b4:	48 89 e5             	mov    %rsp,%rbp
   151b7:	41 57                	push   %r15
   151b9:	41 56                	push   %r14
   151bb:	41 55                	push   %r13
   151bd:	41 54                	push   %r12
   151bf:	53                   	push   %rbx
   151c0:	48 81 ec 00 10 00 00 	sub    $0x1000,%rsp
   151c7:	48 83 0c 24 00       	orq    $0x0,(%rsp)
   151cc:	48 81 ec a8 02 00 00 	sub    $0x2a8,%rsp
   151d3:	40 88 bd 5f ed ff ff 	mov    %dil,-0x12a1(%rbp)
   151da:	89 b5 58 ed ff ff    	mov    %esi,-0x12a8(%rbp)
   151e0:	48 89 95 50 ed ff ff 	mov    %rdx,-0x12b0(%rbp)
   151e7:	48 89 8d 48 ed ff ff 	mov    %rcx,-0x12b8(%rbp)
   151ee:	44 89 85 44 ed ff ff 	mov    %r8d,-0x12bc(%rbp)
   151f5:	64 48 8b 04 25 28 00 	mov    %fs:0x28,%rax
   151fc:	00 00 
   151fe:	48 89 45 c8          	mov    %rax,-0x38(%rbp)
   15202:	31 c0                	xor    %eax,%eax
   15204:	48 c7 85 d8 ee ff ff 	movq   $0x0,-0x1128(%rbp)
   1520b:	00 00 00 00 
   1520f:	c6 85 61 ed ff ff 05 	movb   $0x5,-0x129f(%rbp)
   15216:	c7 85 74 ed ff ff 44 	movl   $0xfe1e1c44,-0x128c(%rbp)
   1521d:	1c 1e fe 
   15220:	c7 85 78 ed ff ff 00 	movl   $0x0,-0x1288(%rbp)
   15227:	00 00 00 
   1522a:	c7 85 7c ed ff ff e4 	movl   $0x309f77e4,-0x1284(%rbp)
   15231:	77 9f 30 
   15234:	c7 85 80 ed ff ff 30 	movl   $0x81b3f030,-0x1280(%rbp)
   1523b:	f0 b3 81 
   1523e:	c7 85 84 ed ff ff 01 	movl   $0x1,-0x127c(%rbp)
   15245:	00 00 00 
   15248:	c7 85 88 ed ff ff 03 	movl   $0xf327cc03,-0x1278(%rbp)
   1524f:	cc 27 f3 
   15252:	c7 85 80 f0 ff ff ff 	movl   $0xffffffff,-0xf80(%rbp)
   15259:	ff ff ff 
   1525c:	c7 85 84 f0 ff ff ff 	movl   $0xffffffff,-0xf7c(%rbp)
   15263:	ff ff ff 
   15266:	c7 85 88 f0 ff ff ff 	movl   $0xffffffff,-0xf78(%rbp)
   1526d:	ff ff ff 
   15270:	c7 85 8c f0 ff ff ff 	movl   $0xffffffff,-0xf74(%rbp)
   15277:	ff ff ff 
   1527a:	c7 85 90 f0 ff ff ff 	movl   $0xffffffff,-0xf70(%rbp)
   15281:	ff ff ff 
   15284:	c7 85 94 f0 ff ff ff 	movl   $0xffffffff,-0xf6c(%rbp)
   1528b:	ff ff ff 
   1528e:	c7 85 98 f0 ff ff ff 	movl   $0xffffffff,-0xf68(%rbp)
   15295:	ff ff ff 
   15298:	c7 85 9c f0 ff ff ff 	movl   $0xffffffff,-0xf64(%rbp)
   1529f:	ff ff ff 
   152a2:	c7 85 a0 f0 ff ff ff 	movl   $0xffffffff,-0xf60(%rbp)
   152a9:	ff ff ff 
   152ac:	c7 85 a4 f0 ff ff ff 	movl   $0xffffffff,-0xf5c(%rbp)
   152b3:	ff ff ff 
   152b6:	c7 85 a8 f0 ff ff ff 	movl   $0xffffffff,-0xf58(%rbp)
   152bd:	ff ff ff 
   152c0:	c7 85 ac f0 ff ff ff 	movl   $0xffffffff,-0xf54(%rbp)
   152c7:	ff ff ff 
   152ca:	c7 85 b0 f0 ff ff ff 	movl   $0xffffffff,-0xf50(%rbp)
   152d1:	ff ff ff 
   152d4:	c7 85 b4 f0 ff ff ff 	movl   $0xffffffff,-0xf4c(%rbp)
   152db:	ff ff ff 
   152de:	c7 85 b8 f0 ff ff ff 	movl   $0xffffffff,-0xf48(%rbp)
   152e5:	ff ff ff 
   152e8:	c7 85 bc f0 ff ff ff 	movl   $0xffffffff,-0xf44(%rbp)
   152ef:	ff ff ff 
   152f2:	c7 85 c0 f0 ff ff ff 	movl   $0xffffffff,-0xf40(%rbp)
   152f9:	ff ff ff 
   152fc:	c7 85 c4 f0 ff ff ff 	movl   $0xffffffff,-0xf3c(%rbp)
   15303:	ff ff ff 
   15306:	c7 85 c8 f0 ff ff ff 	movl   $0xffffffff,-0xf38(%rbp)
   1530d:	ff ff ff 
   15310:	c7 85 cc f0 ff ff ff 	movl   $0xffffffff,-0xf34(%rbp)
   15317:	ff ff ff 
   1531a:	c6 85 66 ed ff ff 01 	movb   $0x1,-0x129a(%rbp)
   15321:	66 c7 85 6a ed ff ff 	movw   $0x0,-0x1296(%rbp)
   15328:	00 00 
   1532a:	66 c7 85 6c ed ff ff 	movw   $0x1,-0x1294(%rbp)
   15331:	01 00 
   15333:	48 8d 05 56 23 01 00 	lea    0x12356(%rip),%rax        # 27690 <g_915>
   1533a:	48 89 85 c0 ef ff ff 	mov    %rax,-0x1040(%rbp)
   15341:	48 8d 05 48 23 01 00 	lea    0x12348(%rip),%rax        # 27690 <g_915>
   15348:	48 89 85 c8 ef ff ff 	mov    %rax,-0x1038(%rbp)
   1534f:	48 8d 05 3a 23 01 00 	lea    0x1233a(%rip),%rax        # 27690 <g_915>
   15356:	48 89 85 d0 ef ff ff 	mov    %rax,-0x1030(%rbp)
   1535d:	48 8d 05 2c 23 01 00 	lea    0x1232c(%rip),%rax        # 27690 <g_915>
   15364:	48 89 85 d8 ef ff ff 	mov    %rax,-0x1028(%rbp)
   1536b:	48 8d 05 1e 23 01 00 	lea    0x1231e(%rip),%rax        # 27690 <g_915>
   15372:	48 89 85 e0 ef ff ff 	mov    %rax,-0x1020(%rbp)
   15379:	c7 85 c4 ed ff ff 90 	movl   $0x1fe60990,-0x123c(%rbp)
   15380:	09 e6 1f 
   15383:	48 8d 05 56 f0 00 00 	lea    0xf056(%rip),%rax        # 243e0 <g_143>
   1538a:	48 89 85 08 ee ff ff 	mov    %rax,-0x11f8(%rbp)
   15391:	48 8d 85 08 ee ff ff 	lea    -0x11f8(%rbp),%rax
   15398:	48 89 85 10 ee ff ff 	mov    %rax,-0x11f0(%rbp)
   1539f:	48 8d 85 10 ee ff ff 	lea    -0x11f0(%rbp),%rax
   153a6:	48 89 85 d0 ee ff ff 	mov    %rax,-0x1130(%rbp)
   153ad:	c7 85 c0 ed ff ff fd 	movl   $0xfffffffd,-0x1240(%rbp)
   153b4:	ff ff ff 
   153b7:	48 c7 85 98 ee ff ff 	movq   $0x0,-0x1168(%rbp)
   153be:	00 00 00 00 
   153c2:	48 8d 85 b0 f8 ff ff 	lea    -0x750(%rbp),%rax
   153c9:	48 8d 15 90 15 01 00 	lea    0x11590(%rip),%rdx        # 26960 <g_2284+0x20af>
   153d0:	b9 e1 00 00 00       	mov    $0xe1,%ecx
   153d5:	48 89 c7             	mov    %rax,%rdi
   153d8:	48 89 d6             	mov    %rdx,%rsi
   153db:	f3 48 a5             	rep movsq %ds:(%rsi),%es:(%rdi)
   153de:	8b 85 8c ed ff ff    	mov    -0x1274(%rbp),%eax
   153e4:	25 00 00 f0 ff       	and    $0xfff00000,%eax
   153e9:	83 c8 03             	or     $0x3,%eax
   153ec:	89 85 8c ed ff ff    	mov    %eax,-0x1274(%rbp)
   153f2:	48 8d 05 47 ed 00 00 	lea    0xed47(%rip),%rax        # 24140 <g_74>
   153f9:	48 89 85 a0 ee ff ff 	mov    %rax,-0x1160(%rbp)
   15400:	c6 85 65 ed ff ff 02 	movb   $0x2,-0x129b(%rbp)
   15407:	48 8d 85 78 ed ff ff 	lea    -0x1288(%rbp),%rax
   1540e:	48 89 85 a8 ee ff ff 	mov    %rax,-0x1158(%rbp)
   15415:	48 8d 85 80 f0 ff ff 	lea    -0xf80(%rbp),%rax
   1541c:	48 83 c0 1c          	add    $0x1c,%rax
   15420:	48 89 85 b0 ee ff ff 	mov    %rax,-0x1150(%rbp)
   15427:	48 8d 85 88 ed ff ff 	lea    -0x1278(%rbp),%rax
   1542e:	48 89 85 b8 ee ff ff 	mov    %rax,-0x1148(%rbp)
   15435:	48 8d 05 b4 ed 00 00 	lea    0xedb4(%rip),%rax        # 241f0 <g_139+0x50>
   1543c:	48 89 85 c0 ee ff ff 	mov    %rax,-0x1140(%rbp)
   15443:	48 8d 05 9e f0 00 00 	lea    0xf09e(%rip),%rax        # 244e8 <g_1215>
   1544a:	48 89 85 c8 ee ff ff 	mov    %rax,-0x1138(%rbp)
   15451:	48 8d 05 90 f0 00 00 	lea    0xf090(%rip),%rax        # 244e8 <g_1215>
   15458:	48 89 85 50 f5 ff ff 	mov    %rax,-0xab0(%rbp)
   1545f:	48 8d 85 84 ed ff ff 	lea    -0x127c(%rbp),%rax
   15466:	48 89 85 58 f5 ff ff 	mov    %rax,-0xaa8(%rbp)
   1546d:	48 8d 85 88 ed ff ff 	lea    -0x1278(%rbp),%rax
   15474:	48 89 85 60 f5 ff ff 	mov    %rax,-0xaa0(%rbp)
   1547b:	48 8d 05 82 ec 00 00 	lea    0xec82(%rip),%rax        # 24104 <g_3+0x4>
   15482:	48 89 85 68 f5 ff ff 	mov    %rax,-0xa98(%rbp)
   15489:	48 8d 85 88 ed ff ff 	lea    -0x1278(%rbp),%rax
   15490:	48 89 85 70 f5 ff ff 	mov    %rax,-0xa90(%rbp)
   15497:	48 8d 85 84 ed ff ff 	lea    -0x127c(%rbp),%rax
   1549e:	48 89 85 78 f5 ff ff 	mov    %rax,-0xa88(%rbp)
   154a5:	48 8d 85 88 ed ff ff 	lea    -0x1278(%rbp),%rax
   154ac:	48 89 85 80 f5 ff ff 	mov    %rax,-0xa80(%rbp)
   154b3:	48 8d 05 2e f0 00 00 	lea    0xf02e(%rip),%rax        # 244e8 <g_1215>
   154ba:	48 89 85 88 f5 ff ff 	mov    %rax,-0xa78(%rbp)
   154c1:	48 8d 85 74 ed ff ff 	lea    -0x128c(%rbp),%rax
   154c8:	48 89 85 90 f5 ff ff 	mov    %rax,-0xa70(%rbp)
   154cf:	48 8d 85 80 f0 ff ff 	lea    -0xf80(%rbp),%rax
   154d6:	48 83 c0 04          	add    $0x4,%rax
   154da:	48 89 85 98 f5 ff ff 	mov    %rax,-0xa68(%rbp)
   154e1:	48 8d 85 80 f0 ff ff 	lea    -0xf80(%rbp),%rax
   154e8:	48 83 c0 04          	add    $0x4,%rax
   154ec:	48 89 85 a0 f5 ff ff 	mov    %rax,-0xa60(%rbp)
   154f3:	48 8d 85 74 ed ff ff 	lea    -0x128c(%rbp),%rax
   154fa:	48 89 85 a8 f5 ff ff 	mov    %rax,-0xa58(%rbp)
   15501:	48 8d 85 88 ed ff ff 	lea    -0x1278(%rbp),%rax
   15508:	48 89 85 b0 f5 ff ff 	mov    %rax,-0xa50(%rbp)
   1550f:	48 8d 85 88 ed ff ff 	lea    -0x1278(%rbp),%rax
   15516:	48 89 85 b8 f5 ff ff 	mov    %rax,-0xa48(%rbp)
   1551d:	48 8d 85 80 f0 ff ff 	lea    -0xf80(%rbp),%rax
   15524:	48 83 c0 04          	add    $0x4,%rax
   15528:	48 89 85 c0 f5 ff ff 	mov    %rax,-0xa40(%rbp)
   1552f:	48 8d 05 ce eb 00 00 	lea    0xebce(%rip),%rax        # 24104 <g_3+0x4>
   15536:	48 89 85 c8 f5 ff ff 	mov    %rax,-0xa38(%rbp)
   1553d:	48 8d 85 80 f0 ff ff 	lea    -0xf80(%rbp),%rax
   15544:	48 83 c0 3c          	add    $0x3c,%rax
   15548:	48 89 85 d0 f5 ff ff 	mov    %rax,-0xa30(%rbp)
   1554f:	48 8d 05 ae eb 00 00 	lea    0xebae(%rip),%rax        # 24104 <g_3+0x4>
   15556:	48 89 85 d8 f5 ff ff 	mov    %rax,-0xa28(%rbp)
   1555d:	48 8d 05 84 ef 00 00 	lea    0xef84(%rip),%rax        # 244e8 <g_1215>
   15564:	48 89 85 e0 f5 ff ff 	mov    %rax,-0xa20(%rbp)
   1556b:	48 8d 85 88 ed ff ff 	lea    -0x1278(%rbp),%rax
   15572:	48 89 85 e8 f5 ff ff 	mov    %rax,-0xa18(%rbp)
   15579:	48 8d 05 68 ef 00 00 	lea    0xef68(%rip),%rax        # 244e8 <g_1215>
   15580:	48 89 85 f0 f5 ff ff 	mov    %rax,-0xa10(%rbp)
   15587:	48 8d 85 74 ed ff ff 	lea    -0x128c(%rbp),%rax
   1558e:	48 89 85 f8 f5 ff ff 	mov    %rax,-0xa08(%rbp)
   15595:	48 8d 85 80 f0 ff ff 	lea    -0xf80(%rbp),%rax
   1559c:	48 83 c0 04          	add    $0x4,%rax
   155a0:	48 89 85 00 f6 ff ff 	mov    %rax,-0xa00(%rbp)
   155a7:	48 8d 85 80 f0 ff ff 	lea    -0xf80(%rbp),%rax
   155ae:	48 83 c0 04          	add    $0x4,%rax
   155b2:	48 89 85 08 f6 ff ff 	mov    %rax,-0x9f8(%rbp)
   155b9:	48 8d 85 84 ed ff ff 	lea    -0x127c(%rbp),%rax
   155c0:	48 89 85 10 f6 ff ff 	mov    %rax,-0x9f0(%rbp)
   155c7:	48 8d 05 1a ef 00 00 	lea    0xef1a(%rip),%rax        # 244e8 <g_1215>
   155ce:	48 89 85 18 f6 ff ff 	mov    %rax,-0x9e8(%rbp)
   155d5:	48 8d 05 0c ef 00 00 	lea    0xef0c(%rip),%rax        # 244e8 <g_1215>
   155dc:	48 89 85 20 f6 ff ff 	mov    %rax,-0x9e0(%rbp)
   155e3:	48 8d 85 84 ed ff ff 	lea    -0x127c(%rbp),%rax
   155ea:	48 89 85 28 f6 ff ff 	mov    %rax,-0x9d8(%rbp)
   155f1:	48 8d 85 88 ed ff ff 	lea    -0x1278(%rbp),%rax
   155f8:	48 89 85 30 f6 ff ff 	mov    %rax,-0x9d0(%rbp)
   155ff:	48 8d 05 fe ea 00 00 	lea    0xeafe(%rip),%rax        # 24104 <g_3+0x4>
   15606:	48 89 85 38 f6 ff ff 	mov    %rax,-0x9c8(%rbp)
   1560d:	48 8d 05 f0 ea 00 00 	lea    0xeaf0(%rip),%rax        # 24104 <g_3+0x4>
   15614:	48 89 85 40 f6 ff ff 	mov    %rax,-0x9c0(%rbp)
   1561b:	48 8d 85 84 ed ff ff 	lea    -0x127c(%rbp),%rax
   15622:	48 89 85 48 f6 ff ff 	mov    %rax,-0x9b8(%rbp)
   15629:	48 8d 85 80 f0 ff ff 	lea    -0xf80(%rbp),%rax
   15630:	48 83 c0 04          	add    $0x4,%rax
   15634:	48 89 85 50 f6 ff ff 	mov    %rax,-0x9b0(%rbp)
   1563b:	48 8d 85 84 ed ff ff 	lea    -0x127c(%rbp),%rax
   15642:	48 89 85 58 f6 ff ff 	mov    %rax,-0x9a8(%rbp)
   15649:	48 8d 05 b4 ea 00 00 	lea    0xeab4(%rip),%rax        # 24104 <g_3+0x4>
   15650:	48 89 85 60 f6 ff ff 	mov    %rax,-0x9a0(%rbp)
   15657:	48 8d 85 74 ed ff ff 	lea    -0x128c(%rbp),%rax
   1565e:	48 89 85 68 f6 ff ff 	mov    %rax,-0x998(%rbp)
   15665:	48 8d 85 84 ed ff ff 	lea    -0x127c(%rbp),%rax
   1566c:	48 89 85 70 f6 ff ff 	mov    %rax,-0x990(%rbp)
   15673:	48 8d 05 8a ea 00 00 	lea    0xea8a(%rip),%rax        # 24104 <g_3+0x4>
   1567a:	48 89 85 78 f6 ff ff 	mov    %rax,-0x988(%rbp)
   15681:	48 8d 85 74 ed ff ff 	lea    -0x128c(%rbp),%rax
   15688:	48 89 85 80 f6 ff ff 	mov    %rax,-0x980(%rbp)
   1568f:	48 8d 85 74 ed ff ff 	lea    -0x128c(%rbp),%rax
   15696:	48 89 85 88 f6 ff ff 	mov    %rax,-0x978(%rbp)
   1569d:	48 8d 05 60 ea 00 00 	lea    0xea60(%rip),%rax        # 24104 <g_3+0x4>
   156a4:	48 89 85 90 f6 ff ff 	mov    %rax,-0x970(%rbp)
   156ab:	48 8d 85 84 ed ff ff 	lea    -0x127c(%rbp),%rax
   156b2:	48 89 85 98 f6 ff ff 	mov    %rax,-0x968(%rbp)
   156b9:	48 8d 05 28 ee 00 00 	lea    0xee28(%rip),%rax        # 244e8 <g_1215>
   156c0:	48 89 85 a0 f6 ff ff 	mov    %rax,-0x960(%rbp)
   156c7:	48 8d 85 84 ed ff ff 	lea    -0x127c(%rbp),%rax
   156ce:	48 89 85 a8 f6 ff ff 	mov    %rax,-0x958(%rbp)
   156d5:	48 8d 85 88 ed ff ff 	lea    -0x1278(%rbp),%rax
   156dc:	48 89 85 b0 f6 ff ff 	mov    %rax,-0x950(%rbp)
   156e3:	48 8d 05 1a ea 00 00 	lea    0xea1a(%rip),%rax        # 24104 <g_3+0x4>
   156ea:	48 89 85 b8 f6 ff ff 	mov    %rax,-0x948(%rbp)
   156f1:	48 8d 85 88 ed ff ff 	lea    -0x1278(%rbp),%rax
   156f8:	48 89 85 c0 f6 ff ff 	mov    %rax,-0x940(%rbp)
   156ff:	48 8d 85 84 ed ff ff 	lea    -0x127c(%rbp),%rax
   15706:	48 89 85 c8 f6 ff ff 	mov    %rax,-0x938(%rbp)
   1570d:	48 8d 85 88 ed ff ff 	lea    -0x1278(%rbp),%rax
   15714:	48 89 85 d0 f6 ff ff 	mov    %rax,-0x930(%rbp)
   1571b:	48 8d 05 c6 ed 00 00 	lea    0xedc6(%rip),%rax        # 244e8 <g_1215>
   15722:	48 89 85 d8 f6 ff ff 	mov    %rax,-0x928(%rbp)
   15729:	48 8d 85 74 ed ff ff 	lea    -0x128c(%rbp),%rax
   15730:	48 89 85 e0 f6 ff ff 	mov    %rax,-0x920(%rbp)
   15737:	48 8d 85 80 f0 ff ff 	lea    -0xf80(%rbp),%rax
   1573e:	48 83 c0 04          	add    $0x4,%rax
   15742:	48 89 85 e8 f6 ff ff 	mov    %rax,-0x918(%rbp)
   15749:	48 8d 85 80 f0 ff ff 	lea    -0xf80(%rbp),%rax
   15750:	48 83 c0 04          	add    $0x4,%rax
   15754:	48 89 85 f0 f6 ff ff 	mov    %rax,-0x910(%rbp)
   1575b:	48 8d 85 74 ed ff ff 	lea    -0x128c(%rbp),%rax
   15762:	48 89 85 f8 f6 ff ff 	mov    %rax,-0x908(%rbp)
   15769:	48 8d 85 88 ed ff ff 	lea    -0x1278(%rbp),%rax
   15770:	48 89 85 00 f7 ff ff 	mov    %rax,-0x900(%rbp)
   15777:	48 8d 85 88 ed ff ff 	lea    -0x1278(%rbp),%rax
   1577e:	48 89 85 08 f7 ff ff 	mov    %rax,-0x8f8(%rbp)
   15785:	48 8d 85 80 f0 ff ff 	lea    -0xf80(%rbp),%rax
   1578c:	48 83 c0 04          	add    $0x4,%rax
   15790:	48 89 85 10 f7 ff ff 	mov    %rax,-0x8f0(%rbp)
   15797:	48 8d 05 66 e9 00 00 	lea    0xe966(%rip),%rax        # 24104 <g_3+0x4>
   1579e:	48 89 85 18 f7 ff ff 	mov    %rax,-0x8e8(%rbp)
   157a5:	48 8d 85 80 f0 ff ff 	lea    -0xf80(%rbp),%rax
   157ac:	48 83 c0 3c          	add    $0x3c,%rax
   157b0:	48 89 85 20 f7 ff ff 	mov    %rax,-0x8e0(%rbp)
   157b7:	48 8d 05 46 e9 00 00 	lea    0xe946(%rip),%rax        # 24104 <g_3+0x4>
   157be:	48 89 85 28 f7 ff ff 	mov    %rax,-0x8d8(%rbp)
   157c5:	48 8d 05 1c ed 00 00 	lea    0xed1c(%rip),%rax        # 244e8 <g_1215>
   157cc:	48 89 85 30 f7 ff ff 	mov    %rax,-0x8d0(%rbp)
   157d3:	48 8d 85 88 ed ff ff 	lea    -0x1278(%rbp),%rax
   157da:	48 89 85 38 f7 ff ff 	mov    %rax,-0x8c8(%rbp)
   157e1:	48 8d 05 00 ed 00 00 	lea    0xed00(%rip),%rax        # 244e8 <g_1215>
   157e8:	48 89 85 40 f7 ff ff 	mov    %rax,-0x8c0(%rbp)
   157ef:	48 8d 85 74 ed ff ff 	lea    -0x128c(%rbp),%rax
   157f6:	48 89 85 48 f7 ff ff 	mov    %rax,-0x8b8(%rbp)
   157fd:	48 8d 85 80 f0 ff ff 	lea    -0xf80(%rbp),%rax
   15804:	48 83 c0 04          	add    $0x4,%rax
   15808:	48 89 85 50 f7 ff ff 	mov    %rax,-0x8b0(%rbp)
   1580f:	48 8d 85 80 f0 ff ff 	lea    -0xf80(%rbp),%rax
   15816:	48 83 c0 04          	add    $0x4,%rax
   1581a:	48 89 85 58 f7 ff ff 	mov    %rax,-0x8a8(%rbp)
   15821:	48 8d 85 84 ed ff ff 	lea    -0x127c(%rbp),%rax
   15828:	48 89 85 60 f7 ff ff 	mov    %rax,-0x8a0(%rbp)
   1582f:	48 8d 05 b2 ec 00 00 	lea    0xecb2(%rip),%rax        # 244e8 <g_1215>
   15836:	48 89 85 68 f7 ff ff 	mov    %rax,-0x898(%rbp)
   1583d:	48 8d 05 a4 ec 00 00 	lea    0xeca4(%rip),%rax        # 244e8 <g_1215>
   15844:	48 89 85 70 f7 ff ff 	mov    %rax,-0x890(%rbp)
   1584b:	48 8d 85 84 ed ff ff 	lea    -0x127c(%rbp),%rax
   15852:	48 89 85 78 f7 ff ff 	mov    %rax,-0x888(%rbp)
   15859:	48 8d 85 88 ed ff ff 	lea    -0x1278(%rbp),%rax
   15860:	48 89 85 80 f7 ff ff 	mov    %rax,-0x880(%rbp)
   15867:	48 8d 05 96 e8 00 00 	lea    0xe896(%rip),%rax        # 24104 <g_3+0x4>
   1586e:	48 89 85 88 f7 ff ff 	mov    %rax,-0x878(%rbp)
   15875:	48 8d 05 88 e8 00 00 	lea    0xe888(%rip),%rax        # 24104 <g_3+0x4>
   1587c:	48 89 85 90 f7 ff ff 	mov    %rax,-0x870(%rbp)
   15883:	48 8d 85 84 ed ff ff 	lea    -0x127c(%rbp),%rax
   1588a:	48 89 85 98 f7 ff ff 	mov    %rax,-0x868(%rbp)
   15891:	48 8d 85 80 f0 ff ff 	lea    -0xf80(%rbp),%rax
   15898:	48 83 c0 04          	add    $0x4,%rax
   1589c:	48 89 85 a0 f7 ff ff 	mov    %rax,-0x860(%rbp)
   158a3:	48 8d 85 84 ed ff ff 	lea    -0x127c(%rbp),%rax
   158aa:	48 89 85 a8 f7 ff ff 	mov    %rax,-0x858(%rbp)
   158b1:	48 8d 05 4c e8 00 00 	lea    0xe84c(%rip),%rax        # 24104 <g_3+0x4>
   158b8:	48 89 85 b0 f7 ff ff 	mov    %rax,-0x850(%rbp)
   158bf:	48 8d 85 74 ed ff ff 	lea    -0x128c(%rbp),%rax
   158c6:	48 89 85 b8 f7 ff ff 	mov    %rax,-0x848(%rbp)
   158cd:	48 8d 85 84 ed ff ff 	lea    -0x127c(%rbp),%rax
   158d4:	48 89 85 c0 f7 ff ff 	mov    %rax,-0x840(%rbp)
   158db:	48 8d 05 22 e8 00 00 	lea    0xe822(%rip),%rax        # 24104 <g_3+0x4>
   158e2:	48 89 85 c8 f7 ff ff 	mov    %rax,-0x838(%rbp)
   158e9:	48 8d 85 74 ed ff ff 	lea    -0x128c(%rbp),%rax
   158f0:	48 89 85 d0 f7 ff ff 	mov    %rax,-0x830(%rbp)
   158f7:	48 8d 85 74 ed ff ff 	lea    -0x128c(%rbp),%rax
   158fe:	48 89 85 d8 f7 ff ff 	mov    %rax,-0x828(%rbp)
   15905:	48 8d 05 f8 e7 00 00 	lea    0xe7f8(%rip),%rax        # 24104 <g_3+0x4>
   1590c:	48 89 85 e0 f7 ff ff 	mov    %rax,-0x820(%rbp)
   15913:	48 8d 85 84 ed ff ff 	lea    -0x127c(%rbp),%rax
   1591a:	48 89 85 e8 f7 ff ff 	mov    %rax,-0x818(%rbp)
   15921:	48 8d 05 c0 eb 00 00 	lea    0xebc0(%rip),%rax        # 244e8 <g_1215>
   15928:	48 89 85 f0 f7 ff ff 	mov    %rax,-0x810(%rbp)
   1592f:	48 8d 85 84 ed ff ff 	lea    -0x127c(%rbp),%rax
   15936:	48 89 85 f8 f7 ff ff 	mov    %rax,-0x808(%rbp)
   1593d:	48 8d 85 88 ed ff ff 	lea    -0x1278(%rbp),%rax
   15944:	48 89 85 00 f8 ff ff 	mov    %rax,-0x800(%rbp)
   1594b:	48 8d 05 b2 e7 00 00 	lea    0xe7b2(%rip),%rax        # 24104 <g_3+0x4>
   15952:	48 89 85 08 f8 ff ff 	mov    %rax,-0x7f8(%rbp)
   15959:	48 8d 85 88 ed ff ff 	lea    -0x1278(%rbp),%rax
   15960:	48 89 85 10 f8 ff ff 	mov    %rax,-0x7f0(%rbp)
   15967:	48 8d 85 84 ed ff ff 	lea    -0x127c(%rbp),%rax
   1596e:	48 89 85 18 f8 ff ff 	mov    %rax,-0x7e8(%rbp)
   15975:	48 8d 85 88 ed ff ff 	lea    -0x1278(%rbp),%rax
   1597c:	48 89 85 20 f8 ff ff 	mov    %rax,-0x7e0(%rbp)
   15983:	48 8d 05 5e eb 00 00 	lea    0xeb5e(%rip),%rax        # 244e8 <g_1215>
   1598a:	48 89 85 28 f8 ff ff 	mov    %rax,-0x7d8(%rbp)
   15991:	48 8d 85 74 ed ff ff 	lea    -0x128c(%rbp),%rax
   15998:	48 89 85 30 f8 ff ff 	mov    %rax,-0x7d0(%rbp)
   1599f:	48 8d 85 80 f0 ff ff 	lea    -0xf80(%rbp),%rax
   159a6:	48 83 c0 04          	add    $0x4,%rax
   159aa:	48 89 85 38 f8 ff ff 	mov    %rax,-0x7c8(%rbp)
   159b1:	48 8d 85 80 f0 ff ff 	lea    -0xf80(%rbp),%rax
   159b8:	48 83 c0 04          	add    $0x4,%rax
   159bc:	48 89 85 40 f8 ff ff 	mov    %rax,-0x7c0(%rbp)
   159c3:	48 8d 85 74 ed ff ff 	lea    -0x128c(%rbp),%rax
   159ca:	48 89 85 48 f8 ff ff 	mov    %rax,-0x7b8(%rbp)
   159d1:	48 8d 85 88 ed ff ff 	lea    -0x1278(%rbp),%rax
   159d8:	48 89 85 50 f8 ff ff 	mov    %rax,-0x7b0(%rbp)
   159df:	48 8d 85 88 ed ff ff 	lea    -0x1278(%rbp),%rax
   159e6:	48 89 85 58 f8 ff ff 	mov    %rax,-0x7a8(%rbp)
   159ed:	48 8d 85 80 f0 ff ff 	lea    -0xf80(%rbp),%rax
   159f4:	48 83 c0 04          	add    $0x4,%rax
   159f8:	48 89 85 60 f8 ff ff 	mov    %rax,-0x7a0(%rbp)
   159ff:	48 8d 05 fe e6 00 00 	lea    0xe6fe(%rip),%rax        # 24104 <g_3+0x4>
   15a06:	48 89 85 68 f8 ff ff 	mov    %rax,-0x798(%rbp)
   15a0d:	48 8d 85 80 f0 ff ff 	lea    -0xf80(%rbp),%rax
   15a14:	48 83 c0 3c          	add    $0x3c,%rax
   15a18:	48 89 85 70 f8 ff ff 	mov    %rax,-0x790(%rbp)
   15a1f:	48 8d 05 de e6 00 00 	lea    0xe6de(%rip),%rax        # 24104 <g_3+0x4>
   15a26:	48 89 85 78 f8 ff ff 	mov    %rax,-0x788(%rbp)
   15a2d:	48 8d 05 b4 ea 00 00 	lea    0xeab4(%rip),%rax        # 244e8 <g_1215>
   15a34:	48 89 85 80 f8 ff ff 	mov    %rax,-0x780(%rbp)
   15a3b:	48 8d 85 88 ed ff ff 	lea    -0x1278(%rbp),%rax
   15a42:	48 89 85 88 f8 ff ff 	mov    %rax,-0x778(%rbp)
   15a49:	48 8d 05 98 ea 00 00 	lea    0xea98(%rip),%rax        # 244e8 <g_1215>
   15a50:	48 89 85 90 f8 ff ff 	mov    %rax,-0x770(%rbp)
   15a57:	48 8d 85 74 ed ff ff 	lea    -0x128c(%rbp),%rax
   15a5e:	48 89 85 98 f8 ff ff 	mov    %rax,-0x768(%rbp)
   15a65:	48 8d 85 80 f0 ff ff 	lea    -0xf80(%rbp),%rax
   15a6c:	48 83 c0 04          	add    $0x4,%rax
   15a70:	48 89 85 a0 f8 ff ff 	mov    %rax,-0x760(%rbp)
   15a77:	48 8d 85 80 f0 ff ff 	lea    -0xf80(%rbp),%rax
   15a7e:	48 83 c0 04          	add    $0x4,%rax
   15a82:	48 89 85 a8 f8 ff ff 	mov    %rax,-0x758(%rbp)
   15a89:	48 c7 85 78 ee ff ff 	movq   $0xfffffffffffffffc,-0x1188(%rbp)
   15a90:	fc ff ff ff 
   15a94:	c7 85 bc ed ff ff 00 	movl   $0x0,-0x1244(%rbp)
   15a9b:	00 00 00 
   15a9e:	eb 14                	jmp    15ab4 <func_76+0x905>
   15aa0:	8b 85 bc ed ff ff    	mov    -0x1244(%rbp),%eax
   15aa6:	48 98                	cltq   
   15aa8:	c6 44 05 c6 89       	movb   $0x89,-0x3a(%rbp,%rax,1)
   15aad:	83 85 bc ed ff ff 01 	addl   $0x1,-0x1244(%rbp)
   15ab4:	83 bd bc ed ff ff 01 	cmpl   $0x1,-0x1244(%rbp)
   15abb:	7e e3                	jle    15aa0 <func_76+0x8f1>
   15abd:	c6 05 28 e9 00 00 00 	movb   $0x0,0xe928(%rip)        # 243ec <g_161>
   15ac4:	e9 16 19 00 00       	jmpq   173df <func_76+0x2230>
   15ac9:	48 8d 05 34 e6 00 00 	lea    0xe634(%rip),%rax        # 24104 <g_3+0x4>
   15ad0:	48 89 85 80 ee ff ff 	mov    %rax,-0x1180(%rbp)
   15ad7:	48 8d 85 70 f3 ff ff 	lea    -0xc90(%rbp),%rax
   15ade:	48 8d 15 9b a8 00 00 	lea    0xa89b(%rip),%rdx        # 20380 <g_985+0x131c>
   15ae5:	b9 3c 00 00 00       	mov    $0x3c,%ecx
   15aea:	48 89 c7             	mov    %rax,%rdi
   15aed:	48 89 d6             	mov    %rdx,%rsi
   15af0:	f3 48 a5             	rep movsq %ds:(%rsi),%es:(%rdi)
   15af3:	48 c7 85 88 ee ff ff 	movq   $0x0,-0x1178(%rbp)
   15afa:	00 00 00 00 
   15afe:	48 c7 85 90 ee ff ff 	movq   $0xfffffffffffffff7,-0x1170(%rbp)
   15b05:	f7 ff ff ff 
   15b09:	66 c7 85 80 ef ff ff 	movw   $0x5e5d,-0x1080(%rbp)
   15b10:	5d 5e 
   15b12:	66 c7 85 82 ef ff ff 	movw   $0x0,-0x107e(%rbp)
   15b19:	00 00 
   15b1b:	66 c7 85 84 ef ff ff 	movw   $0x5e5d,-0x107c(%rbp)
   15b22:	5d 5e 
   15b24:	66 c7 85 86 ef ff ff 	movw   $0x5e5d,-0x107a(%rbp)
   15b2b:	5d 5e 
   15b2d:	66 c7 85 88 ef ff ff 	movw   $0x0,-0x1078(%rbp)
   15b34:	00 00 
   15b36:	66 c7 85 8a ef ff ff 	movw   $0x5e5d,-0x1076(%rbp)
   15b3d:	5d 5e 
   15b3f:	66 c7 85 8c ef ff ff 	movw   $0x5e5d,-0x1074(%rbp)
   15b46:	5d 5e 
   15b48:	66 c7 85 8e ef ff ff 	movw   $0x0,-0x1072(%rbp)
   15b4f:	00 00 
   15b51:	66 c7 85 90 ef ff ff 	movw   $0x5e5d,-0x1070(%rbp)
   15b58:	5d 5e 
   15b5a:	66 c7 85 92 ef ff ff 	movw   $0x5e5d,-0x106e(%rbp)
   15b61:	5d 5e 
   15b63:	48 c7 85 70 ee ff ff 	movq   $0x0,-0x1190(%rbp)
   15b6a:	00 00 00 00 
   15b6e:	c6 85 64 ed ff ff 6c 	movb   $0x6c,-0x129c(%rbp)
   15b75:	c7 85 90 ed ff ff 0a 	movl   $0x1f0e680a,-0x1270(%rbp)
   15b7c:	68 0e 1f 
   15b7f:	48 c7 85 18 ee ff ff 	movq   $0x0,-0x11e8(%rbp)
   15b86:	00 00 00 00 
   15b8a:	c7 85 18 ee ff ff 09 	movl   $0x9,-0x11e8(%rbp)
   15b91:	00 00 00 
   15b94:	48 8d 05 51 e9 00 00 	lea    0xe951(%rip),%rax        # 244ec <g_1264>
   15b9b:	48 89 85 68 ee ff ff 	mov    %rax,-0x1198(%rbp)
   15ba2:	48 8d 05 37 e8 00 00 	lea    0xe837(%rip),%rax        # 243e0 <g_143>
   15ba9:	48 89 85 20 f1 ff ff 	mov    %rax,-0xee0(%rbp)
   15bb0:	48 c7 85 28 f1 ff ff 	movq   $0x0,-0xed8(%rbp)
   15bb7:	00 00 00 00 
   15bbb:	48 8d 05 1e e8 00 00 	lea    0xe81e(%rip),%rax        # 243e0 <g_143>
   15bc2:	48 89 85 30 f1 ff ff 	mov    %rax,-0xed0(%rbp)
   15bc9:	48 8d 05 10 e8 00 00 	lea    0xe810(%rip),%rax        # 243e0 <g_143>
   15bd0:	48 89 85 38 f1 ff ff 	mov    %rax,-0xec8(%rbp)
   15bd7:	48 8d 05 02 e8 00 00 	lea    0xe802(%rip),%rax        # 243e0 <g_143>
   15bde:	48 89 85 40 f1 ff ff 	mov    %rax,-0xec0(%rbp)
   15be5:	48 c7 85 48 f1 ff ff 	movq   $0x0,-0xeb8(%rbp)
   15bec:	00 00 00 00 
   15bf0:	48 8d 05 e9 e7 00 00 	lea    0xe7e9(%rip),%rax        # 243e0 <g_143>
   15bf7:	48 89 85 50 f1 ff ff 	mov    %rax,-0xeb0(%rbp)
   15bfe:	48 8d 05 db e7 00 00 	lea    0xe7db(%rip),%rax        # 243e0 <g_143>
   15c05:	48 89 85 58 f1 ff ff 	mov    %rax,-0xea8(%rbp)
   15c0c:	48 c7 85 60 f1 ff ff 	movq   $0x0,-0xea0(%rbp)
   15c13:	00 00 00 00 
   15c17:	48 8d 05 c2 e7 00 00 	lea    0xe7c2(%rip),%rax        # 243e0 <g_143>
   15c1e:	48 89 85 68 f1 ff ff 	mov    %rax,-0xe98(%rbp)
   15c25:	48 8d 05 b4 e7 00 00 	lea    0xe7b4(%rip),%rax        # 243e0 <g_143>
   15c2c:	48 89 85 70 f1 ff ff 	mov    %rax,-0xe90(%rbp)
   15c33:	48 8d 05 a6 e7 00 00 	lea    0xe7a6(%rip),%rax        # 243e0 <g_143>
   15c3a:	48 89 85 78 f1 ff ff 	mov    %rax,-0xe88(%rbp)
   15c41:	48 c7 85 80 f1 ff ff 	movq   $0x0,-0xe80(%rbp)
   15c48:	00 00 00 00 
   15c4c:	48 8d 05 8d e7 00 00 	lea    0xe78d(%rip),%rax        # 243e0 <g_143>
   15c53:	48 89 85 88 f1 ff ff 	mov    %rax,-0xe78(%rbp)
   15c5a:	48 8d 85 20 f1 ff ff 	lea    -0xee0(%rbp),%rax
   15c61:	48 83 c0 40          	add    $0x40,%rax
   15c65:	48 89 85 20 ee ff ff 	mov    %rax,-0x11e0(%rbp)
   15c6c:	48 8d 05 cd 16 01 00 	lea    0x116cd(%rip),%rax        # 27340 <g_297+0xa0>
   15c73:	48 89 85 28 ee ff ff 	mov    %rax,-0x11d8(%rbp)
   15c7a:	48 8d 85 28 ee ff ff 	lea    -0x11d8(%rbp),%rax
   15c81:	48 89 85 30 ee ff ff 	mov    %rax,-0x11d0(%rbp)
   15c88:	48 8d 85 30 ee ff ff 	lea    -0x11d0(%rbp),%rax
   15c8f:	48 89 85 60 ee ff ff 	mov    %rax,-0x11a0(%rbp)
   15c96:	c7 85 b8 ed ff ff 00 	movl   $0x0,-0x1248(%rbp)
   15c9d:	00 00 00 
   15ca0:	eb 1e                	jmp    15cc0 <func_76+0xb11>
   15ca2:	8b 85 b8 ed ff ff    	mov    -0x1248(%rbp),%eax
   15ca8:	48 98                	cltq   
   15caa:	48 8d 95 20 ee ff ff 	lea    -0x11e0(%rbp),%rdx
   15cb1:	48 89 94 c5 d0 f0 ff 	mov    %rdx,-0xf30(%rbp,%rax,8)
   15cb8:	ff 
   15cb9:	83 85 b8 ed ff ff 01 	addl   $0x1,-0x1248(%rbp)
   15cc0:	83 bd b8 ed ff ff 09 	cmpl   $0x9,-0x1248(%rbp)
   15cc7:	7e d9                	jle    15ca2 <func_76+0xaf3>
   15cc9:	48 8b 85 48 ed ff ff 	mov    -0x12b8(%rbp),%rax
   15cd0:	48 8b 95 80 ee ff ff 	mov    -0x1180(%rbp),%rdx
   15cd7:	48 89 10             	mov    %rdx,(%rax)
   15cda:	48 8b 05 17 1a 01 00 	mov    0x11a17(%rip),%rax        # 276f8 <g_991>
   15ce1:	48 8b 95 48 ed ff ff 	mov    -0x12b8(%rbp),%rdx
   15ce8:	48 8b 12             	mov    (%rdx),%rdx
   15ceb:	48 89 10             	mov    %rdx,(%rax)
   15cee:	48 83 bd d8 ee ff ff 	cmpq   $0x0,-0x1128(%rbp)
   15cf5:	00 
   15cf6:	0f 85 f4 16 00 00    	jne    173f0 <func_76+0x2241>
   15cfc:	0f b6 85 61 ed ff ff 	movzbl -0x129f(%rbp),%eax
   15d03:	84 c0                	test   %al,%al
   15d05:	0f 84 2a 01 00 00    	je     15e35 <func_76+0xc86>
   15d0b:	48 8d 85 74 ed ff ff 	lea    -0x128c(%rbp),%rax
   15d12:	48 89 85 e8 ee ff ff 	mov    %rax,-0x1118(%rbp)
   15d19:	48 8d 05 d0 e4 00 00 	lea    0xe4d0(%rip),%rax        # 241f0 <g_139+0x50>
   15d20:	48 89 85 f0 ee ff ff 	mov    %rax,-0x1110(%rbp)
   15d27:	48 8d 05 fa e3 00 00 	lea    0xe3fa(%rip),%rax        # 24128 <g_18>
   15d2e:	48 89 85 b0 f2 ff ff 	mov    %rax,-0xd50(%rbp)
   15d35:	48 c7 85 b8 f2 ff ff 	movq   $0x0,-0xd48(%rbp)
   15d3c:	00 00 00 00 
   15d40:	48 c7 85 c0 f2 ff ff 	movq   $0x0,-0xd40(%rbp)
   15d47:	00 00 00 00 
   15d4b:	48 8d 05 d2 e3 00 00 	lea    0xe3d2(%rip),%rax        # 24124 <g_7>
   15d52:	48 89 85 c8 f2 ff ff 	mov    %rax,-0xd38(%rbp)
   15d59:	48 c7 85 d0 f2 ff ff 	movq   $0x0,-0xd30(%rbp)
   15d60:	00 00 00 00 
   15d64:	48 c7 85 d8 f2 ff ff 	movq   $0x0,-0xd28(%rbp)
   15d6b:	00 00 00 00 
   15d6f:	48 c7 85 e0 f2 ff ff 	movq   $0x0,-0xd20(%rbp)
   15d76:	00 00 00 00 
   15d7a:	48 8d 05 a7 e3 00 00 	lea    0xe3a7(%rip),%rax        # 24128 <g_18>
   15d81:	48 89 85 e8 f2 ff ff 	mov    %rax,-0xd18(%rbp)
   15d88:	48 8d 05 a9 e3 00 00 	lea    0xe3a9(%rip),%rax        # 24138 <g_59+0x8>
   15d8f:	48 89 85 f0 f2 ff ff 	mov    %rax,-0xd10(%rbp)
   15d96:	48 8d 05 7b e3 00 00 	lea    0xe37b(%rip),%rax        # 24118 <g_3+0x18>
   15d9d:	48 89 85 f8 f2 ff ff 	mov    %rax,-0xd08(%rbp)
   15da4:	48 8d 05 6d e3 00 00 	lea    0xe36d(%rip),%rax        # 24118 <g_3+0x18>
   15dab:	48 89 85 00 f3 ff ff 	mov    %rax,-0xd00(%rbp)
   15db2:	48 8d 05 7f e3 00 00 	lea    0xe37f(%rip),%rax        # 24138 <g_59+0x8>
   15db9:	48 89 85 08 f3 ff ff 	mov    %rax,-0xcf8(%rbp)
   15dc0:	48 c7 85 10 f3 ff ff 	movq   $0x0,-0xcf0(%rbp)
   15dc7:	00 00 00 00 
   15dcb:	48 c7 85 18 f3 ff ff 	movq   $0x0,-0xce8(%rbp)
   15dd2:	00 00 00 00 
   15dd6:	48 8d 05 3b e3 00 00 	lea    0xe33b(%rip),%rax        # 24118 <g_3+0x18>
   15ddd:	48 89 85 20 f3 ff ff 	mov    %rax,-0xce0(%rbp)
   15de4:	48 8d 05 39 e3 00 00 	lea    0xe339(%rip),%rax        # 24124 <g_7>
   15deb:	48 89 85 28 f3 ff ff 	mov    %rax,-0xcd8(%rbp)
   15df2:	48 8d 05 3f e3 00 00 	lea    0xe33f(%rip),%rax        # 24138 <g_59+0x8>
   15df9:	48 89 85 30 f3 ff ff 	mov    %rax,-0xcd0(%rbp)
   15e00:	48 8d 05 1d e3 00 00 	lea    0xe31d(%rip),%rax        # 24124 <g_7>
   15e07:	48 89 85 38 f3 ff ff 	mov    %rax,-0xcc8(%rbp)
   15e0e:	c7 85 ec ed ff ff 89 	movl   $0xa98af689,-0x1214(%rbp)
   15e15:	f6 8a a9 
   15e18:	80 ad 66 ed ff ff 01 	subb   $0x1,-0x129a(%rbp)
   15e1f:	0f b7 85 6c ed ff ff 	movzwl -0x1294(%rbp),%eax
   15e26:	83 c0 01             	add    $0x1,%eax
   15e29:	66 89 85 6c ed ff ff 	mov    %ax,-0x1294(%rbp)
   15e30:	e9 37 09 00 00       	jmpq   1676c <func_76+0x15bd>
   15e35:	48 c7 85 90 f1 ff ff 	movq   $0x1,-0xe70(%rbp)
   15e3c:	01 00 00 00 
   15e40:	48 b8 45 a3 58 a1 f7 	movabs $0x86e524f7a158a345,%rax
   15e47:	24 e5 86 
   15e4a:	48 89 85 98 f1 ff ff 	mov    %rax,-0xe68(%rbp)
   15e51:	48 bb bb fe 27 10 7b 	movabs $0xabde5d7b1027febb,%rbx
   15e58:	5d de ab 
   15e5b:	48 89 9d a0 f1 ff ff 	mov    %rbx,-0xe60(%rbp)
   15e62:	48 c7 85 a8 f1 ff ff 	movq   $0x0,-0xe58(%rbp)
   15e69:	00 00 00 00 
   15e6d:	48 89 85 b0 f1 ff ff 	mov    %rax,-0xe50(%rbp)
   15e74:	48 c7 85 b8 f1 ff ff 	movq   $0x0,-0xe48(%rbp)
   15e7b:	00 00 00 00 
   15e7f:	48 89 9d c0 f1 ff ff 	mov    %rbx,-0xe40(%rbp)
   15e86:	48 89 85 c8 f1 ff ff 	mov    %rax,-0xe38(%rbp)
   15e8d:	48 c7 85 d0 f1 ff ff 	movq   $0x1,-0xe30(%rbp)
   15e94:	01 00 00 00 
   15e98:	48 c7 85 d8 f1 ff ff 	movq   $0x1,-0xe28(%rbp)
   15e9f:	01 00 00 00 
   15ea3:	48 c7 85 e0 f1 ff ff 	movq   $0x1,-0xe20(%rbp)
   15eaa:	01 00 00 00 
   15eae:	48 89 85 e8 f1 ff ff 	mov    %rax,-0xe18(%rbp)
   15eb5:	48 89 9d f0 f1 ff ff 	mov    %rbx,-0xe10(%rbp)
   15ebc:	48 c7 85 f8 f1 ff ff 	movq   $0x0,-0xe08(%rbp)
   15ec3:	00 00 00 00 
   15ec7:	c7 85 ac ed ff ff e2 	movl   $0x7a1418e2,-0x1254(%rbp)
   15ece:	18 14 7a 
   15ed1:	48 8d 05 40 17 01 00 	lea    0x11740(%rip),%rax        # 27618 <g_516>
   15ed8:	48 89 85 48 ee ff ff 	mov    %rax,-0x11b8(%rbp)
   15edf:	48 8d 05 32 17 01 00 	lea    0x11732(%rip),%rax        # 27618 <g_516>
   15ee6:	48 89 85 50 ee ff ff 	mov    %rax,-0x11b0(%rbp)
   15eed:	c7 85 b0 ed ff ff 00 	movl   $0x0,-0x1250(%rbp)
   15ef4:	00 00 00 
   15ef7:	c7 85 40 ee ff ff 11 	movl   $0xed2a6f11,-0x11c0(%rbp)
   15efe:	6f 2a ed 
   15f01:	c6 85 63 ed ff ff 88 	movb   $0x88,-0x129d(%rbp)
   15f08:	48 c7 05 2d e5 00 00 	movq   $0x0,0xe52d(%rip)        # 24440 <g_431>
   15f0f:	00 00 00 00 
   15f13:	e9 3d 08 00 00       	jmpq   16755 <func_76+0x15a6>
   15f18:	c7 85 b4 ed ff ff 0f 	movl   $0xee81b40f,-0x124c(%rbp)
   15f1f:	b4 81 ee 
   15f22:	48 8d 85 80 f0 ff ff 	lea    -0xf80(%rbp),%rax
   15f29:	48 83 c0 3c          	add    $0x3c,%rax
   15f2d:	48 89 85 58 ee ff ff 	mov    %rax,-0x11a8(%rbp)
   15f34:	48 c7 85 b0 f2 ff ff 	movq   $0x0,-0xd50(%rbp)
   15f3b:	00 00 00 00 
   15f3f:	48 8d 05 fa e4 00 00 	lea    0xe4fa(%rip),%rax        # 24440 <g_431>
   15f46:	48 89 85 b8 f2 ff ff 	mov    %rax,-0xd48(%rbp)
   15f4d:	48 8d 05 ec e4 00 00 	lea    0xe4ec(%rip),%rax        # 24440 <g_431>
   15f54:	48 89 85 c0 f2 ff ff 	mov    %rax,-0xd40(%rbp)
   15f5b:	48 c7 85 c8 f2 ff ff 	movq   $0x0,-0xd38(%rbp)
   15f62:	00 00 00 00 
   15f66:	48 8d 05 d3 e4 00 00 	lea    0xe4d3(%rip),%rax        # 24440 <g_431>
   15f6d:	48 89 85 d0 f2 ff ff 	mov    %rax,-0xd30(%rbp)
   15f74:	48 c7 85 d8 f2 ff ff 	movq   $0x0,-0xd28(%rbp)
   15f7b:	00 00 00 00 
   15f7f:	48 8d 05 ba e4 00 00 	lea    0xe4ba(%rip),%rax        # 24440 <g_431>
   15f86:	48 89 85 e0 f2 ff ff 	mov    %rax,-0xd20(%rbp)
   15f8d:	48 8d 05 ac e4 00 00 	lea    0xe4ac(%rip),%rax        # 24440 <g_431>
   15f94:	48 89 85 e8 f2 ff ff 	mov    %rax,-0xd18(%rbp)
   15f9b:	48 c7 85 f0 f2 ff ff 	movq   $0x0,-0xd10(%rbp)
   15fa2:	00 00 00 00 
   15fa6:	48 c7 85 f8 f2 ff ff 	movq   $0x0,-0xd08(%rbp)
   15fad:	00 00 00 00 
   15fb1:	48 8d 85 90 f1 ff ff 	lea    -0xe70(%rbp),%rax
   15fb8:	48 83 c0 20          	add    $0x20,%rax
   15fbc:	48 89 85 00 f3 ff ff 	mov    %rax,-0xd00(%rbp)
   15fc3:	48 c7 85 08 f3 ff ff 	movq   $0x0,-0xcf8(%rbp)
   15fca:	00 00 00 00 
   15fce:	48 c7 85 10 f3 ff ff 	movq   $0x0,-0xcf0(%rbp)
   15fd5:	00 00 00 00 
   15fd9:	48 8d 05 60 e4 00 00 	lea    0xe460(%rip),%rax        # 24440 <g_431>
   15fe0:	48 89 85 18 f3 ff ff 	mov    %rax,-0xce8(%rbp)
   15fe7:	48 8d 05 52 e4 00 00 	lea    0xe452(%rip),%rax        # 24440 <g_431>
   15fee:	48 89 85 20 f3 ff ff 	mov    %rax,-0xce0(%rbp)
   15ff5:	48 c7 85 28 f3 ff ff 	movq   $0x0,-0xcd8(%rbp)
   15ffc:	00 00 00 00 
   16000:	48 8d 05 39 e4 00 00 	lea    0xe439(%rip),%rax        # 24440 <g_431>
   16007:	48 89 85 30 f3 ff ff 	mov    %rax,-0xcd0(%rbp)
   1600e:	48 c7 85 38 f3 ff ff 	movq   $0x0,-0xcc8(%rbp)
   16015:	00 00 00 00 
   16019:	48 8d 05 20 e4 00 00 	lea    0xe420(%rip),%rax        # 24440 <g_431>
   16020:	48 89 85 40 f3 ff ff 	mov    %rax,-0xcc0(%rbp)
   16027:	48 8d 05 12 e4 00 00 	lea    0xe412(%rip),%rax        # 24440 <g_431>
   1602e:	48 89 85 48 f3 ff ff 	mov    %rax,-0xcb8(%rbp)
   16035:	48 c7 85 50 f3 ff ff 	movq   $0x0,-0xcb0(%rbp)
   1603c:	00 00 00 00 
   16040:	48 c7 85 58 f3 ff ff 	movq   $0x0,-0xca8(%rbp)
   16047:	00 00 00 00 
   1604b:	48 8d 85 90 f1 ff ff 	lea    -0xe70(%rbp),%rax
   16052:	48 83 c0 20          	add    $0x20,%rax
   16056:	48 89 85 60 f3 ff ff 	mov    %rax,-0xca0(%rbp)
   1605d:	48 c7 85 68 f3 ff ff 	movq   $0x0,-0xc98(%rbp)
   16064:	00 00 00 00 
   16068:	c6 85 62 ed ff ff ff 	movb   $0xff,-0x129e(%rbp)
   1606f:	c7 85 a8 ed ff ff 1c 	movl   $0x62237a1c,-0x1258(%rbp)
   16076:	7a 23 62 
   16079:	c7 85 30 f0 ff ff 36 	movl   $0x5be8cf36,-0xfd0(%rbp)
   16080:	cf e8 5b 
   16083:	c7 85 34 f0 ff ff 6c 	movl   $0xf981d46c,-0xfcc(%rbp)
   1608a:	d4 81 f9 
   1608d:	c7 85 38 f0 ff ff 27 	movl   $0x2fcd2f27,-0xfc8(%rbp)
   16094:	2f cd 2f 
   16097:	c7 85 3c f0 ff ff 08 	movl   $0x8,-0xfc4(%rbp)
   1609e:	00 00 00 
   160a1:	c7 85 40 f0 ff ff 04 	movl   $0x4,-0xfc0(%rbp)
   160a8:	00 00 00 
   160ab:	c7 85 44 f0 ff ff 27 	movl   $0x2fcd2f27,-0xfbc(%rbp)
   160b2:	2f cd 2f 
   160b5:	c7 85 48 f0 ff ff 08 	movl   $0x8,-0xfb8(%rbp)
   160bc:	00 00 00 
   160bf:	c7 85 4c f0 ff ff 6c 	movl   $0xf981d46c,-0xfb4(%rbp)
   160c6:	d4 81 f9 
   160c9:	c7 85 50 f0 ff ff 08 	movl   $0x8,-0xfb0(%rbp)
   160d0:	00 00 00 
   160d3:	c7 85 54 f0 ff ff 27 	movl   $0x2fcd2f27,-0xfac(%rbp)
   160da:	2f cd 2f 
   160dd:	c7 85 58 f0 ff ff 04 	movl   $0x4,-0xfa8(%rbp)
   160e4:	00 00 00 
   160e7:	c7 85 5c f0 ff ff 08 	movl   $0x8,-0xfa4(%rbp)
   160ee:	00 00 00 
   160f1:	c7 85 60 f0 ff ff 27 	movl   $0x2fcd2f27,-0xfa0(%rbp)
   160f8:	2f cd 2f 
   160fb:	c7 85 64 f0 ff ff 6c 	movl   $0xf981d46c,-0xf9c(%rbp)
   16102:	d4 81 f9 
   16105:	c7 85 68 f0 ff ff 36 	movl   $0x5be8cf36,-0xf98(%rbp)
   1610c:	cf e8 5b 
   1610f:	c7 85 6c f0 ff ff 36 	movl   $0x5be8cf36,-0xf94(%rbp)
   16116:	cf e8 5b 
   16119:	c7 85 70 f0 ff ff 04 	movl   $0x4,-0xf90(%rbp)
   16120:	00 00 00 
   16123:	c7 85 74 f0 ff ff 36 	movl   $0x5be8cf36,-0xf8c(%rbp)
   1612a:	cf e8 5b 
   1612d:	66 c7 85 6e ed ff ff 	movw   $0x1,-0x1292(%rbp)
   16134:	01 00 
   16136:	c7 85 d8 ed ff ff 00 	movl   $0x0,-0x1228(%rbp)
   1613d:	00 00 00 
   16140:	eb 1e                	jmp    16160 <func_76+0xfb1>
   16142:	8b 85 d8 ed ff ff    	mov    -0x1228(%rbp),%eax
   16148:	48 98                	cltq   
   1614a:	48 8d 15 8f e2 00 00 	lea    0xe28f(%rip),%rdx        # 243e0 <g_143>
   16151:	48 89 94 c5 a0 ef ff 	mov    %rdx,-0x1060(%rbp,%rax,8)
   16158:	ff 
   16159:	83 85 d8 ed ff ff 01 	addl   $0x1,-0x1228(%rbp)
   16160:	83 bd d8 ed ff ff 00 	cmpl   $0x0,-0x1228(%rbp)
   16167:	7e d9                	jle    16142 <func_76+0xf93>
   16169:	48 8b 85 c0 ef ff ff 	mov    -0x1040(%rbp),%rax
   16170:	48 89 85 88 ee ff ff 	mov    %rax,-0x1178(%rbp)
   16177:	8b 85 c4 ed ff ff    	mov    -0x123c(%rbp),%eax
   1617d:	48 63 d8             	movslq %eax,%rbx
   16180:	8b 85 58 ed ff ff    	mov    -0x12a8(%rbp),%eax
   16186:	25 ff ff 0f 00       	and    $0xfffff,%eax
   1618b:	41 89 c4             	mov    %eax,%r12d
   1618e:	c7 85 ac ed ff ff 01 	movl   $0x1,-0x1254(%rbp)
   16195:	00 00 00 
   16198:	48 8b 85 98 f1 ff ff 	mov    -0xe68(%rbp),%rax
   1619f:	0f be c0             	movsbl %al,%eax
   161a2:	89 c6                	mov    %eax,%esi
   161a4:	bf 1d 00 00 00       	mov    $0x1d,%edi
   161a9:	e8 44 50 ff ff       	callq  b1f2 <safe_sub_func_int8_t_s_s>
   161ae:	0f be c0             	movsbl %al,%eax
   161b1:	8b 95 58 ed ff ff    	mov    -0x12a8(%rbp),%edx
   161b7:	81 e2 ff ff 0f 00    	and    $0xfffff,%edx
   161bd:	39 d0                	cmp    %edx,%eax
   161bf:	74 15                	je     161d6 <func_76+0x1027>
   161c1:	48 8b 05 a8 10 01 00 	mov    0x110a8(%rip),%rax        # 27270 <g_116>
   161c8:	0f b6 00             	movzbl (%rax),%eax
   161cb:	84 c0                	test   %al,%al
   161cd:	74 07                	je     161d6 <func_76+0x1027>
   161cf:	b8 01 00 00 00       	mov    $0x1,%eax
   161d4:	eb 05                	jmp    161db <func_76+0x102c>
   161d6:	b8 00 00 00 00       	mov    $0x0,%eax
   161db:	3d fa ff 00 00       	cmp    $0xfffa,%eax
   161e0:	0f 97 c0             	seta   %al
   161e3:	0f b6 c0             	movzbl %al,%eax
   161e6:	4c 89 e6             	mov    %r12,%rsi
   161e9:	48 89 c7             	mov    %rax,%rdi
   161ec:	e8 5a 5e ff ff       	callq  c04b <safe_sub_func_uint64_t_u_u>
   161f1:	48 83 f8 fd          	cmp    $0xfffffffffffffffd,%rax
   161f5:	0f 95 c0             	setne  %al
   161f8:	0f b6 c0             	movzbl %al,%eax
   161fb:	48 39 85 d8 ee ff ff 	cmp    %rax,-0x1128(%rbp)
   16202:	0f 9c c0             	setl   %al
   16205:	0f b6 d0             	movzbl %al,%edx
   16208:	48 8b 85 c8 f1 ff ff 	mov    -0xe38(%rbp),%rax
   1620f:	48 89 85 90 ee ff ff 	mov    %rax,-0x1170(%rbp)
   16216:	48 8b 85 90 ee ff ff 	mov    -0x1170(%rbp),%rax
   1621d:	89 c1                	mov    %eax,%ecx
   1621f:	48 8b 85 58 ee ff ff 	mov    -0x11a8(%rbp),%rax
   16226:	89 08                	mov    %ecx,(%rax)
   16228:	48 8b 85 58 ee ff ff 	mov    -0x11a8(%rbp),%rax
   1622f:	8b 00                	mov    (%rax),%eax
   16231:	89 d6                	mov    %edx,%esi
   16233:	89 c7                	mov    %eax,%edi
   16235:	e8 cb 53 ff ff       	callq  b605 <safe_sub_func_int32_t_s_s>
   1623a:	8b 85 b4 ed ff ff    	mov    -0x124c(%rbp),%eax
   16240:	0f be c0             	movsbl %al,%eax
   16243:	be 01 00 00 00       	mov    $0x1,%esi
   16248:	89 c7                	mov    %eax,%edi
   1624a:	e8 a3 4f ff ff       	callq  b1f2 <safe_sub_func_int8_t_s_s>
   1624f:	0f be d0             	movsbl %al,%edx
   16252:	0f b7 05 39 df 00 00 	movzwl 0xdf39(%rip),%eax        # 24192 <g_129>
   16259:	0f b7 c0             	movzwl %ax,%eax
   1625c:	21 d0                	and    %edx,%eax
   1625e:	85 c0                	test   %eax,%eax
   16260:	74 11                	je     16273 <func_76+0x10c4>
   16262:	8b 05 d8 de 00 00    	mov    0xded8(%rip),%eax        # 24140 <g_74>
   16268:	85 c0                	test   %eax,%eax
   1626a:	74 07                	je     16273 <func_76+0x10c4>
   1626c:	ba 01 00 00 00       	mov    $0x1,%edx
   16271:	eb 05                	jmp    16278 <func_76+0x10c9>
   16273:	ba 00 00 00 00       	mov    $0x0,%edx
   16278:	48 8b 85 80 ee ff ff 	mov    -0x1180(%rbp),%rax
   1627f:	8b 00                	mov    (%rax),%eax
   16281:	39 c2                	cmp    %eax,%edx
   16283:	0f 95 c0             	setne  %al
   16286:	0f b6 c0             	movzbl %al,%eax
   16289:	be 0c 00 00 00       	mov    $0xc,%esi
   1628e:	89 c7                	mov    %eax,%edi
   16290:	e8 29 5b ff ff       	callq  bdbe <safe_lshift_func_uint16_t_u_s>
   16295:	66 c7 85 8c ef ff ff 	movw   $0x7fbf,-0x1074(%rbp)
   1629c:	bf 7f 
   1629e:	0f b7 85 8c ef ff ff 	movzwl -0x1074(%rbp),%eax
   162a5:	0f b7 c0             	movzwl %ax,%eax
   162a8:	48 89 de             	mov    %rbx,%rsi
   162ab:	48 89 c7             	mov    %rax,%rdi
   162ae:	e8 01 57 ff ff       	callq  b9b4 <safe_mod_func_int64_t_s_s>
   162b3:	48 83 bd d8 ee ff ff 	cmpq   $0x0,-0x1128(%rbp)
   162ba:	00 
   162bb:	0f 85 a7 04 00 00    	jne    16768 <func_76+0x15b9>
   162c1:	66 83 bd 6e ed ff ff 	cmpw   $0x0,-0x1292(%rbp)
   162c8:	00 
   162c9:	0f 85 9c 04 00 00    	jne    1676b <func_76+0x15bc>
   162cf:	48 8b 85 80 ee ff ff 	mov    -0x1180(%rbp),%rax
   162d6:	8b 10                	mov    (%rax),%edx
   162d8:	48 8b 85 58 ee ff ff 	mov    -0x11a8(%rbp),%rax
   162df:	89 10                	mov    %edx,(%rax)
   162e1:	c6 85 66 ed ff ff 01 	movb   $0x1,-0x129a(%rbp)
   162e8:	e9 49 04 00 00       	jmpq   16736 <func_76+0x1587>
   162ed:	66 c7 85 70 ed ff ff 	movw   $0xa472,-0x1290(%rbp)
   162f4:	72 a4 
   162f6:	c7 85 e4 ed ff ff ab 	movl   $0x2f7925ab,-0x121c(%rbp)
   162fd:	25 79 2f 
   16300:	c7 85 e8 ed ff ff fd 	movl   $0xfffffffd,-0x1218(%rbp)
   16307:	ff ff ff 
   1630a:	0f bf 85 70 ed ff ff 	movswl -0x1290(%rbp),%eax
   16311:	be 0c 00 00 00       	mov    $0xc,%esi
   16316:	89 c7                	mov    %eax,%edi
   16318:	e8 c4 51 ff ff       	callq  b4e1 <safe_lshift_func_int16_t_s_u>
   1631d:	66 85 c0             	test   %ax,%ax
   16320:	0f 84 b0 01 00 00    	je     164d6 <func_76+0x1327>
   16326:	c6 85 67 ed ff ff 1c 	movb   $0x1c,-0x1299(%rbp)
   1632d:	48 8d 05 c2 e0 00 00 	lea    0xe0c2(%rip),%rax        # 243f6 <g_315>
   16334:	48 89 85 e0 ee ff ff 	mov    %rax,-0x1120(%rbp)
   1633b:	c7 85 dc ed ff ff 00 	movl   $0x0,-0x1224(%rbp)
   16342:	00 00 00 
   16345:	eb 1e                	jmp    16365 <func_76+0x11b6>
   16347:	8b 85 dc ed ff ff    	mov    -0x1224(%rbp),%eax
   1634d:	48 98                	cltq   
   1634f:	48 8d 95 74 ed ff ff 	lea    -0x128c(%rbp),%rdx
   16356:	48 89 94 c5 00 f2 ff 	mov    %rdx,-0xe00(%rbp,%rax,8)
   1635d:	ff 
   1635e:	83 85 dc ed ff ff 01 	addl   $0x1,-0x1224(%rbp)
   16365:	83 bd dc ed ff ff 00 	cmpl   $0x0,-0x1224(%rbp)
   1636c:	7e d9                	jle    16347 <func_76+0x1198>
   1636e:	48 8b 85 58 ee ff ff 	mov    -0x11a8(%rbp),%rax
   16375:	c7 00 54 33 28 a1    	movl   $0xa1283354,(%rax)
   1637b:	48 8b 05 de 0e 01 00 	mov    0x10ede(%rip),%rax        # 27260 <g_57>
   16382:	48 8d 95 40 ee ff ff 	lea    -0x11c0(%rbp),%rdx
   16389:	48 89 10             	mov    %rdx,(%rax)
   1638c:	0f b6 85 5f ed ff ff 	movzbl -0x12a1(%rbp),%eax
   16393:	44 0f be e8          	movsbl %al,%r13d
   16397:	8b 05 77 dd 00 00    	mov    0xdd77(%rip),%eax        # 24114 <g_3+0x14>
   1639d:	48 63 d8             	movslq %eax,%rbx
   163a0:	8b 85 44 ed ff ff    	mov    -0x12bc(%rbp),%eax
   163a6:	44 0f bf e0          	movswl %ax,%r12d
   163aa:	0f b7 05 57 2c 01 00 	movzwl 0x12c57(%rip),%eax        # 29008 <g_930>
   163b1:	83 f0 03             	xor    $0x3,%eax
   163b4:	0f b7 c0             	movzwl %ax,%eax
   163b7:	be 01 00 00 00       	mov    $0x1,%esi
   163bc:	89 c7                	mov    %eax,%edi
   163be:	e8 43 5a ff ff       	callq  be06 <safe_lshift_func_uint16_t_u_u>
   163c3:	98                   	cwtl   
   163c4:	44 89 e6             	mov    %r12d,%esi
   163c7:	89 c7                	mov    %eax,%edi
   163c9:	e8 27 50 ff ff       	callq  b3f5 <safe_mul_func_int16_t_s_s>
   163ce:	48 0f bf c0          	movswq %ax,%rax
   163d2:	48 89 de             	mov    %rbx,%rsi
   163d5:	48 89 c7             	mov    %rax,%rdi
   163d8:	e8 51 5c ff ff       	callq  c02e <safe_add_func_uint64_t_u_u>
   163dd:	48 be 29 cd 29 bf c5 	movabs $0xa0919c5bf29cd29,%rsi
   163e4:	19 09 0a 
   163e7:	48 89 c7             	mov    %rax,%rdi
   163ea:	e8 c0 5c ff ff       	callq  c0af <safe_div_func_uint64_t_u_u>
   163ef:	89 c2                	mov    %eax,%edx
   163f1:	0f b7 85 70 ed ff ff 	movzwl -0x1290(%rbp),%eax
   163f8:	09 d0                	or     %edx,%eax
   163fa:	0f b6 d8             	movzbl %al,%ebx
   163fd:	48 8b 85 80 ee ff ff 	mov    -0x1180(%rbp),%rax
   16404:	8b 00                	mov    (%rax),%eax
   16406:	0f be d0             	movsbl %al,%edx
   16409:	0f b6 85 67 ed ff ff 	movzbl -0x1299(%rbp),%eax
   16410:	0f be c0             	movsbl %al,%eax
   16413:	89 d6                	mov    %edx,%esi
   16415:	89 c7                	mov    %eax,%edi
   16417:	e8 15 4e ff ff       	callq  b231 <safe_mod_func_int8_t_s_s>
   1641c:	0f be c0             	movsbl %al,%eax
   1641f:	be 4c 00 00 00       	mov    $0x4c,%esi
   16424:	89 c7                	mov    %eax,%edi
   16426:	e8 c7 4d ff ff       	callq  b1f2 <safe_sub_func_int8_t_s_s>
   1642b:	0f b6 c0             	movzbl %al,%eax
   1642e:	89 de                	mov    %ebx,%esi
   16430:	89 c7                	mov    %eax,%edi
   16432:	e8 23 57 ff ff       	callq  bb5a <safe_add_func_uint8_t_u_u>
   16437:	3c 02                	cmp    $0x2,%al
   16439:	48 8b 05 00 12 01 00 	mov    0x11200(%rip),%rax        # 27640 <g_566>
   16440:	48 8b 00             	mov    (%rax),%rax
   16443:	48 8b 00             	mov    (%rax),%rax
   16446:	48 8b 00             	mov    (%rax),%rax
   16449:	48 8b 85 c0 f1 ff ff 	mov    -0xe40(%rbp),%rax
   16450:	be 01 00 00 00       	mov    $0x1,%esi
   16455:	89 c7                	mov    %eax,%edi
   16457:	e8 5c 5a ff ff       	callq  beb8 <safe_add_func_uint32_t_u_u>
   1645c:	8b 85 40 ee ff ff    	mov    -0x11c0(%rbp),%eax
   16462:	8b 95 44 ed ff ff    	mov    -0x12bc(%rbp),%edx
   16468:	89 d6                	mov    %edx,%esi
   1646a:	89 c7                	mov    %eax,%edi
   1646c:	e8 5b 52 ff ff       	callq  b6cc <safe_mod_func_int32_t_s_s>
   16471:	39 85 44 ed ff ff    	cmp    %eax,-0x12bc(%rbp)
   16477:	0f 94 c0             	sete   %al
   1647a:	0f b6 c0             	movzbl %al,%eax
   1647d:	41 39 c5             	cmp    %eax,%r13d
   16480:	0f 95 c0             	setne  %al
   16483:	0f b6 d0             	movzbl %al,%edx
   16486:	8b 85 7c ed ff ff    	mov    -0x1284(%rbp),%eax
   1648c:	21 d0                	and    %edx,%eax
   1648e:	89 85 7c ed ff ff    	mov    %eax,-0x1284(%rbp)
   16494:	8b 95 7c ed ff ff    	mov    -0x1284(%rbp),%edx
   1649a:	8b 85 80 ed ff ff    	mov    -0x1280(%rbp),%eax
   164a0:	31 d0                	xor    %edx,%eax
   164a2:	89 85 80 ed ff ff    	mov    %eax,-0x1280(%rbp)
   164a8:	48 8b 85 88 ee ff ff 	mov    -0x1178(%rbp),%rax
   164af:	48 8b 00             	mov    (%rax),%rax
   164b2:	48 8d 95 5f ed ff ff 	lea    -0x12a1(%rbp),%rdx
   164b9:	48 89 10             	mov    %rdx,(%rax)
   164bc:	48 8b 00             	mov    (%rax),%rax
   164bf:	48 89 85 e0 ee ff ff 	mov    %rax,-0x1120(%rbp)
   164c6:	48 c7 85 d8 ee ff ff 	movq   $0x5,-0x1128(%rbp)
   164cd:	05 00 00 00 
   164d1:	e9 48 02 00 00       	jmpq   1671e <func_76+0x156f>
   164d6:	48 8d 05 0b df 00 00 	lea    0xdf0b(%rip),%rax        # 243e8 <g_147>
   164dd:	e9 1e 0f 00 00       	jmpq   17400 <func_76+0x2251>
   164e2:	48 8d 85 84 ed ff ff 	lea    -0x127c(%rbp),%rax
   164e9:	48 89 85 f0 ef ff ff 	mov    %rax,-0x1010(%rbp)
   164f0:	48 8d 85 84 ed ff ff 	lea    -0x127c(%rbp),%rax
   164f7:	48 89 85 f8 ef ff ff 	mov    %rax,-0x1008(%rbp)
   164fe:	48 8d 85 80 f0 ff ff 	lea    -0xf80(%rbp),%rax
   16505:	48 83 c0 18          	add    $0x18,%rax
   16509:	48 89 85 00 f0 ff ff 	mov    %rax,-0x1000(%rbp)
   16510:	48 8d 85 84 ed ff ff 	lea    -0x127c(%rbp),%rax
   16517:	48 89 85 08 f0 ff ff 	mov    %rax,-0xff8(%rbp)
   1651e:	48 8d 85 84 ed ff ff 	lea    -0x127c(%rbp),%rax
   16525:	48 89 85 10 f0 ff ff 	mov    %rax,-0xff0(%rbp)
   1652c:	48 8d 85 80 f0 ff ff 	lea    -0xf80(%rbp),%rax
   16533:	48 83 c0 18          	add    $0x18,%rax
   16537:	48 89 85 18 f0 ff ff 	mov    %rax,-0xfe8(%rbp)
   1653e:	48 8d 85 84 ed ff ff 	lea    -0x127c(%rbp),%rax
   16545:	48 89 85 20 f0 ff ff 	mov    %rax,-0xfe0(%rbp)
   1654c:	48 8d 85 84 ed ff ff 	lea    -0x127c(%rbp),%rax
   16553:	48 89 85 28 f0 ff ff 	mov    %rax,-0xfd8(%rbp)
   1655a:	c7 85 00 f2 ff ff fb 	movl   $0xfffffffb,-0xe00(%rbp)
   16561:	ff ff ff 
   16564:	c7 85 04 f2 ff ff ff 	movl   $0xffffffff,-0xdfc(%rbp)
   1656b:	ff ff ff 
   1656e:	c7 85 08 f2 ff ff 05 	movl   $0x5,-0xdf8(%rbp)
   16575:	00 00 00 
   16578:	c7 85 0c f2 ff ff 27 	movl   $0x9caae927,-0xdf4(%rbp)
   1657f:	e9 aa 9c 
   16582:	c7 85 10 f2 ff ff 01 	movl   $0x1,-0xdf0(%rbp)
   16589:	00 00 00 
   1658c:	c7 85 14 f2 ff ff 53 	movl   $0x4e53ec53,-0xdec(%rbp)
   16593:	ec 53 4e 
   16596:	c7 85 18 f2 ff ff 00 	movl   $0x0,-0xde8(%rbp)
   1659d:	00 00 00 
   165a0:	c7 85 1c f2 ff ff f7 	movl   $0xfffffff7,-0xde4(%rbp)
   165a7:	ff ff ff 
   165aa:	c7 85 20 f2 ff ff 53 	movl   $0x4e53ec53,-0xde0(%rbp)
   165b1:	ec 53 4e 
   165b4:	c7 85 24 f2 ff ff 53 	movl   $0x4e53ec53,-0xddc(%rbp)
   165bb:	ec 53 4e 
   165be:	c7 85 28 f2 ff ff f7 	movl   $0xfffffff7,-0xdd8(%rbp)
   165c5:	ff ff ff 
   165c8:	c7 85 2c f2 ff ff 00 	movl   $0x0,-0xdd4(%rbp)
   165cf:	00 00 00 
   165d2:	c7 85 30 f2 ff ff ab 	movl   $0x9e83a1ab,-0xdd0(%rbp)
   165d9:	a1 83 9e 
   165dc:	c7 85 34 f2 ff ff 17 	movl   $0xcf97c817,-0xdcc(%rbp)
   165e3:	c8 97 cf 
   165e6:	c7 85 38 f2 ff ff 40 	movl   $0xf2e9b740,-0xdc8(%rbp)
   165ed:	b7 e9 f2 
   165f0:	c7 85 3c f2 ff ff 88 	movl   $0xe1501f88,-0xdc4(%rbp)
   165f7:	1f 50 e1 
   165fa:	c7 85 40 f2 ff ff ff 	movl   $0xffffffff,-0xdc0(%rbp)
   16601:	ff ff ff 
   16604:	c7 85 44 f2 ff ff 00 	movl   $0x0,-0xdbc(%rbp)
   1660b:	00 00 00 
   1660e:	c7 85 48 f2 ff ff 40 	movl   $0xf2e9b740,-0xdb8(%rbp)
   16615:	b7 e9 f2 
   16618:	c7 85 4c f2 ff ff fb 	movl   $0xfffffffb,-0xdb4(%rbp)
   1661f:	ff ff ff 
   16622:	c7 85 50 f2 ff ff 53 	movl   $0x4e53ec53,-0xdb0(%rbp)
   16629:	ec 53 4e 
   1662c:	c7 85 54 f2 ff ff 01 	movl   $0x1,-0xdac(%rbp)
   16633:	00 00 00 
   16636:	c7 85 58 f2 ff ff 03 	movl   $0x3,-0xda8(%rbp)
   1663d:	00 00 00 
   16640:	c7 85 5c f2 ff ff 53 	movl   $0x4e53ec53,-0xda4(%rbp)
   16647:	ec 53 4e 
   1664a:	c7 85 60 f2 ff ff 40 	movl   $0xf2e9b740,-0xda0(%rbp)
   16651:	b7 e9 f2 
   16654:	c7 85 64 f2 ff ff ff 	movl   $0xffffffff,-0xd9c(%rbp)
   1665b:	ff ff ff 
   1665e:	c7 85 68 f2 ff ff 01 	movl   $0x1,-0xd98(%rbp)
   16665:	00 00 00 
   16668:	c7 85 6c f2 ff ff 88 	movl   $0xe1501f88,-0xd94(%rbp)
   1666f:	1f 50 e1 
   16672:	c7 85 70 f2 ff ff 27 	movl   $0x9caae927,-0xd90(%rbp)
   16679:	e9 aa 9c 
   1667c:	c7 85 74 f2 ff ff 88 	movl   $0xe1501f88,-0xd8c(%rbp)
   16683:	1f 50 e1 
   16686:	c7 85 78 f2 ff ff ab 	movl   $0x9e83a1ab,-0xd88(%rbp)
   1668d:	a1 83 9e 
   16690:	c7 85 7c f2 ff ff ff 	movl   $0xffffffff,-0xd84(%rbp)
   16697:	ff ff ff 
   1669a:	c7 85 80 f2 ff ff ab 	movl   $0x9e83a1ab,-0xd80(%rbp)
   166a1:	a1 83 9e 
   166a4:	c7 85 84 f2 ff ff 53 	movl   $0x4e53ec53,-0xd7c(%rbp)
   166ab:	ec 53 4e 
   166ae:	c7 85 88 f2 ff ff 03 	movl   $0x3,-0xd78(%rbp)
   166b5:	00 00 00 
   166b8:	c7 85 8c f2 ff ff 01 	movl   $0x1,-0xd74(%rbp)
   166bf:	00 00 00 
   166c2:	c7 85 90 f2 ff ff 00 	movl   $0x0,-0xd70(%rbp)
   166c9:	00 00 00 
   166cc:	c7 85 94 f2 ff ff fb 	movl   $0xfffffffb,-0xd6c(%rbp)
   166d3:	ff ff ff 
   166d6:	c7 85 98 f2 ff ff ab 	movl   $0x9e83a1ab,-0xd68(%rbp)
   166dd:	a1 83 9e 
   166e0:	c7 85 9c f2 ff ff 00 	movl   $0x0,-0xd64(%rbp)
   166e7:	00 00 00 
   166ea:	c7 85 a0 f2 ff ff ff 	movl   $0xffffffff,-0xd60(%rbp)
   166f1:	ff ff ff 
   166f4:	c7 85 a4 f2 ff ff 88 	movl   $0xe1501f88,-0xd5c(%rbp)
   166fb:	1f 50 e1 
   166fe:	83 bd 44 ed ff ff 00 	cmpl   $0x0,-0x12bc(%rbp)
   16705:	75 27                	jne    1672e <func_76+0x157f>
   16707:	8b 85 70 f2 ff ff    	mov    -0xd90(%rbp),%eax
   1670d:	83 e8 01             	sub    $0x1,%eax
   16710:	89 85 70 f2 ff ff    	mov    %eax,-0xd90(%rbp)
   16716:	48 83 ad d8 ee ff ff 	subq   $0x1,-0x1128(%rbp)
   1671d:	01 
   1671e:	48 83 bd d8 ee ff ff 	cmpq   $0x0,-0x1128(%rbp)
   16725:	00 
   16726:	0f 89 b6 fd ff ff    	jns    164e2 <func_76+0x1333>
   1672c:	eb 01                	jmp    1672f <func_76+0x1580>
   1672e:	90                   	nop
   1672f:	80 85 66 ed ff ff 01 	addb   $0x1,-0x129a(%rbp)
   16736:	80 bd 66 ed ff ff 05 	cmpb   $0x5,-0x129a(%rbp)
   1673d:	0f 86 aa fb ff ff    	jbe    162ed <func_76+0x113e>
   16743:	48 8b 05 f6 dc 00 00 	mov    0xdcf6(%rip),%rax        # 24440 <g_431>
   1674a:	48 83 c0 01          	add    $0x1,%rax
   1674e:	48 89 05 eb dc 00 00 	mov    %rax,0xdceb(%rip)        # 24440 <g_431>
   16755:	48 8b 05 e4 dc 00 00 	mov    0xdce4(%rip),%rax        # 24440 <g_431>
   1675c:	48 83 f8 01          	cmp    $0x1,%rax
   16760:	0f 8e b2 f7 ff ff    	jle    15f18 <func_76+0xd69>
   16766:	eb 04                	jmp    1676c <func_76+0x15bd>
   16768:	90                   	nop
   16769:	eb 01                	jmp    1676c <func_76+0x15bd>
   1676b:	90                   	nop
   1676c:	c7 85 c0 ed ff ff 00 	movl   $0x0,-0x1240(%rbp)
   16773:	00 00 00 
   16776:	e9 47 0c 00 00       	jmpq   173c2 <func_76+0x2213>
   1677b:	48 8d 05 72 dc 00 00 	lea    0xdc72(%rip),%rax        # 243f4 <g_286>
   16782:	48 89 85 f8 ee ff ff 	mov    %rax,-0x1108(%rbp)
   16789:	c7 85 f0 ed ff ff 8b 	movl   $0x15f9bf8b,-0x1210(%rbp)
   16790:	bf f9 15 
   16793:	48 c7 85 00 ef ff ff 	movq   $0x0,-0x1100(%rbp)
   1679a:	00 00 00 00 
   1679e:	48 c7 85 00 f2 ff ff 	movq   $0x0,-0xe00(%rbp)
   167a5:	00 00 00 00 
   167a9:	48 c7 85 08 f2 ff ff 	movq   $0x0,-0xdf8(%rbp)
   167b0:	00 00 00 00 
   167b4:	48 c7 85 10 f2 ff ff 	movq   $0x0,-0xdf0(%rbp)
   167bb:	00 00 00 00 
   167bf:	48 c7 85 18 f2 ff ff 	movq   $0x0,-0xde8(%rbp)
   167c6:	00 00 00 00 
   167ca:	48 c7 85 20 f2 ff ff 	movq   $0x0,-0xde0(%rbp)
   167d1:	00 00 00 00 
   167d5:	48 c7 85 28 f2 ff ff 	movq   $0x0,-0xdd8(%rbp)
   167dc:	00 00 00 00 
   167e0:	48 c7 85 30 f2 ff ff 	movq   $0x0,-0xdd0(%rbp)
   167e7:	00 00 00 00 
   167eb:	48 c7 85 38 f2 ff ff 	movq   $0x0,-0xdc8(%rbp)
   167f2:	00 00 00 00 
   167f6:	48 c7 85 40 f2 ff ff 	movq   $0x0,-0xdc0(%rbp)
   167fd:	00 00 00 00 
   16801:	48 8d 05 e4 db 00 00 	lea    0xdbe4(%rip),%rax        # 243ec <g_161>
   16808:	48 89 85 48 f2 ff ff 	mov    %rax,-0xdb8(%rbp)
   1680f:	48 8d 05 d6 db 00 00 	lea    0xdbd6(%rip),%rax        # 243ec <g_161>
   16816:	48 89 85 50 f2 ff ff 	mov    %rax,-0xdb0(%rbp)
   1681d:	48 8d 05 b0 dc 00 00 	lea    0xdcb0(%rip),%rax        # 244d4 <g_892>
   16824:	48 89 85 58 f2 ff ff 	mov    %rax,-0xda8(%rbp)
   1682b:	48 8d 05 a2 dc 00 00 	lea    0xdca2(%rip),%rax        # 244d4 <g_892>
   16832:	48 89 85 60 f2 ff ff 	mov    %rax,-0xda0(%rbp)
   16839:	48 8d 05 ac db 00 00 	lea    0xdbac(%rip),%rax        # 243ec <g_161>
   16840:	48 89 85 68 f2 ff ff 	mov    %rax,-0xd98(%rbp)
   16847:	48 8d 05 9e db 00 00 	lea    0xdb9e(%rip),%rax        # 243ec <g_161>
   1684e:	48 89 85 70 f2 ff ff 	mov    %rax,-0xd90(%rbp)
   16855:	48 8d 05 78 dc 00 00 	lea    0xdc78(%rip),%rax        # 244d4 <g_892>
   1685c:	48 89 85 78 f2 ff ff 	mov    %rax,-0xd88(%rbp)
   16863:	48 8d 05 6a dc 00 00 	lea    0xdc6a(%rip),%rax        # 244d4 <g_892>
   1686a:	48 89 85 80 f2 ff ff 	mov    %rax,-0xd80(%rbp)
   16871:	48 8d 05 74 db 00 00 	lea    0xdb74(%rip),%rax        # 243ec <g_161>
   16878:	48 89 85 88 f2 ff ff 	mov    %rax,-0xd78(%rbp)
   1687f:	48 8d 85 00 f2 ff ff 	lea    -0xe00(%rbp),%rax
   16886:	48 83 c0 28          	add    $0x28,%rax
   1688a:	48 89 85 08 ef ff ff 	mov    %rax,-0x10f8(%rbp)
   16891:	c7 85 94 ed ff ff 04 	movl   $0x4,-0x126c(%rbp)
   16898:	00 00 00 
   1689b:	c7 85 f4 ed ff ff 65 	movl   $0x17413d65,-0x120c(%rbp)
   168a2:	3d 41 17 
   168a5:	c7 85 98 ed ff ff ff 	movl   $0xffffffff,-0x1268(%rbp)
   168ac:	ff ff ff 
   168af:	c7 85 9c ed ff ff 26 	movl   $0x74729f26,-0x1264(%rbp)
   168b6:	9f 72 74 
   168b9:	c7 85 a0 ed ff ff f1 	movl   $0x8f25dff1,-0x1260(%rbp)
   168c0:	df 25 8f 
   168c3:	c7 85 f8 ed ff ff 00 	movl   $0x0,-0x1208(%rbp)
   168ca:	00 00 00 
   168cd:	48 b8 a7 aa e9 a5 e7 	movabs $0x59a6cbe7a5e9aaa7,%rax
   168d4:	cb a6 59 
   168d7:	48 89 85 38 ee ff ff 	mov    %rax,-0x11c8(%rbp)
   168de:	48 b8 5a 4e aa 2f 2a 	movabs $0x1b193c2a2faa4e5a,%rax
   168e5:	3c 19 1b 
   168e8:	48 89 85 40 ee ff ff 	mov    %rax,-0x11c0(%rbp)
   168ef:	c6 85 68 ed ff ff fa 	movb   $0xfa,-0x1298(%rbp)
   168f6:	48 8d 05 f9 da 00 00 	lea    0xdaf9(%rip),%rax        # 243f6 <g_315>
   168fd:	48 89 85 10 ef ff ff 	mov    %rax,-0x10f0(%rbp)
   16904:	48 8d 05 eb da 00 00 	lea    0xdaeb(%rip),%rax        # 243f6 <g_315>
   1690b:	48 89 85 18 ef ff ff 	mov    %rax,-0x10e8(%rbp)
   16912:	48 8d 85 90 ed ff ff 	lea    -0x1270(%rbp),%rax
   16919:	48 89 85 20 ef ff ff 	mov    %rax,-0x10e0(%rbp)
   16920:	c7 85 e0 ed ff ff 00 	movl   $0x0,-0x1220(%rbp)
   16927:	00 00 00 
   1692a:	eb 50                	jmp    1697c <func_76+0x17cd>
   1692c:	c7 85 d4 ed ff ff 00 	movl   $0x0,-0x122c(%rbp)
   16933:	00 00 00 
   16936:	eb 34                	jmp    1696c <func_76+0x17bd>
   16938:	8b 85 d4 ed ff ff    	mov    -0x122c(%rbp),%eax
   1693e:	48 63 c8             	movslq %eax,%rcx
   16941:	8b 85 e0 ed ff ff    	mov    -0x1220(%rbp),%eax
   16947:	48 63 d0             	movslq %eax,%rdx
   1694a:	48 89 d0             	mov    %rdx,%rax
   1694d:	48 c1 e0 02          	shl    $0x2,%rax
   16951:	48 01 d0             	add    %rdx,%rax
   16954:	48 01 c0             	add    %rax,%rax
   16957:	48 01 c8             	add    %rcx,%rax
   1695a:	c7 84 85 f0 ef ff ff 	movl   $0xde2794af,-0x1010(%rbp,%rax,4)
   16961:	af 94 27 de 
   16965:	83 85 d4 ed ff ff 01 	addl   $0x1,-0x122c(%rbp)
   1696c:	83 bd d4 ed ff ff 09 	cmpl   $0x9,-0x122c(%rbp)
   16973:	7e c3                	jle    16938 <func_76+0x1789>
   16975:	83 85 e0 ed ff ff 01 	addl   $0x1,-0x1220(%rbp)
   1697c:	83 bd e0 ed ff ff 00 	cmpl   $0x0,-0x1220(%rbp)
   16983:	7e a7                	jle    1692c <func_76+0x177d>
   16985:	c7 85 e0 ed ff ff 00 	movl   $0x0,-0x1220(%rbp)
   1698c:	00 00 00 
   1698f:	eb 51                	jmp    169e2 <func_76+0x1833>
   16991:	c7 85 d4 ed ff ff 00 	movl   $0x0,-0x122c(%rbp)
   16998:	00 00 00 
   1699b:	eb 35                	jmp    169d2 <func_76+0x1823>
   1699d:	8b 85 d4 ed ff ff    	mov    -0x122c(%rbp),%eax
   169a3:	48 63 c8             	movslq %eax,%rcx
   169a6:	8b 85 e0 ed ff ff    	mov    -0x1220(%rbp),%eax
   169ac:	48 63 d0             	movslq %eax,%rdx
   169af:	48 89 d0             	mov    %rdx,%rax
   169b2:	48 c1 e0 03          	shl    $0x3,%rax
   169b6:	48 01 d0             	add    %rdx,%rax
   169b9:	48 01 c8             	add    %rcx,%rax
   169bc:	48 8d 15 7d 09 01 00 	lea    0x1097d(%rip),%rdx        # 27340 <g_297+0xa0>
   169c3:	48 89 94 c5 b0 f2 ff 	mov    %rdx,-0xd50(%rbp,%rax,8)
   169ca:	ff 
   169cb:	83 85 d4 ed ff ff 01 	addl   $0x1,-0x122c(%rbp)
   169d2:	83 bd d4 ed ff ff 08 	cmpl   $0x8,-0x122c(%rbp)
   169d9:	7e c2                	jle    1699d <func_76+0x17ee>
   169db:	83 85 e0 ed ff ff 01 	addl   $0x1,-0x1220(%rbp)
   169e2:	83 bd e0 ed ff ff 01 	cmpl   $0x1,-0x1220(%rbp)
   169e9:	7e a6                	jle    16991 <func_76+0x17e2>
   169eb:	48 8b 85 08 ef ff ff 	mov    -0x10f8(%rbp),%rax
   169f2:	48 8b 95 70 ee ff ff 	mov    -0x1190(%rbp),%rdx
   169f9:	48 89 10             	mov    %rdx,(%rax)
   169fc:	48 8b 85 08 ef ff ff 	mov    -0x10f8(%rbp),%rax
   16a03:	48 8b 00             	mov    (%rax),%rax
   16a06:	48 39 85 70 ee ff ff 	cmp    %rax,-0x1190(%rbp)
   16a0d:	0f 94 c0             	sete   %al
   16a10:	0f b6 d0             	movzbl %al,%edx
   16a13:	0f b6 85 5f ed ff ff 	movzbl -0x12a1(%rbp),%eax
   16a1a:	0f be c0             	movsbl %al,%eax
   16a1d:	39 c2                	cmp    %eax,%edx
   16a1f:	48 8b 05 1a 0c 01 00 	mov    0x10c1a(%rip),%rax        # 27640 <g_566>
   16a26:	48 8b 00             	mov    (%rax),%rax
   16a29:	48 8b 00             	mov    (%rax),%rax
   16a2c:	48 8b 00             	mov    (%rax),%rax
   16a2f:	0f b6 85 5f ed ff ff 	movzbl -0x12a1(%rbp),%eax
   16a36:	0f be c0             	movsbl %al,%eax
   16a39:	8b 95 58 ed ff ff    	mov    -0x12a8(%rbp),%edx
   16a3f:	81 e2 ff ff 0f 00    	and    $0xfffff,%edx
   16a45:	39 d0                	cmp    %edx,%eax
   16a47:	0f 9c c0             	setl   %al
   16a4a:	0f b6 d0             	movzbl %al,%edx
   16a4d:	48 8b 85 f8 ee ff ff 	mov    -0x1108(%rbp),%rax
   16a54:	66 89 10             	mov    %dx,(%rax)
   16a57:	48 8d 05 4a 15 01 00 	lea    0x1154a(%rip),%rax        # 27fa8 <g_1312+0xa8>
   16a5e:	48 89 85 90 f1 ff ff 	mov    %rax,-0xe70(%rbp)
   16a65:	48 8d 05 3c 15 01 00 	lea    0x1153c(%rip),%rax        # 27fa8 <g_1312+0xa8>
   16a6c:	48 89 85 98 f1 ff ff 	mov    %rax,-0xe68(%rbp)
   16a73:	48 8d 05 2e 15 01 00 	lea    0x1152e(%rip),%rax        # 27fa8 <g_1312+0xa8>
   16a7a:	48 89 85 a0 f1 ff ff 	mov    %rax,-0xe60(%rbp)
   16a81:	48 8d 05 20 15 01 00 	lea    0x11520(%rip),%rax        # 27fa8 <g_1312+0xa8>
   16a88:	48 89 85 a8 f1 ff ff 	mov    %rax,-0xe58(%rbp)
   16a8f:	48 8d 05 12 15 01 00 	lea    0x11512(%rip),%rax        # 27fa8 <g_1312+0xa8>
   16a96:	48 89 85 b0 f1 ff ff 	mov    %rax,-0xe50(%rbp)
   16a9d:	48 8d 05 04 15 01 00 	lea    0x11504(%rip),%rax        # 27fa8 <g_1312+0xa8>
   16aa4:	48 89 85 b8 f1 ff ff 	mov    %rax,-0xe48(%rbp)
   16aab:	48 8d 05 f6 14 01 00 	lea    0x114f6(%rip),%rax        # 27fa8 <g_1312+0xa8>
   16ab2:	48 89 85 c0 f1 ff ff 	mov    %rax,-0xe40(%rbp)
   16ab9:	48 8d 05 e8 14 01 00 	lea    0x114e8(%rip),%rax        # 27fa8 <g_1312+0xa8>
   16ac0:	48 89 85 c8 f1 ff ff 	mov    %rax,-0xe38(%rbp)
   16ac7:	48 8d 05 da 14 01 00 	lea    0x114da(%rip),%rax        # 27fa8 <g_1312+0xa8>
   16ace:	48 89 85 d0 f1 ff ff 	mov    %rax,-0xe30(%rbp)
   16ad5:	c7 85 fc ed ff ff 62 	movl   $0x6b093b62,-0x1204(%rbp)
   16adc:	3b 09 6b 
   16adf:	48 8d 05 11 d9 00 00 	lea    0xd911(%rip),%rax        # 243f7 <g_336>
   16ae6:	48 89 85 28 ef ff ff 	mov    %rax,-0x10d8(%rbp)
   16aed:	66 c7 85 72 ed ff ff 	movw   $0xffff,-0x128e(%rbp)
   16af4:	ff ff 
   16af6:	48 8d 85 9c ed ff ff 	lea    -0x1264(%rbp),%rax
   16afd:	48 89 85 30 ef ff ff 	mov    %rax,-0x10d0(%rbp)
   16b04:	c7 85 f4 ed ff ff 00 	movl   $0x0,-0x120c(%rbp)
   16b0b:	00 00 00 
   16b0e:	83 bd f4 ed ff ff 01 	cmpl   $0x1,-0x120c(%rbp)
   16b15:	7f 5d                	jg     16b74 <func_76+0x19c5>
   16b17:	48 8d 85 88 ed ff ff 	lea    -0x1278(%rbp),%rax
   16b1e:	48 89 85 78 ef ff ff 	mov    %rax,-0x1088(%rbp)
   16b25:	48 8b 05 34 13 01 00 	mov    0x11334(%rip),%rax        # 27e60 <g_1283>
   16b2c:	c7 00 06 00 ff ff    	movl   $0xffff0006,(%rax)
   16b32:	0f b6 85 5f ed ff ff 	movzbl -0x12a1(%rbp),%eax
   16b39:	0f be d0             	movsbl %al,%edx
   16b3c:	48 8b 85 50 ed ff ff 	mov    -0x12b0(%rbp),%rax
   16b43:	0f b6 00             	movzbl (%rax),%eax
   16b46:	0f be c0             	movsbl %al,%eax
   16b49:	89 d6                	mov    %edx,%esi
   16b4b:	89 c7                	mov    %eax,%edi
   16b4d:	e8 18 47 ff ff       	callq  b26a <safe_div_func_int8_t_s_s>
   16b52:	0f be c0             	movsbl %al,%eax
   16b55:	89 c7                	mov    %eax,%edi
   16b57:	e8 41 48 ff ff       	callq  b39d <safe_unary_minus_func_int16_t_s>
   16b5c:	0f bf d0             	movswl %ax,%edx
   16b5f:	48 8b 85 78 ef ff ff 	mov    -0x1088(%rbp),%rax
   16b66:	89 10                	mov    %edx,(%rax)
   16b68:	48 8b 05 09 25 01 00 	mov    0x12509(%rip),%rax        # 29078 <g_1288>
   16b6f:	e9 8c 08 00 00       	jmpq   17400 <func_76+0x2251>
   16b74:	48 8b 85 48 ed ff ff 	mov    -0x12b8(%rbp),%rax
   16b7b:	48 8d 95 7c ed ff ff 	lea    -0x1284(%rbp),%rdx
   16b82:	48 89 10             	mov    %rdx,(%rax)
   16b85:	48 8b 05 34 d7 00 00 	mov    0xd734(%rip),%rax        # 242c0 <g_141+0xc0>
   16b8c:	0f be d8             	movsbl %al,%ebx
   16b8f:	4c 8b a5 38 ee ff ff 	mov    -0x11c8(%rbp),%r12
   16b96:	48 8b 85 80 ee ff ff 	mov    -0x1180(%rbp),%rax
   16b9d:	8b 00                	mov    (%rax),%eax
   16b9f:	85 c0                	test   %eax,%eax
   16ba1:	0f 94 c0             	sete   %al
   16ba4:	0f b6 c0             	movzbl %al,%eax
   16ba7:	89 85 40 ed ff ff    	mov    %eax,-0x12c0(%rbp)
   16bad:	8b 85 44 ed ff ff    	mov    -0x12bc(%rbp),%eax
   16bb3:	4c 63 e8             	movslq %eax,%r13
   16bb6:	0f b7 85 72 ed ff ff 	movzwl -0x128e(%rbp),%eax
   16bbd:	44 0f be f0          	movsbl %al,%r14d
   16bc1:	48 8b 85 80 ee ff ff 	mov    -0x1180(%rbp),%rax
   16bc8:	8b 00                	mov    (%rax),%eax
   16bca:	89 85 3c ed ff ff    	mov    %eax,-0x12c4(%rbp)
   16bd0:	8b 85 fc ed ff ff    	mov    -0x1204(%rbp),%eax
   16bd6:	4c 63 f8             	movslq %eax,%r15
   16bd9:	48 8b 05 c8 13 01 00 	mov    0x113c8(%rip),%rax        # 27fa8 <g_1312+0xa8>
   16be0:	48 89 05 c1 13 01 00 	mov    %rax,0x113c1(%rip)        # 27fa8 <g_1312+0xa8>
   16be7:	48 8b 05 ba 13 01 00 	mov    0x113ba(%rip),%rax        # 27fa8 <g_1312+0xa8>
   16bee:	48 8d 15 b3 12 01 00 	lea    0x112b3(%rip),%rdx        # 27ea8 <g_1313+0x28>
   16bf5:	48 39 d0             	cmp    %rdx,%rax
   16bf8:	0f 95 c0             	setne  %al
   16bfb:	0f b6 c0             	movzbl %al,%eax
   16bfe:	39 85 44 ed ff ff    	cmp    %eax,-0x12bc(%rbp)
   16c04:	be e1 68 11 c0       	mov    $0xc01168e1,%esi
   16c09:	bf 01 00 00 00       	mov    $0x1,%edi
   16c0e:	e8 a3 49 ff ff       	callq  b5b6 <safe_add_func_int32_t_s_s>
   16c13:	85 c0                	test   %eax,%eax
   16c15:	0f 94 c0             	sete   %al
   16c18:	0f b6 c0             	movzbl %al,%eax
   16c1b:	be d8 ff ff ff       	mov    $0xffffffd8,%esi
   16c20:	89 c7                	mov    %eax,%edi
   16c22:	e8 43 46 ff ff       	callq  b26a <safe_div_func_int8_t_s_s>
   16c27:	0f be d0             	movsbl %al,%edx
   16c2a:	48 8b 85 80 ee ff ff 	mov    -0x1180(%rbp),%rax
   16c31:	8b 00                	mov    (%rax),%eax
   16c33:	39 c2                	cmp    %eax,%edx
   16c35:	0f 9e c0             	setle  %al
   16c38:	0f b6 c0             	movzbl %al,%eax
   16c3b:	48 c7 c6 fc ff ff ff 	mov    $0xfffffffffffffffc,%rsi
   16c42:	48 89 c7             	mov    %rax,%rdi
   16c45:	e8 ad 4d ff ff       	callq  b9f7 <safe_div_func_int64_t_s_s>
   16c4a:	89 c6                	mov    %eax,%esi
   16c4c:	bf e2 54 d4 bc       	mov    $0xbcd454e2,%edi
   16c51:	e8 62 52 ff ff       	callq  beb8 <safe_add_func_uint32_t_u_u>
   16c56:	89 c0                	mov    %eax,%eax
   16c58:	4c 89 fe             	mov    %r15,%rsi
   16c5b:	48 89 c7             	mov    %rax,%rdi
   16c5e:	e8 1d 54 ff ff       	callq  c080 <safe_mod_func_uint64_t_u_u>
   16c63:	0f b7 c0             	movzwl %ax,%eax
   16c66:	8b b5 3c ed ff ff    	mov    -0x12c4(%rbp),%esi
   16c6c:	89 c7                	mov    %eax,%edi
   16c6e:	e8 07 52 ff ff       	callq  be7a <safe_rshift_func_uint16_t_u_u>
   16c73:	66 85 c0             	test   %ax,%ax
   16c76:	74 11                	je     16c89 <func_76+0x1ada>
   16c78:	8b 05 3a d4 00 00    	mov    0xd43a(%rip),%eax        # 240b8 <g_2+0x78>
   16c7e:	85 c0                	test   %eax,%eax
   16c80:	74 07                	je     16c89 <func_76+0x1ada>
   16c82:	b8 01 00 00 00       	mov    $0x1,%eax
   16c87:	eb 05                	jmp    16c8e <func_76+0x1adf>
   16c89:	b8 00 00 00 00       	mov    $0x0,%eax
   16c8e:	48 98                	cltq   
   16c90:	48 89 c7             	mov    %rax,%rdi
   16c93:	e8 7e 4b ff ff       	callq  b816 <safe_unary_minus_func_int64_t_s>
   16c98:	48 8b 05 a1 09 01 00 	mov    0x109a1(%rip),%rax        # 27640 <g_566>
   16c9f:	48 8b 00             	mov    (%rax),%rax
   16ca2:	48 8d 15 2f 09 01 00 	lea    0x1092f(%rip),%rdx        # 275d8 <g_371+0x18>
   16ca9:	48 39 d0             	cmp    %rdx,%rax
   16cac:	0f 95 c0             	setne  %al
   16caf:	89 c2                	mov    %eax,%edx
   16cb1:	48 8b 85 50 ed ff ff 	mov    -0x12b0(%rbp),%rax
   16cb8:	88 10                	mov    %dl,(%rax)
   16cba:	48 8b 85 50 ed ff ff 	mov    -0x12b0(%rbp),%rax
   16cc1:	0f b6 10             	movzbl (%rax),%edx
   16cc4:	48 8b 85 28 ef ff ff 	mov    -0x10d8(%rbp),%rax
   16ccb:	88 10                	mov    %dl,(%rax)
   16ccd:	48 8b 85 28 ef ff ff 	mov    -0x10d8(%rbp),%rax
   16cd4:	0f b6 00             	movzbl (%rax),%eax
   16cd7:	0f be c0             	movsbl %al,%eax
   16cda:	44 89 f6             	mov    %r14d,%esi
   16cdd:	89 c7                	mov    %eax,%edi
   16cdf:	e8 4d 45 ff ff       	callq  b231 <safe_mod_func_int8_t_s_s>
   16ce4:	48 8b 15 15 09 01 00 	mov    0x10915(%rip),%rdx        # 27600 <g_501>
   16ceb:	0f b6 12             	movzbl (%rdx),%edx
   16cee:	38 d0                	cmp    %dl,%al
   16cf0:	0f 9e c0             	setle  %al
   16cf3:	0f b6 c0             	movzbl %al,%eax
   16cf6:	4c 89 ee             	mov    %r13,%rsi
   16cf9:	48 89 c7             	mov    %rax,%rdi
   16cfc:	e8 f6 4c ff ff       	callq  b9f7 <safe_div_func_int64_t_s_s>
   16d01:	48 85 c0             	test   %rax,%rax
   16d04:	74 07                	je     16d0d <func_76+0x1b5e>
   16d06:	b8 01 00 00 00       	mov    $0x1,%eax
   16d0b:	eb 05                	jmp    16d12 <func_76+0x1b63>
   16d0d:	b8 00 00 00 00       	mov    $0x0,%eax
   16d12:	3b 85 44 ed ff ff    	cmp    -0x12bc(%rbp),%eax
   16d18:	0f 9e c0             	setle  %al
   16d1b:	0f b6 d0             	movzbl %al,%edx
   16d1e:	48 8b 05 fb 04 01 00 	mov    0x104fb(%rip),%rax        # 27220 <g_13>
   16d25:	8b 00                	mov    (%rax),%eax
   16d27:	21 c2                	and    %eax,%edx
   16d29:	0f b6 45 c6          	movzbl -0x3a(%rbp),%eax
   16d2d:	0f b6 c0             	movzbl %al,%eax
   16d30:	39 c2                	cmp    %eax,%edx
   16d32:	0f 9e c0             	setle  %al
   16d35:	0f b6 d0             	movzbl %al,%edx
   16d38:	0f bf 85 72 ed ff ff 	movswl -0x128e(%rbp),%eax
   16d3f:	21 d0                	and    %edx,%eax
   16d41:	39 85 40 ed ff ff    	cmp    %eax,-0x12c0(%rbp)
   16d47:	0f 9c c0             	setl   %al
   16d4a:	0f b6 c0             	movzbl %al,%eax
   16d4d:	4c 89 e6             	mov    %r12,%rsi
   16d50:	48 89 c7             	mov    %rax,%rdi
   16d53:	e8 9f 4c ff ff       	callq  b9f7 <safe_div_func_int64_t_s_s>
   16d58:	48 8b 05 01 11 01 00 	mov    0x11101(%rip),%rax        # 27e60 <g_1283>
   16d5f:	48 8b 95 80 ee ff ff 	mov    -0x1180(%rbp),%rdx
   16d66:	8b 12                	mov    (%rdx),%edx
   16d68:	89 10                	mov    %edx,(%rax)
   16d6a:	89 de                	mov    %ebx,%esi
   16d6c:	bf 02 00 00 00       	mov    $0x2,%edi
   16d71:	e8 9c 44 ff ff       	callq  b212 <safe_mul_func_int8_t_s_s>
   16d76:	48 8b 05 e3 0c 01 00 	mov    0x10ce3(%rip),%rax        # 27a60 <g_1099>
   16d7d:	48 8b 05 9c 04 01 00 	mov    0x1049c(%rip),%rax        # 27220 <g_13>
   16d84:	8b 10                	mov    (%rax),%edx
   16d86:	48 8b 85 30 ef ff ff 	mov    -0x10d0(%rbp),%rax
   16d8d:	89 10                	mov    %edx,(%rax)
   16d8f:	48 8b 85 30 ef ff ff 	mov    -0x10d0(%rbp),%rax
   16d96:	8b 00                	mov    (%rax),%eax
   16d98:	85 c0                	test   %eax,%eax
   16d9a:	0f 85 2f 06 00 00    	jne    173cf <func_76+0x2220>
   16da0:	48 c7 05 35 d6 00 00 	movq   $0x0,0xd635(%rip)        # 243e0 <g_143>
   16da7:	00 00 00 00 
   16dab:	e9 fa 05 00 00       	jmpq   173aa <func_76+0x21fb>
   16db0:	c7 85 a4 ed ff ff 5e 	movl   $0xf8bc675e,-0x125c(%rbp)
   16db7:	67 bc f8 
   16dba:	c7 85 00 ee ff ff 01 	movl   $0x1,-0x1200(%rbp)
   16dc1:	00 00 00 
   16dc4:	48 8d 05 2c d6 00 00 	lea    0xd62c(%rip),%rax        # 243f7 <g_336>
   16dcb:	48 89 85 38 ef ff ff 	mov    %rax,-0x10c8(%rbp)
   16dd2:	c7 85 f8 ed ff ff 01 	movl   $0x1,-0x1208(%rbp)
   16dd9:	00 00 00 
   16ddc:	83 bd f8 ed ff ff 00 	cmpl   $0x0,-0x1208(%rbp)
   16de3:	0f 88 af 05 00 00    	js     17398 <func_76+0x21e9>
   16de9:	c6 85 69 ed ff ff 8e 	movb   $0x8e,-0x1297(%rbp)
   16df0:	48 8d 85 a4 ed ff ff 	lea    -0x125c(%rbp),%rax
   16df7:	48 89 85 40 ef ff ff 	mov    %rax,-0x10c0(%rbp)
   16dfe:	48 8d 05 63 04 01 00 	lea    0x10463(%rip),%rax        # 27268 <g_89>
   16e05:	48 89 85 48 ef ff ff 	mov    %rax,-0x10b8(%rbp)
   16e0c:	48 8d 85 30 f0 ff ff 	lea    -0xfd0(%rbp),%rax
   16e13:	48 89 85 50 ef ff ff 	mov    %rax,-0x10b0(%rbp)
   16e1a:	c7 85 04 ee ff ff 01 	movl   $0x1,-0x11fc(%rbp)
   16e21:	00 00 00 
   16e24:	c7 85 d0 ed ff ff 00 	movl   $0x0,-0x1230(%rbp)
   16e2b:	00 00 00 
   16e2e:	eb 1e                	jmp    16e4e <func_76+0x1c9f>
   16e30:	8b 85 d0 ed ff ff    	mov    -0x1230(%rbp),%eax
   16e36:	48 98                	cltq   
   16e38:	48 8d 95 61 ed ff ff 	lea    -0x129f(%rbp),%rdx
   16e3f:	48 89 94 c5 30 f0 ff 	mov    %rdx,-0xfd0(%rbp,%rax,8)
   16e46:	ff 
   16e47:	83 85 d0 ed ff ff 01 	addl   $0x1,-0x1230(%rbp)
   16e4e:	83 bd d0 ed ff ff 08 	cmpl   $0x8,-0x1230(%rbp)
   16e55:	7e d9                	jle    16e30 <func_76+0x1c81>
   16e57:	c7 05 83 d6 00 00 00 	movl   $0x0,0xd683(%rip)        # 244e4 <g_1168>
   16e5e:	00 00 00 
   16e61:	90                   	nop
   16e62:	8b 05 7c d6 00 00    	mov    0xd67c(%rip),%eax        # 244e4 <g_1168>
   16e68:	83 f8 01             	cmp    $0x1,%eax
   16e6b:	0f 87 ad 01 00 00    	ja     1701e <func_76+0x1e6f>
   16e71:	c7 85 90 f1 ff ff e6 	movl   $0x2ba4aee6,-0xe70(%rbp)
   16e78:	ae a4 2b 
   16e7b:	c7 85 94 f1 ff ff d1 	movl   $0xf0d797d1,-0xe6c(%rbp)
   16e82:	97 d7 f0 
   16e85:	c7 85 98 f1 ff ff e6 	movl   $0x2ba4aee6,-0xe68(%rbp)
   16e8c:	ae a4 2b 
   16e8f:	c7 85 9c f1 ff ff e6 	movl   $0x2ba4aee6,-0xe64(%rbp)
   16e96:	ae a4 2b 
   16e99:	c7 85 a0 f1 ff ff d1 	movl   $0xf0d797d1,-0xe60(%rbp)
   16ea0:	97 d7 f0 
   16ea3:	c7 85 a4 f1 ff ff e6 	movl   $0x2ba4aee6,-0xe5c(%rbp)
   16eaa:	ae a4 2b 
   16ead:	c7 85 a8 f1 ff ff e6 	movl   $0x2ba4aee6,-0xe58(%rbp)
   16eb4:	ae a4 2b 
   16eb7:	c7 85 c8 ed ff ff 00 	movl   $0x0,-0x1238(%rbp)
   16ebe:	00 00 00 
   16ec1:	eb 1e                	jmp    16ee1 <func_76+0x1d32>
   16ec3:	8b 85 c8 ed ff ff    	mov    -0x1238(%rbp),%eax
   16ec9:	48 98                	cltq   
   16ecb:	48 8d 95 18 ee ff ff 	lea    -0x11e8(%rbp),%rdx
   16ed2:	48 89 94 c5 a0 ef ff 	mov    %rdx,-0x1060(%rbp,%rax,8)
   16ed9:	ff 
   16eda:	83 85 c8 ed ff ff 01 	addl   $0x1,-0x1238(%rbp)
   16ee1:	83 bd c8 ed ff ff 02 	cmpl   $0x2,-0x1238(%rbp)
   16ee8:	7e d9                	jle    16ec3 <func_76+0x1d14>
   16eea:	0f b6 05 e3 d5 00 00 	movzbl 0xd5e3(%rip),%eax        # 244d4 <g_892>
   16ef1:	0f b6 d8             	movzbl %al,%ebx
   16ef4:	48 8b 85 80 ee ff ff 	mov    -0x1180(%rbp),%rax
   16efb:	8b 00                	mov    (%rax),%eax
   16efd:	4c 63 e0             	movslq %eax,%r12
   16f00:	0f b6 05 cd d5 00 00 	movzbl 0xd5cd(%rip),%eax        # 244d4 <g_892>
   16f07:	3c 07                	cmp    $0x7,%al
   16f09:	75 0a                	jne    16f15 <func_76+0x1d66>
   16f0b:	8b 85 80 ed ff ff    	mov    -0x1280(%rbp),%eax
   16f11:	85 c0                	test   %eax,%eax
   16f13:	74 07                	je     16f1c <func_76+0x1d6d>
   16f15:	b8 01 00 00 00       	mov    $0x1,%eax
   16f1a:	eb 05                	jmp    16f21 <func_76+0x1d72>
   16f1c:	b8 00 00 00 00       	mov    $0x0,%eax
   16f21:	89 c2                	mov    %eax,%edx
   16f23:	8b 85 58 ed ff ff    	mov    -0x12a8(%rbp),%eax
   16f29:	25 ff ff 0f 00       	and    $0xfffff,%eax
   16f2e:	09 d0                	or     %edx,%eax
   16f30:	0f b6 d0             	movzbl %al,%edx
   16f33:	8b 85 00 ee ff ff    	mov    -0x1200(%rbp),%eax
   16f39:	0f b6 c0             	movzbl %al,%eax
   16f3c:	89 d6                	mov    %edx,%esi
   16f3e:	89 c7                	mov    %eax,%edi
   16f40:	e8 4e 4c ff ff       	callq  bb93 <safe_mul_func_uint8_t_u_u>
   16f45:	0f b6 c0             	movzbl %al,%eax
   16f48:	8b 95 58 ed ff ff    	mov    -0x12a8(%rbp),%edx
   16f4e:	81 e2 ff ff 0f 00    	and    $0xfffff,%edx
   16f54:	39 d0                	cmp    %edx,%eax
   16f56:	0f 95 c0             	setne  %al
   16f59:	0f b6 c0             	movzbl %al,%eax
   16f5c:	33 85 44 ed ff ff    	xor    -0x12bc(%rbp),%eax
   16f62:	48 98                	cltq   
   16f64:	48 89 c6             	mov    %rax,%rsi
   16f67:	bf 00 00 00 00       	mov    $0x0,%edi
   16f6c:	e8 d0 48 ff ff       	callq  b841 <safe_add_func_int64_t_s_s>
   16f71:	48 85 c0             	test   %rax,%rax
   16f74:	75 07                	jne    16f7d <func_76+0x1dce>
   16f76:	83 bd c4 ed ff ff 00 	cmpl   $0x0,-0x123c(%rbp)
   16f7d:	48 8d 05 c4 0a 01 00 	lea    0x10ac4(%rip),%rax        # 27a48 <g_1063+0x48>
   16f84:	48 8b 00             	mov    (%rax),%rax
   16f87:	0f b6 85 5f ed ff ff 	movzbl -0x12a1(%rbp),%eax
   16f8e:	3c 01                	cmp    $0x1,%al
   16f90:	0f 94 c0             	sete   %al
   16f93:	0f b6 c8             	movzbl %al,%ecx
   16f96:	48 8b 05 b3 0e 01 00 	mov    0x10eb3(%rip),%rax        # 27e50 <g_1266>
   16f9d:	8b 10                	mov    (%rax),%edx
   16f9f:	48 8b 05 aa 0e 01 00 	mov    0x10eaa(%rip),%rax        # 27e50 <g_1266>
   16fa6:	09 ca                	or     %ecx,%edx
   16fa8:	89 10                	mov    %edx,(%rax)
   16faa:	8b 10                	mov    (%rax),%edx
   16fac:	0f b6 85 5f ed ff ff 	movzbl -0x12a1(%rbp),%eax
   16fb3:	0f be c0             	movsbl %al,%eax
   16fb6:	39 c2                	cmp    %eax,%edx
   16fb8:	0f 95 c0             	setne  %al
   16fbb:	0f b6 d0             	movzbl %al,%edx
   16fbe:	8b 85 a4 ed ff ff    	mov    -0x125c(%rbp),%eax
   16fc4:	83 e8 01             	sub    $0x1,%eax
   16fc7:	89 85 a4 ed ff ff    	mov    %eax,-0x125c(%rbp)
   16fcd:	8b 85 a4 ed ff ff    	mov    -0x125c(%rbp),%eax
   16fd3:	0f b7 c0             	movzwl %ax,%eax
   16fd6:	89 d6                	mov    %edx,%esi
   16fd8:	89 c7                	mov    %eax,%edi
   16fda:	e8 40 4d ff ff       	callq  bd1f <safe_sub_func_uint16_t_u_u>
   16fdf:	0f b7 c0             	movzwl %ax,%eax
   16fe2:	4c 89 e6             	mov    %r12,%rsi
   16fe5:	48 89 c7             	mov    %rax,%rdi
   16fe8:	e8 5e 50 ff ff       	callq  c04b <safe_sub_func_uint64_t_u_u>
   16fed:	89 85 00 ee ff ff    	mov    %eax,-0x1200(%rbp)
   16ff3:	8b 85 00 ee ff ff    	mov    -0x1200(%rbp),%eax
   16ff9:	48 98                	cltq   
   16ffb:	48 89 de             	mov    %rbx,%rsi
   16ffe:	48 89 c7             	mov    %rax,%rdi
   17001:	e8 28 50 ff ff       	callq  c02e <safe_add_func_uint64_t_u_u>
   17006:	48 89 c2             	mov    %rax,%rdx
   17009:	48 8b 05 50 0e 01 00 	mov    0x10e50(%rip),%rax        # 27e60 <g_1283>
   17010:	89 10                	mov    %edx,(%rax)
   17012:	48 8b 85 a0 ee ff ff 	mov    -0x1160(%rbp),%rax
   17019:	e9 e2 03 00 00       	jmpq   17400 <func_76+0x2251>
   1701e:	c7 85 7c ed ff ff 00 	movl   $0x0,-0x1284(%rbp)
   17025:	00 00 00 
   17028:	eb 2c                	jmp    17056 <func_76+0x1ea7>
   1702a:	48 c7 85 70 ef ff ff 	movq   $0x0,-0x1090(%rbp)
   17031:	00 00 00 00 
   17035:	48 8b 05 84 0f 01 00 	mov    0x10f84(%rip),%rax        # 27fc0 <g_1346>
   1703c:	48 8b 95 80 ee ff ff 	mov    -0x1180(%rbp),%rdx
   17043:	8b 12                	mov    (%rdx),%edx
   17045:	89 10                	mov    %edx,(%rax)
   17047:	8b 85 7c ed ff ff    	mov    -0x1284(%rbp),%eax
   1704d:	83 c0 01             	add    $0x1,%eax
   17050:	89 85 7c ed ff ff    	mov    %eax,-0x1284(%rbp)
   17056:	8b 85 7c ed ff ff    	mov    -0x1284(%rbp),%eax
   1705c:	83 f8 01             	cmp    $0x1,%eax
   1705f:	7e c9                	jle    1702a <func_76+0x1e7b>
   17061:	8b 85 a4 ed ff ff    	mov    -0x125c(%rbp),%eax
   17067:	41 89 c4             	mov    %eax,%r12d
   1706a:	8b 85 94 ed ff ff    	mov    -0x126c(%rbp),%eax
   17070:	0f b7 d8             	movzwl %ax,%ebx
   17073:	48 8b 85 48 ef ff ff 	mov    -0x10b8(%rbp),%rax
   1707a:	48 8b 95 38 ef ff ff 	mov    -0x10c8(%rbp),%rdx
   17081:	48 89 10             	mov    %rdx,(%rax)
   17084:	48 8b 85 48 ef ff ff 	mov    -0x10b8(%rbp),%rax
   1708b:	48 8b 10             	mov    (%rax),%rdx
   1708e:	48 8b 85 50 ef ff ff 	mov    -0x10b0(%rbp),%rax
   17095:	48 8d 0d de d0 00 00 	lea    0xd0de(%rip),%rcx        # 2417a <g_90+0x1a>
   1709c:	48 89 08             	mov    %rcx,(%rax)
   1709f:	48 8b 85 50 ef ff ff 	mov    -0x10b0(%rbp),%rax
   170a6:	48 8b 00             	mov    (%rax),%rax
   170a9:	48 39 c2             	cmp    %rax,%rdx
   170ac:	0f 95 c0             	setne  %al
   170af:	0f b6 c0             	movzbl %al,%eax
   170b2:	31 85 00 ee ff ff    	xor    %eax,-0x1200(%rbp)
   170b8:	48 8b 05 01 0f 01 00 	mov    0x10f01(%rip),%rax        # 27fc0 <g_1346>
   170bf:	8b 00                	mov    (%rax),%eax
   170c1:	85 c0                	test   %eax,%eax
   170c3:	75 0d                	jne    170d2 <func_76+0x1f23>
   170c5:	48 8b 85 80 ee ff ff 	mov    -0x1180(%rbp),%rax
   170cc:	8b 00                	mov    (%rax),%eax
   170ce:	85 c0                	test   %eax,%eax
   170d0:	74 07                	je     170d9 <func_76+0x1f2a>
   170d2:	b8 01 00 00 00       	mov    $0x1,%eax
   170d7:	eb 05                	jmp    170de <func_76+0x1f2f>
   170d9:	b8 00 00 00 00       	mov    $0x0,%eax
   170de:	0f b7 c0             	movzwl %ax,%eax
   170e1:	89 c6                	mov    %eax,%esi
   170e3:	bf 07 00 00 00       	mov    $0x7,%edi
   170e8:	e8 12 4c ff ff       	callq  bcff <safe_add_func_uint16_t_u_u>
   170ed:	89 c7                	mov    %eax,%edi
   170ef:	8b 85 58 ed ff ff    	mov    -0x12a8(%rbp),%eax
   170f5:	25 ff ff 0f 00       	and    $0xfffff,%eax
   170fa:	41 89 c2             	mov    %eax,%r10d
   170fd:	48 8b 0d dc d2 00 00 	mov    0xd2dc(%rip),%rcx        # 243e0 <g_143>
   17104:	0f b6 05 e1 d2 00 00 	movzbl 0xd2e1(%rip),%eax        # 243ec <g_161>
   1710b:	0f b6 c0             	movzbl %al,%eax
   1710e:	8d 50 01             	lea    0x1(%rax),%edx
   17111:	48 8b 05 c8 d2 00 00 	mov    0xd2c8(%rip),%rax        # 243e0 <g_143>
   17118:	48 8d 70 03          	lea    0x3(%rax),%rsi
   1711c:	48 63 c2             	movslq %edx,%rax
   1711f:	48 89 c2             	mov    %rax,%rdx
   17122:	48 c1 e2 02          	shl    $0x2,%rdx
   17126:	48 01 c2             	add    %rax,%rdx
   17129:	48 89 c8             	mov    %rcx,%rax
   1712c:	48 c1 e0 02          	shl    $0x2,%rax
   17130:	48 01 c8             	add    %rcx,%rax
   17133:	48 8d 0c 85 00 00 00 	lea    0x0(,%rax,4),%rcx
   1713a:	00 
   1713b:	48 01 c8             	add    %rcx,%rax
   1713e:	48 01 d0             	add    %rdx,%rax
   17141:	48 8d 14 30          	lea    (%rax,%rsi,1),%rdx
   17145:	48 8d 05 14 d0 00 00 	lea    0xd014(%rip),%rax        # 24160 <g_90>
   1714c:	48 01 d0             	add    %rdx,%rax
   1714f:	0f b6 00             	movzbl (%rax),%eax
   17152:	41 89 f8             	mov    %edi,%r8d
   17155:	48 8b 0d 84 d2 00 00 	mov    0xd284(%rip),%rcx        # 243e0 <g_143>
   1715c:	0f b6 15 89 d2 00 00 	movzbl 0xd289(%rip),%edx        # 243ec <g_161>
   17163:	0f b6 d2             	movzbl %dl,%edx
   17166:	8d 7a 01             	lea    0x1(%rdx),%edi
   17169:	48 8b 15 70 d2 00 00 	mov    0xd270(%rip),%rdx        # 243e0 <g_143>
   17170:	48 8d 72 03          	lea    0x3(%rdx),%rsi
   17174:	41 21 c0             	and    %eax,%r8d
   17177:	48 63 c7             	movslq %edi,%rax
   1717a:	48 89 c2             	mov    %rax,%rdx
   1717d:	48 c1 e2 02          	shl    $0x2,%rdx
   17181:	48 01 c2             	add    %rax,%rdx
   17184:	48 89 c8             	mov    %rcx,%rax
   17187:	48 c1 e0 02          	shl    $0x2,%rax
   1718b:	48 01 c8             	add    %rcx,%rax
   1718e:	4c 8d 0c 85 00 00 00 	lea    0x0(,%rax,4),%r9
   17195:	00 
   17196:	4c 01 c8             	add    %r9,%rax
   17199:	48 01 d0             	add    %rdx,%rax
   1719c:	48 8d 14 30          	lea    (%rax,%rsi,1),%rdx
   171a0:	48 8d 05 b9 cf 00 00 	lea    0xcfb9(%rip),%rax        # 24160 <g_90>
   171a7:	48 01 d0             	add    %rdx,%rax
   171aa:	44 88 00             	mov    %r8b,(%rax)
   171ad:	48 63 c7             	movslq %edi,%rax
   171b0:	48 89 c2             	mov    %rax,%rdx
   171b3:	48 c1 e2 02          	shl    $0x2,%rdx
   171b7:	48 01 c2             	add    %rax,%rdx
   171ba:	48 89 c8             	mov    %rcx,%rax
   171bd:	48 c1 e0 02          	shl    $0x2,%rax
   171c1:	48 01 c8             	add    %rcx,%rax
   171c4:	48 8d 0c 85 00 00 00 	lea    0x0(,%rax,4),%rcx
   171cb:	00 
   171cc:	48 01 c8             	add    %rcx,%rax
   171cf:	48 01 d0             	add    %rdx,%rax
   171d2:	48 8d 14 30          	lea    (%rax,%rsi,1),%rdx
   171d6:	48 8d 05 83 cf 00 00 	lea    0xcf83(%rip),%rax        # 24160 <g_90>
   171dd:	48 01 d0             	add    %rdx,%rax
   171e0:	0f b6 00             	movzbl (%rax),%eax
   171e3:	0f be d0             	movsbl %al,%edx
   171e6:	8b 05 3c cf 00 00    	mov    0xcf3c(%rip),%eax        # 24128 <g_18>
   171ec:	39 c2                	cmp    %eax,%edx
   171ee:	0f 9d c0             	setge  %al
   171f1:	0f b6 c0             	movzbl %al,%eax
   171f4:	44 89 d2             	mov    %r10d,%edx
   171f7:	09 c2                	or     %eax,%edx
   171f9:	8b 85 44 ed ff ff    	mov    -0x12bc(%rbp),%eax
   171ff:	89 c6                	mov    %eax,%esi
   17201:	89 d7                	mov    %edx,%edi
   17203:	e8 ae 43 ff ff       	callq  b5b6 <safe_add_func_int32_t_s_s>
   17208:	98                   	cwtl   
   17209:	be 0e 00 00 00       	mov    $0xe,%esi
   1720e:	89 c7                	mov    %eax,%edi
   17210:	e8 cc 42 ff ff       	callq  b4e1 <safe_lshift_func_int16_t_s_u>
   17215:	0f b7 c0             	movzwl %ax,%eax
   17218:	89 de                	mov    %ebx,%esi
   1721a:	89 c7                	mov    %eax,%edi
   1721c:	e8 6d 4b ff ff       	callq  bd8e <safe_div_func_uint16_t_u_u>
   17221:	0f b7 c0             	movzwl %ax,%eax
   17224:	8b 95 58 ed ff ff    	mov    -0x12a8(%rbp),%edx
   1722a:	81 e2 ff ff 0f 00    	and    $0xfffff,%edx
   17230:	39 d0                	cmp    %edx,%eax
   17232:	0f 9e c0             	setle  %al
   17235:	0f b6 c0             	movzbl %al,%eax
   17238:	4c 89 e6             	mov    %r12,%rsi
   1723b:	48 89 c7             	mov    %rax,%rdi
   1723e:	e8 eb 4d ff ff       	callq  c02e <safe_add_func_uint64_t_u_u>
   17243:	89 c2                	mov    %eax,%edx
   17245:	8b 05 9d d1 00 00    	mov    0xd19d(%rip),%eax        # 243e8 <g_147>
   1724b:	85 c0                	test   %eax,%eax
   1724d:	0f 94 c0             	sete   %al
   17250:	0f b6 c0             	movzbl %al,%eax
   17253:	89 d6                	mov    %edx,%esi
   17255:	89 c7                	mov    %eax,%edi
   17257:	e8 a9 49 ff ff       	callq  bc05 <safe_lshift_func_uint8_t_u_s>
   1725c:	48 8b 85 38 ee ff ff 	mov    -0x11c8(%rbp),%rax
   17263:	48 85 c0             	test   %rax,%rax
   17266:	0f 8e f0 00 00 00    	jle    1735c <func_76+0x21ad>
   1726c:	48 8d 85 80 ed ff ff 	lea    -0x1280(%rbp),%rax
   17273:	48 89 85 58 ef ff ff 	mov    %rax,-0x10a8(%rbp)
   1727a:	48 8d 05 6f cf 00 00 	lea    0xcf6f(%rip),%rax        # 241f0 <g_139+0x50>
   17281:	48 89 85 60 ef ff ff 	mov    %rax,-0x10a0(%rbp)
   17288:	48 8d 85 18 ee ff ff 	lea    -0x11e8(%rbp),%rax
   1728f:	48 89 85 68 ef ff ff 	mov    %rax,-0x1098(%rbp)
   17296:	48 8d 85 70 f3 ff ff 	lea    -0xc90(%rbp),%rax
   1729d:	48 05 c8 01 00 00    	add    $0x1c8,%rax
   172a3:	48 89 85 90 f1 ff ff 	mov    %rax,-0xe70(%rbp)
   172aa:	48 8d 85 98 ed ff ff 	lea    -0x1268(%rbp),%rax
   172b1:	48 89 85 98 f1 ff ff 	mov    %rax,-0xe68(%rbp)
   172b8:	48 8d 85 70 f3 ff ff 	lea    -0xc90(%rbp),%rax
   172bf:	48 05 c8 01 00 00    	add    $0x1c8,%rax
   172c5:	48 89 85 a0 f1 ff ff 	mov    %rax,-0xe60(%rbp)
   172cc:	48 8d 85 98 ed ff ff 	lea    -0x1268(%rbp),%rax
   172d3:	48 89 85 a8 f1 ff ff 	mov    %rax,-0xe58(%rbp)
   172da:	48 8d 85 70 f3 ff ff 	lea    -0xc90(%rbp),%rax
   172e1:	48 05 c8 01 00 00    	add    $0x1c8,%rax
   172e7:	48 89 85 b0 f1 ff ff 	mov    %rax,-0xe50(%rbp)
   172ee:	48 8d 85 98 ed ff ff 	lea    -0x1268(%rbp),%rax
   172f5:	48 89 85 b8 f1 ff ff 	mov    %rax,-0xe48(%rbp)
   172fc:	48 8d 85 70 f3 ff ff 	lea    -0xc90(%rbp),%rax
   17303:	48 05 c8 01 00 00    	add    $0x1c8,%rax
   17309:	48 89 85 c0 f1 ff ff 	mov    %rax,-0xe40(%rbp)
   17310:	48 8d 85 98 ed ff ff 	lea    -0x1268(%rbp),%rax
   17317:	48 89 85 c8 f1 ff ff 	mov    %rax,-0xe38(%rbp)
   1731e:	48 8d 85 70 f3 ff ff 	lea    -0xc90(%rbp),%rax
   17325:	48 05 c8 01 00 00    	add    $0x1c8,%rax
   1732b:	48 89 85 d0 f1 ff ff 	mov    %rax,-0xe30(%rbp)
   17332:	48 8d 85 98 ed ff ff 	lea    -0x1268(%rbp),%rax
   17339:	48 89 85 d8 f1 ff ff 	mov    %rax,-0xe28(%rbp)
   17340:	0f b6 85 65 ed ff ff 	movzbl -0x129b(%rbp),%eax
   17347:	83 c0 01             	add    $0x1,%eax
   1734a:	88 85 65 ed ff ff    	mov    %al,-0x129b(%rbp)
   17350:	48 8b 85 a0 ee ff ff 	mov    -0x1160(%rbp),%rax
   17357:	e9 a4 00 00 00       	jmpq   17400 <func_76+0x2251>
   1735c:	c7 85 cc ed ff ff 00 	movl   $0x0,-0x1234(%rbp)
   17363:	00 00 00 
   17366:	eb 1e                	jmp    17386 <func_76+0x21d7>
   17368:	8b 85 cc ed ff ff    	mov    -0x1234(%rbp),%eax
   1736e:	48 98                	cltq   
   17370:	48 8d 15 71 d0 00 00 	lea    0xd071(%rip),%rdx        # 243e8 <g_147>
   17377:	48 89 94 c5 90 f1 ff 	mov    %rdx,-0xe70(%rbp,%rax,8)
   1737e:	ff 
   1737f:	83 85 cc ed ff ff 01 	addl   $0x1,-0x1234(%rbp)
   17386:	83 bd cc ed ff ff 00 	cmpl   $0x0,-0x1234(%rbp)
   1738d:	7e d9                	jle    17368 <func_76+0x21b9>
   1738f:	48 8b 85 90 f1 ff ff 	mov    -0xe70(%rbp),%rax
   17396:	eb 68                	jmp    17400 <func_76+0x2251>
   17398:	48 8b 05 41 d0 00 00 	mov    0xd041(%rip),%rax        # 243e0 <g_143>
   1739f:	48 83 c0 01          	add    $0x1,%rax
   173a3:	48 89 05 36 d0 00 00 	mov    %rax,0xd036(%rip)        # 243e0 <g_143>
   173aa:	48 8b 05 2f d0 00 00 	mov    0xd02f(%rip),%rax        # 243e0 <g_143>
   173b1:	48 83 f8 01          	cmp    $0x1,%rax
   173b5:	0f 86 f5 f9 ff ff    	jbe    16db0 <func_76+0x1c01>
   173bb:	83 85 c0 ed ff ff 01 	addl   $0x1,-0x1240(%rbp)
   173c2:	83 bd c0 ed ff ff 01 	cmpl   $0x1,-0x1240(%rbp)
   173c9:	0f 86 ac f3 ff ff    	jbe    1677b <func_76+0x15cc>
   173cf:	0f b6 05 16 d0 00 00 	movzbl 0xd016(%rip),%eax        # 243ec <g_161>
   173d6:	83 c0 01             	add    $0x1,%eax
   173d9:	88 05 0d d0 00 00    	mov    %al,0xd00d(%rip)        # 243ec <g_161>
   173df:	0f b6 05 06 d0 00 00 	movzbl 0xd006(%rip),%eax        # 243ec <g_161>
   173e6:	3c 01                	cmp    $0x1,%al
   173e8:	0f 86 db e6 ff ff    	jbe    15ac9 <func_76+0x91a>
   173ee:	eb 01                	jmp    173f1 <func_76+0x2242>
   173f0:	90                   	nop
   173f1:	48 83 ad 78 ee ff ff 	subq   $0x1,-0x1188(%rbp)
   173f8:	01 
   173f9:	48 8b 85 c8 ee ff ff 	mov    -0x1138(%rbp),%rax
   17400:	48 8b 5d c8          	mov    -0x38(%rbp),%rbx
   17404:	64 48 33 1c 25 28 00 	xor    %fs:0x28,%rbx
   1740b:	00 00 
   1740d:	74 05                	je     17414 <func_76+0x2265>
   1740f:	e8 5c 3c ff ff       	callq  b070 <__stack_chk_fail@plt>
   17414:	48 81 c4 a8 12 00 00 	add    $0x12a8,%rsp
   1741b:	5b                   	pop    %rbx
   1741c:	41 5c                	pop    %r12
   1741e:	41 5d                	pop    %r13
   17420:	41 5e                	pop    %r14
   17422:	41 5f                	pop    %r15
   17424:	5d                   	pop    %rbp
   17425:	c3                   	retq   

0000000000017426 <func_83>:
   17426:	f3 0f 1e fa          	endbr64 
   1742a:	55                   	push   %rbp
   1742b:	48 89 e5             	mov    %rsp,%rbp
   1742e:	48 89 7d e8          	mov    %rdi,-0x18(%rbp)
   17432:	89 f0                	mov    %esi,%eax
   17434:	88 55 e7             	mov    %dl,-0x19(%rbp)
   17437:	89 4d e0             	mov    %ecx,-0x20(%rbp)
   1743a:	4c 89 45 d8          	mov    %r8,-0x28(%rbp)
   1743e:	66 89 45 e4          	mov    %ax,-0x1c(%rbp)
   17442:	48 8d 05 1b 7c 00 00 	lea    0x7c1b(%rip),%rax        # 1f064 <g_985>
   17449:	48 89 45 f8          	mov    %rax,-0x8(%rbp)
   1744d:	48 8b 05 4c 02 01 00 	mov    0x1024c(%rip),%rax        # 276a0 <g_986>
   17454:	48 8b 55 f8          	mov    -0x8(%rbp),%rdx
   17458:	48 89 10             	mov    %rdx,(%rax)
   1745b:	48 8b 05 fe 1b 01 00 	mov    0x11bfe(%rip),%rax        # 29060 <g_988>
   17462:	5d                   	pop    %rbp
   17463:	c3                   	retq   

0000000000017464 <func_94>:
   17464:	f3 0f 1e fa          	endbr64 
   17468:	55                   	push   %rbp
   17469:	48 89 e5             	mov    %rsp,%rbp
   1746c:	41 57                	push   %r15
   1746e:	41 56                	push   %r14
   17470:	41 55                	push   %r13
   17472:	41 54                	push   %r12
   17474:	53                   	push   %rbx
   17475:	48 81 ec 00 10 00 00 	sub    $0x1000,%rsp
   1747c:	48 83 0c 24 00       	orq    $0x0,(%rsp)
   17481:	48 81 ec b8 09 00 00 	sub    $0x9b8,%rsp
   17488:	89 bd 2c e6 ff ff    	mov    %edi,-0x19d4(%rbp)
   1748e:	64 48 8b 04 25 28 00 	mov    %fs:0x28,%rax
   17495:	00 00 
   17497:	48 89 45 c8          	mov    %rax,-0x38(%rbp)
   1749b:	31 c0                	xor    %eax,%eax
   1749d:	c7 85 58 e6 ff ff c3 	movl   $0x99c33bc3,-0x19a8(%rbp)
   174a4:	3b c3 99 
   174a7:	48 8d 05 d7 cc 00 00 	lea    0xccd7(%rip),%rax        # 24185 <g_90+0x25>
   174ae:	48 89 85 30 eb ff ff 	mov    %rax,-0x14d0(%rbp)
   174b5:	48 c7 85 38 eb ff ff 	movq   $0x0,-0x14c8(%rbp)
   174bc:	00 00 00 00 
   174c0:	48 c7 85 40 eb ff ff 	movq   $0x0,-0x14c0(%rbp)
   174c7:	00 00 00 00 
   174cb:	48 8d 05 b3 cc 00 00 	lea    0xccb3(%rip),%rax        # 24185 <g_90+0x25>
   174d2:	48 89 85 48 eb ff ff 	mov    %rax,-0x14b8(%rbp)
   174d9:	48 c7 85 50 eb ff ff 	movq   $0x0,-0x14b0(%rbp)
   174e0:	00 00 00 00 
   174e4:	48 c7 85 58 eb ff ff 	movq   $0x0,-0x14a8(%rbp)
   174eb:	00 00 00 00 
   174ef:	48 8d 85 30 eb ff ff 	lea    -0x14d0(%rbp),%rax
   174f6:	48 83 c0 08          	add    $0x8,%rax
   174fa:	48 89 85 28 e8 ff ff 	mov    %rax,-0x17d8(%rbp)
   17501:	66 c7 85 48 e6 ff ff 	movw   $0x1,-0x19b8(%rbp)
   17508:	01 00 
   1750a:	c6 85 42 e6 ff ff c9 	movb   $0xc9,-0x19be(%rbp)
   17511:	c6 85 0b ea ff ff fe 	movb   $0xfe,-0x15f5(%rbp)
   17518:	c6 85 0c ea ff ff ff 	movb   $0xff,-0x15f4(%rbp)
   1751f:	c6 85 0d ea ff ff fe 	movb   $0xfe,-0x15f3(%rbp)
   17526:	c6 85 0e ea ff ff ff 	movb   $0xff,-0x15f2(%rbp)
   1752d:	c6 85 0f ea ff ff fe 	movb   $0xfe,-0x15f1(%rbp)
   17534:	c6 85 10 ea ff ff ff 	movb   $0xff,-0x15f0(%rbp)
   1753b:	c6 85 11 ea ff ff fe 	movb   $0xfe,-0x15ef(%rbp)
   17542:	c6 85 12 ea ff ff ff 	movb   $0xff,-0x15ee(%rbp)
   17549:	c6 85 13 ea ff ff fe 	movb   $0xfe,-0x15ed(%rbp)
   17550:	c7 85 5c e6 ff ff 00 	movl   $0x0,-0x19a4(%rbp)
   17557:	00 00 00 
   1755a:	c7 85 60 e6 ff ff 07 	movl   $0x7,-0x19a0(%rbp)
   17561:	00 00 00 
   17564:	48 8d 85 00 ed ff ff 	lea    -0x1300(%rbp),%rax
   1756b:	48 8d 15 ee 8f 00 00 	lea    0x8fee(%rip),%rdx        # 20560 <g_985+0x14fc>
   17572:	b9 2d 00 00 00       	mov    $0x2d,%ecx
   17577:	48 89 c7             	mov    %rax,%rdi
   1757a:	48 89 d6             	mov    %rdx,%rsi
   1757d:	f3 48 a5             	rep movsq %ds:(%rsi),%es:(%rdi)
   17580:	48 c7 85 30 e8 ff ff 	movq   $0x0,-0x17d0(%rbp)
   17587:	00 00 00 00 
   1758b:	48 8d 05 46 cc 00 00 	lea    0xcc46(%rip),%rax        # 241d8 <g_139+0x38>
   17592:	48 89 85 38 e8 ff ff 	mov    %rax,-0x17c8(%rbp)
   17599:	48 8d 05 c0 7a 00 00 	lea    0x7ac0(%rip),%rax        # 1f060 <g_623>
   175a0:	48 89 85 a0 ea ff ff 	mov    %rax,-0x1560(%rbp)
   175a7:	48 8d 05 b2 7a 00 00 	lea    0x7ab2(%rip),%rax        # 1f060 <g_623>
   175ae:	48 89 85 a8 ea ff ff 	mov    %rax,-0x1558(%rbp)
   175b5:	48 8d 05 a4 7a 00 00 	lea    0x7aa4(%rip),%rax        # 1f060 <g_623>
   175bc:	48 89 85 b0 ea ff ff 	mov    %rax,-0x1550(%rbp)
   175c3:	48 8d 05 96 7a 00 00 	lea    0x7a96(%rip),%rax        # 1f060 <g_623>
   175ca:	48 89 85 b8 ea ff ff 	mov    %rax,-0x1548(%rbp)
   175d1:	48 8d 05 88 7a 00 00 	lea    0x7a88(%rip),%rax        # 1f060 <g_623>
   175d8:	48 89 85 c0 ea ff ff 	mov    %rax,-0x1540(%rbp)
   175df:	48 b8 9e 10 75 ad b4 	movabs $0xbe9cf6b4ad75109e,%rax
   175e6:	f6 9c be 
   175e9:	48 89 85 40 e8 ff ff 	mov    %rax,-0x17c0(%rbp)
   175f0:	48 8d 85 70 ee ff ff 	lea    -0x1190(%rbp),%rax
   175f7:	48 8d 15 e2 90 00 00 	lea    0x90e2(%rip),%rdx        # 206e0 <g_985+0x167c>
   175fe:	b9 2d 00 00 00       	mov    $0x2d,%ecx
   17603:	48 89 c7             	mov    %rax,%rdi
   17606:	48 89 d6             	mov    %rdx,%rsi
   17609:	f3 48 a5             	rep movsq %ds:(%rsi),%es:(%rdi)
   1760c:	48 8d 05 35 16 01 00 	lea    0x11635(%rip),%rax        # 28c48 <g_51>
   17613:	48 89 85 48 e8 ff ff 	mov    %rax,-0x17b8(%rbp)
   1761a:	48 8d 05 c7 ff 00 00 	lea    0xffc7(%rip),%rax        # 275e8 <g_371+0x28>
   17621:	48 89 85 a0 e7 ff ff 	mov    %rax,-0x1860(%rbp)
   17628:	48 8d 85 a0 e7 ff ff 	lea    -0x1860(%rbp),%rax
   1762f:	48 89 85 a8 e7 ff ff 	mov    %rax,-0x1858(%rbp)
   17636:	48 8d 85 a0 e7 ff ff 	lea    -0x1860(%rbp),%rax
   1763d:	48 89 85 50 e8 ff ff 	mov    %rax,-0x17b0(%rbp)
   17644:	c7 85 cc e6 ff ff ff 	movl   $0xffffffff,-0x1934(%rbp)
   1764b:	ff ff ff 
   1764e:	48 c7 85 58 e8 ff ff 	movq   $0x0,-0x17a8(%rbp)
   17655:	00 00 00 00 
   17659:	48 c7 85 60 e8 ff ff 	movq   $0x0,-0x17a0(%rbp)
   17660:	00 00 00 00 
   17664:	c7 85 d0 e6 ff ff 02 	movl   $0x2,-0x1930(%rbp)
   1766b:	00 00 00 
   1766e:	48 b8 70 48 e7 f0 66 	movabs $0x93cba366f0e74870,%rax
   17675:	a3 cb 93 
   17678:	48 89 85 68 e8 ff ff 	mov    %rax,-0x1798(%rbp)
   1767f:	8b 85 2c e6 ff ff    	mov    -0x19d4(%rbp),%eax
   17685:	85 c0                	test   %eax,%eax
   17687:	0f 84 50 3e 00 00    	je     1b4dd <func_94+0x4079>
   1768d:	48 c7 85 b0 eb ff ff 	movq   $0x0,-0x1450(%rbp)
   17694:	00 00 00 00 
   17698:	48 8d 05 b1 fb 00 00 	lea    0xfbb1(%rip),%rax        # 27250 <g_58+0x10>
   1769f:	48 89 85 b8 eb ff ff 	mov    %rax,-0x1448(%rbp)
   176a6:	48 c7 85 c0 eb ff ff 	movq   $0x0,-0x1440(%rbp)
   176ad:	00 00 00 00 
   176b1:	48 c7 85 c8 eb ff ff 	movq   $0x0,-0x1438(%rbp)
   176b8:	00 00 00 00 
   176bc:	48 8d 05 8d fb 00 00 	lea    0xfb8d(%rip),%rax        # 27250 <g_58+0x10>
   176c3:	48 89 85 d0 eb ff ff 	mov    %rax,-0x1430(%rbp)
   176ca:	48 c7 85 d8 eb ff ff 	movq   $0x0,-0x1428(%rbp)
   176d1:	00 00 00 00 
   176d5:	48 c7 85 e0 eb ff ff 	movq   $0x0,-0x1420(%rbp)
   176dc:	00 00 00 00 
   176e0:	48 8d 05 69 fb 00 00 	lea    0xfb69(%rip),%rax        # 27250 <g_58+0x10>
   176e7:	48 89 85 e8 eb ff ff 	mov    %rax,-0x1418(%rbp)
   176ee:	48 c7 85 f0 eb ff ff 	movq   $0x0,-0x1410(%rbp)
   176f5:	00 00 00 00 
   176f9:	48 8d 05 50 fb 00 00 	lea    0xfb50(%rip),%rax        # 27250 <g_58+0x10>
   17700:	48 89 85 f8 eb ff ff 	mov    %rax,-0x1408(%rbp)
   17707:	48 8d 05 42 fb 00 00 	lea    0xfb42(%rip),%rax        # 27250 <g_58+0x10>
   1770e:	48 89 85 00 ec ff ff 	mov    %rax,-0x1400(%rbp)
   17715:	48 8d 05 34 fb 00 00 	lea    0xfb34(%rip),%rax        # 27250 <g_58+0x10>
   1771c:	48 89 85 08 ec ff ff 	mov    %rax,-0x13f8(%rbp)
   17723:	48 8d 05 26 fb 00 00 	lea    0xfb26(%rip),%rax        # 27250 <g_58+0x10>
   1772a:	48 89 85 10 ec ff ff 	mov    %rax,-0x13f0(%rbp)
   17731:	48 8d 05 18 fb 00 00 	lea    0xfb18(%rip),%rax        # 27250 <g_58+0x10>
   17738:	48 89 85 18 ec ff ff 	mov    %rax,-0x13e8(%rbp)
   1773f:	48 8d 05 0a fb 00 00 	lea    0xfb0a(%rip),%rax        # 27250 <g_58+0x10>
   17746:	48 89 85 20 ec ff ff 	mov    %rax,-0x13e0(%rbp)
   1774d:	48 8d 05 fc fa 00 00 	lea    0xfafc(%rip),%rax        # 27250 <g_58+0x10>
   17754:	48 89 85 28 ec ff ff 	mov    %rax,-0x13d8(%rbp)
   1775b:	48 8d 05 ee fa 00 00 	lea    0xfaee(%rip),%rax        # 27250 <g_58+0x10>
   17762:	48 89 85 30 ec ff ff 	mov    %rax,-0x13d0(%rbp)
   17769:	48 8d 05 e0 fa 00 00 	lea    0xfae0(%rip),%rax        # 27250 <g_58+0x10>
   17770:	48 89 85 38 ec ff ff 	mov    %rax,-0x13c8(%rbp)
   17777:	48 c7 85 e8 e8 ff ff 	movq   $0x0,-0x1718(%rbp)
   1777e:	00 00 00 00 
   17782:	48 8d 85 60 ea ff ff 	lea    -0x15a0(%rbp),%rax
   17789:	48 83 c0 10          	add    $0x10,%rax
   1778d:	48 89 85 b0 e7 ff ff 	mov    %rax,-0x1850(%rbp)
   17794:	48 8d 85 b0 e7 ff ff 	lea    -0x1850(%rbp),%rax
   1779b:	48 89 85 f0 e8 ff ff 	mov    %rax,-0x1710(%rbp)
   177a2:	48 8d 85 60 ea ff ff 	lea    -0x15a0(%rbp),%rax
   177a9:	48 83 c0 10          	add    $0x10,%rax
   177ad:	48 89 85 f8 e8 ff ff 	mov    %rax,-0x1708(%rbp)
   177b4:	48 8d 05 39 cc 00 00 	lea    0xcc39(%rip),%rax        # 243f4 <g_286>
   177bb:	48 89 85 00 e9 ff ff 	mov    %rax,-0x1700(%rbp)
   177c2:	48 8d 05 87 ca 00 00 	lea    0xca87(%rip),%rax        # 24250 <g_141+0x50>
   177c9:	48 89 85 b8 e7 ff ff 	mov    %rax,-0x1848(%rbp)
   177d0:	48 8d 85 b8 e7 ff ff 	lea    -0x1848(%rbp),%rax
   177d7:	48 89 85 c0 e7 ff ff 	mov    %rax,-0x1840(%rbp)
   177de:	48 8d 05 9b 17 01 00 	lea    0x1179b(%rip),%rax        # 28f80 <g_210>
   177e5:	48 89 85 c8 e7 ff ff 	mov    %rax,-0x1838(%rbp)
   177ec:	48 8d 85 c8 e7 ff ff 	lea    -0x1838(%rbp),%rax
   177f3:	48 89 85 08 e9 ff ff 	mov    %rax,-0x16f8(%rbp)
   177fa:	c7 85 14 e7 ff ff 3f 	movl   $0xbed9113f,-0x18ec(%rbp)
   17801:	11 d9 be 
   17804:	48 c7 85 20 e8 ff ff 	movq   $0x0,-0x17e0(%rbp)
   1780b:	00 00 00 00 
   1780f:	c7 85 18 e7 ff ff 02 	movl   $0x2,-0x18e8(%rbp)
   17816:	00 00 00 
   17819:	48 c7 85 10 e9 ff ff 	movq   $0x0,-0x16f0(%rbp)
   17820:	00 00 00 00 
   17824:	c7 85 1c e7 ff ff 2d 	movl   $0xfc26d02d,-0x18e4(%rbp)
   1782b:	d0 26 fc 
   1782e:	48 c7 85 d0 e7 ff ff 	movq   $0x0,-0x1830(%rbp)
   17835:	00 00 00 00 
   17839:	48 8d 85 d0 e7 ff ff 	lea    -0x1830(%rbp),%rax
   17840:	48 89 85 d8 e7 ff ff 	mov    %rax,-0x1828(%rbp)
   17847:	48 8d 85 d8 e7 ff ff 	lea    -0x1828(%rbp),%rax
   1784e:	48 89 85 e0 e7 ff ff 	mov    %rax,-0x1820(%rbp)
   17855:	48 8d 85 e0 e7 ff ff 	lea    -0x1820(%rbp),%rax
   1785c:	48 89 85 18 e9 ff ff 	mov    %rax,-0x16e8(%rbp)
   17863:	48 c7 85 20 e9 ff ff 	movq   $0x0,-0x16e0(%rbp)
   1786a:	00 00 00 00 
   1786e:	c7 45 c2 bc bc bc bc 	movl   $0xbcbcbcbc,-0x3e(%rbp)
   17875:	66 c7 45 c6 bc bc    	movw   $0xbcbc,-0x3a(%rbp)
   1787b:	c7 85 64 e6 ff ff 08 	movl   $0x8,-0x199c(%rbp)
   17882:	00 00 00 
   17885:	48 8d 85 60 f1 ff ff 	lea    -0xea0(%rbp),%rax
   1788c:	48 8d 15 ed f7 00 00 	lea    0xf7ed(%rip),%rdx        # 27080 <g_2284+0x27cf>
   17893:	b9 32 00 00 00       	mov    $0x32,%ecx
   17898:	48 89 c7             	mov    %rax,%rdi
   1789b:	48 89 d6             	mov    %rdx,%rsi
   1789e:	f3 48 a5             	rep movsq %ds:(%rsi),%es:(%rdi)
   178a1:	48 c7 85 e8 e7 ff ff 	movq   $0x0,-0x1818(%rbp)
   178a8:	00 00 00 00 
   178ac:	48 8d 85 e8 e7 ff ff 	lea    -0x1818(%rbp),%rax
   178b3:	48 89 85 f0 f2 ff ff 	mov    %rax,-0xd10(%rbp)
   178ba:	48 c7 85 f8 f2 ff ff 	movq   $0x0,-0xd08(%rbp)
   178c1:	00 00 00 00 
   178c5:	48 c7 85 00 f3 ff ff 	movq   $0x0,-0xd00(%rbp)
   178cc:	00 00 00 00 
   178d0:	48 8d 85 e8 e7 ff ff 	lea    -0x1818(%rbp),%rax
   178d7:	48 89 85 08 f3 ff ff 	mov    %rax,-0xcf8(%rbp)
   178de:	48 c7 85 10 f3 ff ff 	movq   $0x0,-0xcf0(%rbp)
   178e5:	00 00 00 00 
   178e9:	48 c7 85 18 f3 ff ff 	movq   $0x0,-0xce8(%rbp)
   178f0:	00 00 00 00 
   178f4:	48 8d 85 e8 e7 ff ff 	lea    -0x1818(%rbp),%rax
   178fb:	48 89 85 20 f3 ff ff 	mov    %rax,-0xce0(%rbp)
   17902:	48 8d 85 e8 e7 ff ff 	lea    -0x1818(%rbp),%rax
   17909:	48 89 85 28 f3 ff ff 	mov    %rax,-0xcd8(%rbp)
   17910:	48 8d 85 e8 e7 ff ff 	lea    -0x1818(%rbp),%rax
   17917:	48 89 85 30 f3 ff ff 	mov    %rax,-0xcd0(%rbp)
   1791e:	48 8d 85 e8 e7 ff ff 	lea    -0x1818(%rbp),%rax
   17925:	48 89 85 38 f3 ff ff 	mov    %rax,-0xcc8(%rbp)
   1792c:	48 8d 85 e8 e7 ff ff 	lea    -0x1818(%rbp),%rax
   17933:	48 89 85 40 f3 ff ff 	mov    %rax,-0xcc0(%rbp)
   1793a:	48 8d 85 e8 e7 ff ff 	lea    -0x1818(%rbp),%rax
   17941:	48 89 85 48 f3 ff ff 	mov    %rax,-0xcb8(%rbp)
   17948:	48 8d 85 e8 e7 ff ff 	lea    -0x1818(%rbp),%rax
   1794f:	48 89 85 50 f3 ff ff 	mov    %rax,-0xcb0(%rbp)
   17956:	48 8d 85 e8 e7 ff ff 	lea    -0x1818(%rbp),%rax
   1795d:	48 89 85 58 f3 ff ff 	mov    %rax,-0xca8(%rbp)
   17964:	48 8d 85 e8 e7 ff ff 	lea    -0x1818(%rbp),%rax
   1796b:	48 89 85 60 f3 ff ff 	mov    %rax,-0xca0(%rbp)
   17972:	48 8d 85 e8 e7 ff ff 	lea    -0x1818(%rbp),%rax
   17979:	48 89 85 68 f3 ff ff 	mov    %rax,-0xc98(%rbp)
   17980:	48 8d 85 e8 e7 ff ff 	lea    -0x1818(%rbp),%rax
   17987:	48 89 85 70 f3 ff ff 	mov    %rax,-0xc90(%rbp)
   1798e:	48 8d 85 e8 e7 ff ff 	lea    -0x1818(%rbp),%rax
   17995:	48 89 85 78 f3 ff ff 	mov    %rax,-0xc88(%rbp)
   1799c:	48 8d 85 e8 e7 ff ff 	lea    -0x1818(%rbp),%rax
   179a3:	48 89 85 80 f3 ff ff 	mov    %rax,-0xc80(%rbp)
   179aa:	48 8d 85 e8 e7 ff ff 	lea    -0x1818(%rbp),%rax
   179b1:	48 89 85 88 f3 ff ff 	mov    %rax,-0xc78(%rbp)
   179b8:	48 8d 85 e8 e7 ff ff 	lea    -0x1818(%rbp),%rax
   179bf:	48 89 85 90 f3 ff ff 	mov    %rax,-0xc70(%rbp)
   179c6:	48 8d 85 e8 e7 ff ff 	lea    -0x1818(%rbp),%rax
   179cd:	48 89 85 98 f3 ff ff 	mov    %rax,-0xc68(%rbp)
   179d4:	48 8d 85 e8 e7 ff ff 	lea    -0x1818(%rbp),%rax
   179db:	48 89 85 a0 f3 ff ff 	mov    %rax,-0xc60(%rbp)
   179e2:	48 8d 85 e8 e7 ff ff 	lea    -0x1818(%rbp),%rax
   179e9:	48 89 85 a8 f3 ff ff 	mov    %rax,-0xc58(%rbp)
   179f0:	48 8d 85 e8 e7 ff ff 	lea    -0x1818(%rbp),%rax
   179f7:	48 89 85 b0 f3 ff ff 	mov    %rax,-0xc50(%rbp)
   179fe:	48 8d 85 e8 e7 ff ff 	lea    -0x1818(%rbp),%rax
   17a05:	48 89 85 b8 f3 ff ff 	mov    %rax,-0xc48(%rbp)
   17a0c:	48 8d 85 e8 e7 ff ff 	lea    -0x1818(%rbp),%rax
   17a13:	48 89 85 c0 f3 ff ff 	mov    %rax,-0xc40(%rbp)
   17a1a:	48 8d 85 e8 e7 ff ff 	lea    -0x1818(%rbp),%rax
   17a21:	48 89 85 c8 f3 ff ff 	mov    %rax,-0xc38(%rbp)
   17a28:	48 c7 85 d0 f3 ff ff 	movq   $0x0,-0xc30(%rbp)
   17a2f:	00 00 00 00 
   17a33:	48 c7 85 d8 f3 ff ff 	movq   $0x0,-0xc28(%rbp)
   17a3a:	00 00 00 00 
   17a3e:	48 8d 85 e8 e7 ff ff 	lea    -0x1818(%rbp),%rax
   17a45:	48 89 85 e0 f3 ff ff 	mov    %rax,-0xc20(%rbp)
   17a4c:	48 8d 85 e8 e7 ff ff 	lea    -0x1818(%rbp),%rax
   17a53:	48 89 85 e8 f3 ff ff 	mov    %rax,-0xc18(%rbp)
   17a5a:	48 c7 85 f0 f3 ff ff 	movq   $0x0,-0xc10(%rbp)
   17a61:	00 00 00 00 
   17a65:	48 8d 85 e8 e7 ff ff 	lea    -0x1818(%rbp),%rax
   17a6c:	48 89 85 f8 f3 ff ff 	mov    %rax,-0xc08(%rbp)
   17a73:	48 8d 85 e8 e7 ff ff 	lea    -0x1818(%rbp),%rax
   17a7a:	48 89 85 00 f4 ff ff 	mov    %rax,-0xc00(%rbp)
   17a81:	48 8d 85 e8 e7 ff ff 	lea    -0x1818(%rbp),%rax
   17a88:	48 89 85 08 f4 ff ff 	mov    %rax,-0xbf8(%rbp)
   17a8f:	48 8d 85 e8 e7 ff ff 	lea    -0x1818(%rbp),%rax
   17a96:	48 89 85 10 f4 ff ff 	mov    %rax,-0xbf0(%rbp)
   17a9d:	48 8d 85 e8 e7 ff ff 	lea    -0x1818(%rbp),%rax
   17aa4:	48 89 85 18 f4 ff ff 	mov    %rax,-0xbe8(%rbp)
   17aab:	48 8d 85 e8 e7 ff ff 	lea    -0x1818(%rbp),%rax
   17ab2:	48 89 85 20 f4 ff ff 	mov    %rax,-0xbe0(%rbp)
   17ab9:	48 8d 85 e8 e7 ff ff 	lea    -0x1818(%rbp),%rax
   17ac0:	48 89 85 28 f4 ff ff 	mov    %rax,-0xbd8(%rbp)
   17ac7:	48 8d 85 e8 e7 ff ff 	lea    -0x1818(%rbp),%rax
   17ace:	48 89 85 30 f4 ff ff 	mov    %rax,-0xbd0(%rbp)
   17ad5:	48 8d 85 e8 e7 ff ff 	lea    -0x1818(%rbp),%rax
   17adc:	48 89 85 38 f4 ff ff 	mov    %rax,-0xbc8(%rbp)
   17ae3:	48 c7 85 40 f4 ff ff 	movq   $0x0,-0xbc0(%rbp)
   17aea:	00 00 00 00 
   17aee:	48 8d 85 e8 e7 ff ff 	lea    -0x1818(%rbp),%rax
   17af5:	48 89 85 48 f4 ff ff 	mov    %rax,-0xbb8(%rbp)
   17afc:	48 8d 85 e8 e7 ff ff 	lea    -0x1818(%rbp),%rax
   17b03:	48 89 85 50 f4 ff ff 	mov    %rax,-0xbb0(%rbp)
   17b0a:	48 c7 85 58 f4 ff ff 	movq   $0x0,-0xba8(%rbp)
   17b11:	00 00 00 00 
   17b15:	48 8d 85 e8 e7 ff ff 	lea    -0x1818(%rbp),%rax
   17b1c:	48 89 85 60 f4 ff ff 	mov    %rax,-0xba0(%rbp)
   17b23:	48 8d 85 e8 e7 ff ff 	lea    -0x1818(%rbp),%rax
   17b2a:	48 89 85 68 f4 ff ff 	mov    %rax,-0xb98(%rbp)
   17b31:	48 c7 85 70 f4 ff ff 	movq   $0x0,-0xb90(%rbp)
   17b38:	00 00 00 00 
   17b3c:	48 c7 85 78 f4 ff ff 	movq   $0x0,-0xb88(%rbp)
   17b43:	00 00 00 00 
   17b47:	48 8d 85 e8 e7 ff ff 	lea    -0x1818(%rbp),%rax
   17b4e:	48 89 85 80 f4 ff ff 	mov    %rax,-0xb80(%rbp)
   17b55:	48 c7 85 88 f4 ff ff 	movq   $0x0,-0xb78(%rbp)
   17b5c:	00 00 00 00 
   17b60:	48 c7 85 90 f4 ff ff 	movq   $0x0,-0xb70(%rbp)
   17b67:	00 00 00 00 
   17b6b:	48 8d 85 e8 e7 ff ff 	lea    -0x1818(%rbp),%rax
   17b72:	48 89 85 98 f4 ff ff 	mov    %rax,-0xb68(%rbp)
   17b79:	48 c7 85 a0 f4 ff ff 	movq   $0x0,-0xb60(%rbp)
   17b80:	00 00 00 00 
   17b84:	48 c7 85 a8 f4 ff ff 	movq   $0x0,-0xb58(%rbp)
   17b8b:	00 00 00 00 
   17b8f:	8b 85 68 e6 ff ff    	mov    -0x1998(%rbp),%eax
   17b95:	25 00 00 f0 ff       	and    $0xfff00000,%eax
   17b9a:	0d c7 49 0d 00       	or     $0xd49c7,%eax
   17b9f:	89 85 68 e6 ff ff    	mov    %eax,-0x1998(%rbp)
   17ba5:	c6 85 43 e6 ff ff 6c 	movb   $0x6c,-0x19bd(%rbp)
   17bac:	66 c7 85 4e e6 ff ff 	movw   $0xc51d,-0x19b2(%rbp)
   17bb3:	1d c5 
   17bb5:	48 c7 85 28 e9 ff ff 	movq   $0x0,-0x16d8(%rbp)
   17bbc:	00 00 00 00 
   17bc0:	48 8d 05 25 c8 00 00 	lea    0xc825(%rip),%rax        # 243ec <g_161>
   17bc7:	48 89 85 30 e9 ff ff 	mov    %rax,-0x16d0(%rbp)
   17bce:	48 b8 e3 ab e3 00 01 	movabs $0xe300010100e3abe3,%rax
   17bd5:	01 00 e3 
   17bd8:	48 89 85 80 ea ff ff 	mov    %rax,-0x1580(%rbp)
   17bdf:	48 b8 ab ab 01 00 fe 	movabs $0xab0100fe0001abab,%rax
   17be6:	00 01 ab 
   17be9:	48 89 85 88 ea ff ff 	mov    %rax,-0x1578(%rbp)
   17bf0:	48 b8 ab e3 00 01 01 	movabs $0xabe300010100e3ab,%rax
   17bf7:	00 e3 ab 
   17bfa:	48 89 85 90 ea ff ff 	mov    %rax,-0x1570(%rbp)
   17c01:	48 b8 e3 48 ab 00 ab 	movabs $0xe3e348ab00ab48e3,%rax
   17c08:	48 e3 e3 
   17c0b:	48 89 85 98 ea ff ff 	mov    %rax,-0x1568(%rbp)
   17c12:	48 8d 85 e0 ef ff ff 	lea    -0x1020(%rbp),%rax
   17c19:	48 8d 15 40 8c 00 00 	lea    0x8c40(%rip),%rdx        # 20860 <g_985+0x17fc>
   17c20:	b9 2f 00 00 00       	mov    $0x2f,%ecx
   17c25:	48 89 c7             	mov    %rax,%rdi
   17c28:	48 89 d6             	mov    %rdx,%rsi
   17c2b:	f3 48 a5             	rep movsq %ds:(%rsi),%es:(%rdi)
   17c2e:	48 89 f2             	mov    %rsi,%rdx
   17c31:	48 89 f8             	mov    %rdi,%rax
   17c34:	0f b7 0a             	movzwl (%rdx),%ecx
   17c37:	66 89 08             	mov    %cx,(%rax)
   17c3a:	48 8d 40 02          	lea    0x2(%rax),%rax
   17c3e:	48 8d 52 02          	lea    0x2(%rdx),%rdx
   17c42:	48 c7 85 f0 e7 ff ff 	movq   $0x0,-0x1810(%rbp)
   17c49:	00 00 00 00 
   17c4d:	48 8d 85 f0 e7 ff ff 	lea    -0x1810(%rbp),%rax
   17c54:	48 89 85 f8 e7 ff ff 	mov    %rax,-0x1808(%rbp)
   17c5b:	48 c7 85 38 e9 ff ff 	movq   $0x1,-0x16c8(%rbp)
   17c62:	01 00 00 00 
   17c66:	66 c7 85 60 eb ff ff 	movw   $0x7306,-0x14a0(%rbp)
   17c6d:	06 73 
   17c6f:	66 c7 85 62 eb ff ff 	movw   $0x4cdf,-0x149e(%rbp)
   17c76:	df 4c 
   17c78:	66 c7 85 64 eb ff ff 	movw   $0xfff8,-0x149c(%rbp)
   17c7f:	f8 ff 
   17c81:	66 c7 85 66 eb ff ff 	movw   $0xfff8,-0x149a(%rbp)
   17c88:	f8 ff 
   17c8a:	66 c7 85 68 eb ff ff 	movw   $0x4cdf,-0x1498(%rbp)
   17c91:	df 4c 
   17c93:	66 c7 85 6a eb ff ff 	movw   $0x7306,-0x1496(%rbp)
   17c9a:	06 73 
   17c9c:	66 c7 85 6c eb ff ff 	movw   $0x7306,-0x1494(%rbp)
   17ca3:	06 73 
   17ca5:	66 c7 85 6e eb ff ff 	movw   $0xfffc,-0x1492(%rbp)
   17cac:	fc ff 
   17cae:	66 c7 85 70 eb ff ff 	movw   $0xfff6,-0x1490(%rbp)
   17cb5:	f6 ff 
   17cb7:	66 c7 85 72 eb ff ff 	movw   $0xfff8,-0x148e(%rbp)
   17cbe:	f8 ff 
   17cc0:	66 c7 85 74 eb ff ff 	movw   $0xfffc,-0x148c(%rbp)
   17cc7:	fc ff 
   17cc9:	66 c7 85 76 eb ff ff 	movw   $0xfff8,-0x148a(%rbp)
   17cd0:	f8 ff 
   17cd2:	66 c7 85 78 eb ff ff 	movw   $0x7306,-0x1488(%rbp)
   17cd9:	06 73 
   17cdb:	66 c7 85 7a eb ff ff 	movw   $0xfffc,-0x1486(%rbp)
   17ce2:	fc ff 
   17ce4:	66 c7 85 7c eb ff ff 	movw   $0x7306,-0x1484(%rbp)
   17ceb:	06 73 
   17ced:	66 c7 85 7e eb ff ff 	movw   $0xfff8,-0x1482(%rbp)
   17cf4:	f8 ff 
   17cf6:	66 c7 85 80 eb ff ff 	movw   $0xfffc,-0x1480(%rbp)
   17cfd:	fc ff 
   17cff:	66 c7 85 82 eb ff ff 	movw   $0xfff6,-0x147e(%rbp)
   17d06:	f6 ff 
   17d08:	66 c7 85 84 eb ff ff 	movw   $0x7306,-0x147c(%rbp)
   17d0f:	06 73 
   17d11:	66 c7 85 86 eb ff ff 	movw   $0x4cdf,-0x147a(%rbp)
   17d18:	df 4c 
   17d1a:	66 c7 85 88 eb ff ff 	movw   $0xfff8,-0x1478(%rbp)
   17d21:	f8 ff 
   17d23:	66 c7 85 8a eb ff ff 	movw   $0xfff8,-0x1476(%rbp)
   17d2a:	f8 ff 
   17d2c:	66 c7 85 8c eb ff ff 	movw   $0x4cdf,-0x1474(%rbp)
   17d33:	df 4c 
   17d35:	66 c7 85 8e eb ff ff 	movw   $0x7306,-0x1472(%rbp)
   17d3c:	06 73 
   17d3e:	66 c7 85 90 eb ff ff 	movw   $0x7306,-0x1470(%rbp)
   17d45:	06 73 
   17d47:	66 c7 85 92 eb ff ff 	movw   $0xfffc,-0x146e(%rbp)
   17d4e:	fc ff 
   17d50:	66 c7 85 94 eb ff ff 	movw   $0xfff6,-0x146c(%rbp)
   17d57:	f6 ff 
   17d59:	66 c7 85 96 eb ff ff 	movw   $0xfff8,-0x146a(%rbp)
   17d60:	f8 ff 
   17d62:	66 c7 85 98 eb ff ff 	movw   $0xfffc,-0x1468(%rbp)
   17d69:	fc ff 
   17d6b:	66 c7 85 9a eb ff ff 	movw   $0xfff8,-0x1466(%rbp)
   17d72:	f8 ff 
   17d74:	66 c7 85 9c eb ff ff 	movw   $0x7306,-0x1464(%rbp)
   17d7b:	06 73 
   17d7d:	66 c7 85 9e eb ff ff 	movw   $0xfffc,-0x1462(%rbp)
   17d84:	fc ff 
   17d86:	66 c7 85 a0 eb ff ff 	movw   $0x7306,-0x1460(%rbp)
   17d8d:	06 73 
   17d8f:	66 c7 85 a2 eb ff ff 	movw   $0xfff8,-0x145e(%rbp)
   17d96:	f8 ff 
   17d98:	66 c7 85 a4 eb ff ff 	movw   $0xfffc,-0x145c(%rbp)
   17d9f:	fc ff 
   17da1:	66 c7 85 a6 eb ff ff 	movw   $0xfff6,-0x145a(%rbp)
   17da8:	f6 ff 
   17daa:	c7 85 88 e6 ff ff 00 	movl   $0x0,-0x1978(%rbp)
   17db1:	00 00 00 
   17db4:	eb 1e                	jmp    17dd4 <func_94+0x970>
   17db6:	8b 85 88 e6 ff ff    	mov    -0x1978(%rbp),%eax
   17dbc:	48 98                	cltq   
   17dbe:	48 8d 15 7b c3 00 00 	lea    0xc37b(%rip),%rdx        # 24140 <g_74>
   17dc5:	48 89 94 c5 60 ea ff 	mov    %rdx,-0x15a0(%rbp,%rax,8)
   17dcc:	ff 
   17dcd:	83 85 88 e6 ff ff 01 	addl   $0x1,-0x1978(%rbp)
   17dd4:	83 bd 88 e6 ff ff 03 	cmpl   $0x3,-0x1978(%rbp)
   17ddb:	7e d9                	jle    17db6 <func_94+0x952>
   17ddd:	c7 85 88 e6 ff ff 00 	movl   $0x0,-0x1978(%rbp)
   17de4:	00 00 00 
   17de7:	eb 1a                	jmp    17e03 <func_94+0x99f>
   17de9:	8b 85 88 e6 ff ff    	mov    -0x1978(%rbp),%eax
   17def:	48 98                	cltq   
   17df1:	c7 84 85 20 ea ff ff 	movl   $0x1,-0x15e0(%rbp,%rax,4)
   17df8:	01 00 00 00 
   17dfc:	83 85 88 e6 ff ff 01 	addl   $0x1,-0x1978(%rbp)
   17e03:	83 bd 88 e6 ff ff 04 	cmpl   $0x4,-0x1978(%rbp)
   17e0a:	7e dd                	jle    17de9 <func_94+0x985>
   17e0c:	c7 85 88 e6 ff ff 00 	movl   $0x0,-0x1978(%rbp)
   17e13:	00 00 00 
   17e16:	e9 8d 00 00 00       	jmpq   17ea8 <func_94+0xa44>
   17e1b:	c7 85 8c e6 ff ff 00 	movl   $0x0,-0x1974(%rbp)
   17e22:	00 00 00 
   17e25:	eb 71                	jmp    17e98 <func_94+0xa34>
   17e27:	c7 85 90 e6 ff ff 00 	movl   $0x0,-0x1970(%rbp)
   17e2e:	00 00 00 
   17e31:	eb 55                	jmp    17e88 <func_94+0xa24>
   17e33:	8b 85 90 e6 ff ff    	mov    -0x1970(%rbp),%eax
   17e39:	48 63 f0             	movslq %eax,%rsi
   17e3c:	8b 85 88 e6 ff ff    	mov    -0x1978(%rbp),%eax
   17e42:	48 63 d0             	movslq %eax,%rdx
   17e45:	8b 85 8c e6 ff ff    	mov    -0x1974(%rbp),%eax
   17e4b:	48 63 c8             	movslq %eax,%rcx
   17e4e:	48 89 d0             	mov    %rdx,%rax
   17e51:	48 01 c0             	add    %rax,%rax
   17e54:	48 01 d0             	add    %rdx,%rax
   17e57:	48 8d 14 c5 00 00 00 	lea    0x0(,%rax,8),%rdx
   17e5e:	00 
   17e5f:	48 01 d0             	add    %rdx,%rax
   17e62:	48 89 ca             	mov    %rcx,%rdx
   17e65:	48 c1 e2 03          	shl    $0x3,%rdx
   17e69:	48 01 ca             	add    %rcx,%rdx
   17e6c:	48 01 d0             	add    %rdx,%rax
   17e6f:	48 01 f0             	add    %rsi,%rax
   17e72:	48 8d 15 63 c3 00 00 	lea    0xc363(%rip),%rdx        # 241dc <g_139+0x3c>
   17e79:	48 89 94 c5 b0 f4 ff 	mov    %rdx,-0xb50(%rbp,%rax,8)
   17e80:	ff 
   17e81:	83 85 90 e6 ff ff 01 	addl   $0x1,-0x1970(%rbp)
   17e88:	83 bd 90 e6 ff ff 08 	cmpl   $0x8,-0x1970(%rbp)
   17e8f:	7e a2                	jle    17e33 <func_94+0x9cf>
   17e91:	83 85 8c e6 ff ff 01 	addl   $0x1,-0x1974(%rbp)
   17e98:	83 bd 8c e6 ff ff 02 	cmpl   $0x2,-0x1974(%rbp)
   17e9f:	7e 86                	jle    17e27 <func_94+0x9c3>
   17ea1:	83 85 88 e6 ff ff 01 	addl   $0x1,-0x1978(%rbp)
   17ea8:	83 bd 88 e6 ff ff 03 	cmpl   $0x3,-0x1978(%rbp)
   17eaf:	0f 8e 66 ff ff ff    	jle    17e1b <func_94+0x9b7>
   17eb5:	44 8b 25 48 c2 00 00 	mov    0xc248(%rip),%r12d        # 24104 <g_3+0x4>
   17ebc:	8b 85 58 e6 ff ff    	mov    -0x19a8(%rbp),%eax
   17ec2:	0f b7 d8             	movzwl %ax,%ebx
   17ec5:	8b 85 58 e6 ff ff    	mov    -0x19a8(%rbp),%eax
   17ecb:	0f be c0             	movsbl %al,%eax
   17ece:	89 c6                	mov    %eax,%esi
   17ed0:	bf 99 ff ff ff       	mov    $0xffffff99,%edi
   17ed5:	e8 90 33 ff ff       	callq  b26a <safe_div_func_int8_t_s_s>
   17eda:	be 0a 00 00 00       	mov    $0xa,%esi
   17edf:	bf 00 00 00 00       	mov    $0x0,%edi
   17ee4:	e8 f8 35 ff ff       	callq  b4e1 <safe_lshift_func_int16_t_s_u>
   17ee9:	48 8b 05 88 f3 00 00 	mov    0xf388(%rip),%rax        # 27278 <g_115>
   17ef0:	48 39 85 28 e8 ff ff 	cmp    %rax,-0x17d8(%rbp)
   17ef7:	48 8b 85 f8 eb ff ff 	mov    -0x1408(%rbp),%rax
   17efe:	48 85 c0             	test   %rax,%rax
   17f01:	0f 95 c0             	setne  %al
   17f04:	0f b6 c0             	movzbl %al,%eax
   17f07:	be 1b fc 41 6d       	mov    $0x6d41fc1b,%esi
   17f0c:	89 c7                	mov    %eax,%edi
   17f0e:	e8 a3 36 ff ff       	callq  b5b6 <safe_add_func_int32_t_s_s>
   17f13:	0f b7 c0             	movzwl %ax,%eax
   17f16:	89 de                	mov    %ebx,%esi
   17f18:	89 c7                	mov    %eax,%edi
   17f1a:	e8 00 3e ff ff       	callq  bd1f <safe_sub_func_uint16_t_u_u>
   17f1f:	0f b7 d0             	movzwl %ax,%edx
   17f22:	8b 85 2c e6 ff ff    	mov    -0x19d4(%rbp),%eax
   17f28:	21 d0                	and    %edx,%eax
   17f2a:	83 f8 ff             	cmp    $0xffffffff,%eax
   17f2d:	0f 94 c0             	sete   %al
   17f30:	0f b6 c0             	movzbl %al,%eax
   17f33:	48 be 08 7a 67 b0 b4 	movabs $0xf58447b4b0677a08,%rsi
   17f3a:	47 84 f5 
   17f3d:	48 89 c7             	mov    %rax,%rdi
   17f40:	e8 6f 3a ff ff       	callq  b9b4 <safe_mod_func_int64_t_s_s>
   17f45:	0f b6 c0             	movzbl %al,%eax
   17f48:	be 8f 00 00 00       	mov    $0x8f,%esi
   17f4d:	89 c7                	mov    %eax,%edi
   17f4f:	e8 3f 3c ff ff       	callq  bb93 <safe_mul_func_uint8_t_u_u>
   17f54:	48 8b 05 1d f3 00 00 	mov    0xf31d(%rip),%rax        # 27278 <g_115>
   17f5b:	48 8b 00             	mov    (%rax),%rax
   17f5e:	be f7 ff ff ff       	mov    $0xfffffff7,%esi
   17f63:	bf 6a 91 ff ff       	mov    $0xffff916a,%edi
   17f68:	e8 66 34 ff ff       	callq  b3d3 <safe_sub_func_int16_t_s_s>
   17f6d:	0f bf d0             	movswl %ax,%edx
   17f70:	8b 85 2c e6 ff ff    	mov    -0x19d4(%rbp),%eax
   17f76:	39 c2                	cmp    %eax,%edx
   17f78:	0f 94 c0             	sete   %al
   17f7b:	0f b6 d0             	movzbl %al,%edx
   17f7e:	8b 85 2c e6 ff ff    	mov    -0x19d4(%rbp),%eax
   17f84:	39 c2                	cmp    %eax,%edx
   17f86:	0f 94 c0             	sete   %al
   17f89:	0f b6 c0             	movzbl %al,%eax
   17f8c:	89 05 ae c1 00 00    	mov    %eax,0xc1ae(%rip)        # 24140 <g_74>
   17f92:	8b 05 a8 c1 00 00    	mov    0xc1a8(%rip),%eax        # 24140 <g_74>
   17f98:	8b 95 2c e6 ff ff    	mov    -0x19d4(%rbp),%edx
   17f9e:	39 d0                	cmp    %edx,%eax
   17fa0:	0f 92 c0             	setb   %al
   17fa3:	0f b6 d0             	movzbl %al,%edx
   17fa6:	0f b6 05 d8 c1 00 00 	movzbl 0xc1d8(%rip),%eax        # 24185 <g_90+0x25>
   17fad:	0f be c0             	movsbl %al,%eax
   17fb0:	31 d0                	xor    %edx,%eax
   17fb2:	85 c0                	test   %eax,%eax
   17fb4:	0f 9f c0             	setg   %al
   17fb7:	0f b6 c0             	movzbl %al,%eax
   17fba:	44 09 e0             	or     %r12d,%eax
   17fbd:	85 c0                	test   %eax,%eax
   17fbf:	0f 94 c0             	sete   %al
   17fc2:	0f b6 c0             	movzbl %al,%eax
   17fc5:	89 c7                	mov    %eax,%edi
   17fc7:	e8 9e 3f 00 00       	callq  1bf6a <func_97>
   17fcc:	48 8b 85 f0 e8 ff ff 	mov    -0x1710(%rbp),%rax
   17fd3:	48 c7 00 00 00 00 00 	movq   $0x0,(%rax)
   17fda:	48 8b 85 f0 e8 ff ff 	mov    -0x1710(%rbp),%rax
   17fe1:	48 8b 00             	mov    (%rax),%rax
   17fe4:	48 89 85 f8 e8 ff ff 	mov    %rax,-0x1708(%rbp)
   17feb:	8b 05 ff c3 00 00    	mov    0xc3ff(%rip),%eax        # 243f0 <g_236>
   17ff1:	48 8b 85 00 e9 ff ff 	mov    -0x1700(%rbp),%rax
   17ff8:	66 c7 00 01 00       	movw   $0x1,(%rax)
   17ffd:	48 8b 85 00 e9 ff ff 	mov    -0x1700(%rbp),%rax
   18004:	0f b7 00             	movzwl (%rax),%eax
   18007:	0f bf d0             	movswl %ax,%edx
   1800a:	48 8b 05 77 c2 00 00 	mov    0xc277(%rip),%rax        # 24288 <g_141+0x88>
   18011:	98                   	cwtl   
   18012:	89 d6                	mov    %edx,%esi
   18014:	89 c7                	mov    %eax,%edi
   18016:	e8 b8 33 ff ff       	callq  b3d3 <safe_sub_func_int16_t_s_s>
   1801b:	0f b7 c0             	movzwl %ax,%eax
   1801e:	be 05 00 00 00       	mov    $0x5,%esi
   18023:	89 c7                	mov    %eax,%edi
   18025:	e8 94 3d ff ff       	callq  bdbe <safe_lshift_func_uint16_t_u_s>
   1802a:	66 85 c0             	test   %ax,%ax
   1802d:	0f 84 ee 00 00 00    	je     18121 <func_94+0xcbd>
   18033:	0f b7 05 58 c1 00 00 	movzwl 0xc158(%rip),%eax        # 24192 <g_129>
   1803a:	0f b7 d8             	movzwl %ax,%ebx
   1803d:	8b 85 58 e6 ff ff    	mov    -0x19a8(%rbp),%eax
   18043:	85 c0                	test   %eax,%eax
   18045:	74 49                	je     18090 <func_94+0xc2c>
   18047:	48 8b 85 c0 e7 ff ff 	mov    -0x1840(%rbp),%rax
   1804e:	48 8b 95 b8 e7 ff ff 	mov    -0x1848(%rbp),%rdx
   18055:	48 89 10             	mov    %rdx,(%rax)
   18058:	48 8b 95 c8 e7 ff ff 	mov    -0x1838(%rbp),%rdx
   1805f:	48 8b 85 08 e9 ff ff 	mov    -0x16f8(%rbp),%rax
   18066:	48 89 10             	mov    %rdx,(%rax)
   18069:	48 8b 85 08 e9 ff ff 	mov    -0x16f8(%rbp),%rax
   18070:	48 8b 00             	mov    (%rax),%rax
   18073:	48 89 05 5e f5 00 00 	mov    %rax,0xf55e(%rip)        # 275d8 <g_371+0x18>
   1807a:	8b 85 58 e6 ff ff    	mov    -0x19a8(%rbp),%eax
   18080:	83 e0 01             	and    $0x1,%eax
   18083:	89 c2                	mov    %eax,%edx
   18085:	0f bf 85 48 e6 ff ff 	movswl -0x19b8(%rbp),%eax
   1808c:	09 d0                	or     %edx,%eax
   1808e:	85 c0                	test   %eax,%eax
   18090:	8b 85 2c e6 ff ff    	mov    -0x19d4(%rbp),%eax
   18096:	98                   	cwtl   
   18097:	be 1d 2a 00 00       	mov    $0x2a1d,%esi
   1809c:	89 c7                	mov    %eax,%edi
   1809e:	e8 b2 33 ff ff       	callq  b455 <safe_div_func_int16_t_s_s>
   180a3:	0f b7 c0             	movzwl %ax,%eax
   180a6:	89 de                	mov    %ebx,%esi
   180a8:	89 c7                	mov    %eax,%edi
   180aa:	e8 0f 3d ff ff       	callq  bdbe <safe_lshift_func_uint16_t_u_s>
   180af:	66 85 c0             	test   %ax,%ax
   180b2:	74 6d                	je     18121 <func_94+0xcbd>
   180b4:	48 8d 05 25 c3 00 00 	lea    0xc325(%rip),%rax        # 243e0 <g_143>
   180bb:	48 89 85 08 e8 ff ff 	mov    %rax,-0x17f8(%rbp)
   180c2:	48 8d 85 08 e8 ff ff 	lea    -0x17f8(%rbp),%rax
   180c9:	48 89 85 40 e9 ff ff 	mov    %rax,-0x16c0(%rbp)
   180d0:	c7 85 20 e7 ff ff 00 	movl   $0x0,-0x18e0(%rbp)
   180d7:	00 00 00 
   180da:	48 8b 95 08 e8 ff ff 	mov    -0x17f8(%rbp),%rdx
   180e1:	48 8b 85 40 e9 ff ff 	mov    -0x16c0(%rbp),%rax
   180e8:	48 89 10             	mov    %rdx,(%rax)
   180eb:	48 8b 85 40 e9 ff ff 	mov    -0x16c0(%rbp),%rax
   180f2:	48 8b 00             	mov    (%rax),%rax
   180f5:	48 8d 15 e4 c2 00 00 	lea    0xc2e4(%rip),%rdx        # 243e0 <g_143>
   180fc:	48 39 d0             	cmp    %rdx,%rax
   180ff:	0f 95 c0             	setne  %al
   18102:	0f b6 d0             	movzbl %al,%edx
   18105:	48 8b 05 14 f1 00 00 	mov    0xf114(%rip),%rax        # 27220 <g_13>
   1810c:	8b 00                	mov    (%rax),%eax
   1810e:	39 c2                	cmp    %eax,%edx
   18110:	0f 9f c0             	setg   %al
   18113:	0f b6 c0             	movzbl %al,%eax
   18116:	31 85 20 e7 ff ff    	xor    %eax,-0x18e0(%rbp)
   1811c:	e9 76 0a 00 00       	jmpq   18b97 <func_94+0x1733>
   18121:	c6 85 41 e6 ff ff ad 	movb   $0xad,-0x19bf(%rbp)
   18128:	c7 85 7c e6 ff ff 00 	movl   $0x0,-0x1984(%rbp)
   1812f:	00 00 00 
   18132:	48 8d 85 7c e6 ff ff 	lea    -0x1984(%rbp),%rax
   18139:	48 89 85 10 e8 ff ff 	mov    %rax,-0x17f0(%rbp)
   18140:	c7 85 24 e7 ff ff 5e 	movl   $0xfb1c195e,-0x18dc(%rbp)
   18147:	19 1c fb 
   1814a:	c7 85 28 e7 ff ff 02 	movl   $0x2,-0x18d8(%rbp)
   18151:	00 00 00 
   18154:	c7 85 2c e7 ff ff 32 	movl   $0xc6e2bd32,-0x18d4(%rbp)
   1815b:	bd e2 c6 
   1815e:	c7 85 80 e6 ff ff 00 	movl   $0x0,-0x1980(%rbp)
   18165:	00 00 00 
   18168:	48 c7 85 48 e9 ff ff 	movq   $0xfffffffffffffff7,-0x16b8(%rbp)
   1816f:	f7 ff ff ff 
   18173:	66 c7 85 50 e6 ff ff 	movw   $0x2,-0x19b0(%rbp)
   1817a:	02 00 
   1817c:	48 8d 05 35 0e 01 00 	lea    0x10e35(%rip),%rax        # 28fb8 <g_302+0x8>
   18183:	48 89 85 50 e9 ff ff 	mov    %rax,-0x16b0(%rbp)
   1818a:	48 8d 05 5f f4 00 00 	lea    0xf45f(%rip),%rax        # 275f0 <g_479>
   18191:	48 89 85 58 e9 ff ff 	mov    %rax,-0x16a8(%rbp)
   18198:	48 c7 85 00 e8 ff ff 	movq   $0x0,-0x1800(%rbp)
   1819f:	00 00 00 00 
   181a3:	48 8d 85 00 e8 ff ff 	lea    -0x1800(%rbp),%rax
   181aa:	48 89 85 60 e9 ff ff 	mov    %rax,-0x16a0(%rbp)
   181b1:	c6 85 74 e6 ff ff 04 	movb   $0x4,-0x198c(%rbp)
   181b8:	c6 85 44 e6 ff ff 74 	movb   $0x74,-0x19bc(%rbp)
   181bf:	48 8d 05 12 f4 00 00 	lea    0xf412(%rip),%rax        # 275d8 <g_371+0x18>
   181c6:	48 89 85 40 ec ff ff 	mov    %rax,-0x13c0(%rbp)
   181cd:	48 8d 05 04 f4 00 00 	lea    0xf404(%rip),%rax        # 275d8 <g_371+0x18>
   181d4:	48 89 85 48 ec ff ff 	mov    %rax,-0x13b8(%rbp)
   181db:	48 8d 05 f6 f3 00 00 	lea    0xf3f6(%rip),%rax        # 275d8 <g_371+0x18>
   181e2:	48 89 85 50 ec ff ff 	mov    %rax,-0x13b0(%rbp)
   181e9:	48 8d 05 e8 f3 00 00 	lea    0xf3e8(%rip),%rax        # 275d8 <g_371+0x18>
   181f0:	48 89 85 58 ec ff ff 	mov    %rax,-0x13a8(%rbp)
   181f7:	48 8d 05 da f3 00 00 	lea    0xf3da(%rip),%rax        # 275d8 <g_371+0x18>
   181fe:	48 89 85 60 ec ff ff 	mov    %rax,-0x13a0(%rbp)
   18205:	48 8d 05 cc f3 00 00 	lea    0xf3cc(%rip),%rax        # 275d8 <g_371+0x18>
   1820c:	48 89 85 68 ec ff ff 	mov    %rax,-0x1398(%rbp)
   18213:	48 8d 05 be f3 00 00 	lea    0xf3be(%rip),%rax        # 275d8 <g_371+0x18>
   1821a:	48 89 85 70 ec ff ff 	mov    %rax,-0x1390(%rbp)
   18221:	48 8d 05 b0 f3 00 00 	lea    0xf3b0(%rip),%rax        # 275d8 <g_371+0x18>
   18228:	48 89 85 78 ec ff ff 	mov    %rax,-0x1388(%rbp)
   1822f:	48 8d 05 a2 f3 00 00 	lea    0xf3a2(%rip),%rax        # 275d8 <g_371+0x18>
   18236:	48 89 85 80 ec ff ff 	mov    %rax,-0x1380(%rbp)
   1823d:	48 8d 05 94 f3 00 00 	lea    0xf394(%rip),%rax        # 275d8 <g_371+0x18>
   18244:	48 89 85 88 ec ff ff 	mov    %rax,-0x1378(%rbp)
   1824b:	48 8d 05 86 f3 00 00 	lea    0xf386(%rip),%rax        # 275d8 <g_371+0x18>
   18252:	48 89 85 90 ec ff ff 	mov    %rax,-0x1370(%rbp)
   18259:	48 8d 05 78 f3 00 00 	lea    0xf378(%rip),%rax        # 275d8 <g_371+0x18>
   18260:	48 89 85 98 ec ff ff 	mov    %rax,-0x1368(%rbp)
   18267:	48 b8 a9 15 e2 19 9b 	movabs $0x2e624f9b19e215a9,%rax
   1826e:	4f 62 2e 
   18271:	48 89 85 68 e9 ff ff 	mov    %rax,-0x1698(%rbp)
   18278:	48 c7 85 08 e8 ff ff 	movq   $0x0,-0x17f8(%rbp)
   1827f:	00 00 00 00 
   18283:	c7 85 08 e8 ff ff 09 	movl   $0x9,-0x17f8(%rbp)
   1828a:	00 00 00 
   1828d:	c7 85 94 e6 ff ff 00 	movl   $0x0,-0x196c(%rbp)
   18294:	00 00 00 
   18297:	eb 1a                	jmp    182b3 <func_94+0xe4f>
   18299:	8b 85 94 e6 ff ff    	mov    -0x196c(%rbp),%eax
   1829f:	48 98                	cltq   
   182a1:	c7 84 85 d0 ea ff ff 	movl   $0x9ce0bae9,-0x1530(%rbp,%rax,4)
   182a8:	e9 ba e0 9c 
   182ac:	83 85 94 e6 ff ff 01 	addl   $0x1,-0x196c(%rbp)
   182b3:	83 bd 94 e6 ff ff 01 	cmpl   $0x1,-0x196c(%rbp)
   182ba:	7e dd                	jle    18299 <func_94+0xe35>
   182bc:	48 c7 05 b9 0c 01 00 	movq   $0x2,0x10cb9(%rip)        # 28f80 <g_210>
   182c3:	02 00 00 00 
   182c7:	e9 15 04 00 00       	jmpq   186e1 <func_94+0x127d>
   182cc:	c6 85 78 e6 ff ff c1 	movb   $0xc1,-0x1988(%rbp)
   182d3:	80 bd 42 e6 ff ff 00 	cmpb   $0x0,-0x19be(%rbp)
   182da:	0f 85 13 04 00 00    	jne    186f3 <func_94+0x128f>
   182e0:	0f b6 85 41 e6 ff ff 	movzbl -0x19bf(%rbp),%eax
   182e7:	83 e8 01             	sub    $0x1,%eax
   182ea:	88 85 41 e6 ff ff    	mov    %al,-0x19bf(%rbp)
   182f0:	66 c7 05 99 be 00 00 	movw   $0x0,0xbe99(%rip)        # 24192 <g_129>
   182f7:	00 00 
   182f9:	e9 c0 03 00 00       	jmpq   186be <func_94+0x125a>
   182fe:	c7 85 30 e7 ff ff f8 	movl   $0xfffffff8,-0x18d0(%rbp)
   18305:	ff ff ff 
   18308:	66 c7 85 46 e6 ff ff 	movw   $0xa194,-0x19ba(%rbp)
   1830f:	94 a1 
   18311:	c7 85 34 e7 ff ff 01 	movl   $0x1,-0x18cc(%rbp)
   18318:	00 00 00 
   1831b:	c7 85 98 e6 ff ff 00 	movl   $0x0,-0x1968(%rbp)
   18322:	00 00 00 
   18325:	eb 1a                	jmp    18341 <func_94+0xedd>
   18327:	8b 85 98 e6 ff ff    	mov    -0x1968(%rbp),%eax
   1832d:	48 98                	cltq   
   1832f:	c7 84 85 40 ea ff ff 	movl   $0x57474593,-0x15c0(%rbp,%rax,4)
   18336:	93 45 47 57 
   1833a:	83 85 98 e6 ff ff 01 	addl   $0x1,-0x1968(%rbp)
   18341:	83 bd 98 e6 ff ff 00 	cmpl   $0x0,-0x1968(%rbp)
   18348:	7e dd                	jle    18327 <func_94+0xec3>
   1834a:	c7 05 94 c0 00 00 00 	movl   $0x0,0xc094(%rip)        # 243e8 <g_147>
   18351:	00 00 00 
   18354:	eb 3e                	jmp    18394 <func_94+0xf30>
   18356:	c7 85 40 e7 ff ff 01 	movl   $0x1,-0x18c0(%rbp)
   1835d:	00 00 00 
   18360:	c7 85 44 e7 ff ff 01 	movl   $0x1,-0x18bc(%rbp)
   18367:	00 00 00 
   1836a:	8b 85 2c e6 ff ff    	mov    -0x19d4(%rbp),%eax
   18370:	89 85 2c e6 ff ff    	mov    %eax,-0x19d4(%rbp)
   18376:	8b 85 40 ea ff ff    	mov    -0x15c0(%rbp),%eax
   1837c:	83 c0 01             	add    $0x1,%eax
   1837f:	89 85 40 ea ff ff    	mov    %eax,-0x15c0(%rbp)
   18385:	8b 05 5d c0 00 00    	mov    0xc05d(%rip),%eax        # 243e8 <g_147>
   1838b:	83 c0 01             	add    $0x1,%eax
   1838e:	89 05 54 c0 00 00    	mov    %eax,0xc054(%rip)        # 243e8 <g_147>
   18394:	8b 05 4e c0 00 00    	mov    0xc04e(%rip),%eax        # 243e8 <g_147>
   1839a:	83 f8 02             	cmp    $0x2,%eax
   1839d:	76 b7                	jbe    18356 <func_94+0xef2>
   1839f:	48 8d 85 2c e6 ff ff 	lea    -0x19d4(%rbp),%rax
   183a6:	48 89 85 10 e8 ff ff 	mov    %rax,-0x17f0(%rbp)
   183ad:	c7 85 7c e6 ff ff 00 	movl   $0x0,-0x1984(%rbp)
   183b4:	00 00 00 
   183b7:	e9 e2 02 00 00       	jmpq   1869e <func_94+0x123a>
   183bc:	48 8d 05 f5 0b 01 00 	lea    0x10bf5(%rip),%rax        # 28fb8 <g_302+0x8>
   183c3:	48 89 85 70 e9 ff ff 	mov    %rax,-0x1690(%rbp)
   183ca:	c7 85 38 e7 ff ff 73 	movl   $0x4342d373,-0x18c8(%rbp)
   183d1:	d3 42 43 
   183d4:	c7 85 3c e7 ff ff ff 	movl   $0xffffffff,-0x18c4(%rbp)
   183db:	ff ff ff 
   183de:	c7 85 9c e6 ff ff 00 	movl   $0x0,-0x1964(%rbp)
   183e5:	00 00 00 
   183e8:	eb 1e                	jmp    18408 <func_94+0xfa4>
   183ea:	8b 85 9c e6 ff ff    	mov    -0x1964(%rbp),%eax
   183f0:	48 98                	cltq   
   183f2:	48 8d 15 9f 0b 01 00 	lea    0x10b9f(%rip),%rdx        # 28f98 <g_238>
   183f9:	48 89 94 c5 00 eb ff 	mov    %rdx,-0x1500(%rbp,%rax,8)
   18400:	ff 
   18401:	83 85 9c e6 ff ff 01 	addl   $0x1,-0x1964(%rbp)
   18408:	83 bd 9c e6 ff ff 03 	cmpl   $0x3,-0x1964(%rbp)
   1840f:	7e d9                	jle    183ea <func_94+0xf86>
   18411:	c7 85 9c e6 ff ff 00 	movl   $0x0,-0x1964(%rbp)
   18418:	00 00 00 
   1841b:	eb 1e                	jmp    1843b <func_94+0xfd7>
   1841d:	8b 85 9c e6 ff ff    	mov    -0x1964(%rbp),%eax
   18423:	48 98                	cltq   
   18425:	48 8d 15 bc bf 00 00 	lea    0xbfbc(%rip),%rdx        # 243e8 <g_147>
   1842c:	48 89 94 c5 10 f8 ff 	mov    %rdx,-0x7f0(%rbp,%rax,8)
   18433:	ff 
   18434:	83 85 9c e6 ff ff 01 	addl   $0x1,-0x1964(%rbp)
   1843b:	83 bd 9c e6 ff ff 07 	cmpl   $0x7,-0x1964(%rbp)
   18442:	7e d9                	jle    1841d <func_94+0xfb9>
   18444:	8b 85 2c e6 ff ff    	mov    -0x19d4(%rbp),%eax
   1844a:	41 89 c4             	mov    %eax,%r12d
   1844d:	0f b6 85 10 ea ff ff 	movzbl -0x15f0(%rbp),%eax
   18454:	48 0f be d8          	movsbq %al,%rbx
   18458:	48 8b 05 61 0b 01 00 	mov    0x10b61(%rip),%rax        # 28fc0 <g_393>
   1845f:	8b 85 2c e6 ff ff    	mov    -0x19d4(%rbp),%eax
   18465:	f7 d0                	not    %eax
   18467:	48 63 d0             	movslq %eax,%rdx
   1846a:	8b 85 2c e6 ff ff    	mov    -0x19d4(%rbp),%eax
   18470:	48 98                	cltq   
   18472:	48 89 d6             	mov    %rdx,%rsi
   18475:	48 89 c7             	mov    %rax,%rdi
   18478:	e8 2b 34 ff ff       	callq  b8a8 <safe_sub_func_int64_t_s_s>
   1847d:	48 89 c2             	mov    %rax,%rdx
   18480:	48 8b 85 70 e9 ff ff 	mov    -0x1690(%rbp),%rax
   18487:	48 89 10             	mov    %rdx,(%rax)
   1848a:	48 8b 85 70 e9 ff ff 	mov    -0x1690(%rbp),%rax
   18491:	48 8b 08             	mov    (%rax),%rcx
   18494:	8b 85 7c e6 ff ff    	mov    -0x1984(%rbp),%eax
   1849a:	8d 50 01             	lea    0x1(%rax),%edx
   1849d:	48 8b 3d dc 0a 01 00 	mov    0x10adc(%rip),%rdi        # 28f80 <g_210>
   184a4:	0f b7 05 e7 bc 00 00 	movzwl 0xbce7(%rip),%eax        # 24192 <g_129>
   184ab:	0f b7 c0             	movzwl %ax,%eax
   184ae:	83 c0 01             	add    $0x1,%eax
   184b1:	48 63 f0             	movslq %eax,%rsi
   184b4:	48 63 d2             	movslq %edx,%rdx
   184b7:	48 89 d0             	mov    %rdx,%rax
   184ba:	48 01 c0             	add    %rax,%rax
   184bd:	48 01 d0             	add    %rdx,%rax
   184c0:	48 01 f8             	add    %rdi,%rax
   184c3:	48 c1 e0 02          	shl    $0x2,%rax
   184c7:	48 01 f0             	add    %rsi,%rax
   184ca:	48 8d 14 c5 00 00 00 	lea    0x0(,%rax,8),%rdx
   184d1:	00 
   184d2:	48 8d 05 27 bd 00 00 	lea    0xbd27(%rip),%rax        # 24200 <g_141>
   184d9:	48 8b 04 02          	mov    (%rdx,%rax,1),%rax
   184dd:	48 39 c1             	cmp    %rax,%rcx
   184e0:	0f 95 c0             	setne  %al
   184e3:	0f b6 d0             	movzbl %al,%edx
   184e6:	8b 85 40 ea ff ff    	mov    -0x15c0(%rbp),%eax
   184ec:	39 85 14 e7 ff ff    	cmp    %eax,-0x18ec(%rbp)
   184f2:	0f 92 c0             	setb   %al
   184f5:	0f b6 c0             	movzbl %al,%eax
   184f8:	89 d6                	mov    %edx,%esi
   184fa:	89 c7                	mov    %eax,%edi
   184fc:	e8 59 36 ff ff       	callq  bb5a <safe_add_func_uint8_t_u_u>
   18501:	8b 85 2c e6 ff ff    	mov    -0x19d4(%rbp),%eax
   18507:	85 c0                	test   %eax,%eax
   18509:	8b 85 7c e6 ff ff    	mov    -0x1984(%rbp),%eax
   1850f:	8d 50 01             	lea    0x1(%rax),%edx
   18512:	48 8b 35 67 0a 01 00 	mov    0x10a67(%rip),%rsi        # 28f80 <g_210>
   18519:	0f b7 05 72 bc 00 00 	movzwl 0xbc72(%rip),%eax        # 24192 <g_129>
   18520:	0f b7 c0             	movzwl %ax,%eax
   18523:	83 c0 01             	add    $0x1,%eax
   18526:	48 63 c8             	movslq %eax,%rcx
   18529:	48 63 d2             	movslq %edx,%rdx
   1852c:	48 89 d0             	mov    %rdx,%rax
   1852f:	48 01 c0             	add    %rax,%rax
   18532:	48 01 d0             	add    %rdx,%rax
   18535:	48 01 f0             	add    %rsi,%rax
   18538:	48 c1 e0 02          	shl    $0x2,%rax
   1853c:	48 01 c8             	add    %rcx,%rax
   1853f:	48 8d 14 c5 00 00 00 	lea    0x0(,%rax,8),%rdx
   18546:	00 
   18547:	48 8d 05 b2 bc 00 00 	lea    0xbcb2(%rip),%rax        # 24200 <g_141>
   1854e:	48 8b 14 02          	mov    (%rdx,%rax,1),%rdx
   18552:	8b 85 2c e6 ff ff    	mov    -0x19d4(%rbp),%eax
   18558:	48 98                	cltq   
   1855a:	48 21 d0             	and    %rdx,%rax
   1855d:	48 89 c2             	mov    %rax,%rdx
   18560:	48 8b 05 79 be 00 00 	mov    0xbe79(%rip),%rax        # 243e0 <g_143>
   18567:	48 39 c2             	cmp    %rax,%rdx
   1856a:	72 0a                	jb     18576 <func_94+0x1112>
   1856c:	8b 85 2c e6 ff ff    	mov    -0x19d4(%rbp),%eax
   18572:	85 c0                	test   %eax,%eax
   18574:	74 07                	je     1857d <func_94+0x1119>
   18576:	b8 01 00 00 00       	mov    $0x1,%eax
   1857b:	eb 05                	jmp    18582 <func_94+0x111e>
   1857d:	b8 00 00 00 00       	mov    $0x0,%eax
   18582:	48 98                	cltq   
   18584:	48 89 de             	mov    %rbx,%rsi
   18587:	48 89 c7             	mov    %rax,%rdi
   1858a:	e8 f1 3a ff ff       	callq  c080 <safe_mod_func_uint64_t_u_u>
   1858f:	0f b6 c0             	movzbl %al,%eax
   18592:	be 04 00 00 00       	mov    $0x4,%esi
   18597:	89 c7                	mov    %eax,%edi
   18599:	e8 ae 36 ff ff       	callq  bc4c <safe_lshift_func_uint8_t_u_u>
   1859e:	0f b6 c0             	movzbl %al,%eax
   185a1:	44 89 e6             	mov    %r12d,%esi
   185a4:	89 c7                	mov    %eax,%edi
   185a6:	e8 b8 2f ff ff       	callq  b563 <safe_rshift_func_int16_t_s_u>
   185ab:	48 0f bf c0          	movswq %ax,%rax
   185af:	48 21 85 20 e8 ff ff 	and    %rax,-0x17e0(%rbp)
   185b6:	0f b6 05 76 be 00 00 	movzbl 0xbe76(%rip),%eax        # 24433 <g_405+0x33>
   185bd:	83 c0 01             	add    $0x1,%eax
   185c0:	88 05 6d be 00 00    	mov    %al,0xbe6d(%rip)        # 24433 <g_405+0x33>
   185c6:	0f b7 85 46 e6 ff ff 	movzwl -0x19ba(%rbp),%eax
   185cd:	83 c0 01             	add    $0x1,%eax
   185d0:	66 89 85 46 e6 ff ff 	mov    %ax,-0x19ba(%rbp)
   185d7:	8b 85 5c e6 ff ff    	mov    -0x19a4(%rbp),%eax
   185dd:	0f be d8             	movsbl %al,%ebx
   185e0:	8b 85 2c e6 ff ff    	mov    -0x19d4(%rbp),%eax
   185e6:	0f be d0             	movsbl %al,%edx
   185e9:	48 8b 05 f0 bd 00 00 	mov    0xbdf0(%rip),%rax        # 243e0 <g_143>
   185f0:	48 83 e8 01          	sub    $0x1,%rax
   185f4:	48 89 05 e5 bd 00 00 	mov    %rax,0xbde5(%rip)        # 243e0 <g_143>
   185fb:	48 c7 05 3a be 00 00 	movq   $0x5a7,0xbe3a(%rip)        # 24440 <g_431>
   18602:	a7 05 00 00 
   18606:	48 8b 05 33 be 00 00 	mov    0xbe33(%rip),%rax        # 24440 <g_431>
   1860d:	0f be c0             	movsbl %al,%eax
   18610:	89 d6                	mov    %edx,%esi
   18612:	89 c7                	mov    %eax,%edi
   18614:	e8 f9 2b ff ff       	callq  b212 <safe_mul_func_int8_t_s_s>
   18619:	0f be d0             	movsbl %al,%edx
   1861c:	48 8b 85 10 e8 ff ff 	mov    -0x17f0(%rbp),%rax
   18623:	89 10                	mov    %edx,(%rax)
   18625:	48 8b 85 10 e8 ff ff 	mov    -0x17f0(%rbp),%rax
   1862c:	8b 00                	mov    (%rax),%eax
   1862e:	0d ff ff 00 00       	or     $0xffff,%eax
   18633:	89 85 18 e7 ff ff    	mov    %eax,-0x18e8(%rbp)
   18639:	8b 05 c5 ba 00 00    	mov    0xbac5(%rip),%eax        # 24104 <g_3+0x4>
   1863f:	98                   	cwtl   
   18640:	be 00 00 00 00       	mov    $0x0,%esi
   18645:	89 c7                	mov    %eax,%edi
   18647:	e8 95 2e ff ff       	callq  b4e1 <safe_lshift_func_int16_t_s_u>
   1864c:	48 8b 05 25 ec 00 00 	mov    0xec25(%rip),%rax        # 27278 <g_115>
   18653:	48 8b 00             	mov    (%rax),%rax
   18656:	0f b6 00             	movzbl (%rax),%eax
   18659:	0f be c0             	movsbl %al,%eax
   1865c:	89 de                	mov    %ebx,%esi
   1865e:	89 c7                	mov    %eax,%edi
   18660:	e8 8d 2b ff ff       	callq  b1f2 <safe_sub_func_int8_t_s_s>
   18665:	0f be c0             	movsbl %al,%eax
   18668:	be 01 00 00 00       	mov    $0x1,%esi
   1866d:	89 c7                	mov    %eax,%edi
   1866f:	e8 6d 2e ff ff       	callq  b4e1 <safe_lshift_func_int16_t_s_u>
   18674:	be 05 00 00 00       	mov    $0x5,%esi
   18679:	bf 01 00 00 00       	mov    $0x1,%edi
   1867e:	e8 e0 2e ff ff       	callq  b563 <safe_rshift_func_int16_t_s_u>
   18683:	8b 85 2c e6 ff ff    	mov    -0x19d4(%rbp),%eax
   18689:	89 85 3c e7 ff ff    	mov    %eax,-0x18c4(%rbp)
   1868f:	8b 85 7c e6 ff ff    	mov    -0x1984(%rbp),%eax
   18695:	83 c0 01             	add    $0x1,%eax
   18698:	89 85 7c e6 ff ff    	mov    %eax,-0x1984(%rbp)
   1869e:	8b 85 7c e6 ff ff    	mov    -0x1984(%rbp),%eax
   186a4:	83 f8 02             	cmp    $0x2,%eax
   186a7:	0f 8e 0f fd ff ff    	jle    183bc <func_94+0xf58>
   186ad:	0f b7 05 de ba 00 00 	movzwl 0xbade(%rip),%eax        # 24192 <g_129>
   186b4:	83 c0 01             	add    $0x1,%eax
   186b7:	66 89 05 d4 ba 00 00 	mov    %ax,0xbad4(%rip)        # 24192 <g_129>
   186be:	0f b7 05 cd ba 00 00 	movzwl 0xbacd(%rip),%eax        # 24192 <g_129>
   186c5:	66 83 f8 02          	cmp    $0x2,%ax
   186c9:	0f 86 2f fc ff ff    	jbe    182fe <func_94+0xe9a>
   186cf:	48 8b 05 aa 08 01 00 	mov    0x108aa(%rip),%rax        # 28f80 <g_210>
   186d6:	48 83 e8 01          	sub    $0x1,%rax
   186da:	48 89 05 9f 08 01 00 	mov    %rax,0x1089f(%rip)        # 28f80 <g_210>
   186e1:	48 8b 05 98 08 01 00 	mov    0x10898(%rip),%rax        # 28f80 <g_210>
   186e8:	48 85 c0             	test   %rax,%rax
   186eb:	0f 89 db fb ff ff    	jns    182cc <func_94+0xe68>
   186f1:	eb 01                	jmp    186f4 <func_94+0x1290>
   186f3:	90                   	nop
   186f4:	8b 85 30 ea ff ff    	mov    -0x15d0(%rbp),%eax
   186fa:	83 c0 01             	add    $0x1,%eax
   186fd:	89 85 30 ea ff ff    	mov    %eax,-0x15d0(%rbp)
   18703:	c6 05 ec bc 00 00 00 	movb   $0x0,0xbcec(%rip)        # 243f6 <g_315>
   1870a:	e9 5f 02 00 00       	jmpq   1896e <func_94+0x150a>
   1870f:	66 c7 85 56 e6 ff ff 	movw   $0x70a0,-0x19aa(%rbp)
   18716:	a0 70 
   18718:	48 c7 85 90 e9 ff ff 	movq   $0x0,-0x1670(%rbp)
   1871f:	00 00 00 00 
   18723:	c6 05 cd bc 00 00 00 	movb   $0x0,0xbccd(%rip)        # 243f7 <g_336>
   1872a:	e9 14 02 00 00       	jmpq   18943 <func_94+0x14df>
   1872f:	c7 85 a0 e6 ff ff 00 	movl   $0x0,-0x1960(%rbp)
   18736:	00 00 00 
   18739:	eb 4a                	jmp    18785 <func_94+0x1321>
   1873b:	c7 85 a4 e6 ff ff 00 	movl   $0x0,-0x195c(%rbp)
   18742:	00 00 00 
   18745:	eb 2e                	jmp    18775 <func_94+0x1311>
   18747:	8b 85 a4 e6 ff ff    	mov    -0x195c(%rbp),%eax
   1874d:	48 98                	cltq   
   1874f:	8b 95 a0 e6 ff ff    	mov    -0x1960(%rbp),%edx
   18755:	48 63 d2             	movslq %edx,%rdx
   18758:	48 01 d2             	add    %rdx,%rdx
   1875b:	48 8d 5d d0          	lea    -0x30(%rbp),%rbx
   1875f:	48 01 da             	add    %rbx,%rdx
   18762:	48 01 d0             	add    %rdx,%rax
   18765:	48 2d c0 07 00 00    	sub    $0x7c0,%rax
   1876b:	c6 00 ff             	movb   $0xff,(%rax)
   1876e:	83 85 a4 e6 ff ff 01 	addl   $0x1,-0x195c(%rbp)
   18775:	83 bd a4 e6 ff ff 01 	cmpl   $0x1,-0x195c(%rbp)
   1877c:	7e c9                	jle    18747 <func_94+0x12e3>
   1877e:	83 85 a0 e6 ff ff 01 	addl   $0x1,-0x1960(%rbp)
   18785:	83 bd a0 e6 ff ff 06 	cmpl   $0x6,-0x1960(%rbp)
   1878c:	7e ad                	jle    1873b <func_94+0x12d7>
   1878e:	8b 05 b4 04 01 00    	mov    0x104b4(%rip),%eax        # 28c48 <g_51>
   18794:	0f b7 d8             	movzwl %ax,%ebx
   18797:	0f bf 85 56 e6 ff ff 	movswl -0x19aa(%rbp),%eax
   1879e:	89 05 44 bc 00 00    	mov    %eax,0xbc44(%rip)        # 243e8 <g_147>
   187a4:	8b 05 3e bc 00 00    	mov    0xbc3e(%rip),%eax        # 243e8 <g_147>
   187aa:	41 89 c6             	mov    %eax,%r14d
   187ad:	8b 05 71 b9 00 00    	mov    0xb971(%rip),%eax        # 24124 <g_7>
   187b3:	44 0f b6 e0          	movzbl %al,%r12d
   187b7:	8b 85 2c e6 ff ff    	mov    -0x19d4(%rbp),%eax
   187bd:	44 0f be e8          	movsbl %al,%r13d
   187c1:	8b 05 79 b9 00 00    	mov    0xb979(%rip),%eax        # 24140 <g_74>
   187c7:	0f b7 c0             	movzwl %ax,%eax
   187ca:	be 02 00 00 00       	mov    $0x2,%esi
   187cf:	89 c7                	mov    %eax,%edi
   187d1:	e8 30 36 ff ff       	callq  be06 <safe_lshift_func_uint16_t_u_u>
   187d6:	8b 95 2c e6 ff ff    	mov    -0x19d4(%rbp),%edx
   187dc:	0f b6 05 14 bc 00 00 	movzbl 0xbc14(%rip),%eax        # 243f7 <g_336>
   187e3:	84 c0                	test   %al,%al
   187e5:	75 0b                	jne    187f2 <func_94+0x138e>
   187e7:	8b 85 2c e6 ff ff    	mov    -0x19d4(%rbp),%eax
   187ed:	83 f8 5f             	cmp    $0x5f,%eax
   187f0:	74 07                	je     187f9 <func_94+0x1395>
   187f2:	b8 01 00 00 00       	mov    $0x1,%eax
   187f7:	eb 05                	jmp    187fe <func_94+0x139a>
   187f9:	b8 00 00 00 00       	mov    $0x0,%eax
   187fe:	0f be c0             	movsbl %al,%eax
   18801:	89 d6                	mov    %edx,%esi
   18803:	89 c7                	mov    %eax,%edi
   18805:	e8 97 2a ff ff       	callq  b2a1 <safe_lshift_func_int8_t_s_s>
   1880a:	3c 03                	cmp    $0x3,%al
   1880c:	0f 97 c0             	seta   %al
   1880f:	0f b6 d0             	movzbl %al,%edx
   18812:	48 8b 05 57 ea 00 00 	mov    0xea57(%rip),%rax        # 27270 <g_116>
   18819:	0f b6 00             	movzbl (%rax),%eax
   1881c:	0f be c0             	movsbl %al,%eax
   1881f:	89 d6                	mov    %edx,%esi
   18821:	89 c7                	mov    %eax,%edi
   18823:	e8 ea 29 ff ff       	callq  b212 <safe_mul_func_int8_t_s_s>
   18828:	be 00 00 00 00       	mov    $0x0,%esi
   1882d:	bf 00 00 00 00       	mov    $0x0,%edi
   18832:	e8 6a 2a ff ff       	callq  b2a1 <safe_lshift_func_int8_t_s_s>
   18837:	0f be d0             	movsbl %al,%edx
   1883a:	8b 05 54 b9 00 00    	mov    0xb954(%rip),%eax        # 24194 <g_133>
   18840:	09 d0                	or     %edx,%eax
   18842:	85 c0                	test   %eax,%eax
   18844:	8b 85 2c e6 ff ff    	mov    -0x19d4(%rbp),%eax
   1884a:	0f be c0             	movsbl %al,%eax
   1884d:	44 89 ee             	mov    %r13d,%esi
   18850:	89 c7                	mov    %eax,%edi
   18852:	e8 da 29 ff ff       	callq  b231 <safe_mod_func_int8_t_s_s>
   18857:	0f b6 05 98 bb 00 00 	movzbl 0xbb98(%rip),%eax        # 243f6 <g_315>
   1885e:	48 8b 15 3b bb 00 00 	mov    0xbb3b(%rip),%rdx        # 243a0 <g_141+0x1a0>
   18865:	21 d0                	and    %edx,%eax
   18867:	83 f0 f6             	xor    $0xfffffff6,%eax
   1886a:	0f b6 c0             	movzbl %al,%eax
   1886d:	44 89 e6             	mov    %r12d,%esi
   18870:	89 c7                	mov    %eax,%edi
   18872:	e8 64 33 ff ff       	callq  bbdb <safe_div_func_uint8_t_u_u>
   18877:	0f b6 d0             	movzbl %al,%edx
   1887a:	8b 85 2c e6 ff ff    	mov    -0x19d4(%rbp),%eax
   18880:	39 c2                	cmp    %eax,%edx
   18882:	0f 94 c2             	sete   %dl
   18885:	48 8b 85 08 e9 ff ff 	mov    -0x16f8(%rbp),%rax
   1888c:	48 8b 00             	mov    (%rax),%rax
   1888f:	0f b6 d2             	movzbl %dl,%edx
   18892:	48 89 10             	mov    %rdx,(%rax)
   18895:	48 8b 00             	mov    (%rax),%rax
   18898:	83 e0 07             	and    $0x7,%eax
   1889b:	44 31 f0             	xor    %r14d,%eax
   1889e:	0f b7 c0             	movzwl %ax,%eax
   188a1:	89 c6                	mov    %eax,%esi
   188a3:	bf 02 00 00 00       	mov    $0x2,%edi
   188a8:	e8 af 34 ff ff       	callq  bd5c <safe_mod_func_uint16_t_u_u>
   188ad:	66 85 c0             	test   %ax,%ax
   188b0:	74 0a                	je     188bc <func_94+0x1458>
   188b2:	66 83 bd 50 e6 ff ff 	cmpw   $0x0,-0x19b0(%rbp)
   188b9:	00 
   188ba:	74 11                	je     188cd <func_94+0x1469>
   188bc:	8b 05 66 b8 00 00    	mov    0xb866(%rip),%eax        # 24128 <g_18>
   188c2:	85 c0                	test   %eax,%eax
   188c4:	74 07                	je     188cd <func_94+0x1469>
   188c6:	b8 01 00 00 00       	mov    $0x1,%eax
   188cb:	eb 05                	jmp    188d2 <func_94+0x146e>
   188cd:	b8 00 00 00 00       	mov    $0x0,%eax
   188d2:	48 98                	cltq   
   188d4:	48 39 85 48 e9 ff ff 	cmp    %rax,-0x16b8(%rbp)
   188db:	0f 93 c0             	setae  %al
   188de:	0f b6 c0             	movzbl %al,%eax
   188e1:	89 de                	mov    %ebx,%esi
   188e3:	89 c7                	mov    %eax,%edi
   188e5:	e8 53 34 ff ff       	callq  bd3d <safe_mul_func_uint16_t_u_u>
   188ea:	0f b7 d0             	movzwl %ax,%edx
   188ed:	48 8b 85 10 e8 ff ff 	mov    -0x17f0(%rbp),%rax
   188f4:	89 10                	mov    %edx,(%rax)
   188f6:	c7 85 80 e6 ff ff 00 	movl   $0x0,-0x1980(%rbp)
   188fd:	00 00 00 
   18900:	eb 26                	jmp    18928 <func_94+0x14c4>
   18902:	48 8d 85 80 e6 ff ff 	lea    -0x1980(%rbp),%rax
   18909:	48 89 85 90 e9 ff ff 	mov    %rax,-0x1670(%rbp)
   18910:	8b 85 80 e6 ff ff    	mov    -0x1980(%rbp),%eax
   18916:	be 07 00 00 00       	mov    $0x7,%esi
   1891b:	89 c7                	mov    %eax,%edi
   1891d:	e8 96 35 ff ff       	callq  beb8 <safe_add_func_uint32_t_u_u>
   18922:	89 85 80 e6 ff ff    	mov    %eax,-0x1980(%rbp)
   18928:	8b 85 80 e6 ff ff    	mov    -0x1980(%rbp),%eax
   1892e:	83 f8 1d             	cmp    $0x1d,%eax
   18931:	74 cf                	je     18902 <func_94+0x149e>
   18933:	0f b6 05 bd ba 00 00 	movzbl 0xbabd(%rip),%eax        # 243f7 <g_336>
   1893a:	83 c0 01             	add    $0x1,%eax
   1893d:	88 05 b4 ba 00 00    	mov    %al,0xbab4(%rip)        # 243f7 <g_336>
   18943:	0f b6 05 ad ba 00 00 	movzbl 0xbaad(%rip),%eax        # 243f7 <g_336>
   1894a:	3c 08                	cmp    $0x8,%al
   1894c:	0f 8e dd fd ff ff    	jle    1872f <func_94+0x12cb>
   18952:	0f b6 05 9d ba 00 00 	movzbl 0xba9d(%rip),%eax        # 243f6 <g_315>
   18959:	0f be c0             	movsbl %al,%eax
   1895c:	be 05 00 00 00       	mov    $0x5,%esi
   18961:	89 c7                	mov    %eax,%edi
   18963:	e8 6b 2a ff ff       	callq  b3d3 <safe_sub_func_int16_t_s_s>
   18968:	88 05 88 ba 00 00    	mov    %al,0xba88(%rip)        # 243f6 <g_315>
   1896e:	0f b6 05 81 ba 00 00 	movzbl 0xba81(%rip),%eax        # 243f6 <g_315>
   18975:	3c e5                	cmp    $0xe5,%al
   18977:	0f 84 92 fd ff ff    	je     1870f <func_94+0x12ab>
   1897d:	48 8b 85 c0 e7 ff ff 	mov    -0x1840(%rbp),%rax
   18984:	48 8b 95 30 e8 ff ff 	mov    -0x17d0(%rbp),%rdx
   1898b:	48 89 10             	mov    %rdx,(%rax)
   1898e:	48 8b 10             	mov    (%rax),%rdx
   18991:	48 8b 85 08 e9 ff ff 	mov    -0x16f8(%rbp),%rax
   18998:	48 8b 00             	mov    (%rax),%rax
   1899b:	48 39 c2             	cmp    %rax,%rdx
   1899e:	0f 94 c0             	sete   %al
   189a1:	0f b6 d8             	movzbl %al,%ebx
   189a4:	48 8b 85 50 e9 ff ff 	mov    -0x16b0(%rbp),%rax
   189ab:	48 89 85 10 e9 ff ff 	mov    %rax,-0x16f0(%rbp)
   189b2:	48 83 bd 10 e9 ff ff 	cmpq   $0x0,-0x16f0(%rbp)
   189b9:	00 
   189ba:	0f 94 c0             	sete   %al
   189bd:	0f b6 c0             	movzbl %al,%eax
   189c0:	be 05 00 00 00       	mov    $0x5,%esi
   189c5:	89 c7                	mov    %eax,%edi
   189c7:	e8 d5 28 ff ff       	callq  b2a1 <safe_lshift_func_int8_t_s_s>
   189cc:	0f be c0             	movsbl %al,%eax
   189cf:	f7 d0                	not    %eax
   189d1:	39 c3                	cmp    %eax,%ebx
   189d3:	7d 3c                	jge    18a11 <func_94+0x15ad>
   189d5:	48 8d 05 1c ec 00 00 	lea    0xec1c(%rip),%rax        # 275f8 <g_478>
   189dc:	48 89 85 88 e9 ff ff 	mov    %rax,-0x1678(%rbp)
   189e3:	48 8b 15 0e ec 00 00 	mov    0xec0e(%rip),%rdx        # 275f8 <g_478>
   189ea:	48 8b 85 88 e9 ff ff 	mov    -0x1678(%rbp),%rax
   189f1:	48 89 10             	mov    %rdx,(%rax)
   189f4:	48 8b 85 88 e9 ff ff 	mov    -0x1678(%rbp),%rax
   189fb:	48 8b 00             	mov    (%rax),%rax
   189fe:	48 89 85 58 e9 ff ff 	mov    %rax,-0x16a8(%rbp)
   18a05:	0f b6 05 ea b9 00 00 	movzbl 0xb9ea(%rip),%eax        # 243f6 <g_315>
   18a0c:	e9 33 35 00 00       	jmpq   1bf44 <func_94+0x4ae0>
   18a11:	c7 85 48 e7 ff ff e1 	movl   $0x4e310ce1,-0x18b8(%rbp)
   18a18:	0c 31 4e 
   18a1b:	48 c7 85 78 e9 ff ff 	movq   $0x2,-0x1688(%rbp)
   18a22:	02 00 00 00 
   18a26:	66 c7 85 52 e6 ff ff 	movw   $0x959d,-0x19ae(%rbp)
   18a2d:	9d 95 
   18a2f:	c7 85 4c e7 ff ff 3f 	movl   $0xdea15c3f,-0x18b4(%rbp)
   18a36:	5c a1 de 
   18a39:	c7 85 50 e7 ff ff 88 	movl   $0x42d5fe88,-0x18b0(%rbp)
   18a40:	fe d5 42 
   18a43:	c7 85 54 e7 ff ff b0 	movl   $0xb7c56cb0,-0x18ac(%rbp)
   18a4a:	6c c5 b7 
   18a4d:	c7 85 58 e7 ff ff 2b 	movl   $0x99cd742b,-0x18a8(%rbp)
   18a54:	74 cd 99 
   18a57:	c7 85 10 f8 ff ff 01 	movl   $0x1,-0x7f0(%rbp)
   18a5e:	00 00 00 
   18a61:	c7 85 14 f8 ff ff fa 	movl   $0xfffffffa,-0x7ec(%rbp)
   18a68:	ff ff ff 
   18a6b:	c7 85 18 f8 ff ff fa 	movl   $0xfffffffa,-0x7e8(%rbp)
   18a72:	ff ff ff 
   18a75:	c7 85 1c f8 ff ff 01 	movl   $0x1,-0x7e4(%rbp)
   18a7c:	00 00 00 
   18a7f:	c7 85 20 f8 ff ff 01 	movl   $0x1,-0x7e0(%rbp)
   18a86:	00 00 00 
   18a89:	c7 85 24 f8 ff ff fa 	movl   $0xfffffffa,-0x7dc(%rbp)
   18a90:	ff ff ff 
   18a93:	c7 85 28 f8 ff ff 01 	movl   $0x1,-0x7d8(%rbp)
   18a9a:	00 00 00 
   18a9d:	c7 85 2c f8 ff ff 01 	movl   $0x1,-0x7d4(%rbp)
   18aa4:	00 00 00 
   18aa7:	c7 85 30 f8 ff ff fa 	movl   $0xfffffffa,-0x7d0(%rbp)
   18aae:	ff ff ff 
   18ab1:	c7 85 34 f8 ff ff fa 	movl   $0xfffffffa,-0x7cc(%rbp)
   18ab8:	ff ff ff 
   18abb:	c7 85 38 f8 ff ff 01 	movl   $0x1,-0x7c8(%rbp)
   18ac2:	00 00 00 
   18ac5:	c7 85 3c f8 ff ff 01 	movl   $0x1,-0x7c4(%rbp)
   18acc:	00 00 00 
   18acf:	c7 85 40 f8 ff ff 01 	movl   $0x1,-0x7c0(%rbp)
   18ad6:	00 00 00 
   18ad9:	c7 85 44 f8 ff ff fa 	movl   $0xfffffffa,-0x7bc(%rbp)
   18ae0:	ff ff ff 
   18ae3:	c7 85 48 f8 ff ff fa 	movl   $0xfffffffa,-0x7b8(%rbp)
   18aea:	ff ff ff 
   18aed:	c7 85 4c f8 ff ff 01 	movl   $0x1,-0x7b4(%rbp)
   18af4:	00 00 00 
   18af7:	c7 85 50 f8 ff ff 01 	movl   $0x1,-0x7b0(%rbp)
   18afe:	00 00 00 
   18b01:	c7 85 54 f8 ff ff fa 	movl   $0xfffffffa,-0x7ac(%rbp)
   18b08:	ff ff ff 
   18b0b:	c7 85 58 f8 ff ff 01 	movl   $0x1,-0x7a8(%rbp)
   18b12:	00 00 00 
   18b15:	c7 85 5c f8 ff ff 01 	movl   $0x1,-0x7a4(%rbp)
   18b1c:	00 00 00 
   18b1f:	c7 85 60 f8 ff ff fa 	movl   $0xfffffffa,-0x7a0(%rbp)
   18b26:	ff ff ff 
   18b29:	c7 85 64 f8 ff ff fa 	movl   $0xfffffffa,-0x79c(%rbp)
   18b30:	ff ff ff 
   18b33:	c7 85 68 f8 ff ff 01 	movl   $0x1,-0x798(%rbp)
   18b3a:	00 00 00 
   18b3d:	c7 85 6c f8 ff ff 01 	movl   $0x1,-0x794(%rbp)
   18b44:	00 00 00 
   18b47:	c7 85 70 f8 ff ff 01 	movl   $0x1,-0x790(%rbp)
   18b4e:	00 00 00 
   18b51:	c7 85 74 f8 ff ff fa 	movl   $0xfffffffa,-0x78c(%rbp)
   18b58:	ff ff ff 
   18b5b:	c7 85 78 f8 ff ff fa 	movl   $0xfffffffa,-0x788(%rbp)
   18b62:	ff ff ff 
   18b65:	c7 85 7c f8 ff ff 01 	movl   $0x1,-0x784(%rbp)
   18b6c:	00 00 00 
   18b6f:	c7 85 80 f8 ff ff 01 	movl   $0x1,-0x780(%rbp)
   18b76:	00 00 00 
   18b79:	c7 85 84 f8 ff ff fa 	movl   $0xfffffffa,-0x77c(%rbp)
   18b80:	ff ff ff 
   18b83:	48 c7 85 80 e9 ff ff 	movq   $0x0,-0x1680(%rbp)
   18b8a:	00 00 00 00 
   18b8e:	66 c7 85 54 e6 ff ff 	movw   $0xfff6,-0x19ac(%rbp)
   18b95:	f6 ff 
   18b97:	48 c7 85 20 e8 ff ff 	movq   $0x2,-0x17e0(%rbp)
   18b9e:	02 00 00 00 
   18ba2:	48 83 bd 20 e8 ff ff 	cmpq   $0x0,-0x17e0(%rbp)
   18ba9:	00 
   18baa:	0f 88 d5 21 00 00    	js     1ad85 <func_94+0x3921>
   18bb0:	48 c7 85 00 e8 ff ff 	movq   $0xfffffffffffffff9,-0x1800(%rbp)
   18bb7:	f9 ff ff ff 
   18bbb:	48 8d 85 00 ed ff ff 	lea    -0x1300(%rbp),%rax
   18bc2:	48 05 30 01 00 00    	add    $0x130,%rax
   18bc8:	48 89 85 b0 e9 ff ff 	mov    %rax,-0x1650(%rbp)
   18bcf:	48 b8 eb 79 60 72 2f 	movabs $0x89ba0d2f726079eb,%rax
   18bd6:	0d ba 89 
   18bd9:	48 89 85 b8 e9 ff ff 	mov    %rax,-0x1648(%rbp)
   18be0:	48 b8 bf 93 ee 5b d9 	movabs $0xf470f9d95bee93bf,%rax
   18be7:	f9 70 f4 
   18bea:	48 89 85 c0 e9 ff ff 	mov    %rax,-0x1640(%rbp)
   18bf1:	c6 85 3f e6 ff ff 25 	movb   $0x25,-0x19c1(%rbp)
   18bf8:	c6 85 45 e6 ff ff 01 	movb   $0x1,-0x19bb(%rbp)
   18bff:	c7 85 a8 e6 ff ff 00 	movl   $0x0,-0x1958(%rbp)
   18c06:	00 00 00 
   18c09:	eb 1a                	jmp    18c25 <func_94+0x17c1>
   18c0b:	8b 85 a8 e6 ff ff    	mov    -0x1958(%rbp),%eax
   18c11:	48 98                	cltq   
   18c13:	c7 84 85 d0 ea ff ff 	movl   $0x0,-0x1530(%rbp,%rax,4)
   18c1a:	00 00 00 00 
   18c1e:	83 85 a8 e6 ff ff 01 	addl   $0x1,-0x1958(%rbp)
   18c25:	83 bd a8 e6 ff ff 04 	cmpl   $0x4,-0x1958(%rbp)
   18c2c:	7e dd                	jle    18c0b <func_94+0x17a7>
   18c2e:	c7 85 58 e6 ff ff 02 	movl   $0x2,-0x19a8(%rbp)
   18c35:	00 00 00 
   18c38:	e9 2b 21 00 00       	jmpq   1ad68 <func_94+0x3904>
   18c3d:	48 8d 05 74 03 01 00 	lea    0x10374(%rip),%rax        # 28fb8 <g_302+0x8>
   18c44:	48 89 85 08 e8 ff ff 	mov    %rax,-0x17f8(%rbp)
   18c4b:	c7 85 6c e6 ff ff 49 	movl   $0x971cec49,-0x1994(%rbp)
   18c52:	ec 1c 97 
   18c55:	c7 85 70 e6 ff ff 18 	movl   $0x818b4118,-0x1990(%rbp)
   18c5c:	41 8b 81 
   18c5f:	c7 85 74 e6 ff ff f9 	movl   $0xfffffff9,-0x198c(%rbp)
   18c66:	ff ff ff 
   18c69:	c7 85 78 e6 ff ff 00 	movl   $0x0,-0x1988(%rbp)
   18c70:	00 00 00 
   18c73:	c7 85 7c e6 ff ff 92 	movl   $0x6d9d3b92,-0x1984(%rbp)
   18c7a:	3b 9d 6d 
   18c7d:	c7 85 40 ec ff ff 01 	movl   $0x1,-0x13c0(%rbp)
   18c84:	00 00 00 
   18c87:	c7 85 44 ec ff ff 00 	movl   $0x0,-0x13bc(%rbp)
   18c8e:	00 00 00 
   18c91:	c7 85 48 ec ff ff e5 	movl   $0x98c4e5,-0x13b8(%rbp)
   18c98:	c4 98 00 
   18c9b:	c7 85 4c ec ff ff 8c 	movl   $0xecbfb78c,-0x13b4(%rbp)
   18ca2:	b7 bf ec 
   18ca5:	c7 85 50 ec ff ff ad 	movl   $0x8d1d13ad,-0x13b0(%rbp)
   18cac:	13 1d 8d 
   18caf:	c7 85 54 ec ff ff 01 	movl   $0x1,-0x13ac(%rbp)
   18cb6:	00 00 00 
   18cb9:	c7 85 58 ec ff ff e5 	movl   $0x98c4e5,-0x13a8(%rbp)
   18cc0:	c4 98 00 
   18cc3:	c7 85 5c ec ff ff ff 	movl   $0xffffffff,-0x13a4(%rbp)
   18cca:	ff ff ff 
   18ccd:	c7 85 60 ec ff ff 8c 	movl   $0xecbfb78c,-0x13a0(%rbp)
   18cd4:	b7 bf ec 
   18cd7:	c7 85 64 ec ff ff 8c 	movl   $0xecbfb78c,-0x139c(%rbp)
   18cde:	b7 bf ec 
   18ce1:	c7 85 68 ec ff ff ff 	movl   $0xffffffff,-0x1398(%rbp)
   18ce8:	ff ff ff 
   18ceb:	c7 85 6c ec ff ff e5 	movl   $0x98c4e5,-0x1394(%rbp)
   18cf2:	c4 98 00 
   18cf5:	c7 85 70 ec ff ff 01 	movl   $0x1,-0x1390(%rbp)
   18cfc:	00 00 00 
   18cff:	c7 85 74 ec ff ff ad 	movl   $0x8d1d13ad,-0x138c(%rbp)
   18d06:	13 1d 8d 
   18d09:	c7 85 78 ec ff ff 8c 	movl   $0xecbfb78c,-0x1388(%rbp)
   18d10:	b7 bf ec 
   18d13:	c7 85 7c ec ff ff e5 	movl   $0x98c4e5,-0x1384(%rbp)
   18d1a:	c4 98 00 
   18d1d:	c7 85 80 ec ff ff 00 	movl   $0x0,-0x1380(%rbp)
   18d24:	00 00 00 
   18d27:	c7 85 84 ec ff ff 01 	movl   $0x1,-0x137c(%rbp)
   18d2e:	00 00 00 
   18d31:	c7 85 88 ec ff ff fe 	movl   $0xfffffffe,-0x1378(%rbp)
   18d38:	ff ff ff 
   18d3b:	c7 85 8c ec ff ff ad 	movl   $0x8d1d13ad,-0x1374(%rbp)
   18d42:	13 1d 8d 
   18d45:	c7 85 90 ec ff ff e5 	movl   $0x98c4e5,-0x1370(%rbp)
   18d4c:	c4 98 00 
   18d4f:	c7 85 94 ec ff ff fe 	movl   $0xfffffffe,-0x136c(%rbp)
   18d56:	ff ff ff 
   18d59:	c7 85 98 ec ff ff ff 	movl   $0xffffffff,-0x1368(%rbp)
   18d60:	ff ff ff 
   18d63:	c7 85 9c ec ff ff fe 	movl   $0xfffffffe,-0x1364(%rbp)
   18d6a:	ff ff ff 
   18d6d:	c7 85 a0 ec ff ff fe 	movl   $0xfffffffe,-0x1360(%rbp)
   18d74:	ff ff ff 
   18d77:	c7 85 a4 ec ff ff ff 	movl   $0xffffffff,-0x135c(%rbp)
   18d7e:	ff ff ff 
   18d81:	c7 85 a8 ec ff ff fe 	movl   $0xfffffffe,-0x1358(%rbp)
   18d88:	ff ff ff 
   18d8b:	c7 85 ac ec ff ff e5 	movl   $0x98c4e5,-0x1354(%rbp)
   18d92:	c4 98 00 
   18d95:	c7 85 b0 ec ff ff ad 	movl   $0x8d1d13ad,-0x1350(%rbp)
   18d9c:	13 1d 8d 
   18d9f:	c7 85 b4 ec ff ff fe 	movl   $0xfffffffe,-0x134c(%rbp)
   18da6:	ff ff ff 
   18da9:	c7 85 b8 ec ff ff 01 	movl   $0x1,-0x1348(%rbp)
   18db0:	00 00 00 
   18db3:	c7 85 bc ec ff ff 00 	movl   $0x0,-0x1344(%rbp)
   18dba:	00 00 00 
   18dbd:	c7 85 c0 ec ff ff e5 	movl   $0x98c4e5,-0x1340(%rbp)
   18dc4:	c4 98 00 
   18dc7:	c7 85 c4 ec ff ff 8c 	movl   $0xecbfb78c,-0x133c(%rbp)
   18dce:	b7 bf ec 
   18dd1:	c7 85 c8 ec ff ff ad 	movl   $0x8d1d13ad,-0x1338(%rbp)
   18dd8:	13 1d 8d 
   18ddb:	c7 85 cc ec ff ff 01 	movl   $0x1,-0x1334(%rbp)
   18de2:	00 00 00 
   18de5:	c7 85 d0 ec ff ff e5 	movl   $0x98c4e5,-0x1330(%rbp)
   18dec:	c4 98 00 
   18def:	c7 85 d4 ec ff ff ff 	movl   $0xffffffff,-0x132c(%rbp)
   18df6:	ff ff ff 
   18df9:	c7 85 d8 ec ff ff 8c 	movl   $0xecbfb78c,-0x1328(%rbp)
   18e00:	b7 bf ec 
   18e03:	c7 85 dc ec ff ff 8c 	movl   $0xecbfb78c,-0x1324(%rbp)
   18e0a:	b7 bf ec 
   18e0d:	c7 85 e0 ec ff ff ff 	movl   $0xffffffff,-0x1320(%rbp)
   18e14:	ff ff ff 
   18e17:	c7 85 e4 ec ff ff e5 	movl   $0x98c4e5,-0x131c(%rbp)
   18e1e:	c4 98 00 
   18e21:	c7 85 e8 ec ff ff 01 	movl   $0x1,-0x1318(%rbp)
   18e28:	00 00 00 
   18e2b:	c7 85 ec ec ff ff ad 	movl   $0x8d1d13ad,-0x1314(%rbp)
   18e32:	13 1d 8d 
   18e35:	c7 85 f0 ec ff ff 8c 	movl   $0xecbfb78c,-0x1310(%rbp)
   18e3c:	b7 bf ec 
   18e3f:	c7 85 f4 ec ff ff e5 	movl   $0x98c4e5,-0x130c(%rbp)
   18e46:	c4 98 00 
   18e49:	c7 85 f8 ec ff ff 00 	movl   $0x0,-0x1308(%rbp)
   18e50:	00 00 00 
   18e53:	c7 85 fc ec ff ff 01 	movl   $0x1,-0x1304(%rbp)
   18e5a:	00 00 00 
   18e5d:	48 8d 85 64 e6 ff ff 	lea    -0x199c(%rbp),%rax
   18e64:	48 89 85 c8 e9 ff ff 	mov    %rax,-0x1638(%rbp)
   18e6b:	c6 85 40 e6 ff ff af 	movb   $0xaf,-0x19c0(%rbp)
   18e72:	c7 85 88 e7 ff ff fd 	movl   $0xfffffffd,-0x1878(%rbp)
   18e79:	ff ff ff 
   18e7c:	c7 85 8c e7 ff ff ff 	movl   $0xffffffff,-0x1874(%rbp)
   18e83:	ff ff ff 
   18e86:	c7 85 80 e6 ff ff 8c 	movl   $0xaf866c8c,-0x1980(%rbp)
   18e8d:	6c 86 af 
   18e90:	c7 85 10 f8 ff ff 37 	movl   $0xbd377f37,-0x7f0(%rbp)
   18e97:	7f 37 bd 
   18e9a:	c7 85 14 f8 ff ff 58 	movl   $0xff2e8658,-0x7ec(%rbp)
   18ea1:	86 2e ff 
   18ea4:	c7 85 18 f8 ff ff 37 	movl   $0xbd377f37,-0x7e8(%rbp)
   18eab:	7f 37 bd 
   18eae:	c7 85 1c f8 ff ff 37 	movl   $0xbd377f37,-0x7e4(%rbp)
   18eb5:	7f 37 bd 
   18eb8:	c7 85 20 f8 ff ff 58 	movl   $0xff2e8658,-0x7e0(%rbp)
   18ebf:	86 2e ff 
   18ec2:	c7 85 24 f8 ff ff 37 	movl   $0xbd377f37,-0x7dc(%rbp)
   18ec9:	7f 37 bd 
   18ecc:	c7 85 28 f8 ff ff 37 	movl   $0xbd377f37,-0x7d8(%rbp)
   18ed3:	7f 37 bd 
   18ed6:	c7 85 2c f8 ff ff 37 	movl   $0xbd377f37,-0x7d4(%rbp)
   18edd:	7f 37 bd 
   18ee0:	c7 85 30 f8 ff ff 00 	movl   $0x0,-0x7d0(%rbp)
   18ee7:	00 00 00 
   18eea:	c7 85 34 f8 ff ff 00 	movl   $0x0,-0x7cc(%rbp)
   18ef1:	00 00 00 
   18ef4:	48 8b 05 65 e3 00 00 	mov    0xe365(%rip),%rax        # 27260 <g_57>
   18efb:	48 8b 00             	mov    (%rax),%rax
   18efe:	48 89 85 b0 e9 ff ff 	mov    %rax,-0x1650(%rbp)
   18f05:	8b 85 80 e6 ff ff    	mov    -0x1980(%rbp),%eax
   18f0b:	85 c0                	test   %eax,%eax
   18f0d:	0f 85 65 1e 00 00    	jne    1ad78 <func_94+0x3914>
   18f13:	8b 85 2c e6 ff ff    	mov    -0x19d4(%rbp),%eax
   18f19:	0f be c0             	movsbl %al,%eax
   18f1c:	be 04 00 00 00       	mov    $0x4,%esi
   18f21:	89 c7                	mov    %eax,%edi
   18f23:	e8 44 24 ff ff       	callq  b36c <safe_rshift_func_int8_t_s_u>
   18f28:	b9 01 00 00 00       	mov    $0x1,%ecx
   18f2d:	48 8d 85 80 e6 ff ff 	lea    -0x1980(%rbp),%rax
   18f34:	48 89 85 c0 ea ff ff 	mov    %rax,-0x1540(%rbp)
   18f3b:	48 8b 95 c0 ea ff ff 	mov    -0x1540(%rbp),%rdx
   18f42:	48 8d 85 80 e6 ff ff 	lea    -0x1980(%rbp),%rax
   18f49:	48 39 c2             	cmp    %rax,%rdx
   18f4c:	0f 94 c0             	sete   %al
   18f4f:	0f b6 c0             	movzbl %al,%eax
   18f52:	39 c1                	cmp    %eax,%ecx
   18f54:	0f 9f c0             	setg   %al
   18f57:	0f b6 c0             	movzbl %al,%eax
   18f5a:	89 85 20 f8 ff ff    	mov    %eax,-0x7e0(%rbp)
   18f60:	48 8b 05 71 b3 00 00 	mov    0xb371(%rip),%rax        # 242d8 <g_141+0xd8>
   18f67:	48 ba 13 80 4a 43 ff 	movabs $0xffffffff434a8013,%rdx
   18f6e:	ff ff ff 
   18f71:	48 39 d0             	cmp    %rdx,%rax
   18f74:	8b 85 2c e6 ff ff    	mov    -0x19d4(%rbp),%eax
   18f7a:	66 89 05 11 b2 00 00 	mov    %ax,0xb211(%rip)        # 24192 <g_129>
   18f81:	0f b7 05 0a b2 00 00 	movzwl 0xb20a(%rip),%eax        # 24192 <g_129>
   18f88:	0f b7 d0             	movzwl %ax,%edx
   18f8b:	8b 85 2c e6 ff ff    	mov    -0x19d4(%rbp),%eax
   18f91:	39 c2                	cmp    %eax,%edx
   18f93:	0f 9f c0             	setg   %al
   18f96:	0f b6 c0             	movzbl %al,%eax
   18f99:	89 85 dc ea ff ff    	mov    %eax,-0x1524(%rbp)
   18f9f:	8b 85 64 e6 ff ff    	mov    -0x199c(%rbp),%eax
   18fa5:	83 e8 01             	sub    $0x1,%eax
   18fa8:	89 85 64 e6 ff ff    	mov    %eax,-0x199c(%rbp)
   18fae:	c7 05 88 b1 00 00 05 	movl   $0x5,0xb188(%rip)        # 24140 <g_74>
   18fb5:	00 00 00 
   18fb8:	e9 32 0b 00 00       	jmpq   19aef <func_94+0x268b>
   18fbd:	48 8d 85 58 e6 ff ff 	lea    -0x19a8(%rbp),%rax
   18fc4:	48 89 85 10 f8 ff ff 	mov    %rax,-0x7f0(%rbp)
   18fcb:	48 8d 05 c2 b1 00 00 	lea    0xb1c2(%rip),%rax        # 24194 <g_133>
   18fd2:	48 89 85 18 f8 ff ff 	mov    %rax,-0x7e8(%rbp)
   18fd9:	48 8d 85 58 e6 ff ff 	lea    -0x19a8(%rbp),%rax
   18fe0:	48 89 85 20 f8 ff ff 	mov    %rax,-0x7e0(%rbp)
   18fe7:	48 8d 85 58 e6 ff ff 	lea    -0x19a8(%rbp),%rax
   18fee:	48 89 85 28 f8 ff ff 	mov    %rax,-0x7d8(%rbp)
   18ff5:	48 8d 05 98 b1 00 00 	lea    0xb198(%rip),%rax        # 24194 <g_133>
   18ffc:	48 89 85 30 f8 ff ff 	mov    %rax,-0x7d0(%rbp)
   19003:	48 8d 85 58 e6 ff ff 	lea    -0x19a8(%rbp),%rax
   1900a:	48 89 85 38 f8 ff ff 	mov    %rax,-0x7c8(%rbp)
   19011:	48 8d 05 7c b1 00 00 	lea    0xb17c(%rip),%rax        # 24194 <g_133>
   19018:	48 89 85 40 f8 ff ff 	mov    %rax,-0x7c0(%rbp)
   1901f:	48 8d 85 58 e6 ff ff 	lea    -0x19a8(%rbp),%rax
   19026:	48 89 85 48 f8 ff ff 	mov    %rax,-0x7b8(%rbp)
   1902d:	48 c7 85 50 f8 ff ff 	movq   $0x0,-0x7b0(%rbp)
   19034:	00 00 00 00 
   19038:	48 8d 05 55 b1 00 00 	lea    0xb155(%rip),%rax        # 24194 <g_133>
   1903f:	48 89 85 58 f8 ff ff 	mov    %rax,-0x7a8(%rbp)
   19046:	48 8d 05 47 b1 00 00 	lea    0xb147(%rip),%rax        # 24194 <g_133>
   1904d:	48 89 85 60 f8 ff ff 	mov    %rax,-0x7a0(%rbp)
   19054:	48 8d 85 58 e6 ff ff 	lea    -0x19a8(%rbp),%rax
   1905b:	48 89 85 68 f8 ff ff 	mov    %rax,-0x798(%rbp)
   19062:	48 c7 85 70 f8 ff ff 	movq   $0x0,-0x790(%rbp)
   19069:	00 00 00 00 
   1906d:	48 8d 05 20 b1 00 00 	lea    0xb120(%rip),%rax        # 24194 <g_133>
   19074:	48 89 85 78 f8 ff ff 	mov    %rax,-0x788(%rbp)
   1907b:	48 8d 85 58 e6 ff ff 	lea    -0x19a8(%rbp),%rax
   19082:	48 89 85 80 f8 ff ff 	mov    %rax,-0x780(%rbp)
   19089:	48 c7 85 88 f8 ff ff 	movq   $0x0,-0x778(%rbp)
   19090:	00 00 00 00 
   19094:	48 8d 05 f9 b0 00 00 	lea    0xb0f9(%rip),%rax        # 24194 <g_133>
   1909b:	48 89 85 90 f8 ff ff 	mov    %rax,-0x770(%rbp)
   190a2:	48 8d 85 58 e6 ff ff 	lea    -0x19a8(%rbp),%rax
   190a9:	48 89 85 98 f8 ff ff 	mov    %rax,-0x768(%rbp)
   190b0:	48 8d 05 dd b0 00 00 	lea    0xb0dd(%rip),%rax        # 24194 <g_133>
   190b7:	48 89 85 a0 f8 ff ff 	mov    %rax,-0x760(%rbp)
   190be:	48 8d 85 58 e6 ff ff 	lea    -0x19a8(%rbp),%rax
   190c5:	48 89 85 a8 f8 ff ff 	mov    %rax,-0x758(%rbp)
   190cc:	48 8d 85 58 e6 ff ff 	lea    -0x19a8(%rbp),%rax
   190d3:	48 89 85 b0 f8 ff ff 	mov    %rax,-0x750(%rbp)
   190da:	48 8d 05 b3 b0 00 00 	lea    0xb0b3(%rip),%rax        # 24194 <g_133>
   190e1:	48 89 85 b8 f8 ff ff 	mov    %rax,-0x748(%rbp)
   190e8:	48 8d 85 58 e6 ff ff 	lea    -0x19a8(%rbp),%rax
   190ef:	48 89 85 c0 f8 ff ff 	mov    %rax,-0x740(%rbp)
   190f6:	48 8d 85 58 e6 ff ff 	lea    -0x19a8(%rbp),%rax
   190fd:	48 89 85 c8 f8 ff ff 	mov    %rax,-0x738(%rbp)
   19104:	48 8d 85 58 e6 ff ff 	lea    -0x19a8(%rbp),%rax
   1910b:	48 89 85 d0 f8 ff ff 	mov    %rax,-0x730(%rbp)
   19112:	48 8d 05 7b b0 00 00 	lea    0xb07b(%rip),%rax        # 24194 <g_133>
   19119:	48 89 85 d8 f8 ff ff 	mov    %rax,-0x728(%rbp)
   19120:	48 8d 05 6d b0 00 00 	lea    0xb06d(%rip),%rax        # 24194 <g_133>
   19127:	48 89 85 e0 f8 ff ff 	mov    %rax,-0x720(%rbp)
   1912e:	48 8d 05 5f b0 00 00 	lea    0xb05f(%rip),%rax        # 24194 <g_133>
   19135:	48 89 85 e8 f8 ff ff 	mov    %rax,-0x718(%rbp)
   1913c:	48 8d 05 51 b0 00 00 	lea    0xb051(%rip),%rax        # 24194 <g_133>
   19143:	48 89 85 f0 f8 ff ff 	mov    %rax,-0x710(%rbp)
   1914a:	48 8d 05 43 b0 00 00 	lea    0xb043(%rip),%rax        # 24194 <g_133>
   19151:	48 89 85 f8 f8 ff ff 	mov    %rax,-0x708(%rbp)
   19158:	48 8d 05 35 b0 00 00 	lea    0xb035(%rip),%rax        # 24194 <g_133>
   1915f:	48 89 85 00 f9 ff ff 	mov    %rax,-0x700(%rbp)
   19166:	48 8d 85 58 e6 ff ff 	lea    -0x19a8(%rbp),%rax
   1916d:	48 89 85 08 f9 ff ff 	mov    %rax,-0x6f8(%rbp)
   19174:	48 8d 85 58 e6 ff ff 	lea    -0x19a8(%rbp),%rax
   1917b:	48 89 85 10 f9 ff ff 	mov    %rax,-0x6f0(%rbp)
   19182:	48 8d 85 58 e6 ff ff 	lea    -0x19a8(%rbp),%rax
   19189:	48 89 85 18 f9 ff ff 	mov    %rax,-0x6e8(%rbp)
   19190:	48 8d 85 58 e6 ff ff 	lea    -0x19a8(%rbp),%rax
   19197:	48 89 85 20 f9 ff ff 	mov    %rax,-0x6e0(%rbp)
   1919e:	48 8d 85 58 e6 ff ff 	lea    -0x19a8(%rbp),%rax
   191a5:	48 89 85 28 f9 ff ff 	mov    %rax,-0x6d8(%rbp)
   191ac:	48 c7 85 30 f9 ff ff 	movq   $0x0,-0x6d0(%rbp)
   191b3:	00 00 00 00 
   191b7:	48 8d 85 58 e6 ff ff 	lea    -0x19a8(%rbp),%rax
   191be:	48 89 85 38 f9 ff ff 	mov    %rax,-0x6c8(%rbp)
   191c5:	48 8d 05 c8 af 00 00 	lea    0xafc8(%rip),%rax        # 24194 <g_133>
   191cc:	48 89 85 40 f9 ff ff 	mov    %rax,-0x6c0(%rbp)
   191d3:	48 8d 85 58 e6 ff ff 	lea    -0x19a8(%rbp),%rax
   191da:	48 89 85 48 f9 ff ff 	mov    %rax,-0x6b8(%rbp)
   191e1:	48 8d 85 58 e6 ff ff 	lea    -0x19a8(%rbp),%rax
   191e8:	48 89 85 50 f9 ff ff 	mov    %rax,-0x6b0(%rbp)
   191ef:	48 8d 05 9e af 00 00 	lea    0xaf9e(%rip),%rax        # 24194 <g_133>
   191f6:	48 89 85 58 f9 ff ff 	mov    %rax,-0x6a8(%rbp)
   191fd:	48 8d 05 90 af 00 00 	lea    0xaf90(%rip),%rax        # 24194 <g_133>
   19204:	48 89 85 60 f9 ff ff 	mov    %rax,-0x6a0(%rbp)
   1920b:	48 8d 85 58 e6 ff ff 	lea    -0x19a8(%rbp),%rax
   19212:	48 89 85 68 f9 ff ff 	mov    %rax,-0x698(%rbp)
   19219:	48 c7 85 70 f9 ff ff 	movq   $0x0,-0x690(%rbp)
   19220:	00 00 00 00 
   19224:	48 8d 05 69 af 00 00 	lea    0xaf69(%rip),%rax        # 24194 <g_133>
   1922b:	48 89 85 78 f9 ff ff 	mov    %rax,-0x688(%rbp)
   19232:	48 8d 85 58 e6 ff ff 	lea    -0x19a8(%rbp),%rax
   19239:	48 89 85 80 f9 ff ff 	mov    %rax,-0x680(%rbp)
   19240:	48 8d 85 58 e6 ff ff 	lea    -0x19a8(%rbp),%rax
   19247:	48 89 85 88 f9 ff ff 	mov    %rax,-0x678(%rbp)
   1924e:	48 8d 85 58 e6 ff ff 	lea    -0x19a8(%rbp),%rax
   19255:	48 89 85 90 f9 ff ff 	mov    %rax,-0x670(%rbp)
   1925c:	48 8d 05 31 af 00 00 	lea    0xaf31(%rip),%rax        # 24194 <g_133>
   19263:	48 89 85 98 f9 ff ff 	mov    %rax,-0x668(%rbp)
   1926a:	48 8d 05 23 af 00 00 	lea    0xaf23(%rip),%rax        # 24194 <g_133>
   19271:	48 89 85 a0 f9 ff ff 	mov    %rax,-0x660(%rbp)
   19278:	48 8d 85 58 e6 ff ff 	lea    -0x19a8(%rbp),%rax
   1927f:	48 89 85 a8 f9 ff ff 	mov    %rax,-0x658(%rbp)
   19286:	48 8d 05 07 af 00 00 	lea    0xaf07(%rip),%rax        # 24194 <g_133>
   1928d:	48 89 85 b0 f9 ff ff 	mov    %rax,-0x650(%rbp)
   19294:	48 8d 85 58 e6 ff ff 	lea    -0x19a8(%rbp),%rax
   1929b:	48 89 85 b8 f9 ff ff 	mov    %rax,-0x648(%rbp)
   192a2:	48 8d 05 eb ae 00 00 	lea    0xaeeb(%rip),%rax        # 24194 <g_133>
   192a9:	48 89 85 c0 f9 ff ff 	mov    %rax,-0x640(%rbp)
   192b0:	48 8d 05 dd ae 00 00 	lea    0xaedd(%rip),%rax        # 24194 <g_133>
   192b7:	48 89 85 c8 f9 ff ff 	mov    %rax,-0x638(%rbp)
   192be:	48 8d 85 58 e6 ff ff 	lea    -0x19a8(%rbp),%rax
   192c5:	48 89 85 d0 f9 ff ff 	mov    %rax,-0x630(%rbp)
   192cc:	48 8d 85 58 e6 ff ff 	lea    -0x19a8(%rbp),%rax
   192d3:	48 89 85 d8 f9 ff ff 	mov    %rax,-0x628(%rbp)
   192da:	48 8d 85 58 e6 ff ff 	lea    -0x19a8(%rbp),%rax
   192e1:	48 89 85 e0 f9 ff ff 	mov    %rax,-0x620(%rbp)
   192e8:	48 8d 85 58 e6 ff ff 	lea    -0x19a8(%rbp),%rax
   192ef:	48 89 85 e8 f9 ff ff 	mov    %rax,-0x618(%rbp)
   192f6:	48 8d 85 58 e6 ff ff 	lea    -0x19a8(%rbp),%rax
   192fd:	48 89 85 f0 f9 ff ff 	mov    %rax,-0x610(%rbp)
   19304:	48 8d 85 58 e6 ff ff 	lea    -0x19a8(%rbp),%rax
   1930b:	48 89 85 f8 f9 ff ff 	mov    %rax,-0x608(%rbp)
   19312:	48 8d 05 7b ae 00 00 	lea    0xae7b(%rip),%rax        # 24194 <g_133>
   19319:	48 89 85 00 fa ff ff 	mov    %rax,-0x600(%rbp)
   19320:	48 8d 05 6d ae 00 00 	lea    0xae6d(%rip),%rax        # 24194 <g_133>
   19327:	48 89 85 08 fa ff ff 	mov    %rax,-0x5f8(%rbp)
   1932e:	48 8d 05 5f ae 00 00 	lea    0xae5f(%rip),%rax        # 24194 <g_133>
   19335:	48 89 85 10 fa ff ff 	mov    %rax,-0x5f0(%rbp)
   1933c:	48 8d 05 51 ae 00 00 	lea    0xae51(%rip),%rax        # 24194 <g_133>
   19343:	48 89 85 18 fa ff ff 	mov    %rax,-0x5e8(%rbp)
   1934a:	48 8d 85 58 e6 ff ff 	lea    -0x19a8(%rbp),%rax
   19351:	48 89 85 20 fa ff ff 	mov    %rax,-0x5e0(%rbp)
   19358:	48 8d 05 35 ae 00 00 	lea    0xae35(%rip),%rax        # 24194 <g_133>
   1935f:	48 89 85 28 fa ff ff 	mov    %rax,-0x5d8(%rbp)
   19366:	48 c7 85 30 fa ff ff 	movq   $0x0,-0x5d0(%rbp)
   1936d:	00 00 00 00 
   19371:	48 c7 85 38 fa ff ff 	movq   $0x0,-0x5c8(%rbp)
   19378:	00 00 00 00 
   1937c:	48 8d 05 11 ae 00 00 	lea    0xae11(%rip),%rax        # 24194 <g_133>
   19383:	48 89 85 40 fa ff ff 	mov    %rax,-0x5c0(%rbp)
   1938a:	48 8d 85 58 e6 ff ff 	lea    -0x19a8(%rbp),%rax
   19391:	48 89 85 48 fa ff ff 	mov    %rax,-0x5b8(%rbp)
   19398:	48 c7 85 50 fa ff ff 	movq   $0x0,-0x5b0(%rbp)
   1939f:	00 00 00 00 
   193a3:	48 8d 85 58 e6 ff ff 	lea    -0x19a8(%rbp),%rax
   193aa:	48 89 85 58 fa ff ff 	mov    %rax,-0x5a8(%rbp)
   193b1:	48 8d 05 dc ad 00 00 	lea    0xaddc(%rip),%rax        # 24194 <g_133>
   193b8:	48 89 85 60 fa ff ff 	mov    %rax,-0x5a0(%rbp)
   193bf:	48 8d 05 ce ad 00 00 	lea    0xadce(%rip),%rax        # 24194 <g_133>
   193c6:	48 89 85 68 fa ff ff 	mov    %rax,-0x598(%rbp)
   193cd:	48 8d 05 c0 ad 00 00 	lea    0xadc0(%rip),%rax        # 24194 <g_133>
   193d4:	48 89 85 70 fa ff ff 	mov    %rax,-0x590(%rbp)
   193db:	48 8d 05 b2 ad 00 00 	lea    0xadb2(%rip),%rax        # 24194 <g_133>
   193e2:	48 89 85 78 fa ff ff 	mov    %rax,-0x588(%rbp)
   193e9:	48 8d 85 58 e6 ff ff 	lea    -0x19a8(%rbp),%rax
   193f0:	48 89 85 80 fa ff ff 	mov    %rax,-0x580(%rbp)
   193f7:	48 8d 85 58 e6 ff ff 	lea    -0x19a8(%rbp),%rax
   193fe:	48 89 85 88 fa ff ff 	mov    %rax,-0x578(%rbp)
   19405:	48 8d 85 58 e6 ff ff 	lea    -0x19a8(%rbp),%rax
   1940c:	48 89 85 90 fa ff ff 	mov    %rax,-0x570(%rbp)
   19413:	48 8d 05 7a ad 00 00 	lea    0xad7a(%rip),%rax        # 24194 <g_133>
   1941a:	48 89 85 98 fa ff ff 	mov    %rax,-0x568(%rbp)
   19421:	48 8d 05 6c ad 00 00 	lea    0xad6c(%rip),%rax        # 24194 <g_133>
   19428:	48 89 85 a0 fa ff ff 	mov    %rax,-0x560(%rbp)
   1942f:	48 8d 05 5e ad 00 00 	lea    0xad5e(%rip),%rax        # 24194 <g_133>
   19436:	48 89 85 a8 fa ff ff 	mov    %rax,-0x558(%rbp)
   1943d:	48 8d 85 58 e6 ff ff 	lea    -0x19a8(%rbp),%rax
   19444:	48 89 85 b0 fa ff ff 	mov    %rax,-0x550(%rbp)
   1944b:	48 8d 05 42 ad 00 00 	lea    0xad42(%rip),%rax        # 24194 <g_133>
   19452:	48 89 85 b8 fa ff ff 	mov    %rax,-0x548(%rbp)
   19459:	48 8d 05 34 ad 00 00 	lea    0xad34(%rip),%rax        # 24194 <g_133>
   19460:	48 89 85 c0 fa ff ff 	mov    %rax,-0x540(%rbp)
   19467:	48 8d 05 26 ad 00 00 	lea    0xad26(%rip),%rax        # 24194 <g_133>
   1946e:	48 89 85 c8 fa ff ff 	mov    %rax,-0x538(%rbp)
   19475:	48 8d 05 18 ad 00 00 	lea    0xad18(%rip),%rax        # 24194 <g_133>
   1947c:	48 89 85 d0 fa ff ff 	mov    %rax,-0x530(%rbp)
   19483:	48 8d 05 0a ad 00 00 	lea    0xad0a(%rip),%rax        # 24194 <g_133>
   1948a:	48 89 85 d8 fa ff ff 	mov    %rax,-0x528(%rbp)
   19491:	48 8d 05 fc ac 00 00 	lea    0xacfc(%rip),%rax        # 24194 <g_133>
   19498:	48 89 85 e0 fa ff ff 	mov    %rax,-0x520(%rbp)
   1949f:	48 8d 05 ee ac 00 00 	lea    0xacee(%rip),%rax        # 24194 <g_133>
   194a6:	48 89 85 e8 fa ff ff 	mov    %rax,-0x518(%rbp)
   194ad:	48 8d 05 e0 ac 00 00 	lea    0xace0(%rip),%rax        # 24194 <g_133>
   194b4:	48 89 85 f0 fa ff ff 	mov    %rax,-0x510(%rbp)
   194bb:	48 8d 05 d2 ac 00 00 	lea    0xacd2(%rip),%rax        # 24194 <g_133>
   194c2:	48 89 85 f8 fa ff ff 	mov    %rax,-0x508(%rbp)
   194c9:	48 8d 05 c4 ac 00 00 	lea    0xacc4(%rip),%rax        # 24194 <g_133>
   194d0:	48 89 85 00 fb ff ff 	mov    %rax,-0x500(%rbp)
   194d7:	48 8d 85 58 e6 ff ff 	lea    -0x19a8(%rbp),%rax
   194de:	48 89 85 08 fb ff ff 	mov    %rax,-0x4f8(%rbp)
   194e5:	48 8d 05 a8 ac 00 00 	lea    0xaca8(%rip),%rax        # 24194 <g_133>
   194ec:	48 89 85 10 fb ff ff 	mov    %rax,-0x4f0(%rbp)
   194f3:	48 8d 05 9a ac 00 00 	lea    0xac9a(%rip),%rax        # 24194 <g_133>
   194fa:	48 89 85 18 fb ff ff 	mov    %rax,-0x4e8(%rbp)
   19501:	48 8d 85 58 e6 ff ff 	lea    -0x19a8(%rbp),%rax
   19508:	48 89 85 20 fb ff ff 	mov    %rax,-0x4e0(%rbp)
   1950f:	48 8d 05 7e ac 00 00 	lea    0xac7e(%rip),%rax        # 24194 <g_133>
   19516:	48 89 85 28 fb ff ff 	mov    %rax,-0x4d8(%rbp)
   1951d:	48 8d 85 58 e6 ff ff 	lea    -0x19a8(%rbp),%rax
   19524:	48 89 85 30 fb ff ff 	mov    %rax,-0x4d0(%rbp)
   1952b:	48 8d 85 58 e6 ff ff 	lea    -0x19a8(%rbp),%rax
   19532:	48 89 85 38 fb ff ff 	mov    %rax,-0x4c8(%rbp)
   19539:	48 8d 05 54 ac 00 00 	lea    0xac54(%rip),%rax        # 24194 <g_133>
   19540:	48 89 85 40 fb ff ff 	mov    %rax,-0x4c0(%rbp)
   19547:	48 8d 85 58 e6 ff ff 	lea    -0x19a8(%rbp),%rax
   1954e:	48 89 85 48 fb ff ff 	mov    %rax,-0x4b8(%rbp)
   19555:	48 8d 85 58 e6 ff ff 	lea    -0x19a8(%rbp),%rax
   1955c:	48 89 85 50 fb ff ff 	mov    %rax,-0x4b0(%rbp)
   19563:	48 c7 85 58 fb ff ff 	movq   $0x0,-0x4a8(%rbp)
   1956a:	00 00 00 00 
   1956e:	48 8d 85 58 e6 ff ff 	lea    -0x19a8(%rbp),%rax
   19575:	48 89 85 60 fb ff ff 	mov    %rax,-0x4a0(%rbp)
   1957c:	48 8d 05 11 ac 00 00 	lea    0xac11(%rip),%rax        # 24194 <g_133>
   19583:	48 89 85 68 fb ff ff 	mov    %rax,-0x498(%rbp)
   1958a:	48 8d 05 03 ac 00 00 	lea    0xac03(%rip),%rax        # 24194 <g_133>
   19591:	48 89 85 70 fb ff ff 	mov    %rax,-0x490(%rbp)
   19598:	48 8d 05 f5 ab 00 00 	lea    0xabf5(%rip),%rax        # 24194 <g_133>
   1959f:	48 89 85 78 fb ff ff 	mov    %rax,-0x488(%rbp)
   195a6:	48 8d 85 58 e6 ff ff 	lea    -0x19a8(%rbp),%rax
   195ad:	48 89 85 80 fb ff ff 	mov    %rax,-0x480(%rbp)
   195b4:	48 8d 05 d9 ab 00 00 	lea    0xabd9(%rip),%rax        # 24194 <g_133>
   195bb:	48 89 85 88 fb ff ff 	mov    %rax,-0x478(%rbp)
   195c2:	48 8d 85 58 e6 ff ff 	lea    -0x19a8(%rbp),%rax
   195c9:	48 89 85 90 fb ff ff 	mov    %rax,-0x470(%rbp)
   195d0:	48 8d 85 58 e6 ff ff 	lea    -0x19a8(%rbp),%rax
   195d7:	48 89 85 98 fb ff ff 	mov    %rax,-0x468(%rbp)
   195de:	48 8d 85 58 e6 ff ff 	lea    -0x19a8(%rbp),%rax
   195e5:	48 89 85 a0 fb ff ff 	mov    %rax,-0x460(%rbp)
   195ec:	48 8d 85 58 e6 ff ff 	lea    -0x19a8(%rbp),%rax
   195f3:	48 89 85 a8 fb ff ff 	mov    %rax,-0x458(%rbp)
   195fa:	48 8d 05 93 ab 00 00 	lea    0xab93(%rip),%rax        # 24194 <g_133>
   19601:	48 89 85 b0 fb ff ff 	mov    %rax,-0x450(%rbp)
   19608:	48 8d 85 58 e6 ff ff 	lea    -0x19a8(%rbp),%rax
   1960f:	48 89 85 b8 fb ff ff 	mov    %rax,-0x448(%rbp)
   19616:	48 8d 05 77 ab 00 00 	lea    0xab77(%rip),%rax        # 24194 <g_133>
   1961d:	48 89 85 c0 fb ff ff 	mov    %rax,-0x440(%rbp)
   19624:	48 8d 05 69 ab 00 00 	lea    0xab69(%rip),%rax        # 24194 <g_133>
   1962b:	48 89 85 c8 fb ff ff 	mov    %rax,-0x438(%rbp)
   19632:	48 8d 05 5b ab 00 00 	lea    0xab5b(%rip),%rax        # 24194 <g_133>
   19639:	48 89 85 d0 fb ff ff 	mov    %rax,-0x430(%rbp)
   19640:	48 8d 85 58 e6 ff ff 	lea    -0x19a8(%rbp),%rax
   19647:	48 89 85 d8 fb ff ff 	mov    %rax,-0x428(%rbp)
   1964e:	48 8d 85 58 e6 ff ff 	lea    -0x19a8(%rbp),%rax
   19655:	48 89 85 e0 fb ff ff 	mov    %rax,-0x420(%rbp)
   1965c:	48 8d 85 58 e6 ff ff 	lea    -0x19a8(%rbp),%rax
   19663:	48 89 85 e8 fb ff ff 	mov    %rax,-0x418(%rbp)
   1966a:	48 8d 05 23 ab 00 00 	lea    0xab23(%rip),%rax        # 24194 <g_133>
   19671:	48 89 85 f0 fb ff ff 	mov    %rax,-0x410(%rbp)
   19678:	48 8d 05 15 ab 00 00 	lea    0xab15(%rip),%rax        # 24194 <g_133>
   1967f:	48 89 85 f8 fb ff ff 	mov    %rax,-0x408(%rbp)
   19686:	48 8d 85 58 e6 ff ff 	lea    -0x19a8(%rbp),%rax
   1968d:	48 89 85 00 fc ff ff 	mov    %rax,-0x400(%rbp)
   19694:	48 8d 85 58 e6 ff ff 	lea    -0x19a8(%rbp),%rax
   1969b:	48 89 85 08 fc ff ff 	mov    %rax,-0x3f8(%rbp)
   196a2:	48 c7 85 10 fc ff ff 	movq   $0x0,-0x3f0(%rbp)
   196a9:	00 00 00 00 
   196ad:	48 8d 05 e0 aa 00 00 	lea    0xaae0(%rip),%rax        # 24194 <g_133>
   196b4:	48 89 85 18 fc ff ff 	mov    %rax,-0x3e8(%rbp)
   196bb:	48 8d 05 d2 aa 00 00 	lea    0xaad2(%rip),%rax        # 24194 <g_133>
   196c2:	48 89 85 20 fc ff ff 	mov    %rax,-0x3e0(%rbp)
   196c9:	48 8d 85 58 e6 ff ff 	lea    -0x19a8(%rbp),%rax
   196d0:	48 89 85 28 fc ff ff 	mov    %rax,-0x3d8(%rbp)
   196d7:	48 8d 05 b6 aa 00 00 	lea    0xaab6(%rip),%rax        # 24194 <g_133>
   196de:	48 89 85 30 fc ff ff 	mov    %rax,-0x3d0(%rbp)
   196e5:	48 8d 05 a8 aa 00 00 	lea    0xaaa8(%rip),%rax        # 24194 <g_133>
   196ec:	48 89 85 38 fc ff ff 	mov    %rax,-0x3c8(%rbp)
   196f3:	48 8d 05 9a aa 00 00 	lea    0xaa9a(%rip),%rax        # 24194 <g_133>
   196fa:	48 89 85 40 fc ff ff 	mov    %rax,-0x3c0(%rbp)
   19701:	48 8d 85 58 e6 ff ff 	lea    -0x19a8(%rbp),%rax
   19708:	48 89 85 48 fc ff ff 	mov    %rax,-0x3b8(%rbp)
   1970f:	48 8d 05 7e aa 00 00 	lea    0xaa7e(%rip),%rax        # 24194 <g_133>
   19716:	48 89 85 50 fc ff ff 	mov    %rax,-0x3b0(%rbp)
   1971d:	48 8d 85 58 e6 ff ff 	lea    -0x19a8(%rbp),%rax
   19724:	48 89 85 58 fc ff ff 	mov    %rax,-0x3a8(%rbp)
   1972b:	48 8d 05 62 aa 00 00 	lea    0xaa62(%rip),%rax        # 24194 <g_133>
   19732:	48 89 85 60 fc ff ff 	mov    %rax,-0x3a0(%rbp)
   19739:	48 8d 85 58 e6 ff ff 	lea    -0x19a8(%rbp),%rax
   19740:	48 89 85 68 fc ff ff 	mov    %rax,-0x398(%rbp)
   19747:	48 c7 85 70 fc ff ff 	movq   $0x0,-0x390(%rbp)
   1974e:	00 00 00 00 
   19752:	48 8d 85 58 e6 ff ff 	lea    -0x19a8(%rbp),%rax
   19759:	48 89 85 78 fc ff ff 	mov    %rax,-0x388(%rbp)
   19760:	48 8d 85 58 e6 ff ff 	lea    -0x19a8(%rbp),%rax
   19767:	48 89 85 80 fc ff ff 	mov    %rax,-0x380(%rbp)
   1976e:	48 8d 85 58 e6 ff ff 	lea    -0x19a8(%rbp),%rax
   19775:	48 89 85 88 fc ff ff 	mov    %rax,-0x378(%rbp)
   1977c:	48 8d 05 11 aa 00 00 	lea    0xaa11(%rip),%rax        # 24194 <g_133>
   19783:	48 89 85 90 fc ff ff 	mov    %rax,-0x370(%rbp)
   1978a:	48 8d 05 03 aa 00 00 	lea    0xaa03(%rip),%rax        # 24194 <g_133>
   19791:	48 89 85 98 fc ff ff 	mov    %rax,-0x368(%rbp)
   19798:	48 8d 85 58 e6 ff ff 	lea    -0x19a8(%rbp),%rax
   1979f:	48 89 85 a0 fc ff ff 	mov    %rax,-0x360(%rbp)
   197a6:	48 8d 05 e7 a9 00 00 	lea    0xa9e7(%rip),%rax        # 24194 <g_133>
   197ad:	48 89 85 a8 fc ff ff 	mov    %rax,-0x358(%rbp)
   197b4:	48 8d 05 d9 a9 00 00 	lea    0xa9d9(%rip),%rax        # 24194 <g_133>
   197bb:	48 89 85 b0 fc ff ff 	mov    %rax,-0x350(%rbp)
   197c2:	48 8d 05 cb a9 00 00 	lea    0xa9cb(%rip),%rax        # 24194 <g_133>
   197c9:	48 89 85 b8 fc ff ff 	mov    %rax,-0x348(%rbp)
   197d0:	48 8d 05 bd a9 00 00 	lea    0xa9bd(%rip),%rax        # 24194 <g_133>
   197d7:	48 89 85 c0 fc ff ff 	mov    %rax,-0x340(%rbp)
   197de:	48 8d 85 58 e6 ff ff 	lea    -0x19a8(%rbp),%rax
   197e5:	48 89 85 c8 fc ff ff 	mov    %rax,-0x338(%rbp)
   197ec:	48 8d 05 a1 a9 00 00 	lea    0xa9a1(%rip),%rax        # 24194 <g_133>
   197f3:	48 89 85 d0 fc ff ff 	mov    %rax,-0x330(%rbp)
   197fa:	48 8d 05 93 a9 00 00 	lea    0xa993(%rip),%rax        # 24194 <g_133>
   19801:	48 89 85 d8 fc ff ff 	mov    %rax,-0x328(%rbp)
   19808:	48 8d 85 58 e6 ff ff 	lea    -0x19a8(%rbp),%rax
   1980f:	48 89 85 e0 fc ff ff 	mov    %rax,-0x320(%rbp)
   19816:	48 8d 85 58 e6 ff ff 	lea    -0x19a8(%rbp),%rax
   1981d:	48 89 85 e8 fc ff ff 	mov    %rax,-0x318(%rbp)
   19824:	48 8d 85 58 e6 ff ff 	lea    -0x19a8(%rbp),%rax
   1982b:	48 89 85 f0 fc ff ff 	mov    %rax,-0x310(%rbp)
   19832:	48 8d 85 58 e6 ff ff 	lea    -0x19a8(%rbp),%rax
   19839:	48 89 85 f8 fc ff ff 	mov    %rax,-0x308(%rbp)
   19840:	48 8d 85 58 e6 ff ff 	lea    -0x19a8(%rbp),%rax
   19847:	48 89 85 00 fd ff ff 	mov    %rax,-0x300(%rbp)
   1984e:	48 c7 85 08 fd ff ff 	movq   $0x0,-0x2f8(%rbp)
   19855:	00 00 00 00 
   19859:	c6 85 80 e6 ff ff fe 	movb   $0xfe,-0x1980(%rbp)
   19860:	c7 85 9c e7 ff ff 67 	movl   $0x3b851967,-0x1864(%rbp)
   19867:	19 85 3b 
   1986a:	48 8d 85 60 f1 ff ff 	lea    -0xea0(%rbp),%rax
   19871:	48 83 e8 80          	sub    $0xffffffffffffff80,%rax
   19875:	48 89 85 00 ea ff ff 	mov    %rax,-0x1600(%rbp)
   1987c:	c7 85 ac e6 ff ff 00 	movl   $0x0,-0x1954(%rbp)
   19883:	00 00 00 
   19886:	eb 1a                	jmp    198a2 <func_94+0x243e>
   19888:	8b 85 ac e6 ff ff    	mov    -0x1954(%rbp),%eax
   1988e:	48 98                	cltq   
   19890:	c7 84 85 00 eb ff ff 	movl   $0x8a20bf48,-0x1500(%rbp,%rax,4)
   19897:	48 bf 20 8a 
   1989b:	83 85 ac e6 ff ff 01 	addl   $0x1,-0x1954(%rbp)
   198a2:	83 bd ac e6 ff ff 00 	cmpl   $0x0,-0x1954(%rbp)
   198a9:	7e dd                	jle    19888 <func_94+0x2424>
   198ab:	8b 85 74 e6 ff ff    	mov    -0x198c(%rbp),%eax
   198b1:	41 89 c4             	mov    %eax,%r12d
   198b4:	48 8b 05 cd d9 00 00 	mov    0xd9cd(%rip),%rax        # 27288 <g_187>
   198bb:	48 8b 00             	mov    (%rax),%rax
   198be:	48 39 85 c8 e9 ff ff 	cmp    %rax,-0x1638(%rbp)
   198c5:	0f 94 c0             	sete   %al
   198c8:	0f b6 c0             	movzbl %al,%eax
   198cb:	89 85 60 e6 ff ff    	mov    %eax,-0x19a0(%rbp)
   198d1:	8b 85 2c e6 ff ff    	mov    -0x19d4(%rbp),%eax
   198d7:	0f b7 d0             	movzwl %ax,%edx
   198da:	48 8b 8d 68 f1 ff ff 	mov    -0xe98(%rbp),%rcx
   198e1:	48 8b 85 00 ea ff ff 	mov    -0x1600(%rbp),%rax
   198e8:	48 89 08             	mov    %rcx,(%rax)
   198eb:	48 8b 85 00 ea ff ff 	mov    -0x1600(%rbp),%rax
   198f2:	48 8b 08             	mov    (%rax),%rcx
   198f5:	48 8b 85 90 f3 ff ff 	mov    -0xc70(%rbp),%rax
   198fc:	48 39 c1             	cmp    %rax,%rcx
   198ff:	0f 95 c0             	setne  %al
   19902:	0f b6 c0             	movzbl %al,%eax
   19905:	89 d6                	mov    %edx,%esi
   19907:	89 c7                	mov    %eax,%edi
   19909:	e8 f1 23 ff ff       	callq  bcff <safe_add_func_uint16_t_u_u>
   1990e:	0f bf d8             	movswl %ax,%ebx
   19911:	8b 85 7c e6 ff ff    	mov    -0x1984(%rbp),%eax
   19917:	83 c8 2a             	or     $0x2a,%eax
   1991a:	89 85 7c e6 ff ff    	mov    %eax,-0x1984(%rbp)
   19920:	8b 85 7c e6 ff ff    	mov    -0x1984(%rbp),%eax
   19926:	89 85 9c e7 ff ff    	mov    %eax,-0x1864(%rbp)
   1992c:	0f b6 05 c3 aa 00 00 	movzbl 0xaac3(%rip),%eax        # 243f6 <g_315>
   19933:	0f b6 c0             	movzbl %al,%eax
   19936:	be 05 00 00 00       	mov    $0x5,%esi
   1993b:	89 c7                	mov    %eax,%edi
   1993d:	e8 4b 23 ff ff       	callq  bc8d <safe_rshift_func_uint8_t_u_s>
   19942:	0f b6 c0             	movzbl %al,%eax
   19945:	be 0e 00 00 00       	mov    $0xe,%esi
   1994a:	89 c7                	mov    %eax,%edi
   1994c:	e8 d9 1b ff ff       	callq  b52a <safe_rshift_func_int16_t_s_s>
   19951:	0f be c0             	movsbl %al,%eax
   19954:	be 05 00 00 00       	mov    $0x5,%esi
   19959:	89 c7                	mov    %eax,%edi
   1995b:	e8 0c 1a ff ff       	callq  b36c <safe_rshift_func_int8_t_s_u>
   19960:	84 c0                	test   %al,%al
   19962:	74 07                	je     1996b <func_94+0x2507>
   19964:	b8 01 00 00 00       	mov    $0x1,%eax
   19969:	eb 05                	jmp    19970 <func_94+0x250c>
   1996b:	b8 00 00 00 00       	mov    $0x0,%eax
   19970:	f7 d0                	not    %eax
   19972:	48 98                	cltq   
   19974:	0f b6 95 3f e6 ff ff 	movzbl -0x19c1(%rbp),%edx
   1997b:	88 95 80 e6 ff ff    	mov    %dl,-0x1980(%rbp)
   19981:	48 89 c6             	mov    %rax,%rsi
   19984:	48 bf 54 f3 b8 e8 b2 	movabs $0x566b73b2e8b8f354,%rdi
   1998b:	73 6b 56 
   1998e:	e8 b8 26 ff ff       	callq  c04b <safe_sub_func_uint64_t_u_u>
   19993:	98                   	cwtl   
   19994:	89 de                	mov    %ebx,%esi
   19996:	89 c7                	mov    %eax,%edi
   19998:	e8 b8 1a ff ff       	callq  b455 <safe_div_func_int16_t_s_s>
   1999d:	89 c2                	mov    %eax,%edx
   1999f:	48 8b 85 08 e9 ff ff 	mov    -0x16f8(%rbp),%rax
   199a6:	48 8b 00             	mov    (%rax),%rax
   199a9:	48 0f bf d2          	movswq %dx,%rdx
   199ad:	48 89 10             	mov    %rdx,(%rax)
   199b0:	48 8b 00             	mov    (%rax),%rax
   199b3:	48 89 c2             	mov    %rax,%rdx
   199b6:	48 b8 c1 34 67 9e fe 	movabs $0xa006a4fe9e6734c1,%rax
   199bd:	a4 06 a0 
   199c0:	48 21 c2             	and    %rax,%rdx
   199c3:	8b 85 2c e6 ff ff    	mov    -0x19d4(%rbp),%eax
   199c9:	48 98                	cltq   
   199cb:	48 39 c2             	cmp    %rax,%rdx
   199ce:	0f 97 c0             	seta   %al
   199d1:	0f b6 d0             	movzbl %al,%edx
   199d4:	8b 85 00 eb ff ff    	mov    -0x1500(%rbp),%eax
   199da:	39 c2                	cmp    %eax,%edx
   199dc:	0f 9c c0             	setl   %al
   199df:	0f b6 d0             	movzbl %al,%edx
   199e2:	8b 05 ac a7 00 00    	mov    0xa7ac(%rip),%eax        # 24194 <g_133>
   199e8:	39 c2                	cmp    %eax,%edx
   199ea:	0f 94 c0             	sete   %al
   199ed:	0f b6 c0             	movzbl %al,%eax
   199f0:	44 89 e6             	mov    %r12d,%esi
   199f3:	89 c7                	mov    %eax,%edi
   199f5:	e8 0c 24 ff ff       	callq  be06 <safe_lshift_func_uint16_t_u_u>
   199fa:	0f b7 d0             	movzwl %ax,%edx
   199fd:	0f b6 05 c5 aa 00 00 	movzbl 0xaac5(%rip),%eax        # 244c9 <g_663+0x29>
   19a04:	0f be c0             	movsbl %al,%eax
   19a07:	39 c2                	cmp    %eax,%edx
   19a09:	0f 9c c0             	setl   %al
   19a0c:	0f b6 d0             	movzbl %al,%edx
   19a0f:	48 8b 05 ea db 00 00 	mov    0xdbea(%rip),%rax        # 27600 <g_501>
   19a16:	0f b6 00             	movzbl (%rax),%eax
   19a19:	0f be c0             	movsbl %al,%eax
   19a1c:	31 c2                	xor    %eax,%edx
   19a1e:	8b 85 dc ea ff ff    	mov    -0x1524(%rbp),%eax
   19a24:	21 d0                	and    %edx,%eax
   19a26:	89 85 dc ea ff ff    	mov    %eax,-0x1524(%rbp)
   19a2c:	48 8b 05 05 dc 00 00 	mov    0xdc05(%rip),%rax        # 27638 <g_567>
   19a33:	48 8b 00             	mov    (%rax),%rax
   19a36:	48 8b 00             	mov    (%rax),%rax
   19a39:	89 85 78 e6 ff ff    	mov    %eax,-0x1988(%rbp)
   19a3f:	44 8b a5 78 e6 ff ff 	mov    -0x1988(%rbp),%r12d
   19a46:	8b 9d 2c e6 ff ff    	mov    -0x19d4(%rbp),%ebx
   19a4c:	8b 85 2c e6 ff ff    	mov    -0x19d4(%rbp),%eax
   19a52:	89 c2                	mov    %eax,%edx
   19a54:	48 8b 85 c8 e9 ff ff 	mov    -0x1638(%rbp),%rax
   19a5b:	89 10                	mov    %edx,(%rax)
   19a5d:	48 8b 85 c8 e9 ff ff 	mov    -0x1638(%rbp),%rax
   19a64:	8b 10                	mov    (%rax),%edx
   19a66:	48 8b 05 bb db 00 00 	mov    0xdbbb(%rip),%rax        # 27628 <g_546>
   19a6d:	48 8b 00             	mov    (%rax),%rax
   19a70:	48 8b 08             	mov    (%rax),%rcx
   19a73:	48 8d 85 5c e6 ff ff 	lea    -0x19a4(%rbp),%rax
   19a7a:	48 39 c1             	cmp    %rax,%rcx
   19a7d:	0f 95 c0             	setne  %al
   19a80:	0f b6 c0             	movzbl %al,%eax
   19a83:	39 c2                	cmp    %eax,%edx
   19a85:	0f 92 c0             	setb   %al
   19a88:	0f b6 d0             	movzbl %al,%edx
   19a8b:	0f b6 85 80 e6 ff ff 	movzbl -0x1980(%rbp),%eax
   19a92:	0f be c0             	movsbl %al,%eax
   19a95:	39 c2                	cmp    %eax,%edx
   19a97:	be 06 00 00 00       	mov    $0x6,%esi
   19a9c:	bf 00 00 00 00       	mov    $0x0,%edi
   19aa1:	e8 fb 17 ff ff       	callq  b2a1 <safe_lshift_func_int8_t_s_s>
   19aa6:	0f be c0             	movsbl %al,%eax
   19aa9:	89 de                	mov    %ebx,%esi
   19aab:	89 c7                	mov    %eax,%edi
   19aad:	e8 1a 1c ff ff       	callq  b6cc <safe_mod_func_int32_t_s_s>
   19ab2:	0f b6 95 80 e6 ff ff 	movzbl -0x1980(%rbp),%edx
   19ab9:	0f be d2             	movsbl %dl,%edx
   19abc:	39 d0                	cmp    %edx,%eax
   19abe:	0f 9e c0             	setle  %al
   19ac1:	0f b6 c0             	movzbl %al,%eax
   19ac4:	44 89 e2             	mov    %r12d,%edx
   19ac7:	21 c2                	and    %eax,%edx
   19ac9:	8b 85 d0 ea ff ff    	mov    -0x1530(%rbp),%eax
   19acf:	31 d0                	xor    %edx,%eax
   19ad1:	89 85 d0 ea ff ff    	mov    %eax,-0x1530(%rbp)
   19ad7:	8b 05 63 a6 00 00    	mov    0xa663(%rip),%eax        # 24140 <g_74>
   19add:	be 07 00 00 00       	mov    $0x7,%esi
   19ae2:	89 c7                	mov    %eax,%edi
   19ae4:	e8 cf 23 ff ff       	callq  beb8 <safe_add_func_uint32_t_u_u>
   19ae9:	89 05 51 a6 00 00    	mov    %eax,0xa651(%rip)        # 24140 <g_74>
   19aef:	8b 05 4b a6 00 00    	mov    0xa64b(%rip),%eax        # 24140 <g_74>
   19af5:	83 f8 22             	cmp    $0x22,%eax
   19af8:	0f 87 bf f4 ff ff    	ja     18fbd <func_94+0x1b59>
   19afe:	8b 85 2c e6 ff ff    	mov    -0x19d4(%rbp),%eax
   19b04:	0f bf d0             	movswl %ax,%edx
   19b07:	8b 85 78 e6 ff ff    	mov    -0x1988(%rbp),%eax
   19b0d:	98                   	cwtl   
   19b0e:	89 d6                	mov    %edx,%esi
   19b10:	89 c7                	mov    %eax,%edi
   19b12:	e8 bc 18 ff ff       	callq  b3d3 <safe_sub_func_int16_t_s_s>
   19b17:	66 85 c0             	test   %ax,%ax
   19b1a:	0f 84 e7 11 00 00    	je     1ad07 <func_94+0x38a3>
   19b20:	48 c7 85 d8 e9 ff ff 	movq   $0x0,-0x1628(%rbp)
   19b27:	00 00 00 00 
   19b2b:	48 8d 85 00 e8 ff ff 	lea    -0x1800(%rbp),%rax
   19b32:	48 89 85 e0 e9 ff ff 	mov    %rax,-0x1620(%rbp)
   19b39:	48 8d 45 c2          	lea    -0x3e(%rbp),%rax
   19b3d:	48 83 c0 05          	add    $0x5,%rax
   19b41:	48 89 85 e8 e9 ff ff 	mov    %rax,-0x1618(%rbp)
   19b48:	48 8d 85 70 e6 ff ff 	lea    -0x1990(%rbp),%rax
   19b4f:	48 89 85 10 f8 ff ff 	mov    %rax,-0x7f0(%rbp)
   19b56:	48 8d 05 93 a6 00 00 	lea    0xa693(%rip),%rax        # 241f0 <g_139+0x50>
   19b5d:	48 89 85 18 f8 ff ff 	mov    %rax,-0x7e8(%rbp)
   19b64:	48 8d 05 85 a6 00 00 	lea    0xa685(%rip),%rax        # 241f0 <g_139+0x50>
   19b6b:	48 89 85 20 f8 ff ff 	mov    %rax,-0x7e0(%rbp)
   19b72:	48 8d 85 70 e6 ff ff 	lea    -0x1990(%rbp),%rax
   19b79:	48 89 85 28 f8 ff ff 	mov    %rax,-0x7d8(%rbp)
   19b80:	48 8d 05 7d a5 00 00 	lea    0xa57d(%rip),%rax        # 24104 <g_3+0x4>
   19b87:	48 89 85 30 f8 ff ff 	mov    %rax,-0x7d0(%rbp)
   19b8e:	48 8d 05 77 a5 00 00 	lea    0xa577(%rip),%rax        # 2410c <g_3+0xc>
   19b95:	48 89 85 38 f8 ff ff 	mov    %rax,-0x7c8(%rbp)
   19b9c:	48 8d 85 7c e6 ff ff 	lea    -0x1984(%rbp),%rax
   19ba3:	48 89 85 40 f8 ff ff 	mov    %rax,-0x7c0(%rbp)
   19baa:	48 8d 05 97 f0 00 00 	lea    0xf097(%rip),%rax        # 28c48 <g_51>
   19bb1:	48 89 85 48 f8 ff ff 	mov    %rax,-0x7b8(%rbp)
   19bb8:	48 8d 05 31 a6 00 00 	lea    0xa631(%rip),%rax        # 241f0 <g_139+0x50>
   19bbf:	48 89 85 50 f8 ff ff 	mov    %rax,-0x7b0(%rbp)
   19bc6:	48 8d 85 7c e6 ff ff 	lea    -0x1984(%rbp),%rax
   19bcd:	48 89 85 58 f8 ff ff 	mov    %rax,-0x7a8(%rbp)
   19bd4:	48 8d 85 40 ec ff ff 	lea    -0x13c0(%rbp),%rax
   19bdb:	48 05 9c 00 00 00    	add    $0x9c,%rax
   19be1:	48 89 85 60 f8 ff ff 	mov    %rax,-0x7a0(%rbp)
   19be8:	48 8d 85 6c e6 ff ff 	lea    -0x1994(%rbp),%rax
   19bef:	48 89 85 68 f8 ff ff 	mov    %rax,-0x798(%rbp)
   19bf6:	48 8d 85 00 ed ff ff 	lea    -0x1300(%rbp),%rax
   19bfd:	48 83 c0 74          	add    $0x74,%rax
   19c01:	48 89 85 70 f8 ff ff 	mov    %rax,-0x790(%rbp)
   19c08:	48 8d 05 e1 a5 00 00 	lea    0xa5e1(%rip),%rax        # 241f0 <g_139+0x50>
   19c0f:	48 89 85 78 f8 ff ff 	mov    %rax,-0x788(%rbp)
   19c16:	48 c7 85 80 f8 ff ff 	movq   $0x0,-0x780(%rbp)
   19c1d:	00 00 00 00 
   19c21:	48 8d 05 20 f0 00 00 	lea    0xf020(%rip),%rax        # 28c48 <g_51>
   19c28:	48 89 85 88 f8 ff ff 	mov    %rax,-0x778(%rbp)
   19c2f:	48 8d 85 00 ed ff ff 	lea    -0x1300(%rbp),%rax
   19c36:	48 83 c0 58          	add    $0x58,%rax
   19c3a:	48 89 85 90 f8 ff ff 	mov    %rax,-0x770(%rbp)
   19c41:	48 c7 85 98 f8 ff ff 	movq   $0x0,-0x768(%rbp)
   19c48:	00 00 00 00 
   19c4c:	48 8d 05 9d a5 00 00 	lea    0xa59d(%rip),%rax        # 241f0 <g_139+0x50>
   19c53:	48 89 85 a0 f8 ff ff 	mov    %rax,-0x760(%rbp)
   19c5a:	48 8d 85 78 e6 ff ff 	lea    -0x1988(%rbp),%rax
   19c61:	48 89 85 a8 f8 ff ff 	mov    %rax,-0x758(%rbp)
   19c68:	48 c7 85 b0 f8 ff ff 	movq   $0x0,-0x750(%rbp)
   19c6f:	00 00 00 00 
   19c73:	48 8d 05 be a4 00 00 	lea    0xa4be(%rip),%rax        # 24138 <g_59+0x8>
   19c7a:	48 89 85 b8 f8 ff ff 	mov    %rax,-0x748(%rbp)
   19c81:	48 8d 05 7c a4 00 00 	lea    0xa47c(%rip),%rax        # 24104 <g_3+0x4>
   19c88:	48 89 85 c0 f8 ff ff 	mov    %rax,-0x740(%rbp)
   19c8f:	48 8d 85 70 e6 ff ff 	lea    -0x1990(%rbp),%rax
   19c96:	48 89 85 c8 f8 ff ff 	mov    %rax,-0x738(%rbp)
   19c9d:	48 8d 85 6c e6 ff ff 	lea    -0x1994(%rbp),%rax
   19ca4:	48 89 85 d0 f8 ff ff 	mov    %rax,-0x730(%rbp)
   19cab:	48 c7 85 d8 f8 ff ff 	movq   $0x0,-0x728(%rbp)
   19cb2:	00 00 00 00 
   19cb6:	48 8d 05 33 a5 00 00 	lea    0xa533(%rip),%rax        # 241f0 <g_139+0x50>
   19cbd:	48 89 85 e0 f8 ff ff 	mov    %rax,-0x720(%rbp)
   19cc4:	48 8d 05 7d ef 00 00 	lea    0xef7d(%rip),%rax        # 28c48 <g_51>
   19ccb:	48 89 85 e8 f8 ff ff 	mov    %rax,-0x718(%rbp)
   19cd2:	48 8d 85 00 eb ff ff 	lea    -0x1500(%rbp),%rax
   19cd9:	48 83 c0 14          	add    $0x14,%rax
   19cdd:	48 89 85 f0 f8 ff ff 	mov    %rax,-0x710(%rbp)
   19ce4:	48 8d 85 d0 ea ff ff 	lea    -0x1530(%rbp),%rax
   19ceb:	48 89 85 f8 f8 ff ff 	mov    %rax,-0x708(%rbp)
   19cf2:	48 8d 05 17 a4 00 00 	lea    0xa417(%rip),%rax        # 24110 <g_3+0x10>
   19cf9:	48 89 85 00 f9 ff ff 	mov    %rax,-0x700(%rbp)
   19d00:	48 8d 85 00 ed ff ff 	lea    -0x1300(%rbp),%rax
   19d07:	48 83 c0 58          	add    $0x58,%rax
   19d0b:	48 89 85 08 f9 ff ff 	mov    %rax,-0x6f8(%rbp)
   19d12:	48 c7 85 10 f9 ff ff 	movq   $0x0,-0x6f0(%rbp)
   19d19:	00 00 00 00 
   19d1d:	48 c7 85 18 f9 ff ff 	movq   $0x0,-0x6e8(%rbp)
   19d24:	00 00 00 00 
   19d28:	48 8d 85 00 ed ff ff 	lea    -0x1300(%rbp),%rax
   19d2f:	48 83 c0 58          	add    $0x58,%rax
   19d33:	48 89 85 20 f9 ff ff 	mov    %rax,-0x6e0(%rbp)
   19d3a:	48 8d 85 78 e6 ff ff 	lea    -0x1988(%rbp),%rax
   19d41:	48 89 85 28 f9 ff ff 	mov    %rax,-0x6d8(%rbp)
   19d48:	48 8d 05 b5 a3 00 00 	lea    0xa3b5(%rip),%rax        # 24104 <g_3+0x4>
   19d4f:	48 89 85 30 f9 ff ff 	mov    %rax,-0x6d0(%rbp)
   19d56:	48 c7 85 38 f9 ff ff 	movq   $0x0,-0x6c8(%rbp)
   19d5d:	00 00 00 00 
   19d61:	48 8d 85 74 e6 ff ff 	lea    -0x198c(%rbp),%rax
   19d68:	48 89 85 40 f9 ff ff 	mov    %rax,-0x6c0(%rbp)
   19d6f:	48 8d 85 78 e6 ff ff 	lea    -0x1988(%rbp),%rax
   19d76:	48 89 85 48 f9 ff ff 	mov    %rax,-0x6b8(%rbp)
   19d7d:	48 8d 85 00 ed ff ff 	lea    -0x1300(%rbp),%rax
   19d84:	48 83 c0 58          	add    $0x58,%rax
   19d88:	48 89 85 50 f9 ff ff 	mov    %rax,-0x6b0(%rbp)
   19d8f:	48 8d 05 5a a4 00 00 	lea    0xa45a(%rip),%rax        # 241f0 <g_139+0x50>
   19d96:	48 89 85 58 f9 ff ff 	mov    %rax,-0x6a8(%rbp)
   19d9d:	48 c7 85 60 f9 ff ff 	movq   $0x0,-0x6a0(%rbp)
   19da4:	00 00 00 00 
   19da8:	48 8d 05 41 a4 00 00 	lea    0xa441(%rip),%rax        # 241f0 <g_139+0x50>
   19daf:	48 89 85 68 f9 ff ff 	mov    %rax,-0x698(%rbp)
   19db6:	48 8d 05 53 a3 00 00 	lea    0xa353(%rip),%rax        # 24110 <g_3+0x10>
   19dbd:	48 89 85 70 f9 ff ff 	mov    %rax,-0x690(%rbp)
   19dc4:	48 8d 85 d0 ea ff ff 	lea    -0x1530(%rbp),%rax
   19dcb:	48 89 85 78 f9 ff ff 	mov    %rax,-0x688(%rbp)
   19dd2:	48 8d 85 78 e6 ff ff 	lea    -0x1988(%rbp),%rax
   19dd9:	48 89 85 80 f9 ff ff 	mov    %rax,-0x680(%rbp)
   19de0:	48 8d 05 61 ee 00 00 	lea    0xee61(%rip),%rax        # 28c48 <g_51>
   19de7:	48 89 85 88 f9 ff ff 	mov    %rax,-0x678(%rbp)
   19dee:	48 8d 85 74 e6 ff ff 	lea    -0x198c(%rbp),%rax
   19df5:	48 89 85 90 f9 ff ff 	mov    %rax,-0x670(%rbp)
   19dfc:	48 8d 05 45 ee 00 00 	lea    0xee45(%rip),%rax        # 28c48 <g_51>
   19e03:	48 89 85 98 f9 ff ff 	mov    %rax,-0x668(%rbp)
   19e0a:	48 8d 85 7c e6 ff ff 	lea    -0x1984(%rbp),%rax
   19e11:	48 89 85 a0 f9 ff ff 	mov    %rax,-0x660(%rbp)
   19e18:	48 8d 85 7c e6 ff ff 	lea    -0x1984(%rbp),%rax
   19e1f:	48 89 85 a8 f9 ff ff 	mov    %rax,-0x658(%rbp)
   19e26:	48 8d 05 0b a3 00 00 	lea    0xa30b(%rip),%rax        # 24138 <g_59+0x8>
   19e2d:	48 89 85 b0 f9 ff ff 	mov    %rax,-0x650(%rbp)
   19e34:	48 8d 05 b5 a3 00 00 	lea    0xa3b5(%rip),%rax        # 241f0 <g_139+0x50>
   19e3b:	48 89 85 b8 f9 ff ff 	mov    %rax,-0x648(%rbp)
   19e42:	48 8d 05 bb a2 00 00 	lea    0xa2bb(%rip),%rax        # 24104 <g_3+0x4>
   19e49:	48 89 85 c0 f9 ff ff 	mov    %rax,-0x640(%rbp)
   19e50:	48 8d 85 d0 ea ff ff 	lea    -0x1530(%rbp),%rax
   19e57:	48 83 c0 0c          	add    $0xc,%rax
   19e5b:	48 89 85 c8 f9 ff ff 	mov    %rax,-0x638(%rbp)
   19e62:	48 8d 85 74 e6 ff ff 	lea    -0x198c(%rbp),%rax
   19e69:	48 89 85 d0 f9 ff ff 	mov    %rax,-0x630(%rbp)
   19e70:	48 8d 85 00 ed ff ff 	lea    -0x1300(%rbp),%rax
   19e77:	48 83 c0 58          	add    $0x58,%rax
   19e7b:	48 89 85 d8 f9 ff ff 	mov    %rax,-0x628(%rbp)
   19e82:	48 8d 05 67 a3 00 00 	lea    0xa367(%rip),%rax        # 241f0 <g_139+0x50>
   19e89:	48 89 85 e0 f9 ff ff 	mov    %rax,-0x620(%rbp)
   19e90:	48 8d 85 78 e6 ff ff 	lea    -0x1988(%rbp),%rax
   19e97:	48 89 85 e8 f9 ff ff 	mov    %rax,-0x618(%rbp)
   19e9e:	48 8d 05 6b a2 00 00 	lea    0xa26b(%rip),%rax        # 24110 <g_3+0x10>
   19ea5:	48 89 85 f0 f9 ff ff 	mov    %rax,-0x610(%rbp)
   19eac:	48 c7 85 f8 f9 ff ff 	movq   $0x0,-0x608(%rbp)
   19eb3:	00 00 00 00 
   19eb7:	48 8d 05 7e a2 00 00 	lea    0xa27e(%rip),%rax        # 2413c <g_59+0xc>
   19ebe:	48 89 85 00 fa ff ff 	mov    %rax,-0x600(%rbp)
   19ec5:	48 8d 85 40 ec ff ff 	lea    -0x13c0(%rbp),%rax
   19ecc:	48 05 9c 00 00 00    	add    $0x9c,%rax
   19ed2:	48 89 85 08 fa ff ff 	mov    %rax,-0x5f8(%rbp)
   19ed9:	48 8d 05 10 a3 00 00 	lea    0xa310(%rip),%rax        # 241f0 <g_139+0x50>
   19ee0:	48 89 85 10 fa ff ff 	mov    %rax,-0x5f0(%rbp)
   19ee7:	48 c7 85 18 fa ff ff 	movq   $0x0,-0x5e8(%rbp)
   19eee:	00 00 00 00 
   19ef2:	48 8d 85 74 e6 ff ff 	lea    -0x198c(%rbp),%rax
   19ef9:	48 89 85 20 fa ff ff 	mov    %rax,-0x5e0(%rbp)
   19f00:	48 8d 85 7c e6 ff ff 	lea    -0x1984(%rbp),%rax
   19f07:	48 89 85 28 fa ff ff 	mov    %rax,-0x5d8(%rbp)
   19f0e:	48 8d 85 74 e6 ff ff 	lea    -0x198c(%rbp),%rax
   19f15:	48 89 85 30 fa ff ff 	mov    %rax,-0x5d0(%rbp)
   19f1c:	48 8d 85 d0 ea ff ff 	lea    -0x1530(%rbp),%rax
   19f23:	48 89 85 38 fa ff ff 	mov    %rax,-0x5c8(%rbp)
   19f2a:	48 8d 85 40 ec ff ff 	lea    -0x13c0(%rbp),%rax
   19f31:	48 05 9c 00 00 00    	add    $0x9c,%rax
   19f37:	48 89 85 40 fa ff ff 	mov    %rax,-0x5c0(%rbp)
   19f3e:	48 8d 85 7c e6 ff ff 	lea    -0x1984(%rbp),%rax
   19f45:	48 89 85 48 fa ff ff 	mov    %rax,-0x5b8(%rbp)
   19f4c:	48 8d 05 f5 ec 00 00 	lea    0xecf5(%rip),%rax        # 28c48 <g_51>
   19f53:	48 89 85 50 fa ff ff 	mov    %rax,-0x5b0(%rbp)
   19f5a:	48 c7 85 58 fa ff ff 	movq   $0x0,-0x5a8(%rbp)
   19f61:	00 00 00 00 
   19f65:	48 8d 85 40 ec ff ff 	lea    -0x13c0(%rbp),%rax
   19f6c:	48 05 9c 00 00 00    	add    $0x9c,%rax
   19f72:	48 89 85 60 fa ff ff 	mov    %rax,-0x5a0(%rbp)
   19f79:	48 8d 85 78 e6 ff ff 	lea    -0x1988(%rbp),%rax
   19f80:	48 89 85 68 fa ff ff 	mov    %rax,-0x598(%rbp)
   19f87:	48 8d 85 78 e6 ff ff 	lea    -0x1988(%rbp),%rax
   19f8e:	48 89 85 70 fa ff ff 	mov    %rax,-0x590(%rbp)
   19f95:	48 8d 85 40 ec ff ff 	lea    -0x13c0(%rbp),%rax
   19f9c:	48 83 c0 70          	add    $0x70,%rax
   19fa0:	48 89 85 78 fa ff ff 	mov    %rax,-0x588(%rbp)
   19fa7:	48 8d 05 56 a1 00 00 	lea    0xa156(%rip),%rax        # 24104 <g_3+0x4>
   19fae:	48 89 85 80 fa ff ff 	mov    %rax,-0x580(%rbp)
   19fb5:	48 8d 85 d0 ea ff ff 	lea    -0x1530(%rbp),%rax
   19fbc:	48 83 c0 0c          	add    $0xc,%rax
   19fc0:	48 89 85 88 fa ff ff 	mov    %rax,-0x578(%rbp)
   19fc7:	48 8d 85 40 ec ff ff 	lea    -0x13c0(%rbp),%rax
   19fce:	48 05 9c 00 00 00    	add    $0x9c,%rax
   19fd4:	48 89 85 90 fa ff ff 	mov    %rax,-0x570(%rbp)
   19fdb:	48 8d 05 0e a2 00 00 	lea    0xa20e(%rip),%rax        # 241f0 <g_139+0x50>
   19fe2:	48 89 85 98 fa ff ff 	mov    %rax,-0x568(%rbp)
   19fe9:	48 8d 85 d0 ea ff ff 	lea    -0x1530(%rbp),%rax
   19ff0:	48 83 c0 04          	add    $0x4,%rax
   19ff4:	48 89 85 a0 fa ff ff 	mov    %rax,-0x560(%rbp)
   19ffb:	48 8d 85 40 ec ff ff 	lea    -0x13c0(%rbp),%rax
   1a002:	48 05 9c 00 00 00    	add    $0x9c,%rax
   1a008:	48 89 85 a8 fa ff ff 	mov    %rax,-0x558(%rbp)
   1a00f:	48 8d 05 ee a0 00 00 	lea    0xa0ee(%rip),%rax        # 24104 <g_3+0x4>
   1a016:	48 89 85 b0 fa ff ff 	mov    %rax,-0x550(%rbp)
   1a01d:	48 8d 85 60 e6 ff ff 	lea    -0x19a0(%rbp),%rax
   1a024:	48 89 85 b8 fa ff ff 	mov    %rax,-0x548(%rbp)
   1a02b:	48 8d 05 d2 a0 00 00 	lea    0xa0d2(%rip),%rax        # 24104 <g_3+0x4>
   1a032:	48 89 85 c0 fa ff ff 	mov    %rax,-0x540(%rbp)
   1a039:	48 8d 05 08 ec 00 00 	lea    0xec08(%rip),%rax        # 28c48 <g_51>
   1a040:	48 89 85 c8 fa ff ff 	mov    %rax,-0x538(%rbp)
   1a047:	48 8d 05 ea a0 00 00 	lea    0xa0ea(%rip),%rax        # 24138 <g_59+0x8>
   1a04e:	48 89 85 d0 fa ff ff 	mov    %rax,-0x530(%rbp)
   1a055:	48 c7 85 d8 fa ff ff 	movq   $0x0,-0x528(%rbp)
   1a05c:	00 00 00 00 
   1a060:	48 8d 85 40 ec ff ff 	lea    -0x13c0(%rbp),%rax
   1a067:	48 05 9c 00 00 00    	add    $0x9c,%rax
   1a06d:	48 89 85 e0 fa ff ff 	mov    %rax,-0x520(%rbp)
   1a074:	48 8d 85 00 ed ff ff 	lea    -0x1300(%rbp),%rax
   1a07b:	48 83 c0 58          	add    $0x58,%rax
   1a07f:	48 89 85 e8 fa ff ff 	mov    %rax,-0x518(%rbp)
   1a086:	48 8d 05 af a0 00 00 	lea    0xa0af(%rip),%rax        # 2413c <g_59+0xc>
   1a08d:	48 89 85 f0 fa ff ff 	mov    %rax,-0x510(%rbp)
   1a094:	48 8d 05 55 a1 00 00 	lea    0xa155(%rip),%rax        # 241f0 <g_139+0x50>
   1a09b:	48 89 85 f8 fa ff ff 	mov    %rax,-0x508(%rbp)
   1a0a2:	48 c7 85 00 fb ff ff 	movq   $0x0,-0x500(%rbp)
   1a0a9:	00 00 00 00 
   1a0ad:	48 8d 85 78 e6 ff ff 	lea    -0x1988(%rbp),%rax
   1a0b4:	48 89 85 08 fb ff ff 	mov    %rax,-0x4f8(%rbp)
   1a0bb:	48 8d 85 00 ed ff ff 	lea    -0x1300(%rbp),%rax
   1a0c2:	48 83 c0 58          	add    $0x58,%rax
   1a0c6:	48 89 85 10 fb ff ff 	mov    %rax,-0x4f0(%rbp)
   1a0cd:	48 8d 05 54 a0 00 00 	lea    0xa054(%rip),%rax        # 24128 <g_18>
   1a0d4:	48 89 85 18 fb ff ff 	mov    %rax,-0x4e8(%rbp)
   1a0db:	48 8d 85 00 ed ff ff 	lea    -0x1300(%rbp),%rax
   1a0e2:	48 83 c0 58          	add    $0x58,%rax
   1a0e6:	48 89 85 20 fb ff ff 	mov    %rax,-0x4e0(%rbp)
   1a0ed:	48 8d 85 78 e6 ff ff 	lea    -0x1988(%rbp),%rax
   1a0f4:	48 89 85 28 fb ff ff 	mov    %rax,-0x4d8(%rbp)
   1a0fb:	48 8d 85 40 ec ff ff 	lea    -0x13c0(%rbp),%rax
   1a102:	48 05 9c 00 00 00    	add    $0x9c,%rax
   1a108:	48 89 85 30 fb ff ff 	mov    %rax,-0x4d0(%rbp)
   1a10f:	48 c7 85 38 fb ff ff 	movq   $0x0,-0x4c8(%rbp)
   1a116:	00 00 00 00 
   1a11a:	48 8d 05 e3 9f 00 00 	lea    0x9fe3(%rip),%rax        # 24104 <g_3+0x4>
   1a121:	48 89 85 40 fb ff ff 	mov    %rax,-0x4c0(%rbp)
   1a128:	48 8d 05 c1 a0 00 00 	lea    0xa0c1(%rip),%rax        # 241f0 <g_139+0x50>
   1a12f:	48 89 85 48 fb ff ff 	mov    %rax,-0x4b8(%rbp)
   1a136:	48 8d 85 7c e6 ff ff 	lea    -0x1984(%rbp),%rax
   1a13d:	48 89 85 50 fb ff ff 	mov    %rax,-0x4b0(%rbp)
   1a144:	48 c7 85 58 fb ff ff 	movq   $0x0,-0x4a8(%rbp)
   1a14b:	00 00 00 00 
   1a14f:	48 8d 05 e2 9f 00 00 	lea    0x9fe2(%rip),%rax        # 24138 <g_59+0x8>
   1a156:	48 89 85 60 fb ff ff 	mov    %rax,-0x4a0(%rbp)
   1a15d:	48 8d 05 e4 ea 00 00 	lea    0xeae4(%rip),%rax        # 28c48 <g_51>
   1a164:	48 89 85 68 fb ff ff 	mov    %rax,-0x498(%rbp)
   1a16b:	48 8d 05 92 9f 00 00 	lea    0x9f92(%rip),%rax        # 24104 <g_3+0x4>
   1a172:	48 89 85 70 fb ff ff 	mov    %rax,-0x490(%rbp)
   1a179:	48 8d 85 60 e6 ff ff 	lea    -0x19a0(%rbp),%rax
   1a180:	48 89 85 78 fb ff ff 	mov    %rax,-0x488(%rbp)
   1a187:	48 8d 05 82 9f 00 00 	lea    0x9f82(%rip),%rax        # 24110 <g_3+0x10>
   1a18e:	48 89 85 80 fb ff ff 	mov    %rax,-0x480(%rbp)
   1a195:	48 8d 85 7c e6 ff ff 	lea    -0x1984(%rbp),%rax
   1a19c:	48 89 85 88 fb ff ff 	mov    %rax,-0x478(%rbp)
   1a1a3:	48 8d 05 8e 9f 00 00 	lea    0x9f8e(%rip),%rax        # 24138 <g_59+0x8>
   1a1aa:	48 89 85 90 fb ff ff 	mov    %rax,-0x470(%rbp)
   1a1b1:	48 c7 85 98 fb ff ff 	movq   $0x0,-0x468(%rbp)
   1a1b8:	00 00 00 00 
   1a1bc:	48 8d 85 7c e6 ff ff 	lea    -0x1984(%rbp),%rax
   1a1c3:	48 89 85 a0 fb ff ff 	mov    %rax,-0x460(%rbp)
   1a1ca:	48 8d 85 d0 ea ff ff 	lea    -0x1530(%rbp),%rax
   1a1d1:	48 83 c0 0c          	add    $0xc,%rax
   1a1d5:	48 89 85 a8 fb ff ff 	mov    %rax,-0x458(%rbp)
   1a1dc:	48 8d 05 21 9f 00 00 	lea    0x9f21(%rip),%rax        # 24104 <g_3+0x4>
   1a1e3:	48 89 85 b0 fb ff ff 	mov    %rax,-0x450(%rbp)
   1a1ea:	48 8d 85 40 ec ff ff 	lea    -0x13c0(%rbp),%rax
   1a1f1:	48 83 c0 70          	add    $0x70,%rax
   1a1f5:	48 89 85 b8 fb ff ff 	mov    %rax,-0x448(%rbp)
   1a1fc:	48 8d 85 78 e6 ff ff 	lea    -0x1988(%rbp),%rax
   1a203:	48 89 85 c0 fb ff ff 	mov    %rax,-0x440(%rbp)
   1a20a:	48 8d 85 78 e6 ff ff 	lea    -0x1988(%rbp),%rax
   1a211:	48 89 85 c8 fb ff ff 	mov    %rax,-0x438(%rbp)
   1a218:	48 8d 85 7c e6 ff ff 	lea    -0x1984(%rbp),%rax
   1a21f:	48 89 85 d0 fb ff ff 	mov    %rax,-0x430(%rbp)
   1a226:	48 8d 05 1b ea 00 00 	lea    0xea1b(%rip),%rax        # 28c48 <g_51>
   1a22d:	48 89 85 d8 fb ff ff 	mov    %rax,-0x428(%rbp)
   1a234:	48 c7 85 e0 fb ff ff 	movq   $0x0,-0x420(%rbp)
   1a23b:	00 00 00 00 
   1a23f:	48 8d 85 40 ec ff ff 	lea    -0x13c0(%rbp),%rax
   1a246:	48 05 9c 00 00 00    	add    $0x9c,%rax
   1a24c:	48 89 85 e8 fb ff ff 	mov    %rax,-0x418(%rbp)
   1a253:	48 c7 85 f0 fb ff ff 	movq   $0x0,-0x410(%rbp)
   1a25a:	00 00 00 00 
   1a25e:	48 8d 85 d0 ea ff ff 	lea    -0x1530(%rbp),%rax
   1a265:	48 89 85 f8 fb ff ff 	mov    %rax,-0x408(%rbp)
   1a26c:	48 8d 85 74 e6 ff ff 	lea    -0x198c(%rbp),%rax
   1a273:	48 89 85 00 fc ff ff 	mov    %rax,-0x400(%rbp)
   1a27a:	48 8d 85 7c e6 ff ff 	lea    -0x1984(%rbp),%rax
   1a281:	48 89 85 08 fc ff ff 	mov    %rax,-0x3f8(%rbp)
   1a288:	48 8d 85 74 e6 ff ff 	lea    -0x198c(%rbp),%rax
   1a28f:	48 89 85 10 fc ff ff 	mov    %rax,-0x3f0(%rbp)
   1a296:	48 c7 85 18 fc ff ff 	movq   $0x0,-0x3e8(%rbp)
   1a29d:	00 00 00 00 
   1a2a1:	48 8d 85 00 ed ff ff 	lea    -0x1300(%rbp),%rax
   1a2a8:	48 83 c0 58          	add    $0x58,%rax
   1a2ac:	48 89 85 20 fc ff ff 	mov    %rax,-0x3e0(%rbp)
   1a2b3:	48 8d 85 7c e6 ff ff 	lea    -0x1984(%rbp),%rax
   1a2ba:	48 89 85 28 fc ff ff 	mov    %rax,-0x3d8(%rbp)
   1a2c1:	48 8d 05 3c 9e 00 00 	lea    0x9e3c(%rip),%rax        # 24104 <g_3+0x4>
   1a2c8:	48 89 85 30 fc ff ff 	mov    %rax,-0x3d0(%rbp)
   1a2cf:	48 8d 05 72 e9 00 00 	lea    0xe972(%rip),%rax        # 28c48 <g_51>
   1a2d6:	48 89 85 38 fc ff ff 	mov    %rax,-0x3c8(%rbp)
   1a2dd:	48 8d 05 20 9e 00 00 	lea    0x9e20(%rip),%rax        # 24104 <g_3+0x4>
   1a2e4:	48 89 85 40 fc ff ff 	mov    %rax,-0x3c0(%rbp)
   1a2eb:	48 8d 85 78 e6 ff ff 	lea    -0x1988(%rbp),%rax
   1a2f2:	48 89 85 48 fc ff ff 	mov    %rax,-0x3b8(%rbp)
   1a2f9:	48 8d 05 f0 9e 00 00 	lea    0x9ef0(%rip),%rax        # 241f0 <g_139+0x50>
   1a300:	48 89 85 50 fc ff ff 	mov    %rax,-0x3b0(%rbp)
   1a307:	48 8d 85 00 ed ff ff 	lea    -0x1300(%rbp),%rax
   1a30e:	48 83 c0 58          	add    $0x58,%rax
   1a312:	48 89 85 58 fc ff ff 	mov    %rax,-0x3a8(%rbp)
   1a319:	48 8d 85 74 e6 ff ff 	lea    -0x198c(%rbp),%rax
   1a320:	48 89 85 60 fc ff ff 	mov    %rax,-0x3a0(%rbp)
   1a327:	48 8d 85 d0 ea ff ff 	lea    -0x1530(%rbp),%rax
   1a32e:	48 83 c0 0c          	add    $0xc,%rax
   1a332:	48 89 85 68 fc ff ff 	mov    %rax,-0x398(%rbp)
   1a339:	48 8d 05 d0 9d 00 00 	lea    0x9dd0(%rip),%rax        # 24110 <g_3+0x10>
   1a340:	48 89 85 70 fc ff ff 	mov    %rax,-0x390(%rbp)
   1a347:	48 c7 85 78 fc ff ff 	movq   $0x0,-0x388(%rbp)
   1a34e:	00 00 00 00 
   1a352:	48 8d 85 00 eb ff ff 	lea    -0x1500(%rbp),%rax
   1a359:	48 83 c0 14          	add    $0x14,%rax
   1a35d:	48 89 85 80 fc ff ff 	mov    %rax,-0x380(%rbp)
   1a364:	48 8d 85 40 ec ff ff 	lea    -0x13c0(%rbp),%rax
   1a36b:	48 05 9c 00 00 00    	add    $0x9c,%rax
   1a371:	48 89 85 88 fc ff ff 	mov    %rax,-0x378(%rbp)
   1a378:	48 8d 85 40 ec ff ff 	lea    -0x13c0(%rbp),%rax
   1a37f:	48 05 9c 00 00 00    	add    $0x9c,%rax
   1a385:	48 89 85 90 fc ff ff 	mov    %rax,-0x370(%rbp)
   1a38c:	48 8d 05 b5 e8 00 00 	lea    0xe8b5(%rip),%rax        # 28c48 <g_51>
   1a393:	48 89 85 98 fc ff ff 	mov    %rax,-0x368(%rbp)
   1a39a:	48 8d 85 74 e6 ff ff 	lea    -0x198c(%rbp),%rax
   1a3a1:	48 89 85 a0 fc ff ff 	mov    %rax,-0x360(%rbp)
   1a3a8:	48 8d 05 99 e8 00 00 	lea    0xe899(%rip),%rax        # 28c48 <g_51>
   1a3af:	48 89 85 a8 fc ff ff 	mov    %rax,-0x358(%rbp)
   1a3b6:	48 8d 85 78 e6 ff ff 	lea    -0x1988(%rbp),%rax
   1a3bd:	48 89 85 b0 fc ff ff 	mov    %rax,-0x350(%rbp)
   1a3c4:	48 8d 85 d0 ea ff ff 	lea    -0x1530(%rbp),%rax
   1a3cb:	48 89 85 b8 fc ff ff 	mov    %rax,-0x348(%rbp)
   1a3d2:	48 8d 05 2b 9d 00 00 	lea    0x9d2b(%rip),%rax        # 24104 <g_3+0x4>
   1a3d9:	48 89 85 c0 fc ff ff 	mov    %rax,-0x340(%rbp)
   1a3e0:	48 8d 85 00 ed ff ff 	lea    -0x1300(%rbp),%rax
   1a3e7:	48 83 c0 58          	add    $0x58,%rax
   1a3eb:	48 89 85 c8 fc ff ff 	mov    %rax,-0x338(%rbp)
   1a3f2:	48 8d 05 4f e8 00 00 	lea    0xe84f(%rip),%rax        # 28c48 <g_51>
   1a3f9:	48 89 85 d0 fc ff ff 	mov    %rax,-0x330(%rbp)
   1a400:	48 c7 85 d8 fc ff ff 	movq   $0x0,-0x328(%rbp)
   1a407:	00 00 00 00 
   1a40b:	48 8d 05 de 9d 00 00 	lea    0x9dde(%rip),%rax        # 241f0 <g_139+0x50>
   1a412:	48 89 85 e0 fc ff ff 	mov    %rax,-0x320(%rbp)
   1a419:	48 8d 85 78 e6 ff ff 	lea    -0x1988(%rbp),%rax
   1a420:	48 89 85 e8 fc ff ff 	mov    %rax,-0x318(%rbp)
   1a427:	48 8d 85 74 e6 ff ff 	lea    -0x198c(%rbp),%rax
   1a42e:	48 89 85 f0 fc ff ff 	mov    %rax,-0x310(%rbp)
   1a435:	48 c7 85 f8 fc ff ff 	movq   $0x0,-0x308(%rbp)
   1a43c:	00 00 00 00 
   1a440:	48 8d 05 bd 9c 00 00 	lea    0x9cbd(%rip),%rax        # 24104 <g_3+0x4>
   1a447:	48 89 85 00 fd ff ff 	mov    %rax,-0x300(%rbp)
   1a44e:	48 8d 85 78 e6 ff ff 	lea    -0x1988(%rbp),%rax
   1a455:	48 89 85 08 fd ff ff 	mov    %rax,-0x2f8(%rbp)
   1a45c:	48 8d 05 8d 9d 00 00 	lea    0x9d8d(%rip),%rax        # 241f0 <g_139+0x50>
   1a463:	48 89 85 10 fd ff ff 	mov    %rax,-0x2f0(%rbp)
   1a46a:	48 8d 05 7f 9d 00 00 	lea    0x9d7f(%rip),%rax        # 241f0 <g_139+0x50>
   1a471:	48 89 85 18 fd ff ff 	mov    %rax,-0x2e8(%rbp)
   1a478:	48 8d 05 c9 e7 00 00 	lea    0xe7c9(%rip),%rax        # 28c48 <g_51>
   1a47f:	48 89 85 20 fd ff ff 	mov    %rax,-0x2e0(%rbp)
   1a486:	48 8d 05 63 9d 00 00 	lea    0x9d63(%rip),%rax        # 241f0 <g_139+0x50>
   1a48d:	48 89 85 28 fd ff ff 	mov    %rax,-0x2d8(%rbp)
   1a494:	48 8d 05 69 9c 00 00 	lea    0x9c69(%rip),%rax        # 24104 <g_3+0x4>
   1a49b:	48 89 85 30 fd ff ff 	mov    %rax,-0x2d0(%rbp)
   1a4a2:	48 8d 85 d0 ea ff ff 	lea    -0x1530(%rbp),%rax
   1a4a9:	48 89 85 38 fd ff ff 	mov    %rax,-0x2c8(%rbp)
   1a4b0:	48 8d 85 00 eb ff ff 	lea    -0x1500(%rbp),%rax
   1a4b7:	48 83 c0 14          	add    $0x14,%rax
   1a4bb:	48 89 85 40 fd ff ff 	mov    %rax,-0x2c0(%rbp)
   1a4c2:	48 8d 05 7f e7 00 00 	lea    0xe77f(%rip),%rax        # 28c48 <g_51>
   1a4c9:	48 89 85 48 fd ff ff 	mov    %rax,-0x2b8(%rbp)
   1a4d0:	48 8d 85 00 ed ff ff 	lea    -0x1300(%rbp),%rax
   1a4d7:	48 83 c0 58          	add    $0x58,%rax
   1a4db:	48 89 85 50 fd ff ff 	mov    %rax,-0x2b0(%rbp)
   1a4e2:	48 8d 05 5f e7 00 00 	lea    0xe75f(%rip),%rax        # 28c48 <g_51>
   1a4e9:	48 89 85 58 fd ff ff 	mov    %rax,-0x2a8(%rbp)
   1a4f0:	48 8d 85 40 ec ff ff 	lea    -0x13c0(%rbp),%rax
   1a4f7:	48 05 9c 00 00 00    	add    $0x9c,%rax
   1a4fd:	48 89 85 60 fd ff ff 	mov    %rax,-0x2a0(%rbp)
   1a504:	48 8d 85 7c e6 ff ff 	lea    -0x1984(%rbp),%rax
   1a50b:	48 89 85 68 fd ff ff 	mov    %rax,-0x298(%rbp)
   1a512:	48 8d 85 00 eb ff ff 	lea    -0x1500(%rbp),%rax
   1a519:	48 83 c0 14          	add    $0x14,%rax
   1a51d:	48 89 85 70 fd ff ff 	mov    %rax,-0x290(%rbp)
   1a524:	48 8d 05 c5 9c 00 00 	lea    0x9cc5(%rip),%rax        # 241f0 <g_139+0x50>
   1a52b:	48 89 85 78 fd ff ff 	mov    %rax,-0x288(%rbp)
   1a532:	48 8d 05 d7 9b 00 00 	lea    0x9bd7(%rip),%rax        # 24110 <g_3+0x10>
   1a539:	48 89 85 80 fd ff ff 	mov    %rax,-0x280(%rbp)
   1a540:	48 8d 85 d0 ea ff ff 	lea    -0x1530(%rbp),%rax
   1a547:	48 83 c0 0c          	add    $0xc,%rax
   1a54b:	48 89 85 88 fd ff ff 	mov    %rax,-0x278(%rbp)
   1a552:	48 8d 85 00 ed ff ff 	lea    -0x1300(%rbp),%rax
   1a559:	48 83 c0 58          	add    $0x58,%rax
   1a55d:	48 89 85 90 fd ff ff 	mov    %rax,-0x270(%rbp)
   1a564:	48 8d 85 00 ed ff ff 	lea    -0x1300(%rbp),%rax
   1a56b:	48 83 c0 58          	add    $0x58,%rax
   1a56f:	48 89 85 98 fd ff ff 	mov    %rax,-0x268(%rbp)
   1a576:	48 8d 05 bb 9b 00 00 	lea    0x9bbb(%rip),%rax        # 24138 <g_59+0x8>
   1a57d:	48 89 85 a0 fd ff ff 	mov    %rax,-0x260(%rbp)
   1a584:	48 8d 85 78 e6 ff ff 	lea    -0x1988(%rbp),%rax
   1a58b:	48 89 85 a8 fd ff ff 	mov    %rax,-0x258(%rbp)
   1a592:	48 8d 05 6b 9b 00 00 	lea    0x9b6b(%rip),%rax        # 24104 <g_3+0x4>
   1a599:	48 89 85 b0 fd ff ff 	mov    %rax,-0x250(%rbp)
   1a5a0:	48 c7 85 b8 fd ff ff 	movq   $0x0,-0x248(%rbp)
   1a5a7:	00 00 00 00 
   1a5ab:	48 8d 05 52 9b 00 00 	lea    0x9b52(%rip),%rax        # 24104 <g_3+0x4>
   1a5b2:	48 89 85 c0 fd ff ff 	mov    %rax,-0x240(%rbp)
   1a5b9:	48 8d 85 40 ec ff ff 	lea    -0x13c0(%rbp),%rax
   1a5c0:	48 05 9c 00 00 00    	add    $0x9c,%rax
   1a5c6:	48 89 85 c8 fd ff ff 	mov    %rax,-0x238(%rbp)
   1a5cd:	48 8d 85 00 ed ff ff 	lea    -0x1300(%rbp),%rax
   1a5d4:	48 83 c0 58          	add    $0x58,%rax
   1a5d8:	48 89 85 d0 fd ff ff 	mov    %rax,-0x230(%rbp)
   1a5df:	48 c7 85 d8 fd ff ff 	movq   $0x0,-0x228(%rbp)
   1a5e6:	00 00 00 00 
   1a5ea:	48 8d 85 00 ed ff ff 	lea    -0x1300(%rbp),%rax
   1a5f1:	48 83 c0 58          	add    $0x58,%rax
   1a5f5:	48 89 85 e0 fd ff ff 	mov    %rax,-0x220(%rbp)
   1a5fc:	48 8d 85 7c e6 ff ff 	lea    -0x1984(%rbp),%rax
   1a603:	48 89 85 e8 fd ff ff 	mov    %rax,-0x218(%rbp)
   1a60a:	48 8d 05 f3 9a 00 00 	lea    0x9af3(%rip),%rax        # 24104 <g_3+0x4>
   1a611:	48 89 85 f0 fd ff ff 	mov    %rax,-0x210(%rbp)
   1a618:	48 8d 85 d0 ea ff ff 	lea    -0x1530(%rbp),%rax
   1a61f:	48 89 85 f8 fd ff ff 	mov    %rax,-0x208(%rbp)
   1a626:	48 c7 85 00 fe ff ff 	movq   $0x0,-0x200(%rbp)
   1a62d:	00 00 00 00 
   1a631:	48 8d 85 7c e6 ff ff 	lea    -0x1984(%rbp),%rax
   1a638:	48 89 85 08 fe ff ff 	mov    %rax,-0x1f8(%rbp)
   1a63f:	48 c7 85 10 fe ff ff 	movq   $0x0,-0x1f0(%rbp)
   1a646:	00 00 00 00 
   1a64a:	48 c7 85 18 fe ff ff 	movq   $0x0,-0x1e8(%rbp)
   1a651:	00 00 00 00 
   1a655:	48 8d 85 7c e6 ff ff 	lea    -0x1984(%rbp),%rax
   1a65c:	48 89 85 20 fe ff ff 	mov    %rax,-0x1e0(%rbp)
   1a663:	48 8d 85 78 e6 ff ff 	lea    -0x1988(%rbp),%rax
   1a66a:	48 89 85 28 fe ff ff 	mov    %rax,-0x1d8(%rbp)
   1a671:	48 8d 85 00 eb ff ff 	lea    -0x1500(%rbp),%rax
   1a678:	48 83 c0 14          	add    $0x14,%rax
   1a67c:	48 89 85 30 fe ff ff 	mov    %rax,-0x1d0(%rbp)
   1a683:	48 8d 85 40 ec ff ff 	lea    -0x13c0(%rbp),%rax
   1a68a:	48 83 c0 70          	add    $0x70,%rax
   1a68e:	48 89 85 38 fe ff ff 	mov    %rax,-0x1c8(%rbp)
   1a695:	48 8d 85 74 e6 ff ff 	lea    -0x198c(%rbp),%rax
   1a69c:	48 89 85 40 fe ff ff 	mov    %rax,-0x1c0(%rbp)
   1a6a3:	48 8d 85 d0 ea ff ff 	lea    -0x1530(%rbp),%rax
   1a6aa:	48 83 c0 0c          	add    $0xc,%rax
   1a6ae:	48 89 85 48 fe ff ff 	mov    %rax,-0x1b8(%rbp)
   1a6b5:	48 8d 85 7c e6 ff ff 	lea    -0x1984(%rbp),%rax
   1a6bc:	48 89 85 50 fe ff ff 	mov    %rax,-0x1b0(%rbp)
   1a6c3:	48 8d 05 26 9b 00 00 	lea    0x9b26(%rip),%rax        # 241f0 <g_139+0x50>
   1a6ca:	48 89 85 58 fe ff ff 	mov    %rax,-0x1a8(%rbp)
   1a6d1:	48 8d 05 60 9a 00 00 	lea    0x9a60(%rip),%rax        # 24138 <g_59+0x8>
   1a6d8:	48 89 85 60 fe ff ff 	mov    %rax,-0x1a0(%rbp)
   1a6df:	48 8d 85 40 ec ff ff 	lea    -0x13c0(%rbp),%rax
   1a6e6:	48 05 9c 00 00 00    	add    $0x9c,%rax
   1a6ec:	48 89 85 68 fe ff ff 	mov    %rax,-0x198(%rbp)
   1a6f3:	48 8d 05 16 9a 00 00 	lea    0x9a16(%rip),%rax        # 24110 <g_3+0x10>
   1a6fa:	48 89 85 70 fe ff ff 	mov    %rax,-0x190(%rbp)
   1a701:	48 8d 85 60 e6 ff ff 	lea    -0x19a0(%rbp),%rax
   1a708:	48 89 85 78 fe ff ff 	mov    %rax,-0x188(%rbp)
   1a70f:	48 8d 85 74 e6 ff ff 	lea    -0x198c(%rbp),%rax
   1a716:	48 89 85 80 fe ff ff 	mov    %rax,-0x180(%rbp)
   1a71d:	48 8d 05 24 e5 00 00 	lea    0xe524(%rip),%rax        # 28c48 <g_51>
   1a724:	48 89 85 88 fe ff ff 	mov    %rax,-0x178(%rbp)
   1a72b:	48 8d 05 be 9a 00 00 	lea    0x9abe(%rip),%rax        # 241f0 <g_139+0x50>
   1a732:	48 89 85 90 fe ff ff 	mov    %rax,-0x170(%rbp)
   1a739:	48 c7 85 98 fe ff ff 	movq   $0x0,-0x168(%rbp)
   1a740:	00 00 00 00 
   1a744:	48 8d 85 7c e6 ff ff 	lea    -0x1984(%rbp),%rax
   1a74b:	48 89 85 a0 fe ff ff 	mov    %rax,-0x160(%rbp)
   1a752:	48 8d 85 00 ed ff ff 	lea    -0x1300(%rbp),%rax
   1a759:	48 83 c0 58          	add    $0x58,%rax
   1a75d:	48 89 85 a8 fe ff ff 	mov    %rax,-0x158(%rbp)
   1a764:	48 8d 05 99 99 00 00 	lea    0x9999(%rip),%rax        # 24104 <g_3+0x4>
   1a76b:	48 89 85 b0 fe ff ff 	mov    %rax,-0x150(%rbp)
   1a772:	48 8d 05 77 9a 00 00 	lea    0x9a77(%rip),%rax        # 241f0 <g_139+0x50>
   1a779:	48 89 85 b8 fe ff ff 	mov    %rax,-0x148(%rbp)
   1a780:	48 8d 85 40 ec ff ff 	lea    -0x13c0(%rbp),%rax
   1a787:	48 05 9c 00 00 00    	add    $0x9c,%rax
   1a78d:	48 89 85 c0 fe ff ff 	mov    %rax,-0x140(%rbp)
   1a794:	48 8d 85 78 e6 ff ff 	lea    -0x1988(%rbp),%rax
   1a79b:	48 89 85 c8 fe ff ff 	mov    %rax,-0x138(%rbp)
   1a7a2:	48 8d 85 74 e6 ff ff 	lea    -0x198c(%rbp),%rax
   1a7a9:	48 89 85 d0 fe ff ff 	mov    %rax,-0x130(%rbp)
   1a7b0:	48 8d 05 71 99 00 00 	lea    0x9971(%rip),%rax        # 24128 <g_18>
   1a7b7:	48 89 85 d8 fe ff ff 	mov    %rax,-0x128(%rbp)
   1a7be:	48 8d 05 2b 9a 00 00 	lea    0x9a2b(%rip),%rax        # 241f0 <g_139+0x50>
   1a7c5:	48 89 85 e0 fe ff ff 	mov    %rax,-0x120(%rbp)
   1a7cc:	48 8d 85 d0 ea ff ff 	lea    -0x1530(%rbp),%rax
   1a7d3:	48 83 c0 0c          	add    $0xc,%rax
   1a7d7:	48 89 85 e8 fe ff ff 	mov    %rax,-0x118(%rbp)
   1a7de:	48 c7 85 f0 fe ff ff 	movq   $0x0,-0x110(%rbp)
   1a7e5:	00 00 00 00 
   1a7e9:	48 c7 85 f8 fe ff ff 	movq   $0x0,-0x108(%rbp)
   1a7f0:	00 00 00 00 
   1a7f4:	48 8d 85 00 eb ff ff 	lea    -0x1500(%rbp),%rax
   1a7fb:	48 83 c0 14          	add    $0x14,%rax
   1a7ff:	48 89 85 00 ff ff ff 	mov    %rax,-0x100(%rbp)
   1a806:	48 8d 85 70 e6 ff ff 	lea    -0x1990(%rbp),%rax
   1a80d:	48 89 85 08 ff ff ff 	mov    %rax,-0xf8(%rbp)
   1a814:	48 8d 05 d5 99 00 00 	lea    0x99d5(%rip),%rax        # 241f0 <g_139+0x50>
   1a81b:	48 89 85 10 ff ff ff 	mov    %rax,-0xf0(%rbp)
   1a822:	48 8d 05 1f e4 00 00 	lea    0xe41f(%rip),%rax        # 28c48 <g_51>
   1a829:	48 89 85 18 ff ff ff 	mov    %rax,-0xe8(%rbp)
   1a830:	48 8d 05 cd 98 00 00 	lea    0x98cd(%rip),%rax        # 24104 <g_3+0x4>
   1a837:	48 89 85 20 ff ff ff 	mov    %rax,-0xe0(%rbp)
   1a83e:	48 8d 85 7c e6 ff ff 	lea    -0x1984(%rbp),%rax
   1a845:	48 89 85 28 ff ff ff 	mov    %rax,-0xd8(%rbp)
   1a84c:	48 8d 85 78 e6 ff ff 	lea    -0x1988(%rbp),%rax
   1a853:	48 89 85 30 ff ff ff 	mov    %rax,-0xd0(%rbp)
   1a85a:	48 8d 05 ab 98 00 00 	lea    0x98ab(%rip),%rax        # 2410c <g_3+0xc>
   1a861:	48 89 85 38 ff ff ff 	mov    %rax,-0xc8(%rbp)
   1a868:	48 8d 85 40 ec ff ff 	lea    -0x13c0(%rbp),%rax
   1a86f:	48 05 9c 00 00 00    	add    $0x9c,%rax
   1a875:	48 89 85 40 ff ff ff 	mov    %rax,-0xc0(%rbp)
   1a87c:	48 8d 85 00 ed ff ff 	lea    -0x1300(%rbp),%rax
   1a883:	48 83 c0 58          	add    $0x58,%rax
   1a887:	48 89 85 48 ff ff ff 	mov    %rax,-0xb8(%rbp)
   1a88e:	48 8d 05 5b 99 00 00 	lea    0x995b(%rip),%rax        # 241f0 <g_139+0x50>
   1a895:	48 89 85 50 ff ff ff 	mov    %rax,-0xb0(%rbp)
   1a89c:	48 c7 85 58 ff ff ff 	movq   $0x0,-0xa8(%rbp)
   1a8a3:	00 00 00 00 
   1a8a7:	48 8d 05 42 99 00 00 	lea    0x9942(%rip),%rax        # 241f0 <g_139+0x50>
   1a8ae:	48 89 85 60 ff ff ff 	mov    %rax,-0xa0(%rbp)
   1a8b5:	48 8d 05 8c e3 00 00 	lea    0xe38c(%rip),%rax        # 28c48 <g_51>
   1a8bc:	48 89 85 68 ff ff ff 	mov    %rax,-0x98(%rbp)
   1a8c3:	48 8d 85 78 e6 ff ff 	lea    -0x1988(%rbp),%rax
   1a8ca:	48 89 85 70 ff ff ff 	mov    %rax,-0x90(%rbp)
   1a8d1:	48 c7 85 78 ff ff ff 	movq   $0x0,-0x88(%rbp)
   1a8d8:	00 00 00 00 
   1a8dc:	48 8d 85 7c e6 ff ff 	lea    -0x1984(%rbp),%rax
   1a8e3:	48 89 45 80          	mov    %rax,-0x80(%rbp)
   1a8e7:	48 8d 85 d0 ea ff ff 	lea    -0x1530(%rbp),%rax
   1a8ee:	48 83 c0 0c          	add    $0xc,%rax
   1a8f2:	48 89 45 88          	mov    %rax,-0x78(%rbp)
   1a8f6:	48 8d 05 f3 98 00 00 	lea    0x98f3(%rip),%rax        # 241f0 <g_139+0x50>
   1a8fd:	48 89 45 90          	mov    %rax,-0x70(%rbp)
   1a901:	48 8d 85 d0 ea ff ff 	lea    -0x1530(%rbp),%rax
   1a908:	48 83 c0 04          	add    $0x4,%rax
   1a90c:	48 89 45 98          	mov    %rax,-0x68(%rbp)
   1a910:	48 8d 85 d0 ea ff ff 	lea    -0x1530(%rbp),%rax
   1a917:	48 83 c0 04          	add    $0x4,%rax
   1a91b:	48 89 45 a0          	mov    %rax,-0x60(%rbp)
   1a91f:	48 8d 05 ca 98 00 00 	lea    0x98ca(%rip),%rax        # 241f0 <g_139+0x50>
   1a926:	48 89 45 a8          	mov    %rax,-0x58(%rbp)
   1a92a:	48 c7 45 b0 00 00 00 	movq   $0x0,-0x50(%rbp)
   1a931:	00 
   1a932:	c7 85 90 e7 ff ff a3 	movl   $0x4dbfbca3,-0x1870(%rbp)
   1a939:	bc bf 4d 
   1a93c:	c7 85 b0 e6 ff ff 00 	movl   $0x0,-0x1950(%rbp)
   1a943:	00 00 00 
   1a946:	eb 1a                	jmp    1a962 <func_94+0x34fe>
   1a948:	8b 85 b0 e6 ff ff    	mov    -0x1950(%rbp),%eax
   1a94e:	48 98                	cltq   
   1a950:	c7 84 85 00 eb ff ff 	movl   $0x4,-0x1500(%rbp,%rax,4)
   1a957:	04 00 00 00 
   1a95b:	83 85 b0 e6 ff ff 01 	addl   $0x1,-0x1950(%rbp)
   1a962:	83 bd b0 e6 ff ff 08 	cmpl   $0x8,-0x1950(%rbp)
   1a969:	7e dd                	jle    1a948 <func_94+0x34e4>
   1a96b:	8b 9d 2c e6 ff ff    	mov    -0x19d4(%rbp),%ebx
   1a971:	8b 85 2c e6 ff ff    	mov    -0x19d4(%rbp),%eax
   1a977:	41 89 c5             	mov    %eax,%r13d
   1a97a:	48 8b 85 e0 e9 ff ff 	mov    -0x1620(%rbp),%rax
   1a981:	48 8b 00             	mov    (%rax),%rax
   1a984:	48 8d 50 01          	lea    0x1(%rax),%rdx
   1a988:	48 8b 85 e0 e9 ff ff 	mov    -0x1620(%rbp),%rax
   1a98f:	48 89 10             	mov    %rdx,(%rax)
   1a992:	48 8b 85 e0 e9 ff ff 	mov    -0x1620(%rbp),%rax
   1a999:	48 8b 00             	mov    (%rax),%rax
   1a99c:	48 be 02 f7 2a 88 4e 	movabs $0x3945254e882af702,%rsi
   1a9a3:	25 45 39 
   1a9a6:	48 89 c7             	mov    %rax,%rdi
   1a9a9:	e8 9d 16 ff ff       	callq  c04b <safe_sub_func_uint64_t_u_u>
   1a9ae:	49 89 c4             	mov    %rax,%r12
   1a9b1:	8b 85 90 ee ff ff    	mov    -0x1170(%rbp),%eax
   1a9b7:	8b 95 2c e6 ff ff    	mov    -0x19d4(%rbp),%edx
   1a9bd:	39 d0                	cmp    %edx,%eax
   1a9bf:	0f 95 c0             	setne  %al
   1a9c2:	0f b6 d0             	movzbl %al,%edx
   1a9c5:	8b 85 14 eb ff ff    	mov    -0x14ec(%rbp),%eax
   1a9cb:	39 c2                	cmp    %eax,%edx
   1a9cd:	0f 94 c0             	sete   %al
   1a9d0:	0f b6 d0             	movzbl %al,%edx
   1a9d3:	48 8b 85 e8 e9 ff ff 	mov    -0x1618(%rbp),%rax
   1a9da:	0f b6 00             	movzbl (%rax),%eax
   1a9dd:	8d 70 01             	lea    0x1(%rax),%esi
   1a9e0:	48 8b 8d e8 e9 ff ff 	mov    -0x1618(%rbp),%rcx
   1a9e7:	40 88 31             	mov    %sil,(%rcx)
   1a9ea:	0f b6 c0             	movzbl %al,%eax
   1a9ed:	89 d6                	mov    %edx,%esi
   1a9ef:	89 c7                	mov    %eax,%edi
   1a9f1:	e8 c8 12 ff ff       	callq  bcbe <safe_rshift_func_uint8_t_u_u>
   1a9f6:	84 c0                	test   %al,%al
   1a9f8:	8b 85 74 e6 ff ff    	mov    -0x198c(%rbp),%eax
   1a9fe:	89 c2                	mov    %eax,%edx
   1aa00:	48 8b 85 00 e9 ff ff 	mov    -0x1700(%rbp),%rax
   1aa07:	66 89 10             	mov    %dx,(%rax)
   1aa0a:	48 8b 85 00 e9 ff ff 	mov    -0x1700(%rbp),%rax
   1aa11:	0f b7 00             	movzwl (%rax),%eax
   1aa14:	48 0f bf c0          	movswq %ax,%rax
   1aa18:	49 39 c4             	cmp    %rax,%r12
   1aa1b:	74 11                	je     1aa2e <func_94+0x35ca>
   1aa1d:	8b 85 74 e6 ff ff    	mov    -0x198c(%rbp),%eax
   1aa23:	85 c0                	test   %eax,%eax
   1aa25:	74 07                	je     1aa2e <func_94+0x35ca>
   1aa27:	b8 01 00 00 00       	mov    $0x1,%eax
   1aa2c:	eb 05                	jmp    1aa33 <func_94+0x35cf>
   1aa2e:	b8 00 00 00 00       	mov    $0x0,%eax
   1aa33:	89 c6                	mov    %eax,%esi
   1aa35:	bf f7 ff 00 00       	mov    $0xfff7,%edi
   1aa3a:	e8 09 14 ff ff       	callq  be48 <safe_rshift_func_uint16_t_u_s>
   1aa3f:	66 85 c0             	test   %ax,%ax
   1aa42:	75 0d                	jne    1aa51 <func_94+0x35ed>
   1aa44:	48 8b 05 d5 c7 00 00 	mov    0xc7d5(%rip),%rax        # 27220 <g_13>
   1aa4b:	8b 00                	mov    (%rax),%eax
   1aa4d:	85 c0                	test   %eax,%eax
   1aa4f:	74 07                	je     1aa58 <func_94+0x35f4>
   1aa51:	b8 01 00 00 00       	mov    $0x1,%eax
   1aa56:	eb 05                	jmp    1aa5d <func_94+0x35f9>
   1aa58:	b8 00 00 00 00       	mov    $0x0,%eax
   1aa5d:	0f b7 c0             	movzwl %ax,%eax
   1aa60:	be 05 00 00 00       	mov    $0x5,%esi
   1aa65:	89 c7                	mov    %eax,%edi
   1aa67:	e8 0e 14 ff ff       	callq  be7a <safe_rshift_func_uint16_t_u_u>
   1aa6c:	44 89 ee             	mov    %r13d,%esi
   1aa6f:	bf fd 00 00 00       	mov    $0xfd,%edi
   1aa74:	e8 d3 11 ff ff       	callq  bc4c <safe_lshift_func_uint8_t_u_u>
   1aa79:	ba 01 00 00 00       	mov    $0x1,%edx
   1aa7e:	8b 85 2c e6 ff ff    	mov    -0x19d4(%rbp),%eax
   1aa84:	39 c2                	cmp    %eax,%edx
   1aa86:	0f 9f c0             	setg   %al
   1aa89:	0f b6 d0             	movzbl %al,%edx
   1aa8c:	8b 85 2c e6 ff ff    	mov    -0x19d4(%rbp),%eax
   1aa92:	89 85 7c e6 ff ff    	mov    %eax,-0x1984(%rbp)
   1aa98:	8b 85 7c e6 ff ff    	mov    -0x1984(%rbp),%eax
   1aa9e:	0f be c0             	movsbl %al,%eax
   1aaa1:	89 d6                	mov    %edx,%esi
   1aaa3:	89 c7                	mov    %eax,%edi
   1aaa5:	e8 48 07 ff ff       	callq  b1f2 <safe_sub_func_int8_t_s_s>
   1aaaa:	0f be c0             	movsbl %al,%eax
   1aaad:	48 8b 95 40 e8 ff ff 	mov    -0x17c0(%rbp),%rdx
   1aab4:	89 c6                	mov    %eax,%esi
   1aab6:	89 d7                	mov    %edx,%edi
   1aab8:	e8 42 0c ff ff       	callq  b6ff <safe_div_func_int32_t_s_s>
   1aabd:	98                   	cwtl   
   1aabe:	89 de                	mov    %ebx,%esi
   1aac0:	89 c7                	mov    %eax,%edi
   1aac2:	e8 63 0a ff ff       	callq  b52a <safe_rshift_func_int16_t_s_s>
   1aac7:	0f bf d0             	movswl %ax,%edx
   1aaca:	8b 85 2c e6 ff ff    	mov    -0x19d4(%rbp),%eax
   1aad0:	39 c2                	cmp    %eax,%edx
   1aad2:	0f 95 c0             	setne  %al
   1aad5:	0f b6 d0             	movzbl %al,%edx
   1aad8:	48 8b 05 b1 e4 00 00 	mov    0xe4b1(%rip),%rax        # 28f90 <g_235>
   1aadf:	48 21 d0             	and    %rdx,%rax
   1aae2:	89 c2                	mov    %eax,%edx
   1aae4:	8b 85 60 e6 ff ff    	mov    -0x19a0(%rbp),%eax
   1aaea:	21 d0                	and    %edx,%eax
   1aaec:	89 85 60 e6 ff ff    	mov    %eax,-0x19a0(%rbp)
   1aaf2:	c6 05 fd 98 00 00 fb 	movb   $0xfb,0x98fd(%rip)        # 243f6 <g_315>
   1aaf9:	e9 63 01 00 00       	jmpq   1ac61 <func_94+0x37fd>
   1aafe:	c6 85 80 e6 ff ff ff 	movb   $0xff,-0x1980(%rbp)
   1ab05:	c7 85 98 e7 ff ff 00 	movl   $0x0,-0x1868(%rbp)
   1ab0c:	00 00 00 
   1ab0f:	48 8d 85 00 eb ff ff 	lea    -0x1500(%rbp),%rax
   1ab16:	48 83 c0 04          	add    $0x4,%rax
   1ab1a:	48 89 85 f8 e9 ff ff 	mov    %rax,-0x1608(%rbp)
   1ab21:	c7 85 b4 e6 ff ff 00 	movl   $0x0,-0x194c(%rbp)
   1ab28:	00 00 00 
   1ab2b:	eb 1a                	jmp    1ab47 <func_94+0x36e3>
   1ab2d:	8b 85 b4 e6 ff ff    	mov    -0x194c(%rbp),%eax
   1ab33:	48 98                	cltq   
   1ab35:	c7 84 85 40 ea ff ff 	movl   $0x35e34954,-0x15c0(%rbp,%rax,4)
   1ab3c:	54 49 e3 35 
   1ab40:	83 85 b4 e6 ff ff 01 	addl   $0x1,-0x194c(%rbp)
   1ab47:	83 bd b4 e6 ff ff 01 	cmpl   $0x1,-0x194c(%rbp)
   1ab4e:	7e dd                	jle    1ab2d <func_94+0x36c9>
   1ab50:	8b 05 fe 63 00 00    	mov    0x63fe(%rip),%eax        # 20f54 <l_710.5357+0x14>
   1ab56:	98                   	cwtl   
   1ab57:	be 05 00 00 00       	mov    $0x5,%esi
   1ab5c:	89 c7                	mov    %eax,%edi
   1ab5e:	e8 00 0a ff ff       	callq  b563 <safe_rshift_func_int16_t_s_u>
   1ab63:	66 85 c0             	test   %ax,%ax
   1ab66:	75 14                	jne    1ab7c <func_94+0x3718>
   1ab68:	48 8b 85 c8 e7 ff ff 	mov    -0x1838(%rbp),%rax
   1ab6f:	48 c7 00 00 00 00 00 	movq   $0x0,(%rax)
   1ab76:	48 8b 00             	mov    (%rax),%rax
   1ab79:	48 85 c0             	test   %rax,%rax
   1ab7c:	8b 05 6e 98 00 00    	mov    0x986e(%rip),%eax        # 243f0 <g_236>
   1ab82:	8b 05 74 96 00 00    	mov    0x9674(%rip),%eax        # 241fc <g_139+0x5c>
   1ab88:	f7 d0                	not    %eax
   1ab8a:	0f bf d8             	movswl %ax,%ebx
   1ab8d:	0f b6 95 45 e6 ff ff 	movzbl -0x19bb(%rbp),%edx
   1ab94:	8b 85 44 ea ff ff    	mov    -0x15bc(%rbp),%eax
   1ab9a:	34 bd                	xor    $0xbd,%al
   1ab9c:	98                   	cwtl   
   1ab9d:	89 d6                	mov    %edx,%esi
   1ab9f:	89 c7                	mov    %eax,%edi
   1aba1:	e8 af 08 ff ff       	callq  b455 <safe_div_func_int16_t_s_s>
   1aba6:	98                   	cwtl   
   1aba7:	89 de                	mov    %ebx,%esi
   1aba9:	89 c7                	mov    %eax,%edi
   1abab:	e8 23 08 ff ff       	callq  b3d3 <safe_sub_func_int16_t_s_s>
   1abb0:	8b 85 40 ea ff ff    	mov    -0x15c0(%rbp),%eax
   1abb6:	89 c0                	mov    %eax,%eax
   1abb8:	48 be 97 1e e3 ec 6f 	movabs $0x37ca7f6fece31e97,%rsi
   1abbf:	7f ca 37 
   1abc2:	48 89 c7             	mov    %rax,%rdi
   1abc5:	e8 de 0c ff ff       	callq  b8a8 <safe_sub_func_int64_t_s_s>
   1abca:	48 be d1 12 3f 94 ff 	movabs $0x978b64ff943f12d1,%rsi
   1abd1:	64 8b 97 
   1abd4:	48 89 c7             	mov    %rax,%rdi
   1abd7:	e8 d3 14 ff ff       	callq  c0af <safe_div_func_uint64_t_u_u>
   1abdc:	48 8b 05 3d c6 00 00 	mov    0xc63d(%rip),%rax        # 27220 <g_13>
   1abe3:	8b 00                	mov    (%rax),%eax
   1abe5:	85 c0                	test   %eax,%eax
   1abe7:	75 0d                	jne    1abf6 <func_94+0x3792>
   1abe9:	48 8b 05 90 c6 00 00 	mov    0xc690(%rip),%rax        # 27280 <g_138>
   1abf0:	8b 00                	mov    (%rax),%eax
   1abf2:	85 c0                	test   %eax,%eax
   1abf4:	74 07                	je     1abfd <func_94+0x3799>
   1abf6:	b8 01 00 00 00       	mov    $0x1,%eax
   1abfb:	eb 05                	jmp    1ac02 <func_94+0x379e>
   1abfd:	b8 00 00 00 00       	mov    $0x0,%eax
   1ac02:	0f b6 c0             	movzbl %al,%eax
   1ac05:	be 04 00 00 00       	mov    $0x4,%esi
   1ac0a:	89 c7                	mov    %eax,%edi
   1ac0c:	e8 7c 10 ff ff       	callq  bc8d <safe_rshift_func_uint8_t_u_s>
   1ac11:	8b 85 2c e6 ff ff    	mov    -0x19d4(%rbp),%eax
   1ac17:	83 f8 07             	cmp    $0x7,%eax
   1ac1a:	0f 95 c0             	setne  %al
   1ac1d:	0f b6 c0             	movzbl %al,%eax
   1ac20:	39 85 88 e7 ff ff    	cmp    %eax,-0x1878(%rbp)
   1ac26:	0f 9e c0             	setle  %al
   1ac29:	0f b6 c0             	movzbl %al,%eax
   1ac2c:	89 85 98 e7 ff ff    	mov    %eax,-0x1868(%rbp)
   1ac32:	48 8b 05 27 c6 00 00 	mov    0xc627(%rip),%rax        # 27260 <g_57>
   1ac39:	48 8b 00             	mov    (%rax),%rax
   1ac3c:	48 89 85 f8 e9 ff ff 	mov    %rax,-0x1608(%rbp)
   1ac43:	0f b6 05 ac 97 00 00 	movzbl 0x97ac(%rip),%eax        # 243f6 <g_315>
   1ac4a:	66 98                	cbtw   
   1ac4c:	0f b7 c0             	movzwl %ax,%eax
   1ac4f:	be 01 00 00 00       	mov    $0x1,%esi
   1ac54:	89 c7                	mov    %eax,%edi
   1ac56:	e8 a4 10 ff ff       	callq  bcff <safe_add_func_uint16_t_u_u>
   1ac5b:	88 05 95 97 00 00    	mov    %al,0x9795(%rip)        # 243f6 <g_315>
   1ac61:	0f b6 05 8e 97 00 00 	movzbl 0x978e(%rip),%eax        # 243f6 <g_315>
   1ac68:	3c 15                	cmp    $0x15,%al
   1ac6a:	0f 8e 8e fe ff ff    	jle    1aafe <func_94+0x369a>
   1ac70:	c7 85 2c e6 ff ff 03 	movl   $0x3,-0x19d4(%rbp)
   1ac77:	00 00 00 
   1ac7a:	8b 85 2c e6 ff ff    	mov    -0x19d4(%rbp),%eax
   1ac80:	89 85 6c e6 ff ff    	mov    %eax,-0x1994(%rbp)
   1ac86:	48 8d 85 00 ed ff ff 	lea    -0x1300(%rbp),%rax
   1ac8d:	48 83 c0 58          	add    $0x58,%rax
   1ac91:	48 89 85 f0 e9 ff ff 	mov    %rax,-0x1610(%rbp)
   1ac98:	c7 85 94 e7 ff ff 80 	movl   $0xac3a0e80,-0x186c(%rbp)
   1ac9f:	0e 3a ac 
   1aca2:	c7 85 b8 e6 ff ff 00 	movl   $0x0,-0x1948(%rbp)
   1aca9:	00 00 00 
   1acac:	eb 1a                	jmp    1acc8 <func_94+0x3864>
   1acae:	8b 85 b8 e6 ff ff    	mov    -0x1948(%rbp),%eax
   1acb4:	48 98                	cltq   
   1acb6:	c7 84 85 40 ea ff ff 	movl   $0x8,-0x15c0(%rbp,%rax,4)
   1acbd:	08 00 00 00 
   1acc1:	83 85 b8 e6 ff ff 01 	addl   $0x1,-0x1948(%rbp)
   1acc8:	83 bd b8 e6 ff ff 01 	cmpl   $0x1,-0x1948(%rbp)
   1accf:	7e dd                	jle    1acae <func_94+0x384a>
   1acd1:	48 8d 85 2c e6 ff ff 	lea    -0x19d4(%rbp),%rax
   1acd8:	48 89 85 f0 e9 ff ff 	mov    %rax,-0x1610(%rbp)
   1acdf:	48 8b 85 f0 e9 ff ff 	mov    -0x1610(%rbp),%rax
   1ace6:	48 89 85 68 fb ff ff 	mov    %rax,-0x498(%rbp)
   1aced:	48 8b 05 6c c5 00 00 	mov    0xc56c(%rip),%rax        # 27260 <g_57>
   1acf4:	48 8d 95 2c e6 ff ff 	lea    -0x19d4(%rbp),%rdx
   1acfb:	48 89 10             	mov    %rdx,(%rax)
   1acfe:	83 85 90 e7 ff ff 01 	addl   $0x1,-0x1870(%rbp)
   1ad05:	eb 52                	jmp    1ad59 <func_94+0x38f5>
   1ad07:	48 b8 2e ae f8 ed 16 	movabs $0x4429da16edf8ae2e,%rax
   1ad0e:	da 29 44 
   1ad11:	48 89 85 d0 e9 ff ff 	mov    %rax,-0x1630(%rbp)
   1ad18:	c7 85 5c e6 ff ff 00 	movl   $0x0,-0x19a4(%rbp)
   1ad1f:	00 00 00 
   1ad22:	90                   	nop
   1ad23:	8b 85 5c e6 ff ff    	mov    -0x19a4(%rbp),%eax
   1ad29:	83 f8 0e             	cmp    $0xe,%eax
   1ad2c:	74 2b                	je     1ad59 <func_94+0x38f5>
   1ad2e:	48 83 85 d0 e9 ff ff 	addq   $0x1,-0x1630(%rbp)
   1ad35:	01 
   1ad36:	48 8b 05 43 c5 00 00 	mov    0xc543(%rip),%rax        # 27280 <g_138>
   1ad3d:	8b 10                	mov    (%rax),%edx
   1ad3f:	8b 85 2c e6 ff ff    	mov    -0x19d4(%rbp),%eax
   1ad45:	31 d0                	xor    %edx,%eax
   1ad47:	89 85 2c e6 ff ff    	mov    %eax,-0x19d4(%rbp)
   1ad4d:	0f b6 85 3f e6 ff ff 	movzbl -0x19c1(%rbp),%eax
   1ad54:	e9 eb 11 00 00       	jmpq   1bf44 <func_94+0x4ae0>
   1ad59:	8b 85 58 e6 ff ff    	mov    -0x19a8(%rbp),%eax
   1ad5f:	83 e8 01             	sub    $0x1,%eax
   1ad62:	89 85 58 e6 ff ff    	mov    %eax,-0x19a8(%rbp)
   1ad68:	8b 85 58 e6 ff ff    	mov    -0x19a8(%rbp),%eax
   1ad6e:	85 c0                	test   %eax,%eax
   1ad70:	0f 89 c7 de ff ff    	jns    18c3d <func_94+0x17d9>
   1ad76:	eb 01                	jmp    1ad79 <func_94+0x3915>
   1ad78:	90                   	nop
   1ad79:	0f b6 85 10 ea ff ff 	movzbl -0x15f0(%rbp),%eax
   1ad80:	e9 bf 11 00 00       	jmpq   1bf44 <func_94+0x4ae0>
   1ad85:	8b 05 65 94 00 00    	mov    0x9465(%rip),%eax        # 241f0 <g_139+0x50>
   1ad8b:	48 63 d0             	movslq %eax,%rdx
   1ad8e:	48 8b 05 eb e1 00 00 	mov    0xe1eb(%rip),%rax        # 28f80 <g_210>
   1ad95:	48 39 c2             	cmp    %rax,%rdx
   1ad98:	0f 8e ad 00 00 00    	jle    1ae4b <func_94+0x39e7>
   1ad9e:	48 8b 85 00 e9 ff ff 	mov    -0x1700(%rbp),%rax
   1ada5:	0f b7 00             	movzwl (%rax),%eax
   1ada8:	66 25 69 08          	and    $0x869,%ax
   1adac:	89 c2                	mov    %eax,%edx
   1adae:	48 8b 85 00 e9 ff ff 	mov    -0x1700(%rbp),%rax
   1adb5:	66 89 10             	mov    %dx,(%rax)
   1adb8:	48 8b 85 00 e9 ff ff 	mov    -0x1700(%rbp),%rax
   1adbf:	0f b7 00             	movzwl (%rax),%eax
   1adc2:	66 39 85 4e e6 ff ff 	cmp    %ax,-0x19b2(%rbp)
   1adc9:	0f 9f c0             	setg   %al
   1adcc:	89 c2                	mov    %eax,%edx
   1adce:	48 8b 85 30 e9 ff ff 	mov    -0x16d0(%rbp),%rax
   1add5:	88 10                	mov    %dl,(%rax)
   1add7:	48 8b 85 30 e9 ff ff 	mov    -0x16d0(%rbp),%rax
   1adde:	0f b6 00             	movzbl (%rax),%eax
   1ade1:	0f b6 c0             	movzbl %al,%eax
   1ade4:	89 05 e6 96 00 00    	mov    %eax,0x96e6(%rip)        # 244d0 <g_747>
   1adea:	8b 1d e0 96 00 00    	mov    0x96e0(%rip),%ebx        # 244d0 <g_747>
   1adf0:	8b 05 4a 93 00 00    	mov    0x934a(%rip),%eax        # 24140 <g_74>
   1adf6:	8b 95 2c e6 ff ff    	mov    -0x19d4(%rbp),%edx
   1adfc:	31 d0                	xor    %edx,%eax
   1adfe:	89 05 3c 93 00 00    	mov    %eax,0x933c(%rip)        # 24140 <g_74>
   1ae04:	8b 05 36 93 00 00    	mov    0x9336(%rip),%eax        # 24140 <g_74>
   1ae0a:	89 c2                	mov    %eax,%edx
   1ae0c:	48 8b 85 38 e8 ff ff 	mov    -0x17c8(%rbp),%rax
   1ae13:	c7 00 ff ff ff ff    	movl   $0xffffffff,(%rax)
   1ae19:	48 8b 85 38 e8 ff ff 	mov    -0x17c8(%rbp),%rax
   1ae20:	8b 00                	mov    (%rax),%eax
   1ae22:	89 d6                	mov    %edx,%esi
   1ae24:	89 c7                	mov    %eax,%edi
   1ae26:	e8 da 07 ff ff       	callq  b605 <safe_sub_func_int32_t_s_s>
   1ae2b:	39 c3                	cmp    %eax,%ebx
   1ae2d:	0f 93 c0             	setae  %al
   1ae30:	0f b6 d0             	movzbl %al,%edx
   1ae33:	0f b6 85 94 ea ff ff 	movzbl -0x156c(%rbp),%eax
   1ae3a:	31 d0                	xor    %edx,%eax
   1ae3c:	88 85 94 ea ff ff    	mov    %al,-0x156c(%rbp)
   1ae42:	0f b6 85 94 ea ff ff 	movzbl -0x156c(%rbp),%eax
   1ae49:	84 c0                	test   %al,%al
   1ae4b:	48 8d 05 40 93 00 00 	lea    0x9340(%rip),%rax        # 24192 <g_129>
   1ae52:	48 89 05 a7 e1 00 00 	mov    %rax,0xe1a7(%rip)        # 29000 <g_564>
   1ae59:	48 8b 05 e0 c7 00 00 	mov    0xc7e0(%rip),%rax        # 27640 <g_566>
   1ae60:	48 8b 10             	mov    (%rax),%rdx
   1ae63:	48 8d 85 c8 e7 ff ff 	lea    -0x1838(%rbp),%rax
   1ae6a:	48 39 c2             	cmp    %rax,%rdx
   1ae6d:	0f 95 c0             	setne  %al
   1ae70:	0f b6 d0             	movzbl %al,%edx
   1ae73:	8b 05 ab 92 00 00    	mov    0x92ab(%rip),%eax        # 24124 <g_7>
   1ae79:	09 d0                	or     %edx,%eax
   1ae7b:	85 c0                	test   %eax,%eax
   1ae7d:	0f 84 38 06 00 00    	je     1b4bb <func_94+0x4057>
   1ae83:	48 8d 85 c0 e7 ff ff 	lea    -0x1840(%rbp),%rax
   1ae8a:	48 89 85 08 e8 ff ff 	mov    %rax,-0x17f8(%rbp)
   1ae91:	48 8d 85 08 e8 ff ff 	lea    -0x17f8(%rbp),%rax
   1ae98:	48 89 85 40 ec ff ff 	mov    %rax,-0x13c0(%rbp)
   1ae9f:	48 c7 85 48 ec ff ff 	movq   $0x0,-0x13b8(%rbp)
   1aea6:	00 00 00 00 
   1aeaa:	48 8d 85 08 e8 ff ff 	lea    -0x17f8(%rbp),%rax
   1aeb1:	48 89 85 50 ec ff ff 	mov    %rax,-0x13b0(%rbp)
   1aeb8:	48 c7 85 58 ec ff ff 	movq   $0x0,-0x13a8(%rbp)
   1aebf:	00 00 00 00 
   1aec3:	48 8d 85 08 e8 ff ff 	lea    -0x17f8(%rbp),%rax
   1aeca:	48 89 85 60 ec ff ff 	mov    %rax,-0x13a0(%rbp)
   1aed1:	48 c7 85 68 ec ff ff 	movq   $0x0,-0x1398(%rbp)
   1aed8:	00 00 00 00 
   1aedc:	48 8d 85 08 e8 ff ff 	lea    -0x17f8(%rbp),%rax
   1aee3:	48 89 85 70 ec ff ff 	mov    %rax,-0x1390(%rbp)
   1aeea:	48 c7 85 78 ec ff ff 	movq   $0x0,-0x1388(%rbp)
   1aef1:	00 00 00 00 
   1aef5:	48 8d 85 08 e8 ff ff 	lea    -0x17f8(%rbp),%rax
   1aefc:	48 89 85 80 ec ff ff 	mov    %rax,-0x1380(%rbp)
   1af03:	c7 85 5c e7 ff ff 00 	movl   $0x0,-0x18a4(%rbp)
   1af0a:	00 00 00 
   1af0d:	48 8d 85 f8 e7 ff ff 	lea    -0x1808(%rbp),%rax
   1af14:	48 89 85 a0 e9 ff ff 	mov    %rax,-0x1660(%rbp)
   1af1b:	c7 85 60 e7 ff ff 66 	movl   $0x60834e66,-0x18a0(%rbp)
   1af22:	4e 83 60 
   1af25:	48 8d 85 60 f1 ff ff 	lea    -0xea0(%rbp),%rax
   1af2c:	48 05 68 01 00 00    	add    $0x168,%rax
   1af32:	48 89 85 a8 e9 ff ff 	mov    %rax,-0x1658(%rbp)
   1af39:	c7 85 64 e7 ff ff ba 	movl   $0xa2723eba,-0x189c(%rbp)
   1af40:	3e 72 a2 
   1af43:	c7 85 68 e7 ff ff 14 	movl   $0x3d0b9c14,-0x1898(%rbp)
   1af4a:	9c 0b 3d 
   1af4d:	c7 85 bc e6 ff ff 00 	movl   $0x0,-0x1944(%rbp)
   1af54:	00 00 00 
   1af57:	eb 1a                	jmp    1af73 <func_94+0x3b0f>
   1af59:	8b 85 bc e6 ff ff    	mov    -0x1944(%rbp),%eax
   1af5f:	48 98                	cltq   
   1af61:	c7 84 85 14 ea ff ff 	movl   $0x4,-0x15ec(%rbp,%rax,4)
   1af68:	04 00 00 00 
   1af6c:	83 85 bc e6 ff ff 01 	addl   $0x1,-0x1944(%rbp)
   1af73:	83 bd bc e6 ff ff 02 	cmpl   $0x2,-0x1944(%rbp)
   1af7a:	7e dd                	jle    1af59 <func_94+0x3af5>
   1af7c:	0f b7 85 38 f1 ff ff 	movzwl -0xec8(%rbp),%eax
   1af83:	0f bf d0             	movswl %ax,%edx
   1af86:	48 8b 85 38 e8 ff ff 	mov    -0x17c8(%rbp),%rax
   1af8d:	8b 00                	mov    (%rax),%eax
   1af8f:	39 c2                	cmp    %eax,%edx
   1af91:	0f 9c c0             	setl   %al
   1af94:	44 0f b6 f8          	movzbl %al,%r15d
   1af98:	8b 05 52 94 00 00    	mov    0x9452(%rip),%eax        # 243f0 <g_236>
   1af9e:	8b 85 2c e6 ff ff    	mov    -0x19d4(%rbp),%eax
   1afa4:	48 63 d8             	movslq %eax,%rbx
   1afa7:	48 8b 05 72 c2 00 00 	mov    0xc272(%rip),%rax        # 27220 <g_13>
   1afae:	44 8b 20             	mov    (%rax),%r12d
   1afb1:	8b 85 2c e6 ff ff    	mov    -0x19d4(%rbp),%eax
   1afb7:	44 0f bf e8          	movswl %ax,%r13d
   1afbb:	48 8b 85 38 e8 ff ff 	mov    -0x17c8(%rbp),%rax
   1afc2:	8b 00                	mov    (%rax),%eax
   1afc4:	44 0f bf f0          	movswl %ax,%r14d
   1afc8:	8b 15 6a 91 00 00    	mov    0x916a(%rip),%edx        # 24138 <g_59+0x8>
   1afce:	8b 85 2c e6 ff ff    	mov    -0x19d4(%rbp),%eax
   1afd4:	21 c2                	and    %eax,%edx
   1afd6:	8b 85 5c e7 ff ff    	mov    -0x18a4(%rbp),%eax
   1afdc:	89 c6                	mov    %eax,%esi
   1afde:	89 d7                	mov    %edx,%edi
   1afe0:	e8 1a 07 ff ff       	callq  b6ff <safe_div_func_int32_t_s_s>
   1afe5:	89 c6                	mov    %eax,%esi
   1afe7:	bf fb ff ff ff       	mov    $0xfffffffb,%edi
   1afec:	e8 df 0e ff ff       	callq  bed0 <safe_sub_func_uint32_t_u_u>
   1aff1:	89 c2                	mov    %eax,%edx
   1aff3:	48 8b 85 00 e9 ff ff 	mov    -0x1700(%rbp),%rax
   1affa:	66 89 10             	mov    %dx,(%rax)
   1affd:	48 8b 85 00 e9 ff ff 	mov    -0x1700(%rbp),%rax
   1b004:	0f b7 00             	movzwl (%rax),%eax
   1b007:	98                   	cwtl   
   1b008:	44 89 f6             	mov    %r14d,%esi
   1b00b:	89 c7                	mov    %eax,%edi
   1b00d:	e8 e3 03 ff ff       	callq  b3f5 <safe_mul_func_int16_t_s_s>
   1b012:	98                   	cwtl   
   1b013:	44 89 ee             	mov    %r13d,%esi
   1b016:	89 c7                	mov    %eax,%edi
   1b018:	e8 d8 03 ff ff       	callq  b3f5 <safe_mul_func_int16_t_s_s>
   1b01d:	be fc 00 00 00       	mov    $0xfc,%esi
   1b022:	bf 00 00 00 00       	mov    $0x0,%edi
   1b027:	e8 4c 0b ff ff       	callq  bb78 <safe_sub_func_uint8_t_u_u>
   1b02c:	0f b6 c0             	movzbl %al,%eax
   1b02f:	44 89 e6             	mov    %r12d,%esi
   1b032:	89 c7                	mov    %eax,%edi
   1b034:	e8 c6 06 ff ff       	callq  b6ff <safe_div_func_int32_t_s_s>
   1b039:	48 98                	cltq   
   1b03b:	48 89 de             	mov    %rbx,%rsi
   1b03e:	48 89 c7             	mov    %rax,%rdi
   1b041:	e8 62 08 ff ff       	callq  b8a8 <safe_sub_func_int64_t_s_s>
   1b046:	0f b7 c0             	movzwl %ax,%eax
   1b049:	83 e0 01             	and    $0x1,%eax
   1b04c:	89 c2                	mov    %eax,%edx
   1b04e:	48 8b 05 ab df 00 00 	mov    0xdfab(%rip),%rax        # 29000 <g_564>
   1b055:	0f b7 00             	movzwl (%rax),%eax
   1b058:	0f b7 c0             	movzwl %ax,%eax
   1b05b:	89 d6                	mov    %edx,%esi
   1b05d:	89 c7                	mov    %eax,%edi
   1b05f:	e8 f8 0c ff ff       	callq  bd5c <safe_mod_func_uint16_t_u_u>
   1b064:	66 85 c0             	test   %ax,%ax
   1b067:	74 07                	je     1b070 <func_94+0x3c0c>
   1b069:	b8 01 00 00 00       	mov    $0x1,%eax
   1b06e:	eb 05                	jmp    1b075 <func_94+0x3c11>
   1b070:	b8 00 00 00 00       	mov    $0x0,%eax
   1b075:	89 c2                	mov    %eax,%edx
   1b077:	48 8b 85 30 e9 ff ff 	mov    -0x16d0(%rbp),%rax
   1b07e:	88 10                	mov    %dl,(%rax)
   1b080:	48 8b 85 30 e9 ff ff 	mov    -0x16d0(%rbp),%rax
   1b087:	0f b6 00             	movzbl (%rax),%eax
   1b08a:	0f b6 c0             	movzbl %al,%eax
   1b08d:	83 e0 0a             	and    $0xa,%eax
   1b090:	48 83 f8 7e          	cmp    $0x7e,%rax
   1b094:	0f 94 c0             	sete   %al
   1b097:	0f b6 d0             	movzbl %al,%edx
   1b09a:	8b 85 2c e6 ff ff    	mov    -0x19d4(%rbp),%eax
   1b0a0:	85 c0                	test   %eax,%eax
   1b0a2:	0f 94 c0             	sete   %al
   1b0a5:	0f b6 c0             	movzbl %al,%eax
   1b0a8:	89 d6                	mov    %edx,%esi
   1b0aa:	89 c7                	mov    %eax,%edi
   1b0ac:	e8 e2 0a ff ff       	callq  bb93 <safe_mul_func_uint8_t_u_u>
   1b0b1:	0f b6 d0             	movzbl %al,%edx
   1b0b4:	48 8b 85 08 e8 ff ff 	mov    -0x17f8(%rbp),%rax
   1b0bb:	48 89 85 a8 e7 ff ff 	mov    %rax,-0x1858(%rbp)
   1b0c2:	48 8b 85 a8 e7 ff ff 	mov    -0x1858(%rbp),%rax
   1b0c9:	48 8d 8d a0 e7 ff ff 	lea    -0x1860(%rbp),%rcx
   1b0d0:	48 89 8d 50 e8 ff ff 	mov    %rcx,-0x17b0(%rbp)
   1b0d7:	48 39 85 50 e8 ff ff 	cmp    %rax,-0x17b0(%rbp)
   1b0de:	0f 95 c0             	setne  %al
   1b0e1:	0f b6 c0             	movzbl %al,%eax
   1b0e4:	89 d6                	mov    %edx,%esi
   1b0e6:	89 c7                	mov    %eax,%edi
   1b0e8:	e8 08 03 ff ff       	callq  b3f5 <safe_mul_func_int16_t_s_s>
   1b0ed:	98                   	cwtl   
   1b0ee:	41 39 c7             	cmp    %eax,%r15d
   1b0f1:	74 0d                	je     1b100 <func_94+0x3c9c>
   1b0f3:	48 8b 85 38 e8 ff ff 	mov    -0x17c8(%rbp),%rax
   1b0fa:	8b 00                	mov    (%rax),%eax
   1b0fc:	85 c0                	test   %eax,%eax
   1b0fe:	74 07                	je     1b107 <func_94+0x3ca3>
   1b100:	b8 01 00 00 00       	mov    $0x1,%eax
   1b105:	eb 05                	jmp    1b10c <func_94+0x3ca8>
   1b107:	b8 00 00 00 00       	mov    $0x0,%eax
   1b10c:	83 f8 fe             	cmp    $0xfffffffe,%eax
   1b10f:	0f 94 c0             	sete   %al
   1b112:	0f b6 c0             	movzbl %al,%eax
   1b115:	89 85 2c e6 ff ff    	mov    %eax,-0x19d4(%rbp)
   1b11b:	8b 85 cc e6 ff ff    	mov    -0x1934(%rbp),%eax
   1b121:	89 85 2c e6 ff ff    	mov    %eax,-0x19d4(%rbp)
   1b127:	48 8b 95 f8 e7 ff ff 	mov    -0x1808(%rbp),%rdx
   1b12e:	48 8b 85 a0 e9 ff ff 	mov    -0x1660(%rbp),%rax
   1b135:	48 89 10             	mov    %rdx,(%rax)
   1b138:	48 8b 85 a0 e9 ff ff 	mov    -0x1660(%rbp),%rax
   1b13f:	48 8b 00             	mov    (%rax),%rax
   1b142:	48 39 85 58 e8 ff ff 	cmp    %rax,-0x17a8(%rbp)
   1b149:	0f 95 c0             	setne  %al
   1b14c:	0f b6 c0             	movzbl %al,%eax
   1b14f:	be 05 00 00 00       	mov    $0x5,%esi
   1b154:	89 c7                	mov    %eax,%edi
   1b156:	e8 63 0b ff ff       	callq  bcbe <safe_rshift_func_uint8_t_u_u>
   1b15b:	8b 05 d7 8f 00 00    	mov    0x8fd7(%rip),%eax        # 24138 <g_59+0x8>
   1b161:	85 c0                	test   %eax,%eax
   1b163:	0f 94 c0             	sete   %al
   1b166:	0f b6 d0             	movzbl %al,%edx
   1b169:	48 8b 85 00 e9 ff ff 	mov    -0x1700(%rbp),%rax
   1b170:	66 89 10             	mov    %dx,(%rax)
   1b173:	48 8b 85 00 e9 ff ff 	mov    -0x1700(%rbp),%rax
   1b17a:	0f b7 00             	movzwl (%rax),%eax
   1b17d:	98                   	cwtl   
   1b17e:	be 0e 00 00 00       	mov    $0xe,%esi
   1b183:	89 c7                	mov    %eax,%edi
   1b185:	e8 a0 03 ff ff       	callq  b52a <safe_rshift_func_int16_t_s_s>
   1b18a:	66 85 c0             	test   %ax,%ax
   1b18d:	75 32                	jne    1b1c1 <func_94+0x3d5d>
   1b18f:	48 8b 05 da c0 00 00 	mov    0xc0da(%rip),%rax        # 27270 <g_116>
   1b196:	0f b6 00             	movzbl (%rax),%eax
   1b199:	0f be d0             	movsbl %al,%edx
   1b19c:	83 bd 60 e7 ff ff 05 	cmpl   $0x5,-0x18a0(%rbp)
   1b1a3:	0f 94 c0             	sete   %al
   1b1a6:	0f b6 c0             	movzbl %al,%eax
   1b1a9:	39 c2                	cmp    %eax,%edx
   1b1ab:	7e 15                	jle    1b1c2 <func_94+0x3d5e>
   1b1ad:	8b 85 2c e6 ff ff    	mov    -0x19d4(%rbp),%eax
   1b1b3:	85 c0                	test   %eax,%eax
   1b1b5:	7f 0a                	jg     1b1c1 <func_94+0x3d5d>
   1b1b7:	48 8b 05 c2 dd 00 00 	mov    0xddc2(%rip),%rax        # 28f80 <g_210>
   1b1be:	48 85 c0             	test   %rax,%rax
   1b1c1:	90                   	nop
   1b1c2:	8b 85 2c e6 ff ff    	mov    -0x19d4(%rbp),%eax
   1b1c8:	85 c0                	test   %eax,%eax
   1b1ca:	0f 9f c0             	setg   %al
   1b1cd:	0f b6 d0             	movzbl %al,%edx
   1b1d0:	48 8b 85 38 e8 ff ff 	mov    -0x17c8(%rbp),%rax
   1b1d7:	8b 00                	mov    (%rax),%eax
   1b1d9:	39 c2                	cmp    %eax,%edx
   1b1db:	0f 95 c0             	setne  %al
   1b1de:	0f b6 d0             	movzbl %al,%edx
   1b1e1:	48 8b 85 38 e8 ff ff 	mov    -0x17c8(%rbp),%rax
   1b1e8:	8b 00                	mov    (%rax),%eax
   1b1ea:	39 c2                	cmp    %eax,%edx
   1b1ec:	0f 84 9c 02 00 00    	je     1b48e <func_94+0x402a>
   1b1f2:	c7 85 6c e7 ff ff 01 	movl   $0x1,-0x1894(%rbp)
   1b1f9:	00 00 00 
   1b1fc:	c7 85 70 e7 ff ff 01 	movl   $0x1,-0x1890(%rbp)
   1b203:	00 00 00 
   1b206:	c7 85 d0 ea ff ff 0c 	movl   $0xe514720c,-0x1530(%rbp)
   1b20d:	72 14 e5 
   1b210:	c7 85 d4 ea ff ff 38 	movl   $0xd9ce1938,-0x152c(%rbp)
   1b217:	19 ce d9 
   1b21a:	c7 85 d8 ea ff ff fc 	movl   $0xfffffffc,-0x1528(%rbp)
   1b221:	ff ff ff 
   1b224:	c7 85 dc ea ff ff 38 	movl   $0xd9ce1938,-0x1524(%rbp)
   1b22b:	19 ce d9 
   1b22e:	c7 85 e0 ea ff ff 0c 	movl   $0xe514720c,-0x1520(%rbp)
   1b235:	72 14 e5 
   1b238:	c7 85 e4 ea ff ff 0c 	movl   $0xe514720c,-0x151c(%rbp)
   1b23f:	72 14 e5 
   1b242:	c7 85 e8 ea ff ff 38 	movl   $0xd9ce1938,-0x1518(%rbp)
   1b249:	19 ce d9 
   1b24c:	c7 85 ec ea ff ff fc 	movl   $0xfffffffc,-0x1514(%rbp)
   1b253:	ff ff ff 
   1b256:	c7 85 f0 ea ff ff 38 	movl   $0xd9ce1938,-0x1510(%rbp)
   1b25d:	19 ce d9 
   1b260:	c7 85 f4 ea ff ff 0c 	movl   $0xe514720c,-0x150c(%rbp)
   1b267:	72 14 e5 
   1b26a:	c7 85 74 e7 ff ff d3 	movl   $0x170f42d3,-0x188c(%rbp)
   1b271:	42 0f 17 
   1b274:	c7 85 78 e7 ff ff 7d 	movl   $0x181d667d,-0x1888(%rbp)
   1b27b:	66 1d 18 
   1b27e:	c7 05 0c 8f 00 00 00 	movl   $0x0,0x8f0c(%rip)        # 24194 <g_133>
   1b285:	00 00 00 
   1b288:	e9 be 01 00 00       	jmpq   1b44b <func_94+0x3fe7>
   1b28d:	c7 85 7c e7 ff ff 00 	movl   $0x0,-0x1884(%rbp)
   1b294:	00 00 00 
   1b297:	c7 85 80 e7 ff ff 59 	movl   $0x5a8b1559,-0x1880(%rbp)
   1b29e:	15 8b 5a 
   1b2a1:	c7 85 00 eb ff ff 64 	movl   $0xd8170664,-0x1500(%rbp)
   1b2a8:	06 17 d8 
   1b2ab:	c7 85 04 eb ff ff 34 	movl   $0x7fcdb034,-0x14fc(%rbp)
   1b2b2:	b0 cd 7f 
   1b2b5:	c7 85 08 eb ff ff 34 	movl   $0x7fcdb034,-0x14f8(%rbp)
   1b2bc:	b0 cd 7f 
   1b2bf:	c7 85 0c eb ff ff 64 	movl   $0xd8170664,-0x14f4(%rbp)
   1b2c6:	06 17 d8 
   1b2c9:	c7 85 10 eb ff ff 34 	movl   $0x7fcdb034,-0x14f0(%rbp)
   1b2d0:	b0 cd 7f 
   1b2d3:	c7 85 14 eb ff ff 34 	movl   $0x7fcdb034,-0x14ec(%rbp)
   1b2da:	b0 cd 7f 
   1b2dd:	c7 85 18 eb ff ff 64 	movl   $0xd8170664,-0x14e8(%rbp)
   1b2e4:	06 17 d8 
   1b2e7:	c7 85 1c eb ff ff 34 	movl   $0x7fcdb034,-0x14e4(%rbp)
   1b2ee:	b0 cd 7f 
   1b2f1:	c7 85 20 eb ff ff 34 	movl   $0x7fcdb034,-0x14e0(%rbp)
   1b2f8:	b0 cd 7f 
   1b2fb:	c7 85 24 eb ff ff 64 	movl   $0xd8170664,-0x14dc(%rbp)
   1b302:	06 17 d8 
   1b305:	c7 85 c0 e6 ff ff 00 	movl   $0x0,-0x1940(%rbp)
   1b30c:	00 00 00 
   1b30f:	eb 1b                	jmp    1b32c <func_94+0x3ec8>
   1b311:	8b 85 c0 e6 ff ff    	mov    -0x1940(%rbp),%eax
   1b317:	48 98                	cltq   
   1b319:	48 c7 84 c5 10 f8 ff 	movq   $0x0,-0x7f0(%rbp,%rax,8)
   1b320:	ff 00 00 00 00 
   1b325:	83 85 c0 e6 ff ff 01 	addl   $0x1,-0x1940(%rbp)
   1b32c:	83 bd c0 e6 ff ff 09 	cmpl   $0x9,-0x1940(%rbp)
   1b333:	7e dc                	jle    1b311 <func_94+0x3ead>
   1b335:	c7 05 01 8e 00 00 f5 	movl   $0xfffffff5,0x8e01(%rip)        # 24140 <g_74>
   1b33c:	ff ff ff 
   1b33f:	eb 2f                	jmp    1b370 <func_94+0x3f0c>
   1b341:	8b 85 2c e6 ff ff    	mov    -0x19d4(%rbp),%eax
   1b347:	89 85 2c e6 ff ff    	mov    %eax,-0x19d4(%rbp)
   1b34d:	83 bd 5c e7 ff ff 00 	cmpl   $0x0,-0x18a4(%rbp)
   1b354:	75 27                	jne    1b37d <func_94+0x3f19>
   1b356:	8b 05 e4 8d 00 00    	mov    0x8de4(%rip),%eax        # 24140 <g_74>
   1b35c:	98                   	cwtl   
   1b35d:	be 04 00 00 00       	mov    $0x4,%esi
   1b362:	89 c7                	mov    %eax,%edi
   1b364:	e8 4a 00 ff ff       	callq  b3b3 <safe_add_func_int16_t_s_s>
   1b369:	98                   	cwtl   
   1b36a:	89 05 d0 8d 00 00    	mov    %eax,0x8dd0(%rip)        # 24140 <g_74>
   1b370:	8b 05 ca 8d 00 00    	mov    0x8dca(%rip),%eax        # 24140 <g_74>
   1b376:	83 f8 1d             	cmp    $0x1d,%eax
   1b379:	75 c6                	jne    1b341 <func_94+0x3edd>
   1b37b:	eb 01                	jmp    1b37e <func_94+0x3f1a>
   1b37d:	90                   	nop
   1b37e:	48 8b 85 38 e8 ff ff 	mov    -0x17c8(%rbp),%rax
   1b385:	8b 00                	mov    (%rax),%eax
   1b387:	85 c0                	test   %eax,%eax
   1b389:	74 2e                	je     1b3b9 <func_94+0x3f55>
   1b38b:	48 8b 85 38 e8 ff ff 	mov    -0x17c8(%rbp),%rax
   1b392:	c7 00 04 00 00 00    	movl   $0x4,(%rax)
   1b398:	48 8b 85 38 e8 ff ff 	mov    -0x17c8(%rbp),%rax
   1b39f:	8b 00                	mov    (%rax),%eax
   1b3a1:	33 85 6c e7 ff ff    	xor    -0x1894(%rbp),%eax
   1b3a7:	f7 d0                	not    %eax
   1b3a9:	89 c2                	mov    %eax,%edx
   1b3ab:	48 8b 85 38 e8 ff ff 	mov    -0x17c8(%rbp),%rax
   1b3b2:	89 10                	mov    %edx,(%rax)
   1b3b4:	e9 83 00 00 00       	jmpq   1b43c <func_94+0x3fd8>
   1b3b9:	c7 85 84 e7 ff ff 01 	movl   $0x1,-0x187c(%rbp)
   1b3c0:	00 00 00 
   1b3c3:	48 c7 85 40 ea ff ff 	movq   $0x0,-0x15c0(%rbp)
   1b3ca:	00 00 00 00 
   1b3ce:	48 c7 85 48 ea ff ff 	movq   $0x0,-0x15b8(%rbp)
   1b3d5:	00 00 00 00 
   1b3d9:	48 c7 85 50 ea ff ff 	movq   $0x0,-0x15b0(%rbp)
   1b3e0:	00 00 00 00 
   1b3e4:	c7 85 58 ea ff ff 00 	movl   $0x0,-0x15a8(%rbp)
   1b3eb:	00 00 00 
   1b3ee:	48 8b 85 18 f8 ff ff 	mov    -0x7e8(%rbp),%rax
   1b3f5:	48 89 85 a8 e9 ff ff 	mov    %rax,-0x1658(%rbp)
   1b3fc:	48 8b 05 55 c2 00 00 	mov    0xc255(%rip),%rax        # 27658 <g_798>
   1b403:	48 8b 95 a8 e9 ff ff 	mov    -0x1658(%rbp),%rdx
   1b40a:	48 89 10             	mov    %rdx,(%rax)
   1b40d:	0f b7 85 62 eb ff ff 	movzwl -0x149e(%rbp),%eax
   1b414:	83 e8 01             	sub    $0x1,%eax
   1b417:	66 89 85 62 eb ff ff 	mov    %ax,-0x149e(%rbp)
   1b41e:	48 8b 15 3b be 00 00 	mov    0xbe3b(%rip),%rdx        # 27260 <g_57>
   1b425:	48 8b 05 34 be 00 00 	mov    0xbe34(%rip),%rax        # 27260 <g_57>
   1b42c:	48 8b 12             	mov    (%rdx),%rdx
   1b42f:	48 89 10             	mov    %rdx,(%rax)
   1b432:	8b 85 2c e6 ff ff    	mov    -0x19d4(%rbp),%eax
   1b438:	85 c0                	test   %eax,%eax
   1b43a:	75 1e                	jne    1b45a <func_94+0x3ff6>
   1b43c:	8b 05 52 8d 00 00    	mov    0x8d52(%rip),%eax        # 24194 <g_133>
   1b442:	83 c0 01             	add    $0x1,%eax
   1b445:	89 05 49 8d 00 00    	mov    %eax,0x8d49(%rip)        # 24194 <g_133>
   1b44b:	8b 05 43 8d 00 00    	mov    0x8d43(%rip),%eax        # 24194 <g_133>
   1b451:	83 f8 12             	cmp    $0x12,%eax
   1b454:	0f 8e 33 fe ff ff    	jle    1b28d <func_94+0x3e29>
   1b45a:	48 8b 05 bf bd 00 00 	mov    0xbdbf(%rip),%rax        # 27220 <g_13>
   1b461:	8b 00                	mov    (%rax),%eax
   1b463:	89 85 2c e6 ff ff    	mov    %eax,-0x19d4(%rbp)
   1b469:	8b 95 2c e6 ff ff    	mov    -0x19d4(%rbp),%edx
   1b46f:	48 8b 85 38 e8 ff ff 	mov    -0x17c8(%rbp),%rax
   1b476:	89 10                	mov    %edx,(%rax)
   1b478:	48 8b 15 e1 bd 00 00 	mov    0xbde1(%rip),%rdx        # 27260 <g_57>
   1b47f:	48 8b 05 da bd 00 00 	mov    0xbdda(%rip),%rax        # 27260 <g_57>
   1b486:	48 8b 12             	mov    (%rdx),%rdx
   1b489:	48 89 10             	mov    %rdx,(%rax)
   1b48c:	eb 1a                	jmp    1b4a8 <func_94+0x4044>
   1b48e:	48 8b 85 38 e8 ff ff 	mov    -0x17c8(%rbp),%rax
   1b495:	8b 10                	mov    (%rax),%edx
   1b497:	8b 85 2c e6 ff ff    	mov    -0x19d4(%rbp),%eax
   1b49d:	21 c2                	and    %eax,%edx
   1b49f:	48 8b 85 38 e8 ff ff 	mov    -0x17c8(%rbp),%rax
   1b4a6:	89 10                	mov    %edx,(%rax)
   1b4a8:	48 8d 05 99 d7 00 00 	lea    0xd799(%rip),%rax        # 28c48 <g_51>
   1b4af:	48 89 85 60 e8 ff ff 	mov    %rax,-0x17a0(%rbp)
   1b4b6:	e9 82 0a 00 00       	jmpq   1bf3d <func_94+0x4ad9>
   1b4bb:	48 c7 85 98 e9 ff ff 	movq   $0x1,-0x1668(%rbp)
   1b4c2:	01 00 00 00 
   1b4c6:	48 8b 85 38 e8 ff ff 	mov    -0x17c8(%rbp),%rax
   1b4cd:	8b 00                	mov    (%rax),%eax
   1b4cf:	48 98                	cltq   
   1b4d1:	48 21 85 98 e9 ff ff 	and    %rax,-0x1668(%rbp)
   1b4d8:	e9 60 0a 00 00       	jmpq   1bf3d <func_94+0x4ad9>
   1b4dd:	48 b8 e0 af 4d 49 5b 	movabs $0xfec92c5b494dafe0,%rax
   1b4e4:	2c c9 fe 
   1b4e7:	48 89 85 18 e8 ff ff 	mov    %rax,-0x17e8(%rbp)
   1b4ee:	c7 85 d4 e6 ff ff 0a 	movl   $0xa746f70a,-0x192c(%rbp)
   1b4f5:	f7 46 a7 
   1b4f8:	48 8d 05 91 c1 00 00 	lea    0xc191(%rip),%rax        # 27690 <g_915>
   1b4ff:	48 89 85 b0 f4 ff ff 	mov    %rax,-0xb50(%rbp)
   1b506:	48 8d 05 83 c1 00 00 	lea    0xc183(%rip),%rax        # 27690 <g_915>
   1b50d:	48 89 85 b8 f4 ff ff 	mov    %rax,-0xb48(%rbp)
   1b514:	48 8d 05 75 c1 00 00 	lea    0xc175(%rip),%rax        # 27690 <g_915>
   1b51b:	48 89 85 c0 f4 ff ff 	mov    %rax,-0xb40(%rbp)
   1b522:	48 8d 05 67 c1 00 00 	lea    0xc167(%rip),%rax        # 27690 <g_915>
   1b529:	48 89 85 c8 f4 ff ff 	mov    %rax,-0xb38(%rbp)
   1b530:	48 8d 05 59 c1 00 00 	lea    0xc159(%rip),%rax        # 27690 <g_915>
   1b537:	48 89 85 d0 f4 ff ff 	mov    %rax,-0xb30(%rbp)
   1b53e:	48 8d 05 4b c1 00 00 	lea    0xc14b(%rip),%rax        # 27690 <g_915>
   1b545:	48 89 85 d8 f4 ff ff 	mov    %rax,-0xb28(%rbp)
   1b54c:	48 8d 05 3d c1 00 00 	lea    0xc13d(%rip),%rax        # 27690 <g_915>
   1b553:	48 89 85 e0 f4 ff ff 	mov    %rax,-0xb20(%rbp)
   1b55a:	48 8d 05 2f c1 00 00 	lea    0xc12f(%rip),%rax        # 27690 <g_915>
   1b561:	48 89 85 e8 f4 ff ff 	mov    %rax,-0xb18(%rbp)
   1b568:	48 8d 05 21 c1 00 00 	lea    0xc121(%rip),%rax        # 27690 <g_915>
   1b56f:	48 89 85 f0 f4 ff ff 	mov    %rax,-0xb10(%rbp)
   1b576:	c7 85 d8 e6 ff ff 00 	movl   $0x0,-0x1928(%rbp)
   1b57d:	00 00 00 
   1b580:	66 c7 85 4a e6 ff ff 	movw   $0xffff,-0x19b6(%rbp)
   1b587:	ff ff 
   1b589:	48 c7 85 70 e8 ff ff 	movq   $0x0,-0x1790(%rbp)
   1b590:	00 00 00 00 
   1b594:	48 8d 05 3d c0 00 00 	lea    0xc03d(%rip),%rax        # 275d8 <g_371+0x18>
   1b59b:	48 89 85 e0 e7 ff ff 	mov    %rax,-0x1820(%rbp)
   1b5a2:	48 8d 85 e0 e7 ff ff 	lea    -0x1820(%rbp),%rax
   1b5a9:	48 89 85 e8 e7 ff ff 	mov    %rax,-0x1818(%rbp)
   1b5b0:	48 8d 85 e8 e7 ff ff 	lea    -0x1818(%rbp),%rax
   1b5b7:	48 89 85 78 e8 ff ff 	mov    %rax,-0x1788(%rbp)
   1b5be:	c7 85 c4 e6 ff ff 00 	movl   $0x0,-0x193c(%rbp)
   1b5c5:	00 00 00 
   1b5c8:	eb 1e                	jmp    1b5e8 <func_94+0x4184>
   1b5ca:	8b 85 c4 e6 ff ff    	mov    -0x193c(%rbp),%eax
   1b5d0:	48 98                	cltq   
   1b5d2:	48 8d 15 a7 bc 00 00 	lea    0xbca7(%rip),%rdx        # 27280 <g_138>
   1b5d9:	48 89 94 c5 f0 f2 ff 	mov    %rdx,-0xd10(%rbp,%rax,8)
   1b5e0:	ff 
   1b5e1:	83 85 c4 e6 ff ff 01 	addl   $0x1,-0x193c(%rbp)
   1b5e8:	83 bd c4 e6 ff ff 05 	cmpl   $0x5,-0x193c(%rbp)
   1b5ef:	7e d9                	jle    1b5ca <func_94+0x4166>
   1b5f1:	48 8b 05 88 bc 00 00 	mov    0xbc88(%rip),%rax        # 27280 <g_138>
   1b5f8:	c7 00 01 00 00 00    	movl   $0x1,(%rax)
   1b5fe:	c6 85 42 e6 ff ff 00 	movb   $0x0,-0x19be(%rbp)
   1b605:	80 bd 42 e6 ff ff 39 	cmpb   $0x39,-0x19be(%rbp)
   1b60c:	0f 86 d0 05 00 00    	jbe    1bbe2 <func_94+0x477e>
   1b612:	48 c7 85 f0 e7 ff ff 	movq   $0x0,-0x1810(%rbp)
   1b619:	00 00 00 00 
   1b61d:	c7 85 f0 e7 ff ff 6c 	movl   $0xfc30266c,-0x1810(%rbp)
   1b624:	26 30 fc 
   1b627:	c6 85 10 f8 ff ff fe 	movb   $0xfe,-0x7f0(%rbp)
   1b62e:	c6 85 11 f8 ff ff 0c 	movb   $0xc,-0x7ef(%rbp)
   1b635:	c6 85 12 f8 ff ff 08 	movb   $0x8,-0x7ee(%rbp)
   1b63c:	c6 85 13 f8 ff ff 0c 	movb   $0xc,-0x7ed(%rbp)
   1b643:	c6 85 14 f8 ff ff fe 	movb   $0xfe,-0x7ec(%rbp)
   1b64a:	c6 85 15 f8 ff ff 08 	movb   $0x8,-0x7eb(%rbp)
   1b651:	c6 85 16 f8 ff ff 29 	movb   $0x29,-0x7ea(%rbp)
   1b658:	c6 85 17 f8 ff ff 27 	movb   $0x27,-0x7e9(%rbp)
   1b65f:	c6 85 18 f8 ff ff cf 	movb   $0xcf,-0x7e8(%rbp)
   1b666:	c6 85 19 f8 ff ff d2 	movb   $0xd2,-0x7e7(%rbp)
   1b66d:	c6 85 1a f8 ff ff 27 	movb   $0x27,-0x7e6(%rbp)
   1b674:	c6 85 1b f8 ff ff d2 	movb   $0xd2,-0x7e5(%rbp)
   1b67b:	c6 85 1c f8 ff ff cf 	movb   $0xcf,-0x7e4(%rbp)
   1b682:	c6 85 1d f8 ff ff 27 	movb   $0x27,-0x7e3(%rbp)
   1b689:	c6 85 1e f8 ff ff f7 	movb   $0xf7,-0x7e2(%rbp)
   1b690:	c6 85 1f f8 ff ff 29 	movb   $0x29,-0x7e1(%rbp)
   1b697:	c6 85 20 f8 ff ff 71 	movb   $0x71,-0x7e0(%rbp)
   1b69e:	c6 85 21 f8 ff ff 2c 	movb   $0x2c,-0x7df(%rbp)
   1b6a5:	c6 85 22 f8 ff ff 29 	movb   $0x29,-0x7de(%rbp)
   1b6ac:	c6 85 23 f8 ff ff 2c 	movb   $0x2c,-0x7dd(%rbp)
   1b6b3:	c6 85 24 f8 ff ff 71 	movb   $0x71,-0x7dc(%rbp)
   1b6ba:	c6 85 25 f8 ff ff 27 	movb   $0x27,-0x7db(%rbp)
   1b6c1:	c6 85 26 f8 ff ff 27 	movb   $0x27,-0x7da(%rbp)
   1b6c8:	c6 85 27 f8 ff ff ff 	movb   $0xff,-0x7d9(%rbp)
   1b6cf:	c6 85 28 f8 ff ff 01 	movb   $0x1,-0x7d8(%rbp)
   1b6d6:	c6 85 29 f8 ff ff 05 	movb   $0x5,-0x7d7(%rbp)
   1b6dd:	c6 85 2a f8 ff ff ff 	movb   $0xff,-0x7d6(%rbp)
   1b6e4:	c6 85 2b f8 ff ff 05 	movb   $0x5,-0x7d5(%rbp)
   1b6eb:	c6 85 2c f8 ff ff fe 	movb   $0xfe,-0x7d4(%rbp)
   1b6f2:	c6 85 2d f8 ff ff 71 	movb   $0x71,-0x7d3(%rbp)
   1b6f9:	c6 85 2e f8 ff ff 71 	movb   $0x71,-0x7d2(%rbp)
   1b700:	c6 85 2f f8 ff ff fe 	movb   $0xfe,-0x7d1(%rbp)
   1b707:	c6 85 30 f8 ff ff 2c 	movb   $0x2c,-0x7d0(%rbp)
   1b70e:	c6 85 31 f8 ff ff f7 	movb   $0xf7,-0x7cf(%rbp)
   1b715:	c6 85 32 f8 ff ff fe 	movb   $0xfe,-0x7ce(%rbp)
   1b71c:	c6 85 33 f8 ff ff bb 	movb   $0xbb,-0x7cd(%rbp)
   1b723:	c6 85 34 f8 ff ff 05 	movb   $0x5,-0x7cc(%rbp)
   1b72a:	c6 85 35 f8 ff ff d2 	movb   $0xd2,-0x7cb(%rbp)
   1b731:	c6 85 36 f8 ff ff d2 	movb   $0xd2,-0x7ca(%rbp)
   1b738:	c6 85 37 f8 ff ff 05 	movb   $0x5,-0x7c9(%rbp)
   1b73f:	c6 85 38 f8 ff ff bb 	movb   $0xbb,-0x7c8(%rbp)
   1b746:	c6 85 39 f8 ff ff cf 	movb   $0xcf,-0x7c7(%rbp)
   1b74d:	c7 85 fc e6 ff ff 05 	movl   $0x5,-0x1904(%rbp)
   1b754:	00 00 00 
   1b757:	c7 85 00 e7 ff ff ff 	movl   $0xffffffff,-0x1900(%rbp)
   1b75e:	ff ff ff 
   1b761:	c7 85 04 e7 ff ff 72 	movl   $0xfcd1ca72,-0x18fc(%rbp)
   1b768:	ca d1 fc 
   1b76b:	c7 85 08 e7 ff ff 07 	movl   $0x7,-0x18f8(%rbp)
   1b772:	00 00 00 
   1b775:	c7 85 0c e7 ff ff ff 	movl   $0xffffffff,-0x18f4(%rbp)
   1b77c:	ff ff ff 
   1b77f:	c7 85 10 e7 ff ff ff 	movl   $0xffffffff,-0x18f0(%rbp)
   1b786:	ff ff ff 
   1b789:	48 c7 05 ec d7 00 00 	movq   $0x0,0xd7ec(%rip)        # 28f80 <g_210>
   1b790:	00 00 00 00 
   1b794:	e9 0e 04 00 00       	jmpq   1bba7 <func_94+0x4743>
   1b799:	48 8d 05 40 8c 00 00 	lea    0x8c40(%rip),%rax        # 243e0 <g_143>
   1b7a0:	48 89 85 f8 e7 ff ff 	mov    %rax,-0x1808(%rbp)
   1b7a7:	48 8d 85 f8 e7 ff ff 	lea    -0x1808(%rbp),%rax
   1b7ae:	48 89 85 00 e8 ff ff 	mov    %rax,-0x1800(%rbp)
   1b7b5:	48 8d 85 00 e8 ff ff 	lea    -0x1800(%rbp),%rax
   1b7bc:	48 89 85 b0 e8 ff ff 	mov    %rax,-0x1750(%rbp)
   1b7c3:	48 8d 05 2a 8c 00 00 	lea    0x8c2a(%rip),%rax        # 243f4 <g_286>
   1b7ca:	48 89 85 b8 e8 ff ff 	mov    %rax,-0x1748(%rbp)
   1b7d1:	48 8d 05 4c 89 00 00 	lea    0x894c(%rip),%rax        # 24124 <g_7>
   1b7d8:	48 89 85 08 e8 ff ff 	mov    %rax,-0x17f8(%rbp)
   1b7df:	c7 85 d8 e7 ff ff 00 	movl   $0x0,-0x1828(%rbp)
   1b7e6:	00 00 00 
   1b7e9:	48 c7 85 c0 e8 ff ff 	movq   $0x5,-0x1740(%rbp)
   1b7f0:	05 00 00 00 
   1b7f4:	c7 85 c8 e6 ff ff 00 	movl   $0x0,-0x1938(%rbp)
   1b7fb:	00 00 00 
   1b7fe:	eb 52                	jmp    1b852 <func_94+0x43ee>
   1b800:	c7 85 84 e6 ff ff 00 	movl   $0x0,-0x197c(%rbp)
   1b807:	00 00 00 
   1b80a:	eb 36                	jmp    1b842 <func_94+0x43de>
   1b80c:	8b 85 84 e6 ff ff    	mov    -0x197c(%rbp),%eax
   1b812:	48 63 c8             	movslq %eax,%rcx
   1b815:	8b 85 c8 e6 ff ff    	mov    -0x1938(%rbp),%eax
   1b81b:	48 63 d0             	movslq %eax,%rdx
   1b81e:	48 89 d0             	mov    %rdx,%rax
   1b821:	48 c1 e0 03          	shl    $0x3,%rax
   1b825:	48 01 d0             	add    %rdx,%rax
   1b828:	48 8d 5d d0          	lea    -0x30(%rbp),%rbx
   1b82c:	48 01 d8             	add    %rbx,%rax
   1b82f:	48 01 c8             	add    %rcx,%rax
   1b832:	48 2d f0 0f 00 00    	sub    $0xff0,%rax
   1b838:	c6 00 f9             	movb   $0xf9,(%rax)
   1b83b:	83 85 84 e6 ff ff 01 	addl   $0x1,-0x197c(%rbp)
   1b842:	83 bd 84 e6 ff ff 08 	cmpl   $0x8,-0x197c(%rbp)
   1b849:	7e c1                	jle    1b80c <func_94+0x43a8>
   1b84b:	83 85 c8 e6 ff ff 01 	addl   $0x1,-0x1938(%rbp)
   1b852:	83 bd c8 e6 ff ff 01 	cmpl   $0x1,-0x1938(%rbp)
   1b859:	7e a5                	jle    1b800 <func_94+0x439c>
   1b85b:	48 8b 05 9e bd 00 00 	mov    0xbd9e(%rip),%rax        # 27600 <g_501>
   1b862:	0f b6 00             	movzbl (%rax),%eax
   1b865:	0f be d8             	movsbl %al,%ebx
   1b868:	0f b6 85 e1 ef ff ff 	movzbl -0x101f(%rbp),%eax
   1b86f:	0f b6 c0             	movzbl %al,%eax
   1b872:	48 89 c6             	mov    %rax,%rsi
   1b875:	48 c7 c7 fe ff ff ff 	mov    $0xfffffffffffffffe,%rdi
   1b87c:	e8 2e 08 ff ff       	callq  c0af <safe_div_func_uint64_t_u_u>
   1b881:	0f b6 c0             	movzbl %al,%eax
   1b884:	be d4 00 00 00       	mov    $0xd4,%esi
   1b889:	89 c7                	mov    %eax,%edi
   1b88b:	e8 ca 02 ff ff       	callq  bb5a <safe_add_func_uint8_t_u_u>
   1b890:	44 0f b6 e0          	movzbl %al,%r12d
   1b894:	48 83 bd b0 e8 ff ff 	cmpq   $0x0,-0x1750(%rbp)
   1b89b:	00 
   1b89c:	0f 95 c0             	setne  %al
   1b89f:	0f b6 c8             	movzbl %al,%ecx
   1b8a2:	8b 95 2c e6 ff ff    	mov    -0x19d4(%rbp),%edx
   1b8a8:	48 8b 85 38 e8 ff ff 	mov    -0x17c8(%rbp),%rax
   1b8af:	89 10                	mov    %edx,(%rax)
   1b8b1:	48 8b 85 38 e8 ff ff 	mov    -0x17c8(%rbp),%rax
   1b8b8:	8b 00                	mov    (%rax),%eax
   1b8ba:	21 c1                	and    %eax,%ecx
   1b8bc:	89 ca                	mov    %ecx,%edx
   1b8be:	8b 05 40 88 00 00    	mov    0x8840(%rip),%eax        # 24104 <g_3+0x4>
   1b8c4:	83 f8 ff             	cmp    $0xffffffff,%eax
   1b8c7:	0f 9c c0             	setl   %al
   1b8ca:	0f b6 c0             	movzbl %al,%eax
   1b8cd:	39 c2                	cmp    %eax,%edx
   1b8cf:	0f 95 c0             	setne  %al
   1b8d2:	0f b6 c0             	movzbl %al,%eax
   1b8d5:	be 06 00 00 00       	mov    $0x6,%esi
   1b8da:	48 89 c7             	mov    %rax,%rdi
   1b8dd:	e8 cd 07 ff ff       	callq  c0af <safe_div_func_uint64_t_u_u>
   1b8e2:	48 8b 95 b8 e8 ff ff 	mov    -0x1748(%rbp),%rdx
   1b8e9:	0f b7 12             	movzwl (%rdx),%edx
   1b8ec:	31 d0                	xor    %edx,%eax
   1b8ee:	89 c2                	mov    %eax,%edx
   1b8f0:	48 8b 85 b8 e8 ff ff 	mov    -0x1748(%rbp),%rax
   1b8f7:	66 89 10             	mov    %dx,(%rax)
   1b8fa:	48 8b 85 b8 e8 ff ff 	mov    -0x1748(%rbp),%rax
   1b901:	0f b7 00             	movzwl (%rax),%eax
   1b904:	0f bf d0             	movswl %ax,%edx
   1b907:	8b 85 2c e6 ff ff    	mov    -0x19d4(%rbp),%eax
   1b90d:	31 c2                	xor    %eax,%edx
   1b90f:	48 8b 85 f8 e7 ff ff 	mov    -0x1808(%rbp),%rax
   1b916:	48 63 d2             	movslq %edx,%rdx
   1b919:	48 89 10             	mov    %rdx,(%rax)
   1b91c:	48 8b 00             	mov    (%rax),%rax
   1b91f:	4c 89 e2             	mov    %r12,%rdx
   1b922:	48 31 c2             	xor    %rax,%rdx
   1b925:	48 b8 27 b7 13 fc e1 	movabs $0x6d3aade1fc13b727,%rax
   1b92c:	ad 3a 6d 
   1b92f:	48 39 c2             	cmp    %rax,%rdx
   1b932:	0f 96 c0             	setbe  %al
   1b935:	0f b6 c0             	movzbl %al,%eax
   1b938:	89 de                	mov    %ebx,%esi
   1b93a:	89 c7                	mov    %eax,%edi
   1b93c:	e8 4c 03 ff ff       	callq  bc8d <safe_rshift_func_uint8_t_u_s>
   1b941:	c7 85 60 f1 ff ff cd 	movl   $0x22d0c1cd,-0xea0(%rbp)
   1b948:	c1 d0 22 
   1b94b:	c7 85 64 f1 ff ff cd 	movl   $0x22d0c1cd,-0xe9c(%rbp)
   1b952:	c1 d0 22 
   1b955:	c7 85 68 f1 ff ff 55 	movl   $0x59d76055,-0xe98(%rbp)
   1b95c:	60 d7 59 
   1b95f:	c7 85 6c f1 ff ff cd 	movl   $0x22d0c1cd,-0xe94(%rbp)
   1b966:	c1 d0 22 
   1b969:	c7 85 70 f1 ff ff cd 	movl   $0x22d0c1cd,-0xe90(%rbp)
   1b970:	c1 d0 22 
   1b973:	c7 85 74 f1 ff ff 55 	movl   $0x59d76055,-0xe8c(%rbp)
   1b97a:	60 d7 59 
   1b97d:	66 c7 85 f0 e7 ff ff 	movw   $0xffe4,-0x1810(%rbp)
   1b984:	e4 ff 
   1b986:	e9 71 01 00 00       	jmpq   1bafc <func_94+0x4698>
   1b98b:	48 8d 05 e6 bc 00 00 	lea    0xbce6(%rip),%rax        # 27678 <g_843+0x18>
   1b992:	48 89 85 c8 e8 ff ff 	mov    %rax,-0x1738(%rbp)
   1b999:	48 8d 85 70 ee ff ff 	lea    -0x1190(%rbp),%rax
   1b9a0:	48 83 c0 20          	add    $0x20,%rax
   1b9a4:	48 89 85 d0 e8 ff ff 	mov    %rax,-0x1730(%rbp)
   1b9ab:	48 8d 05 1e 8b 00 00 	lea    0x8b1e(%rip),%rax        # 244d0 <g_747>
   1b9b2:	48 89 85 d8 e8 ff ff 	mov    %rax,-0x1728(%rbp)
   1b9b9:	48 8d 85 d8 e7 ff ff 	lea    -0x1828(%rbp),%rax
   1b9c0:	48 89 85 e0 e8 ff ff 	mov    %rax,-0x1720(%rbp)
   1b9c7:	48 8b 85 38 e8 ff ff 	mov    -0x17c8(%rbp),%rax
   1b9ce:	8b 00                	mov    (%rax),%eax
   1b9d0:	0f bf d8             	movswl %ax,%ebx
   1b9d3:	48 8b 85 18 e8 ff ff 	mov    -0x17e8(%rbp),%rax
   1b9da:	44 0f be e0          	movsbl %al,%r12d
   1b9de:	48 8b 85 38 e8 ff ff 	mov    -0x17c8(%rbp),%rax
   1b9e5:	8b 10                	mov    (%rax),%edx
   1b9e7:	48 8b 05 82 b8 00 00 	mov    0xb882(%rip),%rax        # 27270 <g_116>
   1b9ee:	0f b6 00             	movzbl (%rax),%eax
   1b9f1:	0f be c0             	movsbl %al,%eax
   1b9f4:	89 d6                	mov    %edx,%esi
   1b9f6:	89 c7                	mov    %eax,%edi
   1b9f8:	e8 38 f9 fe ff       	callq  b335 <safe_rshift_func_int8_t_s_s>
   1b9fd:	8b 85 2c e6 ff ff    	mov    -0x19d4(%rbp),%eax
   1ba03:	0f bf d0             	movswl %ax,%edx
   1ba06:	48 8b 85 18 e8 ff ff 	mov    -0x17e8(%rbp),%rax
   1ba0d:	98                   	cwtl   
   1ba0e:	89 d6                	mov    %edx,%esi
   1ba10:	89 c7                	mov    %eax,%edi
   1ba12:	e8 9c f9 fe ff       	callq  b3b3 <safe_add_func_int16_t_s_s>
   1ba17:	0f bf d0             	movswl %ax,%edx
   1ba1a:	48 8b 85 c8 e8 ff ff 	mov    -0x1738(%rbp),%rax
   1ba21:	48 8d 8d 08 e8 ff ff 	lea    -0x17f8(%rbp),%rcx
   1ba28:	48 89 08             	mov    %rcx,(%rax)
   1ba2b:	48 8b 85 c8 e8 ff ff 	mov    -0x1738(%rbp),%rax
   1ba32:	48 8b 00             	mov    (%rax),%rax
   1ba35:	48 89 85 08 f3 ff ff 	mov    %rax,-0xcf8(%rbp)
   1ba3c:	48 8b 85 d0 e8 ff ff 	mov    -0x1730(%rbp),%rax
   1ba43:	c7 00 01 00 00 00    	movl   $0x1,(%rax)
   1ba49:	48 8b 85 d0 e8 ff ff 	mov    -0x1730(%rbp),%rax
   1ba50:	8b 00                	mov    (%rax),%eax
   1ba52:	89 d6                	mov    %edx,%esi
   1ba54:	89 c7                	mov    %eax,%edi
   1ba56:	e8 ca 04 ff ff       	callq  bf25 <safe_div_func_uint32_t_u_u>
   1ba5b:	0f be d0             	movsbl %al,%edx
   1ba5e:	8b 85 70 f1 ff ff    	mov    -0xe90(%rbp),%eax
   1ba64:	0f be c0             	movsbl %al,%eax
   1ba67:	89 d6                	mov    %edx,%esi
   1ba69:	89 c7                	mov    %eax,%edi
   1ba6b:	e8 a2 f7 fe ff       	callq  b212 <safe_mul_func_int8_t_s_s>
   1ba70:	0f be d0             	movsbl %al,%edx
   1ba73:	48 8b 85 38 e8 ff ff 	mov    -0x17c8(%rbp),%rax
   1ba7a:	8b 00                	mov    (%rax),%eax
   1ba7c:	39 c2                	cmp    %eax,%edx
   1ba7e:	0f 95 c0             	setne  %al
   1ba81:	0f b6 c0             	movzbl %al,%eax
   1ba84:	44 89 e6             	mov    %r12d,%esi
   1ba87:	89 c7                	mov    %eax,%edi
   1ba89:	e8 64 f7 fe ff       	callq  b1f2 <safe_sub_func_int8_t_s_s>
   1ba8e:	48 0f be c0          	movsbq %al,%rax
   1ba92:	48 be 27 e5 a9 99 35 	movabs $0x87550d3599a9e527,%rsi
   1ba99:	0d 55 87 
   1ba9c:	48 89 c7             	mov    %rax,%rdi
   1ba9f:	e8 10 ff fe ff       	callq  b9b4 <safe_mod_func_int64_t_s_s>
   1baa4:	98                   	cwtl   
   1baa5:	89 de                	mov    %ebx,%esi
   1baa7:	89 c7                	mov    %eax,%edi
   1baa9:	e8 47 f9 fe ff       	callq  b3f5 <safe_mul_func_int16_t_s_s>
   1baae:	ba 01 00 00 00       	mov    $0x1,%edx
   1bab3:	48 8b 85 d8 e8 ff ff 	mov    -0x1728(%rbp),%rax
   1baba:	8b 00                	mov    (%rax),%eax
   1babc:	21 c2                	and    %eax,%edx
   1babe:	48 8b 85 d8 e8 ff ff 	mov    -0x1728(%rbp),%rax
   1bac5:	89 10                	mov    %edx,(%rax)
   1bac7:	8b 85 2c e6 ff ff    	mov    -0x19d4(%rbp),%eax
   1bacd:	48 98                	cltq   
   1bacf:	25 5a d6 00 00       	and    $0xd65a,%eax
   1bad4:	48 89 c2             	mov    %rax,%rdx
   1bad7:	48 8b 85 e0 e8 ff ff 	mov    -0x1720(%rbp),%rax
   1bade:	8b 00                	mov    (%rax),%eax
   1bae0:	31 c2                	xor    %eax,%edx
   1bae2:	48 8b 85 e0 e8 ff ff 	mov    -0x1720(%rbp),%rax
   1bae9:	89 10                	mov    %edx,(%rax)
   1baeb:	0f b7 85 f0 e7 ff ff 	movzwl -0x1810(%rbp),%eax
   1baf2:	83 c0 01             	add    $0x1,%eax
   1baf5:	66 89 85 f0 e7 ff ff 	mov    %ax,-0x1810(%rbp)
   1bafc:	0f b7 85 f0 e7 ff ff 	movzwl -0x1810(%rbp),%eax
   1bb03:	66 83 f8 13          	cmp    $0x13,%ax
   1bb07:	0f 86 7e fe ff ff    	jbe    1b98b <func_94+0x4527>
   1bb0d:	66 c7 85 f0 e7 ff ff 	movw   $0x0,-0x1810(%rbp)
   1bb14:	00 00 
   1bb16:	eb 70                	jmp    1bb88 <func_94+0x4724>
   1bb18:	48 c7 85 18 e8 ff ff 	movq   $0x0,-0x17e8(%rbp)
   1bb1f:	00 00 00 00 
   1bb23:	eb 48                	jmp    1bb6d <func_94+0x4709>
   1bb25:	c6 85 d0 e7 ff ff b3 	movb   $0xb3,-0x1830(%rbp)
   1bb2c:	0f b7 85 f0 e7 ff ff 	movzwl -0x1810(%rbp),%eax
   1bb33:	0f b7 c0             	movzwl %ax,%eax
   1bb36:	48 63 d0             	movslq %eax,%rdx
   1bb39:	48 89 d0             	mov    %rdx,%rax
   1bb3c:	48 c1 e0 03          	shl    $0x3,%rax
   1bb40:	48 29 d0             	sub    %rdx,%rax
   1bb43:	48 8d 5d d0          	lea    -0x30(%rbp),%rbx
   1bb47:	48 8d 14 03          	lea    (%rbx,%rax,1),%rdx
   1bb4b:	48 8b 85 18 e8 ff ff 	mov    -0x17e8(%rbp),%rax
   1bb52:	48 01 d0             	add    %rdx,%rax
   1bb55:	48 8d 90 40 f8 ff ff 	lea    -0x7c0(%rax),%rdx
   1bb5c:	0f b6 85 d0 e7 ff ff 	movzbl -0x1830(%rbp),%eax
   1bb63:	88 02                	mov    %al,(%rdx)
   1bb65:	48 83 85 18 e8 ff ff 	addq   $0x1,-0x17e8(%rbp)
   1bb6c:	01 
   1bb6d:	48 83 bd 18 e8 ff ff 	cmpq   $0x6,-0x17e8(%rbp)
   1bb74:	06 
   1bb75:	76 ae                	jbe    1bb25 <func_94+0x46c1>
   1bb77:	0f b7 85 f0 e7 ff ff 	movzwl -0x1810(%rbp),%eax
   1bb7e:	83 c0 01             	add    $0x1,%eax
   1bb81:	66 89 85 f0 e7 ff ff 	mov    %ax,-0x1810(%rbp)
   1bb88:	0f b7 85 f0 e7 ff ff 	movzwl -0x1810(%rbp),%eax
   1bb8f:	66 83 f8 05          	cmp    $0x5,%ax
   1bb93:	76 83                	jbe    1bb18 <func_94+0x46b4>
   1bb95:	48 8b 05 e4 d3 00 00 	mov    0xd3e4(%rip),%rax        # 28f80 <g_210>
   1bb9c:	48 83 c0 01          	add    $0x1,%rax
   1bba0:	48 89 05 d9 d3 00 00 	mov    %rax,0xd3d9(%rip)        # 28f80 <g_210>
   1bba7:	48 8b 05 d2 d3 00 00 	mov    0xd3d2(%rip),%rax        # 28f80 <g_210>
   1bbae:	48 83 f8 1b          	cmp    $0x1b,%rax
   1bbb2:	0f 8f e1 fb ff ff    	jg     1b799 <func_94+0x4335>
   1bbb8:	0f b6 05 15 89 00 00 	movzbl 0x8915(%rip),%eax        # 244d4 <g_892>
   1bbbf:	83 e8 01             	sub    $0x1,%eax
   1bbc2:	88 05 0c 89 00 00    	mov    %al,0x890c(%rip)        # 244d4 <g_892>
   1bbc8:	48 8d 85 2c e6 ff ff 	lea    -0x19d4(%rbp),%rax
   1bbcf:	48 89 85 38 e8 ff ff 	mov    %rax,-0x17c8(%rbp)
   1bbd6:	0f b6 85 10 ea ff ff 	movzbl -0x15f0(%rbp),%eax
   1bbdd:	e9 62 03 00 00       	jmpq   1bf44 <func_94+0x4ae0>
   1bbe2:	48 8b 85 38 e8 ff ff 	mov    -0x17c8(%rbp),%rax
   1bbe9:	8b 00                	mov    (%rax),%eax
   1bbeb:	85 c0                	test   %eax,%eax
   1bbed:	0f 84 bc 01 00 00    	je     1bdaf <func_94+0x494b>
   1bbf3:	48 c7 85 98 e8 ff ff 	movq   $0x0,-0x1768(%rbp)
   1bbfa:	00 00 00 00 
   1bbfe:	c7 85 e8 e6 ff ff ee 	movl   $0xdc84aee,-0x1918(%rbp)
   1bc05:	4a c8 0d 
   1bc08:	c7 85 ec e6 ff ff 6a 	movl   $0xc629aa6a,-0x1914(%rbp)
   1bc0f:	aa 29 c6 
   1bc12:	c7 85 60 f1 ff ff 82 	movl   $0x2dd3b182,-0xea0(%rbp)
   1bc19:	b1 d3 2d 
   1bc1c:	c7 85 64 f1 ff ff 82 	movl   $0x2dd3b182,-0xe9c(%rbp)
   1bc23:	b1 d3 2d 
   1bc26:	c7 85 68 f1 ff ff 82 	movl   $0x2dd3b182,-0xe98(%rbp)
   1bc2d:	b1 d3 2d 
   1bc30:	c7 85 6c f1 ff ff 82 	movl   $0x2dd3b182,-0xe94(%rbp)
   1bc37:	b1 d3 2d 
   1bc3a:	c7 85 70 f1 ff ff 82 	movl   $0x2dd3b182,-0xe90(%rbp)
   1bc41:	b1 d3 2d 
   1bc44:	c7 85 74 f1 ff ff 82 	movl   $0x2dd3b182,-0xe8c(%rbp)
   1bc4b:	b1 d3 2d 
   1bc4e:	c7 85 78 f1 ff ff 82 	movl   $0x2dd3b182,-0xe88(%rbp)
   1bc55:	b1 d3 2d 
   1bc58:	c7 85 7c f1 ff ff 82 	movl   $0x2dd3b182,-0xe84(%rbp)
   1bc5f:	b1 d3 2d 
   1bc62:	c7 85 80 f1 ff ff 82 	movl   $0x2dd3b182,-0xe80(%rbp)
   1bc69:	b1 d3 2d 
   1bc6c:	c7 85 84 f1 ff ff 82 	movl   $0x2dd3b182,-0xe7c(%rbp)
   1bc73:	b1 d3 2d 
   1bc76:	66 c7 85 4c e6 ff ff 	movw   $0xd2bb,-0x19b4(%rbp)
   1bc7d:	bb d2 
   1bc7f:	c7 85 f0 e6 ff ff 01 	movl   $0x1,-0x1910(%rbp)
   1bc86:	00 00 00 
   1bc89:	48 c7 85 08 e8 ff ff 	movq   $0x0,-0x17f8(%rbp)
   1bc90:	00 00 00 00 
   1bc94:	c7 85 08 e8 ff ff 01 	movl   $0x1,-0x17f8(%rbp)
   1bc9b:	00 00 00 
   1bc9e:	c7 85 f4 e6 ff ff ff 	movl   $0xffffffff,-0x190c(%rbp)
   1bca5:	ff ff ff 
   1bca8:	48 8d 85 2c e6 ff ff 	lea    -0x19d4(%rbp),%rax
   1bcaf:	48 89 85 98 e8 ff ff 	mov    %rax,-0x1768(%rbp)
   1bcb6:	48 8b 85 98 e8 ff ff 	mov    -0x1768(%rbp),%rax
   1bcbd:	8b 00                	mov    (%rax),%eax
   1bcbf:	35 ee 74 11 55       	xor    $0x551174ee,%eax
   1bcc4:	89 c2                	mov    %eax,%edx
   1bcc6:	48 8b 85 98 e8 ff ff 	mov    -0x1768(%rbp),%rax
   1bccd:	89 10                	mov    %edx,(%rax)
   1bccf:	48 c7 05 a6 d2 00 00 	movq   $0x0,0xd2a6(%rip)        # 28f80 <g_210>
   1bcd6:	00 00 00 00 
   1bcda:	e9 b3 00 00 00       	jmpq   1bd92 <func_94+0x492e>
   1bcdf:	48 8d 85 10 f8 ff ff 	lea    -0x7f0(%rbp),%rax
   1bce6:	48 8d 15 f3 4c 00 00 	lea    0x4cf3(%rip),%rdx        # 209e0 <g_985+0x197c>
   1bced:	b9 6c 00 00 00       	mov    $0x6c,%ecx
   1bcf2:	48 89 c7             	mov    %rax,%rdi
   1bcf5:	48 89 d6             	mov    %rdx,%rsi
   1bcf8:	f3 48 a5             	rep movsq %ds:(%rsi),%es:(%rdi)
   1bcfb:	48 c7 85 a0 e8 ff ff 	movq   $0x0,-0x1760(%rbp)
   1bd02:	00 00 00 00 
   1bd06:	c7 85 f8 e6 ff ff fd 	movl   $0xfffffffd,-0x1908(%rbp)
   1bd0d:	ff ff ff 
   1bd10:	48 8d 05 0d 84 00 00 	lea    0x840d(%rip),%rax        # 24124 <g_7>
   1bd17:	48 89 85 a8 e8 ff ff 	mov    %rax,-0x1758(%rbp)
   1bd1e:	c7 85 60 e6 ff ff 00 	movl   $0x0,-0x19a0(%rbp)
   1bd25:	00 00 00 
   1bd28:	eb 2e                	jmp    1bd58 <func_94+0x48f4>
   1bd2a:	8b 85 60 e6 ff ff    	mov    -0x19a0(%rbp),%eax
   1bd30:	48 98                	cltq   
   1bd32:	48 8d 14 c5 00 00 00 	lea    0x0(,%rax,8),%rdx
   1bd39:	00 
   1bd3a:	48 8d 05 1f 87 00 00 	lea    0x871f(%rip),%rax        # 24460 <g_569>
   1bd41:	48 c7 04 02 ff ff ff 	movq   $0xffffffffffffffff,(%rdx,%rax,1)
   1bd48:	ff 
   1bd49:	8b 85 60 e6 ff ff    	mov    -0x19a0(%rbp),%eax
   1bd4f:	83 c0 01             	add    $0x1,%eax
   1bd52:	89 85 60 e6 ff ff    	mov    %eax,-0x19a0(%rbp)
   1bd58:	8b 85 60 e6 ff ff    	mov    -0x19a0(%rbp),%eax
   1bd5e:	83 f8 04             	cmp    $0x4,%eax
   1bd61:	7e c7                	jle    1bd2a <func_94+0x48c6>
   1bd63:	8b 85 08 fa ff ff    	mov    -0x5f8(%rbp),%eax
   1bd69:	83 e8 01             	sub    $0x1,%eax
   1bd6c:	89 85 08 fa ff ff    	mov    %eax,-0x5f8(%rbp)
   1bd72:	48 8b 05 07 d2 00 00 	mov    0xd207(%rip),%rax        # 28f80 <g_210>
   1bd79:	0f b6 c0             	movzbl %al,%eax
   1bd7c:	be 01 00 00 00       	mov    $0x1,%esi
   1bd81:	89 c7                	mov    %eax,%edi
   1bd83:	e8 f0 fd fe ff       	callq  bb78 <safe_sub_func_uint8_t_u_u>
   1bd88:	0f b6 c0             	movzbl %al,%eax
   1bd8b:	48 89 05 ee d1 00 00 	mov    %rax,0xd1ee(%rip)        # 28f80 <g_210>
   1bd92:	48 8b 05 e7 d1 00 00 	mov    0xd1e7(%rip),%rax        # 28f80 <g_210>
   1bd99:	48 83 f8 f3          	cmp    $0xfffffffffffffff3,%rax
   1bd9d:	0f 84 3c ff ff ff    	je     1bcdf <func_94+0x487b>
   1bda3:	83 85 f4 e6 ff ff 01 	addl   $0x1,-0x190c(%rbp)
   1bdaa:	e9 8e 01 00 00       	jmpq   1bf3d <func_94+0x4ad9>
   1bdaf:	48 8d 85 a8 e7 ff ff 	lea    -0x1858(%rbp),%rax
   1bdb6:	48 89 85 08 e8 ff ff 	mov    %rax,-0x17f8(%rbp)
   1bdbd:	48 8d 85 08 e8 ff ff 	lea    -0x17f8(%rbp),%rax
   1bdc4:	48 89 85 80 e8 ff ff 	mov    %rax,-0x1780(%rbp)
   1bdcb:	c7 85 dc e6 ff ff 01 	movl   $0x1,-0x1924(%rbp)
   1bdd2:	00 00 00 
   1bdd5:	c7 85 e0 e6 ff ff f9 	movl   $0xfffffff9,-0x1920(%rbp)
   1bddc:	ff ff ff 
   1bddf:	c7 85 e4 e6 ff ff 03 	movl   $0x3,-0x191c(%rbp)
   1bde6:	00 00 00 
   1bde9:	48 c7 85 88 e8 ff ff 	movq   $0x0,-0x1778(%rbp)
   1bdf0:	00 00 00 00 
   1bdf4:	48 8d 85 00 ed ff ff 	lea    -0x1300(%rbp),%rax
   1bdfb:	48 05 10 01 00 00    	add    $0x110,%rax
   1be01:	48 89 85 90 e8 ff ff 	mov    %rax,-0x1770(%rbp)
   1be08:	48 8b 05 51 b4 00 00 	mov    0xb451(%rip),%rax        # 27260 <g_57>
   1be0f:	48 8b 00             	mov    (%rax),%rax
   1be12:	48 89 85 70 e8 ff ff 	mov    %rax,-0x1790(%rbp)
   1be19:	8b 85 2c e6 ff ff    	mov    -0x19d4(%rbp),%eax
   1be1f:	39 85 dc e6 ff ff    	cmp    %eax,-0x1924(%rbp)
   1be25:	0f 96 c0             	setbe  %al
   1be28:	0f b6 c0             	movzbl %al,%eax
   1be2b:	be 03 00 00 00       	mov    $0x3,%esi
   1be30:	89 c7                	mov    %eax,%edi
   1be32:	e8 87 fe fe ff       	callq  bcbe <safe_rshift_func_uint8_t_u_u>
   1be37:	0f b6 c0             	movzbl %al,%eax
   1be3a:	89 85 e0 e6 ff ff    	mov    %eax,-0x1920(%rbp)
   1be40:	8b 85 e0 e6 ff ff    	mov    -0x1920(%rbp),%eax
   1be46:	48 63 c8             	movslq %eax,%rcx
   1be49:	8b 95 2c e6 ff ff    	mov    -0x19d4(%rbp),%edx
   1be4f:	48 8b 85 e8 e7 ff ff 	mov    -0x1818(%rbp),%rax
   1be56:	48 8b 00             	mov    (%rax),%rax
   1be59:	48 8b 00             	mov    (%rax),%rax
   1be5c:	48 63 d2             	movslq %edx,%rdx
   1be5f:	48 89 10             	mov    %rdx,(%rax)
   1be62:	48 8b 00             	mov    (%rax),%rax
   1be65:	48 39 c1             	cmp    %rax,%rcx
   1be68:	0f 9c c0             	setl   %al
   1be6b:	0f b6 c0             	movzbl %al,%eax
   1be6e:	39 85 dc e6 ff ff    	cmp    %eax,-0x1924(%rbp)
   1be74:	0f 94 c0             	sete   %al
   1be77:	0f b6 d0             	movzbl %al,%edx
   1be7a:	8b 85 2c e6 ff ff    	mov    -0x19d4(%rbp),%eax
   1be80:	39 c2                	cmp    %eax,%edx
   1be82:	75 08                	jne    1be8c <func_94+0x4a28>
   1be84:	8b 85 2c e6 ff ff    	mov    -0x19d4(%rbp),%eax
   1be8a:	85 c0                	test   %eax,%eax
   1be8c:	48 8b 85 38 e8 ff ff 	mov    -0x17c8(%rbp),%rax
   1be93:	8b 10                	mov    (%rax),%edx
   1be95:	48 8b 05 84 b3 00 00 	mov    0xb384(%rip),%rax        # 27220 <g_13>
   1be9c:	8b 08                	mov    (%rax),%ecx
   1be9e:	8b 85 2c e6 ff ff    	mov    -0x19d4(%rbp),%eax
   1bea4:	21 c8                	and    %ecx,%eax
   1bea6:	39 c2                	cmp    %eax,%edx
   1bea8:	0f 9d c0             	setge  %al
   1beab:	0f b6 c0             	movzbl %al,%eax
   1beae:	be 5c 73 00 00       	mov    $0x735c,%esi
   1beb3:	89 c7                	mov    %eax,%edi
   1beb5:	e8 5c f5 fe ff       	callq  b416 <safe_mod_func_int16_t_s_s>
   1beba:	0f bf d0             	movswl %ax,%edx
   1bebd:	48 8b 8d 08 e8 ff ff 	mov    -0x17f8(%rbp),%rcx
   1bec4:	48 8b 85 80 e8 ff ff 	mov    -0x1780(%rbp),%rax
   1becb:	48 89 08             	mov    %rcx,(%rax)
   1bece:	48 8b 85 80 e8 ff ff 	mov    -0x1780(%rbp),%rax
   1bed5:	48 8b 00             	mov    (%rax),%rax
   1bed8:	48 39 85 78 e8 ff ff 	cmp    %rax,-0x1788(%rbp)
   1bedf:	0f 94 c0             	sete   %al
   1bee2:	0f b6 c0             	movzbl %al,%eax
   1bee5:	89 d6                	mov    %edx,%esi
   1bee7:	89 c7                	mov    %eax,%edi
   1bee9:	e8 c5 f4 fe ff       	callq  b3b3 <safe_add_func_int16_t_s_s>
   1beee:	0f bf d0             	movswl %ax,%edx
   1bef1:	8b 05 f1 84 00 00    	mov    0x84f1(%rip),%eax        # 243e8 <g_147>
   1bef7:	39 c2                	cmp    %eax,%edx
   1bef9:	77 12                	ja     1bf0d <func_94+0x4aa9>
   1befb:	0f b6 05 f5 84 00 00 	movzbl 0x84f5(%rip),%eax        # 243f7 <g_336>
   1bf02:	84 c0                	test   %al,%al
   1bf04:	74 07                	je     1bf0d <func_94+0x4aa9>
   1bf06:	ba 01 00 00 00       	mov    $0x1,%edx
   1bf0b:	eb 05                	jmp    1bf12 <func_94+0x4aae>
   1bf0d:	ba 00 00 00 00       	mov    $0x0,%edx
   1bf12:	8b 85 2c e6 ff ff    	mov    -0x19d4(%rbp),%eax
   1bf18:	31 d0                	xor    %edx,%eax
   1bf1a:	39 85 e4 e6 ff ff    	cmp    %eax,-0x191c(%rbp)
   1bf20:	0f 95 c0             	setne  %al
   1bf23:	0f b6 c0             	movzbl %al,%eax
   1bf26:	48 98                	cltq   
   1bf28:	48 31 85 88 e8 ff ff 	xor    %rax,-0x1778(%rbp)
   1bf2f:	48 8d 85 2c e6 ff ff 	lea    -0x19d4(%rbp),%rax
   1bf36:	48 89 85 90 e8 ff ff 	mov    %rax,-0x1770(%rbp)
   1bf3d:	0f b6 85 10 ea ff ff 	movzbl -0x15f0(%rbp),%eax
   1bf44:	48 8b 5d c8          	mov    -0x38(%rbp),%rbx
   1bf48:	64 48 33 1c 25 28 00 	xor    %fs:0x28,%rbx
   1bf4f:	00 00 
   1bf51:	74 05                	je     1bf58 <func_94+0x4af4>
   1bf53:	e8 18 f1 fe ff       	callq  b070 <__stack_chk_fail@plt>
   1bf58:	48 81 c4 b8 19 00 00 	add    $0x19b8,%rsp
   1bf5f:	5b                   	pop    %rbx
   1bf60:	41 5c                	pop    %r12
   1bf62:	41 5d                	pop    %r13
   1bf64:	41 5e                	pop    %r14
   1bf66:	41 5f                	pop    %r15
   1bf68:	5d                   	pop    %rbp
   1bf69:	c3                   	retq   

000000000001bf6a <func_97>:
   1bf6a:	f3 0f 1e fa          	endbr64 
   1bf6e:	55                   	push   %rbp
   1bf6f:	48 89 e5             	mov    %rsp,%rbp
   1bf72:	41 57                	push   %r15
   1bf74:	41 56                	push   %r14
   1bf76:	41 55                	push   %r13
   1bf78:	41 54                	push   %r12
   1bf7a:	53                   	push   %rbx
   1bf7b:	48 81 ec b8 04 00 00 	sub    $0x4b8,%rsp
   1bf82:	89 bd 2c fb ff ff    	mov    %edi,-0x4d4(%rbp)
   1bf88:	64 48 8b 04 25 28 00 	mov    %fs:0x28,%rax
   1bf8f:	00 00 
   1bf91:	48 89 45 c8          	mov    %rax,-0x38(%rbp)
   1bf95:	31 c0                	xor    %eax,%eax
   1bf97:	48 8d 05 6a 81 00 00 	lea    0x816a(%rip),%rax        # 24108 <g_3+0x8>
   1bf9e:	48 89 85 10 fd ff ff 	mov    %rax,-0x2f0(%rbp)
   1bfa5:	48 8d 05 78 81 00 00 	lea    0x8178(%rip),%rax        # 24124 <g_7>
   1bfac:	48 89 85 18 fd ff ff 	mov    %rax,-0x2e8(%rbp)
   1bfb3:	48 8d 05 6a 81 00 00 	lea    0x816a(%rip),%rax        # 24124 <g_7>
   1bfba:	48 89 85 20 fd ff ff 	mov    %rax,-0x2e0(%rbp)
   1bfc1:	48 8d 05 40 81 00 00 	lea    0x8140(%rip),%rax        # 24108 <g_3+0x8>
   1bfc8:	48 89 85 28 fd ff ff 	mov    %rax,-0x2d8(%rbp)
   1bfcf:	48 8d 05 4e 81 00 00 	lea    0x814e(%rip),%rax        # 24124 <g_7>
   1bfd6:	48 89 85 30 fd ff ff 	mov    %rax,-0x2d0(%rbp)
   1bfdd:	48 8d 05 40 81 00 00 	lea    0x8140(%rip),%rax        # 24124 <g_7>
   1bfe4:	48 89 85 38 fd ff ff 	mov    %rax,-0x2c8(%rbp)
   1bfeb:	8b 85 3c fb ff ff    	mov    -0x4c4(%rbp),%eax
   1bff1:	25 00 00 f0 ff       	and    $0xfff00000,%eax
   1bff6:	0d 40 40 0d 00       	or     $0xd4040,%eax
   1bffb:	89 85 3c fb ff ff    	mov    %eax,-0x4c4(%rbp)
   1c001:	48 8d 05 e4 83 00 00 	lea    0x83e4(%rip),%rax        # 243ec <g_161>
   1c008:	48 89 85 c8 fb ff ff 	mov    %rax,-0x438(%rbp)
   1c00f:	48 c7 85 a8 fb ff ff 	movq   $0x0,-0x458(%rbp)
   1c016:	00 00 00 00 
   1c01a:	48 8d 85 a8 fb ff ff 	lea    -0x458(%rbp),%rax
   1c021:	48 89 85 b0 fb ff ff 	mov    %rax,-0x450(%rbp)
   1c028:	c6 85 34 fb ff ff 01 	movb   $0x1,-0x4cc(%rbp)
   1c02f:	48 8d 05 c2 ce 00 00 	lea    0xcec2(%rip),%rax        # 28ef8 <g_195+0x298>
   1c036:	48 89 85 b8 fb ff ff 	mov    %rax,-0x448(%rbp)
   1c03d:	48 b8 a7 99 cd 18 82 	movabs $0x2f03648218cd99a7,%rax
   1c044:	64 03 2f 
   1c047:	48 89 85 d0 fb ff ff 	mov    %rax,-0x430(%rbp)
   1c04e:	c7 05 e8 80 00 00 0d 	movl   $0xd,0x80e8(%rip)        # 24140 <g_74>
   1c055:	00 00 00 
   1c058:	e9 5c 01 00 00       	jmpq   1c1b9 <func_97+0x24f>
   1c05d:	66 c7 85 3a fb ff ff 	movw   $0xe940,-0x4c6(%rbp)
   1c064:	40 e9 
   1c066:	c7 85 a0 fb ff ff 01 	movl   $0x1,-0x460(%rbp)
   1c06d:	00 00 00 
   1c070:	48 8d 05 71 83 00 00 	lea    0x8371(%rip),%rax        # 243e8 <g_147>
   1c077:	48 89 85 78 fc ff ff 	mov    %rax,-0x388(%rbp)
   1c07e:	c7 85 a4 fb ff ff c0 	movl   $0xbac349c0,-0x45c(%rbp)
   1c085:	49 c3 ba 
   1c088:	c7 85 2c fb ff ff 00 	movl   $0x0,-0x4d4(%rbp)
   1c08f:	00 00 00 
   1c092:	e9 ca 00 00 00       	jmpq   1c161 <func_97+0x1f7>
   1c097:	48 c7 85 80 fc ff ff 	movq   $0x0,-0x380(%rbp)
   1c09e:	00 00 00 00 
   1c0a2:	48 8d 05 e9 80 00 00 	lea    0x80e9(%rip),%rax        # 24192 <g_129>
   1c0a9:	48 89 85 88 fc ff ff 	mov    %rax,-0x378(%rbp)
   1c0b0:	48 c7 85 90 fc ff ff 	movq   $0x0,-0x370(%rbp)
   1c0b7:	00 00 00 00 
   1c0bb:	48 8d 05 de 82 00 00 	lea    0x82de(%rip),%rax        # 243a0 <g_141+0x1a0>
   1c0c2:	48 89 85 98 fc ff ff 	mov    %rax,-0x368(%rbp)
   1c0c9:	48 8d 05 10 83 00 00 	lea    0x8310(%rip),%rax        # 243e0 <g_143>
   1c0d0:	48 89 85 a0 fc ff ff 	mov    %rax,-0x360(%rbp)
   1c0d7:	8b 05 3f 80 00 00    	mov    0x803f(%rip),%eax        # 2411c <g_3+0x1c>
   1c0dd:	89 c2                	mov    %eax,%edx
   1c0df:	48 8b 85 88 fc ff ff 	mov    -0x378(%rbp),%rax
   1c0e6:	66 89 10             	mov    %dx,(%rax)
   1c0e9:	48 8b 85 88 fc ff ff 	mov    -0x378(%rbp),%rax
   1c0f0:	0f b7 00             	movzwl (%rax),%eax
   1c0f3:	98                   	cwtl   
   1c0f4:	89 c6                	mov    %eax,%esi
   1c0f6:	bf 86 b2 ff ff       	mov    $0xffffb286,%edi
   1c0fb:	e8 b3 f2 fe ff       	callq  b3b3 <safe_add_func_int16_t_s_s>
   1c100:	48 0f bf d8          	movswq %ax,%rbx
   1c104:	0f b7 85 3a fb ff ff 	movzwl -0x4c6(%rbp),%eax
   1c10b:	89 c6                	mov    %eax,%esi
   1c10d:	bf 01 00 00 00       	mov    $0x1,%edi
   1c112:	e8 26 fc fe ff       	callq  bd3d <safe_mul_func_uint16_t_u_u>
   1c117:	0f b7 c0             	movzwl %ax,%eax
   1c11a:	48 21 d8             	and    %rbx,%rax
   1c11d:	83 e0 02             	and    $0x2,%eax
   1c120:	48 89 c2             	mov    %rax,%rdx
   1c123:	8b 85 2c fb ff ff    	mov    -0x4d4(%rbp),%eax
   1c129:	48 98                	cltq   
   1c12b:	48 39 c2             	cmp    %rax,%rdx
   1c12e:	0f 96 c0             	setbe  %al
   1c131:	0f b6 c0             	movzbl %al,%eax
   1c134:	89 85 a0 fb ff ff    	mov    %eax,-0x460(%rbp)
   1c13a:	48 8b 05 3f b1 00 00 	mov    0xb13f(%rip),%rax        # 27280 <g_138>
   1c141:	8b 00                	mov    (%rax),%eax
   1c143:	89 85 a0 fb ff ff    	mov    %eax,-0x460(%rbp)
   1c149:	8b 85 2c fb ff ff    	mov    -0x4d4(%rbp),%eax
   1c14f:	be 01 00 00 00       	mov    $0x1,%esi
   1c154:	89 c7                	mov    %eax,%edi
   1c156:	e8 5b f4 fe ff       	callq  b5b6 <safe_add_func_int32_t_s_s>
   1c15b:	89 85 2c fb ff ff    	mov    %eax,-0x4d4(%rbp)
   1c161:	83 bd 2c fb ff ff 04 	cmpl   $0x4,-0x4d4(%rbp)
   1c168:	0f 8f 29 ff ff ff    	jg     1c097 <func_97+0x12d>
   1c16e:	48 8b 85 78 fc ff ff 	mov    -0x388(%rbp),%rax
   1c175:	8b 00                	mov    (%rax),%eax
   1c177:	8d 50 ff             	lea    -0x1(%rax),%edx
   1c17a:	48 8b 85 78 fc ff ff 	mov    -0x388(%rbp),%rax
   1c181:	89 10                	mov    %edx,(%rax)
   1c183:	8b 85 2c fb ff ff    	mov    -0x4d4(%rbp),%eax
   1c189:	89 85 a0 fb ff ff    	mov    %eax,-0x460(%rbp)
   1c18f:	8b 85 a0 fb ff ff    	mov    -0x460(%rbp),%eax
   1c195:	89 85 a4 fb ff ff    	mov    %eax,-0x45c(%rbp)
   1c19b:	8b 05 9f 7f 00 00    	mov    0x7f9f(%rip),%eax        # 24140 <g_74>
   1c1a1:	0f be c0             	movsbl %al,%eax
   1c1a4:	be 07 00 00 00       	mov    $0x7,%esi
   1c1a9:	89 c7                	mov    %eax,%edi
   1c1ab:	e8 24 f0 fe ff       	callq  b1d4 <safe_add_func_int8_t_s_s>
   1c1b0:	0f be c0             	movsbl %al,%eax
   1c1b3:	89 05 87 7f 00 00    	mov    %eax,0x7f87(%rip)        # 24140 <g_74>
   1c1b9:	8b 05 81 7f 00 00    	mov    0x7f81(%rip),%eax        # 24140 <g_74>
   1c1bf:	83 f8 1c             	cmp    $0x1c,%eax
   1c1c2:	0f 87 95 fe ff ff    	ja     1c05d <func_97+0xf3>
   1c1c8:	48 8b 95 38 fd ff ff 	mov    -0x2c8(%rbp),%rdx
   1c1cf:	48 8b 85 20 fd ff ff 	mov    -0x2e0(%rbp),%rax
   1c1d6:	48 39 c2             	cmp    %rax,%rdx
   1c1d9:	0f 95 c0             	setne  %al
   1c1dc:	0f b6 c0             	movzbl %al,%eax
   1c1df:	39 85 2c fb ff ff    	cmp    %eax,-0x4d4(%rbp)
   1c1e5:	0f 9d c0             	setge  %al
   1c1e8:	0f b6 d0             	movzbl %al,%edx
   1c1eb:	8b 05 f7 81 00 00    	mov    0x81f7(%rip),%eax        # 243e8 <g_147>
   1c1f1:	0f b6 c0             	movzbl %al,%eax
   1c1f4:	89 d6                	mov    %edx,%esi
   1c1f6:	89 c7                	mov    %eax,%edi
   1c1f8:	e8 4f fa fe ff       	callq  bc4c <safe_lshift_func_uint8_t_u_u>
   1c1fd:	8b 85 2c fb ff ff    	mov    -0x4d4(%rbp),%eax
   1c203:	f7 d0                	not    %eax
   1c205:	c1 e8 1f             	shr    $0x1f,%eax
   1c208:	0f b6 d0             	movzbl %al,%edx
   1c20b:	0f b7 05 36 ca 00 00 	movzwl 0xca36(%rip),%eax        # 28c48 <g_51>
   1c212:	98                   	cwtl   
   1c213:	89 d6                	mov    %edx,%esi
   1c215:	89 c7                	mov    %eax,%edi
   1c217:	e8 0e f3 fe ff       	callq  b52a <safe_rshift_func_int16_t_s_s>
   1c21c:	66 83 f8 02          	cmp    $0x2,%ax
   1c220:	0f 9f c0             	setg   %al
   1c223:	89 c2                	mov    %eax,%edx
   1c225:	48 8b 85 c8 fb ff ff 	mov    -0x438(%rbp),%rax
   1c22c:	88 10                	mov    %dl,(%rax)
   1c22e:	be 02 00 00 00       	mov    $0x2,%esi
   1c233:	bf 01 00 00 00       	mov    $0x1,%edi
   1c238:	e8 26 f3 fe ff       	callq  b563 <safe_rshift_func_int16_t_s_u>
   1c23d:	98                   	cwtl   
   1c23e:	be 28 4c 05 8e       	mov    $0x8e054c28,%esi
   1c243:	89 c7                	mov    %eax,%edi
   1c245:	e8 bb f3 fe ff       	callq  b605 <safe_sub_func_int32_t_s_s>
   1c24a:	85 c0                	test   %eax,%eax
   1c24c:	0f 84 c8 14 00 00    	je     1d71a <func_97+0x17b0>
   1c252:	c6 85 35 fb ff ff 08 	movb   $0x8,-0x4cb(%rbp)
   1c259:	c6 85 af fc ff ff e4 	movb   $0xe4,-0x351(%rbp)
   1c260:	c7 85 40 fb ff ff cf 	movl   $0x55f120cf,-0x4c0(%rbp)
   1c267:	20 f1 55 
   1c26a:	c7 85 64 fb ff ff 7d 	movl   $0xcbac9f7d,-0x49c(%rbp)
   1c271:	9f ac cb 
   1c274:	c7 85 68 fb ff ff b8 	movl   $0x39c2c3b8,-0x498(%rbp)
   1c27b:	c3 c2 39 
   1c27e:	c7 85 6c fb ff ff fe 	movl   $0xfffffffe,-0x494(%rbp)
   1c285:	ff ff ff 
   1c288:	c7 85 44 fb ff ff 20 	movl   $0x98e07820,-0x4bc(%rbp)
   1c28f:	78 e0 98 
   1c292:	48 c7 85 e0 fb ff ff 	movq   $0x0,-0x420(%rbp)
   1c299:	00 00 00 00 
   1c29d:	c7 85 b0 fc ff ff 00 	movl   $0x0,-0x350(%rbp)
   1c2a4:	00 00 00 
   1c2a7:	c7 85 b4 fc ff ff 13 	movl   $0xcd63c013,-0x34c(%rbp)
   1c2ae:	c0 63 cd 
   1c2b1:	c7 85 b8 fc ff ff 13 	movl   $0xcd63c013,-0x348(%rbp)
   1c2b8:	c0 63 cd 
   1c2bb:	c7 85 bc fc ff ff 00 	movl   $0x0,-0x344(%rbp)
   1c2c2:	00 00 00 
   1c2c5:	c7 85 c0 fc ff ff 95 	movl   $0xb3691595,-0x340(%rbp)
   1c2cc:	15 69 b3 
   1c2cf:	c7 85 c4 fc ff ff 08 	movl   $0x8,-0x33c(%rbp)
   1c2d6:	00 00 00 
   1c2d9:	c7 85 c8 fc ff ff 00 	movl   $0x0,-0x338(%rbp)
   1c2e0:	00 00 00 
   1c2e3:	c7 85 cc fc ff ff 00 	movl   $0x0,-0x334(%rbp)
   1c2ea:	00 00 00 
   1c2ed:	c7 85 d0 fc ff ff 08 	movl   $0x8,-0x330(%rbp)
   1c2f4:	00 00 00 
   1c2f7:	c7 85 d4 fc ff ff 95 	movl   $0xb3691595,-0x32c(%rbp)
   1c2fe:	15 69 b3 
   1c301:	c7 05 dd 80 00 00 00 	movl   $0x0,0x80dd(%rip)        # 243e8 <g_147>
   1c308:	00 00 00 
   1c30b:	e9 54 0a 00 00       	jmpq   1cd64 <func_97+0xdfa>
   1c310:	48 8d 85 b0 fb ff ff 	lea    -0x450(%rbp),%rax
   1c317:	48 89 85 d0 fd ff ff 	mov    %rax,-0x230(%rbp)
   1c31e:	48 8d 85 b0 fb ff ff 	lea    -0x450(%rbp),%rax
   1c325:	48 89 85 d8 fd ff ff 	mov    %rax,-0x228(%rbp)
   1c32c:	48 8d 85 b0 fb ff ff 	lea    -0x450(%rbp),%rax
   1c333:	48 89 85 e0 fd ff ff 	mov    %rax,-0x220(%rbp)
   1c33a:	48 8d 85 b0 fb ff ff 	lea    -0x450(%rbp),%rax
   1c341:	48 89 85 e8 fd ff ff 	mov    %rax,-0x218(%rbp)
   1c348:	48 8d 85 b0 fb ff ff 	lea    -0x450(%rbp),%rax
   1c34f:	48 89 85 f0 fd ff ff 	mov    %rax,-0x210(%rbp)
   1c356:	48 8d 85 b0 fb ff ff 	lea    -0x450(%rbp),%rax
   1c35d:	48 89 85 f8 fd ff ff 	mov    %rax,-0x208(%rbp)
   1c364:	48 8d 85 b0 fb ff ff 	lea    -0x450(%rbp),%rax
   1c36b:	48 89 85 00 fe ff ff 	mov    %rax,-0x200(%rbp)
   1c372:	48 8d 85 b0 fb ff ff 	lea    -0x450(%rbp),%rax
   1c379:	48 89 85 08 fe ff ff 	mov    %rax,-0x1f8(%rbp)
   1c380:	48 c7 85 10 fe ff ff 	movq   $0x0,-0x1f0(%rbp)
   1c387:	00 00 00 00 
   1c38b:	48 c7 85 18 fe ff ff 	movq   $0x0,-0x1e8(%rbp)
   1c392:	00 00 00 00 
   1c396:	48 8d 85 b0 fb ff ff 	lea    -0x450(%rbp),%rax
   1c39d:	48 89 85 20 fe ff ff 	mov    %rax,-0x1e0(%rbp)
   1c3a4:	48 c7 85 28 fe ff ff 	movq   $0x0,-0x1d8(%rbp)
   1c3ab:	00 00 00 00 
   1c3af:	48 c7 85 30 fe ff ff 	movq   $0x0,-0x1d0(%rbp)
   1c3b6:	00 00 00 00 
   1c3ba:	48 8d 85 b0 fb ff ff 	lea    -0x450(%rbp),%rax
   1c3c1:	48 89 85 38 fe ff ff 	mov    %rax,-0x1c8(%rbp)
   1c3c8:	48 c7 85 40 fe ff ff 	movq   $0x0,-0x1c0(%rbp)
   1c3cf:	00 00 00 00 
   1c3d3:	48 8d 85 b0 fb ff ff 	lea    -0x450(%rbp),%rax
   1c3da:	48 89 85 48 fe ff ff 	mov    %rax,-0x1b8(%rbp)
   1c3e1:	48 c7 85 50 fe ff ff 	movq   $0x0,-0x1b0(%rbp)
   1c3e8:	00 00 00 00 
   1c3ec:	48 c7 85 58 fe ff ff 	movq   $0x0,-0x1a8(%rbp)
   1c3f3:	00 00 00 00 
   1c3f7:	48 8d 85 b0 fb ff ff 	lea    -0x450(%rbp),%rax
   1c3fe:	48 89 85 60 fe ff ff 	mov    %rax,-0x1a0(%rbp)
   1c405:	48 c7 85 68 fe ff ff 	movq   $0x0,-0x198(%rbp)
   1c40c:	00 00 00 00 
   1c410:	48 c7 85 70 fe ff ff 	movq   $0x0,-0x190(%rbp)
   1c417:	00 00 00 00 
   1c41b:	48 8d 85 b0 fb ff ff 	lea    -0x450(%rbp),%rax
   1c422:	48 89 85 78 fe ff ff 	mov    %rax,-0x188(%rbp)
   1c429:	48 8d 85 b0 fb ff ff 	lea    -0x450(%rbp),%rax
   1c430:	48 89 85 80 fe ff ff 	mov    %rax,-0x180(%rbp)
   1c437:	48 8d 85 b0 fb ff ff 	lea    -0x450(%rbp),%rax
   1c43e:	48 89 85 88 fe ff ff 	mov    %rax,-0x178(%rbp)
   1c445:	48 8d 85 b0 fb ff ff 	lea    -0x450(%rbp),%rax
   1c44c:	48 89 85 90 fe ff ff 	mov    %rax,-0x170(%rbp)
   1c453:	48 8d 85 b0 fb ff ff 	lea    -0x450(%rbp),%rax
   1c45a:	48 89 85 98 fe ff ff 	mov    %rax,-0x168(%rbp)
   1c461:	48 8d 85 b0 fb ff ff 	lea    -0x450(%rbp),%rax
   1c468:	48 89 85 a0 fe ff ff 	mov    %rax,-0x160(%rbp)
   1c46f:	48 8d 85 b0 fb ff ff 	lea    -0x450(%rbp),%rax
   1c476:	48 89 85 a8 fe ff ff 	mov    %rax,-0x158(%rbp)
   1c47d:	48 8d 85 b0 fb ff ff 	lea    -0x450(%rbp),%rax
   1c484:	48 89 85 b0 fe ff ff 	mov    %rax,-0x150(%rbp)
   1c48b:	48 c7 85 b8 fe ff ff 	movq   $0x0,-0x148(%rbp)
   1c492:	00 00 00 00 
   1c496:	48 c7 85 c0 fe ff ff 	movq   $0x0,-0x140(%rbp)
   1c49d:	00 00 00 00 
   1c4a1:	48 8d 85 b0 fb ff ff 	lea    -0x450(%rbp),%rax
   1c4a8:	48 89 85 c8 fe ff ff 	mov    %rax,-0x138(%rbp)
   1c4af:	48 c7 85 d0 fe ff ff 	movq   $0x0,-0x130(%rbp)
   1c4b6:	00 00 00 00 
   1c4ba:	48 c7 85 d8 fe ff ff 	movq   $0x0,-0x128(%rbp)
   1c4c1:	00 00 00 00 
   1c4c5:	48 8d 85 b0 fb ff ff 	lea    -0x450(%rbp),%rax
   1c4cc:	48 89 85 e0 fe ff ff 	mov    %rax,-0x120(%rbp)
   1c4d3:	48 c7 85 e8 fe ff ff 	movq   $0x0,-0x118(%rbp)
   1c4da:	00 00 00 00 
   1c4de:	48 8d 85 b0 fb ff ff 	lea    -0x450(%rbp),%rax
   1c4e5:	48 89 85 f0 fe ff ff 	mov    %rax,-0x110(%rbp)
   1c4ec:	48 c7 85 f8 fe ff ff 	movq   $0x0,-0x108(%rbp)
   1c4f3:	00 00 00 00 
   1c4f7:	48 c7 85 00 ff ff ff 	movq   $0x0,-0x100(%rbp)
   1c4fe:	00 00 00 00 
   1c502:	48 8d 85 b0 fb ff ff 	lea    -0x450(%rbp),%rax
   1c509:	48 89 85 08 ff ff ff 	mov    %rax,-0xf8(%rbp)
   1c510:	48 c7 85 10 ff ff ff 	movq   $0x0,-0xf0(%rbp)
   1c517:	00 00 00 00 
   1c51b:	48 c7 85 18 ff ff ff 	movq   $0x0,-0xe8(%rbp)
   1c522:	00 00 00 00 
   1c526:	48 8d 85 b0 fb ff ff 	lea    -0x450(%rbp),%rax
   1c52d:	48 89 85 20 ff ff ff 	mov    %rax,-0xe0(%rbp)
   1c534:	48 8d 85 b0 fb ff ff 	lea    -0x450(%rbp),%rax
   1c53b:	48 89 85 28 ff ff ff 	mov    %rax,-0xd8(%rbp)
   1c542:	48 8d 85 b0 fb ff ff 	lea    -0x450(%rbp),%rax
   1c549:	48 89 85 30 ff ff ff 	mov    %rax,-0xd0(%rbp)
   1c550:	48 8d 85 b0 fb ff ff 	lea    -0x450(%rbp),%rax
   1c557:	48 89 85 38 ff ff ff 	mov    %rax,-0xc8(%rbp)
   1c55e:	48 8d 85 b0 fb ff ff 	lea    -0x450(%rbp),%rax
   1c565:	48 89 85 40 ff ff ff 	mov    %rax,-0xc0(%rbp)
   1c56c:	48 8d 85 b0 fb ff ff 	lea    -0x450(%rbp),%rax
   1c573:	48 89 85 48 ff ff ff 	mov    %rax,-0xb8(%rbp)
   1c57a:	48 8d 85 b0 fb ff ff 	lea    -0x450(%rbp),%rax
   1c581:	48 89 85 50 ff ff ff 	mov    %rax,-0xb0(%rbp)
   1c588:	48 8d 85 b0 fb ff ff 	lea    -0x450(%rbp),%rax
   1c58f:	48 89 85 58 ff ff ff 	mov    %rax,-0xa8(%rbp)
   1c596:	48 c7 85 60 ff ff ff 	movq   $0x0,-0xa0(%rbp)
   1c59d:	00 00 00 00 
   1c5a1:	48 c7 85 68 ff ff ff 	movq   $0x0,-0x98(%rbp)
   1c5a8:	00 00 00 00 
   1c5ac:	48 8d 85 b0 fb ff ff 	lea    -0x450(%rbp),%rax
   1c5b3:	48 89 85 70 ff ff ff 	mov    %rax,-0x90(%rbp)
   1c5ba:	48 c7 85 78 ff ff ff 	movq   $0x0,-0x88(%rbp)
   1c5c1:	00 00 00 00 
   1c5c5:	48 c7 45 80 00 00 00 	movq   $0x0,-0x80(%rbp)
   1c5cc:	00 
   1c5cd:	48 8d 85 b0 fb ff ff 	lea    -0x450(%rbp),%rax
   1c5d4:	48 89 45 88          	mov    %rax,-0x78(%rbp)
   1c5d8:	48 c7 45 90 00 00 00 	movq   $0x0,-0x70(%rbp)
   1c5df:	00 
   1c5e0:	48 8d 85 b0 fb ff ff 	lea    -0x450(%rbp),%rax
   1c5e7:	48 89 45 98          	mov    %rax,-0x68(%rbp)
   1c5eb:	48 c7 45 a0 00 00 00 	movq   $0x0,-0x60(%rbp)
   1c5f2:	00 
   1c5f3:	48 c7 45 a8 00 00 00 	movq   $0x0,-0x58(%rbp)
   1c5fa:	00 
   1c5fb:	48 8d 85 b0 fb ff ff 	lea    -0x450(%rbp),%rax
   1c602:	48 89 45 b0          	mov    %rax,-0x50(%rbp)
   1c606:	48 c7 45 b8 00 00 00 	movq   $0x0,-0x48(%rbp)
   1c60d:	00 
   1c60e:	48 c7 45 c0 00 00 00 	movq   $0x0,-0x40(%rbp)
   1c615:	00 
   1c616:	c7 85 80 fb ff ff 71 	movl   $0x66566e71,-0x480(%rbp)
   1c61d:	6e 56 66 
   1c620:	c7 85 84 fb ff ff 79 	movl   $0xe2f62679,-0x47c(%rbp)
   1c627:	26 f6 e2 
   1c62a:	c7 85 88 fb ff ff d7 	movl   $0xb29ad9d7,-0x478(%rbp)
   1c631:	d9 9a b2 
   1c634:	c7 85 8c fb ff ff 01 	movl   $0x1,-0x474(%rbp)
   1c63b:	00 00 00 
   1c63e:	c7 85 90 fb ff ff f7 	movl   $0xfffffff7,-0x470(%rbp)
   1c645:	ff ff ff 
   1c648:	c7 85 94 fb ff ff a0 	movl   $0xf6ef4ea0,-0x46c(%rbp)
   1c64f:	4e ef f6 
   1c652:	c7 85 98 fb ff ff 08 	movl   $0x8,-0x468(%rbp)
   1c659:	00 00 00 
   1c65c:	48 8b 85 b0 fb ff ff 	mov    -0x450(%rbp),%rax
   1c663:	48 89 85 b0 fb ff ff 	mov    %rax,-0x450(%rbp)
   1c66a:	8b 05 d0 7a 00 00    	mov    0x7ad0(%rip),%eax        # 24140 <g_74>
   1c670:	85 c0                	test   %eax,%eax
   1c672:	0f 85 e0 06 00 00    	jne    1cd58 <func_97+0xdee>
   1c678:	c7 85 2c fb ff ff 02 	movl   $0x2,-0x4d4(%rbp)
   1c67f:	00 00 00 
   1c682:	e9 ad 06 00 00       	jmpq   1cd34 <func_97+0xdca>
   1c687:	48 8d 85 e0 fc ff ff 	lea    -0x320(%rbp),%rax
   1c68e:	48 89 85 40 fc ff ff 	mov    %rax,-0x3c0(%rbp)
   1c695:	48 8d 05 04 7d 00 00 	lea    0x7d04(%rip),%rax        # 243a0 <g_141+0x1a0>
   1c69c:	48 89 85 48 fc ff ff 	mov    %rax,-0x3b8(%rbp)
   1c6a3:	48 c7 85 c0 fb ff ff 	movq   $0x0,-0x440(%rbp)
   1c6aa:	00 00 00 00 
   1c6ae:	c7 85 c0 fb ff ff e5 	movl   $0x4feef6e5,-0x440(%rbp)
   1c6b5:	f6 ee 4f 
   1c6b8:	48 8d 05 b9 c5 00 00 	lea    0xc5b9(%rip),%rax        # 28c78 <g_195+0x18>
   1c6bf:	48 89 85 50 fc ff ff 	mov    %rax,-0x3b0(%rbp)
   1c6c6:	48 b8 c2 b4 14 5b 1b 	movabs $0x9bccb01b5b14b4c2,%rax
   1c6cd:	b0 cc 9b 
   1c6d0:	48 89 85 58 fc ff ff 	mov    %rax,-0x3a8(%rbp)
   1c6d7:	66 c7 85 38 fb ff ff 	movw   $0x9,-0x4c8(%rbp)
   1c6de:	09 00 
   1c6e0:	c7 85 48 fb ff ff 00 	movl   $0x0,-0x4b8(%rbp)
   1c6e7:	00 00 00 
   1c6ea:	eb 1e                	jmp    1c70a <func_97+0x7a0>
   1c6ec:	8b 85 48 fb ff ff    	mov    -0x4b8(%rbp),%eax
   1c6f2:	48 98                	cltq   
   1c6f4:	48 8d 15 29 7a 00 00 	lea    0x7a29(%rip),%rdx        # 24124 <g_7>
   1c6fb:	48 89 94 c5 e0 fc ff 	mov    %rdx,-0x320(%rbp,%rax,8)
   1c702:	ff 
   1c703:	83 85 48 fb ff ff 01 	addl   $0x1,-0x4b8(%rbp)
   1c70a:	83 bd 48 fb ff ff 04 	cmpl   $0x4,-0x4b8(%rbp)
   1c711:	7e d9                	jle    1c6ec <func_97+0x782>
   1c713:	48 8b 95 f0 fc ff ff 	mov    -0x310(%rbp),%rdx
   1c71a:	48 8b 85 40 fc ff ff 	mov    -0x3c0(%rbp),%rax
   1c721:	48 89 10             	mov    %rdx,(%rax)
   1c724:	0f be 85 35 fb ff ff 	movsbl -0x4cb(%rbp),%eax
   1c72b:	0b 85 80 fb ff ff    	or     -0x480(%rbp),%eax
   1c731:	48 63 d8             	movslq %eax,%rbx
   1c734:	8b 85 2c fb ff ff    	mov    -0x4d4(%rbp),%eax
   1c73a:	0f bf d0             	movswl %ax,%edx
   1c73d:	8b 85 2c fb ff ff    	mov    -0x4d4(%rbp),%eax
   1c743:	98                   	cwtl   
   1c744:	89 d6                	mov    %edx,%esi
   1c746:	89 c7                	mov    %eax,%edi
   1c748:	e8 c9 ec fe ff       	callq  b416 <safe_mod_func_int16_t_s_s>
   1c74d:	66 85 c0             	test   %ax,%ax
   1c750:	74 07                	je     1c759 <func_97+0x7ef>
   1c752:	80 bd 35 fb ff ff 00 	cmpb   $0x0,-0x4cb(%rbp)
   1c759:	8b 85 80 fb ff ff    	mov    -0x480(%rbp),%eax
   1c75f:	48 98                	cltq   
   1c761:	48 89 c6             	mov    %rax,%rsi
   1c764:	bf 00 00 00 00       	mov    $0x0,%edi
   1c769:	e8 41 f9 fe ff       	callq  c0af <safe_div_func_uint64_t_u_u>
   1c76e:	8b 05 9c 79 00 00    	mov    0x799c(%rip),%eax        # 24110 <g_3+0x10>
   1c774:	85 c0                	test   %eax,%eax
   1c776:	74 07                	je     1c77f <func_97+0x815>
   1c778:	b8 01 00 00 00       	mov    $0x1,%eax
   1c77d:	eb 05                	jmp    1c784 <func_97+0x81a>
   1c77f:	b8 00 00 00 00       	mov    $0x0,%eax
   1c784:	3b 85 80 fb ff ff    	cmp    -0x480(%rbp),%eax
   1c78a:	0f 9c c0             	setl   %al
   1c78d:	0f b6 c0             	movzbl %al,%eax
   1c790:	89 c6                	mov    %eax,%esi
   1c792:	bf 3d 00 00 00       	mov    $0x3d,%edi
   1c797:	e8 38 ea fe ff       	callq  b1d4 <safe_add_func_int8_t_s_s>
   1c79c:	48 0f be d0          	movsbq %al,%rdx
   1c7a0:	48 8b 85 48 fc ff ff 	mov    -0x3b8(%rbp),%rax
   1c7a7:	48 89 10             	mov    %rdx,(%rax)
   1c7aa:	48 8b 85 48 fc ff ff 	mov    -0x3b8(%rbp),%rax
   1c7b1:	48 8b 00             	mov    (%rax),%rax
   1c7b4:	48 39 c3             	cmp    %rax,%rbx
   1c7b7:	0f 8f 63 01 00 00    	jg     1c920 <func_97+0x9b6>
   1c7bd:	c7 05 79 79 00 00 00 	movl   $0x0,0x7979(%rip)        # 24140 <g_74>
   1c7c4:	00 00 00 
   1c7c7:	e9 40 01 00 00       	jmpq   1c90c <func_97+0x9a2>
   1c7cc:	c6 85 37 fb ff ff 00 	movb   $0x0,-0x4c9(%rbp)
   1c7d3:	48 8d 85 b8 fb ff ff 	lea    -0x448(%rbp),%rax
   1c7da:	48 89 85 70 fc ff ff 	mov    %rax,-0x390(%rbp)
   1c7e1:	8b 0d 01 7c 00 00    	mov    0x7c01(%rip),%ecx        # 243e8 <g_147>
   1c7e7:	8b 85 2c fb ff ff    	mov    -0x4d4(%rbp),%eax
   1c7ed:	48 63 d0             	movslq %eax,%rdx
   1c7f0:	89 c9                	mov    %ecx,%ecx
   1c7f2:	48 89 c8             	mov    %rcx,%rax
   1c7f5:	48 01 c0             	add    %rax,%rax
   1c7f8:	48 01 c8             	add    %rcx,%rax
   1c7fb:	48 01 d0             	add    %rdx,%rax
   1c7fe:	48 8d 14 85 00 00 00 	lea    0x0(,%rax,4),%rdx
   1c805:	00 
   1c806:	48 8d 05 93 79 00 00 	lea    0x7993(%rip),%rax        # 241a0 <g_139>
   1c80d:	8b 04 02             	mov    (%rdx,%rax,1),%eax
   1c810:	8b 35 d2 7b 00 00    	mov    0x7bd2(%rip),%esi        # 243e8 <g_147>
   1c816:	0b 85 2c fb ff ff    	or     -0x4d4(%rbp),%eax
   1c81c:	89 c2                	mov    %eax,%edx
   1c81e:	8b 85 2c fb ff ff    	mov    -0x4d4(%rbp),%eax
   1c824:	48 63 c8             	movslq %eax,%rcx
   1c827:	89 f6                	mov    %esi,%esi
   1c829:	48 89 f0             	mov    %rsi,%rax
   1c82c:	48 01 c0             	add    %rax,%rax
   1c82f:	48 01 f0             	add    %rsi,%rax
   1c832:	48 01 c8             	add    %rcx,%rax
   1c835:	48 8d 0c 85 00 00 00 	lea    0x0(,%rax,4),%rcx
   1c83c:	00 
   1c83d:	48 8d 05 5c 79 00 00 	lea    0x795c(%rip),%rax        # 241a0 <g_139>
   1c844:	89 14 01             	mov    %edx,(%rcx,%rax,1)
   1c847:	8b 85 2c fb ff ff    	mov    -0x4d4(%rbp),%eax
   1c84d:	0f b7 d8             	movzwl %ax,%ebx
   1c850:	48 8b 05 49 7b 00 00 	mov    0x7b49(%rip),%rax        # 243a0 <g_141+0x1a0>
   1c857:	44 0f b7 e0          	movzwl %ax,%r12d
   1c85b:	48 8b 05 7e 7b 00 00 	mov    0x7b7e(%rip),%rax        # 243e0 <g_143>
   1c862:	89 c2                	mov    %eax,%edx
   1c864:	48 8b 05 05 aa 00 00 	mov    0xaa05(%rip),%rax        # 27270 <g_116>
   1c86b:	0f b6 00             	movzbl (%rax),%eax
   1c86e:	3c f7                	cmp    $0xf7,%al
   1c870:	0f 9d c0             	setge  %al
   1c873:	0f b6 c0             	movzbl %al,%eax
   1c876:	89 d6                	mov    %edx,%esi
   1c878:	89 c7                	mov    %eax,%edi
   1c87a:	e8 87 f5 fe ff       	callq  be06 <safe_lshift_func_uint16_t_u_u>
   1c87f:	0f b7 c0             	movzwl %ax,%eax
   1c882:	44 89 e6             	mov    %r12d,%esi
   1c885:	89 c7                	mov    %eax,%edi
   1c887:	e8 b1 f4 fe ff       	callq  bd3d <safe_mul_func_uint16_t_u_u>
   1c88c:	66 85 c0             	test   %ax,%ax
   1c88f:	0f 95 c0             	setne  %al
   1c892:	0f b6 c0             	movzbl %al,%eax
   1c895:	89 de                	mov    %ebx,%esi
   1c897:	89 c7                	mov    %eax,%edi
   1c899:	e8 be f4 fe ff       	callq  bd5c <safe_mod_func_uint16_t_u_u>
   1c89e:	0f b7 c0             	movzwl %ax,%eax
   1c8a1:	23 85 2c fb ff ff    	and    -0x4d4(%rbp),%eax
   1c8a7:	8b 95 2c fb ff ff    	mov    -0x4d4(%rbp),%edx
   1c8ad:	89 d6                	mov    %edx,%esi
   1c8af:	89 c7                	mov    %eax,%edi
   1c8b1:	e8 00 ed fe ff       	callq  b5b6 <safe_add_func_int32_t_s_s>
   1c8b6:	0f b7 15 d5 78 00 00 	movzwl 0x78d5(%rip),%edx        # 24192 <g_129>
   1c8bd:	0f b7 d2             	movzwl %dx,%edx
   1c8c0:	21 d0                	and    %edx,%eax
   1c8c2:	83 f8 01             	cmp    $0x1,%eax
   1c8c5:	0f 97 c0             	seta   %al
   1c8c8:	0f b6 c0             	movzbl %al,%eax
   1c8cb:	c6 85 37 fb ff ff ff 	movb   $0xff,-0x4c9(%rbp)
   1c8d2:	89 c6                	mov    %eax,%esi
   1c8d4:	bf ff ff ff ff       	mov    $0xffffffff,%edi
   1c8d9:	e8 27 ed fe ff       	callq  b605 <safe_sub_func_int32_t_s_s>
   1c8de:	8b 95 40 fb ff ff    	mov    -0x4c0(%rbp),%edx
   1c8e4:	09 d0                	or     %edx,%eax
   1c8e6:	89 85 40 fb ff ff    	mov    %eax,-0x4c0(%rbp)
   1c8ec:	48 8b 95 b8 fb ff ff 	mov    -0x448(%rbp),%rdx
   1c8f3:	48 8b 85 70 fc ff ff 	mov    -0x390(%rbp),%rax
   1c8fa:	48 89 10             	mov    %rdx,(%rax)
   1c8fd:	8b 05 3d 78 00 00    	mov    0x783d(%rip),%eax        # 24140 <g_74>
   1c903:	83 c0 01             	add    $0x1,%eax
   1c906:	89 05 34 78 00 00    	mov    %eax,0x7834(%rip)        # 24140 <g_74>
   1c90c:	8b 05 2e 78 00 00    	mov    0x782e(%rip),%eax        # 24140 <g_74>
   1c912:	83 f8 02             	cmp    $0x2,%eax
   1c915:	0f 86 b1 fe ff ff    	jbe    1c7cc <func_97+0x862>
   1c91b:	e9 0d 04 00 00       	jmpq   1cd2d <func_97+0xdc3>
   1c920:	48 8d 05 d1 c5 00 00 	lea    0xc5d1(%rip),%rax        # 28ef8 <g_195+0x298>
   1c927:	48 89 85 60 fc ff ff 	mov    %rax,-0x3a0(%rbp)
   1c92e:	48 c7 85 68 fc ff ff 	movq   $0x0,-0x398(%rbp)
   1c935:	00 00 00 00 
   1c939:	c7 85 9c fb ff ff 09 	movl   $0x9,-0x464(%rbp)
   1c940:	00 00 00 
   1c943:	80 bd 35 fb ff ff 00 	cmpb   $0x0,-0x4cb(%rbp)
   1c94a:	0f 85 f3 03 00 00    	jne    1cd43 <func_97+0xdd9>
   1c950:	8b 85 2c fb ff ff    	mov    -0x4d4(%rbp),%eax
   1c956:	48 63 d8             	movslq %eax,%rbx
   1c959:	8b 85 9c fb ff ff    	mov    -0x464(%rbp),%eax
   1c95f:	4c 63 e0             	movslq %eax,%r12
   1c962:	48 8b 05 f7 a8 00 00 	mov    0xa8f7(%rip),%rax        # 27260 <g_57>
   1c969:	4c 8b 38             	mov    (%rax),%r15
   1c96c:	0f b6 85 af fc ff ff 	movzbl -0x351(%rbp),%eax
   1c973:	44 0f be e8          	movsbl %al,%r13d
   1c977:	48 0f be 95 35 fb ff 	movsbq -0x4cb(%rbp),%rdx
   1c97e:	ff 
   1c97f:	48 8b 85 60 fc ff ff 	mov    -0x3a0(%rbp),%rax
   1c986:	48 89 10             	mov    %rdx,(%rax)
   1c989:	48 8b 85 60 fc ff ff 	mov    -0x3a0(%rbp),%rax
   1c990:	48 8b 00             	mov    (%rax),%rax
   1c993:	48 85 c0             	test   %rax,%rax
   1c996:	75 09                	jne    1c9a1 <func_97+0xa37>
   1c998:	83 bd 2c fb ff ff 00 	cmpl   $0x0,-0x4d4(%rbp)
   1c99f:	74 07                	je     1c9a8 <func_97+0xa3e>
   1c9a1:	b8 01 00 00 00       	mov    $0x1,%eax
   1c9a6:	eb 05                	jmp    1c9ad <func_97+0xa43>
   1c9a8:	b8 00 00 00 00       	mov    $0x0,%eax
   1c9ad:	48 98                	cltq   
   1c9af:	48 89 05 ca c5 00 00 	mov    %rax,0xc5ca(%rip)        # 28f80 <g_210>
   1c9b6:	0f b6 05 c8 77 00 00 	movzbl 0x77c8(%rip),%eax        # 24185 <g_90+0x25>
   1c9bd:	4c 0f be f0          	movsbq %al,%r14
   1c9c1:	8b 85 40 fb ff ff    	mov    -0x4c0(%rbp),%eax
   1c9c7:	0f b6 d0             	movzbl %al,%edx
   1c9ca:	8b 85 2c fb ff ff    	mov    -0x4d4(%rbp),%eax
   1c9d0:	0f b6 c0             	movzbl %al,%eax
   1c9d3:	89 d6                	mov    %edx,%esi
   1c9d5:	89 c7                	mov    %eax,%edi
   1c9d7:	e8 b7 f1 fe ff       	callq  bb93 <safe_mul_func_uint8_t_u_u>
   1c9dc:	81 bd 2c fb ff ff b3 	cmpl   $0xb3,-0x4d4(%rbp)
   1c9e3:	00 00 00 
   1c9e6:	0f 95 c0             	setne  %al
   1c9e9:	0f b6 c0             	movzbl %al,%eax
   1c9ec:	39 85 2c fb ff ff    	cmp    %eax,-0x4d4(%rbp)
   1c9f2:	0f 94 c0             	sete   %al
   1c9f5:	0f b6 c0             	movzbl %al,%eax
   1c9f8:	be 0e 00 00 00       	mov    $0xe,%esi
   1c9fd:	89 c7                	mov    %eax,%edi
   1c9ff:	e8 76 f4 fe ff       	callq  be7a <safe_rshift_func_uint16_t_u_u>
   1ca04:	4c 89 f6             	mov    %r14,%rsi
   1ca07:	bf 00 00 00 00       	mov    $0x0,%edi
   1ca0c:	e8 3a f6 fe ff       	callq  c04b <safe_sub_func_uint64_t_u_u>
   1ca11:	44 89 ee             	mov    %r13d,%esi
   1ca14:	bf 01 00 00 00       	mov    $0x1,%edi
   1ca19:	e8 c3 ea fe ff       	callq  b4e1 <safe_lshift_func_int16_t_s_u>
   1ca1e:	48 8d 85 40 fb ff ff 	lea    -0x4c0(%rbp),%rax
   1ca25:	48 89 85 68 fc ff ff 	mov    %rax,-0x398(%rbp)
   1ca2c:	4c 39 bd 68 fc ff ff 	cmp    %r15,-0x398(%rbp)
   1ca33:	0f 94 c0             	sete   %al
   1ca36:	0f b6 c0             	movzbl %al,%eax
   1ca39:	4c 89 e6             	mov    %r12,%rsi
   1ca3c:	48 89 c7             	mov    %rax,%rdi
   1ca3f:	e8 b3 ef fe ff       	callq  b9f7 <safe_div_func_int64_t_s_s>
   1ca44:	48 89 de             	mov    %rbx,%rsi
   1ca47:	48 89 c7             	mov    %rax,%rdi
   1ca4a:	e8 df f5 fe ff       	callq  c02e <safe_add_func_uint64_t_u_u>
   1ca4f:	8b 95 2c fb ff ff    	mov    -0x4d4(%rbp),%edx
   1ca55:	48 63 d2             	movslq %edx,%rdx
   1ca58:	48 21 c2             	and    %rax,%rdx
   1ca5b:	0f b6 85 af fc ff ff 	movzbl -0x351(%rbp),%eax
   1ca62:	48 0f be c0          	movsbq %al,%rax
   1ca66:	48 39 c2             	cmp    %rax,%rdx
   1ca69:	0f 94 c0             	sete   %al
   1ca6c:	0f b6 c0             	movzbl %al,%eax
   1ca6f:	be ff 53 00 00       	mov    $0x53ff,%esi
   1ca74:	89 c7                	mov    %eax,%edi
   1ca76:	e8 c2 f2 fe ff       	callq  bd3d <safe_mul_func_uint16_t_u_u>
   1ca7b:	0f b7 c0             	movzwl %ax,%eax
   1ca7e:	89 c6                	mov    %eax,%esi
   1ca80:	bf 00 00 00 00       	mov    $0x0,%edi
   1ca85:	e8 b3 f2 fe ff       	callq  bd3d <safe_mul_func_uint16_t_u_u>
   1ca8a:	83 f0 d8             	xor    $0xffffffd8,%eax
   1ca8d:	0f b6 c0             	movzbl %al,%eax
   1ca90:	be 43 00 00 00       	mov    $0x43,%esi
   1ca95:	89 c7                	mov    %eax,%edi
   1ca97:	e8 12 f1 fe ff       	callq  bbae <safe_mod_func_uint8_t_u_u>
   1ca9c:	84 c0                	test   %al,%al
   1ca9e:	0f 84 ee 01 00 00    	je     1cc92 <func_97+0xd28>
   1caa4:	48 8d 05 e5 c4 00 00 	lea    0xc4e5(%rip),%rax        # 28f90 <g_235>
   1caab:	48 89 85 40 fd ff ff 	mov    %rax,-0x2c0(%rbp)
   1cab2:	48 8d 05 d7 c4 00 00 	lea    0xc4d7(%rip),%rax        # 28f90 <g_235>
   1cab9:	48 89 85 48 fd ff ff 	mov    %rax,-0x2b8(%rbp)
   1cac0:	48 8d 05 c9 c4 00 00 	lea    0xc4c9(%rip),%rax        # 28f90 <g_235>
   1cac7:	48 89 85 50 fd ff ff 	mov    %rax,-0x2b0(%rbp)
   1cace:	48 8d 05 bb c4 00 00 	lea    0xc4bb(%rip),%rax        # 28f90 <g_235>
   1cad5:	48 89 85 58 fd ff ff 	mov    %rax,-0x2a8(%rbp)
   1cadc:	48 8d 05 ad c4 00 00 	lea    0xc4ad(%rip),%rax        # 28f90 <g_235>
   1cae3:	48 89 85 60 fd ff ff 	mov    %rax,-0x2a0(%rbp)
   1caea:	48 8d 05 9f c4 00 00 	lea    0xc49f(%rip),%rax        # 28f90 <g_235>
   1caf1:	48 89 85 68 fd ff ff 	mov    %rax,-0x298(%rbp)
   1caf8:	48 8d 05 91 c4 00 00 	lea    0xc491(%rip),%rax        # 28f90 <g_235>
   1caff:	48 89 85 70 fd ff ff 	mov    %rax,-0x290(%rbp)
   1cb06:	48 8d 05 83 c4 00 00 	lea    0xc483(%rip),%rax        # 28f90 <g_235>
   1cb0d:	48 89 85 78 fd ff ff 	mov    %rax,-0x288(%rbp)
   1cb14:	48 8d 05 75 c4 00 00 	lea    0xc475(%rip),%rax        # 28f90 <g_235>
   1cb1b:	48 89 85 80 fd ff ff 	mov    %rax,-0x280(%rbp)
   1cb22:	48 8d 05 67 c4 00 00 	lea    0xc467(%rip),%rax        # 28f90 <g_235>
   1cb29:	48 89 85 88 fd ff ff 	mov    %rax,-0x278(%rbp)
   1cb30:	48 8d 05 59 c4 00 00 	lea    0xc459(%rip),%rax        # 28f90 <g_235>
   1cb37:	48 89 85 90 fd ff ff 	mov    %rax,-0x270(%rbp)
   1cb3e:	48 8d 05 4b c4 00 00 	lea    0xc44b(%rip),%rax        # 28f90 <g_235>
   1cb45:	48 89 85 98 fd ff ff 	mov    %rax,-0x268(%rbp)
   1cb4c:	48 8d 05 3d c4 00 00 	lea    0xc43d(%rip),%rax        # 28f90 <g_235>
   1cb53:	48 89 85 a0 fd ff ff 	mov    %rax,-0x260(%rbp)
   1cb5a:	48 8d 05 2f c4 00 00 	lea    0xc42f(%rip),%rax        # 28f90 <g_235>
   1cb61:	48 89 85 a8 fd ff ff 	mov    %rax,-0x258(%rbp)
   1cb68:	48 8d 05 21 c4 00 00 	lea    0xc421(%rip),%rax        # 28f90 <g_235>
   1cb6f:	48 89 85 b0 fd ff ff 	mov    %rax,-0x250(%rbp)
   1cb76:	48 8d 05 13 c4 00 00 	lea    0xc413(%rip),%rax        # 28f90 <g_235>
   1cb7d:	48 89 85 b8 fd ff ff 	mov    %rax,-0x248(%rbp)
   1cb84:	48 8d 05 05 c4 00 00 	lea    0xc405(%rip),%rax        # 28f90 <g_235>
   1cb8b:	48 89 85 c0 fd ff ff 	mov    %rax,-0x240(%rbp)
   1cb92:	48 8d 05 f7 c3 00 00 	lea    0xc3f7(%rip),%rax        # 28f90 <g_235>
   1cb99:	48 89 85 c8 fd ff ff 	mov    %rax,-0x238(%rbp)
   1cba0:	0f b6 05 45 78 00 00 	movzbl 0x7845(%rip),%eax        # 243ec <g_161>
   1cba7:	0f be d8             	movsbl %al,%ebx
   1cbaa:	48 b8 f0 40 aa 5f d8 	movabs $0x278546d85faa40f0,%rax
   1cbb1:	46 85 27 
   1cbb4:	48 89 05 c5 c3 00 00 	mov    %rax,0xc3c5(%rip)        # 28f80 <g_210>
   1cbbb:	48 8b 15 be c3 00 00 	mov    0xc3be(%rip),%rdx        # 28f80 <g_210>
   1cbc2:	48 8b 85 48 fc ff ff 	mov    -0x3b8(%rbp),%rax
   1cbc9:	48 8b 00             	mov    (%rax),%rax
   1cbcc:	48 31 c2             	xor    %rax,%rdx
   1cbcf:	48 8b 85 48 fc ff ff 	mov    -0x3b8(%rbp),%rax
   1cbd6:	48 89 10             	mov    %rdx,(%rax)
   1cbd9:	8b 85 2c fb ff ff    	mov    -0x4d4(%rbp),%eax
   1cbdf:	44 0f b6 e0          	movzbl %al,%r12d
   1cbe3:	48 83 bd 50 fc ff ff 	cmpq   $0x0,-0x3b0(%rbp)
   1cbea:	00 
   1cbeb:	0f 95 c0             	setne  %al
   1cbee:	0f b6 c0             	movzbl %al,%eax
   1cbf1:	89 85 40 fb ff ff    	mov    %eax,-0x4c0(%rbp)
   1cbf7:	be 0a 00 00 00       	mov    $0xa,%esi
   1cbfc:	bf 01 00 00 00       	mov    $0x1,%edi
   1cc01:	e8 8c e8 fe ff       	callq  b492 <safe_lshift_func_int16_t_s_s>
   1cc06:	0f bf d0             	movswl %ax,%edx
   1cc09:	8b 85 2c fb ff ff    	mov    -0x4d4(%rbp),%eax
   1cc0f:	98                   	cwtl   
   1cc10:	89 d6                	mov    %edx,%esi
   1cc12:	89 c7                	mov    %eax,%edi
   1cc14:	e8 fd e7 fe ff       	callq  b416 <safe_mod_func_int16_t_s_s>
   1cc19:	83 bd 2c fb ff ff 01 	cmpl   $0x1,-0x4d4(%rbp)
   1cc20:	8b 05 de 74 00 00    	mov    0x74de(%rip),%eax        # 24104 <g_3+0x4>
   1cc26:	83 f8 01             	cmp    $0x1,%eax
   1cc29:	0f 9f c0             	setg   %al
   1cc2c:	0f b6 c0             	movzbl %al,%eax
   1cc2f:	44 89 e6             	mov    %r12d,%esi
   1cc32:	89 c7                	mov    %eax,%edi
   1cc34:	e8 3f ef fe ff       	callq  bb78 <safe_sub_func_uint8_t_u_u>
   1cc39:	be 04 00 00 00       	mov    $0x4,%esi
   1cc3e:	bf ff ff 00 00       	mov    $0xffff,%edi
   1cc43:	e8 be f1 fe ff       	callq  be06 <safe_lshift_func_uint16_t_u_u>
   1cc48:	0f be c0             	movsbl %al,%eax
   1cc4b:	89 de                	mov    %ebx,%esi
   1cc4d:	89 c7                	mov    %eax,%edi
   1cc4f:	e8 be e5 fe ff       	callq  b212 <safe_mul_func_int8_t_s_s>
   1cc54:	48 8b 05 35 c3 00 00 	mov    0xc335(%rip),%rax        # 28f90 <g_235>
   1cc5b:	48 83 f8 01          	cmp    $0x1,%rax
   1cc5f:	0f 9e c0             	setle  %al
   1cc62:	0f b6 d0             	movzbl %al,%edx
   1cc65:	8b 05 b9 74 00 00    	mov    0x74b9(%rip),%eax        # 24124 <g_7>
   1cc6b:	98                   	cwtl   
   1cc6c:	89 d6                	mov    %edx,%esi
   1cc6e:	89 c7                	mov    %eax,%edi
   1cc70:	e8 80 e7 fe ff       	callq  b3f5 <safe_mul_func_int16_t_s_s>
   1cc75:	8b 05 75 77 00 00    	mov    0x7775(%rip),%eax        # 243f0 <g_236>
   1cc7b:	b8 f2 fe fd 7b       	mov    $0x7bfdfef2,%eax
   1cc80:	09 85 84 fb ff ff    	or     %eax,-0x47c(%rbp)
   1cc86:	48 8b 05 0b c3 00 00 	mov    0xc30b(%rip),%rax        # 28f98 <g_238>
   1cc8d:	e9 de 0a 00 00       	jmpq   1d770 <func_97+0x1806>
   1cc92:	48 8b 05 87 a5 00 00 	mov    0xa587(%rip),%rax        # 27220 <g_13>
   1cc99:	8b 00                	mov    (%rax),%eax
   1cc9b:	85 c0                	test   %eax,%eax
   1cc9d:	0f 85 a3 00 00 00    	jne    1cd46 <func_97+0xddc>
   1cca3:	0f b7 85 c0 fb ff ff 	movzwl -0x440(%rbp),%eax
   1ccaa:	66 85 c0             	test   %ax,%ax
   1ccad:	0f 85 ab 00 00 00    	jne    1cd5e <func_97+0xdf4>
   1ccb3:	66 c7 05 d6 74 00 00 	movw   $0x0,0x74d6(%rip)        # 24192 <g_129>
   1ccba:	00 00 
   1ccbc:	eb 62                	jmp    1cd20 <func_97+0xdb6>
   1ccbe:	c7 85 40 fd ff ff 00 	movl   $0x0,-0x2c0(%rbp)
   1ccc5:	00 00 00 
   1ccc8:	c7 85 44 fd ff ff 00 	movl   $0x0,-0x2bc(%rbp)
   1cccf:	00 00 00 
   1ccd2:	c7 85 48 fd ff ff 00 	movl   $0x0,-0x2b8(%rbp)
   1ccd9:	00 00 00 
   1ccdc:	c7 85 4c fd ff ff 00 	movl   $0x0,-0x2b4(%rbp)
   1cce3:	00 00 00 
   1cce6:	c7 85 50 fd ff ff 00 	movl   $0x0,-0x2b0(%rbp)
   1cced:	00 00 00 
   1ccf0:	c7 85 54 fd ff ff 00 	movl   $0x0,-0x2ac(%rbp)
   1ccf7:	00 00 00 
   1ccfa:	48 8b 85 68 fc ff ff 	mov    -0x398(%rbp),%rax
   1cd01:	c7 00 01 00 00 00    	movl   $0x1,(%rax)
   1cd07:	66 83 85 38 fb ff ff 	addw   $0x1,-0x4c8(%rbp)
   1cd0e:	01 
   1cd0f:	0f b7 05 7c 74 00 00 	movzwl 0x747c(%rip),%eax        # 24192 <g_129>
   1cd16:	83 c0 01             	add    $0x1,%eax
   1cd19:	66 89 05 72 74 00 00 	mov    %ax,0x7472(%rip)        # 24192 <g_129>
   1cd20:	0f b7 05 6b 74 00 00 	movzwl 0x746b(%rip),%eax        # 24192 <g_129>
   1cd27:	66 83 f8 05          	cmp    $0x5,%ax
   1cd2b:	76 91                	jbe    1ccbe <func_97+0xd54>
   1cd2d:	83 ad 2c fb ff ff 01 	subl   $0x1,-0x4d4(%rbp)
   1cd34:	83 bd 2c fb ff ff 00 	cmpl   $0x0,-0x4d4(%rbp)
   1cd3b:	0f 89 46 f9 ff ff    	jns    1c687 <func_97+0x71d>
   1cd41:	eb 04                	jmp    1cd47 <func_97+0xddd>
   1cd43:	90                   	nop
   1cd44:	eb 01                	jmp    1cd47 <func_97+0xddd>
   1cd46:	90                   	nop
   1cd47:	8b 05 9b 76 00 00    	mov    0x769b(%rip),%eax        # 243e8 <g_147>
   1cd4d:	83 c0 01             	add    $0x1,%eax
   1cd50:	89 05 92 76 00 00    	mov    %eax,0x7692(%rip)        # 243e8 <g_147>
   1cd56:	eb 0c                	jmp    1cd64 <func_97+0xdfa>
   1cd58:	90                   	nop
   1cd59:	e9 f0 f2 ff ff       	jmpq   1c04e <func_97+0xe4>
   1cd5e:	90                   	nop
   1cd5f:	e9 ea f2 ff ff       	jmpq   1c04e <func_97+0xe4>
   1cd64:	8b 05 7e 76 00 00    	mov    0x767e(%rip),%eax        # 243e8 <g_147>
   1cd6a:	83 f8 02             	cmp    $0x2,%eax
   1cd6d:	0f 86 9d f5 ff ff    	jbe    1c310 <func_97+0x3a6>
   1cd73:	48 c7 05 62 76 00 00 	movq   $0x0,0x7662(%rip)        # 243e0 <g_143>
   1cd7a:	00 00 00 00 
   1cd7e:	e9 38 05 00 00       	jmpq   1d2bb <func_97+0x1351>
   1cd83:	c6 85 36 fb ff ff 70 	movb   $0x70,-0x4ca(%rbp)
   1cd8a:	48 8d 05 f7 c1 00 00 	lea    0xc1f7(%rip),%rax        # 28f88 <g_233>
   1cd91:	48 89 85 e8 fb ff ff 	mov    %rax,-0x418(%rbp)
   1cd98:	c7 85 70 fb ff ff 00 	movl   $0x0,-0x490(%rbp)
   1cd9f:	00 00 00 
   1cda2:	48 8d 05 43 76 00 00 	lea    0x7643(%rip),%rax        # 243ec <g_161>
   1cda9:	48 89 85 f0 fb ff ff 	mov    %rax,-0x410(%rbp)
   1cdb0:	c7 85 4c fb ff ff 65 	movl   $0xa85b3e65,-0x4b4(%rbp)
   1cdb7:	3e 5b a8 
   1cdba:	c7 85 74 fb ff ff 01 	movl   $0x1,-0x48c(%rbp)
   1cdc1:	00 00 00 
   1cdc4:	c7 85 50 fb ff ff 00 	movl   $0x0,-0x4b0(%rbp)
   1cdcb:	00 00 00 
   1cdce:	eb 1a                	jmp    1cdea <func_97+0xe80>
   1cdd0:	8b 85 50 fb ff ff    	mov    -0x4b0(%rbp),%eax
   1cdd6:	48 98                	cltq   
   1cdd8:	c7 84 85 e0 fc ff ff 	movl   $0x67490647,-0x320(%rbp,%rax,4)
   1cddf:	47 06 49 67 
   1cde3:	83 85 50 fb ff ff 01 	addl   $0x1,-0x4b0(%rbp)
   1cdea:	83 bd 50 fb ff ff 02 	cmpl   $0x2,-0x4b0(%rbp)
   1cdf1:	7e dd                	jle    1cdd0 <func_97+0xe66>
   1cdf3:	48 8d 85 10 fd ff ff 	lea    -0x2f0(%rbp),%rax
   1cdfa:	48 83 c0 10          	add    $0x10,%rax
   1cdfe:	48 39 85 e0 fb ff ff 	cmp    %rax,-0x420(%rbp)
   1ce05:	0f 94 c0             	sete   %al
   1ce08:	88 85 36 fb ff ff    	mov    %al,-0x4ca(%rbp)
   1ce0e:	48 c7 05 67 c1 00 00 	movq   $0x19,0xc167(%rip)        # 28f80 <g_210>
   1ce15:	19 00 00 00 
   1ce19:	e9 f6 02 00 00       	jmpq   1d114 <func_97+0x11aa>
   1ce1e:	48 c7 85 20 fc ff ff 	movq   $0x0,-0x3e0(%rbp)
   1ce25:	00 00 00 00 
   1ce29:	c7 85 78 fb ff ff ff 	movl   $0xffffffff,-0x488(%rbp)
   1ce30:	ff ff ff 
   1ce33:	c7 85 7c fb ff ff 13 	movl   $0x732cc213,-0x484(%rbp)
   1ce3a:	c2 2c 73 
   1ce3d:	48 8d 05 b0 75 00 00 	lea    0x75b0(%rip),%rax        # 243f4 <g_286>
   1ce44:	48 89 85 28 fc ff ff 	mov    %rax,-0x3d8(%rbp)
   1ce4b:	c7 85 d0 fd ff ff 00 	movl   $0x0,-0x230(%rbp)
   1ce52:	00 00 00 
   1ce55:	c7 85 d4 fd ff ff 00 	movl   $0x0,-0x22c(%rbp)
   1ce5c:	00 00 00 
   1ce5f:	c7 85 d8 fd ff ff ff 	movl   $0xffffffff,-0x228(%rbp)
   1ce66:	ff ff ff 
   1ce69:	c7 85 dc fd ff ff c0 	movl   $0x8fbaa2c0,-0x224(%rbp)
   1ce70:	a2 ba 8f 
   1ce73:	c7 85 e0 fd ff ff fc 	movl   $0xfffffffc,-0x220(%rbp)
   1ce7a:	ff ff ff 
   1ce7d:	c7 85 e4 fd ff ff 84 	movl   $0xd8152184,-0x21c(%rbp)
   1ce84:	21 15 d8 
   1ce87:	c7 85 e8 fd ff ff fc 	movl   $0xfffffffc,-0x218(%rbp)
   1ce8e:	ff ff ff 
   1ce91:	c7 85 ec fd ff ff ff 	movl   $0xffffffff,-0x214(%rbp)
   1ce98:	ff ff ff 
   1ce9b:	c7 85 f0 fd ff ff fc 	movl   $0xfffffffc,-0x210(%rbp)
   1cea2:	ff ff ff 
   1cea5:	c7 85 f4 fd ff ff ff 	movl   $0xffffffff,-0x20c(%rbp)
   1ceac:	ff ff ff 
   1ceaf:	c7 85 f8 fd ff ff ff 	movl   $0xffffffff,-0x208(%rbp)
   1ceb6:	ff ff ff 
   1ceb9:	c7 85 fc fd ff ff fc 	movl   $0xfffffffc,-0x204(%rbp)
   1cec0:	ff ff ff 
   1cec3:	c7 85 00 fe ff ff 00 	movl   $0x0,-0x200(%rbp)
   1ceca:	00 00 00 
   1cecd:	c7 85 04 fe ff ff ff 	movl   $0xffffffff,-0x1fc(%rbp)
   1ced4:	ff ff ff 
   1ced7:	c7 85 08 fe ff ff c0 	movl   $0x8fbaa2c0,-0x1f8(%rbp)
   1cede:	a2 ba 8f 
   1cee1:	c7 85 0c fe ff ff ff 	movl   $0xffffffff,-0x1f4(%rbp)
   1cee8:	ff ff ff 
   1ceeb:	c7 85 10 fe ff ff ff 	movl   $0xffffffff,-0x1f0(%rbp)
   1cef2:	ff ff ff 
   1cef5:	c7 85 14 fe ff ff 84 	movl   $0xd8152184,-0x1ec(%rbp)
   1cefc:	21 15 d8 
   1ceff:	c7 85 18 fe ff ff c0 	movl   $0x8fbaa2c0,-0x1e8(%rbp)
   1cf06:	a2 ba 8f 
   1cf09:	c7 85 1c fe ff ff c0 	movl   $0x8fbaa2c0,-0x1e4(%rbp)
   1cf10:	a2 ba 8f 
   1cf13:	c7 85 20 fe ff ff 00 	movl   $0x0,-0x1e0(%rbp)
   1cf1a:	00 00 00 
   1cf1d:	c7 85 24 fe ff ff 00 	movl   $0x0,-0x1dc(%rbp)
   1cf24:	00 00 00 
   1cf27:	c7 85 28 fe ff ff ff 	movl   $0xffffffff,-0x1d8(%rbp)
   1cf2e:	ff ff ff 
   1cf31:	c7 85 2c fe ff ff c0 	movl   $0x8fbaa2c0,-0x1d4(%rbp)
   1cf38:	a2 ba 8f 
   1cf3b:	c7 85 30 fe ff ff fc 	movl   $0xfffffffc,-0x1d0(%rbp)
   1cf42:	ff ff ff 
   1cf45:	c7 85 34 fe ff ff 84 	movl   $0xd8152184,-0x1cc(%rbp)
   1cf4c:	21 15 d8 
   1cf4f:	c7 85 38 fe ff ff fc 	movl   $0xfffffffc,-0x1c8(%rbp)
   1cf56:	ff ff ff 
   1cf59:	c7 85 3c fe ff ff ff 	movl   $0xffffffff,-0x1c4(%rbp)
   1cf60:	ff ff ff 
   1cf63:	c7 85 54 fb ff ff 00 	movl   $0x0,-0x4ac(%rbp)
   1cf6a:	00 00 00 
   1cf6d:	eb 78                	jmp    1cfe7 <func_97+0x107d>
   1cf6f:	c7 85 58 fb ff ff 00 	movl   $0x0,-0x4a8(%rbp)
   1cf76:	00 00 00 
   1cf79:	eb 5c                	jmp    1cfd7 <func_97+0x106d>
   1cf7b:	c7 85 5c fb ff ff 00 	movl   $0x0,-0x4a4(%rbp)
   1cf82:	00 00 00 
   1cf85:	eb 40                	jmp    1cfc7 <func_97+0x105d>
   1cf87:	8b 85 5c fb ff ff    	mov    -0x4a4(%rbp),%eax
   1cf8d:	48 63 f0             	movslq %eax,%rsi
   1cf90:	8b 85 58 fb ff ff    	mov    -0x4a8(%rbp),%eax
   1cf96:	48 63 c8             	movslq %eax,%rcx
   1cf99:	8b 85 54 fb ff ff    	mov    -0x4ac(%rbp),%eax
   1cf9f:	48 63 d0             	movslq %eax,%rdx
   1cfa2:	48 89 d0             	mov    %rdx,%rax
   1cfa5:	48 01 c0             	add    %rax,%rax
   1cfa8:	48 01 d0             	add    %rdx,%rax
   1cfab:	48 01 f0             	add    %rsi,%rax
   1cfae:	48 01 c8             	add    %rcx,%rax
   1cfb1:	48 8d 15 88 71 00 00 	lea    0x7188(%rip),%rdx        # 24140 <g_74>
   1cfb8:	48 89 94 c5 40 fd ff 	mov    %rdx,-0x2c0(%rbp,%rax,8)
   1cfbf:	ff 
   1cfc0:	83 85 5c fb ff ff 01 	addl   $0x1,-0x4a4(%rbp)
   1cfc7:	83 bd 5c fb ff ff 00 	cmpl   $0x0,-0x4a4(%rbp)
   1cfce:	7e b7                	jle    1cf87 <func_97+0x101d>
   1cfd0:	83 85 58 fb ff ff 01 	addl   $0x1,-0x4a8(%rbp)
   1cfd7:	83 bd 58 fb ff ff 02 	cmpl   $0x2,-0x4a8(%rbp)
   1cfde:	7e 9b                	jle    1cf7b <func_97+0x1011>
   1cfe0:	83 85 54 fb ff ff 01 	addl   $0x1,-0x4ac(%rbp)
   1cfe7:	83 bd 54 fb ff ff 01 	cmpl   $0x1,-0x4ac(%rbp)
   1cfee:	0f 8e 7b ff ff ff    	jle    1cf6f <func_97+0x1005>
   1cff4:	8b 85 1c fe ff ff    	mov    -0x1e4(%rbp),%eax
   1cffa:	41 89 c5             	mov    %eax,%r13d
   1cffd:	48 8b 05 dc 73 00 00 	mov    0x73dc(%rip),%rax        # 243e0 <g_143>
   1d004:	0f b6 d8             	movzbl %al,%ebx
   1d007:	44 8b 25 2a 71 00 00 	mov    0x712a(%rip),%r12d        # 24138 <g_59+0x8>
   1d00e:	8b 95 2c fb ff ff    	mov    -0x4d4(%rbp),%edx
   1d014:	48 8d 05 d1 73 00 00 	lea    0x73d1(%rip),%rax        # 243ec <g_161>
   1d01b:	48 39 85 f0 fb ff ff 	cmp    %rax,-0x410(%rbp)
   1d022:	0f 94 c0             	sete   %al
   1d025:	0f b6 c8             	movzbl %al,%ecx
   1d028:	48 8b 85 28 fc ff ff 	mov    -0x3d8(%rbp),%rax
   1d02f:	66 89 08             	mov    %cx,(%rax)
   1d032:	48 8b 85 28 fc ff ff 	mov    -0x3d8(%rbp),%rax
   1d039:	0f b7 00             	movzwl (%rax),%eax
   1d03c:	98                   	cwtl   
   1d03d:	89 d6                	mov    %edx,%esi
   1d03f:	89 c7                	mov    %eax,%edi
   1d041:	e8 9b e4 fe ff       	callq  b4e1 <safe_lshift_func_int16_t_s_u>
   1d046:	98                   	cwtl   
   1d047:	44 89 e6             	mov    %r12d,%esi
   1d04a:	89 c7                	mov    %eax,%edi
   1d04c:	e8 41 e4 fe ff       	callq  b492 <safe_lshift_func_int16_t_s_s>
   1d051:	0f be c0             	movsbl %al,%eax
   1d054:	be 01 00 00 00       	mov    $0x1,%esi
   1d059:	89 c7                	mov    %eax,%edi
   1d05b:	e8 b2 e1 fe ff       	callq  b212 <safe_mul_func_int8_t_s_s>
   1d060:	66 98                	cbtw   
   1d062:	0f b7 d0             	movzwl %ax,%edx
   1d065:	8b 05 29 71 00 00    	mov    0x7129(%rip),%eax        # 24194 <g_133>
   1d06b:	0f b7 c0             	movzwl %ax,%eax
   1d06e:	89 d6                	mov    %edx,%esi
   1d070:	89 c7                	mov    %eax,%edi
   1d072:	e8 17 ed fe ff       	callq  bd8e <safe_div_func_uint16_t_u_u>
   1d077:	89 c2                	mov    %eax,%edx
   1d079:	48 8b 85 f0 fb ff ff 	mov    -0x410(%rbp),%rax
   1d080:	88 10                	mov    %dl,(%rax)
   1d082:	48 8b 85 f0 fb ff ff 	mov    -0x410(%rbp),%rax
   1d089:	0f b6 00             	movzbl (%rax),%eax
   1d08c:	0f b6 c0             	movzbl %al,%eax
   1d08f:	8b 15 53 73 00 00    	mov    0x7353(%rip),%edx        # 243e8 <g_147>
   1d095:	83 ea 01             	sub    $0x1,%edx
   1d098:	89 15 4a 73 00 00    	mov    %edx,0x734a(%rip)        # 243e8 <g_147>
   1d09e:	89 c6                	mov    %eax,%esi
   1d0a0:	bf 00 00 00 00       	mov    $0x0,%edi
   1d0a5:	e8 14 ec fe ff       	callq  bcbe <safe_rshift_func_uint8_t_u_u>
   1d0aa:	0f b6 c0             	movzbl %al,%eax
   1d0ad:	89 de                	mov    %ebx,%esi
   1d0af:	89 c7                	mov    %eax,%edi
   1d0b1:	e8 dd ea fe ff       	callq  bb93 <safe_mul_func_uint8_t_u_u>
   1d0b6:	0f b6 d0             	movzbl %al,%edx
   1d0b9:	0f be 85 36 fb ff ff 	movsbl -0x4ca(%rbp),%eax
   1d0c0:	39 c2                	cmp    %eax,%edx
   1d0c2:	0f 9e c0             	setle  %al
   1d0c5:	0f b6 c0             	movzbl %al,%eax
   1d0c8:	39 85 2c fb ff ff    	cmp    %eax,-0x4d4(%rbp)
   1d0ce:	7c 09                	jl     1d0d9 <func_97+0x116f>
   1d0d0:	83 bd 70 fb ff ff 00 	cmpl   $0x0,-0x490(%rbp)
   1d0d7:	74 07                	je     1d0e0 <func_97+0x1176>
   1d0d9:	b8 01 00 00 00       	mov    $0x1,%eax
   1d0de:	eb 05                	jmp    1d0e5 <func_97+0x117b>
   1d0e0:	b8 00 00 00 00       	mov    $0x0,%eax
   1d0e5:	48 98                	cltq   
   1d0e7:	4c 89 ee             	mov    %r13,%rsi
   1d0ea:	48 89 c7             	mov    %rax,%rdi
   1d0ed:	e8 8e ef fe ff       	callq  c080 <safe_mod_func_uint64_t_u_u>
   1d0f2:	89 c2                	mov    %eax,%edx
   1d0f4:	8b 85 4c fb ff ff    	mov    -0x4b4(%rbp),%eax
   1d0fa:	09 d0                	or     %edx,%eax
   1d0fc:	89 85 4c fb ff ff    	mov    %eax,-0x4b4(%rbp)
   1d102:	48 8b 05 77 be 00 00 	mov    0xbe77(%rip),%rax        # 28f80 <g_210>
   1d109:	48 83 c0 01          	add    $0x1,%rax
   1d10d:	48 89 05 6c be 00 00 	mov    %rax,0xbe6c(%rip)        # 28f80 <g_210>
   1d114:	48 8b 05 65 be 00 00 	mov    0xbe65(%rip),%rax        # 28f80 <g_210>
   1d11b:	48 83 f8 1a          	cmp    $0x1a,%rax
   1d11f:	0f 8e f9 fc ff ff    	jle    1ce1e <func_97+0xeb4>
   1d125:	83 bd 2c fb ff ff 00 	cmpl   $0x0,-0x4d4(%rbp)
   1d12c:	74 23                	je     1d151 <func_97+0x11e7>
   1d12e:	48 8b 05 eb a0 00 00 	mov    0xa0eb(%rip),%rax        # 27220 <g_13>
   1d135:	8b 00                	mov    (%rax),%eax
   1d137:	85 c0                	test   %eax,%eax
   1d139:	0f 85 8f 01 00 00    	jne    1d2ce <func_97+0x1364>
   1d13f:	83 bd 2c fb ff ff 00 	cmpl   $0x0,-0x4d4(%rbp)
   1d146:	0f 84 2e 01 00 00    	je     1d27a <func_97+0x1310>
   1d14c:	e9 81 01 00 00       	jmpq   1d2d2 <func_97+0x1368>
   1d151:	48 8d 05 98 70 00 00 	lea    0x7098(%rip),%rax        # 241f0 <g_139+0x50>
   1d158:	48 89 85 f8 fb ff ff 	mov    %rax,-0x408(%rbp)
   1d15f:	48 83 bd d0 fb ff ff 	cmpq   $0x0,-0x430(%rbp)
   1d166:	00 
   1d167:	0f 85 64 01 00 00    	jne    1d2d1 <func_97+0x1367>
   1d16d:	c7 05 c9 6f 00 00 e5 	movl   $0xffffffe5,0x6fc9(%rip)        # 24140 <g_74>
   1d174:	ff ff ff 
   1d177:	e9 96 00 00 00       	jmpq   1d212 <func_97+0x12a8>
   1d17c:	48 c7 85 00 fc ff ff 	movq   $0x0,-0x400(%rbp)
   1d183:	00 00 00 00 
   1d187:	48 8d 85 10 fd ff ff 	lea    -0x2f0(%rbp),%rax
   1d18e:	48 83 c0 10          	add    $0x10,%rax
   1d192:	48 89 85 08 fc ff ff 	mov    %rax,-0x3f8(%rbp)
   1d199:	48 8d 85 b8 fb ff ff 	lea    -0x448(%rbp),%rax
   1d1a0:	48 89 85 10 fc ff ff 	mov    %rax,-0x3f0(%rbp)
   1d1a7:	48 8b 85 08 fc ff ff 	mov    -0x3f8(%rbp),%rax
   1d1ae:	48 c7 00 00 00 00 00 	movq   $0x0,(%rax)
   1d1b5:	48 8b 85 08 fc ff ff 	mov    -0x3f8(%rbp),%rax
   1d1bc:	48 8b 00             	mov    (%rax),%rax
   1d1bf:	48 89 85 f8 fb ff ff 	mov    %rax,-0x408(%rbp)
   1d1c6:	83 bd 2c fb ff ff 00 	cmpl   $0x0,-0x4d4(%rbp)
   1d1cd:	75 24                	jne    1d1f3 <func_97+0x1289>
   1d1cf:	48 8b 85 10 fc ff ff 	mov    -0x3f0(%rbp),%rax
   1d1d6:	48 8d 15 bb bd 00 00 	lea    0xbdbb(%rip),%rdx        # 28f98 <g_238>
   1d1dd:	48 89 10             	mov    %rdx,(%rax)
   1d1e0:	48 8b 85 10 fc ff ff 	mov    -0x3f0(%rbp),%rax
   1d1e7:	48 8b 00             	mov    (%rax),%rax
   1d1ea:	48 89 85 e8 fb ff ff 	mov    %rax,-0x418(%rbp)
   1d1f1:	eb 01                	jmp    1d1f4 <func_97+0x128a>
   1d1f3:	90                   	nop
   1d1f4:	8b 05 46 6f 00 00    	mov    0x6f46(%rip),%eax        # 24140 <g_74>
   1d1fa:	0f be c0             	movsbl %al,%eax
   1d1fd:	be 01 00 00 00       	mov    $0x1,%esi
   1d202:	89 c7                	mov    %eax,%edi
   1d204:	e8 cb df fe ff       	callq  b1d4 <safe_add_func_int8_t_s_s>
   1d209:	0f be c0             	movsbl %al,%eax
   1d20c:	89 05 2e 6f 00 00    	mov    %eax,0x6f2e(%rip)        # 24140 <g_74>
   1d212:	8b 05 28 6f 00 00    	mov    0x6f28(%rip),%eax        # 24140 <g_74>
   1d218:	83 f8 13             	cmp    $0x13,%eax
   1d21b:	0f 86 5b ff ff ff    	jbe    1d17c <func_97+0x1212>
   1d221:	48 c7 05 54 bd 00 00 	movq   $0xffffffffffffffeb,0xbd54(%rip)        # 28f80 <g_210>
   1d228:	eb ff ff ff 
   1d22c:	eb 3f                	jmp    1d26d <func_97+0x1303>
   1d22e:	c7 85 68 fb ff ff 00 	movl   $0x0,-0x498(%rbp)
   1d235:	00 00 00 
   1d238:	83 bd 68 fb ff ff 04 	cmpl   $0x4,-0x498(%rbp)
   1d23f:	74 0c                	je     1d24d <func_97+0x12e3>
   1d241:	48 8b 05 70 bd 00 00 	mov    0xbd70(%rip),%rax        # 28fb8 <g_302+0x8>
   1d248:	e9 23 05 00 00       	jmpq   1d770 <func_97+0x1806>
   1d24d:	48 8b 05 2c bd 00 00 	mov    0xbd2c(%rip),%rax        # 28f80 <g_210>
   1d254:	0f b6 c0             	movzbl %al,%eax
   1d257:	be 06 00 00 00       	mov    $0x6,%esi
   1d25c:	89 c7                	mov    %eax,%edi
   1d25e:	e8 f7 e8 fe ff       	callq  bb5a <safe_add_func_uint8_t_u_u>
   1d263:	0f b6 c0             	movzbl %al,%eax
   1d266:	48 89 05 13 bd 00 00 	mov    %rax,0xbd13(%rip)        # 28f80 <g_210>
   1d26d:	48 8b 05 0c bd 00 00 	mov    0xbd0c(%rip),%rax        # 28f80 <g_210>
   1d274:	48 83 f8 0f          	cmp    $0xf,%rax
   1d278:	75 b4                	jne    1d22e <func_97+0x12c4>
   1d27a:	c7 85 44 fb ff ff 01 	movl   $0x1,-0x4bc(%rbp)
   1d281:	00 00 00 
   1d284:	eb 1a                	jmp    1d2a0 <func_97+0x1336>
   1d286:	48 c7 85 18 fc ff ff 	movq   $0xffffffffffffffff,-0x3e8(%rbp)
   1d28d:	ff ff ff ff 
   1d291:	48 83 ad 18 fc ff ff 	subq   $0x1,-0x3e8(%rbp)
   1d298:	01 
   1d299:	83 ad 44 fb ff ff 01 	subl   $0x1,-0x4bc(%rbp)
   1d2a0:	83 bd 44 fb ff ff 00 	cmpl   $0x0,-0x4bc(%rbp)
   1d2a7:	79 dd                	jns    1d286 <func_97+0x131c>
   1d2a9:	48 8b 05 30 71 00 00 	mov    0x7130(%rip),%rax        # 243e0 <g_143>
   1d2b0:	48 83 c0 01          	add    $0x1,%rax
   1d2b4:	48 89 05 25 71 00 00 	mov    %rax,0x7125(%rip)        # 243e0 <g_143>
   1d2bb:	48 8b 05 1e 71 00 00 	mov    0x711e(%rip),%rax        # 243e0 <g_143>
   1d2c2:	48 83 f8 12          	cmp    $0x12,%rax
   1d2c6:	0f 84 b7 fa ff ff    	je     1cd83 <func_97+0xe19>
   1d2cc:	eb 04                	jmp    1d2d2 <func_97+0x1368>
   1d2ce:	90                   	nop
   1d2cf:	eb 01                	jmp    1d2d2 <func_97+0x1368>
   1d2d1:	90                   	nop
   1d2d2:	c7 85 2c fb ff ff 00 	movl   $0x0,-0x4d4(%rbp)
   1d2d9:	00 00 00 
   1d2dc:	e9 2a 04 00 00       	jmpq   1d70b <func_97+0x17a1>
   1d2e1:	48 8d 05 70 9f 00 00 	lea    0x9f70(%rip),%rax        # 27258 <g_58+0x18>
   1d2e8:	48 89 85 40 fd ff ff 	mov    %rax,-0x2c0(%rbp)
   1d2ef:	48 8d 05 62 9f 00 00 	lea    0x9f62(%rip),%rax        # 27258 <g_58+0x18>
   1d2f6:	48 89 85 48 fd ff ff 	mov    %rax,-0x2b8(%rbp)
   1d2fd:	48 8d 05 54 9f 00 00 	lea    0x9f54(%rip),%rax        # 27258 <g_58+0x18>
   1d304:	48 89 85 50 fd ff ff 	mov    %rax,-0x2b0(%rbp)
   1d30b:	48 8d 05 46 9f 00 00 	lea    0x9f46(%rip),%rax        # 27258 <g_58+0x18>
   1d312:	48 89 85 58 fd ff ff 	mov    %rax,-0x2a8(%rbp)
   1d319:	48 8d 05 38 9f 00 00 	lea    0x9f38(%rip),%rax        # 27258 <g_58+0x18>
   1d320:	48 89 85 60 fd ff ff 	mov    %rax,-0x2a0(%rbp)
   1d327:	48 b8 46 5a 1d 8b 38 	movabs $0xc395d0388b1d5a46,%rax
   1d32e:	d0 95 c3 
   1d331:	48 89 85 30 fc ff ff 	mov    %rax,-0x3d0(%rbp)
   1d338:	48 c7 85 38 fc ff ff 	movq   $0x0,-0x3c8(%rbp)
   1d33f:	00 00 00 00 
   1d343:	48 c7 85 d0 fd ff ff 	movq   $0x0,-0x230(%rbp)
   1d34a:	00 00 00 00 
   1d34e:	48 8d 05 8b 70 00 00 	lea    0x708b(%rip),%rax        # 243e0 <g_143>
   1d355:	48 89 85 d8 fd ff ff 	mov    %rax,-0x228(%rbp)
   1d35c:	48 8d 05 7d 70 00 00 	lea    0x707d(%rip),%rax        # 243e0 <g_143>
   1d363:	48 89 85 e0 fd ff ff 	mov    %rax,-0x220(%rbp)
   1d36a:	48 8d 05 6f 70 00 00 	lea    0x706f(%rip),%rax        # 243e0 <g_143>
   1d371:	48 89 85 e8 fd ff ff 	mov    %rax,-0x218(%rbp)
   1d378:	48 c7 85 f0 fd ff ff 	movq   $0x0,-0x210(%rbp)
   1d37f:	00 00 00 00 
   1d383:	48 8d 05 56 70 00 00 	lea    0x7056(%rip),%rax        # 243e0 <g_143>
   1d38a:	48 89 85 f8 fd ff ff 	mov    %rax,-0x208(%rbp)
   1d391:	48 c7 85 00 fe ff ff 	movq   $0x0,-0x200(%rbp)
   1d398:	00 00 00 00 
   1d39c:	48 c7 85 08 fe ff ff 	movq   $0x0,-0x1f8(%rbp)
   1d3a3:	00 00 00 00 
   1d3a7:	48 c7 85 10 fe ff ff 	movq   $0x0,-0x1f0(%rbp)
   1d3ae:	00 00 00 00 
   1d3b2:	48 c7 85 18 fe ff ff 	movq   $0x0,-0x1e8(%rbp)
   1d3b9:	00 00 00 00 
   1d3bd:	48 c7 85 20 fe ff ff 	movq   $0x0,-0x1e0(%rbp)
   1d3c4:	00 00 00 00 
   1d3c8:	48 c7 85 28 fe ff ff 	movq   $0x0,-0x1d8(%rbp)
   1d3cf:	00 00 00 00 
   1d3d3:	48 c7 85 30 fe ff ff 	movq   $0x0,-0x1d0(%rbp)
   1d3da:	00 00 00 00 
   1d3de:	48 c7 85 38 fe ff ff 	movq   $0x0,-0x1c8(%rbp)
   1d3e5:	00 00 00 00 
   1d3e9:	48 c7 85 40 fe ff ff 	movq   $0x0,-0x1c0(%rbp)
   1d3f0:	00 00 00 00 
   1d3f4:	48 8d 05 e5 6f 00 00 	lea    0x6fe5(%rip),%rax        # 243e0 <g_143>
   1d3fb:	48 89 85 48 fe ff ff 	mov    %rax,-0x1b8(%rbp)
   1d402:	48 c7 85 50 fe ff ff 	movq   $0x0,-0x1b0(%rbp)
   1d409:	00 00 00 00 
   1d40d:	48 8d 05 cc 6f 00 00 	lea    0x6fcc(%rip),%rax        # 243e0 <g_143>
   1d414:	48 89 85 58 fe ff ff 	mov    %rax,-0x1a8(%rbp)
   1d41b:	48 c7 85 60 fe ff ff 	movq   $0x0,-0x1a0(%rbp)
   1d422:	00 00 00 00 
   1d426:	48 8d 05 b3 6f 00 00 	lea    0x6fb3(%rip),%rax        # 243e0 <g_143>
   1d42d:	48 89 85 68 fe ff ff 	mov    %rax,-0x198(%rbp)
   1d434:	48 c7 85 70 fe ff ff 	movq   $0x0,-0x190(%rbp)
   1d43b:	00 00 00 00 
   1d43f:	48 c7 85 78 fe ff ff 	movq   $0x0,-0x188(%rbp)
   1d446:	00 00 00 00 
   1d44a:	48 c7 85 80 fe ff ff 	movq   $0x0,-0x180(%rbp)
   1d451:	00 00 00 00 
   1d455:	48 8d 05 84 6f 00 00 	lea    0x6f84(%rip),%rax        # 243e0 <g_143>
   1d45c:	48 89 85 88 fe ff ff 	mov    %rax,-0x178(%rbp)
   1d463:	48 c7 85 90 fe ff ff 	movq   $0x0,-0x170(%rbp)
   1d46a:	00 00 00 00 
   1d46e:	48 c7 85 98 fe ff ff 	movq   $0x0,-0x168(%rbp)
   1d475:	00 00 00 00 
   1d479:	48 8d 05 60 6f 00 00 	lea    0x6f60(%rip),%rax        # 243e0 <g_143>
   1d480:	48 89 85 a0 fe ff ff 	mov    %rax,-0x160(%rbp)
   1d487:	48 c7 85 a8 fe ff ff 	movq   $0x0,-0x158(%rbp)
   1d48e:	00 00 00 00 
   1d492:	c7 85 60 fb ff ff 00 	movl   $0x0,-0x4a0(%rbp)
   1d499:	00 00 00 
   1d49c:	eb 1b                	jmp    1d4b9 <func_97+0x154f>
   1d49e:	8b 85 60 fb ff ff    	mov    -0x4a0(%rbp),%eax
   1d4a4:	48 98                	cltq   
   1d4a6:	48 c7 84 c5 e0 fc ff 	movq   $0x0,-0x320(%rbp,%rax,8)
   1d4ad:	ff 00 00 00 00 
   1d4b2:	83 85 60 fb ff ff 01 	addl   $0x1,-0x4a0(%rbp)
   1d4b9:	83 bd 60 fb ff ff 01 	cmpl   $0x1,-0x4a0(%rbp)
   1d4c0:	7e dc                	jle    1d49e <func_97+0x1534>
   1d4c2:	48 8b 15 97 9d 00 00 	mov    0x9d97(%rip),%rdx        # 27260 <g_57>
   1d4c9:	48 8b 05 90 9d 00 00 	mov    0x9d90(%rip),%rax        # 27260 <g_57>
   1d4d0:	48 8b 12             	mov    (%rdx),%rdx
   1d4d3:	48 89 10             	mov    %rdx,(%rax)
   1d4d6:	8b 85 2c fb ff ff    	mov    -0x4d4(%rbp),%eax
   1d4dc:	0f b6 d8             	movzbl %al,%ebx
   1d4df:	0f b7 05 62 b7 00 00 	movzwl 0xb762(%rip),%eax        # 28c48 <g_51>
   1d4e6:	44 0f b7 e0          	movzwl %ax,%r12d
   1d4ea:	8b 05 10 6c 00 00    	mov    0x6c10(%rip),%eax        # 24100 <g_3>
   1d4f0:	41 89 c6             	mov    %eax,%r14d
   1d4f3:	8b 85 2c fb ff ff    	mov    -0x4d4(%rbp),%eax
   1d4f9:	4c 63 e8             	movslq %eax,%r13
   1d4fc:	8b 85 2c fb ff ff    	mov    -0x4d4(%rbp),%eax
   1d502:	98                   	cwtl   
   1d503:	be 09 00 00 00       	mov    $0x9,%esi
   1d508:	89 c7                	mov    %eax,%edi
   1d50a:	e8 1b e0 fe ff       	callq  b52a <safe_rshift_func_int16_t_s_s>
   1d50f:	98                   	cwtl   
   1d510:	39 85 2c fb ff ff    	cmp    %eax,-0x4d4(%rbp)
   1d516:	0f 9c c0             	setl   %al
   1d519:	0f b6 c0             	movzbl %al,%eax
   1d51c:	39 85 2c fb ff ff    	cmp    %eax,-0x4d4(%rbp)
   1d522:	0f 9c c0             	setl   %al
   1d525:	0f b6 c0             	movzbl %al,%eax
   1d528:	8b 95 2c fb ff ff    	mov    -0x4d4(%rbp),%edx
   1d52e:	89 d6                	mov    %edx,%esi
   1d530:	89 c7                	mov    %eax,%edi
   1d532:	e8 95 e1 fe ff       	callq  b6cc <safe_mod_func_int32_t_s_s>
   1d537:	83 f8 fb             	cmp    $0xfffffffb,%eax
   1d53a:	0f 9d c0             	setge  %al
   1d53d:	0f b6 c0             	movzbl %al,%eax
   1d540:	39 85 2c fb ff ff    	cmp    %eax,-0x4d4(%rbp)
   1d546:	0f 9e c0             	setle  %al
   1d549:	0f b6 d0             	movzbl %al,%edx
   1d54c:	48 8b 85 c8 fb ff ff 	mov    -0x438(%rbp),%rax
   1d553:	0f b6 00             	movzbl (%rax),%eax
   1d556:	8d 70 ff             	lea    -0x1(%rax),%esi
   1d559:	48 8b 8d c8 fb ff ff 	mov    -0x438(%rbp),%rcx
   1d560:	40 88 31             	mov    %sil,(%rcx)
   1d563:	88 05 8e 6e 00 00    	mov    %al,0x6e8e(%rip)        # 243f7 <g_336>
   1d569:	0f b6 05 87 6e 00 00 	movzbl 0x6e87(%rip),%eax        # 243f7 <g_336>
   1d570:	0f b6 c0             	movzbl %al,%eax
   1d573:	89 d6                	mov    %edx,%esi
   1d575:	89 c7                	mov    %eax,%edi
   1d577:	e8 17 e6 fe ff       	callq  bb93 <safe_mul_func_uint8_t_u_u>
   1d57c:	0f b6 d0             	movzbl %al,%edx
   1d57f:	48 8b 05 0a ba 00 00 	mov    0xba0a(%rip),%rax        # 28f90 <g_235>
   1d586:	48 39 c2             	cmp    %rax,%rdx
   1d589:	0f 95 c0             	setne  %al
   1d58c:	0f b6 c0             	movzbl %al,%eax
   1d58f:	4c 89 ee             	mov    %r13,%rsi
   1d592:	48 89 c7             	mov    %rax,%rdi
   1d595:	e8 1a e4 fe ff       	callq  b9b4 <safe_mod_func_int64_t_s_s>
   1d59a:	81 bd 2c fb ff ff 50 	cmpl   $0x8b50,-0x4d4(%rbp)
   1d5a1:	8b 00 00 
   1d5a4:	0f 9f c0             	setg   %al
   1d5a7:	0f b6 c0             	movzbl %al,%eax
   1d5aa:	44 89 f6             	mov    %r14d,%esi
   1d5ad:	89 c7                	mov    %eax,%edi
   1d5af:	e8 52 e8 fe ff       	callq  be06 <safe_lshift_func_uint16_t_u_u>
   1d5b4:	0f b7 c0             	movzwl %ax,%eax
   1d5b7:	be bc 49 00 00       	mov    $0x49bc,%esi
   1d5bc:	89 c7                	mov    %eax,%edi
   1d5be:	e8 7a e7 fe ff       	callq  bd3d <safe_mul_func_uint16_t_u_u>
   1d5c3:	44 89 e6             	mov    %r12d,%esi
   1d5c6:	bf 01 00 00 00       	mov    $0x1,%edi
   1d5cb:	e8 ee e7 fe ff       	callq  bdbe <safe_lshift_func_uint16_t_u_s>
   1d5d0:	0f b6 c0             	movzbl %al,%eax
   1d5d3:	be 04 00 00 00       	mov    $0x4,%esi
   1d5d8:	89 c7                	mov    %eax,%edi
   1d5da:	e8 6d e6 fe ff       	callq  bc4c <safe_lshift_func_uint8_t_u_u>
   1d5df:	be f0 82 00 00       	mov    $0x82f0,%esi
   1d5e4:	bf 00 00 00 00       	mov    $0x0,%edi
   1d5e9:	e8 4f e7 fe ff       	callq  bd3d <safe_mul_func_uint16_t_u_u>
   1d5ee:	0f be c0             	movsbl %al,%eax
   1d5f1:	be 05 00 00 00       	mov    $0x5,%esi
   1d5f6:	89 c7                	mov    %eax,%edi
   1d5f8:	e8 f5 db fe ff       	callq  b1f2 <safe_sub_func_int8_t_s_s>
   1d5fd:	0f be c0             	movsbl %al,%eax
   1d600:	8b 95 2c fb ff ff    	mov    -0x4d4(%rbp),%edx
   1d606:	89 d6                	mov    %edx,%esi
   1d608:	89 c7                	mov    %eax,%edi
   1d60a:	e8 1b df fe ff       	callq  b52a <safe_rshift_func_int16_t_s_s>
   1d60f:	98                   	cwtl   
   1d610:	39 85 2c fb ff ff    	cmp    %eax,-0x4d4(%rbp)
   1d616:	0f 9d c0             	setge  %al
   1d619:	0f b6 c0             	movzbl %al,%eax
   1d61c:	8b 95 2c fb ff ff    	mov    -0x4d4(%rbp),%edx
   1d622:	89 d6                	mov    %edx,%esi
   1d624:	89 c7                	mov    %eax,%edi
   1d626:	e8 da e5 fe ff       	callq  bc05 <safe_lshift_func_uint8_t_u_s>
   1d62b:	8b 05 c7 6b 00 00    	mov    0x6bc7(%rip),%eax        # 241f8 <g_139+0x58>
   1d631:	85 c0                	test   %eax,%eax
   1d633:	74 07                	je     1d63c <func_97+0x16d2>
   1d635:	b8 01 00 00 00       	mov    $0x1,%eax
   1d63a:	eb 05                	jmp    1d641 <func_97+0x16d7>
   1d63c:	b8 00 00 00 00       	mov    $0x0,%eax
   1d641:	0f b6 c0             	movzbl %al,%eax
   1d644:	89 de                	mov    %ebx,%esi
   1d646:	89 c7                	mov    %eax,%edi
   1d648:	e8 2b e5 fe ff       	callq  bb78 <safe_sub_func_uint8_t_u_u>
   1d64d:	0f b6 c0             	movzbl %al,%eax
   1d650:	89 85 c8 fc ff ff    	mov    %eax,-0x338(%rbp)
   1d656:	0f b7 05 eb b5 00 00 	movzwl 0xb5eb(%rip),%eax        # 28c48 <g_51>
   1d65d:	0f b7 d8             	movzwl %ax,%ebx
   1d660:	48 8b 05 79 6d 00 00 	mov    0x6d79(%rip),%rax        # 243e0 <g_143>
   1d667:	0f b6 c0             	movzbl %al,%eax
   1d66a:	be 07 00 00 00       	mov    $0x7,%esi
   1d66f:	89 c7                	mov    %eax,%edi
   1d671:	e8 8f e5 fe ff       	callq  bc05 <safe_lshift_func_uint8_t_u_s>
   1d676:	0f b6 c0             	movzbl %al,%eax
   1d679:	89 c6                	mov    %eax,%esi
   1d67b:	bf 01 00 00 00       	mov    $0x1,%edi
   1d680:	e8 0e e5 fe ff       	callq  bb93 <safe_mul_func_uint8_t_u_u>
   1d685:	0f b6 c0             	movzbl %al,%eax
   1d688:	89 05 5a 6d 00 00    	mov    %eax,0x6d5a(%rip)        # 243e8 <g_147>
   1d68e:	44 8b 25 53 6d 00 00 	mov    0x6d53(%rip),%r12d        # 243e8 <g_147>
   1d695:	8b 85 2c fb ff ff    	mov    -0x4d4(%rbp),%eax
   1d69b:	98                   	cwtl   
   1d69c:	89 c7                	mov    %eax,%edi
   1d69e:	e8 fa dc fe ff       	callq  b39d <safe_unary_minus_func_int16_t_s>
   1d6a3:	8b 95 b4 fc ff ff    	mov    -0x34c(%rbp),%edx
   1d6a9:	98                   	cwtl   
   1d6aa:	09 d0                	or     %edx,%eax
   1d6ac:	89 85 b4 fc ff ff    	mov    %eax,-0x34c(%rbp)
   1d6b2:	48 c7 05 db b8 00 00 	movq   $0xffffffffffffffff,0xb8db(%rip)        # 28f98 <g_238>
   1d6b9:	ff ff ff ff 
   1d6bd:	c7 85 bc fc ff ff ff 	movl   $0xffffffff,-0x344(%rbp)
   1d6c4:	ff ff ff 
   1d6c7:	8b 05 a7 69 00 00    	mov    0x69a7(%rip),%eax        # 24074 <g_2+0x34>
   1d6cd:	85 c0                	test   %eax,%eax
   1d6cf:	74 07                	je     1d6d8 <func_97+0x176e>
   1d6d1:	b8 01 00 00 00       	mov    $0x1,%eax
   1d6d6:	eb 05                	jmp    1d6dd <func_97+0x1773>
   1d6d8:	b8 00 00 00 00       	mov    $0x0,%eax
   1d6dd:	3b 85 2c fb ff ff    	cmp    -0x4d4(%rbp),%eax
   1d6e3:	0f 9e c0             	setle  %al
   1d6e6:	0f b6 c0             	movzbl %al,%eax
   1d6e9:	41 39 c4             	cmp    %eax,%r12d
   1d6ec:	0f 95 c0             	setne  %al
   1d6ef:	0f b6 c0             	movzbl %al,%eax
   1d6f2:	31 c3                	xor    %eax,%ebx
   1d6f4:	89 da                	mov    %ebx,%edx
   1d6f6:	8b 85 40 fb ff ff    	mov    -0x4c0(%rbp),%eax
   1d6fc:	21 d0                	and    %edx,%eax
   1d6fe:	89 85 40 fb ff ff    	mov    %eax,-0x4c0(%rbp)
   1d704:	83 85 2c fb ff ff 01 	addl   $0x1,-0x4d4(%rbp)
   1d70b:	83 bd 2c fb ff ff 13 	cmpl   $0x13,-0x4d4(%rbp)
   1d712:	0f 8e c9 fb ff ff    	jle    1d2e1 <func_97+0x1377>
   1d718:	eb 4c                	jmp    1d766 <func_97+0x17fc>
   1d71a:	c7 85 2c fb ff ff 0b 	movl   $0xb,-0x4d4(%rbp)
   1d721:	00 00 00 
   1d724:	eb 37                	jmp    1d75d <func_97+0x17f3>
   1d726:	48 8d 05 e7 69 00 00 	lea    0x69e7(%rip),%rax        # 24114 <g_3+0x14>
   1d72d:	48 89 85 d8 fb ff ff 	mov    %rax,-0x428(%rbp)
   1d734:	48 8b 85 d8 fb ff ff 	mov    -0x428(%rbp),%rax
   1d73b:	48 89 85 20 fd ff ff 	mov    %rax,-0x2e0(%rbp)
   1d742:	8b 85 2c fb ff ff    	mov    -0x4d4(%rbp),%eax
   1d748:	48 98                	cltq   
   1d74a:	be 04 00 00 00       	mov    $0x4,%esi
   1d74f:	48 89 c7             	mov    %rax,%rdi
   1d752:	e8 f4 e8 fe ff       	callq  c04b <safe_sub_func_uint64_t_u_u>
   1d757:	89 85 2c fb ff ff    	mov    %eax,-0x4d4(%rbp)
   1d75d:	83 bd 2c fb ff ff f0 	cmpl   $0xfffffff0,-0x4d4(%rbp)
   1d764:	74 c0                	je     1d726 <func_97+0x17bc>
   1d766:	48 8b 85 b8 fb ff ff 	mov    -0x448(%rbp),%rax
   1d76d:	48 8b 00             	mov    (%rax),%rax
   1d770:	48 8b 4d c8          	mov    -0x38(%rbp),%rcx
   1d774:	64 48 33 0c 25 28 00 	xor    %fs:0x28,%rcx
   1d77b:	00 00 
   1d77d:	74 05                	je     1d784 <func_97+0x181a>
   1d77f:	e8 ec d8 fe ff       	callq  b070 <__stack_chk_fail@plt>
   1d784:	48 81 c4 b8 04 00 00 	add    $0x4b8,%rsp
   1d78b:	5b                   	pop    %rbx
   1d78c:	41 5c                	pop    %r12
   1d78e:	41 5d                	pop    %r13
   1d790:	41 5e                	pop    %r14
   1d792:	41 5f                	pop    %r15
   1d794:	5d                   	pop    %rbp
   1d795:	c3                   	retq   

000000000001d796 <main>:
   1d796:	f3 0f 1e fa          	endbr64 
   1d79a:	55                   	push   %rbp
   1d79b:	48 89 e5             	mov    %rsp,%rbp
   1d79e:	48 83 ec 20          	sub    $0x20,%rsp
   1d7a2:	89 7d ec             	mov    %edi,-0x14(%rbp)
   1d7a5:	48 89 75 e0          	mov    %rsi,-0x20(%rbp)
   1d7a9:	c7 45 fc 00 00 00 00 	movl   $0x0,-0x4(%rbp)
   1d7b0:	83 7d ec 02          	cmpl   $0x2,-0x14(%rbp)
   1d7b4:	75 25                	jne    1d7db <main+0x45>
   1d7b6:	48 8b 45 e0          	mov    -0x20(%rbp),%rax
   1d7ba:	48 83 c0 08          	add    $0x8,%rax
   1d7be:	48 8b 00             	mov    (%rax),%rax
   1d7c1:	48 8d 35 78 35 00 00 	lea    0x3578(%rip),%rsi        # 20d40 <g_985+0x1cdc>
   1d7c8:	48 89 c7             	mov    %rax,%rdi
   1d7cb:	e8 c0 d8 fe ff       	callq  b090 <strcmp@plt>
   1d7d0:	85 c0                	test   %eax,%eax
   1d7d2:	75 07                	jne    1d7db <main+0x45>
   1d7d4:	c7 45 fc 01 00 00 00 	movl   $0x1,-0x4(%rbp)
   1d7db:	e8 a9 d9 fe ff       	callq  b189 <platform_main_begin>
   1d7e0:	e8 b3 ed fe ff       	callq  c598 <crc32_gentab>
   1d7e5:	e8 cb ef fe ff       	callq  c7b5 <func_1>
   1d7ea:	c7 45 f0 00 00 00 00 	movl   $0x0,-0x10(%rbp)
   1d7f1:	e9 95 00 00 00       	jmpq   1d88b <main+0xf5>
   1d7f6:	c7 45 f4 00 00 00 00 	movl   $0x0,-0xc(%rbp)
   1d7fd:	eb 7e                	jmp    1d87d <main+0xe7>
   1d7ff:	c7 45 f8 00 00 00 00 	movl   $0x0,-0x8(%rbp)
   1d806:	eb 6b                	jmp    1d873 <main+0xdd>
   1d808:	8b 45 f8             	mov    -0x8(%rbp),%eax
   1d80b:	48 98                	cltq   
   1d80d:	8b 55 f0             	mov    -0x10(%rbp),%edx
   1d810:	48 63 ca             	movslq %edx,%rcx
   1d813:	8b 55 f4             	mov    -0xc(%rbp),%edx
   1d816:	48 63 d2             	movslq %edx,%rdx
   1d819:	48 c1 e1 02          	shl    $0x2,%rcx
   1d81d:	48 01 ca             	add    %rcx,%rdx
   1d820:	48 c1 e2 02          	shl    $0x2,%rdx
   1d824:	48 01 d0             	add    %rdx,%rax
   1d827:	48 8d 14 85 00 00 00 	lea    0x0(,%rax,4),%rdx
   1d82e:	00 
   1d82f:	48 8d 05 0a 68 00 00 	lea    0x680a(%rip),%rax        # 24040 <g_2>
   1d836:	8b 04 02             	mov    (%rdx,%rax,1),%eax
   1d839:	48 98                	cltq   
   1d83b:	8b 55 fc             	mov    -0x4(%rbp),%edx
   1d83e:	48 8d 35 fd 34 00 00 	lea    0x34fd(%rip),%rsi        # 20d42 <g_985+0x1cde>
   1d845:	48 89 c7             	mov    %rax,%rdi
   1d848:	e8 a6 ee fe ff       	callq  c6f3 <transparent_crc>
   1d84d:	83 7d fc 00          	cmpl   $0x0,-0x4(%rbp)
   1d851:	74 1c                	je     1d86f <main+0xd9>
   1d853:	8b 4d f8             	mov    -0x8(%rbp),%ecx
   1d856:	8b 55 f4             	mov    -0xc(%rbp),%edx
   1d859:	8b 45 f0             	mov    -0x10(%rbp),%eax
   1d85c:	89 c6                	mov    %eax,%esi
   1d85e:	48 8d 3d ea 34 00 00 	lea    0x34ea(%rip),%rdi        # 20d4f <g_985+0x1ceb>
   1d865:	b8 00 00 00 00       	mov    $0x0,%eax
   1d86a:	e8 11 d8 fe ff       	callq  b080 <printf@plt>
   1d86f:	83 45 f8 01          	addl   $0x1,-0x8(%rbp)
   1d873:	83 7d f8 03          	cmpl   $0x3,-0x8(%rbp)
   1d877:	7e 8f                	jle    1d808 <main+0x72>
   1d879:	83 45 f4 01          	addl   $0x1,-0xc(%rbp)
   1d87d:	83 7d f4 03          	cmpl   $0x3,-0xc(%rbp)
   1d881:	0f 8e 78 ff ff ff    	jle    1d7ff <main+0x69>
   1d887:	83 45 f0 01          	addl   $0x1,-0x10(%rbp)
   1d88b:	83 7d f0 02          	cmpl   $0x2,-0x10(%rbp)
   1d88f:	0f 8e 61 ff ff ff    	jle    1d7f6 <main+0x60>
   1d895:	c7 45 f0 00 00 00 00 	movl   $0x0,-0x10(%rbp)
   1d89c:	eb 4b                	jmp    1d8e9 <main+0x153>
   1d89e:	8b 45 f0             	mov    -0x10(%rbp),%eax
   1d8a1:	48 98                	cltq   
   1d8a3:	48 8d 14 85 00 00 00 	lea    0x0(,%rax,4),%rdx
   1d8aa:	00 
   1d8ab:	48 8d 05 4e 68 00 00 	lea    0x684e(%rip),%rax        # 24100 <g_3>
   1d8b2:	8b 04 02             	mov    (%rdx,%rax,1),%eax
   1d8b5:	48 98                	cltq   
   1d8b7:	8b 55 fc             	mov    -0x4(%rbp),%edx
   1d8ba:	48 8d 35 a4 34 00 00 	lea    0x34a4(%rip),%rsi        # 20d65 <g_985+0x1d01>
   1d8c1:	48 89 c7             	mov    %rax,%rdi
   1d8c4:	e8 2a ee fe ff       	callq  c6f3 <transparent_crc>
   1d8c9:	83 7d fc 00          	cmpl   $0x0,-0x4(%rbp)
   1d8cd:	74 16                	je     1d8e5 <main+0x14f>
   1d8cf:	8b 45 f0             	mov    -0x10(%rbp),%eax
   1d8d2:	89 c6                	mov    %eax,%esi
   1d8d4:	48 8d 3d 91 34 00 00 	lea    0x3491(%rip),%rdi        # 20d6c <g_985+0x1d08>
   1d8db:	b8 00 00 00 00       	mov    $0x0,%eax
   1d8e0:	e8 9b d7 fe ff       	callq  b080 <printf@plt>
   1d8e5:	83 45 f0 01          	addl   $0x1,-0x10(%rbp)
   1d8e9:	83 7d f0 08          	cmpl   $0x8,-0x10(%rbp)
   1d8ed:	7e af                	jle    1d89e <main+0x108>
   1d8ef:	8b 05 2f 68 00 00    	mov    0x682f(%rip),%eax        # 24124 <g_7>
   1d8f5:	48 98                	cltq   
   1d8f7:	8b 55 fc             	mov    -0x4(%rbp),%edx
   1d8fa:	48 8d 35 79 34 00 00 	lea    0x3479(%rip),%rsi        # 20d7a <g_985+0x1d16>
   1d901:	48 89 c7             	mov    %rax,%rdi
   1d904:	e8 ea ed fe ff       	callq  c6f3 <transparent_crc>
   1d909:	8b 05 19 68 00 00    	mov    0x6819(%rip),%eax        # 24128 <g_18>
   1d90f:	48 98                	cltq   
   1d911:	8b 55 fc             	mov    -0x4(%rbp),%edx
   1d914:	48 8d 35 63 34 00 00 	lea    0x3463(%rip),%rsi        # 20d7e <g_985+0x1d1a>
   1d91b:	48 89 c7             	mov    %rax,%rdi
   1d91e:	e8 d0 ed fe ff       	callq  c6f3 <transparent_crc>
   1d923:	c7 45 f0 00 00 00 00 	movl   $0x0,-0x10(%rbp)
   1d92a:	eb 78                	jmp    1d9a4 <main+0x20e>
   1d92c:	8b 45 f0             	mov    -0x10(%rbp),%eax
   1d92f:	48 98                	cltq   
   1d931:	48 8d 14 c5 00 00 00 	lea    0x0(,%rax,8),%rdx
   1d938:	00 
   1d939:	48 8d 05 08 b3 00 00 	lea    0xb308(%rip),%rax        # 28c48 <g_51>
   1d940:	8b 04 02             	mov    (%rdx,%rax,1),%eax
   1d943:	48 98                	cltq   
   1d945:	8b 55 fc             	mov    -0x4(%rbp),%edx
   1d948:	48 8d 35 34 34 00 00 	lea    0x3434(%rip),%rsi        # 20d83 <g_985+0x1d1f>
   1d94f:	48 89 c7             	mov    %rax,%rdi
   1d952:	e8 9c ed fe ff       	callq  c6f3 <transparent_crc>
   1d957:	8b 45 f0             	mov    -0x10(%rbp),%eax
   1d95a:	48 98                	cltq   
   1d95c:	48 8d 14 c5 00 00 00 	lea    0x0(,%rax,8),%rdx
   1d963:	00 
   1d964:	48 8d 05 dd b2 00 00 	lea    0xb2dd(%rip),%rax        # 28c48 <g_51>
   1d96b:	0f b7 04 02          	movzwl (%rdx,%rax,1),%eax
   1d96f:	0f b7 c0             	movzwl %ax,%eax
   1d972:	8b 55 fc             	mov    -0x4(%rbp),%edx
   1d975:	48 8d 35 12 34 00 00 	lea    0x3412(%rip),%rsi        # 20d8e <g_985+0x1d2a>
   1d97c:	48 89 c7             	mov    %rax,%rdi
   1d97f:	e8 6f ed fe ff       	callq  c6f3 <transparent_crc>
   1d984:	83 7d fc 00          	cmpl   $0x0,-0x4(%rbp)
   1d988:	74 16                	je     1d9a0 <main+0x20a>
   1d98a:	8b 45 f0             	mov    -0x10(%rbp),%eax
   1d98d:	89 c6                	mov    %eax,%esi
   1d98f:	48 8d 3d d6 33 00 00 	lea    0x33d6(%rip),%rdi        # 20d6c <g_985+0x1d08>
   1d996:	b8 00 00 00 00       	mov    $0x0,%eax
   1d99b:	e8 e0 d6 fe ff       	callq  b080 <printf@plt>
   1d9a0:	83 45 f0 01          	addl   $0x1,-0x10(%rbp)
   1d9a4:	83 7d f0 00          	cmpl   $0x0,-0x10(%rbp)
   1d9a8:	7e 82                	jle    1d92c <main+0x196>
   1d9aa:	c7 45 f0 00 00 00 00 	movl   $0x0,-0x10(%rbp)
   1d9b1:	eb 4b                	jmp    1d9fe <main+0x268>
   1d9b3:	8b 45 f0             	mov    -0x10(%rbp),%eax
   1d9b6:	48 98                	cltq   
   1d9b8:	48 8d 14 85 00 00 00 	lea    0x0(,%rax,4),%rdx
   1d9bf:	00 
   1d9c0:	48 8d 05 69 67 00 00 	lea    0x6769(%rip),%rax        # 24130 <g_59>
   1d9c7:	8b 04 02             	mov    (%rdx,%rax,1),%eax
   1d9ca:	48 98                	cltq   
   1d9cc:	8b 55 fc             	mov    -0x4(%rbp),%edx
   1d9cf:	48 8d 35 c3 33 00 00 	lea    0x33c3(%rip),%rsi        # 20d99 <g_985+0x1d35>
   1d9d6:	48 89 c7             	mov    %rax,%rdi
   1d9d9:	e8 15 ed fe ff       	callq  c6f3 <transparent_crc>
   1d9de:	83 7d fc 00          	cmpl   $0x0,-0x4(%rbp)
   1d9e2:	74 16                	je     1d9fa <main+0x264>
   1d9e4:	8b 45 f0             	mov    -0x10(%rbp),%eax
   1d9e7:	89 c6                	mov    %eax,%esi
   1d9e9:	48 8d 3d 7c 33 00 00 	lea    0x337c(%rip),%rdi        # 20d6c <g_985+0x1d08>
   1d9f0:	b8 00 00 00 00       	mov    $0x0,%eax
   1d9f5:	e8 86 d6 fe ff       	callq  b080 <printf@plt>
   1d9fa:	83 45 f0 01          	addl   $0x1,-0x10(%rbp)
   1d9fe:	83 7d f0 03          	cmpl   $0x3,-0x10(%rbp)
   1da02:	7e af                	jle    1d9b3 <main+0x21d>
   1da04:	8b 05 36 67 00 00    	mov    0x6736(%rip),%eax        # 24140 <g_74>
   1da0a:	89 c1                	mov    %eax,%ecx
   1da0c:	8b 45 fc             	mov    -0x4(%rbp),%eax
   1da0f:	89 c2                	mov    %eax,%edx
   1da11:	48 8d 35 89 33 00 00 	lea    0x3389(%rip),%rsi        # 20da1 <g_985+0x1d3d>
   1da18:	48 89 cf             	mov    %rcx,%rdi
   1da1b:	e8 d3 ec fe ff       	callq  c6f3 <transparent_crc>
   1da20:	c7 45 f0 00 00 00 00 	movl   $0x0,-0x10(%rbp)
   1da27:	e9 b5 00 00 00       	jmpq   1dae1 <main+0x34b>
   1da2c:	c7 45 f4 00 00 00 00 	movl   $0x0,-0xc(%rbp)
   1da33:	e9 9b 00 00 00       	jmpq   1dad3 <main+0x33d>
   1da38:	c7 45 f8 00 00 00 00 	movl   $0x0,-0x8(%rbp)
   1da3f:	e9 81 00 00 00       	jmpq   1dac5 <main+0x32f>
   1da44:	8b 45 f8             	mov    -0x8(%rbp),%eax
   1da47:	48 63 f0             	movslq %eax,%rsi
   1da4a:	8b 45 f0             	mov    -0x10(%rbp),%eax
   1da4d:	48 63 d0             	movslq %eax,%rdx
   1da50:	8b 45 f4             	mov    -0xc(%rbp),%eax
   1da53:	48 63 c8             	movslq %eax,%rcx
   1da56:	48 89 d0             	mov    %rdx,%rax
   1da59:	48 c1 e0 02          	shl    $0x2,%rax
   1da5d:	48 01 d0             	add    %rdx,%rax
   1da60:	48 8d 14 85 00 00 00 	lea    0x0(,%rax,4),%rdx
   1da67:	00 
   1da68:	48 01 d0             	add    %rdx,%rax
   1da6b:	48 89 ca             	mov    %rcx,%rdx
   1da6e:	48 c1 e2 02          	shl    $0x2,%rdx
   1da72:	48 01 ca             	add    %rcx,%rdx
   1da75:	48 01 d0             	add    %rdx,%rax
   1da78:	48 8d 14 30          	lea    (%rax,%rsi,1),%rdx
   1da7c:	48 8d 05 dd 66 00 00 	lea    0x66dd(%rip),%rax        # 24160 <g_90>
   1da83:	48 01 d0             	add    %rdx,%rax
   1da86:	0f b6 00             	movzbl (%rax),%eax
   1da89:	48 0f be c0          	movsbq %al,%rax
   1da8d:	8b 55 fc             	mov    -0x4(%rbp),%edx
   1da90:	48 8d 35 0f 33 00 00 	lea    0x330f(%rip),%rsi        # 20da6 <g_985+0x1d42>
   1da97:	48 89 c7             	mov    %rax,%rdi
   1da9a:	e8 54 ec fe ff       	callq  c6f3 <transparent_crc>
   1da9f:	83 7d fc 00          	cmpl   $0x0,-0x4(%rbp)
   1daa3:	74 1c                	je     1dac1 <main+0x32b>
   1daa5:	8b 4d f8             	mov    -0x8(%rbp),%ecx
   1daa8:	8b 55 f4             	mov    -0xc(%rbp),%edx
   1daab:	8b 45 f0             	mov    -0x10(%rbp),%eax
   1daae:	89 c6                	mov    %eax,%esi
   1dab0:	48 8d 3d 98 32 00 00 	lea    0x3298(%rip),%rdi        # 20d4f <g_985+0x1ceb>
   1dab7:	b8 00 00 00 00       	mov    $0x0,%eax
   1dabc:	e8 bf d5 fe ff       	callq  b080 <printf@plt>
   1dac1:	83 45 f8 01          	addl   $0x1,-0x8(%rbp)
   1dac5:	83 7d f8 04          	cmpl   $0x4,-0x8(%rbp)
   1dac9:	0f 8e 75 ff ff ff    	jle    1da44 <main+0x2ae>
   1dacf:	83 45 f4 01          	addl   $0x1,-0xc(%rbp)
   1dad3:	83 7d f4 04          	cmpl   $0x4,-0xc(%rbp)
   1dad7:	0f 8e 5b ff ff ff    	jle    1da38 <main+0x2a2>
   1dadd:	83 45 f0 01          	addl   $0x1,-0x10(%rbp)
   1dae1:	83 7d f0 01          	cmpl   $0x1,-0x10(%rbp)
   1dae5:	0f 8e 41 ff ff ff    	jle    1da2c <main+0x296>
   1daeb:	0f b7 05 a0 66 00 00 	movzwl 0x66a0(%rip),%eax        # 24192 <g_129>
   1daf2:	0f b7 c0             	movzwl %ax,%eax
   1daf5:	8b 55 fc             	mov    -0x4(%rbp),%edx
   1daf8:	48 8d 35 b5 32 00 00 	lea    0x32b5(%rip),%rsi        # 20db4 <g_985+0x1d50>
   1daff:	48 89 c7             	mov    %rax,%rdi
   1db02:	e8 ec eb fe ff       	callq  c6f3 <transparent_crc>
   1db07:	8b 05 87 66 00 00    	mov    0x6687(%rip),%eax        # 24194 <g_133>
   1db0d:	48 98                	cltq   
   1db0f:	8b 55 fc             	mov    -0x4(%rbp),%edx
   1db12:	48 8d 35 a1 32 00 00 	lea    0x32a1(%rip),%rsi        # 20dba <g_985+0x1d56>
   1db19:	48 89 c7             	mov    %rax,%rdi
   1db1c:	e8 d2 eb fe ff       	callq  c6f3 <transparent_crc>
   1db21:	c7 45 f0 00 00 00 00 	movl   $0x0,-0x10(%rbp)
   1db28:	eb 74                	jmp    1db9e <main+0x408>
   1db2a:	c7 45 f4 00 00 00 00 	movl   $0x0,-0xc(%rbp)
   1db31:	eb 61                	jmp    1db94 <main+0x3fe>
   1db33:	8b 45 f4             	mov    -0xc(%rbp),%eax
   1db36:	48 63 c8             	movslq %eax,%rcx
   1db39:	8b 45 f0             	mov    -0x10(%rbp),%eax
   1db3c:	48 63 d0             	movslq %eax,%rdx
   1db3f:	48 89 d0             	mov    %rdx,%rax
   1db42:	48 01 c0             	add    %rax,%rax
   1db45:	48 01 d0             	add    %rdx,%rax
   1db48:	48 01 c8             	add    %rcx,%rax
   1db4b:	48 8d 14 85 00 00 00 	lea    0x0(,%rax,4),%rdx
   1db52:	00 
   1db53:	48 8d 05 46 66 00 00 	lea    0x6646(%rip),%rax        # 241a0 <g_139>
   1db5a:	8b 04 02             	mov    (%rdx,%rax,1),%eax
   1db5d:	48 98                	cltq   
   1db5f:	8b 55 fc             	mov    -0x4(%rbp),%edx
   1db62:	48 8d 35 57 32 00 00 	lea    0x3257(%rip),%rsi        # 20dc0 <g_985+0x1d5c>
   1db69:	48 89 c7             	mov    %rax,%rdi
   1db6c:	e8 82 eb fe ff       	callq  c6f3 <transparent_crc>
   1db71:	83 7d fc 00          	cmpl   $0x0,-0x4(%rbp)
   1db75:	74 19                	je     1db90 <main+0x3fa>
   1db77:	8b 55 f4             	mov    -0xc(%rbp),%edx
   1db7a:	8b 45 f0             	mov    -0x10(%rbp),%eax
   1db7d:	89 c6                	mov    %eax,%esi
   1db7f:	48 8d 3d 46 32 00 00 	lea    0x3246(%rip),%rdi        # 20dcc <g_985+0x1d68>
   1db86:	b8 00 00 00 00       	mov    $0x0,%eax
   1db8b:	e8 f0 d4 fe ff       	callq  b080 <printf@plt>
   1db90:	83 45 f4 01          	addl   $0x1,-0xc(%rbp)
   1db94:	83 7d f4 02          	cmpl   $0x2,-0xc(%rbp)
   1db98:	7e 99                	jle    1db33 <main+0x39d>
   1db9a:	83 45 f0 01          	addl   $0x1,-0x10(%rbp)
   1db9e:	83 7d f0 07          	cmpl   $0x7,-0x10(%rbp)
   1dba2:	7e 86                	jle    1db2a <main+0x394>
   1dba4:	c7 45 f0 00 00 00 00 	movl   $0x0,-0x10(%rbp)
   1dbab:	e9 a2 00 00 00       	jmpq   1dc52 <main+0x4bc>
   1dbb0:	c7 45 f4 00 00 00 00 	movl   $0x0,-0xc(%rbp)
   1dbb7:	e9 88 00 00 00       	jmpq   1dc44 <main+0x4ae>
   1dbbc:	c7 45 f8 00 00 00 00 	movl   $0x0,-0x8(%rbp)
   1dbc3:	eb 75                	jmp    1dc3a <main+0x4a4>
   1dbc5:	8b 45 f8             	mov    -0x8(%rbp),%eax
   1dbc8:	48 63 c8             	movslq %eax,%rcx
   1dbcb:	8b 45 f0             	mov    -0x10(%rbp),%eax
   1dbce:	48 63 d0             	movslq %eax,%rdx
   1dbd1:	8b 45 f4             	mov    -0xc(%rbp),%eax
   1dbd4:	48 63 f0             	movslq %eax,%rsi
   1dbd7:	48 89 d0             	mov    %rdx,%rax
   1dbda:	48 01 c0             	add    %rax,%rax
   1dbdd:	48 01 d0             	add    %rdx,%rax
   1dbe0:	48 01 f0             	add    %rsi,%rax
   1dbe3:	48 c1 e0 02          	shl    $0x2,%rax
   1dbe7:	48 01 c8             	add    %rcx,%rax
   1dbea:	48 8d 14 c5 00 00 00 	lea    0x0(,%rax,8),%rdx
   1dbf1:	00 
   1dbf2:	48 8d 05 07 66 00 00 	lea    0x6607(%rip),%rax        # 24200 <g_141>
   1dbf9:	48 8b 04 02          	mov    (%rdx,%rax,1),%rax
   1dbfd:	48 89 c1             	mov    %rax,%rcx
   1dc00:	8b 45 fc             	mov    -0x4(%rbp),%eax
   1dc03:	89 c2                	mov    %eax,%edx
   1dc05:	48 8d 35 d2 31 00 00 	lea    0x31d2(%rip),%rsi        # 20dde <g_985+0x1d7a>
   1dc0c:	48 89 cf             	mov    %rcx,%rdi
   1dc0f:	e8 df ea fe ff       	callq  c6f3 <transparent_crc>
   1dc14:	83 7d fc 00          	cmpl   $0x0,-0x4(%rbp)
   1dc18:	74 1c                	je     1dc36 <main+0x4a0>
   1dc1a:	8b 4d f8             	mov    -0x8(%rbp),%ecx
   1dc1d:	8b 55 f4             	mov    -0xc(%rbp),%edx
   1dc20:	8b 45 f0             	mov    -0x10(%rbp),%eax
   1dc23:	89 c6                	mov    %eax,%esi
   1dc25:	48 8d 3d 23 31 00 00 	lea    0x3123(%rip),%rdi        # 20d4f <g_985+0x1ceb>
   1dc2c:	b8 00 00 00 00       	mov    $0x0,%eax
   1dc31:	e8 4a d4 fe ff       	callq  b080 <printf@plt>
   1dc36:	83 45 f8 01          	addl   $0x1,-0x8(%rbp)
   1dc3a:	83 7d f8 03          	cmpl   $0x3,-0x8(%rbp)
   1dc3e:	7e 85                	jle    1dbc5 <main+0x42f>
   1dc40:	83 45 f4 01          	addl   $0x1,-0xc(%rbp)
   1dc44:	83 7d f4 02          	cmpl   $0x2,-0xc(%rbp)
   1dc48:	0f 8e 6e ff ff ff    	jle    1dbbc <main+0x426>
   1dc4e:	83 45 f0 01          	addl   $0x1,-0x10(%rbp)
   1dc52:	83 7d f0 04          	cmpl   $0x4,-0x10(%rbp)
   1dc56:	0f 8e 54 ff ff ff    	jle    1dbb0 <main+0x41a>
   1dc5c:	48 8b 05 7d 67 00 00 	mov    0x677d(%rip),%rax        # 243e0 <g_143>
   1dc63:	8b 55 fc             	mov    -0x4(%rbp),%edx
   1dc66:	48 8d 35 80 31 00 00 	lea    0x3180(%rip),%rsi        # 20ded <g_985+0x1d89>
   1dc6d:	48 89 c7             	mov    %rax,%rdi
   1dc70:	e8 7e ea fe ff       	callq  c6f3 <transparent_crc>
   1dc75:	8b 05 6d 67 00 00    	mov    0x676d(%rip),%eax        # 243e8 <g_147>
   1dc7b:	89 c1                	mov    %eax,%ecx
   1dc7d:	8b 45 fc             	mov    -0x4(%rbp),%eax
   1dc80:	89 c2                	mov    %eax,%edx
   1dc82:	48 8d 35 6a 31 00 00 	lea    0x316a(%rip),%rsi        # 20df3 <g_985+0x1d8f>
   1dc89:	48 89 cf             	mov    %rcx,%rdi
   1dc8c:	e8 62 ea fe ff       	callq  c6f3 <transparent_crc>
   1dc91:	0f b6 05 54 67 00 00 	movzbl 0x6754(%rip),%eax        # 243ec <g_161>
   1dc98:	0f b6 c0             	movzbl %al,%eax
   1dc9b:	8b 55 fc             	mov    -0x4(%rbp),%edx
   1dc9e:	48 8d 35 54 31 00 00 	lea    0x3154(%rip),%rsi        # 20df9 <g_985+0x1d95>
   1dca5:	48 89 c7             	mov    %rax,%rdi
   1dca8:	e8 46 ea fe ff       	callq  c6f3 <transparent_crc>
   1dcad:	48 8b 05 cc b2 00 00 	mov    0xb2cc(%rip),%rax        # 28f80 <g_210>
   1dcb4:	48 89 c1             	mov    %rax,%rcx
   1dcb7:	8b 45 fc             	mov    -0x4(%rbp),%eax
   1dcba:	89 c2                	mov    %eax,%edx
   1dcbc:	48 8d 35 3c 31 00 00 	lea    0x313c(%rip),%rsi        # 20dff <g_985+0x1d9b>
   1dcc3:	48 89 cf             	mov    %rcx,%rdi
   1dcc6:	e8 28 ea fe ff       	callq  c6f3 <transparent_crc>
   1dccb:	48 8b 05 be b2 00 00 	mov    0xb2be(%rip),%rax        # 28f90 <g_235>
   1dcd2:	48 89 c1             	mov    %rax,%rcx
   1dcd5:	8b 45 fc             	mov    -0x4(%rbp),%eax
   1dcd8:	89 c2                	mov    %eax,%edx
   1dcda:	48 8d 35 24 31 00 00 	lea    0x3124(%rip),%rsi        # 20e05 <g_985+0x1da1>
   1dce1:	48 89 cf             	mov    %rcx,%rdi
   1dce4:	e8 0a ea fe ff       	callq  c6f3 <transparent_crc>
   1dce9:	c7 45 f0 00 00 00 00 	movl   $0x0,-0x10(%rbp)
   1dcf0:	eb 52                	jmp    1dd44 <main+0x5ae>
   1dcf2:	8b 45 f0             	mov    -0x10(%rbp),%eax
   1dcf5:	48 98                	cltq   
   1dcf7:	48 8d 14 85 00 00 00 	lea    0x0(,%rax,4),%rdx
   1dcfe:	00 
   1dcff:	48 8d 05 ea 66 00 00 	lea    0x66ea(%rip),%rax        # 243f0 <g_236>
   1dd06:	8b 04 02             	mov    (%rdx,%rax,1),%eax
   1dd09:	25 ff ff 0f 00       	and    $0xfffff,%eax
   1dd0e:	89 c1                	mov    %eax,%ecx
   1dd10:	8b 45 fc             	mov    -0x4(%rbp),%eax
   1dd13:	89 c2                	mov    %eax,%edx
   1dd15:	48 8d 35 ef 30 00 00 	lea    0x30ef(%rip),%rsi        # 20e0b <g_985+0x1da7>
   1dd1c:	48 89 cf             	mov    %rcx,%rdi
   1dd1f:	e8 cf e9 fe ff       	callq  c6f3 <transparent_crc>
   1dd24:	83 7d fc 00          	cmpl   $0x0,-0x4(%rbp)
   1dd28:	74 16                	je     1dd40 <main+0x5aa>
   1dd2a:	8b 45 f0             	mov    -0x10(%rbp),%eax
   1dd2d:	89 c6                	mov    %eax,%esi
   1dd2f:	48 8d 3d 36 30 00 00 	lea    0x3036(%rip),%rdi        # 20d6c <g_985+0x1d08>
   1dd36:	b8 00 00 00 00       	mov    $0x0,%eax
   1dd3b:	e8 40 d3 fe ff       	callq  b080 <printf@plt>
   1dd40:	83 45 f0 01          	addl   $0x1,-0x10(%rbp)
   1dd44:	83 7d f0 00          	cmpl   $0x0,-0x10(%rbp)
   1dd48:	7e a8                	jle    1dcf2 <main+0x55c>
   1dd4a:	8b 05 50 b2 00 00    	mov    0xb250(%rip),%eax        # 28fa0 <g_242>
   1dd50:	48 98                	cltq   
   1dd52:	8b 55 fc             	mov    -0x4(%rbp),%edx
   1dd55:	48 8d 35 bb 30 00 00 	lea    0x30bb(%rip),%rsi        # 20e17 <g_985+0x1db3>
   1dd5c:	48 89 c7             	mov    %rax,%rdi
   1dd5f:	e8 8f e9 fe ff       	callq  c6f3 <transparent_crc>
   1dd64:	0f b7 05 89 66 00 00 	movzwl 0x6689(%rip),%eax        # 243f4 <g_286>
   1dd6b:	48 0f bf c0          	movswq %ax,%rax
   1dd6f:	8b 55 fc             	mov    -0x4(%rbp),%edx
   1dd72:	48 8d 35 a4 30 00 00 	lea    0x30a4(%rip),%rsi        # 20e1d <g_985+0x1db9>
   1dd79:	48 89 c7             	mov    %rax,%rdi
   1dd7c:	e8 72 e9 fe ff       	callq  c6f3 <transparent_crc>
   1dd81:	0f b6 05 6e 66 00 00 	movzbl 0x666e(%rip),%eax        # 243f6 <g_315>
   1dd88:	48 0f be c0          	movsbq %al,%rax
   1dd8c:	8b 55 fc             	mov    -0x4(%rbp),%edx
   1dd8f:	48 8d 35 8d 30 00 00 	lea    0x308d(%rip),%rsi        # 20e23 <g_985+0x1dbf>
   1dd96:	48 89 c7             	mov    %rax,%rdi
   1dd99:	e8 55 e9 fe ff       	callq  c6f3 <transparent_crc>
   1dd9e:	0f b6 05 52 66 00 00 	movzbl 0x6652(%rip),%eax        # 243f7 <g_336>
   1dda5:	48 0f be c0          	movsbq %al,%rax
   1dda9:	8b 55 fc             	mov    -0x4(%rbp),%edx
   1ddac:	48 8d 35 79 30 00 00 	lea    0x3079(%rip),%rsi        # 20e2c <g_985+0x1dc8>
   1ddb3:	48 89 c7             	mov    %rax,%rdi
   1ddb6:	e8 38 e9 fe ff       	callq  c6f3 <transparent_crc>
   1ddbb:	c7 45 f0 00 00 00 00 	movl   $0x0,-0x10(%rbp)
   1ddc2:	e9 8c 00 00 00       	jmpq   1de53 <main+0x6bd>
   1ddc7:	c7 45 f4 00 00 00 00 	movl   $0x0,-0xc(%rbp)
   1ddce:	eb 79                	jmp    1de49 <main+0x6b3>
   1ddd0:	c7 45 f8 00 00 00 00 	movl   $0x0,-0x8(%rbp)
   1ddd7:	eb 66                	jmp    1de3f <main+0x6a9>
   1ddd9:	8b 45 f8             	mov    -0x8(%rbp),%eax
   1dddc:	48 98                	cltq   
   1ddde:	8b 55 f0             	mov    -0x10(%rbp),%edx
   1dde1:	48 63 ca             	movslq %edx,%rcx
   1dde4:	8b 55 f4             	mov    -0xc(%rbp),%edx
   1dde7:	48 63 d2             	movslq %edx,%rdx
   1ddea:	48 01 c9             	add    %rcx,%rcx
   1dded:	48 01 ca             	add    %rcx,%rdx
   1ddf0:	48 c1 e2 02          	shl    $0x2,%rdx
   1ddf4:	48 01 c2             	add    %rax,%rdx
   1ddf7:	48 8d 05 02 66 00 00 	lea    0x6602(%rip),%rax        # 24400 <g_405>
   1ddfe:	48 01 d0             	add    %rdx,%rax
   1de01:	0f b6 00             	movzbl (%rax),%eax
   1de04:	0f b6 c0             	movzbl %al,%eax
   1de07:	8b 55 fc             	mov    -0x4(%rbp),%edx
   1de0a:	48 8d 35 21 30 00 00 	lea    0x3021(%rip),%rsi        # 20e32 <g_985+0x1dce>
   1de11:	48 89 c7             	mov    %rax,%rdi
   1de14:	e8 da e8 fe ff       	callq  c6f3 <transparent_crc>
   1de19:	83 7d fc 00          	cmpl   $0x0,-0x4(%rbp)
   1de1d:	74 1c                	je     1de3b <main+0x6a5>
   1de1f:	8b 4d f8             	mov    -0x8(%rbp),%ecx
   1de22:	8b 55 f4             	mov    -0xc(%rbp),%edx
   1de25:	8b 45 f0             	mov    -0x10(%rbp),%eax
   1de28:	89 c6                	mov    %eax,%esi
   1de2a:	48 8d 3d 1e 2f 00 00 	lea    0x2f1e(%rip),%rdi        # 20d4f <g_985+0x1ceb>
   1de31:	b8 00 00 00 00       	mov    $0x0,%eax
   1de36:	e8 45 d2 fe ff       	callq  b080 <printf@plt>
   1de3b:	83 45 f8 01          	addl   $0x1,-0x8(%rbp)
   1de3f:	83 7d f8 03          	cmpl   $0x3,-0x8(%rbp)
   1de43:	7e 94                	jle    1ddd9 <main+0x643>
   1de45:	83 45 f4 01          	addl   $0x1,-0xc(%rbp)
   1de49:	83 7d f4 01          	cmpl   $0x1,-0xc(%rbp)
   1de4d:	7e 81                	jle    1ddd0 <main+0x63a>
   1de4f:	83 45 f0 01          	addl   $0x1,-0x10(%rbp)
   1de53:	83 7d f0 07          	cmpl   $0x7,-0x10(%rbp)
   1de57:	0f 8e 6a ff ff ff    	jle    1ddc7 <main+0x631>
   1de5d:	48 8b 05 dc 65 00 00 	mov    0x65dc(%rip),%rax        # 24440 <g_431>
   1de64:	48 89 c1             	mov    %rax,%rcx
   1de67:	8b 45 fc             	mov    -0x4(%rbp),%eax
   1de6a:	89 c2                	mov    %eax,%edx
   1de6c:	48 8d 35 ce 2f 00 00 	lea    0x2fce(%rip),%rsi        # 20e41 <g_985+0x1ddd>
   1de73:	48 89 cf             	mov    %rcx,%rdi
   1de76:	e8 78 e8 fe ff       	callq  c6f3 <transparent_crc>
   1de7b:	c7 45 f0 00 00 00 00 	movl   $0x0,-0x10(%rbp)
   1de82:	eb 4f                	jmp    1ded3 <main+0x73d>
   1de84:	8b 45 f0             	mov    -0x10(%rbp),%eax
   1de87:	48 98                	cltq   
   1de89:	48 8d 14 c5 00 00 00 	lea    0x0(,%rax,8),%rdx
   1de90:	00 
   1de91:	48 8d 05 c8 65 00 00 	lea    0x65c8(%rip),%rax        # 24460 <g_569>
   1de98:	48 8b 04 02          	mov    (%rdx,%rax,1),%rax
   1de9c:	48 89 c1             	mov    %rax,%rcx
   1de9f:	8b 45 fc             	mov    -0x4(%rbp),%eax
   1dea2:	89 c2                	mov    %eax,%edx
   1dea4:	48 8d 35 9c 2f 00 00 	lea    0x2f9c(%rip),%rsi        # 20e47 <g_985+0x1de3>
   1deab:	48 89 cf             	mov    %rcx,%rdi
   1deae:	e8 40 e8 fe ff       	callq  c6f3 <transparent_crc>
   1deb3:	83 7d fc 00          	cmpl   $0x0,-0x4(%rbp)
   1deb7:	74 16                	je     1decf <main+0x739>
   1deb9:	8b 45 f0             	mov    -0x10(%rbp),%eax
   1debc:	89 c6                	mov    %eax,%esi
   1debe:	48 8d 3d a7 2e 00 00 	lea    0x2ea7(%rip),%rdi        # 20d6c <g_985+0x1d08>
   1dec5:	b8 00 00 00 00       	mov    $0x0,%eax
   1deca:	e8 b1 d1 fe ff       	callq  b080 <printf@plt>
   1decf:	83 45 f0 01          	addl   $0x1,-0x10(%rbp)
   1ded3:	83 7d f0 04          	cmpl   $0x4,-0x10(%rbp)
   1ded7:	7e ab                	jle    1de84 <main+0x6ee>
   1ded9:	b8 00 00 00 00       	mov    $0x0,%eax
   1dede:	89 c1                	mov    %eax,%ecx
   1dee0:	8b 45 fc             	mov    -0x4(%rbp),%eax
   1dee3:	89 c2                	mov    %eax,%edx
   1dee5:	48 8d 35 64 2f 00 00 	lea    0x2f64(%rip),%rsi        # 20e50 <g_985+0x1dec>
   1deec:	48 89 cf             	mov    %rcx,%rdi
   1deef:	e8 ff e7 fe ff       	callq  c6f3 <transparent_crc>
   1def4:	c7 45 f0 00 00 00 00 	movl   $0x0,-0x10(%rbp)
   1defb:	e9 9f 00 00 00       	jmpq   1df9f <main+0x809>
   1df00:	c7 45 f4 00 00 00 00 	movl   $0x0,-0xc(%rbp)
   1df07:	e9 85 00 00 00       	jmpq   1df91 <main+0x7fb>
   1df0c:	c7 45 f8 00 00 00 00 	movl   $0x0,-0x8(%rbp)
   1df13:	eb 72                	jmp    1df87 <main+0x7f1>
   1df15:	8b 45 f8             	mov    -0x8(%rbp),%eax
   1df18:	48 63 c8             	movslq %eax,%rcx
   1df1b:	8b 45 f0             	mov    -0x10(%rbp),%eax
   1df1e:	48 63 d0             	movslq %eax,%rdx
   1df21:	8b 45 f4             	mov    -0xc(%rbp),%eax
   1df24:	48 63 f0             	movslq %eax,%rsi
   1df27:	48 89 d0             	mov    %rdx,%rax
   1df2a:	48 01 c0             	add    %rax,%rax
   1df2d:	48 01 d0             	add    %rdx,%rax
   1df30:	48 01 c0             	add    %rax,%rax
   1df33:	48 01 f0             	add    %rsi,%rax
   1df36:	48 c1 e0 02          	shl    $0x2,%rax
   1df3a:	48 8d 14 08          	lea    (%rax,%rcx,1),%rdx
   1df3e:	48 8d 05 5b 65 00 00 	lea    0x655b(%rip),%rax        # 244a0 <g_663>
   1df45:	48 01 d0             	add    %rdx,%rax
   1df48:	0f b6 00             	movzbl (%rax),%eax
   1df4b:	48 0f be c0          	movsbq %al,%rax
   1df4f:	8b 55 fc             	mov    -0x4(%rbp),%edx
   1df52:	48 8d 35 fd 2e 00 00 	lea    0x2efd(%rip),%rsi        # 20e56 <g_985+0x1df2>
   1df59:	48 89 c7             	mov    %rax,%rdi
   1df5c:	e8 92 e7 fe ff       	callq  c6f3 <transparent_crc>
   1df61:	83 7d fc 00          	cmpl   $0x0,-0x4(%rbp)
   1df65:	74 1c                	je     1df83 <main+0x7ed>
   1df67:	8b 4d f8             	mov    -0x8(%rbp),%ecx
   1df6a:	8b 55 f4             	mov    -0xc(%rbp),%edx
   1df6d:	8b 45 f0             	mov    -0x10(%rbp),%eax
   1df70:	89 c6                	mov    %eax,%esi
   1df72:	48 8d 3d d6 2d 00 00 	lea    0x2dd6(%rip),%rdi        # 20d4f <g_985+0x1ceb>
   1df79:	b8 00 00 00 00       	mov    $0x0,%eax
   1df7e:	e8 fd d0 fe ff       	callq  b080 <printf@plt>
   1df83:	83 45 f8 01          	addl   $0x1,-0x8(%rbp)
   1df87:	83 7d f8 03          	cmpl   $0x3,-0x8(%rbp)
   1df8b:	7e 88                	jle    1df15 <main+0x77f>
   1df8d:	83 45 f4 01          	addl   $0x1,-0xc(%rbp)
   1df91:	83 7d f4 05          	cmpl   $0x5,-0xc(%rbp)
   1df95:	0f 8e 71 ff ff ff    	jle    1df0c <main+0x776>
   1df9b:	83 45 f0 01          	addl   $0x1,-0x10(%rbp)
   1df9f:	83 7d f0 01          	cmpl   $0x1,-0x10(%rbp)
   1dfa3:	0f 8e 57 ff ff ff    	jle    1df00 <main+0x76a>
   1dfa9:	8b 05 21 65 00 00    	mov    0x6521(%rip),%eax        # 244d0 <g_747>
   1dfaf:	89 c1                	mov    %eax,%ecx
   1dfb1:	8b 45 fc             	mov    -0x4(%rbp),%eax
   1dfb4:	89 c2                	mov    %eax,%edx
   1dfb6:	48 8d 35 a8 2e 00 00 	lea    0x2ea8(%rip),%rsi        # 20e65 <g_985+0x1e01>
   1dfbd:	48 89 cf             	mov    %rcx,%rdi
   1dfc0:	e8 2e e7 fe ff       	callq  c6f3 <transparent_crc>
   1dfc5:	c7 45 f0 00 00 00 00 	movl   $0x0,-0x10(%rbp)
   1dfcc:	eb 45                	jmp    1e013 <main+0x87d>
   1dfce:	8b 45 f0             	mov    -0x10(%rbp),%eax
   1dfd1:	48 98                	cltq   
   1dfd3:	48 8d 15 fa 64 00 00 	lea    0x64fa(%rip),%rdx        # 244d4 <g_892>
   1dfda:	0f b6 04 10          	movzbl (%rax,%rdx,1),%eax
   1dfde:	0f b6 c0             	movzbl %al,%eax
   1dfe1:	8b 55 fc             	mov    -0x4(%rbp),%edx
   1dfe4:	48 8d 35 80 2e 00 00 	lea    0x2e80(%rip),%rsi        # 20e6b <g_985+0x1e07>
   1dfeb:	48 89 c7             	mov    %rax,%rdi
   1dfee:	e8 00 e7 fe ff       	callq  c6f3 <transparent_crc>
   1dff3:	83 7d fc 00          	cmpl   $0x0,-0x4(%rbp)
   1dff7:	74 16                	je     1e00f <main+0x879>
   1dff9:	8b 45 f0             	mov    -0x10(%rbp),%eax
   1dffc:	89 c6                	mov    %eax,%esi
   1dffe:	48 8d 3d 67 2d 00 00 	lea    0x2d67(%rip),%rdi        # 20d6c <g_985+0x1d08>
   1e005:	b8 00 00 00 00       	mov    $0x0,%eax
   1e00a:	e8 71 d0 fe ff       	callq  b080 <printf@plt>
   1e00f:	83 45 f0 01          	addl   $0x1,-0x10(%rbp)
   1e013:	83 7d f0 00          	cmpl   $0x0,-0x10(%rbp)
   1e017:	7e b5                	jle    1dfce <main+0x838>
   1e019:	0f b7 05 e8 af 00 00 	movzwl 0xafe8(%rip),%eax        # 29008 <g_930>
   1e020:	0f b7 c0             	movzwl %ax,%eax
   1e023:	8b 55 fc             	mov    -0x4(%rbp),%edx
   1e026:	48 8d 35 47 2e 00 00 	lea    0x2e47(%rip),%rsi        # 20e74 <g_985+0x1e10>
   1e02d:	48 89 c7             	mov    %rax,%rdi
   1e030:	e8 be e6 fe ff       	callq  c6f3 <transparent_crc>
   1e035:	48 8b 05 9c 64 00 00 	mov    0x649c(%rip),%rax        # 244d8 <g_954>
   1e03c:	48 89 c1             	mov    %rax,%rcx
   1e03f:	8b 45 fc             	mov    -0x4(%rbp),%eax
   1e042:	89 c2                	mov    %eax,%edx
   1e044:	48 8d 35 2f 2e 00 00 	lea    0x2e2f(%rip),%rsi        # 20e7a <g_985+0x1e16>
   1e04b:	48 89 cf             	mov    %rcx,%rdi
   1e04e:	e8 a0 e6 fe ff       	callq  c6f3 <transparent_crc>
   1e053:	b8 ff ff 0f 00       	mov    $0xfffff,%eax
   1e058:	89 c1                	mov    %eax,%ecx
   1e05a:	8b 45 fc             	mov    -0x4(%rbp),%eax
   1e05d:	89 c2                	mov    %eax,%edx
   1e05f:	48 8d 35 1a 2e 00 00 	lea    0x2e1a(%rip),%rsi        # 20e80 <g_985+0x1e1c>
   1e066:	48 89 cf             	mov    %rcx,%rdi
   1e069:	e8 85 e6 fe ff       	callq  c6f3 <transparent_crc>
   1e06e:	0f b7 05 6b 64 00 00 	movzwl 0x646b(%rip),%eax        # 244e0 <g_1166>
   1e075:	0f b7 c0             	movzwl %ax,%eax
   1e078:	8b 55 fc             	mov    -0x4(%rbp),%edx
   1e07b:	48 8d 35 07 2e 00 00 	lea    0x2e07(%rip),%rsi        # 20e89 <g_985+0x1e25>
   1e082:	48 89 c7             	mov    %rax,%rdi
   1e085:	e8 69 e6 fe ff       	callq  c6f3 <transparent_crc>
   1e08a:	8b 05 54 64 00 00    	mov    0x6454(%rip),%eax        # 244e4 <g_1168>
   1e090:	89 c1                	mov    %eax,%ecx
   1e092:	8b 45 fc             	mov    -0x4(%rbp),%eax
   1e095:	89 c2                	mov    %eax,%edx
   1e097:	48 8d 35 f2 2d 00 00 	lea    0x2df2(%rip),%rsi        # 20e90 <g_985+0x1e2c>
   1e09e:	48 89 cf             	mov    %rcx,%rdi
   1e0a1:	e8 4d e6 fe ff       	callq  c6f3 <transparent_crc>
   1e0a6:	8b 05 bc af 00 00    	mov    0xafbc(%rip),%eax        # 29068 <g_1211>
   1e0ac:	89 c1                	mov    %eax,%ecx
   1e0ae:	8b 45 fc             	mov    -0x4(%rbp),%eax
   1e0b1:	89 c2                	mov    %eax,%edx
   1e0b3:	48 8d 35 dd 2d 00 00 	lea    0x2ddd(%rip),%rsi        # 20e97 <g_985+0x1e33>
   1e0ba:	48 89 cf             	mov    %rcx,%rdi
   1e0bd:	e8 31 e6 fe ff       	callq  c6f3 <transparent_crc>
   1e0c2:	8b 05 20 64 00 00    	mov    0x6420(%rip),%eax        # 244e8 <g_1215>
   1e0c8:	48 98                	cltq   
   1e0ca:	8b 55 fc             	mov    -0x4(%rbp),%edx
   1e0cd:	48 8d 35 ca 2d 00 00 	lea    0x2dca(%rip),%rsi        # 20e9e <g_985+0x1e3a>
   1e0d4:	48 89 c7             	mov    %rax,%rdi
   1e0d7:	e8 17 e6 fe ff       	callq  c6f3 <transparent_crc>
   1e0dc:	8b 05 0a 64 00 00    	mov    0x640a(%rip),%eax        # 244ec <g_1264>
   1e0e2:	25 ff ff 0f 00       	and    $0xfffff,%eax
   1e0e7:	89 c1                	mov    %eax,%ecx
   1e0e9:	8b 45 fc             	mov    -0x4(%rbp),%eax
   1e0ec:	89 c2                	mov    %eax,%edx
   1e0ee:	48 8d 35 b0 2d 00 00 	lea    0x2db0(%rip),%rsi        # 20ea5 <g_985+0x1e41>
   1e0f5:	48 89 cf             	mov    %rcx,%rdi
   1e0f8:	e8 f6 e5 fe ff       	callq  c6f3 <transparent_crc>
   1e0fd:	c7 45 f0 00 00 00 00 	movl   $0x0,-0x10(%rbp)
   1e104:	eb 4b                	jmp    1e151 <main+0x9bb>
   1e106:	8b 45 f0             	mov    -0x10(%rbp),%eax
   1e109:	48 98                	cltq   
   1e10b:	48 8d 14 85 00 00 00 	lea    0x0(,%rax,4),%rdx
   1e112:	00 
   1e113:	48 8d 05 d6 63 00 00 	lea    0x63d6(%rip),%rax        # 244f0 <g_1387>
   1e11a:	8b 04 02             	mov    (%rdx,%rax,1),%eax
   1e11d:	48 98                	cltq   
   1e11f:	8b 55 fc             	mov    -0x4(%rbp),%edx
   1e122:	48 8d 35 86 2d 00 00 	lea    0x2d86(%rip),%rsi        # 20eaf <g_985+0x1e4b>
   1e129:	48 89 c7             	mov    %rax,%rdi
   1e12c:	e8 c2 e5 fe ff       	callq  c6f3 <transparent_crc>
   1e131:	83 7d fc 00          	cmpl   $0x0,-0x4(%rbp)
   1e135:	74 16                	je     1e14d <main+0x9b7>
   1e137:	8b 45 f0             	mov    -0x10(%rbp),%eax
   1e13a:	89 c6                	mov    %eax,%esi
   1e13c:	48 8d 3d 29 2c 00 00 	lea    0x2c29(%rip),%rdi        # 20d6c <g_985+0x1d08>
   1e143:	b8 00 00 00 00       	mov    $0x0,%eax
   1e148:	e8 33 cf fe ff       	callq  b080 <printf@plt>
   1e14d:	83 45 f0 01          	addl   $0x1,-0x10(%rbp)
   1e151:	83 7d f0 04          	cmpl   $0x4,-0x10(%rbp)
   1e155:	7e af                	jle    1e106 <main+0x970>
   1e157:	8b 05 a7 63 00 00    	mov    0x63a7(%rip),%eax        # 24504 <g_1423>
   1e15d:	48 98                	cltq   
   1e15f:	8b 55 fc             	mov    -0x4(%rbp),%edx
   1e162:	48 8d 35 50 2d 00 00 	lea    0x2d50(%rip),%rsi        # 20eb9 <g_985+0x1e55>
   1e169:	48 89 c7             	mov    %rax,%rdi
   1e16c:	e8 82 e5 fe ff       	callq  c6f3 <transparent_crc>
   1e171:	c7 45 f0 00 00 00 00 	movl   $0x0,-0x10(%rbp)
   1e178:	eb 78                	jmp    1e1f2 <main+0xa5c>
   1e17a:	8b 45 f0             	mov    -0x10(%rbp),%eax
   1e17d:	48 98                	cltq   
   1e17f:	48 8d 14 c5 00 00 00 	lea    0x0(,%rax,8),%rdx
   1e186:	00 
   1e187:	48 8d 05 92 63 00 00 	lea    0x6392(%rip),%rax        # 24520 <g_1488>
   1e18e:	8b 04 02             	mov    (%rdx,%rax,1),%eax
   1e191:	48 98                	cltq   
   1e193:	8b 55 fc             	mov    -0x4(%rbp),%edx
   1e196:	48 8d 35 23 2d 00 00 	lea    0x2d23(%rip),%rsi        # 20ec0 <g_985+0x1e5c>
   1e19d:	48 89 c7             	mov    %rax,%rdi
   1e1a0:	e8 4e e5 fe ff       	callq  c6f3 <transparent_crc>
   1e1a5:	8b 45 f0             	mov    -0x10(%rbp),%eax
   1e1a8:	48 98                	cltq   
   1e1aa:	48 8d 14 c5 00 00 00 	lea    0x0(,%rax,8),%rdx
   1e1b1:	00 
   1e1b2:	48 8d 05 67 63 00 00 	lea    0x6367(%rip),%rax        # 24520 <g_1488>
   1e1b9:	0f b7 04 02          	movzwl (%rdx,%rax,1),%eax
   1e1bd:	0f b7 c0             	movzwl %ax,%eax
   1e1c0:	8b 55 fc             	mov    -0x4(%rbp),%edx
   1e1c3:	48 8d 35 03 2d 00 00 	lea    0x2d03(%rip),%rsi        # 20ecd <g_985+0x1e69>
   1e1ca:	48 89 c7             	mov    %rax,%rdi
   1e1cd:	e8 21 e5 fe ff       	callq  c6f3 <transparent_crc>
   1e1d2:	83 7d fc 00          	cmpl   $0x0,-0x4(%rbp)
   1e1d6:	74 16                	je     1e1ee <main+0xa58>
   1e1d8:	8b 45 f0             	mov    -0x10(%rbp),%eax
   1e1db:	89 c6                	mov    %eax,%esi
   1e1dd:	48 8d 3d 88 2b 00 00 	lea    0x2b88(%rip),%rdi        # 20d6c <g_985+0x1d08>
   1e1e4:	b8 00 00 00 00       	mov    $0x0,%eax
   1e1e9:	e8 92 ce fe ff       	callq  b080 <printf@plt>
   1e1ee:	83 45 f0 01          	addl   $0x1,-0x10(%rbp)
   1e1f2:	83 7d f0 04          	cmpl   $0x4,-0x10(%rbp)
   1e1f6:	7e 82                	jle    1e17a <main+0x9e4>
   1e1f8:	48 8b 05 49 63 00 00 	mov    0x6349(%rip),%rax        # 24548 <g_1645>
   1e1ff:	48 89 c1             	mov    %rax,%rcx
   1e202:	8b 45 fc             	mov    -0x4(%rbp),%eax
   1e205:	89 c2                	mov    %eax,%edx
   1e207:	48 8d 35 cc 2c 00 00 	lea    0x2ccc(%rip),%rsi        # 20eda <g_985+0x1e76>
   1e20e:	48 89 cf             	mov    %rcx,%rdi
   1e211:	e8 dd e4 fe ff       	callq  c6f3 <transparent_crc>
   1e216:	c7 45 f0 00 00 00 00 	movl   $0x0,-0x10(%rbp)
   1e21d:	eb 52                	jmp    1e271 <main+0xadb>
   1e21f:	8b 45 f0             	mov    -0x10(%rbp),%eax
   1e222:	48 98                	cltq   
   1e224:	48 8d 14 85 00 00 00 	lea    0x0(,%rax,4),%rdx
   1e22b:	00 
   1e22c:	48 8d 05 1d 63 00 00 	lea    0x631d(%rip),%rax        # 24550 <g_1679>
   1e233:	8b 04 02             	mov    (%rdx,%rax,1),%eax
   1e236:	25 ff ff 0f 00       	and    $0xfffff,%eax
   1e23b:	89 c1                	mov    %eax,%ecx
   1e23d:	8b 45 fc             	mov    -0x4(%rbp),%eax
   1e240:	89 c2                	mov    %eax,%edx
   1e242:	48 8d 35 98 2c 00 00 	lea    0x2c98(%rip),%rsi        # 20ee1 <g_985+0x1e7d>
   1e249:	48 89 cf             	mov    %rcx,%rdi
   1e24c:	e8 a2 e4 fe ff       	callq  c6f3 <transparent_crc>
   1e251:	83 7d fc 00          	cmpl   $0x0,-0x4(%rbp)
   1e255:	74 16                	je     1e26d <main+0xad7>
   1e257:	8b 45 f0             	mov    -0x10(%rbp),%eax
   1e25a:	89 c6                	mov    %eax,%esi
   1e25c:	48 8d 3d 09 2b 00 00 	lea    0x2b09(%rip),%rdi        # 20d6c <g_985+0x1d08>
   1e263:	b8 00 00 00 00       	mov    $0x0,%eax
   1e268:	e8 13 ce fe ff       	callq  b080 <printf@plt>
   1e26d:	83 45 f0 01          	addl   $0x1,-0x10(%rbp)
   1e271:	83 7d f0 00          	cmpl   $0x0,-0x10(%rbp)
   1e275:	7e a8                	jle    1e21f <main+0xa89>
   1e277:	c7 45 f0 00 00 00 00 	movl   $0x0,-0x10(%rbp)
   1e27e:	eb 46                	jmp    1e2c6 <main+0xb30>
   1e280:	8b 45 f0             	mov    -0x10(%rbp),%eax
   1e283:	48 98                	cltq   
   1e285:	48 8d 15 d4 62 00 00 	lea    0x62d4(%rip),%rdx        # 24560 <g_1816>
   1e28c:	0f b6 04 10          	movzbl (%rax,%rdx,1),%eax
   1e290:	48 0f be c0          	movsbq %al,%rax
   1e294:	8b 55 fc             	mov    -0x4(%rbp),%edx
   1e297:	48 8d 35 50 2c 00 00 	lea    0x2c50(%rip),%rsi        # 20eee <g_985+0x1e8a>
   1e29e:	48 89 c7             	mov    %rax,%rdi
   1e2a1:	e8 4d e4 fe ff       	callq  c6f3 <transparent_crc>
   1e2a6:	83 7d fc 00          	cmpl   $0x0,-0x4(%rbp)
   1e2aa:	74 16                	je     1e2c2 <main+0xb2c>
   1e2ac:	8b 45 f0             	mov    -0x10(%rbp),%eax
   1e2af:	89 c6                	mov    %eax,%esi
   1e2b1:	48 8d 3d b4 2a 00 00 	lea    0x2ab4(%rip),%rdi        # 20d6c <g_985+0x1d08>
   1e2b8:	b8 00 00 00 00       	mov    $0x0,%eax
   1e2bd:	e8 be cd fe ff       	callq  b080 <printf@plt>
   1e2c2:	83 45 f0 01          	addl   $0x1,-0x10(%rbp)
   1e2c6:	83 7d f0 01          	cmpl   $0x1,-0x10(%rbp)
   1e2ca:	7e b4                	jle    1e280 <main+0xaea>
   1e2cc:	0f b6 05 85 63 00 00 	movzbl 0x6385(%rip),%eax        # 24658 <g_1935>
   1e2d3:	0f b6 c0             	movzbl %al,%eax
   1e2d6:	8b 55 fc             	mov    -0x4(%rbp),%edx
   1e2d9:	48 8d 35 18 2c 00 00 	lea    0x2c18(%rip),%rsi        # 20ef8 <g_985+0x1e94>
   1e2e0:	48 89 c7             	mov    %rax,%rdi
   1e2e3:	e8 0b e4 fe ff       	callq  c6f3 <transparent_crc>
   1e2e8:	8b 05 6e 63 00 00    	mov    0x636e(%rip),%eax        # 2465c <g_2003>
   1e2ee:	89 c1                	mov    %eax,%ecx
   1e2f0:	8b 45 fc             	mov    -0x4(%rbp),%eax
   1e2f3:	89 c2                	mov    %eax,%edx
   1e2f5:	48 8d 35 03 2c 00 00 	lea    0x2c03(%rip),%rsi        # 20eff <g_985+0x1e9b>
   1e2fc:	48 89 cf             	mov    %rcx,%rdi
   1e2ff:	e8 ef e3 fe ff       	callq  c6f3 <transparent_crc>
   1e304:	48 8b 05 55 63 00 00 	mov    0x6355(%rip),%rax        # 24660 <g_2050>
   1e30b:	48 89 c1             	mov    %rax,%rcx
   1e30e:	8b 45 fc             	mov    -0x4(%rbp),%eax
   1e311:	89 c2                	mov    %eax,%edx
   1e313:	48 8d 35 ec 2b 00 00 	lea    0x2bec(%rip),%rsi        # 20f06 <g_985+0x1ea2>
   1e31a:	48 89 cf             	mov    %rcx,%rdi
   1e31d:	e8 d1 e3 fe ff       	callq  c6f3 <transparent_crc>
   1e322:	0f b6 05 3f 63 00 00 	movzbl 0x633f(%rip),%eax        # 24668 <g_2247>
   1e329:	0f b6 c0             	movzbl %al,%eax
   1e32c:	8b 55 fc             	mov    -0x4(%rbp),%edx
   1e32f:	48 8d 35 d7 2b 00 00 	lea    0x2bd7(%rip),%rsi        # 20f0d <g_985+0x1ea9>
   1e336:	48 89 c7             	mov    %rax,%rdi
   1e339:	e8 b5 e3 fe ff       	callq  c6f3 <transparent_crc>
   1e33e:	c7 45 f0 00 00 00 00 	movl   $0x0,-0x10(%rbp)
   1e345:	e9 ad 00 00 00       	jmpq   1e3f7 <main+0xc61>
   1e34a:	c7 45 f4 00 00 00 00 	movl   $0x0,-0xc(%rbp)
   1e351:	e9 93 00 00 00       	jmpq   1e3e9 <main+0xc53>
   1e356:	c7 45 f8 00 00 00 00 	movl   $0x0,-0x8(%rbp)
   1e35d:	eb 7c                	jmp    1e3db <main+0xc45>
   1e35f:	8b 45 f8             	mov    -0x8(%rbp),%eax
   1e362:	48 63 f0             	movslq %eax,%rsi
   1e365:	8b 45 f0             	mov    -0x10(%rbp),%eax
   1e368:	48 63 d0             	movslq %eax,%rdx
   1e36b:	8b 45 f4             	mov    -0xc(%rbp),%eax
   1e36e:	48 63 c8             	movslq %eax,%rcx
   1e371:	48 89 d0             	mov    %rdx,%rax
   1e374:	48 c1 e0 03          	shl    $0x3,%rax
   1e378:	48 29 d0             	sub    %rdx,%rax
   1e37b:	48 c1 e0 02          	shl    $0x2,%rax
   1e37f:	48 89 ca             	mov    %rcx,%rdx
   1e382:	48 c1 e2 03          	shl    $0x3,%rdx
   1e386:	48 29 ca             	sub    %rcx,%rdx
   1e389:	48 01 d0             	add    %rdx,%rax
   1e38c:	48 01 f0             	add    %rsi,%rax
   1e38f:	48 8d 14 85 00 00 00 	lea    0x0(,%rax,4),%rdx
   1e396:	00 
   1e397:	48 8d 05 e2 62 00 00 	lea    0x62e2(%rip),%rax        # 24680 <g_2250>
   1e39e:	8b 04 02             	mov    (%rdx,%rax,1),%eax
   1e3a1:	48 98                	cltq   
   1e3a3:	8b 55 fc             	mov    -0x4(%rbp),%edx
   1e3a6:	48 8d 35 67 2b 00 00 	lea    0x2b67(%rip),%rsi        # 20f14 <g_985+0x1eb0>
   1e3ad:	48 89 c7             	mov    %rax,%rdi
   1e3b0:	e8 3e e3 fe ff       	callq  c6f3 <transparent_crc>
   1e3b5:	83 7d fc 00          	cmpl   $0x0,-0x4(%rbp)
   1e3b9:	74 1c                	je     1e3d7 <main+0xc41>
   1e3bb:	8b 4d f8             	mov    -0x8(%rbp),%ecx
   1e3be:	8b 55 f4             	mov    -0xc(%rbp),%edx
   1e3c1:	8b 45 f0             	mov    -0x10(%rbp),%eax
   1e3c4:	89 c6                	mov    %eax,%esi
   1e3c6:	48 8d 3d 82 29 00 00 	lea    0x2982(%rip),%rdi        # 20d4f <g_985+0x1ceb>
   1e3cd:	b8 00 00 00 00       	mov    $0x0,%eax
   1e3d2:	e8 a9 cc fe ff       	callq  b080 <printf@plt>
   1e3d7:	83 45 f8 01          	addl   $0x1,-0x8(%rbp)
   1e3db:	83 7d f8 06          	cmpl   $0x6,-0x8(%rbp)
   1e3df:	0f 8e 7a ff ff ff    	jle    1e35f <main+0xbc9>
   1e3e5:	83 45 f4 01          	addl   $0x1,-0xc(%rbp)
   1e3e9:	83 7d f4 03          	cmpl   $0x3,-0xc(%rbp)
   1e3ed:	0f 8e 63 ff ff ff    	jle    1e356 <main+0xbc0>
   1e3f3:	83 45 f0 01          	addl   $0x1,-0x10(%rbp)
   1e3f7:	83 7d f0 04          	cmpl   $0x4,-0x10(%rbp)
   1e3fb:	0f 8e 49 ff ff ff    	jle    1e34a <main+0xbb4>
   1e401:	0f b6 05 a8 64 00 00 	movzbl 0x64a8(%rip),%eax        # 248b0 <g_2283>
   1e408:	48 0f be c0          	movsbq %al,%rax
   1e40c:	8b 55 fc             	mov    -0x4(%rbp),%edx
   1e40f:	48 8d 35 0e 2b 00 00 	lea    0x2b0e(%rip),%rsi        # 20f24 <g_985+0x1ec0>
   1e416:	48 89 c7             	mov    %rax,%rdi
   1e419:	e8 d5 e2 fe ff       	callq  c6f3 <transparent_crc>
   1e41e:	0f b6 05 8c 64 00 00 	movzbl 0x648c(%rip),%eax        # 248b1 <g_2284>
   1e425:	48 0f be c0          	movsbq %al,%rax
   1e429:	8b 55 fc             	mov    -0x4(%rbp),%edx
   1e42c:	48 8d 35 fb 2a 00 00 	lea    0x2afb(%rip),%rsi        # 20f2e <g_985+0x1eca>
   1e433:	48 89 c7             	mov    %rax,%rdi
   1e436:	e8 b8 e2 fe ff       	callq  c6f3 <transparent_crc>
   1e43b:	8b 05 df 5b 00 00    	mov    0x5bdf(%rip),%eax        # 24020 <crc32_context>
   1e441:	f7 d0                	not    %eax
   1e443:	89 c2                	mov    %eax,%edx
   1e445:	8b 45 fc             	mov    -0x4(%rbp),%eax
   1e448:	89 c6                	mov    %eax,%esi
   1e44a:	89 d7                	mov    %edx,%edi
   1e44c:	e8 43 cd fe ff       	callq  b194 <platform_main_end>
   1e451:	b8 00 00 00 00       	mov    $0x0,%eax
   1e456:	c9                   	leaveq 
   1e457:	c3                   	retq   
   1e458:	0f 1f 84 00 00 00 00 	nopl   0x0(%rax,%rax,1)
   1e45f:	00 

000000000001e460 <__libc_csu_init>:
   1e460:	f3 0f 1e fa          	endbr64 
   1e464:	41 57                	push   %r15
   1e466:	4c 8d 3d a3 57 00 00 	lea    0x57a3(%rip),%r15        # 23c10 <__frame_dummy_init_array_entry>
   1e46d:	41 56                	push   %r14
   1e46f:	49 89 d6             	mov    %rdx,%r14
   1e472:	41 55                	push   %r13
   1e474:	49 89 f5             	mov    %rsi,%r13
   1e477:	41 54                	push   %r12
   1e479:	41 89 fc             	mov    %edi,%r12d
   1e47c:	55                   	push   %rbp
   1e47d:	48 8d 2d 94 57 00 00 	lea    0x5794(%rip),%rbp        # 23c18 <__do_global_dtors_aux_fini_array_entry>
   1e484:	53                   	push   %rbx
   1e485:	4c 29 fd             	sub    %r15,%rbp
   1e488:	48 83 ec 08          	sub    $0x8,%rsp
   1e48c:	e8 6f cb fe ff       	callq  b000 <_init>
   1e491:	48 c1 fd 03          	sar    $0x3,%rbp
   1e495:	74 1f                	je     1e4b6 <__libc_csu_init+0x56>
   1e497:	31 db                	xor    %ebx,%ebx
   1e499:	0f 1f 80 00 00 00 00 	nopl   0x0(%rax)
   1e4a0:	4c 89 f2             	mov    %r14,%rdx
   1e4a3:	4c 89 ee             	mov    %r13,%rsi
   1e4a6:	44 89 e7             	mov    %r12d,%edi
   1e4a9:	41 ff 14 df          	callq  *(%r15,%rbx,8)
   1e4ad:	48 83 c3 01          	add    $0x1,%rbx
   1e4b1:	48 39 dd             	cmp    %rbx,%rbp
   1e4b4:	75 ea                	jne    1e4a0 <__libc_csu_init+0x40>
   1e4b6:	48 83 c4 08          	add    $0x8,%rsp
   1e4ba:	5b                   	pop    %rbx
   1e4bb:	5d                   	pop    %rbp
   1e4bc:	41 5c                	pop    %r12
   1e4be:	41 5d                	pop    %r13
   1e4c0:	41 5e                	pop    %r14
   1e4c2:	41 5f                	pop    %r15
   1e4c4:	c3                   	retq   
   1e4c5:	66 66 2e 0f 1f 84 00 	data16 nopw %cs:0x0(%rax,%rax,1)
   1e4cc:	00 00 00 00 

000000000001e4d0 <__libc_csu_fini>:
   1e4d0:	f3 0f 1e fa          	endbr64 
   1e4d4:	c3                   	retq   
