


Disassembly of section .text:

00000000000080a0 <_start>:
    80a0:	f3 0f 1e fa          	endbr64 
    80a4:	31 ed                	xor    %ebp,%ebp
    80a6:	49 89 d1             	mov    %rdx,%r9
    80a9:	5e                   	pop    %rsi
    80aa:	48 89 e2             	mov    %rsp,%rdx
    80ad:	48 83 e4 f0          	and    $0xfffffffffffffff0,%rsp
    80b1:	50                   	push   %rax
    80b2:	54                   	push   %rsp
    80b3:	4c 8d 05 e6 0c 01 00 	lea    0x10ce6(%rip),%r8        # 18da0 <__libc_csu_fini>
    80ba:	48 8d 0d 6f 0c 01 00 	lea    0x10c6f(%rip),%rcx        # 18d30 <__libc_csu_init>
    80c1:	48 8d 3d 4d 04 01 00 	lea    0x1044d(%rip),%rdi        # 18515 <main>
    80c8:	ff 15 fa 5e 01 00    	callq  *0x15efa(%rip)        # 1dfc8 <__libc_start_main@GLIBC_2.2.5>
    80ce:	f4                   	hlt    
    80cf:	90                   	nop

00000000000080d0 <deregister_tm_clones>:
    80d0:	48 8d 3d e9 8a 01 00 	lea    0x18ae9(%rip),%rdi        # 20bc0 <__TMC_END__>
    80d7:	48 8d 05 e2 8a 01 00 	lea    0x18ae2(%rip),%rax        # 20bc0 <__TMC_END__>
    80de:	48 39 f8             	cmp    %rdi,%rax
    80e1:	74 15                	je     80f8 <deregister_tm_clones+0x28>
    80e3:	48 8b 05 d6 5e 01 00 	mov    0x15ed6(%rip),%rax        # 1dfc0 <_ITM_deregisterTMCloneTable>
    80ea:	48 85 c0             	test   %rax,%rax
    80ed:	74 09                	je     80f8 <deregister_tm_clones+0x28>
    80ef:	ff e0                	jmpq   *%rax
    80f1:	0f 1f 80 00 00 00 00 	nopl   0x0(%rax)
    80f8:	c3                   	retq   
    80f9:	0f 1f 80 00 00 00 00 	nopl   0x0(%rax)

0000000000008100 <register_tm_clones>:
    8100:	48 8d 3d b9 8a 01 00 	lea    0x18ab9(%rip),%rdi        # 20bc0 <__TMC_END__>
    8107:	48 8d 35 b2 8a 01 00 	lea    0x18ab2(%rip),%rsi        # 20bc0 <__TMC_END__>
    810e:	48 29 fe             	sub    %rdi,%rsi
    8111:	48 89 f0             	mov    %rsi,%rax
    8114:	48 c1 ee 3f          	shr    $0x3f,%rsi
    8118:	48 c1 f8 03          	sar    $0x3,%rax
    811c:	48 01 c6             	add    %rax,%rsi
    811f:	48 d1 fe             	sar    %rsi
    8122:	74 14                	je     8138 <register_tm_clones+0x38>
    8124:	48 8b 05 ad 5e 01 00 	mov    0x15ead(%rip),%rax        # 1dfd8 <_ITM_registerTMCloneTable>
    812b:	48 85 c0             	test   %rax,%rax
    812e:	74 08                	je     8138 <register_tm_clones+0x38>
    8130:	ff e0                	jmpq   *%rax
    8132:	66 0f 1f 44 00 00    	nopw   0x0(%rax,%rax,1)
    8138:	c3                   	retq   
    8139:	0f 1f 80 00 00 00 00 	nopl   0x0(%rax)

0000000000008140 <__do_global_dtors_aux>:
    8140:	f3 0f 1e fa          	endbr64 
    8144:	80 3d 75 8a 01 00 00 	cmpb   $0x0,0x18a75(%rip)        # 20bc0 <__TMC_END__>
    814b:	75 2b                	jne    8178 <__do_global_dtors_aux+0x38>
    814d:	55                   	push   %rbp
    814e:	48 83 3d 8a 5e 01 00 	cmpq   $0x0,0x15e8a(%rip)        # 1dfe0 <__cxa_finalize@GLIBC_2.2.5>
    8155:	00 
    8156:	48 89 e5             	mov    %rsp,%rbp
    8159:	74 0c                	je     8167 <__do_global_dtors_aux+0x27>
    815b:	48 8b 3d a6 5e 01 00 	mov    0x15ea6(%rip),%rdi        # 1e008 <__dso_handle>
    8162:	e8 f9 fe ff ff       	callq  8060 <__cxa_finalize@plt>
    8167:	e8 64 ff ff ff       	callq  80d0 <deregister_tm_clones>
    816c:	c6 05 4d 8a 01 00 01 	movb   $0x1,0x18a4d(%rip)        # 20bc0 <__TMC_END__>
    8173:	5d                   	pop    %rbp
    8174:	c3                   	retq   
    8175:	0f 1f 00             	nopl   (%rax)
    8178:	c3                   	retq   
    8179:	0f 1f 80 00 00 00 00 	nopl   0x0(%rax)

0000000000008180 <frame_dummy>:
    8180:	f3 0f 1e fa          	endbr64 
    8184:	e9 77 ff ff ff       	jmpq   8100 <register_tm_clones>

0000000000008189 <platform_main_begin>:
    8189:	f3 0f 1e fa          	endbr64 
    818d:	55                   	push   %rbp
    818e:	48 89 e5             	mov    %rsp,%rbp
    8191:	90                   	nop
    8192:	5d                   	pop    %rbp
    8193:	c3                   	retq   

0000000000008194 <platform_main_end>:
    8194:	f3 0f 1e fa          	endbr64 
    8198:	55                   	push   %rbp
    8199:	48 89 e5             	mov    %rsp,%rbp
    819c:	48 83 ec 10          	sub    $0x10,%rsp
    81a0:	89 7d fc             	mov    %edi,-0x4(%rbp)
    81a3:	89 75 f8             	mov    %esi,-0x8(%rbp)
    81a6:	8b 45 fc             	mov    -0x4(%rbp),%eax
    81a9:	89 c6                	mov    %eax,%esi
    81ab:	48 8d 3d 6e 0e 01 00 	lea    0x10e6e(%rip),%rdi        # 19020 <_IO_stdin_used+0x20>
    81b2:	b8 00 00 00 00       	mov    $0x0,%eax
    81b7:	e8 c4 fe ff ff       	callq  8080 <printf@plt>
    81bc:	90                   	nop
    81bd:	c9                   	leaveq 
    81be:	c3                   	retq   

00000000000081bf <safe_unary_minus_func_int8_t_s>:
    81bf:	f3 0f 1e fa          	endbr64 
    81c3:	55                   	push   %rbp
    81c4:	48 89 e5             	mov    %rsp,%rbp
    81c7:	89 f8                	mov    %edi,%eax
    81c9:	88 45 fc             	mov    %al,-0x4(%rbp)
    81cc:	0f b6 45 fc          	movzbl -0x4(%rbp),%eax
    81d0:	f7 d8                	neg    %eax
    81d2:	5d                   	pop    %rbp
    81d3:	c3                   	retq   

00000000000081d4 <safe_add_func_int8_t_s_s>:
    81d4:	f3 0f 1e fa          	endbr64 
    81d8:	55                   	push   %rbp
    81d9:	48 89 e5             	mov    %rsp,%rbp
    81dc:	89 fa                	mov    %edi,%edx
    81de:	89 f0                	mov    %esi,%eax
    81e0:	88 55 fc             	mov    %dl,-0x4(%rbp)
    81e3:	88 45 f8             	mov    %al,-0x8(%rbp)
    81e6:	0f b6 55 fc          	movzbl -0x4(%rbp),%edx
    81ea:	0f b6 45 f8          	movzbl -0x8(%rbp),%eax
    81ee:	01 d0                	add    %edx,%eax
    81f0:	5d                   	pop    %rbp
    81f1:	c3                   	retq   

00000000000081f2 <safe_sub_func_int8_t_s_s>:
    81f2:	f3 0f 1e fa          	endbr64 
    81f6:	55                   	push   %rbp
    81f7:	48 89 e5             	mov    %rsp,%rbp
    81fa:	89 fa                	mov    %edi,%edx
    81fc:	89 f0                	mov    %esi,%eax
    81fe:	88 55 fc             	mov    %dl,-0x4(%rbp)
    8201:	88 45 f8             	mov    %al,-0x8(%rbp)
    8204:	0f b6 55 fc          	movzbl -0x4(%rbp),%edx
    8208:	0f b6 45 f8          	movzbl -0x8(%rbp),%eax
    820c:	29 c2                	sub    %eax,%edx
    820e:	89 d0                	mov    %edx,%eax
    8210:	5d                   	pop    %rbp
    8211:	c3                   	retq   

0000000000008212 <safe_mul_func_int8_t_s_s>:
    8212:	f3 0f 1e fa          	endbr64 
    8216:	55                   	push   %rbp
    8217:	48 89 e5             	mov    %rsp,%rbp
    821a:	89 fa                	mov    %edi,%edx
    821c:	89 f0                	mov    %esi,%eax
    821e:	88 55 fc             	mov    %dl,-0x4(%rbp)
    8221:	88 45 f8             	mov    %al,-0x8(%rbp)
    8224:	0f b6 45 fc          	movzbl -0x4(%rbp),%eax
    8228:	0f b6 55 f8          	movzbl -0x8(%rbp),%edx
    822c:	0f af c2             	imul   %edx,%eax
    822f:	5d                   	pop    %rbp
    8230:	c3                   	retq   

0000000000008231 <safe_mod_func_int8_t_s_s>:
    8231:	f3 0f 1e fa          	endbr64 
    8235:	55                   	push   %rbp
    8236:	48 89 e5             	mov    %rsp,%rbp
    8239:	89 fa                	mov    %edi,%edx
    823b:	89 f0                	mov    %esi,%eax
    823d:	88 55 fc             	mov    %dl,-0x4(%rbp)
    8240:	88 45 f8             	mov    %al,-0x8(%rbp)
    8243:	80 7d f8 00          	cmpb   $0x0,-0x8(%rbp)
    8247:	74 1b                	je     8264 <safe_mod_func_int8_t_s_s+0x33>
    8249:	80 7d fc 80          	cmpb   $0x80,-0x4(%rbp)
    824d:	75 06                	jne    8255 <safe_mod_func_int8_t_s_s+0x24>
    824f:	80 7d f8 ff          	cmpb   $0xff,-0x8(%rbp)
    8253:	74 0f                	je     8264 <safe_mod_func_int8_t_s_s+0x33>
    8255:	0f be 45 fc          	movsbl -0x4(%rbp),%eax
    8259:	0f be 4d f8          	movsbl -0x8(%rbp),%ecx
    825d:	99                   	cltd   
    825e:	f7 f9                	idiv   %ecx
    8260:	89 d0                	mov    %edx,%eax
    8262:	eb 04                	jmp    8268 <safe_mod_func_int8_t_s_s+0x37>
    8264:	0f b6 45 fc          	movzbl -0x4(%rbp),%eax
    8268:	5d                   	pop    %rbp
    8269:	c3                   	retq   

000000000000826a <safe_div_func_int8_t_s_s>:
    826a:	f3 0f 1e fa          	endbr64 
    826e:	55                   	push   %rbp
    826f:	48 89 e5             	mov    %rsp,%rbp
    8272:	89 fa                	mov    %edi,%edx
    8274:	89 f0                	mov    %esi,%eax
    8276:	88 55 fc             	mov    %dl,-0x4(%rbp)
    8279:	88 45 f8             	mov    %al,-0x8(%rbp)
    827c:	80 7d f8 00          	cmpb   $0x0,-0x8(%rbp)
    8280:	74 19                	je     829b <safe_div_func_int8_t_s_s+0x31>
    8282:	80 7d fc 80          	cmpb   $0x80,-0x4(%rbp)
    8286:	75 06                	jne    828e <safe_div_func_int8_t_s_s+0x24>
    8288:	80 7d f8 ff          	cmpb   $0xff,-0x8(%rbp)
    828c:	74 0d                	je     829b <safe_div_func_int8_t_s_s+0x31>
    828e:	0f be 45 fc          	movsbl -0x4(%rbp),%eax
    8292:	0f be 4d f8          	movsbl -0x8(%rbp),%ecx
    8296:	99                   	cltd   
    8297:	f7 f9                	idiv   %ecx
    8299:	eb 04                	jmp    829f <safe_div_func_int8_t_s_s+0x35>
    829b:	0f b6 45 fc          	movzbl -0x4(%rbp),%eax
    829f:	5d                   	pop    %rbp
    82a0:	c3                   	retq   

00000000000082a1 <safe_lshift_func_int8_t_s_s>:
    82a1:	f3 0f 1e fa          	endbr64 
    82a5:	55                   	push   %rbp
    82a6:	48 89 e5             	mov    %rsp,%rbp
    82a9:	89 f8                	mov    %edi,%eax
    82ab:	89 75 f8             	mov    %esi,-0x8(%rbp)
    82ae:	88 45 fc             	mov    %al,-0x4(%rbp)
    82b1:	80 7d fc 00          	cmpb   $0x0,-0x4(%rbp)
    82b5:	78 31                	js     82e8 <safe_lshift_func_int8_t_s_s+0x47>
    82b7:	83 7d f8 00          	cmpl   $0x0,-0x8(%rbp)
    82bb:	78 2b                	js     82e8 <safe_lshift_func_int8_t_s_s+0x47>
    82bd:	83 7d f8 1f          	cmpl   $0x1f,-0x8(%rbp)
    82c1:	7f 25                	jg     82e8 <safe_lshift_func_int8_t_s_s+0x47>
    82c3:	0f be 55 fc          	movsbl -0x4(%rbp),%edx
    82c7:	8b 45 f8             	mov    -0x8(%rbp),%eax
    82ca:	be 7f 00 00 00       	mov    $0x7f,%esi
    82cf:	89 c1                	mov    %eax,%ecx
    82d1:	d3 fe                	sar    %cl,%esi
    82d3:	89 f0                	mov    %esi,%eax
    82d5:	39 c2                	cmp    %eax,%edx
    82d7:	7f 0f                	jg     82e8 <safe_lshift_func_int8_t_s_s+0x47>
    82d9:	0f be 55 fc          	movsbl -0x4(%rbp),%edx
    82dd:	8b 45 f8             	mov    -0x8(%rbp),%eax
    82e0:	89 c1                	mov    %eax,%ecx
    82e2:	d3 e2                	shl    %cl,%edx
    82e4:	89 d0                	mov    %edx,%eax
    82e6:	eb 04                	jmp    82ec <safe_lshift_func_int8_t_s_s+0x4b>
    82e8:	0f b6 45 fc          	movzbl -0x4(%rbp),%eax
    82ec:	5d                   	pop    %rbp
    82ed:	c3                   	retq   

00000000000082ee <safe_lshift_func_int8_t_s_u>:
    82ee:	f3 0f 1e fa          	endbr64 
    82f2:	55                   	push   %rbp
    82f3:	48 89 e5             	mov    %rsp,%rbp
    82f6:	89 f8                	mov    %edi,%eax
    82f8:	89 75 f8             	mov    %esi,-0x8(%rbp)
    82fb:	88 45 fc             	mov    %al,-0x4(%rbp)
    82fe:	80 7d fc 00          	cmpb   $0x0,-0x4(%rbp)
    8302:	78 2b                	js     832f <safe_lshift_func_int8_t_s_u+0x41>
    8304:	83 7d f8 1f          	cmpl   $0x1f,-0x8(%rbp)
    8308:	77 25                	ja     832f <safe_lshift_func_int8_t_s_u+0x41>
    830a:	0f be 55 fc          	movsbl -0x4(%rbp),%edx
    830e:	8b 45 f8             	mov    -0x8(%rbp),%eax
    8311:	be 7f 00 00 00       	mov    $0x7f,%esi
    8316:	89 c1                	mov    %eax,%ecx
    8318:	d3 fe                	sar    %cl,%esi
    831a:	89 f0                	mov    %esi,%eax
    831c:	39 c2                	cmp    %eax,%edx
    831e:	7f 0f                	jg     832f <safe_lshift_func_int8_t_s_u+0x41>
    8320:	0f be 55 fc          	movsbl -0x4(%rbp),%edx
    8324:	8b 45 f8             	mov    -0x8(%rbp),%eax
    8327:	89 c1                	mov    %eax,%ecx
    8329:	d3 e2                	shl    %cl,%edx
    832b:	89 d0                	mov    %edx,%eax
    832d:	eb 04                	jmp    8333 <safe_lshift_func_int8_t_s_u+0x45>
    832f:	0f b6 45 fc          	movzbl -0x4(%rbp),%eax
    8333:	5d                   	pop    %rbp
    8334:	c3                   	retq   

0000000000008335 <safe_rshift_func_int8_t_s_s>:
    8335:	f3 0f 1e fa          	endbr64 
    8339:	55                   	push   %rbp
    833a:	48 89 e5             	mov    %rsp,%rbp
    833d:	89 f8                	mov    %edi,%eax
    833f:	89 75 f8             	mov    %esi,-0x8(%rbp)
    8342:	88 45 fc             	mov    %al,-0x4(%rbp)
    8345:	80 7d fc 00          	cmpb   $0x0,-0x4(%rbp)
    8349:	78 1b                	js     8366 <safe_rshift_func_int8_t_s_s+0x31>
    834b:	83 7d f8 00          	cmpl   $0x0,-0x8(%rbp)
    834f:	78 15                	js     8366 <safe_rshift_func_int8_t_s_s+0x31>
    8351:	83 7d f8 1f          	cmpl   $0x1f,-0x8(%rbp)
    8355:	7f 0f                	jg     8366 <safe_rshift_func_int8_t_s_s+0x31>
    8357:	0f be 55 fc          	movsbl -0x4(%rbp),%edx
    835b:	8b 45 f8             	mov    -0x8(%rbp),%eax
    835e:	89 c1                	mov    %eax,%ecx
    8360:	d3 fa                	sar    %cl,%edx
    8362:	89 d0                	mov    %edx,%eax
    8364:	eb 04                	jmp    836a <safe_rshift_func_int8_t_s_s+0x35>
    8366:	0f b6 45 fc          	movzbl -0x4(%rbp),%eax
    836a:	5d                   	pop    %rbp
    836b:	c3                   	retq   

000000000000836c <safe_rshift_func_int8_t_s_u>:
    836c:	f3 0f 1e fa          	endbr64 
    8370:	55                   	push   %rbp
    8371:	48 89 e5             	mov    %rsp,%rbp
    8374:	89 f8                	mov    %edi,%eax
    8376:	89 75 f8             	mov    %esi,-0x8(%rbp)
    8379:	88 45 fc             	mov    %al,-0x4(%rbp)
    837c:	80 7d fc 00          	cmpb   $0x0,-0x4(%rbp)
    8380:	78 15                	js     8397 <safe_rshift_func_int8_t_s_u+0x2b>
    8382:	83 7d f8 1f          	cmpl   $0x1f,-0x8(%rbp)
    8386:	77 0f                	ja     8397 <safe_rshift_func_int8_t_s_u+0x2b>
    8388:	0f be 55 fc          	movsbl -0x4(%rbp),%edx
    838c:	8b 45 f8             	mov    -0x8(%rbp),%eax
    838f:	89 c1                	mov    %eax,%ecx
    8391:	d3 fa                	sar    %cl,%edx
    8393:	89 d0                	mov    %edx,%eax
    8395:	eb 04                	jmp    839b <safe_rshift_func_int8_t_s_u+0x2f>
    8397:	0f b6 45 fc          	movzbl -0x4(%rbp),%eax
    839b:	5d                   	pop    %rbp
    839c:	c3                   	retq   

000000000000839d <safe_unary_minus_func_int16_t_s>:
    839d:	f3 0f 1e fa          	endbr64 
    83a1:	55                   	push   %rbp
    83a2:	48 89 e5             	mov    %rsp,%rbp
    83a5:	89 f8                	mov    %edi,%eax
    83a7:	66 89 45 fc          	mov    %ax,-0x4(%rbp)
    83ab:	0f b7 45 fc          	movzwl -0x4(%rbp),%eax
    83af:	f7 d8                	neg    %eax
    83b1:	5d                   	pop    %rbp
    83b2:	c3                   	retq   

00000000000083b3 <safe_add_func_int16_t_s_s>:
    83b3:	f3 0f 1e fa          	endbr64 
    83b7:	55                   	push   %rbp
    83b8:	48 89 e5             	mov    %rsp,%rbp
    83bb:	89 fa                	mov    %edi,%edx
    83bd:	89 f0                	mov    %esi,%eax
    83bf:	66 89 55 fc          	mov    %dx,-0x4(%rbp)
    83c3:	66 89 45 f8          	mov    %ax,-0x8(%rbp)
    83c7:	0f b7 55 fc          	movzwl -0x4(%rbp),%edx
    83cb:	0f b7 45 f8          	movzwl -0x8(%rbp),%eax
    83cf:	01 d0                	add    %edx,%eax
    83d1:	5d                   	pop    %rbp
    83d2:	c3                   	retq   

00000000000083d3 <safe_sub_func_int16_t_s_s>:
    83d3:	f3 0f 1e fa          	endbr64 
    83d7:	55                   	push   %rbp
    83d8:	48 89 e5             	mov    %rsp,%rbp
    83db:	89 fa                	mov    %edi,%edx
    83dd:	89 f0                	mov    %esi,%eax
    83df:	66 89 55 fc          	mov    %dx,-0x4(%rbp)
    83e3:	66 89 45 f8          	mov    %ax,-0x8(%rbp)
    83e7:	0f b7 55 fc          	movzwl -0x4(%rbp),%edx
    83eb:	0f b7 45 f8          	movzwl -0x8(%rbp),%eax
    83ef:	29 c2                	sub    %eax,%edx
    83f1:	89 d0                	mov    %edx,%eax
    83f3:	5d                   	pop    %rbp
    83f4:	c3                   	retq   

00000000000083f5 <safe_mul_func_int16_t_s_s>:
    83f5:	f3 0f 1e fa          	endbr64 
    83f9:	55                   	push   %rbp
    83fa:	48 89 e5             	mov    %rsp,%rbp
    83fd:	89 fa                	mov    %edi,%edx
    83ff:	89 f0                	mov    %esi,%eax
    8401:	66 89 55 fc          	mov    %dx,-0x4(%rbp)
    8405:	66 89 45 f8          	mov    %ax,-0x8(%rbp)
    8409:	0f b7 55 fc          	movzwl -0x4(%rbp),%edx
    840d:	0f b7 45 f8          	movzwl -0x8(%rbp),%eax
    8411:	0f af c2             	imul   %edx,%eax
    8414:	5d                   	pop    %rbp
    8415:	c3                   	retq   

0000000000008416 <safe_mod_func_int16_t_s_s>:
    8416:	f3 0f 1e fa          	endbr64 
    841a:	55                   	push   %rbp
    841b:	48 89 e5             	mov    %rsp,%rbp
    841e:	89 fa                	mov    %edi,%edx
    8420:	89 f0                	mov    %esi,%eax
    8422:	66 89 55 fc          	mov    %dx,-0x4(%rbp)
    8426:	66 89 45 f8          	mov    %ax,-0x8(%rbp)
    842a:	66 83 7d f8 00       	cmpw   $0x0,-0x8(%rbp)
    842f:	74 1e                	je     844f <safe_mod_func_int16_t_s_s+0x39>
    8431:	66 81 7d fc 00 80    	cmpw   $0x8000,-0x4(%rbp)
    8437:	75 07                	jne    8440 <safe_mod_func_int16_t_s_s+0x2a>
    8439:	66 83 7d f8 ff       	cmpw   $0xffff,-0x8(%rbp)
    843e:	74 0f                	je     844f <safe_mod_func_int16_t_s_s+0x39>
    8440:	0f bf 45 fc          	movswl -0x4(%rbp),%eax
    8444:	0f bf 4d f8          	movswl -0x8(%rbp),%ecx
    8448:	99                   	cltd   
    8449:	f7 f9                	idiv   %ecx
    844b:	89 d0                	mov    %edx,%eax
    844d:	eb 04                	jmp    8453 <safe_mod_func_int16_t_s_s+0x3d>
    844f:	0f b7 45 fc          	movzwl -0x4(%rbp),%eax
    8453:	5d                   	pop    %rbp
    8454:	c3                   	retq   

0000000000008455 <safe_div_func_int16_t_s_s>:
    8455:	f3 0f 1e fa          	endbr64 
    8459:	55                   	push   %rbp
    845a:	48 89 e5             	mov    %rsp,%rbp
    845d:	89 fa                	mov    %edi,%edx
    845f:	89 f0                	mov    %esi,%eax
    8461:	66 89 55 fc          	mov    %dx,-0x4(%rbp)
    8465:	66 89 45 f8          	mov    %ax,-0x8(%rbp)
    8469:	66 83 7d f8 00       	cmpw   $0x0,-0x8(%rbp)
    846e:	74 1c                	je     848c <safe_div_func_int16_t_s_s+0x37>
    8470:	66 81 7d fc 00 80    	cmpw   $0x8000,-0x4(%rbp)
    8476:	75 07                	jne    847f <safe_div_func_int16_t_s_s+0x2a>
    8478:	66 83 7d f8 ff       	cmpw   $0xffff,-0x8(%rbp)
    847d:	74 0d                	je     848c <safe_div_func_int16_t_s_s+0x37>
    847f:	0f bf 45 fc          	movswl -0x4(%rbp),%eax
    8483:	0f bf 4d f8          	movswl -0x8(%rbp),%ecx
    8487:	99                   	cltd   
    8488:	f7 f9                	idiv   %ecx
    848a:	eb 04                	jmp    8490 <safe_div_func_int16_t_s_s+0x3b>
    848c:	0f b7 45 fc          	movzwl -0x4(%rbp),%eax
    8490:	5d                   	pop    %rbp
    8491:	c3                   	retq   

0000000000008492 <safe_lshift_func_int16_t_s_s>:
    8492:	f3 0f 1e fa          	endbr64 
    8496:	55                   	push   %rbp
    8497:	48 89 e5             	mov    %rsp,%rbp
    849a:	89 f8                	mov    %edi,%eax
    849c:	89 75 f8             	mov    %esi,-0x8(%rbp)
    849f:	66 89 45 fc          	mov    %ax,-0x4(%rbp)
    84a3:	66 83 7d fc 00       	cmpw   $0x0,-0x4(%rbp)
    84a8:	78 31                	js     84db <safe_lshift_func_int16_t_s_s+0x49>
    84aa:	83 7d f8 00          	cmpl   $0x0,-0x8(%rbp)
    84ae:	78 2b                	js     84db <safe_lshift_func_int16_t_s_s+0x49>
    84b0:	83 7d f8 1f          	cmpl   $0x1f,-0x8(%rbp)
    84b4:	7f 25                	jg     84db <safe_lshift_func_int16_t_s_s+0x49>
    84b6:	0f bf 55 fc          	movswl -0x4(%rbp),%edx
    84ba:	8b 45 f8             	mov    -0x8(%rbp),%eax
    84bd:	be ff 7f 00 00       	mov    $0x7fff,%esi
    84c2:	89 c1                	mov    %eax,%ecx
    84c4:	d3 fe                	sar    %cl,%esi
    84c6:	89 f0                	mov    %esi,%eax
    84c8:	39 c2                	cmp    %eax,%edx
    84ca:	7f 0f                	jg     84db <safe_lshift_func_int16_t_s_s+0x49>
    84cc:	0f bf 55 fc          	movswl -0x4(%rbp),%edx
    84d0:	8b 45 f8             	mov    -0x8(%rbp),%eax
    84d3:	89 c1                	mov    %eax,%ecx
    84d5:	d3 e2                	shl    %cl,%edx
    84d7:	89 d0                	mov    %edx,%eax
    84d9:	eb 04                	jmp    84df <safe_lshift_func_int16_t_s_s+0x4d>
    84db:	0f b7 45 fc          	movzwl -0x4(%rbp),%eax
    84df:	5d                   	pop    %rbp
    84e0:	c3                   	retq   

00000000000084e1 <safe_lshift_func_int16_t_s_u>:
    84e1:	f3 0f 1e fa          	endbr64 
    84e5:	55                   	push   %rbp
    84e6:	48 89 e5             	mov    %rsp,%rbp
    84e9:	89 f8                	mov    %edi,%eax
    84eb:	89 75 f8             	mov    %esi,-0x8(%rbp)
    84ee:	66 89 45 fc          	mov    %ax,-0x4(%rbp)
    84f2:	66 83 7d fc 00       	cmpw   $0x0,-0x4(%rbp)
    84f7:	78 2b                	js     8524 <safe_lshift_func_int16_t_s_u+0x43>
    84f9:	83 7d f8 1f          	cmpl   $0x1f,-0x8(%rbp)
    84fd:	77 25                	ja     8524 <safe_lshift_func_int16_t_s_u+0x43>
    84ff:	0f bf 55 fc          	movswl -0x4(%rbp),%edx
    8503:	8b 45 f8             	mov    -0x8(%rbp),%eax
    8506:	be ff 7f 00 00       	mov    $0x7fff,%esi
    850b:	89 c1                	mov    %eax,%ecx
    850d:	d3 fe                	sar    %cl,%esi
    850f:	89 f0                	mov    %esi,%eax
    8511:	39 c2                	cmp    %eax,%edx
    8513:	7f 0f                	jg     8524 <safe_lshift_func_int16_t_s_u+0x43>
    8515:	0f bf 55 fc          	movswl -0x4(%rbp),%edx
    8519:	8b 45 f8             	mov    -0x8(%rbp),%eax
    851c:	89 c1                	mov    %eax,%ecx
    851e:	d3 e2                	shl    %cl,%edx
    8520:	89 d0                	mov    %edx,%eax
    8522:	eb 04                	jmp    8528 <safe_lshift_func_int16_t_s_u+0x47>
    8524:	0f b7 45 fc          	movzwl -0x4(%rbp),%eax
    8528:	5d                   	pop    %rbp
    8529:	c3                   	retq   

000000000000852a <safe_rshift_func_int16_t_s_s>:
    852a:	f3 0f 1e fa          	endbr64 
    852e:	55                   	push   %rbp
    852f:	48 89 e5             	mov    %rsp,%rbp
    8532:	89 f8                	mov    %edi,%eax
    8534:	89 75 f8             	mov    %esi,-0x8(%rbp)
    8537:	66 89 45 fc          	mov    %ax,-0x4(%rbp)
    853b:	66 83 7d fc 00       	cmpw   $0x0,-0x4(%rbp)
    8540:	78 1b                	js     855d <safe_rshift_func_int16_t_s_s+0x33>
    8542:	83 7d f8 00          	cmpl   $0x0,-0x8(%rbp)
    8546:	78 15                	js     855d <safe_rshift_func_int16_t_s_s+0x33>
    8548:	83 7d f8 1f          	cmpl   $0x1f,-0x8(%rbp)
    854c:	7f 0f                	jg     855d <safe_rshift_func_int16_t_s_s+0x33>
    854e:	0f bf 55 fc          	movswl -0x4(%rbp),%edx
    8552:	8b 45 f8             	mov    -0x8(%rbp),%eax
    8555:	89 c1                	mov    %eax,%ecx
    8557:	d3 fa                	sar    %cl,%edx
    8559:	89 d0                	mov    %edx,%eax
    855b:	eb 04                	jmp    8561 <safe_rshift_func_int16_t_s_s+0x37>
    855d:	0f b7 45 fc          	movzwl -0x4(%rbp),%eax
    8561:	5d                   	pop    %rbp
    8562:	c3                   	retq   

0000000000008563 <safe_rshift_func_int16_t_s_u>:
    8563:	f3 0f 1e fa          	endbr64 
    8567:	55                   	push   %rbp
    8568:	48 89 e5             	mov    %rsp,%rbp
    856b:	89 f8                	mov    %edi,%eax
    856d:	89 75 f8             	mov    %esi,-0x8(%rbp)
    8570:	66 89 45 fc          	mov    %ax,-0x4(%rbp)
    8574:	66 83 7d fc 00       	cmpw   $0x0,-0x4(%rbp)
    8579:	78 15                	js     8590 <safe_rshift_func_int16_t_s_u+0x2d>
    857b:	83 7d f8 1f          	cmpl   $0x1f,-0x8(%rbp)
    857f:	77 0f                	ja     8590 <safe_rshift_func_int16_t_s_u+0x2d>
    8581:	0f bf 55 fc          	movswl -0x4(%rbp),%edx
    8585:	8b 45 f8             	mov    -0x8(%rbp),%eax
    8588:	89 c1                	mov    %eax,%ecx
    858a:	d3 fa                	sar    %cl,%edx
    858c:	89 d0                	mov    %edx,%eax
    858e:	eb 04                	jmp    8594 <safe_rshift_func_int16_t_s_u+0x31>
    8590:	0f b7 45 fc          	movzwl -0x4(%rbp),%eax
    8594:	5d                   	pop    %rbp
    8595:	c3                   	retq   

0000000000008596 <safe_unary_minus_func_int32_t_s>:
    8596:	f3 0f 1e fa          	endbr64 
    859a:	55                   	push   %rbp
    859b:	48 89 e5             	mov    %rsp,%rbp
    859e:	89 7d fc             	mov    %edi,-0x4(%rbp)
    85a1:	81 7d fc 00 00 00 80 	cmpl   $0x80000000,-0x4(%rbp)
    85a8:	74 07                	je     85b1 <safe_unary_minus_func_int32_t_s+0x1b>
    85aa:	8b 45 fc             	mov    -0x4(%rbp),%eax
    85ad:	f7 d8                	neg    %eax
    85af:	eb 03                	jmp    85b4 <safe_unary_minus_func_int32_t_s+0x1e>
    85b1:	8b 45 fc             	mov    -0x4(%rbp),%eax
    85b4:	5d                   	pop    %rbp
    85b5:	c3                   	retq   

00000000000085b6 <safe_add_func_int32_t_s_s>:
    85b6:	f3 0f 1e fa          	endbr64 
    85ba:	55                   	push   %rbp
    85bb:	48 89 e5             	mov    %rsp,%rbp
    85be:	89 7d fc             	mov    %edi,-0x4(%rbp)
    85c1:	89 75 f8             	mov    %esi,-0x8(%rbp)
    85c4:	83 7d fc 00          	cmpl   $0x0,-0x4(%rbp)
    85c8:	7e 13                	jle    85dd <safe_add_func_int32_t_s_s+0x27>
    85ca:	83 7d f8 00          	cmpl   $0x0,-0x8(%rbp)
    85ce:	7e 0d                	jle    85dd <safe_add_func_int32_t_s_s+0x27>
    85d0:	b8 ff ff ff 7f       	mov    $0x7fffffff,%eax
    85d5:	2b 45 f8             	sub    -0x8(%rbp),%eax
    85d8:	39 45 fc             	cmp    %eax,-0x4(%rbp)
    85db:	7f 23                	jg     8600 <safe_add_func_int32_t_s_s+0x4a>
    85dd:	83 7d fc 00          	cmpl   $0x0,-0x4(%rbp)
    85e1:	79 13                	jns    85f6 <safe_add_func_int32_t_s_s+0x40>
    85e3:	83 7d f8 00          	cmpl   $0x0,-0x8(%rbp)
    85e7:	79 0d                	jns    85f6 <safe_add_func_int32_t_s_s+0x40>
    85e9:	b8 00 00 00 80       	mov    $0x80000000,%eax
    85ee:	2b 45 f8             	sub    -0x8(%rbp),%eax
    85f1:	39 45 fc             	cmp    %eax,-0x4(%rbp)
    85f4:	7c 0a                	jl     8600 <safe_add_func_int32_t_s_s+0x4a>
    85f6:	8b 55 fc             	mov    -0x4(%rbp),%edx
    85f9:	8b 45 f8             	mov    -0x8(%rbp),%eax
    85fc:	01 d0                	add    %edx,%eax
    85fe:	eb 03                	jmp    8603 <safe_add_func_int32_t_s_s+0x4d>
    8600:	8b 45 fc             	mov    -0x4(%rbp),%eax
    8603:	5d                   	pop    %rbp
    8604:	c3                   	retq   

0000000000008605 <safe_sub_func_int32_t_s_s>:
    8605:	f3 0f 1e fa          	endbr64 
    8609:	55                   	push   %rbp
    860a:	48 89 e5             	mov    %rsp,%rbp
    860d:	89 7d fc             	mov    %edi,-0x4(%rbp)
    8610:	89 75 f8             	mov    %esi,-0x8(%rbp)
    8613:	8b 45 fc             	mov    -0x4(%rbp),%eax
    8616:	33 45 f8             	xor    -0x8(%rbp),%eax
    8619:	89 c2                	mov    %eax,%edx
    861b:	8b 45 fc             	mov    -0x4(%rbp),%eax
    861e:	33 45 f8             	xor    -0x8(%rbp),%eax
    8621:	25 00 00 00 80       	and    $0x80000000,%eax
    8626:	33 45 fc             	xor    -0x4(%rbp),%eax
    8629:	2b 45 f8             	sub    -0x8(%rbp),%eax
    862c:	33 45 f8             	xor    -0x8(%rbp),%eax
    862f:	21 d0                	and    %edx,%eax
    8631:	85 c0                	test   %eax,%eax
    8633:	78 08                	js     863d <safe_sub_func_int32_t_s_s+0x38>
    8635:	8b 45 fc             	mov    -0x4(%rbp),%eax
    8638:	2b 45 f8             	sub    -0x8(%rbp),%eax
    863b:	eb 03                	jmp    8640 <safe_sub_func_int32_t_s_s+0x3b>
    863d:	8b 45 fc             	mov    -0x4(%rbp),%eax
    8640:	5d                   	pop    %rbp
    8641:	c3                   	retq   

0000000000008642 <safe_mul_func_int32_t_s_s>:
    8642:	f3 0f 1e fa          	endbr64 
    8646:	55                   	push   %rbp
    8647:	48 89 e5             	mov    %rsp,%rbp
    864a:	89 7d fc             	mov    %edi,-0x4(%rbp)
    864d:	89 75 f8             	mov    %esi,-0x8(%rbp)
    8650:	83 7d fc 00          	cmpl   $0x0,-0x4(%rbp)
    8654:	7e 14                	jle    866a <safe_mul_func_int32_t_s_s+0x28>
    8656:	83 7d f8 00          	cmpl   $0x0,-0x8(%rbp)
    865a:	7e 0e                	jle    866a <safe_mul_func_int32_t_s_s+0x28>
    865c:	b8 ff ff ff 7f       	mov    $0x7fffffff,%eax
    8661:	99                   	cltd   
    8662:	f7 7d f8             	idivl  -0x8(%rbp)
    8665:	39 45 fc             	cmp    %eax,-0x4(%rbp)
    8668:	7f 5d                	jg     86c7 <safe_mul_func_int32_t_s_s+0x85>
    866a:	83 7d fc 00          	cmpl   $0x0,-0x4(%rbp)
    866e:	7e 14                	jle    8684 <safe_mul_func_int32_t_s_s+0x42>
    8670:	83 7d f8 00          	cmpl   $0x0,-0x8(%rbp)
    8674:	7f 0e                	jg     8684 <safe_mul_func_int32_t_s_s+0x42>
    8676:	b8 00 00 00 80       	mov    $0x80000000,%eax
    867b:	99                   	cltd   
    867c:	f7 7d fc             	idivl  -0x4(%rbp)
    867f:	39 45 f8             	cmp    %eax,-0x8(%rbp)
    8682:	7c 43                	jl     86c7 <safe_mul_func_int32_t_s_s+0x85>
    8684:	83 7d fc 00          	cmpl   $0x0,-0x4(%rbp)
    8688:	7f 14                	jg     869e <safe_mul_func_int32_t_s_s+0x5c>
    868a:	83 7d f8 00          	cmpl   $0x0,-0x8(%rbp)
    868e:	7e 0e                	jle    869e <safe_mul_func_int32_t_s_s+0x5c>
    8690:	b8 00 00 00 80       	mov    $0x80000000,%eax
    8695:	99                   	cltd   
    8696:	f7 7d f8             	idivl  -0x8(%rbp)
    8699:	39 45 fc             	cmp    %eax,-0x4(%rbp)
    869c:	7c 29                	jl     86c7 <safe_mul_func_int32_t_s_s+0x85>
    869e:	83 7d fc 00          	cmpl   $0x0,-0x4(%rbp)
    86a2:	7f 1a                	jg     86be <safe_mul_func_int32_t_s_s+0x7c>
    86a4:	83 7d f8 00          	cmpl   $0x0,-0x8(%rbp)
    86a8:	7f 14                	jg     86be <safe_mul_func_int32_t_s_s+0x7c>
    86aa:	83 7d fc 00          	cmpl   $0x0,-0x4(%rbp)
    86ae:	74 0e                	je     86be <safe_mul_func_int32_t_s_s+0x7c>
    86b0:	b8 ff ff ff 7f       	mov    $0x7fffffff,%eax
    86b5:	99                   	cltd   
    86b6:	f7 7d fc             	idivl  -0x4(%rbp)
    86b9:	39 45 f8             	cmp    %eax,-0x8(%rbp)
    86bc:	7c 09                	jl     86c7 <safe_mul_func_int32_t_s_s+0x85>
    86be:	8b 45 fc             	mov    -0x4(%rbp),%eax
    86c1:	0f af 45 f8          	imul   -0x8(%rbp),%eax
    86c5:	eb 03                	jmp    86ca <safe_mul_func_int32_t_s_s+0x88>
    86c7:	8b 45 fc             	mov    -0x4(%rbp),%eax
    86ca:	5d                   	pop    %rbp
    86cb:	c3                   	retq   

00000000000086cc <safe_mod_func_int32_t_s_s>:
    86cc:	f3 0f 1e fa          	endbr64 
    86d0:	55                   	push   %rbp
    86d1:	48 89 e5             	mov    %rsp,%rbp
    86d4:	89 7d fc             	mov    %edi,-0x4(%rbp)
    86d7:	89 75 f8             	mov    %esi,-0x8(%rbp)
    86da:	83 7d f8 00          	cmpl   $0x0,-0x8(%rbp)
    86de:	74 1a                	je     86fa <safe_mod_func_int32_t_s_s+0x2e>
    86e0:	81 7d fc 00 00 00 80 	cmpl   $0x80000000,-0x4(%rbp)
    86e7:	75 06                	jne    86ef <safe_mod_func_int32_t_s_s+0x23>
    86e9:	83 7d f8 ff          	cmpl   $0xffffffff,-0x8(%rbp)
    86ed:	74 0b                	je     86fa <safe_mod_func_int32_t_s_s+0x2e>
    86ef:	8b 45 fc             	mov    -0x4(%rbp),%eax
    86f2:	99                   	cltd   
    86f3:	f7 7d f8             	idivl  -0x8(%rbp)
    86f6:	89 d0                	mov    %edx,%eax
    86f8:	eb 03                	jmp    86fd <safe_mod_func_int32_t_s_s+0x31>
    86fa:	8b 45 fc             	mov    -0x4(%rbp),%eax
    86fd:	5d                   	pop    %rbp
    86fe:	c3                   	retq   

00000000000086ff <safe_div_func_int32_t_s_s>:
    86ff:	f3 0f 1e fa          	endbr64 
    8703:	55                   	push   %rbp
    8704:	48 89 e5             	mov    %rsp,%rbp
    8707:	89 7d fc             	mov    %edi,-0x4(%rbp)
    870a:	89 75 f8             	mov    %esi,-0x8(%rbp)
    870d:	83 7d f8 00          	cmpl   $0x0,-0x8(%rbp)
    8711:	74 18                	je     872b <safe_div_func_int32_t_s_s+0x2c>
    8713:	81 7d fc 00 00 00 80 	cmpl   $0x80000000,-0x4(%rbp)
    871a:	75 06                	jne    8722 <safe_div_func_int32_t_s_s+0x23>
    871c:	83 7d f8 ff          	cmpl   $0xffffffff,-0x8(%rbp)
    8720:	74 09                	je     872b <safe_div_func_int32_t_s_s+0x2c>
    8722:	8b 45 fc             	mov    -0x4(%rbp),%eax
    8725:	99                   	cltd   
    8726:	f7 7d f8             	idivl  -0x8(%rbp)
    8729:	eb 03                	jmp    872e <safe_div_func_int32_t_s_s+0x2f>
    872b:	8b 45 fc             	mov    -0x4(%rbp),%eax
    872e:	5d                   	pop    %rbp
    872f:	c3                   	retq   

0000000000008730 <safe_lshift_func_int32_t_s_s>:
    8730:	f3 0f 1e fa          	endbr64 
    8734:	55                   	push   %rbp
    8735:	48 89 e5             	mov    %rsp,%rbp
    8738:	89 7d fc             	mov    %edi,-0x4(%rbp)
    873b:	89 75 f8             	mov    %esi,-0x8(%rbp)
    873e:	83 7d fc 00          	cmpl   $0x0,-0x4(%rbp)
    8742:	78 2d                	js     8771 <safe_lshift_func_int32_t_s_s+0x41>
    8744:	83 7d f8 00          	cmpl   $0x0,-0x8(%rbp)
    8748:	78 27                	js     8771 <safe_lshift_func_int32_t_s_s+0x41>
    874a:	83 7d f8 1f          	cmpl   $0x1f,-0x8(%rbp)
    874e:	7f 21                	jg     8771 <safe_lshift_func_int32_t_s_s+0x41>
    8750:	8b 45 f8             	mov    -0x8(%rbp),%eax
    8753:	ba ff ff ff 7f       	mov    $0x7fffffff,%edx
    8758:	89 c1                	mov    %eax,%ecx
    875a:	d3 fa                	sar    %cl,%edx
    875c:	89 d0                	mov    %edx,%eax
    875e:	39 45 fc             	cmp    %eax,-0x4(%rbp)
    8761:	7f 0e                	jg     8771 <safe_lshift_func_int32_t_s_s+0x41>
    8763:	8b 45 f8             	mov    -0x8(%rbp),%eax
    8766:	8b 55 fc             	mov    -0x4(%rbp),%edx
    8769:	89 c1                	mov    %eax,%ecx
    876b:	d3 e2                	shl    %cl,%edx
    876d:	89 d0                	mov    %edx,%eax
    876f:	eb 03                	jmp    8774 <safe_lshift_func_int32_t_s_s+0x44>
    8771:	8b 45 fc             	mov    -0x4(%rbp),%eax
    8774:	5d                   	pop    %rbp
    8775:	c3                   	retq   

0000000000008776 <safe_lshift_func_int32_t_s_u>:
    8776:	f3 0f 1e fa          	endbr64 
    877a:	55                   	push   %rbp
    877b:	48 89 e5             	mov    %rsp,%rbp
    877e:	89 7d fc             	mov    %edi,-0x4(%rbp)
    8781:	89 75 f8             	mov    %esi,-0x8(%rbp)
    8784:	83 7d fc 00          	cmpl   $0x0,-0x4(%rbp)
    8788:	78 27                	js     87b1 <safe_lshift_func_int32_t_s_u+0x3b>
    878a:	83 7d f8 1f          	cmpl   $0x1f,-0x8(%rbp)
    878e:	77 21                	ja     87b1 <safe_lshift_func_int32_t_s_u+0x3b>
    8790:	8b 45 f8             	mov    -0x8(%rbp),%eax
    8793:	ba ff ff ff 7f       	mov    $0x7fffffff,%edx
    8798:	89 c1                	mov    %eax,%ecx
    879a:	d3 fa                	sar    %cl,%edx
    879c:	89 d0                	mov    %edx,%eax
    879e:	39 45 fc             	cmp    %eax,-0x4(%rbp)
    87a1:	7f 0e                	jg     87b1 <safe_lshift_func_int32_t_s_u+0x3b>
    87a3:	8b 45 f8             	mov    -0x8(%rbp),%eax
    87a6:	8b 55 fc             	mov    -0x4(%rbp),%edx
    87a9:	89 c1                	mov    %eax,%ecx
    87ab:	d3 e2                	shl    %cl,%edx
    87ad:	89 d0                	mov    %edx,%eax
    87af:	eb 03                	jmp    87b4 <safe_lshift_func_int32_t_s_u+0x3e>
    87b1:	8b 45 fc             	mov    -0x4(%rbp),%eax
    87b4:	5d                   	pop    %rbp
    87b5:	c3                   	retq   

00000000000087b6 <safe_rshift_func_int32_t_s_s>:
    87b6:	f3 0f 1e fa          	endbr64 
    87ba:	55                   	push   %rbp
    87bb:	48 89 e5             	mov    %rsp,%rbp
    87be:	89 7d fc             	mov    %edi,-0x4(%rbp)
    87c1:	89 75 f8             	mov    %esi,-0x8(%rbp)
    87c4:	83 7d fc 00          	cmpl   $0x0,-0x4(%rbp)
    87c8:	78 1a                	js     87e4 <safe_rshift_func_int32_t_s_s+0x2e>
    87ca:	83 7d f8 00          	cmpl   $0x0,-0x8(%rbp)
    87ce:	78 14                	js     87e4 <safe_rshift_func_int32_t_s_s+0x2e>
    87d0:	83 7d f8 1f          	cmpl   $0x1f,-0x8(%rbp)
    87d4:	7f 0e                	jg     87e4 <safe_rshift_func_int32_t_s_s+0x2e>
    87d6:	8b 45 f8             	mov    -0x8(%rbp),%eax
    87d9:	8b 55 fc             	mov    -0x4(%rbp),%edx
    87dc:	89 c1                	mov    %eax,%ecx
    87de:	d3 fa                	sar    %cl,%edx
    87e0:	89 d0                	mov    %edx,%eax
    87e2:	eb 03                	jmp    87e7 <safe_rshift_func_int32_t_s_s+0x31>
    87e4:	8b 45 fc             	mov    -0x4(%rbp),%eax
    87e7:	5d                   	pop    %rbp
    87e8:	c3                   	retq   

00000000000087e9 <safe_rshift_func_int32_t_s_u>:
    87e9:	f3 0f 1e fa          	endbr64 
    87ed:	55                   	push   %rbp
    87ee:	48 89 e5             	mov    %rsp,%rbp
    87f1:	89 7d fc             	mov    %edi,-0x4(%rbp)
    87f4:	89 75 f8             	mov    %esi,-0x8(%rbp)
    87f7:	83 7d fc 00          	cmpl   $0x0,-0x4(%rbp)
    87fb:	78 14                	js     8811 <safe_rshift_func_int32_t_s_u+0x28>
    87fd:	83 7d f8 1f          	cmpl   $0x1f,-0x8(%rbp)
    8801:	77 0e                	ja     8811 <safe_rshift_func_int32_t_s_u+0x28>
    8803:	8b 45 f8             	mov    -0x8(%rbp),%eax
    8806:	8b 55 fc             	mov    -0x4(%rbp),%edx
    8809:	89 c1                	mov    %eax,%ecx
    880b:	d3 fa                	sar    %cl,%edx
    880d:	89 d0                	mov    %edx,%eax
    880f:	eb 03                	jmp    8814 <safe_rshift_func_int32_t_s_u+0x2b>
    8811:	8b 45 fc             	mov    -0x4(%rbp),%eax
    8814:	5d                   	pop    %rbp
    8815:	c3                   	retq   

0000000000008816 <safe_unary_minus_func_int64_t_s>:
    8816:	f3 0f 1e fa          	endbr64 
    881a:	55                   	push   %rbp
    881b:	48 89 e5             	mov    %rsp,%rbp
    881e:	48 89 7d f8          	mov    %rdi,-0x8(%rbp)
    8822:	48 b8 00 00 00 00 00 	movabs $0x8000000000000000,%rax
    8829:	00 00 80 
    882c:	48 39 45 f8          	cmp    %rax,-0x8(%rbp)
    8830:	74 09                	je     883b <safe_unary_minus_func_int64_t_s+0x25>
    8832:	48 8b 45 f8          	mov    -0x8(%rbp),%rax
    8836:	48 f7 d8             	neg    %rax
    8839:	eb 04                	jmp    883f <safe_unary_minus_func_int64_t_s+0x29>
    883b:	48 8b 45 f8          	mov    -0x8(%rbp),%rax
    883f:	5d                   	pop    %rbp
    8840:	c3                   	retq   

0000000000008841 <safe_add_func_int64_t_s_s>:
    8841:	f3 0f 1e fa          	endbr64 
    8845:	55                   	push   %rbp
    8846:	48 89 e5             	mov    %rsp,%rbp
    8849:	48 89 7d f8          	mov    %rdi,-0x8(%rbp)
    884d:	48 89 75 f0          	mov    %rsi,-0x10(%rbp)
    8851:	48 83 7d f8 00       	cmpq   $0x0,-0x8(%rbp)
    8856:	7e 1b                	jle    8873 <safe_add_func_int64_t_s_s+0x32>
    8858:	48 83 7d f0 00       	cmpq   $0x0,-0x10(%rbp)
    885d:	7e 14                	jle    8873 <safe_add_func_int64_t_s_s+0x32>
    885f:	48 b8 ff ff ff ff ff 	movabs $0x7fffffffffffffff,%rax
    8866:	ff ff 7f 
    8869:	48 2b 45 f0          	sub    -0x10(%rbp),%rax
    886d:	48 39 45 f8          	cmp    %rax,-0x8(%rbp)
    8871:	7f 2f                	jg     88a2 <safe_add_func_int64_t_s_s+0x61>
    8873:	48 83 7d f8 00       	cmpq   $0x0,-0x8(%rbp)
    8878:	79 1b                	jns    8895 <safe_add_func_int64_t_s_s+0x54>
    887a:	48 83 7d f0 00       	cmpq   $0x0,-0x10(%rbp)
    887f:	79 14                	jns    8895 <safe_add_func_int64_t_s_s+0x54>
    8881:	48 b8 00 00 00 00 00 	movabs $0x8000000000000000,%rax
    8888:	00 00 80 
    888b:	48 2b 45 f0          	sub    -0x10(%rbp),%rax
    888f:	48 39 45 f8          	cmp    %rax,-0x8(%rbp)
    8893:	7c 0d                	jl     88a2 <safe_add_func_int64_t_s_s+0x61>
    8895:	48 8b 55 f8          	mov    -0x8(%rbp),%rdx
    8899:	48 8b 45 f0          	mov    -0x10(%rbp),%rax
    889d:	48 01 d0             	add    %rdx,%rax
    88a0:	eb 04                	jmp    88a6 <safe_add_func_int64_t_s_s+0x65>
    88a2:	48 8b 45 f8          	mov    -0x8(%rbp),%rax
    88a6:	5d                   	pop    %rbp
    88a7:	c3                   	retq   

00000000000088a8 <safe_sub_func_int64_t_s_s>:
    88a8:	f3 0f 1e fa          	endbr64 
    88ac:	55                   	push   %rbp
    88ad:	48 89 e5             	mov    %rsp,%rbp
    88b0:	48 89 7d f8          	mov    %rdi,-0x8(%rbp)
    88b4:	48 89 75 f0          	mov    %rsi,-0x10(%rbp)
    88b8:	48 8b 45 f8          	mov    -0x8(%rbp),%rax
    88bc:	48 33 45 f0          	xor    -0x10(%rbp),%rax
    88c0:	48 89 c2             	mov    %rax,%rdx
    88c3:	48 8b 45 f8          	mov    -0x8(%rbp),%rax
    88c7:	48 33 45 f0          	xor    -0x10(%rbp),%rax
    88cb:	48 b9 00 00 00 00 00 	movabs $0x8000000000000000,%rcx
    88d2:	00 00 80 
    88d5:	48 21 c8             	and    %rcx,%rax
    88d8:	48 33 45 f8          	xor    -0x8(%rbp),%rax
    88dc:	48 2b 45 f0          	sub    -0x10(%rbp),%rax
    88e0:	48 33 45 f0          	xor    -0x10(%rbp),%rax
    88e4:	48 21 d0             	and    %rdx,%rax
    88e7:	48 85 c0             	test   %rax,%rax
    88ea:	78 0a                	js     88f6 <safe_sub_func_int64_t_s_s+0x4e>
    88ec:	48 8b 45 f8          	mov    -0x8(%rbp),%rax
    88f0:	48 2b 45 f0          	sub    -0x10(%rbp),%rax
    88f4:	eb 04                	jmp    88fa <safe_sub_func_int64_t_s_s+0x52>
    88f6:	48 8b 45 f8          	mov    -0x8(%rbp),%rax
    88fa:	5d                   	pop    %rbp
    88fb:	c3                   	retq   

00000000000088fc <safe_mul_func_int64_t_s_s>:
    88fc:	f3 0f 1e fa          	endbr64 
    8900:	55                   	push   %rbp
    8901:	48 89 e5             	mov    %rsp,%rbp
    8904:	48 89 7d f8          	mov    %rdi,-0x8(%rbp)
    8908:	48 89 75 f0          	mov    %rsi,-0x10(%rbp)
    890c:	48 83 7d f8 00       	cmpq   $0x0,-0x8(%rbp)
    8911:	7e 1d                	jle    8930 <safe_mul_func_int64_t_s_s+0x34>
    8913:	48 83 7d f0 00       	cmpq   $0x0,-0x10(%rbp)
    8918:	7e 16                	jle    8930 <safe_mul_func_int64_t_s_s+0x34>
    891a:	48 b8 ff ff ff ff ff 	movabs $0x7fffffffffffffff,%rax
    8921:	ff ff 7f 
    8924:	48 99                	cqto   
    8926:	48 f7 7d f0          	idivq  -0x10(%rbp)
    892a:	48 39 45 f8          	cmp    %rax,-0x8(%rbp)
    892e:	7f 7e                	jg     89ae <safe_mul_func_int64_t_s_s+0xb2>
    8930:	48 83 7d f8 00       	cmpq   $0x0,-0x8(%rbp)
    8935:	7e 1d                	jle    8954 <safe_mul_func_int64_t_s_s+0x58>
    8937:	48 83 7d f0 00       	cmpq   $0x0,-0x10(%rbp)
    893c:	7f 16                	jg     8954 <safe_mul_func_int64_t_s_s+0x58>
    893e:	48 b8 00 00 00 00 00 	movabs $0x8000000000000000,%rax
    8945:	00 00 80 
    8948:	48 99                	cqto   
    894a:	48 f7 7d f8          	idivq  -0x8(%rbp)
    894e:	48 39 45 f0          	cmp    %rax,-0x10(%rbp)
    8952:	7c 5a                	jl     89ae <safe_mul_func_int64_t_s_s+0xb2>
    8954:	48 83 7d f8 00       	cmpq   $0x0,-0x8(%rbp)
    8959:	7f 1d                	jg     8978 <safe_mul_func_int64_t_s_s+0x7c>
    895b:	48 83 7d f0 00       	cmpq   $0x0,-0x10(%rbp)
    8960:	7e 16                	jle    8978 <safe_mul_func_int64_t_s_s+0x7c>
    8962:	48 b8 00 00 00 00 00 	movabs $0x8000000000000000,%rax
    8969:	00 00 80 
    896c:	48 99                	cqto   
    896e:	48 f7 7d f0          	idivq  -0x10(%rbp)
    8972:	48 39 45 f8          	cmp    %rax,-0x8(%rbp)
    8976:	7c 36                	jl     89ae <safe_mul_func_int64_t_s_s+0xb2>
    8978:	48 83 7d f8 00       	cmpq   $0x0,-0x8(%rbp)
    897d:	7f 24                	jg     89a3 <safe_mul_func_int64_t_s_s+0xa7>
    897f:	48 83 7d f0 00       	cmpq   $0x0,-0x10(%rbp)
    8984:	7f 1d                	jg     89a3 <safe_mul_func_int64_t_s_s+0xa7>
    8986:	48 83 7d f8 00       	cmpq   $0x0,-0x8(%rbp)
    898b:	74 16                	je     89a3 <safe_mul_func_int64_t_s_s+0xa7>
    898d:	48 b8 ff ff ff ff ff 	movabs $0x7fffffffffffffff,%rax
    8994:	ff ff 7f 
    8997:	48 99                	cqto   
    8999:	48 f7 7d f8          	idivq  -0x8(%rbp)
    899d:	48 39 45 f0          	cmp    %rax,-0x10(%rbp)
    89a1:	7c 0b                	jl     89ae <safe_mul_func_int64_t_s_s+0xb2>
    89a3:	48 8b 45 f8          	mov    -0x8(%rbp),%rax
    89a7:	48 0f af 45 f0       	imul   -0x10(%rbp),%rax
    89ac:	eb 04                	jmp    89b2 <safe_mul_func_int64_t_s_s+0xb6>
    89ae:	48 8b 45 f8          	mov    -0x8(%rbp),%rax
    89b2:	5d                   	pop    %rbp
    89b3:	c3                   	retq   

00000000000089b4 <safe_mod_func_int64_t_s_s>:
    89b4:	f3 0f 1e fa          	endbr64 
    89b8:	55                   	push   %rbp
    89b9:	48 89 e5             	mov    %rsp,%rbp
    89bc:	48 89 7d f8          	mov    %rdi,-0x8(%rbp)
    89c0:	48 89 75 f0          	mov    %rsi,-0x10(%rbp)
    89c4:	48 83 7d f0 00       	cmpq   $0x0,-0x10(%rbp)
    89c9:	74 26                	je     89f1 <safe_mod_func_int64_t_s_s+0x3d>
    89cb:	48 b8 00 00 00 00 00 	movabs $0x8000000000000000,%rax
    89d2:	00 00 80 
    89d5:	48 39 45 f8          	cmp    %rax,-0x8(%rbp)
    89d9:	75 07                	jne    89e2 <safe_mod_func_int64_t_s_s+0x2e>
    89db:	48 83 7d f0 ff       	cmpq   $0xffffffffffffffff,-0x10(%rbp)
    89e0:	74 0f                	je     89f1 <safe_mod_func_int64_t_s_s+0x3d>
    89e2:	48 8b 45 f8          	mov    -0x8(%rbp),%rax
    89e6:	48 99                	cqto   
    89e8:	48 f7 7d f0          	idivq  -0x10(%rbp)
    89ec:	48 89 d0             	mov    %rdx,%rax
    89ef:	eb 04                	jmp    89f5 <safe_mod_func_int64_t_s_s+0x41>
    89f1:	48 8b 45 f8          	mov    -0x8(%rbp),%rax
    89f5:	5d                   	pop    %rbp
    89f6:	c3                   	retq   

00000000000089f7 <safe_div_func_int64_t_s_s>:
    89f7:	f3 0f 1e fa          	endbr64 
    89fb:	55                   	push   %rbp
    89fc:	48 89 e5             	mov    %rsp,%rbp
    89ff:	48 89 7d f8          	mov    %rdi,-0x8(%rbp)
    8a03:	48 89 75 f0          	mov    %rsi,-0x10(%rbp)
    8a07:	48 83 7d f0 00       	cmpq   $0x0,-0x10(%rbp)
    8a0c:	74 23                	je     8a31 <safe_div_func_int64_t_s_s+0x3a>
    8a0e:	48 b8 00 00 00 00 00 	movabs $0x8000000000000000,%rax
    8a15:	00 00 80 
    8a18:	48 39 45 f8          	cmp    %rax,-0x8(%rbp)
    8a1c:	75 07                	jne    8a25 <safe_div_func_int64_t_s_s+0x2e>
    8a1e:	48 83 7d f0 ff       	cmpq   $0xffffffffffffffff,-0x10(%rbp)
    8a23:	74 0c                	je     8a31 <safe_div_func_int64_t_s_s+0x3a>
    8a25:	48 8b 45 f8          	mov    -0x8(%rbp),%rax
    8a29:	48 99                	cqto   
    8a2b:	48 f7 7d f0          	idivq  -0x10(%rbp)
    8a2f:	eb 04                	jmp    8a35 <safe_div_func_int64_t_s_s+0x3e>
    8a31:	48 8b 45 f8          	mov    -0x8(%rbp),%rax
    8a35:	5d                   	pop    %rbp
    8a36:	c3                   	retq   

0000000000008a37 <safe_lshift_func_int64_t_s_s>:
    8a37:	f3 0f 1e fa          	endbr64 
    8a3b:	55                   	push   %rbp
    8a3c:	48 89 e5             	mov    %rsp,%rbp
    8a3f:	48 89 7d f8          	mov    %rdi,-0x8(%rbp)
    8a43:	89 75 f4             	mov    %esi,-0xc(%rbp)
    8a46:	48 83 7d f8 00       	cmpq   $0x0,-0x8(%rbp)
    8a4b:	78 38                	js     8a85 <safe_lshift_func_int64_t_s_s+0x4e>
    8a4d:	83 7d f4 00          	cmpl   $0x0,-0xc(%rbp)
    8a51:	78 32                	js     8a85 <safe_lshift_func_int64_t_s_s+0x4e>
    8a53:	83 7d f4 1f          	cmpl   $0x1f,-0xc(%rbp)
    8a57:	7f 2c                	jg     8a85 <safe_lshift_func_int64_t_s_s+0x4e>
    8a59:	8b 45 f4             	mov    -0xc(%rbp),%eax
    8a5c:	48 ba ff ff ff ff ff 	movabs $0x7fffffffffffffff,%rdx
    8a63:	ff ff 7f 
    8a66:	89 c1                	mov    %eax,%ecx
    8a68:	48 d3 fa             	sar    %cl,%rdx
    8a6b:	48 89 d0             	mov    %rdx,%rax
    8a6e:	48 39 45 f8          	cmp    %rax,-0x8(%rbp)
    8a72:	7f 11                	jg     8a85 <safe_lshift_func_int64_t_s_s+0x4e>
    8a74:	8b 45 f4             	mov    -0xc(%rbp),%eax
    8a77:	48 8b 55 f8          	mov    -0x8(%rbp),%rdx
    8a7b:	89 c1                	mov    %eax,%ecx
    8a7d:	48 d3 e2             	shl    %cl,%rdx
    8a80:	48 89 d0             	mov    %rdx,%rax
    8a83:	eb 04                	jmp    8a89 <safe_lshift_func_int64_t_s_s+0x52>
    8a85:	48 8b 45 f8          	mov    -0x8(%rbp),%rax
    8a89:	5d                   	pop    %rbp
    8a8a:	c3                   	retq   

0000000000008a8b <safe_lshift_func_int64_t_s_u>:
    8a8b:	f3 0f 1e fa          	endbr64 
    8a8f:	55                   	push   %rbp
    8a90:	48 89 e5             	mov    %rsp,%rbp
    8a93:	48 89 7d f8          	mov    %rdi,-0x8(%rbp)
    8a97:	89 75 f4             	mov    %esi,-0xc(%rbp)
    8a9a:	48 83 7d f8 00       	cmpq   $0x0,-0x8(%rbp)
    8a9f:	78 32                	js     8ad3 <safe_lshift_func_int64_t_s_u+0x48>
    8aa1:	83 7d f4 1f          	cmpl   $0x1f,-0xc(%rbp)
    8aa5:	77 2c                	ja     8ad3 <safe_lshift_func_int64_t_s_u+0x48>
    8aa7:	8b 45 f4             	mov    -0xc(%rbp),%eax
    8aaa:	48 ba ff ff ff ff ff 	movabs $0x7fffffffffffffff,%rdx
    8ab1:	ff ff 7f 
    8ab4:	89 c1                	mov    %eax,%ecx
    8ab6:	48 d3 fa             	sar    %cl,%rdx
    8ab9:	48 89 d0             	mov    %rdx,%rax
    8abc:	48 39 45 f8          	cmp    %rax,-0x8(%rbp)
    8ac0:	7f 11                	jg     8ad3 <safe_lshift_func_int64_t_s_u+0x48>
    8ac2:	8b 45 f4             	mov    -0xc(%rbp),%eax
    8ac5:	48 8b 55 f8          	mov    -0x8(%rbp),%rdx
    8ac9:	89 c1                	mov    %eax,%ecx
    8acb:	48 d3 e2             	shl    %cl,%rdx
    8ace:	48 89 d0             	mov    %rdx,%rax
    8ad1:	eb 04                	jmp    8ad7 <safe_lshift_func_int64_t_s_u+0x4c>
    8ad3:	48 8b 45 f8          	mov    -0x8(%rbp),%rax
    8ad7:	5d                   	pop    %rbp
    8ad8:	c3                   	retq   

0000000000008ad9 <safe_rshift_func_int64_t_s_s>:
    8ad9:	f3 0f 1e fa          	endbr64 
    8add:	55                   	push   %rbp
    8ade:	48 89 e5             	mov    %rsp,%rbp
    8ae1:	48 89 7d f8          	mov    %rdi,-0x8(%rbp)
    8ae5:	89 75 f4             	mov    %esi,-0xc(%rbp)
    8ae8:	48 83 7d f8 00       	cmpq   $0x0,-0x8(%rbp)
    8aed:	78 1d                	js     8b0c <safe_rshift_func_int64_t_s_s+0x33>
    8aef:	83 7d f4 00          	cmpl   $0x0,-0xc(%rbp)
    8af3:	78 17                	js     8b0c <safe_rshift_func_int64_t_s_s+0x33>
    8af5:	83 7d f4 1f          	cmpl   $0x1f,-0xc(%rbp)
    8af9:	7f 11                	jg     8b0c <safe_rshift_func_int64_t_s_s+0x33>
    8afb:	8b 45 f4             	mov    -0xc(%rbp),%eax
    8afe:	48 8b 55 f8          	mov    -0x8(%rbp),%rdx
    8b02:	89 c1                	mov    %eax,%ecx
    8b04:	48 d3 fa             	sar    %cl,%rdx
    8b07:	48 89 d0             	mov    %rdx,%rax
    8b0a:	eb 04                	jmp    8b10 <safe_rshift_func_int64_t_s_s+0x37>
    8b0c:	48 8b 45 f8          	mov    -0x8(%rbp),%rax
    8b10:	5d                   	pop    %rbp
    8b11:	c3                   	retq   

0000000000008b12 <safe_rshift_func_int64_t_s_u>:
    8b12:	f3 0f 1e fa          	endbr64 
    8b16:	55                   	push   %rbp
    8b17:	48 89 e5             	mov    %rsp,%rbp
    8b1a:	48 89 7d f8          	mov    %rdi,-0x8(%rbp)
    8b1e:	89 75 f4             	mov    %esi,-0xc(%rbp)
    8b21:	48 83 7d f8 00       	cmpq   $0x0,-0x8(%rbp)
    8b26:	78 17                	js     8b3f <safe_rshift_func_int64_t_s_u+0x2d>
    8b28:	83 7d f4 1f          	cmpl   $0x1f,-0xc(%rbp)
    8b2c:	77 11                	ja     8b3f <safe_rshift_func_int64_t_s_u+0x2d>
    8b2e:	8b 45 f4             	mov    -0xc(%rbp),%eax
    8b31:	48 8b 55 f8          	mov    -0x8(%rbp),%rdx
    8b35:	89 c1                	mov    %eax,%ecx
    8b37:	48 d3 fa             	sar    %cl,%rdx
    8b3a:	48 89 d0             	mov    %rdx,%rax
    8b3d:	eb 04                	jmp    8b43 <safe_rshift_func_int64_t_s_u+0x31>
    8b3f:	48 8b 45 f8          	mov    -0x8(%rbp),%rax
    8b43:	5d                   	pop    %rbp
    8b44:	c3                   	retq   

0000000000008b45 <safe_unary_minus_func_uint8_t_u>:
    8b45:	f3 0f 1e fa          	endbr64 
    8b49:	55                   	push   %rbp
    8b4a:	48 89 e5             	mov    %rsp,%rbp
    8b4d:	89 f8                	mov    %edi,%eax
    8b4f:	88 45 fc             	mov    %al,-0x4(%rbp)
    8b52:	0f b6 45 fc          	movzbl -0x4(%rbp),%eax
    8b56:	f7 d8                	neg    %eax
    8b58:	5d                   	pop    %rbp
    8b59:	c3                   	retq   

0000000000008b5a <safe_add_func_uint8_t_u_u>:
    8b5a:	f3 0f 1e fa          	endbr64 
    8b5e:	55                   	push   %rbp
    8b5f:	48 89 e5             	mov    %rsp,%rbp
    8b62:	89 fa                	mov    %edi,%edx
    8b64:	89 f0                	mov    %esi,%eax
    8b66:	88 55 fc             	mov    %dl,-0x4(%rbp)
    8b69:	88 45 f8             	mov    %al,-0x8(%rbp)
    8b6c:	0f b6 55 fc          	movzbl -0x4(%rbp),%edx
    8b70:	0f b6 45 f8          	movzbl -0x8(%rbp),%eax
    8b74:	01 d0                	add    %edx,%eax
    8b76:	5d                   	pop    %rbp
    8b77:	c3                   	retq   

0000000000008b78 <safe_sub_func_uint8_t_u_u>:
    8b78:	f3 0f 1e fa          	endbr64 
    8b7c:	55                   	push   %rbp
    8b7d:	48 89 e5             	mov    %rsp,%rbp
    8b80:	89 fa                	mov    %edi,%edx
    8b82:	89 f0                	mov    %esi,%eax
    8b84:	88 55 fc             	mov    %dl,-0x4(%rbp)
    8b87:	88 45 f8             	mov    %al,-0x8(%rbp)
    8b8a:	0f b6 45 fc          	movzbl -0x4(%rbp),%eax
    8b8e:	2a 45 f8             	sub    -0x8(%rbp),%al
    8b91:	5d                   	pop    %rbp
    8b92:	c3                   	retq   

0000000000008b93 <safe_mul_func_uint8_t_u_u>:
    8b93:	f3 0f 1e fa          	endbr64 
    8b97:	55                   	push   %rbp
    8b98:	48 89 e5             	mov    %rsp,%rbp
    8b9b:	89 fa                	mov    %edi,%edx
    8b9d:	89 f0                	mov    %esi,%eax
    8b9f:	88 55 fc             	mov    %dl,-0x4(%rbp)
    8ba2:	88 45 f8             	mov    %al,-0x8(%rbp)
    8ba5:	0f b6 45 fc          	movzbl -0x4(%rbp),%eax
    8ba9:	f6 65 f8             	mulb   -0x8(%rbp)
    8bac:	5d                   	pop    %rbp
    8bad:	c3                   	retq   

0000000000008bae <safe_mod_func_uint8_t_u_u>:
    8bae:	f3 0f 1e fa          	endbr64 
    8bb2:	55                   	push   %rbp
    8bb3:	48 89 e5             	mov    %rsp,%rbp
    8bb6:	89 fa                	mov    %edi,%edx
    8bb8:	89 f0                	mov    %esi,%eax
    8bba:	88 55 fc             	mov    %dl,-0x4(%rbp)
    8bbd:	88 45 f8             	mov    %al,-0x8(%rbp)
    8bc0:	80 7d f8 00          	cmpb   $0x0,-0x8(%rbp)
    8bc4:	74 0f                	je     8bd5 <safe_mod_func_uint8_t_u_u+0x27>
    8bc6:	0f b6 45 fc          	movzbl -0x4(%rbp),%eax
    8bca:	0f b6 c0             	movzbl %al,%eax
    8bcd:	f6 75 f8             	divb   -0x8(%rbp)
    8bd0:	0f b6 c4             	movzbl %ah,%eax
    8bd3:	eb 04                	jmp    8bd9 <safe_mod_func_uint8_t_u_u+0x2b>
    8bd5:	0f b6 45 fc          	movzbl -0x4(%rbp),%eax
    8bd9:	5d                   	pop    %rbp
    8bda:	c3                   	retq   

0000000000008bdb <safe_div_func_uint8_t_u_u>:
    8bdb:	f3 0f 1e fa          	endbr64 
    8bdf:	55                   	push   %rbp
    8be0:	48 89 e5             	mov    %rsp,%rbp
    8be3:	89 fa                	mov    %edi,%edx
    8be5:	89 f0                	mov    %esi,%eax
    8be7:	88 55 fc             	mov    %dl,-0x4(%rbp)
    8bea:	88 45 f8             	mov    %al,-0x8(%rbp)
    8bed:	80 7d f8 00          	cmpb   $0x0,-0x8(%rbp)
    8bf1:	74 0c                	je     8bff <safe_div_func_uint8_t_u_u+0x24>
    8bf3:	0f b6 45 fc          	movzbl -0x4(%rbp),%eax
    8bf7:	0f b6 c0             	movzbl %al,%eax
    8bfa:	f6 75 f8             	divb   -0x8(%rbp)
    8bfd:	eb 04                	jmp    8c03 <safe_div_func_uint8_t_u_u+0x28>
    8bff:	0f b6 45 fc          	movzbl -0x4(%rbp),%eax
    8c03:	5d                   	pop    %rbp
    8c04:	c3                   	retq   

0000000000008c05 <safe_lshift_func_uint8_t_u_s>:
    8c05:	f3 0f 1e fa          	endbr64 
    8c09:	55                   	push   %rbp
    8c0a:	48 89 e5             	mov    %rsp,%rbp
    8c0d:	89 f8                	mov    %edi,%eax
    8c0f:	89 75 f8             	mov    %esi,-0x8(%rbp)
    8c12:	88 45 fc             	mov    %al,-0x4(%rbp)
    8c15:	83 7d f8 00          	cmpl   $0x0,-0x8(%rbp)
    8c19:	78 2b                	js     8c46 <safe_lshift_func_uint8_t_u_s+0x41>
    8c1b:	83 7d f8 1f          	cmpl   $0x1f,-0x8(%rbp)
    8c1f:	7f 25                	jg     8c46 <safe_lshift_func_uint8_t_u_s+0x41>
    8c21:	0f b6 55 fc          	movzbl -0x4(%rbp),%edx
    8c25:	8b 45 f8             	mov    -0x8(%rbp),%eax
    8c28:	be ff 00 00 00       	mov    $0xff,%esi
    8c2d:	89 c1                	mov    %eax,%ecx
    8c2f:	d3 fe                	sar    %cl,%esi
    8c31:	89 f0                	mov    %esi,%eax
    8c33:	39 c2                	cmp    %eax,%edx
    8c35:	7f 0f                	jg     8c46 <safe_lshift_func_uint8_t_u_s+0x41>
    8c37:	0f b6 55 fc          	movzbl -0x4(%rbp),%edx
    8c3b:	8b 45 f8             	mov    -0x8(%rbp),%eax
    8c3e:	89 c1                	mov    %eax,%ecx
    8c40:	d3 e2                	shl    %cl,%edx
    8c42:	89 d0                	mov    %edx,%eax
    8c44:	eb 04                	jmp    8c4a <safe_lshift_func_uint8_t_u_s+0x45>
    8c46:	0f b6 45 fc          	movzbl -0x4(%rbp),%eax
    8c4a:	5d                   	pop    %rbp
    8c4b:	c3                   	retq   

0000000000008c4c <safe_lshift_func_uint8_t_u_u>:
    8c4c:	f3 0f 1e fa          	endbr64 
    8c50:	55                   	push   %rbp
    8c51:	48 89 e5             	mov    %rsp,%rbp
    8c54:	89 f8                	mov    %edi,%eax
    8c56:	89 75 f8             	mov    %esi,-0x8(%rbp)
    8c59:	88 45 fc             	mov    %al,-0x4(%rbp)
    8c5c:	83 7d f8 1f          	cmpl   $0x1f,-0x8(%rbp)
    8c60:	77 25                	ja     8c87 <safe_lshift_func_uint8_t_u_u+0x3b>
    8c62:	0f b6 55 fc          	movzbl -0x4(%rbp),%edx
    8c66:	8b 45 f8             	mov    -0x8(%rbp),%eax
    8c69:	be ff 00 00 00       	mov    $0xff,%esi
    8c6e:	89 c1                	mov    %eax,%ecx
    8c70:	d3 fe                	sar    %cl,%esi
    8c72:	89 f0                	mov    %esi,%eax
    8c74:	39 c2                	cmp    %eax,%edx
    8c76:	7f 0f                	jg     8c87 <safe_lshift_func_uint8_t_u_u+0x3b>
    8c78:	0f b6 55 fc          	movzbl -0x4(%rbp),%edx
    8c7c:	8b 45 f8             	mov    -0x8(%rbp),%eax
    8c7f:	89 c1                	mov    %eax,%ecx
    8c81:	d3 e2                	shl    %cl,%edx
    8c83:	89 d0                	mov    %edx,%eax
    8c85:	eb 04                	jmp    8c8b <safe_lshift_func_uint8_t_u_u+0x3f>
    8c87:	0f b6 45 fc          	movzbl -0x4(%rbp),%eax
    8c8b:	5d                   	pop    %rbp
    8c8c:	c3                   	retq   

0000000000008c8d <safe_rshift_func_uint8_t_u_s>:
    8c8d:	f3 0f 1e fa          	endbr64 
    8c91:	55                   	push   %rbp
    8c92:	48 89 e5             	mov    %rsp,%rbp
    8c95:	89 f8                	mov    %edi,%eax
    8c97:	89 75 f8             	mov    %esi,-0x8(%rbp)
    8c9a:	88 45 fc             	mov    %al,-0x4(%rbp)
    8c9d:	83 7d f8 00          	cmpl   $0x0,-0x8(%rbp)
    8ca1:	78 15                	js     8cb8 <safe_rshift_func_uint8_t_u_s+0x2b>
    8ca3:	83 7d f8 1f          	cmpl   $0x1f,-0x8(%rbp)
    8ca7:	7f 0f                	jg     8cb8 <safe_rshift_func_uint8_t_u_s+0x2b>
    8ca9:	0f b6 55 fc          	movzbl -0x4(%rbp),%edx
    8cad:	8b 45 f8             	mov    -0x8(%rbp),%eax
    8cb0:	89 c1                	mov    %eax,%ecx
    8cb2:	d3 fa                	sar    %cl,%edx
    8cb4:	89 d0                	mov    %edx,%eax
    8cb6:	eb 04                	jmp    8cbc <safe_rshift_func_uint8_t_u_s+0x2f>
    8cb8:	0f b6 45 fc          	movzbl -0x4(%rbp),%eax
    8cbc:	5d                   	pop    %rbp
    8cbd:	c3                   	retq   

0000000000008cbe <safe_rshift_func_uint8_t_u_u>:
    8cbe:	f3 0f 1e fa          	endbr64 
    8cc2:	55                   	push   %rbp
    8cc3:	48 89 e5             	mov    %rsp,%rbp
    8cc6:	89 f8                	mov    %edi,%eax
    8cc8:	89 75 f8             	mov    %esi,-0x8(%rbp)
    8ccb:	88 45 fc             	mov    %al,-0x4(%rbp)
    8cce:	83 7d f8 1f          	cmpl   $0x1f,-0x8(%rbp)
    8cd2:	77 0f                	ja     8ce3 <safe_rshift_func_uint8_t_u_u+0x25>
    8cd4:	0f b6 55 fc          	movzbl -0x4(%rbp),%edx
    8cd8:	8b 45 f8             	mov    -0x8(%rbp),%eax
    8cdb:	89 c1                	mov    %eax,%ecx
    8cdd:	d3 fa                	sar    %cl,%edx
    8cdf:	89 d0                	mov    %edx,%eax
    8ce1:	eb 04                	jmp    8ce7 <safe_rshift_func_uint8_t_u_u+0x29>
    8ce3:	0f b6 45 fc          	movzbl -0x4(%rbp),%eax
    8ce7:	5d                   	pop    %rbp
    8ce8:	c3                   	retq   

0000000000008ce9 <safe_unary_minus_func_uint16_t_u>:
    8ce9:	f3 0f 1e fa          	endbr64 
    8ced:	55                   	push   %rbp
    8cee:	48 89 e5             	mov    %rsp,%rbp
    8cf1:	89 f8                	mov    %edi,%eax
    8cf3:	66 89 45 fc          	mov    %ax,-0x4(%rbp)
    8cf7:	0f b7 45 fc          	movzwl -0x4(%rbp),%eax
    8cfb:	f7 d8                	neg    %eax
    8cfd:	5d                   	pop    %rbp
    8cfe:	c3                   	retq   

0000000000008cff <safe_add_func_uint16_t_u_u>:
    8cff:	f3 0f 1e fa          	endbr64 
    8d03:	55                   	push   %rbp
    8d04:	48 89 e5             	mov    %rsp,%rbp
    8d07:	89 fa                	mov    %edi,%edx
    8d09:	89 f0                	mov    %esi,%eax
    8d0b:	66 89 55 fc          	mov    %dx,-0x4(%rbp)
    8d0f:	66 89 45 f8          	mov    %ax,-0x8(%rbp)
    8d13:	0f b7 55 fc          	movzwl -0x4(%rbp),%edx
    8d17:	0f b7 45 f8          	movzwl -0x8(%rbp),%eax
    8d1b:	01 d0                	add    %edx,%eax
    8d1d:	5d                   	pop    %rbp
    8d1e:	c3                   	retq   

0000000000008d1f <safe_sub_func_uint16_t_u_u>:
    8d1f:	f3 0f 1e fa          	endbr64 
    8d23:	55                   	push   %rbp
    8d24:	48 89 e5             	mov    %rsp,%rbp
    8d27:	89 fa                	mov    %edi,%edx
    8d29:	89 f0                	mov    %esi,%eax
    8d2b:	66 89 55 fc          	mov    %dx,-0x4(%rbp)
    8d2f:	66 89 45 f8          	mov    %ax,-0x8(%rbp)
    8d33:	0f b7 45 fc          	movzwl -0x4(%rbp),%eax
    8d37:	66 2b 45 f8          	sub    -0x8(%rbp),%ax
    8d3b:	5d                   	pop    %rbp
    8d3c:	c3                   	retq   

0000000000008d3d <safe_mul_func_uint16_t_u_u>:
    8d3d:	f3 0f 1e fa          	endbr64 
    8d41:	55                   	push   %rbp
    8d42:	48 89 e5             	mov    %rsp,%rbp
    8d45:	89 fa                	mov    %edi,%edx
    8d47:	89 f0                	mov    %esi,%eax
    8d49:	66 89 55 fc          	mov    %dx,-0x4(%rbp)
    8d4d:	66 89 45 f8          	mov    %ax,-0x8(%rbp)
    8d51:	0f b7 45 fc          	movzwl -0x4(%rbp),%eax
    8d55:	66 0f af 45 f8       	imul   -0x8(%rbp),%ax
    8d5a:	5d                   	pop    %rbp
    8d5b:	c3                   	retq   

0000000000008d5c <safe_mod_func_uint16_t_u_u>:
    8d5c:	f3 0f 1e fa          	endbr64 
    8d60:	55                   	push   %rbp
    8d61:	48 89 e5             	mov    %rsp,%rbp
    8d64:	89 fa                	mov    %edi,%edx
    8d66:	89 f0                	mov    %esi,%eax
    8d68:	66 89 55 fc          	mov    %dx,-0x4(%rbp)
    8d6c:	66 89 45 f8          	mov    %ax,-0x8(%rbp)
    8d70:	66 83 7d f8 00       	cmpw   $0x0,-0x8(%rbp)
    8d75:	74 11                	je     8d88 <safe_mod_func_uint16_t_u_u+0x2c>
    8d77:	0f b7 45 fc          	movzwl -0x4(%rbp),%eax
    8d7b:	ba 00 00 00 00       	mov    $0x0,%edx
    8d80:	66 f7 75 f8          	divw   -0x8(%rbp)
    8d84:	89 d0                	mov    %edx,%eax
    8d86:	eb 04                	jmp    8d8c <safe_mod_func_uint16_t_u_u+0x30>
    8d88:	0f b7 45 fc          	movzwl -0x4(%rbp),%eax
    8d8c:	5d                   	pop    %rbp
    8d8d:	c3                   	retq   

0000000000008d8e <safe_div_func_uint16_t_u_u>:
    8d8e:	f3 0f 1e fa          	endbr64 
    8d92:	55                   	push   %rbp
    8d93:	48 89 e5             	mov    %rsp,%rbp
    8d96:	89 fa                	mov    %edi,%edx
    8d98:	89 f0                	mov    %esi,%eax
    8d9a:	66 89 55 fc          	mov    %dx,-0x4(%rbp)
    8d9e:	66 89 45 f8          	mov    %ax,-0x8(%rbp)
    8da2:	66 83 7d f8 00       	cmpw   $0x0,-0x8(%rbp)
    8da7:	74 0f                	je     8db8 <safe_div_func_uint16_t_u_u+0x2a>
    8da9:	0f b7 45 fc          	movzwl -0x4(%rbp),%eax
    8dad:	ba 00 00 00 00       	mov    $0x0,%edx
    8db2:	66 f7 75 f8          	divw   -0x8(%rbp)
    8db6:	eb 04                	jmp    8dbc <safe_div_func_uint16_t_u_u+0x2e>
    8db8:	0f b7 45 fc          	movzwl -0x4(%rbp),%eax
    8dbc:	5d                   	pop    %rbp
    8dbd:	c3                   	retq   

0000000000008dbe <safe_lshift_func_uint16_t_u_s>:
    8dbe:	f3 0f 1e fa          	endbr64 
    8dc2:	55                   	push   %rbp
    8dc3:	48 89 e5             	mov    %rsp,%rbp
    8dc6:	89 f8                	mov    %edi,%eax
    8dc8:	89 75 f8             	mov    %esi,-0x8(%rbp)
    8dcb:	66 89 45 fc          	mov    %ax,-0x4(%rbp)
    8dcf:	83 7d f8 00          	cmpl   $0x0,-0x8(%rbp)
    8dd3:	78 2b                	js     8e00 <safe_lshift_func_uint16_t_u_s+0x42>
    8dd5:	83 7d f8 1f          	cmpl   $0x1f,-0x8(%rbp)
    8dd9:	7f 25                	jg     8e00 <safe_lshift_func_uint16_t_u_s+0x42>
    8ddb:	0f b7 55 fc          	movzwl -0x4(%rbp),%edx
    8ddf:	8b 45 f8             	mov    -0x8(%rbp),%eax
    8de2:	be ff ff 00 00       	mov    $0xffff,%esi
    8de7:	89 c1                	mov    %eax,%ecx
    8de9:	d3 fe                	sar    %cl,%esi
    8deb:	89 f0                	mov    %esi,%eax
    8ded:	39 c2                	cmp    %eax,%edx
    8def:	7f 0f                	jg     8e00 <safe_lshift_func_uint16_t_u_s+0x42>
    8df1:	0f b7 55 fc          	movzwl -0x4(%rbp),%edx
    8df5:	8b 45 f8             	mov    -0x8(%rbp),%eax
    8df8:	89 c1                	mov    %eax,%ecx
    8dfa:	d3 e2                	shl    %cl,%edx
    8dfc:	89 d0                	mov    %edx,%eax
    8dfe:	eb 04                	jmp    8e04 <safe_lshift_func_uint16_t_u_s+0x46>
    8e00:	0f b7 45 fc          	movzwl -0x4(%rbp),%eax
    8e04:	5d                   	pop    %rbp
    8e05:	c3                   	retq   

0000000000008e06 <safe_lshift_func_uint16_t_u_u>:
    8e06:	f3 0f 1e fa          	endbr64 
    8e0a:	55                   	push   %rbp
    8e0b:	48 89 e5             	mov    %rsp,%rbp
    8e0e:	89 f8                	mov    %edi,%eax
    8e10:	89 75 f8             	mov    %esi,-0x8(%rbp)
    8e13:	66 89 45 fc          	mov    %ax,-0x4(%rbp)
    8e17:	83 7d f8 1f          	cmpl   $0x1f,-0x8(%rbp)
    8e1b:	77 25                	ja     8e42 <safe_lshift_func_uint16_t_u_u+0x3c>
    8e1d:	0f b7 55 fc          	movzwl -0x4(%rbp),%edx
    8e21:	8b 45 f8             	mov    -0x8(%rbp),%eax
    8e24:	be ff ff 00 00       	mov    $0xffff,%esi
    8e29:	89 c1                	mov    %eax,%ecx
    8e2b:	d3 fe                	sar    %cl,%esi
    8e2d:	89 f0                	mov    %esi,%eax
    8e2f:	39 c2                	cmp    %eax,%edx
    8e31:	7f 0f                	jg     8e42 <safe_lshift_func_uint16_t_u_u+0x3c>
    8e33:	0f b7 55 fc          	movzwl -0x4(%rbp),%edx
    8e37:	8b 45 f8             	mov    -0x8(%rbp),%eax
    8e3a:	89 c1                	mov    %eax,%ecx
    8e3c:	d3 e2                	shl    %cl,%edx
    8e3e:	89 d0                	mov    %edx,%eax
    8e40:	eb 04                	jmp    8e46 <safe_lshift_func_uint16_t_u_u+0x40>
    8e42:	0f b7 45 fc          	movzwl -0x4(%rbp),%eax
    8e46:	5d                   	pop    %rbp
    8e47:	c3                   	retq   

0000000000008e48 <safe_rshift_func_uint16_t_u_s>:
    8e48:	f3 0f 1e fa          	endbr64 
    8e4c:	55                   	push   %rbp
    8e4d:	48 89 e5             	mov    %rsp,%rbp
    8e50:	89 f8                	mov    %edi,%eax
    8e52:	89 75 f8             	mov    %esi,-0x8(%rbp)
    8e55:	66 89 45 fc          	mov    %ax,-0x4(%rbp)
    8e59:	83 7d f8 00          	cmpl   $0x0,-0x8(%rbp)
    8e5d:	78 15                	js     8e74 <safe_rshift_func_uint16_t_u_s+0x2c>
    8e5f:	83 7d f8 1f          	cmpl   $0x1f,-0x8(%rbp)
    8e63:	7f 0f                	jg     8e74 <safe_rshift_func_uint16_t_u_s+0x2c>
    8e65:	0f b7 55 fc          	movzwl -0x4(%rbp),%edx
    8e69:	8b 45 f8             	mov    -0x8(%rbp),%eax
    8e6c:	89 c1                	mov    %eax,%ecx
    8e6e:	d3 fa                	sar    %cl,%edx
    8e70:	89 d0                	mov    %edx,%eax
    8e72:	eb 04                	jmp    8e78 <safe_rshift_func_uint16_t_u_s+0x30>
    8e74:	0f b7 45 fc          	movzwl -0x4(%rbp),%eax
    8e78:	5d                   	pop    %rbp
    8e79:	c3                   	retq   

0000000000008e7a <safe_rshift_func_uint16_t_u_u>:
    8e7a:	f3 0f 1e fa          	endbr64 
    8e7e:	55                   	push   %rbp
    8e7f:	48 89 e5             	mov    %rsp,%rbp
    8e82:	89 f8                	mov    %edi,%eax
    8e84:	89 75 f8             	mov    %esi,-0x8(%rbp)
    8e87:	66 89 45 fc          	mov    %ax,-0x4(%rbp)
    8e8b:	83 7d f8 1f          	cmpl   $0x1f,-0x8(%rbp)
    8e8f:	77 0f                	ja     8ea0 <safe_rshift_func_uint16_t_u_u+0x26>
    8e91:	0f b7 55 fc          	movzwl -0x4(%rbp),%edx
    8e95:	8b 45 f8             	mov    -0x8(%rbp),%eax
    8e98:	89 c1                	mov    %eax,%ecx
    8e9a:	d3 fa                	sar    %cl,%edx
    8e9c:	89 d0                	mov    %edx,%eax
    8e9e:	eb 04                	jmp    8ea4 <safe_rshift_func_uint16_t_u_u+0x2a>
    8ea0:	0f b7 45 fc          	movzwl -0x4(%rbp),%eax
    8ea4:	5d                   	pop    %rbp
    8ea5:	c3                   	retq   

0000000000008ea6 <safe_unary_minus_func_uint32_t_u>:
    8ea6:	f3 0f 1e fa          	endbr64 
    8eaa:	55                   	push   %rbp
    8eab:	48 89 e5             	mov    %rsp,%rbp
    8eae:	89 7d fc             	mov    %edi,-0x4(%rbp)
    8eb1:	8b 45 fc             	mov    -0x4(%rbp),%eax
    8eb4:	f7 d8                	neg    %eax
    8eb6:	5d                   	pop    %rbp
    8eb7:	c3                   	retq   

0000000000008eb8 <safe_add_func_uint32_t_u_u>:
    8eb8:	f3 0f 1e fa          	endbr64 
    8ebc:	55                   	push   %rbp
    8ebd:	48 89 e5             	mov    %rsp,%rbp
    8ec0:	89 7d fc             	mov    %edi,-0x4(%rbp)
    8ec3:	89 75 f8             	mov    %esi,-0x8(%rbp)
    8ec6:	8b 55 fc             	mov    -0x4(%rbp),%edx
    8ec9:	8b 45 f8             	mov    -0x8(%rbp),%eax
    8ecc:	01 d0                	add    %edx,%eax
    8ece:	5d                   	pop    %rbp
    8ecf:	c3                   	retq   

0000000000008ed0 <safe_sub_func_uint32_t_u_u>:
    8ed0:	f3 0f 1e fa          	endbr64 
    8ed4:	55                   	push   %rbp
    8ed5:	48 89 e5             	mov    %rsp,%rbp
    8ed8:	89 7d fc             	mov    %edi,-0x4(%rbp)
    8edb:	89 75 f8             	mov    %esi,-0x8(%rbp)
    8ede:	8b 45 fc             	mov    -0x4(%rbp),%eax
    8ee1:	2b 45 f8             	sub    -0x8(%rbp),%eax
    8ee4:	5d                   	pop    %rbp
    8ee5:	c3                   	retq   

0000000000008ee6 <safe_mul_func_uint32_t_u_u>:
    8ee6:	f3 0f 1e fa          	endbr64 
    8eea:	55                   	push   %rbp
    8eeb:	48 89 e5             	mov    %rsp,%rbp
    8eee:	89 7d fc             	mov    %edi,-0x4(%rbp)
    8ef1:	89 75 f8             	mov    %esi,-0x8(%rbp)
    8ef4:	8b 45 fc             	mov    -0x4(%rbp),%eax
    8ef7:	0f af 45 f8          	imul   -0x8(%rbp),%eax
    8efb:	5d                   	pop    %rbp
    8efc:	c3                   	retq   

0000000000008efd <safe_mod_func_uint32_t_u_u>:
    8efd:	f3 0f 1e fa          	endbr64 
    8f01:	55                   	push   %rbp
    8f02:	48 89 e5             	mov    %rsp,%rbp
    8f05:	89 7d fc             	mov    %edi,-0x4(%rbp)
    8f08:	89 75 f8             	mov    %esi,-0x8(%rbp)
    8f0b:	83 7d f8 00          	cmpl   $0x0,-0x8(%rbp)
    8f0f:	74 0f                	je     8f20 <safe_mod_func_uint32_t_u_u+0x23>
    8f11:	8b 45 fc             	mov    -0x4(%rbp),%eax
    8f14:	ba 00 00 00 00       	mov    $0x0,%edx
    8f19:	f7 75 f8             	divl   -0x8(%rbp)
    8f1c:	89 d0                	mov    %edx,%eax
    8f1e:	eb 03                	jmp    8f23 <safe_mod_func_uint32_t_u_u+0x26>
    8f20:	8b 45 fc             	mov    -0x4(%rbp),%eax
    8f23:	5d                   	pop    %rbp
    8f24:	c3                   	retq   

0000000000008f25 <safe_div_func_uint32_t_u_u>:
    8f25:	f3 0f 1e fa          	endbr64 
    8f29:	55                   	push   %rbp
    8f2a:	48 89 e5             	mov    %rsp,%rbp
    8f2d:	89 7d fc             	mov    %edi,-0x4(%rbp)
    8f30:	89 75 f8             	mov    %esi,-0x8(%rbp)
    8f33:	83 7d f8 00          	cmpl   $0x0,-0x8(%rbp)
    8f37:	74 0d                	je     8f46 <safe_div_func_uint32_t_u_u+0x21>
    8f39:	8b 45 fc             	mov    -0x4(%rbp),%eax
    8f3c:	ba 00 00 00 00       	mov    $0x0,%edx
    8f41:	f7 75 f8             	divl   -0x8(%rbp)
    8f44:	eb 03                	jmp    8f49 <safe_div_func_uint32_t_u_u+0x24>
    8f46:	8b 45 fc             	mov    -0x4(%rbp),%eax
    8f49:	5d                   	pop    %rbp
    8f4a:	c3                   	retq   

0000000000008f4b <safe_lshift_func_uint32_t_u_s>:
    8f4b:	f3 0f 1e fa          	endbr64 
    8f4f:	55                   	push   %rbp
    8f50:	48 89 e5             	mov    %rsp,%rbp
    8f53:	89 7d fc             	mov    %edi,-0x4(%rbp)
    8f56:	89 75 f8             	mov    %esi,-0x8(%rbp)
    8f59:	83 7d f8 00          	cmpl   $0x0,-0x8(%rbp)
    8f5d:	78 27                	js     8f86 <safe_lshift_func_uint32_t_u_s+0x3b>
    8f5f:	83 7d f8 1f          	cmpl   $0x1f,-0x8(%rbp)
    8f63:	7f 21                	jg     8f86 <safe_lshift_func_uint32_t_u_s+0x3b>
    8f65:	8b 45 f8             	mov    -0x8(%rbp),%eax
    8f68:	ba ff ff ff ff       	mov    $0xffffffff,%edx
    8f6d:	89 c1                	mov    %eax,%ecx
    8f6f:	d3 ea                	shr    %cl,%edx
    8f71:	89 d0                	mov    %edx,%eax
    8f73:	39 45 fc             	cmp    %eax,-0x4(%rbp)
    8f76:	77 0e                	ja     8f86 <safe_lshift_func_uint32_t_u_s+0x3b>
    8f78:	8b 45 f8             	mov    -0x8(%rbp),%eax
    8f7b:	8b 55 fc             	mov    -0x4(%rbp),%edx
    8f7e:	89 c1                	mov    %eax,%ecx
    8f80:	d3 e2                	shl    %cl,%edx
    8f82:	89 d0                	mov    %edx,%eax
    8f84:	eb 03                	jmp    8f89 <safe_lshift_func_uint32_t_u_s+0x3e>
    8f86:	8b 45 fc             	mov    -0x4(%rbp),%eax
    8f89:	5d                   	pop    %rbp
    8f8a:	c3                   	retq   

0000000000008f8b <safe_lshift_func_uint32_t_u_u>:
    8f8b:	f3 0f 1e fa          	endbr64 
    8f8f:	55                   	push   %rbp
    8f90:	48 89 e5             	mov    %rsp,%rbp
    8f93:	89 7d fc             	mov    %edi,-0x4(%rbp)
    8f96:	89 75 f8             	mov    %esi,-0x8(%rbp)
    8f99:	83 7d f8 1f          	cmpl   $0x1f,-0x8(%rbp)
    8f9d:	77 21                	ja     8fc0 <safe_lshift_func_uint32_t_u_u+0x35>
    8f9f:	8b 45 f8             	mov    -0x8(%rbp),%eax
    8fa2:	ba ff ff ff ff       	mov    $0xffffffff,%edx
    8fa7:	89 c1                	mov    %eax,%ecx
    8fa9:	d3 ea                	shr    %cl,%edx
    8fab:	89 d0                	mov    %edx,%eax
    8fad:	39 45 fc             	cmp    %eax,-0x4(%rbp)
    8fb0:	77 0e                	ja     8fc0 <safe_lshift_func_uint32_t_u_u+0x35>
    8fb2:	8b 45 f8             	mov    -0x8(%rbp),%eax
    8fb5:	8b 55 fc             	mov    -0x4(%rbp),%edx
    8fb8:	89 c1                	mov    %eax,%ecx
    8fba:	d3 e2                	shl    %cl,%edx
    8fbc:	89 d0                	mov    %edx,%eax
    8fbe:	eb 03                	jmp    8fc3 <safe_lshift_func_uint32_t_u_u+0x38>
    8fc0:	8b 45 fc             	mov    -0x4(%rbp),%eax
    8fc3:	5d                   	pop    %rbp
    8fc4:	c3                   	retq   

0000000000008fc5 <safe_rshift_func_uint32_t_u_s>:
    8fc5:	f3 0f 1e fa          	endbr64 
    8fc9:	55                   	push   %rbp
    8fca:	48 89 e5             	mov    %rsp,%rbp
    8fcd:	89 7d fc             	mov    %edi,-0x4(%rbp)
    8fd0:	89 75 f8             	mov    %esi,-0x8(%rbp)
    8fd3:	83 7d f8 00          	cmpl   $0x0,-0x8(%rbp)
    8fd7:	78 14                	js     8fed <safe_rshift_func_uint32_t_u_s+0x28>
    8fd9:	83 7d f8 1f          	cmpl   $0x1f,-0x8(%rbp)
    8fdd:	7f 0e                	jg     8fed <safe_rshift_func_uint32_t_u_s+0x28>
    8fdf:	8b 45 f8             	mov    -0x8(%rbp),%eax
    8fe2:	8b 55 fc             	mov    -0x4(%rbp),%edx
    8fe5:	89 c1                	mov    %eax,%ecx
    8fe7:	d3 ea                	shr    %cl,%edx
    8fe9:	89 d0                	mov    %edx,%eax
    8feb:	eb 03                	jmp    8ff0 <safe_rshift_func_uint32_t_u_s+0x2b>
    8fed:	8b 45 fc             	mov    -0x4(%rbp),%eax
    8ff0:	5d                   	pop    %rbp
    8ff1:	c3                   	retq   

0000000000008ff2 <safe_rshift_func_uint32_t_u_u>:
    8ff2:	f3 0f 1e fa          	endbr64 
    8ff6:	55                   	push   %rbp
    8ff7:	48 89 e5             	mov    %rsp,%rbp
    8ffa:	89 7d fc             	mov    %edi,-0x4(%rbp)
    8ffd:	89 75 f8             	mov    %esi,-0x8(%rbp)
    9000:	83 7d f8 1f          	cmpl   $0x1f,-0x8(%rbp)
    9004:	77 0e                	ja     9014 <safe_rshift_func_uint32_t_u_u+0x22>
    9006:	8b 45 f8             	mov    -0x8(%rbp),%eax
    9009:	8b 55 fc             	mov    -0x4(%rbp),%edx
    900c:	89 c1                	mov    %eax,%ecx
    900e:	d3 ea                	shr    %cl,%edx
    9010:	89 d0                	mov    %edx,%eax
    9012:	eb 03                	jmp    9017 <safe_rshift_func_uint32_t_u_u+0x25>
    9014:	8b 45 fc             	mov    -0x4(%rbp),%eax
    9017:	5d                   	pop    %rbp
    9018:	c3                   	retq   

0000000000009019 <safe_unary_minus_func_uint64_t_u>:
    9019:	f3 0f 1e fa          	endbr64 
    901d:	55                   	push   %rbp
    901e:	48 89 e5             	mov    %rsp,%rbp
    9021:	48 89 7d f8          	mov    %rdi,-0x8(%rbp)
    9025:	48 8b 45 f8          	mov    -0x8(%rbp),%rax
    9029:	48 f7 d8             	neg    %rax
    902c:	5d                   	pop    %rbp
    902d:	c3                   	retq   

000000000000902e <safe_add_func_uint64_t_u_u>:
    902e:	f3 0f 1e fa          	endbr64 
    9032:	55                   	push   %rbp
    9033:	48 89 e5             	mov    %rsp,%rbp
    9036:	48 89 7d f8          	mov    %rdi,-0x8(%rbp)
    903a:	48 89 75 f0          	mov    %rsi,-0x10(%rbp)
    903e:	48 8b 55 f8          	mov    -0x8(%rbp),%rdx
    9042:	48 8b 45 f0          	mov    -0x10(%rbp),%rax
    9046:	48 01 d0             	add    %rdx,%rax
    9049:	5d                   	pop    %rbp
    904a:	c3                   	retq   

000000000000904b <safe_sub_func_uint64_t_u_u>:
    904b:	f3 0f 1e fa          	endbr64 
    904f:	55                   	push   %rbp
    9050:	48 89 e5             	mov    %rsp,%rbp
    9053:	48 89 7d f8          	mov    %rdi,-0x8(%rbp)
    9057:	48 89 75 f0          	mov    %rsi,-0x10(%rbp)
    905b:	48 8b 45 f8          	mov    -0x8(%rbp),%rax
    905f:	48 2b 45 f0          	sub    -0x10(%rbp),%rax
    9063:	5d                   	pop    %rbp
    9064:	c3                   	retq   

0000000000009065 <safe_mul_func_uint64_t_u_u>:
    9065:	f3 0f 1e fa          	endbr64 
    9069:	55                   	push   %rbp
    906a:	48 89 e5             	mov    %rsp,%rbp
    906d:	48 89 7d f8          	mov    %rdi,-0x8(%rbp)
    9071:	48 89 75 f0          	mov    %rsi,-0x10(%rbp)
    9075:	48 8b 45 f8          	mov    -0x8(%rbp),%rax
    9079:	48 0f af 45 f0       	imul   -0x10(%rbp),%rax
    907e:	5d                   	pop    %rbp
    907f:	c3                   	retq   

0000000000009080 <safe_mod_func_uint64_t_u_u>:
    9080:	f3 0f 1e fa          	endbr64 
    9084:	55                   	push   %rbp
    9085:	48 89 e5             	mov    %rsp,%rbp
    9088:	48 89 7d f8          	mov    %rdi,-0x8(%rbp)
    908c:	48 89 75 f0          	mov    %rsi,-0x10(%rbp)
    9090:	48 83 7d f0 00       	cmpq   $0x0,-0x10(%rbp)
    9095:	74 12                	je     90a9 <safe_mod_func_uint64_t_u_u+0x29>
    9097:	48 8b 45 f8          	mov    -0x8(%rbp),%rax
    909b:	ba 00 00 00 00       	mov    $0x0,%edx
    90a0:	48 f7 75 f0          	divq   -0x10(%rbp)
    90a4:	48 89 d0             	mov    %rdx,%rax
    90a7:	eb 04                	jmp    90ad <safe_mod_func_uint64_t_u_u+0x2d>
    90a9:	48 8b 45 f8          	mov    -0x8(%rbp),%rax
    90ad:	5d                   	pop    %rbp
    90ae:	c3                   	retq   

00000000000090af <safe_div_func_uint64_t_u_u>:
    90af:	f3 0f 1e fa          	endbr64 
    90b3:	55                   	push   %rbp
    90b4:	48 89 e5             	mov    %rsp,%rbp
    90b7:	48 89 7d f8          	mov    %rdi,-0x8(%rbp)
    90bb:	48 89 75 f0          	mov    %rsi,-0x10(%rbp)
    90bf:	48 83 7d f0 00       	cmpq   $0x0,-0x10(%rbp)
    90c4:	74 0f                	je     90d5 <safe_div_func_uint64_t_u_u+0x26>
    90c6:	48 8b 45 f8          	mov    -0x8(%rbp),%rax
    90ca:	ba 00 00 00 00       	mov    $0x0,%edx
    90cf:	48 f7 75 f0          	divq   -0x10(%rbp)
    90d3:	eb 04                	jmp    90d9 <safe_div_func_uint64_t_u_u+0x2a>
    90d5:	48 8b 45 f8          	mov    -0x8(%rbp),%rax
    90d9:	5d                   	pop    %rbp
    90da:	c3                   	retq   

00000000000090db <safe_lshift_func_uint64_t_u_s>:
    90db:	f3 0f 1e fa          	endbr64 
    90df:	55                   	push   %rbp
    90e0:	48 89 e5             	mov    %rsp,%rbp
    90e3:	48 89 7d f8          	mov    %rdi,-0x8(%rbp)
    90e7:	89 75 f4             	mov    %esi,-0xc(%rbp)
    90ea:	83 7d f4 00          	cmpl   $0x0,-0xc(%rbp)
    90ee:	78 2f                	js     911f <safe_lshift_func_uint64_t_u_s+0x44>
    90f0:	83 7d f4 1f          	cmpl   $0x1f,-0xc(%rbp)
    90f4:	7f 29                	jg     911f <safe_lshift_func_uint64_t_u_s+0x44>
    90f6:	8b 45 f4             	mov    -0xc(%rbp),%eax
    90f9:	48 c7 c2 ff ff ff ff 	mov    $0xffffffffffffffff,%rdx
    9100:	89 c1                	mov    %eax,%ecx
    9102:	48 d3 ea             	shr    %cl,%rdx
    9105:	48 89 d0             	mov    %rdx,%rax
    9108:	48 39 45 f8          	cmp    %rax,-0x8(%rbp)
    910c:	77 11                	ja     911f <safe_lshift_func_uint64_t_u_s+0x44>
    910e:	8b 45 f4             	mov    -0xc(%rbp),%eax
    9111:	48 8b 55 f8          	mov    -0x8(%rbp),%rdx
    9115:	89 c1                	mov    %eax,%ecx
    9117:	48 d3 e2             	shl    %cl,%rdx
    911a:	48 89 d0             	mov    %rdx,%rax
    911d:	eb 04                	jmp    9123 <safe_lshift_func_uint64_t_u_s+0x48>
    911f:	48 8b 45 f8          	mov    -0x8(%rbp),%rax
    9123:	5d                   	pop    %rbp
    9124:	c3                   	retq   

0000000000009125 <safe_lshift_func_uint64_t_u_u>:
    9125:	f3 0f 1e fa          	endbr64 
    9129:	55                   	push   %rbp
    912a:	48 89 e5             	mov    %rsp,%rbp
    912d:	48 89 7d f8          	mov    %rdi,-0x8(%rbp)
    9131:	89 75 f4             	mov    %esi,-0xc(%rbp)
    9134:	83 7d f4 1f          	cmpl   $0x1f,-0xc(%rbp)
    9138:	77 29                	ja     9163 <safe_lshift_func_uint64_t_u_u+0x3e>
    913a:	8b 45 f4             	mov    -0xc(%rbp),%eax
    913d:	48 c7 c2 ff ff ff ff 	mov    $0xffffffffffffffff,%rdx
    9144:	89 c1                	mov    %eax,%ecx
    9146:	48 d3 ea             	shr    %cl,%rdx
    9149:	48 89 d0             	mov    %rdx,%rax
    914c:	48 39 45 f8          	cmp    %rax,-0x8(%rbp)
    9150:	77 11                	ja     9163 <safe_lshift_func_uint64_t_u_u+0x3e>
    9152:	8b 45 f4             	mov    -0xc(%rbp),%eax
    9155:	48 8b 55 f8          	mov    -0x8(%rbp),%rdx
    9159:	89 c1                	mov    %eax,%ecx
    915b:	48 d3 e2             	shl    %cl,%rdx
    915e:	48 89 d0             	mov    %rdx,%rax
    9161:	eb 04                	jmp    9167 <safe_lshift_func_uint64_t_u_u+0x42>
    9163:	48 8b 45 f8          	mov    -0x8(%rbp),%rax
    9167:	5d                   	pop    %rbp
    9168:	c3                   	retq   

0000000000009169 <safe_rshift_func_uint64_t_u_s>:
    9169:	f3 0f 1e fa          	endbr64 
    916d:	55                   	push   %rbp
    916e:	48 89 e5             	mov    %rsp,%rbp
    9171:	48 89 7d f8          	mov    %rdi,-0x8(%rbp)
    9175:	89 75 f4             	mov    %esi,-0xc(%rbp)
    9178:	83 7d f4 00          	cmpl   $0x0,-0xc(%rbp)
    917c:	78 17                	js     9195 <safe_rshift_func_uint64_t_u_s+0x2c>
    917e:	83 7d f4 1f          	cmpl   $0x1f,-0xc(%rbp)
    9182:	7f 11                	jg     9195 <safe_rshift_func_uint64_t_u_s+0x2c>
    9184:	8b 45 f4             	mov    -0xc(%rbp),%eax
    9187:	48 8b 55 f8          	mov    -0x8(%rbp),%rdx
    918b:	89 c1                	mov    %eax,%ecx
    918d:	48 d3 ea             	shr    %cl,%rdx
    9190:	48 89 d0             	mov    %rdx,%rax
    9193:	eb 04                	jmp    9199 <safe_rshift_func_uint64_t_u_s+0x30>
    9195:	48 8b 45 f8          	mov    -0x8(%rbp),%rax
    9199:	5d                   	pop    %rbp
    919a:	c3                   	retq   

000000000000919b <safe_rshift_func_uint64_t_u_u>:
    919b:	f3 0f 1e fa          	endbr64 
    919f:	55                   	push   %rbp
    91a0:	48 89 e5             	mov    %rsp,%rbp
    91a3:	48 89 7d f8          	mov    %rdi,-0x8(%rbp)
    91a7:	89 75 f4             	mov    %esi,-0xc(%rbp)
    91aa:	83 7d f4 1f          	cmpl   $0x1f,-0xc(%rbp)
    91ae:	77 11                	ja     91c1 <safe_rshift_func_uint64_t_u_u+0x26>
    91b0:	8b 45 f4             	mov    -0xc(%rbp),%eax
    91b3:	48 8b 55 f8          	mov    -0x8(%rbp),%rdx
    91b7:	89 c1                	mov    %eax,%ecx
    91b9:	48 d3 ea             	shr    %cl,%rdx
    91bc:	48 89 d0             	mov    %rdx,%rax
    91bf:	eb 04                	jmp    91c5 <safe_rshift_func_uint64_t_u_u+0x2a>
    91c1:	48 8b 45 f8          	mov    -0x8(%rbp),%rax
    91c5:	5d                   	pop    %rbp
    91c6:	c3                   	retq   

00000000000091c7 <safe_add_func_float_f_f>:
    91c7:	f3 0f 1e fa          	endbr64 
    91cb:	55                   	push   %rbp
    91cc:	48 89 e5             	mov    %rsp,%rbp
    91cf:	f3 0f 11 45 fc       	movss  %xmm0,-0x4(%rbp)
    91d4:	f3 0f 11 4d f8       	movss  %xmm1,-0x8(%rbp)
    91d9:	f3 0f 10 4d fc       	movss  -0x4(%rbp),%xmm1
    91de:	f3 0f 10 05 1a 1b 01 	movss  0x11b1a(%rip),%xmm0        # 1ad00 <l_849.4901+0x360>
    91e5:	00 
    91e6:	f3 0f 59 c8          	mulss  %xmm0,%xmm1
    91ea:	f3 0f 10 55 f8       	movss  -0x8(%rbp),%xmm2
    91ef:	f3 0f 10 05 09 1b 01 	movss  0x11b09(%rip),%xmm0        # 1ad00 <l_849.4901+0x360>
    91f6:	00 
    91f7:	f3 0f 59 c2          	mulss  %xmm2,%xmm0
    91fb:	f3 0f 58 c1          	addss  %xmm1,%xmm0
    91ff:	f3 0f 10 0d 09 1b 01 	movss  0x11b09(%rip),%xmm1        # 1ad10 <l_849.4901+0x370>
    9206:	00 
    9207:	0f 54 c1             	andps  %xmm1,%xmm0
    920a:	0f 2f 05 0f 1b 01 00 	comiss 0x11b0f(%rip),%xmm0        # 1ad20 <l_849.4901+0x380>
    9211:	76 07                	jbe    921a <safe_add_func_float_f_f+0x53>
    9213:	f3 0f 10 45 fc       	movss  -0x4(%rbp),%xmm0
    9218:	eb 0a                	jmp    9224 <safe_add_func_float_f_f+0x5d>
    921a:	f3 0f 10 45 fc       	movss  -0x4(%rbp),%xmm0
    921f:	f3 0f 58 45 f8       	addss  -0x8(%rbp),%xmm0
    9224:	5d                   	pop    %rbp
    9225:	c3                   	retq   

0000000000009226 <safe_sub_func_float_f_f>:
    9226:	f3 0f 1e fa          	endbr64 
    922a:	55                   	push   %rbp
    922b:	48 89 e5             	mov    %rsp,%rbp
    922e:	f3 0f 11 45 fc       	movss  %xmm0,-0x4(%rbp)
    9233:	f3 0f 11 4d f8       	movss  %xmm1,-0x8(%rbp)
    9238:	f3 0f 10 4d fc       	movss  -0x4(%rbp),%xmm1
    923d:	f3 0f 10 05 bb 1a 01 	movss  0x11abb(%rip),%xmm0        # 1ad00 <l_849.4901+0x360>
    9244:	00 
    9245:	f3 0f 59 c1          	mulss  %xmm1,%xmm0
    9249:	f3 0f 10 55 f8       	movss  -0x8(%rbp),%xmm2
    924e:	f3 0f 10 0d aa 1a 01 	movss  0x11aaa(%rip),%xmm1        # 1ad00 <l_849.4901+0x360>
    9255:	00 
    9256:	f3 0f 59 ca          	mulss  %xmm2,%xmm1
    925a:	f3 0f 5c c1          	subss  %xmm1,%xmm0
    925e:	f3 0f 10 0d aa 1a 01 	movss  0x11aaa(%rip),%xmm1        # 1ad10 <l_849.4901+0x370>
    9265:	00 
    9266:	0f 54 c1             	andps  %xmm1,%xmm0
    9269:	0f 2f 05 b0 1a 01 00 	comiss 0x11ab0(%rip),%xmm0        # 1ad20 <l_849.4901+0x380>
    9270:	76 07                	jbe    9279 <safe_sub_func_float_f_f+0x53>
    9272:	f3 0f 10 45 fc       	movss  -0x4(%rbp),%xmm0
    9277:	eb 0a                	jmp    9283 <safe_sub_func_float_f_f+0x5d>
    9279:	f3 0f 10 45 fc       	movss  -0x4(%rbp),%xmm0
    927e:	f3 0f 5c 45 f8       	subss  -0x8(%rbp),%xmm0
    9283:	5d                   	pop    %rbp
    9284:	c3                   	retq   

0000000000009285 <safe_mul_func_float_f_f>:
    9285:	f3 0f 1e fa          	endbr64 
    9289:	55                   	push   %rbp
    928a:	48 89 e5             	mov    %rsp,%rbp
    928d:	f3 0f 11 45 fc       	movss  %xmm0,-0x4(%rbp)
    9292:	f3 0f 11 4d f8       	movss  %xmm1,-0x8(%rbp)
    9297:	f3 0f 10 4d fc       	movss  -0x4(%rbp),%xmm1
    929c:	f3 0f 10 05 80 1a 01 	movss  0x11a80(%rip),%xmm0        # 1ad24 <l_849.4901+0x384>
    92a3:	00 
    92a4:	f3 0f 59 c8          	mulss  %xmm0,%xmm1
    92a8:	f3 0f 10 55 f8       	movss  -0x8(%rbp),%xmm2
    92ad:	f3 0f 10 05 73 1a 01 	movss  0x11a73(%rip),%xmm0        # 1ad28 <l_849.4901+0x388>
    92b4:	00 
    92b5:	f3 0f 59 c2          	mulss  %xmm2,%xmm0
    92b9:	f3 0f 59 c1          	mulss  %xmm1,%xmm0
    92bd:	f3 0f 10 0d 4b 1a 01 	movss  0x11a4b(%rip),%xmm1        # 1ad10 <l_849.4901+0x370>
    92c4:	00 
    92c5:	0f 54 c1             	andps  %xmm1,%xmm0
    92c8:	0f 2f 05 5d 1a 01 00 	comiss 0x11a5d(%rip),%xmm0        # 1ad2c <l_849.4901+0x38c>
    92cf:	76 07                	jbe    92d8 <safe_mul_func_float_f_f+0x53>
    92d1:	f3 0f 10 45 fc       	movss  -0x4(%rbp),%xmm0
    92d6:	eb 0a                	jmp    92e2 <safe_mul_func_float_f_f+0x5d>
    92d8:	f3 0f 10 45 fc       	movss  -0x4(%rbp),%xmm0
    92dd:	f3 0f 59 45 f8       	mulss  -0x8(%rbp),%xmm0
    92e2:	5d                   	pop    %rbp
    92e3:	c3                   	retq   

00000000000092e4 <safe_div_func_float_f_f>:
    92e4:	f3 0f 1e fa          	endbr64 
    92e8:	55                   	push   %rbp
    92e9:	48 89 e5             	mov    %rsp,%rbp
    92ec:	f3 0f 11 45 fc       	movss  %xmm0,-0x4(%rbp)
    92f1:	f3 0f 11 4d f8       	movss  %xmm1,-0x8(%rbp)
    92f6:	f3 0f 10 45 f8       	movss  -0x8(%rbp),%xmm0
    92fb:	f3 0f 10 0d 0d 1a 01 	movss  0x11a0d(%rip),%xmm1        # 1ad10 <l_849.4901+0x370>
    9302:	00 
    9303:	0f 54 c8             	andps  %xmm0,%xmm1
    9306:	f3 0f 10 05 22 1a 01 	movss  0x11a22(%rip),%xmm0        # 1ad30 <l_849.4901+0x390>
    930d:	00 
    930e:	0f 2f c1             	comiss %xmm1,%xmm0
    9311:	0f 97 c0             	seta   %al
    9314:	83 f0 01             	xor    $0x1,%eax
    9317:	84 c0                	test   %al,%al
    9319:	75 56                	jne    9371 <safe_div_func_float_f_f+0x8d>
    931b:	66 0f ef c0          	pxor   %xmm0,%xmm0
    931f:	0f 2e 45 f8          	ucomiss -0x8(%rbp),%xmm0
    9323:	7a 0a                	jp     932f <safe_div_func_float_f_f+0x4b>
    9325:	66 0f ef c0          	pxor   %xmm0,%xmm0
    9329:	0f 2e 45 f8          	ucomiss -0x8(%rbp),%xmm0
    932d:	74 4e                	je     937d <safe_div_func_float_f_f+0x99>
    932f:	f3 0f 10 4d fc       	movss  -0x4(%rbp),%xmm1
    9334:	f3 0f 10 05 f8 19 01 	movss  0x119f8(%rip),%xmm0        # 1ad34 <l_849.4901+0x394>
    933b:	00 
    933c:	f3 0f 59 c1          	mulss  %xmm1,%xmm0
    9340:	f3 0f 10 55 f8       	movss  -0x8(%rbp),%xmm2
    9345:	f3 0f 10 0d eb 19 01 	movss  0x119eb(%rip),%xmm1        # 1ad38 <l_849.4901+0x398>
    934c:	00 
    934d:	f3 0f 59 ca          	mulss  %xmm2,%xmm1
    9351:	f3 0f 5e c1          	divss  %xmm1,%xmm0
    9355:	f3 0f 10 0d b3 19 01 	movss  0x119b3(%rip),%xmm1        # 1ad10 <l_849.4901+0x370>
    935c:	00 
    935d:	0f 54 c1             	andps  %xmm1,%xmm0
    9360:	0f 2f 05 d5 19 01 00 	comiss 0x119d5(%rip),%xmm0        # 1ad3c <l_849.4901+0x39c>
    9367:	0f 97 c0             	seta   %al
    936a:	83 f0 01             	xor    $0x1,%eax
    936d:	84 c0                	test   %al,%al
    936f:	74 0c                	je     937d <safe_div_func_float_f_f+0x99>
    9371:	f3 0f 10 45 fc       	movss  -0x4(%rbp),%xmm0
    9376:	f3 0f 5e 45 f8       	divss  -0x8(%rbp),%xmm0
    937b:	eb 05                	jmp    9382 <safe_div_func_float_f_f+0x9e>
    937d:	f3 0f 10 45 fc       	movss  -0x4(%rbp),%xmm0
    9382:	5d                   	pop    %rbp
    9383:	c3                   	retq   

0000000000009384 <safe_add_func_double_f_f>:
    9384:	f3 0f 1e fa          	endbr64 
    9388:	55                   	push   %rbp
    9389:	48 89 e5             	mov    %rsp,%rbp
    938c:	f2 0f 11 45 f8       	movsd  %xmm0,-0x8(%rbp)
    9391:	f2 0f 11 4d f0       	movsd  %xmm1,-0x10(%rbp)
    9396:	f2 0f 10 4d f8       	movsd  -0x8(%rbp),%xmm1
    939b:	f2 0f 10 05 9d 19 01 	movsd  0x1199d(%rip),%xmm0        # 1ad40 <l_849.4901+0x3a0>
    93a2:	00 
    93a3:	f2 0f 59 c8          	mulsd  %xmm0,%xmm1
    93a7:	f2 0f 10 55 f0       	movsd  -0x10(%rbp),%xmm2
    93ac:	f2 0f 10 05 8c 19 01 	movsd  0x1198c(%rip),%xmm0        # 1ad40 <l_849.4901+0x3a0>
    93b3:	00 
    93b4:	f2 0f 59 c2          	mulsd  %xmm2,%xmm0
    93b8:	f2 0f 58 c1          	addsd  %xmm1,%xmm0
    93bc:	f3 0f 7e 0d 8c 19 01 	movq   0x1198c(%rip),%xmm1        # 1ad50 <l_849.4901+0x3b0>
    93c3:	00 
    93c4:	66 0f 54 c1          	andpd  %xmm1,%xmm0
    93c8:	66 0f 2f 05 90 19 01 	comisd 0x11990(%rip),%xmm0        # 1ad60 <l_849.4901+0x3c0>
    93cf:	00 
    93d0:	76 07                	jbe    93d9 <safe_add_func_double_f_f+0x55>
    93d2:	f2 0f 10 45 f8       	movsd  -0x8(%rbp),%xmm0
    93d7:	eb 0a                	jmp    93e3 <safe_add_func_double_f_f+0x5f>
    93d9:	f2 0f 10 45 f8       	movsd  -0x8(%rbp),%xmm0
    93de:	f2 0f 58 45 f0       	addsd  -0x10(%rbp),%xmm0
    93e3:	5d                   	pop    %rbp
    93e4:	c3                   	retq   

00000000000093e5 <safe_sub_func_double_f_f>:
    93e5:	f3 0f 1e fa          	endbr64 
    93e9:	55                   	push   %rbp
    93ea:	48 89 e5             	mov    %rsp,%rbp
    93ed:	f2 0f 11 45 f8       	movsd  %xmm0,-0x8(%rbp)
    93f2:	f2 0f 11 4d f0       	movsd  %xmm1,-0x10(%rbp)
    93f7:	f2 0f 10 4d f8       	movsd  -0x8(%rbp),%xmm1
    93fc:	f2 0f 10 05 3c 19 01 	movsd  0x1193c(%rip),%xmm0        # 1ad40 <l_849.4901+0x3a0>
    9403:	00 
    9404:	f2 0f 59 c1          	mulsd  %xmm1,%xmm0
    9408:	f2 0f 10 55 f0       	movsd  -0x10(%rbp),%xmm2
    940d:	f2 0f 10 0d 2b 19 01 	movsd  0x1192b(%rip),%xmm1        # 1ad40 <l_849.4901+0x3a0>
    9414:	00 
    9415:	f2 0f 59 ca          	mulsd  %xmm2,%xmm1
    9419:	f2 0f 5c c1          	subsd  %xmm1,%xmm0
    941d:	f3 0f 7e 0d 2b 19 01 	movq   0x1192b(%rip),%xmm1        # 1ad50 <l_849.4901+0x3b0>
    9424:	00 
    9425:	66 0f 54 c1          	andpd  %xmm1,%xmm0
    9429:	66 0f 2f 05 2f 19 01 	comisd 0x1192f(%rip),%xmm0        # 1ad60 <l_849.4901+0x3c0>
    9430:	00 
    9431:	76 07                	jbe    943a <safe_sub_func_double_f_f+0x55>
    9433:	f2 0f 10 45 f8       	movsd  -0x8(%rbp),%xmm0
    9438:	eb 0a                	jmp    9444 <safe_sub_func_double_f_f+0x5f>
    943a:	f2 0f 10 45 f8       	movsd  -0x8(%rbp),%xmm0
    943f:	f2 0f 5c 45 f0       	subsd  -0x10(%rbp),%xmm0
    9444:	5d                   	pop    %rbp
    9445:	c3                   	retq   

0000000000009446 <safe_mul_func_double_f_f>:
    9446:	f3 0f 1e fa          	endbr64 
    944a:	55                   	push   %rbp
    944b:	48 89 e5             	mov    %rsp,%rbp
    944e:	f2 0f 11 45 f8       	movsd  %xmm0,-0x8(%rbp)
    9453:	f2 0f 11 4d f0       	movsd  %xmm1,-0x10(%rbp)
    9458:	f2 0f 10 4d f8       	movsd  -0x8(%rbp),%xmm1
    945d:	f2 0f 10 05 03 19 01 	movsd  0x11903(%rip),%xmm0        # 1ad68 <l_849.4901+0x3c8>
    9464:	00 
    9465:	f2 0f 59 c8          	mulsd  %xmm0,%xmm1
    9469:	f2 0f 10 55 f0       	movsd  -0x10(%rbp),%xmm2
    946e:	f2 0f 10 05 fa 18 01 	movsd  0x118fa(%rip),%xmm0        # 1ad70 <l_849.4901+0x3d0>
    9475:	00 
    9476:	f2 0f 59 c2          	mulsd  %xmm2,%xmm0
    947a:	f2 0f 59 c1          	mulsd  %xmm1,%xmm0
    947e:	f3 0f 7e 0d ca 18 01 	movq   0x118ca(%rip),%xmm1        # 1ad50 <l_849.4901+0x3b0>
    9485:	00 
    9486:	66 0f 54 c1          	andpd  %xmm1,%xmm0
    948a:	66 0f 2f 05 e6 18 01 	comisd 0x118e6(%rip),%xmm0        # 1ad78 <l_849.4901+0x3d8>
    9491:	00 
    9492:	76 07                	jbe    949b <safe_mul_func_double_f_f+0x55>
    9494:	f2 0f 10 45 f8       	movsd  -0x8(%rbp),%xmm0
    9499:	eb 0a                	jmp    94a5 <safe_mul_func_double_f_f+0x5f>
    949b:	f2 0f 10 45 f8       	movsd  -0x8(%rbp),%xmm0
    94a0:	f2 0f 59 45 f0       	mulsd  -0x10(%rbp),%xmm0
    94a5:	5d                   	pop    %rbp
    94a6:	c3                   	retq   

00000000000094a7 <safe_div_func_double_f_f>:
    94a7:	f3 0f 1e fa          	endbr64 
    94ab:	55                   	push   %rbp
    94ac:	48 89 e5             	mov    %rsp,%rbp
    94af:	f2 0f 11 45 f8       	movsd  %xmm0,-0x8(%rbp)
    94b4:	f2 0f 11 4d f0       	movsd  %xmm1,-0x10(%rbp)
    94b9:	f2 0f 10 45 f0       	movsd  -0x10(%rbp),%xmm0
    94be:	f3 0f 7e 0d 8a 18 01 	movq   0x1188a(%rip),%xmm1        # 1ad50 <l_849.4901+0x3b0>
    94c5:	00 
    94c6:	66 0f 54 c8          	andpd  %xmm0,%xmm1
    94ca:	f2 0f 10 05 ae 18 01 	movsd  0x118ae(%rip),%xmm0        # 1ad80 <l_849.4901+0x3e0>
    94d1:	00 
    94d2:	66 0f 2f c1          	comisd %xmm1,%xmm0
    94d6:	0f 97 c0             	seta   %al
    94d9:	83 f0 01             	xor    $0x1,%eax
    94dc:	84 c0                	test   %al,%al
    94de:	75 5a                	jne    953a <safe_div_func_double_f_f+0x93>
    94e0:	66 0f ef c0          	pxor   %xmm0,%xmm0
    94e4:	66 0f 2e 45 f0       	ucomisd -0x10(%rbp),%xmm0
    94e9:	7a 0b                	jp     94f6 <safe_div_func_double_f_f+0x4f>
    94eb:	66 0f ef c0          	pxor   %xmm0,%xmm0
    94ef:	66 0f 2e 45 f0       	ucomisd -0x10(%rbp),%xmm0
    94f4:	74 50                	je     9546 <safe_div_func_double_f_f+0x9f>
    94f6:	f2 0f 10 4d f8       	movsd  -0x8(%rbp),%xmm1
    94fb:	f2 0f 10 05 85 18 01 	movsd  0x11885(%rip),%xmm0        # 1ad88 <l_849.4901+0x3e8>
    9502:	00 
    9503:	f2 0f 59 c1          	mulsd  %xmm1,%xmm0
    9507:	f2 0f 10 55 f0       	movsd  -0x10(%rbp),%xmm2
    950c:	f2 0f 10 0d 7c 18 01 	movsd  0x1187c(%rip),%xmm1        # 1ad90 <l_849.4901+0x3f0>
    9513:	00 
    9514:	f2 0f 59 ca          	mulsd  %xmm2,%xmm1
    9518:	f2 0f 5e c1          	divsd  %xmm1,%xmm0
    951c:	f3 0f 7e 0d 2c 18 01 	movq   0x1182c(%rip),%xmm1        # 1ad50 <l_849.4901+0x3b0>
    9523:	00 
    9524:	66 0f 54 c1          	andpd  %xmm1,%xmm0
    9528:	66 0f 2f 05 68 18 01 	comisd 0x11868(%rip),%xmm0        # 1ad98 <l_849.4901+0x3f8>
    952f:	00 
    9530:	0f 97 c0             	seta   %al
    9533:	83 f0 01             	xor    $0x1,%eax
    9536:	84 c0                	test   %al,%al
    9538:	74 0c                	je     9546 <safe_div_func_double_f_f+0x9f>
    953a:	f2 0f 10 45 f8       	movsd  -0x8(%rbp),%xmm0
    953f:	f2 0f 5e 45 f0       	divsd  -0x10(%rbp),%xmm0
    9544:	eb 05                	jmp    954b <safe_div_func_double_f_f+0xa4>
    9546:	f2 0f 10 45 f8       	movsd  -0x8(%rbp),%xmm0
    954b:	5d                   	pop    %rbp
    954c:	c3                   	retq   

000000000000954d <safe_convert_func_float_to_int32_t>:
    954d:	f3 0f 1e fa          	endbr64 
    9551:	55                   	push   %rbp
    9552:	48 89 e5             	mov    %rsp,%rbp
    9555:	f3 0f 11 45 fc       	movss  %xmm0,-0x4(%rbp)
    955a:	f3 0f 10 05 3e 18 01 	movss  0x1183e(%rip),%xmm0        # 1ada0 <l_849.4901+0x400>
    9561:	00 
    9562:	0f 2f 45 fc          	comiss -0x4(%rbp),%xmm0
    9566:	0f 93 c0             	setae  %al
    9569:	83 f0 01             	xor    $0x1,%eax
    956c:	84 c0                	test   %al,%al
    956e:	74 21                	je     9591 <safe_convert_func_float_to_int32_t+0x44>
    9570:	f3 0f 10 45 fc       	movss  -0x4(%rbp),%xmm0
    9575:	0f 2f 05 28 18 01 00 	comiss 0x11828(%rip),%xmm0        # 1ada4 <l_849.4901+0x404>
    957c:	0f 93 c0             	setae  %al
    957f:	83 f0 01             	xor    $0x1,%eax
    9582:	84 c0                	test   %al,%al
    9584:	74 0b                	je     9591 <safe_convert_func_float_to_int32_t+0x44>
    9586:	f3 0f 10 45 fc       	movss  -0x4(%rbp),%xmm0
    958b:	f3 0f 2c c0          	cvttss2si %xmm0,%eax
    958f:	eb 05                	jmp    9596 <safe_convert_func_float_to_int32_t+0x49>
    9591:	b8 ff ff ff 7f       	mov    $0x7fffffff,%eax
    9596:	5d                   	pop    %rbp
    9597:	c3                   	retq   

0000000000009598 <crc32_gentab>:
    9598:	f3 0f 1e fa          	endbr64 
    959c:	55                   	push   %rbp
    959d:	48 89 e5             	mov    %rsp,%rbp
    95a0:	c7 45 fc 20 83 b8 ed 	movl   $0xedb88320,-0x4(%rbp)
    95a7:	c7 45 f4 00 00 00 00 	movl   $0x0,-0xc(%rbp)
    95ae:	eb 51                	jmp    9601 <crc32_gentab+0x69>
    95b0:	8b 45 f4             	mov    -0xc(%rbp),%eax
    95b3:	89 45 f0             	mov    %eax,-0x10(%rbp)
    95b6:	c7 45 f8 08 00 00 00 	movl   $0x8,-0x8(%rbp)
    95bd:	eb 1e                	jmp    95dd <crc32_gentab+0x45>
    95bf:	8b 45 f0             	mov    -0x10(%rbp),%eax
    95c2:	83 e0 01             	and    $0x1,%eax
    95c5:	85 c0                	test   %eax,%eax
    95c7:	74 0d                	je     95d6 <crc32_gentab+0x3e>
    95c9:	8b 45 f0             	mov    -0x10(%rbp),%eax
    95cc:	d1 e8                	shr    %eax
    95ce:	33 45 fc             	xor    -0x4(%rbp),%eax
    95d1:	89 45 f0             	mov    %eax,-0x10(%rbp)
    95d4:	eb 03                	jmp    95d9 <crc32_gentab+0x41>
    95d6:	d1 6d f0             	shrl   -0x10(%rbp)
    95d9:	83 6d f8 01          	subl   $0x1,-0x8(%rbp)
    95dd:	83 7d f8 00          	cmpl   $0x0,-0x8(%rbp)
    95e1:	7f dc                	jg     95bf <crc32_gentab+0x27>
    95e3:	8b 45 f4             	mov    -0xc(%rbp),%eax
    95e6:	48 98                	cltq   
    95e8:	48 8d 0c 85 00 00 00 	lea    0x0(,%rax,4),%rcx
    95ef:	00 
    95f0:	48 8d 15 e9 75 01 00 	lea    0x175e9(%rip),%rdx        # 20be0 <crc32_tab>
    95f7:	8b 45 f0             	mov    -0x10(%rbp),%eax
    95fa:	89 04 11             	mov    %eax,(%rcx,%rdx,1)
    95fd:	83 45 f4 01          	addl   $0x1,-0xc(%rbp)
    9601:	81 7d f4 ff 00 00 00 	cmpl   $0xff,-0xc(%rbp)
    9608:	7e a6                	jle    95b0 <crc32_gentab+0x18>
    960a:	90                   	nop
    960b:	90                   	nop
    960c:	5d                   	pop    %rbp
    960d:	c3                   	retq   

000000000000960e <crc32_byte>:
    960e:	f3 0f 1e fa          	endbr64 
    9612:	55                   	push   %rbp
    9613:	48 89 e5             	mov    %rsp,%rbp
    9616:	89 f8                	mov    %edi,%eax
    9618:	88 45 fc             	mov    %al,-0x4(%rbp)
    961b:	8b 05 ff 49 01 00    	mov    0x149ff(%rip),%eax        # 1e020 <crc32_context>
    9621:	c1 e8 08             	shr    $0x8,%eax
    9624:	89 c1                	mov    %eax,%ecx
    9626:	0f b6 55 fc          	movzbl -0x4(%rbp),%edx
    962a:	8b 05 f0 49 01 00    	mov    0x149f0(%rip),%eax        # 1e020 <crc32_context>
    9630:	31 d0                	xor    %edx,%eax
    9632:	0f b6 c0             	movzbl %al,%eax
    9635:	89 c0                	mov    %eax,%eax
    9637:	48 8d 14 85 00 00 00 	lea    0x0(,%rax,4),%rdx
    963e:	00 
    963f:	48 8d 05 9a 75 01 00 	lea    0x1759a(%rip),%rax        # 20be0 <crc32_tab>
    9646:	8b 04 02             	mov    (%rdx,%rax,1),%eax
    9649:	31 c8                	xor    %ecx,%eax
    964b:	89 05 cf 49 01 00    	mov    %eax,0x149cf(%rip)        # 1e020 <crc32_context>
    9651:	90                   	nop
    9652:	5d                   	pop    %rbp
    9653:	c3                   	retq   

0000000000009654 <crc32_8bytes>:
    9654:	f3 0f 1e fa          	endbr64 
    9658:	55                   	push   %rbp
    9659:	48 89 e5             	mov    %rsp,%rbp
    965c:	48 83 ec 08          	sub    $0x8,%rsp
    9660:	48 89 7d f8          	mov    %rdi,-0x8(%rbp)
    9664:	48 8b 45 f8          	mov    -0x8(%rbp),%rax
    9668:	0f b6 c0             	movzbl %al,%eax
    966b:	89 c7                	mov    %eax,%edi
    966d:	e8 9c ff ff ff       	callq  960e <crc32_byte>
    9672:	48 8b 45 f8          	mov    -0x8(%rbp),%rax
    9676:	48 c1 e8 08          	shr    $0x8,%rax
    967a:	0f b6 c0             	movzbl %al,%eax
    967d:	89 c7                	mov    %eax,%edi
    967f:	e8 8a ff ff ff       	callq  960e <crc32_byte>
    9684:	48 8b 45 f8          	mov    -0x8(%rbp),%rax
    9688:	48 c1 e8 10          	shr    $0x10,%rax
    968c:	0f b6 c0             	movzbl %al,%eax
    968f:	89 c7                	mov    %eax,%edi
    9691:	e8 78 ff ff ff       	callq  960e <crc32_byte>
    9696:	48 8b 45 f8          	mov    -0x8(%rbp),%rax
    969a:	48 c1 e8 18          	shr    $0x18,%rax
    969e:	0f b6 c0             	movzbl %al,%eax
    96a1:	89 c7                	mov    %eax,%edi
    96a3:	e8 66 ff ff ff       	callq  960e <crc32_byte>
    96a8:	48 8b 45 f8          	mov    -0x8(%rbp),%rax
    96ac:	48 c1 e8 20          	shr    $0x20,%rax
    96b0:	0f b6 c0             	movzbl %al,%eax
    96b3:	89 c7                	mov    %eax,%edi
    96b5:	e8 54 ff ff ff       	callq  960e <crc32_byte>
    96ba:	48 8b 45 f8          	mov    -0x8(%rbp),%rax
    96be:	48 c1 e8 28          	shr    $0x28,%rax
    96c2:	0f b6 c0             	movzbl %al,%eax
    96c5:	89 c7                	mov    %eax,%edi
    96c7:	e8 42 ff ff ff       	callq  960e <crc32_byte>
    96cc:	48 8b 45 f8          	mov    -0x8(%rbp),%rax
    96d0:	48 c1 e8 30          	shr    $0x30,%rax
    96d4:	0f b6 c0             	movzbl %al,%eax
    96d7:	89 c7                	mov    %eax,%edi
    96d9:	e8 30 ff ff ff       	callq  960e <crc32_byte>
    96de:	48 8b 45 f8          	mov    -0x8(%rbp),%rax
    96e2:	48 c1 e8 38          	shr    $0x38,%rax
    96e6:	0f b6 c0             	movzbl %al,%eax
    96e9:	89 c7                	mov    %eax,%edi
    96eb:	e8 1e ff ff ff       	callq  960e <crc32_byte>
    96f0:	90                   	nop
    96f1:	c9                   	leaveq 
    96f2:	c3                   	retq   

00000000000096f3 <transparent_crc>:
    96f3:	f3 0f 1e fa          	endbr64 
    96f7:	55                   	push   %rbp
    96f8:	48 89 e5             	mov    %rsp,%rbp
    96fb:	48 83 ec 20          	sub    $0x20,%rsp
    96ff:	48 89 7d f8          	mov    %rdi,-0x8(%rbp)
    9703:	48 89 75 f0          	mov    %rsi,-0x10(%rbp)
    9707:	89 55 ec             	mov    %edx,-0x14(%rbp)
    970a:	48 8b 45 f8          	mov    -0x8(%rbp),%rax
    970e:	48 89 c7             	mov    %rax,%rdi
    9711:	e8 3e ff ff ff       	callq  9654 <crc32_8bytes>
    9716:	83 7d ec 00          	cmpl   $0x0,-0x14(%rbp)
    971a:	74 22                	je     973e <transparent_crc+0x4b>
    971c:	8b 05 fe 48 01 00    	mov    0x148fe(%rip),%eax        # 1e020 <crc32_context>
    9722:	f7 d0                	not    %eax
    9724:	89 c2                	mov    %eax,%edx
    9726:	48 8b 45 f0          	mov    -0x10(%rbp),%rax
    972a:	48 89 c6             	mov    %rax,%rsi
    972d:	48 8d 3d fc f8 00 00 	lea    0xf8fc(%rip),%rdi        # 19030 <_IO_stdin_used+0x30>
    9734:	b8 00 00 00 00       	mov    $0x0,%eax
    9739:	e8 42 e9 ff ff       	callq  8080 <printf@plt>
    973e:	90                   	nop
    973f:	c9                   	leaveq 
    9740:	c3                   	retq   

0000000000009741 <transparent_crc_bytes>:
    9741:	f3 0f 1e fa          	endbr64 
    9745:	55                   	push   %rbp
    9746:	48 89 e5             	mov    %rsp,%rbp
    9749:	48 83 ec 30          	sub    $0x30,%rsp
    974d:	48 89 7d e8          	mov    %rdi,-0x18(%rbp)
    9751:	89 75 e4             	mov    %esi,-0x1c(%rbp)
    9754:	48 89 55 d8          	mov    %rdx,-0x28(%rbp)
    9758:	89 4d e0             	mov    %ecx,-0x20(%rbp)
    975b:	c7 45 fc 00 00 00 00 	movl   $0x0,-0x4(%rbp)
    9762:	eb 1e                	jmp    9782 <transparent_crc_bytes+0x41>
    9764:	8b 45 fc             	mov    -0x4(%rbp),%eax
    9767:	48 63 d0             	movslq %eax,%rdx
    976a:	48 8b 45 e8          	mov    -0x18(%rbp),%rax
    976e:	48 01 d0             	add    %rdx,%rax
    9771:	0f b6 00             	movzbl (%rax),%eax
    9774:	0f b6 c0             	movzbl %al,%eax
    9777:	89 c7                	mov    %eax,%edi
    9779:	e8 90 fe ff ff       	callq  960e <crc32_byte>
    977e:	83 45 fc 01          	addl   $0x1,-0x4(%rbp)
    9782:	8b 45 fc             	mov    -0x4(%rbp),%eax
    9785:	3b 45 e4             	cmp    -0x1c(%rbp),%eax
    9788:	7c da                	jl     9764 <transparent_crc_bytes+0x23>
    978a:	83 7d e0 00          	cmpl   $0x0,-0x20(%rbp)
    978e:	74 22                	je     97b2 <transparent_crc_bytes+0x71>
    9790:	8b 05 8a 48 01 00    	mov    0x1488a(%rip),%eax        # 1e020 <crc32_context>
    9796:	f7 d0                	not    %eax
    9798:	89 c2                	mov    %eax,%edx
    979a:	48 8b 45 d8          	mov    -0x28(%rbp),%rax
    979e:	48 89 c6             	mov    %rax,%rsi
    97a1:	48 8d 3d 88 f8 00 00 	lea    0xf888(%rip),%rdi        # 19030 <_IO_stdin_used+0x30>
    97a8:	b8 00 00 00 00       	mov    $0x0,%eax
    97ad:	e8 ce e8 ff ff       	callq  8080 <printf@plt>
    97b2:	90                   	nop
    97b3:	c9                   	leaveq 
    97b4:	c3                   	retq   

00000000000097b5 <func_1>:
    97b5:	f3 0f 1e fa          	endbr64 
    97b9:	55                   	push   %rbp
    97ba:	48 89 e5             	mov    %rsp,%rbp
    97bd:	53                   	push   %rbx
    97be:	48 81 ec 00 10 00 00 	sub    $0x1000,%rsp
    97c5:	48 83 0c 24 00       	orq    $0x0,(%rsp)
    97ca:	48 81 ec 38 05 00 00 	sub    $0x538,%rsp
    97d1:	64 48 8b 04 25 28 00 	mov    %fs:0x28,%rax
    97d8:	00 00 
    97da:	48 89 45 e8          	mov    %rax,-0x18(%rbp)
    97de:	31 c0                	xor    %eax,%eax
    97e0:	c7 85 f0 ee ff ff ff 	movl   $0xffffffff,-0x1110(%rbp)
    97e7:	ff ff ff 
    97ea:	c7 85 f4 ee ff ff e6 	movl   $0x923ccde6,-0x110c(%rbp)
    97f1:	cd 3c 92 
    97f4:	c7 85 f8 ee ff ff 01 	movl   $0x55467101,-0x1108(%rbp)
    97fb:	71 46 55 
    97fe:	c7 85 fc ee ff ff 01 	movl   $0x55467101,-0x1104(%rbp)
    9805:	71 46 55 
    9808:	c7 85 00 ef ff ff e6 	movl   $0x923ccde6,-0x1100(%rbp)
    980f:	cd 3c 92 
    9812:	c7 85 04 ef ff ff ff 	movl   $0xffffffff,-0x10fc(%rbp)
    9819:	ff ff ff 
    981c:	c7 85 08 ef ff ff 25 	movl   $0xe033c225,-0x10f8(%rbp)
    9823:	c2 33 e0 
    9826:	c7 85 0c ef ff ff ff 	movl   $0xffffffff,-0x10f4(%rbp)
    982d:	ff ff ff 
    9830:	c7 85 10 ef ff ff e6 	movl   $0x923ccde6,-0x10f0(%rbp)
    9837:	cd 3c 92 
    983a:	c7 85 14 ef ff ff 01 	movl   $0x55467101,-0x10ec(%rbp)
    9841:	71 46 55 
    9844:	c7 85 18 ef ff ff 01 	movl   $0x55467101,-0x10e8(%rbp)
    984b:	71 46 55 
    984e:	c7 85 1c ef ff ff e6 	movl   $0x923ccde6,-0x10e4(%rbp)
    9855:	cd 3c 92 
    9858:	c7 85 20 ef ff ff ff 	movl   $0xffffffff,-0x10e0(%rbp)
    985f:	ff ff ff 
    9862:	c7 85 24 ef ff ff 25 	movl   $0xe033c225,-0x10dc(%rbp)
    9869:	c2 33 e0 
    986c:	c7 85 28 ef ff ff ff 	movl   $0xffffffff,-0x10d8(%rbp)
    9873:	ff ff ff 
    9876:	c7 85 2c ef ff ff e6 	movl   $0x923ccde6,-0x10d4(%rbp)
    987d:	cd 3c 92 
    9880:	c7 85 30 ef ff ff 01 	movl   $0x55467101,-0x10d0(%rbp)
    9887:	71 46 55 
    988a:	c7 85 34 ef ff ff 01 	movl   $0x55467101,-0x10cc(%rbp)
    9891:	71 46 55 
    9894:	c7 85 38 ef ff ff e6 	movl   $0x923ccde6,-0x10c8(%rbp)
    989b:	cd 3c 92 
    989e:	c7 85 3c ef ff ff ff 	movl   $0xffffffff,-0x10c4(%rbp)
    98a5:	ff ff ff 
    98a8:	c7 85 40 ef ff ff 25 	movl   $0xe033c225,-0x10c0(%rbp)
    98af:	c2 33 e0 
    98b2:	c7 85 44 ef ff ff ff 	movl   $0xffffffff,-0x10bc(%rbp)
    98b9:	ff ff ff 
    98bc:	c7 85 48 ef ff ff e6 	movl   $0x923ccde6,-0x10b8(%rbp)
    98c3:	cd 3c 92 
    98c6:	c7 85 4c ef ff ff 01 	movl   $0x55467101,-0x10b4(%rbp)
    98cd:	71 46 55 
    98d0:	c7 85 50 ef ff ff 01 	movl   $0x55467101,-0x10b0(%rbp)
    98d7:	71 46 55 
    98da:	c7 85 54 ef ff ff e6 	movl   $0x923ccde6,-0x10ac(%rbp)
    98e1:	cd 3c 92 
    98e4:	c7 85 58 ef ff ff ff 	movl   $0xffffffff,-0x10a8(%rbp)
    98eb:	ff ff ff 
    98ee:	c7 85 5c ef ff ff 25 	movl   $0xe033c225,-0x10a4(%rbp)
    98f5:	c2 33 e0 
    98f8:	c7 85 60 ef ff ff ff 	movl   $0xffffffff,-0x10a0(%rbp)
    98ff:	ff ff ff 
    9902:	c7 85 64 ef ff ff e6 	movl   $0x923ccde6,-0x109c(%rbp)
    9909:	cd 3c 92 
    990c:	c7 85 68 ef ff ff 01 	movl   $0x55467101,-0x1098(%rbp)
    9913:	71 46 55 
    9916:	c7 85 6c ef ff ff 01 	movl   $0x55467101,-0x1094(%rbp)
    991d:	71 46 55 
    9920:	c7 85 70 ef ff ff e6 	movl   $0x923ccde6,-0x1090(%rbp)
    9927:	cd 3c 92 
    992a:	c7 85 74 ef ff ff ff 	movl   $0xffffffff,-0x108c(%rbp)
    9931:	ff ff ff 
    9934:	c7 85 78 ef ff ff 25 	movl   $0xe033c225,-0x1088(%rbp)
    993b:	c2 33 e0 
    993e:	c7 85 7c ef ff ff ff 	movl   $0xffffffff,-0x1084(%rbp)
    9945:	ff ff ff 
    9948:	c7 85 80 ef ff ff e6 	movl   $0x923ccde6,-0x1080(%rbp)
    994f:	cd 3c 92 
    9952:	c7 85 84 ef ff ff 01 	movl   $0x55467101,-0x107c(%rbp)
    9959:	71 46 55 
    995c:	c7 85 88 ef ff ff 01 	movl   $0x55467101,-0x1078(%rbp)
    9963:	71 46 55 
    9966:	c7 85 8c ef ff ff e6 	movl   $0x923ccde6,-0x1074(%rbp)
    996d:	cd 3c 92 
    9970:	c7 85 90 ef ff ff ff 	movl   $0xffffffff,-0x1070(%rbp)
    9977:	ff ff ff 
    997a:	c7 85 94 ef ff ff 25 	movl   $0xe033c225,-0x106c(%rbp)
    9981:	c2 33 e0 
    9984:	48 8d 05 c9 f6 00 00 	lea    0xf6c9(%rip),%rax        # 19054 <g_24>
    998b:	48 89 85 30 ec ff ff 	mov    %rax,-0x13d0(%rbp)
    9992:	48 8d 05 bb f6 00 00 	lea    0xf6bb(%rip),%rax        # 19054 <g_24>
    9999:	48 89 85 38 ec ff ff 	mov    %rax,-0x13c8(%rbp)
    99a0:	48 c7 85 80 f1 ff ff 	movq   $0x0,-0xe80(%rbp)
    99a7:	00 00 00 00 
    99ab:	48 c7 85 88 f1 ff ff 	movq   $0x0,-0xe78(%rbp)
    99b2:	00 00 00 00 
    99b6:	48 8d 85 30 ec ff ff 	lea    -0x13d0(%rbp),%rax
    99bd:	48 83 c0 08          	add    $0x8,%rax
    99c1:	48 89 85 90 f1 ff ff 	mov    %rax,-0xe70(%rbp)
    99c8:	48 8d 85 30 ec ff ff 	lea    -0x13d0(%rbp),%rax
    99cf:	48 83 c0 08          	add    $0x8,%rax
    99d3:	48 89 85 98 f1 ff ff 	mov    %rax,-0xe68(%rbp)
    99da:	48 8d 85 30 ec ff ff 	lea    -0x13d0(%rbp),%rax
    99e1:	48 83 c0 08          	add    $0x8,%rax
    99e5:	48 89 85 a0 f1 ff ff 	mov    %rax,-0xe60(%rbp)
    99ec:	48 8d 85 30 ec ff ff 	lea    -0x13d0(%rbp),%rax
    99f3:	48 83 c0 08          	add    $0x8,%rax
    99f7:	48 89 85 a8 f1 ff ff 	mov    %rax,-0xe58(%rbp)
    99fe:	48 8d 85 30 ec ff ff 	lea    -0x13d0(%rbp),%rax
    9a05:	48 83 c0 08          	add    $0x8,%rax
    9a09:	48 89 85 b0 f1 ff ff 	mov    %rax,-0xe50(%rbp)
    9a10:	48 c7 85 b8 f1 ff ff 	movq   $0x0,-0xe48(%rbp)
    9a17:	00 00 00 00 
    9a1b:	48 c7 85 c0 f1 ff ff 	movq   $0x0,-0xe40(%rbp)
    9a22:	00 00 00 00 
    9a26:	48 8d 85 30 ec ff ff 	lea    -0x13d0(%rbp),%rax
    9a2d:	48 83 c0 08          	add    $0x8,%rax
    9a31:	48 89 85 c8 f1 ff ff 	mov    %rax,-0xe38(%rbp)
    9a38:	48 c7 85 d0 f1 ff ff 	movq   $0x0,-0xe30(%rbp)
    9a3f:	00 00 00 00 
    9a43:	48 8d 85 30 ec ff ff 	lea    -0x13d0(%rbp),%rax
    9a4a:	48 89 85 d8 f1 ff ff 	mov    %rax,-0xe28(%rbp)
    9a51:	48 8d 85 30 ec ff ff 	lea    -0x13d0(%rbp),%rax
    9a58:	48 83 c0 08          	add    $0x8,%rax
    9a5c:	48 89 85 e0 f1 ff ff 	mov    %rax,-0xe20(%rbp)
    9a63:	48 8d 85 30 ec ff ff 	lea    -0x13d0(%rbp),%rax
    9a6a:	48 83 c0 08          	add    $0x8,%rax
    9a6e:	48 89 85 e8 f1 ff ff 	mov    %rax,-0xe18(%rbp)
    9a75:	48 8d 85 30 ec ff ff 	lea    -0x13d0(%rbp),%rax
    9a7c:	48 83 c0 08          	add    $0x8,%rax
    9a80:	48 89 85 f0 f1 ff ff 	mov    %rax,-0xe10(%rbp)
    9a87:	48 8d 85 30 ec ff ff 	lea    -0x13d0(%rbp),%rax
    9a8e:	48 83 c0 08          	add    $0x8,%rax
    9a92:	48 89 85 f8 f1 ff ff 	mov    %rax,-0xe08(%rbp)
    9a99:	48 8d 85 30 ec ff ff 	lea    -0x13d0(%rbp),%rax
    9aa0:	48 83 c0 08          	add    $0x8,%rax
    9aa4:	48 89 85 00 f2 ff ff 	mov    %rax,-0xe00(%rbp)
    9aab:	48 8d 85 30 ec ff ff 	lea    -0x13d0(%rbp),%rax
    9ab2:	48 83 c0 08          	add    $0x8,%rax
    9ab6:	48 89 85 08 f2 ff ff 	mov    %rax,-0xdf8(%rbp)
    9abd:	48 8d 85 30 ec ff ff 	lea    -0x13d0(%rbp),%rax
    9ac4:	48 89 85 10 f2 ff ff 	mov    %rax,-0xdf0(%rbp)
    9acb:	48 8d 85 30 ec ff ff 	lea    -0x13d0(%rbp),%rax
    9ad2:	48 83 c0 08          	add    $0x8,%rax
    9ad6:	48 89 85 18 f2 ff ff 	mov    %rax,-0xde8(%rbp)
    9add:	48 8d 85 30 ec ff ff 	lea    -0x13d0(%rbp),%rax
    9ae4:	48 83 c0 08          	add    $0x8,%rax
    9ae8:	48 89 85 20 f2 ff ff 	mov    %rax,-0xde0(%rbp)
    9aef:	48 8d 85 30 ec ff ff 	lea    -0x13d0(%rbp),%rax
    9af6:	48 83 c0 08          	add    $0x8,%rax
    9afa:	48 89 85 28 f2 ff ff 	mov    %rax,-0xdd8(%rbp)
    9b01:	48 c7 85 30 f2 ff ff 	movq   $0x0,-0xdd0(%rbp)
    9b08:	00 00 00 00 
    9b0c:	48 8d 85 30 ec ff ff 	lea    -0x13d0(%rbp),%rax
    9b13:	48 89 85 38 f2 ff ff 	mov    %rax,-0xdc8(%rbp)
    9b1a:	48 8d 85 30 ec ff ff 	lea    -0x13d0(%rbp),%rax
    9b21:	48 83 c0 08          	add    $0x8,%rax
    9b25:	48 89 85 40 f2 ff ff 	mov    %rax,-0xdc0(%rbp)
    9b2c:	48 c7 85 48 f2 ff ff 	movq   $0x0,-0xdb8(%rbp)
    9b33:	00 00 00 00 
    9b37:	48 8d 85 30 ec ff ff 	lea    -0x13d0(%rbp),%rax
    9b3e:	48 83 c0 08          	add    $0x8,%rax
    9b42:	48 89 85 50 f2 ff ff 	mov    %rax,-0xdb0(%rbp)
    9b49:	48 8d 85 30 ec ff ff 	lea    -0x13d0(%rbp),%rax
    9b50:	48 83 c0 08          	add    $0x8,%rax
    9b54:	48 89 85 58 f2 ff ff 	mov    %rax,-0xda8(%rbp)
    9b5b:	48 8d 85 30 ec ff ff 	lea    -0x13d0(%rbp),%rax
    9b62:	48 83 c0 08          	add    $0x8,%rax
    9b66:	48 89 85 60 f2 ff ff 	mov    %rax,-0xda0(%rbp)
    9b6d:	48 c7 85 68 f2 ff ff 	movq   $0x0,-0xd98(%rbp)
    9b74:	00 00 00 00 
    9b78:	48 8d 85 30 ec ff ff 	lea    -0x13d0(%rbp),%rax
    9b7f:	48 89 85 70 f2 ff ff 	mov    %rax,-0xd90(%rbp)
    9b86:	48 c7 85 78 f2 ff ff 	movq   $0x0,-0xd88(%rbp)
    9b8d:	00 00 00 00 
    9b91:	48 8d 85 30 ec ff ff 	lea    -0x13d0(%rbp),%rax
    9b98:	48 83 c0 08          	add    $0x8,%rax
    9b9c:	48 89 85 80 f2 ff ff 	mov    %rax,-0xd80(%rbp)
    9ba3:	48 c7 85 88 f2 ff ff 	movq   $0x0,-0xd78(%rbp)
    9baa:	00 00 00 00 
    9bae:	48 8d 85 30 ec ff ff 	lea    -0x13d0(%rbp),%rax
    9bb5:	48 89 85 90 f2 ff ff 	mov    %rax,-0xd70(%rbp)
    9bbc:	48 8d 85 30 ec ff ff 	lea    -0x13d0(%rbp),%rax
    9bc3:	48 83 c0 08          	add    $0x8,%rax
    9bc7:	48 89 85 98 f2 ff ff 	mov    %rax,-0xd68(%rbp)
    9bce:	48 8d 85 30 ec ff ff 	lea    -0x13d0(%rbp),%rax
    9bd5:	48 83 c0 08          	add    $0x8,%rax
    9bd9:	48 89 85 a0 f2 ff ff 	mov    %rax,-0xd60(%rbp)
    9be0:	48 8d 85 30 ec ff ff 	lea    -0x13d0(%rbp),%rax
    9be7:	48 83 c0 08          	add    $0x8,%rax
    9beb:	48 89 85 a8 f2 ff ff 	mov    %rax,-0xd58(%rbp)
    9bf2:	48 8d 85 30 ec ff ff 	lea    -0x13d0(%rbp),%rax
    9bf9:	48 83 c0 08          	add    $0x8,%rax
    9bfd:	48 89 85 b0 f2 ff ff 	mov    %rax,-0xd50(%rbp)
    9c04:	48 8d 85 30 ec ff ff 	lea    -0x13d0(%rbp),%rax
    9c0b:	48 83 c0 08          	add    $0x8,%rax
    9c0f:	48 89 85 b8 f2 ff ff 	mov    %rax,-0xd48(%rbp)
    9c16:	48 8d 85 30 ec ff ff 	lea    -0x13d0(%rbp),%rax
    9c1d:	48 89 85 c0 f2 ff ff 	mov    %rax,-0xd40(%rbp)
    9c24:	48 8d 85 30 ec ff ff 	lea    -0x13d0(%rbp),%rax
    9c2b:	48 83 c0 08          	add    $0x8,%rax
    9c2f:	48 89 85 c8 f2 ff ff 	mov    %rax,-0xd38(%rbp)
    9c36:	48 8d 85 30 ec ff ff 	lea    -0x13d0(%rbp),%rax
    9c3d:	48 83 c0 08          	add    $0x8,%rax
    9c41:	48 89 85 d0 f2 ff ff 	mov    %rax,-0xd30(%rbp)
    9c48:	48 c7 85 d8 f2 ff ff 	movq   $0x0,-0xd28(%rbp)
    9c4f:	00 00 00 00 
    9c53:	48 c7 85 e0 f2 ff ff 	movq   $0x0,-0xd20(%rbp)
    9c5a:	00 00 00 00 
    9c5e:	48 8d 85 30 ec ff ff 	lea    -0x13d0(%rbp),%rax
    9c65:	48 83 c0 08          	add    $0x8,%rax
    9c69:	48 89 85 e8 f2 ff ff 	mov    %rax,-0xd18(%rbp)
    9c70:	48 8d 85 30 ec ff ff 	lea    -0x13d0(%rbp),%rax
    9c77:	48 83 c0 08          	add    $0x8,%rax
    9c7b:	48 89 85 f0 f2 ff ff 	mov    %rax,-0xd10(%rbp)
    9c82:	48 8d 85 30 ec ff ff 	lea    -0x13d0(%rbp),%rax
    9c89:	48 89 85 f8 f2 ff ff 	mov    %rax,-0xd08(%rbp)
    9c90:	48 8d 85 30 ec ff ff 	lea    -0x13d0(%rbp),%rax
    9c97:	48 83 c0 08          	add    $0x8,%rax
    9c9b:	48 89 85 00 f3 ff ff 	mov    %rax,-0xd00(%rbp)
    9ca2:	48 8d 85 30 ec ff ff 	lea    -0x13d0(%rbp),%rax
    9ca9:	48 83 c0 08          	add    $0x8,%rax
    9cad:	48 89 85 08 f3 ff ff 	mov    %rax,-0xcf8(%rbp)
    9cb4:	48 8d 85 30 ec ff ff 	lea    -0x13d0(%rbp),%rax
    9cbb:	48 83 c0 08          	add    $0x8,%rax
    9cbf:	48 89 85 10 f3 ff ff 	mov    %rax,-0xcf0(%rbp)
    9cc6:	48 c7 85 18 f3 ff ff 	movq   $0x0,-0xce8(%rbp)
    9ccd:	00 00 00 00 
    9cd1:	48 8d 85 30 ec ff ff 	lea    -0x13d0(%rbp),%rax
    9cd8:	48 83 c0 08          	add    $0x8,%rax
    9cdc:	48 89 85 20 f3 ff ff 	mov    %rax,-0xce0(%rbp)
    9ce3:	48 c7 85 28 f3 ff ff 	movq   $0x0,-0xcd8(%rbp)
    9cea:	00 00 00 00 
    9cee:	48 8d 85 30 ec ff ff 	lea    -0x13d0(%rbp),%rax
    9cf5:	48 89 85 30 f3 ff ff 	mov    %rax,-0xcd0(%rbp)
    9cfc:	48 8d 85 30 ec ff ff 	lea    -0x13d0(%rbp),%rax
    9d03:	48 83 c0 08          	add    $0x8,%rax
    9d07:	48 89 85 38 f3 ff ff 	mov    %rax,-0xcc8(%rbp)
    9d0e:	48 8d 85 30 ec ff ff 	lea    -0x13d0(%rbp),%rax
    9d15:	48 89 85 40 f3 ff ff 	mov    %rax,-0xcc0(%rbp)
    9d1c:	48 c7 85 48 f3 ff ff 	movq   $0x0,-0xcb8(%rbp)
    9d23:	00 00 00 00 
    9d27:	48 8d 85 30 ec ff ff 	lea    -0x13d0(%rbp),%rax
    9d2e:	48 83 c0 08          	add    $0x8,%rax
    9d32:	48 89 85 50 f3 ff ff 	mov    %rax,-0xcb0(%rbp)
    9d39:	48 c7 85 58 f3 ff ff 	movq   $0x0,-0xca8(%rbp)
    9d40:	00 00 00 00 
    9d44:	48 8d 85 30 ec ff ff 	lea    -0x13d0(%rbp),%rax
    9d4b:	48 83 c0 08          	add    $0x8,%rax
    9d4f:	48 89 85 60 f3 ff ff 	mov    %rax,-0xca0(%rbp)
    9d56:	48 8d 85 30 ec ff ff 	lea    -0x13d0(%rbp),%rax
    9d5d:	48 83 c0 08          	add    $0x8,%rax
    9d61:	48 89 85 68 f3 ff ff 	mov    %rax,-0xc98(%rbp)
    9d68:	48 8d 85 30 ec ff ff 	lea    -0x13d0(%rbp),%rax
    9d6f:	48 83 c0 08          	add    $0x8,%rax
    9d73:	48 89 85 70 f3 ff ff 	mov    %rax,-0xc90(%rbp)
    9d7a:	48 8d 85 30 ec ff ff 	lea    -0x13d0(%rbp),%rax
    9d81:	48 89 85 78 f3 ff ff 	mov    %rax,-0xc88(%rbp)
    9d88:	48 8d 85 30 ec ff ff 	lea    -0x13d0(%rbp),%rax
    9d8f:	48 83 c0 08          	add    $0x8,%rax
    9d93:	48 89 85 80 f3 ff ff 	mov    %rax,-0xc80(%rbp)
    9d9a:	48 c7 85 88 f3 ff ff 	movq   $0x0,-0xc78(%rbp)
    9da1:	00 00 00 00 
    9da5:	48 8d 85 30 ec ff ff 	lea    -0x13d0(%rbp),%rax
    9dac:	48 89 85 90 f3 ff ff 	mov    %rax,-0xc70(%rbp)
    9db3:	48 8d 85 30 ec ff ff 	lea    -0x13d0(%rbp),%rax
    9dba:	48 89 85 98 f3 ff ff 	mov    %rax,-0xc68(%rbp)
    9dc1:	48 c7 85 a0 f3 ff ff 	movq   $0x0,-0xc60(%rbp)
    9dc8:	00 00 00 00 
    9dcc:	48 8d 85 30 ec ff ff 	lea    -0x13d0(%rbp),%rax
    9dd3:	48 83 c0 08          	add    $0x8,%rax
    9dd7:	48 89 85 a8 f3 ff ff 	mov    %rax,-0xc58(%rbp)
    9dde:	48 8d 85 30 ec ff ff 	lea    -0x13d0(%rbp),%rax
    9de5:	48 83 c0 08          	add    $0x8,%rax
    9de9:	48 89 85 b0 f3 ff ff 	mov    %rax,-0xc50(%rbp)
    9df0:	48 8d 85 30 ec ff ff 	lea    -0x13d0(%rbp),%rax
    9df7:	48 83 c0 08          	add    $0x8,%rax
    9dfb:	48 89 85 b8 f3 ff ff 	mov    %rax,-0xc48(%rbp)
    9e02:	48 8d 85 30 ec ff ff 	lea    -0x13d0(%rbp),%rax
    9e09:	48 83 c0 08          	add    $0x8,%rax
    9e0d:	48 89 85 c0 f3 ff ff 	mov    %rax,-0xc40(%rbp)
    9e14:	48 8d 85 30 ec ff ff 	lea    -0x13d0(%rbp),%rax
    9e1b:	48 83 c0 08          	add    $0x8,%rax
    9e1f:	48 89 85 c8 f3 ff ff 	mov    %rax,-0xc38(%rbp)
    9e26:	48 c7 85 d0 f3 ff ff 	movq   $0x0,-0xc30(%rbp)
    9e2d:	00 00 00 00 
    9e31:	48 c7 85 d8 f3 ff ff 	movq   $0x0,-0xc28(%rbp)
    9e38:	00 00 00 00 
    9e3c:	48 8d 85 30 ec ff ff 	lea    -0x13d0(%rbp),%rax
    9e43:	48 83 c0 08          	add    $0x8,%rax
    9e47:	48 89 85 e0 f3 ff ff 	mov    %rax,-0xc20(%rbp)
    9e4e:	48 8d 85 30 ec ff ff 	lea    -0x13d0(%rbp),%rax
    9e55:	48 83 c0 08          	add    $0x8,%rax
    9e59:	48 89 85 e8 f3 ff ff 	mov    %rax,-0xc18(%rbp)
    9e60:	48 8d 85 30 ec ff ff 	lea    -0x13d0(%rbp),%rax
    9e67:	48 83 c0 08          	add    $0x8,%rax
    9e6b:	48 89 85 f0 f3 ff ff 	mov    %rax,-0xc10(%rbp)
    9e72:	48 8d 85 30 ec ff ff 	lea    -0x13d0(%rbp),%rax
    9e79:	48 83 c0 08          	add    $0x8,%rax
    9e7d:	48 89 85 f8 f3 ff ff 	mov    %rax,-0xc08(%rbp)
    9e84:	48 8d 85 30 ec ff ff 	lea    -0x13d0(%rbp),%rax
    9e8b:	48 83 c0 08          	add    $0x8,%rax
    9e8f:	48 89 85 00 f4 ff ff 	mov    %rax,-0xc00(%rbp)
    9e96:	48 8d 85 30 ec ff ff 	lea    -0x13d0(%rbp),%rax
    9e9d:	48 83 c0 08          	add    $0x8,%rax
    9ea1:	48 89 85 08 f4 ff ff 	mov    %rax,-0xbf8(%rbp)
    9ea8:	48 8d 85 30 ec ff ff 	lea    -0x13d0(%rbp),%rax
    9eaf:	48 83 c0 08          	add    $0x8,%rax
    9eb3:	48 89 85 10 f4 ff ff 	mov    %rax,-0xbf0(%rbp)
    9eba:	48 8d 85 30 ec ff ff 	lea    -0x13d0(%rbp),%rax
    9ec1:	48 83 c0 08          	add    $0x8,%rax
    9ec5:	48 89 85 18 f4 ff ff 	mov    %rax,-0xbe8(%rbp)
    9ecc:	48 8d 85 30 ec ff ff 	lea    -0x13d0(%rbp),%rax
    9ed3:	48 83 c0 08          	add    $0x8,%rax
    9ed7:	48 89 85 20 f4 ff ff 	mov    %rax,-0xbe0(%rbp)
    9ede:	48 8d 85 30 ec ff ff 	lea    -0x13d0(%rbp),%rax
    9ee5:	48 83 c0 08          	add    $0x8,%rax
    9ee9:	48 89 85 28 f4 ff ff 	mov    %rax,-0xbd8(%rbp)
    9ef0:	48 8d 85 30 ec ff ff 	lea    -0x13d0(%rbp),%rax
    9ef7:	48 83 c0 08          	add    $0x8,%rax
    9efb:	48 89 85 30 f4 ff ff 	mov    %rax,-0xbd0(%rbp)
    9f02:	48 8d 85 30 ec ff ff 	lea    -0x13d0(%rbp),%rax
    9f09:	48 83 c0 08          	add    $0x8,%rax
    9f0d:	48 89 85 38 f4 ff ff 	mov    %rax,-0xbc8(%rbp)
    9f14:	48 8d 85 30 ec ff ff 	lea    -0x13d0(%rbp),%rax
    9f1b:	48 83 c0 08          	add    $0x8,%rax
    9f1f:	48 89 85 40 f4 ff ff 	mov    %rax,-0xbc0(%rbp)
    9f26:	48 8d 85 30 ec ff ff 	lea    -0x13d0(%rbp),%rax
    9f2d:	48 83 c0 08          	add    $0x8,%rax
    9f31:	48 89 85 48 f4 ff ff 	mov    %rax,-0xbb8(%rbp)
    9f38:	48 8d 85 30 ec ff ff 	lea    -0x13d0(%rbp),%rax
    9f3f:	48 83 c0 08          	add    $0x8,%rax
    9f43:	48 89 85 50 f4 ff ff 	mov    %rax,-0xbb0(%rbp)
    9f4a:	48 c7 85 58 f4 ff ff 	movq   $0x0,-0xba8(%rbp)
    9f51:	00 00 00 00 
    9f55:	48 c7 85 60 f4 ff ff 	movq   $0x0,-0xba0(%rbp)
    9f5c:	00 00 00 00 
    9f60:	48 8d 85 30 ec ff ff 	lea    -0x13d0(%rbp),%rax
    9f67:	48 83 c0 08          	add    $0x8,%rax
    9f6b:	48 89 85 68 f4 ff ff 	mov    %rax,-0xb98(%rbp)
    9f72:	48 8d 85 30 ec ff ff 	lea    -0x13d0(%rbp),%rax
    9f79:	48 83 c0 08          	add    $0x8,%rax
    9f7d:	48 89 85 70 f4 ff ff 	mov    %rax,-0xb90(%rbp)
    9f84:	48 8d 85 30 ec ff ff 	lea    -0x13d0(%rbp),%rax
    9f8b:	48 83 c0 08          	add    $0x8,%rax
    9f8f:	48 89 85 78 f4 ff ff 	mov    %rax,-0xb88(%rbp)
    9f96:	48 8d 85 30 ec ff ff 	lea    -0x13d0(%rbp),%rax
    9f9d:	48 83 c0 08          	add    $0x8,%rax
    9fa1:	48 89 85 80 f4 ff ff 	mov    %rax,-0xb80(%rbp)
    9fa8:	48 c7 85 88 f4 ff ff 	movq   $0x0,-0xb78(%rbp)
    9faf:	00 00 00 00 
    9fb3:	48 c7 85 90 f4 ff ff 	movq   $0x0,-0xb70(%rbp)
    9fba:	00 00 00 00 
    9fbe:	48 8d 85 30 ec ff ff 	lea    -0x13d0(%rbp),%rax
    9fc5:	48 83 c0 08          	add    $0x8,%rax
    9fc9:	48 89 85 98 f4 ff ff 	mov    %rax,-0xb68(%rbp)
    9fd0:	48 c7 85 50 ed ff ff 	movq   $0xffffffffffffffff,-0x12b0(%rbp)
    9fd7:	ff ff ff ff 
    9fdb:	48 b8 8b ff b6 df d2 	movabs $0x7a9c9d2dfb6ff8b,%rax
    9fe2:	c9 a9 07 
    9fe5:	48 89 85 58 ed ff ff 	mov    %rax,-0x12a8(%rbp)
    9fec:	48 c7 85 60 ed ff ff 	movq   $0xffffffffffffffff,-0x12a0(%rbp)
    9ff3:	ff ff ff ff 
    9ff7:	48 c7 85 68 ed ff ff 	movq   $0xffffffffffffffff,-0x1298(%rbp)
    9ffe:	ff ff ff ff 
    a002:	48 89 85 70 ed ff ff 	mov    %rax,-0x1290(%rbp)
    a009:	48 c7 85 78 ed ff ff 	movq   $0xffffffffffffffff,-0x1288(%rbp)
    a010:	ff ff ff ff 
    a014:	48 c7 85 80 ed ff ff 	movq   $0xffffffffffffffff,-0x1280(%rbp)
    a01b:	ff ff ff ff 
    a01f:	48 c7 85 88 ed ff ff 	movq   $0xffffffffffffffff,-0x1278(%rbp)
    a026:	ff ff ff ff 
    a02a:	48 c7 85 90 ed ff ff 	movq   $0xffffffffffffffff,-0x1270(%rbp)
    a031:	ff ff ff ff 
    a035:	48 c7 85 98 ed ff ff 	movq   $0x7,-0x1268(%rbp)
    a03c:	07 00 00 00 
    a040:	48 c7 85 a0 ed ff ff 	movq   $0xffffffffffffffff,-0x1260(%rbp)
    a047:	ff ff ff ff 
    a04b:	48 c7 85 a8 ed ff ff 	movq   $0xffffffffffffffff,-0x1258(%rbp)
    a052:	ff ff ff ff 
    a056:	48 c7 85 b0 ed ff ff 	movq   $0x7,-0x1250(%rbp)
    a05d:	07 00 00 00 
    a061:	48 c7 85 b8 ed ff ff 	movq   $0xffffffffffffffff,-0x1248(%rbp)
    a068:	ff ff ff ff 
    a06c:	c7 85 e4 ea ff ff 51 	movl   $0xb84ce851,-0x151c(%rbp)
    a073:	e8 4c b8 
    a076:	48 8d 05 9b 61 01 00 	lea    0x1619b(%rip),%rax        # 20218 <g_840+0x58>
    a07d:	48 89 85 20 eb ff ff 	mov    %rax,-0x14e0(%rbp)
    a084:	48 8d 85 20 eb ff ff 	lea    -0x14e0(%rbp),%rax
    a08b:	48 89 85 28 eb ff ff 	mov    %rax,-0x14d8(%rbp)
    a092:	48 8d 85 28 eb ff ff 	lea    -0x14d8(%rbp),%rax
    a099:	48 89 85 00 f8 ff ff 	mov    %rax,-0x800(%rbp)
    a0a0:	48 8d 85 28 eb ff ff 	lea    -0x14d8(%rbp),%rax
    a0a7:	48 89 85 08 f8 ff ff 	mov    %rax,-0x7f8(%rbp)
    a0ae:	48 8d 85 28 eb ff ff 	lea    -0x14d8(%rbp),%rax
    a0b5:	48 89 85 10 f8 ff ff 	mov    %rax,-0x7f0(%rbp)
    a0bc:	48 8d 85 28 eb ff ff 	lea    -0x14d8(%rbp),%rax
    a0c3:	48 89 85 18 f8 ff ff 	mov    %rax,-0x7e8(%rbp)
    a0ca:	48 8d 85 28 eb ff ff 	lea    -0x14d8(%rbp),%rax
    a0d1:	48 89 85 20 f8 ff ff 	mov    %rax,-0x7e0(%rbp)
    a0d8:	48 8d 85 28 eb ff ff 	lea    -0x14d8(%rbp),%rax
    a0df:	48 89 85 28 f8 ff ff 	mov    %rax,-0x7d8(%rbp)
    a0e6:	48 8d 85 28 eb ff ff 	lea    -0x14d8(%rbp),%rax
    a0ed:	48 89 85 30 f8 ff ff 	mov    %rax,-0x7d0(%rbp)
    a0f4:	48 8d 85 28 eb ff ff 	lea    -0x14d8(%rbp),%rax
    a0fb:	48 89 85 38 f8 ff ff 	mov    %rax,-0x7c8(%rbp)
    a102:	48 8d 85 28 eb ff ff 	lea    -0x14d8(%rbp),%rax
    a109:	48 89 85 40 f8 ff ff 	mov    %rax,-0x7c0(%rbp)
    a110:	48 8d 85 28 eb ff ff 	lea    -0x14d8(%rbp),%rax
    a117:	48 89 85 48 f8 ff ff 	mov    %rax,-0x7b8(%rbp)
    a11e:	48 8d 85 28 eb ff ff 	lea    -0x14d8(%rbp),%rax
    a125:	48 89 85 50 f8 ff ff 	mov    %rax,-0x7b0(%rbp)
    a12c:	48 8d 85 28 eb ff ff 	lea    -0x14d8(%rbp),%rax
    a133:	48 89 85 58 f8 ff ff 	mov    %rax,-0x7a8(%rbp)
    a13a:	48 8d 85 28 eb ff ff 	lea    -0x14d8(%rbp),%rax
    a141:	48 89 85 60 f8 ff ff 	mov    %rax,-0x7a0(%rbp)
    a148:	48 8d 85 28 eb ff ff 	lea    -0x14d8(%rbp),%rax
    a14f:	48 89 85 68 f8 ff ff 	mov    %rax,-0x798(%rbp)
    a156:	48 8d 85 28 eb ff ff 	lea    -0x14d8(%rbp),%rax
    a15d:	48 89 85 70 f8 ff ff 	mov    %rax,-0x790(%rbp)
    a164:	48 8d 85 28 eb ff ff 	lea    -0x14d8(%rbp),%rax
    a16b:	48 89 85 78 f8 ff ff 	mov    %rax,-0x788(%rbp)
    a172:	48 8d 85 28 eb ff ff 	lea    -0x14d8(%rbp),%rax
    a179:	48 89 85 80 f8 ff ff 	mov    %rax,-0x780(%rbp)
    a180:	48 8d 85 28 eb ff ff 	lea    -0x14d8(%rbp),%rax
    a187:	48 89 85 88 f8 ff ff 	mov    %rax,-0x778(%rbp)
    a18e:	48 8d 85 28 eb ff ff 	lea    -0x14d8(%rbp),%rax
    a195:	48 89 85 90 f8 ff ff 	mov    %rax,-0x770(%rbp)
    a19c:	48 8d 85 28 eb ff ff 	lea    -0x14d8(%rbp),%rax
    a1a3:	48 89 85 98 f8 ff ff 	mov    %rax,-0x768(%rbp)
    a1aa:	48 8d 85 28 eb ff ff 	lea    -0x14d8(%rbp),%rax
    a1b1:	48 89 85 a0 f8 ff ff 	mov    %rax,-0x760(%rbp)
    a1b8:	48 8d 85 28 eb ff ff 	lea    -0x14d8(%rbp),%rax
    a1bf:	48 89 85 a8 f8 ff ff 	mov    %rax,-0x758(%rbp)
    a1c6:	48 8d 85 28 eb ff ff 	lea    -0x14d8(%rbp),%rax
    a1cd:	48 89 85 b0 f8 ff ff 	mov    %rax,-0x750(%rbp)
    a1d4:	48 8d 85 28 eb ff ff 	lea    -0x14d8(%rbp),%rax
    a1db:	48 89 85 b8 f8 ff ff 	mov    %rax,-0x748(%rbp)
    a1e2:	48 8d 85 28 eb ff ff 	lea    -0x14d8(%rbp),%rax
    a1e9:	48 89 85 c0 f8 ff ff 	mov    %rax,-0x740(%rbp)
    a1f0:	48 8d 85 28 eb ff ff 	lea    -0x14d8(%rbp),%rax
    a1f7:	48 89 85 c8 f8 ff ff 	mov    %rax,-0x738(%rbp)
    a1fe:	48 8d 85 28 eb ff ff 	lea    -0x14d8(%rbp),%rax
    a205:	48 89 85 d0 f8 ff ff 	mov    %rax,-0x730(%rbp)
    a20c:	48 8d 85 28 eb ff ff 	lea    -0x14d8(%rbp),%rax
    a213:	48 89 85 d8 f8 ff ff 	mov    %rax,-0x728(%rbp)
    a21a:	48 8d 85 28 eb ff ff 	lea    -0x14d8(%rbp),%rax
    a221:	48 89 85 e0 f8 ff ff 	mov    %rax,-0x720(%rbp)
    a228:	48 8d 85 28 eb ff ff 	lea    -0x14d8(%rbp),%rax
    a22f:	48 89 85 e8 f8 ff ff 	mov    %rax,-0x718(%rbp)
    a236:	48 8d 85 28 eb ff ff 	lea    -0x14d8(%rbp),%rax
    a23d:	48 89 85 f0 f8 ff ff 	mov    %rax,-0x710(%rbp)
    a244:	48 8d 85 28 eb ff ff 	lea    -0x14d8(%rbp),%rax
    a24b:	48 89 85 f8 f8 ff ff 	mov    %rax,-0x708(%rbp)
    a252:	48 c7 85 00 f9 ff ff 	movq   $0x0,-0x700(%rbp)
    a259:	00 00 00 00 
    a25d:	48 8d 85 28 eb ff ff 	lea    -0x14d8(%rbp),%rax
    a264:	48 89 85 08 f9 ff ff 	mov    %rax,-0x6f8(%rbp)
    a26b:	48 8d 85 28 eb ff ff 	lea    -0x14d8(%rbp),%rax
    a272:	48 89 85 10 f9 ff ff 	mov    %rax,-0x6f0(%rbp)
    a279:	48 8d 85 28 eb ff ff 	lea    -0x14d8(%rbp),%rax
    a280:	48 89 85 18 f9 ff ff 	mov    %rax,-0x6e8(%rbp)
    a287:	48 8d 85 28 eb ff ff 	lea    -0x14d8(%rbp),%rax
    a28e:	48 89 85 20 f9 ff ff 	mov    %rax,-0x6e0(%rbp)
    a295:	48 8d 85 28 eb ff ff 	lea    -0x14d8(%rbp),%rax
    a29c:	48 89 85 28 f9 ff ff 	mov    %rax,-0x6d8(%rbp)
    a2a3:	48 8d 85 28 eb ff ff 	lea    -0x14d8(%rbp),%rax
    a2aa:	48 89 85 30 f9 ff ff 	mov    %rax,-0x6d0(%rbp)
    a2b1:	48 8d 85 28 eb ff ff 	lea    -0x14d8(%rbp),%rax
    a2b8:	48 89 85 38 f9 ff ff 	mov    %rax,-0x6c8(%rbp)
    a2bf:	48 8d 85 28 eb ff ff 	lea    -0x14d8(%rbp),%rax
    a2c6:	48 89 85 40 f9 ff ff 	mov    %rax,-0x6c0(%rbp)
    a2cd:	48 8d 85 28 eb ff ff 	lea    -0x14d8(%rbp),%rax
    a2d4:	48 89 85 48 f9 ff ff 	mov    %rax,-0x6b8(%rbp)
    a2db:	48 8d 85 28 eb ff ff 	lea    -0x14d8(%rbp),%rax
    a2e2:	48 89 85 50 f9 ff ff 	mov    %rax,-0x6b0(%rbp)
    a2e9:	48 c7 85 58 f9 ff ff 	movq   $0x0,-0x6a8(%rbp)
    a2f0:	00 00 00 00 
    a2f4:	48 8d 85 28 eb ff ff 	lea    -0x14d8(%rbp),%rax
    a2fb:	48 89 85 60 f9 ff ff 	mov    %rax,-0x6a0(%rbp)
    a302:	48 c7 85 68 f9 ff ff 	movq   $0x0,-0x698(%rbp)
    a309:	00 00 00 00 
    a30d:	48 8d 85 28 eb ff ff 	lea    -0x14d8(%rbp),%rax
    a314:	48 89 85 70 f9 ff ff 	mov    %rax,-0x690(%rbp)
    a31b:	48 8d 85 28 eb ff ff 	lea    -0x14d8(%rbp),%rax
    a322:	48 89 85 78 f9 ff ff 	mov    %rax,-0x688(%rbp)
    a329:	48 8d 85 28 eb ff ff 	lea    -0x14d8(%rbp),%rax
    a330:	48 89 85 80 f9 ff ff 	mov    %rax,-0x680(%rbp)
    a337:	48 8d 85 28 eb ff ff 	lea    -0x14d8(%rbp),%rax
    a33e:	48 89 85 88 f9 ff ff 	mov    %rax,-0x678(%rbp)
    a345:	48 8d 85 28 eb ff ff 	lea    -0x14d8(%rbp),%rax
    a34c:	48 89 85 90 f9 ff ff 	mov    %rax,-0x670(%rbp)
    a353:	48 8d 85 28 eb ff ff 	lea    -0x14d8(%rbp),%rax
    a35a:	48 89 85 98 f9 ff ff 	mov    %rax,-0x668(%rbp)
    a361:	48 8d 85 28 eb ff ff 	lea    -0x14d8(%rbp),%rax
    a368:	48 89 85 a0 f9 ff ff 	mov    %rax,-0x660(%rbp)
    a36f:	48 8d 85 28 eb ff ff 	lea    -0x14d8(%rbp),%rax
    a376:	48 89 85 a8 f9 ff ff 	mov    %rax,-0x658(%rbp)
    a37d:	48 8d 85 28 eb ff ff 	lea    -0x14d8(%rbp),%rax
    a384:	48 89 85 b0 f9 ff ff 	mov    %rax,-0x650(%rbp)
    a38b:	48 8d 85 28 eb ff ff 	lea    -0x14d8(%rbp),%rax
    a392:	48 89 85 b8 f9 ff ff 	mov    %rax,-0x648(%rbp)
    a399:	48 8d 85 28 eb ff ff 	lea    -0x14d8(%rbp),%rax
    a3a0:	48 89 85 c0 f9 ff ff 	mov    %rax,-0x640(%rbp)
    a3a7:	48 c7 85 c8 f9 ff ff 	movq   $0x0,-0x638(%rbp)
    a3ae:	00 00 00 00 
    a3b2:	48 8d 85 28 eb ff ff 	lea    -0x14d8(%rbp),%rax
    a3b9:	48 89 85 d0 f9 ff ff 	mov    %rax,-0x630(%rbp)
    a3c0:	48 c7 85 d8 f9 ff ff 	movq   $0x0,-0x628(%rbp)
    a3c7:	00 00 00 00 
    a3cb:	48 8d 85 28 eb ff ff 	lea    -0x14d8(%rbp),%rax
    a3d2:	48 89 85 e0 f9 ff ff 	mov    %rax,-0x620(%rbp)
    a3d9:	48 8d 85 28 eb ff ff 	lea    -0x14d8(%rbp),%rax
    a3e0:	48 89 85 e8 f9 ff ff 	mov    %rax,-0x618(%rbp)
    a3e7:	48 8d 85 28 eb ff ff 	lea    -0x14d8(%rbp),%rax
    a3ee:	48 89 85 f0 f9 ff ff 	mov    %rax,-0x610(%rbp)
    a3f5:	48 8d 85 28 eb ff ff 	lea    -0x14d8(%rbp),%rax
    a3fc:	48 89 85 f8 f9 ff ff 	mov    %rax,-0x608(%rbp)
    a403:	48 8d 85 28 eb ff ff 	lea    -0x14d8(%rbp),%rax
    a40a:	48 89 85 00 fa ff ff 	mov    %rax,-0x600(%rbp)
    a411:	48 8d 85 28 eb ff ff 	lea    -0x14d8(%rbp),%rax
    a418:	48 89 85 08 fa ff ff 	mov    %rax,-0x5f8(%rbp)
    a41f:	48 8d 85 28 eb ff ff 	lea    -0x14d8(%rbp),%rax
    a426:	48 89 85 10 fa ff ff 	mov    %rax,-0x5f0(%rbp)
    a42d:	48 8d 85 28 eb ff ff 	lea    -0x14d8(%rbp),%rax
    a434:	48 89 85 18 fa ff ff 	mov    %rax,-0x5e8(%rbp)
    a43b:	48 8d 85 28 eb ff ff 	lea    -0x14d8(%rbp),%rax
    a442:	48 89 85 20 fa ff ff 	mov    %rax,-0x5e0(%rbp)
    a449:	48 8d 85 28 eb ff ff 	lea    -0x14d8(%rbp),%rax
    a450:	48 89 85 28 fa ff ff 	mov    %rax,-0x5d8(%rbp)
    a457:	48 8d 85 28 eb ff ff 	lea    -0x14d8(%rbp),%rax
    a45e:	48 89 85 30 fa ff ff 	mov    %rax,-0x5d0(%rbp)
    a465:	48 8d 85 28 eb ff ff 	lea    -0x14d8(%rbp),%rax
    a46c:	48 89 85 38 fa ff ff 	mov    %rax,-0x5c8(%rbp)
    a473:	48 8d 85 28 eb ff ff 	lea    -0x14d8(%rbp),%rax
    a47a:	48 89 85 40 fa ff ff 	mov    %rax,-0x5c0(%rbp)
    a481:	48 8d 85 28 eb ff ff 	lea    -0x14d8(%rbp),%rax
    a488:	48 89 85 48 fa ff ff 	mov    %rax,-0x5b8(%rbp)
    a48f:	48 8d 85 28 eb ff ff 	lea    -0x14d8(%rbp),%rax
    a496:	48 89 85 50 fa ff ff 	mov    %rax,-0x5b0(%rbp)
    a49d:	48 8d 85 28 eb ff ff 	lea    -0x14d8(%rbp),%rax
    a4a4:	48 89 85 58 fa ff ff 	mov    %rax,-0x5a8(%rbp)
    a4ab:	48 8d 85 28 eb ff ff 	lea    -0x14d8(%rbp),%rax
    a4b2:	48 89 85 60 fa ff ff 	mov    %rax,-0x5a0(%rbp)
    a4b9:	48 8d 85 28 eb ff ff 	lea    -0x14d8(%rbp),%rax
    a4c0:	48 89 85 68 fa ff ff 	mov    %rax,-0x598(%rbp)
    a4c7:	48 8d 85 28 eb ff ff 	lea    -0x14d8(%rbp),%rax
    a4ce:	48 89 85 70 fa ff ff 	mov    %rax,-0x590(%rbp)
    a4d5:	48 8d 85 28 eb ff ff 	lea    -0x14d8(%rbp),%rax
    a4dc:	48 89 85 78 fa ff ff 	mov    %rax,-0x588(%rbp)
    a4e3:	48 8d 85 28 eb ff ff 	lea    -0x14d8(%rbp),%rax
    a4ea:	48 89 85 80 fa ff ff 	mov    %rax,-0x580(%rbp)
    a4f1:	48 8d 85 28 eb ff ff 	lea    -0x14d8(%rbp),%rax
    a4f8:	48 89 85 88 fa ff ff 	mov    %rax,-0x578(%rbp)
    a4ff:	48 8d 85 28 eb ff ff 	lea    -0x14d8(%rbp),%rax
    a506:	48 89 85 90 fa ff ff 	mov    %rax,-0x570(%rbp)
    a50d:	48 8d 85 28 eb ff ff 	lea    -0x14d8(%rbp),%rax
    a514:	48 89 85 98 fa ff ff 	mov    %rax,-0x568(%rbp)
    a51b:	48 8d 85 28 eb ff ff 	lea    -0x14d8(%rbp),%rax
    a522:	48 89 85 a0 fa ff ff 	mov    %rax,-0x560(%rbp)
    a529:	48 8d 85 28 eb ff ff 	lea    -0x14d8(%rbp),%rax
    a530:	48 89 85 a8 fa ff ff 	mov    %rax,-0x558(%rbp)
    a537:	48 8d 85 28 eb ff ff 	lea    -0x14d8(%rbp),%rax
    a53e:	48 89 85 b0 fa ff ff 	mov    %rax,-0x550(%rbp)
    a545:	48 8d 85 28 eb ff ff 	lea    -0x14d8(%rbp),%rax
    a54c:	48 89 85 b8 fa ff ff 	mov    %rax,-0x548(%rbp)
    a553:	48 8d 85 28 eb ff ff 	lea    -0x14d8(%rbp),%rax
    a55a:	48 89 85 c0 fa ff ff 	mov    %rax,-0x540(%rbp)
    a561:	48 8d 85 28 eb ff ff 	lea    -0x14d8(%rbp),%rax
    a568:	48 89 85 c8 fa ff ff 	mov    %rax,-0x538(%rbp)
    a56f:	48 8d 85 28 eb ff ff 	lea    -0x14d8(%rbp),%rax
    a576:	48 89 85 d0 fa ff ff 	mov    %rax,-0x530(%rbp)
    a57d:	48 8d 85 28 eb ff ff 	lea    -0x14d8(%rbp),%rax
    a584:	48 89 85 d8 fa ff ff 	mov    %rax,-0x528(%rbp)
    a58b:	48 8d 85 28 eb ff ff 	lea    -0x14d8(%rbp),%rax
    a592:	48 89 85 e0 fa ff ff 	mov    %rax,-0x520(%rbp)
    a599:	48 8d 85 28 eb ff ff 	lea    -0x14d8(%rbp),%rax
    a5a0:	48 89 85 e8 fa ff ff 	mov    %rax,-0x518(%rbp)
    a5a7:	48 8d 85 28 eb ff ff 	lea    -0x14d8(%rbp),%rax
    a5ae:	48 89 85 f0 fa ff ff 	mov    %rax,-0x510(%rbp)
    a5b5:	48 8d 85 28 eb ff ff 	lea    -0x14d8(%rbp),%rax
    a5bc:	48 89 85 f8 fa ff ff 	mov    %rax,-0x508(%rbp)
    a5c3:	48 8d 85 28 eb ff ff 	lea    -0x14d8(%rbp),%rax
    a5ca:	48 89 85 00 fb ff ff 	mov    %rax,-0x500(%rbp)
    a5d1:	48 8d 85 28 eb ff ff 	lea    -0x14d8(%rbp),%rax
    a5d8:	48 89 85 08 fb ff ff 	mov    %rax,-0x4f8(%rbp)
    a5df:	48 8d 85 28 eb ff ff 	lea    -0x14d8(%rbp),%rax
    a5e6:	48 89 85 10 fb ff ff 	mov    %rax,-0x4f0(%rbp)
    a5ed:	48 8d 85 28 eb ff ff 	lea    -0x14d8(%rbp),%rax
    a5f4:	48 89 85 18 fb ff ff 	mov    %rax,-0x4e8(%rbp)
    a5fb:	48 8d 85 28 eb ff ff 	lea    -0x14d8(%rbp),%rax
    a602:	48 89 85 20 fb ff ff 	mov    %rax,-0x4e0(%rbp)
    a609:	48 8d 85 28 eb ff ff 	lea    -0x14d8(%rbp),%rax
    a610:	48 89 85 28 fb ff ff 	mov    %rax,-0x4d8(%rbp)
    a617:	48 8d 85 28 eb ff ff 	lea    -0x14d8(%rbp),%rax
    a61e:	48 89 85 30 fb ff ff 	mov    %rax,-0x4d0(%rbp)
    a625:	48 8d 85 28 eb ff ff 	lea    -0x14d8(%rbp),%rax
    a62c:	48 89 85 38 fb ff ff 	mov    %rax,-0x4c8(%rbp)
    a633:	48 8d 85 28 eb ff ff 	lea    -0x14d8(%rbp),%rax
    a63a:	48 89 85 40 fb ff ff 	mov    %rax,-0x4c0(%rbp)
    a641:	48 8d 85 28 eb ff ff 	lea    -0x14d8(%rbp),%rax
    a648:	48 89 85 48 fb ff ff 	mov    %rax,-0x4b8(%rbp)
    a64f:	48 8d 85 28 eb ff ff 	lea    -0x14d8(%rbp),%rax
    a656:	48 89 85 50 fb ff ff 	mov    %rax,-0x4b0(%rbp)
    a65d:	48 8d 85 28 eb ff ff 	lea    -0x14d8(%rbp),%rax
    a664:	48 89 85 58 fb ff ff 	mov    %rax,-0x4a8(%rbp)
    a66b:	48 8d 85 28 eb ff ff 	lea    -0x14d8(%rbp),%rax
    a672:	48 89 85 60 fb ff ff 	mov    %rax,-0x4a0(%rbp)
    a679:	48 8d 85 28 eb ff ff 	lea    -0x14d8(%rbp),%rax
    a680:	48 89 85 68 fb ff ff 	mov    %rax,-0x498(%rbp)
    a687:	48 8d 85 28 eb ff ff 	lea    -0x14d8(%rbp),%rax
    a68e:	48 89 85 70 fb ff ff 	mov    %rax,-0x490(%rbp)
    a695:	48 8d 85 28 eb ff ff 	lea    -0x14d8(%rbp),%rax
    a69c:	48 89 85 78 fb ff ff 	mov    %rax,-0x488(%rbp)
    a6a3:	48 8d 85 28 eb ff ff 	lea    -0x14d8(%rbp),%rax
    a6aa:	48 89 85 80 fb ff ff 	mov    %rax,-0x480(%rbp)
    a6b1:	48 8d 85 28 eb ff ff 	lea    -0x14d8(%rbp),%rax
    a6b8:	48 89 85 88 fb ff ff 	mov    %rax,-0x478(%rbp)
    a6bf:	48 8d 85 28 eb ff ff 	lea    -0x14d8(%rbp),%rax
    a6c6:	48 89 85 90 fb ff ff 	mov    %rax,-0x470(%rbp)
    a6cd:	48 8d 85 28 eb ff ff 	lea    -0x14d8(%rbp),%rax
    a6d4:	48 89 85 98 fb ff ff 	mov    %rax,-0x468(%rbp)
    a6db:	48 8d 85 28 eb ff ff 	lea    -0x14d8(%rbp),%rax
    a6e2:	48 89 85 a0 fb ff ff 	mov    %rax,-0x460(%rbp)
    a6e9:	48 8d 85 28 eb ff ff 	lea    -0x14d8(%rbp),%rax
    a6f0:	48 89 85 a8 fb ff ff 	mov    %rax,-0x458(%rbp)
    a6f7:	48 8d 85 28 eb ff ff 	lea    -0x14d8(%rbp),%rax
    a6fe:	48 89 85 b0 fb ff ff 	mov    %rax,-0x450(%rbp)
    a705:	48 8d 85 28 eb ff ff 	lea    -0x14d8(%rbp),%rax
    a70c:	48 89 85 b8 fb ff ff 	mov    %rax,-0x448(%rbp)
    a713:	48 8d 85 28 eb ff ff 	lea    -0x14d8(%rbp),%rax
    a71a:	48 89 85 c0 fb ff ff 	mov    %rax,-0x440(%rbp)
    a721:	48 8d 85 28 eb ff ff 	lea    -0x14d8(%rbp),%rax
    a728:	48 89 85 c8 fb ff ff 	mov    %rax,-0x438(%rbp)
    a72f:	48 8d 85 28 eb ff ff 	lea    -0x14d8(%rbp),%rax
    a736:	48 89 85 d0 fb ff ff 	mov    %rax,-0x430(%rbp)
    a73d:	48 8d 85 28 eb ff ff 	lea    -0x14d8(%rbp),%rax
    a744:	48 89 85 d8 fb ff ff 	mov    %rax,-0x428(%rbp)
    a74b:	48 8d 85 28 eb ff ff 	lea    -0x14d8(%rbp),%rax
    a752:	48 89 85 e0 fb ff ff 	mov    %rax,-0x420(%rbp)
    a759:	48 c7 85 e8 fb ff ff 	movq   $0x0,-0x418(%rbp)
    a760:	00 00 00 00 
    a764:	48 8d 85 28 eb ff ff 	lea    -0x14d8(%rbp),%rax
    a76b:	48 89 85 f0 fb ff ff 	mov    %rax,-0x410(%rbp)
    a772:	48 8d 85 28 eb ff ff 	lea    -0x14d8(%rbp),%rax
    a779:	48 89 85 f8 fb ff ff 	mov    %rax,-0x408(%rbp)
    a780:	48 8d 85 28 eb ff ff 	lea    -0x14d8(%rbp),%rax
    a787:	48 89 85 00 fc ff ff 	mov    %rax,-0x400(%rbp)
    a78e:	48 c7 85 08 fc ff ff 	movq   $0x0,-0x3f8(%rbp)
    a795:	00 00 00 00 
    a799:	48 8d 85 28 eb ff ff 	lea    -0x14d8(%rbp),%rax
    a7a0:	48 89 85 10 fc ff ff 	mov    %rax,-0x3f0(%rbp)
    a7a7:	48 8d 85 28 eb ff ff 	lea    -0x14d8(%rbp),%rax
    a7ae:	48 89 85 18 fc ff ff 	mov    %rax,-0x3e8(%rbp)
    a7b5:	48 c7 85 20 fc ff ff 	movq   $0x0,-0x3e0(%rbp)
    a7bc:	00 00 00 00 
    a7c0:	48 8d 85 28 eb ff ff 	lea    -0x14d8(%rbp),%rax
    a7c7:	48 89 85 28 fc ff ff 	mov    %rax,-0x3d8(%rbp)
    a7ce:	48 8d 85 28 eb ff ff 	lea    -0x14d8(%rbp),%rax
    a7d5:	48 89 85 30 fc ff ff 	mov    %rax,-0x3d0(%rbp)
    a7dc:	48 8d 85 28 eb ff ff 	lea    -0x14d8(%rbp),%rax
    a7e3:	48 89 85 38 fc ff ff 	mov    %rax,-0x3c8(%rbp)
    a7ea:	48 8d 85 28 eb ff ff 	lea    -0x14d8(%rbp),%rax
    a7f1:	48 89 85 40 fc ff ff 	mov    %rax,-0x3c0(%rbp)
    a7f8:	48 8d 85 28 eb ff ff 	lea    -0x14d8(%rbp),%rax
    a7ff:	48 89 85 48 fc ff ff 	mov    %rax,-0x3b8(%rbp)
    a806:	48 8d 85 28 eb ff ff 	lea    -0x14d8(%rbp),%rax
    a80d:	48 89 85 50 fc ff ff 	mov    %rax,-0x3b0(%rbp)
    a814:	48 8d 85 28 eb ff ff 	lea    -0x14d8(%rbp),%rax
    a81b:	48 89 85 58 fc ff ff 	mov    %rax,-0x3a8(%rbp)
    a822:	48 8d 85 28 eb ff ff 	lea    -0x14d8(%rbp),%rax
    a829:	48 89 85 60 fc ff ff 	mov    %rax,-0x3a0(%rbp)
    a830:	48 8d 85 28 eb ff ff 	lea    -0x14d8(%rbp),%rax
    a837:	48 89 85 68 fc ff ff 	mov    %rax,-0x398(%rbp)
    a83e:	48 8d 85 28 eb ff ff 	lea    -0x14d8(%rbp),%rax
    a845:	48 89 85 70 fc ff ff 	mov    %rax,-0x390(%rbp)
    a84c:	48 8d 85 28 eb ff ff 	lea    -0x14d8(%rbp),%rax
    a853:	48 89 85 78 fc ff ff 	mov    %rax,-0x388(%rbp)
    a85a:	48 8d 85 28 eb ff ff 	lea    -0x14d8(%rbp),%rax
    a861:	48 89 85 80 fc ff ff 	mov    %rax,-0x380(%rbp)
    a868:	48 8d 85 28 eb ff ff 	lea    -0x14d8(%rbp),%rax
    a86f:	48 89 85 88 fc ff ff 	mov    %rax,-0x378(%rbp)
    a876:	48 c7 85 90 fc ff ff 	movq   $0x0,-0x370(%rbp)
    a87d:	00 00 00 00 
    a881:	48 8d 85 28 eb ff ff 	lea    -0x14d8(%rbp),%rax
    a888:	48 89 85 98 fc ff ff 	mov    %rax,-0x368(%rbp)
    a88f:	48 8d 85 28 eb ff ff 	lea    -0x14d8(%rbp),%rax
    a896:	48 89 85 a0 fc ff ff 	mov    %rax,-0x360(%rbp)
    a89d:	48 8d 85 28 eb ff ff 	lea    -0x14d8(%rbp),%rax
    a8a4:	48 89 85 a8 fc ff ff 	mov    %rax,-0x358(%rbp)
    a8ab:	48 8d 85 28 eb ff ff 	lea    -0x14d8(%rbp),%rax
    a8b2:	48 89 85 b0 fc ff ff 	mov    %rax,-0x350(%rbp)
    a8b9:	48 8d 85 28 eb ff ff 	lea    -0x14d8(%rbp),%rax
    a8c0:	48 89 85 b8 fc ff ff 	mov    %rax,-0x348(%rbp)
    a8c7:	48 8d 85 28 eb ff ff 	lea    -0x14d8(%rbp),%rax
    a8ce:	48 89 85 c0 fc ff ff 	mov    %rax,-0x340(%rbp)
    a8d5:	48 8d 85 28 eb ff ff 	lea    -0x14d8(%rbp),%rax
    a8dc:	48 89 85 c8 fc ff ff 	mov    %rax,-0x338(%rbp)
    a8e3:	48 8d 85 28 eb ff ff 	lea    -0x14d8(%rbp),%rax
    a8ea:	48 89 85 d0 fc ff ff 	mov    %rax,-0x330(%rbp)
    a8f1:	48 8d 85 28 eb ff ff 	lea    -0x14d8(%rbp),%rax
    a8f8:	48 89 85 d8 fc ff ff 	mov    %rax,-0x328(%rbp)
    a8ff:	48 8d 85 28 eb ff ff 	lea    -0x14d8(%rbp),%rax
    a906:	48 89 85 e0 fc ff ff 	mov    %rax,-0x320(%rbp)
    a90d:	48 8d 85 28 eb ff ff 	lea    -0x14d8(%rbp),%rax
    a914:	48 89 85 e8 fc ff ff 	mov    %rax,-0x318(%rbp)
    a91b:	48 8d 85 28 eb ff ff 	lea    -0x14d8(%rbp),%rax
    a922:	48 89 85 f0 fc ff ff 	mov    %rax,-0x310(%rbp)
    a929:	48 8d 85 28 eb ff ff 	lea    -0x14d8(%rbp),%rax
    a930:	48 89 85 f8 fc ff ff 	mov    %rax,-0x308(%rbp)
    a937:	48 c7 85 00 fd ff ff 	movq   $0x0,-0x300(%rbp)
    a93e:	00 00 00 00 
    a942:	48 8d 85 28 eb ff ff 	lea    -0x14d8(%rbp),%rax
    a949:	48 89 85 08 fd ff ff 	mov    %rax,-0x2f8(%rbp)
    a950:	48 8d 85 28 eb ff ff 	lea    -0x14d8(%rbp),%rax
    a957:	48 89 85 10 fd ff ff 	mov    %rax,-0x2f0(%rbp)
    a95e:	48 8d 85 28 eb ff ff 	lea    -0x14d8(%rbp),%rax
    a965:	48 89 85 18 fd ff ff 	mov    %rax,-0x2e8(%rbp)
    a96c:	48 8d 85 28 eb ff ff 	lea    -0x14d8(%rbp),%rax
    a973:	48 89 85 20 fd ff ff 	mov    %rax,-0x2e0(%rbp)
    a97a:	48 8d 85 28 eb ff ff 	lea    -0x14d8(%rbp),%rax
    a981:	48 89 85 28 fd ff ff 	mov    %rax,-0x2d8(%rbp)
    a988:	48 8d 85 28 eb ff ff 	lea    -0x14d8(%rbp),%rax
    a98f:	48 89 85 30 fd ff ff 	mov    %rax,-0x2d0(%rbp)
    a996:	48 8d 85 28 eb ff ff 	lea    -0x14d8(%rbp),%rax
    a99d:	48 89 85 38 fd ff ff 	mov    %rax,-0x2c8(%rbp)
    a9a4:	48 8d 85 28 eb ff ff 	lea    -0x14d8(%rbp),%rax
    a9ab:	48 89 85 40 fd ff ff 	mov    %rax,-0x2c0(%rbp)
    a9b2:	48 8d 85 28 eb ff ff 	lea    -0x14d8(%rbp),%rax
    a9b9:	48 89 85 48 fd ff ff 	mov    %rax,-0x2b8(%rbp)
    a9c0:	48 8d 85 28 eb ff ff 	lea    -0x14d8(%rbp),%rax
    a9c7:	48 89 85 50 fd ff ff 	mov    %rax,-0x2b0(%rbp)
    a9ce:	48 8d 85 28 eb ff ff 	lea    -0x14d8(%rbp),%rax
    a9d5:	48 89 85 58 fd ff ff 	mov    %rax,-0x2a8(%rbp)
    a9dc:	48 8d 85 28 eb ff ff 	lea    -0x14d8(%rbp),%rax
    a9e3:	48 89 85 60 fd ff ff 	mov    %rax,-0x2a0(%rbp)
    a9ea:	48 8d 85 28 eb ff ff 	lea    -0x14d8(%rbp),%rax
    a9f1:	48 89 85 68 fd ff ff 	mov    %rax,-0x298(%rbp)
    a9f8:	48 8d 85 28 eb ff ff 	lea    -0x14d8(%rbp),%rax
    a9ff:	48 89 85 70 fd ff ff 	mov    %rax,-0x290(%rbp)
    aa06:	48 8d 85 28 eb ff ff 	lea    -0x14d8(%rbp),%rax
    aa0d:	48 89 85 78 fd ff ff 	mov    %rax,-0x288(%rbp)
    aa14:	48 8d 85 28 eb ff ff 	lea    -0x14d8(%rbp),%rax
    aa1b:	48 89 85 80 fd ff ff 	mov    %rax,-0x280(%rbp)
    aa22:	48 8d 85 28 eb ff ff 	lea    -0x14d8(%rbp),%rax
    aa29:	48 89 85 88 fd ff ff 	mov    %rax,-0x278(%rbp)
    aa30:	48 8d 85 28 eb ff ff 	lea    -0x14d8(%rbp),%rax
    aa37:	48 89 85 90 fd ff ff 	mov    %rax,-0x270(%rbp)
    aa3e:	48 8d 85 28 eb ff ff 	lea    -0x14d8(%rbp),%rax
    aa45:	48 89 85 98 fd ff ff 	mov    %rax,-0x268(%rbp)
    aa4c:	48 8d 85 28 eb ff ff 	lea    -0x14d8(%rbp),%rax
    aa53:	48 89 85 a0 fd ff ff 	mov    %rax,-0x260(%rbp)
    aa5a:	48 8d 85 28 eb ff ff 	lea    -0x14d8(%rbp),%rax
    aa61:	48 89 85 a8 fd ff ff 	mov    %rax,-0x258(%rbp)
    aa68:	48 8d 85 28 eb ff ff 	lea    -0x14d8(%rbp),%rax
    aa6f:	48 89 85 b0 fd ff ff 	mov    %rax,-0x250(%rbp)
    aa76:	48 8d 85 28 eb ff ff 	lea    -0x14d8(%rbp),%rax
    aa7d:	48 89 85 b8 fd ff ff 	mov    %rax,-0x248(%rbp)
    aa84:	48 8d 85 28 eb ff ff 	lea    -0x14d8(%rbp),%rax
    aa8b:	48 89 85 c0 fd ff ff 	mov    %rax,-0x240(%rbp)
    aa92:	48 8d 85 28 eb ff ff 	lea    -0x14d8(%rbp),%rax
    aa99:	48 89 85 c8 fd ff ff 	mov    %rax,-0x238(%rbp)
    aaa0:	48 8d 85 28 eb ff ff 	lea    -0x14d8(%rbp),%rax
    aaa7:	48 89 85 d0 fd ff ff 	mov    %rax,-0x230(%rbp)
    aaae:	48 8d 85 28 eb ff ff 	lea    -0x14d8(%rbp),%rax
    aab5:	48 89 85 d8 fd ff ff 	mov    %rax,-0x228(%rbp)
    aabc:	48 8d 85 28 eb ff ff 	lea    -0x14d8(%rbp),%rax
    aac3:	48 89 85 e0 fd ff ff 	mov    %rax,-0x220(%rbp)
    aaca:	48 8d 85 28 eb ff ff 	lea    -0x14d8(%rbp),%rax
    aad1:	48 89 85 e8 fd ff ff 	mov    %rax,-0x218(%rbp)
    aad8:	48 8d 85 28 eb ff ff 	lea    -0x14d8(%rbp),%rax
    aadf:	48 89 85 f0 fd ff ff 	mov    %rax,-0x210(%rbp)
    aae6:	48 8d 85 28 eb ff ff 	lea    -0x14d8(%rbp),%rax
    aaed:	48 89 85 f8 fd ff ff 	mov    %rax,-0x208(%rbp)
    aaf4:	48 8d 85 28 eb ff ff 	lea    -0x14d8(%rbp),%rax
    aafb:	48 89 85 00 fe ff ff 	mov    %rax,-0x200(%rbp)
    ab02:	48 8d 85 28 eb ff ff 	lea    -0x14d8(%rbp),%rax
    ab09:	48 89 85 08 fe ff ff 	mov    %rax,-0x1f8(%rbp)
    ab10:	48 8d 85 28 eb ff ff 	lea    -0x14d8(%rbp),%rax
    ab17:	48 89 85 10 fe ff ff 	mov    %rax,-0x1f0(%rbp)
    ab1e:	48 8d 85 28 eb ff ff 	lea    -0x14d8(%rbp),%rax
    ab25:	48 89 85 18 fe ff ff 	mov    %rax,-0x1e8(%rbp)
    ab2c:	48 8d 85 28 eb ff ff 	lea    -0x14d8(%rbp),%rax
    ab33:	48 89 85 20 fe ff ff 	mov    %rax,-0x1e0(%rbp)
    ab3a:	48 8d 85 28 eb ff ff 	lea    -0x14d8(%rbp),%rax
    ab41:	48 89 85 28 fe ff ff 	mov    %rax,-0x1d8(%rbp)
    ab48:	48 8d 85 28 eb ff ff 	lea    -0x14d8(%rbp),%rax
    ab4f:	48 89 85 30 fe ff ff 	mov    %rax,-0x1d0(%rbp)
    ab56:	48 8d 85 28 eb ff ff 	lea    -0x14d8(%rbp),%rax
    ab5d:	48 89 85 38 fe ff ff 	mov    %rax,-0x1c8(%rbp)
    ab64:	48 8d 85 28 eb ff ff 	lea    -0x14d8(%rbp),%rax
    ab6b:	48 89 85 40 fe ff ff 	mov    %rax,-0x1c0(%rbp)
    ab72:	48 c7 85 48 fe ff ff 	movq   $0x0,-0x1b8(%rbp)
    ab79:	00 00 00 00 
    ab7d:	48 8d 85 28 eb ff ff 	lea    -0x14d8(%rbp),%rax
    ab84:	48 89 85 50 fe ff ff 	mov    %rax,-0x1b0(%rbp)
    ab8b:	48 8d 85 28 eb ff ff 	lea    -0x14d8(%rbp),%rax
    ab92:	48 89 85 58 fe ff ff 	mov    %rax,-0x1a8(%rbp)
    ab99:	48 8d 85 28 eb ff ff 	lea    -0x14d8(%rbp),%rax
    aba0:	48 89 85 60 fe ff ff 	mov    %rax,-0x1a0(%rbp)
    aba7:	48 c7 85 68 fe ff ff 	movq   $0x0,-0x198(%rbp)
    abae:	00 00 00 00 
    abb2:	48 8d 85 28 eb ff ff 	lea    -0x14d8(%rbp),%rax
    abb9:	48 89 85 70 fe ff ff 	mov    %rax,-0x190(%rbp)
    abc0:	48 8d 85 28 eb ff ff 	lea    -0x14d8(%rbp),%rax
    abc7:	48 89 85 78 fe ff ff 	mov    %rax,-0x188(%rbp)
    abce:	48 c7 85 80 fe ff ff 	movq   $0x0,-0x180(%rbp)
    abd5:	00 00 00 00 
    abd9:	48 8d 85 28 eb ff ff 	lea    -0x14d8(%rbp),%rax
    abe0:	48 89 85 88 fe ff ff 	mov    %rax,-0x178(%rbp)
    abe7:	48 8d 85 28 eb ff ff 	lea    -0x14d8(%rbp),%rax
    abee:	48 89 85 90 fe ff ff 	mov    %rax,-0x170(%rbp)
    abf5:	48 8d 85 28 eb ff ff 	lea    -0x14d8(%rbp),%rax
    abfc:	48 89 85 98 fe ff ff 	mov    %rax,-0x168(%rbp)
    ac03:	48 8d 85 28 eb ff ff 	lea    -0x14d8(%rbp),%rax
    ac0a:	48 89 85 a0 fe ff ff 	mov    %rax,-0x160(%rbp)
    ac11:	48 8d 85 28 eb ff ff 	lea    -0x14d8(%rbp),%rax
    ac18:	48 89 85 a8 fe ff ff 	mov    %rax,-0x158(%rbp)
    ac1f:	48 8d 85 28 eb ff ff 	lea    -0x14d8(%rbp),%rax
    ac26:	48 89 85 b0 fe ff ff 	mov    %rax,-0x150(%rbp)
    ac2d:	48 8d 85 28 eb ff ff 	lea    -0x14d8(%rbp),%rax
    ac34:	48 89 85 b8 fe ff ff 	mov    %rax,-0x148(%rbp)
    ac3b:	48 8d 85 28 eb ff ff 	lea    -0x14d8(%rbp),%rax
    ac42:	48 89 85 c0 fe ff ff 	mov    %rax,-0x140(%rbp)
    ac49:	48 8d 85 28 eb ff ff 	lea    -0x14d8(%rbp),%rax
    ac50:	48 89 85 c8 fe ff ff 	mov    %rax,-0x138(%rbp)
    ac57:	48 8d 85 28 eb ff ff 	lea    -0x14d8(%rbp),%rax
    ac5e:	48 89 85 d0 fe ff ff 	mov    %rax,-0x130(%rbp)
    ac65:	48 8d 85 28 eb ff ff 	lea    -0x14d8(%rbp),%rax
    ac6c:	48 89 85 d8 fe ff ff 	mov    %rax,-0x128(%rbp)
    ac73:	48 8d 85 28 eb ff ff 	lea    -0x14d8(%rbp),%rax
    ac7a:	48 89 85 e0 fe ff ff 	mov    %rax,-0x120(%rbp)
    ac81:	48 8d 85 28 eb ff ff 	lea    -0x14d8(%rbp),%rax
    ac88:	48 89 85 e8 fe ff ff 	mov    %rax,-0x118(%rbp)
    ac8f:	48 c7 85 f0 fe ff ff 	movq   $0x0,-0x110(%rbp)
    ac96:	00 00 00 00 
    ac9a:	48 8d 85 28 eb ff ff 	lea    -0x14d8(%rbp),%rax
    aca1:	48 89 85 f8 fe ff ff 	mov    %rax,-0x108(%rbp)
    aca8:	48 8d 85 28 eb ff ff 	lea    -0x14d8(%rbp),%rax
    acaf:	48 89 85 00 ff ff ff 	mov    %rax,-0x100(%rbp)
    acb6:	48 8d 85 28 eb ff ff 	lea    -0x14d8(%rbp),%rax
    acbd:	48 89 85 08 ff ff ff 	mov    %rax,-0xf8(%rbp)
    acc4:	48 8d 85 28 eb ff ff 	lea    -0x14d8(%rbp),%rax
    accb:	48 89 85 10 ff ff ff 	mov    %rax,-0xf0(%rbp)
    acd2:	48 8d 85 28 eb ff ff 	lea    -0x14d8(%rbp),%rax
    acd9:	48 89 85 18 ff ff ff 	mov    %rax,-0xe8(%rbp)
    ace0:	48 8d 85 28 eb ff ff 	lea    -0x14d8(%rbp),%rax
    ace7:	48 89 85 20 ff ff ff 	mov    %rax,-0xe0(%rbp)
    acee:	48 8d 85 28 eb ff ff 	lea    -0x14d8(%rbp),%rax
    acf5:	48 89 85 28 ff ff ff 	mov    %rax,-0xd8(%rbp)
    acfc:	48 8d 85 28 eb ff ff 	lea    -0x14d8(%rbp),%rax
    ad03:	48 89 85 30 ff ff ff 	mov    %rax,-0xd0(%rbp)
    ad0a:	48 8d 85 28 eb ff ff 	lea    -0x14d8(%rbp),%rax
    ad11:	48 89 85 38 ff ff ff 	mov    %rax,-0xc8(%rbp)
    ad18:	48 8d 85 28 eb ff ff 	lea    -0x14d8(%rbp),%rax
    ad1f:	48 89 85 40 ff ff ff 	mov    %rax,-0xc0(%rbp)
    ad26:	48 8d 85 28 eb ff ff 	lea    -0x14d8(%rbp),%rax
    ad2d:	48 89 85 48 ff ff ff 	mov    %rax,-0xb8(%rbp)
    ad34:	48 8d 85 28 eb ff ff 	lea    -0x14d8(%rbp),%rax
    ad3b:	48 89 85 50 ff ff ff 	mov    %rax,-0xb0(%rbp)
    ad42:	48 8d 85 28 eb ff ff 	lea    -0x14d8(%rbp),%rax
    ad49:	48 89 85 58 ff ff ff 	mov    %rax,-0xa8(%rbp)
    ad50:	48 c7 85 60 ff ff ff 	movq   $0x0,-0xa0(%rbp)
    ad57:	00 00 00 00 
    ad5b:	48 8d 85 28 eb ff ff 	lea    -0x14d8(%rbp),%rax
    ad62:	48 89 85 68 ff ff ff 	mov    %rax,-0x98(%rbp)
    ad69:	48 8d 85 28 eb ff ff 	lea    -0x14d8(%rbp),%rax
    ad70:	48 89 85 70 ff ff ff 	mov    %rax,-0x90(%rbp)
    ad77:	48 8d 85 28 eb ff ff 	lea    -0x14d8(%rbp),%rax
    ad7e:	48 89 85 78 ff ff ff 	mov    %rax,-0x88(%rbp)
    ad85:	48 8d 85 28 eb ff ff 	lea    -0x14d8(%rbp),%rax
    ad8c:	48 89 45 80          	mov    %rax,-0x80(%rbp)
    ad90:	48 8d 85 28 eb ff ff 	lea    -0x14d8(%rbp),%rax
    ad97:	48 89 45 88          	mov    %rax,-0x78(%rbp)
    ad9b:	48 8d 85 28 eb ff ff 	lea    -0x14d8(%rbp),%rax
    ada2:	48 89 45 90          	mov    %rax,-0x70(%rbp)
    ada6:	48 8d 85 28 eb ff ff 	lea    -0x14d8(%rbp),%rax
    adad:	48 89 45 98          	mov    %rax,-0x68(%rbp)
    adb1:	48 8d 85 28 eb ff ff 	lea    -0x14d8(%rbp),%rax
    adb8:	48 89 45 a0          	mov    %rax,-0x60(%rbp)
    adbc:	48 8d 85 28 eb ff ff 	lea    -0x14d8(%rbp),%rax
    adc3:	48 89 45 a8          	mov    %rax,-0x58(%rbp)
    adc7:	48 8d 85 28 eb ff ff 	lea    -0x14d8(%rbp),%rax
    adce:	48 89 45 b0          	mov    %rax,-0x50(%rbp)
    add2:	48 8d 85 28 eb ff ff 	lea    -0x14d8(%rbp),%rax
    add9:	48 89 45 b8          	mov    %rax,-0x48(%rbp)
    addd:	48 8d 85 28 eb ff ff 	lea    -0x14d8(%rbp),%rax
    ade4:	48 89 45 c0          	mov    %rax,-0x40(%rbp)
    ade8:	48 8d 85 28 eb ff ff 	lea    -0x14d8(%rbp),%rax
    adef:	48 89 45 c8          	mov    %rax,-0x38(%rbp)
    adf3:	48 8d 85 28 eb ff ff 	lea    -0x14d8(%rbp),%rax
    adfa:	48 89 45 d0          	mov    %rax,-0x30(%rbp)
    adfe:	48 8d 85 28 eb ff ff 	lea    -0x14d8(%rbp),%rax
    ae05:	48 89 45 d8          	mov    %rax,-0x28(%rbp)
    ae09:	48 8d 85 a0 ef ff ff 	lea    -0x1060(%rbp),%rax
    ae10:	48 8d 15 89 36 01 00 	lea    0x13689(%rip),%rdx        # 1e4a0 <g_2388+0xc>
    ae17:	b9 3c 00 00 00       	mov    $0x3c,%ecx
    ae1c:	48 89 c7             	mov    %rax,%rdi
    ae1f:	48 89 d6             	mov    %rdx,%rsi
    ae22:	f3 48 a5             	rep movsq %ds:(%rsi),%es:(%rdi)
    ae25:	48 8d 05 44 4e 01 00 	lea    0x14e44(%rip),%rax        # 1fc70 <g_562+0x70>
    ae2c:	48 89 85 30 eb ff ff 	mov    %rax,-0x14d0(%rbp)
    ae33:	c7 85 e8 ea ff ff ff 	movl   $0xffffffff,-0x1518(%rbp)
    ae3a:	ff ff ff 
    ae3d:	c7 85 ec ea ff ff a1 	movl   $0xd3da8aa1,-0x1514(%rbp)
    ae44:	8a da d3 
    ae47:	48 8d 05 3a 54 01 00 	lea    0x1543a(%rip),%rax        # 20288 <g_968+0x28>
    ae4e:	48 89 85 38 eb ff ff 	mov    %rax,-0x14c8(%rbp)
    ae55:	48 8d 85 38 eb ff ff 	lea    -0x14c8(%rbp),%rax
    ae5c:	48 89 85 58 eb ff ff 	mov    %rax,-0x14a8(%rbp)
    ae63:	48 8d 05 76 4d 01 00 	lea    0x14d76(%rip),%rax        # 1fbe0 <g_209>
    ae6a:	48 89 85 60 eb ff ff 	mov    %rax,-0x14a0(%rbp)
    ae71:	48 c7 85 68 eb ff ff 	movq   $0x3,-0x1498(%rbp)
    ae78:	03 00 00 00 
    ae7c:	c6 85 c2 ea ff ff fc 	movb   $0xfc,-0x153e(%rbp)
    ae83:	66 c7 85 b0 ec ff ff 	movw   $0x9b9f,-0x1350(%rbp)
    ae8a:	9f 9b 
    ae8c:	66 c7 85 b2 ec ff ff 	movw   $0x8614,-0x134e(%rbp)
    ae93:	14 86 
    ae95:	66 c7 85 b4 ec ff ff 	movw   $0x9b9f,-0x134c(%rbp)
    ae9c:	9f 9b 
    ae9e:	66 c7 85 b6 ec ff ff 	movw   $0x1,-0x134a(%rbp)
    aea5:	01 00 
    aea7:	66 c7 85 b8 ec ff ff 	movw   $0x596d,-0x1348(%rbp)
    aeae:	6d 59 
    aeb0:	66 c7 85 ba ec ff ff 	movw   $0x1,-0x1346(%rbp)
    aeb7:	01 00 
    aeb9:	66 c7 85 bc ec ff ff 	movw   $0x9b9f,-0x1344(%rbp)
    aec0:	9f 9b 
    aec2:	66 c7 85 be ec ff ff 	movw   $0x8614,-0x1342(%rbp)
    aec9:	14 86 
    aecb:	66 c7 85 c0 ec ff ff 	movw   $0x9b9f,-0x1340(%rbp)
    aed2:	9f 9b 
    aed4:	66 c7 85 c2 ec ff ff 	movw   $0x1,-0x133e(%rbp)
    aedb:	01 00 
    aedd:	66 c7 85 c4 ec ff ff 	movw   $0x596d,-0x133c(%rbp)
    aee4:	6d 59 
    aee6:	66 c7 85 c6 ec ff ff 	movw   $0x1,-0x133a(%rbp)
    aeed:	01 00 
    aeef:	66 c7 85 c8 ec ff ff 	movw   $0x9b9f,-0x1338(%rbp)
    aef6:	9f 9b 
    aef8:	66 c7 85 ca ec ff ff 	movw   $0x8614,-0x1336(%rbp)
    aeff:	14 86 
    af01:	66 c7 85 cc ec ff ff 	movw   $0x9b9f,-0x1334(%rbp)
    af08:	9f 9b 
    af0a:	66 c7 85 ce ec ff ff 	movw   $0x1,-0x1332(%rbp)
    af11:	01 00 
    af13:	66 c7 85 d0 ec ff ff 	movw   $0x596d,-0x1330(%rbp)
    af1a:	6d 59 
    af1c:	66 c7 85 d2 ec ff ff 	movw   $0x1,-0x132e(%rbp)
    af23:	01 00 
    af25:	66 c7 85 d4 ec ff ff 	movw   $0x9b9f,-0x132c(%rbp)
    af2c:	9f 9b 
    af2e:	66 c7 85 d6 ec ff ff 	movw   $0x8614,-0x132a(%rbp)
    af35:	14 86 
    af37:	66 c7 85 d8 ec ff ff 	movw   $0x9b9f,-0x1328(%rbp)
    af3e:	9f 9b 
    af40:	66 c7 85 da ec ff ff 	movw   $0x1,-0x1326(%rbp)
    af47:	01 00 
    af49:	66 c7 85 dc ec ff ff 	movw   $0x596d,-0x1324(%rbp)
    af50:	6d 59 
    af52:	66 c7 85 de ec ff ff 	movw   $0x1,-0x1322(%rbp)
    af59:	01 00 
    af5b:	66 c7 85 e0 ec ff ff 	movw   $0x9b9f,-0x1320(%rbp)
    af62:	9f 9b 
    af64:	66 c7 85 e2 ec ff ff 	movw   $0x8614,-0x131e(%rbp)
    af6b:	14 86 
    af6d:	66 c7 85 e4 ec ff ff 	movw   $0x9b9f,-0x131c(%rbp)
    af74:	9f 9b 
    af76:	66 c7 85 e6 ec ff ff 	movw   $0x1,-0x131a(%rbp)
    af7d:	01 00 
    af7f:	66 c7 85 e8 ec ff ff 	movw   $0x596d,-0x1318(%rbp)
    af86:	6d 59 
    af88:	66 c7 85 ea ec ff ff 	movw   $0x1,-0x1316(%rbp)
    af8f:	01 00 
    af91:	c7 85 f0 ea ff ff d0 	movl   $0x577af4d0,-0x1510(%rbp)
    af98:	f4 7a 57 
    af9b:	c6 85 c3 ea ff ff 39 	movb   $0x39,-0x153d(%rbp)
    afa2:	c7 85 f4 ea ff ff 54 	movl   $0xeb17b554,-0x150c(%rbp)
    afa9:	b5 17 eb 
    afac:	c6 85 c4 ea ff ff 45 	movb   $0x45,-0x153c(%rbp)
    afb3:	48 c7 85 70 eb ff ff 	movq   $0x0,-0x1490(%rbp)
    afba:	00 00 00 00 
    afbe:	c7 85 f8 ea ff ff fc 	movl   $0xfffffffc,-0x1508(%rbp)
    afc5:	ff ff ff 
    afc8:	48 b8 78 47 60 5a ce 	movabs $0xbcac6dce5a604778,%rax
    afcf:	6d ac bc 
    afd2:	48 89 85 78 eb ff ff 	mov    %rax,-0x1488(%rbp)
    afd9:	66 c7 85 cc ea ff ff 	movw   $0xee11,-0x1534(%rbp)
    afe0:	11 ee 
    afe2:	48 8d 05 c7 5b 01 00 	lea    0x15bc7(%rip),%rax        # 20bb0 <g_1842>
    afe9:	48 89 85 80 eb ff ff 	mov    %rax,-0x1480(%rbp)
    aff0:	c7 85 fc ea ff ff 4d 	movl   $0x3a7054d,-0x1504(%rbp)
    aff7:	05 a7 03 
    affa:	c6 85 c5 ea ff ff 06 	movb   $0x6,-0x153b(%rbp)
    b001:	48 c7 85 88 eb ff ff 	movq   $0x0,-0x1478(%rbp)
    b008:	00 00 00 00 
    b00c:	c6 85 c6 ea ff ff 01 	movb   $0x1,-0x153a(%rbp)
    b013:	c6 85 c7 ea ff ff 08 	movb   $0x8,-0x1539(%rbp)
    b01a:	c7 85 00 eb ff ff be 	movl   $0x2c0ce9be,-0x1500(%rbp)
    b021:	e9 0c 2c 
    b024:	48 c7 85 40 eb ff ff 	movq   $0x0,-0x14c0(%rbp)
    b02b:	00 00 00 00 
    b02f:	48 8d 85 40 eb ff ff 	lea    -0x14c0(%rbp),%rax
    b036:	48 89 85 90 eb ff ff 	mov    %rax,-0x1470(%rbp)
    b03d:	48 8d 05 1c 5b 01 00 	lea    0x15b1c(%rip),%rax        # 20b60 <g_1666>
    b044:	48 89 85 98 eb ff ff 	mov    %rax,-0x1468(%rbp)
    b04b:	66 c7 85 ce ea ff ff 	movw   $0x1,-0x1532(%rbp)
    b052:	01 00 
    b054:	c7 85 d8 ea ff ff 00 	movl   $0x0,-0x1528(%rbp)
    b05b:	00 00 00 
    b05e:	eb 1a                	jmp    b07a <func_1+0x18c5>
    b060:	8b 85 d8 ea ff ff    	mov    -0x1528(%rbp),%eax
    b066:	48 98                	cltq   
    b068:	c7 84 85 40 ec ff ff 	movl   $0x9ef72832,-0x13c0(%rbp,%rax,4)
    b06f:	32 28 f7 9e 
    b073:	83 85 d8 ea ff ff 01 	addl   $0x1,-0x1528(%rbp)
    b07a:	83 bd d8 ea ff ff 03 	cmpl   $0x3,-0x1528(%rbp)
    b081:	7e dd                	jle    b060 <func_1+0x18ab>
    b083:	c7 85 d8 ea ff ff 00 	movl   $0x0,-0x1528(%rbp)
    b08a:	00 00 00 
    b08d:	eb 21                	jmp    b0b0 <func_1+0x18fb>
    b08f:	8b 85 d8 ea ff ff    	mov    -0x1528(%rbp),%eax
    b095:	48 98                	cltq   
    b097:	48 bf 56 2e 24 93 2f 	movabs $0x62143e2f93242e56,%rdi
    b09e:	3e 14 62 
    b0a1:	48 89 bc c5 50 ec ff 	mov    %rdi,-0x13b0(%rbp,%rax,8)
    b0a8:	ff 
    b0a9:	83 85 d8 ea ff ff 01 	addl   $0x1,-0x1528(%rbp)
    b0b0:	83 bd d8 ea ff ff 03 	cmpl   $0x3,-0x1528(%rbp)
    b0b7:	7e d6                	jle    b08f <func_1+0x18da>
    b0b9:	c7 05 69 2f 01 00 fa 	movl   $0xfffffffa,0x12f69(%rip)        # 1e02c <g_4>
    b0c0:	ff ff ff 
    b0c3:	e9 8a 02 00 00       	jmpq   b352 <func_1+0x1b9d>
    b0c8:	48 8d 05 85 df 00 00 	lea    0xdf85(%rip),%rax        # 19054 <g_24>
    b0cf:	48 89 85 50 eb ff ff 	mov    %rax,-0x14b0(%rbp)
    b0d6:	48 8d 85 50 eb ff ff 	lea    -0x14b0(%rbp),%rax
    b0dd:	48 89 85 e8 eb ff ff 	mov    %rax,-0x1418(%rbp)
    b0e4:	48 8d 05 45 2f 01 00 	lea    0x12f45(%rip),%rax        # 1e030 <g_9>
    b0eb:	48 89 85 f0 eb ff ff 	mov    %rax,-0x1410(%rbp)
    b0f2:	48 8d 05 3b 2f 01 00 	lea    0x12f3b(%rip),%rax        # 1e034 <g_31>
    b0f9:	48 89 85 f8 eb ff ff 	mov    %rax,-0x1408(%rbp)
    b100:	48 8d 05 d1 4a 01 00 	lea    0x14ad1(%rip),%rax        # 1fbd8 <g_186>
    b107:	48 89 85 00 ec ff ff 	mov    %rax,-0x1400(%rbp)
    b10e:	c7 85 10 eb ff ff ff 	movl   $0xffffffff,-0x14f0(%rbp)
    b115:	ff ff ff 
    b118:	c7 85 14 eb ff ff fb 	movl   $0xfffffffb,-0x14ec(%rbp)
    b11f:	ff ff ff 
    b122:	c7 85 18 eb ff ff 30 	movl   $0xfe051030,-0x14e8(%rbp)
    b129:	10 05 fe 
    b12c:	c7 85 1c eb ff ff ff 	movl   $0xffffffff,-0x14e4(%rbp)
    b133:	ff ff ff 
    b136:	c7 85 a0 f4 ff ff 3e 	movl   $0xd301ed3e,-0xb60(%rbp)
    b13d:	ed 01 d3 
    b140:	c7 85 a4 f4 ff ff 69 	movl   $0xd824a369,-0xb5c(%rbp)
    b147:	a3 24 d8 
    b14a:	c7 85 a8 f4 ff ff 69 	movl   $0xd824a369,-0xb58(%rbp)
    b151:	a3 24 d8 
    b154:	c7 85 ac f4 ff ff 3e 	movl   $0xd301ed3e,-0xb54(%rbp)
    b15b:	ed 01 d3 
    b15e:	c7 85 b0 f4 ff ff ff 	movl   $0xffffffff,-0xb50(%rbp)
    b165:	ff ff ff 
    b168:	c7 85 b4 f4 ff ff ff 	movl   $0xffffffff,-0xb4c(%rbp)
    b16f:	ff ff ff 
    b172:	c7 85 b8 f4 ff ff 5b 	movl   $0x19328c5b,-0xb48(%rbp)
    b179:	8c 32 19 
    b17c:	c7 85 bc f4 ff ff 53 	movl   $0xd564fe53,-0xb44(%rbp)
    b183:	fe 64 d5 
    b186:	c7 85 c0 f4 ff ff 05 	movl   $0x5,-0xb40(%rbp)
    b18d:	00 00 00 
    b190:	c7 85 c4 f4 ff ff 69 	movl   $0xd824a369,-0xb3c(%rbp)
    b197:	a3 24 d8 
    b19a:	c7 85 c8 f4 ff ff 03 	movl   $0x3,-0xb38(%rbp)
    b1a1:	00 00 00 
    b1a4:	c7 85 cc f4 ff ff 5b 	movl   $0x19328c5b,-0xb34(%rbp)
    b1ab:	8c 32 19 
    b1ae:	c7 85 d0 f4 ff ff 53 	movl   $0xd564fe53,-0xb30(%rbp)
    b1b5:	fe 64 d5 
    b1b8:	c7 85 d4 f4 ff ff 53 	movl   $0xd564fe53,-0xb2c(%rbp)
    b1bf:	fe 64 d5 
    b1c2:	c7 85 d8 f4 ff ff 05 	movl   $0x5,-0xb28(%rbp)
    b1c9:	00 00 00 
    b1cc:	c7 85 dc f4 ff ff 5b 	movl   $0x19328c5b,-0xb24(%rbp)
    b1d3:	8c 32 19 
    b1d6:	c7 85 e0 f4 ff ff ff 	movl   $0xffffffff,-0xb20(%rbp)
    b1dd:	ff ff ff 
    b1e0:	c7 85 e4 f4 ff ff 5b 	movl   $0x19328c5b,-0xb1c(%rbp)
    b1e7:	8c 32 19 
    b1ea:	c7 85 e8 f4 ff ff 05 	movl   $0x5,-0xb18(%rbp)
    b1f1:	00 00 00 
    b1f4:	c7 85 ec f4 ff ff fe 	movl   $0xfffffffe,-0xb14(%rbp)
    b1fb:	ff ff ff 
    b1fe:	c7 85 f0 f4 ff ff 5b 	movl   $0x19328c5b,-0xb10(%rbp)
    b205:	8c 32 19 
    b208:	c7 85 f4 f4 ff ff 3e 	movl   $0xd301ed3e,-0xb0c(%rbp)
    b20f:	ed 01 d3 
    b212:	c7 85 f8 f4 ff ff ff 	movl   $0xffffffff,-0xb08(%rbp)
    b219:	ff ff ff 
    b21c:	c7 85 fc f4 ff ff ff 	movl   $0xffffffff,-0xb04(%rbp)
    b223:	ff ff ff 
    b226:	c7 85 00 f5 ff ff 5b 	movl   $0x19328c5b,-0xb00(%rbp)
    b22d:	8c 32 19 
    b230:	c7 85 04 f5 ff ff 69 	movl   $0xd824a369,-0xafc(%rbp)
    b237:	a3 24 d8 
    b23a:	c7 85 08 f5 ff ff ff 	movl   $0xffffffff,-0xaf8(%rbp)
    b241:	ff ff ff 
    b244:	c7 85 0c f5 ff ff f8 	movl   $0xfffffff8,-0xaf4(%rbp)
    b24b:	ff ff ff 
    b24e:	c7 85 10 f5 ff ff 69 	movl   $0xd824a369,-0xaf0(%rbp)
    b255:	a3 24 d8 
    b258:	c7 85 14 f5 ff ff f8 	movl   $0xfffffff8,-0xaec(%rbp)
    b25f:	ff ff ff 
    b262:	c7 85 18 f5 ff ff 03 	movl   $0x3,-0xae8(%rbp)
    b269:	00 00 00 
    b26c:	c7 85 1c f5 ff ff 03 	movl   $0x3,-0xae4(%rbp)
    b273:	00 00 00 
    b276:	c7 85 20 f5 ff ff f8 	movl   $0xfffffff8,-0xae0(%rbp)
    b27d:	ff ff ff 
    b280:	c7 85 24 f5 ff ff 69 	movl   $0xd824a369,-0xadc(%rbp)
    b287:	a3 24 d8 
    b28a:	c7 85 28 f5 ff ff ff 	movl   $0xffffffff,-0xad8(%rbp)
    b291:	ff ff ff 
    b294:	c7 85 2c f5 ff ff 3e 	movl   $0xd301ed3e,-0xad4(%rbp)
    b29b:	ed 01 d3 
    b29e:	c7 85 30 f5 ff ff 5b 	movl   $0x19328c5b,-0xad0(%rbp)
    b2a5:	8c 32 19 
    b2a8:	c7 85 34 f5 ff ff 32 	movl   $0x6cac0d32,-0xacc(%rbp)
    b2af:	0d ac 6c 
    b2b2:	c7 85 38 f5 ff ff 3e 	movl   $0xd301ed3e,-0xac8(%rbp)
    b2b9:	ed 01 d3 
    b2bc:	c7 85 3c f5 ff ff f8 	movl   $0xfffffff8,-0xac4(%rbp)
    b2c3:	ff ff ff 
    b2c6:	c7 85 40 f5 ff ff 01 	movl   $0x1,-0xac0(%rbp)
    b2cd:	00 00 00 
    b2d0:	c7 85 44 f5 ff ff 5b 	movl   $0x19328c5b,-0xabc(%rbp)
    b2d7:	8c 32 19 
    b2da:	48 c7 85 08 ec ff ff 	movq   $0x0,-0x13f8(%rbp)
    b2e1:	00 00 00 00 
    b2e5:	48 8d 05 c8 30 01 00 	lea    0x130c8(%rip),%rax        # 1e3b4 <g_743>
    b2ec:	48 89 85 10 ec ff ff 	mov    %rax,-0x13f0(%rbp)
    b2f3:	c7 85 dc ea ff ff 00 	movl   $0x0,-0x1524(%rbp)
    b2fa:	00 00 00 
    b2fd:	eb 19                	jmp    b318 <func_1+0x1b63>
    b2ff:	8b 85 dc ea ff ff    	mov    -0x1524(%rbp),%eax
    b305:	48 98                	cltq   
    b307:	66 c7 84 45 50 ee ff 	movw   $0xbe7e,-0x11b0(%rbp,%rax,2)
    b30e:	ff 7e be 
    b311:	83 85 dc ea ff ff 01 	addl   $0x1,-0x1524(%rbp)
    b318:	83 bd dc ea ff ff 03 	cmpl   $0x3,-0x1524(%rbp)
    b31f:	7e de                	jle    b2ff <func_1+0x1b4a>
    b321:	0f b7 95 52 ee ff ff 	movzwl -0x11ae(%rbp),%edx
    b328:	48 8b 05 71 48 01 00 	mov    0x14871(%rip),%rax        # 1fba0 <g_8>
    b32f:	0f b7 d2             	movzwl %dx,%edx
    b332:	89 10                	mov    %edx,(%rax)
    b334:	8b 05 f2 2c 01 00    	mov    0x12cf2(%rip),%eax        # 1e02c <g_4>
    b33a:	0f b6 c0             	movzbl %al,%eax
    b33d:	be 07 00 00 00       	mov    $0x7,%esi
    b342:	89 c7                	mov    %eax,%edi
    b344:	e8 11 d8 ff ff       	callq  8b5a <safe_add_func_uint8_t_u_u>
    b349:	0f b6 c0             	movzbl %al,%eax
    b34c:	89 05 da 2c 01 00    	mov    %eax,0x12cda(%rip)        # 1e02c <g_4>
    b352:	8b 05 d4 2c 01 00    	mov    0x12cd4(%rip),%eax        # 1e02c <g_4>
    b358:	83 f8 0b             	cmp    $0xb,%eax
    b35b:	0f 8f 67 fd ff ff    	jg     b0c8 <func_1+0x1913>
    b361:	48 c7 05 24 30 01 00 	movq   $0x1,0x13024(%rip)        # 1e390 <g_364>
    b368:	01 00 00 00 
    b36c:	e9 f2 09 00 00       	jmpq   bd63 <func_1+0x25ae>
    b371:	c6 85 c8 ea ff ff d7 	movb   $0xd7,-0x1538(%rbp)
    b378:	48 8d 05 91 5c 01 00 	lea    0x15c91(%rip),%rax        # 21010 <g_1148>
    b37f:	48 89 85 c0 ed ff ff 	mov    %rax,-0x1240(%rbp)
    b386:	48 8d 05 83 5c 01 00 	lea    0x15c83(%rip),%rax        # 21010 <g_1148>
    b38d:	48 89 85 c8 ed ff ff 	mov    %rax,-0x1238(%rbp)
    b394:	48 8d 05 75 5c 01 00 	lea    0x15c75(%rip),%rax        # 21010 <g_1148>
    b39b:	48 89 85 d0 ed ff ff 	mov    %rax,-0x1230(%rbp)
    b3a2:	48 8d 05 67 5c 01 00 	lea    0x15c67(%rip),%rax        # 21010 <g_1148>
    b3a9:	48 89 85 d8 ed ff ff 	mov    %rax,-0x1228(%rbp)
    b3b0:	48 8d 05 59 5c 01 00 	lea    0x15c59(%rip),%rax        # 21010 <g_1148>
    b3b7:	48 89 85 e0 ed ff ff 	mov    %rax,-0x1220(%rbp)
    b3be:	48 8d 05 4b 5c 01 00 	lea    0x15c4b(%rip),%rax        # 21010 <g_1148>
    b3c5:	48 89 85 e8 ed ff ff 	mov    %rax,-0x1218(%rbp)
    b3cc:	48 8d 05 3d 5c 01 00 	lea    0x15c3d(%rip),%rax        # 21010 <g_1148>
    b3d3:	48 89 85 f0 ed ff ff 	mov    %rax,-0x1210(%rbp)
    b3da:	48 8d 05 2f 5c 01 00 	lea    0x15c2f(%rip),%rax        # 21010 <g_1148>
    b3e1:	48 89 85 f8 ed ff ff 	mov    %rax,-0x1208(%rbp)
    b3e8:	48 8d 05 21 5c 01 00 	lea    0x15c21(%rip),%rax        # 21010 <g_1148>
    b3ef:	48 89 85 00 ee ff ff 	mov    %rax,-0x1200(%rbp)
    b3f6:	48 8d 05 13 5c 01 00 	lea    0x15c13(%rip),%rax        # 21010 <g_1148>
    b3fd:	48 89 85 08 ee ff ff 	mov    %rax,-0x11f8(%rbp)
    b404:	48 8d 05 05 5c 01 00 	lea    0x15c05(%rip),%rax        # 21010 <g_1148>
    b40b:	48 89 85 10 ee ff ff 	mov    %rax,-0x11f0(%rbp)
    b412:	48 8d 05 f7 5b 01 00 	lea    0x15bf7(%rip),%rax        # 21010 <g_1148>
    b419:	48 89 85 18 ee ff ff 	mov    %rax,-0x11e8(%rbp)
    b420:	48 8d 05 e9 5b 01 00 	lea    0x15be9(%rip),%rax        # 21010 <g_1148>
    b427:	48 89 85 20 ee ff ff 	mov    %rax,-0x11e0(%rbp)
    b42e:	48 8d 05 db 5b 01 00 	lea    0x15bdb(%rip),%rax        # 21010 <g_1148>
    b435:	48 89 85 28 ee ff ff 	mov    %rax,-0x11d8(%rbp)
    b43c:	48 8d 05 cd 5b 01 00 	lea    0x15bcd(%rip),%rax        # 21010 <g_1148>
    b443:	48 89 85 30 ee ff ff 	mov    %rax,-0x11d0(%rbp)
    b44a:	48 8d 05 bf 5b 01 00 	lea    0x15bbf(%rip),%rax        # 21010 <g_1148>
    b451:	48 89 85 38 ee ff ff 	mov    %rax,-0x11c8(%rbp)
    b458:	48 8d 05 b1 5b 01 00 	lea    0x15bb1(%rip),%rax        # 21010 <g_1148>
    b45f:	48 89 85 40 ee ff ff 	mov    %rax,-0x11c0(%rbp)
    b466:	48 8d 05 a3 5b 01 00 	lea    0x15ba3(%rip),%rax        # 21010 <g_1148>
    b46d:	48 89 85 48 ee ff ff 	mov    %rax,-0x11b8(%rbp)
    b474:	48 8d 85 c0 ed ff ff 	lea    -0x1240(%rbp),%rax
    b47b:	48 83 c0 48          	add    $0x48,%rax
    b47f:	48 89 85 a0 eb ff ff 	mov    %rax,-0x1460(%rbp)
    b486:	48 c7 85 a8 eb ff ff 	movq   $0x0,-0x1458(%rbp)
    b48d:	00 00 00 00 
    b491:	48 8d 05 40 47 01 00 	lea    0x14740(%rip),%rax        # 1fbd8 <g_186>
    b498:	48 89 85 b0 eb ff ff 	mov    %rax,-0x1450(%rbp)
    b49f:	48 8d 05 11 2f 01 00 	lea    0x12f11(%rip),%rax        # 1e3b7 <g_1011+0x1>
    b4a6:	48 89 85 b8 eb ff ff 	mov    %rax,-0x1448(%rbp)
    b4ad:	c7 85 04 eb ff ff 95 	movl   $0x9767aa95,-0x14fc(%rbp)
    b4b4:	aa 67 97 
    b4b7:	48 b8 e7 f6 e7 f6 e7 	movabs $0xf6e7f6e7f6e7f6e7,%rax
    b4be:	f6 e7 f6 
    b4c1:	48 89 45 e0          	mov    %rax,-0x20(%rbp)
    b4c5:	c7 85 08 eb ff ff ff 	movl   $0xffffffff,-0x14f8(%rbp)
    b4cc:	ff ff ff 
    b4cf:	48 8d 85 30 eb ff ff 	lea    -0x14d0(%rbp),%rax
    b4d6:	48 89 85 c0 eb ff ff 	mov    %rax,-0x1440(%rbp)
    b4dd:	48 c7 85 70 ec ff ff 	movq   $0x8,-0x1390(%rbp)
    b4e4:	08 00 00 00 
    b4e8:	48 b8 ad d7 18 1f 9b 	movabs $0xc4775e9b1f18d7ad,%rax
    b4ef:	5e 77 c4 
    b4f2:	48 89 85 78 ec ff ff 	mov    %rax,-0x1388(%rbp)
    b4f9:	48 c7 85 80 ec ff ff 	movq   $0x8,-0x1380(%rbp)
    b500:	08 00 00 00 
    b504:	48 c7 85 88 ec ff ff 	movq   $0x8,-0x1378(%rbp)
    b50b:	08 00 00 00 
    b50f:	48 89 85 90 ec ff ff 	mov    %rax,-0x1370(%rbp)
    b516:	48 c7 85 98 ec ff ff 	movq   $0x8,-0x1368(%rbp)
    b51d:	08 00 00 00 
    b521:	48 c7 85 a0 ec ff ff 	movq   $0x8,-0x1360(%rbp)
    b528:	08 00 00 00 
    b52c:	66 c7 85 d0 ea ff ff 	movw   $0xb3b9,-0x1530(%rbp)
    b533:	b9 b3 
    b535:	66 c7 85 d2 ea ff ff 	movw   $0x1,-0x152e(%rbp)
    b53c:	01 00 
    b53e:	48 8d 85 b0 ec ff ff 	lea    -0x1350(%rbp),%rax
    b545:	48 89 85 c8 eb ff ff 	mov    %rax,-0x1438(%rbp)
    b54c:	66 c7 85 d4 ea ff ff 	movw   $0x6324,-0x152c(%rbp)
    b553:	24 63 
    b555:	c6 85 c9 ea ff ff 55 	movb   $0x55,-0x1537(%rbp)
    b55c:	48 8d 05 e5 55 01 00 	lea    0x155e5(%rip),%rax        # 20b48 <g_1663>
    b563:	48 89 85 d0 eb ff ff 	mov    %rax,-0x1430(%rbp)
    b56a:	48 b8 02 ed f0 ee 72 	movabs $0x41821a72eef0ed02,%rax
    b571:	1a 82 41 
    b574:	48 89 85 d8 eb ff ff 	mov    %rax,-0x1428(%rbp)
    b57b:	66 c7 85 d6 ea ff ff 	movw   $0xffff,-0x152a(%rbp)
    b582:	ff ff 
    b584:	48 c7 85 f0 ec ff ff 	movq   $0x1,-0x1310(%rbp)
    b58b:	01 00 00 00 
    b58f:	48 c7 85 f8 ec ff ff 	movq   $0x1,-0x1308(%rbp)
    b596:	01 00 00 00 
    b59a:	48 c7 85 00 ed ff ff 	movq   $0x1,-0x1300(%rbp)
    b5a1:	01 00 00 00 
    b5a5:	48 c7 85 08 ed ff ff 	movq   $0x1,-0x12f8(%rbp)
    b5ac:	01 00 00 00 
    b5b0:	48 c7 85 10 ed ff ff 	movq   $0x1,-0x12f0(%rbp)
    b5b7:	01 00 00 00 
    b5bb:	48 c7 85 18 ed ff ff 	movq   $0x1,-0x12e8(%rbp)
    b5c2:	01 00 00 00 
    b5c6:	48 c7 85 20 ed ff ff 	movq   $0x1,-0x12e0(%rbp)
    b5cd:	01 00 00 00 
    b5d1:	48 c7 85 28 ed ff ff 	movq   $0x1,-0x12d8(%rbp)
    b5d8:	01 00 00 00 
    b5dc:	48 c7 85 30 ed ff ff 	movq   $0x1,-0x12d0(%rbp)
    b5e3:	01 00 00 00 
    b5e7:	48 c7 85 38 ed ff ff 	movq   $0x1,-0x12c8(%rbp)
    b5ee:	01 00 00 00 
    b5f2:	48 c7 85 40 ed ff ff 	movq   $0x6,-0x12c0(%rbp)
    b5f9:	06 00 00 00 
    b5fd:	48 c7 85 48 ed ff ff 	movq   $0x1,-0x12b8(%rbp)
    b604:	01 00 00 00 
    b608:	48 b9 47 e7 df 06 0b 	movabs $0xe093a50b06dfe747,%rcx
    b60f:	a5 93 e0 
    b612:	48 89 8d 50 ee ff ff 	mov    %rcx,-0x11b0(%rbp)
    b619:	48 b8 db 9f 2c 9d c5 	movabs $0xcd5f59c59d2c9fdb,%rax
    b620:	59 5f cd 
    b623:	48 89 85 58 ee ff ff 	mov    %rax,-0x11a8(%rbp)
    b62a:	48 89 85 60 ee ff ff 	mov    %rax,-0x11a0(%rbp)
    b631:	48 89 8d 68 ee ff ff 	mov    %rcx,-0x1198(%rbp)
    b638:	48 bb d7 84 54 40 62 	movabs $0xd06cca62405484d7,%rbx
    b63f:	ca 6c d0 
    b642:	48 89 9d 70 ee ff ff 	mov    %rbx,-0x1190(%rbp)
    b649:	48 bf de af 44 58 67 	movabs $0x4363f8675844afde,%rdi
    b650:	f8 63 43 
    b653:	48 89 bd 78 ee ff ff 	mov    %rdi,-0x1188(%rbp)
    b65a:	48 89 85 80 ee ff ff 	mov    %rax,-0x1180(%rbp)
    b661:	48 be 68 82 11 bb 6e 	movabs $0xed7bfa6ebb118268,%rsi
    b668:	fa 7b ed 
    b66b:	48 89 b5 88 ee ff ff 	mov    %rsi,-0x1178(%rbp)
    b672:	48 89 8d 90 ee ff ff 	mov    %rcx,-0x1170(%rbp)
    b679:	48 c7 85 98 ee ff ff 	movq   $0xffffffffffffffff,-0x1168(%rbp)
    b680:	ff ff ff ff 
    b684:	48 c7 85 a0 ee ff ff 	movq   $0xffffffffffffffff,-0x1160(%rbp)
    b68b:	ff ff ff ff 
    b68f:	48 c7 85 a8 ee ff ff 	movq   $0xffffffffffffffff,-0x1158(%rbp)
    b696:	ff ff ff ff 
    b69a:	48 c7 85 b0 ee ff ff 	movq   $0xffffffffffffffff,-0x1150(%rbp)
    b6a1:	ff ff ff ff 
    b6a5:	48 89 85 b8 ee ff ff 	mov    %rax,-0x1148(%rbp)
    b6ac:	48 89 9d c0 ee ff ff 	mov    %rbx,-0x1140(%rbp)
    b6b3:	48 c7 85 c8 ee ff ff 	movq   $0xffffffffffffffff,-0x1138(%rbp)
    b6ba:	ff ff ff ff 
    b6be:	48 89 9d d0 ee ff ff 	mov    %rbx,-0x1130(%rbp)
    b6c5:	48 c7 85 d8 ee ff ff 	movq   $0xffffffffffffffff,-0x1128(%rbp)
    b6cc:	ff ff ff ff 
    b6d0:	48 89 b5 e0 ee ff ff 	mov    %rsi,-0x1120(%rbp)
    b6d7:	48 89 b5 e8 ee ff ff 	mov    %rsi,-0x1118(%rbp)
    b6de:	c6 85 ca ea ff ff 9b 	movb   $0x9b,-0x1536(%rbp)
    b6e5:	c7 85 0c eb ff ff b0 	movl   $0xe59cb8b0,-0x14f4(%rbp)
    b6ec:	b8 9c e5 
    b6ef:	48 8d 05 2a 4b 01 00 	lea    0x14b2a(%rip),%rax        # 20220 <g_840+0x60>
    b6f6:	48 89 85 48 eb ff ff 	mov    %rax,-0x14b8(%rbp)
    b6fd:	48 8d 85 48 eb ff ff 	lea    -0x14b8(%rbp),%rax
    b704:	48 89 85 50 eb ff ff 	mov    %rax,-0x14b0(%rbp)
    b70b:	48 8d 85 50 eb ff ff 	lea    -0x14b0(%rbp),%rax
    b712:	48 89 85 a0 f4 ff ff 	mov    %rax,-0xb60(%rbp)
    b719:	48 8d 85 50 eb ff ff 	lea    -0x14b0(%rbp),%rax
    b720:	48 89 85 a8 f4 ff ff 	mov    %rax,-0xb58(%rbp)
    b727:	48 8d 85 50 eb ff ff 	lea    -0x14b0(%rbp),%rax
    b72e:	48 89 85 b0 f4 ff ff 	mov    %rax,-0xb50(%rbp)
    b735:	48 8d 85 50 eb ff ff 	lea    -0x14b0(%rbp),%rax
    b73c:	48 89 85 b8 f4 ff ff 	mov    %rax,-0xb48(%rbp)
    b743:	48 c7 85 c0 f4 ff ff 	movq   $0x0,-0xb40(%rbp)
    b74a:	00 00 00 00 
    b74e:	48 8d 85 50 eb ff ff 	lea    -0x14b0(%rbp),%rax
    b755:	48 89 85 c8 f4 ff ff 	mov    %rax,-0xb38(%rbp)
    b75c:	48 8d 85 50 eb ff ff 	lea    -0x14b0(%rbp),%rax
    b763:	48 89 85 d0 f4 ff ff 	mov    %rax,-0xb30(%rbp)
    b76a:	48 8d 85 50 eb ff ff 	lea    -0x14b0(%rbp),%rax
    b771:	48 89 85 d8 f4 ff ff 	mov    %rax,-0xb28(%rbp)
    b778:	48 8d 85 50 eb ff ff 	lea    -0x14b0(%rbp),%rax
    b77f:	48 89 85 e0 f4 ff ff 	mov    %rax,-0xb20(%rbp)
    b786:	48 8d 85 50 eb ff ff 	lea    -0x14b0(%rbp),%rax
    b78d:	48 89 85 e8 f4 ff ff 	mov    %rax,-0xb18(%rbp)
    b794:	48 8d 85 50 eb ff ff 	lea    -0x14b0(%rbp),%rax
    b79b:	48 89 85 f0 f4 ff ff 	mov    %rax,-0xb10(%rbp)
    b7a2:	48 8d 85 50 eb ff ff 	lea    -0x14b0(%rbp),%rax
    b7a9:	48 89 85 f8 f4 ff ff 	mov    %rax,-0xb08(%rbp)
    b7b0:	48 8d 85 50 eb ff ff 	lea    -0x14b0(%rbp),%rax
    b7b7:	48 89 85 00 f5 ff ff 	mov    %rax,-0xb00(%rbp)
    b7be:	48 8d 85 50 eb ff ff 	lea    -0x14b0(%rbp),%rax
    b7c5:	48 89 85 08 f5 ff ff 	mov    %rax,-0xaf8(%rbp)
    b7cc:	48 8d 85 50 eb ff ff 	lea    -0x14b0(%rbp),%rax
    b7d3:	48 89 85 10 f5 ff ff 	mov    %rax,-0xaf0(%rbp)
    b7da:	48 c7 85 18 f5 ff ff 	movq   $0x0,-0xae8(%rbp)
    b7e1:	00 00 00 00 
    b7e5:	48 8d 85 50 eb ff ff 	lea    -0x14b0(%rbp),%rax
    b7ec:	48 89 85 20 f5 ff ff 	mov    %rax,-0xae0(%rbp)
    b7f3:	48 8d 85 50 eb ff ff 	lea    -0x14b0(%rbp),%rax
    b7fa:	48 89 85 28 f5 ff ff 	mov    %rax,-0xad8(%rbp)
    b801:	48 8d 85 50 eb ff ff 	lea    -0x14b0(%rbp),%rax
    b808:	48 89 85 30 f5 ff ff 	mov    %rax,-0xad0(%rbp)
    b80f:	48 8d 85 50 eb ff ff 	lea    -0x14b0(%rbp),%rax
    b816:	48 89 85 38 f5 ff ff 	mov    %rax,-0xac8(%rbp)
    b81d:	48 8d 85 50 eb ff ff 	lea    -0x14b0(%rbp),%rax
    b824:	48 89 85 40 f5 ff ff 	mov    %rax,-0xac0(%rbp)
    b82b:	48 c7 85 48 f5 ff ff 	movq   $0x0,-0xab8(%rbp)
    b832:	00 00 00 00 
    b836:	48 8d 85 50 eb ff ff 	lea    -0x14b0(%rbp),%rax
    b83d:	48 89 85 50 f5 ff ff 	mov    %rax,-0xab0(%rbp)
    b844:	48 8d 85 50 eb ff ff 	lea    -0x14b0(%rbp),%rax
    b84b:	48 89 85 58 f5 ff ff 	mov    %rax,-0xaa8(%rbp)
    b852:	48 8d 85 50 eb ff ff 	lea    -0x14b0(%rbp),%rax
    b859:	48 89 85 60 f5 ff ff 	mov    %rax,-0xaa0(%rbp)
    b860:	48 8d 85 50 eb ff ff 	lea    -0x14b0(%rbp),%rax
    b867:	48 89 85 68 f5 ff ff 	mov    %rax,-0xa98(%rbp)
    b86e:	48 8d 85 50 eb ff ff 	lea    -0x14b0(%rbp),%rax
    b875:	48 89 85 70 f5 ff ff 	mov    %rax,-0xa90(%rbp)
    b87c:	48 8d 85 50 eb ff ff 	lea    -0x14b0(%rbp),%rax
    b883:	48 89 85 78 f5 ff ff 	mov    %rax,-0xa88(%rbp)
    b88a:	48 8d 85 50 eb ff ff 	lea    -0x14b0(%rbp),%rax
    b891:	48 89 85 80 f5 ff ff 	mov    %rax,-0xa80(%rbp)
    b898:	48 8d 85 50 eb ff ff 	lea    -0x14b0(%rbp),%rax
    b89f:	48 89 85 88 f5 ff ff 	mov    %rax,-0xa78(%rbp)
    b8a6:	48 8d 85 50 eb ff ff 	lea    -0x14b0(%rbp),%rax
    b8ad:	48 89 85 90 f5 ff ff 	mov    %rax,-0xa70(%rbp)
    b8b4:	48 8d 85 50 eb ff ff 	lea    -0x14b0(%rbp),%rax
    b8bb:	48 89 85 98 f5 ff ff 	mov    %rax,-0xa68(%rbp)
    b8c2:	48 8d 85 50 eb ff ff 	lea    -0x14b0(%rbp),%rax
    b8c9:	48 89 85 a0 f5 ff ff 	mov    %rax,-0xa60(%rbp)
    b8d0:	48 8d 85 50 eb ff ff 	lea    -0x14b0(%rbp),%rax
    b8d7:	48 89 85 a8 f5 ff ff 	mov    %rax,-0xa58(%rbp)
    b8de:	48 8d 85 50 eb ff ff 	lea    -0x14b0(%rbp),%rax
    b8e5:	48 89 85 b0 f5 ff ff 	mov    %rax,-0xa50(%rbp)
    b8ec:	48 8d 85 50 eb ff ff 	lea    -0x14b0(%rbp),%rax
    b8f3:	48 89 85 b8 f5 ff ff 	mov    %rax,-0xa48(%rbp)
    b8fa:	48 8d 85 50 eb ff ff 	lea    -0x14b0(%rbp),%rax
    b901:	48 89 85 c0 f5 ff ff 	mov    %rax,-0xa40(%rbp)
    b908:	48 8d 85 50 eb ff ff 	lea    -0x14b0(%rbp),%rax
    b90f:	48 89 85 c8 f5 ff ff 	mov    %rax,-0xa38(%rbp)
    b916:	48 8d 85 50 eb ff ff 	lea    -0x14b0(%rbp),%rax
    b91d:	48 89 85 d0 f5 ff ff 	mov    %rax,-0xa30(%rbp)
    b924:	48 8d 85 50 eb ff ff 	lea    -0x14b0(%rbp),%rax
    b92b:	48 89 85 d8 f5 ff ff 	mov    %rax,-0xa28(%rbp)
    b932:	48 8d 85 50 eb ff ff 	lea    -0x14b0(%rbp),%rax
    b939:	48 89 85 e0 f5 ff ff 	mov    %rax,-0xa20(%rbp)
    b940:	48 8d 85 50 eb ff ff 	lea    -0x14b0(%rbp),%rax
    b947:	48 89 85 e8 f5 ff ff 	mov    %rax,-0xa18(%rbp)
    b94e:	48 8d 85 50 eb ff ff 	lea    -0x14b0(%rbp),%rax
    b955:	48 89 85 f0 f5 ff ff 	mov    %rax,-0xa10(%rbp)
    b95c:	48 8d 85 50 eb ff ff 	lea    -0x14b0(%rbp),%rax
    b963:	48 89 85 f8 f5 ff ff 	mov    %rax,-0xa08(%rbp)
    b96a:	48 8d 85 50 eb ff ff 	lea    -0x14b0(%rbp),%rax
    b971:	48 89 85 00 f6 ff ff 	mov    %rax,-0xa00(%rbp)
    b978:	48 8d 85 50 eb ff ff 	lea    -0x14b0(%rbp),%rax
    b97f:	48 89 85 08 f6 ff ff 	mov    %rax,-0x9f8(%rbp)
    b986:	48 8d 85 50 eb ff ff 	lea    -0x14b0(%rbp),%rax
    b98d:	48 89 85 10 f6 ff ff 	mov    %rax,-0x9f0(%rbp)
    b994:	48 8d 85 50 eb ff ff 	lea    -0x14b0(%rbp),%rax
    b99b:	48 89 85 18 f6 ff ff 	mov    %rax,-0x9e8(%rbp)
    b9a2:	48 8d 85 50 eb ff ff 	lea    -0x14b0(%rbp),%rax
    b9a9:	48 89 85 20 f6 ff ff 	mov    %rax,-0x9e0(%rbp)
    b9b0:	48 8d 85 50 eb ff ff 	lea    -0x14b0(%rbp),%rax
    b9b7:	48 89 85 28 f6 ff ff 	mov    %rax,-0x9d8(%rbp)
    b9be:	48 8d 85 50 eb ff ff 	lea    -0x14b0(%rbp),%rax
    b9c5:	48 89 85 30 f6 ff ff 	mov    %rax,-0x9d0(%rbp)
    b9cc:	48 8d 85 50 eb ff ff 	lea    -0x14b0(%rbp),%rax
    b9d3:	48 89 85 38 f6 ff ff 	mov    %rax,-0x9c8(%rbp)
    b9da:	48 8d 85 50 eb ff ff 	lea    -0x14b0(%rbp),%rax
    b9e1:	48 89 85 40 f6 ff ff 	mov    %rax,-0x9c0(%rbp)
    b9e8:	48 8d 85 50 eb ff ff 	lea    -0x14b0(%rbp),%rax
    b9ef:	48 89 85 48 f6 ff ff 	mov    %rax,-0x9b8(%rbp)
    b9f6:	48 8d 85 50 eb ff ff 	lea    -0x14b0(%rbp),%rax
    b9fd:	48 89 85 50 f6 ff ff 	mov    %rax,-0x9b0(%rbp)
    ba04:	48 c7 85 58 f6 ff ff 	movq   $0x0,-0x9a8(%rbp)
    ba0b:	00 00 00 00 
    ba0f:	48 c7 85 60 f6 ff ff 	movq   $0x0,-0x9a0(%rbp)
    ba16:	00 00 00 00 
    ba1a:	48 8d 85 50 eb ff ff 	lea    -0x14b0(%rbp),%rax
    ba21:	48 89 85 68 f6 ff ff 	mov    %rax,-0x998(%rbp)
    ba28:	48 8d 85 50 eb ff ff 	lea    -0x14b0(%rbp),%rax
    ba2f:	48 89 85 70 f6 ff ff 	mov    %rax,-0x990(%rbp)
    ba36:	48 8d 85 50 eb ff ff 	lea    -0x14b0(%rbp),%rax
    ba3d:	48 89 85 78 f6 ff ff 	mov    %rax,-0x988(%rbp)
    ba44:	48 8d 85 50 eb ff ff 	lea    -0x14b0(%rbp),%rax
    ba4b:	48 89 85 80 f6 ff ff 	mov    %rax,-0x980(%rbp)
    ba52:	48 8d 85 50 eb ff ff 	lea    -0x14b0(%rbp),%rax
    ba59:	48 89 85 88 f6 ff ff 	mov    %rax,-0x978(%rbp)
    ba60:	48 8d 85 50 eb ff ff 	lea    -0x14b0(%rbp),%rax
    ba67:	48 89 85 90 f6 ff ff 	mov    %rax,-0x970(%rbp)
    ba6e:	48 8d 85 50 eb ff ff 	lea    -0x14b0(%rbp),%rax
    ba75:	48 89 85 98 f6 ff ff 	mov    %rax,-0x968(%rbp)
    ba7c:	48 8d 85 50 eb ff ff 	lea    -0x14b0(%rbp),%rax
    ba83:	48 89 85 a0 f6 ff ff 	mov    %rax,-0x960(%rbp)
    ba8a:	48 8d 85 50 eb ff ff 	lea    -0x14b0(%rbp),%rax
    ba91:	48 89 85 a8 f6 ff ff 	mov    %rax,-0x958(%rbp)
    ba98:	48 8d 85 50 eb ff ff 	lea    -0x14b0(%rbp),%rax
    ba9f:	48 89 85 b0 f6 ff ff 	mov    %rax,-0x950(%rbp)
    baa6:	48 8d 85 50 eb ff ff 	lea    -0x14b0(%rbp),%rax
    baad:	48 89 85 b8 f6 ff ff 	mov    %rax,-0x948(%rbp)
    bab4:	48 8d 85 50 eb ff ff 	lea    -0x14b0(%rbp),%rax
    babb:	48 89 85 c0 f6 ff ff 	mov    %rax,-0x940(%rbp)
    bac2:	48 8d 85 50 eb ff ff 	lea    -0x14b0(%rbp),%rax
    bac9:	48 89 85 c8 f6 ff ff 	mov    %rax,-0x938(%rbp)
    bad0:	48 8d 85 50 eb ff ff 	lea    -0x14b0(%rbp),%rax
    bad7:	48 89 85 d0 f6 ff ff 	mov    %rax,-0x930(%rbp)
    bade:	48 8d 85 50 eb ff ff 	lea    -0x14b0(%rbp),%rax
    bae5:	48 89 85 d8 f6 ff ff 	mov    %rax,-0x928(%rbp)
    baec:	48 8d 85 50 eb ff ff 	lea    -0x14b0(%rbp),%rax
    baf3:	48 89 85 e0 f6 ff ff 	mov    %rax,-0x920(%rbp)
    bafa:	48 8d 85 50 eb ff ff 	lea    -0x14b0(%rbp),%rax
    bb01:	48 89 85 e8 f6 ff ff 	mov    %rax,-0x918(%rbp)
    bb08:	48 c7 85 f0 f6 ff ff 	movq   $0x0,-0x910(%rbp)
    bb0f:	00 00 00 00 
    bb13:	48 8d 85 50 eb ff ff 	lea    -0x14b0(%rbp),%rax
    bb1a:	48 89 85 f8 f6 ff ff 	mov    %rax,-0x908(%rbp)
    bb21:	48 8d 85 50 eb ff ff 	lea    -0x14b0(%rbp),%rax
    bb28:	48 89 85 00 f7 ff ff 	mov    %rax,-0x900(%rbp)
    bb2f:	48 c7 85 08 f7 ff ff 	movq   $0x0,-0x8f8(%rbp)
    bb36:	00 00 00 00 
    bb3a:	48 8d 85 50 eb ff ff 	lea    -0x14b0(%rbp),%rax
    bb41:	48 89 85 10 f7 ff ff 	mov    %rax,-0x8f0(%rbp)
    bb48:	48 8d 85 50 eb ff ff 	lea    -0x14b0(%rbp),%rax
    bb4f:	48 89 85 18 f7 ff ff 	mov    %rax,-0x8e8(%rbp)
    bb56:	48 8d 85 50 eb ff ff 	lea    -0x14b0(%rbp),%rax
    bb5d:	48 89 85 20 f7 ff ff 	mov    %rax,-0x8e0(%rbp)
    bb64:	48 8d 85 50 eb ff ff 	lea    -0x14b0(%rbp),%rax
    bb6b:	48 89 85 28 f7 ff ff 	mov    %rax,-0x8d8(%rbp)
    bb72:	48 8d 85 50 eb ff ff 	lea    -0x14b0(%rbp),%rax
    bb79:	48 89 85 30 f7 ff ff 	mov    %rax,-0x8d0(%rbp)
    bb80:	48 8d 85 50 eb ff ff 	lea    -0x14b0(%rbp),%rax
    bb87:	48 89 85 38 f7 ff ff 	mov    %rax,-0x8c8(%rbp)
    bb8e:	48 8d 85 50 eb ff ff 	lea    -0x14b0(%rbp),%rax
    bb95:	48 89 85 40 f7 ff ff 	mov    %rax,-0x8c0(%rbp)
    bb9c:	48 8d 85 50 eb ff ff 	lea    -0x14b0(%rbp),%rax
    bba3:	48 89 85 48 f7 ff ff 	mov    %rax,-0x8b8(%rbp)
    bbaa:	48 c7 85 50 f7 ff ff 	movq   $0x0,-0x8b0(%rbp)
    bbb1:	00 00 00 00 
    bbb5:	48 8d 85 50 eb ff ff 	lea    -0x14b0(%rbp),%rax
    bbbc:	48 89 85 58 f7 ff ff 	mov    %rax,-0x8a8(%rbp)
    bbc3:	48 8d 85 50 eb ff ff 	lea    -0x14b0(%rbp),%rax
    bbca:	48 89 85 60 f7 ff ff 	mov    %rax,-0x8a0(%rbp)
    bbd1:	48 8d 85 50 eb ff ff 	lea    -0x14b0(%rbp),%rax
    bbd8:	48 89 85 68 f7 ff ff 	mov    %rax,-0x898(%rbp)
    bbdf:	48 8d 85 50 eb ff ff 	lea    -0x14b0(%rbp),%rax
    bbe6:	48 89 85 70 f7 ff ff 	mov    %rax,-0x890(%rbp)
    bbed:	48 8d 85 50 eb ff ff 	lea    -0x14b0(%rbp),%rax
    bbf4:	48 89 85 78 f7 ff ff 	mov    %rax,-0x888(%rbp)
    bbfb:	48 8d 85 50 eb ff ff 	lea    -0x14b0(%rbp),%rax
    bc02:	48 89 85 80 f7 ff ff 	mov    %rax,-0x880(%rbp)
    bc09:	48 8d 85 50 eb ff ff 	lea    -0x14b0(%rbp),%rax
    bc10:	48 89 85 88 f7 ff ff 	mov    %rax,-0x878(%rbp)
    bc17:	48 8d 85 50 eb ff ff 	lea    -0x14b0(%rbp),%rax
    bc1e:	48 89 85 90 f7 ff ff 	mov    %rax,-0x870(%rbp)
    bc25:	48 8d 85 50 eb ff ff 	lea    -0x14b0(%rbp),%rax
    bc2c:	48 89 85 98 f7 ff ff 	mov    %rax,-0x868(%rbp)
    bc33:	48 8d 85 50 eb ff ff 	lea    -0x14b0(%rbp),%rax
    bc3a:	48 89 85 a0 f7 ff ff 	mov    %rax,-0x860(%rbp)
    bc41:	48 c7 85 a8 f7 ff ff 	movq   $0x0,-0x858(%rbp)
    bc48:	00 00 00 00 
    bc4c:	48 8d 85 50 eb ff ff 	lea    -0x14b0(%rbp),%rax
    bc53:	48 89 85 b0 f7 ff ff 	mov    %rax,-0x850(%rbp)
    bc5a:	48 8d 85 50 eb ff ff 	lea    -0x14b0(%rbp),%rax
    bc61:	48 89 85 b8 f7 ff ff 	mov    %rax,-0x848(%rbp)
    bc68:	48 8d 85 50 eb ff ff 	lea    -0x14b0(%rbp),%rax
    bc6f:	48 89 85 c0 f7 ff ff 	mov    %rax,-0x840(%rbp)
    bc76:	48 8d 85 50 eb ff ff 	lea    -0x14b0(%rbp),%rax
    bc7d:	48 89 85 c8 f7 ff ff 	mov    %rax,-0x838(%rbp)
    bc84:	48 8d 85 50 eb ff ff 	lea    -0x14b0(%rbp),%rax
    bc8b:	48 89 85 d0 f7 ff ff 	mov    %rax,-0x830(%rbp)
    bc92:	48 8d 85 50 eb ff ff 	lea    -0x14b0(%rbp),%rax
    bc99:	48 89 85 d8 f7 ff ff 	mov    %rax,-0x828(%rbp)
    bca0:	48 c7 85 e0 f7 ff ff 	movq   $0x0,-0x820(%rbp)
    bca7:	00 00 00 00 
    bcab:	48 8d 85 50 eb ff ff 	lea    -0x14b0(%rbp),%rax
    bcb2:	48 89 85 e8 f7 ff ff 	mov    %rax,-0x818(%rbp)
    bcb9:	48 8d 85 50 eb ff ff 	lea    -0x14b0(%rbp),%rax
    bcc0:	48 89 85 f0 f7 ff ff 	mov    %rax,-0x810(%rbp)
    bcc7:	48 8d 85 50 eb ff ff 	lea    -0x14b0(%rbp),%rax
    bcce:	48 89 85 f8 f7 ff ff 	mov    %rax,-0x808(%rbp)
    bcd5:	48 8d 85 a0 f4 ff ff 	lea    -0xb60(%rbp),%rax
    bcdc:	48 05 50 01 00 00    	add    $0x150,%rax
    bce2:	48 89 85 e0 eb ff ff 	mov    %rax,-0x1420(%rbp)
    bce9:	c6 85 cb ea ff ff cd 	movb   $0xcd,-0x1535(%rbp)
    bcf0:	c7 85 e0 ea ff ff 00 	movl   $0x0,-0x1520(%rbp)
    bcf7:	00 00 00 
    bcfa:	eb 1e                	jmp    bd1a <func_1+0x2565>
    bcfc:	8b 85 e0 ea ff ff    	mov    -0x1520(%rbp),%eax
    bd02:	48 98                	cltq   
    bd04:	48 8d 15 61 26 01 00 	lea    0x12661(%rip),%rdx        # 1e36c <g_96+0x8c>
    bd0b:	48 89 94 c5 18 ec ff 	mov    %rdx,-0x13e8(%rbp,%rax,8)
    bd12:	ff 
    bd13:	83 85 e0 ea ff ff 01 	addl   $0x1,-0x1520(%rbp)
    bd1a:	83 bd e0 ea ff ff 00 	cmpl   $0x0,-0x1520(%rbp)
    bd21:	7e d9                	jle    bcfc <func_1+0x2547>
    bd23:	c7 85 e0 ea ff ff 00 	movl   $0x0,-0x1520(%rbp)
    bd2a:	00 00 00 
    bd2d:	eb 19                	jmp    bd48 <func_1+0x2593>
    bd2f:	8b 85 e0 ea ff ff    	mov    -0x1520(%rbp),%eax
    bd35:	48 98                	cltq   
    bd37:	66 c7 84 45 22 ec ff 	movw   $0x738f,-0x13de(%rbp,%rax,2)
    bd3e:	ff 8f 73 
    bd41:	83 85 e0 ea ff ff 01 	addl   $0x1,-0x1520(%rbp)
    bd48:	83 bd e0 ea ff ff 06 	cmpl   $0x6,-0x1520(%rbp)
    bd4f:	7e de                	jle    bd2f <func_1+0x257a>
    bd51:	48 8b 05 38 26 01 00 	mov    0x12638(%rip),%rax        # 1e390 <g_364>
    bd58:	48 83 e8 01          	sub    $0x1,%rax
    bd5c:	48 89 05 2d 26 01 00 	mov    %rax,0x1262d(%rip)        # 1e390 <g_364>
    bd63:	48 8b 05 26 26 01 00 	mov    0x12626(%rip),%rax        # 1e390 <g_364>
    bd6a:	48 85 c0             	test   %rax,%rax
    bd6d:	0f 89 fe f5 ff ff    	jns    b371 <func_1+0x1bbc>
    bd73:	8b 05 ab 22 01 00    	mov    0x122ab(%rip),%eax        # 1e024 <g_2>
    bd79:	48 8b 85 58 ec ff ff 	mov    -0x13a8(%rbp),%rax
    bd80:	48 83 c0 01          	add    $0x1,%rax
    bd84:	48 89 85 58 ec ff ff 	mov    %rax,-0x13a8(%rbp)
    bd8b:	48 8b 85 58 ec ff ff 	mov    -0x13a8(%rbp),%rax
    bd92:	48 85 c0             	test   %rax,%rax
    bd95:	75 59                	jne    bdf0 <func_1+0x263b>
    bd97:	48 8b 05 02 3e 01 00 	mov    0x13e02(%rip),%rax        # 1fba0 <g_8>
    bd9e:	8b 18                	mov    (%rax),%ebx
    bda0:	48 8b 05 01 44 01 00 	mov    0x14401(%rip),%rax        # 201a8 <g_814>
    bda7:	48 8b 00             	mov    (%rax),%rax
    bdaa:	8b 10                	mov    (%rax),%edx
    bdac:	0f b6 05 c5 25 01 00 	movzbl 0x125c5(%rip),%eax        # 1e378 <g_161>
    bdb3:	83 f0 01             	xor    $0x1,%eax
    bdb6:	0f b6 c0             	movzbl %al,%eax
    bdb9:	89 d6                	mov    %edx,%esi
    bdbb:	89 c7                	mov    %eax,%edi
    bdbd:	e8 43 c8 ff ff       	callq  8605 <safe_sub_func_int32_t_s_s>
    bdc2:	0f b6 c0             	movzbl %al,%eax
    bdc5:	be 00 00 00 00       	mov    $0x0,%esi
    bdca:	89 c7                	mov    %eax,%edi
    bdcc:	e8 89 cd ff ff       	callq  8b5a <safe_add_func_uint8_t_u_u>
    bdd1:	0f b6 c0             	movzbl %al,%eax
    bdd4:	39 c3                	cmp    %eax,%ebx
    bdd6:	0f 9e c0             	setle  %al
    bdd9:	0f b6 c0             	movzbl %al,%eax
    bddc:	f7 d0                	not    %eax
    bdde:	89 c2                	mov    %eax,%edx
    bde0:	48 8b 05 d1 3d 01 00 	mov    0x13dd1(%rip),%rax        # 1fbb8 <g_133>
    bde7:	48 8b 00             	mov    (%rax),%rax
    bdea:	8b 00                	mov    (%rax),%eax
    bdec:	39 c2                	cmp    %eax,%edx
    bdee:	7e 07                	jle    bdf7 <func_1+0x2642>
    bdf0:	ba 01 00 00 00       	mov    $0x1,%edx
    bdf5:	eb 05                	jmp    bdfc <func_1+0x2647>
    bdf7:	ba 00 00 00 00       	mov    $0x0,%edx
    bdfc:	48 8b 05 1d 4d 01 00 	mov    0x14d1d(%rip),%rax        # 20b20 <g_1229>
    be03:	48 8b 00             	mov    (%rax),%rax
    be06:	48 8b 00             	mov    (%rax),%rax
    be09:	48 8b 00             	mov    (%rax),%rax
    be0c:	89 10                	mov    %edx,(%rax)
    be0e:	48 8b 05 a3 4d 01 00 	mov    0x14da3(%rip),%rax        # 20bb8 <g_1841>
    be15:	48 8b 00             	mov    (%rax),%rax
    be18:	8b 00                	mov    (%rax),%eax
    be1a:	48 8b 7d e8          	mov    -0x18(%rbp),%rdi
    be1e:	64 48 33 3c 25 28 00 	xor    %fs:0x28,%rdi
    be25:	00 00 
    be27:	74 05                	je     be2e <func_1+0x2679>
    be29:	e8 42 c2 ff ff       	callq  8070 <__stack_chk_fail@plt>
    be2e:	48 81 c4 38 15 00 00 	add    $0x1538,%rsp
    be35:	5b                   	pop    %rbx
    be36:	5d                   	pop    %rbp
    be37:	c3                   	retq   

000000000000be38 <func_12>:
    be38:	f3 0f 1e fa          	endbr64 
    be3c:	55                   	push   %rbp
    be3d:	48 89 e5             	mov    %rsp,%rbp
    be40:	41 57                	push   %r15
    be42:	41 56                	push   %r14
    be44:	41 55                	push   %r13
    be46:	41 54                	push   %r12
    be48:	53                   	push   %rbx
    be49:	48 81 ec 00 10 00 00 	sub    $0x1000,%rsp
    be50:	48 83 0c 24 00       	orq    $0x0,(%rsp)
    be55:	48 81 ec 48 03 00 00 	sub    $0x348,%rsp
    be5c:	48 89 bd a8 ec ff ff 	mov    %rdi,-0x1358(%rbp)
    be63:	48 89 b5 a0 ec ff ff 	mov    %rsi,-0x1360(%rbp)
    be6a:	64 48 8b 04 25 28 00 	mov    %fs:0x28,%rax
    be71:	00 00 
    be73:	48 89 45 c8          	mov    %rax,-0x38(%rbp)
    be77:	31 c0                	xor    %eax,%eax
    be79:	c7 85 e4 ec ff ff 04 	movl   $0x4,-0x131c(%rbp)
    be80:	00 00 00 
    be83:	48 8d 05 3e 24 01 00 	lea    0x1243e(%rip),%rax        # 1e2c8 <g_93>
    be8a:	48 89 85 80 ef ff ff 	mov    %rax,-0x1080(%rbp)
    be91:	48 8d 05 30 24 01 00 	lea    0x12430(%rip),%rax        # 1e2c8 <g_93>
    be98:	48 89 85 88 ef ff ff 	mov    %rax,-0x1078(%rbp)
    be9f:	48 8d 05 22 24 01 00 	lea    0x12422(%rip),%rax        # 1e2c8 <g_93>
    bea6:	48 89 85 90 ef ff ff 	mov    %rax,-0x1070(%rbp)
    bead:	48 8d 05 14 24 01 00 	lea    0x12414(%rip),%rax        # 1e2c8 <g_93>
    beb4:	48 89 85 98 ef ff ff 	mov    %rax,-0x1068(%rbp)
    bebb:	48 8d 05 06 24 01 00 	lea    0x12406(%rip),%rax        # 1e2c8 <g_93>
    bec2:	48 89 85 a0 ef ff ff 	mov    %rax,-0x1060(%rbp)
    bec9:	48 c7 85 80 ed ff ff 	movq   $0x0,-0x1280(%rbp)
    bed0:	00 00 00 00 
    bed4:	48 8d 85 80 ed ff ff 	lea    -0x1280(%rbp),%rax
    bedb:	48 89 85 d0 ed ff ff 	mov    %rax,-0x1230(%rbp)
    bee2:	48 8d 85 10 f3 ff ff 	lea    -0xcf0(%rbp),%rax
    bee9:	48 8d 15 d0 d1 00 00 	lea    0xd1d0(%rip),%rdx        # 190c0 <g_314+0x1a>
    bef0:	b9 2d 00 00 00       	mov    $0x2d,%ecx
    bef5:	48 89 c7             	mov    %rax,%rdi
    bef8:	48 89 d6             	mov    %rdx,%rsi
    befb:	f3 48 a5             	rep movsq %ds:(%rsi),%es:(%rdi)
    befe:	c7 85 bc ec ff ff fe 	movl   $0xfffffffe,-0x1344(%rbp)
    bf05:	ff ff ff 
    bf08:	48 c7 85 d8 ed ff ff 	movq   $0x0,-0x1228(%rbp)
    bf0f:	00 00 00 00 
    bf13:	48 8d 85 f0 f1 ff ff 	lea    -0xe10(%rbp),%rax
    bf1a:	48 8d 15 5f 27 01 00 	lea    0x1275f(%rip),%rdx        # 1e680 <g_2388+0x1ec>
    bf21:	b9 24 00 00 00       	mov    $0x24,%ecx
    bf26:	48 89 c7             	mov    %rax,%rdi
    bf29:	48 89 d6             	mov    %rdx,%rsi
    bf2c:	f3 48 a5             	rep movsq %ds:(%rsi),%es:(%rdi)
    bf2f:	48 8d 05 ea 3e 01 00 	lea    0x13eea(%rip),%rax        # 1fe20 <g_562+0x220>
    bf36:	48 89 85 e0 ed ff ff 	mov    %rax,-0x1220(%rbp)
    bf3d:	c7 85 cc ec ff ff 6a 	movl   $0x1b065d6a,-0x1334(%rbp)
    bf44:	5d 06 1b 
    bf47:	48 8d 85 e0 f7 ff ff 	lea    -0x820(%rbp),%rax
    bf4e:	48 8d 15 4b 28 01 00 	lea    0x1284b(%rip),%rdx        # 1e7a0 <g_2388+0x30c>
    bf55:	b9 fc 00 00 00       	mov    $0xfc,%ecx
    bf5a:	48 89 c7             	mov    %rax,%rdi
    bf5d:	48 89 d6             	mov    %rdx,%rsi
    bf60:	f3 48 a5             	rep movsq %ds:(%rsi),%es:(%rdi)
    bf63:	48 8d 05 4d 24 01 00 	lea    0x1244d(%rip),%rax        # 1e3b7 <g_1011+0x1>
    bf6a:	48 89 85 88 ed ff ff 	mov    %rax,-0x1278(%rbp)
    bf71:	48 8d 85 88 ed ff ff 	lea    -0x1278(%rbp),%rax
    bf78:	48 89 85 90 ed ff ff 	mov    %rax,-0x1270(%rbp)
    bf7f:	48 8d 85 90 ed ff ff 	lea    -0x1270(%rbp),%rax
    bf86:	48 89 85 98 ed ff ff 	mov    %rax,-0x1268(%rbp)
    bf8d:	48 8d 85 98 ed ff ff 	lea    -0x1268(%rbp),%rax
    bf94:	48 89 85 e8 ed ff ff 	mov    %rax,-0x1218(%rbp)
    bf9b:	48 8d 05 8e 20 01 00 	lea    0x1208e(%rip),%rax        # 1e030 <g_9>
    bfa2:	48 89 85 80 f0 ff ff 	mov    %rax,-0xf80(%rbp)
    bfa9:	48 8d 05 80 20 01 00 	lea    0x12080(%rip),%rax        # 1e030 <g_9>
    bfb0:	48 89 85 88 f0 ff ff 	mov    %rax,-0xf78(%rbp)
    bfb7:	48 8d 05 72 20 01 00 	lea    0x12072(%rip),%rax        # 1e030 <g_9>
    bfbe:	48 89 85 90 f0 ff ff 	mov    %rax,-0xf70(%rbp)
    bfc5:	48 8d 05 64 20 01 00 	lea    0x12064(%rip),%rax        # 1e030 <g_9>
    bfcc:	48 89 85 98 f0 ff ff 	mov    %rax,-0xf68(%rbp)
    bfd3:	48 8d 05 56 20 01 00 	lea    0x12056(%rip),%rax        # 1e030 <g_9>
    bfda:	48 89 85 a0 f0 ff ff 	mov    %rax,-0xf60(%rbp)
    bfe1:	48 8d 05 48 20 01 00 	lea    0x12048(%rip),%rax        # 1e030 <g_9>
    bfe8:	48 89 85 a8 f0 ff ff 	mov    %rax,-0xf58(%rbp)
    bfef:	48 8d 05 3a 20 01 00 	lea    0x1203a(%rip),%rax        # 1e030 <g_9>
    bff6:	48 89 85 b0 f0 ff ff 	mov    %rax,-0xf50(%rbp)
    bffd:	48 8d 05 2c 20 01 00 	lea    0x1202c(%rip),%rax        # 1e030 <g_9>
    c004:	48 89 85 b8 f0 ff ff 	mov    %rax,-0xf48(%rbp)
    c00b:	48 8d 05 1e 20 01 00 	lea    0x1201e(%rip),%rax        # 1e030 <g_9>
    c012:	48 89 85 c0 f0 ff ff 	mov    %rax,-0xf40(%rbp)
    c019:	48 8d 05 10 20 01 00 	lea    0x12010(%rip),%rax        # 1e030 <g_9>
    c020:	48 89 85 c8 f0 ff ff 	mov    %rax,-0xf38(%rbp)
    c027:	48 8b 85 80 f0 ff ff 	mov    -0xf80(%rbp),%rax
    c02e:	48 8b 95 88 f0 ff ff 	mov    -0xf78(%rbp),%rdx
    c035:	48 89 85 e0 ef ff ff 	mov    %rax,-0x1020(%rbp)
    c03c:	48 89 95 e8 ef ff ff 	mov    %rdx,-0x1018(%rbp)
    c043:	48 8b 85 90 f0 ff ff 	mov    -0xf70(%rbp),%rax
    c04a:	48 8b 95 98 f0 ff ff 	mov    -0xf68(%rbp),%rdx
    c051:	48 89 85 f0 ef ff ff 	mov    %rax,-0x1010(%rbp)
    c058:	48 89 95 f8 ef ff ff 	mov    %rdx,-0x1008(%rbp)
    c05f:	48 8b 85 a0 f0 ff ff 	mov    -0xf60(%rbp),%rax
    c066:	48 8b 95 a8 f0 ff ff 	mov    -0xf58(%rbp),%rdx
    c06d:	48 89 85 00 f0 ff ff 	mov    %rax,-0x1000(%rbp)
    c074:	48 89 95 08 f0 ff ff 	mov    %rdx,-0xff8(%rbp)
    c07b:	48 8b 85 b0 f0 ff ff 	mov    -0xf50(%rbp),%rax
    c082:	48 8b 95 b8 f0 ff ff 	mov    -0xf48(%rbp),%rdx
    c089:	48 89 85 10 f0 ff ff 	mov    %rax,-0xff0(%rbp)
    c090:	48 89 95 18 f0 ff ff 	mov    %rdx,-0xfe8(%rbp)
    c097:	48 8b 85 c0 f0 ff ff 	mov    -0xf40(%rbp),%rax
    c09e:	48 8b 95 c8 f0 ff ff 	mov    -0xf38(%rbp),%rdx
    c0a5:	48 89 85 20 f0 ff ff 	mov    %rax,-0xfe0(%rbp)
    c0ac:	48 89 95 28 f0 ff ff 	mov    %rdx,-0xfd8(%rbp)
    c0b3:	c7 85 c0 ec ff ff ec 	movl   $0x6c857bec,-0x1340(%rbp)
    c0ba:	7b 85 6c 
    c0bd:	48 8d 05 ec 3a 01 00 	lea    0x13aec(%rip),%rax        # 1fbb0 <g_134>
    c0c4:	48 89 85 a0 ed ff ff 	mov    %rax,-0x1260(%rbp)
    c0cb:	48 8d 85 a0 ed ff ff 	lea    -0x1260(%rbp),%rax
    c0d2:	48 89 85 a8 ed ff ff 	mov    %rax,-0x1258(%rbp)
    c0d9:	48 8d 85 a8 ed ff ff 	lea    -0x1258(%rbp),%rax
    c0e0:	48 89 85 b0 ed ff ff 	mov    %rax,-0x1250(%rbp)
    c0e7:	48 8d 85 b0 ed ff ff 	lea    -0x1250(%rbp),%rax
    c0ee:	48 89 85 f0 ed ff ff 	mov    %rax,-0x1210(%rbp)
    c0f5:	c7 85 e8 ec ff ff 07 	movl   $0x7,-0x1318(%rbp)
    c0fc:	00 00 00 
    c0ff:	48 8d 05 ca 3a 01 00 	lea    0x13aca(%rip),%rax        # 1fbd0 <g_187>
    c106:	48 89 85 f8 ed ff ff 	mov    %rax,-0x1208(%rbp)
    c10d:	48 8b 05 94 40 01 00 	mov    0x14094(%rip),%rax        # 201a8 <g_814>
    c114:	48 8b 00             	mov    (%rax),%rax
    c117:	8b 10                	mov    (%rax),%edx
    c119:	8b 85 e4 ec ff ff    	mov    -0x131c(%rbp),%eax
    c11f:	83 e0 fb             	and    $0xfffffffb,%eax
    c122:	89 c1                	mov    %eax,%ecx
    c124:	48 8b 05 7d 40 01 00 	mov    0x1407d(%rip),%rax        # 201a8 <g_814>
    c12b:	48 8b 00             	mov    (%rax),%rax
    c12e:	31 ca                	xor    %ecx,%edx
    c130:	89 10                	mov    %edx,(%rax)
    c132:	8b 00                	mov    (%rax),%eax
    c134:	85 c0                	test   %eax,%eax
    c136:	0f 84 95 18 00 00    	je     d9d1 <func_12+0x1b99>
    c13c:	48 8d 85 80 ef ff ff 	lea    -0x1080(%rbp),%rax
    c143:	48 83 c0 20          	add    $0x20,%rax
    c147:	48 89 85 08 ee ff ff 	mov    %rax,-0x11f8(%rbp)
    c14e:	48 8d 05 4b 22 01 00 	lea    0x1224b(%rip),%rax        # 1e3a0 <g_597>
    c155:	48 89 85 b8 ed ff ff 	mov    %rax,-0x1248(%rbp)
    c15c:	48 8d 85 b8 ed ff ff 	lea    -0x1248(%rbp),%rax
    c163:	48 89 85 10 ee ff ff 	mov    %rax,-0x11f0(%rbp)
    c16a:	66 c7 85 b4 ec ff ff 	movw   $0xffff,-0x134c(%rbp)
    c171:	ff ff 
    c173:	c7 85 c4 ec ff ff 01 	movl   $0x1,-0x133c(%rbp)
    c17a:	00 00 00 
    c17d:	48 8d 05 8c 4e 01 00 	lea    0x14e8c(%rip),%rax        # 21010 <g_1148>
    c184:	48 89 85 18 ee ff ff 	mov    %rax,-0x11e8(%rbp)
    c18b:	48 c7 85 c0 ed ff ff 	movq   $0x0,-0x1240(%rbp)
    c192:	00 00 00 00 
    c196:	c7 85 ec ec ff ff 08 	movl   $0x8,-0x1314(%rbp)
    c19d:	00 00 00 
    c1a0:	48 c7 85 20 ee ff ff 	movq   $0x0,-0x11e0(%rbp)
    c1a7:	00 00 00 00 
    c1ab:	48 8d 85 b4 ec ff ff 	lea    -0x134c(%rbp),%rax
    c1b2:	48 89 85 28 ee ff ff 	mov    %rax,-0x11d8(%rbp)
    c1b9:	48 8d 05 f0 21 01 00 	lea    0x121f0(%rip),%rax        # 1e3b0 <g_734>
    c1c0:	48 89 85 30 ee ff ff 	mov    %rax,-0x11d0(%rbp)
    c1c7:	48 8d 85 98 ed ff ff 	lea    -0x1268(%rbp),%rax
    c1ce:	48 89 85 38 ee ff ff 	mov    %rax,-0x11c8(%rbp)
    c1d5:	c6 85 b1 ec ff ff 0e 	movb   $0xe,-0x134f(%rbp)
    c1dc:	c7 85 f0 ec ff ff 31 	movl   $0x496b1231,-0x1310(%rbp)
    c1e3:	12 6b 49 
    c1e6:	c7 85 c8 ec ff ff 00 	movl   $0x0,-0x1338(%rbp)
    c1ed:	00 00 00 
    c1f0:	eb 1e                	jmp    c210 <func_12+0x3d8>
    c1f2:	8b 85 c8 ec ff ff    	mov    -0x1338(%rbp),%eax
    c1f8:	48 98                	cltq   
    c1fa:	48 8d 15 1f 49 01 00 	lea    0x1491f(%rip),%rdx        # 20b20 <g_1229>
    c201:	48 89 94 c5 b0 ef ff 	mov    %rdx,-0x1050(%rbp,%rax,8)
    c208:	ff 
    c209:	83 85 c8 ec ff ff 01 	addl   $0x1,-0x1338(%rbp)
    c210:	83 bd c8 ec ff ff 04 	cmpl   $0x4,-0x1338(%rbp)
    c217:	7e d9                	jle    c1f2 <func_12+0x3ba>
    c219:	c7 85 c8 ec ff ff 00 	movl   $0x0,-0x1338(%rbp)
    c220:	00 00 00 
    c223:	eb 51                	jmp    c276 <func_12+0x43e>
    c225:	c7 85 d0 ec ff ff 00 	movl   $0x0,-0x1330(%rbp)
    c22c:	00 00 00 
    c22f:	eb 35                	jmp    c266 <func_12+0x42e>
    c231:	8b 85 d0 ec ff ff    	mov    -0x1330(%rbp),%eax
    c237:	48 63 c8             	movslq %eax,%rcx
    c23a:	8b 85 c8 ec ff ff    	mov    -0x1338(%rbp),%eax
    c240:	48 63 d0             	movslq %eax,%rdx
    c243:	48 89 d0             	mov    %rdx,%rax
    c246:	48 c1 e0 02          	shl    $0x2,%rax
    c24a:	48 01 d0             	add    %rdx,%rax
    c24d:	48 01 c8             	add    %rcx,%rax
    c250:	48 8d 15 9b 4d 01 00 	lea    0x14d9b(%rip),%rdx        # 20ff2 <g_188>
    c257:	48 89 94 c5 d0 f0 ff 	mov    %rdx,-0xf30(%rbp,%rax,8)
    c25e:	ff 
    c25f:	83 85 d0 ec ff ff 01 	addl   $0x1,-0x1330(%rbp)
    c266:	83 bd d0 ec ff ff 04 	cmpl   $0x4,-0x1330(%rbp)
    c26d:	7e c2                	jle    c231 <func_12+0x3f9>
    c26f:	83 85 c8 ec ff ff 01 	addl   $0x1,-0x1338(%rbp)
    c276:	83 bd c8 ec ff ff 06 	cmpl   $0x6,-0x1338(%rbp)
    c27d:	7e a6                	jle    c225 <func_12+0x3ed>
    c27f:	c7 85 c8 ec ff ff 00 	movl   $0x0,-0x1338(%rbp)
    c286:	00 00 00 
    c289:	eb 14                	jmp    c29f <func_12+0x467>
    c28b:	8b 85 c8 ec ff ff    	mov    -0x1338(%rbp),%eax
    c291:	48 98                	cltq   
    c293:	c6 44 05 c4 ff       	movb   $0xff,-0x3c(%rbp,%rax,1)
    c298:	83 85 c8 ec ff ff 01 	addl   $0x1,-0x1338(%rbp)
    c29f:	83 bd c8 ec ff ff 03 	cmpl   $0x3,-0x1338(%rbp)
    c2a6:	7e e3                	jle    c28b <func_12+0x453>
    c2a8:	c7 85 c8 ec ff ff 00 	movl   $0x0,-0x1338(%rbp)
    c2af:	00 00 00 
    c2b2:	eb 4a                	jmp    c2fe <func_12+0x4c6>
    c2b4:	c7 85 d0 ec ff ff 00 	movl   $0x0,-0x1330(%rbp)
    c2bb:	00 00 00 
    c2be:	eb 2e                	jmp    c2ee <func_12+0x4b6>
    c2c0:	8b 85 d0 ec ff ff    	mov    -0x1330(%rbp),%eax
    c2c6:	48 98                	cltq   
    c2c8:	8b 95 c8 ec ff ff    	mov    -0x1338(%rbp),%edx
    c2ce:	48 63 d2             	movslq %edx,%rdx
    c2d1:	48 01 d2             	add    %rdx,%rdx
    c2d4:	48 8d 5d d0          	lea    -0x30(%rbp),%rbx
    c2d8:	48 01 da             	add    %rbx,%rdx
    c2db:	48 01 d0             	add    %rdx,%rax
    c2de:	48 2d ce 10 00 00    	sub    $0x10ce,%rax
    c2e4:	c6 00 fc             	movb   $0xfc,(%rax)
    c2e7:	83 85 d0 ec ff ff 01 	addl   $0x1,-0x1330(%rbp)
    c2ee:	83 bd d0 ec ff ff 01 	cmpl   $0x1,-0x1330(%rbp)
    c2f5:	7e c9                	jle    c2c0 <func_12+0x488>
    c2f7:	83 85 c8 ec ff ff 01 	addl   $0x1,-0x1338(%rbp)
    c2fe:	83 bd c8 ec ff ff 06 	cmpl   $0x6,-0x1338(%rbp)
    c305:	7e ad                	jle    c2b4 <func_12+0x47c>
    c307:	48 8b 05 12 48 01 00 	mov    0x14812(%rip),%rax        # 20b20 <g_1229>
    c30e:	48 89 05 0b 48 01 00 	mov    %rax,0x1480b(%rip)        # 20b20 <g_1229>
    c315:	48 8b 05 04 48 01 00 	mov    0x14804(%rip),%rax        # 20b20 <g_1229>
    c31c:	48 8d 15 bd 38 01 00 	lea    0x138bd(%rip),%rdx        # 1fbe0 <g_209>
    c323:	48 39 d0             	cmp    %rdx,%rax
    c326:	0f 95 c0             	setne  %al
    c329:	0f b6 c8             	movzbl %al,%ecx
    c32c:	48 8b 95 a0 ef ff ff 	mov    -0x1060(%rbp),%rdx
    c333:	48 8b 85 08 ee ff ff 	mov    -0x11f8(%rbp),%rax
    c33a:	48 89 10             	mov    %rdx,(%rax)
    c33d:	48 8b 85 08 ee ff ff 	mov    -0x11f8(%rbp),%rax
    c344:	48 8b 00             	mov    (%rax),%rax
    c347:	48 85 c0             	test   %rax,%rax
    c34a:	0f 95 c0             	setne  %al
    c34d:	0f b6 c0             	movzbl %al,%eax
    c350:	31 c8                	xor    %ecx,%eax
    c352:	83 f8 ff             	cmp    $0xffffffff,%eax
    c355:	0f 84 54 07 00 00    	je     caaf <func_12+0xc77>
    c35b:	48 8d 05 9e 4c 01 00 	lea    0x14c9e(%rip),%rax        # 21000 <g_480>
    c362:	48 89 85 68 ee ff ff 	mov    %rax,-0x1198(%rbp)
    c369:	48 8d 05 0c 20 01 00 	lea    0x1200c(%rip),%rax        # 1e37c <g_175>
    c370:	48 89 85 c8 ed ff ff 	mov    %rax,-0x1238(%rbp)
    c377:	48 8d 05 32 20 01 00 	lea    0x12032(%rip),%rax        # 1e3b0 <g_734>
    c37e:	48 89 85 70 ee ff ff 	mov    %rax,-0x1190(%rbp)
    c385:	c7 85 10 ed ff ff fd 	movl   $0xfffffffd,-0x12f0(%rbp)
    c38c:	ff ff ff 
    c38f:	48 8d 05 5a 38 01 00 	lea    0x1385a(%rip),%rax        # 1fbf0 <g_275>
    c396:	48 89 85 78 ee ff ff 	mov    %rax,-0x1188(%rbp)
    c39d:	48 8d 05 f8 1d 01 00 	lea    0x11df8(%rip),%rax        # 1e19c <g_75+0x15c>
    c3a4:	48 89 85 80 ee ff ff 	mov    %rax,-0x1180(%rbp)
    c3ab:	48 c7 85 88 ee ff ff 	movq   $0x0,-0x1178(%rbp)
    c3b2:	00 00 00 00 
    c3b6:	48 c7 85 80 f4 ff ff 	movq   $0x0,-0xb80(%rbp)
    c3bd:	00 00 00 00 
    c3c1:	48 c7 85 88 f4 ff ff 	movq   $0x0,-0xb78(%rbp)
    c3c8:	00 00 00 00 
    c3cc:	48 c7 85 90 f4 ff ff 	movq   $0x0,-0xb70(%rbp)
    c3d3:	00 00 00 00 
    c3d7:	48 c7 85 98 f4 ff ff 	movq   $0x0,-0xb68(%rbp)
    c3de:	00 00 00 00 
    c3e2:	48 c7 85 a0 f4 ff ff 	movq   $0x0,-0xb60(%rbp)
    c3e9:	00 00 00 00 
    c3ed:	48 c7 85 a8 f4 ff ff 	movq   $0x0,-0xb58(%rbp)
    c3f4:	00 00 00 00 
    c3f8:	48 c7 85 b0 f4 ff ff 	movq   $0x0,-0xb50(%rbp)
    c3ff:	00 00 00 00 
    c403:	48 c7 85 b8 f4 ff ff 	movq   $0x0,-0xb48(%rbp)
    c40a:	00 00 00 00 
    c40e:	48 c7 85 c0 f4 ff ff 	movq   $0x0,-0xb40(%rbp)
    c415:	00 00 00 00 
    c419:	48 8d 05 50 1f 01 00 	lea    0x11f50(%rip),%rax        # 1e370 <g_130>
    c420:	48 89 85 90 ee ff ff 	mov    %rax,-0x1170(%rbp)
    c427:	c7 85 50 ef ff ff 08 	movl   $0x9330f108,-0x10b0(%rbp)
    c42e:	f1 30 93 
    c431:	c7 85 54 ef ff ff 08 	movl   $0x9330f108,-0x10ac(%rbp)
    c438:	f1 30 93 
    c43b:	c7 85 58 ef ff ff 08 	movl   $0x9330f108,-0x10a8(%rbp)
    c442:	f1 30 93 
    c445:	c7 85 5c ef ff ff 08 	movl   $0x9330f108,-0x10a4(%rbp)
    c44c:	f1 30 93 
    c44f:	c7 85 60 ef ff ff 08 	movl   $0x9330f108,-0x10a0(%rbp)
    c456:	f1 30 93 
    c459:	c7 85 64 ef ff ff 08 	movl   $0x9330f108,-0x109c(%rbp)
    c460:	f1 30 93 
    c463:	c7 85 d4 ec ff ff 00 	movl   $0x0,-0x132c(%rbp)
    c46a:	00 00 00 
    c46d:	eb 1e                	jmp    c48d <func_12+0x655>
    c46f:	8b 85 d4 ec ff ff    	mov    -0x132c(%rbp),%eax
    c475:	48 98                	cltq   
    c477:	48 8d 15 52 37 01 00 	lea    0x13752(%rip),%rdx        # 1fbd0 <g_187>
    c47e:	48 89 94 c5 30 ef ff 	mov    %rdx,-0x10d0(%rbp,%rax,8)
    c485:	ff 
    c486:	83 85 d4 ec ff ff 01 	addl   $0x1,-0x132c(%rbp)
    c48d:	83 bd d4 ec ff ff 01 	cmpl   $0x1,-0x132c(%rbp)
    c494:	7e d9                	jle    c46f <func_12+0x637>
    c496:	48 8b 85 68 ee ff ff 	mov    -0x1198(%rbp),%rax
    c49d:	48 8d 15 2c 37 01 00 	lea    0x1372c(%rip),%rdx        # 1fbd0 <g_187>
    c4a4:	48 89 10             	mov    %rdx,(%rax)
    c4a7:	48 8b 85 38 ef ff ff 	mov    -0x10c8(%rbp),%rax
    c4ae:	48 8d 15 1b 37 01 00 	lea    0x1371b(%rip),%rdx        # 1fbd0 <g_187>
    c4b5:	48 39 d0             	cmp    %rdx,%rax
    c4b8:	0f 95 c0             	setne  %al
    c4bb:	0f b6 c0             	movzbl %al,%eax
    c4be:	be 01 00 00 00       	mov    $0x1,%esi
    c4c3:	89 c7                	mov    %eax,%edi
    c4c5:	e8 24 be ff ff       	callq  82ee <safe_lshift_func_int8_t_s_u>
    c4ca:	48 8b 15 0f 37 01 00 	mov    0x1370f(%rip),%rdx        # 1fbe0 <g_209>
    c4d1:	48 8b 12             	mov    (%rdx),%rdx
    c4d4:	48 8b 12             	mov    (%rdx),%rdx
    c4d7:	8b 12                	mov    (%rdx),%edx
    c4d9:	89 d6                	mov    %edx,%esi
    c4db:	48 8b 95 c8 ed ff ff 	mov    -0x1238(%rbp),%rdx
    c4e2:	8b 0a                	mov    (%rdx),%ecx
    c4e4:	0f be d0             	movsbl %al,%edx
    c4e7:	48 8b 85 c8 ed ff ff 	mov    -0x1238(%rbp),%rax
    c4ee:	09 ca                	or     %ecx,%edx
    c4f0:	89 10                	mov    %edx,(%rax)
    c4f2:	8b 00                	mov    (%rax),%eax
    c4f4:	39 c6                	cmp    %eax,%esi
    c4f6:	0f 95 c0             	setne  %al
    c4f9:	0f b6 d0             	movzbl %al,%edx
    c4fc:	48 8b 85 70 ee ff ff 	mov    -0x1190(%rbp),%rax
    c503:	8b 00                	mov    (%rax),%eax
    c505:	09 c2                	or     %eax,%edx
    c507:	48 8b 85 70 ee ff ff 	mov    -0x1190(%rbp),%rax
    c50e:	89 10                	mov    %edx,(%rax)
    c510:	48 8b 85 70 ee ff ff 	mov    -0x1190(%rbp),%rax
    c517:	8b 00                	mov    (%rax),%eax
    c519:	85 c0                	test   %eax,%eax
    c51b:	48 be f8 63 d4 76 6b 	movabs $0x2e8a046b76d463f8,%rsi
    c522:	04 8a 2e 
    c525:	bf 01 00 00 00       	mov    $0x1,%edi
    c52a:	e8 1c cb ff ff       	callq  904b <safe_sub_func_uint64_t_u_u>
    c52f:	c7 85 10 ed ff ff 01 	movl   $0x1,-0x12f0(%rbp)
    c536:	00 00 00 
    c539:	48 8b 05 68 36 01 00 	mov    0x13668(%rip),%rax        # 1fba8 <g_60>
    c540:	8b 95 10 ed ff ff    	mov    -0x12f0(%rbp),%edx
    c546:	66 89 10             	mov    %dx,(%rax)
    c549:	0f b7 00             	movzwl (%rax),%eax
    c54c:	98                   	cwtl   
    c54d:	8b 95 e4 ec ff ff    	mov    -0x131c(%rbp),%edx
    c553:	89 d6                	mov    %edx,%esi
    c555:	89 c7                	mov    %eax,%edi
    c557:	e8 36 bf ff ff       	callq  8492 <safe_lshift_func_int16_t_s_s>
    c55c:	bf 01 00 00 00       	mov    $0x1,%edi
    c561:	e8 05 15 00 00       	callq  da6b <func_15>
    c566:	48 8b 95 78 ee ff ff 	mov    -0x1188(%rbp),%rdx
    c56d:	48 89 02             	mov    %rax,(%rdx)
    c570:	48 8b 85 78 ee ff ff 	mov    -0x1188(%rbp),%rax
    c577:	48 8b 95 80 ee ff ff 	mov    -0x1180(%rbp),%rdx
    c57e:	48 89 10             	mov    %rdx,(%rax)
    c581:	48 8b 05 60 36 01 00 	mov    0x13660(%rip),%rax        # 1fbe8 <g_208>
    c588:	48 8b 00             	mov    (%rax),%rax
    c58b:	48 8b 00             	mov    (%rax),%rax
    c58e:	48 8b 10             	mov    (%rax),%rdx
    c591:	48 8b 05 80 45 01 00 	mov    0x14580(%rip),%rax        # 20b18 <g_1230>
    c598:	48 8b 00             	mov    (%rax),%rax
    c59b:	48 8b 00             	mov    (%rax),%rax
    c59e:	8b 12                	mov    (%rdx),%edx
    c5a0:	89 10                	mov    %edx,(%rax)
    c5a2:	8b 85 e4 ec ff ff    	mov    -0x131c(%rbp),%eax
    c5a8:	0f bf d8             	movswl %ax,%ebx
    c5ab:	8b 05 7b 1a 01 00    	mov    0x11a7b(%rip),%eax        # 1e02c <g_4>
    c5b1:	4c 63 e0             	movslq %eax,%r12
    c5b4:	be 05 00 00 00       	mov    $0x5,%esi
    c5b9:	bf 01 00 00 00       	mov    $0x1,%edi
    c5be:	e8 42 c6 ff ff       	callq  8c05 <safe_lshift_func_uint8_t_u_s>
    c5c3:	88 85 9f ec ff ff    	mov    %al,-0x1361(%rbp)
    c5c9:	8b 85 e4 ec ff ff    	mov    -0x131c(%rbp),%eax
    c5cf:	48 98                	cltq   
    c5d1:	48 89 85 90 ec ff ff 	mov    %rax,-0x1370(%rbp)
    c5d8:	8b 85 e4 ec ff ff    	mov    -0x131c(%rbp),%eax
    c5de:	4c 63 e8             	movslq %eax,%r13
    c5e1:	8b 85 e4 ec ff ff    	mov    -0x131c(%rbp),%eax
    c5e7:	44 0f bf f0          	movswl %ax,%r14d
    c5eb:	44 8b bd e4 ec ff ff 	mov    -0x131c(%rbp),%r15d
    c5f2:	48 8b 85 a8 ec ff ff 	mov    -0x1358(%rbp),%rax
    c5f9:	8b 00                	mov    (%rax),%eax
    c5fb:	be d2 da d3 96       	mov    $0x96d3dad2,%esi
    c600:	89 c7                	mov    %eax,%edi
    c602:	e8 af bf ff ff       	callq  85b6 <safe_add_func_int32_t_s_s>
    c607:	39 85 e4 ec ff ff    	cmp    %eax,-0x131c(%rbp)
    c60d:	0f 95 c0             	setne  %al
    c610:	0f b6 c0             	movzbl %al,%eax
    c613:	44 89 fe             	mov    %r15d,%esi
    c616:	89 c7                	mov    %eax,%edi
    c618:	e8 d1 bc ff ff       	callq  82ee <safe_lshift_func_int8_t_s_u>
    c61d:	0f be c0             	movsbl %al,%eax
    c620:	be 0c 00 00 00       	mov    $0xc,%esi
    c625:	89 c7                	mov    %eax,%edi
    c627:	e8 fe be ff ff       	callq  852a <safe_rshift_func_int16_t_s_s>
    c62c:	8b 85 e4 ec ff ff    	mov    -0x131c(%rbp),%eax
    c632:	89 05 cc 1d 01 00    	mov    %eax,0x11dcc(%rip)        # 1e404 <g_1287+0x4>
    c638:	8b 05 c6 1d 01 00    	mov    0x11dc6(%rip),%eax        # 1e404 <g_1287+0x4>
    c63e:	0f b7 d0             	movzwl %ax,%edx
    c641:	8b 85 e4 ec ff ff    	mov    -0x131c(%rbp),%eax
    c647:	89 85 1c f4 ff ff    	mov    %eax,-0xbe4(%rbp)
    c64d:	8b 85 1c f4 ff ff    	mov    -0xbe4(%rbp),%eax
    c653:	0f b7 c0             	movzwl %ax,%eax
    c656:	89 d6                	mov    %edx,%esi
    c658:	89 c7                	mov    %eax,%edi
    c65a:	e8 de c6 ff ff       	callq  8d3d <safe_mul_func_uint16_t_u_u>
    c65f:	48 8b 05 72 35 01 00 	mov    0x13572(%rip),%rax        # 1fbd8 <g_186>
    c666:	48 8b 00             	mov    (%rax),%rax
    c669:	0f b6 00             	movzbl (%rax),%eax
    c66c:	84 c0                	test   %al,%al
    c66e:	75 0a                	jne    c67a <func_12+0x842>
    c670:	8b 85 1c f4 ff ff    	mov    -0xbe4(%rbp),%eax
    c676:	85 c0                	test   %eax,%eax
    c678:	74 07                	je     c681 <func_12+0x849>
    c67a:	ba 01 00 00 00       	mov    $0x1,%edx
    c67f:	eb 05                	jmp    c686 <func_12+0x84e>
    c681:	ba 00 00 00 00       	mov    $0x0,%edx
    c686:	8b 85 bc ec ff ff    	mov    -0x1344(%rbp),%eax
    c68c:	31 d0                	xor    %edx,%eax
    c68e:	89 85 bc ec ff ff    	mov    %eax,-0x1344(%rbp)
    c694:	48 8b 05 0d 35 01 00 	mov    0x1350d(%rip),%rax        # 1fba8 <g_60>
    c69b:	0f b7 00             	movzwl (%rax),%eax
    c69e:	98                   	cwtl   
    c69f:	44 89 f6             	mov    %r14d,%esi
    c6a2:	89 c7                	mov    %eax,%edi
    c6a4:	e8 ac bd ff ff       	callq  8455 <safe_div_func_int16_t_s_s>
    c6a9:	98                   	cwtl   
    c6aa:	89 c6                	mov    %eax,%esi
    c6ac:	bf 5f bc ff ff       	mov    $0xffffbc5f,%edi
    c6b1:	e8 3f bd ff ff       	callq  83f5 <safe_mul_func_int16_t_s_s>
    c6b6:	48 0f bf c0          	movswq %ax,%rax
    c6ba:	4c 89 ee             	mov    %r13,%rsi
    c6bd:	48 89 c7             	mov    %rax,%rdi
    c6c0:	e8 86 c9 ff ff       	callq  904b <safe_sub_func_uint64_t_u_u>
    c6c5:	48 39 85 90 ec ff ff 	cmp    %rax,-0x1370(%rbp)
    c6cc:	75 0a                	jne    c6d8 <func_12+0x8a0>
    c6ce:	8b 85 bc ec ff ff    	mov    -0x1344(%rbp),%eax
    c6d4:	85 c0                	test   %eax,%eax
    c6d6:	74 07                	je     c6df <func_12+0x8a7>
    c6d8:	ba 01 00 00 00       	mov    $0x1,%edx
    c6dd:	eb 05                	jmp    c6e4 <func_12+0x8ac>
    c6df:	ba 00 00 00 00       	mov    $0x0,%edx
    c6e4:	48 8b 05 dd 34 01 00 	mov    0x134dd(%rip),%rax        # 1fbc8 <g_177>
    c6eb:	0f b6 00             	movzbl (%rax),%eax
    c6ee:	0f be c0             	movsbl %al,%eax
    c6f1:	39 c2                	cmp    %eax,%edx
    c6f3:	0f 9e c0             	setle  %al
    c6f6:	0f b6 c0             	movzbl %al,%eax
    c6f9:	be 04 00 00 00       	mov    $0x4,%esi
    c6fe:	89 c7                	mov    %eax,%edi
    c700:	e8 8d bd ff ff       	callq  8492 <safe_lshift_func_int16_t_s_s>
    c705:	48 0f bf d0          	movswq %ax,%rdx
    c709:	48 8b 85 90 ee ff ff 	mov    -0x1170(%rbp),%rax
    c710:	48 89 10             	mov    %rdx,(%rax)
    c713:	48 8b 85 90 ee ff ff 	mov    -0x1170(%rbp),%rax
    c71a:	48 8b 00             	mov    (%rax),%rax
    c71d:	48 8b 95 80 ee ff ff 	mov    -0x1180(%rbp),%rdx
    c724:	c7 02 00 00 00 00    	movl   $0x0,(%rdx)
    c72a:	48 89 c6             	mov    %rax,%rsi
    c72d:	bf 00 00 00 00       	mov    $0x0,%edi
    c732:	e8 78 c9 ff ff       	callq  90af <safe_div_func_uint64_t_u_u>
    c737:	48 89 c2             	mov    %rax,%rdx
    c73a:	48 8b 05 67 34 01 00 	mov    0x13467(%rip),%rax        # 1fba8 <g_60>
    c741:	66 89 10             	mov    %dx,(%rax)
    c744:	48 c7 05 d9 1c 01 00 	movq   $0x1,0x11cd9(%rip)        # 1e428 <g_1290>
    c74b:	01 00 00 00 
    c74f:	48 8b 05 d2 1c 01 00 	mov    0x11cd2(%rip),%rax        # 1e428 <g_1290>
    c756:	32 85 9f ec ff ff    	xor    -0x1361(%rbp),%al
    c75c:	0f be d0             	movsbl %al,%edx
    c75f:	48 8b 05 72 34 01 00 	mov    0x13472(%rip),%rax        # 1fbd8 <g_186>
    c766:	48 8b 00             	mov    (%rax),%rax
    c769:	0f b6 00             	movzbl (%rax),%eax
    c76c:	0f be c0             	movsbl %al,%eax
    c76f:	89 d6                	mov    %edx,%esi
    c771:	89 c7                	mov    %eax,%edi
    c773:	e8 5c ba ff ff       	callq  81d4 <safe_add_func_int8_t_s_s>
    c778:	83 bd e4 ec ff ff 01 	cmpl   $0x1,-0x131c(%rbp)
    c77f:	0f 9e c0             	setle  %al
    c782:	0f b6 c0             	movzbl %al,%eax
    c785:	be eb c8 00 00       	mov    $0xc8eb,%esi
    c78a:	89 c7                	mov    %eax,%edi
    c78c:	e8 cb c5 ff ff       	callq  8d5c <safe_mod_func_uint16_t_u_u>
    c791:	0f b7 c0             	movzwl %ax,%eax
    c794:	4c 89 e6             	mov    %r12,%rsi
    c797:	48 89 c7             	mov    %rax,%rdi
    c79a:	e8 58 c2 ff ff       	callq  89f7 <safe_div_func_int64_t_s_s>
    c79f:	66 0d 03 d6          	or     $0xd603,%ax
    c7a3:	98                   	cwtl   
    c7a4:	89 de                	mov    %ebx,%esi
    c7a6:	89 c7                	mov    %eax,%edi
    c7a8:	e8 06 bc ff ff       	callq  83b3 <safe_add_func_int16_t_s_s>
    c7ad:	66 85 c0             	test   %ax,%ax
    c7b0:	0f 84 a4 00 00 00    	je     c85a <func_12+0xa22>
    c7b6:	48 c7 85 98 ee ff ff 	movq   $0xffffffffffffffff,-0x1168(%rbp)
    c7bd:	ff ff ff ff 
    c7c1:	c7 85 30 f0 ff ff 11 	movl   $0xb2ab5d11,-0xfd0(%rbp)
    c7c8:	5d ab b2 
    c7cb:	c7 85 34 f0 ff ff 00 	movl   $0x0,-0xfcc(%rbp)
    c7d2:	00 00 00 
    c7d5:	c7 85 38 f0 ff ff 00 	movl   $0x0,-0xfc8(%rbp)
    c7dc:	00 00 00 
    c7df:	c7 85 3c f0 ff ff 11 	movl   $0xb2ab5d11,-0xfc4(%rbp)
    c7e6:	5d ab b2 
    c7e9:	c7 85 40 f0 ff ff 00 	movl   $0x0,-0xfc0(%rbp)
    c7f0:	00 00 00 
    c7f3:	c7 85 44 f0 ff ff 00 	movl   $0x0,-0xfbc(%rbp)
    c7fa:	00 00 00 
    c7fd:	c7 85 48 f0 ff ff 11 	movl   $0xb2ab5d11,-0xfb8(%rbp)
    c804:	5d ab b2 
    c807:	c7 85 4c f0 ff ff 00 	movl   $0x0,-0xfb4(%rbp)
    c80e:	00 00 00 
    c811:	c7 85 50 f0 ff ff 00 	movl   $0x0,-0xfb0(%rbp)
    c818:	00 00 00 
    c81b:	c7 85 54 f0 ff ff 11 	movl   $0xb2ab5d11,-0xfac(%rbp)
    c822:	5d ab b2 
    c825:	c6 85 b3 ec ff ff 01 	movb   $0x1,-0x134d(%rbp)
    c82c:	48 b8 82 03 57 3e ab 	movabs $0xd585fcab3e570382,%rax
    c833:	fc 85 d5 
    c836:	48 89 85 a0 ee ff ff 	mov    %rax,-0x1160(%rbp)
    c83d:	0f b6 85 b3 ec ff ff 	movzbl -0x134d(%rbp),%eax
    c844:	83 e8 01             	sub    $0x1,%eax
    c847:	88 85 b3 ec ff ff    	mov    %al,-0x134d(%rbp)
    c84d:	48 83 ad a0 ee ff ff 	subq   $0x1,-0x1160(%rbp)
    c854:	01 
    c855:	e9 bf 03 00 00       	jmpq   cc19 <func_12+0xde1>
    c85a:	c6 85 b2 ec ff ff 8a 	movb   $0x8a,-0x134e(%rbp)
    c861:	48 c7 05 54 1b 01 00 	movq   $0x18,0x11b54(%rip)        # 1e3c0 <g_1179>
    c868:	18 00 00 00 
    c86c:	90                   	nop
    c86d:	48 8b 05 4c 1b 01 00 	mov    0x11b4c(%rip),%rax        # 1e3c0 <g_1179>
    c874:	48 83 f8 3b          	cmp    $0x3b,%rax
    c878:	0f 86 61 01 00 00    	jbe    c9df <func_12+0xba7>
    c87e:	c7 85 14 ed ff ff f7 	movl   $0xfffffff7,-0x12ec(%rbp)
    c885:	ff ff ff 
    c888:	48 8b 05 11 39 01 00 	mov    0x13911(%rip),%rax        # 201a0 <g_759>
    c88f:	48 8b 00             	mov    (%rax),%rax
    c892:	8b 00                	mov    (%rax),%eax
    c894:	41 89 c4             	mov    %eax,%r12d
    c897:	8b 05 2f 1b 01 00    	mov    0x11b2f(%rip),%eax        # 1e3cc <g_1213>
    c89d:	0f b7 c0             	movzwl %ax,%eax
    c8a0:	be ff ff 00 00       	mov    $0xffff,%esi
    c8a5:	89 c7                	mov    %eax,%edi
    c8a7:	e8 e2 c4 ff ff       	callq  8d8e <safe_div_func_uint16_t_u_u>
    c8ac:	66 85 c0             	test   %ax,%ax
    c8af:	74 6e                	je     c91f <func_12+0xae7>
    c8b1:	be 04 00 00 00       	mov    $0x4,%esi
    c8b6:	bf 01 00 00 00       	mov    $0x1,%edi
    c8bb:	e8 2e ba ff ff       	callq  82ee <safe_lshift_func_int8_t_s_u>
    c8c0:	89 c2                	mov    %eax,%edx
    c8c2:	8b 85 14 ed ff ff    	mov    -0x12ec(%rbp),%eax
    c8c8:	09 c2                	or     %eax,%edx
    c8ca:	48 8b 05 ff 32 01 00 	mov    0x132ff(%rip),%rax        # 1fbd0 <g_187>
    c8d1:	88 10                	mov    %dl,(%rax)
    c8d3:	0f b6 00             	movzbl (%rax),%eax
    c8d6:	0f be d8             	movsbl %al,%ebx
    c8d9:	48 8b 85 78 ee ff ff 	mov    -0x1188(%rbp),%rax
    c8e0:	48 8b 00             	mov    (%rax),%rax
    c8e3:	8b 00                	mov    (%rax),%eax
    c8e5:	48 98                	cltq   
    c8e7:	48 89 c6             	mov    %rax,%rsi
    c8ea:	48 8d 3d 43 17 01 00 	lea    0x11743(%rip),%rdi        # 1e034 <g_31>
    c8f1:	e8 80 bb 00 00       	callq  18476 <func_76>
    c8f6:	48 89 85 a0 ec ff ff 	mov    %rax,-0x1360(%rbp)
    c8fd:	48 83 bd a0 ec ff ff 	cmpq   $0x0,-0x1360(%rbp)
    c904:	00 
    c905:	0f 95 c0             	setne  %al
    c908:	0f b6 c0             	movzbl %al,%eax
    c90b:	89 de                	mov    %ebx,%esi
    c90d:	89 c7                	mov    %eax,%edi
    c90f:	e8 fe b8 ff ff       	callq  8212 <safe_mul_func_int8_t_s_s>
    c914:	84 c0                	test   %al,%al
    c916:	74 07                	je     c91f <func_12+0xae7>
    c918:	b8 01 00 00 00       	mov    $0x1,%eax
    c91d:	eb 05                	jmp    c924 <func_12+0xaec>
    c91f:	b8 00 00 00 00       	mov    $0x0,%eax
    c924:	0f b7 c0             	movzwl %ax,%eax
    c927:	be 08 00 00 00       	mov    $0x8,%esi
    c92c:	89 c7                	mov    %eax,%edi
    c92e:	e8 d3 c4 ff ff       	callq  8e06 <safe_lshift_func_uint16_t_u_u>
    c933:	44 89 e6             	mov    %r12d,%esi
    c936:	bf b8 17 bd 34       	mov    $0x34bd17b8,%edi
    c93b:	e8 bd c5 ff ff       	callq  8efd <safe_mod_func_uint32_t_u_u>
    c940:	85 c0                	test   %eax,%eax
    c942:	75 0c                	jne    c950 <func_12+0xb18>
    c944:	0f b7 85 b4 ec ff ff 	movzwl -0x134c(%rbp),%eax
    c94b:	66 85 c0             	test   %ax,%ax
    c94e:	74 07                	je     c957 <func_12+0xb1f>
    c950:	b8 01 00 00 00       	mov    $0x1,%eax
    c955:	eb 05                	jmp    c95c <func_12+0xb24>
    c957:	b8 00 00 00 00       	mov    $0x0,%eax
    c95c:	89 c3                	mov    %eax,%ebx
    c95e:	8b 85 e4 ec ff ff    	mov    -0x131c(%rbp),%eax
    c964:	89 c7                	mov    %eax,%edi
    c966:	e8 3b c5 ff ff       	callq  8ea6 <safe_unary_minus_func_uint32_t_u>
    c96b:	89 de                	mov    %ebx,%esi
    c96d:	89 c7                	mov    %eax,%edi
    c96f:	e8 89 c5 ff ff       	callq  8efd <safe_mod_func_uint32_t_u_u>
    c974:	8b 95 1c f4 ff ff    	mov    -0xbe4(%rbp),%edx
    c97a:	09 c2                	or     %eax,%edx
    c97c:	8b 85 14 ed ff ff    	mov    -0x12ec(%rbp),%eax
    c982:	89 c6                	mov    %eax,%esi
    c984:	89 d7                	mov    %edx,%edi
    c986:	e8 9a c5 ff ff       	callq  8f25 <safe_div_func_uint32_t_u_u>
    c98b:	8b 85 c4 f3 ff ff    	mov    -0xc3c(%rbp),%eax
    c991:	48 63 d0             	movslq %eax,%rdx
    c994:	48 8b 85 08 ee ff ff 	mov    -0x11f8(%rbp),%rax
    c99b:	48 8b 00             	mov    (%rax),%rax
    c99e:	48 8b 1d 03 38 01 00 	mov    0x13803(%rip),%rbx        # 201a8 <g_814>
    c9a5:	48 89 d6             	mov    %rdx,%rsi
    c9a8:	48 89 c7             	mov    %rax,%rdi
    c9ab:	e8 c6 ba 00 00       	callq  18476 <func_76>
    c9b0:	48 89 03             	mov    %rax,(%rbx)
    c9b3:	48 8b 85 80 ee ff ff 	mov    -0x1180(%rbp),%rax
    c9ba:	8b 10                	mov    (%rax),%edx
    c9bc:	48 8b 05 dd 37 01 00 	mov    0x137dd(%rip),%rax        # 201a0 <g_759>
    c9c3:	48 8b 00             	mov    (%rax),%rax
    c9c6:	8b 00                	mov    (%rax),%eax
    c9c8:	09 c2                	or     %eax,%edx
    c9ca:	48 8b 85 80 ee ff ff 	mov    -0x1180(%rbp),%rax
    c9d1:	89 10                	mov    %edx,(%rax)
    c9d3:	0f b7 05 c0 19 01 00 	movzwl 0x119c0(%rip),%eax        # 1e39a <g_536>
    c9da:	e9 66 10 00 00       	jmpq   da45 <func_12+0x1c0d>
    c9df:	0f b6 85 b2 ec ff ff 	movzbl -0x134e(%rbp),%eax
    c9e6:	0f b6 c0             	movzbl %al,%eax
    c9e9:	be 01 00 00 00       	mov    $0x1,%esi
    c9ee:	89 c7                	mov    %eax,%edi
    c9f0:	e8 9e c1 ff ff       	callq  8b93 <safe_mul_func_uint8_t_u_u>
    c9f5:	8b 95 c4 ec ff ff    	mov    -0x133c(%rbp),%edx
    c9fb:	48 8b 05 a6 31 01 00 	mov    0x131a6(%rip),%rax        # 1fba8 <g_60>
    ca02:	0f b7 00             	movzwl (%rax),%eax
    ca05:	98                   	cwtl   
    ca06:	89 d6                	mov    %edx,%esi
    ca08:	89 c7                	mov    %eax,%edi
    ca0a:	e8 54 bb ff ff       	callq  8563 <safe_rshift_func_int16_t_s_u>
    ca0f:	48 8b 05 ea 45 01 00 	mov    0x145ea(%rip),%rax        # 21000 <g_480>
    ca16:	48 8b 95 68 f1 ff ff 	mov    -0xe98(%rbp),%rdx
    ca1d:	48 89 10             	mov    %rdx,(%rax)
    ca20:	48 8b 00             	mov    (%rax),%rax
    ca23:	48 8d 15 c8 45 01 00 	lea    0x145c8(%rip),%rdx        # 20ff2 <g_188>
    ca2a:	48 39 d0             	cmp    %rdx,%rax
    ca2d:	0f 95 c3             	setne  %bl
    ca30:	66 0f be 85 b2 ec ff 	movsbw -0x134e(%rbp),%ax
    ca37:	ff 
    ca38:	0f b7 d0             	movzwl %ax,%edx
    ca3b:	48 8b 05 8e 40 01 00 	mov    0x1408e(%rip),%rax        # 20ad0 <g_1223>
    ca42:	48 8b 00             	mov    (%rax),%rax
    ca45:	66 0d 46 1c          	or     $0x1c46,%ax
    ca49:	89 c1                	mov    %eax,%ecx
    ca4b:	48 8b 85 a8 ec ff ff 	mov    -0x1358(%rbp),%rax
    ca52:	8b 00                	mov    (%rax),%eax
    ca54:	21 c8                	and    %ecx,%eax
    ca56:	0f b7 c0             	movzwl %ax,%eax
    ca59:	89 d6                	mov    %edx,%esi
    ca5b:	89 c7                	mov    %eax,%edi
    ca5d:	e8 9d c2 ff ff       	callq  8cff <safe_add_func_uint16_t_u_u>
    ca62:	0f b7 c0             	movzwl %ax,%eax
    ca65:	48 89 c7             	mov    %rax,%rdi
    ca68:	e8 a9 bd ff ff       	callq  8816 <safe_unary_minus_func_int64_t_s>
    ca6d:	48 83 f8 01          	cmp    $0x1,%rax
    ca71:	0f 9e c0             	setle  %al
    ca74:	31 d8                	xor    %ebx,%eax
    ca76:	0f b6 d0             	movzbl %al,%edx
    ca79:	48 8b 85 80 ee ff ff 	mov    -0x1180(%rbp),%rax
    ca80:	8b 00                	mov    (%rax),%eax
    ca82:	39 c2                	cmp    %eax,%edx
    ca84:	7f 10                	jg     ca96 <func_12+0xc5e>
    ca86:	80 bd b2 ec ff ff 00 	cmpb   $0x0,-0x134e(%rbp)
    ca8d:	74 07                	je     ca96 <func_12+0xc5e>
    ca8f:	ba 01 00 00 00       	mov    $0x1,%edx
    ca94:	eb 05                	jmp    ca9b <func_12+0xc63>
    ca96:	ba 00 00 00 00       	mov    $0x0,%edx
    ca9b:	48 8b 05 3e 31 01 00 	mov    0x1313e(%rip),%rax        # 1fbe0 <g_209>
    caa2:	48 8b 00             	mov    (%rax),%rax
    caa5:	48 8b 00             	mov    (%rax),%rax
    caa8:	89 10                	mov    %edx,(%rax)
    caaa:	e9 6a 01 00 00       	jmpq   cc19 <func_12+0xde1>
    caaf:	48 c7 85 40 ee ff ff 	movq   $0x1,-0x11c0(%rbp)
    cab6:	01 00 00 00 
    caba:	48 8d 05 d9 18 01 00 	lea    0x118d9(%rip),%rax        # 1e39a <g_536>
    cac1:	48 89 85 48 ee ff ff 	mov    %rax,-0x11b8(%rbp)
    cac8:	c7 85 f4 ec ff ff 00 	movl   $0x0,-0x130c(%rbp)
    cacf:	00 00 00 
    cad2:	c7 85 f8 ec ff ff 05 	movl   $0xb6244505,-0x1308(%rbp)
    cad9:	45 24 b6 
    cadc:	c7 85 fc ec ff ff bf 	movl   $0x183ec8bf,-0x1304(%rbp)
    cae3:	c8 3e 18 
    cae6:	c7 85 00 ed ff ff 01 	movl   $0x1,-0x1300(%rbp)
    caed:	00 00 00 
    caf0:	c7 85 d8 ec ff ff 00 	movl   $0x0,-0x1328(%rbp)
    caf7:	00 00 00 
    cafa:	eb 1a                	jmp    cb16 <func_12+0xcde>
    cafc:	8b 85 d8 ec ff ff    	mov    -0x1328(%rbp),%eax
    cb02:	48 98                	cltq   
    cb04:	c7 84 85 30 f0 ff ff 	movl   $0x18a85c7f,-0xfd0(%rbp,%rax,4)
    cb0b:	7f 5c a8 18 
    cb0f:	83 85 d8 ec ff ff 01 	addl   $0x1,-0x1328(%rbp)
    cb16:	83 bd d8 ec ff ff 01 	cmpl   $0x1,-0x1328(%rbp)
    cb1d:	7e dd                	jle    cafc <func_12+0xcc4>
    cb1f:	48 8b 05 f2 3f 01 00 	mov    0x13ff2(%rip),%rax        # 20b18 <g_1230>
    cb26:	48 8b 00             	mov    (%rax),%rax
    cb29:	48 8d 95 10 f3 ff ff 	lea    -0xcf0(%rbp),%rdx
    cb30:	48 81 c2 b8 00 00 00 	add    $0xb8,%rdx
    cb37:	48 89 10             	mov    %rdx,(%rax)
    cb3a:	c7 85 c4 ec ff ff f7 	movl   $0xfffffff7,-0x133c(%rbp)
    cb41:	ff ff ff 
    cb44:	e9 c3 00 00 00       	jmpq   cc0c <func_12+0xdd4>
    cb49:	48 b8 2a ba 29 0c 7f 	movabs $0x520717f0c29ba2a,%rax
    cb50:	71 20 05 
    cb53:	48 89 85 50 ee ff ff 	mov    %rax,-0x11b0(%rbp)
    cb5a:	c7 85 04 ed ff ff f7 	movl   $0x12ab2ef7,-0x12fc(%rbp)
    cb61:	2e ab 12 
    cb64:	c7 85 08 ed ff ff f3 	movl   $0x6b1d28f3,-0x12f8(%rbp)
    cb6b:	28 1d 6b 
    cb6e:	c7 85 0c ed ff ff 08 	movl   $0x8,-0x12f4(%rbp)
    cb75:	00 00 00 
    cb78:	48 8d 85 80 f4 ff ff 	lea    -0xb80(%rbp),%rax
    cb7f:	48 8d 15 ba c6 00 00 	lea    0xc6ba(%rip),%rdx        # 19240 <g_314+0x19a>
    cb86:	b9 6c 00 00 00       	mov    $0x6c,%ecx
    cb8b:	48 89 c7             	mov    %rax,%rdi
    cb8e:	48 89 d6             	mov    %rdx,%rsi
    cb91:	f3 48 a5             	rep movsq %ds:(%rsi),%es:(%rdi)
    cb94:	c7 05 92 14 01 00 00 	movl   $0x0,0x11492(%rip)        # 1e030 <g_9>
    cb9b:	00 00 00 
    cb9e:	eb 37                	jmp    cbd7 <func_12+0xd9f>
    cba0:	48 c7 85 58 ee ff ff 	movq   $0x0,-0x11a8(%rbp)
    cba7:	00 00 00 00 
    cbab:	48 8d 05 66 36 01 00 	lea    0x13666(%rip),%rax        # 20218 <g_840+0x58>
    cbb2:	48 89 85 60 ee ff ff 	mov    %rax,-0x11a0(%rbp)
    cbb9:	8b 05 71 14 01 00    	mov    0x11471(%rip),%eax        # 1e030 <g_9>
    cbbf:	0f b6 c0             	movzbl %al,%eax
    cbc2:	be 03 00 00 00       	mov    $0x3,%esi
    cbc7:	89 c7                	mov    %eax,%edi
    cbc9:	e8 8c bf ff ff       	callq  8b5a <safe_add_func_uint8_t_u_u>
    cbce:	0f b6 c0             	movzbl %al,%eax
    cbd1:	89 05 59 14 01 00    	mov    %eax,0x11459(%rip)        # 1e030 <g_9>
    cbd7:	8b 05 53 14 01 00    	mov    0x11453(%rip),%eax        # 1e030 <g_9>
    cbdd:	83 f8 09             	cmp    $0x9,%eax
    cbe0:	75 be                	jne    cba0 <func_12+0xd68>
    cbe2:	48 8b 05 47 18 01 00 	mov    0x11847(%rip),%rax        # 1e430 <g_1395>
    cbe9:	48 83 c0 01          	add    $0x1,%rax
    cbed:	48 89 05 3c 18 01 00 	mov    %rax,0x1183c(%rip)        # 1e430 <g_1395>
    cbf4:	8b 85 c4 ec ff ff    	mov    -0x133c(%rbp),%eax
    cbfa:	be 02 00 00 00       	mov    $0x2,%esi
    cbff:	89 c7                	mov    %eax,%edi
    cc01:	e8 b2 c2 ff ff       	callq  8eb8 <safe_add_func_uint32_t_u_u>
    cc06:	89 85 c4 ec ff ff    	mov    %eax,-0x133c(%rbp)
    cc0c:	83 bd c4 ec ff ff 0d 	cmpl   $0xd,-0x133c(%rbp)
    cc13:	0f 8f 30 ff ff ff    	jg     cb49 <func_12+0xd11>
    cc19:	48 8b 05 08 3f 01 00 	mov    0x13f08(%rip),%rax        # 20b28 <g_1399>
    cc20:	48 8b 95 d8 ed ff ff 	mov    -0x1228(%rbp),%rdx
    cc27:	48 89 10             	mov    %rdx,(%rax)
    cc2a:	48 8b 05 bf 2f 01 00 	mov    0x12fbf(%rip),%rax        # 1fbf0 <g_275>
    cc31:	8b 00                	mov    (%rax),%eax
    cc33:	41 89 c5             	mov    %eax,%r13d
    cc36:	8b 85 bc ec ff ff    	mov    -0x1344(%rbp),%eax
    cc3c:	0f b7 d8             	movzwl %ax,%ebx
    cc3f:	44 8b a5 bc ec ff ff 	mov    -0x1344(%rbp),%r12d
    cc46:	83 bd e4 ec ff ff 00 	cmpl   $0x0,-0x131c(%rbp)
    cc4d:	0f 84 88 00 00 00    	je     ccdb <func_12+0xea3>
    cc53:	8b 85 1c f4 ff ff    	mov    -0xbe4(%rbp),%eax
    cc59:	48 63 d0             	movslq %eax,%rdx
    cc5c:	8b 8d 1c f4 ff ff    	mov    -0xbe4(%rbp),%ecx
    cc62:	8b 85 bc ec ff ff    	mov    -0x1344(%rbp),%eax
    cc68:	39 c1                	cmp    %eax,%ecx
    cc6a:	74 0c                	je     cc78 <func_12+0xe40>
    cc6c:	48 b8 19 85 0e 0e 10 	movabs $0x5a36a1100e0e8519,%rax
    cc73:	a1 36 5a 
    cc76:	eb 0a                	jmp    cc82 <func_12+0xe4a>
    cc78:	48 b8 18 85 0e 0e 10 	movabs $0x5a36a1100e0e8518,%rax
    cc7f:	a1 36 5a 
    cc82:	48 89 d6             	mov    %rdx,%rsi
    cc85:	48 89 c7             	mov    %rax,%rdi
    cc88:	e8 be c3 ff ff       	callq  904b <safe_sub_func_uint64_t_u_u>
    cc8d:	48 be c5 4a 4c 72 67 	movabs $0x266de667724c4ac5,%rsi
    cc94:	e6 6d 26 
    cc97:	48 89 c7             	mov    %rax,%rdi
    cc9a:	e8 e1 c3 ff ff       	callq  9080 <safe_mod_func_uint64_t_u_u>
    cc9f:	89 c2                	mov    %eax,%edx
    cca1:	48 c7 85 30 f2 ff ff 	movq   $0x0,-0xdd0(%rbp)
    cca8:	00 00 00 00 
    ccac:	48 8b 85 30 f2 ff ff 	mov    -0xdd0(%rbp),%rax
    ccb3:	48 85 c0             	test   %rax,%rax
    ccb6:	0f 95 c0             	setne  %al
    ccb9:	0f b6 c0             	movzbl %al,%eax
    ccbc:	89 d6                	mov    %edx,%esi
    ccbe:	89 c7                	mov    %eax,%edi
    ccc0:	e8 60 c2 ff ff       	callq  8f25 <safe_div_func_uint32_t_u_u>
    ccc5:	48 8b 05 dc 2e 01 00 	mov    0x12edc(%rip),%rax        # 1fba8 <g_60>
    cccc:	0f b7 00             	movzwl (%rax),%eax
    cccf:	66 85 c0             	test   %ax,%ax
    ccd2:	74 07                	je     ccdb <func_12+0xea3>
    ccd4:	b8 01 00 00 00       	mov    $0x1,%eax
    ccd9:	eb 05                	jmp    cce0 <func_12+0xea8>
    ccdb:	b8 00 00 00 00       	mov    $0x0,%eax
    cce0:	48 98                	cltq   
    cce2:	be 01 00 00 00       	mov    $0x1,%esi
    cce7:	48 89 c7             	mov    %rax,%rdi
    ccea:	e8 3f c3 ff ff       	callq  902e <safe_add_func_uint64_t_u_u>
    ccef:	0f be c0             	movsbl %al,%eax
    ccf2:	44 89 e6             	mov    %r12d,%esi
    ccf5:	89 c7                	mov    %eax,%edi
    ccf7:	e8 39 b6 ff ff       	callq  8335 <safe_rshift_func_int8_t_s_s>
    ccfc:	be 83 61 00 00       	mov    $0x6183,%esi
    cd01:	bf 1a db ff ff       	mov    $0xffffdb1a,%edi
    cd06:	e8 0b b7 ff ff       	callq  8416 <safe_mod_func_int16_t_s_s>
    cd0b:	8b 85 e4 ec ff ff    	mov    -0x131c(%rbp),%eax
    cd11:	89 c2                	mov    %eax,%edx
    cd13:	48 8b 05 a6 16 01 00 	mov    0x116a6(%rip),%rax        # 1e3c0 <g_1179>
    cd1a:	21 c2                	and    %eax,%edx
    cd1c:	48 8b 85 28 ee ff ff 	mov    -0x11d8(%rbp),%rax
    cd23:	66 89 10             	mov    %dx,(%rax)
    cd26:	48 8b 85 28 ee ff ff 	mov    -0x11d8(%rbp),%rax
    cd2d:	0f b7 00             	movzwl (%rax),%eax
    cd30:	0f bf d0             	movswl %ax,%edx
    cd33:	8b 85 bc ec ff ff    	mov    -0x1344(%rbp),%eax
    cd39:	98                   	cwtl   
    cd3a:	89 d6                	mov    %edx,%esi
    cd3c:	89 c7                	mov    %eax,%edi
    cd3e:	e8 d3 b6 ff ff       	callq  8416 <safe_mod_func_int16_t_s_s>
    cd43:	ba 01 00 00 00       	mov    $0x1,%edx
    cd48:	48 8b 05 81 2e 01 00 	mov    0x12e81(%rip),%rax        # 1fbd0 <g_187>
    cd4f:	0f b6 00             	movzbl (%rax),%eax
    cd52:	0f be c0             	movsbl %al,%eax
    cd55:	39 c2                	cmp    %eax,%edx
    cd57:	0f 9c c0             	setl   %al
    cd5a:	0f b6 c0             	movzbl %al,%eax
    cd5d:	39 85 e4 ec ff ff    	cmp    %eax,-0x131c(%rbp)
    cd63:	0f 9d c0             	setge  %al
    cd66:	0f b6 c0             	movzbl %al,%eax
    cd69:	89 de                	mov    %ebx,%esi
    cd6b:	89 c7                	mov    %eax,%edi
    cd6d:	e8 8d bf ff ff       	callq  8cff <safe_add_func_uint16_t_u_u>
    cd72:	0f b7 d0             	movzwl %ax,%edx
    cd75:	8b 85 38 f3 ff ff    	mov    -0xcc8(%rbp),%eax
    cd7b:	48 98                	cltq   
    cd7d:	48 89 d6             	mov    %rdx,%rsi
    cd80:	48 89 c7             	mov    %rax,%rdi
    cd83:	e8 b9 ba ff ff       	callq  8841 <safe_add_func_int64_t_s_s>
    cd88:	44 09 e8             	or     %r13d,%eax
    cd8b:	0f be c0             	movsbl %al,%eax
    cd8e:	be 04 00 00 00       	mov    $0x4,%esi
    cd93:	89 c7                	mov    %eax,%edi
    cd95:	e8 54 b5 ff ff       	callq  82ee <safe_lshift_func_int8_t_s_u>
    cd9a:	48 8b 05 77 3d 01 00 	mov    0x13d77(%rip),%rax        # 20b18 <g_1230>
    cda1:	48 8b 00             	mov    (%rax),%rax
    cda4:	48 8b 00             	mov    (%rax),%rax
    cda7:	8b 95 1c f4 ff ff    	mov    -0xbe4(%rbp),%edx
    cdad:	89 10                	mov    %edx,(%rax)
    cdaf:	48 8b 85 30 ee ff ff 	mov    -0x11d0(%rbp),%rax
    cdb6:	8b 00                	mov    (%rax),%eax
    cdb8:	8d 50 ff             	lea    -0x1(%rax),%edx
    cdbb:	48 8b 85 30 ee ff ff 	mov    -0x11d0(%rbp),%rax
    cdc2:	89 10                	mov    %edx,(%rax)
    cdc4:	48 8b 85 30 ee ff ff 	mov    -0x11d0(%rbp),%rax
    cdcb:	44 8b 20             	mov    (%rax),%r12d
    cdce:	8b 9d 50 f4 ff ff    	mov    -0xbb0(%rbp),%ebx
    cdd4:	8b 85 50 f3 ff ff    	mov    -0xcb0(%rbp),%eax
    cdda:	89 c2                	mov    %eax,%edx
    cddc:	48 8b 05 c5 2d 01 00 	mov    0x12dc5(%rip),%rax        # 1fba8 <g_60>
    cde3:	0f b7 00             	movzwl (%rax),%eax
    cde6:	66 3d e2 7c          	cmp    $0x7ce2,%ax
    cdea:	0f 9f c0             	setg   %al
    cded:	0f b6 c0             	movzbl %al,%eax
    cdf0:	89 d6                	mov    %edx,%esi
    cdf2:	89 c7                	mov    %eax,%edi
    cdf4:	e8 73 b5 ff ff       	callq  836c <safe_rshift_func_int8_t_s_u>
    cdf9:	0f be c0             	movsbl %al,%eax
    cdfc:	89 de                	mov    %ebx,%esi
    cdfe:	89 c7                	mov    %eax,%edi
    ce00:	e8 8d b6 ff ff       	callq  8492 <safe_lshift_func_int16_t_s_s>
    ce05:	66 83 f8 fc          	cmp    $0xfffc,%ax
    ce09:	0f 9c c0             	setl   %al
    ce0c:	0f b6 c0             	movzbl %al,%eax
    ce0f:	be 75 00 00 00       	mov    $0x75,%esi
    ce14:	89 c7                	mov    %eax,%edi
    ce16:	e8 3f bd ff ff       	callq  8b5a <safe_add_func_uint8_t_u_u>
    ce1b:	48 8b 95 28 ee ff ff 	mov    -0x11d8(%rbp),%rdx
    ce22:	0f b7 12             	movzwl (%rdx),%edx
    ce25:	0f b6 c0             	movzbl %al,%eax
    ce28:	09 c2                	or     %eax,%edx
    ce2a:	48 8b 85 28 ee ff ff 	mov    -0x11d8(%rbp),%rax
    ce31:	66 89 10             	mov    %dx,(%rax)
    ce34:	48 8b 85 28 ee ff ff 	mov    -0x11d8(%rbp),%rax
    ce3b:	0f b7 00             	movzwl (%rax),%eax
    ce3e:	0f b7 d8             	movzwl %ax,%ebx
    ce41:	48 8b 05 80 2d 01 00 	mov    0x12d80(%rip),%rax        # 1fbc8 <g_177>
    ce48:	0f b6 00             	movzbl (%rax),%eax
    ce4b:	0f b6 c0             	movzbl %al,%eax
    ce4e:	89 c6                	mov    %eax,%esi
    ce50:	bf fc 00 00 00       	mov    $0xfc,%edi
    ce55:	e8 39 bd ff ff       	callq  8b93 <safe_mul_func_uint8_t_u_u>
    ce5a:	44 0f b6 e8          	movzbl %al,%r13d
    ce5e:	8b 85 68 f3 ff ff    	mov    -0xc98(%rbp),%eax
    ce64:	0f b7 c0             	movzwl %ax,%eax
    ce67:	be 05 00 00 00       	mov    $0x5,%esi
    ce6c:	89 c7                	mov    %eax,%edi
    ce6e:	e8 07 c0 ff ff       	callq  8e7a <safe_rshift_func_uint16_t_u_u>
    ce73:	0f be d0             	movsbl %al,%edx
    ce76:	48 8b 0d 53 2d 01 00 	mov    0x12d53(%rip),%rcx        # 1fbd0 <g_187>
    ce7d:	48 8b 05 4c 2d 01 00 	mov    0x12d4c(%rip),%rax        # 1fbd0 <g_187>
    ce84:	0f b6 09             	movzbl (%rcx),%ecx
    ce87:	88 08                	mov    %cl,(%rax)
    ce89:	0f b6 00             	movzbl (%rax),%eax
    ce8c:	0f be c0             	movsbl %al,%eax
    ce8f:	89 d6                	mov    %edx,%esi
    ce91:	89 c7                	mov    %eax,%edi
    ce93:	e8 d2 b3 ff ff       	callq  826a <safe_div_func_int8_t_s_s>
    ce98:	0f be c0             	movsbl %al,%eax
    ce9b:	41 39 c5             	cmp    %eax,%r13d
    ce9e:	7d 09                	jge    cea9 <func_12+0x1071>
    cea0:	83 bd cc ec ff ff 00 	cmpl   $0x0,-0x1334(%rbp)
    cea7:	74 07                	je     ceb0 <func_12+0x1078>
    cea9:	b8 01 00 00 00       	mov    $0x1,%eax
    ceae:	eb 05                	jmp    ceb5 <func_12+0x107d>
    ceb0:	b8 00 00 00 00       	mov    $0x0,%eax
    ceb5:	98                   	cwtl   
    ceb6:	89 de                	mov    %ebx,%esi
    ceb8:	89 c7                	mov    %eax,%edi
    ceba:	e8 22 b6 ff ff       	callq  84e1 <safe_lshift_func_int16_t_s_u>
    cebf:	66 85 c0             	test   %ax,%ax
    cec2:	74 10                	je     ced4 <func_12+0x109c>
    cec4:	83 bd e4 ec ff ff 00 	cmpl   $0x0,-0x131c(%rbp)
    cecb:	74 07                	je     ced4 <func_12+0x109c>
    cecd:	b8 01 00 00 00       	mov    $0x1,%eax
    ced2:	eb 05                	jmp    ced9 <func_12+0x10a1>
    ced4:	b8 00 00 00 00       	mov    $0x0,%eax
    ced9:	44 31 e0             	xor    %r12d,%eax
    cedc:	83 f8 28             	cmp    $0x28,%eax
    cedf:	0f 86 9f 07 00 00    	jbe    d684 <func_12+0x184c>
    cee5:	48 c7 85 b8 ee ff ff 	movq   $0xfffffffffffffff6,-0x1148(%rbp)
    ceec:	f6 ff ff ff 
    cef0:	c7 85 38 ed ff ff 75 	movl   $0xdfaee075,-0x12c8(%rbp)
    cef7:	e0 ae df 
    cefa:	c7 85 3c ed ff ff 9b 	movl   $0xbe6c0f9b,-0x12c4(%rbp)
    cf01:	0f 6c be 
    cf04:	c7 85 40 ed ff ff 05 	movl   $0x5,-0x12c0(%rbp)
    cf0b:	00 00 00 
    cf0e:	c7 85 44 ed ff ff 8f 	movl   $0xbaee2e8f,-0x12bc(%rbp)
    cf15:	2e ee ba 
    cf18:	c7 85 48 ed ff ff 09 	movl   $0x9,-0x12b8(%rbp)
    cf1f:	00 00 00 
    cf22:	c7 85 50 ef ff ff 83 	movl   $0xc77de083,-0x10b0(%rbp)
    cf29:	e0 7d c7 
    cf2c:	c7 85 54 ef ff ff 83 	movl   $0xc77de083,-0x10ac(%rbp)
    cf33:	e0 7d c7 
    cf36:	c7 85 58 ef ff ff 83 	movl   $0xc77de083,-0x10a8(%rbp)
    cf3d:	e0 7d c7 
    cf40:	c7 85 5c ef ff ff 83 	movl   $0xc77de083,-0x10a4(%rbp)
    cf47:	e0 7d c7 
    cf4a:	c7 85 60 ef ff ff 83 	movl   $0xc77de083,-0x10a0(%rbp)
    cf51:	e0 7d c7 
    cf54:	c7 85 64 ef ff ff 83 	movl   $0xc77de083,-0x109c(%rbp)
    cf5b:	e0 7d c7 
    cf5e:	c7 85 68 ef ff ff 83 	movl   $0xc77de083,-0x1098(%rbp)
    cf65:	e0 7d c7 
    cf68:	c7 85 6c ef ff ff 83 	movl   $0xc77de083,-0x1094(%rbp)
    cf6f:	e0 7d c7 
    cf72:	c7 85 70 ef ff ff 83 	movl   $0xc77de083,-0x1090(%rbp)
    cf79:	e0 7d c7 
    cf7c:	66 c7 85 b6 ec ff ff 	movw   $0xe2d8,-0x134a(%rbp)
    cf83:	d8 e2 
    cf85:	48 c7 05 10 14 01 00 	movq   $0xffffffffffffffec,0x11410(%rip)        # 1e3a0 <g_597>
    cf8c:	ec ff ff ff 
    cf90:	e9 d9 06 00 00       	jmpq   d66e <func_12+0x1836>
    cf95:	48 c7 85 c0 ee ff ff 	movq   $0x0,-0x1140(%rbp)
    cf9c:	00 00 00 00 
    cfa0:	48 c7 85 c8 ee ff ff 	movq   $0x0,-0x1138(%rbp)
    cfa7:	00 00 00 00 
    cfab:	c7 85 4c ed ff ff a2 	movl   $0xcbc3eea2,-0x12b4(%rbp)
    cfb2:	ee c3 cb 
    cfb5:	c7 85 50 ed ff ff de 	movl   $0x41b762de,-0x12b0(%rbp)
    cfbc:	62 b7 41 
    cfbf:	c7 85 54 ed ff ff fe 	movl   $0xfffffffe,-0x12ac(%rbp)
    cfc6:	ff ff ff 
    cfc9:	c7 85 58 ed ff ff 00 	movl   $0x0,-0x12a8(%rbp)
    cfd0:	00 00 00 
    cfd3:	48 8d 85 80 f4 ff ff 	lea    -0xb80(%rbp),%rax
    cfda:	48 8d 15 bf c5 00 00 	lea    0xc5bf(%rip),%rdx        # 195a0 <g_314+0x4fa>
    cfe1:	b9 69 00 00 00       	mov    $0x69,%ecx
    cfe6:	48 89 c7             	mov    %rax,%rdi
    cfe9:	48 89 d6             	mov    %rdx,%rsi
    cfec:	f3 48 a5             	rep movsq %ds:(%rsi),%es:(%rdi)
    cfef:	66 c7 85 b8 ec ff ff 	movw   $0x0,-0x1348(%rbp)
    cff6:	00 00 
    cff8:	48 8b 05 a1 31 01 00 	mov    0x131a1(%rip),%rax        # 201a0 <g_759>
    cfff:	48 c7 00 00 00 00 00 	movq   $0x0,(%rax)
    d006:	48 8b 05 93 2b 01 00 	mov    0x12b93(%rip),%rax        # 1fba0 <g_8>
    d00d:	8b 08                	mov    (%rax),%ecx
    d00f:	48 8b 15 ca 2b 01 00 	mov    0x12bca(%rip),%rdx        # 1fbe0 <g_209>
    d016:	48 8b 12             	mov    (%rdx),%rdx
    d019:	48 8b 12             	mov    (%rdx),%rdx
    d01c:	8b 12                	mov    (%rdx),%edx
    d01e:	09 ca                	or     %ecx,%edx
    d020:	89 10                	mov    %edx,(%rax)
    d022:	c7 85 cc ec ff ff fb 	movl   $0xfffffffb,-0x1334(%rbp)
    d029:	ff ff ff 
    d02c:	e9 9b 05 00 00       	jmpq   d5cc <func_12+0x1794>
    d031:	48 c7 85 d0 ee ff ff 	movq   $0x2,-0x1130(%rbp)
    d038:	02 00 00 00 
    d03c:	48 8d 05 76 13 01 00 	lea    0x11376(%rip),%rax        # 1e3b9 <g_1011+0x3>
    d043:	48 89 85 d8 ee ff ff 	mov    %rax,-0x1128(%rbp)
    d04a:	48 c7 85 e0 ee ff ff 	movq   $0x5,-0x1120(%rbp)
    d051:	05 00 00 00 
    d055:	c7 85 f0 ee ff ff 82 	movl   $0x82828282,-0x1110(%rbp)
    d05c:	82 82 82 
    d05f:	c7 85 dc ec ff ff 00 	movl   $0x0,-0x1324(%rbp)
    d066:	00 00 00 
    d069:	eb 1a                	jmp    d085 <func_12+0x124d>
    d06b:	8b 85 dc ec ff ff    	mov    -0x1324(%rbp),%eax
    d071:	48 98                	cltq   
    d073:	c7 84 85 f4 ee ff ff 	movl   $0x6,-0x110c(%rbp,%rax,4)
    d07a:	06 00 00 00 
    d07e:	83 85 dc ec ff ff 01 	addl   $0x1,-0x1324(%rbp)
    d085:	83 bd dc ec ff ff 02 	cmpl   $0x2,-0x1324(%rbp)
    d08c:	7e dd                	jle    d06b <func_12+0x1233>
    d08e:	48 8b 85 c0 ee ff ff 	mov    -0x1140(%rbp),%rax
    d095:	0f b7 d8             	movzwl %ax,%ebx
    d098:	8b 05 e2 d8 00 00    	mov    0xd8e2(%rip),%eax        # 1a980 <l_1453.4361+0x10>
    d09e:	41 89 c5             	mov    %eax,%r13d
    d0a1:	8b 05 d5 d8 00 00    	mov    0xd8d5(%rip),%eax        # 1a97c <l_1453.4361+0xc>
    d0a7:	41 89 c6             	mov    %eax,%r14d
    d0aa:	48 83 bd c8 ee ff ff 	cmpq   $0x0,-0x1138(%rbp)
    d0b1:	00 
    d0b2:	41 0f 95 c7          	setne  %r15b
    d0b6:	48 8b 05 eb 2a 01 00 	mov    0x12aeb(%rip),%rax        # 1fba8 <g_60>
    d0bd:	0f b7 00             	movzwl (%rax),%eax
    d0c0:	44 0f bf e0          	movswl %ax,%r12d
    d0c4:	48 8b 85 d0 ee ff ff 	mov    -0x1130(%rbp),%rax
    d0cb:	0f b7 c0             	movzwl %ax,%eax
    d0ce:	be 2b 15 00 00       	mov    $0x152b,%esi
    d0d3:	89 c7                	mov    %eax,%edi
    d0d5:	e8 25 bc ff ff       	callq  8cff <safe_add_func_uint16_t_u_u>
    d0da:	0f b7 c0             	movzwl %ax,%eax
    d0dd:	44 89 e6             	mov    %r12d,%esi
    d0e0:	89 c7                	mov    %eax,%edi
    d0e2:	e8 d7 bc ff ff       	callq  8dbe <safe_lshift_func_uint16_t_u_s>
    d0e7:	89 c2                	mov    %eax,%edx
    d0e9:	48 8b 85 d0 ee ff ff 	mov    -0x1130(%rbp),%rax
    d0f0:	09 d0                	or     %edx,%eax
    d0f2:	0f b6 c0             	movzbl %al,%eax
    d0f5:	be 04 00 00 00       	mov    $0x4,%esi
    d0fa:	89 c7                	mov    %eax,%edi
    d0fc:	e8 04 bb ff ff       	callq  8c05 <safe_lshift_func_uint8_t_u_s>
    d101:	84 c0                	test   %al,%al
    d103:	0f 94 c0             	sete   %al
    d106:	44 31 f8             	xor    %r15d,%eax
    d109:	0f b6 c0             	movzbl %al,%eax
    d10c:	4c 89 f6             	mov    %r14,%rsi
    d10f:	48 89 c7             	mov    %rax,%rdi
    d112:	e8 91 b7 ff ff       	callq  88a8 <safe_sub_func_int64_t_s_s>
    d117:	c7 85 4c ed ff ff 3c 	movl   $0x3c,-0x12b4(%rbp)
    d11e:	00 00 00 
    d121:	8b 85 4c ed ff ff    	mov    -0x12b4(%rbp),%eax
    d127:	0f be d0             	movsbl %al,%edx
    d12a:	48 8b 05 9f 2a 01 00 	mov    0x12a9f(%rip),%rax        # 1fbd0 <g_187>
    d131:	0f b6 00             	movzbl (%rax),%eax
    d134:	0f be c0             	movsbl %al,%eax
    d137:	89 d6                	mov    %edx,%esi
    d139:	89 c7                	mov    %eax,%edi
    d13b:	e8 b2 b0 ff ff       	callq  81f2 <safe_sub_func_int8_t_s_s>
    d140:	84 c0                	test   %al,%al
    d142:	74 0d                	je     d151 <func_12+0x1319>
    d144:	48 8b 05 5d 2a 01 00 	mov    0x12a5d(%rip),%rax        # 1fba8 <g_60>
    d14b:	0f b7 00             	movzwl (%rax),%eax
    d14e:	66 85 c0             	test   %ax,%ax
    d151:	44 89 ee             	mov    %r13d,%esi
    d154:	bf 01 00 00 00       	mov    $0x1,%edi
    d159:	e8 43 b1 ff ff       	callq  82a1 <safe_lshift_func_int8_t_s_s>
    d15e:	8b 85 e4 ec ff ff    	mov    -0x131c(%rbp),%eax
    d164:	89 85 30 f4 ff ff    	mov    %eax,-0xbd0(%rbp)
    d16a:	8b 85 30 f4 ff ff    	mov    -0xbd0(%rbp),%eax
    d170:	85 c0                	test   %eax,%eax
    d172:	0f 9f c0             	setg   %al
    d175:	0f b6 d0             	movzbl %al,%edx
    d178:	8b 05 0a d8 00 00    	mov    0xd80a(%rip),%eax        # 1a988 <l_1453.4361+0x18>
    d17e:	39 c2                	cmp    %eax,%edx
    d180:	0f 93 c0             	setae  %al
    d183:	0f b6 d0             	movzbl %al,%edx
    d186:	48 8b 85 c0 ee ff ff 	mov    -0x1140(%rbp),%rax
    d18d:	0f b6 c0             	movzbl %al,%eax
    d190:	89 d6                	mov    %edx,%esi
    d192:	89 c7                	mov    %eax,%edi
    d194:	e8 df b9 ff ff       	callq  8b78 <safe_sub_func_uint8_t_u_u>
    d199:	0f b6 c0             	movzbl %al,%eax
    d19c:	39 85 e4 ec ff ff    	cmp    %eax,-0x131c(%rbp)
    d1a2:	7e 07                	jle    d1ab <func_12+0x1373>
    d1a4:	b8 01 00 00 00       	mov    $0x1,%eax
    d1a9:	eb 05                	jmp    d1b0 <func_12+0x1378>
    d1ab:	b8 00 00 00 00       	mov    $0x0,%eax
    d1b0:	0f b7 c0             	movzwl %ax,%eax
    d1b3:	89 de                	mov    %ebx,%esi
    d1b5:	89 c7                	mov    %eax,%edi
    d1b7:	e8 d2 bb ff ff       	callq  8d8e <safe_div_func_uint16_t_u_u>
    d1bc:	0f be d0             	movsbl %al,%edx
    d1bf:	48 8b 05 02 2a 01 00 	mov    0x12a02(%rip),%rax        # 1fbc8 <g_177>
    d1c6:	0f b6 00             	movzbl (%rax),%eax
    d1c9:	0f be c0             	movsbl %al,%eax
    d1cc:	89 d6                	mov    %edx,%esi
    d1ce:	89 c7                	mov    %eax,%edi
    d1d0:	e8 ff af ff ff       	callq  81d4 <safe_add_func_int8_t_s_s>
    d1d5:	48 8b 85 d0 ee ff ff 	mov    -0x1130(%rbp),%rax
    d1dc:	0f be d0             	movsbl %al,%edx
    d1df:	8b 05 a3 d7 00 00    	mov    0xd7a3(%rip),%eax        # 1a988 <l_1453.4361+0x18>
    d1e5:	0f be c0             	movsbl %al,%eax
    d1e8:	89 d6                	mov    %edx,%esi
    d1ea:	89 c7                	mov    %eax,%edi
    d1ec:	e8 e3 af ff ff       	callq  81d4 <safe_add_func_int8_t_s_s>
    d1f1:	48 8b 15 d8 29 01 00 	mov    0x129d8(%rip),%rdx        # 1fbd0 <g_187>
    d1f8:	0f b6 12             	movzbl (%rdx),%edx
    d1fb:	38 d0                	cmp    %dl,%al
    d1fd:	7f 59                	jg     d258 <func_12+0x1420>
    d1ff:	48 b8 89 e2 05 ab 2a 	movabs $0x38b5942aab05e289,%rax
    d206:	94 b5 38 
    d209:	48 89 85 e8 ee ff ff 	mov    %rax,-0x1118(%rbp)
    d210:	48 8b 05 d1 29 01 00 	mov    0x129d1(%rip),%rax        # 1fbe8 <g_208>
    d217:	48 8b 00             	mov    (%rax),%rax
    d21a:	48 8b 00             	mov    (%rax),%rax
    d21d:	48 8b 00             	mov    (%rax),%rax
    d220:	8b 00                	mov    (%rax),%eax
    d222:	89 c2                	mov    %eax,%edx
    d224:	48 8b 85 e8 ee ff ff 	mov    -0x1118(%rbp),%rax
    d22b:	31 c2                	xor    %eax,%edx
    d22d:	48 8b 05 b4 29 01 00 	mov    0x129b4(%rip),%rax        # 1fbe8 <g_208>
    d234:	48 8b 00             	mov    (%rax),%rax
    d237:	48 8b 00             	mov    (%rax),%rax
    d23a:	48 8b 00             	mov    (%rax),%rax
    d23d:	89 10                	mov    %edx,(%rax)
    d23f:	48 8b 05 72 29 01 00 	mov    0x12972(%rip),%rax        # 1fbb8 <g_133>
    d246:	48 8b 00             	mov    (%rax),%rax
    d249:	8b 00                	mov    (%rax),%eax
    d24b:	85 c0                	test   %eax,%eax
    d24d:	0f 84 9d 02 00 00    	je     d4f0 <func_12+0x16b8>
    d253:	e9 6d 03 00 00       	jmpq   d5c5 <func_12+0x178d>
    d258:	c7 85 5c ed ff ff 88 	movl   $0xead6bd88,-0x12a4(%rbp)
    d25f:	bd d6 ea 
    d262:	c7 85 e0 ec ff ff 00 	movl   $0x0,-0x1320(%rbp)
    d269:	00 00 00 
    d26c:	eb 1b                	jmp    d289 <func_12+0x1451>
    d26e:	8b 85 e0 ec ff ff    	mov    -0x1320(%rbp),%eax
    d274:	48 98                	cltq   
    d276:	48 c7 84 c5 30 f0 ff 	movq   $0x0,-0xfd0(%rbp,%rax,8)
    d27d:	ff 00 00 00 00 
    d282:	83 85 e0 ec ff ff 01 	addl   $0x1,-0x1320(%rbp)
    d289:	83 bd e0 ec ff ff 04 	cmpl   $0x4,-0x1320(%rbp)
    d290:	7e dc                	jle    d26e <func_12+0x1436>
    d292:	c7 85 e0 ec ff ff 00 	movl   $0x0,-0x1320(%rbp)
    d299:	00 00 00 
    d29c:	eb 1e                	jmp    d2bc <func_12+0x1484>
    d29e:	8b 85 e0 ec ff ff    	mov    -0x1320(%rbp),%eax
    d2a4:	48 98                	cltq   
    d2a6:	48 8d 15 83 11 01 00 	lea    0x11183(%rip),%rdx        # 1e430 <g_1395>
    d2ad:	48 89 94 c5 10 ef ff 	mov    %rdx,-0x10f0(%rbp,%rax,8)
    d2b4:	ff 
    d2b5:	83 85 e0 ec ff ff 01 	addl   $0x1,-0x1320(%rbp)
    d2bc:	83 bd e0 ec ff ff 02 	cmpl   $0x2,-0x1320(%rbp)
    d2c3:	7e d9                	jle    d29e <func_12+0x1466>
    d2c5:	c7 85 e0 ec ff ff 00 	movl   $0x0,-0x1320(%rbp)
    d2cc:	00 00 00 
    d2cf:	eb 1a                	jmp    d2eb <func_12+0x14b3>
    d2d1:	8b 85 e0 ec ff ff    	mov    -0x1320(%rbp),%eax
    d2d7:	48 98                	cltq   
    d2d9:	c7 84 85 30 ef ff ff 	movl   $0xa7fbb515,-0x10d0(%rbp,%rax,4)
    d2e0:	15 b5 fb a7 
    d2e4:	83 85 e0 ec ff ff 01 	addl   $0x1,-0x1320(%rbp)
    d2eb:	83 bd e0 ec ff ff 05 	cmpl   $0x5,-0x1320(%rbp)
    d2f2:	7e dd                	jle    d2d1 <func_12+0x1499>
    d2f4:	48 8b 05 dd 28 01 00 	mov    0x128dd(%rip),%rax        # 1fbd8 <g_186>
    d2fb:	48 8b 00             	mov    (%rax),%rax
    d2fe:	0f b6 00             	movzbl (%rax),%eax
    d301:	0f b6 d8             	movzbl %al,%ebx
    d304:	48 8b 85 c0 ee ff ff 	mov    -0x1140(%rbp),%rax
    d30b:	44 0f b6 e0          	movzbl %al,%r12d
    d30f:	48 8b 85 c0 ee ff ff 	mov    -0x1140(%rbp),%rax
    d316:	41 89 c6             	mov    %eax,%r14d
    d319:	48 8b 05 b8 28 01 00 	mov    0x128b8(%rip),%rax        # 1fbd8 <g_186>
    d320:	48 8b 00             	mov    (%rax),%rax
    d323:	0f b6 00             	movzbl (%rax),%eax
    d326:	44 0f be e8          	movsbl %al,%r13d
    d32a:	8b 05 48 d6 00 00    	mov    0xd648(%rip),%eax        # 1a978 <l_1453.4361+0x8>
    d330:	41 89 c7             	mov    %eax,%r15d
    d333:	48 8b 85 48 ff ff ff 	mov    -0xb8(%rbp),%rax
    d33a:	48 8b 95 e8 ed ff ff 	mov    -0x1218(%rbp),%rdx
    d341:	48 89 95 38 ee ff ff 	mov    %rdx,-0x11c8(%rbp)
    d348:	48 39 85 38 ee ff ff 	cmp    %rax,-0x11c8(%rbp)
    d34f:	0f 95 c0             	setne  %al
    d352:	0f b6 d0             	movzbl %al,%edx
    d355:	8b 05 2d d6 00 00    	mov    0xd62d(%rip),%eax        # 1a988 <l_1453.4361+0x18>
    d35b:	89 85 f8 ee ff ff    	mov    %eax,-0x1108(%rbp)
    d361:	8b 85 f8 ee ff ff    	mov    -0x1108(%rbp),%eax
    d367:	89 85 5c ed ff ff    	mov    %eax,-0x12a4(%rbp)
    d36d:	83 bd 5c ed ff ff 00 	cmpl   $0x0,-0x12a4(%rbp)
    d374:	74 1f                	je     d395 <func_12+0x155d>
    d376:	48 8b 05 4b 28 01 00 	mov    0x1284b(%rip),%rax        # 1fbc8 <g_177>
    d37d:	0f b6 00             	movzbl (%rax),%eax
    d380:	48 0f be c0          	movsbq %al,%rax
    d384:	25 b6 00 00 00       	and    $0xb6,%eax
    d389:	48 85 c0             	test   %rax,%rax
    d38c:	74 07                	je     d395 <func_12+0x155d>
    d38e:	b8 01 00 00 00       	mov    $0x1,%eax
    d393:	eb 05                	jmp    d39a <func_12+0x1562>
    d395:	b8 00 00 00 00       	mov    $0x0,%eax
    d39a:	39 d0                	cmp    %edx,%eax
    d39c:	0f 9d c0             	setge  %al
    d39f:	0f b6 d0             	movzbl %al,%edx
    d3a2:	8b 05 e0 d5 00 00    	mov    0xd5e0(%rip),%eax        # 1a988 <l_1453.4361+0x18>
    d3a8:	39 c2                	cmp    %eax,%edx
    d3aa:	0f 93 c0             	setae  %al
    d3ad:	0f b6 c0             	movzbl %al,%eax
    d3b0:	be 00 00 00 00       	mov    $0x0,%esi
    d3b5:	89 c7                	mov    %eax,%edi
    d3b7:	e8 f7 af ff ff       	callq  83b3 <safe_add_func_int16_t_s_s>
    d3bc:	b8 dc 33 00 00       	mov    $0x33dc,%eax
    d3c1:	0f b7 d0             	movzwl %ax,%edx
    d3c4:	48 83 bd d8 ee ff ff 	cmpq   $0x0,-0x1128(%rbp)
    d3cb:	00 
    d3cc:	0f 95 c0             	setne  %al
    d3cf:	0f b6 c0             	movzbl %al,%eax
    d3d2:	31 d0                	xor    %edx,%eax
    d3d4:	48 98                	cltq   
    d3d6:	48 c7 c6 fa ff ff ff 	mov    $0xfffffffffffffffa,%rsi
    d3dd:	48 89 c7             	mov    %rax,%rdi
    d3e0:	e8 66 bc ff ff       	callq  904b <safe_sub_func_uint64_t_u_u>
    d3e5:	4c 89 fa             	mov    %r15,%rdx
    d3e8:	48 31 c2             	xor    %rax,%rdx
    d3eb:	48 8b 85 b8 ee ff ff 	mov    -0x1148(%rbp),%rax
    d3f2:	48 39 c2             	cmp    %rax,%rdx
    d3f5:	0f 97 c0             	seta   %al
    d3f8:	0f b6 c0             	movzbl %al,%eax
    d3fb:	48 8b 95 d0 ee ff ff 	mov    -0x1130(%rbp),%rdx
    d402:	09 d0                	or     %edx,%eax
    d404:	98                   	cwtl   
    d405:	89 c6                	mov    %eax,%esi
    d407:	bf e3 7f 00 00       	mov    $0x7fe3,%edi
    d40c:	e8 e4 af ff ff       	callq  83f5 <safe_mul_func_int16_t_s_s>
    d411:	0f b6 c0             	movzbl %al,%eax
    d414:	44 89 ee             	mov    %r13d,%esi
    d417:	89 c7                	mov    %eax,%edi
    d419:	e8 6f b8 ff ff       	callq  8c8d <safe_rshift_func_uint8_t_u_s>
    d41e:	0f b6 d0             	movzbl %al,%edx
    d421:	48 8b 85 a8 ec ff ff 	mov    -0x1358(%rbp),%rax
    d428:	8b 00                	mov    (%rax),%eax
    d42a:	39 c2                	cmp    %eax,%edx
    d42c:	0f 95 c0             	setne  %al
    d42f:	0f b6 d0             	movzbl %al,%edx
    d432:	8b 85 30 ef ff ff    	mov    -0x10d0(%rbp),%eax
    d438:	31 c2                	xor    %eax,%edx
    d43a:	8b 85 bc ec ff ff    	mov    -0x1344(%rbp),%eax
    d440:	21 d0                	and    %edx,%eax
    d442:	89 85 bc ec ff ff    	mov    %eax,-0x1344(%rbp)
    d448:	8b 85 3c ef ff ff    	mov    -0x10c4(%rbp),%eax
    d44e:	3d 96 44 a1 d7       	cmp    $0xd7a14496,%eax
    d453:	0f 97 c0             	seta   %al
    d456:	0f b6 c0             	movzbl %al,%eax
    d459:	44 89 f6             	mov    %r14d,%esi
    d45c:	89 c7                	mov    %eax,%edi
    d45e:	e8 c2 ba ff ff       	callq  8f25 <safe_div_func_uint32_t_u_u>
    d463:	89 c2                	mov    %eax,%edx
    d465:	48 8b 85 d8 ee ff ff 	mov    -0x1128(%rbp),%rax
    d46c:	88 10                	mov    %dl,(%rax)
    d46e:	48 8b 85 d8 ee ff ff 	mov    -0x1128(%rbp),%rax
    d475:	0f b6 00             	movzbl (%rax),%eax
    d478:	0f b6 c0             	movzbl %al,%eax
    d47b:	39 85 cc ec ff ff    	cmp    %eax,-0x1334(%rbp)
    d481:	0f 92 c0             	setb   %al
    d484:	0f b6 c0             	movzbl %al,%eax
    d487:	44 89 e6             	mov    %r12d,%esi
    d48a:	89 c7                	mov    %eax,%edi
    d48c:	e8 1d b7 ff ff       	callq  8bae <safe_mod_func_uint8_t_u_u>
    d491:	8b 85 f8 ee ff ff    	mov    -0x1108(%rbp),%eax
    d497:	0f b6 c0             	movzbl %al,%eax
    d49a:	89 de                	mov    %ebx,%esi
    d49c:	89 c7                	mov    %eax,%edi
    d49e:	e8 b7 b6 ff ff       	callq  8b5a <safe_add_func_uint8_t_u_u>
    d4a3:	83 e0 8c             	and    $0xffffff8c,%eax
    d4a6:	0f be c0             	movsbl %al,%eax
    d4a9:	be ff ff ff ff       	mov    $0xffffffff,%esi
    d4ae:	89 c7                	mov    %eax,%edi
    d4b0:	e8 5d ad ff ff       	callq  8212 <safe_mul_func_int8_t_s_s>
    d4b5:	8b 85 30 ef ff ff    	mov    -0x10d0(%rbp),%eax
    d4bb:	0f b7 c0             	movzwl %ax,%eax
    d4be:	be 0e 00 00 00       	mov    $0xe,%esi
    d4c3:	89 c7                	mov    %eax,%edi
    d4c5:	e8 7e b9 ff ff       	callq  8e48 <safe_rshift_func_uint16_t_u_s>
    d4ca:	89 c2                	mov    %eax,%edx
    d4cc:	48 8b 05 15 27 01 00 	mov    0x12715(%rip),%rax        # 1fbe8 <g_208>
    d4d3:	48 8b 00             	mov    (%rax),%rax
    d4d6:	48 8b 00             	mov    (%rax),%rax
    d4d9:	48 8b 00             	mov    (%rax),%rax
    d4dc:	0f b7 d2             	movzwl %dx,%edx
    d4df:	89 10                	mov    %edx,(%rax)
    d4e1:	8b 05 51 0f 01 00    	mov    0x10f51(%rip),%eax        # 1e438 <g_1510>
    d4e7:	83 e8 01             	sub    $0x1,%eax
    d4ea:	89 05 48 0f 01 00    	mov    %eax,0x10f48(%rip)        # 1e438 <g_1510>
    d4f0:	83 bd 38 ed ff ff 00 	cmpl   $0x0,-0x12c8(%rbp)
    d4f7:	0f 84 b9 00 00 00    	je     d5b6 <func_12+0x177e>
    d4fd:	66 c7 85 ba ec ff ff 	movw   $0x1,-0x1346(%rbp)
    d504:	01 00 
    d506:	c7 85 60 ed ff ff 4c 	movl   $0xbfa6f4c,-0x12a0(%rbp)
    d50d:	6f fa 0b 
    d510:	c7 85 64 ed ff ff 01 	movl   $0x1,-0x129c(%rbp)
    d517:	00 00 00 
    d51a:	c7 85 68 ed ff ff ff 	movl   $0xffffffff,-0x1298(%rbp)
    d521:	ff ff ff 
    d524:	c7 85 6c ed ff ff 2a 	movl   $0xbda9302a,-0x1294(%rbp)
    d52b:	30 a9 bd 
    d52e:	c7 85 70 ed ff ff fe 	movl   $0xfffffffe,-0x1290(%rbp)
    d535:	ff ff ff 
    d538:	c7 85 74 ed ff ff 06 	movl   $0x6,-0x128c(%rbp)
    d53f:	00 00 00 
    d542:	c7 85 78 ed ff ff 4c 	movl   $0x7fa6cd4c,-0x1288(%rbp)
    d549:	cd a6 7f 
    d54c:	c7 85 7c ed ff ff fd 	movl   $0xfffffffd,-0x1284(%rbp)
    d553:	ff ff ff 
    d556:	48 8b 05 53 26 01 00 	mov    0x12653(%rip),%rax        # 1fbb0 <g_134>
    d55d:	0f bf 95 ba ec ff ff 	movswl -0x1346(%rbp),%edx
    d564:	89 10                	mov    %edx,(%rax)
    d566:	48 8b 85 a8 ec ff ff 	mov    -0x1358(%rbp),%rax
    d56d:	8b 00                	mov    (%rax),%eax
    d56f:	48 98                	cltq   
    d571:	48 31 85 e0 ee ff ff 	xor    %rax,-0x1120(%rbp)
    d578:	48 8b 05 b1 35 01 00 	mov    0x135b1(%rip),%rax        # 20b30 <g_1515>
    d57f:	48 89 85 f0 ef ff ff 	mov    %rax,-0x1010(%rbp)
    d586:	0f b6 85 f0 ee ff ff 	movzbl -0x1110(%rbp),%eax
    d58d:	83 e8 01             	sub    $0x1,%eax
    d590:	88 85 f0 ee ff ff    	mov    %al,-0x1110(%rbp)
    d596:	48 8b 05 43 26 01 00 	mov    0x12643(%rip),%rax        # 1fbe0 <g_209>
    d59d:	48 8b 00             	mov    (%rax),%rax
    d5a0:	48 8b 10             	mov    (%rax),%rdx
    d5a3:	48 8b 05 36 26 01 00 	mov    0x12636(%rip),%rax        # 1fbe0 <g_209>
    d5aa:	48 8b 00             	mov    (%rax),%rax
    d5ad:	48 8b 00             	mov    (%rax),%rax
    d5b0:	8b 12                	mov    (%rdx),%edx
    d5b2:	89 10                	mov    %edx,(%rax)
    d5b4:	eb 0f                	jmp    d5c5 <func_12+0x178d>
    d5b6:	0f b6 05 fa 0d 01 00 	movzbl 0x10dfa(%rip),%eax        # 1e3b7 <g_1011+0x1>
    d5bd:	0f b6 c0             	movzbl %al,%eax
    d5c0:	e9 80 04 00 00       	jmpq   da45 <func_12+0x1c0d>
    d5c5:	83 85 cc ec ff ff 01 	addl   $0x1,-0x1334(%rbp)
    d5cc:	83 bd cc ec ff ff 14 	cmpl   $0x14,-0x1334(%rbp)
    d5d3:	0f 87 58 fa ff ff    	ja     d031 <func_12+0x11f9>
    d5d9:	b8 73 00 00 00       	mov    $0x73,%eax
    d5de:	0f b6 d8             	movzbl %al,%ebx
    d5e1:	48 8b 85 b8 ee ff ff 	mov    -0x1148(%rbp),%rax
    d5e8:	89 c6                	mov    %eax,%esi
    d5ea:	bf fd ff 00 00       	mov    $0xfffd,%edi
    d5ef:	e8 86 b8 ff ff       	callq  8e7a <safe_rshift_func_uint16_t_u_u>
    d5f4:	0f b6 85 0d ef ff ff 	movzbl -0x10f3(%rbp),%eax
    d5fb:	3c 01                	cmp    $0x1,%al
    d5fd:	0f 9f c0             	setg   %al
    d600:	0f b6 c0             	movzbl %al,%eax
    d603:	be 0d 00 00 00       	mov    $0xd,%esi
    d608:	89 c7                	mov    %eax,%edi
    d60a:	e8 af b7 ff ff       	callq  8dbe <safe_lshift_func_uint16_t_u_s>
    d60f:	89 de                	mov    %ebx,%esi
    d611:	bf 00 00 00 00       	mov    $0x0,%edi
    d616:	e8 eb b7 ff ff       	callq  8e06 <safe_lshift_func_uint16_t_u_u>
    d61b:	48 8b 15 c6 25 01 00 	mov    0x125c6(%rip),%rdx        # 1fbe8 <g_208>
    d622:	48 8b 12             	mov    (%rdx),%rdx
    d625:	48 8b 12             	mov    (%rdx),%rdx
    d628:	48 8b 12             	mov    (%rdx),%rdx
    d62b:	8b 0a                	mov    (%rdx),%ecx
    d62d:	0f b7 d0             	movzwl %ax,%edx
    d630:	48 8b 05 b1 25 01 00 	mov    0x125b1(%rip),%rax        # 1fbe8 <g_208>
    d637:	48 8b 00             	mov    (%rax),%rax
    d63a:	48 8b 00             	mov    (%rax),%rax
    d63d:	48 8b 00             	mov    (%rax),%rax
    d640:	31 ca                	xor    %ecx,%edx
    d642:	89 10                	mov    %edx,(%rax)
    d644:	8b 08                	mov    (%rax),%ecx
    d646:	48 8b 05 53 25 01 00 	mov    0x12553(%rip),%rax        # 1fba0 <g_8>
    d64d:	8b 10                	mov    (%rax),%edx
    d64f:	21 ca                	and    %ecx,%edx
    d651:	89 10                	mov    %edx,(%rax)
    d653:	48 8b 05 46 0d 01 00 	mov    0x10d46(%rip),%rax        # 1e3a0 <g_597>
    d65a:	be 05 00 00 00       	mov    $0x5,%esi
    d65f:	48 89 c7             	mov    %rax,%rdi
    d662:	e8 da b1 ff ff       	callq  8841 <safe_add_func_int64_t_s_s>
    d667:	48 89 05 32 0d 01 00 	mov    %rax,0x10d32(%rip)        # 1e3a0 <g_597>
    d66e:	48 8b 05 2b 0d 01 00 	mov    0x10d2b(%rip),%rax        # 1e3a0 <g_597>
    d675:	48 83 f8 fd          	cmp    $0xfffffffffffffffd,%rax
    d679:	0f 85 16 f9 ff ff    	jne    cf95 <func_12+0x115d>
    d67f:	e9 b5 03 00 00       	jmpq   da39 <func_12+0x1c01>
    d684:	48 8d 85 a8 ed ff ff 	lea    -0x1258(%rbp),%rax
    d68b:	48 89 85 c8 ed ff ff 	mov    %rax,-0x1238(%rbp)
    d692:	48 8d 85 c8 ed ff ff 	lea    -0x1238(%rbp),%rax
    d699:	48 89 85 a8 ee ff ff 	mov    %rax,-0x1158(%rbp)
    d6a0:	48 8d 85 10 f3 ff ff 	lea    -0xcf0(%rbp),%rax
    d6a7:	48 05 c4 00 00 00    	add    $0xc4,%rax
    d6ad:	48 89 85 80 f4 ff ff 	mov    %rax,-0xb80(%rbp)
    d6b4:	48 8d 85 bc ec ff ff 	lea    -0x1344(%rbp),%rax
    d6bb:	48 89 85 88 f4 ff ff 	mov    %rax,-0xb78(%rbp)
    d6c2:	48 8d 05 a3 0b 01 00 	lea    0x10ba3(%rip),%rax        # 1e26c <g_75+0x22c>
    d6c9:	48 89 85 90 f4 ff ff 	mov    %rax,-0xb70(%rbp)
    d6d0:	48 8d 85 10 f3 ff ff 	lea    -0xcf0(%rbp),%rax
    d6d7:	48 05 c4 00 00 00    	add    $0xc4,%rax
    d6dd:	48 89 85 98 f4 ff ff 	mov    %rax,-0xb68(%rbp)
    d6e4:	48 8d 05 45 09 01 00 	lea    0x10945(%rip),%rax        # 1e030 <g_9>
    d6eb:	48 89 85 a0 f4 ff ff 	mov    %rax,-0xb60(%rbp)
    d6f2:	48 8d 85 c0 ec ff ff 	lea    -0x1340(%rbp),%rax
    d6f9:	48 89 85 a8 f4 ff ff 	mov    %rax,-0xb58(%rbp)
    d700:	48 8d 05 29 09 01 00 	lea    0x10929(%rip),%rax        # 1e030 <g_9>
    d707:	48 89 85 b0 f4 ff ff 	mov    %rax,-0xb50(%rbp)
    d70e:	48 8d 05 57 0b 01 00 	lea    0x10b57(%rip),%rax        # 1e26c <g_75+0x22c>
    d715:	48 89 85 b8 f4 ff ff 	mov    %rax,-0xb48(%rbp)
    d71c:	48 8d 85 bc ec ff ff 	lea    -0x1344(%rbp),%rax
    d723:	48 89 85 c0 f4 ff ff 	mov    %rax,-0xb40(%rbp)
    d72a:	48 8d 85 c0 ec ff ff 	lea    -0x1340(%rbp),%rax
    d731:	48 89 85 c8 f4 ff ff 	mov    %rax,-0xb38(%rbp)
    d738:	48 8d 85 c0 ec ff ff 	lea    -0x1340(%rbp),%rax
    d73f:	48 89 85 d0 f4 ff ff 	mov    %rax,-0xb30(%rbp)
    d746:	48 8d 85 10 f3 ff ff 	lea    -0xcf0(%rbp),%rax
    d74d:	48 05 c4 00 00 00    	add    $0xc4,%rax
    d753:	48 89 85 d8 f4 ff ff 	mov    %rax,-0xb28(%rbp)
    d75a:	48 8d 85 c0 ec ff ff 	lea    -0x1340(%rbp),%rax
    d761:	48 89 85 e0 f4 ff ff 	mov    %rax,-0xb20(%rbp)
    d768:	48 8d 85 bc ec ff ff 	lea    -0x1344(%rbp),%rax
    d76f:	48 89 85 e8 f4 ff ff 	mov    %rax,-0xb18(%rbp)
    d776:	48 8d 85 bc ec ff ff 	lea    -0x1344(%rbp),%rax
    d77d:	48 89 85 f0 f4 ff ff 	mov    %rax,-0xb10(%rbp)
    d784:	48 8d 85 c0 ec ff ff 	lea    -0x1340(%rbp),%rax
    d78b:	48 89 85 f8 f4 ff ff 	mov    %rax,-0xb08(%rbp)
    d792:	48 8d 05 97 08 01 00 	lea    0x10897(%rip),%rax        # 1e030 <g_9>
    d799:	48 89 85 00 f5 ff ff 	mov    %rax,-0xb00(%rbp)
    d7a0:	48 8d 85 10 f3 ff ff 	lea    -0xcf0(%rbp),%rax
    d7a7:	48 05 c4 00 00 00    	add    $0xc4,%rax
    d7ad:	48 89 85 08 f5 ff ff 	mov    %rax,-0xaf8(%rbp)
    d7b4:	48 8d 85 bc ec ff ff 	lea    -0x1344(%rbp),%rax
    d7bb:	48 89 85 10 f5 ff ff 	mov    %rax,-0xaf0(%rbp)
    d7c2:	48 8d 05 a3 0a 01 00 	lea    0x10aa3(%rip),%rax        # 1e26c <g_75+0x22c>
    d7c9:	48 89 85 18 f5 ff ff 	mov    %rax,-0xae8(%rbp)
    d7d0:	48 8d 85 c0 ec ff ff 	lea    -0x1340(%rbp),%rax
    d7d7:	48 89 85 20 f5 ff ff 	mov    %rax,-0xae0(%rbp)
    d7de:	48 8d 85 bc ec ff ff 	lea    -0x1344(%rbp),%rax
    d7e5:	48 89 85 28 f5 ff ff 	mov    %rax,-0xad8(%rbp)
    d7ec:	48 8d 85 c0 ec ff ff 	lea    -0x1340(%rbp),%rax
    d7f3:	48 89 85 30 f5 ff ff 	mov    %rax,-0xad0(%rbp)
    d7fa:	48 8d 85 bc ec ff ff 	lea    -0x1344(%rbp),%rax
    d801:	48 89 85 38 f5 ff ff 	mov    %rax,-0xac8(%rbp)
    d808:	48 8d 85 bc ec ff ff 	lea    -0x1344(%rbp),%rax
    d80f:	48 89 85 40 f5 ff ff 	mov    %rax,-0xac0(%rbp)
    d816:	48 8d 85 bc ec ff ff 	lea    -0x1344(%rbp),%rax
    d81d:	48 89 85 48 f5 ff ff 	mov    %rax,-0xab8(%rbp)
    d824:	48 8d 05 05 08 01 00 	lea    0x10805(%rip),%rax        # 1e030 <g_9>
    d82b:	48 89 85 50 f5 ff ff 	mov    %rax,-0xab0(%rbp)
    d832:	48 8d 85 bc ec ff ff 	lea    -0x1344(%rbp),%rax
    d839:	48 89 85 58 f5 ff ff 	mov    %rax,-0xaa8(%rbp)
    d840:	48 8d 05 e9 07 01 00 	lea    0x107e9(%rip),%rax        # 1e030 <g_9>
    d847:	48 89 85 60 f5 ff ff 	mov    %rax,-0xaa0(%rbp)
    d84e:	48 8d 85 bc ec ff ff 	lea    -0x1344(%rbp),%rax
    d855:	48 89 85 68 f5 ff ff 	mov    %rax,-0xa98(%rbp)
    d85c:	48 8d 05 09 0a 01 00 	lea    0x10a09(%rip),%rax        # 1e26c <g_75+0x22c>
    d863:	48 89 85 70 f5 ff ff 	mov    %rax,-0xa90(%rbp)
    d86a:	48 8d 05 fb 09 01 00 	lea    0x109fb(%rip),%rax        # 1e26c <g_75+0x22c>
    d871:	48 89 85 78 f5 ff ff 	mov    %rax,-0xa88(%rbp)
    d878:	48 8d 05 09 0b 01 00 	lea    0x10b09(%rip),%rax        # 1e388 <g_182>
    d87f:	48 89 85 b0 ee ff ff 	mov    %rax,-0x1150(%rbp)
    d886:	c7 85 18 ed ff ff e3 	movl   $0x5676e2e3,-0x12e8(%rbp)
    d88d:	e2 76 56 
    d890:	48 8b 85 f0 ed ff ff 	mov    -0x1210(%rbp),%rax
    d897:	48 89 85 a8 ee ff ff 	mov    %rax,-0x1158(%rbp)
    d89e:	c6 05 d3 0a 01 00 00 	movb   $0x0,0x10ad3(%rip)        # 1e378 <g_161>
    d8a5:	e9 16 01 00 00       	jmpq   d9c0 <func_12+0x1b88>
    d8aa:	48 8d 85 80 ef ff ff 	lea    -0x1080(%rbp),%rax
    d8b1:	48 83 c0 20          	add    $0x20,%rax
    d8b5:	48 89 85 30 f0 ff ff 	mov    %rax,-0xfd0(%rbp)
    d8bc:	48 8d 85 80 ef ff ff 	lea    -0x1080(%rbp),%rax
    d8c3:	48 83 c0 20          	add    $0x20,%rax
    d8c7:	48 89 85 38 f0 ff ff 	mov    %rax,-0xfc8(%rbp)
    d8ce:	48 8d 85 80 ef ff ff 	lea    -0x1080(%rbp),%rax
    d8d5:	48 83 c0 20          	add    $0x20,%rax
    d8d9:	48 89 85 40 f0 ff ff 	mov    %rax,-0xfc0(%rbp)
    d8e0:	48 8d 85 80 ef ff ff 	lea    -0x1080(%rbp),%rax
    d8e7:	48 83 c0 20          	add    $0x20,%rax
    d8eb:	48 89 85 48 f0 ff ff 	mov    %rax,-0xfb8(%rbp)
    d8f2:	48 8d 85 80 ef ff ff 	lea    -0x1080(%rbp),%rax
    d8f9:	48 83 c0 20          	add    $0x20,%rax
    d8fd:	48 89 85 50 f0 ff ff 	mov    %rax,-0xfb0(%rbp)
    d904:	48 8d 85 80 ef ff ff 	lea    -0x1080(%rbp),%rax
    d90b:	48 83 c0 20          	add    $0x20,%rax
    d90f:	48 89 85 58 f0 ff ff 	mov    %rax,-0xfa8(%rbp)
    d916:	48 8d 85 80 ef ff ff 	lea    -0x1080(%rbp),%rax
    d91d:	48 83 c0 20          	add    $0x20,%rax
    d921:	48 89 85 60 f0 ff ff 	mov    %rax,-0xfa0(%rbp)
    d928:	48 8d 85 80 ef ff ff 	lea    -0x1080(%rbp),%rax
    d92f:	48 83 c0 20          	add    $0x20,%rax
    d933:	48 89 85 68 f0 ff ff 	mov    %rax,-0xf98(%rbp)
    d93a:	48 8d 85 80 ef ff ff 	lea    -0x1080(%rbp),%rax
    d941:	48 83 c0 20          	add    $0x20,%rax
    d945:	48 89 85 70 f0 ff ff 	mov    %rax,-0xf90(%rbp)
    d94c:	48 8d 85 80 ef ff ff 	lea    -0x1080(%rbp),%rax
    d953:	48 83 c0 20          	add    $0x20,%rax
    d957:	48 89 85 78 f0 ff ff 	mov    %rax,-0xf88(%rbp)
    d95e:	c7 85 1c ed ff ff ff 	movl   $0xffffffff,-0x12e4(%rbp)
    d965:	ff ff ff 
    d968:	c7 85 20 ed ff ff 03 	movl   $0x3,-0x12e0(%rbp)
    d96f:	00 00 00 
    d972:	c7 85 24 ed ff ff f2 	movl   $0x194f4ff2,-0x12dc(%rbp)
    d979:	4f 4f 19 
    d97c:	c7 85 28 ed ff ff 00 	movl   $0x0,-0x12d8(%rbp)
    d983:	00 00 00 
    d986:	c7 85 2c ed ff ff 87 	movl   $0x854da87,-0x12d4(%rbp)
    d98d:	da 54 08 
    d990:	c7 85 30 ed ff ff 01 	movl   $0x1,-0x12d0(%rbp)
    d997:	00 00 00 
    d99a:	c7 85 34 ed ff ff 2e 	movl   $0xed71f32e,-0x12cc(%rbp)
    d9a1:	f3 71 ed 
    d9a4:	0f b6 05 cd 09 01 00 	movzbl 0x109cd(%rip),%eax        # 1e378 <g_161>
    d9ab:	0f be c0             	movsbl %al,%eax
    d9ae:	be 03 00 00 00       	mov    $0x3,%esi
    d9b3:	89 c7                	mov    %eax,%edi
    d9b5:	e8 1a a8 ff ff       	callq  81d4 <safe_add_func_int8_t_s_s>
    d9ba:	88 05 b8 09 01 00    	mov    %al,0x109b8(%rip)        # 1e378 <g_161>
    d9c0:	0f b6 05 b1 09 01 00 	movzbl 0x109b1(%rip),%eax        # 1e378 <g_161>
    d9c7:	3c 36                	cmp    $0x36,%al
    d9c9:	0f 85 db fe ff ff    	jne    d8aa <func_12+0x1a72>
    d9cf:	eb 68                	jmp    da39 <func_12+0x1c01>
    d9d1:	48 8d 05 1a 36 01 00 	lea    0x1361a(%rip),%rax        # 20ff2 <g_188>
    d9d8:	48 89 85 00 ee ff ff 	mov    %rax,-0x1200(%rbp)
    d9df:	48 8b 15 ba 21 01 00 	mov    0x121ba(%rip),%rdx        # 1fba0 <g_8>
    d9e6:	48 8b 85 a0 ed ff ff 	mov    -0x1260(%rbp),%rax
    d9ed:	48 8b 00             	mov    (%rax),%rax
    d9f0:	8b 12                	mov    (%rdx),%edx
    d9f2:	89 10                	mov    %edx,(%rax)
    d9f4:	48 8b 05 c5 21 01 00 	mov    0x121c5(%rip),%rax        # 1fbc0 <g_143>
    d9fb:	8b 08                	mov    (%rax),%ecx
    d9fd:	48 8b 05 d4 21 01 00 	mov    0x121d4(%rip),%rax        # 1fbd8 <g_186>
    da04:	48 8b 00             	mov    (%rax),%rax
    da07:	48 39 85 00 ee ff ff 	cmp    %rax,-0x1200(%rbp)
    da0e:	0f 95 c0             	setne  %al
    da11:	0f b6 d0             	movzbl %al,%edx
    da14:	48 8b 05 a5 21 01 00 	mov    0x121a5(%rip),%rax        # 1fbc0 <g_143>
    da1b:	31 ca                	xor    %ecx,%edx
    da1d:	89 10                	mov    %edx,(%rax)
    da1f:	48 8b 85 f0 ed ff ff 	mov    -0x1210(%rbp),%rax
    da26:	48 8b 00             	mov    (%rax),%rax
    da29:	48 8b 00             	mov    (%rax),%rax
    da2c:	48 8b 00             	mov    (%rax),%rax
    da2f:	48 8b 00             	mov    (%rax),%rax
    da32:	48 89 85 10 f0 ff ff 	mov    %rax,-0xff0(%rbp)
    da39:	48 8b 85 a0 ed ff ff 	mov    -0x1260(%rbp),%rax
    da40:	48 8b 00             	mov    (%rax),%rax
    da43:	8b 00                	mov    (%rax),%eax
    da45:	48 8b 5d c8          	mov    -0x38(%rbp),%rbx
    da49:	64 48 33 1c 25 28 00 	xor    %fs:0x28,%rbx
    da50:	00 00 
    da52:	74 05                	je     da59 <func_12+0x1c21>
    da54:	e8 17 a6 ff ff       	callq  8070 <__stack_chk_fail@plt>
    da59:	48 81 c4 48 13 00 00 	add    $0x1348,%rsp
    da60:	5b                   	pop    %rbx
    da61:	41 5c                	pop    %r12
    da63:	41 5d                	pop    %r13
    da65:	41 5e                	pop    %r14
    da67:	41 5f                	pop    %r15
    da69:	5d                   	pop    %rbp
    da6a:	c3                   	retq   

000000000000da6b <func_15>:
    da6b:	f3 0f 1e fa          	endbr64 
    da6f:	55                   	push   %rbp
    da70:	48 89 e5             	mov    %rsp,%rbp
    da73:	48 89 7d e8          	mov    %rdi,-0x18(%rbp)
    da77:	c6 45 f7 cd          	movb   $0xcd,-0x9(%rbp)
    da7b:	48 8d 05 aa 05 01 00 	lea    0x105aa(%rip),%rax        # 1e02c <g_4>
    da82:	48 89 45 f8          	mov    %rax,-0x8(%rbp)
    da86:	0f b6 45 f7          	movzbl -0x9(%rbp),%eax
    da8a:	83 e8 01             	sub    $0x1,%eax
    da8d:	88 45 f7             	mov    %al,-0x9(%rbp)
    da90:	48 8b 45 f8          	mov    -0x8(%rbp),%rax
    da94:	5d                   	pop    %rbp
    da95:	c3                   	retq   

000000000000da96 <func_32>:
    da96:	f3 0f 1e fa          	endbr64 
    da9a:	55                   	push   %rbp
    da9b:	48 89 e5             	mov    %rsp,%rbp
    da9e:	89 f8                	mov    %edi,%eax
    daa0:	88 45 dc             	mov    %al,-0x24(%rbp)
    daa3:	48 c7 45 f0 09 00 00 	movq   $0x9,-0x10(%rbp)
    daaa:	00 
    daab:	48 c7 45 f8 00 00 00 	movq   $0x0,-0x8(%rbp)
    dab2:	00 
    dab3:	c7 45 ec 11 70 f8 9d 	movl   $0x9df87011,-0x14(%rbp)
    daba:	48 8b 05 1f 21 01 00 	mov    0x1211f(%rip),%rax        # 1fbe0 <g_209>
    dac1:	48 8b 00             	mov    (%rax),%rax
    dac4:	48 8b 00             	mov    (%rax),%rax
    dac7:	c7 00 00 00 00 00    	movl   $0x0,(%rax)
    dacd:	8b 00                	mov    (%rax),%eax
    dacf:	09 45 ec             	or     %eax,-0x14(%rbp)
    dad2:	66 0f be 45 dc       	movsbw -0x24(%rbp),%ax
    dad7:	5d                   	pop    %rbp
    dad8:	c3                   	retq   

000000000000dad9 <func_38>:
    dad9:	f3 0f 1e fa          	endbr64 
    dadd:	55                   	push   %rbp
    dade:	48 89 e5             	mov    %rsp,%rbp
    dae1:	53                   	push   %rbx
    dae2:	48 81 ec 98 02 00 00 	sub    $0x298,%rsp
    dae9:	89 c8                	mov    %ecx,%eax
    daeb:	4c 89 85 68 fd ff ff 	mov    %r8,-0x298(%rbp)
    daf2:	89 f9                	mov    %edi,%ecx
    daf4:	66 89 8d 7c fd ff ff 	mov    %cx,-0x284(%rbp)
    dafb:	89 f1                	mov    %esi,%ecx
    dafd:	66 89 8d 78 fd ff ff 	mov    %cx,-0x288(%rbp)
    db04:	88 95 74 fd ff ff    	mov    %dl,-0x28c(%rbp)
    db0a:	66 89 85 70 fd ff ff 	mov    %ax,-0x290(%rbp)
    db11:	64 48 8b 04 25 28 00 	mov    %fs:0x28,%rax
    db18:	00 00 
    db1a:	48 89 45 e8          	mov    %rax,-0x18(%rbp)
    db1e:	31 c0                	xor    %eax,%eax
    db20:	66 c7 85 8c fd ff ff 	movw   $0xfff9,-0x274(%rbp)
    db27:	f9 ff 
    db29:	48 8d 05 60 08 01 00 	lea    0x10860(%rip),%rax        # 1e390 <g_364>
    db30:	48 89 85 98 fd ff ff 	mov    %rax,-0x268(%rbp)
    db37:	66 c7 85 8e fd ff ff 	movw   $0x1a16,-0x272(%rbp)
    db3e:	16 1a 
    db40:	48 c7 85 a0 fd ff ff 	movq   $0x0,-0x260(%rbp)
    db47:	00 00 00 00 
    db4b:	c7 85 10 fe ff ff 9d 	movl   $0xaa26209d,-0x1f0(%rbp)
    db52:	20 26 aa 
    db55:	c7 85 14 fe ff ff 09 	movl   $0xaf4cd109,-0x1ec(%rbp)
    db5c:	d1 4c af 
    db5f:	c7 85 18 fe ff ff 09 	movl   $0xaf4cd109,-0x1e8(%rbp)
    db66:	d1 4c af 
    db69:	c7 85 1c fe ff ff 9d 	movl   $0xaa26209d,-0x1e4(%rbp)
    db70:	20 26 aa 
    db73:	c7 85 20 fe ff ff 09 	movl   $0xaf4cd109,-0x1e0(%rbp)
    db7a:	d1 4c af 
    db7d:	c7 85 24 fe ff ff 09 	movl   $0xaf4cd109,-0x1dc(%rbp)
    db84:	d1 4c af 
    db87:	c7 85 28 fe ff ff 9d 	movl   $0xaa26209d,-0x1d8(%rbp)
    db8e:	20 26 aa 
    db91:	c7 85 94 fd ff ff 3a 	movl   $0xfb31de3a,-0x26c(%rbp)
    db98:	de 31 fb 
    db9b:	c6 85 74 fd ff ff 00 	movb   $0x0,-0x28c(%rbp)
    dba2:	80 bd 74 fd ff ff 03 	cmpb   $0x3,-0x28c(%rbp)
    dba9:	74 0e                	je     dbb9 <func_38+0xe0>
    dbab:	48 8b 05 0e 20 01 00 	mov    0x1200e(%rip),%rax        # 1fbc0 <g_143>
    dbb2:	8b 00                	mov    (%rax),%eax
    dbb4:	e9 51 06 00 00       	jmpq   e20a <func_38+0x731>
    dbb9:	0f b7 9d 8c fd ff ff 	movzwl -0x274(%rbp),%ebx
    dbc0:	0f b7 85 8c fd ff ff 	movzwl -0x274(%rbp),%eax
    dbc7:	98                   	cwtl   
    dbc8:	89 c6                	mov    %eax,%esi
    dbca:	bf 4c 60 00 00       	mov    $0x604c,%edi
    dbcf:	e8 df a7 ff ff       	callq  83b3 <safe_add_func_int16_t_s_s>
    dbd4:	48 8b 95 98 fd ff ff 	mov    -0x268(%rbp),%rdx
    dbdb:	48 8b 12             	mov    (%rdx),%rdx
    dbde:	48 0f bf c0          	movswq %ax,%rax
    dbe2:	48 21 c2             	and    %rax,%rdx
    dbe5:	48 8b 85 98 fd ff ff 	mov    -0x268(%rbp),%rax
    dbec:	48 89 10             	mov    %rdx,(%rax)
    dbef:	48 8b 85 98 fd ff ff 	mov    -0x268(%rbp),%rax
    dbf6:	48 8b 00             	mov    (%rax),%rax
    dbf9:	48 8b 15 70 07 01 00 	mov    0x10770(%rip),%rdx        # 1e370 <g_130>
    dc00:	48 89 c6             	mov    %rax,%rsi
    dc03:	48 89 d7             	mov    %rdx,%rdi
    dc06:	e8 a9 ad ff ff       	callq  89b4 <safe_mod_func_int64_t_s_s>
    dc0b:	0f bf 85 8e fd ff ff 	movswl -0x272(%rbp),%eax
    dc12:	be ff ff ff ff       	mov    $0xffffffff,%esi
    dc17:	89 c7                	mov    %eax,%edi
    dc19:	e8 95 a7 ff ff       	callq  83b3 <safe_add_func_int16_t_s_s>
    dc1e:	0f b7 05 cf 33 01 00 	movzwl 0x133cf(%rip),%eax        # 20ff4 <g_206>
    dc25:	0f b7 d0             	movzwl %ax,%edx
    dc28:	48 83 bd 68 fd ff ff 	cmpq   $0x0,-0x298(%rbp)
    dc2f:	00 
    dc30:	0f 95 c0             	setne  %al
    dc33:	0f b6 c0             	movzbl %al,%eax
    dc36:	39 c2                	cmp    %eax,%edx
    dc38:	0f 9c c0             	setl   %al
    dc3b:	89 c2                	mov    %eax,%edx
    dc3d:	48 8b 05 7c 1f 01 00 	mov    0x11f7c(%rip),%rax        # 1fbc0 <g_143>
    dc44:	8b 00                	mov    (%rax),%eax
    dc46:	85 c0                	test   %eax,%eax
    dc48:	0f 9e c0             	setle  %al
    dc4b:	31 d0                	xor    %edx,%eax
    dc4d:	0f be c0             	movsbl %al,%eax
    dc50:	89 de                	mov    %ebx,%esi
    dc52:	89 c7                	mov    %eax,%edi
    dc54:	e8 95 a6 ff ff       	callq  82ee <safe_lshift_func_int8_t_s_u>
    dc59:	84 c0                	test   %al,%al
    dc5b:	0f 84 88 03 00 00    	je     dfe9 <func_38+0x510>
    dc61:	48 8d 05 04 06 01 00 	lea    0x10604(%rip),%rax        # 1e26c <g_75+0x22c>
    dc68:	48 89 85 a8 fd ff ff 	mov    %rax,-0x258(%rbp)
    dc6f:	48 8d 05 86 06 01 00 	lea    0x10686(%rip),%rax        # 1e2fc <g_96+0x1c>
    dc76:	48 89 85 b0 fd ff ff 	mov    %rax,-0x250(%rbp)
    dc7d:	48 8d 05 e8 06 01 00 	lea    0x106e8(%rip),%rax        # 1e36c <g_96+0x8c>
    dc84:	48 89 85 b8 fd ff ff 	mov    %rax,-0x248(%rbp)
    dc8b:	48 8d 05 da 06 01 00 	lea    0x106da(%rip),%rax        # 1e36c <g_96+0x8c>
    dc92:	48 89 85 c0 fd ff ff 	mov    %rax,-0x240(%rbp)
    dc99:	c7 85 90 fd ff ff ff 	movl   $0xffffffff,-0x270(%rbp)
    dca0:	ff ff ff 
    dca3:	48 8d 85 10 fe ff ff 	lea    -0x1f0(%rbp),%rax
    dcaa:	48 83 c0 08          	add    $0x8,%rax
    dcae:	48 89 85 c8 fd ff ff 	mov    %rax,-0x238(%rbp)
    dcb5:	48 8d 85 10 fe ff ff 	lea    -0x1f0(%rbp),%rax
    dcbc:	48 83 c0 08          	add    $0x8,%rax
    dcc0:	48 89 85 d0 fd ff ff 	mov    %rax,-0x230(%rbp)
    dcc7:	48 8d 85 90 fd ff ff 	lea    -0x270(%rbp),%rax
    dcce:	48 89 85 d8 fd ff ff 	mov    %rax,-0x228(%rbp)
    dcd5:	48 8d 85 10 fe ff ff 	lea    -0x1f0(%rbp),%rax
    dcdc:	48 83 c0 10          	add    $0x10,%rax
    dce0:	48 89 85 e0 fd ff ff 	mov    %rax,-0x220(%rbp)
    dce7:	48 c7 85 e8 fd ff ff 	movq   $0x0,-0x218(%rbp)
    dcee:	00 00 00 00 
    dcf2:	48 c7 85 f0 fd ff ff 	movq   $0x0,-0x210(%rbp)
    dcf9:	00 00 00 00 
    dcfd:	48 8d 85 90 fd ff ff 	lea    -0x270(%rbp),%rax
    dd04:	48 89 85 f8 fd ff ff 	mov    %rax,-0x208(%rbp)
    dd0b:	48 8d 85 90 fd ff ff 	lea    -0x270(%rbp),%rax
    dd12:	48 89 85 00 fe ff ff 	mov    %rax,-0x200(%rbp)
    dd19:	48 8d 85 10 fe ff ff 	lea    -0x1f0(%rbp),%rax
    dd20:	48 83 c0 08          	add    $0x8,%rax
    dd24:	48 89 85 08 fe ff ff 	mov    %rax,-0x1f8(%rbp)
    dd2b:	48 8d 05 ea 03 01 00 	lea    0x103ea(%rip),%rax        # 1e11c <g_75+0xdc>
    dd32:	48 89 85 30 fe ff ff 	mov    %rax,-0x1d0(%rbp)
    dd39:	48 8d 05 dc 03 01 00 	lea    0x103dc(%rip),%rax        # 1e11c <g_75+0xdc>
    dd40:	48 89 85 38 fe ff ff 	mov    %rax,-0x1c8(%rbp)
    dd47:	48 8d 05 ce 03 01 00 	lea    0x103ce(%rip),%rax        # 1e11c <g_75+0xdc>
    dd4e:	48 89 85 40 fe ff ff 	mov    %rax,-0x1c0(%rbp)
    dd55:	48 8d 05 c0 03 01 00 	lea    0x103c0(%rip),%rax        # 1e11c <g_75+0xdc>
    dd5c:	48 89 85 48 fe ff ff 	mov    %rax,-0x1b8(%rbp)
    dd63:	66 c7 85 50 fe ff ff 	movw   $0x4f10,-0x1b0(%rbp)
    dd6a:	10 4f 
    dd6c:	66 c7 85 52 fe ff ff 	movw   $0xfff9,-0x1ae(%rbp)
    dd73:	f9 ff 
    dd75:	66 c7 85 54 fe ff ff 	movw   $0xfff9,-0x1ac(%rbp)
    dd7c:	f9 ff 
    dd7e:	66 c7 85 56 fe ff ff 	movw   $0x4f10,-0x1aa(%rbp)
    dd85:	10 4f 
    dd87:	66 c7 85 58 fe ff ff 	movw   $0x4f10,-0x1a8(%rbp)
    dd8e:	10 4f 
    dd90:	66 c7 85 5a fe ff ff 	movw   $0x6,-0x1a6(%rbp)
    dd97:	06 00 
    dd99:	66 c7 85 5c fe ff ff 	movw   $0x6e5a,-0x1a4(%rbp)
    dda0:	5a 6e 
    dda2:	66 c7 85 5e fe ff ff 	movw   $0x6,-0x1a2(%rbp)
    dda9:	06 00 
    ddab:	66 c7 85 60 fe ff ff 	movw   $0x6e5a,-0x1a0(%rbp)
    ddb2:	5a 6e 
    ddb4:	66 c7 85 62 fe ff ff 	movw   $0x6,-0x19e(%rbp)
    ddbb:	06 00 
    ddbd:	66 c7 85 64 fe ff ff 	movw   $0x4f10,-0x19c(%rbp)
    ddc4:	10 4f 
    ddc6:	66 c7 85 66 fe ff ff 	movw   $0x4f10,-0x19a(%rbp)
    ddcd:	10 4f 
    ddcf:	66 c7 85 68 fe ff ff 	movw   $0xfff9,-0x198(%rbp)
    ddd6:	f9 ff 
    ddd8:	66 c7 85 6a fe ff ff 	movw   $0xfff9,-0x196(%rbp)
    dddf:	f9 ff 
    dde1:	66 c7 85 6c fe ff ff 	movw   $0x4f10,-0x194(%rbp)
    dde8:	10 4f 
    ddea:	66 c7 85 6e fe ff ff 	movw   $0xffff,-0x192(%rbp)
    ddf1:	ff ff 
    ddf3:	66 c7 85 70 fe ff ff 	movw   $0x6e5a,-0x190(%rbp)
    ddfa:	5a 6e 
    ddfc:	66 c7 85 72 fe ff ff 	movw   $0xffff,-0x18e(%rbp)
    de03:	ff ff 
    de05:	66 c7 85 74 fe ff ff 	movw   $0x6e5a,-0x18c(%rbp)
    de0c:	5a 6e 
    de0e:	66 c7 85 76 fe ff ff 	movw   $0xffff,-0x18a(%rbp)
    de15:	ff ff 
    de17:	66 c7 85 78 fe ff ff 	movw   $0x4f10,-0x188(%rbp)
    de1e:	10 4f 
    de20:	66 c7 85 7a fe ff ff 	movw   $0xfff9,-0x186(%rbp)
    de27:	f9 ff 
    de29:	66 c7 85 7c fe ff ff 	movw   $0xfff9,-0x184(%rbp)
    de30:	f9 ff 
    de32:	66 c7 85 7e fe ff ff 	movw   $0x4f10,-0x182(%rbp)
    de39:	10 4f 
    de3b:	66 c7 85 80 fe ff ff 	movw   $0x4f10,-0x180(%rbp)
    de42:	10 4f 
    de44:	66 c7 85 82 fe ff ff 	movw   $0x6,-0x17e(%rbp)
    de4b:	06 00 
    de4d:	66 c7 85 84 fe ff ff 	movw   $0x6e5a,-0x17c(%rbp)
    de54:	5a 6e 
    de56:	66 c7 85 86 fe ff ff 	movw   $0x6,-0x17a(%rbp)
    de5d:	06 00 
    de5f:	66 c7 85 88 fe ff ff 	movw   $0x6e5a,-0x178(%rbp)
    de66:	5a 6e 
    de68:	66 c7 85 8a fe ff ff 	movw   $0x6,-0x176(%rbp)
    de6f:	06 00 
    de71:	66 c7 85 8c fe ff ff 	movw   $0x4f10,-0x174(%rbp)
    de78:	10 4f 
    de7a:	66 c7 85 8e fe ff ff 	movw   $0x4f10,-0x172(%rbp)
    de81:	10 4f 
    de83:	66 c7 85 90 fe ff ff 	movw   $0xfff9,-0x170(%rbp)
    de8a:	f9 ff 
    de8c:	66 c7 85 92 fe ff ff 	movw   $0xfff9,-0x16e(%rbp)
    de93:	f9 ff 
    de95:	66 c7 85 94 fe ff ff 	movw   $0x4f10,-0x16c(%rbp)
    de9c:	10 4f 
    de9e:	c7 85 a0 fe ff ff ff 	movl   $0xffffffff,-0x160(%rbp)
    dea5:	ff ff ff 
    dea8:	c7 85 a4 fe ff ff 09 	movl   $0x9,-0x15c(%rbp)
    deaf:	00 00 00 
    deb2:	c7 85 a8 fe ff ff bb 	movl   $0xf8300cbb,-0x158(%rbp)
    deb9:	0c 30 f8 
    debc:	c7 85 ac fe ff ff bb 	movl   $0xf8300cbb,-0x154(%rbp)
    dec3:	0c 30 f8 
    dec6:	c7 85 b0 fe ff ff ff 	movl   $0xffffffff,-0x150(%rbp)
    decd:	ff ff ff 
    ded0:	c7 85 b4 fe ff ff bb 	movl   $0xf8300cbb,-0x14c(%rbp)
    ded7:	0c 30 f8 
    deda:	c7 85 b8 fe ff ff bb 	movl   $0xf8300cbb,-0x148(%rbp)
    dee1:	0c 30 f8 
    dee4:	c7 85 bc fe ff ff ff 	movl   $0xffffffff,-0x144(%rbp)
    deeb:	ff ff ff 
    deee:	c7 85 c0 fe ff ff ff 	movl   $0xffffffff,-0x140(%rbp)
    def5:	ff ff ff 
    def8:	c7 85 c4 fe ff ff 09 	movl   $0x9,-0x13c(%rbp)
    deff:	00 00 00 
    df02:	c7 85 c8 fe ff ff ff 	movl   $0xffffffff,-0x138(%rbp)
    df09:	ff ff ff 
    df0c:	c7 85 cc fe ff ff ff 	movl   $0xffffffff,-0x134(%rbp)
    df13:	ff ff ff 
    df16:	c7 85 d0 fe ff ff 09 	movl   $0x9,-0x130(%rbp)
    df1d:	00 00 00 
    df20:	c7 85 d4 fe ff ff ff 	movl   $0xffffffff,-0x12c(%rbp)
    df27:	ff ff ff 
    df2a:	c7 85 d8 fe ff ff ff 	movl   $0xffffffff,-0x128(%rbp)
    df31:	ff ff ff 
    df34:	c7 85 dc fe ff ff bb 	movl   $0xf8300cbb,-0x124(%rbp)
    df3b:	0c 30 f8 
    df3e:	c7 85 e0 fe ff ff bb 	movl   $0xf8300cbb,-0x120(%rbp)
    df45:	0c 30 f8 
    df48:	c7 85 e4 fe ff ff ff 	movl   $0xffffffff,-0x11c(%rbp)
    df4f:	ff ff ff 
    df52:	c7 85 e8 fe ff ff bb 	movl   $0xf8300cbb,-0x118(%rbp)
    df59:	0c 30 f8 
    df5c:	c7 85 ec fe ff ff bb 	movl   $0xf8300cbb,-0x114(%rbp)
    df63:	0c 30 f8 
    df66:	c7 85 f0 fe ff ff ff 	movl   $0xffffffff,-0x110(%rbp)
    df6d:	ff ff ff 
    df70:	c7 85 f4 fe ff ff bb 	movl   $0xf8300cbb,-0x10c(%rbp)
    df77:	0c 30 f8 
    df7a:	c7 85 f8 fe ff ff ff 	movl   $0xffffffff,-0x108(%rbp)
    df81:	ff ff ff 
    df84:	c7 85 fc fe ff ff bb 	movl   $0xf8300cbb,-0x104(%rbp)
    df8b:	0c 30 f8 
    df8e:	c7 85 00 ff ff ff bb 	movl   $0xf8300cbb,-0x100(%rbp)
    df95:	0c 30 f8 
    df98:	c7 85 04 ff ff ff ff 	movl   $0xffffffff,-0xfc(%rbp)
    df9f:	ff ff ff 
    dfa2:	c7 85 08 ff ff ff bb 	movl   $0xf8300cbb,-0xf8(%rbp)
    dfa9:	0c 30 f8 
    dfac:	c7 85 0c ff ff ff bb 	movl   $0xf8300cbb,-0xf4(%rbp)
    dfb3:	0c 30 f8 
    dfb6:	8b 05 10 04 01 00    	mov    0x10410(%rip),%eax        # 1e3cc <g_1213>
    dfbc:	83 e8 01             	sub    $0x1,%eax
    dfbf:	89 05 07 04 01 00    	mov    %eax,0x10407(%rip)        # 1e3cc <g_1213>
    dfc5:	48 8b 05 6c 22 01 00 	mov    0x1226c(%rip),%rax        # 20238 <g_914>
    dfcc:	48 8b 00             	mov    (%rax),%rax
    dfcf:	8b 95 dc fe ff ff    	mov    -0x124(%rbp),%edx
    dfd5:	89 10                	mov    %edx,(%rax)
    dfd7:	48 8b 85 f8 fd ff ff 	mov    -0x208(%rbp),%rax
    dfde:	c7 00 ec c8 fd 87    	movl   $0x87fdc8ec,(%rax)
    dfe4:	e9 1a 02 00 00       	jmpq   e203 <func_38+0x72a>
    dfe9:	c7 85 90 fd ff ff 12 	movl   $0xe9370712,-0x270(%rbp)
    dff0:	07 37 e9 
    dff3:	48 8d 85 90 fd ff ff 	lea    -0x270(%rbp),%rax
    dffa:	48 89 85 a0 fe ff ff 	mov    %rax,-0x160(%rbp)
    e001:	48 8d 85 90 fd ff ff 	lea    -0x270(%rbp),%rax
    e008:	48 89 85 a8 fe ff ff 	mov    %rax,-0x158(%rbp)
    e00f:	48 c7 85 b0 fe ff ff 	movq   $0x0,-0x150(%rbp)
    e016:	00 00 00 00 
    e01a:	48 8d 85 90 fd ff ff 	lea    -0x270(%rbp),%rax
    e021:	48 89 85 b8 fe ff ff 	mov    %rax,-0x148(%rbp)
    e028:	48 8d 85 90 fd ff ff 	lea    -0x270(%rbp),%rax
    e02f:	48 89 85 c0 fe ff ff 	mov    %rax,-0x140(%rbp)
    e036:	48 8d 05 b7 02 01 00 	lea    0x102b7(%rip),%rax        # 1e2f4 <g_96+0x14>
    e03d:	48 89 85 c8 fe ff ff 	mov    %rax,-0x138(%rbp)
    e044:	48 8d 05 a9 02 01 00 	lea    0x102a9(%rip),%rax        # 1e2f4 <g_96+0x14>
    e04b:	48 89 85 d0 fe ff ff 	mov    %rax,-0x130(%rbp)
    e052:	48 8d 85 90 fd ff ff 	lea    -0x270(%rbp),%rax
    e059:	48 89 85 d8 fe ff ff 	mov    %rax,-0x128(%rbp)
    e060:	48 8d 05 8d 02 01 00 	lea    0x1028d(%rip),%rax        # 1e2f4 <g_96+0x14>
    e067:	48 89 85 e0 fe ff ff 	mov    %rax,-0x120(%rbp)
    e06e:	48 8d 85 90 fd ff ff 	lea    -0x270(%rbp),%rax
    e075:	48 89 85 e8 fe ff ff 	mov    %rax,-0x118(%rbp)
    e07c:	48 8d 05 71 02 01 00 	lea    0x10271(%rip),%rax        # 1e2f4 <g_96+0x14>
    e083:	48 89 85 f0 fe ff ff 	mov    %rax,-0x110(%rbp)
    e08a:	48 8d 05 63 02 01 00 	lea    0x10263(%rip),%rax        # 1e2f4 <g_96+0x14>
    e091:	48 89 85 f8 fe ff ff 	mov    %rax,-0x108(%rbp)
    e098:	48 8d 85 90 fd ff ff 	lea    -0x270(%rbp),%rax
    e09f:	48 89 85 00 ff ff ff 	mov    %rax,-0x100(%rbp)
    e0a6:	48 8d 85 90 fd ff ff 	lea    -0x270(%rbp),%rax
    e0ad:	48 89 85 08 ff ff ff 	mov    %rax,-0xf8(%rbp)
    e0b4:	48 c7 85 10 ff ff ff 	movq   $0x0,-0xf0(%rbp)
    e0bb:	00 00 00 00 
    e0bf:	48 8d 85 90 fd ff ff 	lea    -0x270(%rbp),%rax
    e0c6:	48 89 85 18 ff ff ff 	mov    %rax,-0xe8(%rbp)
    e0cd:	48 8d 85 90 fd ff ff 	lea    -0x270(%rbp),%rax
    e0d4:	48 89 85 20 ff ff ff 	mov    %rax,-0xe0(%rbp)
    e0db:	48 8d 05 12 02 01 00 	lea    0x10212(%rip),%rax        # 1e2f4 <g_96+0x14>
    e0e2:	48 89 85 28 ff ff ff 	mov    %rax,-0xd8(%rbp)
    e0e9:	48 8d 05 04 02 01 00 	lea    0x10204(%rip),%rax        # 1e2f4 <g_96+0x14>
    e0f0:	48 89 85 30 ff ff ff 	mov    %rax,-0xd0(%rbp)
    e0f7:	48 8d 85 90 fd ff ff 	lea    -0x270(%rbp),%rax
    e0fe:	48 89 85 38 ff ff ff 	mov    %rax,-0xc8(%rbp)
    e105:	48 8d 05 e8 01 01 00 	lea    0x101e8(%rip),%rax        # 1e2f4 <g_96+0x14>
    e10c:	48 89 85 40 ff ff ff 	mov    %rax,-0xc0(%rbp)
    e113:	48 8d 85 90 fd ff ff 	lea    -0x270(%rbp),%rax
    e11a:	48 89 85 48 ff ff ff 	mov    %rax,-0xb8(%rbp)
    e121:	48 8d 05 cc 01 01 00 	lea    0x101cc(%rip),%rax        # 1e2f4 <g_96+0x14>
    e128:	48 89 85 50 ff ff ff 	mov    %rax,-0xb0(%rbp)
    e12f:	48 8d 05 be 01 01 00 	lea    0x101be(%rip),%rax        # 1e2f4 <g_96+0x14>
    e136:	48 89 85 58 ff ff ff 	mov    %rax,-0xa8(%rbp)
    e13d:	48 8d 85 90 fd ff ff 	lea    -0x270(%rbp),%rax
    e144:	48 89 85 60 ff ff ff 	mov    %rax,-0xa0(%rbp)
    e14b:	48 8d 85 90 fd ff ff 	lea    -0x270(%rbp),%rax
    e152:	48 89 85 68 ff ff ff 	mov    %rax,-0x98(%rbp)
    e159:	48 c7 85 70 ff ff ff 	movq   $0x0,-0x90(%rbp)
    e160:	00 00 00 00 
    e164:	48 8d 85 90 fd ff ff 	lea    -0x270(%rbp),%rax
    e16b:	48 89 85 78 ff ff ff 	mov    %rax,-0x88(%rbp)
    e172:	48 8d 85 90 fd ff ff 	lea    -0x270(%rbp),%rax
    e179:	48 89 45 80          	mov    %rax,-0x80(%rbp)
    e17d:	48 8d 05 70 01 01 00 	lea    0x10170(%rip),%rax        # 1e2f4 <g_96+0x14>
    e184:	48 89 45 88          	mov    %rax,-0x78(%rbp)
    e188:	48 8d 05 65 01 01 00 	lea    0x10165(%rip),%rax        # 1e2f4 <g_96+0x14>
    e18f:	48 89 45 90          	mov    %rax,-0x70(%rbp)
    e193:	48 8d 85 90 fd ff ff 	lea    -0x270(%rbp),%rax
    e19a:	48 89 45 98          	mov    %rax,-0x68(%rbp)
    e19e:	48 8d 05 4f 01 01 00 	lea    0x1014f(%rip),%rax        # 1e2f4 <g_96+0x14>
    e1a5:	48 89 45 a0          	mov    %rax,-0x60(%rbp)
    e1a9:	48 8d 85 90 fd ff ff 	lea    -0x270(%rbp),%rax
    e1b0:	48 89 45 a8          	mov    %rax,-0x58(%rbp)
    e1b4:	48 8d 05 39 01 01 00 	lea    0x10139(%rip),%rax        # 1e2f4 <g_96+0x14>
    e1bb:	48 89 45 b0          	mov    %rax,-0x50(%rbp)
    e1bf:	48 8d 05 2e 01 01 00 	lea    0x1012e(%rip),%rax        # 1e2f4 <g_96+0x14>
    e1c6:	48 89 45 b8          	mov    %rax,-0x48(%rbp)
    e1ca:	48 8d 85 90 fd ff ff 	lea    -0x270(%rbp),%rax
    e1d1:	48 89 45 c0          	mov    %rax,-0x40(%rbp)
    e1d5:	48 8d 85 90 fd ff ff 	lea    -0x270(%rbp),%rax
    e1dc:	48 89 45 c8          	mov    %rax,-0x38(%rbp)
    e1e0:	48 c7 45 d0 00 00 00 	movq   $0x0,-0x30(%rbp)
    e1e7:	00 
    e1e8:	48 8d 85 90 fd ff ff 	lea    -0x270(%rbp),%rax
    e1ef:	48 89 45 d8          	mov    %rax,-0x28(%rbp)
    e1f3:	0f b6 05 d6 01 01 00 	movzbl 0x101d6(%rip),%eax        # 1e3d0 <g_1219>
    e1fa:	83 e8 01             	sub    $0x1,%eax
    e1fd:	88 05 cd 01 01 00    	mov    %al,0x101cd(%rip)        # 1e3d0 <g_1219>
    e203:	0f bf 85 78 fd ff ff 	movswl -0x288(%rbp),%eax
    e20a:	48 8b 5d e8          	mov    -0x18(%rbp),%rbx
    e20e:	64 48 33 1c 25 28 00 	xor    %fs:0x28,%rbx
    e215:	00 00 
    e217:	74 05                	je     e21e <func_38+0x745>
    e219:	e8 52 9e ff ff       	callq  8070 <__stack_chk_fail@plt>
    e21e:	48 81 c4 98 02 00 00 	add    $0x298,%rsp
    e225:	5b                   	pop    %rbx
    e226:	5d                   	pop    %rbp
    e227:	c3                   	retq   

000000000000e228 <func_44>:
    e228:	f3 0f 1e fa          	endbr64 
    e22c:	55                   	push   %rbp
    e22d:	48 89 e5             	mov    %rsp,%rbp
    e230:	41 57                	push   %r15
    e232:	41 56                	push   %r14
    e234:	41 55                	push   %r13
    e236:	41 54                	push   %r12
    e238:	53                   	push   %rbx
    e239:	48 81 ec 68 04 00 00 	sub    $0x468,%rsp
    e240:	89 bd 8c fb ff ff    	mov    %edi,-0x474(%rbp)
    e246:	48 89 b5 80 fb ff ff 	mov    %rsi,-0x480(%rbp)
    e24d:	48 89 95 78 fb ff ff 	mov    %rdx,-0x488(%rbp)
    e254:	64 48 8b 04 25 28 00 	mov    %fs:0x28,%rax
    e25b:	00 00 
    e25d:	48 89 45 c8          	mov    %rax,-0x38(%rbp)
    e261:	31 c0                	xor    %eax,%eax
    e263:	48 8d 05 cc fd 00 00 	lea    0xfdcc(%rip),%rax        # 1e036 <g_61>
    e26a:	48 89 85 18 fc ff ff 	mov    %rax,-0x3e8(%rbp)
    e271:	c7 85 b4 fb ff ff 24 	movl   $0x7e1cf624,-0x44c(%rbp)
    e278:	f6 1c 7e 
    e27b:	c7 85 b8 fb ff ff f6 	movl   $0xaea587f6,-0x448(%rbp)
    e282:	87 a5 ae 
    e285:	c7 85 bc fb ff ff ff 	movl   $0xffffffff,-0x444(%rbp)
    e28c:	ff ff ff 
    e28f:	c7 85 10 fd ff ff 01 	movl   $0x1,-0x2f0(%rbp)
    e296:	00 00 00 
    e299:	c7 85 14 fd ff ff 01 	movl   $0x1,-0x2ec(%rbp)
    e2a0:	00 00 00 
    e2a3:	c7 85 18 fd ff ff 01 	movl   $0x1,-0x2e8(%rbp)
    e2aa:	00 00 00 
    e2ad:	c7 85 1c fd ff ff 01 	movl   $0x1,-0x2e4(%rbp)
    e2b4:	00 00 00 
    e2b7:	c7 85 20 fd ff ff 01 	movl   $0x1,-0x2e0(%rbp)
    e2be:	00 00 00 
    e2c1:	c7 85 24 fd ff ff 01 	movl   $0x1,-0x2dc(%rbp)
    e2c8:	00 00 00 
    e2cb:	c7 85 28 fd ff ff 01 	movl   $0x1,-0x2d8(%rbp)
    e2d2:	00 00 00 
    e2d5:	c7 85 2c fd ff ff 01 	movl   $0x1,-0x2d4(%rbp)
    e2dc:	00 00 00 
    e2df:	c7 85 30 fd ff ff 01 	movl   $0x1,-0x2d0(%rbp)
    e2e6:	00 00 00 
    e2e9:	48 8d 05 8c 00 01 00 	lea    0x1008c(%rip),%rax        # 1e37c <g_175>
    e2f0:	48 89 85 20 fc ff ff 	mov    %rax,-0x3e0(%rbp)
    e2f7:	48 8d 05 e2 18 01 00 	lea    0x118e2(%rip),%rax        # 1fbe0 <g_209>
    e2fe:	48 89 85 28 fc ff ff 	mov    %rax,-0x3d8(%rbp)
    e305:	48 8d 05 e4 18 01 00 	lea    0x118e4(%rip),%rax        # 1fbf0 <g_275>
    e30c:	48 89 85 30 fc ff ff 	mov    %rax,-0x3d0(%rbp)
    e313:	c7 85 00 ff ff ff fa 	movl   $0xfffffffa,-0x100(%rbp)
    e31a:	ff ff ff 
    e31d:	c7 85 04 ff ff ff fa 	movl   $0xfffffffa,-0xfc(%rbp)
    e324:	ff ff ff 
    e327:	c7 85 08 ff ff ff fa 	movl   $0xfffffffa,-0xf8(%rbp)
    e32e:	ff ff ff 
    e331:	c7 85 0c ff ff ff fa 	movl   $0xfffffffa,-0xf4(%rbp)
    e338:	ff ff ff 
    e33b:	c7 85 10 ff ff ff fa 	movl   $0xfffffffa,-0xf0(%rbp)
    e342:	ff ff ff 
    e345:	c7 85 14 ff ff ff fa 	movl   $0xfffffffa,-0xec(%rbp)
    e34c:	ff ff ff 
    e34f:	c7 85 18 ff ff ff fa 	movl   $0xfffffffa,-0xe8(%rbp)
    e356:	ff ff ff 
    e359:	c7 85 1c ff ff ff fa 	movl   $0xfffffffa,-0xe4(%rbp)
    e360:	ff ff ff 
    e363:	c7 85 20 ff ff ff fa 	movl   $0xfffffffa,-0xe0(%rbp)
    e36a:	ff ff ff 
    e36d:	c7 85 24 ff ff ff fa 	movl   $0xfffffffa,-0xdc(%rbp)
    e374:	ff ff ff 
    e377:	c7 85 28 ff ff ff fa 	movl   $0xfffffffa,-0xd8(%rbp)
    e37e:	ff ff ff 
    e381:	c7 85 2c ff ff ff fa 	movl   $0xfffffffa,-0xd4(%rbp)
    e388:	ff ff ff 
    e38b:	c7 85 30 ff ff ff fa 	movl   $0xfffffffa,-0xd0(%rbp)
    e392:	ff ff ff 
    e395:	c7 85 34 ff ff ff fa 	movl   $0xfffffffa,-0xcc(%rbp)
    e39c:	ff ff ff 
    e39f:	c7 85 38 ff ff ff fa 	movl   $0xfffffffa,-0xc8(%rbp)
    e3a6:	ff ff ff 
    e3a9:	c7 85 3c ff ff ff fa 	movl   $0xfffffffa,-0xc4(%rbp)
    e3b0:	ff ff ff 
    e3b3:	c7 85 40 ff ff ff fa 	movl   $0xfffffffa,-0xc0(%rbp)
    e3ba:	ff ff ff 
    e3bd:	c7 85 44 ff ff ff fa 	movl   $0xfffffffa,-0xbc(%rbp)
    e3c4:	ff ff ff 
    e3c7:	c7 85 48 ff ff ff fa 	movl   $0xfffffffa,-0xb8(%rbp)
    e3ce:	ff ff ff 
    e3d1:	c7 85 4c ff ff ff fa 	movl   $0xfffffffa,-0xb4(%rbp)
    e3d8:	ff ff ff 
    e3db:	c7 85 50 ff ff ff fa 	movl   $0xfffffffa,-0xb0(%rbp)
    e3e2:	ff ff ff 
    e3e5:	c7 85 54 ff ff ff fa 	movl   $0xfffffffa,-0xac(%rbp)
    e3ec:	ff ff ff 
    e3ef:	c7 85 58 ff ff ff fa 	movl   $0xfffffffa,-0xa8(%rbp)
    e3f6:	ff ff ff 
    e3f9:	c7 85 5c ff ff ff fa 	movl   $0xfffffffa,-0xa4(%rbp)
    e400:	ff ff ff 
    e403:	c7 85 60 ff ff ff fa 	movl   $0xfffffffa,-0xa0(%rbp)
    e40a:	ff ff ff 
    e40d:	c7 85 64 ff ff ff fa 	movl   $0xfffffffa,-0x9c(%rbp)
    e414:	ff ff ff 
    e417:	c7 85 68 ff ff ff fa 	movl   $0xfffffffa,-0x98(%rbp)
    e41e:	ff ff ff 
    e421:	c7 85 6c ff ff ff fa 	movl   $0xfffffffa,-0x94(%rbp)
    e428:	ff ff ff 
    e42b:	c7 85 70 ff ff ff fa 	movl   $0xfffffffa,-0x90(%rbp)
    e432:	ff ff ff 
    e435:	c7 85 74 ff ff ff fa 	movl   $0xfffffffa,-0x8c(%rbp)
    e43c:	ff ff ff 
    e43f:	c7 85 78 ff ff ff fa 	movl   $0xfffffffa,-0x88(%rbp)
    e446:	ff ff ff 
    e449:	c7 85 7c ff ff ff fa 	movl   $0xfffffffa,-0x84(%rbp)
    e450:	ff ff ff 
    e453:	c7 45 80 fa ff ff ff 	movl   $0xfffffffa,-0x80(%rbp)
    e45a:	c7 45 84 fa ff ff ff 	movl   $0xfffffffa,-0x7c(%rbp)
    e461:	c7 45 88 fa ff ff ff 	movl   $0xfffffffa,-0x78(%rbp)
    e468:	c7 45 8c fa ff ff ff 	movl   $0xfffffffa,-0x74(%rbp)
    e46f:	c7 45 90 fa ff ff ff 	movl   $0xfffffffa,-0x70(%rbp)
    e476:	c7 45 94 fa ff ff ff 	movl   $0xfffffffa,-0x6c(%rbp)
    e47d:	c7 45 98 fa ff ff ff 	movl   $0xfffffffa,-0x68(%rbp)
    e484:	c7 45 9c fa ff ff ff 	movl   $0xfffffffa,-0x64(%rbp)
    e48b:	c7 45 a0 fa ff ff ff 	movl   $0xfffffffa,-0x60(%rbp)
    e492:	c7 45 a4 fa ff ff ff 	movl   $0xfffffffa,-0x5c(%rbp)
    e499:	c7 45 a8 fa ff ff ff 	movl   $0xfffffffa,-0x58(%rbp)
    e4a0:	c7 45 ac fa ff ff ff 	movl   $0xfffffffa,-0x54(%rbp)
    e4a7:	c7 45 b0 fa ff ff ff 	movl   $0xfffffffa,-0x50(%rbp)
    e4ae:	c7 45 b4 fa ff ff ff 	movl   $0xfffffffa,-0x4c(%rbp)
    e4b5:	c7 45 b8 fa ff ff ff 	movl   $0xfffffffa,-0x48(%rbp)
    e4bc:	c7 45 bc fa ff ff ff 	movl   $0xfffffffa,-0x44(%rbp)
    e4c3:	c7 85 8c fb ff ff 1c 	movl   $0x1c,-0x474(%rbp)
    e4ca:	00 00 00 
    e4cd:	e9 a3 00 00 00       	jmpq   e575 <func_44+0x34d>
    e4d2:	48 8d 05 93 fd 00 00 	lea    0xfd93(%rip),%rax        # 1e26c <g_75+0x22c>
    e4d9:	48 89 85 a0 fc ff ff 	mov    %rax,-0x360(%rbp)
    e4e0:	48 8d 05 4f fb 00 00 	lea    0xfb4f(%rip),%rax        # 1e036 <g_61>
    e4e7:	48 89 85 a8 fc ff ff 	mov    %rax,-0x358(%rbp)
    e4ee:	48 8d 05 d3 fd 00 00 	lea    0xfdd3(%rip),%rax        # 1e2c8 <g_93>
    e4f5:	48 89 85 50 fe ff ff 	mov    %rax,-0x1b0(%rbp)
    e4fc:	48 8d 05 c5 fd 00 00 	lea    0xfdc5(%rip),%rax        # 1e2c8 <g_93>
    e503:	48 89 85 58 fe ff ff 	mov    %rax,-0x1a8(%rbp)
    e50a:	48 8d 05 b7 fd 00 00 	lea    0xfdb7(%rip),%rax        # 1e2c8 <g_93>
    e511:	48 89 85 60 fe ff ff 	mov    %rax,-0x1a0(%rbp)
    e518:	48 8d 05 a9 fd 00 00 	lea    0xfda9(%rip),%rax        # 1e2c8 <g_93>
    e51f:	48 89 85 68 fe ff ff 	mov    %rax,-0x198(%rbp)
    e526:	48 8d 05 9b fd 00 00 	lea    0xfd9b(%rip),%rax        # 1e2c8 <g_93>
    e52d:	48 89 85 70 fe ff ff 	mov    %rax,-0x190(%rbp)
    e534:	48 8d 05 8d fd 00 00 	lea    0xfd8d(%rip),%rax        # 1e2c8 <g_93>
    e53b:	48 89 85 78 fe ff ff 	mov    %rax,-0x188(%rbp)
    e542:	c7 85 fc fb ff ff 02 	movl   $0x2,-0x404(%rbp)
    e549:	00 00 00 
    e54c:	48 8d 05 9d 16 01 00 	lea    0x1169d(%rip),%rax        # 1fbf0 <g_275>
    e553:	48 89 85 b0 fc ff ff 	mov    %rax,-0x350(%rbp)
    e55a:	8b 85 8c fb ff ff    	mov    -0x474(%rbp),%eax
    e560:	48 98                	cltq   
    e562:	be 01 00 00 00       	mov    $0x1,%esi
    e567:	48 89 c7             	mov    %rax,%rdi
    e56a:	e8 dc aa ff ff       	callq  904b <safe_sub_func_uint64_t_u_u>
    e56f:	89 85 8c fb ff ff    	mov    %eax,-0x474(%rbp)
    e575:	83 bd 8c fb ff ff fb 	cmpl   $0xfffffffb,-0x474(%rbp)
    e57c:	0f 8c 50 ff ff ff    	jl     e4d2 <func_44+0x2aa>
    e582:	48 8b 85 78 fb ff ff 	mov    -0x488(%rbp),%rax
    e589:	89 85 b4 fb ff ff    	mov    %eax,-0x44c(%rbp)
    e58f:	48 8b 9d 78 fb ff ff 	mov    -0x488(%rbp),%rbx
    e596:	8b 85 8c fb ff ff    	mov    -0x474(%rbp),%eax
    e59c:	4c 63 e0             	movslq %eax,%r12
    e59f:	8b 85 8c fb ff ff    	mov    -0x474(%rbp),%eax
    e5a5:	0f b7 d0             	movzwl %ax,%edx
    e5a8:	8b 85 b4 fb ff ff    	mov    -0x44c(%rbp),%eax
    e5ae:	0f b7 c0             	movzwl %ax,%eax
    e5b1:	89 d6                	mov    %edx,%esi
    e5b3:	89 c7                	mov    %eax,%edi
    e5b5:	e8 d4 a7 ff ff       	callq  8d8e <safe_div_func_uint16_t_u_u>
    e5ba:	83 c8 02             	or     $0x2,%eax
    e5bd:	0f b7 c0             	movzwl %ax,%eax
    e5c0:	4c 89 e6             	mov    %r12,%rsi
    e5c3:	48 89 c7             	mov    %rax,%rdi
    e5c6:	e8 76 a2 ff ff       	callq  8841 <safe_add_func_int64_t_s_s>
    e5cb:	48 89 de             	mov    %rbx,%rsi
    e5ce:	48 89 c7             	mov    %rax,%rdi
    e5d1:	e8 75 aa ff ff       	callq  904b <safe_sub_func_uint64_t_u_u>
    e5d6:	48 83 f8 fb          	cmp    $0xfffffffffffffffb,%rax
    e5da:	0f 95 c2             	setne  %dl
    e5dd:	48 8b 05 ec 15 01 00 	mov    0x115ec(%rip),%rax        # 1fbd0 <g_187>
    e5e4:	88 10                	mov    %dl,(%rax)
    e5e6:	0f b6 00             	movzbl (%rax),%eax
    e5e9:	48 0f be c0          	movsbq %al,%rax
    e5ed:	48 33 85 78 fb ff ff 	xor    -0x488(%rbp),%rax
    e5f4:	48 83 e0 fc          	and    $0xfffffffffffffffc,%rax
    e5f8:	48 89 c2             	mov    %rax,%rdx
    e5fb:	8b 85 b8 fb ff ff    	mov    -0x448(%rbp),%eax
    e601:	48 98                	cltq   
    e603:	48 39 c2             	cmp    %rax,%rdx
    e606:	7d 09                	jge    e611 <func_44+0x3e9>
    e608:	83 bd bc fb ff ff 00 	cmpl   $0x0,-0x444(%rbp)
    e60f:	74 07                	je     e618 <func_44+0x3f0>
    e611:	b8 01 00 00 00       	mov    $0x1,%eax
    e616:	eb 05                	jmp    e61d <func_44+0x3f5>
    e618:	b8 00 00 00 00       	mov    $0x0,%eax
    e61d:	98                   	cwtl   
    e61e:	be 78 a8 ff ff       	mov    $0xffffa878,%esi
    e623:	89 c7                	mov    %eax,%edi
    e625:	e8 89 9d ff ff       	callq  83b3 <safe_add_func_int16_t_s_s>
    e62a:	0f b6 05 47 fd 00 00 	movzbl 0xfd47(%rip),%eax        # 1e378 <g_161>
    e631:	0f b6 c0             	movzbl %al,%eax
    e634:	be 06 00 00 00       	mov    $0x6,%esi
    e639:	89 c7                	mov    %eax,%edi
    e63b:	e8 8c a0 ff ff       	callq  86cc <safe_mod_func_int32_t_s_s>
    e640:	48 8b 85 78 fb ff ff 	mov    -0x488(%rbp),%rax
    e647:	be 00 00 00 00       	mov    $0x0,%esi
    e64c:	89 c7                	mov    %eax,%edi
    e64e:	e8 65 a8 ff ff       	callq  8eb8 <safe_add_func_uint32_t_u_u>
    e653:	85 c0                	test   %eax,%eax
    e655:	0f 84 97 0d 00 00    	je     f3f2 <func_44+0x11ca>
    e65b:	66 c7 85 c2 fc ff ff 	movw   $0x431,-0x33e(%rbp)
    e662:	31 04 
    e664:	66 c7 85 c4 fc ff ff 	movw   $0x829,-0x33c(%rbp)
    e66b:	29 08 
    e66d:	66 c7 85 c6 fc ff ff 	movw   $0x829,-0x33a(%rbp)
    e674:	29 08 
    e676:	66 c7 85 c8 fc ff ff 	movw   $0x431,-0x338(%rbp)
    e67d:	31 04 
    e67f:	66 c7 85 ca fc ff ff 	movw   $0x829,-0x336(%rbp)
    e686:	29 08 
    e688:	66 c7 85 cc fc ff ff 	movw   $0x829,-0x334(%rbp)
    e68f:	29 08 
    e691:	66 c7 85 ce fc ff ff 	movw   $0x431,-0x332(%rbp)
    e698:	31 04 
    e69a:	c7 85 98 fb ff ff 01 	movl   $0x1,-0x468(%rbp)
    e6a1:	00 00 00 
    e6a4:	48 8d 05 47 29 01 00 	lea    0x12947(%rip),%rax        # 20ff2 <g_188>
    e6ab:	48 89 85 38 fc ff ff 	mov    %rax,-0x3c8(%rbp)
    e6b2:	48 8d 05 3b 29 01 00 	lea    0x1293b(%rip),%rax        # 20ff4 <g_206>
    e6b9:	48 89 85 70 fd ff ff 	mov    %rax,-0x290(%rbp)
    e6c0:	48 c7 85 78 fd ff ff 	movq   $0x0,-0x288(%rbp)
    e6c7:	00 00 00 00 
    e6cb:	48 c7 85 80 fd ff ff 	movq   $0x0,-0x280(%rbp)
    e6d2:	00 00 00 00 
    e6d6:	48 8d 05 17 29 01 00 	lea    0x12917(%rip),%rax        # 20ff4 <g_206>
    e6dd:	48 89 85 88 fd ff ff 	mov    %rax,-0x278(%rbp)
    e6e4:	48 8d 05 09 29 01 00 	lea    0x12909(%rip),%rax        # 20ff4 <g_206>
    e6eb:	48 89 85 90 fd ff ff 	mov    %rax,-0x270(%rbp)
    e6f2:	48 8d 05 fb 28 01 00 	lea    0x128fb(%rip),%rax        # 20ff4 <g_206>
    e6f9:	48 89 85 98 fd ff ff 	mov    %rax,-0x268(%rbp)
    e700:	48 c7 85 a0 fd ff ff 	movq   $0x0,-0x260(%rbp)
    e707:	00 00 00 00 
    e70b:	48 c7 85 a8 fd ff ff 	movq   $0x0,-0x258(%rbp)
    e712:	00 00 00 00 
    e716:	48 8d 05 d7 28 01 00 	lea    0x128d7(%rip),%rax        # 20ff4 <g_206>
    e71d:	48 89 85 b0 fd ff ff 	mov    %rax,-0x250(%rbp)
    e724:	48 8d 05 c9 28 01 00 	lea    0x128c9(%rip),%rax        # 20ff4 <g_206>
    e72b:	48 89 85 b8 fd ff ff 	mov    %rax,-0x248(%rbp)
    e732:	48 8d 05 bb 28 01 00 	lea    0x128bb(%rip),%rax        # 20ff4 <g_206>
    e739:	48 89 85 c0 fd ff ff 	mov    %rax,-0x240(%rbp)
    e740:	48 c7 85 c8 fd ff ff 	movq   $0x0,-0x238(%rbp)
    e747:	00 00 00 00 
    e74b:	c7 85 9c fb ff ff 00 	movl   $0x0,-0x464(%rbp)
    e752:	00 00 00 
    e755:	eb 1a                	jmp    e771 <func_44+0x549>
    e757:	8b 85 9c fb ff ff    	mov    -0x464(%rbp),%eax
    e75d:	48 98                	cltq   
    e75f:	c7 84 85 b8 fc ff ff 	movl   $0x4f1f75a1,-0x348(%rbp,%rax,4)
    e766:	a1 75 1f 4f 
    e76a:	83 85 9c fb ff ff 01 	addl   $0x1,-0x464(%rbp)
    e771:	83 bd 9c fb ff ff 01 	cmpl   $0x1,-0x464(%rbp)
    e778:	7e dd                	jle    e757 <func_44+0x52f>
    e77a:	c7 05 18 fc 00 00 00 	movl   $0x0,0xfc18(%rip)        # 1e39c <g_587>
    e781:	00 00 00 
    e784:	90                   	nop
    e785:	8b 05 11 fc 00 00    	mov    0xfc11(%rip),%eax        # 1e39c <g_587>
    e78b:	83 f8 18             	cmp    $0x18,%eax
    e78e:	0f 84 d5 02 00 00    	je     ea69 <func_44+0x841>
    e794:	66 c7 85 96 fb ff ff 	movw   $0x1,-0x46a(%rbp)
    e79b:	01 00 
    e79d:	c7 85 c4 fb ff ff 00 	movl   $0x0,-0x43c(%rbp)
    e7a4:	00 00 00 
    e7a7:	c7 85 c8 fb ff ff ff 	movl   $0xffffffff,-0x438(%rbp)
    e7ae:	ff ff ff 
    e7b1:	c7 85 cc fb ff ff 01 	movl   $0x96e04501,-0x434(%rbp)
    e7b8:	45 e0 96 
    e7bb:	c7 85 d0 fb ff ff 01 	movl   $0x1,-0x430(%rbp)
    e7c2:	00 00 00 
    e7c5:	c7 85 d4 fb ff ff fc 	movl   $0xc7becffc,-0x42c(%rbp)
    e7cc:	cf be c7 
    e7cf:	c7 85 d8 fb ff ff 01 	movl   $0x1,-0x428(%rbp)
    e7d6:	00 00 00 
    e7d9:	c7 85 dc fb ff ff 7f 	movl   $0x1f28f37f,-0x424(%rbp)
    e7e0:	f3 28 1f 
    e7e3:	c7 85 e0 fb ff ff 83 	movl   $0x79025883,-0x420(%rbp)
    e7ea:	58 02 79 
    e7ed:	c7 85 e4 fb ff ff 84 	movl   $0xcbb47984,-0x41c(%rbp)
    e7f4:	79 b4 cb 
    e7f7:	c7 85 e8 fb ff ff 04 	movl   $0x4,-0x418(%rbp)
    e7fe:	00 00 00 
    e801:	c7 85 ec fb ff ff 01 	movl   $0x1,-0x414(%rbp)
    e808:	00 00 00 
    e80b:	c7 85 f0 fb ff ff fa 	movl   $0xfffffffa,-0x410(%rbp)
    e812:	ff ff ff 
    e815:	c7 85 f4 fb ff ff 67 	movl   $0x84ad6b67,-0x40c(%rbp)
    e81c:	6b ad 84 
    e81f:	c7 85 f8 fb ff ff ff 	movl   $0xffffffff,-0x408(%rbp)
    e826:	ff ff ff 
    e829:	c6 85 95 fb ff ff 04 	movb   $0x4,-0x46b(%rbp)
    e830:	48 8d 05 59 fb 00 00 	lea    0xfb59(%rip),%rax        # 1e390 <g_364>
    e837:	48 89 85 98 fc ff ff 	mov    %rax,-0x368(%rbp)
    e83e:	c7 85 a0 fb ff ff 00 	movl   $0x0,-0x460(%rbp)
    e845:	00 00 00 
    e848:	eb 1e                	jmp    e868 <func_44+0x640>
    e84a:	8b 85 a0 fb ff ff    	mov    -0x460(%rbp),%eax
    e850:	48 98                	cltq   
    e852:	48 8d 15 1f fb 00 00 	lea    0xfb1f(%rip),%rdx        # 1e378 <g_161>
    e859:	48 89 94 c5 d0 fd ff 	mov    %rdx,-0x230(%rbp,%rax,8)
    e860:	ff 
    e861:	83 85 a0 fb ff ff 01 	addl   $0x1,-0x460(%rbp)
    e868:	83 bd a0 fb ff ff 01 	cmpl   $0x1,-0x460(%rbp)
    e86f:	7e d9                	jle    e84a <func_44+0x622>
    e871:	c7 85 a0 fb ff ff 00 	movl   $0x0,-0x460(%rbp)
    e878:	00 00 00 
    e87b:	eb 1e                	jmp    e89b <func_44+0x673>
    e87d:	8b 85 a0 fb ff ff    	mov    -0x460(%rbp),%eax
    e883:	48 98                	cltq   
    e885:	48 8d 15 28 fb 00 00 	lea    0xfb28(%rip),%rdx        # 1e3b4 <g_743>
    e88c:	48 89 94 c5 50 fe ff 	mov    %rdx,-0x1b0(%rbp,%rax,8)
    e893:	ff 
    e894:	83 85 a0 fb ff ff 01 	addl   $0x1,-0x460(%rbp)
    e89b:	83 bd a0 fb ff ff 02 	cmpl   $0x2,-0x460(%rbp)
    e8a2:	7e d9                	jle    e87d <func_44+0x655>
    e8a4:	48 8b 15 f5 18 01 00 	mov    0x118f5(%rip),%rdx        # 201a0 <g_759>
    e8ab:	48 8b 05 f6 18 01 00 	mov    0x118f6(%rip),%rax        # 201a8 <g_814>
    e8b2:	48 8b 12             	mov    (%rdx),%rdx
    e8b5:	48 89 10             	mov    %rdx,(%rax)
    e8b8:	80 ad 95 fb ff ff 01 	subb   $0x1,-0x46b(%rbp)
    e8bf:	0f b6 95 95 fb ff ff 	movzbl -0x46b(%rbp),%edx
    e8c6:	48 8b 05 1b 13 01 00 	mov    0x1131b(%rip),%rax        # 1fbe8 <g_208>
    e8cd:	48 8b 00             	mov    (%rax),%rax
    e8d0:	48 8b 00             	mov    (%rax),%rax
    e8d3:	48 8b 00             	mov    (%rax),%rax
    e8d6:	83 e2 03             	and    $0x3,%edx
    e8d9:	89 10                	mov    %edx,(%rax)
    e8db:	0f b7 85 ce fc ff ff 	movzwl -0x332(%rbp),%eax
    e8e2:	48 0f bf d8          	movswq %ax,%rbx
    e8e6:	48 8b 85 78 fb ff ff 	mov    -0x488(%rbp),%rax
    e8ed:	41 89 c7             	mov    %eax,%r15d
    e8f0:	8b 05 3a f8 00 00    	mov    0xf83a(%rip),%eax        # 1e130 <g_75+0xf0>
    e8f6:	44 0f bf e0          	movswl %ax,%r12d
    e8fa:	48 8b 85 98 fc ff ff 	mov    -0x368(%rbp),%rax
    e901:	48 8b 10             	mov    (%rax),%rdx
    e904:	8b 85 8c fb ff ff    	mov    -0x474(%rbp),%eax
    e90a:	48 98                	cltq   
    e90c:	48 21 c2             	and    %rax,%rdx
    e90f:	48 8b 85 98 fc ff ff 	mov    -0x368(%rbp),%rax
    e916:	48 89 10             	mov    %rdx,(%rax)
    e919:	48 8b 85 98 fc ff ff 	mov    -0x368(%rbp),%rax
    e920:	4c 8b 30             	mov    (%rax),%r14
    e923:	8b 85 d4 fb ff ff    	mov    -0x42c(%rbp),%eax
    e929:	44 0f be e8          	movsbl %al,%r13d
    e92d:	83 bd b8 fb ff ff 00 	cmpl   $0x0,-0x448(%rbp)
    e934:	75 41                	jne    e977 <func_44+0x74f>
    e936:	48 8b 05 ab 12 01 00 	mov    0x112ab(%rip),%rax        # 1fbe8 <g_208>
    e93d:	48 8b 00             	mov    (%rax),%rax
    e940:	48 8b 00             	mov    (%rax),%rax
    e943:	48 85 c0             	test   %rax,%rax
    e946:	0f 95 c0             	setne  %al
    e949:	0f b6 d0             	movzbl %al,%edx
    e94c:	8b 85 bc fc ff ff    	mov    -0x344(%rbp),%eax
    e952:	39 c2                	cmp    %eax,%edx
    e954:	0f 9f c0             	setg   %al
    e957:	0f b6 d0             	movzbl %al,%edx
    e95a:	0f b7 05 53 fa 00 00 	movzwl 0xfa53(%rip),%eax        # 1e3b4 <g_743>
    e961:	8d 48 01             	lea    0x1(%rax),%ecx
    e964:	66 89 0d 49 fa 00 00 	mov    %cx,0xfa49(%rip)        # 1e3b4 <g_743>
    e96b:	0f b7 c0             	movzwl %ax,%eax
    e96e:	89 d6                	mov    %edx,%esi
    e970:	89 c7                	mov    %eax,%edi
    e972:	e8 c6 a3 ff ff       	callq  8d3d <safe_mul_func_uint16_t_u_u>
    e977:	b8 01 00 00 00       	mov    $0x1,%eax
    e97c:	0f be c0             	movsbl %al,%eax
    e97f:	44 89 ee             	mov    %r13d,%esi
    e982:	89 c7                	mov    %eax,%edi
    e984:	e8 a8 98 ff ff       	callq  8231 <safe_mod_func_int8_t_s_s>
    e989:	48 0f be c0          	movsbq %al,%rax
    e98d:	49 39 c6             	cmp    %rax,%r14
    e990:	0f 9f c0             	setg   %al
    e993:	0f b6 c0             	movzbl %al,%eax
    e996:	89 c6                	mov    %eax,%esi
    e998:	bf 01 00 00 00       	mov    $0x1,%edi
    e99d:	e8 93 99 ff ff       	callq  8335 <safe_rshift_func_int8_t_s_s>
    e9a2:	84 c0                	test   %al,%al
    e9a4:	0f 9e c0             	setle  %al
    e9a7:	0f b6 d0             	movzbl %al,%edx
    e9aa:	48 8b 05 1f 12 01 00 	mov    0x1121f(%rip),%rax        # 1fbd0 <g_187>
    e9b1:	0f b6 00             	movzbl (%rax),%eax
    e9b4:	0f be c0             	movsbl %al,%eax
    e9b7:	39 c2                	cmp    %eax,%edx
    e9b9:	0f 9f c0             	setg   %al
    e9bc:	0f b6 c0             	movzbl %al,%eax
    e9bf:	48 8b 95 78 fb ff ff 	mov    -0x488(%rbp),%rdx
    e9c6:	31 c2                	xor    %eax,%edx
    e9c8:	48 8b 85 18 fc ff ff 	mov    -0x3e8(%rbp),%rax
    e9cf:	66 89 10             	mov    %dx,(%rax)
    e9d2:	48 8b 85 18 fc ff ff 	mov    -0x3e8(%rbp),%rax
    e9d9:	0f b7 00             	movzwl (%rax),%eax
    e9dc:	98                   	cwtl   
    e9dd:	44 89 e6             	mov    %r12d,%esi
    e9e0:	89 c7                	mov    %eax,%edi
    e9e2:	e8 ec 99 ff ff       	callq  83d3 <safe_sub_func_int16_t_s_s>
    e9e7:	0f bf d0             	movswl %ax,%edx
    e9ea:	48 8b 85 d0 fd ff ff 	mov    -0x230(%rbp),%rax
    e9f1:	48 89 85 38 fc ff ff 	mov    %rax,-0x3c8(%rbp)
    e9f8:	48 8b 85 d8 fd ff ff 	mov    -0x228(%rbp),%rax
    e9ff:	48 39 85 38 fc ff ff 	cmp    %rax,-0x3c8(%rbp)
    ea06:	0f 95 c0             	setne  %al
    ea09:	0f b6 c0             	movzbl %al,%eax
    ea0c:	89 d6                	mov    %edx,%esi
    ea0e:	89 c7                	mov    %eax,%edi
    ea10:	e8 a9 a2 ff ff       	callq  8cbe <safe_rshift_func_uint8_t_u_u>
    ea15:	0f be c0             	movsbl %al,%eax
    ea18:	44 89 fe             	mov    %r15d,%esi
    ea1b:	89 c7                	mov    %eax,%edi
    ea1d:	e8 13 99 ff ff       	callq  8335 <safe_rshift_func_int8_t_s_s>
    ea22:	48 89 de             	mov    %rbx,%rsi
    ea25:	bf 01 00 00 00       	mov    $0x1,%edi
    ea2a:	e8 c8 9f ff ff       	callq  89f7 <safe_div_func_int64_t_s_s>
    ea2f:	48 85 c0             	test   %rax,%rax
    ea32:	0f 94 c0             	sete   %al
    ea35:	0f b6 c8             	movzbl %al,%ecx
    ea38:	48 8b 05 a9 11 01 00 	mov    0x111a9(%rip),%rax        # 1fbe8 <g_208>
    ea3f:	48 8b 00             	mov    (%rax),%rax
    ea42:	48 8b 00             	mov    (%rax),%rax
    ea45:	48 8b 00             	mov    (%rax),%rax
    ea48:	8b 10                	mov    (%rax),%edx
    ea4a:	48 8b 05 97 11 01 00 	mov    0x11197(%rip),%rax        # 1fbe8 <g_208>
    ea51:	48 8b 00             	mov    (%rax),%rax
    ea54:	48 8b 00             	mov    (%rax),%rax
    ea57:	48 8b 00             	mov    (%rax),%rax
    ea5a:	31 ca                	xor    %ecx,%edx
    ea5c:	89 10                	mov    %edx,(%rax)
    ea5e:	8b 85 f8 fb ff ff    	mov    -0x408(%rbp),%eax
    ea64:	e9 07 0a 00 00       	jmpq   f470 <func_44+0x1248>
    ea69:	48 c7 05 2c f9 00 00 	movq   $0xffffffffffffffe7,0xf92c(%rip)        # 1e3a0 <g_597>
    ea70:	e7 ff ff ff 
    ea74:	e9 5c 09 00 00       	jmpq   f3d5 <func_44+0x11ad>
    ea79:	48 8d 85 f0 fc ff ff 	lea    -0x310(%rbp),%rax
    ea80:	48 83 c0 18          	add    $0x18,%rax
    ea84:	48 89 85 40 fc ff ff 	mov    %rax,-0x3c0(%rbp)
    ea8b:	48 8d 05 16 17 01 00 	lea    0x11716(%rip),%rax        # 201a8 <g_814>
    ea92:	48 89 85 48 fc ff ff 	mov    %rax,-0x3b8(%rbp)
    ea99:	c6 85 92 fb ff ff 30 	movb   $0x30,-0x46e(%rbp)
    eaa0:	48 8d 05 f1 f8 00 00 	lea    0xf8f1(%rip),%rax        # 1e398 <g_535>
    eaa7:	48 89 85 d0 fd ff ff 	mov    %rax,-0x230(%rbp)
    eaae:	48 8d 05 3f 25 01 00 	lea    0x1253f(%rip),%rax        # 20ff4 <g_206>
    eab5:	48 89 85 d8 fd ff ff 	mov    %rax,-0x228(%rbp)
    eabc:	48 8d 05 d5 f8 00 00 	lea    0xf8d5(%rip),%rax        # 1e398 <g_535>
    eac3:	48 89 85 e0 fd ff ff 	mov    %rax,-0x220(%rbp)
    eaca:	48 8d 05 c7 f8 00 00 	lea    0xf8c7(%rip),%rax        # 1e398 <g_535>
    ead1:	48 89 85 e8 fd ff ff 	mov    %rax,-0x218(%rbp)
    ead8:	48 8d 05 15 25 01 00 	lea    0x12515(%rip),%rax        # 20ff4 <g_206>
    eadf:	48 89 85 f0 fd ff ff 	mov    %rax,-0x210(%rbp)
    eae6:	48 8d 05 07 25 01 00 	lea    0x12507(%rip),%rax        # 20ff4 <g_206>
    eaed:	48 89 85 f8 fd ff ff 	mov    %rax,-0x208(%rbp)
    eaf4:	48 c7 85 00 fe ff ff 	movq   $0x0,-0x200(%rbp)
    eafb:	00 00 00 00 
    eaff:	48 8d 05 ee 24 01 00 	lea    0x124ee(%rip),%rax        # 20ff4 <g_206>
    eb06:	48 89 85 08 fe ff ff 	mov    %rax,-0x1f8(%rbp)
    eb0d:	48 8d 05 e0 24 01 00 	lea    0x124e0(%rip),%rax        # 20ff4 <g_206>
    eb14:	48 89 85 10 fe ff ff 	mov    %rax,-0x1f0(%rbp)
    eb1b:	48 8d 05 76 f8 00 00 	lea    0xf876(%rip),%rax        # 1e398 <g_535>
    eb22:	48 89 85 18 fe ff ff 	mov    %rax,-0x1e8(%rbp)
    eb29:	48 8d 05 68 f8 00 00 	lea    0xf868(%rip),%rax        # 1e398 <g_535>
    eb30:	48 89 85 20 fe ff ff 	mov    %rax,-0x1e0(%rbp)
    eb37:	48 8d 05 b6 24 01 00 	lea    0x124b6(%rip),%rax        # 20ff4 <g_206>
    eb3e:	48 89 85 28 fe ff ff 	mov    %rax,-0x1d8(%rbp)
    eb45:	48 8d 05 4c f8 00 00 	lea    0xf84c(%rip),%rax        # 1e398 <g_535>
    eb4c:	48 89 85 30 fe ff ff 	mov    %rax,-0x1d0(%rbp)
    eb53:	48 8d 05 9a 24 01 00 	lea    0x1249a(%rip),%rax        # 20ff4 <g_206>
    eb5a:	48 89 85 38 fe ff ff 	mov    %rax,-0x1c8(%rbp)
    eb61:	48 8d 05 30 f8 00 00 	lea    0xf830(%rip),%rax        # 1e398 <g_535>
    eb68:	48 89 85 40 fe ff ff 	mov    %rax,-0x1c0(%rbp)
    eb6f:	48 8d 05 22 f8 00 00 	lea    0xf822(%rip),%rax        # 1e398 <g_535>
    eb76:	48 89 85 48 fe ff ff 	mov    %rax,-0x1b8(%rbp)
    eb7d:	48 8d 85 d0 fd ff ff 	lea    -0x230(%rbp),%rax
    eb84:	48 83 c0 78          	add    $0x78,%rax
    eb88:	48 89 85 40 fd ff ff 	mov    %rax,-0x2c0(%rbp)
    eb8f:	48 8d 85 d0 fd ff ff 	lea    -0x230(%rbp),%rax
    eb96:	48 83 c0 78          	add    $0x78,%rax
    eb9a:	48 89 85 48 fd ff ff 	mov    %rax,-0x2b8(%rbp)
    eba1:	48 8d 85 d0 fd ff ff 	lea    -0x230(%rbp),%rax
    eba8:	48 83 c0 78          	add    $0x78,%rax
    ebac:	48 89 85 50 fd ff ff 	mov    %rax,-0x2b0(%rbp)
    ebb3:	48 8d 85 d0 fd ff ff 	lea    -0x230(%rbp),%rax
    ebba:	48 83 c0 78          	add    $0x78,%rax
    ebbe:	48 89 85 58 fd ff ff 	mov    %rax,-0x2a8(%rbp)
    ebc5:	48 8d 85 d0 fd ff ff 	lea    -0x230(%rbp),%rax
    ebcc:	48 83 c0 78          	add    $0x78,%rax
    ebd0:	48 89 85 60 fd ff ff 	mov    %rax,-0x2a0(%rbp)
    ebd7:	48 c7 85 00 fc ff ff 	movq   $0x0,-0x400(%rbp)
    ebde:	00 00 00 00 
    ebe2:	48 8d 85 00 fc ff ff 	lea    -0x400(%rbp),%rax
    ebe9:	48 89 85 50 fc ff ff 	mov    %rax,-0x3b0(%rbp)
    ebf0:	c7 85 a4 fb ff ff 00 	movl   $0x0,-0x45c(%rbp)
    ebf7:	00 00 00 
    ebfa:	eb 1e                	jmp    ec1a <func_44+0x9f2>
    ebfc:	8b 85 a4 fb ff ff    	mov    -0x45c(%rbp),%eax
    ec02:	48 98                	cltq   
    ec04:	48 8d 15 ed 23 01 00 	lea    0x123ed(%rip),%rdx        # 20ff8 <g_421>
    ec0b:	48 89 94 c5 f0 fc ff 	mov    %rdx,-0x310(%rbp,%rax,8)
    ec12:	ff 
    ec13:	83 85 a4 fb ff ff 01 	addl   $0x1,-0x45c(%rbp)
    ec1a:	83 bd a4 fb ff ff 03 	cmpl   $0x3,-0x45c(%rbp)
    ec21:	7e d9                	jle    ebfc <func_44+0x9d4>
    ec23:	8b 85 b8 fc ff ff    	mov    -0x348(%rbp),%eax
    ec29:	85 c0                	test   %eax,%eax
    ec2b:	0f 84 1f 05 00 00    	je     f150 <func_44+0xf28>
    ec31:	48 8d 05 90 1e 01 00 	lea    0x11e90(%rip),%rax        # 20ac8 <g_1112>
    ec38:	48 89 85 70 fc ff ff 	mov    %rax,-0x390(%rbp)
    ec3f:	48 8d 05 f2 15 01 00 	lea    0x115f2(%rip),%rax        # 20238 <g_914>
    ec46:	48 89 85 10 fc ff ff 	mov    %rax,-0x3f0(%rbp)
    ec4d:	48 8d 85 10 fc ff ff 	lea    -0x3f0(%rbp),%rax
    ec54:	48 89 85 78 fc ff ff 	mov    %rax,-0x388(%rbp)
    ec5b:	48 c7 85 80 fc ff ff 	movq   $0x0,-0x380(%rbp)
    ec62:	00 00 00 00 
    ec66:	c7 85 50 fe ff ff 46 	movl   $0xcd7a4b46,-0x1b0(%rbp)
    ec6d:	4b 7a cd 
    ec70:	c7 85 54 fe ff ff 01 	movl   $0x1,-0x1ac(%rbp)
    ec77:	00 00 00 
    ec7a:	c7 85 58 fe ff ff 51 	movl   $0x29c72051,-0x1a8(%rbp)
    ec81:	20 c7 29 
    ec84:	c7 85 5c fe ff ff 01 	movl   $0x1,-0x1a4(%rbp)
    ec8b:	00 00 00 
    ec8e:	c7 85 60 fe ff ff 46 	movl   $0xcd7a4b46,-0x1a0(%rbp)
    ec95:	4b 7a cd 
    ec98:	c7 85 64 fe ff ff fa 	movl   $0xfffffffa,-0x19c(%rbp)
    ec9f:	ff ff ff 
    eca2:	c7 85 68 fe ff ff 01 	movl   $0x1,-0x198(%rbp)
    eca9:	00 00 00 
    ecac:	c7 85 6c fe ff ff 46 	movl   $0xcd7a4b46,-0x194(%rbp)
    ecb3:	4b 7a cd 
    ecb6:	c7 85 70 fe ff ff fa 	movl   $0xfffffffa,-0x190(%rbp)
    ecbd:	ff ff ff 
    ecc0:	c7 85 74 fe ff ff fa 	movl   $0xfffffffa,-0x18c(%rbp)
    ecc7:	ff ff ff 
    ecca:	c7 85 78 fe ff ff 46 	movl   $0xcd7a4b46,-0x188(%rbp)
    ecd1:	4b 7a cd 
    ecd4:	c7 85 7c fe ff ff 01 	movl   $0x1,-0x184(%rbp)
    ecdb:	00 00 00 
    ecde:	c7 85 80 fe ff ff fe 	movl   $0xfffffffe,-0x180(%rbp)
    ece5:	ff ff ff 
    ece8:	c7 85 84 fe ff ff 01 	movl   $0x1,-0x17c(%rbp)
    ecef:	00 00 00 
    ecf2:	c7 85 88 fe ff ff f7 	movl   $0xfffffff7,-0x178(%rbp)
    ecf9:	ff ff ff 
    ecfc:	c7 85 8c fe ff ff 46 	movl   $0xcd7a4b46,-0x174(%rbp)
    ed03:	4b 7a cd 
    ed06:	c7 85 90 fe ff ff f7 	movl   $0xfffffff7,-0x170(%rbp)
    ed0d:	ff ff ff 
    ed10:	c7 85 94 fe ff ff 01 	movl   $0x1,-0x16c(%rbp)
    ed17:	00 00 00 
    ed1a:	c7 85 98 fe ff ff f7 	movl   $0xfffffff7,-0x168(%rbp)
    ed21:	ff ff ff 
    ed24:	c7 85 9c fe ff ff fe 	movl   $0xfffffffe,-0x164(%rbp)
    ed2b:	ff ff ff 
    ed2e:	c7 85 a0 fe ff ff fa 	movl   $0xfffffffa,-0x160(%rbp)
    ed35:	ff ff ff 
    ed38:	c7 85 a4 fe ff ff 51 	movl   $0x29c72051,-0x15c(%rbp)
    ed3f:	20 c7 29 
    ed42:	c7 85 a8 fe ff ff f7 	movl   $0xfffffff7,-0x158(%rbp)
    ed49:	ff ff ff 
    ed4c:	c7 85 ac fe ff ff 51 	movl   $0x29c72051,-0x154(%rbp)
    ed53:	20 c7 29 
    ed56:	c7 85 b0 fe ff ff c8 	movl   $0xc562dac8,-0x150(%rbp)
    ed5d:	da 62 c5 
    ed60:	c7 85 b4 fe ff ff c8 	movl   $0xc562dac8,-0x14c(%rbp)
    ed67:	da 62 c5 
    ed6a:	c7 85 b8 fe ff ff f7 	movl   $0xfffffff7,-0x148(%rbp)
    ed71:	ff ff ff 
    ed74:	c7 85 bc fe ff ff fa 	movl   $0xfffffffa,-0x144(%rbp)
    ed7b:	ff ff ff 
    ed7e:	c7 85 c0 fe ff ff 01 	movl   $0x1,-0x140(%rbp)
    ed85:	00 00 00 
    ed88:	c7 85 c4 fe ff ff fa 	movl   $0xfffffffa,-0x13c(%rbp)
    ed8f:	ff ff ff 
    ed92:	c7 85 c8 fe ff ff 46 	movl   $0xcd7a4b46,-0x138(%rbp)
    ed99:	4b 7a cd 
    ed9c:	c7 85 cc fe ff ff c8 	movl   $0xc562dac8,-0x134(%rbp)
    eda3:	da 62 c5 
    eda6:	c7 85 d0 fe ff ff 46 	movl   $0xcd7a4b46,-0x130(%rbp)
    edad:	4b 7a cd 
    edb0:	c7 85 d4 fe ff ff 51 	movl   $0x29c72051,-0x12c(%rbp)
    edb7:	20 c7 29 
    edba:	c7 85 d8 fe ff ff f7 	movl   $0xfffffff7,-0x128(%rbp)
    edc1:	ff ff ff 
    edc4:	c7 85 dc fe ff ff f7 	movl   $0xfffffff7,-0x124(%rbp)
    edcb:	ff ff ff 
    edce:	c7 85 e0 fe ff ff fe 	movl   $0xfffffffe,-0x120(%rbp)
    edd5:	ff ff ff 
    edd8:	c7 85 e4 fe ff ff 46 	movl   $0xcd7a4b46,-0x11c(%rbp)
    eddf:	4b 7a cd 
    ede2:	c7 85 e8 fe ff ff 46 	movl   $0xcd7a4b46,-0x118(%rbp)
    ede9:	4b 7a cd 
    edec:	c7 85 ec fe ff ff fe 	movl   $0xfffffffe,-0x114(%rbp)
    edf3:	ff ff ff 
    edf6:	c7 85 f0 fe ff ff c8 	movl   $0xc562dac8,-0x110(%rbp)
    edfd:	da 62 c5 
    ee00:	c7 85 f4 fe ff ff fa 	movl   $0xfffffffa,-0x10c(%rbp)
    ee07:	ff ff ff 
    ee0a:	c6 85 93 fb ff ff 01 	movb   $0x1,-0x46d(%rbp)
    ee11:	c7 85 a8 fb ff ff 00 	movl   $0x0,-0x458(%rbp)
    ee18:	00 00 00 
    ee1b:	eb 1b                	jmp    ee38 <func_44+0xc10>
    ee1d:	8b 85 a8 fb ff ff    	mov    -0x458(%rbp),%eax
    ee23:	48 98                	cltq   
    ee25:	48 c7 84 c5 d0 fc ff 	movq   $0x0,-0x330(%rbp,%rax,8)
    ee2c:	ff 00 00 00 00 
    ee31:	83 85 a8 fb ff ff 01 	addl   $0x1,-0x458(%rbp)
    ee38:	83 bd a8 fb ff ff 02 	cmpl   $0x2,-0x458(%rbp)
    ee3f:	7e dc                	jle    ee1d <func_44+0xbf5>
    ee41:	8b 05 25 f5 00 00    	mov    0xf525(%rip),%eax        # 1e36c <g_96+0x8c>
    ee47:	48 63 d8             	movslq %eax,%rbx
    ee4a:	48 8b 85 48 fc ff ff 	mov    -0x3b8(%rbp),%rax
    ee51:	48 8b 00             	mov    (%rax),%rax
    ee54:	48 8b 00             	mov    (%rax),%rax
    ee57:	8b 00                	mov    (%rax),%eax
    ee59:	44 0f b6 e0          	movzbl %al,%r12d
    ee5d:	be 48 92 09 8b       	mov    $0x8b099248,%esi
    ee62:	bf 6f ad 74 d4       	mov    $0xd474ad6f,%edi
    ee67:	e8 60 98 ff ff       	callq  86cc <safe_mod_func_int32_t_s_s>
    ee6c:	48 8b 15 55 1c 01 00 	mov    0x11c55(%rip),%rdx        # 20ac8 <g_1112>
    ee73:	48 8b 85 70 fc ff ff 	mov    -0x390(%rbp),%rax
    ee7a:	48 89 10             	mov    %rdx,(%rax)
    ee7d:	48 8b 85 70 fc ff ff 	mov    -0x390(%rbp),%rax
    ee84:	48 8b 00             	mov    (%rax),%rax
    ee87:	48 39 85 40 fc ff ff 	cmp    %rax,-0x3c0(%rbp)
    ee8e:	0f 95 c0             	setne  %al
    ee91:	0f b6 c0             	movzbl %al,%eax
    ee94:	48 39 85 78 fb ff ff 	cmp    %rax,-0x488(%rbp)
    ee9b:	0f 9c c0             	setl   %al
    ee9e:	0f b6 c8             	movzbl %al,%ecx
    eea1:	48 8b 95 10 fc ff ff 	mov    -0x3f0(%rbp),%rdx
    eea8:	48 8b 85 78 fc ff ff 	mov    -0x388(%rbp),%rax
    eeaf:	48 89 10             	mov    %rdx,(%rax)
    eeb2:	48 8b 85 78 fc ff ff 	mov    -0x388(%rbp),%rax
    eeb9:	48 8b 00             	mov    (%rax),%rax
    eebc:	48 39 85 48 fc ff ff 	cmp    %rax,-0x3b8(%rbp)
    eec3:	0f 95 c0             	setne  %al
    eec6:	0f b6 d0             	movzbl %al,%edx
    eec9:	8b 05 9d f4 00 00    	mov    0xf49d(%rip),%eax        # 1e36c <g_96+0x8c>
    eecf:	21 d0                	and    %edx,%eax
    eed1:	39 85 8c fb ff ff    	cmp    %eax,-0x474(%rbp)
    eed7:	0f 9e c0             	setle  %al
    eeda:	0f b6 c0             	movzbl %al,%eax
    eedd:	39 c1                	cmp    %eax,%ecx
    eedf:	0f 9c c0             	setl   %al
    eee2:	0f b6 c0             	movzbl %al,%eax
    eee5:	89 85 94 fe ff ff    	mov    %eax,-0x16c(%rbp)
    eeeb:	8b 85 94 fe ff ff    	mov    -0x16c(%rbp),%eax
    eef1:	0f b6 c0             	movzbl %al,%eax
    eef4:	44 89 e6             	mov    %r12d,%esi
    eef7:	89 c7                	mov    %eax,%edi
    eef9:	e8 95 9c ff ff       	callq  8b93 <safe_mul_func_uint8_t_u_u>
    eefe:	0f b6 c0             	movzbl %al,%eax
    ef01:	48 39 85 78 fb ff ff 	cmp    %rax,-0x488(%rbp)
    ef08:	0f 9e c0             	setle  %al
    ef0b:	0f b6 c0             	movzbl %al,%eax
    ef0e:	48 89 de             	mov    %rbx,%rsi
    ef11:	48 89 c7             	mov    %rax,%rdi
    ef14:	e8 8f 99 ff ff       	callq  88a8 <safe_sub_func_int64_t_s_s>
    ef19:	48 85 c0             	test   %rax,%rax
    ef1c:	0f 84 01 02 00 00    	je     f123 <func_44+0xefb>
    ef22:	c6 85 94 fb ff ff 00 	movb   $0x0,-0x46c(%rbp)
    ef29:	48 8d 05 84 f4 00 00 	lea    0xf484(%rip),%rax        # 1e3b4 <g_743>
    ef30:	48 89 85 90 fc ff ff 	mov    %rax,-0x370(%rbp)
    ef37:	0f b7 85 ca fc ff ff 	movzwl -0x336(%rbp),%eax
    ef3e:	0f b6 d8             	movzbl %al,%ebx
    ef41:	8b 85 bc fc ff ff    	mov    -0x344(%rbp),%eax
    ef47:	85 c0                	test   %eax,%eax
    ef49:	0f 84 8e 01 00 00    	je     f0dd <func_44+0xeb5>
    ef4f:	48 83 bd 78 fb ff ff 	cmpq   $0x0,-0x488(%rbp)
    ef56:	00 
    ef57:	0f 95 c0             	setne  %al
    ef5a:	44 0f b6 e8          	movzbl %al,%r13d
    ef5e:	48 8b 05 73 0c 01 00 	mov    0x10c73(%rip),%rax        # 1fbd8 <g_186>
    ef65:	48 8b 00             	mov    (%rax),%rax
    ef68:	0f b6 00             	movzbl (%rax),%eax
    ef6b:	44 0f be e0          	movsbl %al,%r12d
    ef6f:	c6 85 94 fb ff ff ef 	movb   $0xef,-0x46c(%rbp)
    ef76:	48 8b 85 78 fc ff ff 	mov    -0x388(%rbp),%rax
    ef7d:	48 8b 00             	mov    (%rax),%rax
    ef80:	48 8b 00             	mov    (%rax),%rax
    ef83:	48 8b 00             	mov    (%rax),%rax
    ef86:	44 8b 30             	mov    (%rax),%r14d
    ef89:	0f b6 95 92 fb ff ff 	movzbl -0x46e(%rbp),%edx
    ef90:	8b 85 8c fb ff ff    	mov    -0x474(%rbp),%eax
    ef96:	98                   	cwtl   
    ef97:	89 d6                	mov    %edx,%esi
    ef99:	89 c7                	mov    %eax,%edi
    ef9b:	e8 41 95 ff ff       	callq  84e1 <safe_lshift_func_int16_t_s_u>
    efa0:	8b 85 8c fb ff ff    	mov    -0x474(%rbp),%eax
    efa6:	89 85 98 fb ff ff    	mov    %eax,-0x468(%rbp)
    efac:	8b 85 98 fb ff ff    	mov    -0x468(%rbp),%eax
    efb2:	83 f0 ef             	xor    $0xffffffef,%eax
    efb5:	89 c2                	mov    %eax,%edx
    efb7:	48 8b 05 e2 11 01 00 	mov    0x111e2(%rip),%rax        # 201a0 <g_759>
    efbe:	48 8b 00             	mov    (%rax),%rax
    efc1:	8b 00                	mov    (%rax),%eax
    efc3:	21 d0                	and    %edx,%eax
    efc5:	41 39 c6             	cmp    %eax,%r14d
    efc8:	0f 9f c0             	setg   %al
    efcb:	0f b6 c0             	movzbl %al,%eax
    efce:	89 c7                	mov    %eax,%edi
    efd0:	e8 70 9b ff ff       	callq  8b45 <safe_unary_minus_func_uint8_t_u>
    efd5:	0f b6 c0             	movzbl %al,%eax
    efd8:	89 c6                	mov    %eax,%esi
    efda:	bf 3c 26 74 43       	mov    $0x4374263c,%edi
    efdf:	e8 e8 96 ff ff       	callq  86cc <safe_mod_func_int32_t_s_s>
    efe4:	83 f8 06             	cmp    $0x6,%eax
    efe7:	0f 9e c0             	setle  %al
    efea:	0f b6 d0             	movzbl %al,%edx
    efed:	0f b7 05 fc 1f 01 00 	movzwl 0x11ffc(%rip),%eax        # 20ff0 <g_160>
    eff4:	98                   	cwtl   
    eff5:	21 c2                	and    %eax,%edx
    eff7:	48 8b 85 48 fc ff ff 	mov    -0x3b8(%rbp),%rax
    effe:	48 8b 00             	mov    (%rax),%rax
    f001:	48 8b 00             	mov    (%rax),%rax
    f004:	8b 00                	mov    (%rax),%eax
    f006:	39 c2                	cmp    %eax,%edx
    f008:	0f 9d c0             	setge  %al
    f00b:	0f b6 d0             	movzbl %al,%edx
    f00e:	48 8b 85 48 fc ff ff 	mov    -0x3b8(%rbp),%rax
    f015:	48 8b 00             	mov    (%rax),%rax
    f018:	48 8b 00             	mov    (%rax),%rax
    f01b:	8b 00                	mov    (%rax),%eax
    f01d:	39 c2                	cmp    %eax,%edx
    f01f:	0f 9c c0             	setl   %al
    f022:	0f b6 c0             	movzbl %al,%eax
    f025:	be 2a 00 00 00       	mov    $0x2a,%esi
    f02a:	89 c7                	mov    %eax,%edi
    f02c:	e8 47 9b ff ff       	callq  8b78 <safe_sub_func_uint8_t_u_u>
    f031:	89 c2                	mov    %eax,%edx
    f033:	48 8b 05 6e 11 01 00 	mov    0x1116e(%rip),%rax        # 201a8 <g_814>
    f03a:	48 8b 00             	mov    (%rax),%rax
    f03d:	0f b6 d2             	movzbl %dl,%edx
    f040:	89 10                	mov    %edx,(%rax)
    f042:	8b 00                	mov    (%rax),%eax
    f044:	85 c0                	test   %eax,%eax
    f046:	74 10                	je     f058 <func_44+0xe30>
    f048:	83 bd 98 fb ff ff 00 	cmpl   $0x0,-0x468(%rbp)
    f04f:	74 07                	je     f058 <func_44+0xe30>
    f051:	b8 01 00 00 00       	mov    $0x1,%eax
    f056:	eb 05                	jmp    f05d <func_44+0xe35>
    f058:	b8 00 00 00 00       	mov    $0x0,%eax
    f05d:	89 c2                	mov    %eax,%edx
    f05f:	48 8b 85 78 fb ff ff 	mov    -0x488(%rbp),%rax
    f066:	21 d0                	and    %edx,%eax
    f068:	0f b6 c0             	movzbl %al,%eax
    f06b:	44 89 e6             	mov    %r12d,%esi
    f06e:	89 c7                	mov    %eax,%edi
    f070:	e8 18 9c ff ff       	callq  8c8d <safe_rshift_func_uint8_t_u_s>
    f075:	0f b6 c0             	movzbl %al,%eax
    f078:	44 31 e8             	xor    %r13d,%eax
    f07b:	48 63 d0             	movslq %eax,%rdx
    f07e:	8b 85 8c fb ff ff    	mov    -0x474(%rbp),%eax
    f084:	48 98                	cltq   
    f086:	48 89 d6             	mov    %rdx,%rsi
    f089:	48 89 c7             	mov    %rax,%rdi
    f08c:	e8 ba 9f ff ff       	callq  904b <safe_sub_func_uint64_t_u_u>
    f091:	0f be c0             	movsbl %al,%eax
    f094:	be 02 00 00 00       	mov    $0x2,%esi
    f099:	89 c7                	mov    %eax,%edi
    f09b:	e8 cc 92 ff ff       	callq  836c <safe_rshift_func_int8_t_s_u>
    f0a0:	0f be d0             	movsbl %al,%edx
    f0a3:	8b 85 18 fd ff ff    	mov    -0x2e8(%rbp),%eax
    f0a9:	09 c2                	or     %eax,%edx
    f0ab:	48 8b 85 90 fc ff ff 	mov    -0x370(%rbp),%rax
    f0b2:	0f b7 00             	movzwl (%rax),%eax
    f0b5:	89 c1                	mov    %eax,%ecx
    f0b7:	89 d0                	mov    %edx,%eax
    f0b9:	09 c8                	or     %ecx,%eax
    f0bb:	89 c2                	mov    %eax,%edx
    f0bd:	48 8b 85 90 fc ff ff 	mov    -0x370(%rbp),%rax
    f0c4:	66 89 10             	mov    %dx,(%rax)
    f0c7:	48 8b 85 90 fc ff ff 	mov    -0x370(%rbp),%rax
    f0ce:	0f b7 00             	movzwl (%rax),%eax
    f0d1:	66 85 c0             	test   %ax,%ax
    f0d4:	74 07                	je     f0dd <func_44+0xeb5>
    f0d6:	b8 01 00 00 00       	mov    $0x1,%eax
    f0db:	eb 05                	jmp    f0e2 <func_44+0xeba>
    f0dd:	b8 00 00 00 00       	mov    $0x0,%eax
    f0e2:	89 c2                	mov    %eax,%edx
    f0e4:	8b 05 92 f2 00 00    	mov    0xf292(%rip),%eax        # 1e37c <g_175>
    f0ea:	31 d0                	xor    %edx,%eax
    f0ec:	89 05 8a f2 00 00    	mov    %eax,0xf28a(%rip)        # 1e37c <g_175>
    f0f2:	be dc c8 00 00       	mov    $0xc8dc,%esi
    f0f7:	bf 00 00 00 00       	mov    $0x0,%edi
    f0fc:	e8 8d 9c ff ff       	callq  8d8e <safe_div_func_uint16_t_u_u>
    f101:	0f b6 c0             	movzbl %al,%eax
    f104:	89 de                	mov    %ebx,%esi
    f106:	89 c7                	mov    %eax,%edi
    f108:	e8 86 9a ff ff       	callq  8b93 <safe_mul_func_uint8_t_u_u>
    f10d:	8b 15 45 ef 00 00    	mov    0xef45(%rip),%edx        # 1e058 <g_75+0x18>
    f113:	0f b6 c0             	movzbl %al,%eax
    f116:	21 d0                	and    %edx,%eax
    f118:	89 05 3a ef 00 00    	mov    %eax,0xef3a(%rip)        # 1e058 <g_75+0x18>
    f11e:	e9 a0 02 00 00       	jmpq   f3c3 <func_44+0x119b>
    f123:	48 8d 05 c6 0a 01 00 	lea    0x10ac6(%rip),%rax        # 1fbf0 <g_275>
    f12a:	48 89 85 88 fc ff ff 	mov    %rax,-0x378(%rbp)
    f131:	8b 05 f1 f1 00 00    	mov    0xf1f1(%rip),%eax        # 1e328 <g_96+0x48>
    f137:	48 98                	cltq   
    f139:	48 89 c7             	mov    %rax,%rdi
    f13c:	e8 2a e9 ff ff       	callq  da6b <func_15>
    f141:	48 8b 95 88 fc ff ff 	mov    -0x378(%rbp),%rdx
    f148:	48 89 02             	mov    %rax,(%rdx)
    f14b:	e9 73 02 00 00       	jmpq   f3c3 <func_44+0x119b>
    f150:	48 c7 85 58 fc ff ff 	movq   $0x0,-0x3a8(%rbp)
    f157:	00 00 00 00 
    f15b:	48 8d 05 1c 9f 00 00 	lea    0x9f1c(%rip),%rax        # 1907e <g_142+0x1e>
    f162:	48 89 85 08 fc ff ff 	mov    %rax,-0x3f8(%rbp)
    f169:	48 8d 85 08 fc ff ff 	lea    -0x3f8(%rbp),%rax
    f170:	48 89 85 10 fc ff ff 	mov    %rax,-0x3f0(%rbp)
    f177:	c7 85 c0 fb ff ff ff 	movl   $0xffffffff,-0x440(%rbp)
    f17e:	ff ff ff 
    f181:	48 8d 05 f4 f1 00 00 	lea    0xf1f4(%rip),%rax        # 1e37c <g_175>
    f188:	48 89 85 60 fc ff ff 	mov    %rax,-0x3a0(%rbp)
    f18f:	48 8d 05 fa f1 00 00 	lea    0xf1fa(%rip),%rax        # 1e390 <g_364>
    f196:	48 89 85 68 fc ff ff 	mov    %rax,-0x398(%rbp)
    f19d:	c7 85 ac fb ff ff 00 	movl   $0x0,-0x454(%rbp)
    f1a4:	00 00 00 
    f1a7:	eb 46                	jmp    f1ef <func_44+0xfc7>
    f1a9:	c7 85 b0 fb ff ff 00 	movl   $0x0,-0x450(%rbp)
    f1b0:	00 00 00 
    f1b3:	eb 2a                	jmp    f1df <func_44+0xfb7>
    f1b5:	8b 85 b0 fb ff ff    	mov    -0x450(%rbp),%eax
    f1bb:	48 63 d0             	movslq %eax,%rdx
    f1be:	8b 85 ac fb ff ff    	mov    -0x454(%rbp),%eax
    f1c4:	48 98                	cltq   
    f1c6:	48 01 d0             	add    %rdx,%rax
    f1c9:	48 8d 15 40 1e 01 00 	lea    0x11e40(%rip),%rdx        # 21010 <g_1148>
    f1d0:	48 89 94 c5 d0 fc ff 	mov    %rdx,-0x330(%rbp,%rax,8)
    f1d7:	ff 
    f1d8:	83 85 b0 fb ff ff 01 	addl   $0x1,-0x450(%rbp)
    f1df:	83 bd b0 fb ff ff 00 	cmpl   $0x0,-0x450(%rbp)
    f1e6:	7e cd                	jle    f1b5 <func_44+0xf8d>
    f1e8:	83 85 ac fb ff ff 01 	addl   $0x1,-0x454(%rbp)
    f1ef:	83 bd ac fb ff ff 00 	cmpl   $0x0,-0x454(%rbp)
    f1f6:	7e b1                	jle    f1a9 <func_44+0xf81>
    f1f8:	c7 85 ac fb ff ff 00 	movl   $0x0,-0x454(%rbp)
    f1ff:	00 00 00 
    f202:	eb 1e                	jmp    f222 <func_44+0xffa>
    f204:	8b 85 ac fb ff ff    	mov    -0x454(%rbp),%eax
    f20a:	48 98                	cltq   
    f20c:	48 8d 95 10 fc ff ff 	lea    -0x3f0(%rbp),%rdx
    f213:	48 89 94 c5 50 fe ff 	mov    %rdx,-0x1b0(%rbp,%rax,8)
    f21a:	ff 
    f21b:	83 85 ac fb ff ff 01 	addl   $0x1,-0x454(%rbp)
    f222:	83 bd ac fb ff ff 02 	cmpl   $0x2,-0x454(%rbp)
    f229:	7e d9                	jle    f204 <func_44+0xfdc>
    f22b:	48 c7 85 50 fc ff ff 	movq   $0x0,-0x3b0(%rbp)
    f232:	00 00 00 00 
    f236:	48 8b 05 d3 1d 01 00 	mov    0x11dd3(%rip),%rax        # 21010 <g_1148>
    f23d:	48 89 85 48 fd ff ff 	mov    %rax,-0x2b8(%rbp)
    f244:	8b 85 98 fb ff ff    	mov    -0x468(%rbp),%eax
    f24a:	0f be d8             	movsbl %al,%ebx
    f24d:	4c 8b a5 78 fb ff ff 	mov    -0x488(%rbp),%r12
    f254:	48 8b 05 4d 09 01 00 	mov    0x1094d(%rip),%rax        # 1fba8 <g_60>
    f25b:	0f b7 00             	movzwl (%rax),%eax
    f25e:	66 85 c0             	test   %ax,%ax
    f261:	75 1a                	jne    f27d <func_44+0x1055>
    f263:	83 bd 8c fb ff ff 00 	cmpl   $0x0,-0x474(%rbp)
    f26a:	75 11                	jne    f27d <func_44+0x1055>
    f26c:	48 8b 85 48 fc ff ff 	mov    -0x3b8(%rbp),%rax
    f273:	48 8b 00             	mov    (%rax),%rax
    f276:	48 8b 00             	mov    (%rax),%rax
    f279:	8b 00                	mov    (%rax),%eax
    f27b:	85 c0                	test   %eax,%eax
    f27d:	90                   	nop
    f27e:	48 8b 85 d0 fc ff ff 	mov    -0x330(%rbp),%rax
    f285:	48 89 85 d0 fc ff ff 	mov    %rax,-0x330(%rbp)
    f28c:	48 8b 85 80 fd ff ff 	mov    -0x280(%rbp),%rax
    f293:	48 89 85 88 fd ff ff 	mov    %rax,-0x278(%rbp)
    f29a:	48 8b 85 88 fd ff ff 	mov    -0x278(%rbp),%rax
    f2a1:	48 39 85 18 fc ff ff 	cmp    %rax,-0x3e8(%rbp)
    f2a8:	0f 95 c2             	setne  %dl
    f2ab:	48 8b 05 0e 18 01 00 	mov    0x1180e(%rip),%rax        # 20ac0 <g_1113>
    f2b2:	48 8b 00             	mov    (%rax),%rax
    f2b5:	48 39 85 60 fc ff ff 	cmp    %rax,-0x3a0(%rbp)
    f2bc:	0f 95 c0             	setne  %al
    f2bf:	21 d0                	and    %edx,%eax
    f2c1:	0f b6 d0             	movzbl %al,%edx
    f2c4:	48 8b 85 80 fb ff ff 	mov    -0x480(%rbp),%rax
    f2cb:	48 8b 00             	mov    (%rax),%rax
    f2ce:	8b 00                	mov    (%rax),%eax
    f2d0:	89 d6                	mov    %edx,%esi
    f2d2:	89 c7                	mov    %eax,%edi
    f2d4:	e8 f3 93 ff ff       	callq  86cc <safe_mod_func_int32_t_s_s>
    f2d9:	c1 e8 1f             	shr    $0x1f,%eax
    f2dc:	0f b6 c0             	movzbl %al,%eax
    f2df:	39 85 c0 fb ff ff    	cmp    %eax,-0x440(%rbp)
    f2e5:	0f 9e c2             	setle  %dl
    f2e8:	48 8b 05 b9 08 01 00 	mov    0x108b9(%rip),%rax        # 1fba8 <g_60>
    f2ef:	0f b6 d2             	movzbl %dl,%edx
    f2f2:	66 89 10             	mov    %dx,(%rax)
    f2f5:	4c 89 e6             	mov    %r12,%rsi
    f2f8:	48 bf 85 a3 de 01 d1 	movabs $0xeca4a9d101dea385,%rdi
    f2ff:	a9 a4 ec 
    f302:	e8 79 9d ff ff       	callq  9080 <safe_mod_func_uint64_t_u_u>
    f307:	0f be c0             	movsbl %al,%eax
    f30a:	89 de                	mov    %ebx,%esi
    f30c:	89 c7                	mov    %eax,%edi
    f30e:	e8 ff 8e ff ff       	callq  8212 <safe_mul_func_int8_t_s_s>
    f313:	8b 95 bc fc ff ff    	mov    -0x344(%rbp),%edx
    f319:	0f be c0             	movsbl %al,%eax
    f31c:	09 d0                	or     %edx,%eax
    f31e:	89 85 bc fc ff ff    	mov    %eax,-0x344(%rbp)
    f324:	48 8b 85 68 fc ff ff 	mov    -0x398(%rbp),%rax
    f32b:	48 c7 00 ff ff ff ff 	movq   $0xffffffffffffffff,(%rax)
    f332:	48 8b 85 68 fc ff ff 	mov    -0x398(%rbp),%rax
    f339:	48 8b 00             	mov    (%rax),%rax
    f33c:	48 89 c2             	mov    %rax,%rdx
    f33f:	48 b8 df 6b 42 03 16 	movabs $0xa1b3031603426bdf,%rax
    f346:	03 b3 a1 
    f349:	48 31 c2             	xor    %rax,%rdx
    f34c:	8b 85 b4 fb ff ff    	mov    -0x44c(%rbp),%eax
    f352:	48 98                	cltq   
    f354:	48 39 c2             	cmp    %rax,%rdx
    f357:	0f 92 c0             	setb   %al
    f35a:	0f b6 d0             	movzbl %al,%edx
    f35d:	8b 85 8c fb ff ff    	mov    -0x474(%rbp),%eax
    f363:	0f b6 c0             	movzbl %al,%eax
    f366:	89 d6                	mov    %edx,%esi
    f368:	89 c7                	mov    %eax,%edi
    f36a:	e8 24 98 ff ff       	callq  8b93 <safe_mul_func_uint8_t_u_u>
    f36f:	8b 95 18 fd ff ff    	mov    -0x2e8(%rbp),%edx
    f375:	0f b6 c0             	movzbl %al,%eax
    f378:	09 d0                	or     %edx,%eax
    f37a:	89 85 18 fd ff ff    	mov    %eax,-0x2e8(%rbp)
    f380:	c7 05 f2 ef 00 00 00 	movl   $0x0,0xeff2(%rip)        # 1e37c <g_175>
    f387:	00 00 00 
    f38a:	90                   	nop
    f38b:	8b 05 eb ef 00 00    	mov    0xefeb(%rip),%eax        # 1e37c <g_175>
    f391:	83 f8 08             	cmp    $0x8,%eax
    f394:	77 2d                	ja     f3c3 <func_44+0x119b>
    f396:	48 8b 85 48 fc ff ff 	mov    -0x3b8(%rbp),%rax
    f39d:	48 8b 00             	mov    (%rax),%rax
    f3a0:	48 8b 00             	mov    (%rax),%rax
    f3a3:	8b 15 d3 ef 00 00    	mov    0xefd3(%rip),%edx        # 1e37c <g_175>
    f3a9:	8b 00                	mov    (%rax),%eax
    f3ab:	89 d2                	mov    %edx,%edx
    f3ad:	89 84 95 10 fd ff ff 	mov    %eax,-0x2f0(%rbp,%rdx,4)
    f3b4:	48 8b 05 ed 07 01 00 	mov    0x107ed(%rip),%rax        # 1fba8 <g_60>
    f3bb:	0f b7 00             	movzwl (%rax),%eax
    f3be:	e9 ad 00 00 00       	jmpq   f470 <func_44+0x1248>
    f3c3:	48 8b 05 d6 ef 00 00 	mov    0xefd6(%rip),%rax        # 1e3a0 <g_597>
    f3ca:	48 83 e8 01          	sub    $0x1,%rax
    f3ce:	48 89 05 cb ef 00 00 	mov    %rax,0xefcb(%rip)        # 1e3a0 <g_597>
    f3d5:	48 8b 05 c4 ef 00 00 	mov    0xefc4(%rip),%rax        # 1e3a0 <g_597>
    f3dc:	48 83 f8 e4          	cmp    $0xffffffffffffffe4,%rax
    f3e0:	0f 8d 93 f6 ff ff    	jge    ea79 <func_44+0x851>
    f3e6:	48 8b 05 bb 07 01 00 	mov    0x107bb(%rip),%rax        # 1fba8 <g_60>
    f3ed:	0f b7 00             	movzwl (%rax),%eax
    f3f0:	eb 7e                	jmp    f470 <func_44+0x1248>
    f3f2:	c6 85 91 fb ff ff 2a 	movb   $0x2a,-0x46f(%rbp)
    f3f9:	0f b6 85 91 fb ff ff 	movzbl -0x46f(%rbp),%eax
    f400:	83 e8 01             	sub    $0x1,%eax
    f403:	88 85 91 fb ff ff    	mov    %al,-0x46f(%rbp)
    f409:	8b 85 b4 fb ff ff    	mov    -0x44c(%rbp),%eax
    f40f:	0f b6 c0             	movzbl %al,%eax
    f412:	be 00 00 00 00       	mov    $0x0,%esi
    f417:	89 c7                	mov    %eax,%edi
    f419:	e8 2e 98 ff ff       	callq  8c4c <safe_lshift_func_uint8_t_u_u>
    f41e:	48 8b 85 20 fc ff ff 	mov    -0x3e0(%rbp),%rax
    f425:	8b 00                	mov    (%rax),%eax
    f427:	8d 50 01             	lea    0x1(%rax),%edx
    f42a:	48 8b 85 20 fc ff ff 	mov    -0x3e0(%rbp),%rax
    f431:	89 10                	mov    %edx,(%rax)
    f433:	48 8b 85 20 fc ff ff 	mov    -0x3e0(%rbp),%rax
    f43a:	8b 00                	mov    (%rax),%eax
    f43c:	85 c0                	test   %eax,%eax
    f43e:	75 0a                	jne    f44a <func_44+0x1222>
    f440:	48 83 bd 28 fc ff ff 	cmpq   $0x0,-0x3d8(%rbp)
    f447:	00 
    f448:	74 07                	je     f451 <func_44+0x1229>
    f44a:	b8 01 00 00 00       	mov    $0x1,%eax
    f44f:	eb 05                	jmp    f456 <func_44+0x122e>
    f451:	b8 00 00 00 00       	mov    $0x0,%eax
    f456:	48 98                	cltq   
    f458:	48 89 c7             	mov    %rax,%rdi
    f45b:	e8 0b e6 ff ff       	callq  da6b <func_15>
    f460:	48 8b 95 30 fc ff ff 	mov    -0x3d0(%rbp),%rdx
    f467:	48 89 02             	mov    %rax,(%rdx)
    f46a:	8b 85 18 ff ff ff    	mov    -0xe8(%rbp),%eax
    f470:	48 8b 4d c8          	mov    -0x38(%rbp),%rcx
    f474:	64 48 33 0c 25 28 00 	xor    %fs:0x28,%rcx
    f47b:	00 00 
    f47d:	74 05                	je     f484 <func_44+0x125c>
    f47f:	e8 ec 8b ff ff       	callq  8070 <__stack_chk_fail@plt>
    f484:	48 81 c4 68 04 00 00 	add    $0x468,%rsp
    f48b:	5b                   	pop    %rbx
    f48c:	41 5c                	pop    %r12
    f48e:	41 5d                	pop    %r13
    f490:	41 5e                	pop    %r14
    f492:	41 5f                	pop    %r15
    f494:	5d                   	pop    %rbp
    f495:	c3                   	retq   

000000000000f496 <func_53>:
    f496:	f3 0f 1e fa          	endbr64 
    f49a:	55                   	push   %rbp
    f49b:	48 89 e5             	mov    %rsp,%rbp
    f49e:	48 83 ec 50          	sub    $0x50,%rsp
    f4a2:	48 89 7d b8          	mov    %rdi,-0x48(%rbp)
    f4a6:	48 89 75 b0          	mov    %rsi,-0x50(%rbp)
    f4aa:	64 48 8b 04 25 28 00 	mov    %fs:0x28,%rax
    f4b1:	00 00 
    f4b3:	48 89 45 f8          	mov    %rax,-0x8(%rbp)
    f4b7:	31 c0                	xor    %eax,%eax
    f4b9:	48 8d 05 d8 09 01 00 	lea    0x109d8(%rip),%rax        # 1fe98 <g_562+0x298>
    f4c0:	48 89 45 c8          	mov    %rax,-0x38(%rbp)
    f4c4:	c7 45 d0 fc ff ff ff 	movl   $0xfffffffc,-0x30(%rbp)
    f4cb:	c7 45 d4 a0 44 10 e7 	movl   $0xe71044a0,-0x2c(%rbp)
    f4d2:	c7 45 d8 fc ff ff ff 	movl   $0xfffffffc,-0x28(%rbp)
    f4d9:	c7 45 dc fc ff ff ff 	movl   $0xfffffffc,-0x24(%rbp)
    f4e0:	c7 45 e0 a0 44 10 e7 	movl   $0xe71044a0,-0x20(%rbp)
    f4e7:	c7 45 e4 fc ff ff ff 	movl   $0xfffffffc,-0x1c(%rbp)
    f4ee:	c7 45 e8 fc ff ff ff 	movl   $0xfffffffc,-0x18(%rbp)
    f4f5:	c7 45 ec a0 44 10 e7 	movl   $0xe71044a0,-0x14(%rbp)
    f4fc:	c7 45 f0 fc ff ff ff 	movl   $0xfffffffc,-0x10(%rbp)
    f503:	8b 45 ec             	mov    -0x14(%rbp),%eax
    f506:	48 98                	cltq   
    f508:	48 ba cd 89 3c 9b 01 	movabs $0xba232e019b3c89cd,%rdx
    f50f:	2e 23 ba 
    f512:	48 39 d0             	cmp    %rdx,%rax
    f515:	74 34                	je     f54b <func_53+0xb5>
    f517:	48 8b 05 8a 06 01 00 	mov    0x1068a(%rip),%rax        # 1fba8 <g_60>
    f51e:	0f b7 00             	movzwl (%rax),%eax
    f521:	0f bf d0             	movswl %ax,%edx
    f524:	8b 45 ec             	mov    -0x14(%rbp),%eax
    f527:	85 c0                	test   %eax,%eax
    f529:	75 07                	jne    f532 <func_53+0x9c>
    f52b:	8b 45 ec             	mov    -0x14(%rbp),%eax
    f52e:	85 c0                	test   %eax,%eax
    f530:	74 07                	je     f539 <func_53+0xa3>
    f532:	b8 01 00 00 00       	mov    $0x1,%eax
    f537:	eb 05                	jmp    f53e <func_53+0xa8>
    f539:	b8 00 00 00 00       	mov    $0x0,%eax
    f53e:	98                   	cwtl   
    f53f:	89 d6                	mov    %edx,%esi
    f541:	89 c7                	mov    %eax,%edi
    f543:	e8 4a 8f ff ff       	callq  8492 <safe_lshift_func_int16_t_s_s>
    f548:	66 85 c0             	test   %ax,%ax
    f54b:	8b 45 f0             	mov    -0x10(%rbp),%eax
    f54e:	0f b6 d0             	movzbl %al,%edx
    f551:	8b 45 dc             	mov    -0x24(%rbp),%eax
    f554:	0f b6 c0             	movzbl %al,%eax
    f557:	89 d6                	mov    %edx,%esi
    f559:	89 c7                	mov    %eax,%edi
    f55b:	e8 fa 95 ff ff       	callq  8b5a <safe_add_func_uint8_t_u_u>
    f560:	0f b6 d0             	movzbl %al,%edx
    f563:	48 8b 05 6e 06 01 00 	mov    0x1066e(%rip),%rax        # 1fbd8 <g_186>
    f56a:	48 8b 00             	mov    (%rax),%rax
    f56d:	0f b6 00             	movzbl (%rax),%eax
    f570:	66 98                	cbtw   
    f572:	21 d0                	and    %edx,%eax
    f574:	98                   	cwtl   
    f575:	89 c6                	mov    %eax,%esi
    f577:	bf 01 00 00 00       	mov    $0x1,%edi
    f57c:	e8 d4 8e ff ff       	callq  8455 <safe_div_func_int16_t_s_s>
    f581:	c7 45 ec 01 00 00 00 	movl   $0x1,-0x14(%rbp)
    f588:	8b 45 ec             	mov    -0x14(%rbp),%eax
    f58b:	89 45 e8             	mov    %eax,-0x18(%rbp)
    f58e:	0f b7 05 33 ed 00 00 	movzwl 0xed33(%rip),%eax        # 1e2c8 <g_93>
    f595:	48 0f bf c0          	movswq %ax,%rax
    f599:	48 8b 4d f8          	mov    -0x8(%rbp),%rcx
    f59d:	64 48 33 0c 25 28 00 	xor    %fs:0x28,%rcx
    f5a4:	00 00 
    f5a6:	74 05                	je     f5ad <func_53+0x117>
    f5a8:	e8 c3 8a ff ff       	callq  8070 <__stack_chk_fail@plt>
    f5ad:	c9                   	leaveq 
    f5ae:	c3                   	retq   

000000000000f5af <func_56>:
    f5af:	f3 0f 1e fa          	endbr64 
    f5b3:	55                   	push   %rbp
    f5b4:	48 89 e5             	mov    %rsp,%rbp
    f5b7:	41 56                	push   %r14
    f5b9:	41 55                	push   %r13
    f5bb:	41 54                	push   %r12
    f5bd:	53                   	push   %rbx
    f5be:	48 81 ec 00 10 00 00 	sub    $0x1000,%rsp
    f5c5:	48 83 0c 24 00       	orq    $0x0,(%rsp)
    f5ca:	48 81 ec 00 10 00 00 	sub    $0x1000,%rsp
    f5d1:	48 83 0c 24 00       	orq    $0x0,(%rsp)
    f5d6:	48 81 ec 00 10 00 00 	sub    $0x1000,%rsp
    f5dd:	48 83 0c 24 00       	orq    $0x0,(%rsp)
    f5e2:	48 81 ec 10 07 00 00 	sub    $0x710,%rsp
    f5e9:	89 bd dc c8 ff ff    	mov    %edi,-0x3724(%rbp)
    f5ef:	48 89 b5 d0 c8 ff ff 	mov    %rsi,-0x3730(%rbp)
    f5f6:	89 95 d8 c8 ff ff    	mov    %edx,-0x3728(%rbp)
    f5fc:	64 48 8b 04 25 28 00 	mov    %fs:0x28,%rax
    f603:	00 00 
    f605:	48 89 45 d8          	mov    %rax,-0x28(%rbp)
    f609:	31 c0                	xor    %eax,%eax
    f60b:	48 8d 05 e0 19 01 00 	lea    0x119e0(%rip),%rax        # 20ff2 <g_188>
    f612:	48 89 85 30 ca ff ff 	mov    %rax,-0x35d0(%rbp)
    f619:	c7 85 f8 c8 ff ff 06 	movl   $0x6,-0x3708(%rbp)
    f620:	00 00 00 
    f623:	c7 85 40 c9 ff ff c4 	movl   $0xb6b0e3c4,-0x36c0(%rbp)
    f62a:	e3 b0 b6 
    f62d:	c7 85 fc c8 ff ff 00 	movl   $0x0,-0x3704(%rbp)
    f634:	00 00 00 
    f637:	c7 85 00 c9 ff ff d1 	movl   $0xc555f7d1,-0x3700(%rbp)
    f63e:	f7 55 c5 
    f641:	48 c7 85 c0 cd ff ff 	movq   $0x0,-0x3240(%rbp)
    f648:	00 00 00 00 
    f64c:	48 8d 05 9d 19 01 00 	lea    0x1199d(%rip),%rax        # 20ff0 <g_160>
    f653:	48 89 85 c8 cd ff ff 	mov    %rax,-0x3238(%rbp)
    f65a:	48 8d 05 39 ed 00 00 	lea    0xed39(%rip),%rax        # 1e39a <g_536>
    f661:	48 89 85 d0 cd ff ff 	mov    %rax,-0x3230(%rbp)
    f668:	48 8d 05 2b ed 00 00 	lea    0xed2b(%rip),%rax        # 1e39a <g_536>
    f66f:	48 89 85 d8 cd ff ff 	mov    %rax,-0x3228(%rbp)
    f676:	48 8d 05 73 19 01 00 	lea    0x11973(%rip),%rax        # 20ff0 <g_160>
    f67d:	48 89 85 e0 cd ff ff 	mov    %rax,-0x3220(%rbp)
    f684:	48 c7 85 e8 cd ff ff 	movq   $0x0,-0x3218(%rbp)
    f68b:	00 00 00 00 
    f68f:	48 8d 05 5a 19 01 00 	lea    0x1195a(%rip),%rax        # 20ff0 <g_160>
    f696:	48 89 85 f0 cd ff ff 	mov    %rax,-0x3210(%rbp)
    f69d:	48 8d 05 f6 ec 00 00 	lea    0xecf6(%rip),%rax        # 1e39a <g_536>
    f6a4:	48 89 85 f8 cd ff ff 	mov    %rax,-0x3208(%rbp)
    f6ab:	48 8d 05 e8 ec 00 00 	lea    0xece8(%rip),%rax        # 1e39a <g_536>
    f6b2:	48 89 85 00 ce ff ff 	mov    %rax,-0x3200(%rbp)
    f6b9:	48 8d 05 30 19 01 00 	lea    0x11930(%rip),%rax        # 20ff0 <g_160>
    f6c0:	48 89 85 08 ce ff ff 	mov    %rax,-0x31f8(%rbp)
    f6c7:	48 8d 05 f2 04 01 00 	lea    0x104f2(%rip),%rax        # 1fbc0 <g_143>
    f6ce:	48 89 85 38 ca ff ff 	mov    %rax,-0x35c8(%rbp)
    f6d5:	48 c7 85 10 cf ff ff 	movq   $0x0,-0x30f0(%rbp)
    f6dc:	00 00 00 00 
    f6e0:	48 8d 85 f8 c8 ff ff 	lea    -0x3708(%rbp),%rax
    f6e7:	48 89 85 18 cf ff ff 	mov    %rax,-0x30e8(%rbp)
    f6ee:	48 8d 85 fc c8 ff ff 	lea    -0x3704(%rbp),%rax
    f6f5:	48 89 85 20 cf ff ff 	mov    %rax,-0x30e0(%rbp)
    f6fc:	48 c7 85 28 cf ff ff 	movq   $0x0,-0x30d8(%rbp)
    f703:	00 00 00 00 
    f707:	48 8d 85 fc c8 ff ff 	lea    -0x3704(%rbp),%rax
    f70e:	48 89 85 30 cf ff ff 	mov    %rax,-0x30d0(%rbp)
    f715:	48 8d 85 fc c8 ff ff 	lea    -0x3704(%rbp),%rax
    f71c:	48 89 85 38 cf ff ff 	mov    %rax,-0x30c8(%rbp)
    f723:	48 8d 85 fc c8 ff ff 	lea    -0x3704(%rbp),%rax
    f72a:	48 89 85 40 cf ff ff 	mov    %rax,-0x30c0(%rbp)
    f731:	48 c7 85 48 cf ff ff 	movq   $0x0,-0x30b8(%rbp)
    f738:	00 00 00 00 
    f73c:	48 8d 85 fc c8 ff ff 	lea    -0x3704(%rbp),%rax
    f743:	48 89 85 50 cf ff ff 	mov    %rax,-0x30b0(%rbp)
    f74a:	48 8d 85 f8 c8 ff ff 	lea    -0x3708(%rbp),%rax
    f751:	48 89 85 58 cf ff ff 	mov    %rax,-0x30a8(%rbp)
    f758:	48 c7 85 60 cf ff ff 	movq   $0x0,-0x30a0(%rbp)
    f75f:	00 00 00 00 
    f763:	48 8d 85 f8 c8 ff ff 	lea    -0x3708(%rbp),%rax
    f76a:	48 89 85 68 cf ff ff 	mov    %rax,-0x3098(%rbp)
    f771:	48 8d 85 fc c8 ff ff 	lea    -0x3704(%rbp),%rax
    f778:	48 89 85 70 cf ff ff 	mov    %rax,-0x3090(%rbp)
    f77f:	48 c7 85 78 cf ff ff 	movq   $0x0,-0x3088(%rbp)
    f786:	00 00 00 00 
    f78a:	48 8d 85 fc c8 ff ff 	lea    -0x3704(%rbp),%rax
    f791:	48 89 85 80 cf ff ff 	mov    %rax,-0x3080(%rbp)
    f798:	48 8d 85 fc c8 ff ff 	lea    -0x3704(%rbp),%rax
    f79f:	48 89 85 88 cf ff ff 	mov    %rax,-0x3078(%rbp)
    f7a6:	48 8d 85 fc c8 ff ff 	lea    -0x3704(%rbp),%rax
    f7ad:	48 89 85 90 cf ff ff 	mov    %rax,-0x3070(%rbp)
    f7b4:	48 c7 85 98 cf ff ff 	movq   $0x0,-0x3068(%rbp)
    f7bb:	00 00 00 00 
    f7bf:	48 8d 85 fc c8 ff ff 	lea    -0x3704(%rbp),%rax
    f7c6:	48 89 85 a0 cf ff ff 	mov    %rax,-0x3060(%rbp)
    f7cd:	48 8d 85 f8 c8 ff ff 	lea    -0x3708(%rbp),%rax
    f7d4:	48 89 85 a8 cf ff ff 	mov    %rax,-0x3058(%rbp)
    f7db:	48 8d 85 c0 da ff ff 	lea    -0x2540(%rbp),%rax
    f7e2:	48 8d 15 17 a1 00 00 	lea    0xa117(%rip),%rdx        # 19900 <g_314+0x85a>
    f7e9:	b9 7e 00 00 00       	mov    $0x7e,%ecx
    f7ee:	48 89 c7             	mov    %rax,%rdi
    f7f1:	48 89 d6             	mov    %rdx,%rsi
    f7f4:	f3 48 a5             	rep movsq %ds:(%rsi),%es:(%rdi)
    f7f7:	c7 85 44 c9 ff ff ff 	movl   $0xffffffff,-0x36bc(%rbp)
    f7fe:	ff ff ff 
    f801:	c6 85 ea c8 ff ff 76 	movb   $0x76,-0x3716(%rbp)
    f808:	48 c7 85 a8 c9 ff ff 	movq   $0xfffffffffffffff9,-0x3658(%rbp)
    f80f:	f9 ff ff ff 
    f813:	48 8d 05 de 17 01 00 	lea    0x117de(%rip),%rax        # 20ff8 <g_421>
    f81a:	48 89 85 b0 c9 ff ff 	mov    %rax,-0x3650(%rbp)
    f821:	48 b8 de ac 0c 98 82 	movabs $0xcf593482980cacde,%rax
    f828:	34 59 cf 
    f82b:	48 89 85 40 ca ff ff 	mov    %rax,-0x35c0(%rbp)
    f832:	48 8d 85 10 cf ff ff 	lea    -0x30f0(%rbp),%rax
    f839:	48 83 c0 40          	add    $0x40,%rax
    f83d:	48 89 85 48 ca ff ff 	mov    %rax,-0x35b8(%rbp)
    f844:	48 8d 85 10 cf ff ff 	lea    -0x30f0(%rbp),%rax
    f84b:	48 83 c0 40          	add    $0x40,%rax
    f84f:	48 89 85 50 ca ff ff 	mov    %rax,-0x35b0(%rbp)
    f856:	48 c7 85 58 ca ff ff 	movq   $0x0,-0x35a8(%rbp)
    f85d:	00 00 00 00 
    f861:	c6 85 eb c8 ff ff ff 	movb   $0xff,-0x3715(%rbp)
    f868:	48 8d 85 10 cf ff ff 	lea    -0x30f0(%rbp),%rax
    f86f:	48 83 c0 10          	add    $0x10,%rax
    f873:	48 89 85 b0 d4 ff ff 	mov    %rax,-0x2b50(%rbp)
    f87a:	48 8d 85 10 cf ff ff 	lea    -0x30f0(%rbp),%rax
    f881:	48 83 c0 70          	add    $0x70,%rax
    f885:	48 89 85 b8 d4 ff ff 	mov    %rax,-0x2b48(%rbp)
    f88c:	48 8d 85 10 cf ff ff 	lea    -0x30f0(%rbp),%rax
    f893:	48 83 c0 10          	add    $0x10,%rax
    f897:	48 89 85 c0 d4 ff ff 	mov    %rax,-0x2b40(%rbp)
    f89e:	48 8d 85 10 cf ff ff 	lea    -0x30f0(%rbp),%rax
    f8a5:	48 89 85 c8 d4 ff ff 	mov    %rax,-0x2b38(%rbp)
    f8ac:	48 8d 85 10 cf ff ff 	lea    -0x30f0(%rbp),%rax
    f8b3:	48 83 c0 68          	add    $0x68,%rax
    f8b7:	48 89 85 d0 d4 ff ff 	mov    %rax,-0x2b30(%rbp)
    f8be:	48 8d 85 10 cf ff ff 	lea    -0x30f0(%rbp),%rax
    f8c5:	48 89 85 d8 d4 ff ff 	mov    %rax,-0x2b28(%rbp)
    f8cc:	48 8d 85 10 cf ff ff 	lea    -0x30f0(%rbp),%rax
    f8d3:	48 83 c0 10          	add    $0x10,%rax
    f8d7:	48 89 85 e0 d4 ff ff 	mov    %rax,-0x2b20(%rbp)
    f8de:	48 8d 85 10 cf ff ff 	lea    -0x30f0(%rbp),%rax
    f8e5:	48 83 c0 70          	add    $0x70,%rax
    f8e9:	48 89 85 e8 d4 ff ff 	mov    %rax,-0x2b18(%rbp)
    f8f0:	48 8d 85 10 cf ff ff 	lea    -0x30f0(%rbp),%rax
    f8f7:	48 83 c0 10          	add    $0x10,%rax
    f8fb:	48 89 85 f0 d4 ff ff 	mov    %rax,-0x2b10(%rbp)
    f902:	48 8d 85 10 cf ff ff 	lea    -0x30f0(%rbp),%rax
    f909:	48 89 85 f8 d4 ff ff 	mov    %rax,-0x2b08(%rbp)
    f910:	48 8d 85 10 cf ff ff 	lea    -0x30f0(%rbp),%rax
    f917:	48 83 c0 68          	add    $0x68,%rax
    f91b:	48 89 85 00 d5 ff ff 	mov    %rax,-0x2b00(%rbp)
    f922:	48 8d 85 10 cf ff ff 	lea    -0x30f0(%rbp),%rax
    f929:	48 83 c0 70          	add    $0x70,%rax
    f92d:	48 89 85 08 d5 ff ff 	mov    %rax,-0x2af8(%rbp)
    f934:	48 8d 85 10 cf ff ff 	lea    -0x30f0(%rbp),%rax
    f93b:	48 83 c0 08          	add    $0x8,%rax
    f93f:	48 89 85 10 d5 ff ff 	mov    %rax,-0x2af0(%rbp)
    f946:	48 8d 85 10 cf ff ff 	lea    -0x30f0(%rbp),%rax
    f94d:	48 83 c0 70          	add    $0x70,%rax
    f951:	48 89 85 18 d5 ff ff 	mov    %rax,-0x2ae8(%rbp)
    f958:	48 8d 85 10 cf ff ff 	lea    -0x30f0(%rbp),%rax
    f95f:	48 83 c0 68          	add    $0x68,%rax
    f963:	48 89 85 20 d5 ff ff 	mov    %rax,-0x2ae0(%rbp)
    f96a:	48 8d 85 10 cf ff ff 	lea    -0x30f0(%rbp),%rax
    f971:	48 83 c0 40          	add    $0x40,%rax
    f975:	48 89 85 28 d5 ff ff 	mov    %rax,-0x2ad8(%rbp)
    f97c:	48 8d 85 10 cf ff ff 	lea    -0x30f0(%rbp),%rax
    f983:	48 83 c0 68          	add    $0x68,%rax
    f987:	48 89 85 30 d5 ff ff 	mov    %rax,-0x2ad0(%rbp)
    f98e:	48 8d 85 10 cf ff ff 	lea    -0x30f0(%rbp),%rax
    f995:	48 83 c0 70          	add    $0x70,%rax
    f999:	48 89 85 38 d5 ff ff 	mov    %rax,-0x2ac8(%rbp)
    f9a0:	48 8d 85 10 cf ff ff 	lea    -0x30f0(%rbp),%rax
    f9a7:	48 83 c0 08          	add    $0x8,%rax
    f9ab:	48 89 85 40 d5 ff ff 	mov    %rax,-0x2ac0(%rbp)
    f9b2:	48 8d 85 10 cf ff ff 	lea    -0x30f0(%rbp),%rax
    f9b9:	48 83 c0 70          	add    $0x70,%rax
    f9bd:	48 89 85 48 d5 ff ff 	mov    %rax,-0x2ab8(%rbp)
    f9c4:	48 8d 85 10 cf ff ff 	lea    -0x30f0(%rbp),%rax
    f9cb:	48 83 c0 68          	add    $0x68,%rax
    f9cf:	48 89 85 50 d5 ff ff 	mov    %rax,-0x2ab0(%rbp)
    f9d6:	48 8d 85 10 cf ff ff 	lea    -0x30f0(%rbp),%rax
    f9dd:	48 89 85 58 d5 ff ff 	mov    %rax,-0x2aa8(%rbp)
    f9e4:	48 8d 85 10 cf ff ff 	lea    -0x30f0(%rbp),%rax
    f9eb:	48 83 c0 10          	add    $0x10,%rax
    f9ef:	48 89 85 60 d5 ff ff 	mov    %rax,-0x2aa0(%rbp)
    f9f6:	48 8d 85 10 cf ff ff 	lea    -0x30f0(%rbp),%rax
    f9fd:	48 83 c0 70          	add    $0x70,%rax
    fa01:	48 89 85 68 d5 ff ff 	mov    %rax,-0x2a98(%rbp)
    fa08:	48 8d 85 10 cf ff ff 	lea    -0x30f0(%rbp),%rax
    fa0f:	48 83 c0 10          	add    $0x10,%rax
    fa13:	48 89 85 70 d5 ff ff 	mov    %rax,-0x2a90(%rbp)
    fa1a:	48 8d 85 10 cf ff ff 	lea    -0x30f0(%rbp),%rax
    fa21:	48 89 85 78 d5 ff ff 	mov    %rax,-0x2a88(%rbp)
    fa28:	48 8d 85 10 cf ff ff 	lea    -0x30f0(%rbp),%rax
    fa2f:	48 83 c0 68          	add    $0x68,%rax
    fa33:	48 89 85 80 d5 ff ff 	mov    %rax,-0x2a80(%rbp)
    fa3a:	48 8d 85 10 cf ff ff 	lea    -0x30f0(%rbp),%rax
    fa41:	48 89 85 88 d5 ff ff 	mov    %rax,-0x2a78(%rbp)
    fa48:	48 8d 85 10 cf ff ff 	lea    -0x30f0(%rbp),%rax
    fa4f:	48 83 c0 10          	add    $0x10,%rax
    fa53:	48 89 85 90 d5 ff ff 	mov    %rax,-0x2a70(%rbp)
    fa5a:	48 8d 85 10 cf ff ff 	lea    -0x30f0(%rbp),%rax
    fa61:	48 83 c0 70          	add    $0x70,%rax
    fa65:	48 89 85 98 d5 ff ff 	mov    %rax,-0x2a68(%rbp)
    fa6c:	48 8d 85 10 cf ff ff 	lea    -0x30f0(%rbp),%rax
    fa73:	48 83 c0 10          	add    $0x10,%rax
    fa77:	48 89 85 a0 d5 ff ff 	mov    %rax,-0x2a60(%rbp)
    fa7e:	48 8d 85 10 cf ff ff 	lea    -0x30f0(%rbp),%rax
    fa85:	48 83 c0 70          	add    $0x70,%rax
    fa89:	48 89 85 a8 d5 ff ff 	mov    %rax,-0x2a58(%rbp)
    fa90:	48 8d 85 10 cf ff ff 	lea    -0x30f0(%rbp),%rax
    fa97:	48 83 c0 10          	add    $0x10,%rax
    fa9b:	48 89 85 b0 d5 ff ff 	mov    %rax,-0x2a50(%rbp)
    faa2:	48 8d 85 10 cf ff ff 	lea    -0x30f0(%rbp),%rax
    faa9:	48 89 85 b8 d5 ff ff 	mov    %rax,-0x2a48(%rbp)
    fab0:	48 8d 85 10 cf ff ff 	lea    -0x30f0(%rbp),%rax
    fab7:	48 83 c0 68          	add    $0x68,%rax
    fabb:	48 89 85 c0 d5 ff ff 	mov    %rax,-0x2a40(%rbp)
    fac2:	48 8d 85 10 cf ff ff 	lea    -0x30f0(%rbp),%rax
    fac9:	48 89 85 c8 d5 ff ff 	mov    %rax,-0x2a38(%rbp)
    fad0:	48 8d 85 10 cf ff ff 	lea    -0x30f0(%rbp),%rax
    fad7:	48 83 c0 10          	add    $0x10,%rax
    fadb:	48 89 85 d0 d5 ff ff 	mov    %rax,-0x2a30(%rbp)
    fae2:	48 8d 85 10 cf ff ff 	lea    -0x30f0(%rbp),%rax
    fae9:	48 83 c0 70          	add    $0x70,%rax
    faed:	48 89 85 d8 d5 ff ff 	mov    %rax,-0x2a28(%rbp)
    faf4:	48 8d 85 10 cf ff ff 	lea    -0x30f0(%rbp),%rax
    fafb:	48 83 c0 10          	add    $0x10,%rax
    faff:	48 89 85 e0 d5 ff ff 	mov    %rax,-0x2a20(%rbp)
    fb06:	48 8d 85 10 cf ff ff 	lea    -0x30f0(%rbp),%rax
    fb0d:	48 89 85 e8 d5 ff ff 	mov    %rax,-0x2a18(%rbp)
    fb14:	48 8d 85 10 cf ff ff 	lea    -0x30f0(%rbp),%rax
    fb1b:	48 83 c0 68          	add    $0x68,%rax
    fb1f:	48 89 85 f0 d5 ff ff 	mov    %rax,-0x2a10(%rbp)
    fb26:	48 8d 85 10 cf ff ff 	lea    -0x30f0(%rbp),%rax
    fb2d:	48 83 c0 70          	add    $0x70,%rax
    fb31:	48 89 85 f8 d5 ff ff 	mov    %rax,-0x2a08(%rbp)
    fb38:	48 8d 85 10 cf ff ff 	lea    -0x30f0(%rbp),%rax
    fb3f:	48 83 c0 08          	add    $0x8,%rax
    fb43:	48 89 85 00 d6 ff ff 	mov    %rax,-0x2a00(%rbp)
    fb4a:	48 8d 85 10 cf ff ff 	lea    -0x30f0(%rbp),%rax
    fb51:	48 83 c0 70          	add    $0x70,%rax
    fb55:	48 89 85 08 d6 ff ff 	mov    %rax,-0x29f8(%rbp)
    fb5c:	48 8d 85 10 cf ff ff 	lea    -0x30f0(%rbp),%rax
    fb63:	48 83 c0 68          	add    $0x68,%rax
    fb67:	48 89 85 10 d6 ff ff 	mov    %rax,-0x29f0(%rbp)
    fb6e:	48 8d 85 10 cf ff ff 	lea    -0x30f0(%rbp),%rax
    fb75:	48 83 c0 40          	add    $0x40,%rax
    fb79:	48 89 85 18 d6 ff ff 	mov    %rax,-0x29e8(%rbp)
    fb80:	48 8d 85 10 cf ff ff 	lea    -0x30f0(%rbp),%rax
    fb87:	48 83 c0 68          	add    $0x68,%rax
    fb8b:	48 89 85 20 d6 ff ff 	mov    %rax,-0x29e0(%rbp)
    fb92:	48 8d 85 10 cf ff ff 	lea    -0x30f0(%rbp),%rax
    fb99:	48 83 c0 70          	add    $0x70,%rax
    fb9d:	48 89 85 28 d6 ff ff 	mov    %rax,-0x29d8(%rbp)
    fba4:	48 8d 85 10 cf ff ff 	lea    -0x30f0(%rbp),%rax
    fbab:	48 83 c0 08          	add    $0x8,%rax
    fbaf:	48 89 85 30 d6 ff ff 	mov    %rax,-0x29d0(%rbp)
    fbb6:	48 8d 85 10 cf ff ff 	lea    -0x30f0(%rbp),%rax
    fbbd:	48 83 c0 70          	add    $0x70,%rax
    fbc1:	48 89 85 38 d6 ff ff 	mov    %rax,-0x29c8(%rbp)
    fbc8:	48 8d 85 10 cf ff ff 	lea    -0x30f0(%rbp),%rax
    fbcf:	48 83 c0 68          	add    $0x68,%rax
    fbd3:	48 89 85 40 d6 ff ff 	mov    %rax,-0x29c0(%rbp)
    fbda:	48 8d 85 10 cf ff ff 	lea    -0x30f0(%rbp),%rax
    fbe1:	48 89 85 48 d6 ff ff 	mov    %rax,-0x29b8(%rbp)
    fbe8:	48 8d 85 10 cf ff ff 	lea    -0x30f0(%rbp),%rax
    fbef:	48 83 c0 10          	add    $0x10,%rax
    fbf3:	48 89 85 50 d6 ff ff 	mov    %rax,-0x29b0(%rbp)
    fbfa:	48 8d 85 10 cf ff ff 	lea    -0x30f0(%rbp),%rax
    fc01:	48 83 c0 70          	add    $0x70,%rax
    fc05:	48 89 85 58 d6 ff ff 	mov    %rax,-0x29a8(%rbp)
    fc0c:	48 8d 85 10 cf ff ff 	lea    -0x30f0(%rbp),%rax
    fc13:	48 83 c0 10          	add    $0x10,%rax
    fc17:	48 89 85 60 d6 ff ff 	mov    %rax,-0x29a0(%rbp)
    fc1e:	48 8d 85 10 cf ff ff 	lea    -0x30f0(%rbp),%rax
    fc25:	48 89 85 68 d6 ff ff 	mov    %rax,-0x2998(%rbp)
    fc2c:	48 8d 85 10 cf ff ff 	lea    -0x30f0(%rbp),%rax
    fc33:	48 83 c0 68          	add    $0x68,%rax
    fc37:	48 89 85 70 d6 ff ff 	mov    %rax,-0x2990(%rbp)
    fc3e:	48 8d 85 10 cf ff ff 	lea    -0x30f0(%rbp),%rax
    fc45:	48 89 85 78 d6 ff ff 	mov    %rax,-0x2988(%rbp)
    fc4c:	48 8d 85 10 cf ff ff 	lea    -0x30f0(%rbp),%rax
    fc53:	48 83 c0 10          	add    $0x10,%rax
    fc57:	48 89 85 80 d6 ff ff 	mov    %rax,-0x2980(%rbp)
    fc5e:	48 8d 85 10 cf ff ff 	lea    -0x30f0(%rbp),%rax
    fc65:	48 83 c0 70          	add    $0x70,%rax
    fc69:	48 89 85 88 d6 ff ff 	mov    %rax,-0x2978(%rbp)
    fc70:	48 8d 85 10 cf ff ff 	lea    -0x30f0(%rbp),%rax
    fc77:	48 83 c0 10          	add    $0x10,%rax
    fc7b:	48 89 85 90 d6 ff ff 	mov    %rax,-0x2970(%rbp)
    fc82:	48 8d 85 10 cf ff ff 	lea    -0x30f0(%rbp),%rax
    fc89:	48 83 c0 70          	add    $0x70,%rax
    fc8d:	48 89 85 98 d6 ff ff 	mov    %rax,-0x2968(%rbp)
    fc94:	48 8d 85 10 cf ff ff 	lea    -0x30f0(%rbp),%rax
    fc9b:	48 83 c0 10          	add    $0x10,%rax
    fc9f:	48 89 85 a0 d6 ff ff 	mov    %rax,-0x2960(%rbp)
    fca6:	48 8d 85 10 cf ff ff 	lea    -0x30f0(%rbp),%rax
    fcad:	48 89 85 a8 d6 ff ff 	mov    %rax,-0x2958(%rbp)
    fcb4:	48 8d 85 10 cf ff ff 	lea    -0x30f0(%rbp),%rax
    fcbb:	48 83 c0 68          	add    $0x68,%rax
    fcbf:	48 89 85 b0 d6 ff ff 	mov    %rax,-0x2950(%rbp)
    fcc6:	48 8d 85 10 cf ff ff 	lea    -0x30f0(%rbp),%rax
    fccd:	48 89 85 b8 d6 ff ff 	mov    %rax,-0x2948(%rbp)
    fcd4:	48 8d 85 10 cf ff ff 	lea    -0x30f0(%rbp),%rax
    fcdb:	48 83 c0 10          	add    $0x10,%rax
    fcdf:	48 89 85 c0 d6 ff ff 	mov    %rax,-0x2940(%rbp)
    fce6:	48 8d 85 10 cf ff ff 	lea    -0x30f0(%rbp),%rax
    fced:	48 83 c0 70          	add    $0x70,%rax
    fcf1:	48 89 85 c8 d6 ff ff 	mov    %rax,-0x2938(%rbp)
    fcf8:	48 8d 85 10 cf ff ff 	lea    -0x30f0(%rbp),%rax
    fcff:	48 83 c0 10          	add    $0x10,%rax
    fd03:	48 89 85 d0 d6 ff ff 	mov    %rax,-0x2930(%rbp)
    fd0a:	48 8d 85 10 cf ff ff 	lea    -0x30f0(%rbp),%rax
    fd11:	48 89 85 d8 d6 ff ff 	mov    %rax,-0x2928(%rbp)
    fd18:	48 8d 05 91 fe 00 00 	lea    0xfe91(%rip),%rax        # 1fbb0 <g_134>
    fd1f:	48 89 85 60 ca ff ff 	mov    %rax,-0x35a0(%rbp)
    fd26:	48 8d 85 50 d0 ff ff 	lea    -0x2fb0(%rbp),%rax
    fd2d:	48 8d 15 4c f2 00 00 	lea    0xf24c(%rip),%rdx        # 1ef80 <g_2388+0xaec>
    fd34:	b9 2d 00 00 00       	mov    $0x2d,%ecx
    fd39:	48 89 c7             	mov    %rax,%rdi
    fd3c:	48 89 d6             	mov    %rdx,%rsi
    fd3f:	f3 48 a5             	rep movsq %ds:(%rsi),%es:(%rdi)
    fd42:	48 8d 85 10 cf ff ff 	lea    -0x30f0(%rbp),%rax
    fd49:	48 83 c0 40          	add    $0x40,%rax
    fd4d:	48 89 85 68 ca ff ff 	mov    %rax,-0x3598(%rbp)
    fd54:	48 8d 85 10 cf ff ff 	lea    -0x30f0(%rbp),%rax
    fd5b:	48 83 c0 60          	add    $0x60,%rax
    fd5f:	48 89 85 f0 f7 ff ff 	mov    %rax,-0x810(%rbp)
    fd66:	48 8d 85 10 cf ff ff 	lea    -0x30f0(%rbp),%rax
    fd6d:	48 83 c0 60          	add    $0x60,%rax
    fd71:	48 89 85 f8 f7 ff ff 	mov    %rax,-0x808(%rbp)
    fd78:	48 8d 85 10 cf ff ff 	lea    -0x30f0(%rbp),%rax
    fd7f:	48 83 c0 40          	add    $0x40,%rax
    fd83:	48 89 85 00 f8 ff ff 	mov    %rax,-0x800(%rbp)
    fd8a:	48 8d 85 10 cf ff ff 	lea    -0x30f0(%rbp),%rax
    fd91:	48 83 c0 40          	add    $0x40,%rax
    fd95:	48 89 85 08 f8 ff ff 	mov    %rax,-0x7f8(%rbp)
    fd9c:	48 8d 85 10 cf ff ff 	lea    -0x30f0(%rbp),%rax
    fda3:	48 83 c0 40          	add    $0x40,%rax
    fda7:	48 89 85 10 f8 ff ff 	mov    %rax,-0x7f0(%rbp)
    fdae:	48 8d 85 10 cf ff ff 	lea    -0x30f0(%rbp),%rax
    fdb5:	48 83 c0 40          	add    $0x40,%rax
    fdb9:	48 89 85 18 f8 ff ff 	mov    %rax,-0x7e8(%rbp)
    fdc0:	48 8d 85 10 cf ff ff 	lea    -0x30f0(%rbp),%rax
    fdc7:	48 83 c0 40          	add    $0x40,%rax
    fdcb:	48 89 85 20 f8 ff ff 	mov    %rax,-0x7e0(%rbp)
    fdd2:	48 8d 05 e7 fd 00 00 	lea    0xfde7(%rip),%rax        # 1fbc0 <g_143>
    fdd9:	48 89 85 28 f8 ff ff 	mov    %rax,-0x7d8(%rbp)
    fde0:	48 8d 85 10 cf ff ff 	lea    -0x30f0(%rbp),%rax
    fde7:	48 83 c0 50          	add    $0x50,%rax
    fdeb:	48 89 85 30 f8 ff ff 	mov    %rax,-0x7d0(%rbp)
    fdf2:	48 8d 05 c7 fd 00 00 	lea    0xfdc7(%rip),%rax        # 1fbc0 <g_143>
    fdf9:	48 89 85 38 f8 ff ff 	mov    %rax,-0x7c8(%rbp)
    fe00:	48 8d 05 a9 fd 00 00 	lea    0xfda9(%rip),%rax        # 1fbb0 <g_134>
    fe07:	48 89 85 40 f8 ff ff 	mov    %rax,-0x7c0(%rbp)
    fe0e:	48 8d 05 ab fd 00 00 	lea    0xfdab(%rip),%rax        # 1fbc0 <g_143>
    fe15:	48 89 85 48 f8 ff ff 	mov    %rax,-0x7b8(%rbp)
    fe1c:	48 8d 85 10 cf ff ff 	lea    -0x30f0(%rbp),%rax
    fe23:	48 83 c0 50          	add    $0x50,%rax
    fe27:	48 89 85 50 f8 ff ff 	mov    %rax,-0x7b0(%rbp)
    fe2e:	48 8d 05 8b fd 00 00 	lea    0xfd8b(%rip),%rax        # 1fbc0 <g_143>
    fe35:	48 89 85 58 f8 ff ff 	mov    %rax,-0x7a8(%rbp)
    fe3c:	48 8d 85 10 cf ff ff 	lea    -0x30f0(%rbp),%rax
    fe43:	48 83 c0 60          	add    $0x60,%rax
    fe47:	48 89 85 60 f8 ff ff 	mov    %rax,-0x7a0(%rbp)
    fe4e:	48 8d 85 10 cf ff ff 	lea    -0x30f0(%rbp),%rax
    fe55:	48 83 c0 40          	add    $0x40,%rax
    fe59:	48 89 85 68 f8 ff ff 	mov    %rax,-0x798(%rbp)
    fe60:	48 8d 85 10 cf ff ff 	lea    -0x30f0(%rbp),%rax
    fe67:	48 83 c0 40          	add    $0x40,%rax
    fe6b:	48 89 85 70 f8 ff ff 	mov    %rax,-0x790(%rbp)
    fe72:	48 8d 85 10 cf ff ff 	lea    -0x30f0(%rbp),%rax
    fe79:	48 83 c0 60          	add    $0x60,%rax
    fe7d:	48 89 85 78 f8 ff ff 	mov    %rax,-0x788(%rbp)
    fe84:	48 8d 85 10 cf ff ff 	lea    -0x30f0(%rbp),%rax
    fe8b:	48 83 c0 40          	add    $0x40,%rax
    fe8f:	48 89 85 80 f8 ff ff 	mov    %rax,-0x780(%rbp)
    fe96:	48 8d 85 10 cf ff ff 	lea    -0x30f0(%rbp),%rax
    fe9d:	48 83 c0 40          	add    $0x40,%rax
    fea1:	48 89 85 88 f8 ff ff 	mov    %rax,-0x778(%rbp)
    fea8:	48 8d 85 10 cf ff ff 	lea    -0x30f0(%rbp),%rax
    feaf:	48 83 c0 40          	add    $0x40,%rax
    feb3:	48 89 85 90 f8 ff ff 	mov    %rax,-0x770(%rbp)
    feba:	48 8d 85 10 cf ff ff 	lea    -0x30f0(%rbp),%rax
    fec1:	48 83 c0 40          	add    $0x40,%rax
    fec5:	48 89 85 98 f8 ff ff 	mov    %rax,-0x768(%rbp)
    fecc:	48 8d 85 10 cf ff ff 	lea    -0x30f0(%rbp),%rax
    fed3:	48 83 c0 50          	add    $0x50,%rax
    fed7:	48 89 85 a0 f8 ff ff 	mov    %rax,-0x760(%rbp)
    fede:	48 8d 05 cb fc 00 00 	lea    0xfccb(%rip),%rax        # 1fbb0 <g_134>
    fee5:	48 89 85 a8 f8 ff ff 	mov    %rax,-0x758(%rbp)
    feec:	48 8d 85 10 cf ff ff 	lea    -0x30f0(%rbp),%rax
    fef3:	48 83 c0 50          	add    $0x50,%rax
    fef7:	48 89 85 b0 f8 ff ff 	mov    %rax,-0x750(%rbp)
    fefe:	48 8d 85 10 cf ff ff 	lea    -0x30f0(%rbp),%rax
    ff05:	48 83 c0 40          	add    $0x40,%rax
    ff09:	48 89 85 b8 f8 ff ff 	mov    %rax,-0x748(%rbp)
    ff10:	48 8d 85 10 cf ff ff 	lea    -0x30f0(%rbp),%rax
    ff17:	48 83 c0 50          	add    $0x50,%rax
    ff1b:	48 89 85 c0 f8 ff ff 	mov    %rax,-0x740(%rbp)
    ff22:	48 8d 05 87 fc 00 00 	lea    0xfc87(%rip),%rax        # 1fbb0 <g_134>
    ff29:	48 89 85 c8 f8 ff ff 	mov    %rax,-0x738(%rbp)
    ff30:	48 8d 85 10 cf ff ff 	lea    -0x30f0(%rbp),%rax
    ff37:	48 83 c0 40          	add    $0x40,%rax
    ff3b:	48 89 85 d0 f8 ff ff 	mov    %rax,-0x730(%rbp)
    ff42:	48 8d 85 10 cf ff ff 	lea    -0x30f0(%rbp),%rax
    ff49:	48 83 c0 60          	add    $0x60,%rax
    ff4d:	48 89 85 d8 f8 ff ff 	mov    %rax,-0x728(%rbp)
    ff54:	48 8d 85 10 cf ff ff 	lea    -0x30f0(%rbp),%rax
    ff5b:	48 83 c0 40          	add    $0x40,%rax
    ff5f:	48 89 85 e0 f8 ff ff 	mov    %rax,-0x720(%rbp)
    ff66:	48 8d 85 10 cf ff ff 	lea    -0x30f0(%rbp),%rax
    ff6d:	48 83 c0 40          	add    $0x40,%rax
    ff71:	48 89 85 e8 f8 ff ff 	mov    %rax,-0x718(%rbp)
    ff78:	48 8d 85 10 cf ff ff 	lea    -0x30f0(%rbp),%rax
    ff7f:	48 83 c0 60          	add    $0x60,%rax
    ff83:	48 89 85 f0 f8 ff ff 	mov    %rax,-0x710(%rbp)
    ff8a:	48 8d 85 10 cf ff ff 	lea    -0x30f0(%rbp),%rax
    ff91:	48 83 c0 40          	add    $0x40,%rax
    ff95:	48 89 85 f8 f8 ff ff 	mov    %rax,-0x708(%rbp)
    ff9c:	48 8d 85 10 cf ff ff 	lea    -0x30f0(%rbp),%rax
    ffa3:	48 83 c0 40          	add    $0x40,%rax
    ffa7:	48 89 85 00 f9 ff ff 	mov    %rax,-0x700(%rbp)
    ffae:	48 8d 05 0b fc 00 00 	lea    0xfc0b(%rip),%rax        # 1fbc0 <g_143>
    ffb5:	48 89 85 08 f9 ff ff 	mov    %rax,-0x6f8(%rbp)
    ffbc:	48 8d 05 ed fb 00 00 	lea    0xfbed(%rip),%rax        # 1fbb0 <g_134>
    ffc3:	48 89 85 10 f9 ff ff 	mov    %rax,-0x6f0(%rbp)
    ffca:	48 8d 05 ef fb 00 00 	lea    0xfbef(%rip),%rax        # 1fbc0 <g_143>
    ffd1:	48 89 85 18 f9 ff ff 	mov    %rax,-0x6e8(%rbp)
    ffd8:	48 8d 85 10 cf ff ff 	lea    -0x30f0(%rbp),%rax
    ffdf:	48 83 c0 50          	add    $0x50,%rax
    ffe3:	48 89 85 20 f9 ff ff 	mov    %rax,-0x6e0(%rbp)
    ffea:	48 8d 05 cf fb 00 00 	lea    0xfbcf(%rip),%rax        # 1fbc0 <g_143>
    fff1:	48 89 85 28 f9 ff ff 	mov    %rax,-0x6d8(%rbp)
    fff8:	48 8d 05 b1 fb 00 00 	lea    0xfbb1(%rip),%rax        # 1fbb0 <g_134>
    ffff:	48 89 85 30 f9 ff ff 	mov    %rax,-0x6d0(%rbp)
   10006:	48 8d 05 b3 fb 00 00 	lea    0xfbb3(%rip),%rax        # 1fbc0 <g_143>
   1000d:	48 89 85 38 f9 ff ff 	mov    %rax,-0x6c8(%rbp)
   10014:	48 8d 85 10 cf ff ff 	lea    -0x30f0(%rbp),%rax
   1001b:	48 83 c0 40          	add    $0x40,%rax
   1001f:	48 89 85 40 f9 ff ff 	mov    %rax,-0x6c0(%rbp)
   10026:	48 8d 85 10 cf ff ff 	lea    -0x30f0(%rbp),%rax
   1002d:	48 83 c0 40          	add    $0x40,%rax
   10031:	48 89 85 48 f9 ff ff 	mov    %rax,-0x6b8(%rbp)
   10038:	48 8d 85 10 cf ff ff 	lea    -0x30f0(%rbp),%rax
   1003f:	48 83 c0 40          	add    $0x40,%rax
   10043:	48 89 85 50 f9 ff ff 	mov    %rax,-0x6b0(%rbp)
   1004a:	48 8d 85 10 cf ff ff 	lea    -0x30f0(%rbp),%rax
   10051:	48 83 c0 60          	add    $0x60,%rax
   10055:	48 89 85 58 f9 ff ff 	mov    %rax,-0x6a8(%rbp)
   1005c:	48 8d 85 10 cf ff ff 	lea    -0x30f0(%rbp),%rax
   10063:	48 83 c0 60          	add    $0x60,%rax
   10067:	48 89 85 60 f9 ff ff 	mov    %rax,-0x6a0(%rbp)
   1006e:	48 8d 85 10 cf ff ff 	lea    -0x30f0(%rbp),%rax
   10075:	48 83 c0 40          	add    $0x40,%rax
   10079:	48 89 85 68 f9 ff ff 	mov    %rax,-0x698(%rbp)
   10080:	48 8d 85 10 cf ff ff 	lea    -0x30f0(%rbp),%rax
   10087:	48 83 c0 40          	add    $0x40,%rax
   1008b:	48 89 85 70 f9 ff ff 	mov    %rax,-0x690(%rbp)
   10092:	48 8d 85 10 cf ff ff 	lea    -0x30f0(%rbp),%rax
   10099:	48 83 c0 40          	add    $0x40,%rax
   1009d:	48 89 85 78 f9 ff ff 	mov    %rax,-0x688(%rbp)
   100a4:	48 8d 05 05 fb 00 00 	lea    0xfb05(%rip),%rax        # 1fbb0 <g_134>
   100ab:	48 89 85 80 f9 ff ff 	mov    %rax,-0x680(%rbp)
   100b2:	48 8d 05 f7 fa 00 00 	lea    0xfaf7(%rip),%rax        # 1fbb0 <g_134>
   100b9:	48 89 85 88 f9 ff ff 	mov    %rax,-0x678(%rbp)
   100c0:	48 8d 05 e9 fa 00 00 	lea    0xfae9(%rip),%rax        # 1fbb0 <g_134>
   100c7:	48 89 85 90 f9 ff ff 	mov    %rax,-0x670(%rbp)
   100ce:	48 8d 85 10 cf ff ff 	lea    -0x30f0(%rbp),%rax
   100d5:	48 83 c0 40          	add    $0x40,%rax
   100d9:	48 89 85 98 f9 ff ff 	mov    %rax,-0x668(%rbp)
   100e0:	48 8d 05 c9 fa 00 00 	lea    0xfac9(%rip),%rax        # 1fbb0 <g_134>
   100e7:	48 89 85 a0 f9 ff ff 	mov    %rax,-0x660(%rbp)
   100ee:	48 8d 05 bb fa 00 00 	lea    0xfabb(%rip),%rax        # 1fbb0 <g_134>
   100f5:	48 89 85 a8 f9 ff ff 	mov    %rax,-0x658(%rbp)
   100fc:	48 8d 85 10 cf ff ff 	lea    -0x30f0(%rbp),%rax
   10103:	48 83 c0 60          	add    $0x60,%rax
   10107:	48 89 85 b0 f9 ff ff 	mov    %rax,-0x650(%rbp)
   1010e:	48 8d 85 10 cf ff ff 	lea    -0x30f0(%rbp),%rax
   10115:	48 83 c0 60          	add    $0x60,%rax
   10119:	48 89 85 b8 f9 ff ff 	mov    %rax,-0x648(%rbp)
   10120:	48 8d 85 10 cf ff ff 	lea    -0x30f0(%rbp),%rax
   10127:	48 83 c0 40          	add    $0x40,%rax
   1012b:	48 89 85 c0 f9 ff ff 	mov    %rax,-0x640(%rbp)
   10132:	48 8d 85 10 cf ff ff 	lea    -0x30f0(%rbp),%rax
   10139:	48 83 c0 40          	add    $0x40,%rax
   1013d:	48 89 85 c8 f9 ff ff 	mov    %rax,-0x638(%rbp)
   10144:	48 8d 85 10 cf ff ff 	lea    -0x30f0(%rbp),%rax
   1014b:	48 83 c0 40          	add    $0x40,%rax
   1014f:	48 89 85 d0 f9 ff ff 	mov    %rax,-0x630(%rbp)
   10156:	48 8d 85 10 cf ff ff 	lea    -0x30f0(%rbp),%rax
   1015d:	48 83 c0 40          	add    $0x40,%rax
   10161:	48 89 85 d8 f9 ff ff 	mov    %rax,-0x628(%rbp)
   10168:	48 8d 85 10 cf ff ff 	lea    -0x30f0(%rbp),%rax
   1016f:	48 83 c0 40          	add    $0x40,%rax
   10173:	48 89 85 e0 f9 ff ff 	mov    %rax,-0x620(%rbp)
   1017a:	48 8d 05 3f fa 00 00 	lea    0xfa3f(%rip),%rax        # 1fbc0 <g_143>
   10181:	48 89 85 e8 f9 ff ff 	mov    %rax,-0x618(%rbp)
   10188:	48 8d 85 10 cf ff ff 	lea    -0x30f0(%rbp),%rax
   1018f:	48 83 c0 50          	add    $0x50,%rax
   10193:	48 89 85 f0 f9 ff ff 	mov    %rax,-0x610(%rbp)
   1019a:	48 8d 05 1f fa 00 00 	lea    0xfa1f(%rip),%rax        # 1fbc0 <g_143>
   101a1:	48 89 85 f8 f9 ff ff 	mov    %rax,-0x608(%rbp)
   101a8:	48 8d 05 01 fa 00 00 	lea    0xfa01(%rip),%rax        # 1fbb0 <g_134>
   101af:	48 89 85 00 fa ff ff 	mov    %rax,-0x600(%rbp)
   101b6:	48 8d 05 03 fa 00 00 	lea    0xfa03(%rip),%rax        # 1fbc0 <g_143>
   101bd:	48 89 85 08 fa ff ff 	mov    %rax,-0x5f8(%rbp)
   101c4:	48 8d 85 10 cf ff ff 	lea    -0x30f0(%rbp),%rax
   101cb:	48 83 c0 50          	add    $0x50,%rax
   101cf:	48 89 85 10 fa ff ff 	mov    %rax,-0x5f0(%rbp)
   101d6:	48 8d 05 e3 f9 00 00 	lea    0xf9e3(%rip),%rax        # 1fbc0 <g_143>
   101dd:	48 89 85 18 fa ff ff 	mov    %rax,-0x5e8(%rbp)
   101e4:	48 8d 85 10 cf ff ff 	lea    -0x30f0(%rbp),%rax
   101eb:	48 83 c0 60          	add    $0x60,%rax
   101ef:	48 89 85 20 fa ff ff 	mov    %rax,-0x5e0(%rbp)
   101f6:	48 8d 85 10 cf ff ff 	lea    -0x30f0(%rbp),%rax
   101fd:	48 83 c0 40          	add    $0x40,%rax
   10201:	48 89 85 28 fa ff ff 	mov    %rax,-0x5d8(%rbp)
   10208:	48 8d 85 10 cf ff ff 	lea    -0x30f0(%rbp),%rax
   1020f:	48 83 c0 40          	add    $0x40,%rax
   10213:	48 89 85 30 fa ff ff 	mov    %rax,-0x5d0(%rbp)
   1021a:	48 8d 85 10 cf ff ff 	lea    -0x30f0(%rbp),%rax
   10221:	48 83 c0 60          	add    $0x60,%rax
   10225:	48 89 85 38 fa ff ff 	mov    %rax,-0x5c8(%rbp)
   1022c:	48 8d 85 10 cf ff ff 	lea    -0x30f0(%rbp),%rax
   10233:	48 83 c0 40          	add    $0x40,%rax
   10237:	48 89 85 40 fa ff ff 	mov    %rax,-0x5c0(%rbp)
   1023e:	48 8d 85 10 cf ff ff 	lea    -0x30f0(%rbp),%rax
   10245:	48 83 c0 40          	add    $0x40,%rax
   10249:	48 89 85 48 fa ff ff 	mov    %rax,-0x5b8(%rbp)
   10250:	48 8d 85 10 cf ff ff 	lea    -0x30f0(%rbp),%rax
   10257:	48 83 c0 40          	add    $0x40,%rax
   1025b:	48 89 85 50 fa ff ff 	mov    %rax,-0x5b0(%rbp)
   10262:	48 8d 85 10 cf ff ff 	lea    -0x30f0(%rbp),%rax
   10269:	48 83 c0 40          	add    $0x40,%rax
   1026d:	48 89 85 58 fa ff ff 	mov    %rax,-0x5a8(%rbp)
   10274:	48 8d 85 10 cf ff ff 	lea    -0x30f0(%rbp),%rax
   1027b:	48 83 c0 50          	add    $0x50,%rax
   1027f:	48 89 85 60 fa ff ff 	mov    %rax,-0x5a0(%rbp)
   10286:	48 8d 05 23 f9 00 00 	lea    0xf923(%rip),%rax        # 1fbb0 <g_134>
   1028d:	48 89 85 68 fa ff ff 	mov    %rax,-0x598(%rbp)
   10294:	48 8d 85 10 cf ff ff 	lea    -0x30f0(%rbp),%rax
   1029b:	48 83 c0 50          	add    $0x50,%rax
   1029f:	48 89 85 70 fa ff ff 	mov    %rax,-0x590(%rbp)
   102a6:	48 8d 85 10 cf ff ff 	lea    -0x30f0(%rbp),%rax
   102ad:	48 83 c0 40          	add    $0x40,%rax
   102b1:	48 89 85 78 fa ff ff 	mov    %rax,-0x588(%rbp)
   102b8:	48 8d 85 10 cf ff ff 	lea    -0x30f0(%rbp),%rax
   102bf:	48 83 c0 50          	add    $0x50,%rax
   102c3:	48 89 85 80 fa ff ff 	mov    %rax,-0x580(%rbp)
   102ca:	48 8d 05 df f8 00 00 	lea    0xf8df(%rip),%rax        # 1fbb0 <g_134>
   102d1:	48 89 85 88 fa ff ff 	mov    %rax,-0x578(%rbp)
   102d8:	48 8d 85 10 cf ff ff 	lea    -0x30f0(%rbp),%rax
   102df:	48 83 c0 40          	add    $0x40,%rax
   102e3:	48 89 85 90 fa ff ff 	mov    %rax,-0x570(%rbp)
   102ea:	48 8d 85 10 cf ff ff 	lea    -0x30f0(%rbp),%rax
   102f1:	48 83 c0 60          	add    $0x60,%rax
   102f5:	48 89 85 98 fa ff ff 	mov    %rax,-0x568(%rbp)
   102fc:	48 8d 85 10 cf ff ff 	lea    -0x30f0(%rbp),%rax
   10303:	48 83 c0 40          	add    $0x40,%rax
   10307:	48 89 85 a0 fa ff ff 	mov    %rax,-0x560(%rbp)
   1030e:	48 8d 85 10 cf ff ff 	lea    -0x30f0(%rbp),%rax
   10315:	48 83 c0 40          	add    $0x40,%rax
   10319:	48 89 85 a8 fa ff ff 	mov    %rax,-0x558(%rbp)
   10320:	48 8d 85 10 cf ff ff 	lea    -0x30f0(%rbp),%rax
   10327:	48 83 c0 60          	add    $0x60,%rax
   1032b:	48 89 85 b0 fa ff ff 	mov    %rax,-0x550(%rbp)
   10332:	48 8d 85 10 cf ff ff 	lea    -0x30f0(%rbp),%rax
   10339:	48 83 c0 40          	add    $0x40,%rax
   1033d:	48 89 85 b8 fa ff ff 	mov    %rax,-0x548(%rbp)
   10344:	48 8d 85 10 cf ff ff 	lea    -0x30f0(%rbp),%rax
   1034b:	48 83 c0 40          	add    $0x40,%rax
   1034f:	48 89 85 c0 fa ff ff 	mov    %rax,-0x540(%rbp)
   10356:	48 8d 05 63 f8 00 00 	lea    0xf863(%rip),%rax        # 1fbc0 <g_143>
   1035d:	48 89 85 c8 fa ff ff 	mov    %rax,-0x538(%rbp)
   10364:	48 8d 05 45 f8 00 00 	lea    0xf845(%rip),%rax        # 1fbb0 <g_134>
   1036b:	48 89 85 d0 fa ff ff 	mov    %rax,-0x530(%rbp)
   10372:	48 8d 05 47 f8 00 00 	lea    0xf847(%rip),%rax        # 1fbc0 <g_143>
   10379:	48 89 85 d8 fa ff ff 	mov    %rax,-0x528(%rbp)
   10380:	48 8d 85 10 cf ff ff 	lea    -0x30f0(%rbp),%rax
   10387:	48 83 c0 50          	add    $0x50,%rax
   1038b:	48 89 85 e0 fa ff ff 	mov    %rax,-0x520(%rbp)
   10392:	48 8d 05 27 f8 00 00 	lea    0xf827(%rip),%rax        # 1fbc0 <g_143>
   10399:	48 89 85 e8 fa ff ff 	mov    %rax,-0x518(%rbp)
   103a0:	48 8d 05 09 f8 00 00 	lea    0xf809(%rip),%rax        # 1fbb0 <g_134>
   103a7:	48 89 85 f0 fa ff ff 	mov    %rax,-0x510(%rbp)
   103ae:	48 8d 05 0b f8 00 00 	lea    0xf80b(%rip),%rax        # 1fbc0 <g_143>
   103b5:	48 89 85 f8 fa ff ff 	mov    %rax,-0x508(%rbp)
   103bc:	48 8d 85 10 cf ff ff 	lea    -0x30f0(%rbp),%rax
   103c3:	48 83 c0 40          	add    $0x40,%rax
   103c7:	48 89 85 00 fb ff ff 	mov    %rax,-0x500(%rbp)
   103ce:	48 8d 85 10 cf ff ff 	lea    -0x30f0(%rbp),%rax
   103d5:	48 83 c0 40          	add    $0x40,%rax
   103d9:	48 89 85 08 fb ff ff 	mov    %rax,-0x4f8(%rbp)
   103e0:	48 8d 85 10 cf ff ff 	lea    -0x30f0(%rbp),%rax
   103e7:	48 83 c0 40          	add    $0x40,%rax
   103eb:	48 89 85 10 fb ff ff 	mov    %rax,-0x4f0(%rbp)
   103f2:	48 8d 85 10 cf ff ff 	lea    -0x30f0(%rbp),%rax
   103f9:	48 83 c0 60          	add    $0x60,%rax
   103fd:	48 89 85 18 fb ff ff 	mov    %rax,-0x4e8(%rbp)
   10404:	48 8d 85 10 cf ff ff 	lea    -0x30f0(%rbp),%rax
   1040b:	48 83 c0 60          	add    $0x60,%rax
   1040f:	48 89 85 20 fb ff ff 	mov    %rax,-0x4e0(%rbp)
   10416:	48 8d 85 10 cf ff ff 	lea    -0x30f0(%rbp),%rax
   1041d:	48 83 c0 40          	add    $0x40,%rax
   10421:	48 89 85 28 fb ff ff 	mov    %rax,-0x4d8(%rbp)
   10428:	48 8d 85 10 cf ff ff 	lea    -0x30f0(%rbp),%rax
   1042f:	48 83 c0 40          	add    $0x40,%rax
   10433:	48 89 85 30 fb ff ff 	mov    %rax,-0x4d0(%rbp)
   1043a:	48 8d 85 10 cf ff ff 	lea    -0x30f0(%rbp),%rax
   10441:	48 83 c0 40          	add    $0x40,%rax
   10445:	48 89 85 38 fb ff ff 	mov    %rax,-0x4c8(%rbp)
   1044c:	48 8d 05 5d f7 00 00 	lea    0xf75d(%rip),%rax        # 1fbb0 <g_134>
   10453:	48 89 85 40 fb ff ff 	mov    %rax,-0x4c0(%rbp)
   1045a:	48 8d 05 4f f7 00 00 	lea    0xf74f(%rip),%rax        # 1fbb0 <g_134>
   10461:	48 89 85 48 fb ff ff 	mov    %rax,-0x4b8(%rbp)
   10468:	48 8d 05 41 f7 00 00 	lea    0xf741(%rip),%rax        # 1fbb0 <g_134>
   1046f:	48 89 85 50 fb ff ff 	mov    %rax,-0x4b0(%rbp)
   10476:	48 8d 85 10 cf ff ff 	lea    -0x30f0(%rbp),%rax
   1047d:	48 83 c0 40          	add    $0x40,%rax
   10481:	48 89 85 58 fb ff ff 	mov    %rax,-0x4a8(%rbp)
   10488:	48 8d 05 21 f7 00 00 	lea    0xf721(%rip),%rax        # 1fbb0 <g_134>
   1048f:	48 89 85 60 fb ff ff 	mov    %rax,-0x4a0(%rbp)
   10496:	48 8d 05 13 f7 00 00 	lea    0xf713(%rip),%rax        # 1fbb0 <g_134>
   1049d:	48 89 85 68 fb ff ff 	mov    %rax,-0x498(%rbp)
   104a4:	48 8d 85 10 cf ff ff 	lea    -0x30f0(%rbp),%rax
   104ab:	48 83 c0 60          	add    $0x60,%rax
   104af:	48 89 85 70 fb ff ff 	mov    %rax,-0x490(%rbp)
   104b6:	48 8d 85 10 cf ff ff 	lea    -0x30f0(%rbp),%rax
   104bd:	48 83 c0 60          	add    $0x60,%rax
   104c1:	48 89 85 78 fb ff ff 	mov    %rax,-0x488(%rbp)
   104c8:	48 8d 85 10 cf ff ff 	lea    -0x30f0(%rbp),%rax
   104cf:	48 83 c0 40          	add    $0x40,%rax
   104d3:	48 89 85 80 fb ff ff 	mov    %rax,-0x480(%rbp)
   104da:	48 8d 85 10 cf ff ff 	lea    -0x30f0(%rbp),%rax
   104e1:	48 83 c0 40          	add    $0x40,%rax
   104e5:	48 89 85 88 fb ff ff 	mov    %rax,-0x478(%rbp)
   104ec:	48 8d 85 10 cf ff ff 	lea    -0x30f0(%rbp),%rax
   104f3:	48 83 c0 40          	add    $0x40,%rax
   104f7:	48 89 85 90 fb ff ff 	mov    %rax,-0x470(%rbp)
   104fe:	48 8d 85 10 cf ff ff 	lea    -0x30f0(%rbp),%rax
   10505:	48 83 c0 40          	add    $0x40,%rax
   10509:	48 89 85 98 fb ff ff 	mov    %rax,-0x468(%rbp)
   10510:	48 8d 85 10 cf ff ff 	lea    -0x30f0(%rbp),%rax
   10517:	48 83 c0 40          	add    $0x40,%rax
   1051b:	48 89 85 a0 fb ff ff 	mov    %rax,-0x460(%rbp)
   10522:	48 8d 05 97 f6 00 00 	lea    0xf697(%rip),%rax        # 1fbc0 <g_143>
   10529:	48 89 85 a8 fb ff ff 	mov    %rax,-0x458(%rbp)
   10530:	48 8d 85 10 cf ff ff 	lea    -0x30f0(%rbp),%rax
   10537:	48 83 c0 50          	add    $0x50,%rax
   1053b:	48 89 85 b0 fb ff ff 	mov    %rax,-0x450(%rbp)
   10542:	48 8d 05 77 f6 00 00 	lea    0xf677(%rip),%rax        # 1fbc0 <g_143>
   10549:	48 89 85 b8 fb ff ff 	mov    %rax,-0x448(%rbp)
   10550:	48 8d 05 59 f6 00 00 	lea    0xf659(%rip),%rax        # 1fbb0 <g_134>
   10557:	48 89 85 c0 fb ff ff 	mov    %rax,-0x440(%rbp)
   1055e:	48 8d 05 5b f6 00 00 	lea    0xf65b(%rip),%rax        # 1fbc0 <g_143>
   10565:	48 89 85 c8 fb ff ff 	mov    %rax,-0x438(%rbp)
   1056c:	48 8d 85 10 cf ff ff 	lea    -0x30f0(%rbp),%rax
   10573:	48 83 c0 50          	add    $0x50,%rax
   10577:	48 89 85 d0 fb ff ff 	mov    %rax,-0x430(%rbp)
   1057e:	48 8d 05 3b f6 00 00 	lea    0xf63b(%rip),%rax        # 1fbc0 <g_143>
   10585:	48 89 85 d8 fb ff ff 	mov    %rax,-0x428(%rbp)
   1058c:	48 8d 85 10 cf ff ff 	lea    -0x30f0(%rbp),%rax
   10593:	48 83 c0 60          	add    $0x60,%rax
   10597:	48 89 85 e0 fb ff ff 	mov    %rax,-0x420(%rbp)
   1059e:	48 8d 85 10 cf ff ff 	lea    -0x30f0(%rbp),%rax
   105a5:	48 83 c0 40          	add    $0x40,%rax
   105a9:	48 89 85 e8 fb ff ff 	mov    %rax,-0x418(%rbp)
   105b0:	48 8d 85 10 cf ff ff 	lea    -0x30f0(%rbp),%rax
   105b7:	48 83 c0 40          	add    $0x40,%rax
   105bb:	48 89 85 f0 fb ff ff 	mov    %rax,-0x410(%rbp)
   105c2:	48 8d 85 10 cf ff ff 	lea    -0x30f0(%rbp),%rax
   105c9:	48 83 c0 60          	add    $0x60,%rax
   105cd:	48 89 85 f8 fb ff ff 	mov    %rax,-0x408(%rbp)
   105d4:	48 8d 85 10 cf ff ff 	lea    -0x30f0(%rbp),%rax
   105db:	48 83 c0 40          	add    $0x40,%rax
   105df:	48 89 85 00 fc ff ff 	mov    %rax,-0x400(%rbp)
   105e6:	48 8d 85 10 cf ff ff 	lea    -0x30f0(%rbp),%rax
   105ed:	48 83 c0 40          	add    $0x40,%rax
   105f1:	48 89 85 08 fc ff ff 	mov    %rax,-0x3f8(%rbp)
   105f8:	48 8d 85 10 cf ff ff 	lea    -0x30f0(%rbp),%rax
   105ff:	48 83 c0 40          	add    $0x40,%rax
   10603:	48 89 85 10 fc ff ff 	mov    %rax,-0x3f0(%rbp)
   1060a:	48 8d 85 10 cf ff ff 	lea    -0x30f0(%rbp),%rax
   10611:	48 83 c0 40          	add    $0x40,%rax
   10615:	48 89 85 18 fc ff ff 	mov    %rax,-0x3e8(%rbp)
   1061c:	48 8d 85 10 cf ff ff 	lea    -0x30f0(%rbp),%rax
   10623:	48 83 c0 50          	add    $0x50,%rax
   10627:	48 89 85 20 fc ff ff 	mov    %rax,-0x3e0(%rbp)
   1062e:	48 8d 05 7b f5 00 00 	lea    0xf57b(%rip),%rax        # 1fbb0 <g_134>
   10635:	48 89 85 28 fc ff ff 	mov    %rax,-0x3d8(%rbp)
   1063c:	48 8d 85 10 cf ff ff 	lea    -0x30f0(%rbp),%rax
   10643:	48 83 c0 50          	add    $0x50,%rax
   10647:	48 89 85 30 fc ff ff 	mov    %rax,-0x3d0(%rbp)
   1064e:	48 8d 85 10 cf ff ff 	lea    -0x30f0(%rbp),%rax
   10655:	48 83 c0 40          	add    $0x40,%rax
   10659:	48 89 85 38 fc ff ff 	mov    %rax,-0x3c8(%rbp)
   10660:	48 8d 85 10 cf ff ff 	lea    -0x30f0(%rbp),%rax
   10667:	48 83 c0 50          	add    $0x50,%rax
   1066b:	48 89 85 40 fc ff ff 	mov    %rax,-0x3c0(%rbp)
   10672:	48 8d 05 37 f5 00 00 	lea    0xf537(%rip),%rax        # 1fbb0 <g_134>
   10679:	48 89 85 48 fc ff ff 	mov    %rax,-0x3b8(%rbp)
   10680:	48 8d 85 10 cf ff ff 	lea    -0x30f0(%rbp),%rax
   10687:	48 83 c0 40          	add    $0x40,%rax
   1068b:	48 89 85 50 fc ff ff 	mov    %rax,-0x3b0(%rbp)
   10692:	48 8d 85 10 cf ff ff 	lea    -0x30f0(%rbp),%rax
   10699:	48 83 c0 60          	add    $0x60,%rax
   1069d:	48 89 85 58 fc ff ff 	mov    %rax,-0x3a8(%rbp)
   106a4:	48 8d 85 10 cf ff ff 	lea    -0x30f0(%rbp),%rax
   106ab:	48 83 c0 40          	add    $0x40,%rax
   106af:	48 89 85 60 fc ff ff 	mov    %rax,-0x3a0(%rbp)
   106b6:	48 8d 85 10 cf ff ff 	lea    -0x30f0(%rbp),%rax
   106bd:	48 83 c0 40          	add    $0x40,%rax
   106c1:	48 89 85 68 fc ff ff 	mov    %rax,-0x398(%rbp)
   106c8:	48 8d 85 10 cf ff ff 	lea    -0x30f0(%rbp),%rax
   106cf:	48 83 c0 60          	add    $0x60,%rax
   106d3:	48 89 85 70 fc ff ff 	mov    %rax,-0x390(%rbp)
   106da:	48 8d 85 10 cf ff ff 	lea    -0x30f0(%rbp),%rax
   106e1:	48 83 c0 40          	add    $0x40,%rax
   106e5:	48 89 85 78 fc ff ff 	mov    %rax,-0x388(%rbp)
   106ec:	48 8d 85 10 cf ff ff 	lea    -0x30f0(%rbp),%rax
   106f3:	48 83 c0 40          	add    $0x40,%rax
   106f7:	48 89 85 80 fc ff ff 	mov    %rax,-0x380(%rbp)
   106fe:	48 8d 05 bb f4 00 00 	lea    0xf4bb(%rip),%rax        # 1fbc0 <g_143>
   10705:	48 89 85 88 fc ff ff 	mov    %rax,-0x378(%rbp)
   1070c:	48 8d 05 9d f4 00 00 	lea    0xf49d(%rip),%rax        # 1fbb0 <g_134>
   10713:	48 89 85 90 fc ff ff 	mov    %rax,-0x370(%rbp)
   1071a:	48 8d 05 9f f4 00 00 	lea    0xf49f(%rip),%rax        # 1fbc0 <g_143>
   10721:	48 89 85 98 fc ff ff 	mov    %rax,-0x368(%rbp)
   10728:	48 8d 85 10 cf ff ff 	lea    -0x30f0(%rbp),%rax
   1072f:	48 83 c0 50          	add    $0x50,%rax
   10733:	48 89 85 a0 fc ff ff 	mov    %rax,-0x360(%rbp)
   1073a:	48 8d 05 7f f4 00 00 	lea    0xf47f(%rip),%rax        # 1fbc0 <g_143>
   10741:	48 89 85 a8 fc ff ff 	mov    %rax,-0x358(%rbp)
   10748:	48 8d 05 61 f4 00 00 	lea    0xf461(%rip),%rax        # 1fbb0 <g_134>
   1074f:	48 89 85 b0 fc ff ff 	mov    %rax,-0x350(%rbp)
   10756:	48 8d 05 63 f4 00 00 	lea    0xf463(%rip),%rax        # 1fbc0 <g_143>
   1075d:	48 89 85 b8 fc ff ff 	mov    %rax,-0x348(%rbp)
   10764:	48 8d 85 10 cf ff ff 	lea    -0x30f0(%rbp),%rax
   1076b:	48 83 c0 40          	add    $0x40,%rax
   1076f:	48 89 85 c0 fc ff ff 	mov    %rax,-0x340(%rbp)
   10776:	48 8d 85 10 cf ff ff 	lea    -0x30f0(%rbp),%rax
   1077d:	48 83 c0 40          	add    $0x40,%rax
   10781:	48 89 85 c8 fc ff ff 	mov    %rax,-0x338(%rbp)
   10788:	48 8d 85 10 cf ff ff 	lea    -0x30f0(%rbp),%rax
   1078f:	48 83 c0 40          	add    $0x40,%rax
   10793:	48 89 85 d0 fc ff ff 	mov    %rax,-0x330(%rbp)
   1079a:	48 8d 85 10 cf ff ff 	lea    -0x30f0(%rbp),%rax
   107a1:	48 83 c0 60          	add    $0x60,%rax
   107a5:	48 89 85 d8 fc ff ff 	mov    %rax,-0x328(%rbp)
   107ac:	48 8d 85 10 cf ff ff 	lea    -0x30f0(%rbp),%rax
   107b3:	48 83 c0 60          	add    $0x60,%rax
   107b7:	48 89 85 e0 fc ff ff 	mov    %rax,-0x320(%rbp)
   107be:	48 8d 85 10 cf ff ff 	lea    -0x30f0(%rbp),%rax
   107c5:	48 83 c0 40          	add    $0x40,%rax
   107c9:	48 89 85 e8 fc ff ff 	mov    %rax,-0x318(%rbp)
   107d0:	48 8d 85 10 cf ff ff 	lea    -0x30f0(%rbp),%rax
   107d7:	48 83 c0 40          	add    $0x40,%rax
   107db:	48 89 85 f0 fc ff ff 	mov    %rax,-0x310(%rbp)
   107e2:	48 8d 85 10 cf ff ff 	lea    -0x30f0(%rbp),%rax
   107e9:	48 83 c0 40          	add    $0x40,%rax
   107ed:	48 89 85 f8 fc ff ff 	mov    %rax,-0x308(%rbp)
   107f4:	48 8d 05 b5 f3 00 00 	lea    0xf3b5(%rip),%rax        # 1fbb0 <g_134>
   107fb:	48 89 85 00 fd ff ff 	mov    %rax,-0x300(%rbp)
   10802:	48 8d 05 a7 f3 00 00 	lea    0xf3a7(%rip),%rax        # 1fbb0 <g_134>
   10809:	48 89 85 08 fd ff ff 	mov    %rax,-0x2f8(%rbp)
   10810:	48 8d 05 99 f3 00 00 	lea    0xf399(%rip),%rax        # 1fbb0 <g_134>
   10817:	48 89 85 10 fd ff ff 	mov    %rax,-0x2f0(%rbp)
   1081e:	48 8d 85 10 cf ff ff 	lea    -0x30f0(%rbp),%rax
   10825:	48 83 c0 40          	add    $0x40,%rax
   10829:	48 89 85 18 fd ff ff 	mov    %rax,-0x2e8(%rbp)
   10830:	48 8d 05 79 f3 00 00 	lea    0xf379(%rip),%rax        # 1fbb0 <g_134>
   10837:	48 89 85 20 fd ff ff 	mov    %rax,-0x2e0(%rbp)
   1083e:	48 8d 05 6b f3 00 00 	lea    0xf36b(%rip),%rax        # 1fbb0 <g_134>
   10845:	48 89 85 28 fd ff ff 	mov    %rax,-0x2d8(%rbp)
   1084c:	48 8d 85 10 cf ff ff 	lea    -0x30f0(%rbp),%rax
   10853:	48 83 c0 60          	add    $0x60,%rax
   10857:	48 89 85 30 fd ff ff 	mov    %rax,-0x2d0(%rbp)
   1085e:	48 8d 85 10 cf ff ff 	lea    -0x30f0(%rbp),%rax
   10865:	48 83 c0 60          	add    $0x60,%rax
   10869:	48 89 85 38 fd ff ff 	mov    %rax,-0x2c8(%rbp)
   10870:	48 8d 85 10 cf ff ff 	lea    -0x30f0(%rbp),%rax
   10877:	48 83 c0 40          	add    $0x40,%rax
   1087b:	48 89 85 40 fd ff ff 	mov    %rax,-0x2c0(%rbp)
   10882:	48 8d 85 10 cf ff ff 	lea    -0x30f0(%rbp),%rax
   10889:	48 83 c0 40          	add    $0x40,%rax
   1088d:	48 89 85 48 fd ff ff 	mov    %rax,-0x2b8(%rbp)
   10894:	48 8d 85 10 cf ff ff 	lea    -0x30f0(%rbp),%rax
   1089b:	48 83 c0 40          	add    $0x40,%rax
   1089f:	48 89 85 50 fd ff ff 	mov    %rax,-0x2b0(%rbp)
   108a6:	48 8d 85 10 cf ff ff 	lea    -0x30f0(%rbp),%rax
   108ad:	48 83 c0 40          	add    $0x40,%rax
   108b1:	48 89 85 58 fd ff ff 	mov    %rax,-0x2a8(%rbp)
   108b8:	48 8d 85 10 cf ff ff 	lea    -0x30f0(%rbp),%rax
   108bf:	48 83 c0 40          	add    $0x40,%rax
   108c3:	48 89 85 60 fd ff ff 	mov    %rax,-0x2a0(%rbp)
   108ca:	48 8d 05 ef f2 00 00 	lea    0xf2ef(%rip),%rax        # 1fbc0 <g_143>
   108d1:	48 89 85 68 fd ff ff 	mov    %rax,-0x298(%rbp)
   108d8:	48 8d 85 10 cf ff ff 	lea    -0x30f0(%rbp),%rax
   108df:	48 83 c0 50          	add    $0x50,%rax
   108e3:	48 89 85 70 fd ff ff 	mov    %rax,-0x290(%rbp)
   108ea:	48 8d 05 cf f2 00 00 	lea    0xf2cf(%rip),%rax        # 1fbc0 <g_143>
   108f1:	48 89 85 78 fd ff ff 	mov    %rax,-0x288(%rbp)
   108f8:	48 8d 05 b1 f2 00 00 	lea    0xf2b1(%rip),%rax        # 1fbb0 <g_134>
   108ff:	48 89 85 80 fd ff ff 	mov    %rax,-0x280(%rbp)
   10906:	48 8d 05 b3 f2 00 00 	lea    0xf2b3(%rip),%rax        # 1fbc0 <g_143>
   1090d:	48 89 85 88 fd ff ff 	mov    %rax,-0x278(%rbp)
   10914:	48 8d 85 10 cf ff ff 	lea    -0x30f0(%rbp),%rax
   1091b:	48 83 c0 50          	add    $0x50,%rax
   1091f:	48 89 85 90 fd ff ff 	mov    %rax,-0x270(%rbp)
   10926:	48 8d 05 93 f2 00 00 	lea    0xf293(%rip),%rax        # 1fbc0 <g_143>
   1092d:	48 89 85 98 fd ff ff 	mov    %rax,-0x268(%rbp)
   10934:	48 8d 85 10 cf ff ff 	lea    -0x30f0(%rbp),%rax
   1093b:	48 83 c0 60          	add    $0x60,%rax
   1093f:	48 89 85 a0 fd ff ff 	mov    %rax,-0x260(%rbp)
   10946:	48 8d 85 10 cf ff ff 	lea    -0x30f0(%rbp),%rax
   1094d:	48 83 c0 40          	add    $0x40,%rax
   10951:	48 89 85 a8 fd ff ff 	mov    %rax,-0x258(%rbp)
   10958:	48 8d 85 10 cf ff ff 	lea    -0x30f0(%rbp),%rax
   1095f:	48 83 c0 40          	add    $0x40,%rax
   10963:	48 89 85 b0 fd ff ff 	mov    %rax,-0x250(%rbp)
   1096a:	48 8d 85 10 cf ff ff 	lea    -0x30f0(%rbp),%rax
   10971:	48 83 c0 60          	add    $0x60,%rax
   10975:	48 89 85 b8 fd ff ff 	mov    %rax,-0x248(%rbp)
   1097c:	48 8d 85 10 cf ff ff 	lea    -0x30f0(%rbp),%rax
   10983:	48 83 c0 40          	add    $0x40,%rax
   10987:	48 89 85 c0 fd ff ff 	mov    %rax,-0x240(%rbp)
   1098e:	48 8d 85 10 cf ff ff 	lea    -0x30f0(%rbp),%rax
   10995:	48 83 c0 40          	add    $0x40,%rax
   10999:	48 89 85 c8 fd ff ff 	mov    %rax,-0x238(%rbp)
   109a0:	48 8d 85 10 cf ff ff 	lea    -0x30f0(%rbp),%rax
   109a7:	48 83 c0 40          	add    $0x40,%rax
   109ab:	48 89 85 d0 fd ff ff 	mov    %rax,-0x230(%rbp)
   109b2:	48 8d 85 10 cf ff ff 	lea    -0x30f0(%rbp),%rax
   109b9:	48 83 c0 40          	add    $0x40,%rax
   109bd:	48 89 85 d8 fd ff ff 	mov    %rax,-0x228(%rbp)
   109c4:	48 8d 85 10 cf ff ff 	lea    -0x30f0(%rbp),%rax
   109cb:	48 83 c0 50          	add    $0x50,%rax
   109cf:	48 89 85 e0 fd ff ff 	mov    %rax,-0x220(%rbp)
   109d6:	48 8d 05 d3 f1 00 00 	lea    0xf1d3(%rip),%rax        # 1fbb0 <g_134>
   109dd:	48 89 85 e8 fd ff ff 	mov    %rax,-0x218(%rbp)
   109e4:	48 8d 85 10 cf ff ff 	lea    -0x30f0(%rbp),%rax
   109eb:	48 83 c0 50          	add    $0x50,%rax
   109ef:	48 89 85 f0 fd ff ff 	mov    %rax,-0x210(%rbp)
   109f6:	48 8d 85 10 cf ff ff 	lea    -0x30f0(%rbp),%rax
   109fd:	48 83 c0 40          	add    $0x40,%rax
   10a01:	48 89 85 f8 fd ff ff 	mov    %rax,-0x208(%rbp)
   10a08:	48 8d 85 10 cf ff ff 	lea    -0x30f0(%rbp),%rax
   10a0f:	48 83 c0 50          	add    $0x50,%rax
   10a13:	48 89 85 00 fe ff ff 	mov    %rax,-0x200(%rbp)
   10a1a:	48 8d 05 8f f1 00 00 	lea    0xf18f(%rip),%rax        # 1fbb0 <g_134>
   10a21:	48 89 85 08 fe ff ff 	mov    %rax,-0x1f8(%rbp)
   10a28:	48 8d 85 10 cf ff ff 	lea    -0x30f0(%rbp),%rax
   10a2f:	48 83 c0 40          	add    $0x40,%rax
   10a33:	48 89 85 10 fe ff ff 	mov    %rax,-0x1f0(%rbp)
   10a3a:	48 8d 85 10 cf ff ff 	lea    -0x30f0(%rbp),%rax
   10a41:	48 83 c0 60          	add    $0x60,%rax
   10a45:	48 89 85 18 fe ff ff 	mov    %rax,-0x1e8(%rbp)
   10a4c:	48 8d 85 10 cf ff ff 	lea    -0x30f0(%rbp),%rax
   10a53:	48 83 c0 40          	add    $0x40,%rax
   10a57:	48 89 85 20 fe ff ff 	mov    %rax,-0x1e0(%rbp)
   10a5e:	48 8d 85 10 cf ff ff 	lea    -0x30f0(%rbp),%rax
   10a65:	48 83 c0 40          	add    $0x40,%rax
   10a69:	48 89 85 28 fe ff ff 	mov    %rax,-0x1d8(%rbp)
   10a70:	48 8d 85 10 cf ff ff 	lea    -0x30f0(%rbp),%rax
   10a77:	48 83 c0 60          	add    $0x60,%rax
   10a7b:	48 89 85 30 fe ff ff 	mov    %rax,-0x1d0(%rbp)
   10a82:	48 8d 85 10 cf ff ff 	lea    -0x30f0(%rbp),%rax
   10a89:	48 83 c0 40          	add    $0x40,%rax
   10a8d:	48 89 85 38 fe ff ff 	mov    %rax,-0x1c8(%rbp)
   10a94:	48 8d 85 10 cf ff ff 	lea    -0x30f0(%rbp),%rax
   10a9b:	48 83 c0 40          	add    $0x40,%rax
   10a9f:	48 89 85 40 fe ff ff 	mov    %rax,-0x1c0(%rbp)
   10aa6:	48 8d 05 13 f1 00 00 	lea    0xf113(%rip),%rax        # 1fbc0 <g_143>
   10aad:	48 89 85 48 fe ff ff 	mov    %rax,-0x1b8(%rbp)
   10ab4:	48 8d 05 f5 f0 00 00 	lea    0xf0f5(%rip),%rax        # 1fbb0 <g_134>
   10abb:	48 89 85 50 fe ff ff 	mov    %rax,-0x1b0(%rbp)
   10ac2:	48 8d 05 f7 f0 00 00 	lea    0xf0f7(%rip),%rax        # 1fbc0 <g_143>
   10ac9:	48 89 85 58 fe ff ff 	mov    %rax,-0x1a8(%rbp)
   10ad0:	48 8d 85 10 cf ff ff 	lea    -0x30f0(%rbp),%rax
   10ad7:	48 83 c0 50          	add    $0x50,%rax
   10adb:	48 89 85 60 fe ff ff 	mov    %rax,-0x1a0(%rbp)
   10ae2:	48 8d 05 d7 f0 00 00 	lea    0xf0d7(%rip),%rax        # 1fbc0 <g_143>
   10ae9:	48 89 85 68 fe ff ff 	mov    %rax,-0x198(%rbp)
   10af0:	48 8d 05 b9 f0 00 00 	lea    0xf0b9(%rip),%rax        # 1fbb0 <g_134>
   10af7:	48 89 85 70 fe ff ff 	mov    %rax,-0x190(%rbp)
   10afe:	48 8d 05 bb f0 00 00 	lea    0xf0bb(%rip),%rax        # 1fbc0 <g_143>
   10b05:	48 89 85 78 fe ff ff 	mov    %rax,-0x188(%rbp)
   10b0c:	48 8d 85 10 cf ff ff 	lea    -0x30f0(%rbp),%rax
   10b13:	48 83 c0 40          	add    $0x40,%rax
   10b17:	48 89 85 80 fe ff ff 	mov    %rax,-0x180(%rbp)
   10b1e:	48 8d 85 10 cf ff ff 	lea    -0x30f0(%rbp),%rax
   10b25:	48 83 c0 40          	add    $0x40,%rax
   10b29:	48 89 85 88 fe ff ff 	mov    %rax,-0x178(%rbp)
   10b30:	48 8d 85 10 cf ff ff 	lea    -0x30f0(%rbp),%rax
   10b37:	48 83 c0 40          	add    $0x40,%rax
   10b3b:	48 89 85 90 fe ff ff 	mov    %rax,-0x170(%rbp)
   10b42:	48 8d 85 10 cf ff ff 	lea    -0x30f0(%rbp),%rax
   10b49:	48 83 c0 60          	add    $0x60,%rax
   10b4d:	48 89 85 98 fe ff ff 	mov    %rax,-0x168(%rbp)
   10b54:	48 8d 85 10 cf ff ff 	lea    -0x30f0(%rbp),%rax
   10b5b:	48 83 c0 60          	add    $0x60,%rax
   10b5f:	48 89 85 a0 fe ff ff 	mov    %rax,-0x160(%rbp)
   10b66:	48 8d 85 10 cf ff ff 	lea    -0x30f0(%rbp),%rax
   10b6d:	48 83 c0 40          	add    $0x40,%rax
   10b71:	48 89 85 a8 fe ff ff 	mov    %rax,-0x158(%rbp)
   10b78:	48 8d 85 10 cf ff ff 	lea    -0x30f0(%rbp),%rax
   10b7f:	48 83 c0 40          	add    $0x40,%rax
   10b83:	48 89 85 b0 fe ff ff 	mov    %rax,-0x150(%rbp)
   10b8a:	48 8d 85 10 cf ff ff 	lea    -0x30f0(%rbp),%rax
   10b91:	48 83 c0 40          	add    $0x40,%rax
   10b95:	48 89 85 b8 fe ff ff 	mov    %rax,-0x148(%rbp)
   10b9c:	48 8d 05 0d f0 00 00 	lea    0xf00d(%rip),%rax        # 1fbb0 <g_134>
   10ba3:	48 89 85 c0 fe ff ff 	mov    %rax,-0x140(%rbp)
   10baa:	48 8d 05 ff ef 00 00 	lea    0xefff(%rip),%rax        # 1fbb0 <g_134>
   10bb1:	48 89 85 c8 fe ff ff 	mov    %rax,-0x138(%rbp)
   10bb8:	48 8d 05 f1 ef 00 00 	lea    0xeff1(%rip),%rax        # 1fbb0 <g_134>
   10bbf:	48 89 85 d0 fe ff ff 	mov    %rax,-0x130(%rbp)
   10bc6:	48 8d 85 10 cf ff ff 	lea    -0x30f0(%rbp),%rax
   10bcd:	48 83 c0 40          	add    $0x40,%rax
   10bd1:	48 89 85 d8 fe ff ff 	mov    %rax,-0x128(%rbp)
   10bd8:	48 8d 05 d1 ef 00 00 	lea    0xefd1(%rip),%rax        # 1fbb0 <g_134>
   10bdf:	48 89 85 e0 fe ff ff 	mov    %rax,-0x120(%rbp)
   10be6:	48 8d 05 c3 ef 00 00 	lea    0xefc3(%rip),%rax        # 1fbb0 <g_134>
   10bed:	48 89 85 e8 fe ff ff 	mov    %rax,-0x118(%rbp)
   10bf4:	48 8d 85 10 cf ff ff 	lea    -0x30f0(%rbp),%rax
   10bfb:	48 83 c0 60          	add    $0x60,%rax
   10bff:	48 89 85 f0 fe ff ff 	mov    %rax,-0x110(%rbp)
   10c06:	48 8d 85 10 cf ff ff 	lea    -0x30f0(%rbp),%rax
   10c0d:	48 83 c0 60          	add    $0x60,%rax
   10c11:	48 89 85 f8 fe ff ff 	mov    %rax,-0x108(%rbp)
   10c18:	48 8d 85 10 cf ff ff 	lea    -0x30f0(%rbp),%rax
   10c1f:	48 83 c0 40          	add    $0x40,%rax
   10c23:	48 89 85 00 ff ff ff 	mov    %rax,-0x100(%rbp)
   10c2a:	48 8d 85 10 cf ff ff 	lea    -0x30f0(%rbp),%rax
   10c31:	48 83 c0 40          	add    $0x40,%rax
   10c35:	48 89 85 08 ff ff ff 	mov    %rax,-0xf8(%rbp)
   10c3c:	48 8d 85 10 cf ff ff 	lea    -0x30f0(%rbp),%rax
   10c43:	48 83 c0 40          	add    $0x40,%rax
   10c47:	48 89 85 10 ff ff ff 	mov    %rax,-0xf0(%rbp)
   10c4e:	48 8d 85 10 cf ff ff 	lea    -0x30f0(%rbp),%rax
   10c55:	48 83 c0 40          	add    $0x40,%rax
   10c59:	48 89 85 18 ff ff ff 	mov    %rax,-0xe8(%rbp)
   10c60:	48 8d 85 10 cf ff ff 	lea    -0x30f0(%rbp),%rax
   10c67:	48 83 c0 40          	add    $0x40,%rax
   10c6b:	48 89 85 20 ff ff ff 	mov    %rax,-0xe0(%rbp)
   10c72:	48 8d 05 47 ef 00 00 	lea    0xef47(%rip),%rax        # 1fbc0 <g_143>
   10c79:	48 89 85 28 ff ff ff 	mov    %rax,-0xd8(%rbp)
   10c80:	48 8d 85 10 cf ff ff 	lea    -0x30f0(%rbp),%rax
   10c87:	48 83 c0 50          	add    $0x50,%rax
   10c8b:	48 89 85 30 ff ff ff 	mov    %rax,-0xd0(%rbp)
   10c92:	48 8d 05 27 ef 00 00 	lea    0xef27(%rip),%rax        # 1fbc0 <g_143>
   10c99:	48 89 85 38 ff ff ff 	mov    %rax,-0xc8(%rbp)
   10ca0:	48 8d 05 09 ef 00 00 	lea    0xef09(%rip),%rax        # 1fbb0 <g_134>
   10ca7:	48 89 85 40 ff ff ff 	mov    %rax,-0xc0(%rbp)
   10cae:	48 8d 05 0b ef 00 00 	lea    0xef0b(%rip),%rax        # 1fbc0 <g_143>
   10cb5:	48 89 85 48 ff ff ff 	mov    %rax,-0xb8(%rbp)
   10cbc:	48 8d 85 10 cf ff ff 	lea    -0x30f0(%rbp),%rax
   10cc3:	48 83 c0 50          	add    $0x50,%rax
   10cc7:	48 89 85 50 ff ff ff 	mov    %rax,-0xb0(%rbp)
   10cce:	48 8d 05 eb ee 00 00 	lea    0xeeeb(%rip),%rax        # 1fbc0 <g_143>
   10cd5:	48 89 85 58 ff ff ff 	mov    %rax,-0xa8(%rbp)
   10cdc:	48 8d 85 10 cf ff ff 	lea    -0x30f0(%rbp),%rax
   10ce3:	48 83 c0 60          	add    $0x60,%rax
   10ce7:	48 89 85 60 ff ff ff 	mov    %rax,-0xa0(%rbp)
   10cee:	48 8d 85 10 cf ff ff 	lea    -0x30f0(%rbp),%rax
   10cf5:	48 83 c0 40          	add    $0x40,%rax
   10cf9:	48 89 85 68 ff ff ff 	mov    %rax,-0x98(%rbp)
   10d00:	48 8d 85 10 cf ff ff 	lea    -0x30f0(%rbp),%rax
   10d07:	48 83 c0 40          	add    $0x40,%rax
   10d0b:	48 89 85 70 ff ff ff 	mov    %rax,-0x90(%rbp)
   10d12:	48 8d 85 10 cf ff ff 	lea    -0x30f0(%rbp),%rax
   10d19:	48 83 c0 60          	add    $0x60,%rax
   10d1d:	48 89 85 78 ff ff ff 	mov    %rax,-0x88(%rbp)
   10d24:	48 8d 85 10 cf ff ff 	lea    -0x30f0(%rbp),%rax
   10d2b:	48 83 c0 40          	add    $0x40,%rax
   10d2f:	48 89 45 80          	mov    %rax,-0x80(%rbp)
   10d33:	48 8d 85 10 cf ff ff 	lea    -0x30f0(%rbp),%rax
   10d3a:	48 83 c0 40          	add    $0x40,%rax
   10d3e:	48 89 45 88          	mov    %rax,-0x78(%rbp)
   10d42:	48 8d 85 10 cf ff ff 	lea    -0x30f0(%rbp),%rax
   10d49:	48 83 c0 40          	add    $0x40,%rax
   10d4d:	48 89 45 90          	mov    %rax,-0x70(%rbp)
   10d51:	48 8d 85 10 cf ff ff 	lea    -0x30f0(%rbp),%rax
   10d58:	48 83 c0 40          	add    $0x40,%rax
   10d5c:	48 89 45 98          	mov    %rax,-0x68(%rbp)
   10d60:	48 8d 85 10 cf ff ff 	lea    -0x30f0(%rbp),%rax
   10d67:	48 83 c0 50          	add    $0x50,%rax
   10d6b:	48 89 45 a0          	mov    %rax,-0x60(%rbp)
   10d6f:	48 8d 05 3a ee 00 00 	lea    0xee3a(%rip),%rax        # 1fbb0 <g_134>
   10d76:	48 89 45 a8          	mov    %rax,-0x58(%rbp)
   10d7a:	48 8d 85 10 cf ff ff 	lea    -0x30f0(%rbp),%rax
   10d81:	48 83 c0 50          	add    $0x50,%rax
   10d85:	48 89 45 b0          	mov    %rax,-0x50(%rbp)
   10d89:	48 8d 85 10 cf ff ff 	lea    -0x30f0(%rbp),%rax
   10d90:	48 83 c0 40          	add    $0x40,%rax
   10d94:	48 89 45 b8          	mov    %rax,-0x48(%rbp)
   10d98:	48 8d 85 10 cf ff ff 	lea    -0x30f0(%rbp),%rax
   10d9f:	48 83 c0 50          	add    $0x50,%rax
   10da3:	48 89 45 c0          	mov    %rax,-0x40(%rbp)
   10da7:	48 8d 05 02 ee 00 00 	lea    0xee02(%rip),%rax        # 1fbb0 <g_134>
   10dae:	48 89 45 c8          	mov    %rax,-0x38(%rbp)
   10db2:	48 8d 85 10 cf ff ff 	lea    -0x30f0(%rbp),%rax
   10db9:	48 83 c0 28          	add    $0x28,%rax
   10dbd:	48 89 85 70 ca ff ff 	mov    %rax,-0x3590(%rbp)
   10dc4:	48 8d 05 e5 ed 00 00 	lea    0xede5(%rip),%rax        # 1fbb0 <g_134>
   10dcb:	48 89 85 78 ca ff ff 	mov    %rax,-0x3588(%rbp)
   10dd2:	48 8d 05 d7 ed 00 00 	lea    0xedd7(%rip),%rax        # 1fbb0 <g_134>
   10dd9:	48 89 85 80 ca ff ff 	mov    %rax,-0x3580(%rbp)
   10de0:	48 c7 85 88 ca ff ff 	movq   $0x0,-0x3578(%rbp)
   10de7:	00 00 00 00 
   10deb:	48 8d 85 e8 cc ff ff 	lea    -0x3318(%rbp),%rax
   10df2:	48 89 85 b8 c9 ff ff 	mov    %rax,-0x3648(%rbp)
   10df9:	48 8d 85 b8 c9 ff ff 	lea    -0x3648(%rbp),%rax
   10e00:	48 89 85 90 ca ff ff 	mov    %rax,-0x3570(%rbp)
   10e07:	48 8d 05 a9 d5 00 00 	lea    0xd5a9(%rip),%rax        # 1e3b7 <g_1011+0x1>
   10e0e:	48 89 85 c0 c9 ff ff 	mov    %rax,-0x3640(%rbp)
   10e15:	48 8d 85 c0 c9 ff ff 	lea    -0x3640(%rbp),%rax
   10e1c:	48 89 85 c8 c9 ff ff 	mov    %rax,-0x3638(%rbp)
   10e23:	48 8d 85 c8 c9 ff ff 	lea    -0x3638(%rbp),%rax
   10e2a:	48 89 85 d0 c9 ff ff 	mov    %rax,-0x3630(%rbp)
   10e31:	48 8d 85 d0 c9 ff ff 	lea    -0x3630(%rbp),%rax
   10e38:	48 89 85 10 ce ff ff 	mov    %rax,-0x31f0(%rbp)
   10e3f:	48 8d 85 d0 c9 ff ff 	lea    -0x3630(%rbp),%rax
   10e46:	48 89 85 18 ce ff ff 	mov    %rax,-0x31e8(%rbp)
   10e4d:	48 8d 85 d0 c9 ff ff 	lea    -0x3630(%rbp),%rax
   10e54:	48 89 85 20 ce ff ff 	mov    %rax,-0x31e0(%rbp)
   10e5b:	48 8d 85 d0 c9 ff ff 	lea    -0x3630(%rbp),%rax
   10e62:	48 89 85 28 ce ff ff 	mov    %rax,-0x31d8(%rbp)
   10e69:	48 8d 85 d0 c9 ff ff 	lea    -0x3630(%rbp),%rax
   10e70:	48 89 85 30 ce ff ff 	mov    %rax,-0x31d0(%rbp)
   10e77:	48 8d 85 d0 c9 ff ff 	lea    -0x3630(%rbp),%rax
   10e7e:	48 89 85 38 ce ff ff 	mov    %rax,-0x31c8(%rbp)
   10e85:	48 8d 85 d0 c9 ff ff 	lea    -0x3630(%rbp),%rax
   10e8c:	48 89 85 40 ce ff ff 	mov    %rax,-0x31c0(%rbp)
   10e93:	48 8d 85 d0 c9 ff ff 	lea    -0x3630(%rbp),%rax
   10e9a:	48 89 85 48 ce ff ff 	mov    %rax,-0x31b8(%rbp)
   10ea1:	48 8d 85 d0 c9 ff ff 	lea    -0x3630(%rbp),%rax
   10ea8:	48 89 85 50 ce ff ff 	mov    %rax,-0x31b0(%rbp)
   10eaf:	48 8d 85 d0 c9 ff ff 	lea    -0x3630(%rbp),%rax
   10eb6:	48 89 85 58 ce ff ff 	mov    %rax,-0x31a8(%rbp)
   10ebd:	48 8d 85 d0 c9 ff ff 	lea    -0x3630(%rbp),%rax
   10ec4:	48 89 85 60 ce ff ff 	mov    %rax,-0x31a0(%rbp)
   10ecb:	48 8d 85 d0 c9 ff ff 	lea    -0x3630(%rbp),%rax
   10ed2:	48 89 85 68 ce ff ff 	mov    %rax,-0x3198(%rbp)
   10ed9:	48 8d 85 d0 c9 ff ff 	lea    -0x3630(%rbp),%rax
   10ee0:	48 89 85 70 ce ff ff 	mov    %rax,-0x3190(%rbp)
   10ee7:	48 8d 85 d0 c9 ff ff 	lea    -0x3630(%rbp),%rax
   10eee:	48 89 85 78 ce ff ff 	mov    %rax,-0x3188(%rbp)
   10ef5:	48 8d 85 10 ce ff ff 	lea    -0x31f0(%rbp),%rax
   10efc:	48 83 c0 30          	add    $0x30,%rax
   10f00:	48 89 85 98 ca ff ff 	mov    %rax,-0x3568(%rbp)
   10f07:	48 c7 85 a0 ca ff ff 	movq   $0x0,-0x3560(%rbp)
   10f0e:	00 00 00 00 
   10f12:	c7 85 3c c9 ff ff 00 	movl   $0x0,-0x36c4(%rbp)
   10f19:	00 00 00 
   10f1c:	eb 1a                	jmp    10f38 <func_56+0x1989>
   10f1e:	8b 85 3c c9 ff ff    	mov    -0x36c4(%rbp),%eax
   10f24:	48 98                	cltq   
   10f26:	c7 84 85 60 cd ff ff 	movl   $0xab97384b,-0x32a0(%rbp,%rax,4)
   10f2d:	4b 38 97 ab 
   10f31:	83 85 3c c9 ff ff 01 	addl   $0x1,-0x36c4(%rbp)
   10f38:	83 bd 3c c9 ff ff 07 	cmpl   $0x7,-0x36c4(%rbp)
   10f3f:	7e dd                	jle    10f1e <func_56+0x196f>
   10f41:	c7 85 3c c9 ff ff 00 	movl   $0x0,-0x36c4(%rbp)
   10f48:	00 00 00 
   10f4b:	eb 1e                	jmp    10f6b <func_56+0x19bc>
   10f4d:	8b 85 3c c9 ff ff    	mov    -0x36c4(%rbp),%eax
   10f53:	48 98                	cltq   
   10f55:	48 8d 15 f4 ed 00 00 	lea    0xedf4(%rip),%rdx        # 1fd50 <g_562+0x150>
   10f5c:	48 89 94 c5 e8 cc ff 	mov    %rdx,-0x3318(%rbp,%rax,8)
   10f63:	ff 
   10f64:	83 85 3c c9 ff ff 01 	addl   $0x1,-0x36c4(%rbp)
   10f6b:	83 bd 3c c9 ff ff 00 	cmpl   $0x0,-0x36c4(%rbp)
   10f72:	7e d9                	jle    10f4d <func_56+0x199e>
   10f74:	c6 05 77 00 01 00 01 	movb   $0x1,0x10077(%rip)        # 20ff2 <g_188>
   10f7b:	e9 25 08 00 00       	jmpq   117a5 <func_56+0x21f6>
   10f80:	48 8d 05 f1 d3 00 00 	lea    0xd3f1(%rip),%rax        # 1e378 <g_161>
   10f87:	48 89 85 20 ca ff ff 	mov    %rax,-0x35e0(%rbp)
   10f8e:	48 8d 85 20 ca ff ff 	lea    -0x35e0(%rbp),%rax
   10f95:	48 89 85 98 cc ff ff 	mov    %rax,-0x3368(%rbp)
   10f9c:	48 8d 05 e5 d3 00 00 	lea    0xd3e5(%rip),%rax        # 1e388 <g_182>
   10fa3:	48 89 85 a0 cc ff ff 	mov    %rax,-0x3360(%rbp)
   10faa:	48 8d 05 c7 d3 00 00 	lea    0xd3c7(%rip),%rax        # 1e378 <g_161>
   10fb1:	48 89 85 a8 cc ff ff 	mov    %rax,-0x3358(%rbp)
   10fb8:	c7 85 18 ca ff ff 04 	movl   $0x820e6704,-0x35e8(%rbp)
   10fbf:	67 0e 82 
   10fc2:	c7 85 8c c9 ff ff 58 	movl   $0x37436e58,-0x3674(%rbp)
   10fc9:	6e 43 37 
   10fcc:	c7 85 90 c9 ff ff 01 	movl   $0x1,-0x3670(%rbp)
   10fd3:	00 00 00 
   10fd6:	48 8d 05 13 ec 00 00 	lea    0xec13(%rip),%rax        # 1fbf0 <g_275>
   10fdd:	48 89 85 28 ca ff ff 	mov    %rax,-0x35d8(%rbp)
   10fe4:	48 8d 85 28 ca ff ff 	lea    -0x35d8(%rbp),%rax
   10feb:	48 89 85 b0 cc ff ff 	mov    %rax,-0x3350(%rbp)
   10ff2:	48 8d 85 60 e9 ff ff 	lea    -0x16a0(%rbp),%rax
   10ff9:	48 8d 15 00 e1 00 00 	lea    0xe100(%rip),%rdx        # 1f100 <g_2388+0xc6c>
   11000:	b9 3f 00 00 00       	mov    $0x3f,%ecx
   11005:	48 89 c7             	mov    %rax,%rdi
   11008:	48 89 d6             	mov    %rdx,%rsi
   1100b:	f3 48 a5             	rep movsq %ds:(%rsi),%es:(%rdi)
   1100e:	48 8d 05 ab eb 00 00 	lea    0xebab(%rip),%rax        # 1fbc0 <g_143>
   11015:	48 89 85 b8 cc ff ff 	mov    %rax,-0x3348(%rbp)
   1101c:	c7 85 30 c9 ff ff 00 	movl   $0x0,-0x36d0(%rbp)
   11023:	00 00 00 
   11026:	eb 4d                	jmp    11075 <func_56+0x1ac6>
   11028:	c7 85 34 c9 ff ff 00 	movl   $0x0,-0x36cc(%rbp)
   1102f:	00 00 00 
   11032:	eb 31                	jmp    11065 <func_56+0x1ab6>
   11034:	8b 85 34 c9 ff ff    	mov    -0x36cc(%rbp),%eax
   1103a:	48 63 c8             	movslq %eax,%rcx
   1103d:	8b 85 30 c9 ff ff    	mov    -0x36d0(%rbp),%eax
   11043:	48 63 d0             	movslq %eax,%rdx
   11046:	48 89 d0             	mov    %rdx,%rax
   11049:	48 c1 e0 03          	shl    $0x3,%rax
   1104d:	48 29 d0             	sub    %rdx,%rax
   11050:	48 01 c8             	add    %rcx,%rax
   11053:	c7 84 85 30 d3 ff ff 	movl   $0x1,-0x2cd0(%rbp,%rax,4)
   1105a:	01 00 00 00 
   1105e:	83 85 34 c9 ff ff 01 	addl   $0x1,-0x36cc(%rbp)
   11065:	83 bd 34 c9 ff ff 06 	cmpl   $0x6,-0x36cc(%rbp)
   1106c:	7e c6                	jle    11034 <func_56+0x1a85>
   1106e:	83 85 30 c9 ff ff 01 	addl   $0x1,-0x36d0(%rbp)
   11075:	83 bd 30 c9 ff ff 00 	cmpl   $0x0,-0x36d0(%rbp)
   1107c:	7e aa                	jle    11028 <func_56+0x1a79>
   1107e:	48 8b 05 63 eb 00 00 	mov    0xeb63(%rip),%rax        # 1fbe8 <g_208>
   11085:	48 8b 00             	mov    (%rax),%rax
   11088:	48 8b 10             	mov    (%rax),%rdx
   1108b:	48 8b 05 56 eb 00 00 	mov    0xeb56(%rip),%rax        # 1fbe8 <g_208>
   11092:	48 8b 00             	mov    (%rax),%rax
   11095:	48 8b 00             	mov    (%rax),%rax
   11098:	48 8b 12             	mov    (%rdx),%rdx
   1109b:	48 89 10             	mov    %rdx,(%rax)
   1109e:	48 8b 05 33 eb 00 00 	mov    0xeb33(%rip),%rax        # 1fbd8 <g_186>
   110a5:	48 8b 00             	mov    (%rax),%rax
   110a8:	48 39 85 30 ca ff ff 	cmp    %rax,-0x35d0(%rbp)
   110af:	41 0f 95 c6          	setne  %r14b
   110b3:	48 8b 05 ee ea 00 00 	mov    0xeaee(%rip),%rax        # 1fba8 <g_60>
   110ba:	0f b7 00             	movzwl (%rax),%eax
   110bd:	0f bf d8             	movswl %ax,%ebx
   110c0:	48 8b 05 11 eb 00 00 	mov    0xeb11(%rip),%rax        # 1fbd8 <g_186>
   110c7:	48 8b 00             	mov    (%rax),%rax
   110ca:	0f b6 00             	movzbl (%rax),%eax
   110cd:	44 0f b6 e0          	movzbl %al,%r12d
   110d1:	44 8b ad dc c8 ff ff 	mov    -0x3724(%rbp),%r13d
   110d8:	be 01 00 00 00       	mov    $0x1,%esi
   110dd:	bf ff ff ff ff       	mov    $0xffffffff,%edi
   110e2:	e8 1e 75 ff ff       	callq  8605 <safe_sub_func_int32_t_s_s>
   110e7:	39 85 dc c8 ff ff    	cmp    %eax,-0x3724(%rbp)
   110ed:	48 8d 05 7c d2 00 00 	lea    0xd27c(%rip),%rax        # 1e370 <g_130>
   110f4:	48 39 85 a0 cc ff ff 	cmp    %rax,-0x3360(%rbp)
   110fb:	0f 95 c0             	setne  %al
   110fe:	0f b6 d0             	movzbl %al,%edx
   11101:	48 8b 85 20 ca ff ff 	mov    -0x35e0(%rbp),%rax
   11108:	48 89 05 41 ec 00 00 	mov    %rax,0xec41(%rip)        # 1fd50 <g_562+0x150>
   1110f:	48 8b 0d 3a ec 00 00 	mov    0xec3a(%rip),%rcx        # 1fd50 <g_562+0x150>
   11116:	48 8b 85 98 cc ff ff 	mov    -0x3368(%rbp),%rax
   1111d:	48 89 08             	mov    %rcx,(%rax)
   11120:	48 8b 85 98 cc ff ff 	mov    -0x3368(%rbp),%rax
   11127:	48 8b 00             	mov    (%rax),%rax
   1112a:	48 39 85 30 ca ff ff 	cmp    %rax,-0x35d0(%rbp)
   11131:	0f 95 c0             	setne  %al
   11134:	0f b6 c0             	movzbl %al,%eax
   11137:	89 d6                	mov    %edx,%esi
   11139:	89 c7                	mov    %eax,%edi
   1113b:	e8 ea 73 ff ff       	callq  852a <safe_rshift_func_int16_t_s_s>
   11140:	48 8b 85 a8 cc ff ff 	mov    -0x3358(%rbp),%rax
   11147:	c6 00 fe             	movb   $0xfe,(%rax)
   1114a:	48 8b 85 a8 cc ff ff 	mov    -0x3358(%rbp),%rax
   11151:	0f b6 00             	movzbl (%rax),%eax
   11154:	0f b6 d0             	movzbl %al,%edx
   11157:	48 8b 05 72 ea 00 00 	mov    0xea72(%rip),%rax        # 1fbd0 <g_187>
   1115e:	0f b6 00             	movzbl (%rax),%eax
   11161:	0f be c0             	movsbl %al,%eax
   11164:	39 c2                	cmp    %eax,%edx
   11166:	0f 95 c0             	setne  %al
   11169:	0f b6 c0             	movzbl %al,%eax
   1116c:	89 c7                	mov    %eax,%edi
   1116e:	e8 23 74 ff ff       	callq  8596 <safe_unary_minus_func_int32_t_s>
   11173:	8b 85 dc c8 ff ff    	mov    -0x3724(%rbp),%eax
   11179:	66 35 5e d8          	xor    $0xd85e,%ax
   1117d:	98                   	cwtl   
   1117e:	44 89 ee             	mov    %r13d,%esi
   11181:	89 c7                	mov    %eax,%edi
   11183:	e8 db 73 ff ff       	callq  8563 <safe_rshift_func_int16_t_s_u>
   11188:	48 8b 15 41 ea 00 00 	mov    0xea41(%rip),%rdx        # 1fbd0 <g_187>
   1118f:	0f b6 12             	movzbl (%rdx),%edx
   11192:	66 0f be d2          	movsbw %dl,%dx
   11196:	66 39 d0             	cmp    %dx,%ax
   11199:	8b 85 d8 c8 ff ff    	mov    -0x3728(%rbp),%eax
   1119f:	0f b7 c0             	movzwl %ax,%eax
   111a2:	be 00 00 00 00       	mov    $0x0,%esi
   111a7:	89 c7                	mov    %eax,%edi
   111a9:	e8 51 7b ff ff       	callq  8cff <safe_add_func_uint16_t_u_u>
   111ae:	8b 85 f8 c8 ff ff    	mov    -0x3708(%rbp),%eax
   111b4:	39 85 d8 c8 ff ff    	cmp    %eax,-0x3728(%rbp)
   111ba:	7c 07                	jl     111c3 <func_56+0x1c14>
   111bc:	b8 01 00 00 00       	mov    $0x1,%eax
   111c1:	eb 05                	jmp    111c8 <func_56+0x1c19>
   111c3:	b8 00 00 00 00       	mov    $0x0,%eax
   111c8:	85 c0                	test   %eax,%eax
   111ca:	0f 95 c0             	setne  %al
   111cd:	0f b6 c0             	movzbl %al,%eax
   111d0:	48 89 c6             	mov    %rax,%rsi
   111d3:	48 bf f8 4a 39 cf a6 	movabs $0xd7f073a6cf394af8,%rdi
   111da:	73 f0 d7 
   111dd:	e8 c6 76 ff ff       	callq  88a8 <safe_sub_func_int64_t_s_s>
   111e2:	0f b6 c0             	movzbl %al,%eax
   111e5:	44 89 e6             	mov    %r12d,%esi
   111e8:	89 c7                	mov    %eax,%edi
   111ea:	e8 ec 79 ff ff       	callq  8bdb <safe_div_func_uint8_t_u_u>
   111ef:	0f b6 c0             	movzbl %al,%eax
   111f2:	8b 95 f8 c8 ff ff    	mov    -0x3708(%rbp),%edx
   111f8:	31 d0                	xor    %edx,%eax
   111fa:	98                   	cwtl   
   111fb:	89 de                	mov    %ebx,%esi
   111fd:	89 c7                	mov    %eax,%edi
   111ff:	e8 26 73 ff ff       	callq  852a <safe_rshift_func_int16_t_s_s>
   11204:	48 8b 15 cd e9 00 00 	mov    0xe9cd(%rip),%rdx        # 1fbd8 <g_186>
   1120b:	48 8b 12             	mov    (%rdx),%rdx
   1120e:	0f b6 12             	movzbl (%rdx),%edx
   11211:	66 0f be d2          	movsbw %dl,%dx
   11215:	66 39 d0             	cmp    %dx,%ax
   11218:	0f 9e c0             	setle  %al
   1121b:	0f b6 d0             	movzbl %al,%edx
   1121e:	8b 05 18 d1 00 00    	mov    0xd118(%rip),%eax        # 1e33c <g_96+0x5c>
   11224:	39 c2                	cmp    %eax,%edx
   11226:	0f 9d c0             	setge  %al
   11229:	44 31 f0             	xor    %r14d,%eax
   1122c:	0f b6 d0             	movzbl %al,%edx
   1122f:	8b 85 18 ca ff ff    	mov    -0x35e8(%rbp),%eax
   11235:	21 d0                	and    %edx,%eax
   11237:	89 85 18 ca ff ff    	mov    %eax,-0x35e8(%rbp)
   1123d:	66 c7 05 52 d1 00 00 	movw   $0xfffa,0xd152(%rip)        # 1e398 <g_535>
   11244:	fa ff 
   11246:	e9 19 05 00 00       	jmpq   11764 <func_56+0x21b5>
   1124b:	c6 85 ef c8 ff ff fa 	movb   $0xfa,-0x3711(%rbp)
   11252:	c7 85 94 c9 ff ff 36 	movl   $0x2cac636,-0x366c(%rbp)
   11259:	c6 ca 02 
   1125c:	48 c7 85 b0 de ff ff 	movq   $0x0,-0x2150(%rbp)
   11263:	00 00 00 00 
   11267:	48 c7 85 b8 de ff ff 	movq   $0x0,-0x2148(%rbp)
   1126e:	00 00 00 00 
   11272:	48 c7 85 c0 de ff ff 	movq   $0x0,-0x2140(%rbp)
   11279:	00 00 00 00 
   1127d:	48 c7 85 c8 de ff ff 	movq   $0x0,-0x2138(%rbp)
   11284:	00 00 00 00 
   11288:	c7 85 d0 de ff ff 00 	movl   $0x0,-0x2130(%rbp)
   1128f:	00 00 00 
   11292:	66 c7 85 10 ca ff ff 	movw   $0x6940,-0x35f0(%rbp)
   11299:	40 69 
   1129b:	48 c7 85 c0 cc ff ff 	movq   $0x0,-0x3340(%rbp)
   112a2:	00 00 00 00 
   112a6:	48 c7 85 c8 cc ff ff 	movq   $0xfffffffffffffffe,-0x3338(%rbp)
   112ad:	fe ff ff ff 
   112b1:	48 c7 05 d4 d0 00 00 	movq   $0x0,0xd0d4(%rip)        # 1e390 <g_364>
   112b8:	00 00 00 00 
   112bc:	e9 32 04 00 00       	jmpq   116f3 <func_56+0x2144>
   112c1:	c7 85 38 c9 ff ff 31 	movl   $0x30ef4b31,-0x36c8(%rbp)
   112c8:	4b ef 30 
   112cb:	66 c7 85 f6 c8 ff ff 	movw   $0xb2e0,-0x370a(%rbp)
   112d2:	e0 b2 
   112d4:	c7 85 28 c9 ff ff 00 	movl   $0x0,-0x36d8(%rbp)
   112db:	00 00 00 
   112de:	eb 1a                	jmp    112fa <func_56+0x1d4b>
   112e0:	8b 85 28 c9 ff ff    	mov    -0x36d8(%rbp),%eax
   112e6:	48 98                	cltq   
   112e8:	c7 84 85 b0 cf ff ff 	movl   $0x1,-0x3050(%rbp,%rax,4)
   112ef:	01 00 00 00 
   112f3:	83 85 28 c9 ff ff 01 	addl   $0x1,-0x36d8(%rbp)
   112fa:	83 bd 28 c9 ff ff 03 	cmpl   $0x3,-0x36d8(%rbp)
   11301:	7e dd                	jle    112e0 <func_56+0x1d31>
   11303:	48 8b 05 de e8 00 00 	mov    0xe8de(%rip),%rax        # 1fbe8 <g_208>
   1130a:	48 8b 00             	mov    (%rax),%rax
   1130d:	48 8b 00             	mov    (%rax),%rax
   11310:	48 8d 95 18 ca ff ff 	lea    -0x35e8(%rbp),%rdx
   11317:	48 89 10             	mov    %rdx,(%rax)
   1131a:	66 c7 05 a5 cf 00 00 	movw   $0x0,0xcfa5(%rip)        # 1e2c8 <g_93>
   11321:	00 00 
   11323:	e9 88 02 00 00       	jmpq   115b0 <func_56+0x2001>
   11328:	c7 85 98 c9 ff ff f7 	movl   $0xfffffff7,-0x3668(%rbp)
   1132f:	ff ff ff 
   11332:	c7 85 9c c9 ff ff 00 	movl   $0x0,-0x3664(%rbp)
   11339:	00 00 00 
   1133c:	c7 85 a0 c9 ff ff f2 	movl   $0xc01787f2,-0x3660(%rbp)
   11343:	87 17 c0 
   11346:	48 8d 85 70 f0 ff ff 	lea    -0xf90(%rbp),%rax
   1134d:	48 8d 15 ac 89 00 00 	lea    0x89ac(%rip),%rdx        # 19d00 <g_314+0xc5a>
   11354:	b9 a0 00 00 00       	mov    $0xa0,%ecx
   11359:	48 89 c7             	mov    %rax,%rdi
   1135c:	48 89 d6             	mov    %rdx,%rsi
   1135f:	f3 48 a5             	rep movsq %ds:(%rsi),%es:(%rdi)
   11362:	c7 85 2c c9 ff ff 00 	movl   $0x0,-0x36d4(%rbp)
   11369:	00 00 00 
   1136c:	eb 46                	jmp    113b4 <func_56+0x1e05>
   1136e:	c7 85 1c c9 ff ff 00 	movl   $0x0,-0x36e4(%rbp)
   11375:	00 00 00 
   11378:	eb 2a                	jmp    113a4 <func_56+0x1df5>
   1137a:	8b 85 1c c9 ff ff    	mov    -0x36e4(%rbp),%eax
   11380:	48 98                	cltq   
   11382:	8b 95 2c c9 ff ff    	mov    -0x36d4(%rbp),%edx
   11388:	48 63 d2             	movslq %edx,%rdx
   1138b:	48 c1 e2 03          	shl    $0x3,%rdx
   1138f:	48 01 d0             	add    %rdx,%rax
   11392:	c7 84 85 c0 e3 ff ff 	movl   $0xffffffff,-0x1c40(%rbp,%rax,4)
   11399:	ff ff ff ff 
   1139d:	83 85 1c c9 ff ff 01 	addl   $0x1,-0x36e4(%rbp)
   113a4:	83 bd 1c c9 ff ff 07 	cmpl   $0x7,-0x36e4(%rbp)
   113ab:	7e cd                	jle    1137a <func_56+0x1dcb>
   113ad:	83 85 2c c9 ff ff 01 	addl   $0x1,-0x36d4(%rbp)
   113b4:	83 bd 2c c9 ff ff 06 	cmpl   $0x6,-0x36d4(%rbp)
   113bb:	7e b1                	jle    1136e <func_56+0x1dbf>
   113bd:	83 bd dc c8 ff ff 00 	cmpl   $0x0,-0x3724(%rbp)
   113c4:	0f 84 91 00 00 00    	je     1145b <func_56+0x1eac>
   113ca:	c7 85 c0 d1 ff ff 29 	movl   $0xf2abe29,-0x2e40(%rbp)
   113d1:	be 2a 0f 
   113d4:	c7 85 c4 d1 ff ff 29 	movl   $0xf2abe29,-0x2e3c(%rbp)
   113db:	be 2a 0f 
   113de:	c7 85 c8 d1 ff ff 29 	movl   $0xf2abe29,-0x2e38(%rbp)
   113e5:	be 2a 0f 
   113e8:	c7 85 cc d1 ff ff 29 	movl   $0xf2abe29,-0x2e34(%rbp)
   113ef:	be 2a 0f 
   113f2:	c7 85 d0 d1 ff ff 29 	movl   $0xf2abe29,-0x2e30(%rbp)
   113f9:	be 2a 0f 
   113fc:	c7 85 d4 d1 ff ff 29 	movl   $0xf2abe29,-0x2e2c(%rbp)
   11403:	be 2a 0f 
   11406:	48 8d 05 0f cd 00 00 	lea    0xcd0f(%rip),%rax        # 1e11c <g_75+0xdc>
   1140d:	48 89 85 e0 d6 ff ff 	mov    %rax,-0x2920(%rbp)
   11414:	48 8d 05 01 cd 00 00 	lea    0xcd01(%rip),%rax        # 1e11c <g_75+0xdc>
   1141b:	48 89 85 e8 d6 ff ff 	mov    %rax,-0x2918(%rbp)
   11422:	48 8d 05 f3 cc 00 00 	lea    0xccf3(%rip),%rax        # 1e11c <g_75+0xdc>
   11429:	48 89 85 f0 d6 ff ff 	mov    %rax,-0x2910(%rbp)
   11430:	48 8d 05 e5 cc 00 00 	lea    0xcce5(%rip),%rax        # 1e11c <g_75+0xdc>
   11437:	48 89 85 f8 d6 ff ff 	mov    %rax,-0x2908(%rbp)
   1143e:	c7 85 a4 c9 ff ff 00 	movl   $0x0,-0x365c(%rbp)
   11445:	00 00 00 
   11448:	83 ad 38 c9 ff ff 01 	subl   $0x1,-0x36c8(%rbp)
   1144f:	83 ad a4 c9 ff ff 01 	subl   $0x1,-0x365c(%rbp)
   11456:	e9 28 01 00 00       	jmpq   11583 <func_56+0x1fd4>
   1145b:	48 8d 05 92 fb 00 00 	lea    0xfb92(%rip),%rax        # 20ff4 <g_206>
   11462:	48 89 85 d8 cc ff ff 	mov    %rax,-0x3328(%rbp)
   11469:	48 8b 85 c8 cc ff ff 	mov    -0x3338(%rbp),%rax
   11470:	0f be d8             	movsbl %al,%ebx
   11473:	8b 85 d8 c8 ff ff    	mov    -0x3728(%rbp),%eax
   11479:	48 98                	cltq   
   1147b:	48 89 c6             	mov    %rax,%rsi
   1147e:	48 bf 67 53 08 e4 68 	movabs $0x6157b768e4085367,%rdi
   11485:	b7 57 61 
   11488:	e8 b4 73 ff ff       	callq  8841 <safe_add_func_int64_t_s_s>
   1148d:	48 3d b0 00 00 00    	cmp    $0xb0,%rax
   11493:	0f 95 c0             	setne  %al
   11496:	0f b6 c0             	movzbl %al,%eax
   11499:	be 01 00 00 00       	mov    $0x1,%esi
   1149e:	89 c7                	mov    %eax,%edi
   114a0:	e8 5a 78 ff ff       	callq  8cff <safe_add_func_uint16_t_u_u>
   114a5:	89 de                	mov    %ebx,%esi
   114a7:	bf 01 00 00 00       	mov    $0x1,%edi
   114ac:	e8 80 6d ff ff       	callq  8231 <safe_mod_func_int8_t_s_s>
   114b1:	66 98                	cbtw   
   114b3:	0f b7 c0             	movzwl %ax,%eax
   114b6:	be 00 00 00 00       	mov    $0x0,%esi
   114bb:	89 c7                	mov    %eax,%edi
   114bd:	e8 86 79 ff ff       	callq  8e48 <safe_rshift_func_uint16_t_u_s>
   114c2:	0f b7 d8             	movzwl %ax,%ebx
   114c5:	48 8b 95 e8 cd ff ff 	mov    -0x3218(%rbp),%rdx
   114cc:	48 8d 85 10 ca ff ff 	lea    -0x35f0(%rbp),%rax
   114d3:	48 39 c2             	cmp    %rax,%rdx
   114d6:	0f 95 c0             	setne  %al
   114d9:	0f b6 d0             	movzbl %al,%edx
   114dc:	48 83 bd c0 cc ff ff 	cmpq   $0x0,-0x3340(%rbp)
   114e3:	00 
   114e4:	0f 95 c0             	setne  %al
   114e7:	0f b6 c0             	movzbl %al,%eax
   114ea:	89 d6                	mov    %edx,%esi
   114ec:	89 c7                	mov    %eax,%edi
   114ee:	e8 1f 6d ff ff       	callq  8212 <safe_mul_func_int8_t_s_s>
   114f3:	0f be d0             	movsbl %al,%edx
   114f6:	48 83 bd b0 cc ff ff 	cmpq   $0x0,-0x3350(%rbp)
   114fd:	00 
   114fe:	0f 95 c0             	setne  %al
   11501:	0f b6 c0             	movzbl %al,%eax
   11504:	89 d6                	mov    %edx,%esi
   11506:	89 c7                	mov    %eax,%edi
   11508:	e8 18 7a ff ff       	callq  8f25 <safe_div_func_uint32_t_u_u>
   1150d:	89 c2                	mov    %eax,%edx
   1150f:	48 8b 85 d8 cc ff ff 	mov    -0x3328(%rbp),%rax
   11516:	66 89 10             	mov    %dx,(%rax)
   11519:	48 8b 85 d8 cc ff ff 	mov    -0x3328(%rbp),%rax
   11520:	0f b7 00             	movzwl (%rax),%eax
   11523:	0f b7 c0             	movzwl %ax,%eax
   11526:	89 de                	mov    %ebx,%esi
   11528:	89 c7                	mov    %eax,%edi
   1152a:	e8 0e 78 ff ff       	callq  8d3d <safe_mul_func_uint16_t_u_u>
   1152f:	0f b6 c0             	movzbl %al,%eax
   11532:	be d8 00 00 00       	mov    $0xd8,%esi
   11537:	89 c7                	mov    %eax,%edi
   11539:	e8 55 76 ff ff       	callq  8b93 <safe_mul_func_uint8_t_u_u>
   1153e:	0f be c0             	movsbl %al,%eax
   11541:	be 56 00 00 00       	mov    $0x56,%esi
   11546:	89 c7                	mov    %eax,%edi
   11548:	e8 a5 6c ff ff       	callq  81f2 <safe_sub_func_int8_t_s_s>
   1154d:	0f be c0             	movsbl %al,%eax
   11550:	39 85 d8 c8 ff ff    	cmp    %eax,-0x3728(%rbp)
   11556:	75 0a                	jne    11562 <func_56+0x1fb3>
   11558:	8b 85 b4 cf ff ff    	mov    -0x304c(%rbp),%eax
   1155e:	85 c0                	test   %eax,%eax
   11560:	74 07                	je     11569 <func_56+0x1fba>
   11562:	ba 01 00 00 00       	mov    $0x1,%edx
   11567:	eb 05                	jmp    1156e <func_56+0x1fbf>
   11569:	ba 00 00 00 00       	mov    $0x0,%edx
   1156e:	48 8b 05 6b e6 00 00 	mov    0xe66b(%rip),%rax        # 1fbe0 <g_209>
   11575:	48 8b 00             	mov    (%rax),%rax
   11578:	48 8b 00             	mov    (%rax),%rax
   1157b:	81 ca dc 28 f0 6f    	or     $0x6ff028dc,%edx
   11581:	89 10                	mov    %edx,(%rax)
   11583:	48 8b 05 2e e6 00 00 	mov    0xe62e(%rip),%rax        # 1fbb8 <g_133>
   1158a:	48 8b 00             	mov    (%rax),%rax
   1158d:	8b 95 98 c9 ff ff    	mov    -0x3668(%rbp),%edx
   11593:	89 10                	mov    %edx,(%rax)
   11595:	0f b7 05 2c cd 00 00 	movzwl 0xcd2c(%rip),%eax        # 1e2c8 <g_93>
   1159c:	98                   	cwtl   
   1159d:	be 05 00 00 00       	mov    $0x5,%esi
   115a2:	89 c7                	mov    %eax,%edi
   115a4:	e8 2a 6e ff ff       	callq  83d3 <safe_sub_func_int16_t_s_s>
   115a9:	66 89 05 18 cd 00 00 	mov    %ax,0xcd18(%rip)        # 1e2c8 <g_93>
   115b0:	0f b7 05 11 cd 00 00 	movzwl 0xcd11(%rip),%eax        # 1e2c8 <g_93>
   115b7:	66 83 f8 f1          	cmp    $0xfff1,%ax
   115bb:	0f 8c 67 fd ff ff    	jl     11328 <func_56+0x1d79>
   115c1:	c7 85 18 ca ff ff 09 	movl   $0x9,-0x35e8(%rbp)
   115c8:	00 00 00 
   115cb:	e9 ec 00 00 00       	jmpq   116bc <func_56+0x210d>
   115d0:	c7 85 fc c8 ff ff fa 	movl   $0xfffffffa,-0x3704(%rbp)
   115d7:	ff ff ff 
   115da:	90                   	nop
   115db:	8b 85 fc c8 ff ff    	mov    -0x3704(%rbp),%eax
   115e1:	83 f8 ec             	cmp    $0xffffffec,%eax
   115e4:	74 65                	je     1164b <func_56+0x209c>
   115e6:	48 c7 85 70 f0 ff ff 	movq   $0x0,-0xf90(%rbp)
   115ed:	00 00 00 00 
   115f1:	48 8d 05 c8 e5 00 00 	lea    0xe5c8(%rip),%rax        # 1fbc0 <g_143>
   115f8:	48 89 85 78 f0 ff ff 	mov    %rax,-0xf88(%rbp)
   115ff:	48 8d 05 ba e5 00 00 	lea    0xe5ba(%rip),%rax        # 1fbc0 <g_143>
   11606:	48 89 85 80 f0 ff ff 	mov    %rax,-0xf80(%rbp)
   1160d:	48 c7 85 88 f0 ff ff 	movq   $0x0,-0xf78(%rbp)
   11614:	00 00 00 00 
   11618:	48 8d 05 a1 e5 00 00 	lea    0xe5a1(%rip),%rax        # 1fbc0 <g_143>
   1161f:	48 89 85 90 f0 ff ff 	mov    %rax,-0xf70(%rbp)
   11626:	48 8d 05 93 e5 00 00 	lea    0xe593(%rip),%rax        # 1fbc0 <g_143>
   1162d:	48 89 85 98 f0 ff ff 	mov    %rax,-0xf68(%rbp)
   11634:	48 c7 85 a0 f0 ff ff 	movq   $0x0,-0xf60(%rbp)
   1163b:	00 00 00 00 
   1163f:	48 8b 85 88 f0 ff ff 	mov    -0xf78(%rbp),%rax
   11646:	e9 b3 68 00 00       	jmpq   17efe <func_56+0x894f>
   1164b:	c7 85 90 c9 ff ff 0e 	movl   $0xe,-0x3670(%rbp)
   11652:	00 00 00 
   11655:	83 bd 90 c9 ff ff 1a 	cmpl   $0x1a,-0x3670(%rbp)
   1165c:	74 4f                	je     116ad <func_56+0x20fe>
   1165e:	48 8d 05 5b e5 00 00 	lea    0xe55b(%rip),%rax        # 1fbc0 <g_143>
   11665:	48 89 85 d0 cc ff ff 	mov    %rax,-0x3330(%rbp)
   1166c:	be 06 00 00 00       	mov    $0x6,%esi
   11671:	bf fc ff 00 00       	mov    $0xfffc,%edi
   11676:	e8 8b 77 ff ff       	callq  8e06 <safe_lshift_func_uint16_t_u_u>
   1167b:	89 c2                	mov    %eax,%edx
   1167d:	48 8b 05 3c e5 00 00 	mov    0xe53c(%rip),%rax        # 1fbc0 <g_143>
   11684:	0f b7 d2             	movzwl %dx,%edx
   11687:	89 10                	mov    %edx,(%rax)
   11689:	48 8b 05 30 e5 00 00 	mov    0xe530(%rip),%rax        # 1fbc0 <g_143>
   11690:	8b 10                	mov    (%rax),%edx
   11692:	48 8b 05 27 e5 00 00 	mov    0xe527(%rip),%rax        # 1fbc0 <g_143>
   11699:	33 95 d8 c8 ff ff    	xor    -0x3728(%rbp),%edx
   1169f:	89 10                	mov    %edx,(%rax)
   116a1:	48 8b 85 d0 cc ff ff 	mov    -0x3330(%rbp),%rax
   116a8:	e9 51 68 00 00       	jmpq   17efe <func_56+0x894f>
   116ad:	8b 85 18 ca ff ff    	mov    -0x35e8(%rbp),%eax
   116b3:	83 c0 01             	add    $0x1,%eax
   116b6:	89 85 18 ca ff ff    	mov    %eax,-0x35e8(%rbp)
   116bc:	8b 85 18 ca ff ff    	mov    -0x35e8(%rbp),%eax
   116c2:	83 f8 1c             	cmp    $0x1c,%eax
   116c5:	0f 8f 05 ff ff ff    	jg     115d0 <func_56+0x2021>
   116cb:	48 8b 05 ee e4 00 00 	mov    0xe4ee(%rip),%rax        # 1fbc0 <g_143>
   116d2:	8b 00                	mov    (%rax),%eax
   116d4:	85 c0                	test   %eax,%eax
   116d6:	75 2e                	jne    11706 <func_56+0x2157>
   116d8:	48 8b 05 b1 cc 00 00 	mov    0xccb1(%rip),%rax        # 1e390 <g_364>
   116df:	be 05 00 00 00       	mov    $0x5,%esi
   116e4:	48 89 c7             	mov    %rax,%rdi
   116e7:	e8 42 79 ff ff       	callq  902e <safe_add_func_uint64_t_u_u>
   116ec:	48 89 05 9d cc 00 00 	mov    %rax,0xcc9d(%rip)        # 1e390 <g_364>
   116f3:	48 8b 05 96 cc 00 00 	mov    0xcc96(%rip),%rax        # 1e390 <g_364>
   116fa:	48 83 f8 16          	cmp    $0x16,%rax
   116fe:	0f 8f bd fb ff ff    	jg     112c1 <func_56+0x1d12>
   11704:	eb 01                	jmp    11707 <func_56+0x2158>
   11706:	90                   	nop
   11707:	48 8b 05 da e4 00 00 	mov    0xe4da(%rip),%rax        # 1fbe8 <g_208>
   1170e:	48 8b 00             	mov    (%rax),%rax
   11711:	48 8b 00             	mov    (%rax),%rax
   11714:	48 8b 00             	mov    (%rax),%rax
   11717:	c7 00 00 00 00 00    	movl   $0x0,(%rax)
   1171d:	c6 85 ef c8 ff ff f1 	movb   $0xf1,-0x3711(%rbp)
   11724:	80 bd ef c8 ff ff 1b 	cmpb   $0x1b,-0x3711(%rbp)
   1172b:	7e 1a                	jle    11747 <func_56+0x2198>
   1172d:	48 8d 05 7c e4 00 00 	lea    0xe47c(%rip),%rax        # 1fbb0 <g_134>
   11734:	48 89 85 e0 cc ff ff 	mov    %rax,-0x3320(%rbp)
   1173b:	48 8b 85 b8 cc ff ff 	mov    -0x3348(%rbp),%rax
   11742:	e9 b7 67 00 00       	jmpq   17efe <func_56+0x894f>
   11747:	0f b7 05 4a cc 00 00 	movzwl 0xcc4a(%rip),%eax        # 1e398 <g_535>
   1174e:	0f b7 c0             	movzwl %ax,%eax
   11751:	be 01 00 00 00       	mov    $0x1,%esi
   11756:	89 c7                	mov    %eax,%edi
   11758:	e8 59 6e ff ff       	callq  85b6 <safe_add_func_int32_t_s_s>
   1175d:	66 89 05 34 cc 00 00 	mov    %ax,0xcc34(%rip)        # 1e398 <g_535>
   11764:	0f b7 05 2d cc 00 00 	movzwl 0xcc2d(%rip),%eax        # 1e398 <g_535>
   1176b:	66 83 f8 0f          	cmp    $0xf,%ax
   1176f:	0f 85 d6 fa ff ff    	jne    1124b <func_56+0x1c9c>
   11775:	48 8b 05 64 e4 00 00 	mov    0xe464(%rip),%rax        # 1fbe0 <g_209>
   1177c:	48 8b 00             	mov    (%rax),%rax
   1177f:	48 8d 95 00 c9 ff ff 	lea    -0x3700(%rbp),%rdx
   11786:	48 89 10             	mov    %rdx,(%rax)
   11789:	0f b6 05 62 f8 00 00 	movzbl 0xf862(%rip),%eax        # 20ff2 <g_188>
   11790:	0f be c0             	movsbl %al,%eax
   11793:	be 01 00 00 00       	mov    $0x1,%esi
   11798:	89 c7                	mov    %eax,%edi
   1179a:	e8 66 6e ff ff       	callq  8605 <safe_sub_func_int32_t_s_s>
   1179f:	88 05 4d f8 00 00    	mov    %al,0xf84d(%rip)        # 20ff2 <g_188>
   117a5:	0f b6 05 46 f8 00 00 	movzbl 0xf846(%rip),%eax        # 20ff2 <g_188>
   117ac:	3c f6                	cmp    $0xf6,%al
   117ae:	0f 8c cc f7 ff ff    	jl     10f80 <func_56+0x19d1>
   117b4:	90                   	nop
   117b5:	48 8b 05 24 e4 00 00 	mov    0xe424(%rip),%rax        # 1fbe0 <g_209>
   117bc:	48 8b 00             	mov    (%rax),%rax
   117bf:	48 8d 95 60 cd ff ff 	lea    -0x32a0(%rbp),%rdx
   117c6:	48 83 c2 10          	add    $0x10,%rdx
   117ca:	48 89 10             	mov    %rdx,(%rax)
   117cd:	48 8b 10             	mov    (%rax),%rdx
   117d0:	48 8b 85 38 ca ff ff 	mov    -0x35c8(%rbp),%rax
   117d7:	48 89 10             	mov    %rdx,(%rax)
   117da:	48 8b 05 c7 cb 00 00 	mov    0xcbc7(%rip),%rax        # 1e3a8 <g_646>
   117e1:	48 83 e8 01          	sub    $0x1,%rax
   117e5:	48 89 05 bc cb 00 00 	mov    %rax,0xcbbc(%rip)        # 1e3a8 <g_646>
   117ec:	83 bd 44 c9 ff ff 00 	cmpl   $0x0,-0x36bc(%rbp)
   117f3:	0f 84 3b 01 00 00    	je     11934 <func_56+0x2385>
   117f9:	48 b8 8b ca f9 30 e5 	movabs $0x66dcdee530f9ca8b,%rax
   11800:	de dc 66 
   11803:	48 89 85 88 cc ff ff 	mov    %rax,-0x3378(%rbp)
   1180a:	c7 85 68 c9 ff ff 1a 	movl   $0x3bfdc31a,-0x3698(%rbp)
   11811:	c3 fd 3b 
   11814:	c7 85 6c c9 ff ff fb 	movl   $0xfffffffb,-0x3694(%rbp)
   1181b:	ff ff ff 
   1181e:	c7 85 70 c9 ff ff f7 	movl   $0xfffffff7,-0x3690(%rbp)
   11825:	ff ff ff 
   11828:	c7 85 74 c9 ff ff 9d 	movl   $0xad255c9d,-0x368c(%rbp)
   1182f:	5c 25 ad 
   11832:	c7 85 78 c9 ff ff 38 	movl   $0x70ed7338,-0x3688(%rbp)
   11839:	73 ed 70 
   1183c:	c7 85 20 c9 ff ff 81 	movl   $0x78d56f81,-0x36e0(%rbp)
   11843:	6f d5 78 
   11846:	c7 85 7c c9 ff ff 70 	movl   $0x9d0f870,-0x3684(%rbp)
   1184d:	f8 d0 09 
   11850:	c7 85 80 c9 ff ff f7 	movl   $0xfffffff7,-0x3680(%rbp)
   11857:	ff ff ff 
   1185a:	c7 85 84 c9 ff ff ff 	movl   $0xffffffff,-0x367c(%rbp)
   11861:	ff ff ff 
   11864:	c7 85 88 c9 ff ff fa 	movl   $0xfffffffa,-0x3678(%rbp)
   1186b:	ff ff ff 
   1186e:	c7 85 24 c9 ff ff 00 	movl   $0x0,-0x36dc(%rbp)
   11875:	00 00 00 
   11878:	eb 1a                	jmp    11894 <func_56+0x22e5>
   1187a:	8b 85 24 c9 ff ff    	mov    -0x36dc(%rbp),%eax
   11880:	48 98                	cltq   
   11882:	c7 84 85 70 f0 ff ff 	movl   $0x49fbbe24,-0xf90(%rbp,%rax,4)
   11889:	24 be fb 49 
   1188d:	83 85 24 c9 ff ff 01 	addl   $0x1,-0x36dc(%rbp)
   11894:	83 bd 24 c9 ff ff 01 	cmpl   $0x1,-0x36dc(%rbp)
   1189b:	7e dd                	jle    1187a <func_56+0x22cb>
   1189d:	8b 85 f8 c8 ff ff    	mov    -0x3708(%rbp),%eax
   118a3:	85 c0                	test   %eax,%eax
   118a5:	74 05                	je     118ac <func_56+0x22fd>
   118a7:	e9 09 ff ff ff       	jmpq   117b5 <func_56+0x2206>
   118ac:	48 8b 85 a8 c9 ff ff 	mov    -0x3658(%rbp),%rax
   118b3:	48 83 e8 01          	sub    $0x1,%rax
   118b7:	48 89 85 a8 c9 ff ff 	mov    %rax,-0x3658(%rbp)
   118be:	c7 85 20 c9 ff ff 00 	movl   $0x0,-0x36e0(%rbp)
   118c5:	00 00 00 
   118c8:	eb 32                	jmp    118fc <func_56+0x234d>
   118ca:	48 8d 85 a8 c9 ff ff 	lea    -0x3658(%rbp),%rax
   118d1:	48 89 85 90 cc ff ff 	mov    %rax,-0x3370(%rbp)
   118d8:	48 8d 85 a8 c9 ff ff 	lea    -0x3658(%rbp),%rax
   118df:	48 39 85 90 cc ff ff 	cmp    %rax,-0x3370(%rbp)
   118e6:	0f 95 c2             	setne  %dl
   118e9:	48 8b 05 c0 e2 00 00 	mov    0xe2c0(%rip),%rax        # 1fbb0 <g_134>
   118f0:	0f b6 d2             	movzbl %dl,%edx
   118f3:	89 10                	mov    %edx,(%rax)
   118f5:	83 85 20 c9 ff ff 01 	addl   $0x1,-0x36e0(%rbp)
   118fc:	83 bd 20 c9 ff ff 04 	cmpl   $0x4,-0x36e0(%rbp)
   11903:	7f c5                	jg     118ca <func_56+0x231b>
   11905:	48 8b 05 dc e2 00 00 	mov    0xe2dc(%rip),%rax        # 1fbe8 <g_208>
   1190c:	48 8b 00             	mov    (%rax),%rax
   1190f:	48 8b 00             	mov    (%rax),%rax
   11912:	48 8b 00             	mov    (%rax),%rax
   11915:	8b 10                	mov    (%rax),%edx
   11917:	48 8b 05 ca e2 00 00 	mov    0xe2ca(%rip),%rax        # 1fbe8 <g_208>
   1191e:	48 8b 00             	mov    (%rax),%rax
   11921:	48 8b 00             	mov    (%rax),%rax
   11924:	48 8b 00             	mov    (%rax),%rax
   11927:	0b 95 dc c8 ff ff    	or     -0x3724(%rbp),%edx
   1192d:	89 10                	mov    %edx,(%rax)
   1192f:	e9 c3 65 00 00       	jmpq   17ef7 <func_56+0x8948>
   11934:	48 8d 85 00 cd ff ff 	lea    -0x3300(%rbp),%rax
   1193b:	48 89 85 a8 ca ff ff 	mov    %rax,-0x3558(%rbp)
   11942:	c7 85 04 c9 ff ff 00 	movl   $0x0,-0x36fc(%rbp)
   11949:	00 00 00 
   1194c:	c7 45 d1 16 16 16 16 	movl   $0x16161616,-0x2f(%rbp)
   11953:	66 c7 45 d5 16 16    	movw   $0x1616,-0x2b(%rbp)
   11959:	c6 45 d7 16          	movb   $0x16,-0x29(%rbp)
   1195d:	48 8d 85 10 cf ff ff 	lea    -0x30f0(%rbp),%rax
   11964:	48 83 e8 80          	sub    $0xffffffffffffff80,%rax
   11968:	48 89 85 b0 ca ff ff 	mov    %rax,-0x3550(%rbp)
   1196f:	48 8d 05 3a e2 00 00 	lea    0xe23a(%rip),%rax        # 1fbb0 <g_134>
   11976:	48 89 85 b8 ca ff ff 	mov    %rax,-0x3548(%rbp)
   1197d:	48 8d 05 2c e2 00 00 	lea    0xe22c(%rip),%rax        # 1fbb0 <g_134>
   11984:	48 89 85 c0 ca ff ff 	mov    %rax,-0x3540(%rbp)
   1198b:	48 8d 05 66 f6 00 00 	lea    0xf666(%rip),%rax        # 20ff8 <g_421>
   11992:	48 89 85 d8 c9 ff ff 	mov    %rax,-0x3628(%rbp)
   11999:	48 8d 85 e8 cc ff ff 	lea    -0x3318(%rbp),%rax
   119a0:	48 89 85 e0 c9 ff ff 	mov    %rax,-0x3620(%rbp)
   119a7:	c6 85 ec c8 ff ff 00 	movb   $0x0,-0x3714(%rbp)
   119ae:	48 8d 85 10 cf ff ff 	lea    -0x30f0(%rbp),%rax
   119b5:	48 83 c0 28          	add    $0x28,%rax
   119b9:	48 89 85 e8 c9 ff ff 	mov    %rax,-0x3618(%rbp)
   119c0:	48 8d 05 f9 e1 00 00 	lea    0xe1f9(%rip),%rax        # 1fbc0 <g_143>
   119c7:	48 89 85 c8 ca ff ff 	mov    %rax,-0x3538(%rbp)
   119ce:	48 8d 05 eb e1 00 00 	lea    0xe1eb(%rip),%rax        # 1fbc0 <g_143>
   119d5:	48 89 85 f0 c9 ff ff 	mov    %rax,-0x3610(%rbp)
   119dc:	48 8d 05 dd e1 00 00 	lea    0xe1dd(%rip),%rax        # 1fbc0 <g_143>
   119e3:	48 89 85 d0 ca ff ff 	mov    %rax,-0x3530(%rbp)
   119ea:	48 8d 85 10 cf ff ff 	lea    -0x30f0(%rbp),%rax
   119f1:	48 83 c0 40          	add    $0x40,%rax
   119f5:	48 89 85 d8 ca ff ff 	mov    %rax,-0x3528(%rbp)
   119fc:	48 c7 85 e0 ca ff ff 	movq   $0x0,-0x3520(%rbp)
   11a03:	00 00 00 00 
   11a07:	48 8d 05 ca e1 00 00 	lea    0xe1ca(%rip),%rax        # 1fbd8 <g_186>
   11a0e:	48 89 85 e8 ca ff ff 	mov    %rax,-0x3518(%rbp)
   11a15:	48 8d 05 3c e3 00 00 	lea    0xe33c(%rip),%rax        # 1fd58 <g_562+0x158>
   11a1c:	48 89 85 f8 c9 ff ff 	mov    %rax,-0x3608(%rbp)
   11a23:	48 8d 85 f8 c9 ff ff 	lea    -0x3608(%rbp),%rax
   11a2a:	48 89 85 00 ca ff ff 	mov    %rax,-0x3600(%rbp)
   11a31:	48 8d 85 00 ca ff ff 	lea    -0x3600(%rbp),%rax
   11a38:	48 89 85 08 ca ff ff 	mov    %rax,-0x35f8(%rbp)
   11a3f:	48 8d 85 08 ca ff ff 	lea    -0x35f8(%rbp),%rax
   11a46:	48 89 85 f0 ca ff ff 	mov    %rax,-0x3510(%rbp)
   11a4d:	c7 85 14 c9 ff ff 00 	movl   $0x0,-0x36ec(%rbp)
   11a54:	00 00 00 
   11a57:	eb 1b                	jmp    11a74 <func_56+0x24c5>
   11a59:	8b 85 14 c9 ff ff    	mov    -0x36ec(%rbp),%eax
   11a5f:	48 98                	cltq   
   11a61:	48 c7 84 c5 00 cd ff 	movq   $0x0,-0x3300(%rbp,%rax,8)
   11a68:	ff 00 00 00 00 
   11a6d:	83 85 14 c9 ff ff 01 	addl   $0x1,-0x36ec(%rbp)
   11a74:	83 bd 14 c9 ff ff 02 	cmpl   $0x2,-0x36ec(%rbp)
   11a7b:	7e dc                	jle    11a59 <func_56+0x24aa>
   11a7d:	c7 85 14 c9 ff ff 00 	movl   $0x0,-0x36ec(%rbp)
   11a84:	00 00 00 
   11a87:	eb 21                	jmp    11aaa <func_56+0x24fb>
   11a89:	8b 85 14 c9 ff ff    	mov    -0x36ec(%rbp),%eax
   11a8f:	48 98                	cltq   
   11a91:	48 bb b9 0c 64 59 33 	movabs $0x5f74e23359640cb9,%rbx
   11a98:	e2 74 5f 
   11a9b:	48 89 9c c5 f0 cc ff 	mov    %rbx,-0x3310(%rbp,%rax,8)
   11aa2:	ff 
   11aa3:	83 85 14 c9 ff ff 01 	addl   $0x1,-0x36ec(%rbp)
   11aaa:	83 bd 14 c9 ff ff 00 	cmpl   $0x0,-0x36ec(%rbp)
   11ab1:	7e d6                	jle    11a89 <func_56+0x24da>
   11ab3:	c7 85 14 c9 ff ff 00 	movl   $0x0,-0x36ec(%rbp)
   11aba:	00 00 00 
   11abd:	eb 51                	jmp    11b10 <func_56+0x2561>
   11abf:	c7 85 18 c9 ff ff 00 	movl   $0x0,-0x36e8(%rbp)
   11ac6:	00 00 00 
   11ac9:	eb 35                	jmp    11b00 <func_56+0x2551>
   11acb:	8b 85 18 c9 ff ff    	mov    -0x36e8(%rbp),%eax
   11ad1:	48 63 c8             	movslq %eax,%rcx
   11ad4:	8b 85 14 c9 ff ff    	mov    -0x36ec(%rbp),%eax
   11ada:	48 63 d0             	movslq %eax,%rdx
   11add:	48 89 d0             	mov    %rdx,%rax
   11ae0:	48 c1 e0 02          	shl    $0x2,%rax
   11ae4:	48 01 d0             	add    %rdx,%rax
   11ae7:	48 01 c8             	add    %rcx,%rax
   11aea:	48 8d 15 bf e0 00 00 	lea    0xe0bf(%rip),%rdx        # 1fbb0 <g_134>
   11af1:	48 89 94 c5 b0 cf ff 	mov    %rdx,-0x3050(%rbp,%rax,8)
   11af8:	ff 
   11af9:	83 85 18 c9 ff ff 01 	addl   $0x1,-0x36e8(%rbp)
   11b00:	83 bd 18 c9 ff ff 04 	cmpl   $0x4,-0x36e8(%rbp)
   11b07:	7e c2                	jle    11acb <func_56+0x251c>
   11b09:	83 85 14 c9 ff ff 01 	addl   $0x1,-0x36ec(%rbp)
   11b10:	83 bd 14 c9 ff ff 03 	cmpl   $0x3,-0x36ec(%rbp)
   11b17:	7e a6                	jle    11abf <func_56+0x2510>
   11b19:	66 c7 05 ce f4 00 00 	movw   $0x0,0xf4ce(%rip)        # 20ff0 <g_160>
   11b20:	00 00 
   11b22:	90                   	nop
   11b23:	0f b7 05 c6 f4 00 00 	movzwl 0xf4c6(%rip),%eax        # 20ff0 <g_160>
   11b2a:	66 83 f8 f0          	cmp    $0xfff0,%ax
   11b2e:	0f 8c 2c 53 00 00    	jl     16e60 <func_56+0x78b1>
   11b34:	c7 85 58 c9 ff ff 84 	movl   $0x1d82ea84,-0x36a8(%rbp)
   11b3b:	ea 82 1d 
   11b3e:	48 8d 85 00 c9 ff ff 	lea    -0x3700(%rbp),%rax
   11b45:	48 89 85 10 ca ff ff 	mov    %rax,-0x35f0(%rbp)
   11b4c:	48 8d 85 10 ca ff ff 	lea    -0x35f0(%rbp),%rax
   11b53:	48 89 85 38 cb ff ff 	mov    %rax,-0x34c8(%rbp)
   11b5a:	48 8d 85 10 cf ff ff 	lea    -0x30f0(%rbp),%rax
   11b61:	48 83 c0 50          	add    $0x50,%rax
   11b65:	48 89 85 c0 e3 ff ff 	mov    %rax,-0x1c40(%rbp)
   11b6c:	48 8d 05 4d e0 00 00 	lea    0xe04d(%rip),%rax        # 1fbc0 <g_143>
   11b73:	48 89 85 c8 e3 ff ff 	mov    %rax,-0x1c38(%rbp)
   11b7a:	48 c7 85 d0 e3 ff ff 	movq   $0x0,-0x1c30(%rbp)
   11b81:	00 00 00 00 
   11b85:	48 8d 85 10 cf ff ff 	lea    -0x30f0(%rbp),%rax
   11b8c:	48 83 c0 40          	add    $0x40,%rax
   11b90:	48 89 85 d8 e3 ff ff 	mov    %rax,-0x1c28(%rbp)
   11b97:	48 8d 85 10 cf ff ff 	lea    -0x30f0(%rbp),%rax
   11b9e:	48 83 c0 40          	add    $0x40,%rax
   11ba2:	48 89 85 e0 e3 ff ff 	mov    %rax,-0x1c20(%rbp)
   11ba9:	48 8d 85 10 cf ff ff 	lea    -0x30f0(%rbp),%rax
   11bb0:	48 83 c0 50          	add    $0x50,%rax
   11bb4:	48 89 85 e8 e3 ff ff 	mov    %rax,-0x1c18(%rbp)
   11bbb:	48 8d 85 10 ca ff ff 	lea    -0x35f0(%rbp),%rax
   11bc2:	48 89 85 f0 e3 ff ff 	mov    %rax,-0x1c10(%rbp)
   11bc9:	48 8d 05 e0 df 00 00 	lea    0xdfe0(%rip),%rax        # 1fbb0 <g_134>
   11bd0:	48 89 85 f8 e3 ff ff 	mov    %rax,-0x1c08(%rbp)
   11bd7:	48 8d 05 d2 df 00 00 	lea    0xdfd2(%rip),%rax        # 1fbb0 <g_134>
   11bde:	48 89 85 00 e4 ff ff 	mov    %rax,-0x1c00(%rbp)
   11be5:	48 c7 85 08 e4 ff ff 	movq   $0x0,-0x1bf8(%rbp)
   11bec:	00 00 00 00 
   11bf0:	48 8d 85 10 cf ff ff 	lea    -0x30f0(%rbp),%rax
   11bf7:	48 83 c0 58          	add    $0x58,%rax
   11bfb:	48 89 85 10 e4 ff ff 	mov    %rax,-0x1bf0(%rbp)
   11c02:	48 8d 05 a7 df 00 00 	lea    0xdfa7(%rip),%rax        # 1fbb0 <g_134>
   11c09:	48 89 85 18 e4 ff ff 	mov    %rax,-0x1be8(%rbp)
   11c10:	48 c7 85 20 e4 ff ff 	movq   $0x0,-0x1be0(%rbp)
   11c17:	00 00 00 00 
   11c1b:	48 8d 85 10 cf ff ff 	lea    -0x30f0(%rbp),%rax
   11c22:	48 83 c0 40          	add    $0x40,%rax
   11c26:	48 89 85 28 e4 ff ff 	mov    %rax,-0x1bd8(%rbp)
   11c2d:	48 8d 85 10 cf ff ff 	lea    -0x30f0(%rbp),%rax
   11c34:	48 83 c0 40          	add    $0x40,%rax
   11c38:	48 89 85 30 e4 ff ff 	mov    %rax,-0x1bd0(%rbp)
   11c3f:	48 c7 85 38 e4 ff ff 	movq   $0x0,-0x1bc8(%rbp)
   11c46:	00 00 00 00 
   11c4a:	48 8d 85 10 cf ff ff 	lea    -0x30f0(%rbp),%rax
   11c51:	48 83 c0 40          	add    $0x40,%rax
   11c55:	48 89 85 40 e4 ff ff 	mov    %rax,-0x1bc0(%rbp)
   11c5c:	48 c7 85 48 e4 ff ff 	movq   $0x0,-0x1bb8(%rbp)
   11c63:	00 00 00 00 
   11c67:	48 8d 85 10 cf ff ff 	lea    -0x30f0(%rbp),%rax
   11c6e:	48 83 c0 40          	add    $0x40,%rax
   11c72:	48 89 85 50 e4 ff ff 	mov    %rax,-0x1bb0(%rbp)
   11c79:	48 8d 85 10 cf ff ff 	lea    -0x30f0(%rbp),%rax
   11c80:	48 83 c0 40          	add    $0x40,%rax
   11c84:	48 89 85 58 e4 ff ff 	mov    %rax,-0x1ba8(%rbp)
   11c8b:	48 c7 85 60 e4 ff ff 	movq   $0x0,-0x1ba0(%rbp)
   11c92:	00 00 00 00 
   11c96:	48 8d 05 13 df 00 00 	lea    0xdf13(%rip),%rax        # 1fbb0 <g_134>
   11c9d:	48 89 85 68 e4 ff ff 	mov    %rax,-0x1b98(%rbp)
   11ca4:	48 8d 85 10 cf ff ff 	lea    -0x30f0(%rbp),%rax
   11cab:	48 83 c0 58          	add    $0x58,%rax
   11caf:	48 89 85 70 e4 ff ff 	mov    %rax,-0x1b90(%rbp)
   11cb6:	48 c7 85 78 e4 ff ff 	movq   $0x0,-0x1b88(%rbp)
   11cbd:	00 00 00 00 
   11cc1:	48 8d 05 e8 de 00 00 	lea    0xdee8(%rip),%rax        # 1fbb0 <g_134>
   11cc8:	48 89 85 80 e4 ff ff 	mov    %rax,-0x1b80(%rbp)
   11ccf:	48 8d 05 da de 00 00 	lea    0xdeda(%rip),%rax        # 1fbb0 <g_134>
   11cd6:	48 89 85 88 e4 ff ff 	mov    %rax,-0x1b78(%rbp)
   11cdd:	48 8d 85 10 ca ff ff 	lea    -0x35f0(%rbp),%rax
   11ce4:	48 89 85 90 e4 ff ff 	mov    %rax,-0x1b70(%rbp)
   11ceb:	48 8d 85 10 cf ff ff 	lea    -0x30f0(%rbp),%rax
   11cf2:	48 83 c0 50          	add    $0x50,%rax
   11cf6:	48 89 85 98 e4 ff ff 	mov    %rax,-0x1b68(%rbp)
   11cfd:	48 8d 85 10 cf ff ff 	lea    -0x30f0(%rbp),%rax
   11d04:	48 83 c0 40          	add    $0x40,%rax
   11d08:	48 89 85 a0 e4 ff ff 	mov    %rax,-0x1b60(%rbp)
   11d0f:	48 8d 85 10 cf ff ff 	lea    -0x30f0(%rbp),%rax
   11d16:	48 83 c0 40          	add    $0x40,%rax
   11d1a:	48 89 85 a8 e4 ff ff 	mov    %rax,-0x1b58(%rbp)
   11d21:	48 c7 85 b0 e4 ff ff 	movq   $0x0,-0x1b50(%rbp)
   11d28:	00 00 00 00 
   11d2c:	48 8d 05 8d de 00 00 	lea    0xde8d(%rip),%rax        # 1fbc0 <g_143>
   11d33:	48 89 85 b8 e4 ff ff 	mov    %rax,-0x1b48(%rbp)
   11d3a:	48 8d 85 10 cf ff ff 	lea    -0x30f0(%rbp),%rax
   11d41:	48 83 c0 50          	add    $0x50,%rax
   11d45:	48 89 85 c0 e4 ff ff 	mov    %rax,-0x1b40(%rbp)
   11d4c:	48 c7 85 c8 e4 ff ff 	movq   $0x0,-0x1b38(%rbp)
   11d53:	00 00 00 00 
   11d57:	48 8d 05 52 de 00 00 	lea    0xde52(%rip),%rax        # 1fbb0 <g_134>
   11d5e:	48 89 85 d0 e4 ff ff 	mov    %rax,-0x1b30(%rbp)
   11d65:	48 8d 85 10 cf ff ff 	lea    -0x30f0(%rbp),%rax
   11d6c:	48 83 c0 40          	add    $0x40,%rax
   11d70:	48 89 85 d8 e4 ff ff 	mov    %rax,-0x1b28(%rbp)
   11d77:	48 8d 05 32 de 00 00 	lea    0xde32(%rip),%rax        # 1fbb0 <g_134>
   11d7e:	48 89 85 e0 e4 ff ff 	mov    %rax,-0x1b20(%rbp)
   11d85:	48 c7 85 e8 e4 ff ff 	movq   $0x0,-0x1b18(%rbp)
   11d8c:	00 00 00 00 
   11d90:	48 8d 85 10 cf ff ff 	lea    -0x30f0(%rbp),%rax
   11d97:	48 83 c0 50          	add    $0x50,%rax
   11d9b:	48 89 85 f0 e4 ff ff 	mov    %rax,-0x1b10(%rbp)
   11da2:	48 8d 05 17 de 00 00 	lea    0xde17(%rip),%rax        # 1fbc0 <g_143>
   11da9:	48 89 85 f8 e4 ff ff 	mov    %rax,-0x1b08(%rbp)
   11db0:	48 c7 85 00 e5 ff ff 	movq   $0x0,-0x1b00(%rbp)
   11db7:	00 00 00 00 
   11dbb:	48 8d 85 10 cf ff ff 	lea    -0x30f0(%rbp),%rax
   11dc2:	48 83 c0 40          	add    $0x40,%rax
   11dc6:	48 89 85 08 e5 ff ff 	mov    %rax,-0x1af8(%rbp)
   11dcd:	48 8d 85 10 cf ff ff 	lea    -0x30f0(%rbp),%rax
   11dd4:	48 83 c0 40          	add    $0x40,%rax
   11dd8:	48 89 85 10 e5 ff ff 	mov    %rax,-0x1af0(%rbp)
   11ddf:	48 8d 85 10 cf ff ff 	lea    -0x30f0(%rbp),%rax
   11de6:	48 83 c0 50          	add    $0x50,%rax
   11dea:	48 89 85 18 e5 ff ff 	mov    %rax,-0x1ae8(%rbp)
   11df1:	48 8d 85 10 ca ff ff 	lea    -0x35f0(%rbp),%rax
   11df8:	48 89 85 20 e5 ff ff 	mov    %rax,-0x1ae0(%rbp)
   11dff:	48 8d 05 aa dd 00 00 	lea    0xddaa(%rip),%rax        # 1fbb0 <g_134>
   11e06:	48 89 85 28 e5 ff ff 	mov    %rax,-0x1ad8(%rbp)
   11e0d:	48 8d 05 9c dd 00 00 	lea    0xdd9c(%rip),%rax        # 1fbb0 <g_134>
   11e14:	48 89 85 30 e5 ff ff 	mov    %rax,-0x1ad0(%rbp)
   11e1b:	48 c7 85 38 e5 ff ff 	movq   $0x0,-0x1ac8(%rbp)
   11e22:	00 00 00 00 
   11e26:	48 8d 85 10 cf ff ff 	lea    -0x30f0(%rbp),%rax
   11e2d:	48 83 c0 58          	add    $0x58,%rax
   11e31:	48 89 85 40 e5 ff ff 	mov    %rax,-0x1ac0(%rbp)
   11e38:	48 8d 05 71 dd 00 00 	lea    0xdd71(%rip),%rax        # 1fbb0 <g_134>
   11e3f:	48 89 85 48 e5 ff ff 	mov    %rax,-0x1ab8(%rbp)
   11e46:	48 c7 85 50 e5 ff ff 	movq   $0x0,-0x1ab0(%rbp)
   11e4d:	00 00 00 00 
   11e51:	48 8d 85 10 cf ff ff 	lea    -0x30f0(%rbp),%rax
   11e58:	48 83 c0 40          	add    $0x40,%rax
   11e5c:	48 89 85 58 e5 ff ff 	mov    %rax,-0x1aa8(%rbp)
   11e63:	48 8d 85 10 cf ff ff 	lea    -0x30f0(%rbp),%rax
   11e6a:	48 83 c0 40          	add    $0x40,%rax
   11e6e:	48 89 85 60 e5 ff ff 	mov    %rax,-0x1aa0(%rbp)
   11e75:	48 c7 85 68 e5 ff ff 	movq   $0x0,-0x1a98(%rbp)
   11e7c:	00 00 00 00 
   11e80:	48 8d 85 10 cf ff ff 	lea    -0x30f0(%rbp),%rax
   11e87:	48 83 c0 40          	add    $0x40,%rax
   11e8b:	48 89 85 70 e5 ff ff 	mov    %rax,-0x1a90(%rbp)
   11e92:	48 c7 85 78 e5 ff ff 	movq   $0x0,-0x1a88(%rbp)
   11e99:	00 00 00 00 
   11e9d:	48 8d 85 10 cf ff ff 	lea    -0x30f0(%rbp),%rax
   11ea4:	48 83 c0 40          	add    $0x40,%rax
   11ea8:	48 89 85 80 e5 ff ff 	mov    %rax,-0x1a80(%rbp)
   11eaf:	48 8d 85 10 cf ff ff 	lea    -0x30f0(%rbp),%rax
   11eb6:	48 83 c0 40          	add    $0x40,%rax
   11eba:	48 89 85 88 e5 ff ff 	mov    %rax,-0x1a78(%rbp)
   11ec1:	48 c7 85 90 e5 ff ff 	movq   $0x0,-0x1a70(%rbp)
   11ec8:	00 00 00 00 
   11ecc:	48 8d 05 dd dc 00 00 	lea    0xdcdd(%rip),%rax        # 1fbb0 <g_134>
   11ed3:	48 89 85 98 e5 ff ff 	mov    %rax,-0x1a68(%rbp)
   11eda:	48 8d 85 10 cf ff ff 	lea    -0x30f0(%rbp),%rax
   11ee1:	48 83 c0 58          	add    $0x58,%rax
   11ee5:	48 89 85 a0 e5 ff ff 	mov    %rax,-0x1a60(%rbp)
   11eec:	48 c7 85 a8 e5 ff ff 	movq   $0x0,-0x1a58(%rbp)
   11ef3:	00 00 00 00 
   11ef7:	48 8d 05 b2 dc 00 00 	lea    0xdcb2(%rip),%rax        # 1fbb0 <g_134>
   11efe:	48 89 85 b0 e5 ff ff 	mov    %rax,-0x1a50(%rbp)
   11f05:	48 8d 05 a4 dc 00 00 	lea    0xdca4(%rip),%rax        # 1fbb0 <g_134>
   11f0c:	48 89 85 b8 e5 ff ff 	mov    %rax,-0x1a48(%rbp)
   11f13:	48 8d 85 10 ca ff ff 	lea    -0x35f0(%rbp),%rax
   11f1a:	48 89 85 c0 e5 ff ff 	mov    %rax,-0x1a40(%rbp)
   11f21:	48 8d 85 10 cf ff ff 	lea    -0x30f0(%rbp),%rax
   11f28:	48 83 c0 50          	add    $0x50,%rax
   11f2c:	48 89 85 c8 e5 ff ff 	mov    %rax,-0x1a38(%rbp)
   11f33:	48 8d 85 10 cf ff ff 	lea    -0x30f0(%rbp),%rax
   11f3a:	48 83 c0 40          	add    $0x40,%rax
   11f3e:	48 89 85 d0 e5 ff ff 	mov    %rax,-0x1a30(%rbp)
   11f45:	48 8d 85 10 cf ff ff 	lea    -0x30f0(%rbp),%rax
   11f4c:	48 83 c0 40          	add    $0x40,%rax
   11f50:	48 89 85 d8 e5 ff ff 	mov    %rax,-0x1a28(%rbp)
   11f57:	48 c7 85 e0 e5 ff ff 	movq   $0x0,-0x1a20(%rbp)
   11f5e:	00 00 00 00 
   11f62:	48 8d 05 57 dc 00 00 	lea    0xdc57(%rip),%rax        # 1fbc0 <g_143>
   11f69:	48 89 85 e8 e5 ff ff 	mov    %rax,-0x1a18(%rbp)
   11f70:	48 8d 85 10 cf ff ff 	lea    -0x30f0(%rbp),%rax
   11f77:	48 83 c0 50          	add    $0x50,%rax
   11f7b:	48 89 85 f0 e5 ff ff 	mov    %rax,-0x1a10(%rbp)
   11f82:	48 c7 85 f8 e5 ff ff 	movq   $0x0,-0x1a08(%rbp)
   11f89:	00 00 00 00 
   11f8d:	48 8d 05 1c dc 00 00 	lea    0xdc1c(%rip),%rax        # 1fbb0 <g_134>
   11f94:	48 89 85 00 e6 ff ff 	mov    %rax,-0x1a00(%rbp)
   11f9b:	48 8d 85 10 cf ff ff 	lea    -0x30f0(%rbp),%rax
   11fa2:	48 83 c0 40          	add    $0x40,%rax
   11fa6:	48 89 85 08 e6 ff ff 	mov    %rax,-0x19f8(%rbp)
   11fad:	48 8d 05 fc db 00 00 	lea    0xdbfc(%rip),%rax        # 1fbb0 <g_134>
   11fb4:	48 89 85 10 e6 ff ff 	mov    %rax,-0x19f0(%rbp)
   11fbb:	48 c7 85 18 e6 ff ff 	movq   $0x0,-0x19e8(%rbp)
   11fc2:	00 00 00 00 
   11fc6:	48 8d 85 10 cf ff ff 	lea    -0x30f0(%rbp),%rax
   11fcd:	48 83 c0 50          	add    $0x50,%rax
   11fd1:	48 89 85 20 e6 ff ff 	mov    %rax,-0x19e0(%rbp)
   11fd8:	48 8d 05 e1 db 00 00 	lea    0xdbe1(%rip),%rax        # 1fbc0 <g_143>
   11fdf:	48 89 85 28 e6 ff ff 	mov    %rax,-0x19d8(%rbp)
   11fe6:	48 c7 85 30 e6 ff ff 	movq   $0x0,-0x19d0(%rbp)
   11fed:	00 00 00 00 
   11ff1:	48 8d 85 10 cf ff ff 	lea    -0x30f0(%rbp),%rax
   11ff8:	48 83 c0 40          	add    $0x40,%rax
   11ffc:	48 89 85 38 e6 ff ff 	mov    %rax,-0x19c8(%rbp)
   12003:	48 8d 85 10 cf ff ff 	lea    -0x30f0(%rbp),%rax
   1200a:	48 83 c0 40          	add    $0x40,%rax
   1200e:	48 89 85 40 e6 ff ff 	mov    %rax,-0x19c0(%rbp)
   12015:	48 8d 85 10 cf ff ff 	lea    -0x30f0(%rbp),%rax
   1201c:	48 83 c0 50          	add    $0x50,%rax
   12020:	48 89 85 48 e6 ff ff 	mov    %rax,-0x19b8(%rbp)
   12027:	48 8d 85 10 ca ff ff 	lea    -0x35f0(%rbp),%rax
   1202e:	48 89 85 50 e6 ff ff 	mov    %rax,-0x19b0(%rbp)
   12035:	48 8d 05 74 db 00 00 	lea    0xdb74(%rip),%rax        # 1fbb0 <g_134>
   1203c:	48 89 85 58 e6 ff ff 	mov    %rax,-0x19a8(%rbp)
   12043:	48 8d 05 66 db 00 00 	lea    0xdb66(%rip),%rax        # 1fbb0 <g_134>
   1204a:	48 89 85 60 e6 ff ff 	mov    %rax,-0x19a0(%rbp)
   12051:	48 c7 85 68 e6 ff ff 	movq   $0x0,-0x1998(%rbp)
   12058:	00 00 00 00 
   1205c:	48 8d 85 10 cf ff ff 	lea    -0x30f0(%rbp),%rax
   12063:	48 83 c0 58          	add    $0x58,%rax
   12067:	48 89 85 70 e6 ff ff 	mov    %rax,-0x1990(%rbp)
   1206e:	48 8d 05 3b db 00 00 	lea    0xdb3b(%rip),%rax        # 1fbb0 <g_134>
   12075:	48 89 85 78 e6 ff ff 	mov    %rax,-0x1988(%rbp)
   1207c:	48 c7 85 80 e6 ff ff 	movq   $0x0,-0x1980(%rbp)
   12083:	00 00 00 00 
   12087:	48 8d 85 10 cf ff ff 	lea    -0x30f0(%rbp),%rax
   1208e:	48 83 c0 40          	add    $0x40,%rax
   12092:	48 89 85 88 e6 ff ff 	mov    %rax,-0x1978(%rbp)
   12099:	48 8d 85 10 cf ff ff 	lea    -0x30f0(%rbp),%rax
   120a0:	48 83 c0 40          	add    $0x40,%rax
   120a4:	48 89 85 90 e6 ff ff 	mov    %rax,-0x1970(%rbp)
   120ab:	48 c7 85 98 e6 ff ff 	movq   $0x0,-0x1968(%rbp)
   120b2:	00 00 00 00 
   120b6:	48 8d 85 10 cf ff ff 	lea    -0x30f0(%rbp),%rax
   120bd:	48 83 c0 40          	add    $0x40,%rax
   120c1:	48 89 85 a0 e6 ff ff 	mov    %rax,-0x1960(%rbp)
   120c8:	48 c7 85 a8 e6 ff ff 	movq   $0x0,-0x1958(%rbp)
   120cf:	00 00 00 00 
   120d3:	48 8d 85 10 cf ff ff 	lea    -0x30f0(%rbp),%rax
   120da:	48 83 c0 40          	add    $0x40,%rax
   120de:	48 89 85 b0 e6 ff ff 	mov    %rax,-0x1950(%rbp)
   120e5:	48 8d 85 10 cf ff ff 	lea    -0x30f0(%rbp),%rax
   120ec:	48 83 c0 40          	add    $0x40,%rax
   120f0:	48 89 85 b8 e6 ff ff 	mov    %rax,-0x1948(%rbp)
   120f7:	48 c7 85 c0 e6 ff ff 	movq   $0x0,-0x1940(%rbp)
   120fe:	00 00 00 00 
   12102:	48 8d 05 a7 da 00 00 	lea    0xdaa7(%rip),%rax        # 1fbb0 <g_134>
   12109:	48 89 85 c8 e6 ff ff 	mov    %rax,-0x1938(%rbp)
   12110:	48 8d 85 10 cf ff ff 	lea    -0x30f0(%rbp),%rax
   12117:	48 83 c0 58          	add    $0x58,%rax
   1211b:	48 89 85 d0 e6 ff ff 	mov    %rax,-0x1930(%rbp)
   12122:	48 c7 85 d8 e6 ff ff 	movq   $0x0,-0x1928(%rbp)
   12129:	00 00 00 00 
   1212d:	48 8d 05 7c da 00 00 	lea    0xda7c(%rip),%rax        # 1fbb0 <g_134>
   12134:	48 89 85 e0 e6 ff ff 	mov    %rax,-0x1920(%rbp)
   1213b:	48 8d 05 6e da 00 00 	lea    0xda6e(%rip),%rax        # 1fbb0 <g_134>
   12142:	48 89 85 e8 e6 ff ff 	mov    %rax,-0x1918(%rbp)
   12149:	48 8d 85 10 ca ff ff 	lea    -0x35f0(%rbp),%rax
   12150:	48 89 85 f0 e6 ff ff 	mov    %rax,-0x1910(%rbp)
   12157:	48 8d 85 10 cf ff ff 	lea    -0x30f0(%rbp),%rax
   1215e:	48 83 c0 50          	add    $0x50,%rax
   12162:	48 89 85 f8 e6 ff ff 	mov    %rax,-0x1908(%rbp)
   12169:	48 8d 85 10 cf ff ff 	lea    -0x30f0(%rbp),%rax
   12170:	48 83 c0 40          	add    $0x40,%rax
   12174:	48 89 85 00 e7 ff ff 	mov    %rax,-0x1900(%rbp)
   1217b:	48 8d 85 10 cf ff ff 	lea    -0x30f0(%rbp),%rax
   12182:	48 83 c0 40          	add    $0x40,%rax
   12186:	48 89 85 08 e7 ff ff 	mov    %rax,-0x18f8(%rbp)
   1218d:	48 c7 85 10 e7 ff ff 	movq   $0x0,-0x18f0(%rbp)
   12194:	00 00 00 00 
   12198:	48 8d 05 21 da 00 00 	lea    0xda21(%rip),%rax        # 1fbc0 <g_143>
   1219f:	48 89 85 18 e7 ff ff 	mov    %rax,-0x18e8(%rbp)
   121a6:	48 8d 85 10 cf ff ff 	lea    -0x30f0(%rbp),%rax
   121ad:	48 83 c0 50          	add    $0x50,%rax
   121b1:	48 89 85 20 e7 ff ff 	mov    %rax,-0x18e0(%rbp)
   121b8:	48 c7 85 28 e7 ff ff 	movq   $0x0,-0x18d8(%rbp)
   121bf:	00 00 00 00 
   121c3:	48 8d 05 e6 d9 00 00 	lea    0xd9e6(%rip),%rax        # 1fbb0 <g_134>
   121ca:	48 89 85 30 e7 ff ff 	mov    %rax,-0x18d0(%rbp)
   121d1:	48 8d 85 10 cf ff ff 	lea    -0x30f0(%rbp),%rax
   121d8:	48 83 c0 40          	add    $0x40,%rax
   121dc:	48 89 85 38 e7 ff ff 	mov    %rax,-0x18c8(%rbp)
   121e3:	48 8d 05 c6 d9 00 00 	lea    0xd9c6(%rip),%rax        # 1fbb0 <g_134>
   121ea:	48 89 85 40 e7 ff ff 	mov    %rax,-0x18c0(%rbp)
   121f1:	48 c7 85 48 e7 ff ff 	movq   $0x0,-0x18b8(%rbp)
   121f8:	00 00 00 00 
   121fc:	48 8d 85 10 cf ff ff 	lea    -0x30f0(%rbp),%rax
   12203:	48 83 c0 50          	add    $0x50,%rax
   12207:	48 89 85 50 e7 ff ff 	mov    %rax,-0x18b0(%rbp)
   1220e:	48 8d 05 ab d9 00 00 	lea    0xd9ab(%rip),%rax        # 1fbc0 <g_143>
   12215:	48 89 85 58 e7 ff ff 	mov    %rax,-0x18a8(%rbp)
   1221c:	48 c7 85 60 e7 ff ff 	movq   $0x0,-0x18a0(%rbp)
   12223:	00 00 00 00 
   12227:	48 8d 85 10 cf ff ff 	lea    -0x30f0(%rbp),%rax
   1222e:	48 83 c0 40          	add    $0x40,%rax
   12232:	48 89 85 68 e7 ff ff 	mov    %rax,-0x1898(%rbp)
   12239:	48 8d 85 10 cf ff ff 	lea    -0x30f0(%rbp),%rax
   12240:	48 83 c0 40          	add    $0x40,%rax
   12244:	48 89 85 70 e7 ff ff 	mov    %rax,-0x1890(%rbp)
   1224b:	48 8d 85 10 cf ff ff 	lea    -0x30f0(%rbp),%rax
   12252:	48 83 c0 50          	add    $0x50,%rax
   12256:	48 89 85 78 e7 ff ff 	mov    %rax,-0x1888(%rbp)
   1225d:	48 8d 85 10 ca ff ff 	lea    -0x35f0(%rbp),%rax
   12264:	48 89 85 80 e7 ff ff 	mov    %rax,-0x1880(%rbp)
   1226b:	48 8d 05 3e d9 00 00 	lea    0xd93e(%rip),%rax        # 1fbb0 <g_134>
   12272:	48 89 85 88 e7 ff ff 	mov    %rax,-0x1878(%rbp)
   12279:	48 8d 05 30 d9 00 00 	lea    0xd930(%rip),%rax        # 1fbb0 <g_134>
   12280:	48 89 85 90 e7 ff ff 	mov    %rax,-0x1870(%rbp)
   12287:	48 c7 85 98 e7 ff ff 	movq   $0x0,-0x1868(%rbp)
   1228e:	00 00 00 00 
   12292:	48 8d 85 10 cf ff ff 	lea    -0x30f0(%rbp),%rax
   12299:	48 83 c0 58          	add    $0x58,%rax
   1229d:	48 89 85 a0 e7 ff ff 	mov    %rax,-0x1860(%rbp)
   122a4:	48 8d 05 05 d9 00 00 	lea    0xd905(%rip),%rax        # 1fbb0 <g_134>
   122ab:	48 89 85 a8 e7 ff ff 	mov    %rax,-0x1858(%rbp)
   122b2:	48 c7 85 b0 e7 ff ff 	movq   $0x0,-0x1850(%rbp)
   122b9:	00 00 00 00 
   122bd:	48 8d 85 10 cf ff ff 	lea    -0x30f0(%rbp),%rax
   122c4:	48 83 c0 40          	add    $0x40,%rax
   122c8:	48 89 85 b8 e7 ff ff 	mov    %rax,-0x1848(%rbp)
   122cf:	48 8d 85 10 cf ff ff 	lea    -0x30f0(%rbp),%rax
   122d6:	48 83 c0 40          	add    $0x40,%rax
   122da:	48 89 85 c0 e7 ff ff 	mov    %rax,-0x1840(%rbp)
   122e1:	48 c7 85 c8 e7 ff ff 	movq   $0x0,-0x1838(%rbp)
   122e8:	00 00 00 00 
   122ec:	48 8d 85 10 cf ff ff 	lea    -0x30f0(%rbp),%rax
   122f3:	48 83 c0 40          	add    $0x40,%rax
   122f7:	48 89 85 d0 e7 ff ff 	mov    %rax,-0x1830(%rbp)
   122fe:	48 c7 85 d8 e7 ff ff 	movq   $0x0,-0x1828(%rbp)
   12305:	00 00 00 00 
   12309:	48 8d 85 10 cf ff ff 	lea    -0x30f0(%rbp),%rax
   12310:	48 83 c0 40          	add    $0x40,%rax
   12314:	48 89 85 e0 e7 ff ff 	mov    %rax,-0x1820(%rbp)
   1231b:	48 8d 85 10 cf ff ff 	lea    -0x30f0(%rbp),%rax
   12322:	48 83 c0 40          	add    $0x40,%rax
   12326:	48 89 85 e8 e7 ff ff 	mov    %rax,-0x1818(%rbp)
   1232d:	48 c7 85 f0 e7 ff ff 	movq   $0x0,-0x1810(%rbp)
   12334:	00 00 00 00 
   12338:	48 8d 05 71 d8 00 00 	lea    0xd871(%rip),%rax        # 1fbb0 <g_134>
   1233f:	48 89 85 f8 e7 ff ff 	mov    %rax,-0x1808(%rbp)
   12346:	48 8d 85 10 cf ff ff 	lea    -0x30f0(%rbp),%rax
   1234d:	48 83 c0 58          	add    $0x58,%rax
   12351:	48 89 85 00 e8 ff ff 	mov    %rax,-0x1800(%rbp)
   12358:	48 c7 85 08 e8 ff ff 	movq   $0x0,-0x17f8(%rbp)
   1235f:	00 00 00 00 
   12363:	48 8d 05 46 d8 00 00 	lea    0xd846(%rip),%rax        # 1fbb0 <g_134>
   1236a:	48 89 85 10 e8 ff ff 	mov    %rax,-0x17f0(%rbp)
   12371:	48 8d 05 38 d8 00 00 	lea    0xd838(%rip),%rax        # 1fbb0 <g_134>
   12378:	48 89 85 18 e8 ff ff 	mov    %rax,-0x17e8(%rbp)
   1237f:	48 8d 85 10 ca ff ff 	lea    -0x35f0(%rbp),%rax
   12386:	48 89 85 20 e8 ff ff 	mov    %rax,-0x17e0(%rbp)
   1238d:	48 8d 85 10 cf ff ff 	lea    -0x30f0(%rbp),%rax
   12394:	48 83 c0 50          	add    $0x50,%rax
   12398:	48 89 85 28 e8 ff ff 	mov    %rax,-0x17d8(%rbp)
   1239f:	48 8d 85 10 cf ff ff 	lea    -0x30f0(%rbp),%rax
   123a6:	48 83 c0 40          	add    $0x40,%rax
   123aa:	48 89 85 30 e8 ff ff 	mov    %rax,-0x17d0(%rbp)
   123b1:	48 8d 85 10 cf ff ff 	lea    -0x30f0(%rbp),%rax
   123b8:	48 83 c0 40          	add    $0x40,%rax
   123bc:	48 89 85 38 e8 ff ff 	mov    %rax,-0x17c8(%rbp)
   123c3:	48 c7 85 40 e8 ff ff 	movq   $0x0,-0x17c0(%rbp)
   123ca:	00 00 00 00 
   123ce:	48 8d 05 eb d7 00 00 	lea    0xd7eb(%rip),%rax        # 1fbc0 <g_143>
   123d5:	48 89 85 48 e8 ff ff 	mov    %rax,-0x17b8(%rbp)
   123dc:	48 8d 85 10 cf ff ff 	lea    -0x30f0(%rbp),%rax
   123e3:	48 83 c0 50          	add    $0x50,%rax
   123e7:	48 89 85 50 e8 ff ff 	mov    %rax,-0x17b0(%rbp)
   123ee:	48 8d 85 10 cf ff ff 	lea    -0x30f0(%rbp),%rax
   123f5:	48 83 c0 40          	add    $0x40,%rax
   123f9:	48 89 85 58 e8 ff ff 	mov    %rax,-0x17a8(%rbp)
   12400:	48 8d 85 10 cf ff ff 	lea    -0x30f0(%rbp),%rax
   12407:	48 83 c0 40          	add    $0x40,%rax
   1240b:	48 89 85 60 e8 ff ff 	mov    %rax,-0x17a0(%rbp)
   12412:	48 8d 85 10 cf ff ff 	lea    -0x30f0(%rbp),%rax
   12419:	48 83 c0 50          	add    $0x50,%rax
   1241d:	48 89 85 68 e8 ff ff 	mov    %rax,-0x1798(%rbp)
   12424:	48 8d 85 10 cf ff ff 	lea    -0x30f0(%rbp),%rax
   1242b:	48 83 c0 40          	add    $0x40,%rax
   1242f:	48 89 85 70 e8 ff ff 	mov    %rax,-0x1790(%rbp)
   12436:	48 8d 85 10 cf ff ff 	lea    -0x30f0(%rbp),%rax
   1243d:	48 83 c0 40          	add    $0x40,%rax
   12441:	48 89 85 78 e8 ff ff 	mov    %rax,-0x1788(%rbp)
   12448:	48 c7 85 80 e8 ff ff 	movq   $0x0,-0x1780(%rbp)
   1244f:	00 00 00 00 
   12453:	48 8d 85 10 cf ff ff 	lea    -0x30f0(%rbp),%rax
   1245a:	48 83 c0 40          	add    $0x40,%rax
   1245e:	48 89 85 88 e8 ff ff 	mov    %rax,-0x1778(%rbp)
   12465:	48 8d 85 10 cf ff ff 	lea    -0x30f0(%rbp),%rax
   1246c:	48 83 c0 40          	add    $0x40,%rax
   12470:	48 89 85 90 e8 ff ff 	mov    %rax,-0x1770(%rbp)
   12477:	48 c7 85 98 e8 ff ff 	movq   $0x0,-0x1768(%rbp)
   1247e:	00 00 00 00 
   12482:	48 8d 85 10 ca ff ff 	lea    -0x35f0(%rbp),%rax
   12489:	48 89 85 a0 e8 ff ff 	mov    %rax,-0x1760(%rbp)
   12490:	48 c7 85 a8 e8 ff ff 	movq   $0x0,-0x1758(%rbp)
   12497:	00 00 00 00 
   1249b:	48 8d 05 1e d7 00 00 	lea    0xd71e(%rip),%rax        # 1fbc0 <g_143>
   124a2:	48 89 85 b0 e8 ff ff 	mov    %rax,-0x1750(%rbp)
   124a9:	48 8d 05 00 d7 00 00 	lea    0xd700(%rip),%rax        # 1fbb0 <g_134>
   124b0:	48 89 85 b8 e8 ff ff 	mov    %rax,-0x1748(%rbp)
   124b7:	48 8d 05 f2 d6 00 00 	lea    0xd6f2(%rip),%rax        # 1fbb0 <g_134>
   124be:	48 89 85 c0 e8 ff ff 	mov    %rax,-0x1740(%rbp)
   124c5:	48 8d 05 e4 d6 00 00 	lea    0xd6e4(%rip),%rax        # 1fbb0 <g_134>
   124cc:	48 89 85 c8 e8 ff ff 	mov    %rax,-0x1738(%rbp)
   124d3:	48 8d 85 10 cf ff ff 	lea    -0x30f0(%rbp),%rax
   124da:	48 83 c0 40          	add    $0x40,%rax
   124de:	48 89 85 d0 e8 ff ff 	mov    %rax,-0x1730(%rbp)
   124e5:	48 8d 85 10 cf ff ff 	lea    -0x30f0(%rbp),%rax
   124ec:	48 83 c0 40          	add    $0x40,%rax
   124f0:	48 89 85 d8 e8 ff ff 	mov    %rax,-0x1728(%rbp)
   124f7:	48 8d 85 10 cf ff ff 	lea    -0x30f0(%rbp),%rax
   124fe:	48 83 c0 40          	add    $0x40,%rax
   12502:	48 89 85 e0 e8 ff ff 	mov    %rax,-0x1720(%rbp)
   12509:	48 8d 85 10 ca ff ff 	lea    -0x35f0(%rbp),%rax
   12510:	48 89 85 e8 e8 ff ff 	mov    %rax,-0x1718(%rbp)
   12517:	48 8d 85 10 cf ff ff 	lea    -0x30f0(%rbp),%rax
   1251e:	48 83 c0 58          	add    $0x58,%rax
   12522:	48 89 85 f0 e8 ff ff 	mov    %rax,-0x1710(%rbp)
   12529:	48 c7 85 f8 e8 ff ff 	movq   $0x0,-0x1708(%rbp)
   12530:	00 00 00 00 
   12534:	48 c7 85 00 e9 ff ff 	movq   $0x0,-0x1700(%rbp)
   1253b:	00 00 00 00 
   1253f:	48 c7 85 08 e9 ff ff 	movq   $0x0,-0x16f8(%rbp)
   12546:	00 00 00 00 
   1254a:	48 8d 85 10 cf ff ff 	lea    -0x30f0(%rbp),%rax
   12551:	48 83 c0 58          	add    $0x58,%rax
   12555:	48 89 85 10 e9 ff ff 	mov    %rax,-0x16f0(%rbp)
   1255c:	48 8d 85 10 ca ff ff 	lea    -0x35f0(%rbp),%rax
   12563:	48 89 85 18 e9 ff ff 	mov    %rax,-0x16e8(%rbp)
   1256a:	48 8d 85 10 cf ff ff 	lea    -0x30f0(%rbp),%rax
   12571:	48 83 c0 40          	add    $0x40,%rax
   12575:	48 89 85 20 e9 ff ff 	mov    %rax,-0x16e0(%rbp)
   1257c:	48 8d 85 10 cf ff ff 	lea    -0x30f0(%rbp),%rax
   12583:	48 83 c0 40          	add    $0x40,%rax
   12587:	48 89 85 28 e9 ff ff 	mov    %rax,-0x16d8(%rbp)
   1258e:	48 8d 85 10 cf ff ff 	lea    -0x30f0(%rbp),%rax
   12595:	48 83 c0 40          	add    $0x40,%rax
   12599:	48 89 85 30 e9 ff ff 	mov    %rax,-0x16d0(%rbp)
   125a0:	48 8d 05 09 d6 00 00 	lea    0xd609(%rip),%rax        # 1fbb0 <g_134>
   125a7:	48 89 85 38 e9 ff ff 	mov    %rax,-0x16c8(%rbp)
   125ae:	48 8d 05 fb d5 00 00 	lea    0xd5fb(%rip),%rax        # 1fbb0 <g_134>
   125b5:	48 89 85 40 e9 ff ff 	mov    %rax,-0x16c0(%rbp)
   125bc:	48 8d 05 ed d5 00 00 	lea    0xd5ed(%rip),%rax        # 1fbb0 <g_134>
   125c3:	48 89 85 48 e9 ff ff 	mov    %rax,-0x16b8(%rbp)
   125ca:	48 8d 05 ef d5 00 00 	lea    0xd5ef(%rip),%rax        # 1fbc0 <g_143>
   125d1:	48 89 85 50 e9 ff ff 	mov    %rax,-0x16b0(%rbp)
   125d8:	48 c7 85 58 e9 ff ff 	movq   $0x0,-0x16a8(%rbp)
   125df:	00 00 00 00 
   125e3:	66 c7 85 f2 c8 ff ff 	movw   $0x0,-0x370e(%rbp)
   125ea:	00 00 
   125ec:	48 8d 05 cd d5 00 00 	lea    0xd5cd(%rip),%rax        # 1fbc0 <g_143>
   125f3:	48 89 85 40 cb ff ff 	mov    %rax,-0x34c0(%rbp)
   125fa:	48 8d 05 bf d5 00 00 	lea    0xd5bf(%rip),%rax        # 1fbc0 <g_143>
   12601:	48 89 85 48 cb ff ff 	mov    %rax,-0x34b8(%rbp)
   12608:	48 8d 05 a1 d5 00 00 	lea    0xd5a1(%rip),%rax        # 1fbb0 <g_134>
   1260f:	48 89 85 50 cb ff ff 	mov    %rax,-0x34b0(%rbp)
   12616:	48 8d 05 93 d5 00 00 	lea    0xd593(%rip),%rax        # 1fbb0 <g_134>
   1261d:	48 89 85 58 cb ff ff 	mov    %rax,-0x34a8(%rbp)
   12624:	48 c7 85 80 cd ff ff 	movq   $0x0,-0x3280(%rbp)
   1262b:	00 00 00 00 
   1262f:	48 c7 85 88 cd ff ff 	movq   $0x0,-0x3278(%rbp)
   12636:	00 00 00 00 
   1263a:	48 c7 85 90 cd ff ff 	movq   $0x0,-0x3270(%rbp)
   12641:	00 00 00 00 
   12645:	48 c7 85 98 cd ff ff 	movq   $0x0,-0x3268(%rbp)
   1264c:	00 00 00 00 
   12650:	48 c7 85 80 ce ff ff 	movq   $0x0,-0x3180(%rbp)
   12657:	00 00 00 00 
   1265b:	48 8d 05 92 e9 00 00 	lea    0xe992(%rip),%rax        # 20ff4 <g_206>
   12662:	48 89 85 88 ce ff ff 	mov    %rax,-0x3178(%rbp)
   12669:	48 8d 05 28 bd 00 00 	lea    0xbd28(%rip),%rax        # 1e398 <g_535>
   12670:	48 89 85 90 ce ff ff 	mov    %rax,-0x3170(%rbp)
   12677:	48 8d 05 1a bd 00 00 	lea    0xbd1a(%rip),%rax        # 1e398 <g_535>
   1267e:	48 89 85 98 ce ff ff 	mov    %rax,-0x3168(%rbp)
   12685:	48 8d 05 68 e9 00 00 	lea    0xe968(%rip),%rax        # 20ff4 <g_206>
   1268c:	48 89 85 a0 ce ff ff 	mov    %rax,-0x3160(%rbp)
   12693:	48 c7 85 a8 ce ff ff 	movq   $0x0,-0x3158(%rbp)
   1269a:	00 00 00 00 
   1269e:	48 c7 85 b0 ce ff ff 	movq   $0x0,-0x3150(%rbp)
   126a5:	00 00 00 00 
   126a9:	48 8d 05 e8 bc 00 00 	lea    0xbce8(%rip),%rax        # 1e398 <g_535>
   126b0:	48 89 85 b8 ce ff ff 	mov    %rax,-0x3148(%rbp)
   126b7:	48 c7 85 c0 ce ff ff 	movq   $0x0,-0x3140(%rbp)
   126be:	00 00 00 00 
   126c2:	48 8d 05 cf bc 00 00 	lea    0xbccf(%rip),%rax        # 1e398 <g_535>
   126c9:	48 89 85 c8 ce ff ff 	mov    %rax,-0x3138(%rbp)
   126d0:	48 8d 05 c1 bc 00 00 	lea    0xbcc1(%rip),%rax        # 1e398 <g_535>
   126d7:	48 89 85 d0 ce ff ff 	mov    %rax,-0x3130(%rbp)
   126de:	48 8d 05 b3 bc 00 00 	lea    0xbcb3(%rip),%rax        # 1e398 <g_535>
   126e5:	48 89 85 d8 ce ff ff 	mov    %rax,-0x3128(%rbp)
   126ec:	48 c7 85 e0 ce ff ff 	movq   $0x0,-0x3120(%rbp)
   126f3:	00 00 00 00 
   126f7:	48 8d 05 b6 bc 00 00 	lea    0xbcb6(%rip),%rax        # 1e3b4 <g_743>
   126fe:	48 89 85 e8 ce ff ff 	mov    %rax,-0x3118(%rbp)
   12705:	48 c7 85 f0 ce ff ff 	movq   $0x0,-0x3110(%rbp)
   1270c:	00 00 00 00 
   12710:	48 8d 05 81 bc 00 00 	lea    0xbc81(%rip),%rax        # 1e398 <g_535>
   12717:	48 89 85 f8 ce ff ff 	mov    %rax,-0x3108(%rbp)
   1271e:	48 8d 05 8f bc 00 00 	lea    0xbc8f(%rip),%rax        # 1e3b4 <g_743>
   12725:	48 89 85 00 cf ff ff 	mov    %rax,-0x3100(%rbp)
   1272c:	48 c7 85 08 cf ff ff 	movq   $0x0,-0x30f8(%rbp)
   12733:	00 00 00 00 
   12737:	48 8d 85 10 cf ff ff 	lea    -0x30f0(%rbp),%rax
   1273e:	48 83 c0 40          	add    $0x40,%rax
   12742:	48 89 85 60 cb ff ff 	mov    %rax,-0x34a0(%rbp)
   12749:	48 8d 85 10 cf ff ff 	lea    -0x30f0(%rbp),%rax
   12750:	48 83 c0 40          	add    $0x40,%rax
   12754:	48 89 85 68 cb ff ff 	mov    %rax,-0x3498(%rbp)
   1275b:	48 8d 05 5e d4 00 00 	lea    0xd45e(%rip),%rax        # 1fbc0 <g_143>
   12762:	48 89 85 70 cb ff ff 	mov    %rax,-0x3490(%rbp)
   12769:	48 8b 05 40 d4 00 00 	mov    0xd440(%rip),%rax        # 1fbb0 <g_134>
   12770:	8b 00                	mov    (%rax),%eax
   12772:	85 c0                	test   %eax,%eax
   12774:	0f 84 10 01 00 00    	je     1288a <func_56+0x32db>
   1277a:	48 c7 85 70 f0 ff ff 	movq   $0x0,-0xf90(%rbp)
   12781:	00 00 00 00 
   12785:	48 c7 85 78 f0 ff ff 	movq   $0x0,-0xf88(%rbp)
   1278c:	00 00 00 00 
   12790:	48 c7 85 80 f0 ff ff 	movq   $0x0,-0xf80(%rbp)
   12797:	00 00 00 00 
   1279b:	48 c7 85 88 f0 ff ff 	movq   $0x0,-0xf78(%rbp)
   127a2:	00 00 00 00 
   127a6:	48 c7 85 90 f0 ff ff 	movq   $0x0,-0xf70(%rbp)
   127ad:	00 00 00 00 
   127b1:	48 c7 85 98 f0 ff ff 	movq   $0x0,-0xf68(%rbp)
   127b8:	00 00 00 00 
   127bc:	48 c7 85 a0 f0 ff ff 	movq   $0x0,-0xf60(%rbp)
   127c3:	00 00 00 00 
   127c7:	48 8b 05 0a d4 00 00 	mov    0xd40a(%rip),%rax        # 1fbd8 <g_186>
   127ce:	48 8b 00             	mov    (%rax),%rax
   127d1:	0f b6 00             	movzbl (%rax),%eax
   127d4:	84 c0                	test   %al,%al
   127d6:	75 53                	jne    1282b <func_56+0x327c>
   127d8:	8b 85 04 c9 ff ff    	mov    -0x36fc(%rbp),%eax
   127de:	48 63 d8             	movslq %eax,%rbx
   127e1:	8b 05 95 bb 00 00    	mov    0xbb95(%rip),%eax        # 1e37c <g_175>
   127e7:	85 c0                	test   %eax,%eax
   127e9:	0f 94 c0             	sete   %al
   127ec:	0f b6 d0             	movzbl %al,%edx
   127ef:	48 8b 05 fa d3 00 00 	mov    0xd3fa(%rip),%rax        # 1fbf0 <g_275>
   127f6:	8b 00                	mov    (%rax),%eax
   127f8:	31 d0                	xor    %edx,%eax
   127fa:	39 85 dc c8 ff ff    	cmp    %eax,-0x3724(%rbp)
   12800:	0f 95 c0             	setne  %al
   12803:	0f b6 d0             	movzbl %al,%edx
   12806:	8b 85 d8 c8 ff ff    	mov    -0x3728(%rbp),%eax
   1280c:	0f b6 c0             	movzbl %al,%eax
   1280f:	89 d6                	mov    %edx,%esi
   12811:	89 c7                	mov    %eax,%edi
   12813:	e8 7b 63 ff ff       	callq  8b93 <safe_mul_func_uint8_t_u_u>
   12818:	0f b6 c0             	movzbl %al,%eax
   1281b:	48 89 de             	mov    %rbx,%rsi
   1281e:	48 89 c7             	mov    %rax,%rdi
   12821:	e8 5a 68 ff ff       	callq  9080 <safe_mod_func_uint64_t_u_u>
   12826:	48 85 c0             	test   %rax,%rax
   12829:	74 07                	je     12832 <func_56+0x3283>
   1282b:	b8 01 00 00 00       	mov    $0x1,%eax
   12830:	eb 05                	jmp    12837 <func_56+0x3288>
   12832:	b8 00 00 00 00       	mov    $0x0,%eax
   12837:	98                   	cwtl   
   12838:	48 8b 15 69 d3 00 00 	mov    0xd369(%rip),%rdx        # 1fba8 <g_60>
   1283f:	66 c7 02 fe ff       	movw   $0xfffe,(%rdx)
   12844:	89 c6                	mov    %eax,%esi
   12846:	bf fe ff ff ff       	mov    $0xfffffffe,%edi
   1284b:	e8 05 5c ff ff       	callq  8455 <safe_div_func_int16_t_s_s>
   12850:	b9 00 00 00 00       	mov    $0x0,%ecx
   12855:	48 8b 85 38 ca ff ff 	mov    -0x35c8(%rbp),%rax
   1285c:	48 8b 00             	mov    (%rax),%rax
   1285f:	8b 10                	mov    (%rax),%edx
   12861:	48 8b 85 38 ca ff ff 	mov    -0x35c8(%rbp),%rax
   12868:	48 8b 00             	mov    (%rax),%rax
   1286b:	21 ca                	and    %ecx,%edx
   1286d:	89 10                	mov    %edx,(%rax)
   1286f:	c7 85 58 c9 ff ff 00 	movl   $0x0,-0x36a8(%rbp)
   12876:	00 00 00 
   12879:	8b 85 58 c9 ff ff    	mov    -0x36a8(%rbp),%eax
   1287f:	89 05 17 b9 00 00    	mov    %eax,0xb917(%rip)        # 1e19c <g_75+0x15c>
   12885:	e9 66 33 00 00       	jmpq   15bf0 <func_56+0x6641>
   1288a:	48 8d 85 e0 d6 ff ff 	lea    -0x2920(%rbp),%rax
   12891:	48 8d 15 68 79 00 00 	lea    0x7968(%rip),%rdx        # 1a200 <g_314+0x115a>
   12898:	b9 7a 00 00 00       	mov    $0x7a,%ecx
   1289d:	48 89 c7             	mov    %rax,%rdi
   128a0:	48 89 d6             	mov    %rdx,%rsi
   128a3:	f3 48 a5             	rep movsq %ds:(%rsi),%es:(%rdi)
   128a6:	48 89 f2             	mov    %rsi,%rdx
   128a9:	48 89 f8             	mov    %rdi,%rax
   128ac:	8b 0a                	mov    (%rdx),%ecx
   128ae:	89 08                	mov    %ecx,(%rax)
   128b0:	48 8d 40 04          	lea    0x4(%rax),%rax
   128b4:	48 8d 52 04          	lea    0x4(%rdx),%rdx
   128b8:	c7 85 20 cd ff ff 8a 	movl   $0x43fa188a,-0x32e0(%rbp)
   128bf:	18 fa 43 
   128c2:	c7 85 24 cd ff ff fe 	movl   $0xfffffffe,-0x32dc(%rbp)
   128c9:	ff ff ff 
   128cc:	c7 85 28 cd ff ff 8a 	movl   $0x43fa188a,-0x32d8(%rbp)
   128d3:	18 fa 43 
   128d6:	c7 85 2c cd ff ff 8a 	movl   $0x43fa188a,-0x32d4(%rbp)
   128dd:	18 fa 43 
   128e0:	c7 85 30 cd ff ff fe 	movl   $0xfffffffe,-0x32d0(%rbp)
   128e7:	ff ff ff 
   128ea:	c7 85 34 cd ff ff 8a 	movl   $0x43fa188a,-0x32cc(%rbp)
   128f1:	18 fa 43 
   128f4:	48 8d 05 b5 ba 00 00 	lea    0xbab5(%rip),%rax        # 1e3b0 <g_734>
   128fb:	48 89 85 78 cb ff ff 	mov    %rax,-0x3488(%rbp)
   12902:	48 b8 25 45 0d ba f9 	movabs $0x231914f9ba0d4525,%rax
   12909:	14 19 23 
   1290c:	48 89 85 80 cb ff ff 	mov    %rax,-0x3480(%rbp)
   12913:	48 8d 85 10 cf ff ff 	lea    -0x30f0(%rbp),%rax
   1291a:	48 83 c0 40          	add    $0x40,%rax
   1291e:	48 89 85 30 d3 ff ff 	mov    %rax,-0x2cd0(%rbp)
   12925:	48 8d 85 10 cf ff ff 	lea    -0x30f0(%rbp),%rax
   1292c:	48 83 c0 40          	add    $0x40,%rax
   12930:	48 89 85 38 d3 ff ff 	mov    %rax,-0x2cc8(%rbp)
   12937:	48 8d 85 10 ca ff ff 	lea    -0x35f0(%rbp),%rax
   1293e:	48 89 85 40 d3 ff ff 	mov    %rax,-0x2cc0(%rbp)
   12945:	48 c7 85 48 d3 ff ff 	movq   $0x0,-0x2cb8(%rbp)
   1294c:	00 00 00 00 
   12950:	48 c7 85 50 d3 ff ff 	movq   $0x0,-0x2cb0(%rbp)
   12957:	00 00 00 00 
   1295b:	48 8d 85 10 ca ff ff 	lea    -0x35f0(%rbp),%rax
   12962:	48 89 85 58 d3 ff ff 	mov    %rax,-0x2ca8(%rbp)
   12969:	48 c7 85 60 d3 ff ff 	movq   $0x0,-0x2ca0(%rbp)
   12970:	00 00 00 00 
   12974:	48 c7 85 68 d3 ff ff 	movq   $0x0,-0x2c98(%rbp)
   1297b:	00 00 00 00 
   1297f:	48 8d 85 10 ca ff ff 	lea    -0x35f0(%rbp),%rax
   12986:	48 89 85 70 d3 ff ff 	mov    %rax,-0x2c90(%rbp)
   1298d:	48 8d 85 10 cf ff ff 	lea    -0x30f0(%rbp),%rax
   12994:	48 83 c0 40          	add    $0x40,%rax
   12998:	48 89 85 78 d3 ff ff 	mov    %rax,-0x2c88(%rbp)
   1299f:	48 8d 85 10 cf ff ff 	lea    -0x30f0(%rbp),%rax
   129a6:	48 83 c0 40          	add    $0x40,%rax
   129aa:	48 89 85 80 d3 ff ff 	mov    %rax,-0x2c80(%rbp)
   129b1:	48 8d 85 10 cf ff ff 	lea    -0x30f0(%rbp),%rax
   129b8:	48 83 c0 40          	add    $0x40,%rax
   129bc:	48 89 85 88 d3 ff ff 	mov    %rax,-0x2c78(%rbp)
   129c3:	48 c7 85 90 d3 ff ff 	movq   $0x0,-0x2c70(%rbp)
   129ca:	00 00 00 00 
   129ce:	48 8d 85 10 cf ff ff 	lea    -0x30f0(%rbp),%rax
   129d5:	48 83 c0 40          	add    $0x40,%rax
   129d9:	48 89 85 98 d3 ff ff 	mov    %rax,-0x2c68(%rbp)
   129e0:	48 8d 85 10 cf ff ff 	lea    -0x30f0(%rbp),%rax
   129e7:	48 83 c0 40          	add    $0x40,%rax
   129eb:	48 89 85 a0 d3 ff ff 	mov    %rax,-0x2c60(%rbp)
   129f2:	48 c7 85 a8 d3 ff ff 	movq   $0x0,-0x2c58(%rbp)
   129f9:	00 00 00 00 
   129fd:	48 8d 85 10 cf ff ff 	lea    -0x30f0(%rbp),%rax
   12a04:	48 83 c0 40          	add    $0x40,%rax
   12a08:	48 89 85 b0 d3 ff ff 	mov    %rax,-0x2c50(%rbp)
   12a0f:	48 8d 85 10 ca ff ff 	lea    -0x35f0(%rbp),%rax
   12a16:	48 89 85 b8 d3 ff ff 	mov    %rax,-0x2c48(%rbp)
   12a1d:	48 8d 85 10 cf ff ff 	lea    -0x30f0(%rbp),%rax
   12a24:	48 83 c0 40          	add    $0x40,%rax
   12a28:	48 89 85 c0 d3 ff ff 	mov    %rax,-0x2c40(%rbp)
   12a2f:	48 c7 85 c8 d3 ff ff 	movq   $0x0,-0x2c38(%rbp)
   12a36:	00 00 00 00 
   12a3a:	48 8d 85 10 cf ff ff 	lea    -0x30f0(%rbp),%rax
   12a41:	48 83 c0 40          	add    $0x40,%rax
   12a45:	48 89 85 d0 d3 ff ff 	mov    %rax,-0x2c30(%rbp)
   12a4c:	48 8d 85 10 cf ff ff 	lea    -0x30f0(%rbp),%rax
   12a53:	48 83 c0 40          	add    $0x40,%rax
   12a57:	48 89 85 d8 d3 ff ff 	mov    %rax,-0x2c28(%rbp)
   12a5e:	48 c7 85 e0 d3 ff ff 	movq   $0x0,-0x2c20(%rbp)
   12a65:	00 00 00 00 
   12a69:	48 8d 85 10 cf ff ff 	lea    -0x30f0(%rbp),%rax
   12a70:	48 83 c0 40          	add    $0x40,%rax
   12a74:	48 89 85 e8 d3 ff ff 	mov    %rax,-0x2c18(%rbp)
   12a7b:	48 8d 85 10 cf ff ff 	lea    -0x30f0(%rbp),%rax
   12a82:	48 83 c0 40          	add    $0x40,%rax
   12a86:	48 89 85 f0 d3 ff ff 	mov    %rax,-0x2c10(%rbp)
   12a8d:	48 8d 85 10 cf ff ff 	lea    -0x30f0(%rbp),%rax
   12a94:	48 83 c0 40          	add    $0x40,%rax
   12a98:	48 89 85 f8 d3 ff ff 	mov    %rax,-0x2c08(%rbp)
   12a9f:	48 8d 85 10 ca ff ff 	lea    -0x35f0(%rbp),%rax
   12aa6:	48 89 85 00 d4 ff ff 	mov    %rax,-0x2c00(%rbp)
   12aad:	48 c7 85 08 d4 ff ff 	movq   $0x0,-0x2bf8(%rbp)
   12ab4:	00 00 00 00 
   12ab8:	48 c7 85 10 d4 ff ff 	movq   $0x0,-0x2bf0(%rbp)
   12abf:	00 00 00 00 
   12ac3:	48 8d 85 10 ca ff ff 	lea    -0x35f0(%rbp),%rax
   12aca:	48 89 85 18 d4 ff ff 	mov    %rax,-0x2be8(%rbp)
   12ad1:	48 c7 85 20 d4 ff ff 	movq   $0x0,-0x2be0(%rbp)
   12ad8:	00 00 00 00 
   12adc:	48 c7 85 28 d4 ff ff 	movq   $0x0,-0x2bd8(%rbp)
   12ae3:	00 00 00 00 
   12ae7:	48 8d 85 10 ca ff ff 	lea    -0x35f0(%rbp),%rax
   12aee:	48 89 85 30 d4 ff ff 	mov    %rax,-0x2bd0(%rbp)
   12af5:	48 8d 85 10 cf ff ff 	lea    -0x30f0(%rbp),%rax
   12afc:	48 83 c0 40          	add    $0x40,%rax
   12b00:	48 89 85 38 d4 ff ff 	mov    %rax,-0x2bc8(%rbp)
   12b07:	48 8d 85 10 cf ff ff 	lea    -0x30f0(%rbp),%rax
   12b0e:	48 83 c0 40          	add    $0x40,%rax
   12b12:	48 89 85 40 d4 ff ff 	mov    %rax,-0x2bc0(%rbp)
   12b19:	48 8d 85 10 cf ff ff 	lea    -0x30f0(%rbp),%rax
   12b20:	48 83 c0 40          	add    $0x40,%rax
   12b24:	48 89 85 48 d4 ff ff 	mov    %rax,-0x2bb8(%rbp)
   12b2b:	48 c7 85 50 d4 ff ff 	movq   $0x0,-0x2bb0(%rbp)
   12b32:	00 00 00 00 
   12b36:	48 8d 85 10 cf ff ff 	lea    -0x30f0(%rbp),%rax
   12b3d:	48 83 c0 40          	add    $0x40,%rax
   12b41:	48 89 85 58 d4 ff ff 	mov    %rax,-0x2ba8(%rbp)
   12b48:	48 8d 85 10 cf ff ff 	lea    -0x30f0(%rbp),%rax
   12b4f:	48 83 c0 40          	add    $0x40,%rax
   12b53:	48 89 85 60 d4 ff ff 	mov    %rax,-0x2ba0(%rbp)
   12b5a:	48 c7 85 68 d4 ff ff 	movq   $0x0,-0x2b98(%rbp)
   12b61:	00 00 00 00 
   12b65:	48 8d 85 10 cf ff ff 	lea    -0x30f0(%rbp),%rax
   12b6c:	48 83 c0 40          	add    $0x40,%rax
   12b70:	48 89 85 70 d4 ff ff 	mov    %rax,-0x2b90(%rbp)
   12b77:	48 8d 85 10 ca ff ff 	lea    -0x35f0(%rbp),%rax
   12b7e:	48 89 85 78 d4 ff ff 	mov    %rax,-0x2b88(%rbp)
   12b85:	48 8d 85 10 cf ff ff 	lea    -0x30f0(%rbp),%rax
   12b8c:	48 83 c0 40          	add    $0x40,%rax
   12b90:	48 89 85 80 d4 ff ff 	mov    %rax,-0x2b80(%rbp)
   12b97:	48 c7 85 88 d4 ff ff 	movq   $0x0,-0x2b78(%rbp)
   12b9e:	00 00 00 00 
   12ba2:	48 8d 85 10 cf ff ff 	lea    -0x30f0(%rbp),%rax
   12ba9:	48 83 c0 40          	add    $0x40,%rax
   12bad:	48 89 85 90 d4 ff ff 	mov    %rax,-0x2b70(%rbp)
   12bb4:	48 8d 85 10 cf ff ff 	lea    -0x30f0(%rbp),%rax
   12bbb:	48 83 c0 40          	add    $0x40,%rax
   12bbf:	48 89 85 98 d4 ff ff 	mov    %rax,-0x2b68(%rbp)
   12bc6:	48 c7 85 a0 d4 ff ff 	movq   $0x0,-0x2b60(%rbp)
   12bcd:	00 00 00 00 
   12bd1:	48 8d 85 10 cf ff ff 	lea    -0x30f0(%rbp),%rax
   12bd8:	48 83 c0 40          	add    $0x40,%rax
   12bdc:	48 89 85 a8 d4 ff ff 	mov    %rax,-0x2b58(%rbp)
   12be3:	48 8d 85 10 cf ff ff 	lea    -0x30f0(%rbp),%rax
   12bea:	48 05 88 00 00 00    	add    $0x88,%rax
   12bf0:	48 89 85 60 e9 ff ff 	mov    %rax,-0x16a0(%rbp)
   12bf7:	48 8d 85 10 cf ff ff 	lea    -0x30f0(%rbp),%rax
   12bfe:	48 83 c0 40          	add    $0x40,%rax
   12c02:	48 89 85 68 e9 ff ff 	mov    %rax,-0x1698(%rbp)
   12c09:	48 8d 85 10 cf ff ff 	lea    -0x30f0(%rbp),%rax
   12c10:	48 83 c0 18          	add    $0x18,%rax
   12c14:	48 89 85 70 e9 ff ff 	mov    %rax,-0x1690(%rbp)
   12c1b:	48 8d 85 10 cf ff ff 	lea    -0x30f0(%rbp),%rax
   12c22:	48 83 c0 18          	add    $0x18,%rax
   12c26:	48 89 85 78 e9 ff ff 	mov    %rax,-0x1688(%rbp)
   12c2d:	48 8d 85 10 cf ff ff 	lea    -0x30f0(%rbp),%rax
   12c34:	48 83 c0 40          	add    $0x40,%rax
   12c38:	48 89 85 80 e9 ff ff 	mov    %rax,-0x1680(%rbp)
   12c3f:	48 8d 05 6a cf 00 00 	lea    0xcf6a(%rip),%rax        # 1fbb0 <g_134>
   12c46:	48 89 85 88 e9 ff ff 	mov    %rax,-0x1678(%rbp)
   12c4d:	48 c7 85 90 e9 ff ff 	movq   $0x0,-0x1670(%rbp)
   12c54:	00 00 00 00 
   12c58:	48 8d 85 10 ca ff ff 	lea    -0x35f0(%rbp),%rax
   12c5f:	48 89 85 98 e9 ff ff 	mov    %rax,-0x1668(%rbp)
   12c66:	48 8d 85 10 cf ff ff 	lea    -0x30f0(%rbp),%rax
   12c6d:	48 83 c0 08          	add    $0x8,%rax
   12c71:	48 89 85 a0 e9 ff ff 	mov    %rax,-0x1660(%rbp)
   12c78:	48 8d 85 10 cf ff ff 	lea    -0x30f0(%rbp),%rax
   12c7f:	48 83 c0 18          	add    $0x18,%rax
   12c83:	48 89 85 a8 e9 ff ff 	mov    %rax,-0x1658(%rbp)
   12c8a:	48 8d 05 1f cf 00 00 	lea    0xcf1f(%rip),%rax        # 1fbb0 <g_134>
   12c91:	48 89 85 b0 e9 ff ff 	mov    %rax,-0x1650(%rbp)
   12c98:	48 8d 85 10 cf ff ff 	lea    -0x30f0(%rbp),%rax
   12c9f:	48 83 c0 08          	add    $0x8,%rax
   12ca3:	48 89 85 b8 e9 ff ff 	mov    %rax,-0x1648(%rbp)
   12caa:	48 8d 05 ff ce 00 00 	lea    0xceff(%rip),%rax        # 1fbb0 <g_134>
   12cb1:	48 89 85 c0 e9 ff ff 	mov    %rax,-0x1640(%rbp)
   12cb8:	48 8d 05 f1 ce 00 00 	lea    0xcef1(%rip),%rax        # 1fbb0 <g_134>
   12cbf:	48 89 85 c8 e9 ff ff 	mov    %rax,-0x1638(%rbp)
   12cc6:	48 8d 85 10 cf ff ff 	lea    -0x30f0(%rbp),%rax
   12ccd:	48 83 c0 78          	add    $0x78,%rax
   12cd1:	48 89 85 d0 e9 ff ff 	mov    %rax,-0x1630(%rbp)
   12cd8:	48 8d 85 10 ca ff ff 	lea    -0x35f0(%rbp),%rax
   12cdf:	48 89 85 d8 e9 ff ff 	mov    %rax,-0x1628(%rbp)
   12ce6:	48 8d 85 10 ca ff ff 	lea    -0x35f0(%rbp),%rax
   12ced:	48 89 85 e0 e9 ff ff 	mov    %rax,-0x1620(%rbp)
   12cf4:	48 8d 05 b5 ce 00 00 	lea    0xceb5(%rip),%rax        # 1fbb0 <g_134>
   12cfb:	48 89 85 e8 e9 ff ff 	mov    %rax,-0x1618(%rbp)
   12d02:	48 8d 85 10 cf ff ff 	lea    -0x30f0(%rbp),%rax
   12d09:	48 83 c0 40          	add    $0x40,%rax
   12d0d:	48 89 85 f0 e9 ff ff 	mov    %rax,-0x1610(%rbp)
   12d14:	48 8d 85 10 cf ff ff 	lea    -0x30f0(%rbp),%rax
   12d1b:	48 05 88 00 00 00    	add    $0x88,%rax
   12d21:	48 89 85 f8 e9 ff ff 	mov    %rax,-0x1608(%rbp)
   12d28:	48 8d 85 10 cf ff ff 	lea    -0x30f0(%rbp),%rax
   12d2f:	48 83 c0 30          	add    $0x30,%rax
   12d33:	48 89 85 00 ea ff ff 	mov    %rax,-0x1600(%rbp)
   12d3a:	48 8d 85 10 cf ff ff 	lea    -0x30f0(%rbp),%rax
   12d41:	48 83 c0 70          	add    $0x70,%rax
   12d45:	48 89 85 08 ea ff ff 	mov    %rax,-0x15f8(%rbp)
   12d4c:	48 8d 05 5d ce 00 00 	lea    0xce5d(%rip),%rax        # 1fbb0 <g_134>
   12d53:	48 89 85 10 ea ff ff 	mov    %rax,-0x15f0(%rbp)
   12d5a:	48 8d 85 10 cf ff ff 	lea    -0x30f0(%rbp),%rax
   12d61:	48 83 c0 30          	add    $0x30,%rax
   12d65:	48 89 85 18 ea ff ff 	mov    %rax,-0x15e8(%rbp)
   12d6c:	48 8d 85 10 cf ff ff 	lea    -0x30f0(%rbp),%rax
   12d73:	48 83 c0 40          	add    $0x40,%rax
   12d77:	48 89 85 20 ea ff ff 	mov    %rax,-0x15e0(%rbp)
   12d7e:	48 8d 85 10 cf ff ff 	lea    -0x30f0(%rbp),%rax
   12d85:	48 83 c0 18          	add    $0x18,%rax
   12d89:	48 89 85 28 ea ff ff 	mov    %rax,-0x15d8(%rbp)
   12d90:	48 8d 05 29 ce 00 00 	lea    0xce29(%rip),%rax        # 1fbc0 <g_143>
   12d97:	48 89 85 30 ea ff ff 	mov    %rax,-0x15d0(%rbp)
   12d9e:	48 8d 05 1b ce 00 00 	lea    0xce1b(%rip),%rax        # 1fbc0 <g_143>
   12da5:	48 89 85 38 ea ff ff 	mov    %rax,-0x15c8(%rbp)
   12dac:	48 8d 85 10 ca ff ff 	lea    -0x35f0(%rbp),%rax
   12db3:	48 89 85 40 ea ff ff 	mov    %rax,-0x15c0(%rbp)
   12dba:	48 8d 85 10 ca ff ff 	lea    -0x35f0(%rbp),%rax
   12dc1:	48 89 85 48 ea ff ff 	mov    %rax,-0x15b8(%rbp)
   12dc8:	48 c7 85 50 ea ff ff 	movq   $0x0,-0x15b0(%rbp)
   12dcf:	00 00 00 00 
   12dd3:	48 8d 05 e6 cd 00 00 	lea    0xcde6(%rip),%rax        # 1fbc0 <g_143>
   12dda:	48 89 85 58 ea ff ff 	mov    %rax,-0x15a8(%rbp)
   12de1:	48 c7 85 60 ea ff ff 	movq   $0x0,-0x15a0(%rbp)
   12de8:	00 00 00 00 
   12dec:	48 8d 85 10 cf ff ff 	lea    -0x30f0(%rbp),%rax
   12df3:	48 83 c0 40          	add    $0x40,%rax
   12df7:	48 89 85 68 ea ff ff 	mov    %rax,-0x1598(%rbp)
   12dfe:	48 8d 85 10 cf ff ff 	lea    -0x30f0(%rbp),%rax
   12e05:	48 83 c0 30          	add    $0x30,%rax
   12e09:	48 89 85 70 ea ff ff 	mov    %rax,-0x1590(%rbp)
   12e10:	48 8d 85 10 ca ff ff 	lea    -0x35f0(%rbp),%rax
   12e17:	48 89 85 78 ea ff ff 	mov    %rax,-0x1588(%rbp)
   12e1e:	48 8d 85 10 cf ff ff 	lea    -0x30f0(%rbp),%rax
   12e25:	48 83 c0 70          	add    $0x70,%rax
   12e29:	48 89 85 80 ea ff ff 	mov    %rax,-0x1580(%rbp)
   12e30:	48 8d 85 10 cf ff ff 	lea    -0x30f0(%rbp),%rax
   12e37:	48 83 c0 40          	add    $0x40,%rax
   12e3b:	48 89 85 88 ea ff ff 	mov    %rax,-0x1578(%rbp)
   12e42:	48 8d 85 10 cf ff ff 	lea    -0x30f0(%rbp),%rax
   12e49:	48 05 88 00 00 00    	add    $0x88,%rax
   12e4f:	48 89 85 90 ea ff ff 	mov    %rax,-0x1570(%rbp)
   12e56:	48 8d 85 10 cf ff ff 	lea    -0x30f0(%rbp),%rax
   12e5d:	48 83 c0 40          	add    $0x40,%rax
   12e61:	48 89 85 98 ea ff ff 	mov    %rax,-0x1568(%rbp)
   12e68:	48 8d 85 10 cf ff ff 	lea    -0x30f0(%rbp),%rax
   12e6f:	48 05 88 00 00 00    	add    $0x88,%rax
   12e75:	48 89 85 a0 ea ff ff 	mov    %rax,-0x1560(%rbp)
   12e7c:	48 8d 85 10 ca ff ff 	lea    -0x35f0(%rbp),%rax
   12e83:	48 89 85 a8 ea ff ff 	mov    %rax,-0x1558(%rbp)
   12e8a:	48 8d 85 10 cf ff ff 	lea    -0x30f0(%rbp),%rax
   12e91:	48 83 c0 60          	add    $0x60,%rax
   12e95:	48 89 85 b0 ea ff ff 	mov    %rax,-0x1550(%rbp)
   12e9c:	48 c7 85 b8 ea ff ff 	movq   $0x0,-0x1548(%rbp)
   12ea3:	00 00 00 00 
   12ea7:	48 8d 85 10 cf ff ff 	lea    -0x30f0(%rbp),%rax
   12eae:	48 83 c0 18          	add    $0x18,%rax
   12eb2:	48 89 85 c0 ea ff ff 	mov    %rax,-0x1540(%rbp)
   12eb9:	48 c7 85 c8 ea ff ff 	movq   $0x0,-0x1538(%rbp)
   12ec0:	00 00 00 00 
   12ec4:	48 c7 85 d0 ea ff ff 	movq   $0x0,-0x1530(%rbp)
   12ecb:	00 00 00 00 
   12ecf:	48 8d 85 10 cf ff ff 	lea    -0x30f0(%rbp),%rax
   12ed6:	48 83 c0 40          	add    $0x40,%rax
   12eda:	48 89 85 d8 ea ff ff 	mov    %rax,-0x1528(%rbp)
   12ee1:	48 8d 85 10 cf ff ff 	lea    -0x30f0(%rbp),%rax
   12ee8:	48 83 c0 40          	add    $0x40,%rax
   12eec:	48 89 85 e0 ea ff ff 	mov    %rax,-0x1520(%rbp)
   12ef3:	48 c7 85 e8 ea ff ff 	movq   $0x0,-0x1518(%rbp)
   12efa:	00 00 00 00 
   12efe:	48 c7 85 f0 ea ff ff 	movq   $0x0,-0x1510(%rbp)
   12f05:	00 00 00 00 
   12f09:	48 8d 05 a0 cc 00 00 	lea    0xcca0(%rip),%rax        # 1fbb0 <g_134>
   12f10:	48 89 85 f8 ea ff ff 	mov    %rax,-0x1508(%rbp)
   12f17:	48 c7 85 00 eb ff ff 	movq   $0x0,-0x1500(%rbp)
   12f1e:	00 00 00 00 
   12f22:	48 c7 85 08 eb ff ff 	movq   $0x0,-0x14f8(%rbp)
   12f29:	00 00 00 00 
   12f2d:	48 8d 85 10 cf ff ff 	lea    -0x30f0(%rbp),%rax
   12f34:	48 83 c0 40          	add    $0x40,%rax
   12f38:	48 89 85 10 eb ff ff 	mov    %rax,-0x14f0(%rbp)
   12f3f:	48 8d 05 7a cc 00 00 	lea    0xcc7a(%rip),%rax        # 1fbc0 <g_143>
   12f46:	48 89 85 18 eb ff ff 	mov    %rax,-0x14e8(%rbp)
   12f4d:	48 c7 85 20 eb ff ff 	movq   $0x0,-0x14e0(%rbp)
   12f54:	00 00 00 00 
   12f58:	48 8d 05 61 cc 00 00 	lea    0xcc61(%rip),%rax        # 1fbc0 <g_143>
   12f5f:	48 89 85 28 eb ff ff 	mov    %rax,-0x14d8(%rbp)
   12f66:	48 c7 85 30 eb ff ff 	movq   $0x0,-0x14d0(%rbp)
   12f6d:	00 00 00 00 
   12f71:	48 8d 05 48 cc 00 00 	lea    0xcc48(%rip),%rax        # 1fbc0 <g_143>
   12f78:	48 89 85 38 eb ff ff 	mov    %rax,-0x14c8(%rbp)
   12f7f:	48 c7 85 40 eb ff ff 	movq   $0x0,-0x14c0(%rbp)
   12f86:	00 00 00 00 
   12f8a:	48 8d 85 10 cf ff ff 	lea    -0x30f0(%rbp),%rax
   12f91:	48 05 88 00 00 00    	add    $0x88,%rax
   12f97:	48 89 85 48 eb ff ff 	mov    %rax,-0x14b8(%rbp)
   12f9e:	48 8d 05 0b cc 00 00 	lea    0xcc0b(%rip),%rax        # 1fbb0 <g_134>
   12fa5:	48 89 85 50 eb ff ff 	mov    %rax,-0x14b0(%rbp)
   12fac:	48 8d 85 10 cf ff ff 	lea    -0x30f0(%rbp),%rax
   12fb3:	48 83 c0 40          	add    $0x40,%rax
   12fb7:	48 89 85 58 eb ff ff 	mov    %rax,-0x14a8(%rbp)
   12fbe:	48 8d 85 10 ca ff ff 	lea    -0x35f0(%rbp),%rax
   12fc5:	48 89 85 60 eb ff ff 	mov    %rax,-0x14a0(%rbp)
   12fcc:	48 c7 85 68 eb ff ff 	movq   $0x0,-0x1498(%rbp)
   12fd3:	00 00 00 00 
   12fd7:	48 8d 85 10 cf ff ff 	lea    -0x30f0(%rbp),%rax
   12fde:	48 83 c0 70          	add    $0x70,%rax
   12fe2:	48 89 85 70 eb ff ff 	mov    %rax,-0x1490(%rbp)
   12fe9:	48 8d 05 c0 cb 00 00 	lea    0xcbc0(%rip),%rax        # 1fbb0 <g_134>
   12ff0:	48 89 85 78 eb ff ff 	mov    %rax,-0x1488(%rbp)
   12ff7:	48 c7 85 80 eb ff ff 	movq   $0x0,-0x1480(%rbp)
   12ffe:	00 00 00 00 
   13002:	48 8d 85 10 cf ff ff 	lea    -0x30f0(%rbp),%rax
   13009:	48 83 c0 40          	add    $0x40,%rax
   1300d:	48 89 85 88 eb ff ff 	mov    %rax,-0x1478(%rbp)
   13014:	48 c7 85 90 eb ff ff 	movq   $0x0,-0x1470(%rbp)
   1301b:	00 00 00 00 
   1301f:	48 8d 85 10 cf ff ff 	lea    -0x30f0(%rbp),%rax
   13026:	48 83 c0 30          	add    $0x30,%rax
   1302a:	48 89 85 98 eb ff ff 	mov    %rax,-0x1468(%rbp)
   13031:	48 8d 05 88 cb 00 00 	lea    0xcb88(%rip),%rax        # 1fbc0 <g_143>
   13038:	48 89 85 a0 eb ff ff 	mov    %rax,-0x1460(%rbp)
   1303f:	48 8d 85 10 cf ff ff 	lea    -0x30f0(%rbp),%rax
   13046:	48 05 88 00 00 00    	add    $0x88,%rax
   1304c:	48 89 85 a8 eb ff ff 	mov    %rax,-0x1458(%rbp)
   13053:	48 8d 85 10 ca ff ff 	lea    -0x35f0(%rbp),%rax
   1305a:	48 89 85 b0 eb ff ff 	mov    %rax,-0x1450(%rbp)
   13061:	48 c7 85 b8 eb ff ff 	movq   $0x0,-0x1448(%rbp)
   13068:	00 00 00 00 
   1306c:	48 c7 85 c0 eb ff ff 	movq   $0x0,-0x1440(%rbp)
   13073:	00 00 00 00 
   13077:	48 c7 85 c8 eb ff ff 	movq   $0x0,-0x1438(%rbp)
   1307e:	00 00 00 00 
   13082:	48 8d 85 10 cf ff ff 	lea    -0x30f0(%rbp),%rax
   13089:	48 83 c0 40          	add    $0x40,%rax
   1308d:	48 89 85 d0 eb ff ff 	mov    %rax,-0x1430(%rbp)
   13094:	48 8d 05 25 cb 00 00 	lea    0xcb25(%rip),%rax        # 1fbc0 <g_143>
   1309b:	48 89 85 d8 eb ff ff 	mov    %rax,-0x1428(%rbp)
   130a2:	48 8d 85 10 ca ff ff 	lea    -0x35f0(%rbp),%rax
   130a9:	48 89 85 e0 eb ff ff 	mov    %rax,-0x1420(%rbp)
   130b0:	48 8d 85 10 cf ff ff 	lea    -0x30f0(%rbp),%rax
   130b7:	48 83 c0 70          	add    $0x70,%rax
   130bb:	48 89 85 e8 eb ff ff 	mov    %rax,-0x1418(%rbp)
   130c2:	48 8d 85 10 cf ff ff 	lea    -0x30f0(%rbp),%rax
   130c9:	48 83 c0 40          	add    $0x40,%rax
   130cd:	48 89 85 f0 eb ff ff 	mov    %rax,-0x1410(%rbp)
   130d4:	48 8d 85 10 ca ff ff 	lea    -0x35f0(%rbp),%rax
   130db:	48 89 85 f8 eb ff ff 	mov    %rax,-0x1408(%rbp)
   130e2:	48 8d 85 10 cf ff ff 	lea    -0x30f0(%rbp),%rax
   130e9:	48 83 c0 40          	add    $0x40,%rax
   130ed:	48 89 85 00 ec ff ff 	mov    %rax,-0x1400(%rbp)
   130f4:	48 8d 85 10 ca ff ff 	lea    -0x35f0(%rbp),%rax
   130fb:	48 89 85 08 ec ff ff 	mov    %rax,-0x13f8(%rbp)
   13102:	48 8d 85 10 ca ff ff 	lea    -0x35f0(%rbp),%rax
   13109:	48 89 85 10 ec ff ff 	mov    %rax,-0x13f0(%rbp)
   13110:	48 8d 85 10 cf ff ff 	lea    -0x30f0(%rbp),%rax
   13117:	48 83 c0 60          	add    $0x60,%rax
   1311b:	48 89 85 18 ec ff ff 	mov    %rax,-0x13e8(%rbp)
   13122:	48 8d 85 10 cf ff ff 	lea    -0x30f0(%rbp),%rax
   13129:	48 83 c0 30          	add    $0x30,%rax
   1312d:	48 89 85 20 ec ff ff 	mov    %rax,-0x13e0(%rbp)
   13134:	48 c7 85 28 ec ff ff 	movq   $0x0,-0x13d8(%rbp)
   1313b:	00 00 00 00 
   1313f:	48 c7 85 30 ec ff ff 	movq   $0x0,-0x13d0(%rbp)
   13146:	00 00 00 00 
   1314a:	48 8d 85 10 cf ff ff 	lea    -0x30f0(%rbp),%rax
   13151:	48 83 c0 18          	add    $0x18,%rax
   13155:	48 89 85 38 ec ff ff 	mov    %rax,-0x13c8(%rbp)
   1315c:	48 c7 85 40 ec ff ff 	movq   $0x0,-0x13c0(%rbp)
   13163:	00 00 00 00 
   13167:	48 8d 85 10 cf ff ff 	lea    -0x30f0(%rbp),%rax
   1316e:	48 83 c0 40          	add    $0x40,%rax
   13172:	48 89 85 48 ec ff ff 	mov    %rax,-0x13b8(%rbp)
   13179:	48 8d 85 10 cf ff ff 	lea    -0x30f0(%rbp),%rax
   13180:	48 83 c0 18          	add    $0x18,%rax
   13184:	48 89 85 50 ec ff ff 	mov    %rax,-0x13b0(%rbp)
   1318b:	48 c7 85 58 ec ff ff 	movq   $0x0,-0x13a8(%rbp)
   13192:	00 00 00 00 
   13196:	48 8d 05 13 ca 00 00 	lea    0xca13(%rip),%rax        # 1fbb0 <g_134>
   1319d:	48 89 85 60 ec ff ff 	mov    %rax,-0x13a0(%rbp)
   131a4:	48 8d 05 05 ca 00 00 	lea    0xca05(%rip),%rax        # 1fbb0 <g_134>
   131ab:	48 89 85 68 ec ff ff 	mov    %rax,-0x1398(%rbp)
   131b2:	48 8d 85 10 cf ff ff 	lea    -0x30f0(%rbp),%rax
   131b9:	48 83 c0 18          	add    $0x18,%rax
   131bd:	48 89 85 70 ec ff ff 	mov    %rax,-0x1390(%rbp)
   131c4:	48 8d 85 10 cf ff ff 	lea    -0x30f0(%rbp),%rax
   131cb:	48 83 c0 40          	add    $0x40,%rax
   131cf:	48 89 85 78 ec ff ff 	mov    %rax,-0x1388(%rbp)
   131d6:	48 c7 85 80 ec ff ff 	movq   $0x0,-0x1380(%rbp)
   131dd:	00 00 00 00 
   131e1:	48 8d 85 10 cf ff ff 	lea    -0x30f0(%rbp),%rax
   131e8:	48 83 c0 18          	add    $0x18,%rax
   131ec:	48 89 85 88 ec ff ff 	mov    %rax,-0x1378(%rbp)
   131f3:	48 8d 05 c6 c9 00 00 	lea    0xc9c6(%rip),%rax        # 1fbc0 <g_143>
   131fa:	48 89 85 90 ec ff ff 	mov    %rax,-0x1370(%rbp)
   13201:	48 c7 85 98 ec ff ff 	movq   $0x0,-0x1368(%rbp)
   13208:	00 00 00 00 
   1320c:	48 8d 85 10 cf ff ff 	lea    -0x30f0(%rbp),%rax
   13213:	48 83 c0 30          	add    $0x30,%rax
   13217:	48 89 85 a0 ec ff ff 	mov    %rax,-0x1360(%rbp)
   1321e:	48 c7 85 a8 ec ff ff 	movq   $0x0,-0x1358(%rbp)
   13225:	00 00 00 00 
   13229:	48 8d 85 10 ca ff ff 	lea    -0x35f0(%rbp),%rax
   13230:	48 89 85 b0 ec ff ff 	mov    %rax,-0x1350(%rbp)
   13237:	48 8d 85 10 cf ff ff 	lea    -0x30f0(%rbp),%rax
   1323e:	48 83 c0 70          	add    $0x70,%rax
   13242:	48 89 85 b8 ec ff ff 	mov    %rax,-0x1348(%rbp)
   13249:	48 8d 85 10 cf ff ff 	lea    -0x30f0(%rbp),%rax
   13250:	48 83 c0 40          	add    $0x40,%rax
   13254:	48 89 85 c0 ec ff ff 	mov    %rax,-0x1340(%rbp)
   1325b:	48 8d 85 10 ca ff ff 	lea    -0x35f0(%rbp),%rax
   13262:	48 89 85 c8 ec ff ff 	mov    %rax,-0x1338(%rbp)
   13269:	48 8d 05 50 c9 00 00 	lea    0xc950(%rip),%rax        # 1fbc0 <g_143>
   13270:	48 89 85 d0 ec ff ff 	mov    %rax,-0x1330(%rbp)
   13277:	48 8d 85 10 cf ff ff 	lea    -0x30f0(%rbp),%rax
   1327e:	48 83 c0 70          	add    $0x70,%rax
   13282:	48 89 85 d8 ec ff ff 	mov    %rax,-0x1328(%rbp)
   13289:	48 8d 85 10 cf ff ff 	lea    -0x30f0(%rbp),%rax
   13290:	48 83 c0 70          	add    $0x70,%rax
   13294:	48 89 85 e0 ec ff ff 	mov    %rax,-0x1320(%rbp)
   1329b:	48 8d 05 1e c9 00 00 	lea    0xc91e(%rip),%rax        # 1fbc0 <g_143>
   132a2:	48 89 85 e8 ec ff ff 	mov    %rax,-0x1318(%rbp)
   132a9:	48 8d 85 10 cf ff ff 	lea    -0x30f0(%rbp),%rax
   132b0:	48 83 c0 40          	add    $0x40,%rax
   132b4:	48 89 85 f0 ec ff ff 	mov    %rax,-0x1310(%rbp)
   132bb:	48 c7 85 f8 ec ff ff 	movq   $0x0,-0x1308(%rbp)
   132c2:	00 00 00 00 
   132c6:	48 c7 85 00 ed ff ff 	movq   $0x0,-0x1300(%rbp)
   132cd:	00 00 00 00 
   132d1:	48 8d 05 e8 c8 00 00 	lea    0xc8e8(%rip),%rax        # 1fbc0 <g_143>
   132d8:	48 89 85 08 ed ff ff 	mov    %rax,-0x12f8(%rbp)
   132df:	48 8d 85 10 ca ff ff 	lea    -0x35f0(%rbp),%rax
   132e6:	48 89 85 10 ed ff ff 	mov    %rax,-0x12f0(%rbp)
   132ed:	48 8d 85 10 cf ff ff 	lea    -0x30f0(%rbp),%rax
   132f4:	48 05 88 00 00 00    	add    $0x88,%rax
   132fa:	48 89 85 18 ed ff ff 	mov    %rax,-0x12e8(%rbp)
   13301:	48 c7 85 20 ed ff ff 	movq   $0x0,-0x12e0(%rbp)
   13308:	00 00 00 00 
   1330c:	48 8d 85 10 cf ff ff 	lea    -0x30f0(%rbp),%rax
   13313:	48 83 c0 30          	add    $0x30,%rax
   13317:	48 89 85 28 ed ff ff 	mov    %rax,-0x12d8(%rbp)
   1331e:	48 8d 05 8b c8 00 00 	lea    0xc88b(%rip),%rax        # 1fbb0 <g_134>
   13325:	48 89 85 30 ed ff ff 	mov    %rax,-0x12d0(%rbp)
   1332c:	48 8d 85 10 cf ff ff 	lea    -0x30f0(%rbp),%rax
   13333:	48 83 c0 40          	add    $0x40,%rax
   13337:	48 89 85 38 ed ff ff 	mov    %rax,-0x12c8(%rbp)
   1333e:	48 c7 85 40 ed ff ff 	movq   $0x0,-0x12c0(%rbp)
   13345:	00 00 00 00 
   13349:	48 8d 85 10 cf ff ff 	lea    -0x30f0(%rbp),%rax
   13350:	48 05 88 00 00 00    	add    $0x88,%rax
   13356:	48 89 85 48 ed ff ff 	mov    %rax,-0x12b8(%rbp)
   1335d:	48 8d 85 10 cf ff ff 	lea    -0x30f0(%rbp),%rax
   13364:	48 83 c0 70          	add    $0x70,%rax
   13368:	48 89 85 50 ed ff ff 	mov    %rax,-0x12b0(%rbp)
   1336f:	48 c7 85 58 ed ff ff 	movq   $0x0,-0x12a8(%rbp)
   13376:	00 00 00 00 
   1337a:	48 8d 85 10 ca ff ff 	lea    -0x35f0(%rbp),%rax
   13381:	48 89 85 60 ed ff ff 	mov    %rax,-0x12a0(%rbp)
   13388:	48 8d 85 10 cf ff ff 	lea    -0x30f0(%rbp),%rax
   1338f:	48 83 c0 40          	add    $0x40,%rax
   13393:	48 89 85 68 ed ff ff 	mov    %rax,-0x1298(%rbp)
   1339a:	48 8d 85 10 ca ff ff 	lea    -0x35f0(%rbp),%rax
   133a1:	48 89 85 70 ed ff ff 	mov    %rax,-0x1290(%rbp)
   133a8:	48 8d 85 10 cf ff ff 	lea    -0x30f0(%rbp),%rax
   133af:	48 05 88 00 00 00    	add    $0x88,%rax
   133b5:	48 89 85 78 ed ff ff 	mov    %rax,-0x1288(%rbp)
   133bc:	48 8d 85 10 cf ff ff 	lea    -0x30f0(%rbp),%rax
   133c3:	48 83 c0 60          	add    $0x60,%rax
   133c7:	48 89 85 80 ed ff ff 	mov    %rax,-0x1280(%rbp)
   133ce:	48 8d 05 eb c7 00 00 	lea    0xc7eb(%rip),%rax        # 1fbc0 <g_143>
   133d5:	48 89 85 88 ed ff ff 	mov    %rax,-0x1278(%rbp)
   133dc:	48 c7 85 90 ed ff ff 	movq   $0x0,-0x1270(%rbp)
   133e3:	00 00 00 00 
   133e7:	48 c7 85 98 ed ff ff 	movq   $0x0,-0x1268(%rbp)
   133ee:	00 00 00 00 
   133f2:	48 c7 85 a0 ed ff ff 	movq   $0x0,-0x1260(%rbp)
   133f9:	00 00 00 00 
   133fd:	48 8d 85 10 cf ff ff 	lea    -0x30f0(%rbp),%rax
   13404:	48 83 c0 40          	add    $0x40,%rax
   13408:	48 89 85 a8 ed ff ff 	mov    %rax,-0x1258(%rbp)
   1340f:	48 8d 85 10 cf ff ff 	lea    -0x30f0(%rbp),%rax
   13416:	48 83 c0 40          	add    $0x40,%rax
   1341a:	48 89 85 b0 ed ff ff 	mov    %rax,-0x1250(%rbp)
   13421:	48 c7 85 b8 ed ff ff 	movq   $0x0,-0x1248(%rbp)
   13428:	00 00 00 00 
   1342c:	48 8d 85 10 cf ff ff 	lea    -0x30f0(%rbp),%rax
   13433:	48 83 c0 18          	add    $0x18,%rax
   13437:	48 89 85 c0 ed ff ff 	mov    %rax,-0x1240(%rbp)
   1343e:	48 8d 05 6b c7 00 00 	lea    0xc76b(%rip),%rax        # 1fbb0 <g_134>
   13445:	48 89 85 c8 ed ff ff 	mov    %rax,-0x1238(%rbp)
   1344c:	48 c7 85 d0 ed ff ff 	movq   $0x0,-0x1230(%rbp)
   13453:	00 00 00 00 
   13457:	48 c7 85 d8 ed ff ff 	movq   $0x0,-0x1228(%rbp)
   1345e:	00 00 00 00 
   13462:	48 8d 85 10 cf ff ff 	lea    -0x30f0(%rbp),%rax
   13469:	48 83 c0 40          	add    $0x40,%rax
   1346d:	48 89 85 e0 ed ff ff 	mov    %rax,-0x1220(%rbp)
   13474:	48 8d 85 10 cf ff ff 	lea    -0x30f0(%rbp),%rax
   1347b:	48 83 c0 30          	add    $0x30,%rax
   1347f:	48 89 85 e8 ed ff ff 	mov    %rax,-0x1218(%rbp)
   13486:	48 c7 85 f0 ed ff ff 	movq   $0x0,-0x1210(%rbp)
   1348d:	00 00 00 00 
   13491:	48 8d 05 28 c7 00 00 	lea    0xc728(%rip),%rax        # 1fbc0 <g_143>
   13498:	48 89 85 f8 ed ff ff 	mov    %rax,-0x1208(%rbp)
   1349f:	48 8d 85 10 cf ff ff 	lea    -0x30f0(%rbp),%rax
   134a6:	48 83 c0 18          	add    $0x18,%rax
   134aa:	48 89 85 00 ee ff ff 	mov    %rax,-0x1200(%rbp)
   134b1:	48 c7 85 08 ee ff ff 	movq   $0x0,-0x11f8(%rbp)
   134b8:	00 00 00 00 
   134bc:	48 c7 85 10 ee ff ff 	movq   $0x0,-0x11f0(%rbp)
   134c3:	00 00 00 00 
   134c7:	48 8d 85 10 ca ff ff 	lea    -0x35f0(%rbp),%rax
   134ce:	48 89 85 18 ee ff ff 	mov    %rax,-0x11e8(%rbp)
   134d5:	48 8d 05 d4 c6 00 00 	lea    0xc6d4(%rip),%rax        # 1fbb0 <g_134>
   134dc:	48 89 85 20 ee ff ff 	mov    %rax,-0x11e0(%rbp)
   134e3:	48 8d 85 10 cf ff ff 	lea    -0x30f0(%rbp),%rax
   134ea:	48 83 c0 40          	add    $0x40,%rax
   134ee:	48 89 85 28 ee ff ff 	mov    %rax,-0x11d8(%rbp)
   134f5:	48 8d 85 10 cf ff ff 	lea    -0x30f0(%rbp),%rax
   134fc:	48 05 88 00 00 00    	add    $0x88,%rax
   13502:	48 89 85 30 ee ff ff 	mov    %rax,-0x11d0(%rbp)
   13509:	48 8d 85 10 cf ff ff 	lea    -0x30f0(%rbp),%rax
   13510:	48 83 c0 30          	add    $0x30,%rax
   13514:	48 89 85 38 ee ff ff 	mov    %rax,-0x11c8(%rbp)
   1351b:	48 8d 85 10 cf ff ff 	lea    -0x30f0(%rbp),%rax
   13522:	48 83 c0 70          	add    $0x70,%rax
   13526:	48 89 85 40 ee ff ff 	mov    %rax,-0x11c0(%rbp)
   1352d:	48 8d 05 7c c6 00 00 	lea    0xc67c(%rip),%rax        # 1fbb0 <g_134>
   13534:	48 89 85 48 ee ff ff 	mov    %rax,-0x11b8(%rbp)
   1353b:	48 8d 85 10 cf ff ff 	lea    -0x30f0(%rbp),%rax
   13542:	48 83 c0 30          	add    $0x30,%rax
   13546:	48 89 85 50 ee ff ff 	mov    %rax,-0x11b0(%rbp)
   1354d:	48 8d 85 10 cf ff ff 	lea    -0x30f0(%rbp),%rax
   13554:	48 83 c0 40          	add    $0x40,%rax
   13558:	48 89 85 58 ee ff ff 	mov    %rax,-0x11a8(%rbp)
   1355f:	48 8d 85 10 cf ff ff 	lea    -0x30f0(%rbp),%rax
   13566:	48 83 c0 18          	add    $0x18,%rax
   1356a:	48 89 85 60 ee ff ff 	mov    %rax,-0x11a0(%rbp)
   13571:	48 8d 05 48 c6 00 00 	lea    0xc648(%rip),%rax        # 1fbc0 <g_143>
   13578:	48 89 85 68 ee ff ff 	mov    %rax,-0x1198(%rbp)
   1357f:	48 8d 05 3a c6 00 00 	lea    0xc63a(%rip),%rax        # 1fbc0 <g_143>
   13586:	48 89 85 70 ee ff ff 	mov    %rax,-0x1190(%rbp)
   1358d:	48 8d 85 10 ca ff ff 	lea    -0x35f0(%rbp),%rax
   13594:	48 89 85 78 ee ff ff 	mov    %rax,-0x1188(%rbp)
   1359b:	48 8d 85 10 ca ff ff 	lea    -0x35f0(%rbp),%rax
   135a2:	48 89 85 80 ee ff ff 	mov    %rax,-0x1180(%rbp)
   135a9:	48 c7 85 88 ee ff ff 	movq   $0x0,-0x1178(%rbp)
   135b0:	00 00 00 00 
   135b4:	48 8d 05 05 c6 00 00 	lea    0xc605(%rip),%rax        # 1fbc0 <g_143>
   135bb:	48 89 85 90 ee ff ff 	mov    %rax,-0x1170(%rbp)
   135c2:	48 c7 85 98 ee ff ff 	movq   $0x0,-0x1168(%rbp)
   135c9:	00 00 00 00 
   135cd:	48 8d 85 10 cf ff ff 	lea    -0x30f0(%rbp),%rax
   135d4:	48 83 c0 40          	add    $0x40,%rax
   135d8:	48 89 85 a0 ee ff ff 	mov    %rax,-0x1160(%rbp)
   135df:	48 8d 85 10 cf ff ff 	lea    -0x30f0(%rbp),%rax
   135e6:	48 83 c0 30          	add    $0x30,%rax
   135ea:	48 89 85 a8 ee ff ff 	mov    %rax,-0x1158(%rbp)
   135f1:	48 8d 85 10 ca ff ff 	lea    -0x35f0(%rbp),%rax
   135f8:	48 89 85 b0 ee ff ff 	mov    %rax,-0x1150(%rbp)
   135ff:	48 8d 85 10 cf ff ff 	lea    -0x30f0(%rbp),%rax
   13606:	48 83 c0 70          	add    $0x70,%rax
   1360a:	48 89 85 b8 ee ff ff 	mov    %rax,-0x1148(%rbp)
   13611:	48 8d 85 10 cf ff ff 	lea    -0x30f0(%rbp),%rax
   13618:	48 83 c0 40          	add    $0x40,%rax
   1361c:	48 89 85 c0 ee ff ff 	mov    %rax,-0x1140(%rbp)
   13623:	48 8d 85 10 cf ff ff 	lea    -0x30f0(%rbp),%rax
   1362a:	48 05 88 00 00 00    	add    $0x88,%rax
   13630:	48 89 85 c8 ee ff ff 	mov    %rax,-0x1138(%rbp)
   13637:	48 8d 85 10 cf ff ff 	lea    -0x30f0(%rbp),%rax
   1363e:	48 83 c0 40          	add    $0x40,%rax
   13642:	48 89 85 d0 ee ff ff 	mov    %rax,-0x1130(%rbp)
   13649:	48 8d 85 10 cf ff ff 	lea    -0x30f0(%rbp),%rax
   13650:	48 05 88 00 00 00    	add    $0x88,%rax
   13656:	48 89 85 d8 ee ff ff 	mov    %rax,-0x1128(%rbp)
   1365d:	48 8d 85 10 ca ff ff 	lea    -0x35f0(%rbp),%rax
   13664:	48 89 85 e0 ee ff ff 	mov    %rax,-0x1120(%rbp)
   1366b:	48 8d 85 10 cf ff ff 	lea    -0x30f0(%rbp),%rax
   13672:	48 83 c0 60          	add    $0x60,%rax
   13676:	48 89 85 e8 ee ff ff 	mov    %rax,-0x1118(%rbp)
   1367d:	48 c7 85 f0 ee ff ff 	movq   $0x0,-0x1110(%rbp)
   13684:	00 00 00 00 
   13688:	48 8d 85 10 cf ff ff 	lea    -0x30f0(%rbp),%rax
   1368f:	48 83 c0 18          	add    $0x18,%rax
   13693:	48 89 85 f8 ee ff ff 	mov    %rax,-0x1108(%rbp)
   1369a:	48 c7 85 00 ef ff ff 	movq   $0x0,-0x1100(%rbp)
   136a1:	00 00 00 00 
   136a5:	48 c7 85 08 ef ff ff 	movq   $0x0,-0x10f8(%rbp)
   136ac:	00 00 00 00 
   136b0:	48 8d 85 10 cf ff ff 	lea    -0x30f0(%rbp),%rax
   136b7:	48 83 c0 40          	add    $0x40,%rax
   136bb:	48 89 85 10 ef ff ff 	mov    %rax,-0x10f0(%rbp)
   136c2:	48 8d 85 10 cf ff ff 	lea    -0x30f0(%rbp),%rax
   136c9:	48 83 c0 40          	add    $0x40,%rax
   136cd:	48 89 85 18 ef ff ff 	mov    %rax,-0x10e8(%rbp)
   136d4:	48 c7 85 20 ef ff ff 	movq   $0x0,-0x10e0(%rbp)
   136db:	00 00 00 00 
   136df:	48 c7 85 28 ef ff ff 	movq   $0x0,-0x10d8(%rbp)
   136e6:	00 00 00 00 
   136ea:	48 8d 05 bf c4 00 00 	lea    0xc4bf(%rip),%rax        # 1fbb0 <g_134>
   136f1:	48 89 85 30 ef ff ff 	mov    %rax,-0x10d0(%rbp)
   136f8:	48 c7 85 38 ef ff ff 	movq   $0x0,-0x10c8(%rbp)
   136ff:	00 00 00 00 
   13703:	48 c7 85 40 ef ff ff 	movq   $0x0,-0x10c0(%rbp)
   1370a:	00 00 00 00 
   1370e:	48 8d 85 10 cf ff ff 	lea    -0x30f0(%rbp),%rax
   13715:	48 83 c0 40          	add    $0x40,%rax
   13719:	48 89 85 48 ef ff ff 	mov    %rax,-0x10b8(%rbp)
   13720:	48 8d 05 99 c4 00 00 	lea    0xc499(%rip),%rax        # 1fbc0 <g_143>
   13727:	48 89 85 50 ef ff ff 	mov    %rax,-0x10b0(%rbp)
   1372e:	48 c7 85 58 ef ff ff 	movq   $0x0,-0x10a8(%rbp)
   13735:	00 00 00 00 
   13739:	48 8d 05 80 c4 00 00 	lea    0xc480(%rip),%rax        # 1fbc0 <g_143>
   13740:	48 89 85 60 ef ff ff 	mov    %rax,-0x10a0(%rbp)
   13747:	48 c7 85 68 ef ff ff 	movq   $0x0,-0x1098(%rbp)
   1374e:	00 00 00 00 
   13752:	48 8d 05 67 c4 00 00 	lea    0xc467(%rip),%rax        # 1fbc0 <g_143>
   13759:	48 89 85 70 ef ff ff 	mov    %rax,-0x1090(%rbp)
   13760:	48 c7 85 78 ef ff ff 	movq   $0x0,-0x1088(%rbp)
   13767:	00 00 00 00 
   1376b:	48 8d 85 10 cf ff ff 	lea    -0x30f0(%rbp),%rax
   13772:	48 05 88 00 00 00    	add    $0x88,%rax
   13778:	48 89 85 80 ef ff ff 	mov    %rax,-0x1080(%rbp)
   1377f:	48 8d 05 2a c4 00 00 	lea    0xc42a(%rip),%rax        # 1fbb0 <g_134>
   13786:	48 89 85 88 ef ff ff 	mov    %rax,-0x1078(%rbp)
   1378d:	48 8d 85 10 cf ff ff 	lea    -0x30f0(%rbp),%rax
   13794:	48 83 c0 40          	add    $0x40,%rax
   13798:	48 89 85 90 ef ff ff 	mov    %rax,-0x1070(%rbp)
   1379f:	48 8d 85 10 ca ff ff 	lea    -0x35f0(%rbp),%rax
   137a6:	48 89 85 98 ef ff ff 	mov    %rax,-0x1068(%rbp)
   137ad:	48 c7 85 a0 ef ff ff 	movq   $0x0,-0x1060(%rbp)
   137b4:	00 00 00 00 
   137b8:	48 8d 85 10 cf ff ff 	lea    -0x30f0(%rbp),%rax
   137bf:	48 83 c0 70          	add    $0x70,%rax
   137c3:	48 89 85 a8 ef ff ff 	mov    %rax,-0x1058(%rbp)
   137ca:	48 8d 05 df c3 00 00 	lea    0xc3df(%rip),%rax        # 1fbb0 <g_134>
   137d1:	48 89 85 b0 ef ff ff 	mov    %rax,-0x1050(%rbp)
   137d8:	48 c7 85 b8 ef ff ff 	movq   $0x0,-0x1048(%rbp)
   137df:	00 00 00 00 
   137e3:	48 8d 85 10 cf ff ff 	lea    -0x30f0(%rbp),%rax
   137ea:	48 83 c0 40          	add    $0x40,%rax
   137ee:	48 89 85 c0 ef ff ff 	mov    %rax,-0x1040(%rbp)
   137f5:	48 c7 85 c8 ef ff ff 	movq   $0x0,-0x1038(%rbp)
   137fc:	00 00 00 00 
   13800:	48 8d 85 10 cf ff ff 	lea    -0x30f0(%rbp),%rax
   13807:	48 83 c0 30          	add    $0x30,%rax
   1380b:	48 89 85 d0 ef ff ff 	mov    %rax,-0x1030(%rbp)
   13812:	48 8d 85 10 cf ff ff 	lea    -0x30f0(%rbp),%rax
   13819:	48 05 88 00 00 00    	add    $0x88,%rax
   1381f:	48 89 85 d8 ef ff ff 	mov    %rax,-0x1028(%rbp)
   13826:	48 c7 85 e0 ef ff ff 	movq   $0x0,-0x1020(%rbp)
   1382d:	00 00 00 00 
   13831:	48 8d 05 78 c3 00 00 	lea    0xc378(%rip),%rax        # 1fbb0 <g_134>
   13838:	48 89 85 e8 ef ff ff 	mov    %rax,-0x1018(%rbp)
   1383f:	48 8d 05 6a c3 00 00 	lea    0xc36a(%rip),%rax        # 1fbb0 <g_134>
   13846:	48 89 85 f0 ef ff ff 	mov    %rax,-0x1010(%rbp)
   1384d:	48 8d 05 5c c3 00 00 	lea    0xc35c(%rip),%rax        # 1fbb0 <g_134>
   13854:	48 89 85 f8 ef ff ff 	mov    %rax,-0x1008(%rbp)
   1385b:	48 8d 85 10 cf ff ff 	lea    -0x30f0(%rbp),%rax
   13862:	48 83 c0 08          	add    $0x8,%rax
   13866:	48 89 85 00 f0 ff ff 	mov    %rax,-0x1000(%rbp)
   1386d:	48 8d 05 3c c3 00 00 	lea    0xc33c(%rip),%rax        # 1fbb0 <g_134>
   13874:	48 89 85 08 f0 ff ff 	mov    %rax,-0xff8(%rbp)
   1387b:	48 8d 05 2e c3 00 00 	lea    0xc32e(%rip),%rax        # 1fbb0 <g_134>
   13882:	48 89 85 10 f0 ff ff 	mov    %rax,-0xff0(%rbp)
   13889:	48 8d 05 20 c3 00 00 	lea    0xc320(%rip),%rax        # 1fbb0 <g_134>
   13890:	48 89 85 18 f0 ff ff 	mov    %rax,-0xfe8(%rbp)
   13897:	48 8d 85 10 ca ff ff 	lea    -0x35f0(%rbp),%rax
   1389e:	48 89 85 20 f0 ff ff 	mov    %rax,-0xfe0(%rbp)
   138a5:	48 8d 05 04 c3 00 00 	lea    0xc304(%rip),%rax        # 1fbb0 <g_134>
   138ac:	48 89 85 28 f0 ff ff 	mov    %rax,-0xfd8(%rbp)
   138b3:	48 c7 85 30 f0 ff ff 	movq   $0x0,-0xfd0(%rbp)
   138ba:	00 00 00 00 
   138be:	48 8d 05 eb c2 00 00 	lea    0xc2eb(%rip),%rax        # 1fbb0 <g_134>
   138c5:	48 89 85 38 f0 ff ff 	mov    %rax,-0xfc8(%rbp)
   138cc:	48 8d 05 dd c2 00 00 	lea    0xc2dd(%rip),%rax        # 1fbb0 <g_134>
   138d3:	48 89 85 40 f0 ff ff 	mov    %rax,-0xfc0(%rbp)
   138da:	48 8d 05 cf c2 00 00 	lea    0xc2cf(%rip),%rax        # 1fbb0 <g_134>
   138e1:	48 89 85 48 f0 ff ff 	mov    %rax,-0xfb8(%rbp)
   138e8:	48 8d 85 10 ca ff ff 	lea    -0x35f0(%rbp),%rax
   138ef:	48 89 85 50 f0 ff ff 	mov    %rax,-0xfb0(%rbp)
   138f6:	48 8d 85 10 cf ff ff 	lea    -0x30f0(%rbp),%rax
   138fd:	48 83 c0 70          	add    $0x70,%rax
   13901:	48 89 85 58 f0 ff ff 	mov    %rax,-0xfa8(%rbp)
   13908:	48 8d 85 10 cf ff ff 	lea    -0x30f0(%rbp),%rax
   1390f:	48 83 c0 40          	add    $0x40,%rax
   13913:	48 89 85 60 f0 ff ff 	mov    %rax,-0xfa0(%rbp)
   1391a:	48 8d 85 10 cf ff ff 	lea    -0x30f0(%rbp),%rax
   13921:	48 83 c0 40          	add    $0x40,%rax
   13925:	48 89 85 88 cb ff ff 	mov    %rax,-0x3478(%rbp)
   1392c:	48 c7 85 18 ca ff ff 	movq   $0x0,-0x35e8(%rbp)
   13933:	00 00 00 00 
   13937:	48 8d 85 00 cd ff ff 	lea    -0x3300(%rbp),%rax
   1393e:	48 83 c0 10          	add    $0x10,%rax
   13942:	48 89 85 90 cb ff ff 	mov    %rax,-0x3470(%rbp)
   13949:	48 8d 85 10 cf ff ff 	lea    -0x30f0(%rbp),%rax
   13950:	48 83 c0 48          	add    $0x48,%rax
   13954:	48 89 85 98 cb ff ff 	mov    %rax,-0x3468(%rbp)
   1395b:	48 8b 85 40 ca ff ff 	mov    -0x35c0(%rbp),%rax
   13962:	0f b6 d8             	movzbl %al,%ebx
   13965:	48 8b 05 04 aa 00 00 	mov    0xaa04(%rip),%rax        # 1e370 <g_130>
   1396c:	44 0f b7 e0          	movzwl %ax,%r12d
   13970:	0f b6 45 d6          	movzbl -0x2a(%rbp),%eax
   13974:	0f b6 d0             	movzbl %al,%edx
   13977:	8b 85 04 c9 ff ff    	mov    -0x36fc(%rbp),%eax
   1397d:	0b 85 dc c8 ff ff    	or     -0x3724(%rbp),%eax
   13983:	89 85 04 c9 ff ff    	mov    %eax,-0x36fc(%rbp)
   13989:	8b 8d 04 c9 ff ff    	mov    -0x36fc(%rbp),%ecx
   1398f:	48 8b 85 b0 c9 ff ff 	mov    -0x3650(%rbp),%rax
   13996:	48 85 c0             	test   %rax,%rax
   13999:	0f 95 c0             	setne  %al
   1399c:	0f b6 f0             	movzbl %al,%esi
   1399f:	0f b7 05 22 a9 00 00 	movzwl 0xa922(%rip),%eax        # 1e2c8 <g_93>
   139a6:	98                   	cwtl   
   139a7:	39 c6                	cmp    %eax,%esi
   139a9:	0f 9f c0             	setg   %al
   139ac:	0f b6 f0             	movzbl %al,%esi
   139af:	48 8b 05 da a9 00 00 	mov    0xa9da(%rip),%rax        # 1e390 <g_364>
   139b6:	48 39 c6             	cmp    %rax,%rsi
   139b9:	0f 9f c0             	setg   %al
   139bc:	0f b6 c0             	movzbl %al,%eax
   139bf:	39 c1                	cmp    %eax,%ecx
   139c1:	0f 9f c0             	setg   %al
   139c4:	0f b6 c0             	movzbl %al,%eax
   139c7:	39 85 dc c8 ff ff    	cmp    %eax,-0x3724(%rbp)
   139cd:	0f 9e c0             	setle  %al
   139d0:	0f b6 c0             	movzbl %al,%eax
   139d3:	89 d6                	mov    %edx,%esi
   139d5:	89 c7                	mov    %eax,%edi
   139d7:	e8 e2 52 ff ff       	callq  8cbe <safe_rshift_func_uint8_t_u_u>
   139dc:	44 0f b6 e8          	movzbl %al,%r13d
   139e0:	48 8b 05 f1 c1 00 00 	mov    0xc1f1(%rip),%rax        # 1fbd8 <g_186>
   139e7:	48 8b 00             	mov    (%rax),%rax
   139ea:	0f b6 00             	movzbl (%rax),%eax
   139ed:	0f be c0             	movsbl %al,%eax
   139f0:	be 00 00 00 00       	mov    $0x0,%esi
   139f5:	89 c7                	mov    %eax,%edi
   139f7:	e8 16 48 ff ff       	callq  8212 <safe_mul_func_int8_t_s_s>
   139fc:	44 89 ee             	mov    %r13d,%esi
   139ff:	bf 00 00 00 00       	mov    $0x0,%edi
   13a04:	e8 1c 55 ff ff       	callq  8f25 <safe_div_func_uint32_t_u_u>
   13a09:	89 c2                	mov    %eax,%edx
   13a0b:	48 8b 05 c6 c1 00 00 	mov    0xc1c6(%rip),%rax        # 1fbd8 <g_186>
   13a12:	48 8b 00             	mov    (%rax),%rax
   13a15:	88 10                	mov    %dl,(%rax)
   13a17:	0f b6 00             	movzbl (%rax),%eax
   13a1a:	0f be c0             	movsbl %al,%eax
   13a1d:	89 c7                	mov    %eax,%edi
   13a1f:	e8 9b 47 ff ff       	callq  81bf <safe_unary_minus_func_int8_t_s>
   13a24:	0f b7 05 c9 d5 00 00 	movzwl 0xd5c9(%rip),%eax        # 20ff4 <g_206>
   13a2b:	83 c0 01             	add    $0x1,%eax
   13a2e:	66 89 05 bf d5 00 00 	mov    %ax,0xd5bf(%rip)        # 20ff4 <g_206>
   13a35:	0f b7 05 b8 d5 00 00 	movzwl 0xd5b8(%rip),%eax        # 20ff4 <g_206>
   13a3c:	0f b7 d0             	movzwl %ax,%edx
   13a3f:	48 8b 85 d0 c8 ff ff 	mov    -0x3730(%rbp),%rax
   13a46:	0f b7 00             	movzwl (%rax),%eax
   13a49:	0f bf c8             	movswl %ax,%ecx
   13a4c:	81 bd dc c8 ff ff f7 	cmpl   $0xaff7,-0x3724(%rbp)
   13a53:	af 00 00 
   13a56:	0f 9e c0             	setle  %al
   13a59:	0f b6 c0             	movzbl %al,%eax
   13a5c:	39 c1                	cmp    %eax,%ecx
   13a5e:	0f 9e c0             	setle  %al
   13a61:	0f b6 c0             	movzbl %al,%eax
   13a64:	39 c2                	cmp    %eax,%edx
   13a66:	7d 10                	jge    13a78 <func_56+0x44c9>
   13a68:	83 bd d8 c8 ff ff 00 	cmpl   $0x0,-0x3728(%rbp)
   13a6f:	74 07                	je     13a78 <func_56+0x44c9>
   13a71:	b8 01 00 00 00       	mov    $0x1,%eax
   13a76:	eb 05                	jmp    13a7d <func_56+0x44ce>
   13a78:	b8 00 00 00 00       	mov    $0x0,%eax
   13a7d:	98                   	cwtl   
   13a7e:	be e0 87 ff ff       	mov    $0xffff87e0,%esi
   13a83:	89 c7                	mov    %eax,%edi
   13a85:	e8 49 49 ff ff       	callq  83d3 <safe_sub_func_int16_t_s_s>
   13a8a:	0f b6 55 d6          	movzbl -0x2a(%rbp),%edx
   13a8e:	0f b6 d2             	movzbl %dl,%edx
   13a91:	09 d0                	or     %edx,%eax
   13a93:	0f b7 c0             	movzwl %ax,%eax
   13a96:	44 89 e6             	mov    %r12d,%esi
   13a99:	89 c7                	mov    %eax,%edi
   13a9b:	e8 bc 52 ff ff       	callq  8d5c <safe_mod_func_uint16_t_u_u>
   13aa0:	89 de                	mov    %ebx,%esi
   13aa2:	bf 01 00 00 00       	mov    $0x1,%edi
   13aa7:	e8 e7 50 ff ff       	callq  8b93 <safe_mul_func_uint8_t_u_u>
   13aac:	84 c0                	test   %al,%al
   13aae:	0f 84 ce 1c 00 00    	je     15782 <func_56+0x61d3>
   13ab4:	48 8d 05 d5 a8 00 00 	lea    0xa8d5(%rip),%rax        # 1e390 <g_364>
   13abb:	48 89 85 c0 cb ff ff 	mov    %rax,-0x3440(%rbp)
   13ac2:	c7 85 60 c9 ff ff 44 	movl   $0xc2e56f44,-0x36a0(%rbp)
   13ac9:	6f e5 c2 
   13acc:	c6 85 ed c8 ff ff 01 	movb   $0x1,-0x3713(%rbp)
   13ad3:	48 8d 85 10 cf ff ff 	lea    -0x30f0(%rbp),%rax
   13ada:	48 83 c0 40          	add    $0x40,%rax
   13ade:	48 89 85 c8 cb ff ff 	mov    %rax,-0x3438(%rbp)
   13ae5:	48 8d 85 10 cf ff ff 	lea    -0x30f0(%rbp),%rax
   13aec:	48 89 85 70 f0 ff ff 	mov    %rax,-0xf90(%rbp)
   13af3:	48 8d 05 c6 c0 00 00 	lea    0xc0c6(%rip),%rax        # 1fbc0 <g_143>
   13afa:	48 89 85 78 f0 ff ff 	mov    %rax,-0xf88(%rbp)
   13b01:	48 8d 85 10 cf ff ff 	lea    -0x30f0(%rbp),%rax
   13b08:	48 83 c0 40          	add    $0x40,%rax
   13b0c:	48 89 85 80 f0 ff ff 	mov    %rax,-0xf80(%rbp)
   13b13:	48 c7 85 88 f0 ff ff 	movq   $0x0,-0xf78(%rbp)
   13b1a:	00 00 00 00 
   13b1e:	48 8d 85 10 cf ff ff 	lea    -0x30f0(%rbp),%rax
   13b25:	48 83 c0 40          	add    $0x40,%rax
   13b29:	48 89 85 90 f0 ff ff 	mov    %rax,-0xf70(%rbp)
   13b30:	48 8d 85 10 cf ff ff 	lea    -0x30f0(%rbp),%rax
   13b37:	48 83 c0 40          	add    $0x40,%rax
   13b3b:	48 89 85 98 f0 ff ff 	mov    %rax,-0xf68(%rbp)
   13b42:	48 c7 85 a0 f0 ff ff 	movq   $0x0,-0xf60(%rbp)
   13b49:	00 00 00 00 
   13b4d:	48 8d 85 10 cf ff ff 	lea    -0x30f0(%rbp),%rax
   13b54:	48 83 c0 40          	add    $0x40,%rax
   13b58:	48 89 85 a8 f0 ff ff 	mov    %rax,-0xf58(%rbp)
   13b5f:	48 c7 85 b0 f0 ff ff 	movq   $0x0,-0xf50(%rbp)
   13b66:	00 00 00 00 
   13b6a:	48 8d 05 3f c0 00 00 	lea    0xc03f(%rip),%rax        # 1fbb0 <g_134>
   13b71:	48 89 85 b8 f0 ff ff 	mov    %rax,-0xf48(%rbp)
   13b78:	48 8d 05 41 c0 00 00 	lea    0xc041(%rip),%rax        # 1fbc0 <g_143>
   13b7f:	48 89 85 c0 f0 ff ff 	mov    %rax,-0xf40(%rbp)
   13b86:	48 8d 05 33 c0 00 00 	lea    0xc033(%rip),%rax        # 1fbc0 <g_143>
   13b8d:	48 89 85 c8 f0 ff ff 	mov    %rax,-0xf38(%rbp)
   13b94:	48 8d 05 25 c0 00 00 	lea    0xc025(%rip),%rax        # 1fbc0 <g_143>
   13b9b:	48 89 85 d0 f0 ff ff 	mov    %rax,-0xf30(%rbp)
   13ba2:	48 c7 85 d8 f0 ff ff 	movq   $0x0,-0xf28(%rbp)
   13ba9:	00 00 00 00 
   13bad:	48 c7 85 e0 f0 ff ff 	movq   $0x0,-0xf20(%rbp)
   13bb4:	00 00 00 00 
   13bb8:	48 c7 85 e8 f0 ff ff 	movq   $0x0,-0xf18(%rbp)
   13bbf:	00 00 00 00 
   13bc3:	48 8d 05 e6 bf 00 00 	lea    0xbfe6(%rip),%rax        # 1fbb0 <g_134>
   13bca:	48 89 85 f0 f0 ff ff 	mov    %rax,-0xf10(%rbp)
   13bd1:	48 8d 05 d8 bf 00 00 	lea    0xbfd8(%rip),%rax        # 1fbb0 <g_134>
   13bd8:	48 89 85 f8 f0 ff ff 	mov    %rax,-0xf08(%rbp)
   13bdf:	48 8d 05 ca bf 00 00 	lea    0xbfca(%rip),%rax        # 1fbb0 <g_134>
   13be6:	48 89 85 00 f1 ff ff 	mov    %rax,-0xf00(%rbp)
   13bed:	48 8d 05 bc bf 00 00 	lea    0xbfbc(%rip),%rax        # 1fbb0 <g_134>
   13bf4:	48 89 85 08 f1 ff ff 	mov    %rax,-0xef8(%rbp)
   13bfb:	48 8d 05 be bf 00 00 	lea    0xbfbe(%rip),%rax        # 1fbc0 <g_143>
   13c02:	48 89 85 10 f1 ff ff 	mov    %rax,-0xef0(%rbp)
   13c09:	48 c7 85 18 f1 ff ff 	movq   $0x0,-0xee8(%rbp)
   13c10:	00 00 00 00 
   13c14:	48 8d 85 10 cf ff ff 	lea    -0x30f0(%rbp),%rax
   13c1b:	48 83 c0 40          	add    $0x40,%rax
   13c1f:	48 89 85 20 f1 ff ff 	mov    %rax,-0xee0(%rbp)
   13c26:	48 8d 85 10 cf ff ff 	lea    -0x30f0(%rbp),%rax
   13c2d:	48 83 c0 40          	add    $0x40,%rax
   13c31:	48 89 85 28 f1 ff ff 	mov    %rax,-0xed8(%rbp)
   13c38:	48 8d 05 81 bf 00 00 	lea    0xbf81(%rip),%rax        # 1fbc0 <g_143>
   13c3f:	48 89 85 30 f1 ff ff 	mov    %rax,-0xed0(%rbp)
   13c46:	48 8d 85 10 cf ff ff 	lea    -0x30f0(%rbp),%rax
   13c4d:	48 83 c0 40          	add    $0x40,%rax
   13c51:	48 89 85 38 f1 ff ff 	mov    %rax,-0xec8(%rbp)
   13c58:	48 8d 85 10 cf ff ff 	lea    -0x30f0(%rbp),%rax
   13c5f:	48 83 c0 40          	add    $0x40,%rax
   13c63:	48 89 85 40 f1 ff ff 	mov    %rax,-0xec0(%rbp)
   13c6a:	48 8d 05 4f bf 00 00 	lea    0xbf4f(%rip),%rax        # 1fbc0 <g_143>
   13c71:	48 89 85 48 f1 ff ff 	mov    %rax,-0xeb8(%rbp)
   13c78:	48 8d 05 31 bf 00 00 	lea    0xbf31(%rip),%rax        # 1fbb0 <g_134>
   13c7f:	48 89 85 50 f1 ff ff 	mov    %rax,-0xeb0(%rbp)
   13c86:	48 8d 85 10 cf ff ff 	lea    -0x30f0(%rbp),%rax
   13c8d:	48 83 c0 40          	add    $0x40,%rax
   13c91:	48 89 85 58 f1 ff ff 	mov    %rax,-0xea8(%rbp)
   13c98:	48 8d 85 10 cf ff ff 	lea    -0x30f0(%rbp),%rax
   13c9f:	48 83 c0 40          	add    $0x40,%rax
   13ca3:	48 89 85 60 f1 ff ff 	mov    %rax,-0xea0(%rbp)
   13caa:	48 8d 85 10 cf ff ff 	lea    -0x30f0(%rbp),%rax
   13cb1:	48 89 85 68 f1 ff ff 	mov    %rax,-0xe98(%rbp)
   13cb8:	48 c7 85 70 f1 ff ff 	movq   $0x0,-0xe90(%rbp)
   13cbf:	00 00 00 00 
   13cc3:	48 8d 85 10 cf ff ff 	lea    -0x30f0(%rbp),%rax
   13cca:	48 83 c0 28          	add    $0x28,%rax
   13cce:	48 89 85 78 f1 ff ff 	mov    %rax,-0xe88(%rbp)
   13cd5:	48 c7 85 80 f1 ff ff 	movq   $0x0,-0xe80(%rbp)
   13cdc:	00 00 00 00 
   13ce0:	48 c7 85 88 f1 ff ff 	movq   $0x0,-0xe78(%rbp)
   13ce7:	00 00 00 00 
   13ceb:	48 8d 85 10 cf ff ff 	lea    -0x30f0(%rbp),%rax
   13cf2:	48 83 c0 40          	add    $0x40,%rax
   13cf6:	48 89 85 90 f1 ff ff 	mov    %rax,-0xe70(%rbp)
   13cfd:	48 8d 85 10 cf ff ff 	lea    -0x30f0(%rbp),%rax
   13d04:	48 83 c0 40          	add    $0x40,%rax
   13d08:	48 89 85 98 f1 ff ff 	mov    %rax,-0xe68(%rbp)
   13d0f:	48 8d 05 9a be 00 00 	lea    0xbe9a(%rip),%rax        # 1fbb0 <g_134>
   13d16:	48 89 85 a0 f1 ff ff 	mov    %rax,-0xe60(%rbp)
   13d1d:	48 8d 05 9c be 00 00 	lea    0xbe9c(%rip),%rax        # 1fbc0 <g_143>
   13d24:	48 89 85 a8 f1 ff ff 	mov    %rax,-0xe58(%rbp)
   13d2b:	48 c7 85 b0 f1 ff ff 	movq   $0x0,-0xe50(%rbp)
   13d32:	00 00 00 00 
   13d36:	48 c7 85 b8 f1 ff ff 	movq   $0x0,-0xe48(%rbp)
   13d3d:	00 00 00 00 
   13d41:	48 8d 85 10 cf ff ff 	lea    -0x30f0(%rbp),%rax
   13d48:	48 83 c0 40          	add    $0x40,%rax
   13d4c:	48 89 85 c0 f1 ff ff 	mov    %rax,-0xe40(%rbp)
   13d53:	48 8d 85 10 cf ff ff 	lea    -0x30f0(%rbp),%rax
   13d5a:	48 89 85 c8 f1 ff ff 	mov    %rax,-0xe38(%rbp)
   13d61:	48 8d 85 10 cf ff ff 	lea    -0x30f0(%rbp),%rax
   13d68:	48 83 c0 68          	add    $0x68,%rax
   13d6c:	48 89 85 d0 f1 ff ff 	mov    %rax,-0xe30(%rbp)
   13d73:	48 8d 05 46 be 00 00 	lea    0xbe46(%rip),%rax        # 1fbc0 <g_143>
   13d7a:	48 89 85 d8 f1 ff ff 	mov    %rax,-0xe28(%rbp)
   13d81:	48 8d 05 28 be 00 00 	lea    0xbe28(%rip),%rax        # 1fbb0 <g_134>
   13d88:	48 89 85 e0 f1 ff ff 	mov    %rax,-0xe20(%rbp)
   13d8f:	48 c7 85 e8 f1 ff ff 	movq   $0x0,-0xe18(%rbp)
   13d96:	00 00 00 00 
   13d9a:	48 8d 85 10 cf ff ff 	lea    -0x30f0(%rbp),%rax
   13da1:	48 83 c0 40          	add    $0x40,%rax
   13da5:	48 89 85 f0 f1 ff ff 	mov    %rax,-0xe10(%rbp)
   13dac:	48 8d 85 10 cf ff ff 	lea    -0x30f0(%rbp),%rax
   13db3:	48 83 c0 40          	add    $0x40,%rax
   13db7:	48 89 85 f8 f1 ff ff 	mov    %rax,-0xe08(%rbp)
   13dbe:	48 8d 85 10 cf ff ff 	lea    -0x30f0(%rbp),%rax
   13dc5:	48 83 c0 40          	add    $0x40,%rax
   13dc9:	48 89 85 00 f2 ff ff 	mov    %rax,-0xe00(%rbp)
   13dd0:	48 8d 85 10 cf ff ff 	lea    -0x30f0(%rbp),%rax
   13dd7:	48 83 c0 40          	add    $0x40,%rax
   13ddb:	48 89 85 08 f2 ff ff 	mov    %rax,-0xdf8(%rbp)
   13de2:	48 8d 85 10 cf ff ff 	lea    -0x30f0(%rbp),%rax
   13de9:	48 83 c0 40          	add    $0x40,%rax
   13ded:	48 89 85 10 f2 ff ff 	mov    %rax,-0xdf0(%rbp)
   13df4:	48 8d 85 10 cf ff ff 	lea    -0x30f0(%rbp),%rax
   13dfb:	48 05 98 00 00 00    	add    $0x98,%rax
   13e01:	48 89 85 18 f2 ff ff 	mov    %rax,-0xde8(%rbp)
   13e08:	48 8d 85 10 ca ff ff 	lea    -0x35f0(%rbp),%rax
   13e0f:	48 89 85 20 f2 ff ff 	mov    %rax,-0xde0(%rbp)
   13e16:	48 8d 05 93 bd 00 00 	lea    0xbd93(%rip),%rax        # 1fbb0 <g_134>
   13e1d:	48 89 85 28 f2 ff ff 	mov    %rax,-0xdd8(%rbp)
   13e24:	48 c7 85 30 f2 ff ff 	movq   $0x0,-0xdd0(%rbp)
   13e2b:	00 00 00 00 
   13e2f:	48 c7 85 38 f2 ff ff 	movq   $0x0,-0xdc8(%rbp)
   13e36:	00 00 00 00 
   13e3a:	48 8d 05 6f bd 00 00 	lea    0xbd6f(%rip),%rax        # 1fbb0 <g_134>
   13e41:	48 89 85 40 f2 ff ff 	mov    %rax,-0xdc0(%rbp)
   13e48:	48 c7 85 48 f2 ff ff 	movq   $0x0,-0xdb8(%rbp)
   13e4f:	00 00 00 00 
   13e53:	48 8d 85 10 cf ff ff 	lea    -0x30f0(%rbp),%rax
   13e5a:	48 83 c0 40          	add    $0x40,%rax
   13e5e:	48 89 85 50 f2 ff ff 	mov    %rax,-0xdb0(%rbp)
   13e65:	48 c7 85 58 f2 ff ff 	movq   $0x0,-0xda8(%rbp)
   13e6c:	00 00 00 00 
   13e70:	48 8d 05 39 bd 00 00 	lea    0xbd39(%rip),%rax        # 1fbb0 <g_134>
   13e77:	48 89 85 60 f2 ff ff 	mov    %rax,-0xda0(%rbp)
   13e7e:	48 8d 05 3b bd 00 00 	lea    0xbd3b(%rip),%rax        # 1fbc0 <g_143>
   13e85:	48 89 85 68 f2 ff ff 	mov    %rax,-0xd98(%rbp)
   13e8c:	48 8d 05 2d bd 00 00 	lea    0xbd2d(%rip),%rax        # 1fbc0 <g_143>
   13e93:	48 89 85 70 f2 ff ff 	mov    %rax,-0xd90(%rbp)
   13e9a:	48 8d 05 1f bd 00 00 	lea    0xbd1f(%rip),%rax        # 1fbc0 <g_143>
   13ea1:	48 89 85 78 f2 ff ff 	mov    %rax,-0xd88(%rbp)
   13ea8:	48 8d 85 10 cf ff ff 	lea    -0x30f0(%rbp),%rax
   13eaf:	48 83 c0 40          	add    $0x40,%rax
   13eb3:	48 89 85 80 f2 ff ff 	mov    %rax,-0xd80(%rbp)
   13eba:	48 8d 85 10 cf ff ff 	lea    -0x30f0(%rbp),%rax
   13ec1:	48 83 c0 40          	add    $0x40,%rax
   13ec5:	48 89 85 88 f2 ff ff 	mov    %rax,-0xd78(%rbp)
   13ecc:	48 8d 85 10 cf ff ff 	lea    -0x30f0(%rbp),%rax
   13ed3:	48 83 c0 40          	add    $0x40,%rax
   13ed7:	48 89 85 90 f2 ff ff 	mov    %rax,-0xd70(%rbp)
   13ede:	48 8d 85 10 cf ff ff 	lea    -0x30f0(%rbp),%rax
   13ee5:	48 83 c0 20          	add    $0x20,%rax
   13ee9:	48 89 85 98 f2 ff ff 	mov    %rax,-0xd68(%rbp)
   13ef0:	48 8d 85 10 cf ff ff 	lea    -0x30f0(%rbp),%rax
   13ef7:	48 83 c0 40          	add    $0x40,%rax
   13efb:	48 89 85 a0 f2 ff ff 	mov    %rax,-0xd60(%rbp)
   13f02:	48 8d 05 b7 bc 00 00 	lea    0xbcb7(%rip),%rax        # 1fbc0 <g_143>
   13f09:	48 89 85 a8 f2 ff ff 	mov    %rax,-0xd58(%rbp)
   13f10:	48 c7 85 b0 f2 ff ff 	movq   $0x0,-0xd50(%rbp)
   13f17:	00 00 00 00 
   13f1b:	48 8d 05 9e bc 00 00 	lea    0xbc9e(%rip),%rax        # 1fbc0 <g_143>
   13f22:	48 89 85 b8 f2 ff ff 	mov    %rax,-0xd48(%rbp)
   13f29:	48 8d 85 10 cf ff ff 	lea    -0x30f0(%rbp),%rax
   13f30:	48 83 c0 40          	add    $0x40,%rax
   13f34:	48 89 85 c0 f2 ff ff 	mov    %rax,-0xd40(%rbp)
   13f3b:	48 8d 85 10 cf ff ff 	lea    -0x30f0(%rbp),%rax
   13f42:	48 83 c0 40          	add    $0x40,%rax
   13f46:	48 89 85 c8 f2 ff ff 	mov    %rax,-0xd38(%rbp)
   13f4d:	48 c7 85 d0 f2 ff ff 	movq   $0x0,-0xd30(%rbp)
   13f54:	00 00 00 00 
   13f58:	48 8d 85 10 cf ff ff 	lea    -0x30f0(%rbp),%rax
   13f5f:	48 83 c0 28          	add    $0x28,%rax
   13f63:	48 89 85 d8 f2 ff ff 	mov    %rax,-0xd28(%rbp)
   13f6a:	48 8d 05 3f bc 00 00 	lea    0xbc3f(%rip),%rax        # 1fbb0 <g_134>
   13f71:	48 89 85 e0 f2 ff ff 	mov    %rax,-0xd20(%rbp)
   13f78:	48 8d 05 41 bc 00 00 	lea    0xbc41(%rip),%rax        # 1fbc0 <g_143>
   13f7f:	48 89 85 e8 f2 ff ff 	mov    %rax,-0xd18(%rbp)
   13f86:	48 8d 05 33 bc 00 00 	lea    0xbc33(%rip),%rax        # 1fbc0 <g_143>
   13f8d:	48 89 85 f0 f2 ff ff 	mov    %rax,-0xd10(%rbp)
   13f94:	48 8d 85 10 cf ff ff 	lea    -0x30f0(%rbp),%rax
   13f9b:	48 83 c0 40          	add    $0x40,%rax
   13f9f:	48 89 85 f8 f2 ff ff 	mov    %rax,-0xd08(%rbp)
   13fa6:	48 8d 85 10 cf ff ff 	lea    -0x30f0(%rbp),%rax
   13fad:	48 83 c0 68          	add    $0x68,%rax
   13fb1:	48 89 85 00 f3 ff ff 	mov    %rax,-0xd00(%rbp)
   13fb8:	48 8d 85 10 cf ff ff 	lea    -0x30f0(%rbp),%rax
   13fbf:	48 83 c0 20          	add    $0x20,%rax
   13fc3:	48 89 85 08 f3 ff ff 	mov    %rax,-0xcf8(%rbp)
   13fca:	48 c7 85 10 f3 ff ff 	movq   $0x0,-0xcf0(%rbp)
   13fd1:	00 00 00 00 
   13fd5:	48 8d 85 10 cf ff ff 	lea    -0x30f0(%rbp),%rax
   13fdc:	48 83 c0 78          	add    $0x78,%rax
   13fe0:	48 89 85 18 f3 ff ff 	mov    %rax,-0xce8(%rbp)
   13fe7:	48 c7 85 20 f3 ff ff 	movq   $0x0,-0xce0(%rbp)
   13fee:	00 00 00 00 
   13ff2:	48 8d 85 10 cf ff ff 	lea    -0x30f0(%rbp),%rax
   13ff9:	48 83 c0 20          	add    $0x20,%rax
   13ffd:	48 89 85 28 f3 ff ff 	mov    %rax,-0xcd8(%rbp)
   14004:	48 8d 05 b5 bb 00 00 	lea    0xbbb5(%rip),%rax        # 1fbc0 <g_143>
   1400b:	48 89 85 30 f3 ff ff 	mov    %rax,-0xcd0(%rbp)
   14012:	48 8d 05 97 bb 00 00 	lea    0xbb97(%rip),%rax        # 1fbb0 <g_134>
   14019:	48 89 85 38 f3 ff ff 	mov    %rax,-0xcc8(%rbp)
   14020:	48 8d 85 10 cf ff ff 	lea    -0x30f0(%rbp),%rax
   14027:	48 83 c0 40          	add    $0x40,%rax
   1402b:	48 89 85 40 f3 ff ff 	mov    %rax,-0xcc0(%rbp)
   14032:	48 c7 85 48 f3 ff ff 	movq   $0x0,-0xcb8(%rbp)
   14039:	00 00 00 00 
   1403d:	48 c7 85 50 f3 ff ff 	movq   $0x0,-0xcb0(%rbp)
   14044:	00 00 00 00 
   14048:	48 8d 05 71 bb 00 00 	lea    0xbb71(%rip),%rax        # 1fbc0 <g_143>
   1404f:	48 89 85 58 f3 ff ff 	mov    %rax,-0xca8(%rbp)
   14056:	48 c7 85 60 f3 ff ff 	movq   $0x0,-0xca0(%rbp)
   1405d:	00 00 00 00 
   14061:	48 8d 05 48 bb 00 00 	lea    0xbb48(%rip),%rax        # 1fbb0 <g_134>
   14068:	48 89 85 68 f3 ff ff 	mov    %rax,-0xc98(%rbp)
   1406f:	48 8d 85 10 cf ff ff 	lea    -0x30f0(%rbp),%rax
   14076:	48 83 c0 40          	add    $0x40,%rax
   1407a:	48 89 85 70 f3 ff ff 	mov    %rax,-0xc90(%rbp)
   14081:	48 8d 05 28 bb 00 00 	lea    0xbb28(%rip),%rax        # 1fbb0 <g_134>
   14088:	48 89 85 78 f3 ff ff 	mov    %rax,-0xc88(%rbp)
   1408f:	48 8d 85 10 cf ff ff 	lea    -0x30f0(%rbp),%rax
   14096:	48 83 c0 40          	add    $0x40,%rax
   1409a:	48 89 85 80 f3 ff ff 	mov    %rax,-0xc80(%rbp)
   140a1:	48 c7 85 88 f3 ff ff 	movq   $0x0,-0xc78(%rbp)
   140a8:	00 00 00 00 
   140ac:	48 c7 85 90 f3 ff ff 	movq   $0x0,-0xc70(%rbp)
   140b3:	00 00 00 00 
   140b7:	48 8d 85 10 cf ff ff 	lea    -0x30f0(%rbp),%rax
   140be:	48 83 c0 40          	add    $0x40,%rax
   140c2:	48 89 85 98 f3 ff ff 	mov    %rax,-0xc68(%rbp)
   140c9:	48 8d 85 10 ca ff ff 	lea    -0x35f0(%rbp),%rax
   140d0:	48 89 85 a0 f3 ff ff 	mov    %rax,-0xc60(%rbp)
   140d7:	48 8d 85 10 cf ff ff 	lea    -0x30f0(%rbp),%rax
   140de:	48 83 c0 20          	add    $0x20,%rax
   140e2:	48 89 85 a8 f3 ff ff 	mov    %rax,-0xc58(%rbp)
   140e9:	48 c7 85 b0 f3 ff ff 	movq   $0x0,-0xc50(%rbp)
   140f0:	00 00 00 00 
   140f4:	48 8d 85 10 cf ff ff 	lea    -0x30f0(%rbp),%rax
   140fb:	48 83 c0 40          	add    $0x40,%rax
   140ff:	48 89 85 b8 f3 ff ff 	mov    %rax,-0xc48(%rbp)
   14106:	48 8d 85 10 cf ff ff 	lea    -0x30f0(%rbp),%rax
   1410d:	48 83 c0 40          	add    $0x40,%rax
   14111:	48 89 85 c0 f3 ff ff 	mov    %rax,-0xc40(%rbp)
   14118:	48 c7 85 c8 f3 ff ff 	movq   $0x0,-0xc38(%rbp)
   1411f:	00 00 00 00 
   14123:	48 8d 85 10 cf ff ff 	lea    -0x30f0(%rbp),%rax
   1412a:	48 83 c0 40          	add    $0x40,%rax
   1412e:	48 89 85 d0 f3 ff ff 	mov    %rax,-0xc30(%rbp)
   14135:	48 8d 85 10 cf ff ff 	lea    -0x30f0(%rbp),%rax
   1413c:	48 83 c0 40          	add    $0x40,%rax
   14140:	48 89 85 d8 f3 ff ff 	mov    %rax,-0xc28(%rbp)
   14147:	48 8d 85 10 ca ff ff 	lea    -0x35f0(%rbp),%rax
   1414e:	48 89 85 e0 f3 ff ff 	mov    %rax,-0xc20(%rbp)
   14155:	48 8d 05 64 ba 00 00 	lea    0xba64(%rip),%rax        # 1fbc0 <g_143>
   1415c:	48 89 85 e8 f3 ff ff 	mov    %rax,-0xc18(%rbp)
   14163:	48 8d 05 56 ba 00 00 	lea    0xba56(%rip),%rax        # 1fbc0 <g_143>
   1416a:	48 89 85 f0 f3 ff ff 	mov    %rax,-0xc10(%rbp)
   14171:	48 c7 85 f8 f3 ff ff 	movq   $0x0,-0xc08(%rbp)
   14178:	00 00 00 00 
   1417c:	48 8d 85 10 cf ff ff 	lea    -0x30f0(%rbp),%rax
   14183:	48 83 c0 40          	add    $0x40,%rax
   14187:	48 89 85 00 f4 ff ff 	mov    %rax,-0xc00(%rbp)
   1418e:	48 8d 85 10 cf ff ff 	lea    -0x30f0(%rbp),%rax
   14195:	48 83 c0 40          	add    $0x40,%rax
   14199:	48 89 85 08 f4 ff ff 	mov    %rax,-0xbf8(%rbp)
   141a0:	48 8d 85 10 cf ff ff 	lea    -0x30f0(%rbp),%rax
   141a7:	48 05 98 00 00 00    	add    $0x98,%rax
   141ad:	48 89 85 10 f4 ff ff 	mov    %rax,-0xbf0(%rbp)
   141b4:	48 8d 05 05 ba 00 00 	lea    0xba05(%rip),%rax        # 1fbc0 <g_143>
   141bb:	48 89 85 18 f4 ff ff 	mov    %rax,-0xbe8(%rbp)
   141c2:	48 c7 85 20 f4 ff ff 	movq   $0x0,-0xbe0(%rbp)
   141c9:	00 00 00 00 
   141cd:	48 8d 85 10 ca ff ff 	lea    -0x35f0(%rbp),%rax
   141d4:	48 89 85 28 f4 ff ff 	mov    %rax,-0xbd8(%rbp)
   141db:	48 8d 85 10 cf ff ff 	lea    -0x30f0(%rbp),%rax
   141e2:	48 83 c0 40          	add    $0x40,%rax
   141e6:	48 89 85 30 f4 ff ff 	mov    %rax,-0xbd0(%rbp)
   141ed:	48 8d 85 10 cf ff ff 	lea    -0x30f0(%rbp),%rax
   141f4:	48 83 c0 40          	add    $0x40,%rax
   141f8:	48 89 85 38 f4 ff ff 	mov    %rax,-0xbc8(%rbp)
   141ff:	48 8d 85 10 cf ff ff 	lea    -0x30f0(%rbp),%rax
   14206:	48 05 98 00 00 00    	add    $0x98,%rax
   1420c:	48 89 85 40 f4 ff ff 	mov    %rax,-0xbc0(%rbp)
   14213:	48 8d 85 10 cf ff ff 	lea    -0x30f0(%rbp),%rax
   1421a:	48 83 c0 28          	add    $0x28,%rax
   1421e:	48 89 85 48 f4 ff ff 	mov    %rax,-0xbb8(%rbp)
   14225:	48 8d 85 10 cf ff ff 	lea    -0x30f0(%rbp),%rax
   1422c:	48 83 c0 40          	add    $0x40,%rax
   14230:	48 89 85 50 f4 ff ff 	mov    %rax,-0xbb0(%rbp)
   14237:	48 c7 85 58 f4 ff ff 	movq   $0x0,-0xba8(%rbp)
   1423e:	00 00 00 00 
   14242:	48 8d 85 10 cf ff ff 	lea    -0x30f0(%rbp),%rax
   14249:	48 83 c0 40          	add    $0x40,%rax
   1424d:	48 89 85 60 f4 ff ff 	mov    %rax,-0xba0(%rbp)
   14254:	48 8d 85 10 cf ff ff 	lea    -0x30f0(%rbp),%rax
   1425b:	48 83 c0 28          	add    $0x28,%rax
   1425f:	48 89 85 68 f4 ff ff 	mov    %rax,-0xb98(%rbp)
   14266:	48 8d 85 10 ca ff ff 	lea    -0x35f0(%rbp),%rax
   1426d:	48 89 85 70 f4 ff ff 	mov    %rax,-0xb90(%rbp)
   14274:	48 8d 05 45 b9 00 00 	lea    0xb945(%rip),%rax        # 1fbc0 <g_143>
   1427b:	48 89 85 78 f4 ff ff 	mov    %rax,-0xb88(%rbp)
   14282:	48 8d 85 10 cf ff ff 	lea    -0x30f0(%rbp),%rax
   14289:	48 05 98 00 00 00    	add    $0x98,%rax
   1428f:	48 89 85 80 f4 ff ff 	mov    %rax,-0xb80(%rbp)
   14296:	48 c7 85 88 f4 ff ff 	movq   $0x0,-0xb78(%rbp)
   1429d:	00 00 00 00 
   142a1:	48 8d 05 18 b9 00 00 	lea    0xb918(%rip),%rax        # 1fbc0 <g_143>
   142a8:	48 89 85 90 f4 ff ff 	mov    %rax,-0xb70(%rbp)
   142af:	48 8d 85 10 cf ff ff 	lea    -0x30f0(%rbp),%rax
   142b6:	48 05 98 00 00 00    	add    $0x98,%rax
   142bc:	48 89 85 98 f4 ff ff 	mov    %rax,-0xb68(%rbp)
   142c3:	48 c7 85 a0 f4 ff ff 	movq   $0x0,-0xb60(%rbp)
   142ca:	00 00 00 00 
   142ce:	48 c7 85 a8 f4 ff ff 	movq   $0x0,-0xb58(%rbp)
   142d5:	00 00 00 00 
   142d9:	48 8d 85 10 cf ff ff 	lea    -0x30f0(%rbp),%rax
   142e0:	48 89 85 b0 f4 ff ff 	mov    %rax,-0xb50(%rbp)
   142e7:	48 8d 85 10 cf ff ff 	lea    -0x30f0(%rbp),%rax
   142ee:	48 83 c0 40          	add    $0x40,%rax
   142f2:	48 89 85 b8 f4 ff ff 	mov    %rax,-0xb48(%rbp)
   142f9:	48 8d 05 b0 b8 00 00 	lea    0xb8b0(%rip),%rax        # 1fbb0 <g_134>
   14300:	48 89 85 c0 f4 ff ff 	mov    %rax,-0xb40(%rbp)
   14307:	48 8d 85 10 cf ff ff 	lea    -0x30f0(%rbp),%rax
   1430e:	48 83 c0 68          	add    $0x68,%rax
   14312:	48 89 85 c8 f4 ff ff 	mov    %rax,-0xb38(%rbp)
   14319:	48 8d 85 10 cf ff ff 	lea    -0x30f0(%rbp),%rax
   14320:	48 83 c0 40          	add    $0x40,%rax
   14324:	48 89 85 d0 f4 ff ff 	mov    %rax,-0xb30(%rbp)
   1432b:	48 c7 85 d8 f4 ff ff 	movq   $0x0,-0xb28(%rbp)
   14332:	00 00 00 00 
   14336:	48 8d 05 83 b8 00 00 	lea    0xb883(%rip),%rax        # 1fbc0 <g_143>
   1433d:	48 89 85 e0 f4 ff ff 	mov    %rax,-0xb20(%rbp)
   14344:	48 8d 05 65 b8 00 00 	lea    0xb865(%rip),%rax        # 1fbb0 <g_134>
   1434b:	48 89 85 e8 f4 ff ff 	mov    %rax,-0xb18(%rbp)
   14352:	48 8d 05 67 b8 00 00 	lea    0xb867(%rip),%rax        # 1fbc0 <g_143>
   14359:	48 89 85 f0 f4 ff ff 	mov    %rax,-0xb10(%rbp)
   14360:	48 8d 05 49 b8 00 00 	lea    0xb849(%rip),%rax        # 1fbb0 <g_134>
   14367:	48 89 85 f8 f4 ff ff 	mov    %rax,-0xb08(%rbp)
   1436e:	48 c7 85 00 f5 ff ff 	movq   $0x0,-0xb00(%rbp)
   14375:	00 00 00 00 
   14379:	48 8d 05 30 b8 00 00 	lea    0xb830(%rip),%rax        # 1fbb0 <g_134>
   14380:	48 89 85 08 f5 ff ff 	mov    %rax,-0xaf8(%rbp)
   14387:	48 c7 85 10 f5 ff ff 	movq   $0x0,-0xaf0(%rbp)
   1438e:	00 00 00 00 
   14392:	48 8d 05 17 b8 00 00 	lea    0xb817(%rip),%rax        # 1fbb0 <g_134>
   14399:	48 89 85 18 f5 ff ff 	mov    %rax,-0xae8(%rbp)
   143a0:	48 c7 85 20 f5 ff ff 	movq   $0x0,-0xae0(%rbp)
   143a7:	00 00 00 00 
   143ab:	48 c7 85 28 f5 ff ff 	movq   $0x0,-0xad8(%rbp)
   143b2:	00 00 00 00 
   143b6:	48 c7 85 30 f5 ff ff 	movq   $0x0,-0xad0(%rbp)
   143bd:	00 00 00 00 
   143c1:	48 c7 85 38 f5 ff ff 	movq   $0x0,-0xac8(%rbp)
   143c8:	00 00 00 00 
   143cc:	48 8d 85 10 ca ff ff 	lea    -0x35f0(%rbp),%rax
   143d3:	48 89 85 40 f5 ff ff 	mov    %rax,-0xac0(%rbp)
   143da:	48 8d 85 10 cf ff ff 	lea    -0x30f0(%rbp),%rax
   143e1:	48 83 c0 20          	add    $0x20,%rax
   143e5:	48 89 85 48 f5 ff ff 	mov    %rax,-0xab8(%rbp)
   143ec:	48 8d 85 10 cf ff ff 	lea    -0x30f0(%rbp),%rax
   143f3:	48 89 85 50 f5 ff ff 	mov    %rax,-0xab0(%rbp)
   143fa:	48 8d 85 10 cf ff ff 	lea    -0x30f0(%rbp),%rax
   14401:	48 83 c0 68          	add    $0x68,%rax
   14405:	48 89 85 58 f5 ff ff 	mov    %rax,-0xaa8(%rbp)
   1440c:	48 8d 05 ad b7 00 00 	lea    0xb7ad(%rip),%rax        # 1fbc0 <g_143>
   14413:	48 89 85 60 f5 ff ff 	mov    %rax,-0xaa0(%rbp)
   1441a:	48 8d 85 10 cf ff ff 	lea    -0x30f0(%rbp),%rax
   14421:	48 83 c0 78          	add    $0x78,%rax
   14425:	48 89 85 68 f5 ff ff 	mov    %rax,-0xa98(%rbp)
   1442c:	48 8d 05 7d b7 00 00 	lea    0xb77d(%rip),%rax        # 1fbb0 <g_134>
   14433:	48 89 85 70 f5 ff ff 	mov    %rax,-0xa90(%rbp)
   1443a:	48 8d 85 10 cf ff ff 	lea    -0x30f0(%rbp),%rax
   14441:	48 83 c0 28          	add    $0x28,%rax
   14445:	48 89 85 78 f5 ff ff 	mov    %rax,-0xa88(%rbp)
   1444c:	48 8d 05 5d b7 00 00 	lea    0xb75d(%rip),%rax        # 1fbb0 <g_134>
   14453:	48 89 85 80 f5 ff ff 	mov    %rax,-0xa80(%rbp)
   1445a:	48 8d 85 10 cf ff ff 	lea    -0x30f0(%rbp),%rax
   14461:	48 83 c0 68          	add    $0x68,%rax
   14465:	48 89 85 88 f5 ff ff 	mov    %rax,-0xa78(%rbp)
   1446c:	48 8d 85 10 cf ff ff 	lea    -0x30f0(%rbp),%rax
   14473:	48 83 c0 40          	add    $0x40,%rax
   14477:	48 89 85 90 f5 ff ff 	mov    %rax,-0xa70(%rbp)
   1447e:	48 8d 85 10 cf ff ff 	lea    -0x30f0(%rbp),%rax
   14485:	48 05 98 00 00 00    	add    $0x98,%rax
   1448b:	48 89 85 98 f5 ff ff 	mov    %rax,-0xa68(%rbp)
   14492:	48 8d 85 10 ca ff ff 	lea    -0x35f0(%rbp),%rax
   14499:	48 89 85 a0 f5 ff ff 	mov    %rax,-0xa60(%rbp)
   144a0:	48 8d 05 19 b7 00 00 	lea    0xb719(%rip),%rax        # 1fbc0 <g_143>
   144a7:	48 89 85 a8 f5 ff ff 	mov    %rax,-0xa58(%rbp)
   144ae:	48 c7 85 b0 f5 ff ff 	movq   $0x0,-0xa50(%rbp)
   144b5:	00 00 00 00 
   144b9:	48 c7 85 b8 f5 ff ff 	movq   $0x0,-0xa48(%rbp)
   144c0:	00 00 00 00 
   144c4:	48 8d 85 10 cf ff ff 	lea    -0x30f0(%rbp),%rax
   144cb:	48 83 c0 40          	add    $0x40,%rax
   144cf:	48 89 85 c0 f5 ff ff 	mov    %rax,-0xa40(%rbp)
   144d6:	48 c7 85 c8 f5 ff ff 	movq   $0x0,-0xa38(%rbp)
   144dd:	00 00 00 00 
   144e1:	48 8d 85 10 cf ff ff 	lea    -0x30f0(%rbp),%rax
   144e8:	48 83 c0 40          	add    $0x40,%rax
   144ec:	48 89 85 d0 f5 ff ff 	mov    %rax,-0xa30(%rbp)
   144f3:	48 8d 85 10 cf ff ff 	lea    -0x30f0(%rbp),%rax
   144fa:	48 83 c0 68          	add    $0x68,%rax
   144fe:	48 89 85 d8 f5 ff ff 	mov    %rax,-0xa28(%rbp)
   14505:	48 c7 85 e0 f5 ff ff 	movq   $0x0,-0xa20(%rbp)
   1450c:	00 00 00 00 
   14510:	48 8d 05 99 b6 00 00 	lea    0xb699(%rip),%rax        # 1fbb0 <g_134>
   14517:	48 89 85 e8 f5 ff ff 	mov    %rax,-0xa18(%rbp)
   1451e:	48 8d 05 8b b6 00 00 	lea    0xb68b(%rip),%rax        # 1fbb0 <g_134>
   14525:	48 89 85 f0 f5 ff ff 	mov    %rax,-0xa10(%rbp)
   1452c:	48 8d 85 10 cf ff ff 	lea    -0x30f0(%rbp),%rax
   14533:	48 83 c0 40          	add    $0x40,%rax
   14537:	48 89 85 f8 f5 ff ff 	mov    %rax,-0xa08(%rbp)
   1453e:	48 8d 05 6b b6 00 00 	lea    0xb66b(%rip),%rax        # 1fbb0 <g_134>
   14545:	48 89 85 00 f6 ff ff 	mov    %rax,-0xa00(%rbp)
   1454c:	48 8d 85 10 cf ff ff 	lea    -0x30f0(%rbp),%rax
   14553:	48 83 c0 40          	add    $0x40,%rax
   14557:	48 89 85 08 f6 ff ff 	mov    %rax,-0x9f8(%rbp)
   1455e:	48 c7 85 10 f6 ff ff 	movq   $0x0,-0x9f0(%rbp)
   14565:	00 00 00 00 
   14569:	48 c7 85 18 f6 ff ff 	movq   $0x0,-0x9e8(%rbp)
   14570:	00 00 00 00 
   14574:	48 c7 85 20 f6 ff ff 	movq   $0x0,-0x9e0(%rbp)
   1457b:	00 00 00 00 
   1457f:	48 c7 85 28 f6 ff ff 	movq   $0x0,-0x9d8(%rbp)
   14586:	00 00 00 00 
   1458a:	48 c7 85 30 f6 ff ff 	movq   $0x0,-0x9d0(%rbp)
   14591:	00 00 00 00 
   14595:	48 8d 85 10 cf ff ff 	lea    -0x30f0(%rbp),%rax
   1459c:	48 89 85 38 f6 ff ff 	mov    %rax,-0x9c8(%rbp)
   145a3:	48 c7 85 40 f6 ff ff 	movq   $0x0,-0x9c0(%rbp)
   145aa:	00 00 00 00 
   145ae:	48 8d 85 10 cf ff ff 	lea    -0x30f0(%rbp),%rax
   145b5:	48 89 85 48 f6 ff ff 	mov    %rax,-0x9b8(%rbp)
   145bc:	48 8d 85 10 cf ff ff 	lea    -0x30f0(%rbp),%rax
   145c3:	48 05 98 00 00 00    	add    $0x98,%rax
   145c9:	48 89 85 50 f6 ff ff 	mov    %rax,-0x9b0(%rbp)
   145d0:	48 8d 85 10 cf ff ff 	lea    -0x30f0(%rbp),%rax
   145d7:	48 05 98 00 00 00    	add    $0x98,%rax
   145dd:	48 89 85 58 f6 ff ff 	mov    %rax,-0x9a8(%rbp)
   145e4:	48 8d 85 10 cf ff ff 	lea    -0x30f0(%rbp),%rax
   145eb:	48 89 85 60 f6 ff ff 	mov    %rax,-0x9a0(%rbp)
   145f2:	48 c7 85 68 f6 ff ff 	movq   $0x0,-0x998(%rbp)
   145f9:	00 00 00 00 
   145fd:	48 8d 85 10 cf ff ff 	lea    -0x30f0(%rbp),%rax
   14604:	48 83 c0 28          	add    $0x28,%rax
   14608:	48 89 85 70 f6 ff ff 	mov    %rax,-0x990(%rbp)
   1460f:	48 8d 05 aa b5 00 00 	lea    0xb5aa(%rip),%rax        # 1fbc0 <g_143>
   14616:	48 89 85 78 f6 ff ff 	mov    %rax,-0x988(%rbp)
   1461d:	48 c7 85 80 f6 ff ff 	movq   $0x0,-0x980(%rbp)
   14624:	00 00 00 00 
   14628:	48 8d 85 10 cf ff ff 	lea    -0x30f0(%rbp),%rax
   1462f:	48 83 c0 20          	add    $0x20,%rax
   14633:	48 89 85 88 f6 ff ff 	mov    %rax,-0x978(%rbp)
   1463a:	48 8d 85 10 ca ff ff 	lea    -0x35f0(%rbp),%rax
   14641:	48 89 85 90 f6 ff ff 	mov    %rax,-0x970(%rbp)
   14648:	48 8d 05 71 b5 00 00 	lea    0xb571(%rip),%rax        # 1fbc0 <g_143>
   1464f:	48 89 85 98 f6 ff ff 	mov    %rax,-0x968(%rbp)
   14656:	48 8d 05 53 b5 00 00 	lea    0xb553(%rip),%rax        # 1fbb0 <g_134>
   1465d:	48 89 85 a0 f6 ff ff 	mov    %rax,-0x960(%rbp)
   14664:	48 8d 85 10 cf ff ff 	lea    -0x30f0(%rbp),%rax
   1466b:	48 83 c0 78          	add    $0x78,%rax
   1466f:	48 89 85 a8 f6 ff ff 	mov    %rax,-0x958(%rbp)
   14676:	48 8d 85 10 cf ff ff 	lea    -0x30f0(%rbp),%rax
   1467d:	48 83 c0 40          	add    $0x40,%rax
   14681:	48 89 85 b0 f6 ff ff 	mov    %rax,-0x950(%rbp)
   14688:	48 8d 05 31 b5 00 00 	lea    0xb531(%rip),%rax        # 1fbc0 <g_143>
   1468f:	48 89 85 b8 f6 ff ff 	mov    %rax,-0x948(%rbp)
   14696:	48 8d 85 10 cf ff ff 	lea    -0x30f0(%rbp),%rax
   1469d:	48 83 c0 40          	add    $0x40,%rax
   146a1:	48 89 85 c0 f6 ff ff 	mov    %rax,-0x940(%rbp)
   146a8:	48 8d 05 11 b5 00 00 	lea    0xb511(%rip),%rax        # 1fbc0 <g_143>
   146af:	48 89 85 c8 f6 ff ff 	mov    %rax,-0x938(%rbp)
   146b6:	48 8d 05 f3 b4 00 00 	lea    0xb4f3(%rip),%rax        # 1fbb0 <g_134>
   146bd:	48 89 85 d0 f6 ff ff 	mov    %rax,-0x930(%rbp)
   146c4:	48 8d 05 e5 b4 00 00 	lea    0xb4e5(%rip),%rax        # 1fbb0 <g_134>
   146cb:	48 89 85 d8 f6 ff ff 	mov    %rax,-0x928(%rbp)
   146d2:	48 8d 05 e7 b4 00 00 	lea    0xb4e7(%rip),%rax        # 1fbc0 <g_143>
   146d9:	48 89 85 e0 f6 ff ff 	mov    %rax,-0x920(%rbp)
   146e0:	48 8d 85 10 cf ff ff 	lea    -0x30f0(%rbp),%rax
   146e7:	48 83 c0 20          	add    $0x20,%rax
   146eb:	48 89 85 e8 f6 ff ff 	mov    %rax,-0x918(%rbp)
   146f2:	48 c7 85 f0 f6 ff ff 	movq   $0x0,-0x910(%rbp)
   146f9:	00 00 00 00 
   146fd:	48 8d 85 10 cf ff ff 	lea    -0x30f0(%rbp),%rax
   14704:	48 83 c0 78          	add    $0x78,%rax
   14708:	48 89 85 f8 f6 ff ff 	mov    %rax,-0x908(%rbp)
   1470f:	48 8d 85 10 cf ff ff 	lea    -0x30f0(%rbp),%rax
   14716:	48 83 c0 28          	add    $0x28,%rax
   1471a:	48 89 85 00 f7 ff ff 	mov    %rax,-0x900(%rbp)
   14721:	48 8d 85 10 ca ff ff 	lea    -0x35f0(%rbp),%rax
   14728:	48 89 85 08 f7 ff ff 	mov    %rax,-0x8f8(%rbp)
   1472f:	48 8d 05 8a b4 00 00 	lea    0xb48a(%rip),%rax        # 1fbc0 <g_143>
   14736:	48 89 85 10 f7 ff ff 	mov    %rax,-0x8f0(%rbp)
   1473d:	48 8d 85 10 cf ff ff 	lea    -0x30f0(%rbp),%rax
   14744:	48 05 98 00 00 00    	add    $0x98,%rax
   1474a:	48 89 85 18 f7 ff ff 	mov    %rax,-0x8e8(%rbp)
   14751:	48 c7 85 20 f7 ff ff 	movq   $0x0,-0x8e0(%rbp)
   14758:	00 00 00 00 
   1475c:	48 c7 85 28 f7 ff ff 	movq   $0x0,-0x8d8(%rbp)
   14763:	00 00 00 00 
   14767:	48 c7 85 30 f7 ff ff 	movq   $0x0,-0x8d0(%rbp)
   1476e:	00 00 00 00 
   14772:	48 c7 85 38 f7 ff ff 	movq   $0x0,-0x8c8(%rbp)
   14779:	00 00 00 00 
   1477d:	48 8d 85 10 ca ff ff 	lea    -0x35f0(%rbp),%rax
   14784:	48 89 85 40 f7 ff ff 	mov    %rax,-0x8c0(%rbp)
   1478b:	48 c7 85 48 f7 ff ff 	movq   $0x0,-0x8b8(%rbp)
   14792:	00 00 00 00 
   14796:	48 8d 05 23 b4 00 00 	lea    0xb423(%rip),%rax        # 1fbc0 <g_143>
   1479d:	48 89 85 50 f7 ff ff 	mov    %rax,-0x8b0(%rbp)
   147a4:	48 8d 85 10 cf ff ff 	lea    -0x30f0(%rbp),%rax
   147ab:	48 83 c0 40          	add    $0x40,%rax
   147af:	48 89 85 58 f7 ff ff 	mov    %rax,-0x8a8(%rbp)
   147b6:	48 c7 85 60 f7 ff ff 	movq   $0x0,-0x8a0(%rbp)
   147bd:	00 00 00 00 
   147c1:	48 8d 05 e8 b3 00 00 	lea    0xb3e8(%rip),%rax        # 1fbb0 <g_134>
   147c8:	48 89 85 68 f7 ff ff 	mov    %rax,-0x898(%rbp)
   147cf:	48 8d 85 10 cf ff ff 	lea    -0x30f0(%rbp),%rax
   147d6:	48 83 c0 28          	add    $0x28,%rax
   147da:	48 89 85 70 f7 ff ff 	mov    %rax,-0x890(%rbp)
   147e1:	48 8d 85 10 cf ff ff 	lea    -0x30f0(%rbp),%rax
   147e8:	48 83 c0 40          	add    $0x40,%rax
   147ec:	48 89 85 78 f7 ff ff 	mov    %rax,-0x888(%rbp)
   147f3:	48 c7 85 80 f7 ff ff 	movq   $0x0,-0x880(%rbp)
   147fa:	00 00 00 00 
   147fe:	48 c7 85 88 f7 ff ff 	movq   $0x0,-0x878(%rbp)
   14805:	00 00 00 00 
   14809:	48 c7 85 90 f7 ff ff 	movq   $0x0,-0x870(%rbp)
   14810:	00 00 00 00 
   14814:	48 8d 85 10 cf ff ff 	lea    -0x30f0(%rbp),%rax
   1481b:	48 83 c0 68          	add    $0x68,%rax
   1481f:	48 89 85 98 f7 ff ff 	mov    %rax,-0x868(%rbp)
   14826:	48 c7 85 a0 f7 ff ff 	movq   $0x0,-0x860(%rbp)
   1482d:	00 00 00 00 
   14831:	48 8d 85 10 cf ff ff 	lea    -0x30f0(%rbp),%rax
   14838:	48 83 c0 68          	add    $0x68,%rax
   1483c:	48 89 85 a8 f7 ff ff 	mov    %rax,-0x858(%rbp)
   14843:	48 c7 85 b0 f7 ff ff 	movq   $0x0,-0x850(%rbp)
   1484a:	00 00 00 00 
   1484e:	48 8d 05 6b b3 00 00 	lea    0xb36b(%rip),%rax        # 1fbc0 <g_143>
   14855:	48 89 85 b8 f7 ff ff 	mov    %rax,-0x848(%rbp)
   1485c:	48 8d 85 10 cf ff ff 	lea    -0x30f0(%rbp),%rax
   14863:	48 83 c0 20          	add    $0x20,%rax
   14867:	48 89 85 c0 f7 ff ff 	mov    %rax,-0x840(%rbp)
   1486e:	48 8d 05 3b b3 00 00 	lea    0xb33b(%rip),%rax        # 1fbb0 <g_134>
   14875:	48 89 85 c8 f7 ff ff 	mov    %rax,-0x838(%rbp)
   1487c:	48 8d 85 10 ca ff ff 	lea    -0x35f0(%rbp),%rax
   14883:	48 89 85 d0 f7 ff ff 	mov    %rax,-0x830(%rbp)
   1488a:	48 8d 85 10 cf ff ff 	lea    -0x30f0(%rbp),%rax
   14891:	48 89 85 d8 f7 ff ff 	mov    %rax,-0x828(%rbp)
   14898:	48 8d 85 10 cf ff ff 	lea    -0x30f0(%rbp),%rax
   1489f:	48 83 c0 40          	add    $0x40,%rax
   148a3:	48 89 85 e0 f7 ff ff 	mov    %rax,-0x820(%rbp)
   148aa:	48 c7 85 e8 f7 ff ff 	movq   $0x0,-0x818(%rbp)
   148b1:	00 00 00 00 
   148b5:	48 8d 05 f4 b2 00 00 	lea    0xb2f4(%rip),%rax        # 1fbb0 <g_134>
   148bc:	48 89 85 d0 cb ff ff 	mov    %rax,-0x3430(%rbp)
   148c3:	48 c7 85 b0 de ff ff 	movq   $0x0,-0x2150(%rbp)
   148ca:	00 00 00 00 
   148ce:	48 8d 85 10 ca ff ff 	lea    -0x35f0(%rbp),%rax
   148d5:	48 89 85 b8 de ff ff 	mov    %rax,-0x2148(%rbp)
   148dc:	48 8d 85 10 cf ff ff 	lea    -0x30f0(%rbp),%rax
   148e3:	48 05 98 00 00 00    	add    $0x98,%rax
   148e9:	48 89 85 c0 de ff ff 	mov    %rax,-0x2140(%rbp)
   148f0:	48 c7 85 c8 de ff ff 	movq   $0x0,-0x2138(%rbp)
   148f7:	00 00 00 00 
   148fb:	48 8d 05 ae b2 00 00 	lea    0xb2ae(%rip),%rax        # 1fbb0 <g_134>
   14902:	48 89 85 d0 de ff ff 	mov    %rax,-0x2130(%rbp)
   14909:	48 8d 05 a0 b2 00 00 	lea    0xb2a0(%rip),%rax        # 1fbb0 <g_134>
   14910:	48 89 85 d8 de ff ff 	mov    %rax,-0x2128(%rbp)
   14917:	48 8d 85 10 cf ff ff 	lea    -0x30f0(%rbp),%rax
   1491e:	48 05 98 00 00 00    	add    $0x98,%rax
   14924:	48 89 85 e0 de ff ff 	mov    %rax,-0x2120(%rbp)
   1492b:	48 8d 85 10 cf ff ff 	lea    -0x30f0(%rbp),%rax
   14932:	48 83 c0 40          	add    $0x40,%rax
   14936:	48 89 85 e8 de ff ff 	mov    %rax,-0x2118(%rbp)
   1493d:	48 8d 85 10 cf ff ff 	lea    -0x30f0(%rbp),%rax
   14944:	48 83 c0 08          	add    $0x8,%rax
   14948:	48 89 85 f0 de ff ff 	mov    %rax,-0x2110(%rbp)
   1494f:	48 8d 85 10 ca ff ff 	lea    -0x35f0(%rbp),%rax
   14956:	48 89 85 f8 de ff ff 	mov    %rax,-0x2108(%rbp)
   1495d:	48 8d 85 10 cf ff ff 	lea    -0x30f0(%rbp),%rax
   14964:	48 83 c0 68          	add    $0x68,%rax
   14968:	48 89 85 00 df ff ff 	mov    %rax,-0x2100(%rbp)
   1496f:	48 8d 05 3a b2 00 00 	lea    0xb23a(%rip),%rax        # 1fbb0 <g_134>
   14976:	48 89 85 08 df ff ff 	mov    %rax,-0x20f8(%rbp)
   1497d:	48 8d 85 10 ca ff ff 	lea    -0x35f0(%rbp),%rax
   14984:	48 89 85 10 df ff ff 	mov    %rax,-0x20f0(%rbp)
   1498b:	48 c7 85 18 df ff ff 	movq   $0x0,-0x20e8(%rbp)
   14992:	00 00 00 00 
   14996:	48 8d 85 10 cf ff ff 	lea    -0x30f0(%rbp),%rax
   1499d:	48 05 98 00 00 00    	add    $0x98,%rax
   149a3:	48 89 85 20 df ff ff 	mov    %rax,-0x20e0(%rbp)
   149aa:	48 8d 85 10 cf ff ff 	lea    -0x30f0(%rbp),%rax
   149b1:	48 05 98 00 00 00    	add    $0x98,%rax
   149b7:	48 89 85 28 df ff ff 	mov    %rax,-0x20d8(%rbp)
   149be:	48 c7 85 30 df ff ff 	movq   $0x0,-0x20d0(%rbp)
   149c5:	00 00 00 00 
   149c9:	48 8d 85 10 ca ff ff 	lea    -0x35f0(%rbp),%rax
   149d0:	48 89 85 38 df ff ff 	mov    %rax,-0x20c8(%rbp)
   149d7:	48 8d 85 10 cf ff ff 	lea    -0x30f0(%rbp),%rax
   149de:	48 83 c0 68          	add    $0x68,%rax
   149e2:	48 89 85 40 df ff ff 	mov    %rax,-0x20c0(%rbp)
   149e9:	48 8d 85 10 ca ff ff 	lea    -0x35f0(%rbp),%rax
   149f0:	48 89 85 48 df ff ff 	mov    %rax,-0x20b8(%rbp)
   149f7:	48 8d 05 b2 b1 00 00 	lea    0xb1b2(%rip),%rax        # 1fbb0 <g_134>
   149fe:	48 89 85 50 df ff ff 	mov    %rax,-0x20b0(%rbp)
   14a05:	48 c7 85 58 df ff ff 	movq   $0x0,-0x20a8(%rbp)
   14a0c:	00 00 00 00 
   14a10:	48 c7 85 60 df ff ff 	movq   $0x0,-0x20a0(%rbp)
   14a17:	00 00 00 00 
   14a1b:	48 c7 85 68 df ff ff 	movq   $0x0,-0x2098(%rbp)
   14a22:	00 00 00 00 
   14a26:	48 8d 85 10 ca ff ff 	lea    -0x35f0(%rbp),%rax
   14a2d:	48 89 85 70 df ff ff 	mov    %rax,-0x2090(%rbp)
   14a34:	48 8d 85 10 cf ff ff 	lea    -0x30f0(%rbp),%rax
   14a3b:	48 83 c0 08          	add    $0x8,%rax
   14a3f:	48 89 85 78 df ff ff 	mov    %rax,-0x2088(%rbp)
   14a46:	48 c7 85 80 df ff ff 	movq   $0x0,-0x2080(%rbp)
   14a4d:	00 00 00 00 
   14a51:	48 8d 85 10 cf ff ff 	lea    -0x30f0(%rbp),%rax
   14a58:	48 83 c0 40          	add    $0x40,%rax
   14a5c:	48 89 85 88 df ff ff 	mov    %rax,-0x2078(%rbp)
   14a63:	48 8d 05 56 b1 00 00 	lea    0xb156(%rip),%rax        # 1fbc0 <g_143>
   14a6a:	48 89 85 90 df ff ff 	mov    %rax,-0x2070(%rbp)
   14a71:	48 8d 85 10 ca ff ff 	lea    -0x35f0(%rbp),%rax
   14a78:	48 89 85 98 df ff ff 	mov    %rax,-0x2068(%rbp)
   14a7f:	48 8d 85 10 ca ff ff 	lea    -0x35f0(%rbp),%rax
   14a86:	48 89 85 a0 df ff ff 	mov    %rax,-0x2060(%rbp)
   14a8d:	48 c7 85 a8 df ff ff 	movq   $0x0,-0x2058(%rbp)
   14a94:	00 00 00 00 
   14a98:	48 8d 85 10 cf ff ff 	lea    -0x30f0(%rbp),%rax
   14a9f:	48 83 c0 40          	add    $0x40,%rax
   14aa3:	48 89 85 b0 df ff ff 	mov    %rax,-0x2050(%rbp)
   14aaa:	48 c7 85 b8 df ff ff 	movq   $0x0,-0x2048(%rbp)
   14ab1:	00 00 00 00 
   14ab5:	48 8d 85 10 cf ff ff 	lea    -0x30f0(%rbp),%rax
   14abc:	48 83 c0 40          	add    $0x40,%rax
   14ac0:	48 89 85 c0 df ff ff 	mov    %rax,-0x2040(%rbp)
   14ac7:	48 c7 85 c8 df ff ff 	movq   $0x0,-0x2038(%rbp)
   14ace:	00 00 00 00 
   14ad2:	48 8d 85 10 cf ff ff 	lea    -0x30f0(%rbp),%rax
   14ad9:	48 83 c0 68          	add    $0x68,%rax
   14add:	48 89 85 d0 df ff ff 	mov    %rax,-0x2030(%rbp)
   14ae4:	48 c7 85 d8 df ff ff 	movq   $0x0,-0x2028(%rbp)
   14aeb:	00 00 00 00 
   14aef:	48 8d 85 10 ca ff ff 	lea    -0x35f0(%rbp),%rax
   14af6:	48 89 85 e0 df ff ff 	mov    %rax,-0x2020(%rbp)
   14afd:	48 8d 85 10 cf ff ff 	lea    -0x30f0(%rbp),%rax
   14b04:	48 05 98 00 00 00    	add    $0x98,%rax
   14b0a:	48 89 85 e8 df ff ff 	mov    %rax,-0x2018(%rbp)
   14b11:	48 c7 85 f0 df ff ff 	movq   $0x0,-0x2010(%rbp)
   14b18:	00 00 00 00 
   14b1c:	48 8d 05 8d b0 00 00 	lea    0xb08d(%rip),%rax        # 1fbb0 <g_134>
   14b23:	48 89 85 f8 df ff ff 	mov    %rax,-0x2008(%rbp)
   14b2a:	48 8d 85 10 ca ff ff 	lea    -0x35f0(%rbp),%rax
   14b31:	48 89 85 00 e0 ff ff 	mov    %rax,-0x2000(%rbp)
   14b38:	48 c7 85 08 e0 ff ff 	movq   $0x0,-0x1ff8(%rbp)
   14b3f:	00 00 00 00 
   14b43:	48 c7 85 10 e0 ff ff 	movq   $0x0,-0x1ff0(%rbp)
   14b4a:	00 00 00 00 
   14b4e:	48 8d 85 10 ca ff ff 	lea    -0x35f0(%rbp),%rax
   14b55:	48 89 85 18 e0 ff ff 	mov    %rax,-0x1fe8(%rbp)
   14b5c:	48 8d 05 4d b0 00 00 	lea    0xb04d(%rip),%rax        # 1fbb0 <g_134>
   14b63:	48 89 85 20 e0 ff ff 	mov    %rax,-0x1fe0(%rbp)
   14b6a:	48 8d 85 10 cf ff ff 	lea    -0x30f0(%rbp),%rax
   14b71:	48 83 c0 40          	add    $0x40,%rax
   14b75:	48 89 85 28 e0 ff ff 	mov    %rax,-0x1fd8(%rbp)
   14b7c:	48 8d 85 10 cf ff ff 	lea    -0x30f0(%rbp),%rax
   14b83:	48 05 98 00 00 00    	add    $0x98,%rax
   14b89:	48 89 85 30 e0 ff ff 	mov    %rax,-0x1fd0(%rbp)
   14b90:	48 c7 85 38 e0 ff ff 	movq   $0x0,-0x1fc8(%rbp)
   14b97:	00 00 00 00 
   14b9b:	48 8d 85 10 cf ff ff 	lea    -0x30f0(%rbp),%rax
   14ba2:	48 83 c0 40          	add    $0x40,%rax
   14ba6:	48 89 85 40 e0 ff ff 	mov    %rax,-0x1fc0(%rbp)
   14bad:	48 c7 85 48 e0 ff ff 	movq   $0x0,-0x1fb8(%rbp)
   14bb4:	00 00 00 00 
   14bb8:	48 c7 85 50 e0 ff ff 	movq   $0x0,-0x1fb0(%rbp)
   14bbf:	00 00 00 00 
   14bc3:	48 8d 85 10 cf ff ff 	lea    -0x30f0(%rbp),%rax
   14bca:	48 83 c0 40          	add    $0x40,%rax
   14bce:	48 89 85 58 e0 ff ff 	mov    %rax,-0x1fa8(%rbp)
   14bd5:	48 c7 85 60 e0 ff ff 	movq   $0x0,-0x1fa0(%rbp)
   14bdc:	00 00 00 00 
   14be0:	48 c7 85 68 e0 ff ff 	movq   $0x0,-0x1f98(%rbp)
   14be7:	00 00 00 00 
   14beb:	48 c7 85 70 e0 ff ff 	movq   $0x0,-0x1f90(%rbp)
   14bf2:	00 00 00 00 
   14bf6:	48 8d 85 10 cf ff ff 	lea    -0x30f0(%rbp),%rax
   14bfd:	48 83 c0 40          	add    $0x40,%rax
   14c01:	48 89 85 78 e0 ff ff 	mov    %rax,-0x1f88(%rbp)
   14c08:	48 8d 85 10 cf ff ff 	lea    -0x30f0(%rbp),%rax
   14c0f:	48 83 c0 40          	add    $0x40,%rax
   14c13:	48 89 85 80 e0 ff ff 	mov    %rax,-0x1f80(%rbp)
   14c1a:	48 8d 85 10 ca ff ff 	lea    -0x35f0(%rbp),%rax
   14c21:	48 89 85 88 e0 ff ff 	mov    %rax,-0x1f78(%rbp)
   14c28:	48 8d 85 10 cf ff ff 	lea    -0x30f0(%rbp),%rax
   14c2f:	48 83 c0 08          	add    $0x8,%rax
   14c33:	48 89 85 90 e0 ff ff 	mov    %rax,-0x1f70(%rbp)
   14c3a:	48 c7 85 98 e0 ff ff 	movq   $0x0,-0x1f68(%rbp)
   14c41:	00 00 00 00 
   14c45:	48 8d 85 10 ca ff ff 	lea    -0x35f0(%rbp),%rax
   14c4c:	48 89 85 a0 e0 ff ff 	mov    %rax,-0x1f60(%rbp)
   14c53:	48 8d 85 10 ca ff ff 	lea    -0x35f0(%rbp),%rax
   14c5a:	48 89 85 a8 e0 ff ff 	mov    %rax,-0x1f58(%rbp)
   14c61:	48 8d 05 58 af 00 00 	lea    0xaf58(%rip),%rax        # 1fbc0 <g_143>
   14c68:	48 89 85 b0 e0 ff ff 	mov    %rax,-0x1f50(%rbp)
   14c6f:	48 c7 85 b8 e0 ff ff 	movq   $0x0,-0x1f48(%rbp)
   14c76:	00 00 00 00 
   14c7a:	48 8d 05 2f af 00 00 	lea    0xaf2f(%rip),%rax        # 1fbb0 <g_134>
   14c81:	48 89 85 c0 e0 ff ff 	mov    %rax,-0x1f40(%rbp)
   14c88:	48 8d 85 10 cf ff ff 	lea    -0x30f0(%rbp),%rax
   14c8f:	48 83 c0 08          	add    $0x8,%rax
   14c93:	48 89 85 c8 e0 ff ff 	mov    %rax,-0x1f38(%rbp)
   14c9a:	48 8d 85 10 ca ff ff 	lea    -0x35f0(%rbp),%rax
   14ca1:	48 89 85 d0 e0 ff ff 	mov    %rax,-0x1f30(%rbp)
   14ca8:	48 8d 85 10 ca ff ff 	lea    -0x35f0(%rbp),%rax
   14caf:	48 89 85 d8 e0 ff ff 	mov    %rax,-0x1f28(%rbp)
   14cb6:	48 c7 85 e0 e0 ff ff 	movq   $0x0,-0x1f20(%rbp)
   14cbd:	00 00 00 00 
   14cc1:	48 8d 85 10 ca ff ff 	lea    -0x35f0(%rbp),%rax
   14cc8:	48 89 85 e8 e0 ff ff 	mov    %rax,-0x1f18(%rbp)
   14ccf:	48 c7 85 f0 e0 ff ff 	movq   $0x0,-0x1f10(%rbp)
   14cd6:	00 00 00 00 
   14cda:	48 8d 85 10 ca ff ff 	lea    -0x35f0(%rbp),%rax
   14ce1:	48 89 85 f8 e0 ff ff 	mov    %rax,-0x1f08(%rbp)
   14ce8:	48 c7 85 00 e1 ff ff 	movq   $0x0,-0x1f00(%rbp)
   14cef:	00 00 00 00 
   14cf3:	48 8d 05 b6 ae 00 00 	lea    0xaeb6(%rip),%rax        # 1fbb0 <g_134>
   14cfa:	48 89 85 08 e1 ff ff 	mov    %rax,-0x1ef8(%rbp)
   14d01:	48 c7 85 10 e1 ff ff 	movq   $0x0,-0x1ef0(%rbp)
   14d08:	00 00 00 00 
   14d0c:	48 8d 85 10 cf ff ff 	lea    -0x30f0(%rbp),%rax
   14d13:	48 83 c0 40          	add    $0x40,%rax
   14d17:	48 89 85 18 e1 ff ff 	mov    %rax,-0x1ee8(%rbp)
   14d1e:	48 8d 05 8b ae 00 00 	lea    0xae8b(%rip),%rax        # 1fbb0 <g_134>
   14d25:	48 89 85 20 e1 ff ff 	mov    %rax,-0x1ee0(%rbp)
   14d2c:	48 c7 85 28 e1 ff ff 	movq   $0x0,-0x1ed8(%rbp)
   14d33:	00 00 00 00 
   14d37:	48 8d 85 10 cf ff ff 	lea    -0x30f0(%rbp),%rax
   14d3e:	48 83 c0 40          	add    $0x40,%rax
   14d42:	48 89 85 30 e1 ff ff 	mov    %rax,-0x1ed0(%rbp)
   14d49:	48 8d 05 70 ae 00 00 	lea    0xae70(%rip),%rax        # 1fbc0 <g_143>
   14d50:	48 89 85 38 e1 ff ff 	mov    %rax,-0x1ec8(%rbp)
   14d57:	48 8d 85 10 cf ff ff 	lea    -0x30f0(%rbp),%rax
   14d5e:	48 83 c0 68          	add    $0x68,%rax
   14d62:	48 89 85 40 e1 ff ff 	mov    %rax,-0x1ec0(%rbp)
   14d69:	48 8d 85 10 cf ff ff 	lea    -0x30f0(%rbp),%rax
   14d70:	48 83 c0 40          	add    $0x40,%rax
   14d74:	48 89 85 48 e1 ff ff 	mov    %rax,-0x1eb8(%rbp)
   14d7b:	48 8d 85 10 cf ff ff 	lea    -0x30f0(%rbp),%rax
   14d82:	48 83 c0 40          	add    $0x40,%rax
   14d86:	48 89 85 50 e1 ff ff 	mov    %rax,-0x1eb0(%rbp)
   14d8d:	48 8d 85 10 cf ff ff 	lea    -0x30f0(%rbp),%rax
   14d94:	48 83 c0 40          	add    $0x40,%rax
   14d98:	48 89 85 58 e1 ff ff 	mov    %rax,-0x1ea8(%rbp)
   14d9f:	48 c7 85 60 e1 ff ff 	movq   $0x0,-0x1ea0(%rbp)
   14da6:	00 00 00 00 
   14daa:	48 8d 05 0f ae 00 00 	lea    0xae0f(%rip),%rax        # 1fbc0 <g_143>
   14db1:	48 89 85 68 e1 ff ff 	mov    %rax,-0x1e98(%rbp)
   14db8:	48 8d 05 f1 ad 00 00 	lea    0xadf1(%rip),%rax        # 1fbb0 <g_134>
   14dbf:	48 89 85 70 e1 ff ff 	mov    %rax,-0x1e90(%rbp)
   14dc6:	48 8d 05 e3 ad 00 00 	lea    0xade3(%rip),%rax        # 1fbb0 <g_134>
   14dcd:	48 89 85 78 e1 ff ff 	mov    %rax,-0x1e88(%rbp)
   14dd4:	48 8d 05 d5 ad 00 00 	lea    0xadd5(%rip),%rax        # 1fbb0 <g_134>
   14ddb:	48 89 85 80 e1 ff ff 	mov    %rax,-0x1e80(%rbp)
   14de2:	48 8d 85 10 ca ff ff 	lea    -0x35f0(%rbp),%rax
   14de9:	48 89 85 88 e1 ff ff 	mov    %rax,-0x1e78(%rbp)
   14df0:	48 8d 85 10 ca ff ff 	lea    -0x35f0(%rbp),%rax
   14df7:	48 89 85 90 e1 ff ff 	mov    %rax,-0x1e70(%rbp)
   14dfe:	48 8d 05 ab ad 00 00 	lea    0xadab(%rip),%rax        # 1fbb0 <g_134>
   14e05:	48 89 85 98 e1 ff ff 	mov    %rax,-0x1e68(%rbp)
   14e0c:	48 8d 85 10 cf ff ff 	lea    -0x30f0(%rbp),%rax
   14e13:	48 83 c0 08          	add    $0x8,%rax
   14e17:	48 89 85 a0 e1 ff ff 	mov    %rax,-0x1e60(%rbp)
   14e1e:	48 c7 85 a8 e1 ff ff 	movq   $0x0,-0x1e58(%rbp)
   14e25:	00 00 00 00 
   14e29:	48 c7 85 b0 e1 ff ff 	movq   $0x0,-0x1e50(%rbp)
   14e30:	00 00 00 00 
   14e34:	48 8d 85 10 cf ff ff 	lea    -0x30f0(%rbp),%rax
   14e3b:	48 83 c0 40          	add    $0x40,%rax
   14e3f:	48 89 85 b8 e1 ff ff 	mov    %rax,-0x1e48(%rbp)
   14e46:	48 8d 85 10 cf ff ff 	lea    -0x30f0(%rbp),%rax
   14e4d:	48 83 c0 40          	add    $0x40,%rax
   14e51:	48 89 85 c0 e1 ff ff 	mov    %rax,-0x1e40(%rbp)
   14e58:	48 8d 85 10 ca ff ff 	lea    -0x35f0(%rbp),%rax
   14e5f:	48 89 85 c8 e1 ff ff 	mov    %rax,-0x1e38(%rbp)
   14e66:	48 c7 85 d0 e1 ff ff 	movq   $0x0,-0x1e30(%rbp)
   14e6d:	00 00 00 00 
   14e71:	48 8d 85 10 ca ff ff 	lea    -0x35f0(%rbp),%rax
   14e78:	48 89 85 d8 e1 ff ff 	mov    %rax,-0x1e28(%rbp)
   14e7f:	48 8d 05 2a ad 00 00 	lea    0xad2a(%rip),%rax        # 1fbb0 <g_134>
   14e86:	48 89 85 e0 e1 ff ff 	mov    %rax,-0x1e20(%rbp)
   14e8d:	48 8d 05 2c ad 00 00 	lea    0xad2c(%rip),%rax        # 1fbc0 <g_143>
   14e94:	48 89 85 e8 e1 ff ff 	mov    %rax,-0x1e18(%rbp)
   14e9b:	48 c7 85 f0 e1 ff ff 	movq   $0x0,-0x1e10(%rbp)
   14ea2:	00 00 00 00 
   14ea6:	48 8d 85 10 ca ff ff 	lea    -0x35f0(%rbp),%rax
   14ead:	48 89 85 f8 e1 ff ff 	mov    %rax,-0x1e08(%rbp)
   14eb4:	48 c7 85 00 e2 ff ff 	movq   $0x0,-0x1e00(%rbp)
   14ebb:	00 00 00 00 
   14ebf:	48 c7 85 08 e2 ff ff 	movq   $0x0,-0x1df8(%rbp)
   14ec6:	00 00 00 00 
   14eca:	48 8d 85 10 cf ff ff 	lea    -0x30f0(%rbp),%rax
   14ed1:	48 83 c0 08          	add    $0x8,%rax
   14ed5:	48 89 85 10 e2 ff ff 	mov    %rax,-0x1df0(%rbp)
   14edc:	48 8d 85 10 cf ff ff 	lea    -0x30f0(%rbp),%rax
   14ee3:	48 83 c0 40          	add    $0x40,%rax
   14ee7:	48 89 85 18 e2 ff ff 	mov    %rax,-0x1de8(%rbp)
   14eee:	48 8d 05 bb ac 00 00 	lea    0xacbb(%rip),%rax        # 1fbb0 <g_134>
   14ef5:	48 89 85 20 e2 ff ff 	mov    %rax,-0x1de0(%rbp)
   14efc:	48 8d 85 10 cf ff ff 	lea    -0x30f0(%rbp),%rax
   14f03:	48 83 c0 40          	add    $0x40,%rax
   14f07:	48 89 85 28 e2 ff ff 	mov    %rax,-0x1dd8(%rbp)
   14f0e:	48 8d 85 10 cf ff ff 	lea    -0x30f0(%rbp),%rax
   14f15:	48 83 c0 08          	add    $0x8,%rax
   14f19:	48 89 85 30 e2 ff ff 	mov    %rax,-0x1dd0(%rbp)
   14f20:	48 8d 85 10 ca ff ff 	lea    -0x35f0(%rbp),%rax
   14f27:	48 89 85 38 e2 ff ff 	mov    %rax,-0x1dc8(%rbp)
   14f2e:	48 c7 85 40 e2 ff ff 	movq   $0x0,-0x1dc0(%rbp)
   14f35:	00 00 00 00 
   14f39:	48 8d 85 10 ca ff ff 	lea    -0x35f0(%rbp),%rax
   14f40:	48 89 85 48 e2 ff ff 	mov    %rax,-0x1db8(%rbp)
   14f47:	48 8d 85 10 cf ff ff 	lea    -0x30f0(%rbp),%rax
   14f4e:	48 05 98 00 00 00    	add    $0x98,%rax
   14f54:	48 89 85 50 e2 ff ff 	mov    %rax,-0x1db0(%rbp)
   14f5b:	48 c7 85 58 e2 ff ff 	movq   $0x0,-0x1da8(%rbp)
   14f62:	00 00 00 00 
   14f66:	48 8d 05 43 ac 00 00 	lea    0xac43(%rip),%rax        # 1fbb0 <g_134>
   14f6d:	48 89 85 60 e2 ff ff 	mov    %rax,-0x1da0(%rbp)
   14f74:	48 8d 05 35 ac 00 00 	lea    0xac35(%rip),%rax        # 1fbb0 <g_134>
   14f7b:	48 89 85 68 e2 ff ff 	mov    %rax,-0x1d98(%rbp)
   14f82:	48 8d 85 10 cf ff ff 	lea    -0x30f0(%rbp),%rax
   14f89:	48 05 98 00 00 00    	add    $0x98,%rax
   14f8f:	48 89 85 70 e2 ff ff 	mov    %rax,-0x1d90(%rbp)
   14f96:	48 8d 85 10 cf ff ff 	lea    -0x30f0(%rbp),%rax
   14f9d:	48 83 c0 40          	add    $0x40,%rax
   14fa1:	48 89 85 78 e2 ff ff 	mov    %rax,-0x1d88(%rbp)
   14fa8:	48 8d 85 10 cf ff ff 	lea    -0x30f0(%rbp),%rax
   14faf:	48 83 c0 08          	add    $0x8,%rax
   14fb3:	48 89 85 80 e2 ff ff 	mov    %rax,-0x1d80(%rbp)
   14fba:	48 c7 85 88 e2 ff ff 	movq   $0x0,-0x1d78(%rbp)
   14fc1:	00 00 00 00 
   14fc5:	48 c7 85 90 e2 ff ff 	movq   $0x0,-0x1d70(%rbp)
   14fcc:	00 00 00 00 
   14fd0:	48 c7 85 98 e2 ff ff 	movq   $0x0,-0x1d68(%rbp)
   14fd7:	00 00 00 00 
   14fdb:	48 c7 85 a0 e2 ff ff 	movq   $0x0,-0x1d60(%rbp)
   14fe2:	00 00 00 00 
   14fe6:	48 8d 05 d3 ab 00 00 	lea    0xabd3(%rip),%rax        # 1fbc0 <g_143>
   14fed:	48 89 85 a8 e2 ff ff 	mov    %rax,-0x1d58(%rbp)
   14ff4:	48 8d 05 b5 ab 00 00 	lea    0xabb5(%rip),%rax        # 1fbb0 <g_134>
   14ffb:	48 89 85 b0 e2 ff ff 	mov    %rax,-0x1d50(%rbp)
   15002:	48 8d 05 a7 ab 00 00 	lea    0xaba7(%rip),%rax        # 1fbb0 <g_134>
   15009:	48 89 85 b8 e2 ff ff 	mov    %rax,-0x1d48(%rbp)
   15010:	48 8d 05 a9 ab 00 00 	lea    0xaba9(%rip),%rax        # 1fbc0 <g_143>
   15017:	48 89 85 c0 e2 ff ff 	mov    %rax,-0x1d40(%rbp)
   1501e:	48 c7 85 c8 e2 ff ff 	movq   $0x0,-0x1d38(%rbp)
   15025:	00 00 00 00 
   15029:	48 c7 85 d0 e2 ff ff 	movq   $0x0,-0x1d30(%rbp)
   15030:	00 00 00 00 
   15034:	48 8d 85 10 cf ff ff 	lea    -0x30f0(%rbp),%rax
   1503b:	48 83 c0 40          	add    $0x40,%rax
   1503f:	48 89 85 d8 e2 ff ff 	mov    %rax,-0x1d28(%rbp)
   15046:	48 c7 85 e0 e2 ff ff 	movq   $0x0,-0x1d20(%rbp)
   1504d:	00 00 00 00 
   15051:	48 8d 85 10 cf ff ff 	lea    -0x30f0(%rbp),%rax
   15058:	48 05 98 00 00 00    	add    $0x98,%rax
   1505e:	48 89 85 e8 e2 ff ff 	mov    %rax,-0x1d18(%rbp)
   15065:	48 8d 05 44 ab 00 00 	lea    0xab44(%rip),%rax        # 1fbb0 <g_134>
   1506c:	48 89 85 f0 e2 ff ff 	mov    %rax,-0x1d10(%rbp)
   15073:	48 8d 05 46 ab 00 00 	lea    0xab46(%rip),%rax        # 1fbc0 <g_143>
   1507a:	48 89 85 f8 e2 ff ff 	mov    %rax,-0x1d08(%rbp)
   15081:	48 8d 85 10 cf ff ff 	lea    -0x30f0(%rbp),%rax
   15088:	48 83 c0 40          	add    $0x40,%rax
   1508c:	48 89 85 00 e3 ff ff 	mov    %rax,-0x1d00(%rbp)
   15093:	48 8d 85 10 cf ff ff 	lea    -0x30f0(%rbp),%rax
   1509a:	48 83 c0 40          	add    $0x40,%rax
   1509e:	48 89 85 08 e3 ff ff 	mov    %rax,-0x1cf8(%rbp)
   150a5:	48 8d 05 04 ab 00 00 	lea    0xab04(%rip),%rax        # 1fbb0 <g_134>
   150ac:	48 89 85 10 e3 ff ff 	mov    %rax,-0x1cf0(%rbp)
   150b3:	48 8d 85 10 cf ff ff 	lea    -0x30f0(%rbp),%rax
   150ba:	48 83 c0 08          	add    $0x8,%rax
   150be:	48 89 85 18 e3 ff ff 	mov    %rax,-0x1ce8(%rbp)
   150c5:	48 8d 85 10 ca ff ff 	lea    -0x35f0(%rbp),%rax
   150cc:	48 89 85 20 e3 ff ff 	mov    %rax,-0x1ce0(%rbp)
   150d3:	48 8d 85 10 ca ff ff 	lea    -0x35f0(%rbp),%rax
   150da:	48 89 85 28 e3 ff ff 	mov    %rax,-0x1cd8(%rbp)
   150e1:	48 8d 85 10 cf ff ff 	lea    -0x30f0(%rbp),%rax
   150e8:	48 83 c0 40          	add    $0x40,%rax
   150ec:	48 89 85 30 e3 ff ff 	mov    %rax,-0x1cd0(%rbp)
   150f3:	48 8d 85 10 cf ff ff 	lea    -0x30f0(%rbp),%rax
   150fa:	48 83 c0 40          	add    $0x40,%rax
   150fe:	48 89 85 38 e3 ff ff 	mov    %rax,-0x1cc8(%rbp)
   15105:	48 8d 85 10 cf ff ff 	lea    -0x30f0(%rbp),%rax
   1510c:	48 83 c0 08          	add    $0x8,%rax
   15110:	48 89 85 40 e3 ff ff 	mov    %rax,-0x1cc0(%rbp)
   15117:	48 8d 85 10 cf ff ff 	lea    -0x30f0(%rbp),%rax
   1511e:	48 05 98 00 00 00    	add    $0x98,%rax
   15124:	48 89 85 48 e3 ff ff 	mov    %rax,-0x1cb8(%rbp)
   1512b:	48 8d 85 10 cf ff ff 	lea    -0x30f0(%rbp),%rax
   15132:	48 83 c0 08          	add    $0x8,%rax
   15136:	48 89 85 50 e3 ff ff 	mov    %rax,-0x1cb0(%rbp)
   1513d:	48 8d 85 10 cf ff ff 	lea    -0x30f0(%rbp),%rax
   15144:	48 83 c0 40          	add    $0x40,%rax
   15148:	48 89 85 58 e3 ff ff 	mov    %rax,-0x1ca8(%rbp)
   1514f:	48 c7 85 60 e3 ff ff 	movq   $0x0,-0x1ca0(%rbp)
   15156:	00 00 00 00 
   1515a:	48 8d 05 4f aa 00 00 	lea    0xaa4f(%rip),%rax        # 1fbb0 <g_134>
   15161:	48 89 85 68 e3 ff ff 	mov    %rax,-0x1c98(%rbp)
   15168:	48 c7 85 70 e3 ff ff 	movq   $0x0,-0x1c90(%rbp)
   1516f:	00 00 00 00 
   15173:	48 8d 05 36 aa 00 00 	lea    0xaa36(%rip),%rax        # 1fbb0 <g_134>
   1517a:	48 89 85 78 e3 ff ff 	mov    %rax,-0x1c88(%rbp)
   15181:	48 8d 85 10 cf ff ff 	lea    -0x30f0(%rbp),%rax
   15188:	48 83 c0 40          	add    $0x40,%rax
   1518c:	48 89 85 80 e3 ff ff 	mov    %rax,-0x1c80(%rbp)
   15193:	48 c7 85 88 e3 ff ff 	movq   $0x0,-0x1c78(%rbp)
   1519a:	00 00 00 00 
   1519e:	48 c7 85 90 e3 ff ff 	movq   $0x0,-0x1c70(%rbp)
   151a5:	00 00 00 00 
   151a9:	48 8d 85 10 cf ff ff 	lea    -0x30f0(%rbp),%rax
   151b0:	48 83 c0 68          	add    $0x68,%rax
   151b4:	48 89 85 98 e3 ff ff 	mov    %rax,-0x1c68(%rbp)
   151bb:	48 8d 85 10 cf ff ff 	lea    -0x30f0(%rbp),%rax
   151c2:	48 05 98 00 00 00    	add    $0x98,%rax
   151c8:	48 89 85 a0 e3 ff ff 	mov    %rax,-0x1c60(%rbp)
   151cf:	48 c7 85 a8 e3 ff ff 	movq   $0x0,-0x1c58(%rbp)
   151d6:	00 00 00 00 
   151da:	48 c7 85 b0 e3 ff ff 	movq   $0x0,-0x1c50(%rbp)
   151e1:	00 00 00 00 
   151e5:	48 8d 85 10 cf ff ff 	lea    -0x30f0(%rbp),%rax
   151ec:	48 83 c0 08          	add    $0x8,%rax
   151f0:	48 89 85 b8 e3 ff ff 	mov    %rax,-0x1c48(%rbp)
   151f7:	48 8d 05 c2 a9 00 00 	lea    0xa9c2(%rip),%rax        # 1fbc0 <g_143>
   151fe:	48 89 85 a0 cd ff ff 	mov    %rax,-0x3260(%rbp)
   15205:	48 8d 05 b4 a9 00 00 	lea    0xa9b4(%rip),%rax        # 1fbc0 <g_143>
   1520c:	48 89 85 a8 cd ff ff 	mov    %rax,-0x3258(%rbp)
   15213:	48 8d 05 a6 a9 00 00 	lea    0xa9a6(%rip),%rax        # 1fbc0 <g_143>
   1521a:	48 89 85 b0 cd ff ff 	mov    %rax,-0x3250(%rbp)
   15221:	48 8d 05 98 a9 00 00 	lea    0xa998(%rip),%rax        # 1fbc0 <g_143>
   15228:	48 89 85 b8 cd ff ff 	mov    %rax,-0x3248(%rbp)
   1522f:	48 8d 05 46 91 00 00 	lea    0x9146(%rip),%rax        # 1e37c <g_175>
   15236:	48 89 85 20 ca ff ff 	mov    %rax,-0x35e0(%rbp)
   1523d:	48 c7 85 d8 cb ff ff 	movq   $0x8,-0x3428(%rbp)
   15244:	08 00 00 00 
   15248:	c7 85 0c c9 ff ff 00 	movl   $0x0,-0x36f4(%rbp)
   1524f:	00 00 00 
   15252:	eb 19                	jmp    1526d <func_56+0x5cbe>
   15254:	8b 85 0c c9 ff ff    	mov    -0x36f4(%rbp),%eax
   1525a:	48 98                	cltq   
   1525c:	66 c7 84 45 f8 cc ff 	movw   $0xff47,-0x3308(%rbp,%rax,2)
   15263:	ff 47 ff 
   15266:	83 85 0c c9 ff ff 01 	addl   $0x1,-0x36f4(%rbp)
   1526d:	83 bd 0c c9 ff ff 03 	cmpl   $0x3,-0x36f4(%rbp)
   15274:	7e de                	jle    15254 <func_56+0x5ca5>
   15276:	c7 85 0c c9 ff ff 00 	movl   $0x0,-0x36f4(%rbp)
   1527d:	00 00 00 
   15280:	eb 1e                	jmp    152a0 <func_56+0x5cf1>
   15282:	8b 85 0c c9 ff ff    	mov    -0x36f4(%rbp),%eax
   15288:	48 98                	cltq   
   1528a:	48 8d 15 3f a9 00 00 	lea    0xa93f(%rip),%rdx        # 1fbd0 <g_187>
   15291:	48 89 94 c5 40 cd ff 	mov    %rdx,-0x32c0(%rbp,%rax,8)
   15298:	ff 
   15299:	83 85 0c c9 ff ff 01 	addl   $0x1,-0x36f4(%rbp)
   152a0:	83 bd 0c c9 ff ff 02 	cmpl   $0x2,-0x36f4(%rbp)
   152a7:	7e d9                	jle    15282 <func_56+0x5cd3>
   152a9:	8b 05 cd 90 00 00    	mov    0x90cd(%rip),%eax        # 1e37c <g_175>
   152af:	89 c3                	mov    %eax,%ebx
   152b1:	0f b6 45 d1          	movzbl -0x2f(%rbp),%eax
   152b5:	0f b6 c0             	movzbl %al,%eax
   152b8:	48 0d 41 b1 00 00    	or     $0xb141,%rax
   152be:	48 89 c2             	mov    %rax,%rdx
   152c1:	48 8b 85 c0 cb ff ff 	mov    -0x3440(%rbp),%rax
   152c8:	48 8b 08             	mov    (%rax),%rcx
   152cb:	48 8b 85 50 cd ff ff 	mov    -0x32b0(%rbp),%rax
   152d2:	48 85 c0             	test   %rax,%rax
   152d5:	0f 95 c0             	setne  %al
   152d8:	0f b6 c0             	movzbl %al,%eax
   152db:	48 21 c1             	and    %rax,%rcx
   152de:	48 8b 85 c0 cb ff ff 	mov    -0x3440(%rbp),%rax
   152e5:	48 89 08             	mov    %rcx,(%rax)
   152e8:	48 8b 85 c0 cb ff ff 	mov    -0x3440(%rbp),%rax
   152ef:	48 8b 00             	mov    (%rax),%rax
   152f2:	48 89 d6             	mov    %rdx,%rsi
   152f5:	48 89 c7             	mov    %rax,%rdi
   152f8:	e8 b7 36 ff ff       	callq  89b4 <safe_mod_func_int64_t_s_s>
   152fd:	48 3d 91 a7 00 00    	cmp    $0xa791,%rax
   15303:	0f 95 c0             	setne  %al
   15306:	0f b6 c0             	movzbl %al,%eax
   15309:	39 85 60 c9 ff ff    	cmp    %eax,-0x36a0(%rbp)
   1530f:	48 89 de             	mov    %rbx,%rsi
   15312:	48 bf 53 a0 7c 92 08 	movabs $0xd510d308927ca053,%rdi
   15319:	d3 10 d5 
   1531c:	e8 87 35 ff ff       	callq  88a8 <safe_sub_func_int64_t_s_s>
   15321:	83 bd 58 c9 ff ff 00 	cmpl   $0x0,-0x36a8(%rbp)
   15328:	74 07                	je     15331 <func_56+0x5d82>
   1532a:	b8 01 00 00 00       	mov    $0x1,%eax
   1532f:	eb 05                	jmp    15336 <func_56+0x5d87>
   15331:	b8 00 00 00 00       	mov    $0x0,%eax
   15336:	0f b7 d8             	movzwl %ax,%ebx
   15339:	c7 85 7c d9 ff ff f9 	movl   $0xf9,-0x2684(%rbp)
   15340:	00 00 00 
   15343:	8b 95 7c d9 ff ff    	mov    -0x2684(%rbp),%edx
   15349:	48 8b 05 88 a8 00 00 	mov    0xa888(%rip),%rax        # 1fbd8 <g_186>
   15350:	48 8b 00             	mov    (%rax),%rax
   15353:	0f b6 00             	movzbl (%rax),%eax
   15356:	0f be c0             	movsbl %al,%eax
   15359:	39 c2                	cmp    %eax,%edx
   1535b:	75 09                	jne    15366 <func_56+0x5db7>
   1535d:	83 bd dc c8 ff ff 00 	cmpl   $0x0,-0x3724(%rbp)
   15364:	74 07                	je     1536d <func_56+0x5dbe>
   15366:	b8 01 00 00 00       	mov    $0x1,%eax
   1536b:	eb 05                	jmp    15372 <func_56+0x5dc3>
   1536d:	b8 00 00 00 00       	mov    $0x0,%eax
   15372:	0f b7 c0             	movzwl %ax,%eax
   15375:	89 c6                	mov    %eax,%esi
   15377:	bf 01 00 00 00       	mov    $0x1,%edi
   1537c:	e8 bc 39 ff ff       	callq  8d3d <safe_mul_func_uint16_t_u_u>
   15381:	0f b7 95 fa cc ff ff 	movzwl -0x3306(%rbp),%edx
   15388:	66 39 d0             	cmp    %dx,%ax
   1538b:	0f 93 c0             	setae  %al
   1538e:	0f b6 c0             	movzbl %al,%eax
   15391:	89 de                	mov    %ebx,%esi
   15393:	89 c7                	mov    %eax,%edi
   15395:	e8 a3 39 ff ff       	callq  8d3d <safe_mul_func_uint16_t_u_u>
   1539a:	48 8b 15 1f a8 00 00 	mov    0xa81f(%rip),%rdx        # 1fbc0 <g_143>
   153a1:	8b 0a                	mov    (%rdx),%ecx
   153a3:	0f b7 d0             	movzwl %ax,%edx
   153a6:	48 8b 05 13 a8 00 00 	mov    0xa813(%rip),%rax        # 1fbc0 <g_143>
   153ad:	09 ca                	or     %ecx,%edx
   153af:	89 10                	mov    %edx,(%rax)
   153b1:	48 8b 85 10 ca ff ff 	mov    -0x35f0(%rbp),%rax
   153b8:	8b 00                	mov    (%rax),%eax
   153ba:	89 c2                	mov    %eax,%edx
   153bc:	8b 85 04 c9 ff ff    	mov    -0x36fc(%rbp),%eax
   153c2:	31 d0                	xor    %edx,%eax
   153c4:	0f bf d0             	movswl %ax,%edx
   153c7:	48 8b 8d 10 ca ff ff 	mov    -0x35f0(%rbp),%rcx
   153ce:	48 8d 85 04 c9 ff ff 	lea    -0x36fc(%rbp),%rax
   153d5:	48 39 c1             	cmp    %rax,%rcx
   153d8:	0f 95 c0             	setne  %al
   153db:	0f b6 c0             	movzbl %al,%eax
   153de:	89 d6                	mov    %edx,%esi
   153e0:	89 c7                	mov    %eax,%edi
   153e2:	e8 2f 30 ff ff       	callq  8416 <safe_mod_func_int16_t_s_s>
   153e7:	0f bf d0             	movswl %ax,%edx
   153ea:	8b 85 28 cd ff ff    	mov    -0x32d8(%rbp),%eax
   153f0:	39 c2                	cmp    %eax,%edx
   153f2:	0f 9e c0             	setle  %al
   153f5:	0f b6 c0             	movzbl %al,%eax
   153f8:	be 02 00 00 00       	mov    $0x2,%esi
   153fd:	89 c7                	mov    %eax,%edi
   153ff:	e8 ba 39 ff ff       	callq  8dbe <safe_lshift_func_uint16_t_u_s>
   15404:	0f b7 85 f8 cc ff ff 	movzwl -0x3308(%rbp),%eax
   1540b:	0f b7 c0             	movzwl %ax,%eax
   1540e:	89 05 68 8f 00 00    	mov    %eax,0x8f68(%rip)        # 1e37c <g_175>
   15414:	48 8b 05 a5 a7 00 00 	mov    0xa7a5(%rip),%rax        # 1fbc0 <g_143>
   1541b:	8b 18                	mov    (%rax),%ebx
   1541d:	b8 73 00 00 00       	mov    $0x73,%eax
   15422:	0f b6 d0             	movzbl %al,%edx
   15425:	8b 85 dc c8 ff ff    	mov    -0x3724(%rbp),%eax
   1542b:	48 98                	cltq   
   1542d:	48 89 d6             	mov    %rdx,%rsi
   15430:	48 89 c7             	mov    %rax,%rdi
   15433:	e8 13 3c ff ff       	callq  904b <safe_sub_func_uint64_t_u_u>
   15438:	89 c2                	mov    %eax,%edx
   1543a:	8b 85 d8 c8 ff ff    	mov    -0x3728(%rbp),%eax
   15440:	89 d6                	mov    %edx,%esi
   15442:	89 c7                	mov    %eax,%edi
   15444:	e8 b6 32 ff ff       	callq  86ff <safe_div_func_int32_t_s_s>
   15449:	0f b6 c0             	movzbl %al,%eax
   1544c:	89 c7                	mov    %eax,%edi
   1544e:	e8 f2 36 ff ff       	callq  8b45 <safe_unary_minus_func_uint8_t_u>
   15453:	89 c2                	mov    %eax,%edx
   15455:	48 8b 05 4c a7 00 00 	mov    0xa74c(%rip),%rax        # 1fba8 <g_60>
   1545c:	0f b6 d2             	movzbl %dl,%edx
   1545f:	66 89 10             	mov    %dx,(%rax)
   15462:	0f b7 00             	movzwl (%rax),%eax
   15465:	98                   	cwtl   
   15466:	be 09 00 00 00       	mov    $0x9,%esi
   1546b:	89 c7                	mov    %eax,%edi
   1546d:	e8 b8 30 ff ff       	callq  852a <safe_rshift_func_int16_t_s_s>
   15472:	98                   	cwtl   
   15473:	31 d8                	xor    %ebx,%eax
   15475:	48 98                	cltq   
   15477:	48 c7 c6 f8 ff ff ff 	mov    $0xfffffffffffffff8,%rsi
   1547e:	48 89 c7             	mov    %rax,%rdi
   15481:	e8 fa 3b ff ff       	callq  9080 <safe_mod_func_uint64_t_u_u>
   15486:	be 00 00 00 00       	mov    $0x0,%esi
   1548b:	bf 01 00 00 00       	mov    $0x1,%edi
   15490:	e8 a8 38 ff ff       	callq  8d3d <safe_mul_func_uint16_t_u_u>
   15495:	0f b7 c0             	movzwl %ax,%eax
   15498:	48 89 c7             	mov    %rax,%rdi
   1549b:	e8 cb 85 ff ff       	callq  da6b <func_15>
   154a0:	48 39 85 78 cb ff ff 	cmp    %rax,-0x3488(%rbp)
   154a7:	0f 95 c0             	setne  %al
   154aa:	0f b6 c0             	movzbl %al,%eax
   154ad:	89 c2                	mov    %eax,%edx
   154af:	0f b6 85 ed c8 ff ff 	movzbl -0x3713(%rbp),%eax
   154b6:	09 d0                	or     %edx,%eax
   154b8:	88 85 ed c8 ff ff    	mov    %al,-0x3713(%rbp)
   154be:	0f b6 45 d7          	movzbl -0x29(%rbp),%eax
   154c2:	0f be c0             	movsbl %al,%eax
   154c5:	89 c6                	mov    %eax,%esi
   154c7:	bf a6 ff ff ff       	mov    $0xffffffa6,%edi
   154cc:	e8 21 2d ff ff       	callq  81f2 <safe_sub_func_int8_t_s_s>
   154d1:	89 c2                	mov    %eax,%edx
   154d3:	48 8b 85 38 ca ff ff 	mov    -0x35c8(%rbp),%rax
   154da:	48 8b 00             	mov    (%rax),%rax
   154dd:	0f be d2             	movsbl %dl,%edx
   154e0:	89 10                	mov    %edx,(%rax)
   154e2:	8b 00                	mov    (%rax),%eax
   154e4:	85 c0                	test   %eax,%eax
   154e6:	0f 84 54 01 00 00    	je     15640 <func_56+0x6091>
   154ec:	48 8d 85 c0 d1 ff ff 	lea    -0x2e40(%rbp),%rax
   154f3:	48 8d 15 e6 50 00 00 	lea    0x50e6(%rip),%rdx        # 1a5e0 <g_314+0x153a>
   154fa:	b9 2d 00 00 00       	mov    $0x2d,%ecx
   154ff:	48 89 c7             	mov    %rax,%rdi
   15502:	48 89 d6             	mov    %rdx,%rsi
   15505:	f3 48 a5             	rep movsq %ds:(%rsi),%es:(%rdi)
   15508:	48 8d 85 10 cf ff ff 	lea    -0x30f0(%rbp),%rax
   1550f:	48 83 c0 40          	add    $0x40,%rax
   15513:	48 89 85 f8 cb ff ff 	mov    %rax,-0x3408(%rbp)
   1551a:	48 8d 85 10 ca ff ff 	lea    -0x35f0(%rbp),%rax
   15521:	48 89 85 00 cc ff ff 	mov    %rax,-0x3400(%rbp)
   15528:	48 8d 05 81 a6 00 00 	lea    0xa681(%rip),%rax        # 1fbb0 <g_134>
   1552f:	48 89 85 08 cc ff ff 	mov    %rax,-0x33f8(%rbp)
   15536:	48 8b 85 80 cb ff ff 	mov    -0x3480(%rbp),%rax
   1553d:	41 89 c5             	mov    %eax,%r13d
   15540:	83 bd d8 c8 ff ff 00 	cmpl   $0x0,-0x3728(%rbp)
   15547:	0f 85 c1 00 00 00    	jne    1560e <func_56+0x605f>
   1554d:	8b 85 d8 c8 ff ff    	mov    -0x3728(%rbp),%eax
   15553:	0f be d8             	movsbl %al,%ebx
   15556:	8b 85 04 c9 ff ff    	mov    -0x36fc(%rbp),%eax
   1555c:	44 0f b7 e0          	movzwl %ax,%r12d
   15560:	0f b7 85 fa cc ff ff 	movzwl -0x3306(%rbp),%eax
   15567:	0f b7 d0             	movzwl %ax,%edx
   1556a:	8b 05 fc 8c 00 00    	mov    0x8cfc(%rip),%eax        # 1e26c <g_75+0x22c>
   15570:	39 c2                	cmp    %eax,%edx
   15572:	0f 9e c0             	setle  %al
   15575:	0f b6 c0             	movzbl %al,%eax
   15578:	39 85 d8 c8 ff ff    	cmp    %eax,-0x3728(%rbp)
   1557e:	0f 95 c0             	setne  %al
   15581:	0f b6 c0             	movzbl %al,%eax
   15584:	39 85 dc c8 ff ff    	cmp    %eax,-0x3724(%rbp)
   1558a:	0f 9d c0             	setge  %al
   1558d:	0f b6 c0             	movzbl %al,%eax
   15590:	be 01 00 00 00       	mov    $0x1,%esi
   15595:	48 89 c7             	mov    %rax,%rdi
   15598:	e8 e3 3a ff ff       	callq  9080 <safe_mod_func_uint64_t_u_u>
   1559d:	48 8b 95 10 ca ff ff 	mov    -0x35f0(%rbp),%rdx
   155a4:	8b 12                	mov    (%rdx),%edx
   155a6:	48 63 d2             	movslq %edx,%rdx
   155a9:	48 39 d0             	cmp    %rdx,%rax
   155ac:	0f 93 c0             	setae  %al
   155af:	0f b6 c0             	movzbl %al,%eax
   155b2:	44 89 e6             	mov    %r12d,%esi
   155b5:	89 c7                	mov    %eax,%edi
   155b7:	e8 81 37 ff ff       	callq  8d3d <safe_mul_func_uint16_t_u_u>
   155bc:	48 8b 05 15 a6 00 00 	mov    0xa615(%rip),%rax        # 1fbd8 <g_186>
   155c3:	48 8b 00             	mov    (%rax),%rax
   155c6:	0f b6 00             	movzbl (%rax),%eax
   155c9:	0f be d0             	movsbl %al,%edx
   155cc:	0f b7 05 e1 8d 00 00 	movzwl 0x8de1(%rip),%eax        # 1e3b4 <g_743>
   155d3:	0f b7 c0             	movzwl %ax,%eax
   155d6:	39 85 d8 c8 ff ff    	cmp    %eax,-0x3728(%rbp)
   155dc:	0f 9e c0             	setle  %al
   155df:	0f b6 c0             	movzbl %al,%eax
   155e2:	39 c2                	cmp    %eax,%edx
   155e4:	0f 9d c0             	setge  %al
   155e7:	0f b6 c0             	movzbl %al,%eax
   155ea:	89 de                	mov    %ebx,%esi
   155ec:	89 c7                	mov    %eax,%edi
   155ee:	e8 1f 2c ff ff       	callq  8212 <safe_mul_func_int8_t_s_s>
   155f3:	3c 09                	cmp    $0x9,%al
   155f5:	0f 95 c0             	setne  %al
   155f8:	0f b6 d0             	movzbl %al,%edx
   155fb:	48 8b 85 10 ca ff ff 	mov    -0x35f0(%rbp),%rax
   15602:	8b 00                	mov    (%rax),%eax
   15604:	21 d0                	and    %edx,%eax
   15606:	0b 85 dc c8 ff ff    	or     -0x3724(%rbp),%eax
   1560c:	85 c0                	test   %eax,%eax
   1560e:	44 89 ee             	mov    %r13d,%esi
   15611:	bf 6c 00 00 00       	mov    $0x6c,%edi
   15616:	e8 31 36 ff ff       	callq  8c4c <safe_lshift_func_uint8_t_u_u>
   1561b:	b9 01 00 00 00       	mov    $0x1,%ecx
   15620:	48 8b 05 89 a5 00 00 	mov    0xa589(%rip),%rax        # 1fbb0 <g_134>
   15627:	8b 10                	mov    (%rax),%edx
   15629:	48 8b 05 80 a5 00 00 	mov    0xa580(%rip),%rax        # 1fbb0 <g_134>
   15630:	09 ca                	or     %ecx,%edx
   15632:	89 10                	mov    %edx,(%rax)
   15634:	48 8b 85 58 ca ff ff 	mov    -0x35a8(%rbp),%rax
   1563b:	e9 be 28 00 00       	jmpq   17efe <func_56+0x894f>
   15640:	48 8d 85 18 ca ff ff 	lea    -0x35e8(%rbp),%rax
   15647:	48 89 85 e0 cb ff ff 	mov    %rax,-0x3420(%rbp)
   1564e:	48 8d 85 20 ca ff ff 	lea    -0x35e0(%rbp),%rax
   15655:	48 89 85 e8 cb ff ff 	mov    %rax,-0x3418(%rbp)
   1565c:	48 8d 05 ed a6 00 00 	lea    0xa6ed(%rip),%rax        # 1fd50 <g_562+0x150>
   15663:	48 89 85 28 ca ff ff 	mov    %rax,-0x35d8(%rbp)
   1566a:	48 8d 85 28 ca ff ff 	lea    -0x35d8(%rbp),%rax
   15671:	48 89 85 f0 cb ff ff 	mov    %rax,-0x3410(%rbp)
   15678:	c7 85 10 c9 ff ff 00 	movl   $0x0,-0x36f0(%rbp)
   1567f:	00 00 00 
   15682:	eb 1a                	jmp    1569e <func_56+0x60ef>
   15684:	8b 85 10 c9 ff ff    	mov    -0x36f0(%rbp),%eax
   1568a:	48 98                	cltq   
   1568c:	c7 84 85 c0 d1 ff ff 	movl   $0x6,-0x2e40(%rbp,%rax,4)
   15693:	06 00 00 00 
   15697:	83 85 10 c9 ff ff 01 	addl   $0x1,-0x36f0(%rbp)
   1569e:	83 bd 10 c9 ff ff 04 	cmpl   $0x4,-0x36f0(%rbp)
   156a5:	7e dd                	jle    15684 <func_56+0x60d5>
   156a7:	48 8b 95 18 ca ff ff 	mov    -0x35e8(%rbp),%rdx
   156ae:	48 8b 85 e0 cb ff ff 	mov    -0x3420(%rbp),%rax
   156b5:	48 89 10             	mov    %rdx,(%rax)
   156b8:	48 8b 15 e1 aa 00 00 	mov    0xaae1(%rip),%rdx        # 201a0 <g_759>
   156bf:	48 8b 05 1a a5 00 00 	mov    0xa51a(%rip),%rax        # 1fbe0 <g_209>
   156c6:	48 8b 00             	mov    (%rax),%rax
   156c9:	48 8b 12             	mov    (%rdx),%rdx
   156cc:	48 89 10             	mov    %rdx,(%rax)
   156cf:	48 8b 85 d0 c8 ff ff 	mov    -0x3730(%rbp),%rax
   156d6:	0f b7 00             	movzwl (%rax),%eax
   156d9:	0f bf d8             	movswl %ax,%ebx
   156dc:	8b 85 c0 d1 ff ff    	mov    -0x2e40(%rbp),%eax
   156e2:	0f b6 d0             	movzbl %al,%edx
   156e5:	48 8b 8d e8 cc ff ff 	mov    -0x3318(%rbp),%rcx
   156ec:	48 8b 85 f0 cb ff ff 	mov    -0x3410(%rbp),%rax
   156f3:	48 c7 00 00 00 00 00 	movq   $0x0,(%rax)
   156fa:	48 8b 85 f0 cb ff ff 	mov    -0x3410(%rbp),%rax
   15701:	48 8b 00             	mov    (%rax),%rax
   15704:	48 39 c1             	cmp    %rax,%rcx
   15707:	75 0a                	jne    15713 <func_56+0x6164>
   15709:	48 83 bd 90 cb ff ff 	cmpq   $0x0,-0x3470(%rbp)
   15710:	00 
   15711:	74 08                	je     1571b <func_56+0x616c>
   15713:	48 83 bd d8 cb ff ff 	cmpq   $0x0,-0x3428(%rbp)
   1571a:	00 
   1571b:	48 8b 85 d8 c9 ff ff 	mov    -0x3628(%rbp),%rax
   15722:	48 c7 00 00 00 00 00 	movq   $0x0,(%rax)
   15729:	48 8b 08             	mov    (%rax),%rcx
   1572c:	48 8b 85 20 ca ff ff 	mov    -0x35e0(%rbp),%rax
   15733:	48 39 c1             	cmp    %rax,%rcx
   15736:	0f 95 c0             	setne  %al
   15739:	0f b6 c0             	movzbl %al,%eax
   1573c:	89 d6                	mov    %edx,%esi
   1573e:	89 c7                	mov    %eax,%edi
   15740:	e8 15 34 ff ff       	callq  8b5a <safe_add_func_uint8_t_u_u>
   15745:	0f b6 c0             	movzbl %al,%eax
   15748:	89 de                	mov    %ebx,%esi
   1574a:	89 c7                	mov    %eax,%edi
   1574c:	e8 41 2d ff ff       	callq  8492 <safe_lshift_func_int16_t_s_s>
   15751:	66 85 c0             	test   %ax,%ax
   15754:	74 11                	je     15767 <func_56+0x61b8>
   15756:	8b 05 f8 8b 00 00    	mov    0x8bf8(%rip),%eax        # 1e354 <g_96+0x74>
   1575c:	85 c0                	test   %eax,%eax
   1575e:	74 07                	je     15767 <func_56+0x61b8>
   15760:	b8 01 00 00 00       	mov    $0x1,%eax
   15765:	eb 05                	jmp    1576c <func_56+0x61bd>
   15767:	b8 00 00 00 00       	mov    $0x0,%eax
   1576c:	89 c2                	mov    %eax,%edx
   1576e:	0f b6 85 eb c8 ff ff 	movzbl -0x3715(%rbp),%eax
   15775:	09 d0                	or     %edx,%eax
   15777:	88 85 eb c8 ff ff    	mov    %al,-0x3715(%rbp)
   1577d:	e9 c3 01 00 00       	jmpq   15945 <func_56+0x6396>
   15782:	66 c7 85 f4 c8 ff ff 	movw   $0xbfb8,-0x370c(%rbp)
   15789:	b8 bf 
   1578b:	48 8d 85 ea c8 ff ff 	lea    -0x3716(%rbp),%rax
   15792:	48 89 85 20 ca ff ff 	mov    %rax,-0x35e0(%rbp)
   15799:	48 8d 85 20 ca ff ff 	lea    -0x35e0(%rbp),%rax
   157a0:	48 89 85 28 ca ff ff 	mov    %rax,-0x35d8(%rbp)
   157a7:	48 8d 85 28 ca ff ff 	lea    -0x35d8(%rbp),%rax
   157ae:	48 89 85 a0 cb ff ff 	mov    %rax,-0x3460(%rbp)
   157b5:	c7 85 5c c9 ff ff 47 	movl   $0x992f4247,-0x36a4(%rbp)
   157bc:	42 2f 99 
   157bf:	48 8d 85 10 ca ff ff 	lea    -0x35f0(%rbp),%rax
   157c6:	48 89 85 a8 cb ff ff 	mov    %rax,-0x3458(%rbp)
   157cd:	48 c7 85 b0 cb ff ff 	movq   $0x0,-0x3450(%rbp)
   157d4:	00 00 00 00 
   157d8:	0f b7 85 f4 c8 ff ff 	movzwl -0x370c(%rbp),%eax
   157df:	83 c0 01             	add    $0x1,%eax
   157e2:	66 89 85 f4 c8 ff ff 	mov    %ax,-0x370c(%rbp)
   157e9:	0f b7 9d f4 c8 ff ff 	movzwl -0x370c(%rbp),%ebx
   157f0:	4c 0f bf a5 f2 c8 ff 	movswq -0x370e(%rbp),%r12
   157f7:	ff 
   157f8:	48 8b 85 10 ca ff ff 	mov    -0x35f0(%rbp),%rax
   157ff:	8b 00                	mov    (%rax),%eax
   15801:	44 0f b6 e8          	movzbl %al,%r13d
   15805:	48 8b 85 50 ea ff ff 	mov    -0x15b0(%rbp),%rax
   1580c:	48 85 c0             	test   %rax,%rax
   1580f:	0f 95 c0             	setne  %al
   15812:	0f b6 d0             	movzbl %al,%edx
   15815:	48 8b 85 d0 c8 ff ff 	mov    -0x3730(%rbp),%rax
   1581c:	0f b7 00             	movzwl (%rax),%eax
   1581f:	98                   	cwtl   
   15820:	39 c2                	cmp    %eax,%edx
   15822:	0f 9c c0             	setl   %al
   15825:	0f b6 d0             	movzbl %al,%edx
   15828:	b8 73 00 00 00       	mov    $0x73,%eax
   1582d:	0f b6 c0             	movzbl %al,%eax
   15830:	39 c2                	cmp    %eax,%edx
   15832:	0f 95 c0             	setne  %al
   15835:	0f b6 c0             	movzbl %al,%eax
   15838:	39 85 dc c8 ff ff    	cmp    %eax,-0x3724(%rbp)
   1583e:	0f 9f c0             	setg   %al
   15841:	0f b6 c0             	movzbl %al,%eax
   15844:	be 01 00 00 00       	mov    $0x1,%esi
   15849:	89 c7                	mov    %eax,%edi
   1584b:	e8 05 2c ff ff       	callq  8455 <safe_div_func_int16_t_s_s>
   15850:	0f b6 c0             	movzbl %al,%eax
   15853:	44 89 ee             	mov    %r13d,%esi
   15856:	89 c7                	mov    %eax,%edi
   15858:	e8 36 33 ff ff       	callq  8b93 <safe_mul_func_uint8_t_u_u>
   1585d:	0f b6 c0             	movzbl %al,%eax
   15860:	4c 89 e6             	mov    %r12,%rsi
   15863:	48 89 c7             	mov    %rax,%rdi
   15866:	e8 44 38 ff ff       	callq  90af <safe_div_func_uint64_t_u_u>
   1586b:	83 c8 9b             	or     $0xffffff9b,%eax
   1586e:	89 c2                	mov    %eax,%edx
   15870:	48 8b 05 61 a3 00 00 	mov    0xa361(%rip),%rax        # 1fbd8 <g_186>
   15877:	48 8b 00             	mov    (%rax),%rax
   1587a:	88 10                	mov    %dl,(%rax)
   1587c:	0f b6 00             	movzbl (%rax),%eax
   1587f:	0f b6 c0             	movzbl %al,%eax
   15882:	89 c6                	mov    %eax,%esi
   15884:	bf 00 00 00 00       	mov    $0x0,%edi
   15889:	e8 ea 32 ff ff       	callq  8b78 <safe_sub_func_uint8_t_u_u>
   1588e:	48 8b 85 b8 ca ff ff 	mov    -0x3548(%rbp),%rax
   15895:	48 8b 00             	mov    (%rax),%rax
   15898:	8b 10                	mov    (%rax),%edx
   1589a:	48 8b 85 c0 ca ff ff 	mov    -0x3540(%rbp),%rax
   158a1:	48 8b 00             	mov    (%rax),%rax
   158a4:	8b 00                	mov    (%rax),%eax
   158a6:	39 c2                	cmp    %eax,%edx
   158a8:	0f 95 c0             	setne  %al
   158ab:	0f b6 d0             	movzbl %al,%edx
   158ae:	8b 85 d8 c8 ff ff    	mov    -0x3728(%rbp),%eax
   158b4:	89 d6                	mov    %edx,%esi
   158b6:	89 c7                	mov    %eax,%edi
   158b8:	e8 29 36 ff ff       	callq  8ee6 <safe_mul_func_uint32_t_u_u>
   158bd:	0f be c0             	movsbl %al,%eax
   158c0:	89 de                	mov    %ebx,%esi
   158c2:	89 c7                	mov    %eax,%edi
   158c4:	e8 a3 2a ff ff       	callq  836c <safe_rshift_func_int8_t_s_u>
   158c9:	0f be c0             	movsbl %al,%eax
   158cc:	35 d3 6f d5 28       	xor    $0x28d56fd3,%eax
   158d1:	89 c2                	mov    %eax,%edx
   158d3:	8b 85 d8 c8 ff ff    	mov    -0x3728(%rbp),%eax
   158d9:	0f be c0             	movsbl %al,%eax
   158dc:	89 d6                	mov    %edx,%esi
   158de:	89 c7                	mov    %eax,%edi
   158e0:	e8 50 2a ff ff       	callq  8335 <safe_rshift_func_int8_t_s_s>
   158e5:	48 0f be c0          	movsbq %al,%rax
   158e9:	48 35 22 14 09 3a    	xor    $0x3a091422,%rax
   158ef:	48 89 c2             	mov    %rax,%rdx
   158f2:	b8 93 86 98 9b       	mov    $0x9b988693,%eax
   158f7:	48 39 c2             	cmp    %rax,%rdx
   158fa:	0f 9f c0             	setg   %al
   158fd:	0f b6 d0             	movzbl %al,%edx
   15900:	8b 05 66 89 00 00    	mov    0x8966(%rip),%eax        # 1e26c <g_75+0x22c>
   15906:	09 d0                	or     %edx,%eax
   15908:	89 05 5e 89 00 00    	mov    %eax,0x895e(%rip)        # 1e26c <g_75+0x22c>
   1590e:	48 8d 85 20 cd ff ff 	lea    -0x32e0(%rbp),%rax
   15915:	48 83 c0 0c          	add    $0xc,%rax
   15919:	48 89 85 b8 cb ff ff 	mov    %rax,-0x3448(%rbp)
   15920:	48 8b 85 c0 ca ff ff 	mov    -0x3540(%rbp),%rax
   15927:	48 8b 00             	mov    (%rax),%rax
   1592a:	48 89 85 b8 cb ff ff 	mov    %rax,-0x3448(%rbp)
   15931:	48 8b 85 b8 ca ff ff 	mov    -0x3548(%rbp),%rax
   15938:	48 8b 10             	mov    (%rax),%rdx
   1593b:	48 8b 85 50 ca ff ff 	mov    -0x35b0(%rbp),%rax
   15942:	48 89 10             	mov    %rdx,(%rax)
   15945:	48 8b 15 a4 a2 00 00 	mov    0xa2a4(%rip),%rdx        # 1fbf0 <g_275>
   1594c:	48 8b 05 8d a2 00 00 	mov    0xa28d(%rip),%rax        # 1fbe0 <g_209>
   15953:	48 8b 00             	mov    (%rax),%rax
   15956:	48 8b 00             	mov    (%rax),%rax
   15959:	8b 12                	mov    (%rdx),%edx
   1595b:	89 10                	mov    %edx,(%rax)
   1595d:	c7 85 04 c9 ff ff fd 	movl   $0xfffffffd,-0x36fc(%rbp)
   15964:	ff ff ff 
   15967:	e9 eb 01 00 00       	jmpq   15b57 <func_56+0x65a8>
   1596c:	48 b8 68 03 0a 1e bd 	movabs $0xa6394bbd1e0a0368,%rax
   15973:	4b 39 a6 
   15976:	48 89 85 10 cc ff ff 	mov    %rax,-0x33f0(%rbp)
   1597d:	48 8d 85 10 cf ff ff 	lea    -0x30f0(%rbp),%rax
   15984:	48 83 c0 40          	add    $0x40,%rax
   15988:	48 89 85 18 cc ff ff 	mov    %rax,-0x33e8(%rbp)
   1598f:	c7 05 e3 89 00 00 00 	movl   $0x0,0x89e3(%rip)        # 1e37c <g_175>
   15996:	00 00 00 
   15999:	e9 36 01 00 00       	jmpq   15ad4 <func_56+0x6525>
   1599e:	48 8b 85 10 cc ff ff 	mov    -0x33f0(%rbp),%rax
   159a5:	48 89 85 f0 cc ff ff 	mov    %rax,-0x3310(%rbp)
   159ac:	48 8b 85 10 cc ff ff 	mov    -0x33f0(%rbp),%rax
   159b3:	0f b7 d8             	movzwl %ax,%ebx
   159b6:	44 8b a5 d8 c8 ff ff 	mov    -0x3728(%rbp),%r12d
   159bd:	48 8b 05 cc 89 00 00 	mov    0x89cc(%rip),%rax        # 1e390 <g_364>
   159c4:	49 89 c5             	mov    %rax,%r13
   159c7:	8b 85 dc c8 ff ff    	mov    -0x3724(%rbp),%eax
   159cd:	0f b7 c0             	movzwl %ax,%eax
   159d0:	be 0b 00 00 00       	mov    $0xb,%esi
   159d5:	89 c7                	mov    %eax,%edi
   159d7:	e8 e2 33 ff ff       	callq  8dbe <safe_lshift_func_uint16_t_u_s>
   159dc:	8b 85 d8 c8 ff ff    	mov    -0x3728(%rbp),%eax
   159e2:	0f b6 c0             	movzbl %al,%eax
   159e5:	89 c6                	mov    %eax,%esi
   159e7:	bf 00 00 00 00       	mov    $0x0,%edi
   159ec:	e8 87 31 ff ff       	callq  8b78 <safe_sub_func_uint8_t_u_u>
   159f1:	0f b6 c0             	movzbl %al,%eax
   159f4:	be 02 00 00 00       	mov    $0x2,%esi
   159f9:	89 c7                	mov    %eax,%edi
   159fb:	e8 8d 32 ff ff       	callq  8c8d <safe_rshift_func_uint8_t_u_s>
   15a00:	48 8b 85 d0 c8 ff ff 	mov    -0x3730(%rbp),%rax
   15a07:	66 c7 00 00 00       	movw   $0x0,(%rax)
   15a0c:	8b 95 dc c8 ff ff    	mov    -0x3724(%rbp),%edx
   15a12:	48 8b 85 78 cb ff ff 	mov    -0x3488(%rbp),%rax
   15a19:	8b 00                	mov    (%rax),%eax
   15a1b:	8d 70 ff             	lea    -0x1(%rax),%esi
   15a1e:	48 8b 8d 78 cb ff ff 	mov    -0x3488(%rbp),%rcx
   15a25:	89 31                	mov    %esi,(%rcx)
   15a27:	89 d6                	mov    %edx,%esi
   15a29:	89 c7                	mov    %eax,%edi
   15a2b:	e8 cd 34 ff ff       	callq  8efd <safe_mod_func_uint32_t_u_u>
   15a30:	48 8b 95 38 cb ff ff 	mov    -0x34c8(%rbp),%rdx
   15a37:	48 8b 12             	mov    (%rdx),%rdx
   15a3a:	8b 12                	mov    (%rdx),%edx
   15a3c:	39 d0                	cmp    %edx,%eax
   15a3e:	0f 97 c0             	seta   %al
   15a41:	0f b6 c0             	movzbl %al,%eax
   15a44:	be 09 00 00 00       	mov    $0x9,%esi
   15a49:	48 89 c7             	mov    %rax,%rdi
   15a4c:	e8 a6 2f ff ff       	callq  89f7 <safe_div_func_int64_t_s_s>
   15a51:	4c 89 ee             	mov    %r13,%rsi
   15a54:	bf 00 00 00 00       	mov    $0x0,%edi
   15a59:	e8 d0 35 ff ff       	callq  902e <safe_add_func_uint64_t_u_u>
   15a5e:	0f b6 c0             	movzbl %al,%eax
   15a61:	44 89 e6             	mov    %r12d,%esi
   15a64:	89 c7                	mov    %eax,%edi
   15a66:	e8 e1 31 ff ff       	callq  8c4c <safe_lshift_func_uint8_t_u_u>
   15a6b:	8b 85 d8 c8 ff ff    	mov    -0x3728(%rbp),%eax
   15a71:	83 f0 01             	xor    $0x1,%eax
   15a74:	39 85 dc c8 ff ff    	cmp    %eax,-0x3724(%rbp)
   15a7a:	74 07                	je     15a83 <func_56+0x64d4>
   15a7c:	b8 01 00 00 00       	mov    $0x1,%eax
   15a81:	eb 05                	jmp    15a88 <func_56+0x64d9>
   15a83:	b8 00 00 00 00       	mov    $0x0,%eax
   15a88:	0f be c0             	movsbl %al,%eax
   15a8b:	be 01 00 00 00       	mov    $0x1,%esi
   15a90:	89 c7                	mov    %eax,%edi
   15a92:	e8 d3 27 ff ff       	callq  826a <safe_div_func_int8_t_s_s>
   15a97:	66 98                	cbtw   
   15a99:	0f b7 c0             	movzwl %ax,%eax
   15a9c:	89 de                	mov    %ebx,%esi
   15a9e:	89 c7                	mov    %eax,%edi
   15aa0:	e8 98 32 ff ff       	callq  8d3d <safe_mul_func_uint16_t_u_u>
   15aa5:	0f b7 c0             	movzwl %ax,%eax
   15aa8:	89 c6                	mov    %eax,%esi
   15aaa:	bf 01 00 00 00       	mov    $0x1,%edi
   15aaf:	e8 ed 27 ff ff       	callq  82a1 <safe_lshift_func_int8_t_s_s>
   15ab4:	8b 15 b2 87 00 00    	mov    0x87b2(%rip),%edx        # 1e26c <g_75+0x22c>
   15aba:	0f be c0             	movsbl %al,%eax
   15abd:	31 d0                	xor    %edx,%eax
   15abf:	89 05 a7 87 00 00    	mov    %eax,0x87a7(%rip)        # 1e26c <g_75+0x22c>
   15ac5:	8b 05 b1 88 00 00    	mov    0x88b1(%rip),%eax        # 1e37c <g_175>
   15acb:	83 c0 01             	add    $0x1,%eax
   15ace:	89 05 a8 88 00 00    	mov    %eax,0x88a8(%rip)        # 1e37c <g_175>
   15ad4:	8b 05 a2 88 00 00    	mov    0x88a2(%rip),%eax        # 1e37c <g_175>
   15ada:	83 f8 18             	cmp    $0x18,%eax
   15add:	0f 85 bb fe ff ff    	jne    1599e <func_56+0x63ef>
   15ae3:	48 c7 85 a8 c9 ff ff 	movq   $0x0,-0x3658(%rbp)
   15aea:	00 00 00 00 
   15aee:	90                   	nop
   15aef:	48 8b 85 a8 c9 ff ff 	mov    -0x3658(%rbp),%rax
   15af6:	48 83 f8 33          	cmp    $0x33,%rax
   15afa:	74 17                	je     15b13 <func_56+0x6564>
   15afc:	48 c7 85 28 cc ff ff 	movq   $0x0,-0x33d8(%rbp)
   15b03:	00 00 00 00 
   15b07:	48 8b 85 28 cc ff ff 	mov    -0x33d8(%rbp),%rax
   15b0e:	e9 eb 23 00 00       	jmpq   17efe <func_56+0x894f>
   15b13:	c6 05 5e 88 00 00 00 	movb   $0x0,0x885e(%rip)        # 1e378 <g_161>
   15b1a:	90                   	nop
   15b1b:	0f b6 05 56 88 00 00 	movzbl 0x8856(%rip),%eax        # 1e378 <g_161>
   15b22:	3c 0b                	cmp    $0xb,%al
   15b24:	76 17                	jbe    15b3d <func_56+0x658e>
   15b26:	48 c7 85 20 cc ff ff 	movq   $0x0,-0x33e0(%rbp)
   15b2d:	00 00 00 00 
   15b31:	48 8b 85 20 cc ff ff 	mov    -0x33e0(%rbp),%rax
   15b38:	e9 c1 23 00 00       	jmpq   17efe <func_56+0x894f>
   15b3d:	8b 85 04 c9 ff ff    	mov    -0x36fc(%rbp),%eax
   15b43:	98                   	cwtl   
   15b44:	be 04 00 00 00       	mov    $0x4,%esi
   15b49:	89 c7                	mov    %eax,%edi
   15b4b:	e8 63 28 ff ff       	callq  83b3 <safe_add_func_int16_t_s_s>
   15b50:	98                   	cwtl   
   15b51:	89 85 04 c9 ff ff    	mov    %eax,-0x36fc(%rbp)
   15b57:	8b 85 04 c9 ff ff    	mov    -0x36fc(%rbp),%eax
   15b5d:	83 f8 03             	cmp    $0x3,%eax
   15b60:	0f 85 06 fe ff ff    	jne    1596c <func_56+0x63bd>
   15b66:	48 8b 05 3b a0 00 00 	mov    0xa03b(%rip),%rax        # 1fba8 <g_60>
   15b6d:	66 c7 00 c6 fc       	movw   $0xfcc6,(%rax)
   15b72:	be 07 00 00 00       	mov    $0x7,%esi
   15b77:	bf c6 fc ff ff       	mov    $0xfffffcc6,%edi
   15b7c:	e8 60 29 ff ff       	callq  84e1 <safe_lshift_func_int16_t_s_u>
   15b81:	89 c3                	mov    %eax,%ebx
   15b83:	0f b7 05 0e 88 00 00 	movzwl 0x880e(%rip),%eax        # 1e398 <g_535>
   15b8a:	0f b7 c0             	movzwl %ax,%eax
   15b8d:	89 c6                	mov    %eax,%esi
   15b8f:	bf 04 e5 ff ff       	mov    $0xffffe504,%edi
   15b94:	e8 91 29 ff ff       	callq  852a <safe_rshift_func_int16_t_s_s>
   15b99:	66 89 05 28 87 00 00 	mov    %ax,0x8728(%rip)        # 1e2c8 <g_93>
   15ba0:	0f b7 05 21 87 00 00 	movzwl 0x8721(%rip),%eax        # 1e2c8 <g_93>
   15ba7:	98                   	cwtl   
   15ba8:	89 c7                	mov    %eax,%edi
   15baa:	e8 ee 27 ff ff       	callq  839d <safe_unary_minus_func_int16_t_s>
   15baf:	31 c3                	xor    %eax,%ebx
   15bb1:	89 da                	mov    %ebx,%edx
   15bb3:	48 8b 85 c0 ca ff ff 	mov    -0x3540(%rbp),%rax
   15bba:	48 8b 00             	mov    (%rax),%rax
   15bbd:	0f bf d2             	movswl %dx,%edx
   15bc0:	89 10                	mov    %edx,(%rax)
   15bc2:	8b 00                	mov    (%rax),%eax
   15bc4:	0f b7 c0             	movzwl %ax,%eax
   15bc7:	be 06 00 00 00       	mov    $0x6,%esi
   15bcc:	89 c7                	mov    %eax,%edi
   15bce:	e8 33 32 ff ff       	callq  8e06 <safe_lshift_func_uint16_t_u_u>
   15bd3:	48 8b 95 38 cb ff ff 	mov    -0x34c8(%rbp),%rdx
   15bda:	48 8b 12             	mov    (%rdx),%rdx
   15bdd:	8b 0a                	mov    (%rdx),%ecx
   15bdf:	0f b7 d0             	movzwl %ax,%edx
   15be2:	48 8b 85 38 cb ff ff 	mov    -0x34c8(%rbp),%rax
   15be9:	48 8b 00             	mov    (%rax),%rax
   15bec:	21 ca                	and    %ecx,%edx
   15bee:	89 10                	mov    %edx,(%rax)
   15bf0:	c7 85 04 c9 ff ff 04 	movl   $0x4,-0x36fc(%rbp)
   15bf7:	00 00 00 
   15bfa:	e9 47 12 00 00       	jmpq   16e46 <func_56+0x7897>
   15bff:	48 8d 05 8a 87 00 00 	lea    0x878a(%rip),%rax        # 1e390 <g_364>
   15c06:	48 89 85 30 cc ff ff 	mov    %rax,-0x33d0(%rbp)
   15c0d:	48 8d 85 10 cf ff ff 	lea    -0x30f0(%rbp),%rax
   15c14:	48 83 c0 70          	add    $0x70,%rax
   15c18:	48 89 85 38 cc ff ff 	mov    %rax,-0x33c8(%rbp)
   15c1f:	48 8d 05 9a 9f 00 00 	lea    0x9f9a(%rip),%rax        # 1fbc0 <g_143>
   15c26:	48 89 85 40 cc ff ff 	mov    %rax,-0x33c0(%rbp)
   15c2d:	48 8d 85 10 cf ff ff 	lea    -0x30f0(%rbp),%rax
   15c34:	48 83 c0 40          	add    $0x40,%rax
   15c38:	48 89 85 48 cc ff ff 	mov    %rax,-0x33b8(%rbp)
   15c3f:	48 8d 05 6a 9f 00 00 	lea    0x9f6a(%rip),%rax        # 1fbb0 <g_134>
   15c46:	48 89 85 50 cc ff ff 	mov    %rax,-0x33b0(%rbp)
   15c4d:	48 8d 85 10 ca ff ff 	lea    -0x35f0(%rbp),%rax
   15c54:	48 89 85 70 f0 ff ff 	mov    %rax,-0xf90(%rbp)
   15c5b:	48 8d 85 10 cf ff ff 	lea    -0x30f0(%rbp),%rax
   15c62:	48 83 c0 40          	add    $0x40,%rax
   15c66:	48 89 85 78 f0 ff ff 	mov    %rax,-0xf88(%rbp)
   15c6d:	48 8d 85 10 ca ff ff 	lea    -0x35f0(%rbp),%rax
   15c74:	48 89 85 80 f0 ff ff 	mov    %rax,-0xf80(%rbp)
   15c7b:	48 8d 85 10 cf ff ff 	lea    -0x30f0(%rbp),%rax
   15c82:	48 83 c0 40          	add    $0x40,%rax
   15c86:	48 89 85 88 f0 ff ff 	mov    %rax,-0xf78(%rbp)
   15c8d:	48 8d 85 10 cf ff ff 	lea    -0x30f0(%rbp),%rax
   15c94:	48 83 c0 18          	add    $0x18,%rax
   15c98:	48 89 85 90 f0 ff ff 	mov    %rax,-0xf70(%rbp)
   15c9f:	48 8d 85 10 cf ff ff 	lea    -0x30f0(%rbp),%rax
   15ca6:	48 83 c0 40          	add    $0x40,%rax
   15caa:	48 89 85 98 f0 ff ff 	mov    %rax,-0xf68(%rbp)
   15cb1:	48 8d 85 10 cf ff ff 	lea    -0x30f0(%rbp),%rax
   15cb8:	48 83 c0 10          	add    $0x10,%rax
   15cbc:	48 89 85 a0 f0 ff ff 	mov    %rax,-0xf60(%rbp)
   15cc3:	48 8d 05 f6 9e 00 00 	lea    0x9ef6(%rip),%rax        # 1fbc0 <g_143>
   15cca:	48 89 85 a8 f0 ff ff 	mov    %rax,-0xf58(%rbp)
   15cd1:	48 c7 85 b0 f0 ff ff 	movq   $0x0,-0xf50(%rbp)
   15cd8:	00 00 00 00 
   15cdc:	48 8d 85 10 cf ff ff 	lea    -0x30f0(%rbp),%rax
   15ce3:	48 83 c0 40          	add    $0x40,%rax
   15ce7:	48 89 85 b8 f0 ff ff 	mov    %rax,-0xf48(%rbp)
   15cee:	48 8d 05 bb 9e 00 00 	lea    0x9ebb(%rip),%rax        # 1fbb0 <g_134>
   15cf5:	48 89 85 c0 f0 ff ff 	mov    %rax,-0xf40(%rbp)
   15cfc:	48 8d 85 10 ca ff ff 	lea    -0x35f0(%rbp),%rax
   15d03:	48 89 85 c8 f0 ff ff 	mov    %rax,-0xf38(%rbp)
   15d0a:	48 8d 05 9f 9e 00 00 	lea    0x9e9f(%rip),%rax        # 1fbb0 <g_134>
   15d11:	48 89 85 d0 f0 ff ff 	mov    %rax,-0xf30(%rbp)
   15d18:	48 8d 85 10 cf ff ff 	lea    -0x30f0(%rbp),%rax
   15d1f:	48 83 c0 10          	add    $0x10,%rax
   15d23:	48 89 85 d8 f0 ff ff 	mov    %rax,-0xf28(%rbp)
   15d2a:	48 8d 05 8f 9e 00 00 	lea    0x9e8f(%rip),%rax        # 1fbc0 <g_143>
   15d31:	48 89 85 e0 f0 ff ff 	mov    %rax,-0xf20(%rbp)
   15d38:	48 8d 05 71 9e 00 00 	lea    0x9e71(%rip),%rax        # 1fbb0 <g_134>
   15d3f:	48 89 85 e8 f0 ff ff 	mov    %rax,-0xf18(%rbp)
   15d46:	48 8d 85 10 cf ff ff 	lea    -0x30f0(%rbp),%rax
   15d4d:	48 83 c0 30          	add    $0x30,%rax
   15d51:	48 89 85 f0 f0 ff ff 	mov    %rax,-0xf10(%rbp)
   15d58:	48 8d 05 61 9e 00 00 	lea    0x9e61(%rip),%rax        # 1fbc0 <g_143>
   15d5f:	48 89 85 f8 f0 ff ff 	mov    %rax,-0xf08(%rbp)
   15d66:	48 8d 85 10 cf ff ff 	lea    -0x30f0(%rbp),%rax
   15d6d:	48 83 c0 40          	add    $0x40,%rax
   15d71:	48 89 85 00 f1 ff ff 	mov    %rax,-0xf00(%rbp)
   15d78:	48 8d 85 10 ca ff ff 	lea    -0x35f0(%rbp),%rax
   15d7f:	48 89 85 08 f1 ff ff 	mov    %rax,-0xef8(%rbp)
   15d86:	48 c7 85 10 f1 ff ff 	movq   $0x0,-0xef0(%rbp)
   15d8d:	00 00 00 00 
   15d91:	48 8d 05 18 9e 00 00 	lea    0x9e18(%rip),%rax        # 1fbb0 <g_134>
   15d98:	48 89 85 18 f1 ff ff 	mov    %rax,-0xee8(%rbp)
   15d9f:	48 8d 85 10 ca ff ff 	lea    -0x35f0(%rbp),%rax
   15da6:	48 89 85 20 f1 ff ff 	mov    %rax,-0xee0(%rbp)
   15dad:	48 8d 85 10 cf ff ff 	lea    -0x30f0(%rbp),%rax
   15db4:	48 83 c0 70          	add    $0x70,%rax
   15db8:	48 89 85 28 f1 ff ff 	mov    %rax,-0xed8(%rbp)
   15dbf:	48 c7 85 30 f1 ff ff 	movq   $0x0,-0xed0(%rbp)
   15dc6:	00 00 00 00 
   15dca:	48 8d 85 10 cf ff ff 	lea    -0x30f0(%rbp),%rax
   15dd1:	48 83 c0 30          	add    $0x30,%rax
   15dd5:	48 89 85 38 f1 ff ff 	mov    %rax,-0xec8(%rbp)
   15ddc:	48 8d 85 10 ca ff ff 	lea    -0x35f0(%rbp),%rax
   15de3:	48 89 85 40 f1 ff ff 	mov    %rax,-0xec0(%rbp)
   15dea:	48 c7 85 48 f1 ff ff 	movq   $0x0,-0xeb8(%rbp)
   15df1:	00 00 00 00 
   15df5:	48 8d 05 b4 9d 00 00 	lea    0x9db4(%rip),%rax        # 1fbb0 <g_134>
   15dfc:	48 89 85 50 f1 ff ff 	mov    %rax,-0xeb0(%rbp)
   15e03:	48 c7 85 58 f1 ff ff 	movq   $0x0,-0xea8(%rbp)
   15e0a:	00 00 00 00 
   15e0e:	48 c7 85 60 f1 ff ff 	movq   $0x0,-0xea0(%rbp)
   15e15:	00 00 00 00 
   15e19:	48 8d 85 10 cf ff ff 	lea    -0x30f0(%rbp),%rax
   15e20:	48 83 c0 40          	add    $0x40,%rax
   15e24:	48 89 85 68 f1 ff ff 	mov    %rax,-0xe98(%rbp)
   15e2b:	48 8d 85 10 cf ff ff 	lea    -0x30f0(%rbp),%rax
   15e32:	48 83 c0 40          	add    $0x40,%rax
   15e36:	48 89 85 70 f1 ff ff 	mov    %rax,-0xe90(%rbp)
   15e3d:	48 8d 85 10 ca ff ff 	lea    -0x35f0(%rbp),%rax
   15e44:	48 89 85 78 f1 ff ff 	mov    %rax,-0xe88(%rbp)
   15e4b:	48 8d 05 6e 9d 00 00 	lea    0x9d6e(%rip),%rax        # 1fbc0 <g_143>
   15e52:	48 89 85 80 f1 ff ff 	mov    %rax,-0xe80(%rbp)
   15e59:	48 8d 05 50 9d 00 00 	lea    0x9d50(%rip),%rax        # 1fbb0 <g_134>
   15e60:	48 89 85 88 f1 ff ff 	mov    %rax,-0xe78(%rbp)
   15e67:	48 8d 05 52 9d 00 00 	lea    0x9d52(%rip),%rax        # 1fbc0 <g_143>
   15e6e:	48 89 85 90 f1 ff ff 	mov    %rax,-0xe70(%rbp)
   15e75:	48 8d 85 10 ca ff ff 	lea    -0x35f0(%rbp),%rax
   15e7c:	48 89 85 98 f1 ff ff 	mov    %rax,-0xe68(%rbp)
   15e83:	48 8d 05 26 9d 00 00 	lea    0x9d26(%rip),%rax        # 1fbb0 <g_134>
   15e8a:	48 89 85 a0 f1 ff ff 	mov    %rax,-0xe60(%rbp)
   15e91:	48 8d 85 10 cf ff ff 	lea    -0x30f0(%rbp),%rax
   15e98:	48 83 c0 40          	add    $0x40,%rax
   15e9c:	48 89 85 a8 f1 ff ff 	mov    %rax,-0xe58(%rbp)
   15ea3:	48 8d 85 10 cf ff ff 	lea    -0x30f0(%rbp),%rax
   15eaa:	48 83 c0 40          	add    $0x40,%rax
   15eae:	48 89 85 b0 f1 ff ff 	mov    %rax,-0xe50(%rbp)
   15eb5:	48 8d 85 10 ca ff ff 	lea    -0x35f0(%rbp),%rax
   15ebc:	48 89 85 b8 f1 ff ff 	mov    %rax,-0xe48(%rbp)
   15ec3:	48 8d 05 e6 9c 00 00 	lea    0x9ce6(%rip),%rax        # 1fbb0 <g_134>
   15eca:	48 89 85 c0 f1 ff ff 	mov    %rax,-0xe40(%rbp)
   15ed1:	48 8d 05 e8 9c 00 00 	lea    0x9ce8(%rip),%rax        # 1fbc0 <g_143>
   15ed8:	48 89 85 c8 f1 ff ff 	mov    %rax,-0xe38(%rbp)
   15edf:	48 8d 85 10 ca ff ff 	lea    -0x35f0(%rbp),%rax
   15ee6:	48 89 85 d0 f1 ff ff 	mov    %rax,-0xe30(%rbp)
   15eed:	48 c7 85 d8 f1 ff ff 	movq   $0x0,-0xe28(%rbp)
   15ef4:	00 00 00 00 
   15ef8:	48 8d 05 c1 9c 00 00 	lea    0x9cc1(%rip),%rax        # 1fbc0 <g_143>
   15eff:	48 89 85 e0 f1 ff ff 	mov    %rax,-0xe20(%rbp)
   15f06:	48 8d 05 a3 9c 00 00 	lea    0x9ca3(%rip),%rax        # 1fbb0 <g_134>
   15f0d:	48 89 85 e8 f1 ff ff 	mov    %rax,-0xe18(%rbp)
   15f14:	48 8d 05 a5 9c 00 00 	lea    0x9ca5(%rip),%rax        # 1fbc0 <g_143>
   15f1b:	48 89 85 f0 f1 ff ff 	mov    %rax,-0xe10(%rbp)
   15f22:	48 8d 05 87 9c 00 00 	lea    0x9c87(%rip),%rax        # 1fbb0 <g_134>
   15f29:	48 89 85 f8 f1 ff ff 	mov    %rax,-0xe08(%rbp)
   15f30:	48 8d 05 79 9c 00 00 	lea    0x9c79(%rip),%rax        # 1fbb0 <g_134>
   15f37:	48 89 85 00 f2 ff ff 	mov    %rax,-0xe00(%rbp)
   15f3e:	48 8d 85 10 cf ff ff 	lea    -0x30f0(%rbp),%rax
   15f45:	48 83 c0 40          	add    $0x40,%rax
   15f49:	48 89 85 08 f2 ff ff 	mov    %rax,-0xdf8(%rbp)
   15f50:	48 8d 85 10 ca ff ff 	lea    -0x35f0(%rbp),%rax
   15f57:	48 89 85 10 f2 ff ff 	mov    %rax,-0xdf0(%rbp)
   15f5e:	48 8d 85 10 ca ff ff 	lea    -0x35f0(%rbp),%rax
   15f65:	48 89 85 18 f2 ff ff 	mov    %rax,-0xde8(%rbp)
   15f6c:	48 8d 85 10 cf ff ff 	lea    -0x30f0(%rbp),%rax
   15f73:	48 83 c0 40          	add    $0x40,%rax
   15f77:	48 89 85 20 f2 ff ff 	mov    %rax,-0xde0(%rbp)
   15f7e:	48 8d 85 10 ca ff ff 	lea    -0x35f0(%rbp),%rax
   15f85:	48 89 85 28 f2 ff ff 	mov    %rax,-0xdd8(%rbp)
   15f8c:	48 8d 05 1d 9c 00 00 	lea    0x9c1d(%rip),%rax        # 1fbb0 <g_134>
   15f93:	48 89 85 30 f2 ff ff 	mov    %rax,-0xdd0(%rbp)
   15f9a:	48 8d 05 0f 9c 00 00 	lea    0x9c0f(%rip),%rax        # 1fbb0 <g_134>
   15fa1:	48 89 85 38 f2 ff ff 	mov    %rax,-0xdc8(%rbp)
   15fa8:	48 8d 85 10 ca ff ff 	lea    -0x35f0(%rbp),%rax
   15faf:	48 89 85 40 f2 ff ff 	mov    %rax,-0xdc0(%rbp)
   15fb6:	48 8d 85 10 cf ff ff 	lea    -0x30f0(%rbp),%rax
   15fbd:	48 83 c0 40          	add    $0x40,%rax
   15fc1:	48 89 85 48 f2 ff ff 	mov    %rax,-0xdb8(%rbp)
   15fc8:	48 8d 85 10 ca ff ff 	lea    -0x35f0(%rbp),%rax
   15fcf:	48 89 85 50 f2 ff ff 	mov    %rax,-0xdb0(%rbp)
   15fd6:	48 8d 85 10 cf ff ff 	lea    -0x30f0(%rbp),%rax
   15fdd:	48 83 c0 30          	add    $0x30,%rax
   15fe1:	48 89 85 58 f2 ff ff 	mov    %rax,-0xda8(%rbp)
   15fe8:	48 8d 85 10 cf ff ff 	lea    -0x30f0(%rbp),%rax
   15fef:	48 83 c0 30          	add    $0x30,%rax
   15ff3:	48 89 85 60 f2 ff ff 	mov    %rax,-0xda0(%rbp)
   15ffa:	48 8d 85 10 ca ff ff 	lea    -0x35f0(%rbp),%rax
   16001:	48 89 85 68 f2 ff ff 	mov    %rax,-0xd98(%rbp)
   16008:	48 c7 85 70 f2 ff ff 	movq   $0x0,-0xd90(%rbp)
   1600f:	00 00 00 00 
   16013:	48 8d 85 10 cf ff ff 	lea    -0x30f0(%rbp),%rax
   1601a:	48 83 c0 40          	add    $0x40,%rax
   1601e:	48 89 85 78 f2 ff ff 	mov    %rax,-0xd88(%rbp)
   16025:	48 8d 85 10 ca ff ff 	lea    -0x35f0(%rbp),%rax
   1602c:	48 89 85 80 f2 ff ff 	mov    %rax,-0xd80(%rbp)
   16033:	48 8d 85 10 ca ff ff 	lea    -0x35f0(%rbp),%rax
   1603a:	48 89 85 88 f2 ff ff 	mov    %rax,-0xd78(%rbp)
   16041:	48 8d 85 10 ca ff ff 	lea    -0x35f0(%rbp),%rax
   16048:	48 89 85 90 f2 ff ff 	mov    %rax,-0xd70(%rbp)
   1604f:	48 8d 85 10 cf ff ff 	lea    -0x30f0(%rbp),%rax
   16056:	48 83 c0 78          	add    $0x78,%rax
   1605a:	48 89 85 98 f2 ff ff 	mov    %rax,-0xd68(%rbp)
   16061:	48 8d 85 10 cf ff ff 	lea    -0x30f0(%rbp),%rax
   16068:	48 83 c0 10          	add    $0x10,%rax
   1606c:	48 89 85 a0 f2 ff ff 	mov    %rax,-0xd60(%rbp)
   16073:	48 c7 85 a8 f2 ff ff 	movq   $0x0,-0xd58(%rbp)
   1607a:	00 00 00 00 
   1607e:	48 8d 85 10 cf ff ff 	lea    -0x30f0(%rbp),%rax
   16085:	48 83 c0 50          	add    $0x50,%rax
   16089:	48 89 85 b0 f2 ff ff 	mov    %rax,-0xd50(%rbp)
   16090:	48 8d 85 10 ca ff ff 	lea    -0x35f0(%rbp),%rax
   16097:	48 89 85 b8 f2 ff ff 	mov    %rax,-0xd48(%rbp)
   1609e:	48 8d 85 10 cf ff ff 	lea    -0x30f0(%rbp),%rax
   160a5:	48 83 c0 40          	add    $0x40,%rax
   160a9:	48 89 85 c0 f2 ff ff 	mov    %rax,-0xd40(%rbp)
   160b0:	48 8d 85 10 cf ff ff 	lea    -0x30f0(%rbp),%rax
   160b7:	48 83 c0 70          	add    $0x70,%rax
   160bb:	48 89 85 c8 f2 ff ff 	mov    %rax,-0xd38(%rbp)
   160c2:	48 8d 85 10 cf ff ff 	lea    -0x30f0(%rbp),%rax
   160c9:	48 83 c0 30          	add    $0x30,%rax
   160cd:	48 89 85 d0 f2 ff ff 	mov    %rax,-0xd30(%rbp)
   160d4:	48 8d 85 10 ca ff ff 	lea    -0x35f0(%rbp),%rax
   160db:	48 89 85 d8 f2 ff ff 	mov    %rax,-0xd28(%rbp)
   160e2:	48 8d 85 10 ca ff ff 	lea    -0x35f0(%rbp),%rax
   160e9:	48 89 85 e0 f2 ff ff 	mov    %rax,-0xd20(%rbp)
   160f0:	48 8d 05 b9 9a 00 00 	lea    0x9ab9(%rip),%rax        # 1fbb0 <g_134>
   160f7:	48 89 85 e8 f2 ff ff 	mov    %rax,-0xd18(%rbp)
   160fe:	48 8d 85 10 cf ff ff 	lea    -0x30f0(%rbp),%rax
   16105:	48 83 c0 40          	add    $0x40,%rax
   16109:	48 89 85 f0 f2 ff ff 	mov    %rax,-0xd10(%rbp)
   16110:	48 c7 85 f8 f2 ff ff 	movq   $0x0,-0xd08(%rbp)
   16117:	00 00 00 00 
   1611b:	48 c7 85 00 f3 ff ff 	movq   $0x0,-0xd00(%rbp)
   16122:	00 00 00 00 
   16126:	48 8d 85 10 ca ff ff 	lea    -0x35f0(%rbp),%rax
   1612d:	48 89 85 08 f3 ff ff 	mov    %rax,-0xcf8(%rbp)
   16134:	48 8d 85 10 cf ff ff 	lea    -0x30f0(%rbp),%rax
   1613b:	48 83 c0 10          	add    $0x10,%rax
   1613f:	48 89 85 10 f3 ff ff 	mov    %rax,-0xcf0(%rbp)
   16146:	48 c7 85 18 f3 ff ff 	movq   $0x0,-0xce8(%rbp)
   1614d:	00 00 00 00 
   16151:	48 8d 85 10 cf ff ff 	lea    -0x30f0(%rbp),%rax
   16158:	48 83 c0 40          	add    $0x40,%rax
   1615c:	48 89 85 20 f3 ff ff 	mov    %rax,-0xce0(%rbp)
   16163:	48 c7 85 28 f3 ff ff 	movq   $0x0,-0xcd8(%rbp)
   1616a:	00 00 00 00 
   1616e:	48 8d 85 10 ca ff ff 	lea    -0x35f0(%rbp),%rax
   16175:	48 89 85 30 f3 ff ff 	mov    %rax,-0xcd0(%rbp)
   1617c:	48 8d 05 2d 9a 00 00 	lea    0x9a2d(%rip),%rax        # 1fbb0 <g_134>
   16183:	48 89 85 38 f3 ff ff 	mov    %rax,-0xcc8(%rbp)
   1618a:	48 8d 85 10 cf ff ff 	lea    -0x30f0(%rbp),%rax
   16191:	48 83 c0 50          	add    $0x50,%rax
   16195:	48 89 85 40 f3 ff ff 	mov    %rax,-0xcc0(%rbp)
   1619c:	48 c7 85 48 f3 ff ff 	movq   $0x0,-0xcb8(%rbp)
   161a3:	00 00 00 00 
   161a7:	48 8d 05 12 9a 00 00 	lea    0x9a12(%rip),%rax        # 1fbc0 <g_143>
   161ae:	48 89 85 50 f3 ff ff 	mov    %rax,-0xcb0(%rbp)
   161b5:	48 8d 85 10 ca ff ff 	lea    -0x35f0(%rbp),%rax
   161bc:	48 89 85 58 f3 ff ff 	mov    %rax,-0xca8(%rbp)
   161c3:	48 8d 85 10 cf ff ff 	lea    -0x30f0(%rbp),%rax
   161ca:	48 83 c0 40          	add    $0x40,%rax
   161ce:	48 89 85 60 f3 ff ff 	mov    %rax,-0xca0(%rbp)
   161d5:	48 c7 85 68 f3 ff ff 	movq   $0x0,-0xc98(%rbp)
   161dc:	00 00 00 00 
   161e0:	48 8d 85 10 cf ff ff 	lea    -0x30f0(%rbp),%rax
   161e7:	48 83 c0 40          	add    $0x40,%rax
   161eb:	48 89 85 70 f3 ff ff 	mov    %rax,-0xc90(%rbp)
   161f2:	48 8d 85 10 cf ff ff 	lea    -0x30f0(%rbp),%rax
   161f9:	48 83 c0 78          	add    $0x78,%rax
   161fd:	48 89 85 78 f3 ff ff 	mov    %rax,-0xc88(%rbp)
   16204:	48 8d 05 b5 99 00 00 	lea    0x99b5(%rip),%rax        # 1fbc0 <g_143>
   1620b:	48 89 85 80 f3 ff ff 	mov    %rax,-0xc80(%rbp)
   16212:	48 8d 85 10 ca ff ff 	lea    -0x35f0(%rbp),%rax
   16219:	48 89 85 88 f3 ff ff 	mov    %rax,-0xc78(%rbp)
   16220:	48 8d 85 10 ca ff ff 	lea    -0x35f0(%rbp),%rax
   16227:	48 89 85 90 f3 ff ff 	mov    %rax,-0xc70(%rbp)
   1622e:	48 8d 05 7b 99 00 00 	lea    0x997b(%rip),%rax        # 1fbb0 <g_134>
   16235:	48 89 85 98 f3 ff ff 	mov    %rax,-0xc68(%rbp)
   1623c:	48 8d 05 7d 99 00 00 	lea    0x997d(%rip),%rax        # 1fbc0 <g_143>
   16243:	48 89 85 a0 f3 ff ff 	mov    %rax,-0xc60(%rbp)
   1624a:	48 8d 05 6f 99 00 00 	lea    0x996f(%rip),%rax        # 1fbc0 <g_143>
   16251:	48 89 85 a8 f3 ff ff 	mov    %rax,-0xc58(%rbp)
   16258:	48 8d 85 10 cf ff ff 	lea    -0x30f0(%rbp),%rax
   1625f:	48 83 c0 40          	add    $0x40,%rax
   16263:	48 89 85 b0 f3 ff ff 	mov    %rax,-0xc50(%rbp)
   1626a:	48 8d 85 10 cf ff ff 	lea    -0x30f0(%rbp),%rax
   16271:	48 83 c0 40          	add    $0x40,%rax
   16275:	48 89 85 b8 f3 ff ff 	mov    %rax,-0xc48(%rbp)
   1627c:	48 c7 85 c0 f3 ff ff 	movq   $0x0,-0xc40(%rbp)
   16283:	00 00 00 00 
   16287:	48 c7 85 c8 f3 ff ff 	movq   $0x0,-0xc38(%rbp)
   1628e:	00 00 00 00 
   16292:	48 8d 05 17 99 00 00 	lea    0x9917(%rip),%rax        # 1fbb0 <g_134>
   16299:	48 89 85 d0 f3 ff ff 	mov    %rax,-0xc30(%rbp)
   162a0:	48 8d 85 10 cf ff ff 	lea    -0x30f0(%rbp),%rax
   162a7:	48 83 c0 40          	add    $0x40,%rax
   162ab:	48 89 85 d8 f3 ff ff 	mov    %rax,-0xc28(%rbp)
   162b2:	48 8d 85 10 cf ff ff 	lea    -0x30f0(%rbp),%rax
   162b9:	48 83 c0 40          	add    $0x40,%rax
   162bd:	48 89 85 e0 f3 ff ff 	mov    %rax,-0xc20(%rbp)
   162c4:	48 c7 85 e8 f3 ff ff 	movq   $0x0,-0xc18(%rbp)
   162cb:	00 00 00 00 
   162cf:	48 c7 85 f0 f3 ff ff 	movq   $0x0,-0xc10(%rbp)
   162d6:	00 00 00 00 
   162da:	48 8d 85 10 ca ff ff 	lea    -0x35f0(%rbp),%rax
   162e1:	48 89 85 f8 f3 ff ff 	mov    %rax,-0xc08(%rbp)
   162e8:	48 8d 85 10 ca ff ff 	lea    -0x35f0(%rbp),%rax
   162ef:	48 89 85 00 f4 ff ff 	mov    %rax,-0xc00(%rbp)
   162f6:	48 8d 05 b3 98 00 00 	lea    0x98b3(%rip),%rax        # 1fbb0 <g_134>
   162fd:	48 89 85 08 f4 ff ff 	mov    %rax,-0xbf8(%rbp)
   16304:	48 8d 05 a5 98 00 00 	lea    0x98a5(%rip),%rax        # 1fbb0 <g_134>
   1630b:	48 89 85 10 f4 ff ff 	mov    %rax,-0xbf0(%rbp)
   16312:	48 8d 85 10 cf ff ff 	lea    -0x30f0(%rbp),%rax
   16319:	48 83 c0 40          	add    $0x40,%rax
   1631d:	48 89 85 18 f4 ff ff 	mov    %rax,-0xbe8(%rbp)
   16324:	48 8d 05 85 98 00 00 	lea    0x9885(%rip),%rax        # 1fbb0 <g_134>
   1632b:	48 89 85 20 f4 ff ff 	mov    %rax,-0xbe0(%rbp)
   16332:	48 8d 05 77 98 00 00 	lea    0x9877(%rip),%rax        # 1fbb0 <g_134>
   16339:	48 89 85 28 f4 ff ff 	mov    %rax,-0xbd8(%rbp)
   16340:	48 8d 85 10 cf ff ff 	lea    -0x30f0(%rbp),%rax
   16347:	48 83 c0 40          	add    $0x40,%rax
   1634b:	48 89 85 30 f4 ff ff 	mov    %rax,-0xbd0(%rbp)
   16352:	48 8d 85 10 cf ff ff 	lea    -0x30f0(%rbp),%rax
   16359:	48 83 c0 70          	add    $0x70,%rax
   1635d:	48 89 85 38 f4 ff ff 	mov    %rax,-0xbc8(%rbp)
   16364:	48 8d 85 10 ca ff ff 	lea    -0x35f0(%rbp),%rax
   1636b:	48 89 85 40 f4 ff ff 	mov    %rax,-0xbc0(%rbp)
   16372:	48 8d 85 10 cf ff ff 	lea    -0x30f0(%rbp),%rax
   16379:	48 83 c0 70          	add    $0x70,%rax
   1637d:	48 89 85 48 f4 ff ff 	mov    %rax,-0xbb8(%rbp)
   16384:	48 8d 85 10 cf ff ff 	lea    -0x30f0(%rbp),%rax
   1638b:	48 83 c0 40          	add    $0x40,%rax
   1638f:	48 89 85 50 f4 ff ff 	mov    %rax,-0xbb0(%rbp)
   16396:	48 8d 85 10 cf ff ff 	lea    -0x30f0(%rbp),%rax
   1639d:	48 83 c0 40          	add    $0x40,%rax
   163a1:	48 89 85 58 f4 ff ff 	mov    %rax,-0xba8(%rbp)
   163a8:	48 8d 05 11 98 00 00 	lea    0x9811(%rip),%rax        # 1fbc0 <g_143>
   163af:	48 89 85 60 f4 ff ff 	mov    %rax,-0xba0(%rbp)
   163b6:	48 c7 85 68 f4 ff ff 	movq   $0x0,-0xb98(%rbp)
   163bd:	00 00 00 00 
   163c1:	48 8d 85 10 cf ff ff 	lea    -0x30f0(%rbp),%rax
   163c8:	48 83 c0 40          	add    $0x40,%rax
   163cc:	48 89 85 70 f4 ff ff 	mov    %rax,-0xb90(%rbp)
   163d3:	48 8d 85 10 ca ff ff 	lea    -0x35f0(%rbp),%rax
   163da:	48 89 85 78 f4 ff ff 	mov    %rax,-0xb88(%rbp)
   163e1:	48 8d 85 10 cf ff ff 	lea    -0x30f0(%rbp),%rax
   163e8:	48 83 c0 40          	add    $0x40,%rax
   163ec:	48 89 85 80 f4 ff ff 	mov    %rax,-0xb80(%rbp)
   163f3:	48 8d 85 10 cf ff ff 	lea    -0x30f0(%rbp),%rax
   163fa:	48 83 c0 40          	add    $0x40,%rax
   163fe:	48 89 85 88 f4 ff ff 	mov    %rax,-0xb78(%rbp)
   16405:	48 c7 85 90 f4 ff ff 	movq   $0x0,-0xb70(%rbp)
   1640c:	00 00 00 00 
   16410:	48 8d 85 10 cf ff ff 	lea    -0x30f0(%rbp),%rax
   16417:	48 83 c0 10          	add    $0x10,%rax
   1641b:	48 89 85 98 f4 ff ff 	mov    %rax,-0xb68(%rbp)
   16422:	48 c7 85 a0 f4 ff ff 	movq   $0x0,-0xb60(%rbp)
   16429:	00 00 00 00 
   1642d:	48 8d 05 7c 97 00 00 	lea    0x977c(%rip),%rax        # 1fbb0 <g_134>
   16434:	48 89 85 a8 f4 ff ff 	mov    %rax,-0xb58(%rbp)
   1643b:	48 8d 85 10 cf ff ff 	lea    -0x30f0(%rbp),%rax
   16442:	48 83 c0 18          	add    $0x18,%rax
   16446:	48 89 85 b0 f4 ff ff 	mov    %rax,-0xb50(%rbp)
   1644d:	48 c7 85 b8 f4 ff ff 	movq   $0x0,-0xb48(%rbp)
   16454:	00 00 00 00 
   16458:	48 c7 85 c0 f4 ff ff 	movq   $0x0,-0xb40(%rbp)
   1645f:	00 00 00 00 
   16463:	48 8d 85 10 ca ff ff 	lea    -0x35f0(%rbp),%rax
   1646a:	48 89 85 c8 f4 ff ff 	mov    %rax,-0xb38(%rbp)
   16471:	48 8d 85 10 cf ff ff 	lea    -0x30f0(%rbp),%rax
   16478:	48 83 c0 40          	add    $0x40,%rax
   1647c:	48 89 85 d0 f4 ff ff 	mov    %rax,-0xb30(%rbp)
   16483:	48 8d 85 10 cf ff ff 	lea    -0x30f0(%rbp),%rax
   1648a:	48 83 c0 10          	add    $0x10,%rax
   1648e:	48 89 85 d8 f4 ff ff 	mov    %rax,-0xb28(%rbp)
   16495:	48 8d 85 10 ca ff ff 	lea    -0x35f0(%rbp),%rax
   1649c:	48 89 85 e0 f4 ff ff 	mov    %rax,-0xb20(%rbp)
   164a3:	48 8d 85 10 cf ff ff 	lea    -0x30f0(%rbp),%rax
   164aa:	48 83 c0 40          	add    $0x40,%rax
   164ae:	48 89 85 e8 f4 ff ff 	mov    %rax,-0xb18(%rbp)
   164b5:	48 8d 85 10 cf ff ff 	lea    -0x30f0(%rbp),%rax
   164bc:	48 83 c0 40          	add    $0x40,%rax
   164c0:	48 89 85 f0 f4 ff ff 	mov    %rax,-0xb10(%rbp)
   164c7:	48 8d 85 10 cf ff ff 	lea    -0x30f0(%rbp),%rax
   164ce:	48 83 c0 40          	add    $0x40,%rax
   164d2:	48 89 85 f8 f4 ff ff 	mov    %rax,-0xb08(%rbp)
   164d9:	48 8d 05 e0 96 00 00 	lea    0x96e0(%rip),%rax        # 1fbc0 <g_143>
   164e0:	48 89 85 00 f5 ff ff 	mov    %rax,-0xb00(%rbp)
   164e7:	48 8d 05 c2 96 00 00 	lea    0x96c2(%rip),%rax        # 1fbb0 <g_134>
   164ee:	48 89 85 08 f5 ff ff 	mov    %rax,-0xaf8(%rbp)
   164f5:	48 8d 05 c4 96 00 00 	lea    0x96c4(%rip),%rax        # 1fbc0 <g_143>
   164fc:	48 89 85 10 f5 ff ff 	mov    %rax,-0xaf0(%rbp)
   16503:	48 8d 05 a6 96 00 00 	lea    0x96a6(%rip),%rax        # 1fbb0 <g_134>
   1650a:	48 89 85 18 f5 ff ff 	mov    %rax,-0xae8(%rbp)
   16511:	48 8d 05 98 96 00 00 	lea    0x9698(%rip),%rax        # 1fbb0 <g_134>
   16518:	48 89 85 20 f5 ff ff 	mov    %rax,-0xae0(%rbp)
   1651f:	48 8d 85 10 ca ff ff 	lea    -0x35f0(%rbp),%rax
   16526:	48 89 85 28 f5 ff ff 	mov    %rax,-0xad8(%rbp)
   1652d:	48 8d 85 10 cf ff ff 	lea    -0x30f0(%rbp),%rax
   16534:	48 83 c0 40          	add    $0x40,%rax
   16538:	48 89 85 30 f5 ff ff 	mov    %rax,-0xad0(%rbp)
   1653f:	48 c7 85 38 f5 ff ff 	movq   $0x0,-0xac8(%rbp)
   16546:	00 00 00 00 
   1654a:	48 8d 85 10 ca ff ff 	lea    -0x35f0(%rbp),%rax
   16551:	48 89 85 40 f5 ff ff 	mov    %rax,-0xac0(%rbp)
   16558:	48 8d 85 10 cf ff ff 	lea    -0x30f0(%rbp),%rax
   1655f:	48 83 c0 40          	add    $0x40,%rax
   16563:	48 89 85 48 f5 ff ff 	mov    %rax,-0xab8(%rbp)
   1656a:	48 8d 85 10 cf ff ff 	lea    -0x30f0(%rbp),%rax
   16571:	48 83 c0 40          	add    $0x40,%rax
   16575:	48 89 85 50 f5 ff ff 	mov    %rax,-0xab0(%rbp)
   1657c:	48 8d 85 10 ca ff ff 	lea    -0x35f0(%rbp),%rax
   16583:	48 89 85 58 f5 ff ff 	mov    %rax,-0xaa8(%rbp)
   1658a:	48 8d 85 10 cf ff ff 	lea    -0x30f0(%rbp),%rax
   16591:	48 83 c0 70          	add    $0x70,%rax
   16595:	48 89 85 60 f5 ff ff 	mov    %rax,-0xaa0(%rbp)
   1659c:	48 8d 85 10 cf ff ff 	lea    -0x30f0(%rbp),%rax
   165a3:	48 83 c0 40          	add    $0x40,%rax
   165a7:	48 89 85 68 f5 ff ff 	mov    %rax,-0xa98(%rbp)
   165ae:	48 8d 85 10 ca ff ff 	lea    -0x35f0(%rbp),%rax
   165b5:	48 89 85 70 f5 ff ff 	mov    %rax,-0xa90(%rbp)
   165bc:	48 8d 85 10 ca ff ff 	lea    -0x35f0(%rbp),%rax
   165c3:	48 89 85 78 f5 ff ff 	mov    %rax,-0xa88(%rbp)
   165ca:	48 8d 05 ef 95 00 00 	lea    0x95ef(%rip),%rax        # 1fbc0 <g_143>
   165d1:	48 89 85 80 f5 ff ff 	mov    %rax,-0xa80(%rbp)
   165d8:	48 c7 85 88 f5 ff ff 	movq   $0x0,-0xa78(%rbp)
   165df:	00 00 00 00 
   165e3:	48 c7 85 90 f5 ff ff 	movq   $0x0,-0xa70(%rbp)
   165ea:	00 00 00 00 
   165ee:	48 8d 05 bb 95 00 00 	lea    0x95bb(%rip),%rax        # 1fbb0 <g_134>
   165f5:	48 89 85 98 f5 ff ff 	mov    %rax,-0xa68(%rbp)
   165fc:	48 c7 85 a0 f5 ff ff 	movq   $0x0,-0xa60(%rbp)
   16603:	00 00 00 00 
   16607:	48 c7 85 a8 f5 ff ff 	movq   $0x0,-0xa58(%rbp)
   1660e:	00 00 00 00 
   16612:	48 8d 85 10 ca ff ff 	lea    -0x35f0(%rbp),%rax
   16619:	48 89 85 b0 f5 ff ff 	mov    %rax,-0xa50(%rbp)
   16620:	48 8d 85 10 cf ff ff 	lea    -0x30f0(%rbp),%rax
   16627:	48 83 c0 40          	add    $0x40,%rax
   1662b:	48 89 85 b8 f5 ff ff 	mov    %rax,-0xa48(%rbp)
   16632:	48 c7 85 c0 f5 ff ff 	movq   $0x0,-0xa40(%rbp)
   16639:	00 00 00 00 
   1663d:	48 8d 85 10 cf ff ff 	lea    -0x30f0(%rbp),%rax
   16644:	48 83 c0 40          	add    $0x40,%rax
   16648:	48 89 85 c8 f5 ff ff 	mov    %rax,-0xa38(%rbp)
   1664f:	48 8d 85 10 cf ff ff 	lea    -0x30f0(%rbp),%rax
   16656:	48 83 c0 40          	add    $0x40,%rax
   1665a:	48 89 85 d0 f5 ff ff 	mov    %rax,-0xa30(%rbp)
   16661:	48 8d 85 10 ca ff ff 	lea    -0x35f0(%rbp),%rax
   16668:	48 89 85 d8 f5 ff ff 	mov    %rax,-0xa28(%rbp)
   1666f:	48 8d 05 3a 95 00 00 	lea    0x953a(%rip),%rax        # 1fbb0 <g_134>
   16676:	48 89 85 e0 f5 ff ff 	mov    %rax,-0xa20(%rbp)
   1667d:	48 8d 05 2c 95 00 00 	lea    0x952c(%rip),%rax        # 1fbb0 <g_134>
   16684:	48 89 85 e8 f5 ff ff 	mov    %rax,-0xa18(%rbp)
   1668b:	48 8d 85 10 cf ff ff 	lea    -0x30f0(%rbp),%rax
   16692:	48 83 c0 78          	add    $0x78,%rax
   16696:	48 89 85 f0 f5 ff ff 	mov    %rax,-0xa10(%rbp)
   1669d:	48 8d 05 0c 95 00 00 	lea    0x950c(%rip),%rax        # 1fbb0 <g_134>
   166a4:	48 89 85 f8 f5 ff ff 	mov    %rax,-0xa08(%rbp)
   166ab:	48 8d 05 fe 94 00 00 	lea    0x94fe(%rip),%rax        # 1fbb0 <g_134>
   166b2:	48 89 85 00 f6 ff ff 	mov    %rax,-0xa00(%rbp)
   166b9:	48 8d 85 10 cf ff ff 	lea    -0x30f0(%rbp),%rax
   166c0:	48 83 c0 78          	add    $0x78,%rax
   166c4:	48 89 85 08 f6 ff ff 	mov    %rax,-0x9f8(%rbp)
   166cb:	48 8d 05 ee 94 00 00 	lea    0x94ee(%rip),%rax        # 1fbc0 <g_143>
   166d2:	48 89 85 58 cc ff ff 	mov    %rax,-0x33a8(%rbp)
   166d9:	48 8d 05 e0 94 00 00 	lea    0x94e0(%rip),%rax        # 1fbc0 <g_143>
   166e0:	48 89 85 60 cc ff ff 	mov    %rax,-0x33a0(%rbp)
   166e7:	8b 85 04 c9 ff ff    	mov    -0x36fc(%rbp),%eax
   166ed:	8d 50 01             	lea    0x1(%rax),%edx
   166f0:	8b 85 04 c9 ff ff    	mov    -0x36fc(%rbp),%eax
   166f6:	83 c0 01             	add    $0x1,%eax
   166f9:	48 63 c8             	movslq %eax,%rcx
   166fc:	48 63 d2             	movslq %edx,%rdx
   166ff:	48 89 d0             	mov    %rdx,%rax
   16702:	48 01 c0             	add    %rax,%rax
   16705:	48 01 d0             	add    %rdx,%rax
   16708:	48 01 c0             	add    %rax,%rax
   1670b:	48 01 c8             	add    %rcx,%rax
   1670e:	48 8d 14 85 00 00 00 	lea    0x0(,%rax,4),%rdx
   16715:	00 
   16716:	48 8d 05 c3 7b 00 00 	lea    0x7bc3(%rip),%rax        # 1e2e0 <g_96>
   1671d:	8b 04 02             	mov    (%rdx,%rax,1),%eax
   16720:	0f b6 c0             	movzbl %al,%eax
   16723:	89 c6                	mov    %eax,%esi
   16725:	bf f3 00 00 00       	mov    $0xf3,%edi
   1672a:	e8 64 24 ff ff       	callq  8b93 <safe_mul_func_uint8_t_u_u>
   1672f:	0f b6 c0             	movzbl %al,%eax
   16732:	48 89 c6             	mov    %rax,%rsi
   16735:	48 bf 7c ec f4 ce ae 	movabs $0xae59b4aecef4ec7c,%rdi
   1673c:	b4 59 ae 
   1673f:	e8 b3 22 ff ff       	callq  89f7 <safe_div_func_int64_t_s_s>
   16744:	48 8b 85 b8 ca ff ff 	mov    -0x3548(%rbp),%rax
   1674b:	48 8b 00             	mov    (%rax),%rax
   1674e:	8b 10                	mov    (%rax),%edx
   16750:	48 8b 85 58 cb ff ff 	mov    -0x34a8(%rbp),%rax
   16757:	48 8b 00             	mov    (%rax),%rax
   1675a:	8b 00                	mov    (%rax),%eax
   1675c:	39 c2                	cmp    %eax,%edx
   1675e:	0f 9f c0             	setg   %al
   16761:	0f b6 d0             	movzbl %al,%edx
   16764:	48 8b 85 e0 c9 ff ff 	mov    -0x3620(%rbp),%rax
   1676b:	48 85 c0             	test   %rax,%rax
   1676e:	0f 95 c0             	setne  %al
   16771:	0f b6 c0             	movzbl %al,%eax
   16774:	39 c2                	cmp    %eax,%edx
   16776:	0f 9e c2             	setle  %dl
   16779:	48 8b 05 50 94 00 00 	mov    0x9450(%rip),%rax        # 1fbd0 <g_187>
   16780:	88 10                	mov    %dl,(%rax)
   16782:	0f b6 00             	movzbl (%rax),%eax
   16785:	0f be c8             	movsbl %al,%ecx
   16788:	8b 85 04 c9 ff ff    	mov    -0x36fc(%rbp),%eax
   1678e:	8d 50 01             	lea    0x1(%rax),%edx
   16791:	8b 85 04 c9 ff ff    	mov    -0x36fc(%rbp),%eax
   16797:	83 c0 01             	add    $0x1,%eax
   1679a:	48 63 f0             	movslq %eax,%rsi
   1679d:	48 63 d2             	movslq %edx,%rdx
   167a0:	48 89 d0             	mov    %rdx,%rax
   167a3:	48 01 c0             	add    %rax,%rax
   167a6:	48 01 d0             	add    %rdx,%rax
   167a9:	48 01 c0             	add    %rax,%rax
   167ac:	48 01 f0             	add    %rsi,%rax
   167af:	48 8d 14 85 00 00 00 	lea    0x0(,%rax,4),%rdx
   167b6:	00 
   167b7:	48 8d 05 22 7b 00 00 	lea    0x7b22(%rip),%rax        # 1e2e0 <g_96>
   167be:	8b 04 02             	mov    (%rdx,%rax,1),%eax
   167c1:	39 c1                	cmp    %eax,%ecx
   167c3:	0f 95 c0             	setne  %al
   167c6:	0f b6 d0             	movzbl %al,%edx
   167c9:	8b 85 8c cd ff ff    	mov    -0x3274(%rbp),%eax
   167cf:	39 c2                	cmp    %eax,%edx
   167d1:	0f 9c c0             	setl   %al
   167d4:	0f b6 c0             	movzbl %al,%eax
   167d7:	be 07 00 00 00       	mov    $0x7,%esi
   167dc:	89 c7                	mov    %eax,%edi
   167de:	e8 69 24 ff ff       	callq  8c4c <safe_lshift_func_uint8_t_u_u>
   167e3:	8b 95 04 c9 ff ff    	mov    -0x36fc(%rbp),%edx
   167e9:	8b b5 04 c9 ff ff    	mov    -0x36fc(%rbp),%esi
   167ef:	0f b6 c8             	movzbl %al,%ecx
   167f2:	48 63 f6             	movslq %esi,%rsi
   167f5:	48 63 d2             	movslq %edx,%rdx
   167f8:	48 89 d0             	mov    %rdx,%rax
   167fb:	48 01 c0             	add    %rax,%rax
   167fe:	48 01 d0             	add    %rdx,%rax
   16801:	48 01 c0             	add    %rax,%rax
   16804:	48 01 f0             	add    %rsi,%rax
   16807:	48 8d 14 85 00 00 00 	lea    0x0(,%rax,4),%rdx
   1680e:	00 
   1680f:	48 8d 05 ca 7a 00 00 	lea    0x7aca(%rip),%rax        # 1e2e0 <g_96>
   16816:	89 0c 02             	mov    %ecx,(%rdx,%rax,1)
   16819:	66 c7 05 76 7b 00 00 	movw   $0x0,0x7b76(%rip)        # 1e398 <g_535>
   16820:	00 00 
   16822:	90                   	nop
   16823:	0f b7 05 6e 7b 00 00 	movzwl 0x7b6e(%rip),%eax        # 1e398 <g_535>
   1682a:	66 83 f8 01          	cmp    $0x1,%ax
   1682e:	0f 87 03 06 00 00    	ja     16e37 <func_56+0x7888>
   16834:	c6 85 ee c8 ff ff 01 	movb   $0x1,-0x3712(%rbp)
   1683b:	c7 85 64 c9 ff ff 3d 	movl   $0x3e7e93d,-0x369c(%rbp)
   16842:	e9 e7 03 
   16845:	48 c7 85 60 e9 ff ff 	movq   $0x0,-0x16a0(%rbp)
   1684c:	00 00 00 00 
   16850:	48 8d 85 10 ca ff ff 	lea    -0x35f0(%rbp),%rax
   16857:	48 89 85 68 e9 ff ff 	mov    %rax,-0x1698(%rbp)
   1685e:	48 8d 05 5b 93 00 00 	lea    0x935b(%rip),%rax        # 1fbc0 <g_143>
   16865:	48 89 85 70 e9 ff ff 	mov    %rax,-0x1690(%rbp)
   1686c:	48 c7 85 78 e9 ff ff 	movq   $0x0,-0x1688(%rbp)
   16873:	00 00 00 00 
   16877:	48 8d 05 32 93 00 00 	lea    0x9332(%rip),%rax        # 1fbb0 <g_134>
   1687e:	48 89 85 80 e9 ff ff 	mov    %rax,-0x1680(%rbp)
   16885:	48 8d 85 10 cf ff ff 	lea    -0x30f0(%rbp),%rax
   1688c:	48 83 c0 68          	add    $0x68,%rax
   16890:	48 89 85 88 e9 ff ff 	mov    %rax,-0x1678(%rbp)
   16897:	48 8d 85 10 cf ff ff 	lea    -0x30f0(%rbp),%rax
   1689e:	48 05 98 00 00 00    	add    $0x98,%rax
   168a4:	48 89 85 90 e9 ff ff 	mov    %rax,-0x1670(%rbp)
   168ab:	48 8d 85 10 cf ff ff 	lea    -0x30f0(%rbp),%rax
   168b2:	48 83 c0 40          	add    $0x40,%rax
   168b6:	48 89 85 98 e9 ff ff 	mov    %rax,-0x1668(%rbp)
   168bd:	48 8d 85 10 cf ff ff 	lea    -0x30f0(%rbp),%rax
   168c4:	48 05 98 00 00 00    	add    $0x98,%rax
   168ca:	48 89 85 a0 e9 ff ff 	mov    %rax,-0x1660(%rbp)
   168d1:	48 8d 85 10 cf ff ff 	lea    -0x30f0(%rbp),%rax
   168d8:	48 83 c0 68          	add    $0x68,%rax
   168dc:	48 89 85 a8 e9 ff ff 	mov    %rax,-0x1658(%rbp)
   168e3:	48 8d 85 10 cf ff ff 	lea    -0x30f0(%rbp),%rax
   168ea:	48 83 c0 18          	add    $0x18,%rax
   168ee:	48 89 85 b0 e9 ff ff 	mov    %rax,-0x1650(%rbp)
   168f5:	48 8d 05 c4 92 00 00 	lea    0x92c4(%rip),%rax        # 1fbc0 <g_143>
   168fc:	48 89 85 b8 e9 ff ff 	mov    %rax,-0x1648(%rbp)
   16903:	48 8d 05 a6 92 00 00 	lea    0x92a6(%rip),%rax        # 1fbb0 <g_134>
   1690a:	48 89 85 c0 e9 ff ff 	mov    %rax,-0x1640(%rbp)
   16911:	48 8d 05 a8 92 00 00 	lea    0x92a8(%rip),%rax        # 1fbc0 <g_143>
   16918:	48 89 85 c8 e9 ff ff 	mov    %rax,-0x1638(%rbp)
   1691f:	48 8d 85 10 cf ff ff 	lea    -0x30f0(%rbp),%rax
   16926:	48 83 c0 18          	add    $0x18,%rax
   1692a:	48 89 85 d0 e9 ff ff 	mov    %rax,-0x1630(%rbp)
   16931:	48 8d 85 10 cf ff ff 	lea    -0x30f0(%rbp),%rax
   16938:	48 83 c0 68          	add    $0x68,%rax
   1693c:	48 89 85 d8 e9 ff ff 	mov    %rax,-0x1628(%rbp)
   16943:	48 8d 05 76 92 00 00 	lea    0x9276(%rip),%rax        # 1fbc0 <g_143>
   1694a:	48 89 85 e0 e9 ff ff 	mov    %rax,-0x1620(%rbp)
   16951:	48 8d 05 58 92 00 00 	lea    0x9258(%rip),%rax        # 1fbb0 <g_134>
   16958:	48 89 85 e8 e9 ff ff 	mov    %rax,-0x1618(%rbp)
   1695f:	48 8d 85 10 cf ff ff 	lea    -0x30f0(%rbp),%rax
   16966:	48 83 c0 38          	add    $0x38,%rax
   1696a:	48 89 85 f0 e9 ff ff 	mov    %rax,-0x1610(%rbp)
   16971:	48 c7 85 f8 e9 ff ff 	movq   $0x0,-0x1608(%rbp)
   16978:	00 00 00 00 
   1697c:	48 c7 85 00 ea ff ff 	movq   $0x0,-0x1600(%rbp)
   16983:	00 00 00 00 
   16987:	48 8d 85 10 cf ff ff 	lea    -0x30f0(%rbp),%rax
   1698e:	48 83 c0 40          	add    $0x40,%rax
   16992:	48 89 85 08 ea ff ff 	mov    %rax,-0x15f8(%rbp)
   16999:	48 8d 05 10 92 00 00 	lea    0x9210(%rip),%rax        # 1fbb0 <g_134>
   169a0:	48 89 85 10 ea ff ff 	mov    %rax,-0x15f0(%rbp)
   169a7:	48 8d 05 02 92 00 00 	lea    0x9202(%rip),%rax        # 1fbb0 <g_134>
   169ae:	48 89 85 18 ea ff ff 	mov    %rax,-0x15e8(%rbp)
   169b5:	48 8d 85 10 ca ff ff 	lea    -0x35f0(%rbp),%rax
   169bc:	48 89 85 20 ea ff ff 	mov    %rax,-0x15e0(%rbp)
   169c3:	48 8d 05 e6 91 00 00 	lea    0x91e6(%rip),%rax        # 1fbb0 <g_134>
   169ca:	48 89 85 28 ea ff ff 	mov    %rax,-0x15d8(%rbp)
   169d1:	48 8d 05 d8 91 00 00 	lea    0x91d8(%rip),%rax        # 1fbb0 <g_134>
   169d8:	48 89 85 30 ea ff ff 	mov    %rax,-0x15d0(%rbp)
   169df:	48 8d 85 10 cf ff ff 	lea    -0x30f0(%rbp),%rax
   169e6:	48 83 c0 40          	add    $0x40,%rax
   169ea:	48 89 85 38 ea ff ff 	mov    %rax,-0x15c8(%rbp)
   169f1:	48 c7 85 40 ea ff ff 	movq   $0x0,-0x15c0(%rbp)
   169f8:	00 00 00 00 
   169fc:	48 c7 85 48 ea ff ff 	movq   $0x0,-0x15b8(%rbp)
   16a03:	00 00 00 00 
   16a07:	48 8d 85 10 cf ff ff 	lea    -0x30f0(%rbp),%rax
   16a0e:	48 83 c0 38          	add    $0x38,%rax
   16a12:	48 89 85 50 ea ff ff 	mov    %rax,-0x15b0(%rbp)
   16a19:	48 8d 05 90 91 00 00 	lea    0x9190(%rip),%rax        # 1fbb0 <g_134>
   16a20:	48 89 85 58 ea ff ff 	mov    %rax,-0x15a8(%rbp)
   16a27:	48 8d 05 92 91 00 00 	lea    0x9192(%rip),%rax        # 1fbc0 <g_143>
   16a2e:	48 89 85 60 ea ff ff 	mov    %rax,-0x15a0(%rbp)
   16a35:	48 8d 85 10 cf ff ff 	lea    -0x30f0(%rbp),%rax
   16a3c:	48 83 c0 68          	add    $0x68,%rax
   16a40:	48 89 85 68 ea ff ff 	mov    %rax,-0x1598(%rbp)
   16a47:	48 8d 85 10 cf ff ff 	lea    -0x30f0(%rbp),%rax
   16a4e:	48 83 c0 18          	add    $0x18,%rax
   16a52:	48 89 85 70 ea ff ff 	mov    %rax,-0x1590(%rbp)
   16a59:	48 8d 05 60 91 00 00 	lea    0x9160(%rip),%rax        # 1fbc0 <g_143>
   16a60:	48 89 85 78 ea ff ff 	mov    %rax,-0x1588(%rbp)
   16a67:	48 8d 05 42 91 00 00 	lea    0x9142(%rip),%rax        # 1fbb0 <g_134>
   16a6e:	48 89 85 80 ea ff ff 	mov    %rax,-0x1580(%rbp)
   16a75:	48 8d 05 44 91 00 00 	lea    0x9144(%rip),%rax        # 1fbc0 <g_143>
   16a7c:	48 89 85 88 ea ff ff 	mov    %rax,-0x1578(%rbp)
   16a83:	48 8d 85 10 cf ff ff 	lea    -0x30f0(%rbp),%rax
   16a8a:	48 83 c0 18          	add    $0x18,%rax
   16a8e:	48 89 85 90 ea ff ff 	mov    %rax,-0x1570(%rbp)
   16a95:	48 8d 85 10 cf ff ff 	lea    -0x30f0(%rbp),%rax
   16a9c:	48 83 c0 68          	add    $0x68,%rax
   16aa0:	48 89 85 98 ea ff ff 	mov    %rax,-0x1568(%rbp)
   16aa7:	48 8d 85 10 cf ff ff 	lea    -0x30f0(%rbp),%rax
   16aae:	48 05 98 00 00 00    	add    $0x98,%rax
   16ab4:	48 89 85 a0 ea ff ff 	mov    %rax,-0x1560(%rbp)
   16abb:	48 8d 85 10 cf ff ff 	lea    -0x30f0(%rbp),%rax
   16ac2:	48 83 c0 40          	add    $0x40,%rax
   16ac6:	48 89 85 a8 ea ff ff 	mov    %rax,-0x1558(%rbp)
   16acd:	48 8d 85 10 cf ff ff 	lea    -0x30f0(%rbp),%rax
   16ad4:	48 05 98 00 00 00    	add    $0x98,%rax
   16ada:	48 89 85 b0 ea ff ff 	mov    %rax,-0x1550(%rbp)
   16ae1:	48 8d 85 10 cf ff ff 	lea    -0x30f0(%rbp),%rax
   16ae8:	48 83 c0 68          	add    $0x68,%rax
   16aec:	48 89 85 b8 ea ff ff 	mov    %rax,-0x1548(%rbp)
   16af3:	48 8d 05 b6 90 00 00 	lea    0x90b6(%rip),%rax        # 1fbb0 <g_134>
   16afa:	48 89 85 c0 ea ff ff 	mov    %rax,-0x1540(%rbp)
   16b01:	48 c7 85 c8 ea ff ff 	movq   $0x0,-0x1538(%rbp)
   16b08:	00 00 00 00 
   16b0c:	48 8d 05 ad 90 00 00 	lea    0x90ad(%rip),%rax        # 1fbc0 <g_143>
   16b13:	48 89 85 d0 ea ff ff 	mov    %rax,-0x1530(%rbp)
   16b1a:	48 8d 85 10 ca ff ff 	lea    -0x35f0(%rbp),%rax
   16b21:	48 89 85 d8 ea ff ff 	mov    %rax,-0x1528(%rbp)
   16b28:	48 c7 85 e0 ea ff ff 	movq   $0x0,-0x1520(%rbp)
   16b2f:	00 00 00 00 
   16b33:	48 8d 85 10 ca ff ff 	lea    -0x35f0(%rbp),%rax
   16b3a:	48 89 85 e8 ea ff ff 	mov    %rax,-0x1518(%rbp)
   16b41:	48 8d 85 10 cf ff ff 	lea    -0x30f0(%rbp),%rax
   16b48:	48 05 98 00 00 00    	add    $0x98,%rax
   16b4e:	48 89 85 f0 ea ff ff 	mov    %rax,-0x1510(%rbp)
   16b55:	48 8d 05 64 90 00 00 	lea    0x9064(%rip),%rax        # 1fbc0 <g_143>
   16b5c:	48 89 85 f8 ea ff ff 	mov    %rax,-0x1508(%rbp)
   16b63:	48 c7 85 00 eb ff ff 	movq   $0x0,-0x1500(%rbp)
   16b6a:	00 00 00 00 
   16b6e:	48 8d 05 3b 90 00 00 	lea    0x903b(%rip),%rax        # 1fbb0 <g_134>
   16b75:	48 89 85 08 eb ff ff 	mov    %rax,-0x14f8(%rbp)
   16b7c:	48 c7 85 10 eb ff ff 	movq   $0x0,-0x14f0(%rbp)
   16b83:	00 00 00 00 
   16b87:	48 8d 05 32 90 00 00 	lea    0x9032(%rip),%rax        # 1fbc0 <g_143>
   16b8e:	48 89 85 18 eb ff ff 	mov    %rax,-0x14e8(%rbp)
   16b95:	48 8d 85 10 cf ff ff 	lea    -0x30f0(%rbp),%rax
   16b9c:	48 05 98 00 00 00    	add    $0x98,%rax
   16ba2:	48 89 85 20 eb ff ff 	mov    %rax,-0x14e0(%rbp)
   16ba9:	48 8d 85 10 ca ff ff 	lea    -0x35f0(%rbp),%rax
   16bb0:	48 89 85 28 eb ff ff 	mov    %rax,-0x14d8(%rbp)
   16bb7:	48 8d 85 10 cf ff ff 	lea    -0x30f0(%rbp),%rax
   16bbe:	48 83 c0 38          	add    $0x38,%rax
   16bc2:	48 89 85 30 eb ff ff 	mov    %rax,-0x14d0(%rbp)
   16bc9:	48 8d 85 10 cf ff ff 	lea    -0x30f0(%rbp),%rax
   16bd0:	48 83 c0 40          	add    $0x40,%rax
   16bd4:	48 89 85 38 eb ff ff 	mov    %rax,-0x14c8(%rbp)
   16bdb:	48 8d 85 10 cf ff ff 	lea    -0x30f0(%rbp),%rax
   16be2:	48 83 c0 40          	add    $0x40,%rax
   16be6:	48 89 85 68 cc ff ff 	mov    %rax,-0x3398(%rbp)
   16bed:	48 8d 85 10 cf ff ff 	lea    -0x30f0(%rbp),%rax
   16bf4:	48 83 c0 78          	add    $0x78,%rax
   16bf8:	48 89 85 70 cc ff ff 	mov    %rax,-0x3390(%rbp)
   16bff:	48 8d 05 aa 8f 00 00 	lea    0x8faa(%rip),%rax        # 1fbb0 <g_134>
   16c06:	48 89 85 78 cc ff ff 	mov    %rax,-0x3388(%rbp)
   16c0d:	48 8d 85 10 ca ff ff 	lea    -0x35f0(%rbp),%rax
   16c14:	48 89 85 80 cc ff ff 	mov    %rax,-0x3380(%rbp)
   16c1b:	48 c7 05 6a 77 00 00 	movq   $0x1,0x776a(%rip)        # 1e390 <g_364>
   16c22:	01 00 00 00 
   16c26:	e9 e8 00 00 00       	jmpq   16d13 <func_56+0x7764>
   16c2b:	48 8b 05 76 95 00 00 	mov    0x9576(%rip),%rax        # 201a8 <g_814>
   16c32:	48 8b 00             	mov    (%rax),%rax
   16c35:	8b 00                	mov    (%rax),%eax
   16c37:	85 c0                	test   %eax,%eax
   16c39:	0f 85 e6 00 00 00    	jne    16d25 <func_56+0x7776>
   16c3f:	0f b6 85 ec c8 ff ff 	movzbl -0x3714(%rbp),%eax
   16c46:	0f be d0             	movsbl %al,%edx
   16c49:	8b 85 d8 c8 ff ff    	mov    -0x3728(%rbp),%eax
   16c4f:	0f be c0             	movsbl %al,%eax
   16c52:	89 d6                	mov    %edx,%esi
   16c54:	89 c7                	mov    %eax,%edi
   16c56:	e8 0f 16 ff ff       	callq  826a <safe_div_func_int8_t_s_s>
   16c5b:	0f be d0             	movsbl %al,%edx
   16c5e:	48 8d 05 3b 77 00 00 	lea    0x773b(%rip),%rax        # 1e3a0 <g_597>
   16c65:	48 39 85 30 cc ff ff 	cmp    %rax,-0x33d0(%rbp)
   16c6c:	0f 95 c0             	setne  %al
   16c6f:	0f b6 f0             	movzbl %al,%esi
   16c72:	48 8b 05 5f 8f 00 00 	mov    0x8f5f(%rip),%rax        # 1fbd8 <g_186>
   16c79:	48 8b 00             	mov    (%rax),%rax
   16c7c:	0f b6 08             	movzbl (%rax),%ecx
   16c7f:	48 8b 85 50 cb ff ff 	mov    -0x34b0(%rbp),%rax
   16c86:	48 8b 00             	mov    (%rax),%rax
   16c89:	0f be c9             	movsbl %cl,%ecx
   16c8c:	89 08                	mov    %ecx,(%rax)
   16c8e:	8b 00                	mov    (%rax),%eax
   16c90:	39 85 d8 c8 ff ff    	cmp    %eax,-0x3728(%rbp)
   16c96:	0f 95 c0             	setne  %al
   16c99:	0f b6 c0             	movzbl %al,%eax
   16c9c:	39 c6                	cmp    %eax,%esi
   16c9e:	0f 9d c0             	setge  %al
   16ca1:	0f b6 c0             	movzbl %al,%eax
   16ca4:	89 d6                	mov    %edx,%esi
   16ca6:	89 c7                	mov    %eax,%edi
   16ca8:	e8 84 15 ff ff       	callq  8231 <safe_mod_func_int8_t_s_s>
   16cad:	48 0f be c0          	movsbq %al,%rax
   16cb1:	48 89 c6             	mov    %rax,%rsi
   16cb4:	48 8d 3d 35 a3 00 00 	lea    0xa335(%rip),%rdi        # 20ff0 <g_160>
   16cbb:	e8 b6 17 00 00       	callq  18476 <func_76>
   16cc0:	48 8b 95 38 ca ff ff 	mov    -0x35c8(%rbp),%rdx
   16cc7:	48 89 02             	mov    %rax,(%rdx)
   16cca:	48 8b 8d f0 ce ff ff 	mov    -0x3110(%rbp),%rcx
   16cd1:	48 8b 85 a8 ca ff ff 	mov    -0x3558(%rbp),%rax
   16cd8:	48 8b 95 d0 c8 ff ff 	mov    -0x3730(%rbp),%rdx
   16cdf:	48 89 10             	mov    %rdx,(%rax)
   16ce2:	48 8b 85 a8 ca ff ff 	mov    -0x3558(%rbp),%rax
   16ce9:	48 8b 00             	mov    (%rax),%rax
   16cec:	48 39 c1             	cmp    %rax,%rcx
   16cef:	0f 95 c0             	setne  %al
   16cf2:	0f b6 c0             	movzbl %al,%eax
   16cf5:	33 85 dc c8 ff ff    	xor    -0x3724(%rbp),%eax
   16cfb:	89 85 64 c9 ff ff    	mov    %eax,-0x369c(%rbp)
   16d01:	48 8b 05 88 76 00 00 	mov    0x7688(%rip),%rax        # 1e390 <g_364>
   16d08:	48 83 e8 01          	sub    $0x1,%rax
   16d0c:	48 89 05 7d 76 00 00 	mov    %rax,0x767d(%rip)        # 1e390 <g_364>
   16d13:	48 8b 05 76 76 00 00 	mov    0x7676(%rip),%rax        # 1e390 <g_364>
   16d1a:	48 85 c0             	test   %rax,%rax
   16d1d:	0f 89 08 ff ff ff    	jns    16c2b <func_56+0x767c>
   16d23:	eb 01                	jmp    16d26 <func_56+0x7777>
   16d25:	90                   	nop
   16d26:	8b 85 04 c9 ff ff    	mov    -0x36fc(%rbp),%eax
   16d2c:	8b 95 04 c9 ff ff    	mov    -0x36fc(%rbp),%edx
   16d32:	48 63 ca             	movslq %edx,%rcx
   16d35:	48 63 d0             	movslq %eax,%rdx
   16d38:	48 89 d0             	mov    %rdx,%rax
   16d3b:	48 01 c0             	add    %rax,%rax
   16d3e:	48 01 d0             	add    %rdx,%rax
   16d41:	48 01 c0             	add    %rax,%rax
   16d44:	48 01 c8             	add    %rcx,%rax
   16d47:	48 8d 14 85 00 00 00 	lea    0x0(,%rax,4),%rdx
   16d4e:	00 
   16d4f:	48 8d 05 8a 75 00 00 	lea    0x758a(%rip),%rax        # 1e2e0 <g_96>
   16d56:	8b 04 02             	mov    (%rdx,%rax,1),%eax
   16d59:	89 c3                	mov    %eax,%ebx
   16d5b:	48 8b 85 d0 c8 ff ff 	mov    -0x3730(%rbp),%rax
   16d62:	0f b7 00             	movzwl (%rax),%eax
   16d65:	98                   	cwtl   
   16d66:	be 01 00 00 00       	mov    $0x1,%esi
   16d6b:	89 c7                	mov    %eax,%edi
   16d6d:	e8 f1 17 ff ff       	callq  8563 <safe_rshift_func_int16_t_s_u>
   16d72:	0f b7 d0             	movzwl %ax,%edx
   16d75:	48 8b 05 54 8e 00 00 	mov    0x8e54(%rip),%rax        # 1fbd0 <g_187>
   16d7c:	0f b6 08             	movzbl (%rax),%ecx
   16d7f:	48 8b 85 58 cb ff ff 	mov    -0x34a8(%rbp),%rax
   16d86:	48 8b 00             	mov    (%rax),%rax
   16d89:	8b 00                	mov    (%rax),%eax
   16d8b:	89 c6                	mov    %eax,%esi
   16d8d:	48 8b 05 3c 8e 00 00 	mov    0x8e3c(%rip),%rax        # 1fbd0 <g_187>
   16d94:	31 f1                	xor    %esi,%ecx
   16d96:	88 08                	mov    %cl,(%rax)
   16d98:	0f b6 00             	movzbl (%rax),%eax
   16d9b:	84 c0                	test   %al,%al
   16d9d:	75 09                	jne    16da8 <func_56+0x77f9>
   16d9f:	80 bd ee c8 ff ff 00 	cmpb   $0x0,-0x3712(%rbp)
   16da6:	74 07                	je     16daf <func_56+0x7800>
   16da8:	b8 01 00 00 00       	mov    $0x1,%eax
   16dad:	eb 05                	jmp    16db4 <func_56+0x7805>
   16daf:	b8 00 00 00 00       	mov    $0x0,%eax
   16db4:	66 89 05 39 a2 00 00 	mov    %ax,0xa239(%rip)        # 20ff4 <g_206>
   16dbb:	0f b7 05 32 a2 00 00 	movzwl 0xa232(%rip),%eax        # 20ff4 <g_206>
   16dc2:	0f b7 c0             	movzwl %ax,%eax
   16dc5:	89 d6                	mov    %edx,%esi
   16dc7:	89 c7                	mov    %eax,%edi
   16dc9:	e8 31 1f ff ff       	callq  8cff <safe_add_func_uint16_t_u_u>
   16dce:	89 de                	mov    %ebx,%esi
   16dd0:	bf 01 00 00 00       	mov    $0x1,%edi
   16dd5:	e8 4b 21 ff ff       	callq  8f25 <safe_div_func_uint32_t_u_u>
   16dda:	83 f8 02             	cmp    $0x2,%eax
   16ddd:	48 8b 85 c0 ca ff ff 	mov    -0x3540(%rbp),%rax
   16de4:	48 8b 00             	mov    (%rax),%rax
   16de7:	8b 00                	mov    (%rax),%eax
   16de9:	3d 59 47 00 00       	cmp    $0x4759,%eax
   16dee:	0f 95 c0             	setne  %al
   16df1:	0f b6 d0             	movzbl %al,%edx
   16df4:	48 8b 85 10 ca ff ff 	mov    -0x35f0(%rbp),%rax
   16dfb:	8b 00                	mov    (%rax),%eax
   16dfd:	09 d0                	or     %edx,%eax
   16dff:	98                   	cwtl   
   16e00:	be 00 00 00 00       	mov    $0x0,%esi
   16e05:	89 c7                	mov    %eax,%edi
   16e07:	e8 e9 15 ff ff       	callq  83f5 <safe_mul_func_int16_t_s_s>
   16e0c:	66 c1 e8 0f          	shr    $0xf,%ax
   16e10:	0f b6 c8             	movzbl %al,%ecx
   16e13:	0f b7 05 80 75 00 00 	movzwl 0x7580(%rip),%eax        # 1e39a <g_536>
   16e1a:	0f bf d0             	movswl %ax,%edx
   16e1d:	48 8b 05 84 93 00 00 	mov    0x9384(%rip),%rax        # 201a8 <g_814>
   16e24:	48 8b 00             	mov    (%rax),%rax
   16e27:	09 ca                	or     %ecx,%edx
   16e29:	89 10                	mov    %edx,(%rax)
   16e2b:	48 8b 85 88 ca ff ff 	mov    -0x3578(%rbp),%rax
   16e32:	e9 c7 10 00 00       	jmpq   17efe <func_56+0x894f>
   16e37:	8b 85 04 c9 ff ff    	mov    -0x36fc(%rbp),%eax
   16e3d:	83 e8 01             	sub    $0x1,%eax
   16e40:	89 85 04 c9 ff ff    	mov    %eax,-0x36fc(%rbp)
   16e46:	8b 85 04 c9 ff ff    	mov    -0x36fc(%rbp),%eax
   16e4c:	85 c0                	test   %eax,%eax
   16e4e:	0f 89 ab ed ff ff    	jns    15bff <func_56+0x6650>
   16e54:	48 8b 85 e0 ca ff ff 	mov    -0x3520(%rbp),%rax
   16e5b:	e9 9e 10 00 00       	jmpq   17efe <func_56+0x894f>
   16e60:	48 8b 05 81 8d 00 00 	mov    0x8d81(%rip),%rax        # 1fbe8 <g_208>
   16e67:	48 8b 00             	mov    (%rax),%rax
   16e6a:	48 8b 00             	mov    (%rax),%rax
   16e6d:	48 8b 10             	mov    (%rax),%rdx
   16e70:	48 8b 85 80 ca ff ff 	mov    -0x3580(%rbp),%rax
   16e77:	48 89 10             	mov    %rdx,(%rax)
   16e7a:	c7 05 2c 75 00 00 00 	movl   $0x0,0x752c(%rip)        # 1e3b0 <g_734>
   16e81:	00 00 00 
   16e84:	90                   	nop
   16e85:	8b 05 25 75 00 00    	mov    0x7525(%rip),%eax        # 1e3b0 <g_734>
   16e8b:	83 f8 1f             	cmp    $0x1f,%eax
   16e8e:	0f 87 63 10 00 00    	ja     17ef7 <func_56+0x8948>
   16e94:	66 c7 85 f0 c8 ff ff 	movw   $0xa23c,-0x3710(%rbp)
   16e9b:	3c a2 
   16e9d:	48 8d 85 c0 da ff ff 	lea    -0x2540(%rbp),%rax
   16ea4:	48 05 e0 03 00 00    	add    $0x3e0,%rax
   16eaa:	48 89 85 f8 ca ff ff 	mov    %rax,-0x3508(%rbp)
   16eb1:	48 8d 05 60 8f 00 00 	lea    0x8f60(%rip),%rax        # 1fe18 <g_562+0x218>
   16eb8:	48 89 85 00 cb ff ff 	mov    %rax,-0x3500(%rbp)
   16ebf:	48 8d 05 b6 74 00 00 	lea    0x74b6(%rip),%rax        # 1e37c <g_175>
   16ec6:	48 89 85 08 cb ff ff 	mov    %rax,-0x34f8(%rbp)
   16ecd:	c7 85 48 c9 ff ff 01 	movl   $0x1,-0x36b8(%rbp)
   16ed4:	00 00 00 
   16ed7:	c7 85 4c c9 ff ff 71 	movl   $0x3f190171,-0x36b4(%rbp)
   16ede:	01 19 3f 
   16ee1:	48 8d 85 60 e9 ff ff 	lea    -0x16a0(%rbp),%rax
   16ee8:	48 89 85 10 cb ff ff 	mov    %rax,-0x34f0(%rbp)
   16eef:	48 8d 85 b8 c9 ff ff 	lea    -0x3648(%rbp),%rax
   16ef6:	48 89 85 70 f0 ff ff 	mov    %rax,-0xf90(%rbp)
   16efd:	48 8d 85 b8 c9 ff ff 	lea    -0x3648(%rbp),%rax
   16f04:	48 89 85 78 f0 ff ff 	mov    %rax,-0xf88(%rbp)
   16f0b:	48 c7 85 80 f0 ff ff 	movq   $0x0,-0xf80(%rbp)
   16f12:	00 00 00 00 
   16f16:	48 8d 85 b8 c9 ff ff 	lea    -0x3648(%rbp),%rax
   16f1d:	48 89 85 88 f0 ff ff 	mov    %rax,-0xf78(%rbp)
   16f24:	48 8d 85 b8 c9 ff ff 	lea    -0x3648(%rbp),%rax
   16f2b:	48 89 85 90 f0 ff ff 	mov    %rax,-0xf70(%rbp)
   16f32:	48 8d 85 b8 c9 ff ff 	lea    -0x3648(%rbp),%rax
   16f39:	48 89 85 98 f0 ff ff 	mov    %rax,-0xf68(%rbp)
   16f40:	48 c7 85 a0 f0 ff ff 	movq   $0x0,-0xf60(%rbp)
   16f47:	00 00 00 00 
   16f4b:	48 c7 85 a8 f0 ff ff 	movq   $0x0,-0xf58(%rbp)
   16f52:	00 00 00 00 
   16f56:	48 8d 85 b8 c9 ff ff 	lea    -0x3648(%rbp),%rax
   16f5d:	48 89 85 b0 f0 ff ff 	mov    %rax,-0xf50(%rbp)
   16f64:	48 8d 85 e0 c9 ff ff 	lea    -0x3620(%rbp),%rax
   16f6b:	48 89 85 b8 f0 ff ff 	mov    %rax,-0xf48(%rbp)
   16f72:	48 8d 85 e0 c9 ff ff 	lea    -0x3620(%rbp),%rax
   16f79:	48 89 85 c0 f0 ff ff 	mov    %rax,-0xf40(%rbp)
   16f80:	48 c7 85 c8 f0 ff ff 	movq   $0x0,-0xf38(%rbp)
   16f87:	00 00 00 00 
   16f8b:	48 8d 85 e0 c9 ff ff 	lea    -0x3620(%rbp),%rax
   16f92:	48 89 85 d0 f0 ff ff 	mov    %rax,-0xf30(%rbp)
   16f99:	48 8d 85 e0 c9 ff ff 	lea    -0x3620(%rbp),%rax
   16fa0:	48 89 85 d8 f0 ff ff 	mov    %rax,-0xf28(%rbp)
   16fa7:	48 c7 85 e0 f0 ff ff 	movq   $0x0,-0xf20(%rbp)
   16fae:	00 00 00 00 
   16fb2:	48 8d 85 e0 c9 ff ff 	lea    -0x3620(%rbp),%rax
   16fb9:	48 89 85 e8 f0 ff ff 	mov    %rax,-0xf18(%rbp)
   16fc0:	48 8d 85 b8 c9 ff ff 	lea    -0x3648(%rbp),%rax
   16fc7:	48 89 85 f0 f0 ff ff 	mov    %rax,-0xf10(%rbp)
   16fce:	48 8d 85 b8 c9 ff ff 	lea    -0x3648(%rbp),%rax
   16fd5:	48 89 85 f8 f0 ff ff 	mov    %rax,-0xf08(%rbp)
   16fdc:	48 8d 85 e0 c9 ff ff 	lea    -0x3620(%rbp),%rax
   16fe3:	48 89 85 00 f1 ff ff 	mov    %rax,-0xf00(%rbp)
   16fea:	48 8d 85 b8 c9 ff ff 	lea    -0x3648(%rbp),%rax
   16ff1:	48 89 85 08 f1 ff ff 	mov    %rax,-0xef8(%rbp)
   16ff8:	48 8d 85 e0 c9 ff ff 	lea    -0x3620(%rbp),%rax
   16fff:	48 89 85 10 f1 ff ff 	mov    %rax,-0xef0(%rbp)
   17006:	48 8d 85 b8 c9 ff ff 	lea    -0x3648(%rbp),%rax
   1700d:	48 89 85 18 f1 ff ff 	mov    %rax,-0xee8(%rbp)
   17014:	48 8d 85 b8 c9 ff ff 	lea    -0x3648(%rbp),%rax
   1701b:	48 89 85 20 f1 ff ff 	mov    %rax,-0xee0(%rbp)
   17022:	48 8d 85 e0 c9 ff ff 	lea    -0x3620(%rbp),%rax
   17029:	48 89 85 28 f1 ff ff 	mov    %rax,-0xed8(%rbp)
   17030:	48 8d 85 e0 c9 ff ff 	lea    -0x3620(%rbp),%rax
   17037:	48 89 85 30 f1 ff ff 	mov    %rax,-0xed0(%rbp)
   1703e:	48 8d 85 e0 c9 ff ff 	lea    -0x3620(%rbp),%rax
   17045:	48 89 85 38 f1 ff ff 	mov    %rax,-0xec8(%rbp)
   1704c:	48 8d 85 e0 c9 ff ff 	lea    -0x3620(%rbp),%rax
   17053:	48 89 85 40 f1 ff ff 	mov    %rax,-0xec0(%rbp)
   1705a:	48 8d 85 e0 c9 ff ff 	lea    -0x3620(%rbp),%rax
   17061:	48 89 85 48 f1 ff ff 	mov    %rax,-0xeb8(%rbp)
   17068:	48 c7 85 50 f1 ff ff 	movq   $0x0,-0xeb0(%rbp)
   1706f:	00 00 00 00 
   17073:	48 8d 85 b8 c9 ff ff 	lea    -0x3648(%rbp),%rax
   1707a:	48 89 85 58 f1 ff ff 	mov    %rax,-0xea8(%rbp)
   17081:	48 c7 85 60 f1 ff ff 	movq   $0x0,-0xea0(%rbp)
   17088:	00 00 00 00 
   1708c:	48 8d 85 e0 c9 ff ff 	lea    -0x3620(%rbp),%rax
   17093:	48 89 85 68 f1 ff ff 	mov    %rax,-0xe98(%rbp)
   1709a:	48 c7 85 70 f1 ff ff 	movq   $0x0,-0xe90(%rbp)
   170a1:	00 00 00 00 
   170a5:	48 c7 85 78 f1 ff ff 	movq   $0x0,-0xe88(%rbp)
   170ac:	00 00 00 00 
   170b0:	48 8d 85 e0 c9 ff ff 	lea    -0x3620(%rbp),%rax
   170b7:	48 89 85 80 f1 ff ff 	mov    %rax,-0xe80(%rbp)
   170be:	48 8d 85 b8 c9 ff ff 	lea    -0x3648(%rbp),%rax
   170c5:	48 89 85 88 f1 ff ff 	mov    %rax,-0xe78(%rbp)
   170cc:	48 8d 85 b8 c9 ff ff 	lea    -0x3648(%rbp),%rax
   170d3:	48 89 85 90 f1 ff ff 	mov    %rax,-0xe70(%rbp)
   170da:	48 8d 85 e0 c9 ff ff 	lea    -0x3620(%rbp),%rax
   170e1:	48 89 85 98 f1 ff ff 	mov    %rax,-0xe68(%rbp)
   170e8:	48 8d 85 b8 c9 ff ff 	lea    -0x3648(%rbp),%rax
   170ef:	48 89 85 a0 f1 ff ff 	mov    %rax,-0xe60(%rbp)
   170f6:	48 8d 85 b8 c9 ff ff 	lea    -0x3648(%rbp),%rax
   170fd:	48 89 85 a8 f1 ff ff 	mov    %rax,-0xe58(%rbp)
   17104:	48 8d 85 b8 c9 ff ff 	lea    -0x3648(%rbp),%rax
   1710b:	48 89 85 b0 f1 ff ff 	mov    %rax,-0xe50(%rbp)
   17112:	48 c7 85 b8 f1 ff ff 	movq   $0x0,-0xe48(%rbp)
   17119:	00 00 00 00 
   1711d:	48 8d 85 e0 c9 ff ff 	lea    -0x3620(%rbp),%rax
   17124:	48 89 85 c0 f1 ff ff 	mov    %rax,-0xe40(%rbp)
   1712b:	48 8d 85 b8 c9 ff ff 	lea    -0x3648(%rbp),%rax
   17132:	48 89 85 c8 f1 ff ff 	mov    %rax,-0xe38(%rbp)
   17139:	48 8d 85 b8 c9 ff ff 	lea    -0x3648(%rbp),%rax
   17140:	48 89 85 d0 f1 ff ff 	mov    %rax,-0xe30(%rbp)
   17147:	48 8d 85 e0 c9 ff ff 	lea    -0x3620(%rbp),%rax
   1714e:	48 89 85 d8 f1 ff ff 	mov    %rax,-0xe28(%rbp)
   17155:	48 8d 85 e0 c9 ff ff 	lea    -0x3620(%rbp),%rax
   1715c:	48 89 85 e0 f1 ff ff 	mov    %rax,-0xe20(%rbp)
   17163:	48 8d 85 e0 c9 ff ff 	lea    -0x3620(%rbp),%rax
   1716a:	48 89 85 e8 f1 ff ff 	mov    %rax,-0xe18(%rbp)
   17171:	48 8d 85 b8 c9 ff ff 	lea    -0x3648(%rbp),%rax
   17178:	48 89 85 f0 f1 ff ff 	mov    %rax,-0xe10(%rbp)
   1717f:	48 c7 85 f8 f1 ff ff 	movq   $0x0,-0xe08(%rbp)
   17186:	00 00 00 00 
   1718a:	48 8d 85 e0 c9 ff ff 	lea    -0x3620(%rbp),%rax
   17191:	48 89 85 00 f2 ff ff 	mov    %rax,-0xe00(%rbp)
   17198:	48 8d 85 e0 c9 ff ff 	lea    -0x3620(%rbp),%rax
   1719f:	48 89 85 08 f2 ff ff 	mov    %rax,-0xdf8(%rbp)
   171a6:	48 8d 85 b8 c9 ff ff 	lea    -0x3648(%rbp),%rax
   171ad:	48 89 85 10 f2 ff ff 	mov    %rax,-0xdf0(%rbp)
   171b4:	48 8d 85 b8 c9 ff ff 	lea    -0x3648(%rbp),%rax
   171bb:	48 89 85 18 f2 ff ff 	mov    %rax,-0xde8(%rbp)
   171c2:	48 8d 85 b8 c9 ff ff 	lea    -0x3648(%rbp),%rax
   171c9:	48 89 85 20 f2 ff ff 	mov    %rax,-0xde0(%rbp)
   171d0:	48 c7 85 28 f2 ff ff 	movq   $0x0,-0xdd8(%rbp)
   171d7:	00 00 00 00 
   171db:	48 c7 85 30 f2 ff ff 	movq   $0x0,-0xdd0(%rbp)
   171e2:	00 00 00 00 
   171e6:	48 8d 85 b8 c9 ff ff 	lea    -0x3648(%rbp),%rax
   171ed:	48 89 85 38 f2 ff ff 	mov    %rax,-0xdc8(%rbp)
   171f4:	48 8d 85 b8 c9 ff ff 	lea    -0x3648(%rbp),%rax
   171fb:	48 89 85 40 f2 ff ff 	mov    %rax,-0xdc0(%rbp)
   17202:	48 8d 85 b8 c9 ff ff 	lea    -0x3648(%rbp),%rax
   17209:	48 89 85 48 f2 ff ff 	mov    %rax,-0xdb8(%rbp)
   17210:	48 c7 85 50 f2 ff ff 	movq   $0x0,-0xdb0(%rbp)
   17217:	00 00 00 00 
   1721b:	48 c7 85 58 f2 ff ff 	movq   $0x0,-0xda8(%rbp)
   17222:	00 00 00 00 
   17226:	48 8d 85 b8 c9 ff ff 	lea    -0x3648(%rbp),%rax
   1722d:	48 89 85 60 f2 ff ff 	mov    %rax,-0xda0(%rbp)
   17234:	48 8d 85 b8 c9 ff ff 	lea    -0x3648(%rbp),%rax
   1723b:	48 89 85 68 f2 ff ff 	mov    %rax,-0xd98(%rbp)
   17242:	48 8d 85 e0 c9 ff ff 	lea    -0x3620(%rbp),%rax
   17249:	48 89 85 70 f2 ff ff 	mov    %rax,-0xd90(%rbp)
   17250:	48 8d 85 b8 c9 ff ff 	lea    -0x3648(%rbp),%rax
   17257:	48 89 85 78 f2 ff ff 	mov    %rax,-0xd88(%rbp)
   1725e:	48 c7 85 80 f2 ff ff 	movq   $0x0,-0xd80(%rbp)
   17265:	00 00 00 00 
   17269:	48 8d 85 b8 c9 ff ff 	lea    -0x3648(%rbp),%rax
   17270:	48 89 85 88 f2 ff ff 	mov    %rax,-0xd78(%rbp)
   17277:	48 8d 85 e0 c9 ff ff 	lea    -0x3620(%rbp),%rax
   1727e:	48 89 85 90 f2 ff ff 	mov    %rax,-0xd70(%rbp)
   17285:	48 8d 85 e0 c9 ff ff 	lea    -0x3620(%rbp),%rax
   1728c:	48 89 85 98 f2 ff ff 	mov    %rax,-0xd68(%rbp)
   17293:	48 8d 85 e0 c9 ff ff 	lea    -0x3620(%rbp),%rax
   1729a:	48 89 85 a0 f2 ff ff 	mov    %rax,-0xd60(%rbp)
   172a1:	48 8d 85 b8 c9 ff ff 	lea    -0x3648(%rbp),%rax
   172a8:	48 89 85 a8 f2 ff ff 	mov    %rax,-0xd58(%rbp)
   172af:	48 8d 85 b8 c9 ff ff 	lea    -0x3648(%rbp),%rax
   172b6:	48 89 85 b0 f2 ff ff 	mov    %rax,-0xd50(%rbp)
   172bd:	48 c7 85 b8 f2 ff ff 	movq   $0x0,-0xd48(%rbp)
   172c4:	00 00 00 00 
   172c8:	48 8d 85 b8 c9 ff ff 	lea    -0x3648(%rbp),%rax
   172cf:	48 89 85 c0 f2 ff ff 	mov    %rax,-0xd40(%rbp)
   172d6:	48 8d 85 e0 c9 ff ff 	lea    -0x3620(%rbp),%rax
   172dd:	48 89 85 c8 f2 ff ff 	mov    %rax,-0xd38(%rbp)
   172e4:	48 8d 85 b8 c9 ff ff 	lea    -0x3648(%rbp),%rax
   172eb:	48 89 85 d0 f2 ff ff 	mov    %rax,-0xd30(%rbp)
   172f2:	48 c7 85 d8 f2 ff ff 	movq   $0x0,-0xd28(%rbp)
   172f9:	00 00 00 00 
   172fd:	48 8d 85 e0 c9 ff ff 	lea    -0x3620(%rbp),%rax
   17304:	48 89 85 e0 f2 ff ff 	mov    %rax,-0xd20(%rbp)
   1730b:	48 c7 85 e8 f2 ff ff 	movq   $0x0,-0xd18(%rbp)
   17312:	00 00 00 00 
   17316:	48 c7 85 f0 f2 ff ff 	movq   $0x0,-0xd10(%rbp)
   1731d:	00 00 00 00 
   17321:	48 8d 85 e0 c9 ff ff 	lea    -0x3620(%rbp),%rax
   17328:	48 89 85 f8 f2 ff ff 	mov    %rax,-0xd08(%rbp)
   1732f:	48 8d 85 b8 c9 ff ff 	lea    -0x3648(%rbp),%rax
   17336:	48 89 85 00 f3 ff ff 	mov    %rax,-0xd00(%rbp)
   1733d:	48 8d 85 b8 c9 ff ff 	lea    -0x3648(%rbp),%rax
   17344:	48 89 85 08 f3 ff ff 	mov    %rax,-0xcf8(%rbp)
   1734b:	48 8d 85 b8 c9 ff ff 	lea    -0x3648(%rbp),%rax
   17352:	48 89 85 10 f3 ff ff 	mov    %rax,-0xcf0(%rbp)
   17359:	48 c7 85 18 f3 ff ff 	movq   $0x0,-0xce8(%rbp)
   17360:	00 00 00 00 
   17364:	48 8d 85 b8 c9 ff ff 	lea    -0x3648(%rbp),%rax
   1736b:	48 89 85 20 f3 ff ff 	mov    %rax,-0xce0(%rbp)
   17372:	48 8d 85 b8 c9 ff ff 	lea    -0x3648(%rbp),%rax
   17379:	48 89 85 28 f3 ff ff 	mov    %rax,-0xcd8(%rbp)
   17380:	48 8d 85 e0 c9 ff ff 	lea    -0x3620(%rbp),%rax
   17387:	48 89 85 30 f3 ff ff 	mov    %rax,-0xcd0(%rbp)
   1738e:	48 8d 85 b8 c9 ff ff 	lea    -0x3648(%rbp),%rax
   17395:	48 89 85 38 f3 ff ff 	mov    %rax,-0xcc8(%rbp)
   1739c:	48 c7 85 40 f3 ff ff 	movq   $0x0,-0xcc0(%rbp)
   173a3:	00 00 00 00 
   173a7:	48 8d 85 b8 c9 ff ff 	lea    -0x3648(%rbp),%rax
   173ae:	48 89 85 48 f3 ff ff 	mov    %rax,-0xcb8(%rbp)
   173b5:	48 8d 85 b8 c9 ff ff 	lea    -0x3648(%rbp),%rax
   173bc:	48 89 85 50 f3 ff ff 	mov    %rax,-0xcb0(%rbp)
   173c3:	48 8d 85 b8 c9 ff ff 	lea    -0x3648(%rbp),%rax
   173ca:	48 89 85 58 f3 ff ff 	mov    %rax,-0xca8(%rbp)
   173d1:	48 8d 85 b8 c9 ff ff 	lea    -0x3648(%rbp),%rax
   173d8:	48 89 85 60 f3 ff ff 	mov    %rax,-0xca0(%rbp)
   173df:	48 8d 85 e0 c9 ff ff 	lea    -0x3620(%rbp),%rax
   173e6:	48 89 85 68 f3 ff ff 	mov    %rax,-0xc98(%rbp)
   173ed:	48 8d 85 e0 c9 ff ff 	lea    -0x3620(%rbp),%rax
   173f4:	48 89 85 70 f3 ff ff 	mov    %rax,-0xc90(%rbp)
   173fb:	48 8d 85 e0 c9 ff ff 	lea    -0x3620(%rbp),%rax
   17402:	48 89 85 78 f3 ff ff 	mov    %rax,-0xc88(%rbp)
   17409:	48 8d 85 b8 c9 ff ff 	lea    -0x3648(%rbp),%rax
   17410:	48 89 85 80 f3 ff ff 	mov    %rax,-0xc80(%rbp)
   17417:	48 c7 85 88 f3 ff ff 	movq   $0x0,-0xc78(%rbp)
   1741e:	00 00 00 00 
   17422:	48 8d 85 e0 c9 ff ff 	lea    -0x3620(%rbp),%rax
   17429:	48 89 85 90 f3 ff ff 	mov    %rax,-0xc70(%rbp)
   17430:	48 8d 85 b8 c9 ff ff 	lea    -0x3648(%rbp),%rax
   17437:	48 89 85 98 f3 ff ff 	mov    %rax,-0xc68(%rbp)
   1743e:	48 c7 85 a0 f3 ff ff 	movq   $0x0,-0xc60(%rbp)
   17445:	00 00 00 00 
   17449:	48 8d 85 e0 c9 ff ff 	lea    -0x3620(%rbp),%rax
   17450:	48 89 85 a8 f3 ff ff 	mov    %rax,-0xc58(%rbp)
   17457:	48 8d 85 e0 c9 ff ff 	lea    -0x3620(%rbp),%rax
   1745e:	48 89 85 b0 f3 ff ff 	mov    %rax,-0xc50(%rbp)
   17465:	48 c7 85 b8 f3 ff ff 	movq   $0x0,-0xc48(%rbp)
   1746c:	00 00 00 00 
   17470:	48 c7 85 c0 f3 ff ff 	movq   $0x0,-0xc40(%rbp)
   17477:	00 00 00 00 
   1747b:	48 8d 85 e0 c9 ff ff 	lea    -0x3620(%rbp),%rax
   17482:	48 89 85 c8 f3 ff ff 	mov    %rax,-0xc38(%rbp)
   17489:	48 8d 85 e0 c9 ff ff 	lea    -0x3620(%rbp),%rax
   17490:	48 89 85 d0 f3 ff ff 	mov    %rax,-0xc30(%rbp)
   17497:	48 8d 85 e0 c9 ff ff 	lea    -0x3620(%rbp),%rax
   1749e:	48 89 85 d8 f3 ff ff 	mov    %rax,-0xc28(%rbp)
   174a5:	48 8d 85 b8 c9 ff ff 	lea    -0x3648(%rbp),%rax
   174ac:	48 89 85 e0 f3 ff ff 	mov    %rax,-0xc20(%rbp)
   174b3:	48 c7 85 e8 f3 ff ff 	movq   $0x0,-0xc18(%rbp)
   174ba:	00 00 00 00 
   174be:	48 8d 85 e0 c9 ff ff 	lea    -0x3620(%rbp),%rax
   174c5:	48 89 85 f0 f3 ff ff 	mov    %rax,-0xc10(%rbp)
   174cc:	48 c7 85 f8 f3 ff ff 	movq   $0x0,-0xc08(%rbp)
   174d3:	00 00 00 00 
   174d7:	48 8d 85 e0 c9 ff ff 	lea    -0x3620(%rbp),%rax
   174de:	48 89 85 00 f4 ff ff 	mov    %rax,-0xc00(%rbp)
   174e5:	48 8d 85 e0 c9 ff ff 	lea    -0x3620(%rbp),%rax
   174ec:	48 89 85 08 f4 ff ff 	mov    %rax,-0xbf8(%rbp)
   174f3:	48 8d 85 b8 c9 ff ff 	lea    -0x3648(%rbp),%rax
   174fa:	48 89 85 10 f4 ff ff 	mov    %rax,-0xbf0(%rbp)
   17501:	48 c7 85 18 f4 ff ff 	movq   $0x0,-0xbe8(%rbp)
   17508:	00 00 00 00 
   1750c:	48 8d 85 b8 c9 ff ff 	lea    -0x3648(%rbp),%rax
   17513:	48 89 85 20 f4 ff ff 	mov    %rax,-0xbe0(%rbp)
   1751a:	48 8d 85 b8 c9 ff ff 	lea    -0x3648(%rbp),%rax
   17521:	48 89 85 28 f4 ff ff 	mov    %rax,-0xbd8(%rbp)
   17528:	48 8d 85 e0 c9 ff ff 	lea    -0x3620(%rbp),%rax
   1752f:	48 89 85 30 f4 ff ff 	mov    %rax,-0xbd0(%rbp)
   17536:	48 8d 85 e0 c9 ff ff 	lea    -0x3620(%rbp),%rax
   1753d:	48 89 85 38 f4 ff ff 	mov    %rax,-0xbc8(%rbp)
   17544:	48 c7 85 40 f4 ff ff 	movq   $0x0,-0xbc0(%rbp)
   1754b:	00 00 00 00 
   1754f:	48 c7 85 48 f4 ff ff 	movq   $0x0,-0xbb8(%rbp)
   17556:	00 00 00 00 
   1755a:	48 c7 85 50 f4 ff ff 	movq   $0x0,-0xbb0(%rbp)
   17561:	00 00 00 00 
   17565:	48 8d 85 e0 c9 ff ff 	lea    -0x3620(%rbp),%rax
   1756c:	48 89 85 58 f4 ff ff 	mov    %rax,-0xba8(%rbp)
   17573:	48 c7 85 60 f4 ff ff 	movq   $0x0,-0xba0(%rbp)
   1757a:	00 00 00 00 
   1757e:	48 8d 85 b8 c9 ff ff 	lea    -0x3648(%rbp),%rax
   17585:	48 89 85 68 f4 ff ff 	mov    %rax,-0xb98(%rbp)
   1758c:	48 8d 85 e0 c9 ff ff 	lea    -0x3620(%rbp),%rax
   17593:	48 89 85 70 f4 ff ff 	mov    %rax,-0xb90(%rbp)
   1759a:	48 8d 85 b8 c9 ff ff 	lea    -0x3648(%rbp),%rax
   175a1:	48 89 85 78 f4 ff ff 	mov    %rax,-0xb88(%rbp)
   175a8:	48 c7 85 80 f4 ff ff 	movq   $0x0,-0xb80(%rbp)
   175af:	00 00 00 00 
   175b3:	48 c7 85 88 f4 ff ff 	movq   $0x0,-0xb78(%rbp)
   175ba:	00 00 00 00 
   175be:	48 8d 85 e0 c9 ff ff 	lea    -0x3620(%rbp),%rax
   175c5:	48 89 85 90 f4 ff ff 	mov    %rax,-0xb70(%rbp)
   175cc:	48 8d 85 e0 c9 ff ff 	lea    -0x3620(%rbp),%rax
   175d3:	48 89 85 98 f4 ff ff 	mov    %rax,-0xb68(%rbp)
   175da:	48 8d 85 e0 c9 ff ff 	lea    -0x3620(%rbp),%rax
   175e1:	48 89 85 a0 f4 ff ff 	mov    %rax,-0xb60(%rbp)
   175e8:	48 8d 85 b8 c9 ff ff 	lea    -0x3648(%rbp),%rax
   175ef:	48 89 85 a8 f4 ff ff 	mov    %rax,-0xb58(%rbp)
   175f6:	48 c7 85 b0 f4 ff ff 	movq   $0x0,-0xb50(%rbp)
   175fd:	00 00 00 00 
   17601:	48 8d 85 b8 c9 ff ff 	lea    -0x3648(%rbp),%rax
   17608:	48 89 85 b8 f4 ff ff 	mov    %rax,-0xb48(%rbp)
   1760f:	48 8d 85 e0 c9 ff ff 	lea    -0x3620(%rbp),%rax
   17616:	48 89 85 c0 f4 ff ff 	mov    %rax,-0xb40(%rbp)
   1761d:	48 8d 85 e0 c9 ff ff 	lea    -0x3620(%rbp),%rax
   17624:	48 89 85 c8 f4 ff ff 	mov    %rax,-0xb38(%rbp)
   1762b:	48 8d 85 b8 c9 ff ff 	lea    -0x3648(%rbp),%rax
   17632:	48 89 85 d0 f4 ff ff 	mov    %rax,-0xb30(%rbp)
   17639:	48 8d 85 e0 c9 ff ff 	lea    -0x3620(%rbp),%rax
   17640:	48 89 85 d8 f4 ff ff 	mov    %rax,-0xb28(%rbp)
   17647:	48 8d 85 b8 c9 ff ff 	lea    -0x3648(%rbp),%rax
   1764e:	48 89 85 e0 f4 ff ff 	mov    %rax,-0xb20(%rbp)
   17655:	48 8d 85 b8 c9 ff ff 	lea    -0x3648(%rbp),%rax
   1765c:	48 89 85 e8 f4 ff ff 	mov    %rax,-0xb18(%rbp)
   17663:	48 c7 85 f0 f4 ff ff 	movq   $0x0,-0xb10(%rbp)
   1766a:	00 00 00 00 
   1766e:	48 8d 85 e0 c9 ff ff 	lea    -0x3620(%rbp),%rax
   17675:	48 89 85 f8 f4 ff ff 	mov    %rax,-0xb08(%rbp)
   1767c:	48 8d 85 e0 c9 ff ff 	lea    -0x3620(%rbp),%rax
   17683:	48 89 85 00 f5 ff ff 	mov    %rax,-0xb00(%rbp)
   1768a:	48 8d 85 b8 c9 ff ff 	lea    -0x3648(%rbp),%rax
   17691:	48 89 85 08 f5 ff ff 	mov    %rax,-0xaf8(%rbp)
   17698:	48 c7 85 10 f5 ff ff 	movq   $0x0,-0xaf0(%rbp)
   1769f:	00 00 00 00 
   176a3:	48 c7 85 18 f5 ff ff 	movq   $0x0,-0xae8(%rbp)
   176aa:	00 00 00 00 
   176ae:	48 8d 85 b8 c9 ff ff 	lea    -0x3648(%rbp),%rax
   176b5:	48 89 85 20 f5 ff ff 	mov    %rax,-0xae0(%rbp)
   176bc:	48 8d 85 b8 c9 ff ff 	lea    -0x3648(%rbp),%rax
   176c3:	48 89 85 28 f5 ff ff 	mov    %rax,-0xad8(%rbp)
   176ca:	48 8d 85 e0 c9 ff ff 	lea    -0x3620(%rbp),%rax
   176d1:	48 89 85 30 f5 ff ff 	mov    %rax,-0xad0(%rbp)
   176d8:	48 8d 85 e0 c9 ff ff 	lea    -0x3620(%rbp),%rax
   176df:	48 89 85 38 f5 ff ff 	mov    %rax,-0xac8(%rbp)
   176e6:	48 8d 85 e0 c9 ff ff 	lea    -0x3620(%rbp),%rax
   176ed:	48 89 85 40 f5 ff ff 	mov    %rax,-0xac0(%rbp)
   176f4:	48 8d 85 e0 c9 ff ff 	lea    -0x3620(%rbp),%rax
   176fb:	48 89 85 48 f5 ff ff 	mov    %rax,-0xab8(%rbp)
   17702:	48 8d 85 e0 c9 ff ff 	lea    -0x3620(%rbp),%rax
   17709:	48 89 85 50 f5 ff ff 	mov    %rax,-0xab0(%rbp)
   17710:	48 8d 85 e0 c9 ff ff 	lea    -0x3620(%rbp),%rax
   17717:	48 89 85 58 f5 ff ff 	mov    %rax,-0xaa8(%rbp)
   1771e:	48 c7 85 60 f5 ff ff 	movq   $0x0,-0xaa0(%rbp)
   17725:	00 00 00 00 
   17729:	48 8d 85 e0 c9 ff ff 	lea    -0x3620(%rbp),%rax
   17730:	48 89 85 68 f5 ff ff 	mov    %rax,-0xa98(%rbp)
   17737:	48 8d 85 e0 c9 ff ff 	lea    -0x3620(%rbp),%rax
   1773e:	48 89 85 70 f5 ff ff 	mov    %rax,-0xa90(%rbp)
   17745:	48 8d 85 b8 c9 ff ff 	lea    -0x3648(%rbp),%rax
   1774c:	48 89 85 78 f5 ff ff 	mov    %rax,-0xa88(%rbp)
   17753:	48 8d 85 e0 c9 ff ff 	lea    -0x3620(%rbp),%rax
   1775a:	48 89 85 80 f5 ff ff 	mov    %rax,-0xa80(%rbp)
   17761:	48 c7 85 88 f5 ff ff 	movq   $0x0,-0xa78(%rbp)
   17768:	00 00 00 00 
   1776c:	48 8d 85 b8 c9 ff ff 	lea    -0x3648(%rbp),%rax
   17773:	48 89 85 90 f5 ff ff 	mov    %rax,-0xa70(%rbp)
   1777a:	48 8d 85 e0 c9 ff ff 	lea    -0x3620(%rbp),%rax
   17781:	48 89 85 98 f5 ff ff 	mov    %rax,-0xa68(%rbp)
   17788:	48 8d 85 e0 c9 ff ff 	lea    -0x3620(%rbp),%rax
   1778f:	48 89 85 a0 f5 ff ff 	mov    %rax,-0xa60(%rbp)
   17796:	48 c7 85 a8 f5 ff ff 	movq   $0x0,-0xa58(%rbp)
   1779d:	00 00 00 00 
   177a1:	48 8d 85 b8 c9 ff ff 	lea    -0x3648(%rbp),%rax
   177a8:	48 89 85 b0 f5 ff ff 	mov    %rax,-0xa50(%rbp)
   177af:	48 8d 85 b8 c9 ff ff 	lea    -0x3648(%rbp),%rax
   177b6:	48 89 85 b8 f5 ff ff 	mov    %rax,-0xa48(%rbp)
   177bd:	48 8d 85 b8 c9 ff ff 	lea    -0x3648(%rbp),%rax
   177c4:	48 89 85 c0 f5 ff ff 	mov    %rax,-0xa40(%rbp)
   177cb:	48 c7 85 c8 f5 ff ff 	movq   $0x0,-0xa38(%rbp)
   177d2:	00 00 00 00 
   177d6:	48 c7 85 d0 f5 ff ff 	movq   $0x0,-0xa30(%rbp)
   177dd:	00 00 00 00 
   177e1:	48 8d 85 e0 c9 ff ff 	lea    -0x3620(%rbp),%rax
   177e8:	48 89 85 d8 f5 ff ff 	mov    %rax,-0xa28(%rbp)
   177ef:	48 8d 85 b8 c9 ff ff 	lea    -0x3648(%rbp),%rax
   177f6:	48 89 85 e0 f5 ff ff 	mov    %rax,-0xa20(%rbp)
   177fd:	48 8d 85 e0 c9 ff ff 	lea    -0x3620(%rbp),%rax
   17804:	48 89 85 e8 f5 ff ff 	mov    %rax,-0xa18(%rbp)
   1780b:	48 c7 85 f0 f5 ff ff 	movq   $0x0,-0xa10(%rbp)
   17812:	00 00 00 00 
   17816:	48 c7 85 f8 f5 ff ff 	movq   $0x0,-0xa08(%rbp)
   1781d:	00 00 00 00 
   17821:	48 8d 85 e0 c9 ff ff 	lea    -0x3620(%rbp),%rax
   17828:	48 89 85 00 f6 ff ff 	mov    %rax,-0xa00(%rbp)
   1782f:	48 c7 85 08 f6 ff ff 	movq   $0x0,-0x9f8(%rbp)
   17836:	00 00 00 00 
   1783a:	48 c7 85 10 f6 ff ff 	movq   $0x0,-0x9f0(%rbp)
   17841:	00 00 00 00 
   17845:	48 8d 85 b8 c9 ff ff 	lea    -0x3648(%rbp),%rax
   1784c:	48 89 85 18 f6 ff ff 	mov    %rax,-0x9e8(%rbp)
   17853:	48 8d 85 e0 c9 ff ff 	lea    -0x3620(%rbp),%rax
   1785a:	48 89 85 20 f6 ff ff 	mov    %rax,-0x9e0(%rbp)
   17861:	48 8d 85 b8 c9 ff ff 	lea    -0x3648(%rbp),%rax
   17868:	48 89 85 28 f6 ff ff 	mov    %rax,-0x9d8(%rbp)
   1786f:	48 8d 85 b8 c9 ff ff 	lea    -0x3648(%rbp),%rax
   17876:	48 89 85 30 f6 ff ff 	mov    %rax,-0x9d0(%rbp)
   1787d:	48 c7 85 38 f6 ff ff 	movq   $0x0,-0x9c8(%rbp)
   17884:	00 00 00 00 
   17888:	48 8d 85 b8 c9 ff ff 	lea    -0x3648(%rbp),%rax
   1788f:	48 89 85 40 f6 ff ff 	mov    %rax,-0x9c0(%rbp)
   17896:	48 c7 85 48 f6 ff ff 	movq   $0x0,-0x9b8(%rbp)
   1789d:	00 00 00 00 
   178a1:	48 c7 85 50 f6 ff ff 	movq   $0x0,-0x9b0(%rbp)
   178a8:	00 00 00 00 
   178ac:	48 8d 85 b8 c9 ff ff 	lea    -0x3648(%rbp),%rax
   178b3:	48 89 85 58 f6 ff ff 	mov    %rax,-0x9a8(%rbp)
   178ba:	48 8d 85 b8 c9 ff ff 	lea    -0x3648(%rbp),%rax
   178c1:	48 89 85 60 f6 ff ff 	mov    %rax,-0x9a0(%rbp)
   178c8:	48 c7 85 68 f6 ff ff 	movq   $0x0,-0x998(%rbp)
   178cf:	00 00 00 00 
   178d3:	48 c7 85 70 f6 ff ff 	movq   $0x0,-0x990(%rbp)
   178da:	00 00 00 00 
   178de:	48 8d 85 e0 c9 ff ff 	lea    -0x3620(%rbp),%rax
   178e5:	48 89 85 78 f6 ff ff 	mov    %rax,-0x988(%rbp)
   178ec:	48 c7 85 80 f6 ff ff 	movq   $0x0,-0x980(%rbp)
   178f3:	00 00 00 00 
   178f7:	48 8d 85 b8 c9 ff ff 	lea    -0x3648(%rbp),%rax
   178fe:	48 89 85 88 f6 ff ff 	mov    %rax,-0x978(%rbp)
   17905:	48 8d 85 b8 c9 ff ff 	lea    -0x3648(%rbp),%rax
   1790c:	48 89 85 90 f6 ff ff 	mov    %rax,-0x970(%rbp)
   17913:	48 c7 85 98 f6 ff ff 	movq   $0x0,-0x968(%rbp)
   1791a:	00 00 00 00 
   1791e:	48 8d 85 e0 c9 ff ff 	lea    -0x3620(%rbp),%rax
   17925:	48 89 85 a0 f6 ff ff 	mov    %rax,-0x960(%rbp)
   1792c:	48 c7 85 a8 f6 ff ff 	movq   $0x0,-0x958(%rbp)
   17933:	00 00 00 00 
   17937:	48 c7 85 b0 f6 ff ff 	movq   $0x0,-0x950(%rbp)
   1793e:	00 00 00 00 
   17942:	48 c7 85 b8 f6 ff ff 	movq   $0x0,-0x948(%rbp)
   17949:	00 00 00 00 
   1794d:	48 c7 85 c0 f6 ff ff 	movq   $0x0,-0x940(%rbp)
   17954:	00 00 00 00 
   17958:	48 8d 85 e0 c9 ff ff 	lea    -0x3620(%rbp),%rax
   1795f:	48 89 85 c8 f6 ff ff 	mov    %rax,-0x938(%rbp)
   17966:	48 c7 85 d0 f6 ff ff 	movq   $0x0,-0x930(%rbp)
   1796d:	00 00 00 00 
   17971:	48 c7 85 d8 f6 ff ff 	movq   $0x0,-0x928(%rbp)
   17978:	00 00 00 00 
   1797c:	48 8d 85 b8 c9 ff ff 	lea    -0x3648(%rbp),%rax
   17983:	48 89 85 e0 f6 ff ff 	mov    %rax,-0x920(%rbp)
   1798a:	48 8d 85 e0 c9 ff ff 	lea    -0x3620(%rbp),%rax
   17991:	48 89 85 e8 f6 ff ff 	mov    %rax,-0x918(%rbp)
   17998:	48 8d 85 b8 c9 ff ff 	lea    -0x3648(%rbp),%rax
   1799f:	48 89 85 f0 f6 ff ff 	mov    %rax,-0x910(%rbp)
   179a6:	48 8d 85 b8 c9 ff ff 	lea    -0x3648(%rbp),%rax
   179ad:	48 89 85 f8 f6 ff ff 	mov    %rax,-0x908(%rbp)
   179b4:	48 8d 85 b8 c9 ff ff 	lea    -0x3648(%rbp),%rax
   179bb:	48 89 85 00 f7 ff ff 	mov    %rax,-0x900(%rbp)
   179c2:	48 c7 85 08 f7 ff ff 	movq   $0x0,-0x8f8(%rbp)
   179c9:	00 00 00 00 
   179cd:	48 8d 85 b8 c9 ff ff 	lea    -0x3648(%rbp),%rax
   179d4:	48 89 85 10 f7 ff ff 	mov    %rax,-0x8f0(%rbp)
   179db:	48 8d 85 b8 c9 ff ff 	lea    -0x3648(%rbp),%rax
   179e2:	48 89 85 18 f7 ff ff 	mov    %rax,-0x8e8(%rbp)
   179e9:	48 8d 85 e0 c9 ff ff 	lea    -0x3620(%rbp),%rax
   179f0:	48 89 85 20 f7 ff ff 	mov    %rax,-0x8e0(%rbp)
   179f7:	48 8d 85 e0 c9 ff ff 	lea    -0x3620(%rbp),%rax
   179fe:	48 89 85 28 f7 ff ff 	mov    %rax,-0x8d8(%rbp)
   17a05:	48 8d 85 b8 c9 ff ff 	lea    -0x3648(%rbp),%rax
   17a0c:	48 89 85 30 f7 ff ff 	mov    %rax,-0x8d0(%rbp)
   17a13:	48 8d 85 e0 c9 ff ff 	lea    -0x3620(%rbp),%rax
   17a1a:	48 89 85 38 f7 ff ff 	mov    %rax,-0x8c8(%rbp)
   17a21:	48 8d 85 b8 c9 ff ff 	lea    -0x3648(%rbp),%rax
   17a28:	48 89 85 40 f7 ff ff 	mov    %rax,-0x8c0(%rbp)
   17a2f:	48 8d 85 e0 c9 ff ff 	lea    -0x3620(%rbp),%rax
   17a36:	48 89 85 48 f7 ff ff 	mov    %rax,-0x8b8(%rbp)
   17a3d:	48 8d 85 b8 c9 ff ff 	lea    -0x3648(%rbp),%rax
   17a44:	48 89 85 50 f7 ff ff 	mov    %rax,-0x8b0(%rbp)
   17a4b:	48 c7 85 58 f7 ff ff 	movq   $0x0,-0x8a8(%rbp)
   17a52:	00 00 00 00 
   17a56:	48 c7 85 60 f7 ff ff 	movq   $0x0,-0x8a0(%rbp)
   17a5d:	00 00 00 00 
   17a61:	48 8d 85 b8 c9 ff ff 	lea    -0x3648(%rbp),%rax
   17a68:	48 89 85 68 f7 ff ff 	mov    %rax,-0x898(%rbp)
   17a6f:	48 8d 85 e0 c9 ff ff 	lea    -0x3620(%rbp),%rax
   17a76:	48 89 85 70 f7 ff ff 	mov    %rax,-0x890(%rbp)
   17a7d:	48 c7 85 78 f7 ff ff 	movq   $0x0,-0x888(%rbp)
   17a84:	00 00 00 00 
   17a88:	48 8d 85 e0 c9 ff ff 	lea    -0x3620(%rbp),%rax
   17a8f:	48 89 85 80 f7 ff ff 	mov    %rax,-0x880(%rbp)
   17a96:	48 8d 85 b8 c9 ff ff 	lea    -0x3648(%rbp),%rax
   17a9d:	48 89 85 88 f7 ff ff 	mov    %rax,-0x878(%rbp)
   17aa4:	48 8d 85 e0 c9 ff ff 	lea    -0x3620(%rbp),%rax
   17aab:	48 89 85 90 f7 ff ff 	mov    %rax,-0x870(%rbp)
   17ab2:	48 8d 85 e0 c9 ff ff 	lea    -0x3620(%rbp),%rax
   17ab9:	48 89 85 98 f7 ff ff 	mov    %rax,-0x868(%rbp)
   17ac0:	48 8d 85 b8 c9 ff ff 	lea    -0x3648(%rbp),%rax
   17ac7:	48 89 85 a0 f7 ff ff 	mov    %rax,-0x860(%rbp)
   17ace:	48 8d 85 b8 c9 ff ff 	lea    -0x3648(%rbp),%rax
   17ad5:	48 89 85 a8 f7 ff ff 	mov    %rax,-0x858(%rbp)
   17adc:	48 8d 85 e0 c9 ff ff 	lea    -0x3620(%rbp),%rax
   17ae3:	48 89 85 b0 f7 ff ff 	mov    %rax,-0x850(%rbp)
   17aea:	48 c7 85 b8 f7 ff ff 	movq   $0x0,-0x848(%rbp)
   17af1:	00 00 00 00 
   17af5:	48 c7 85 c0 f7 ff ff 	movq   $0x0,-0x840(%rbp)
   17afc:	00 00 00 00 
   17b00:	48 c7 85 c8 f7 ff ff 	movq   $0x0,-0x838(%rbp)
   17b07:	00 00 00 00 
   17b0b:	48 8d 85 e0 c9 ff ff 	lea    -0x3620(%rbp),%rax
   17b12:	48 89 85 d0 f7 ff ff 	mov    %rax,-0x830(%rbp)
   17b19:	48 8d 85 b8 c9 ff ff 	lea    -0x3648(%rbp),%rax
   17b20:	48 89 85 d8 f7 ff ff 	mov    %rax,-0x828(%rbp)
   17b27:	48 8d 85 e0 c9 ff ff 	lea    -0x3620(%rbp),%rax
   17b2e:	48 89 85 e0 f7 ff ff 	mov    %rax,-0x820(%rbp)
   17b35:	48 c7 85 e8 f7 ff ff 	movq   $0x0,-0x818(%rbp)
   17b3c:	00 00 00 00 
   17b40:	48 8d 85 70 f0 ff ff 	lea    -0xf90(%rbp),%rax
   17b47:	48 05 30 03 00 00    	add    $0x330,%rax
   17b4d:	48 89 85 18 cb ff ff 	mov    %rax,-0x34e8(%rbp)
   17b54:	48 c7 85 20 cb ff ff 	movq   $0x0,-0x34e0(%rbp)
   17b5b:	00 00 00 00 
   17b5f:	48 8d 85 00 c9 ff ff 	lea    -0x3700(%rbp),%rax
   17b66:	48 89 85 28 cb ff ff 	mov    %rax,-0x34d8(%rbp)
   17b6d:	c7 85 08 c9 ff ff 00 	movl   $0x0,-0x36f8(%rbp)
   17b74:	00 00 00 
   17b77:	eb 1e                	jmp    17b97 <func_56+0x85e8>
   17b79:	8b 85 08 c9 ff ff    	mov    -0x36f8(%rbp),%eax
   17b7f:	48 98                	cltq   
   17b81:	48 8d 95 b0 c9 ff ff 	lea    -0x3650(%rbp),%rdx
   17b88:	48 89 94 c5 60 e9 ff 	mov    %rdx,-0x16a0(%rbp,%rax,8)
   17b8f:	ff 
   17b90:	83 85 08 c9 ff ff 01 	addl   $0x1,-0x36f8(%rbp)
   17b97:	83 bd 08 c9 ff ff 05 	cmpl   $0x5,-0x36f8(%rbp)
   17b9e:	7e d9                	jle    17b79 <func_56+0x85ca>
   17ba0:	48 8b 05 01 80 00 00 	mov    0x8001(%rip),%rax        # 1fba8 <g_60>
   17ba7:	0f b7 00             	movzwl (%rax),%eax
   17baa:	0f b7 d8             	movzwl %ax,%ebx
   17bad:	48 8b 05 0c 80 00 00 	mov    0x800c(%rip),%rax        # 1fbc0 <g_143>
   17bb4:	8b 00                	mov    (%rax),%eax
   17bb6:	41 89 c5             	mov    %eax,%r13d
   17bb9:	48 8b 85 78 ca ff ff 	mov    -0x3588(%rbp),%rax
   17bc0:	48 8b 00             	mov    (%rax),%rax
   17bc3:	8b 00                	mov    (%rax),%eax
   17bc5:	44 0f be e0          	movsbl %al,%r12d
   17bc9:	48 8b 85 f8 ca ff ff 	mov    -0x3508(%rbp),%rax
   17bd0:	c7 00 01 00 00 00    	movl   $0x1,(%rax)
   17bd6:	48 8b 05 2b 60 00 00 	mov    0x602b(%rip),%rax        # 1dc08 <l_948.4656+0x5e8>
   17bdd:	48 39 85 00 cb ff ff 	cmp    %rax,-0x3500(%rbp)
   17be4:	0f 95 c0             	setne  %al
   17be7:	0f b6 c0             	movzbl %al,%eax
   17bea:	be 03 00 00 00       	mov    $0x3,%esi
   17bef:	89 c7                	mov    %eax,%edi
   17bf1:	e8 10 12 ff ff       	callq  8e06 <safe_lshift_func_uint16_t_u_u>
   17bf6:	0f b7 d0             	movzwl %ax,%edx
   17bf9:	0f bf 85 f0 c8 ff ff 	movswl -0x3710(%rbp),%eax
   17c00:	39 85 dc c8 ff ff    	cmp    %eax,-0x3724(%rbp)
   17c06:	0f 9f c0             	setg   %al
   17c09:	0f b6 c0             	movzbl %al,%eax
   17c0c:	48 89 d6             	mov    %rdx,%rsi
   17c0f:	48 89 c7             	mov    %rax,%rdi
   17c12:	e8 69 14 ff ff       	callq  9080 <safe_mod_func_uint64_t_u_u>
   17c17:	48 8b 05 8a 85 00 00 	mov    0x858a(%rip),%rax        # 201a8 <g_814>
   17c1e:	48 8b 00             	mov    (%rax),%rax
   17c21:	8b 00                	mov    (%rax),%eax
   17c23:	85 c0                	test   %eax,%eax
   17c25:	0f 94 c0             	sete   %al
   17c28:	0f b6 d0             	movzbl %al,%edx
   17c2b:	0f b7 05 be 93 00 00 	movzwl 0x93be(%rip),%eax        # 20ff0 <g_160>
   17c32:	98                   	cwtl   
   17c33:	39 c2                	cmp    %eax,%edx
   17c35:	0f 9f c0             	setg   %al
   17c38:	0f b6 c0             	movzbl %al,%eax
   17c3b:	44 89 e6             	mov    %r12d,%esi
   17c3e:	89 c7                	mov    %eax,%edi
   17c40:	e8 8f 05 ff ff       	callq  81d4 <safe_add_func_int8_t_s_s>
   17c45:	8b 85 d8 c8 ff ff    	mov    -0x3728(%rbp),%eax
   17c4b:	0f b6 d0             	movzbl %al,%edx
   17c4e:	8b 85 dc c8 ff ff    	mov    -0x3724(%rbp),%eax
   17c54:	0f b6 c0             	movzbl %al,%eax
   17c57:	89 d6                	mov    %edx,%esi
   17c59:	89 c7                	mov    %eax,%edi
   17c5b:	e8 4e 0f ff ff       	callq  8bae <safe_mod_func_uint8_t_u_u>
   17c60:	0f b6 c0             	movzbl %al,%eax
   17c63:	be 00 00 00 00       	mov    $0x0,%esi
   17c68:	89 c7                	mov    %eax,%edi
   17c6a:	e8 86 07 ff ff       	callq  83f5 <safe_mul_func_int16_t_s_s>
   17c6f:	0f bf d0             	movswl %ax,%edx
   17c72:	48 8b 85 c0 ca ff ff 	mov    -0x3540(%rbp),%rax
   17c79:	48 8b 00             	mov    (%rax),%rax
   17c7c:	8b 00                	mov    (%rax),%eax
   17c7e:	39 c2                	cmp    %eax,%edx
   17c80:	0f 9d c0             	setge  %al
   17c83:	0f b6 c0             	movzbl %al,%eax
   17c86:	89 c7                	mov    %eax,%edi
   17c88:	e8 19 12 ff ff       	callq  8ea6 <safe_unary_minus_func_uint32_t_u>
   17c8d:	8b 85 dc c8 ff ff    	mov    -0x3724(%rbp),%eax
   17c93:	0f b6 d0             	movzbl %al,%edx
   17c96:	0f b7 85 f0 c8 ff ff 	movzwl -0x3710(%rbp),%eax
   17c9d:	0f b6 c0             	movzbl %al,%eax
   17ca0:	89 d6                	mov    %edx,%esi
   17ca2:	89 c7                	mov    %eax,%edi
   17ca4:	e8 cf 0e ff ff       	callq  8b78 <safe_sub_func_uint8_t_u_u>
   17ca9:	0f b6 d0             	movzbl %al,%edx
   17cac:	48 8b 85 08 cb ff ff 	mov    -0x34f8(%rbp),%rax
   17cb3:	89 10                	mov    %edx,(%rax)
   17cb5:	48 8b 85 08 cb ff ff 	mov    -0x34f8(%rbp),%rax
   17cbc:	8b 00                	mov    (%rax),%eax
   17cbe:	44 89 ee             	mov    %r13d,%esi
   17cc1:	89 c7                	mov    %eax,%edi
   17cc3:	e8 5d 12 ff ff       	callq  8f25 <safe_div_func_uint32_t_u_u>
   17cc8:	0f be c0             	movsbl %al,%eax
   17ccb:	be 09 00 00 00       	mov    $0x9,%esi
   17cd0:	89 c7                	mov    %eax,%edi
   17cd2:	e8 fd 04 ff ff       	callq  81d4 <safe_add_func_int8_t_s_s>
   17cd7:	0f b6 c0             	movzbl %al,%eax
   17cda:	be 03 00 00 00       	mov    $0x3,%esi
   17cdf:	89 c7                	mov    %eax,%edi
   17ce1:	e8 c8 0e ff ff       	callq  8bae <safe_mod_func_uint8_t_u_u>
   17ce6:	48 8b 85 c0 ca ff ff 	mov    -0x3540(%rbp),%rax
   17ced:	48 8b 00             	mov    (%rax),%rax
   17cf0:	8b 10                	mov    (%rax),%edx
   17cf2:	0f b6 05 7f 66 00 00 	movzbl 0x667f(%rip),%eax        # 1e378 <g_161>
   17cf9:	0f b6 c0             	movzbl %al,%eax
   17cfc:	39 c2                	cmp    %eax,%edx
   17cfe:	74 21                	je     17d21 <func_56+0x8772>
   17d00:	48 8b 05 d1 7e 00 00 	mov    0x7ed1(%rip),%rax        # 1fbd8 <g_186>
   17d07:	48 8b 00             	mov    (%rax),%rax
   17d0a:	0f b6 00             	movzbl (%rax),%eax
   17d0d:	84 c0                	test   %al,%al
   17d0f:	74 10                	je     17d21 <func_56+0x8772>
   17d11:	83 bd dc c8 ff ff 00 	cmpl   $0x0,-0x3724(%rbp)
   17d18:	74 07                	je     17d21 <func_56+0x8772>
   17d1a:	b8 01 00 00 00       	mov    $0x1,%eax
   17d1f:	eb 05                	jmp    17d26 <func_56+0x8777>
   17d21:	b8 00 00 00 00       	mov    $0x0,%eax
   17d26:	0f b7 c0             	movzwl %ax,%eax
   17d29:	89 de                	mov    %ebx,%esi
   17d2b:	89 c7                	mov    %eax,%edi
   17d2d:	e8 0b 10 ff ff       	callq  8d3d <safe_mul_func_uint16_t_u_u>
   17d32:	48 8b 85 b8 ca ff ff 	mov    -0x3548(%rbp),%rax
   17d39:	48 8b 00             	mov    (%rax),%rax
   17d3c:	8b 00                	mov    (%rax),%eax
   17d3e:	09 85 48 c9 ff ff    	or     %eax,-0x36b8(%rbp)
   17d44:	8b 85 48 c9 ff ff    	mov    -0x36b8(%rbp),%eax
   17d4a:	09 85 4c c9 ff ff    	or     %eax,-0x36b4(%rbp)
   17d50:	8b 05 3a 64 00 00    	mov    0x643a(%rip),%eax        # 1e190 <g_75+0x150>
   17d56:	0f b7 d0             	movzwl %ax,%edx
   17d59:	0f b7 05 94 92 00 00 	movzwl 0x9294(%rip),%eax        # 20ff4 <g_206>
   17d60:	66 0d 94 d4          	or     $0xd494,%ax
   17d64:	0f b7 c0             	movzwl %ax,%eax
   17d67:	89 d6                	mov    %edx,%esi
   17d69:	89 c7                	mov    %eax,%edi
   17d6b:	e8 cd 0f ff ff       	callq  8d3d <safe_mul_func_uint16_t_u_u>
   17d70:	0f b7 c0             	movzwl %ax,%eax
   17d73:	39 85 d8 c8 ff ff    	cmp    %eax,-0x3728(%rbp)
   17d79:	48 8b 85 f0 c9 ff ff 	mov    -0x3610(%rbp),%rax
   17d80:	48 8b 00             	mov    (%rax),%rax
   17d83:	8b 18                	mov    (%rax),%ebx
   17d85:	48 8b 85 18 cb ff ff 	mov    -0x34e8(%rbp),%rax
   17d8c:	48 8d 95 e0 c9 ff ff 	lea    -0x3620(%rbp),%rdx
   17d93:	48 89 10             	mov    %rdx,(%rax)
   17d96:	48 8b 85 18 cb ff ff 	mov    -0x34e8(%rbp),%rax
   17d9d:	48 8b 00             	mov    (%rax),%rax
   17da0:	48 89 05 b9 8a 00 00 	mov    %rax,0x8ab9(%rip)        # 20860 <g_967+0x5a0>
   17da7:	48 8b 05 b2 8a 00 00 	mov    0x8ab2(%rip),%rax        # 20860 <g_967+0x5a0>
   17dae:	48 39 85 90 ca ff ff 	cmp    %rax,-0x3570(%rbp)
   17db5:	0f 95 c0             	setne  %al
   17db8:	0f b6 c0             	movzbl %al,%eax
   17dbb:	be 3c 9a 4c 23       	mov    $0x234c9a3c,%esi
   17dc0:	89 c7                	mov    %eax,%edi
   17dc2:	e8 3e 08 ff ff       	callq  8605 <safe_sub_func_int32_t_s_s>
   17dc7:	0f bf d0             	movswl %ax,%edx
   17dca:	48 8b 8d 60 e9 ff ff 	mov    -0x16a0(%rbp),%rcx
   17dd1:	48 8b 85 10 cb ff ff 	mov    -0x34f0(%rbp),%rax
   17dd8:	48 89 08             	mov    %rcx,(%rax)
   17ddb:	48 8b 85 10 cb ff ff 	mov    -0x34f0(%rbp),%rax
   17de2:	48 8b 08             	mov    (%rax),%rcx
   17de5:	48 8d 85 d8 c9 ff ff 	lea    -0x3628(%rbp),%rax
   17dec:	48 39 c1             	cmp    %rax,%rcx
   17def:	0f 95 c0             	setne  %al
   17df2:	0f b6 c0             	movzbl %al,%eax
   17df5:	89 d6                	mov    %edx,%esi
   17df7:	89 c7                	mov    %eax,%edi
   17df9:	e8 f7 05 ff ff       	callq  83f5 <safe_mul_func_int16_t_s_s>
   17dfe:	98                   	cwtl   
   17dff:	39 c3                	cmp    %eax,%ebx
   17e01:	0f 9f c0             	setg   %al
   17e04:	0f b6 d0             	movzbl %al,%edx
   17e07:	0f b7 05 28 62 00 00 	movzwl 0x6228(%rip),%eax        # 1e036 <g_61>
   17e0e:	66 83 f8 01          	cmp    $0x1,%ax
   17e12:	0f 9e c0             	setle  %al
   17e15:	0f b6 c0             	movzbl %al,%eax
   17e18:	39 c2                	cmp    %eax,%edx
   17e1a:	7e 0c                	jle    17e28 <func_56+0x8879>
   17e1c:	48 8b 85 20 cb ff ff 	mov    -0x34e0(%rbp),%rax
   17e23:	e9 d6 00 00 00       	jmpq   17efe <func_56+0x894f>
   17e28:	c7 85 50 c9 ff ff fc 	movl   $0xfffffffc,-0x36b0(%rbp)
   17e2f:	ff ff ff 
   17e32:	c7 85 54 c9 ff ff a0 	movl   $0x454dfda0,-0x36ac(%rbp)
   17e39:	fd 4d 45 
   17e3c:	66 c7 05 f1 61 00 00 	movw   $0x0,0x61f1(%rip)        # 1e036 <g_61>
   17e43:	00 00 
   17e45:	eb 1f                	jmp    17e66 <func_56+0x88b7>
   17e47:	48 8d 85 f8 c8 ff ff 	lea    -0x3708(%rbp),%rax
   17e4e:	48 89 85 30 cb ff ff 	mov    %rax,-0x34d0(%rbp)
   17e55:	0f b7 05 da 61 00 00 	movzwl 0x61da(%rip),%eax        # 1e036 <g_61>
   17e5c:	83 c0 01             	add    $0x1,%eax
   17e5f:	66 89 05 d0 61 00 00 	mov    %ax,0x61d0(%rip)        # 1e036 <g_61>
   17e66:	0f b7 05 c9 61 00 00 	movzwl 0x61c9(%rip),%eax        # 1e036 <g_61>
   17e6d:	66 83 f8 19          	cmp    $0x19,%ax
   17e71:	7e d4                	jle    17e47 <func_56+0x8898>
   17e73:	be 03 00 00 00       	mov    $0x3,%esi
   17e78:	bf 01 00 00 00       	mov    $0x1,%edi
   17e7d:	e8 10 06 ff ff       	callq  8492 <safe_lshift_func_int16_t_s_s>
   17e82:	66 85 c0             	test   %ax,%ax
   17e85:	74 2e                	je     17eb5 <func_56+0x8906>
   17e87:	8b 85 dc c8 ff ff    	mov    -0x3724(%rbp),%eax
   17e8d:	0f b6 c0             	movzbl %al,%eax
   17e90:	be ff 00 00 00       	mov    $0xff,%esi
   17e95:	89 c7                	mov    %eax,%edi
   17e97:	e8 3f 0d ff ff       	callq  8bdb <safe_div_func_uint8_t_u_u>
   17e9c:	0f b6 c0             	movzbl %al,%eax
   17e9f:	89 85 54 c9 ff ff    	mov    %eax,-0x36ac(%rbp)
   17ea5:	83 bd 54 c9 ff ff 00 	cmpl   $0x0,-0x36ac(%rbp)
   17eac:	74 07                	je     17eb5 <func_56+0x8906>
   17eae:	b8 01 00 00 00       	mov    $0x1,%eax
   17eb3:	eb 05                	jmp    17eba <func_56+0x890b>
   17eb5:	b8 00 00 00 00       	mov    $0x0,%eax
   17eba:	3b 85 dc c8 ff ff    	cmp    -0x3724(%rbp),%eax
   17ec0:	0f 9f c0             	setg   %al
   17ec3:	0f b6 d0             	movzbl %al,%edx
   17ec6:	48 8b 85 28 cb ff ff 	mov    -0x34d8(%rbp),%rax
   17ecd:	8b 00                	mov    (%rax),%eax
   17ecf:	09 c2                	or     %eax,%edx
   17ed1:	48 8b 85 28 cb ff ff 	mov    -0x34d8(%rbp),%rax
   17ed8:	89 10                	mov    %edx,(%rax)
   17eda:	48 8b 85 c0 ca ff ff 	mov    -0x3540(%rbp),%rax
   17ee1:	48 c7 00 00 00 00 00 	movq   $0x0,(%rax)
   17ee8:	48 8b 05 f9 7c 00 00 	mov    0x7cf9(%rip),%rax        # 1fbe8 <g_208>
   17eef:	48 8b 00             	mov    (%rax),%rax
   17ef2:	48 8b 00             	mov    (%rax),%rax
   17ef5:	eb 07                	jmp    17efe <func_56+0x894f>
   17ef7:	48 8b 85 a0 ca ff ff 	mov    -0x3560(%rbp),%rax
   17efe:	48 8b 5d d8          	mov    -0x28(%rbp),%rbx
   17f02:	64 48 33 1c 25 28 00 	xor    %fs:0x28,%rbx
   17f09:	00 00 
   17f0b:	74 05                	je     17f12 <func_56+0x8963>
   17f0d:	e8 5e 01 ff ff       	callq  8070 <__stack_chk_fail@plt>
   17f12:	48 81 c4 10 37 00 00 	add    $0x3710,%rsp
   17f19:	5b                   	pop    %rbx
   17f1a:	41 5c                	pop    %r12
   17f1c:	41 5d                	pop    %r13
   17f1e:	41 5e                	pop    %r14
   17f20:	5d                   	pop    %rbp
   17f21:	c3                   	retq   

0000000000017f22 <func_68>:
   17f22:	f3 0f 1e fa          	endbr64 
   17f26:	55                   	push   %rbp
   17f27:	48 89 e5             	mov    %rsp,%rbp
   17f2a:	41 55                	push   %r13
   17f2c:	41 54                	push   %r12
   17f2e:	53                   	push   %rbx
   17f2f:	48 81 ec d8 02 00 00 	sub    $0x2d8,%rsp
   17f36:	89 bd 2c fd ff ff    	mov    %edi,-0x2d4(%rbp)
   17f3c:	48 89 b5 20 fd ff ff 	mov    %rsi,-0x2e0(%rbp)
   17f43:	48 89 95 18 fd ff ff 	mov    %rdx,-0x2e8(%rbp)
   17f4a:	48 89 8d 10 fd ff ff 	mov    %rcx,-0x2f0(%rbp)
   17f51:	44 89 c0             	mov    %r8d,%eax
   17f54:	88 85 28 fd ff ff    	mov    %al,-0x2d8(%rbp)
   17f5a:	64 48 8b 04 25 28 00 	mov    %fs:0x28,%rax
   17f61:	00 00 
   17f63:	48 89 45 d8          	mov    %rax,-0x28(%rbp)
   17f67:	31 c0                	xor    %eax,%eax
   17f69:	c6 85 39 fd ff ff 90 	movb   $0x90,-0x2c7(%rbp)
   17f70:	c7 85 40 fd ff ff f8 	movl   $0xfffffff8,-0x2c0(%rbp)
   17f77:	ff ff ff 
   17f7a:	48 8d 85 b0 fe ff ff 	lea    -0x150(%rbp),%rax
   17f81:	48 8d 15 78 73 00 00 	lea    0x7378(%rip),%rdx        # 1f300 <g_2388+0xe6c>
   17f88:	b9 24 00 00 00       	mov    $0x24,%ecx
   17f8d:	48 89 c7             	mov    %rax,%rdi
   17f90:	48 89 d6             	mov    %rdx,%rsi
   17f93:	f3 48 a5             	rep movsq %ds:(%rsi),%es:(%rdi)
   17f96:	48 8d 05 cf 62 00 00 	lea    0x62cf(%rip),%rax        # 1e26c <g_75+0x22c>
   17f9d:	48 89 85 88 fd ff ff 	mov    %rax,-0x278(%rbp)
   17fa4:	c7 85 44 fd ff ff e4 	movl   $0xc26546e4,-0x2bc(%rbp)
   17fab:	46 65 c2 
   17fae:	48 b8 7e e0 e2 3a 53 	movabs $0xc45aa4533ae2e07e,%rax
   17fb5:	a4 5a c4 
   17fb8:	48 89 85 90 fd ff ff 	mov    %rax,-0x270(%rbp)
   17fbf:	c7 85 48 fd ff ff 4c 	movl   $0xade9764c,-0x2b8(%rbp)
   17fc6:	76 e9 ad 
   17fc9:	c7 85 4c fd ff ff ac 	movl   $0xe1cd5eac,-0x2b4(%rbp)
   17fd0:	5e cd e1 
   17fd3:	48 8d 05 9e 63 00 00 	lea    0x639e(%rip),%rax        # 1e378 <g_161>
   17fda:	48 89 85 60 fd ff ff 	mov    %rax,-0x2a0(%rbp)
   17fe1:	48 8d 85 60 fd ff ff 	lea    -0x2a0(%rbp),%rax
   17fe8:	48 89 85 98 fd ff ff 	mov    %rax,-0x268(%rbp)
   17fef:	48 8d 85 39 fd ff ff 	lea    -0x2c7(%rbp),%rax
   17ff6:	48 89 85 68 fd ff ff 	mov    %rax,-0x298(%rbp)
   17ffd:	48 8d 85 68 fd ff ff 	lea    -0x298(%rbp),%rax
   18004:	48 89 85 30 fe ff ff 	mov    %rax,-0x1d0(%rbp)
   1800b:	48 8d 85 68 fd ff ff 	lea    -0x298(%rbp),%rax
   18012:	48 89 85 38 fe ff ff 	mov    %rax,-0x1c8(%rbp)
   18019:	48 8d 85 68 fd ff ff 	lea    -0x298(%rbp),%rax
   18020:	48 89 85 40 fe ff ff 	mov    %rax,-0x1c0(%rbp)
   18027:	48 8d 85 68 fd ff ff 	lea    -0x298(%rbp),%rax
   1802e:	48 89 85 48 fe ff ff 	mov    %rax,-0x1b8(%rbp)
   18035:	48 8d 85 68 fd ff ff 	lea    -0x298(%rbp),%rax
   1803c:	48 89 85 50 fe ff ff 	mov    %rax,-0x1b0(%rbp)
   18043:	48 8d 85 68 fd ff ff 	lea    -0x298(%rbp),%rax
   1804a:	48 89 85 58 fe ff ff 	mov    %rax,-0x1a8(%rbp)
   18051:	48 8d 85 68 fd ff ff 	lea    -0x298(%rbp),%rax
   18058:	48 89 85 60 fe ff ff 	mov    %rax,-0x1a0(%rbp)
   1805f:	c7 85 50 fd ff ff ce 	movl   $0x5dc9e6ce,-0x2b0(%rbp)
   18066:	e6 c9 5d 
   18069:	c7 85 10 fe ff ff fe 	movl   $0xfffffffe,-0x1f0(%rbp)
   18070:	ff ff ff 
   18073:	c7 85 14 fe ff ff fe 	movl   $0xfffffffe,-0x1ec(%rbp)
   1807a:	ff ff ff 
   1807d:	c7 85 18 fe ff ff fe 	movl   $0xfffffffe,-0x1e8(%rbp)
   18084:	ff ff ff 
   18087:	c7 85 1c fe ff ff fe 	movl   $0xfffffffe,-0x1e4(%rbp)
   1808e:	ff ff ff 
   18091:	c7 85 20 fe ff ff fe 	movl   $0xfffffffe,-0x1e0(%rbp)
   18098:	ff ff ff 
   1809b:	c7 85 24 fe ff ff fe 	movl   $0xfffffffe,-0x1dc(%rbp)
   180a2:	ff ff ff 
   180a5:	c7 85 28 fe ff ff fe 	movl   $0xfffffffe,-0x1d8(%rbp)
   180ac:	ff ff ff 
   180af:	48 8d 05 2a 7b 00 00 	lea    0x7b2a(%rip),%rax        # 1fbe0 <g_209>
   180b6:	48 89 85 a0 fd ff ff 	mov    %rax,-0x260(%rbp)
   180bd:	48 8d 05 c4 62 00 00 	lea    0x62c4(%rip),%rax        # 1e388 <g_182>
   180c4:	48 89 85 70 fd ff ff 	mov    %rax,-0x290(%rbp)
   180cb:	48 8d 85 70 fd ff ff 	lea    -0x290(%rbp),%rax
   180d2:	48 89 85 a8 fd ff ff 	mov    %rax,-0x258(%rbp)
   180d9:	66 c7 05 54 5f 00 00 	movw   $0xfffa,0x5f54(%rip)        # 1e036 <g_61>
   180e0:	fa ff 
   180e2:	90                   	nop
   180e3:	0f b7 05 4c 5f 00 00 	movzwl 0x5f4c(%rip),%eax        # 1e036 <g_61>
   180ea:	66 83 f8 19          	cmp    $0x19,%ax
   180ee:	0f 8e fa 01 00 00    	jle    182ee <func_68+0x3cc>
   180f4:	48 8d 05 e9 61 00 00 	lea    0x61e9(%rip),%rax        # 1e2e4 <g_96+0x4>
   180fb:	48 89 85 f8 fd ff ff 	mov    %rax,-0x208(%rbp)
   18102:	48 c7 85 80 fd ff ff 	movq   $0x0,-0x280(%rbp)
   18109:	00 00 00 00 
   1810d:	48 8d 85 80 fd ff ff 	lea    -0x280(%rbp),%rax
   18114:	48 89 85 00 fe ff ff 	mov    %rax,-0x200(%rbp)
   1811b:	66 c7 05 a4 61 00 00 	movw   $0x0,0x61a4(%rip)        # 1e2c8 <g_93>
   18122:	00 00 
   18124:	e9 a5 01 00 00       	jmpq   182ce <func_68+0x3ac>
   18129:	66 c7 85 3e fd ff ff 	movw   $0x4,-0x2c2(%rbp)
   18130:	04 00 
   18132:	48 8d 05 37 62 00 00 	lea    0x6237(%rip),%rax        # 1e370 <g_130>
   18139:	48 89 85 08 fe ff ff 	mov    %rax,-0x1f8(%rbp)
   18140:	8b 85 2c fd ff ff    	mov    -0x2d4(%rbp),%eax
   18146:	0f b7 d8             	movzwl %ax,%ebx
   18149:	0f b7 85 3e fd ff ff 	movzwl -0x2c2(%rbp),%eax
   18150:	44 0f b7 e0          	movzwl %ax,%r12d
   18154:	8b 85 2c fd ff ff    	mov    -0x2d4(%rbp),%eax
   1815a:	44 0f b7 e8          	movzwl %ax,%r13d
   1815e:	81 a5 40 fd ff ff 77 	andl   $0xf577,-0x2c0(%rbp)
   18165:	f5 00 00 
   18168:	8b 85 40 fd ff ff    	mov    -0x2c0(%rbp),%eax
   1816e:	98                   	cwtl   
   1816f:	be 0f 00 00 00       	mov    $0xf,%esi
   18174:	89 c7                	mov    %eax,%edi
   18176:	e8 17 03 ff ff       	callq  8492 <safe_lshift_func_int16_t_s_s>
   1817b:	0f bf d0             	movswl %ax,%edx
   1817e:	0f b7 05 b1 5e 00 00 	movzwl 0x5eb1(%rip),%eax        # 1e036 <g_61>
   18185:	0f b6 c0             	movzbl %al,%eax
   18188:	89 d6                	mov    %edx,%esi
   1818a:	89 c7                	mov    %eax,%edi
   1818c:	e8 fc 0a ff ff       	callq  8c8d <safe_rshift_func_uint8_t_u_s>
   18191:	44 89 ee             	mov    %r13d,%esi
   18194:	bf 00 00 00 00       	mov    $0x0,%edi
   18199:	e8 9f 0b ff ff       	callq  8d3d <safe_mul_func_uint16_t_u_u>
   1819e:	0f b7 05 91 5e 00 00 	movzwl 0x5e91(%rip),%eax        # 1e036 <g_61>
   181a5:	0f b7 c0             	movzwl %ax,%eax
   181a8:	44 89 e6             	mov    %r12d,%esi
   181ab:	89 c7                	mov    %eax,%edi
   181ad:	e8 4d 0b ff ff       	callq  8cff <safe_add_func_uint16_t_u_u>
   181b2:	0f be c0             	movsbl %al,%eax
   181b5:	be 01 00 00 00       	mov    $0x1,%esi
   181ba:	89 c7                	mov    %eax,%edi
   181bc:	e8 31 00 ff ff       	callq  81f2 <safe_sub_func_int8_t_s_s>
   181c1:	0f be d0             	movsbl %al,%edx
   181c4:	48 8b 85 10 fd ff ff 	mov    -0x2f0(%rbp),%rax
   181cb:	8b 00                	mov    (%rax),%eax
   181cd:	39 c2                	cmp    %eax,%edx
   181cf:	0f 9e c0             	setle  %al
   181d2:	0f b6 c0             	movzbl %al,%eax
   181d5:	89 c7                	mov    %eax,%edi
   181d7:	e8 0d 0b ff ff       	callq  8ce9 <safe_unary_minus_func_uint16_t_u>
   181dc:	0f b7 d0             	movzwl %ax,%edx
   181df:	48 8b 85 f8 fd ff ff 	mov    -0x208(%rbp),%rax
   181e6:	8b 00                	mov    (%rax),%eax
   181e8:	39 c2                	cmp    %eax,%edx
   181ea:	0f 95 c0             	setne  %al
   181ed:	0f b6 c0             	movzbl %al,%eax
   181f0:	89 de                	mov    %ebx,%esi
   181f2:	89 c7                	mov    %eax,%edi
   181f4:	e8 95 0b ff ff       	callq  8d8e <safe_div_func_uint16_t_u_u>
   181f9:	0f be d0             	movsbl %al,%edx
   181fc:	0f bf 8d 3e fd ff ff 	movswl -0x2c2(%rbp),%ecx
   18203:	48 83 bd f8 fd ff ff 	cmpq   $0x0,-0x208(%rbp)
   1820a:	00 
   1820b:	0f 95 c0             	setne  %al
   1820e:	0f b6 c0             	movzbl %al,%eax
   18211:	39 c1                	cmp    %eax,%ecx
   18213:	0f 95 c0             	setne  %al
   18216:	0f b6 c0             	movzbl %al,%eax
   18219:	89 d6                	mov    %edx,%esi
   1821b:	89 c7                	mov    %eax,%edi
   1821d:	e8 48 00 ff ff       	callq  826a <safe_div_func_int8_t_s_s>
   18222:	48 0f be d0          	movsbq %al,%rdx
   18226:	48 8b 85 08 fe ff ff 	mov    -0x1f8(%rbp),%rax
   1822d:	48 89 10             	mov    %rdx,(%rax)
   18230:	48 8b 85 08 fe ff ff 	mov    -0x1f8(%rbp),%rax
   18237:	48 8b 00             	mov    (%rax),%rax
   1823a:	48 85 c0             	test   %rax,%rax
   1823d:	0f 94 c0             	sete   %al
   18240:	0f b6 d0             	movzbl %al,%edx
   18243:	0f b6 85 28 fd ff ff 	movzbl -0x2d8(%rbp),%eax
   1824a:	39 c2                	cmp    %eax,%edx
   1824c:	7d 07                	jge    18255 <func_68+0x333>
   1824e:	b8 01 00 00 00       	mov    $0x1,%eax
   18253:	eb 05                	jmp    1825a <func_68+0x338>
   18255:	b8 00 00 00 00       	mov    $0x0,%eax
   1825a:	0f bf d0             	movswl %ax,%edx
   1825d:	0f b6 85 39 fd ff ff 	movzbl -0x2c7(%rbp),%eax
   18264:	83 f0 01             	xor    $0x1,%eax
   18267:	88 85 39 fd ff ff    	mov    %al,-0x2c7(%rbp)
   1826d:	0f b6 85 39 fd ff ff 	movzbl -0x2c7(%rbp),%eax
   18274:	0f be c0             	movsbl %al,%eax
   18277:	89 d6                	mov    %edx,%esi
   18279:	89 c7                	mov    %eax,%edi
   1827b:	e8 33 01 ff ff       	callq  83b3 <safe_add_func_int16_t_s_s>
   18280:	48 8b 05 21 79 00 00 	mov    0x7921(%rip),%rax        # 1fba8 <g_60>
   18287:	0f b7 00             	movzwl (%rax),%eax
   1828a:	66 83 f8 05          	cmp    $0x5,%ax
   1828e:	74 07                	je     18297 <func_68+0x375>
   18290:	ba 01 00 00 00       	mov    $0x1,%edx
   18295:	eb 05                	jmp    1829c <func_68+0x37a>
   18297:	ba 00 00 00 00       	mov    $0x0,%edx
   1829c:	48 8b 85 18 fd ff ff 	mov    -0x2e8(%rbp),%rax
   182a3:	89 10                	mov    %edx,(%rax)
   182a5:	83 bd 40 fd ff ff 00 	cmpl   $0x0,-0x2c0(%rbp)
   182ac:	75 33                	jne    182e1 <func_68+0x3bf>
   182ae:	0f b7 05 13 60 00 00 	movzwl 0x6013(%rip),%eax        # 1e2c8 <g_93>
   182b5:	0f b6 c0             	movzbl %al,%eax
   182b8:	be 08 00 00 00       	mov    $0x8,%esi
   182bd:	89 c7                	mov    %eax,%edi
   182bf:	e8 b4 08 ff ff       	callq  8b78 <safe_sub_func_uint8_t_u_u>
   182c4:	0f b6 c0             	movzbl %al,%eax
   182c7:	66 89 05 fa 5f 00 00 	mov    %ax,0x5ffa(%rip)        # 1e2c8 <g_93>
   182ce:	0f b7 05 f3 5f 00 00 	movzwl 0x5ff3(%rip),%eax        # 1e2c8 <g_93>
   182d5:	66 83 f8 f0          	cmp    $0xfff0,%ax
   182d9:	0f 85 4a fe ff ff    	jne    18129 <func_68+0x207>
   182df:	eb 01                	jmp    182e2 <func_68+0x3c0>
   182e1:	90                   	nop
   182e2:	48 8b 05 cf 78 00 00 	mov    0x78cf(%rip),%rax        # 1fbb8 <g_133>
   182e9:	e9 66 01 00 00       	jmpq   18454 <func_68+0x532>
   182ee:	c7 85 40 fd ff ff 01 	movl   $0x1,-0x2c0(%rbp)
   182f5:	00 00 00 
   182f8:	e9 24 01 00 00       	jmpq   18421 <func_68+0x4ff>
   182fd:	c6 85 3a fd ff ff 5a 	movb   $0x5a,-0x2c6(%rbp)
   18304:	48 8d 05 65 60 00 00 	lea    0x6065(%rip),%rax        # 1e370 <g_130>
   1830b:	48 89 85 b0 fd ff ff 	mov    %rax,-0x250(%rbp)
   18312:	c6 85 3b fd ff ff 5b 	movb   $0x5b,-0x2c5(%rbp)
   18319:	48 c7 85 b8 fd ff ff 	movq   $0x0,-0x248(%rbp)
   18320:	00 00 00 00 
   18324:	48 8d 05 85 78 00 00 	lea    0x7885(%rip),%rax        # 1fbb0 <g_134>
   1832b:	48 89 85 c0 fd ff ff 	mov    %rax,-0x240(%rbp)
   18332:	c7 85 54 fd ff ff 0c 	movl   $0x5fc7a70c,-0x2ac(%rbp)
   18339:	a7 c7 5f 
   1833c:	c6 85 3c fd ff ff 09 	movb   $0x9,-0x2c4(%rbp)
   18343:	c7 85 58 fd ff ff 01 	movl   $0x1,-0x2a8(%rbp)
   1834a:	00 00 00 
   1834d:	c7 85 5c fd ff ff 01 	movl   $0x1,-0x2a4(%rbp)
   18354:	00 00 00 
   18357:	48 8d 05 52 78 00 00 	lea    0x7852(%rip),%rax        # 1fbb0 <g_134>
   1835e:	48 89 85 78 fd ff ff 	mov    %rax,-0x288(%rbp)
   18365:	48 8d 85 78 fd ff ff 	lea    -0x288(%rbp),%rax
   1836c:	48 89 85 c8 fd ff ff 	mov    %rax,-0x238(%rbp)
   18373:	48 c7 85 d0 fd ff ff 	movq   $0x0,-0x230(%rbp)
   1837a:	00 00 00 00 
   1837e:	48 b8 5e 8d 42 8d 40 	movabs $0x526121408d428d5e,%rax
   18385:	21 61 52 
   18388:	48 89 85 70 fe ff ff 	mov    %rax,-0x190(%rbp)
   1838f:	48 c7 85 78 fe ff ff 	movq   $0xfffffffffffffffa,-0x188(%rbp)
   18396:	fa ff ff ff 
   1839a:	48 89 85 80 fe ff ff 	mov    %rax,-0x180(%rbp)
   183a1:	48 c7 85 88 fe ff ff 	movq   $0xfffffffffffffffa,-0x178(%rbp)
   183a8:	fa ff ff ff 
   183ac:	48 89 85 90 fe ff ff 	mov    %rax,-0x170(%rbp)
   183b3:	48 c7 85 98 fe ff ff 	movq   $0xfffffffffffffffa,-0x168(%rbp)
   183ba:	fa ff ff ff 
   183be:	48 89 85 a0 fe ff ff 	mov    %rax,-0x160(%rbp)
   183c5:	48 c7 85 a8 fe ff ff 	movq   $0xfffffffffffffffa,-0x158(%rbp)
   183cc:	fa ff ff ff 
   183d0:	48 8d 05 21 8c 00 00 	lea    0x8c21(%rip),%rax        # 20ff8 <g_421>
   183d7:	48 89 85 d8 fd ff ff 	mov    %rax,-0x228(%rbp)
   183de:	48 8d 05 0f 8c 00 00 	lea    0x8c0f(%rip),%rax        # 20ff4 <g_206>
   183e5:	48 89 85 e0 fd ff ff 	mov    %rax,-0x220(%rbp)
   183ec:	c6 85 3d fd ff ff 04 	movb   $0x4,-0x2c3(%rbp)
   183f3:	48 8d 85 70 fd ff ff 	lea    -0x290(%rbp),%rax
   183fa:	48 89 85 e8 fd ff ff 	mov    %rax,-0x218(%rbp)
   18401:	48 c7 85 80 fd ff ff 	movq   $0x0,-0x280(%rbp)
   18408:	00 00 00 00 
   1840c:	48 8d 85 80 fd ff ff 	lea    -0x280(%rbp),%rax
   18413:	48 89 85 f0 fd ff ff 	mov    %rax,-0x210(%rbp)
   1841a:	83 ad 40 fd ff ff 01 	subl   $0x1,-0x2c0(%rbp)
   18421:	83 bd 40 fd ff ff 00 	cmpl   $0x0,-0x2c0(%rbp)
   18428:	0f 89 cf fe ff ff    	jns    182fd <func_68+0x3db>
   1842e:	48 8b 85 10 fd ff ff 	mov    -0x2f0(%rbp),%rax
   18435:	8b 00                	mov    (%rax),%eax
   18437:	25 66 fb 66 30       	and    $0x3066fb66,%eax
   1843c:	89 c2                	mov    %eax,%edx
   1843e:	48 8b 85 10 fd ff ff 	mov    -0x2f0(%rbp),%rax
   18445:	89 10                	mov    %edx,(%rax)
   18447:	48 8b 05 9a 77 00 00 	mov    0x779a(%rip),%rax        # 1fbe8 <g_208>
   1844e:	48 8b 00             	mov    (%rax),%rax
   18451:	48 8b 00             	mov    (%rax),%rax
   18454:	48 8b 5d d8          	mov    -0x28(%rbp),%rbx
   18458:	64 48 33 1c 25 28 00 	xor    %fs:0x28,%rbx
   1845f:	00 00 
   18461:	74 05                	je     18468 <func_68+0x546>
   18463:	e8 08 fc fe ff       	callq  8070 <__stack_chk_fail@plt>
   18468:	48 81 c4 d8 02 00 00 	add    $0x2d8,%rsp
   1846f:	5b                   	pop    %rbx
   18470:	41 5c                	pop    %r12
   18472:	41 5d                	pop    %r13
   18474:	5d                   	pop    %rbp
   18475:	c3                   	retq   

0000000000018476 <func_76>:
   18476:	f3 0f 1e fa          	endbr64 
   1847a:	55                   	push   %rbp
   1847b:	48 89 e5             	mov    %rsp,%rbp
   1847e:	48 81 ec c0 07 00 00 	sub    $0x7c0,%rsp
   18485:	48 89 bd 48 f8 ff ff 	mov    %rdi,-0x7b8(%rbp)
   1848c:	48 89 b5 40 f8 ff ff 	mov    %rsi,-0x7c0(%rbp)
   18493:	64 48 8b 04 25 28 00 	mov    %fs:0x28,%rax
   1849a:	00 00 
   1849c:	48 89 45 f8          	mov    %rax,-0x8(%rbp)
   184a0:	31 c0                	xor    %eax,%eax
   184a2:	48 8d 05 c3 5e 00 00 	lea    0x5ec3(%rip),%rax        # 1e36c <g_96+0x8c>
   184a9:	48 89 85 60 f8 ff ff 	mov    %rax,-0x7a0(%rbp)
   184b0:	48 c7 85 68 f8 ff ff 	movq   $0x0,-0x798(%rbp)
   184b7:	00 00 00 00 
   184bb:	48 8d 85 70 f8 ff ff 	lea    -0x790(%rbp),%rax
   184c2:	48 8d 15 57 6f 00 00 	lea    0x6f57(%rip),%rdx        # 1f420 <g_2388+0xf8c>
   184c9:	b9 f0 00 00 00       	mov    $0xf0,%ecx
   184ce:	48 89 c7             	mov    %rax,%rdi
   184d1:	48 89 d6             	mov    %rdx,%rsi
   184d4:	f3 48 a5             	rep movsq %ds:(%rsi),%es:(%rdi)
   184d7:	c7 85 5c f8 ff ff fc 	movl   $0xfffffffc,-0x7a4(%rbp)
   184de:	ff ff ff 
   184e1:	c6 85 5b f8 ff ff 81 	movb   $0x81,-0x7a5(%rbp)
   184e8:	0f b6 85 5b f8 ff ff 	movzbl -0x7a5(%rbp),%eax
   184ef:	83 c0 01             	add    $0x1,%eax
   184f2:	88 85 5b f8 ff ff    	mov    %al,-0x7a5(%rbp)
   184f8:	48 8d 05 6d 5e 00 00 	lea    0x5e6d(%rip),%rax        # 1e36c <g_96+0x8c>
   184ff:	48 8b 55 f8          	mov    -0x8(%rbp),%rdx
   18503:	64 48 33 14 25 28 00 	xor    %fs:0x28,%rdx
   1850a:	00 00 
   1850c:	74 05                	je     18513 <func_76+0x9d>
   1850e:	e8 5d fb fe ff       	callq  8070 <__stack_chk_fail@plt>
   18513:	c9                   	leaveq 
   18514:	c3                   	retq   

0000000000018515 <main>:
   18515:	f3 0f 1e fa          	endbr64 
   18519:	55                   	push   %rbp
   1851a:	48 89 e5             	mov    %rsp,%rbp
   1851d:	48 83 ec 20          	sub    $0x20,%rsp
   18521:	89 7d ec             	mov    %edi,-0x14(%rbp)
   18524:	48 89 75 e0          	mov    %rsi,-0x20(%rbp)
   18528:	c7 45 fc 00 00 00 00 	movl   $0x0,-0x4(%rbp)
   1852f:	83 7d ec 02          	cmpl   $0x2,-0x14(%rbp)
   18533:	74 25                	je     1855a <main+0x45>
   18535:	48 8b 45 e0          	mov    -0x20(%rbp),%rax
   18539:	48 83 c0 08          	add    $0x8,%rax
   1853d:	48 8b 00             	mov    (%rax),%rax
   18540:	48 8d 35 01 22 00 00 	lea    0x2201(%rip),%rsi        # 1a748 <g_314+0x16a2>
   18547:	48 89 c7             	mov    %rax,%rdi
   1854a:	e8 41 fb fe ff       	callq  8090 <strcmp@plt>
   1854f:	85 c0                	test   %eax,%eax
   18551:	74 07                	je     1855a <main+0x45>
   18553:	c7 45 fc 01 00 00 00 	movl   $0x1,-0x4(%rbp)
   1855a:	e8 2a fc fe ff       	callq  8189 <platform_main_begin>
   1855f:	e8 34 10 ff ff       	callq  9598 <crc32_gentab>
   18564:	e8 4c 12 ff ff       	callq  97b5 <func_1>
   18569:	8b 05 b5 5a 00 00    	mov    0x5ab5(%rip),%eax        # 1e024 <g_2>
   1856f:	48 98                	cltq   
   18571:	8b 55 fc             	mov    -0x4(%rbp),%edx
   18574:	48 8d 35 cf 21 00 00 	lea    0x21cf(%rip),%rsi        # 1a74a <g_314+0x16a4>
   1857b:	48 89 c7             	mov    %rax,%rdi
   1857e:	e8 70 11 ff ff       	callq  96f3 <transparent_crc>
   18583:	8b 05 9f 5a 00 00    	mov    0x5a9f(%rip),%eax        # 1e028 <g_3>
   18589:	48 98                	cltq   
   1858b:	8b 55 fc             	mov    -0x4(%rbp),%edx
   1858e:	48 8d 35 b9 21 00 00 	lea    0x21b9(%rip),%rsi        # 1a74e <g_314+0x16a8>
   18595:	48 89 c7             	mov    %rax,%rdi
   18598:	e8 56 11 ff ff       	callq  96f3 <transparent_crc>
   1859d:	8b 05 89 5a 00 00    	mov    0x5a89(%rip),%eax        # 1e02c <g_4>
   185a3:	48 98                	cltq   
   185a5:	8b 55 fc             	mov    -0x4(%rbp),%edx
   185a8:	48 8d 35 a3 21 00 00 	lea    0x21a3(%rip),%rsi        # 1a752 <g_314+0x16ac>
   185af:	48 89 c7             	mov    %rax,%rdi
   185b2:	e8 3c 11 ff ff       	callq  96f3 <transparent_crc>
   185b7:	8b 05 73 5a 00 00    	mov    0x5a73(%rip),%eax        # 1e030 <g_9>
   185bd:	48 98                	cltq   
   185bf:	8b 55 fc             	mov    -0x4(%rbp),%edx
   185c2:	48 8d 35 8d 21 00 00 	lea    0x218d(%rip),%rsi        # 1a756 <g_314+0x16b0>
   185c9:	48 89 c7             	mov    %rax,%rdi
   185cc:	e8 22 11 ff ff       	callq  96f3 <transparent_crc>
   185d1:	b8 fb ff ff ff       	mov    $0xfffffffb,%eax
   185d6:	48 98                	cltq   
   185d8:	8b 55 fc             	mov    -0x4(%rbp),%edx
   185db:	48 8d 35 78 21 00 00 	lea    0x2178(%rip),%rsi        # 1a75a <g_314+0x16b4>
   185e2:	48 89 c7             	mov    %rax,%rdi
   185e5:	e8 09 11 ff ff       	callq  96f3 <transparent_crc>
   185ea:	0f b7 05 43 5a 00 00 	movzwl 0x5a43(%rip),%eax        # 1e034 <g_31>
   185f1:	48 0f bf c0          	movswq %ax,%rax
   185f5:	8b 55 fc             	mov    -0x4(%rbp),%edx
   185f8:	48 8d 35 60 21 00 00 	lea    0x2160(%rip),%rsi        # 1a75f <g_314+0x16b9>
   185ff:	48 89 c7             	mov    %rax,%rdi
   18602:	e8 ec 10 ff ff       	callq  96f3 <transparent_crc>
   18607:	0f b7 05 28 5a 00 00 	movzwl 0x5a28(%rip),%eax        # 1e036 <g_61>
   1860e:	48 0f bf c0          	movswq %ax,%rax
   18612:	8b 55 fc             	mov    -0x4(%rbp),%edx
   18615:	48 8d 35 48 21 00 00 	lea    0x2148(%rip),%rsi        # 1a764 <g_314+0x16be>
   1861c:	48 89 c7             	mov    %rax,%rdi
   1861f:	e8 cf 10 ff ff       	callq  96f3 <transparent_crc>
   18624:	c7 45 f0 00 00 00 00 	movl   $0x0,-0x10(%rbp)
   1862b:	e9 9e 00 00 00       	jmpq   186ce <main+0x1b9>
   18630:	c7 45 f4 00 00 00 00 	movl   $0x0,-0xc(%rbp)
   18637:	e9 84 00 00 00       	jmpq   186c0 <main+0x1ab>
   1863c:	c7 45 f8 00 00 00 00 	movl   $0x0,-0x8(%rbp)
   18643:	eb 71                	jmp    186b6 <main+0x1a1>
   18645:	8b 45 f8             	mov    -0x8(%rbp),%eax
   18648:	48 63 c8             	movslq %eax,%rcx
   1864b:	8b 45 f0             	mov    -0x10(%rbp),%eax
   1864e:	48 63 d0             	movslq %eax,%rdx
   18651:	8b 45 f4             	mov    -0xc(%rbp),%eax
   18654:	48 63 f0             	movslq %eax,%rsi
   18657:	48 89 d0             	mov    %rdx,%rax
   1865a:	48 c1 e0 03          	shl    $0x3,%rax
   1865e:	48 01 d0             	add    %rdx,%rax
   18661:	48 01 f0             	add    %rsi,%rax
   18664:	48 01 c0             	add    %rax,%rax
   18667:	48 01 c8             	add    %rcx,%rax
   1866a:	48 8d 14 85 00 00 00 	lea    0x0(,%rax,4),%rdx
   18671:	00 
   18672:	48 8d 05 c7 59 00 00 	lea    0x59c7(%rip),%rax        # 1e040 <g_75>
   18679:	8b 04 02             	mov    (%rdx,%rax,1),%eax
   1867c:	48 98                	cltq   
   1867e:	8b 55 fc             	mov    -0x4(%rbp),%edx
   18681:	48 8d 35 e1 20 00 00 	lea    0x20e1(%rip),%rsi        # 1a769 <g_314+0x16c3>
   18688:	48 89 c7             	mov    %rax,%rdi
   1868b:	e8 63 10 ff ff       	callq  96f3 <transparent_crc>
   18690:	83 7d fc 00          	cmpl   $0x0,-0x4(%rbp)
   18694:	74 1c                	je     186b2 <main+0x19d>
   18696:	8b 4d f8             	mov    -0x8(%rbp),%ecx
   18699:	8b 55 f4             	mov    -0xc(%rbp),%edx
   1869c:	8b 45 f0             	mov    -0x10(%rbp),%eax
   1869f:	89 c6                	mov    %eax,%esi
   186a1:	48 8d 3d cf 20 00 00 	lea    0x20cf(%rip),%rdi        # 1a777 <g_314+0x16d1>
   186a8:	b8 00 00 00 00       	mov    $0x0,%eax
   186ad:	e8 ce f9 fe ff       	callq  8080 <printf@plt>
   186b2:	83 45 f8 01          	addl   $0x1,-0x8(%rbp)
   186b6:	83 7d f8 01          	cmpl   $0x1,-0x8(%rbp)
   186ba:	7e 89                	jle    18645 <main+0x130>
   186bc:	83 45 f4 01          	addl   $0x1,-0xc(%rbp)
   186c0:	83 7d f4 08          	cmpl   $0x8,-0xc(%rbp)
   186c4:	0f 8e 72 ff ff ff    	jle    1863c <main+0x127>
   186ca:	83 45 f0 01          	addl   $0x1,-0x10(%rbp)
   186ce:	83 7d f0 08          	cmpl   $0x8,-0x10(%rbp)
   186d2:	0f 8e 58 ff ff ff    	jle    18630 <main+0x11b>
   186d8:	0f b7 05 e9 5b 00 00 	movzwl 0x5be9(%rip),%eax        # 1e2c8 <g_93>
   186df:	48 0f bf c0          	movswq %ax,%rax
   186e3:	8b 55 fc             	mov    -0x4(%rbp),%edx
   186e6:	48 8d 35 a0 20 00 00 	lea    0x20a0(%rip),%rsi        # 1a78d <g_314+0x16e7>
   186ed:	48 89 c7             	mov    %rax,%rdi
   186f0:	e8 fe 0f ff ff       	callq  96f3 <transparent_crc>
   186f5:	c7 45 f0 00 00 00 00 	movl   $0x0,-0x10(%rbp)
   186fc:	eb 77                	jmp    18775 <main+0x260>
   186fe:	c7 45 f4 00 00 00 00 	movl   $0x0,-0xc(%rbp)
   18705:	eb 64                	jmp    1876b <main+0x256>
   18707:	8b 45 f4             	mov    -0xc(%rbp),%eax
   1870a:	48 63 c8             	movslq %eax,%rcx
   1870d:	8b 45 f0             	mov    -0x10(%rbp),%eax
   18710:	48 63 d0             	movslq %eax,%rdx
   18713:	48 89 d0             	mov    %rdx,%rax
   18716:	48 01 c0             	add    %rax,%rax
   18719:	48 01 d0             	add    %rdx,%rax
   1871c:	48 01 c0             	add    %rax,%rax
   1871f:	48 01 c8             	add    %rcx,%rax
   18722:	48 8d 14 85 00 00 00 	lea    0x0(,%rax,4),%rdx
   18729:	00 
   1872a:	48 8d 05 af 5b 00 00 	lea    0x5baf(%rip),%rax        # 1e2e0 <g_96>
   18731:	8b 04 02             	mov    (%rdx,%rax,1),%eax
   18734:	48 98                	cltq   
   18736:	8b 55 fc             	mov    -0x4(%rbp),%edx
   18739:	48 8d 35 52 20 00 00 	lea    0x2052(%rip),%rsi        # 1a792 <g_314+0x16ec>
   18740:	48 89 c7             	mov    %rax,%rdi
   18743:	e8 ab 0f ff ff       	callq  96f3 <transparent_crc>
   18748:	83 7d fc 00          	cmpl   $0x0,-0x4(%rbp)
   1874c:	74 19                	je     18767 <main+0x252>
   1874e:	8b 55 f4             	mov    -0xc(%rbp),%edx
   18751:	8b 45 f0             	mov    -0x10(%rbp),%eax
   18754:	89 c6                	mov    %eax,%esi
   18756:	48 8d 3d 40 20 00 00 	lea    0x2040(%rip),%rdi        # 1a79d <g_314+0x16f7>
   1875d:	b8 00 00 00 00       	mov    $0x0,%eax
   18762:	e8 19 f9 fe ff       	callq  8080 <printf@plt>
   18767:	83 45 f4 01          	addl   $0x1,-0xc(%rbp)
   1876b:	83 7d f4 05          	cmpl   $0x5,-0xc(%rbp)
   1876f:	7e 96                	jle    18707 <main+0x1f2>
   18771:	83 45 f0 01          	addl   $0x1,-0x10(%rbp)
   18775:	83 7d f0 05          	cmpl   $0x5,-0x10(%rbp)
   18779:	7e 83                	jle    186fe <main+0x1e9>
   1877b:	48 8b 05 ee 5b 00 00 	mov    0x5bee(%rip),%rax        # 1e370 <g_130>
   18782:	8b 55 fc             	mov    -0x4(%rbp),%edx
   18785:	48 8d 35 23 20 00 00 	lea    0x2023(%rip),%rsi        # 1a7af <g_314+0x1709>
   1878c:	48 89 c7             	mov    %rax,%rdi
   1878f:	e8 5f 0f ff ff       	callq  96f3 <transparent_crc>
   18794:	c7 45 f0 00 00 00 00 	movl   $0x0,-0x10(%rbp)
   1879b:	eb 73                	jmp    18810 <main+0x2fb>
   1879d:	c7 45 f4 00 00 00 00 	movl   $0x0,-0xc(%rbp)
   187a4:	eb 60                	jmp    18806 <main+0x2f1>
   187a6:	8b 45 f4             	mov    -0xc(%rbp),%eax
   187a9:	48 63 c8             	movslq %eax,%rcx
   187ac:	8b 45 f0             	mov    -0x10(%rbp),%eax
   187af:	48 63 d0             	movslq %eax,%rdx
   187b2:	48 89 d0             	mov    %rdx,%rax
   187b5:	48 c1 e0 02          	shl    $0x2,%rax
   187b9:	48 01 d0             	add    %rdx,%rax
   187bc:	48 01 c8             	add    %rcx,%rax
   187bf:	48 8d 14 00          	lea    (%rax,%rax,1),%rdx
   187c3:	48 8d 05 96 08 00 00 	lea    0x896(%rip),%rax        # 19060 <g_142>
   187ca:	0f b7 04 02          	movzwl (%rdx,%rax,1),%eax
   187ce:	0f b7 c0             	movzwl %ax,%eax
   187d1:	8b 55 fc             	mov    -0x4(%rbp),%edx
   187d4:	48 8d 35 da 1f 00 00 	lea    0x1fda(%rip),%rsi        # 1a7b5 <g_314+0x170f>
   187db:	48 89 c7             	mov    %rax,%rdi
   187de:	e8 10 0f ff ff       	callq  96f3 <transparent_crc>
   187e3:	83 7d fc 00          	cmpl   $0x0,-0x4(%rbp)
   187e7:	74 19                	je     18802 <main+0x2ed>
   187e9:	8b 55 f4             	mov    -0xc(%rbp),%edx
   187ec:	8b 45 f0             	mov    -0x10(%rbp),%eax
   187ef:	89 c6                	mov    %eax,%esi
   187f1:	48 8d 3d a5 1f 00 00 	lea    0x1fa5(%rip),%rdi        # 1a79d <g_314+0x16f7>
   187f8:	b8 00 00 00 00       	mov    $0x0,%eax
   187fd:	e8 7e f8 fe ff       	callq  8080 <printf@plt>
   18802:	83 45 f4 01          	addl   $0x1,-0xc(%rbp)
   18806:	83 7d f4 04          	cmpl   $0x4,-0xc(%rbp)
   1880a:	7e 9a                	jle    187a6 <main+0x291>
   1880c:	83 45 f0 01          	addl   $0x1,-0x10(%rbp)
   18810:	83 7d f0 06          	cmpl   $0x6,-0x10(%rbp)
   18814:	7e 87                	jle    1879d <main+0x288>
   18816:	0f b7 05 d3 87 00 00 	movzwl 0x87d3(%rip),%eax        # 20ff0 <g_160>
   1881d:	48 0f bf c0          	movswq %ax,%rax
   18821:	8b 55 fc             	mov    -0x4(%rbp),%edx
   18824:	48 8d 35 96 1f 00 00 	lea    0x1f96(%rip),%rsi        # 1a7c1 <g_314+0x171b>
   1882b:	48 89 c7             	mov    %rax,%rdi
   1882e:	e8 c0 0e ff ff       	callq  96f3 <transparent_crc>
   18833:	0f b6 05 3e 5b 00 00 	movzbl 0x5b3e(%rip),%eax        # 1e378 <g_161>
   1883a:	0f b6 c0             	movzbl %al,%eax
   1883d:	8b 55 fc             	mov    -0x4(%rbp),%edx
   18840:	48 8d 35 80 1f 00 00 	lea    0x1f80(%rip),%rsi        # 1a7c7 <g_314+0x1721>
   18847:	48 89 c7             	mov    %rax,%rdi
   1884a:	e8 a4 0e ff ff       	callq  96f3 <transparent_crc>
   1884f:	8b 05 27 5b 00 00    	mov    0x5b27(%rip),%eax        # 1e37c <g_175>
   18855:	89 c1                	mov    %eax,%ecx
   18857:	8b 45 fc             	mov    -0x4(%rbp),%eax
   1885a:	89 c2                	mov    %eax,%edx
   1885c:	48 8d 35 6a 1f 00 00 	lea    0x1f6a(%rip),%rsi        # 1a7cd <g_314+0x1727>
   18863:	48 89 cf             	mov    %rcx,%rdi
   18866:	e8 88 0e ff ff       	callq  96f3 <transparent_crc>
   1886b:	0f b6 05 0e 5b 00 00 	movzbl 0x5b0e(%rip),%eax        # 1e380 <g_178>
   18872:	48 0f be c0          	movsbq %al,%rax
   18876:	8b 55 fc             	mov    -0x4(%rbp),%edx
   18879:	48 8d 35 53 1f 00 00 	lea    0x1f53(%rip),%rsi        # 1a7d3 <g_314+0x172d>
   18880:	48 89 c7             	mov    %rax,%rdi
   18883:	e8 6b 0e ff ff       	callq  96f3 <transparent_crc>
   18888:	48 8b 05 f9 5a 00 00 	mov    0x5af9(%rip),%rax        # 1e388 <g_182>
   1888f:	8b 55 fc             	mov    -0x4(%rbp),%edx
   18892:	48 8d 35 40 1f 00 00 	lea    0x1f40(%rip),%rsi        # 1a7d9 <g_314+0x1733>
   18899:	48 89 c7             	mov    %rax,%rdi
   1889c:	e8 52 0e ff ff       	callq  96f3 <transparent_crc>
   188a1:	0f b6 05 4a 87 00 00 	movzbl 0x874a(%rip),%eax        # 20ff2 <g_188>
   188a8:	48 0f be c0          	movsbq %al,%rax
   188ac:	8b 55 fc             	mov    -0x4(%rbp),%edx
   188af:	48 8d 35 29 1f 00 00 	lea    0x1f29(%rip),%rsi        # 1a7df <g_314+0x1739>
   188b6:	48 89 c7             	mov    %rax,%rdi
   188b9:	e8 35 0e ff ff       	callq  96f3 <transparent_crc>
   188be:	0f b7 05 2f 87 00 00 	movzwl 0x872f(%rip),%eax        # 20ff4 <g_206>
   188c5:	0f b7 c0             	movzwl %ax,%eax
   188c8:	8b 55 fc             	mov    -0x4(%rbp),%edx
   188cb:	48 8d 35 13 1f 00 00 	lea    0x1f13(%rip),%rsi        # 1a7e5 <g_314+0x173f>
   188d2:	48 89 c7             	mov    %rax,%rdi
   188d5:	e8 19 0e ff ff       	callq  96f3 <transparent_crc>
   188da:	b8 73 00 00 00       	mov    $0x73,%eax
   188df:	0f b6 c0             	movzbl %al,%eax
   188e2:	8b 55 fc             	mov    -0x4(%rbp),%edx
   188e5:	48 8d 35 ff 1e 00 00 	lea    0x1eff(%rip),%rsi        # 1a7eb <g_314+0x1745>
   188ec:	48 89 c7             	mov    %rax,%rdi
   188ef:	e8 ff 0d ff ff       	callq  96f3 <transparent_crc>
   188f4:	48 8b 05 95 5a 00 00 	mov    0x5a95(%rip),%rax        # 1e390 <g_364>
   188fb:	48 89 c1             	mov    %rax,%rcx
   188fe:	8b 45 fc             	mov    -0x4(%rbp),%eax
   18901:	89 c2                	mov    %eax,%edx
   18903:	48 8d 35 e7 1e 00 00 	lea    0x1ee7(%rip),%rsi        # 1a7f1 <g_314+0x174b>
   1890a:	48 89 cf             	mov    %rcx,%rdi
   1890d:	e8 e1 0d ff ff       	callq  96f3 <transparent_crc>
   18912:	0f b7 05 7f 5a 00 00 	movzwl 0x5a7f(%rip),%eax        # 1e398 <g_535>
   18919:	0f b7 c0             	movzwl %ax,%eax
   1891c:	8b 55 fc             	mov    -0x4(%rbp),%edx
   1891f:	48 8d 35 d1 1e 00 00 	lea    0x1ed1(%rip),%rsi        # 1a7f7 <g_314+0x1751>
   18926:	48 89 c7             	mov    %rax,%rdi
   18929:	e8 c5 0d ff ff       	callq  96f3 <transparent_crc>
   1892e:	0f b7 05 65 5a 00 00 	movzwl 0x5a65(%rip),%eax        # 1e39a <g_536>
   18935:	48 0f bf c0          	movswq %ax,%rax
   18939:	8b 55 fc             	mov    -0x4(%rbp),%edx
   1893c:	48 8d 35 ba 1e 00 00 	lea    0x1eba(%rip),%rsi        # 1a7fd <g_314+0x1757>
   18943:	48 89 c7             	mov    %rax,%rdi
   18946:	e8 a8 0d ff ff       	callq  96f3 <transparent_crc>
   1894b:	8b 05 4b 5a 00 00    	mov    0x5a4b(%rip),%eax        # 1e39c <g_587>
   18951:	48 98                	cltq   
   18953:	8b 55 fc             	mov    -0x4(%rbp),%edx
   18956:	48 8d 35 a6 1e 00 00 	lea    0x1ea6(%rip),%rsi        # 1a803 <g_314+0x175d>
   1895d:	48 89 c7             	mov    %rax,%rdi
   18960:	e8 8e 0d ff ff       	callq  96f3 <transparent_crc>
   18965:	48 8b 05 34 5a 00 00 	mov    0x5a34(%rip),%rax        # 1e3a0 <g_597>
   1896c:	48 89 c1             	mov    %rax,%rcx
   1896f:	8b 45 fc             	mov    -0x4(%rbp),%eax
   18972:	89 c2                	mov    %eax,%edx
   18974:	48 8d 35 8e 1e 00 00 	lea    0x1e8e(%rip),%rsi        # 1a809 <g_314+0x1763>
   1897b:	48 89 cf             	mov    %rcx,%rdi
   1897e:	e8 70 0d ff ff       	callq  96f3 <transparent_crc>
   18983:	48 8b 05 1e 5a 00 00 	mov    0x5a1e(%rip),%rax        # 1e3a8 <g_646>
   1898a:	8b 55 fc             	mov    -0x4(%rbp),%edx
   1898d:	48 8d 35 7b 1e 00 00 	lea    0x1e7b(%rip),%rsi        # 1a80f <g_314+0x1769>
   18994:	48 89 c7             	mov    %rax,%rdi
   18997:	e8 57 0d ff ff       	callq  96f3 <transparent_crc>
   1899c:	8b 05 0e 5a 00 00    	mov    0x5a0e(%rip),%eax        # 1e3b0 <g_734>
   189a2:	89 c1                	mov    %eax,%ecx
   189a4:	8b 45 fc             	mov    -0x4(%rbp),%eax
   189a7:	89 c2                	mov    %eax,%edx
   189a9:	48 8d 35 65 1e 00 00 	lea    0x1e65(%rip),%rsi        # 1a815 <g_314+0x176f>
   189b0:	48 89 cf             	mov    %rcx,%rdi
   189b3:	e8 3b 0d ff ff       	callq  96f3 <transparent_crc>
   189b8:	0f b7 05 f5 59 00 00 	movzwl 0x59f5(%rip),%eax        # 1e3b4 <g_743>
   189bf:	0f b7 c0             	movzwl %ax,%eax
   189c2:	8b 55 fc             	mov    -0x4(%rbp),%edx
   189c5:	48 8d 35 4f 1e 00 00 	lea    0x1e4f(%rip),%rsi        # 1a81b <g_314+0x1775>
   189cc:	48 89 c7             	mov    %rax,%rdi
   189cf:	e8 1f 0d ff ff       	callq  96f3 <transparent_crc>
   189d4:	c7 45 f0 00 00 00 00 	movl   $0x0,-0x10(%rbp)
   189db:	eb 45                	jmp    18a22 <main+0x50d>
   189dd:	8b 45 f0             	mov    -0x10(%rbp),%eax
   189e0:	48 98                	cltq   
   189e2:	48 8d 15 cd 59 00 00 	lea    0x59cd(%rip),%rdx        # 1e3b6 <g_1011>
   189e9:	0f b6 04 10          	movzbl (%rax,%rdx,1),%eax
   189ed:	0f b6 c0             	movzbl %al,%eax
   189f0:	8b 55 fc             	mov    -0x4(%rbp),%edx
   189f3:	48 8d 35 27 1e 00 00 	lea    0x1e27(%rip),%rsi        # 1a821 <g_314+0x177b>
   189fa:	48 89 c7             	mov    %rax,%rdi
   189fd:	e8 f1 0c ff ff       	callq  96f3 <transparent_crc>
   18a02:	83 7d fc 00          	cmpl   $0x0,-0x4(%rbp)
   18a06:	74 16                	je     18a1e <main+0x509>
   18a08:	8b 45 f0             	mov    -0x10(%rbp),%eax
   18a0b:	89 c6                	mov    %eax,%esi
   18a0d:	48 8d 3d 17 1e 00 00 	lea    0x1e17(%rip),%rdi        # 1a82b <g_314+0x1785>
   18a14:	b8 00 00 00 00       	mov    $0x0,%eax
   18a19:	e8 62 f6 fe ff       	callq  8080 <printf@plt>
   18a1e:	83 45 f0 01          	addl   $0x1,-0x10(%rbp)
   18a22:	83 7d f0 06          	cmpl   $0x6,-0x10(%rbp)
   18a26:	7e b5                	jle    189dd <main+0x4c8>
   18a28:	48 8b 05 91 59 00 00 	mov    0x5991(%rip),%rax        # 1e3c0 <g_1179>
   18a2f:	8b 55 fc             	mov    -0x4(%rbp),%edx
   18a32:	48 8d 35 00 1e 00 00 	lea    0x1e00(%rip),%rsi        # 1a839 <g_314+0x1793>
   18a39:	48 89 c7             	mov    %rax,%rdi
   18a3c:	e8 b2 0c ff ff       	callq  96f3 <transparent_crc>
   18a41:	8b 05 81 59 00 00    	mov    0x5981(%rip),%eax        # 1e3c8 <g_1211>
   18a47:	48 98                	cltq   
   18a49:	8b 55 fc             	mov    -0x4(%rbp),%edx
   18a4c:	48 8d 35 ed 1d 00 00 	lea    0x1ded(%rip),%rsi        # 1a840 <g_314+0x179a>
   18a53:	48 89 c7             	mov    %rax,%rdi
   18a56:	e8 98 0c ff ff       	callq  96f3 <transparent_crc>
   18a5b:	8b 05 6b 59 00 00    	mov    0x596b(%rip),%eax        # 1e3cc <g_1213>
   18a61:	89 c1                	mov    %eax,%ecx
   18a63:	8b 45 fc             	mov    -0x4(%rbp),%eax
   18a66:	89 c2                	mov    %eax,%edx
   18a68:	48 8d 35 d8 1d 00 00 	lea    0x1dd8(%rip),%rsi        # 1a847 <g_314+0x17a1>
   18a6f:	48 89 cf             	mov    %rcx,%rdi
   18a72:	e8 7c 0c ff ff       	callq  96f3 <transparent_crc>
   18a77:	0f b6 05 52 59 00 00 	movzbl 0x5952(%rip),%eax        # 1e3d0 <g_1219>
   18a7e:	0f b6 c0             	movzbl %al,%eax
   18a81:	8b 55 fc             	mov    -0x4(%rbp),%edx
   18a84:	48 8d 35 c3 1d 00 00 	lea    0x1dc3(%rip),%rsi        # 1a84e <g_314+0x17a8>
   18a8b:	48 89 c7             	mov    %rax,%rdi
   18a8e:	e8 60 0c ff ff       	callq  96f3 <transparent_crc>
   18a93:	c7 45 f0 00 00 00 00 	movl   $0x0,-0x10(%rbp)
   18a9a:	eb 4f                	jmp    18aeb <main+0x5d6>
   18a9c:	8b 45 f0             	mov    -0x10(%rbp),%eax
   18a9f:	48 98                	cltq   
   18aa1:	48 8d 14 c5 00 00 00 	lea    0x0(,%rax,8),%rdx
   18aa8:	00 
   18aa9:	48 8d 05 30 59 00 00 	lea    0x5930(%rip),%rax        # 1e3e0 <g_1224>
   18ab0:	48 8b 04 02          	mov    (%rdx,%rax,1),%rax
   18ab4:	48 89 c1             	mov    %rax,%rcx
   18ab7:	8b 45 fc             	mov    -0x4(%rbp),%eax
   18aba:	89 c2                	mov    %eax,%edx
   18abc:	48 8d 35 92 1d 00 00 	lea    0x1d92(%rip),%rsi        # 1a855 <g_314+0x17af>
   18ac3:	48 89 cf             	mov    %rcx,%rdi
   18ac6:	e8 28 0c ff ff       	callq  96f3 <transparent_crc>
   18acb:	83 7d fc 00          	cmpl   $0x0,-0x4(%rbp)
   18acf:	74 16                	je     18ae7 <main+0x5d2>
   18ad1:	8b 45 f0             	mov    -0x10(%rbp),%eax
   18ad4:	89 c6                	mov    %eax,%esi
   18ad6:	48 8d 3d 4e 1d 00 00 	lea    0x1d4e(%rip),%rdi        # 1a82b <g_314+0x1785>
   18add:	b8 00 00 00 00       	mov    $0x0,%eax
   18ae2:	e8 99 f5 fe ff       	callq  8080 <printf@plt>
   18ae7:	83 45 f0 01          	addl   $0x1,-0x10(%rbp)
   18aeb:	83 7d f0 03          	cmpl   $0x3,-0x10(%rbp)
   18aef:	7e ab                	jle    18a9c <main+0x587>
   18af1:	c7 45 f0 00 00 00 00 	movl   $0x0,-0x10(%rbp)
   18af8:	eb 4d                	jmp    18b47 <main+0x632>
   18afa:	8b 45 f0             	mov    -0x10(%rbp),%eax
   18afd:	48 98                	cltq   
   18aff:	48 8d 14 85 00 00 00 	lea    0x0(,%rax,4),%rdx
   18b06:	00 
   18b07:	48 8d 05 f2 58 00 00 	lea    0x58f2(%rip),%rax        # 1e400 <g_1287>
   18b0e:	8b 04 02             	mov    (%rdx,%rax,1),%eax
   18b11:	89 c1                	mov    %eax,%ecx
   18b13:	8b 45 fc             	mov    -0x4(%rbp),%eax
   18b16:	89 c2                	mov    %eax,%edx
   18b18:	48 8d 35 40 1d 00 00 	lea    0x1d40(%rip),%rsi        # 1a85f <g_314+0x17b9>
   18b1f:	48 89 cf             	mov    %rcx,%rdi
   18b22:	e8 cc 0b ff ff       	callq  96f3 <transparent_crc>
   18b27:	83 7d fc 00          	cmpl   $0x0,-0x4(%rbp)
   18b2b:	74 16                	je     18b43 <main+0x62e>
   18b2d:	8b 45 f0             	mov    -0x10(%rbp),%eax
   18b30:	89 c6                	mov    %eax,%esi
   18b32:	48 8d 3d f2 1c 00 00 	lea    0x1cf2(%rip),%rdi        # 1a82b <g_314+0x1785>
   18b39:	b8 00 00 00 00       	mov    $0x0,%eax
   18b3e:	e8 3d f5 fe ff       	callq  8080 <printf@plt>
   18b43:	83 45 f0 01          	addl   $0x1,-0x10(%rbp)
   18b47:	83 7d f0 09          	cmpl   $0x9,-0x10(%rbp)
   18b4b:	7e ad                	jle    18afa <main+0x5e5>
   18b4d:	48 8b 05 d4 58 00 00 	mov    0x58d4(%rip),%rax        # 1e428 <g_1290>
   18b54:	48 89 c1             	mov    %rax,%rcx
   18b57:	8b 45 fc             	mov    -0x4(%rbp),%eax
   18b5a:	89 c2                	mov    %eax,%edx
   18b5c:	48 8d 35 06 1d 00 00 	lea    0x1d06(%rip),%rsi        # 1a869 <g_314+0x17c3>
   18b63:	48 89 cf             	mov    %rcx,%rdi
   18b66:	e8 88 0b ff ff       	callq  96f3 <transparent_crc>
   18b6b:	48 8b 05 be 58 00 00 	mov    0x58be(%rip),%rax        # 1e430 <g_1395>
   18b72:	8b 55 fc             	mov    -0x4(%rbp),%edx
   18b75:	48 8d 35 f4 1c 00 00 	lea    0x1cf4(%rip),%rsi        # 1a870 <g_314+0x17ca>
   18b7c:	48 89 c7             	mov    %rax,%rdi
   18b7f:	e8 6f 0b ff ff       	callq  96f3 <transparent_crc>
   18b84:	8b 05 ae 58 00 00    	mov    0x58ae(%rip),%eax        # 1e438 <g_1510>
   18b8a:	89 c1                	mov    %eax,%ecx
   18b8c:	8b 45 fc             	mov    -0x4(%rbp),%eax
   18b8f:	89 c2                	mov    %eax,%edx
   18b91:	48 8d 35 df 1c 00 00 	lea    0x1cdf(%rip),%rsi        # 1a877 <g_314+0x17d1>
   18b98:	48 89 cf             	mov    %rcx,%rdi
   18b9b:	e8 53 0b ff ff       	callq  96f3 <transparent_crc>
   18ba0:	0f b7 05 95 58 00 00 	movzwl 0x5895(%rip),%eax        # 1e43c <g_1651>
   18ba7:	0f b7 c0             	movzwl %ax,%eax
   18baa:	8b 55 fc             	mov    -0x4(%rbp),%edx
   18bad:	48 8d 35 ca 1c 00 00 	lea    0x1cca(%rip),%rsi        # 1a87e <g_314+0x17d8>
   18bb4:	48 89 c7             	mov    %rax,%rdi
   18bb7:	e8 37 0b ff ff       	callq  96f3 <transparent_crc>
   18bbc:	8b 05 7e 58 00 00    	mov    0x587e(%rip),%eax        # 1e440 <g_1912>
   18bc2:	89 c1                	mov    %eax,%ecx
   18bc4:	8b 45 fc             	mov    -0x4(%rbp),%eax
   18bc7:	89 c2                	mov    %eax,%edx
   18bc9:	48 8d 35 b5 1c 00 00 	lea    0x1cb5(%rip),%rsi        # 1a885 <g_314+0x17df>
   18bd0:	48 89 cf             	mov    %rcx,%rdi
   18bd3:	e8 1b 0b ff ff       	callq  96f3 <transparent_crc>
   18bd8:	8b 05 66 58 00 00    	mov    0x5866(%rip),%eax        # 1e444 <g_1988>
   18bde:	48 98                	cltq   
   18be0:	8b 55 fc             	mov    -0x4(%rbp),%edx
   18be3:	48 8d 35 a2 1c 00 00 	lea    0x1ca2(%rip),%rsi        # 1a88c <g_314+0x17e6>
   18bea:	48 89 c7             	mov    %rax,%rdi
   18bed:	e8 01 0b ff ff       	callq  96f3 <transparent_crc>
   18bf2:	8b 05 50 58 00 00    	mov    0x5850(%rip),%eax        # 1e448 <g_2011>
   18bf8:	48 98                	cltq   
   18bfa:	8b 55 fc             	mov    -0x4(%rbp),%edx
   18bfd:	48 8d 35 8f 1c 00 00 	lea    0x1c8f(%rip),%rsi        # 1a893 <g_314+0x17ed>
   18c04:	48 89 c7             	mov    %rax,%rdi
   18c07:	e8 e7 0a ff ff       	callq  96f3 <transparent_crc>
   18c0c:	c7 45 f0 00 00 00 00 	movl   $0x0,-0x10(%rbp)
   18c13:	eb 4f                	jmp    18c64 <main+0x74f>
   18c15:	8b 45 f0             	mov    -0x10(%rbp),%eax
   18c18:	48 98                	cltq   
   18c1a:	48 8d 14 c5 00 00 00 	lea    0x0(,%rax,8),%rdx
   18c21:	00 
   18c22:	48 8d 05 37 58 00 00 	lea    0x5837(%rip),%rax        # 1e460 <g_2052>
   18c29:	48 8b 04 02          	mov    (%rdx,%rax,1),%rax
   18c2d:	48 89 c1             	mov    %rax,%rcx
   18c30:	8b 45 fc             	mov    -0x4(%rbp),%eax
   18c33:	89 c2                	mov    %eax,%edx
   18c35:	48 8d 35 5e 1c 00 00 	lea    0x1c5e(%rip),%rsi        # 1a89a <g_314+0x17f4>
   18c3c:	48 89 cf             	mov    %rcx,%rdi
   18c3f:	e8 af 0a ff ff       	callq  96f3 <transparent_crc>
   18c44:	83 7d fc 00          	cmpl   $0x0,-0x4(%rbp)
   18c48:	74 16                	je     18c60 <main+0x74b>
   18c4a:	8b 45 f0             	mov    -0x10(%rbp),%eax
   18c4d:	89 c6                	mov    %eax,%esi
   18c4f:	48 8d 3d d5 1b 00 00 	lea    0x1bd5(%rip),%rdi        # 1a82b <g_314+0x1785>
   18c56:	b8 00 00 00 00       	mov    $0x0,%eax
   18c5b:	e8 20 f4 fe ff       	callq  8080 <printf@plt>
   18c60:	83 45 f0 01          	addl   $0x1,-0x10(%rbp)
   18c64:	83 7d f0 05          	cmpl   $0x5,-0x10(%rbp)
   18c68:	7e ab                	jle    18c15 <main+0x700>
   18c6a:	0f b7 05 1f 58 00 00 	movzwl 0x581f(%rip),%eax        # 1e490 <g_2260>
   18c71:	48 0f bf c0          	movswq %ax,%rax
   18c75:	8b 55 fc             	mov    -0x4(%rbp),%edx
   18c78:	48 8d 35 25 1c 00 00 	lea    0x1c25(%rip),%rsi        # 1a8a4 <g_314+0x17fe>
   18c7f:	48 89 c7             	mov    %rax,%rdi
   18c82:	e8 6c 0a ff ff       	callq  96f3 <transparent_crc>
   18c87:	0f b7 05 04 58 00 00 	movzwl 0x5804(%rip),%eax        # 1e492 <g_2276>
   18c8e:	48 0f bf c0          	movswq %ax,%rax
   18c92:	8b 55 fc             	mov    -0x4(%rbp),%edx
   18c95:	48 8d 35 0f 1c 00 00 	lea    0x1c0f(%rip),%rsi        # 1a8ab <g_314+0x1805>
   18c9c:	48 89 c7             	mov    %rax,%rdi
   18c9f:	e8 4f 0a ff ff       	callq  96f3 <transparent_crc>
   18ca4:	8b 05 4e 84 00 00    	mov    0x844e(%rip),%eax        # 210f8 <g_2312>
   18caa:	48 98                	cltq   
   18cac:	8b 55 fc             	mov    -0x4(%rbp),%edx
   18caf:	48 8d 35 fc 1b 00 00 	lea    0x1bfc(%rip),%rsi        # 1a8b2 <g_314+0x180c>
   18cb6:	48 89 c7             	mov    %rax,%rdi
   18cb9:	e8 35 0a ff ff       	callq  96f3 <transparent_crc>
   18cbe:	c7 45 f0 00 00 00 00 	movl   $0x0,-0x10(%rbp)
   18cc5:	eb 45                	jmp    18d0c <main+0x7f7>
   18cc7:	8b 45 f0             	mov    -0x10(%rbp),%eax
   18cca:	48 98                	cltq   
   18ccc:	48 8d 15 c1 57 00 00 	lea    0x57c1(%rip),%rdx        # 1e494 <g_2388>
   18cd3:	0f b6 04 10          	movzbl (%rax,%rdx,1),%eax
   18cd7:	0f b6 c0             	movzbl %al,%eax
   18cda:	8b 55 fc             	mov    -0x4(%rbp),%edx
   18cdd:	48 8d 35 d5 1b 00 00 	lea    0x1bd5(%rip),%rsi        # 1a8b9 <g_314+0x1813>
   18ce4:	48 89 c7             	mov    %rax,%rdi
   18ce7:	e8 07 0a ff ff       	callq  96f3 <transparent_crc>
   18cec:	83 7d fc 00          	cmpl   $0x0,-0x4(%rbp)
   18cf0:	74 16                	je     18d08 <main+0x7f3>
   18cf2:	8b 45 f0             	mov    -0x10(%rbp),%eax
   18cf5:	89 c6                	mov    %eax,%esi
   18cf7:	48 8d 3d 2d 1b 00 00 	lea    0x1b2d(%rip),%rdi        # 1a82b <g_314+0x1785>
   18cfe:	b8 00 00 00 00       	mov    $0x0,%eax
   18d03:	e8 78 f3 fe ff       	callq  8080 <printf@plt>
   18d08:	83 45 f0 01          	addl   $0x1,-0x10(%rbp)
   18d0c:	83 7d f0 00          	cmpl   $0x0,-0x10(%rbp)
   18d10:	7e b5                	jle    18cc7 <main+0x7b2>
   18d12:	8b 05 08 53 00 00    	mov    0x5308(%rip),%eax        # 1e020 <crc32_context>
   18d18:	f7 d0                	not    %eax
   18d1a:	89 c2                	mov    %eax,%edx
   18d1c:	8b 45 fc             	mov    -0x4(%rbp),%eax
   18d1f:	89 c6                	mov    %eax,%esi
   18d21:	89 d7                	mov    %edx,%edi
   18d23:	e8 6c f4 fe ff       	callq  8194 <platform_main_end>
   18d28:	b8 00 00 00 00       	mov    $0x0,%eax
   18d2d:	c9                   	leaveq 
   18d2e:	c3                   	retq   
   18d2f:	90                   	nop

0000000000018d30 <__libc_csu_init>:
   18d30:	f3 0f 1e fa          	endbr64 
   18d34:	41 57                	push   %r15
   18d36:	4c 8d 3d d3 48 00 00 	lea    0x48d3(%rip),%r15        # 1d610 <__frame_dummy_init_array_entry>
   18d3d:	41 56                	push   %r14
   18d3f:	49 89 d6             	mov    %rdx,%r14
   18d42:	41 55                	push   %r13
   18d44:	49 89 f5             	mov    %rsi,%r13
   18d47:	41 54                	push   %r12
   18d49:	41 89 fc             	mov    %edi,%r12d
   18d4c:	55                   	push   %rbp
   18d4d:	48 8d 2d c4 48 00 00 	lea    0x48c4(%rip),%rbp        # 1d618 <__do_global_dtors_aux_fini_array_entry>
   18d54:	53                   	push   %rbx
   18d55:	4c 29 fd             	sub    %r15,%rbp
   18d58:	48 83 ec 08          	sub    $0x8,%rsp
   18d5c:	e8 9f f2 fe ff       	callq  8000 <_init>
   18d61:	48 c1 fd 03          	sar    $0x3,%rbp
   18d65:	74 1f                	je     18d86 <__libc_csu_init+0x56>
   18d67:	31 db                	xor    %ebx,%ebx
   18d69:	0f 1f 80 00 00 00 00 	nopl   0x0(%rax)
   18d70:	4c 89 f2             	mov    %r14,%rdx
   18d73:	4c 89 ee             	mov    %r13,%rsi
   18d76:	44 89 e7             	mov    %r12d,%edi
   18d79:	41 ff 14 df          	callq  *(%r15,%rbx,8)
   18d7d:	48 83 c3 01          	add    $0x1,%rbx
   18d81:	48 39 dd             	cmp    %rbx,%rbp
   18d84:	75 ea                	jne    18d70 <__libc_csu_init+0x40>
   18d86:	48 83 c4 08          	add    $0x8,%rsp
   18d8a:	5b                   	pop    %rbx
   18d8b:	5d                   	pop    %rbp
   18d8c:	41 5c                	pop    %r12
   18d8e:	41 5d                	pop    %r13
   18d90:	41 5e                	pop    %r14
   18d92:	41 5f                	pop    %r15
   18d94:	c3                   	retq   
   18d95:	66 66 2e 0f 1f 84 00 	data16 nopw %cs:0x0(%rax,%rax,1)
   18d9c:	00 00 00 00 

0000000000018da0 <__libc_csu_fini>:
   18da0:	f3 0f 1e fa          	endbr64 
   18da4:	c3                   	retq   
