


Disassembly of section .text:

00000000000060a0 <_start>:
    60a0:	f3 0f 1e fa          	endbr64 
    60a4:	31 ed                	xor    %ebp,%ebp
    60a6:	49 89 d1             	mov    %rdx,%r9
    60a9:	5e                   	pop    %rsi
    60aa:	48 89 e2             	mov    %rsp,%rdx
    60ad:	48 83 e4 f0          	and    $0xfffffffffffffff0,%rsp
    60b1:	50                   	push   %rax
    60b2:	54                   	push   %rsp
    60b3:	4c 8d 05 16 dc 00 00 	lea    0xdc16(%rip),%r8        # 13cd0 <__libc_csu_fini>
    60ba:	48 8d 0d 9f db 00 00 	lea    0xdb9f(%rip),%rcx        # 13c60 <__libc_csu_init>
    60c1:	48 8d 3d e4 cf 00 00 	lea    0xcfe4(%rip),%rdi        # 130ac <main>
    60c8:	ff 15 fa 1e 01 00    	callq  *0x11efa(%rip)        # 17fc8 <__libc_start_main@GLIBC_2.2.5>
    60ce:	f4                   	hlt    
    60cf:	90                   	nop

00000000000060d0 <deregister_tm_clones>:
    60d0:	48 8d 3d f1 45 01 00 	lea    0x145f1(%rip),%rdi        # 1a6c8 <__TMC_END__>
    60d7:	48 8d 05 ea 45 01 00 	lea    0x145ea(%rip),%rax        # 1a6c8 <__TMC_END__>
    60de:	48 39 f8             	cmp    %rdi,%rax
    60e1:	74 15                	je     60f8 <deregister_tm_clones+0x28>
    60e3:	48 8b 05 d6 1e 01 00 	mov    0x11ed6(%rip),%rax        # 17fc0 <_ITM_deregisterTMCloneTable>
    60ea:	48 85 c0             	test   %rax,%rax
    60ed:	74 09                	je     60f8 <deregister_tm_clones+0x28>
    60ef:	ff e0                	jmpq   *%rax
    60f1:	0f 1f 80 00 00 00 00 	nopl   0x0(%rax)
    60f8:	c3                   	retq   
    60f9:	0f 1f 80 00 00 00 00 	nopl   0x0(%rax)

0000000000006100 <register_tm_clones>:
    6100:	48 8d 3d c1 45 01 00 	lea    0x145c1(%rip),%rdi        # 1a6c8 <__TMC_END__>
    6107:	48 8d 35 ba 45 01 00 	lea    0x145ba(%rip),%rsi        # 1a6c8 <__TMC_END__>
    610e:	48 29 fe             	sub    %rdi,%rsi
    6111:	48 89 f0             	mov    %rsi,%rax
    6114:	48 c1 ee 3f          	shr    $0x3f,%rsi
    6118:	48 c1 f8 03          	sar    $0x3,%rax
    611c:	48 01 c6             	add    %rax,%rsi
    611f:	48 d1 fe             	sar    %rsi
    6122:	74 14                	je     6138 <register_tm_clones+0x38>
    6124:	48 8b 05 ad 1e 01 00 	mov    0x11ead(%rip),%rax        # 17fd8 <_ITM_registerTMCloneTable>
    612b:	48 85 c0             	test   %rax,%rax
    612e:	74 08                	je     6138 <register_tm_clones+0x38>
    6130:	ff e0                	jmpq   *%rax
    6132:	66 0f 1f 44 00 00    	nopw   0x0(%rax,%rax,1)
    6138:	c3                   	retq   
    6139:	0f 1f 80 00 00 00 00 	nopl   0x0(%rax)

0000000000006140 <__do_global_dtors_aux>:
    6140:	f3 0f 1e fa          	endbr64 
    6144:	80 3d 95 45 01 00 00 	cmpb   $0x0,0x14595(%rip)        # 1a6e0 <completed.8061>
    614b:	75 2b                	jne    6178 <__do_global_dtors_aux+0x38>
    614d:	55                   	push   %rbp
    614e:	48 83 3d 8a 1e 01 00 	cmpq   $0x0,0x11e8a(%rip)        # 17fe0 <__cxa_finalize@GLIBC_2.2.5>
    6155:	00 
    6156:	48 89 e5             	mov    %rsp,%rbp
    6159:	74 0c                	je     6167 <__do_global_dtors_aux+0x27>
    615b:	48 8b 3d a6 1e 01 00 	mov    0x11ea6(%rip),%rdi        # 18008 <__dso_handle>
    6162:	e8 f9 fe ff ff       	callq  6060 <__cxa_finalize@plt>
    6167:	e8 64 ff ff ff       	callq  60d0 <deregister_tm_clones>
    616c:	c6 05 6d 45 01 00 01 	movb   $0x1,0x1456d(%rip)        # 1a6e0 <completed.8061>
    6173:	5d                   	pop    %rbp
    6174:	c3                   	retq   
    6175:	0f 1f 00             	nopl   (%rax)
    6178:	c3                   	retq   
    6179:	0f 1f 80 00 00 00 00 	nopl   0x0(%rax)

0000000000006180 <frame_dummy>:
    6180:	f3 0f 1e fa          	endbr64 
    6184:	e9 77 ff ff ff       	jmpq   6100 <register_tm_clones>

0000000000006189 <platform_main_begin>:
    6189:	f3 0f 1e fa          	endbr64 
    618d:	55                   	push   %rbp
    618e:	48 89 e5             	mov    %rsp,%rbp
    6191:	90                   	nop
    6192:	5d                   	pop    %rbp
    6193:	c3                   	retq   

0000000000006194 <platform_main_end>:
    6194:	f3 0f 1e fa          	endbr64 
    6198:	55                   	push   %rbp
    6199:	48 89 e5             	mov    %rsp,%rbp
    619c:	48 83 ec 10          	sub    $0x10,%rsp
    61a0:	89 7d fc             	mov    %edi,-0x4(%rbp)
    61a3:	89 75 f8             	mov    %esi,-0x8(%rbp)
    61a6:	8b 45 fc             	mov    -0x4(%rbp),%eax
    61a9:	89 c6                	mov    %eax,%esi
    61ab:	48 8d 3d 6e de 00 00 	lea    0xde6e(%rip),%rdi        # 14020 <_IO_stdin_used+0x20>
    61b2:	b8 00 00 00 00       	mov    $0x0,%eax
    61b7:	e8 c4 fe ff ff       	callq  6080 <printf@plt>
    61bc:	90                   	nop
    61bd:	c9                   	leaveq 
    61be:	c3                   	retq   

00000000000061bf <safe_unary_minus_func_int8_t_s>:
    61bf:	f3 0f 1e fa          	endbr64 
    61c3:	55                   	push   %rbp
    61c4:	48 89 e5             	mov    %rsp,%rbp
    61c7:	89 f8                	mov    %edi,%eax
    61c9:	88 45 fc             	mov    %al,-0x4(%rbp)
    61cc:	0f b6 45 fc          	movzbl -0x4(%rbp),%eax
    61d0:	f7 d8                	neg    %eax
    61d2:	5d                   	pop    %rbp
    61d3:	c3                   	retq   

00000000000061d4 <safe_add_func_int8_t_s_s>:
    61d4:	f3 0f 1e fa          	endbr64 
    61d8:	55                   	push   %rbp
    61d9:	48 89 e5             	mov    %rsp,%rbp
    61dc:	89 fa                	mov    %edi,%edx
    61de:	89 f0                	mov    %esi,%eax
    61e0:	88 55 fc             	mov    %dl,-0x4(%rbp)
    61e3:	88 45 f8             	mov    %al,-0x8(%rbp)
    61e6:	0f b6 55 fc          	movzbl -0x4(%rbp),%edx
    61ea:	0f b6 45 f8          	movzbl -0x8(%rbp),%eax
    61ee:	01 d0                	add    %edx,%eax
    61f0:	5d                   	pop    %rbp
    61f1:	c3                   	retq   

00000000000061f2 <safe_sub_func_int8_t_s_s>:
    61f2:	f3 0f 1e fa          	endbr64 
    61f6:	55                   	push   %rbp
    61f7:	48 89 e5             	mov    %rsp,%rbp
    61fa:	89 fa                	mov    %edi,%edx
    61fc:	89 f0                	mov    %esi,%eax
    61fe:	88 55 fc             	mov    %dl,-0x4(%rbp)
    6201:	88 45 f8             	mov    %al,-0x8(%rbp)
    6204:	0f b6 55 fc          	movzbl -0x4(%rbp),%edx
    6208:	0f b6 45 f8          	movzbl -0x8(%rbp),%eax
    620c:	29 c2                	sub    %eax,%edx
    620e:	89 d0                	mov    %edx,%eax
    6210:	5d                   	pop    %rbp
    6211:	c3                   	retq   

0000000000006212 <safe_mul_func_int8_t_s_s>:
    6212:	f3 0f 1e fa          	endbr64 
    6216:	55                   	push   %rbp
    6217:	48 89 e5             	mov    %rsp,%rbp
    621a:	89 fa                	mov    %edi,%edx
    621c:	89 f0                	mov    %esi,%eax
    621e:	88 55 fc             	mov    %dl,-0x4(%rbp)
    6221:	88 45 f8             	mov    %al,-0x8(%rbp)
    6224:	0f b6 45 fc          	movzbl -0x4(%rbp),%eax
    6228:	0f b6 55 f8          	movzbl -0x8(%rbp),%edx
    622c:	0f af c2             	imul   %edx,%eax
    622f:	5d                   	pop    %rbp
    6230:	c3                   	retq   

0000000000006231 <safe_mod_func_int8_t_s_s>:
    6231:	f3 0f 1e fa          	endbr64 
    6235:	55                   	push   %rbp
    6236:	48 89 e5             	mov    %rsp,%rbp
    6239:	89 fa                	mov    %edi,%edx
    623b:	89 f0                	mov    %esi,%eax
    623d:	88 55 fc             	mov    %dl,-0x4(%rbp)
    6240:	88 45 f8             	mov    %al,-0x8(%rbp)
    6243:	80 7d f8 00          	cmpb   $0x0,-0x8(%rbp)
    6247:	74 1b                	je     6264 <safe_mod_func_int8_t_s_s+0x33>
    6249:	80 7d fc 80          	cmpb   $0x80,-0x4(%rbp)
    624d:	75 06                	jne    6255 <safe_mod_func_int8_t_s_s+0x24>
    624f:	80 7d f8 ff          	cmpb   $0xff,-0x8(%rbp)
    6253:	74 0f                	je     6264 <safe_mod_func_int8_t_s_s+0x33>
    6255:	0f be 45 fc          	movsbl -0x4(%rbp),%eax
    6259:	0f be 4d f8          	movsbl -0x8(%rbp),%ecx
    625d:	99                   	cltd   
    625e:	f7 f9                	idiv   %ecx
    6260:	89 d0                	mov    %edx,%eax
    6262:	eb 04                	jmp    6268 <safe_mod_func_int8_t_s_s+0x37>
    6264:	0f b6 45 fc          	movzbl -0x4(%rbp),%eax
    6268:	5d                   	pop    %rbp
    6269:	c3                   	retq   

000000000000626a <safe_div_func_int8_t_s_s>:
    626a:	f3 0f 1e fa          	endbr64 
    626e:	55                   	push   %rbp
    626f:	48 89 e5             	mov    %rsp,%rbp
    6272:	89 fa                	mov    %edi,%edx
    6274:	89 f0                	mov    %esi,%eax
    6276:	88 55 fc             	mov    %dl,-0x4(%rbp)
    6279:	88 45 f8             	mov    %al,-0x8(%rbp)
    627c:	80 7d f8 00          	cmpb   $0x0,-0x8(%rbp)
    6280:	74 19                	je     629b <safe_div_func_int8_t_s_s+0x31>
    6282:	80 7d fc 80          	cmpb   $0x80,-0x4(%rbp)
    6286:	75 06                	jne    628e <safe_div_func_int8_t_s_s+0x24>
    6288:	80 7d f8 ff          	cmpb   $0xff,-0x8(%rbp)
    628c:	74 0d                	je     629b <safe_div_func_int8_t_s_s+0x31>
    628e:	0f be 45 fc          	movsbl -0x4(%rbp),%eax
    6292:	0f be 4d f8          	movsbl -0x8(%rbp),%ecx
    6296:	99                   	cltd   
    6297:	f7 f9                	idiv   %ecx
    6299:	eb 04                	jmp    629f <safe_div_func_int8_t_s_s+0x35>
    629b:	0f b6 45 fc          	movzbl -0x4(%rbp),%eax
    629f:	5d                   	pop    %rbp
    62a0:	c3                   	retq   

00000000000062a1 <safe_lshift_func_int8_t_s_s>:
    62a1:	f3 0f 1e fa          	endbr64 
    62a5:	55                   	push   %rbp
    62a6:	48 89 e5             	mov    %rsp,%rbp
    62a9:	89 f8                	mov    %edi,%eax
    62ab:	89 75 f8             	mov    %esi,-0x8(%rbp)
    62ae:	88 45 fc             	mov    %al,-0x4(%rbp)
    62b1:	80 7d fc 00          	cmpb   $0x0,-0x4(%rbp)
    62b5:	78 31                	js     62e8 <safe_lshift_func_int8_t_s_s+0x47>
    62b7:	83 7d f8 00          	cmpl   $0x0,-0x8(%rbp)
    62bb:	78 2b                	js     62e8 <safe_lshift_func_int8_t_s_s+0x47>
    62bd:	83 7d f8 1f          	cmpl   $0x1f,-0x8(%rbp)
    62c1:	7f 25                	jg     62e8 <safe_lshift_func_int8_t_s_s+0x47>
    62c3:	0f be 55 fc          	movsbl -0x4(%rbp),%edx
    62c7:	8b 45 f8             	mov    -0x8(%rbp),%eax
    62ca:	be 7f 00 00 00       	mov    $0x7f,%esi
    62cf:	89 c1                	mov    %eax,%ecx
    62d1:	d3 fe                	sar    %cl,%esi
    62d3:	89 f0                	mov    %esi,%eax
    62d5:	39 c2                	cmp    %eax,%edx
    62d7:	7f 0f                	jg     62e8 <safe_lshift_func_int8_t_s_s+0x47>
    62d9:	0f be 55 fc          	movsbl -0x4(%rbp),%edx
    62dd:	8b 45 f8             	mov    -0x8(%rbp),%eax
    62e0:	89 c1                	mov    %eax,%ecx
    62e2:	d3 e2                	shl    %cl,%edx
    62e4:	89 d0                	mov    %edx,%eax
    62e6:	eb 04                	jmp    62ec <safe_lshift_func_int8_t_s_s+0x4b>
    62e8:	0f b6 45 fc          	movzbl -0x4(%rbp),%eax
    62ec:	5d                   	pop    %rbp
    62ed:	c3                   	retq   

00000000000062ee <safe_lshift_func_int8_t_s_u>:
    62ee:	f3 0f 1e fa          	endbr64 
    62f2:	55                   	push   %rbp
    62f3:	48 89 e5             	mov    %rsp,%rbp
    62f6:	89 f8                	mov    %edi,%eax
    62f8:	89 75 f8             	mov    %esi,-0x8(%rbp)
    62fb:	88 45 fc             	mov    %al,-0x4(%rbp)
    62fe:	80 7d fc 00          	cmpb   $0x0,-0x4(%rbp)
    6302:	78 2b                	js     632f <safe_lshift_func_int8_t_s_u+0x41>
    6304:	83 7d f8 1f          	cmpl   $0x1f,-0x8(%rbp)
    6308:	77 25                	ja     632f <safe_lshift_func_int8_t_s_u+0x41>
    630a:	0f be 55 fc          	movsbl -0x4(%rbp),%edx
    630e:	8b 45 f8             	mov    -0x8(%rbp),%eax
    6311:	be 7f 00 00 00       	mov    $0x7f,%esi
    6316:	89 c1                	mov    %eax,%ecx
    6318:	d3 fe                	sar    %cl,%esi
    631a:	89 f0                	mov    %esi,%eax
    631c:	39 c2                	cmp    %eax,%edx
    631e:	7f 0f                	jg     632f <safe_lshift_func_int8_t_s_u+0x41>
    6320:	0f be 55 fc          	movsbl -0x4(%rbp),%edx
    6324:	8b 45 f8             	mov    -0x8(%rbp),%eax
    6327:	89 c1                	mov    %eax,%ecx
    6329:	d3 e2                	shl    %cl,%edx
    632b:	89 d0                	mov    %edx,%eax
    632d:	eb 04                	jmp    6333 <safe_lshift_func_int8_t_s_u+0x45>
    632f:	0f b6 45 fc          	movzbl -0x4(%rbp),%eax
    6333:	5d                   	pop    %rbp
    6334:	c3                   	retq   

0000000000006335 <safe_rshift_func_int8_t_s_s>:
    6335:	f3 0f 1e fa          	endbr64 
    6339:	55                   	push   %rbp
    633a:	48 89 e5             	mov    %rsp,%rbp
    633d:	89 f8                	mov    %edi,%eax
    633f:	89 75 f8             	mov    %esi,-0x8(%rbp)
    6342:	88 45 fc             	mov    %al,-0x4(%rbp)
    6345:	80 7d fc 00          	cmpb   $0x0,-0x4(%rbp)
    6349:	78 1b                	js     6366 <safe_rshift_func_int8_t_s_s+0x31>
    634b:	83 7d f8 00          	cmpl   $0x0,-0x8(%rbp)
    634f:	78 15                	js     6366 <safe_rshift_func_int8_t_s_s+0x31>
    6351:	83 7d f8 1f          	cmpl   $0x1f,-0x8(%rbp)
    6355:	7f 0f                	jg     6366 <safe_rshift_func_int8_t_s_s+0x31>
    6357:	0f be 55 fc          	movsbl -0x4(%rbp),%edx
    635b:	8b 45 f8             	mov    -0x8(%rbp),%eax
    635e:	89 c1                	mov    %eax,%ecx
    6360:	d3 fa                	sar    %cl,%edx
    6362:	89 d0                	mov    %edx,%eax
    6364:	eb 04                	jmp    636a <safe_rshift_func_int8_t_s_s+0x35>
    6366:	0f b6 45 fc          	movzbl -0x4(%rbp),%eax
    636a:	5d                   	pop    %rbp
    636b:	c3                   	retq   

000000000000636c <safe_rshift_func_int8_t_s_u>:
    636c:	f3 0f 1e fa          	endbr64 
    6370:	55                   	push   %rbp
    6371:	48 89 e5             	mov    %rsp,%rbp
    6374:	89 f8                	mov    %edi,%eax
    6376:	89 75 f8             	mov    %esi,-0x8(%rbp)
    6379:	88 45 fc             	mov    %al,-0x4(%rbp)
    637c:	80 7d fc 00          	cmpb   $0x0,-0x4(%rbp)
    6380:	78 15                	js     6397 <safe_rshift_func_int8_t_s_u+0x2b>
    6382:	83 7d f8 1f          	cmpl   $0x1f,-0x8(%rbp)
    6386:	77 0f                	ja     6397 <safe_rshift_func_int8_t_s_u+0x2b>
    6388:	0f be 55 fc          	movsbl -0x4(%rbp),%edx
    638c:	8b 45 f8             	mov    -0x8(%rbp),%eax
    638f:	89 c1                	mov    %eax,%ecx
    6391:	d3 fa                	sar    %cl,%edx
    6393:	89 d0                	mov    %edx,%eax
    6395:	eb 04                	jmp    639b <safe_rshift_func_int8_t_s_u+0x2f>
    6397:	0f b6 45 fc          	movzbl -0x4(%rbp),%eax
    639b:	5d                   	pop    %rbp
    639c:	c3                   	retq   

000000000000639d <safe_unary_minus_func_int16_t_s>:
    639d:	f3 0f 1e fa          	endbr64 
    63a1:	55                   	push   %rbp
    63a2:	48 89 e5             	mov    %rsp,%rbp
    63a5:	89 f8                	mov    %edi,%eax
    63a7:	66 89 45 fc          	mov    %ax,-0x4(%rbp)
    63ab:	0f b7 45 fc          	movzwl -0x4(%rbp),%eax
    63af:	f7 d8                	neg    %eax
    63b1:	5d                   	pop    %rbp
    63b2:	c3                   	retq   

00000000000063b3 <safe_add_func_int16_t_s_s>:
    63b3:	f3 0f 1e fa          	endbr64 
    63b7:	55                   	push   %rbp
    63b8:	48 89 e5             	mov    %rsp,%rbp
    63bb:	89 fa                	mov    %edi,%edx
    63bd:	89 f0                	mov    %esi,%eax
    63bf:	66 89 55 fc          	mov    %dx,-0x4(%rbp)
    63c3:	66 89 45 f8          	mov    %ax,-0x8(%rbp)
    63c7:	0f b7 55 fc          	movzwl -0x4(%rbp),%edx
    63cb:	0f b7 45 f8          	movzwl -0x8(%rbp),%eax
    63cf:	01 d0                	add    %edx,%eax
    63d1:	5d                   	pop    %rbp
    63d2:	c3                   	retq   

00000000000063d3 <safe_sub_func_int16_t_s_s>:
    63d3:	f3 0f 1e fa          	endbr64 
    63d7:	55                   	push   %rbp
    63d8:	48 89 e5             	mov    %rsp,%rbp
    63db:	89 fa                	mov    %edi,%edx
    63dd:	89 f0                	mov    %esi,%eax
    63df:	66 89 55 fc          	mov    %dx,-0x4(%rbp)
    63e3:	66 89 45 f8          	mov    %ax,-0x8(%rbp)
    63e7:	0f b7 55 fc          	movzwl -0x4(%rbp),%edx
    63eb:	0f b7 45 f8          	movzwl -0x8(%rbp),%eax
    63ef:	29 c2                	sub    %eax,%edx
    63f1:	89 d0                	mov    %edx,%eax
    63f3:	5d                   	pop    %rbp
    63f4:	c3                   	retq   

00000000000063f5 <safe_mul_func_int16_t_s_s>:
    63f5:	f3 0f 1e fa          	endbr64 
    63f9:	55                   	push   %rbp
    63fa:	48 89 e5             	mov    %rsp,%rbp
    63fd:	89 fa                	mov    %edi,%edx
    63ff:	89 f0                	mov    %esi,%eax
    6401:	66 89 55 fc          	mov    %dx,-0x4(%rbp)
    6405:	66 89 45 f8          	mov    %ax,-0x8(%rbp)
    6409:	0f b7 55 fc          	movzwl -0x4(%rbp),%edx
    640d:	0f b7 45 f8          	movzwl -0x8(%rbp),%eax
    6411:	0f af c2             	imul   %edx,%eax
    6414:	5d                   	pop    %rbp
    6415:	c3                   	retq   

0000000000006416 <safe_mod_func_int16_t_s_s>:
    6416:	f3 0f 1e fa          	endbr64 
    641a:	55                   	push   %rbp
    641b:	48 89 e5             	mov    %rsp,%rbp
    641e:	89 fa                	mov    %edi,%edx
    6420:	89 f0                	mov    %esi,%eax
    6422:	66 89 55 fc          	mov    %dx,-0x4(%rbp)
    6426:	66 89 45 f8          	mov    %ax,-0x8(%rbp)
    642a:	66 83 7d f8 00       	cmpw   $0x0,-0x8(%rbp)
    642f:	74 1e                	je     644f <safe_mod_func_int16_t_s_s+0x39>
    6431:	66 81 7d fc 00 80    	cmpw   $0x8000,-0x4(%rbp)
    6437:	75 07                	jne    6440 <safe_mod_func_int16_t_s_s+0x2a>
    6439:	66 83 7d f8 ff       	cmpw   $0xffff,-0x8(%rbp)
    643e:	74 0f                	je     644f <safe_mod_func_int16_t_s_s+0x39>
    6440:	0f bf 45 fc          	movswl -0x4(%rbp),%eax
    6444:	0f bf 4d f8          	movswl -0x8(%rbp),%ecx
    6448:	99                   	cltd   
    6449:	f7 f9                	idiv   %ecx
    644b:	89 d0                	mov    %edx,%eax
    644d:	eb 04                	jmp    6453 <safe_mod_func_int16_t_s_s+0x3d>
    644f:	0f b7 45 fc          	movzwl -0x4(%rbp),%eax
    6453:	5d                   	pop    %rbp
    6454:	c3                   	retq   

0000000000006455 <safe_div_func_int16_t_s_s>:
    6455:	f3 0f 1e fa          	endbr64 
    6459:	55                   	push   %rbp
    645a:	48 89 e5             	mov    %rsp,%rbp
    645d:	89 fa                	mov    %edi,%edx
    645f:	89 f0                	mov    %esi,%eax
    6461:	66 89 55 fc          	mov    %dx,-0x4(%rbp)
    6465:	66 89 45 f8          	mov    %ax,-0x8(%rbp)
    6469:	66 83 7d f8 00       	cmpw   $0x0,-0x8(%rbp)
    646e:	74 1c                	je     648c <safe_div_func_int16_t_s_s+0x37>
    6470:	66 81 7d fc 00 80    	cmpw   $0x8000,-0x4(%rbp)
    6476:	75 07                	jne    647f <safe_div_func_int16_t_s_s+0x2a>
    6478:	66 83 7d f8 ff       	cmpw   $0xffff,-0x8(%rbp)
    647d:	74 0d                	je     648c <safe_div_func_int16_t_s_s+0x37>
    647f:	0f bf 45 fc          	movswl -0x4(%rbp),%eax
    6483:	0f bf 4d f8          	movswl -0x8(%rbp),%ecx
    6487:	99                   	cltd   
    6488:	f7 f9                	idiv   %ecx
    648a:	eb 04                	jmp    6490 <safe_div_func_int16_t_s_s+0x3b>
    648c:	0f b7 45 fc          	movzwl -0x4(%rbp),%eax
    6490:	5d                   	pop    %rbp
    6491:	c3                   	retq   

0000000000006492 <safe_lshift_func_int16_t_s_s>:
    6492:	f3 0f 1e fa          	endbr64 
    6496:	55                   	push   %rbp
    6497:	48 89 e5             	mov    %rsp,%rbp
    649a:	89 f8                	mov    %edi,%eax
    649c:	89 75 f8             	mov    %esi,-0x8(%rbp)
    649f:	66 89 45 fc          	mov    %ax,-0x4(%rbp)
    64a3:	66 83 7d fc 00       	cmpw   $0x0,-0x4(%rbp)
    64a8:	78 31                	js     64db <safe_lshift_func_int16_t_s_s+0x49>
    64aa:	83 7d f8 00          	cmpl   $0x0,-0x8(%rbp)
    64ae:	78 2b                	js     64db <safe_lshift_func_int16_t_s_s+0x49>
    64b0:	83 7d f8 1f          	cmpl   $0x1f,-0x8(%rbp)
    64b4:	7f 25                	jg     64db <safe_lshift_func_int16_t_s_s+0x49>
    64b6:	0f bf 55 fc          	movswl -0x4(%rbp),%edx
    64ba:	8b 45 f8             	mov    -0x8(%rbp),%eax
    64bd:	be ff 7f 00 00       	mov    $0x7fff,%esi
    64c2:	89 c1                	mov    %eax,%ecx
    64c4:	d3 fe                	sar    %cl,%esi
    64c6:	89 f0                	mov    %esi,%eax
    64c8:	39 c2                	cmp    %eax,%edx
    64ca:	7f 0f                	jg     64db <safe_lshift_func_int16_t_s_s+0x49>
    64cc:	0f bf 55 fc          	movswl -0x4(%rbp),%edx
    64d0:	8b 45 f8             	mov    -0x8(%rbp),%eax
    64d3:	89 c1                	mov    %eax,%ecx
    64d5:	d3 e2                	shl    %cl,%edx
    64d7:	89 d0                	mov    %edx,%eax
    64d9:	eb 04                	jmp    64df <safe_lshift_func_int16_t_s_s+0x4d>
    64db:	0f b7 45 fc          	movzwl -0x4(%rbp),%eax
    64df:	5d                   	pop    %rbp
    64e0:	c3                   	retq   

00000000000064e1 <safe_lshift_func_int16_t_s_u>:
    64e1:	f3 0f 1e fa          	endbr64 
    64e5:	55                   	push   %rbp
    64e6:	48 89 e5             	mov    %rsp,%rbp
    64e9:	89 f8                	mov    %edi,%eax
    64eb:	89 75 f8             	mov    %esi,-0x8(%rbp)
    64ee:	66 89 45 fc          	mov    %ax,-0x4(%rbp)
    64f2:	66 83 7d fc 00       	cmpw   $0x0,-0x4(%rbp)
    64f7:	78 2b                	js     6524 <safe_lshift_func_int16_t_s_u+0x43>
    64f9:	83 7d f8 1f          	cmpl   $0x1f,-0x8(%rbp)
    64fd:	77 25                	ja     6524 <safe_lshift_func_int16_t_s_u+0x43>
    64ff:	0f bf 55 fc          	movswl -0x4(%rbp),%edx
    6503:	8b 45 f8             	mov    -0x8(%rbp),%eax
    6506:	be ff 7f 00 00       	mov    $0x7fff,%esi
    650b:	89 c1                	mov    %eax,%ecx
    650d:	d3 fe                	sar    %cl,%esi
    650f:	89 f0                	mov    %esi,%eax
    6511:	39 c2                	cmp    %eax,%edx
    6513:	7f 0f                	jg     6524 <safe_lshift_func_int16_t_s_u+0x43>
    6515:	0f bf 55 fc          	movswl -0x4(%rbp),%edx
    6519:	8b 45 f8             	mov    -0x8(%rbp),%eax
    651c:	89 c1                	mov    %eax,%ecx
    651e:	d3 e2                	shl    %cl,%edx
    6520:	89 d0                	mov    %edx,%eax
    6522:	eb 04                	jmp    6528 <safe_lshift_func_int16_t_s_u+0x47>
    6524:	0f b7 45 fc          	movzwl -0x4(%rbp),%eax
    6528:	5d                   	pop    %rbp
    6529:	c3                   	retq   

000000000000652a <safe_rshift_func_int16_t_s_s>:
    652a:	f3 0f 1e fa          	endbr64 
    652e:	55                   	push   %rbp
    652f:	48 89 e5             	mov    %rsp,%rbp
    6532:	89 f8                	mov    %edi,%eax
    6534:	89 75 f8             	mov    %esi,-0x8(%rbp)
    6537:	66 89 45 fc          	mov    %ax,-0x4(%rbp)
    653b:	66 83 7d fc 00       	cmpw   $0x0,-0x4(%rbp)
    6540:	78 1b                	js     655d <safe_rshift_func_int16_t_s_s+0x33>
    6542:	83 7d f8 00          	cmpl   $0x0,-0x8(%rbp)
    6546:	78 15                	js     655d <safe_rshift_func_int16_t_s_s+0x33>
    6548:	83 7d f8 1f          	cmpl   $0x1f,-0x8(%rbp)
    654c:	7f 0f                	jg     655d <safe_rshift_func_int16_t_s_s+0x33>
    654e:	0f bf 55 fc          	movswl -0x4(%rbp),%edx
    6552:	8b 45 f8             	mov    -0x8(%rbp),%eax
    6555:	89 c1                	mov    %eax,%ecx
    6557:	d3 fa                	sar    %cl,%edx
    6559:	89 d0                	mov    %edx,%eax
    655b:	eb 04                	jmp    6561 <safe_rshift_func_int16_t_s_s+0x37>
    655d:	0f b7 45 fc          	movzwl -0x4(%rbp),%eax
    6561:	5d                   	pop    %rbp
    6562:	c3                   	retq   

0000000000006563 <safe_rshift_func_int16_t_s_u>:
    6563:	f3 0f 1e fa          	endbr64 
    6567:	55                   	push   %rbp
    6568:	48 89 e5             	mov    %rsp,%rbp
    656b:	89 f8                	mov    %edi,%eax
    656d:	89 75 f8             	mov    %esi,-0x8(%rbp)
    6570:	66 89 45 fc          	mov    %ax,-0x4(%rbp)
    6574:	66 83 7d fc 00       	cmpw   $0x0,-0x4(%rbp)
    6579:	78 15                	js     6590 <safe_rshift_func_int16_t_s_u+0x2d>
    657b:	83 7d f8 1f          	cmpl   $0x1f,-0x8(%rbp)
    657f:	77 0f                	ja     6590 <safe_rshift_func_int16_t_s_u+0x2d>
    6581:	0f bf 55 fc          	movswl -0x4(%rbp),%edx
    6585:	8b 45 f8             	mov    -0x8(%rbp),%eax
    6588:	89 c1                	mov    %eax,%ecx
    658a:	d3 fa                	sar    %cl,%edx
    658c:	89 d0                	mov    %edx,%eax
    658e:	eb 04                	jmp    6594 <safe_rshift_func_int16_t_s_u+0x31>
    6590:	0f b7 45 fc          	movzwl -0x4(%rbp),%eax
    6594:	5d                   	pop    %rbp
    6595:	c3                   	retq   

0000000000006596 <safe_unary_minus_func_int32_t_s>:
    6596:	f3 0f 1e fa          	endbr64 
    659a:	55                   	push   %rbp
    659b:	48 89 e5             	mov    %rsp,%rbp
    659e:	89 7d fc             	mov    %edi,-0x4(%rbp)
    65a1:	81 7d fc 00 00 00 80 	cmpl   $0x80000000,-0x4(%rbp)
    65a8:	74 07                	je     65b1 <safe_unary_minus_func_int32_t_s+0x1b>
    65aa:	8b 45 fc             	mov    -0x4(%rbp),%eax
    65ad:	f7 d8                	neg    %eax
    65af:	eb 03                	jmp    65b4 <safe_unary_minus_func_int32_t_s+0x1e>
    65b1:	8b 45 fc             	mov    -0x4(%rbp),%eax
    65b4:	5d                   	pop    %rbp
    65b5:	c3                   	retq   

00000000000065b6 <safe_add_func_int32_t_s_s>:
    65b6:	f3 0f 1e fa          	endbr64 
    65ba:	55                   	push   %rbp
    65bb:	48 89 e5             	mov    %rsp,%rbp
    65be:	89 7d fc             	mov    %edi,-0x4(%rbp)
    65c1:	89 75 f8             	mov    %esi,-0x8(%rbp)
    65c4:	83 7d fc 00          	cmpl   $0x0,-0x4(%rbp)
    65c8:	7e 13                	jle    65dd <safe_add_func_int32_t_s_s+0x27>
    65ca:	83 7d f8 00          	cmpl   $0x0,-0x8(%rbp)
    65ce:	7e 0d                	jle    65dd <safe_add_func_int32_t_s_s+0x27>
    65d0:	b8 ff ff ff 7f       	mov    $0x7fffffff,%eax
    65d5:	2b 45 f8             	sub    -0x8(%rbp),%eax
    65d8:	39 45 fc             	cmp    %eax,-0x4(%rbp)
    65db:	7f 23                	jg     6600 <safe_add_func_int32_t_s_s+0x4a>
    65dd:	83 7d fc 00          	cmpl   $0x0,-0x4(%rbp)
    65e1:	79 13                	jns    65f6 <safe_add_func_int32_t_s_s+0x40>
    65e3:	83 7d f8 00          	cmpl   $0x0,-0x8(%rbp)
    65e7:	79 0d                	jns    65f6 <safe_add_func_int32_t_s_s+0x40>
    65e9:	b8 00 00 00 80       	mov    $0x80000000,%eax
    65ee:	2b 45 f8             	sub    -0x8(%rbp),%eax
    65f1:	39 45 fc             	cmp    %eax,-0x4(%rbp)
    65f4:	7c 0a                	jl     6600 <safe_add_func_int32_t_s_s+0x4a>
    65f6:	8b 55 fc             	mov    -0x4(%rbp),%edx
    65f9:	8b 45 f8             	mov    -0x8(%rbp),%eax
    65fc:	01 d0                	add    %edx,%eax
    65fe:	eb 03                	jmp    6603 <safe_add_func_int32_t_s_s+0x4d>
    6600:	8b 45 fc             	mov    -0x4(%rbp),%eax
    6603:	5d                   	pop    %rbp
    6604:	c3                   	retq   

0000000000006605 <safe_sub_func_int32_t_s_s>:
    6605:	f3 0f 1e fa          	endbr64 
    6609:	55                   	push   %rbp
    660a:	48 89 e5             	mov    %rsp,%rbp
    660d:	89 7d fc             	mov    %edi,-0x4(%rbp)
    6610:	89 75 f8             	mov    %esi,-0x8(%rbp)
    6613:	8b 45 fc             	mov    -0x4(%rbp),%eax
    6616:	33 45 f8             	xor    -0x8(%rbp),%eax
    6619:	89 c2                	mov    %eax,%edx
    661b:	8b 45 fc             	mov    -0x4(%rbp),%eax
    661e:	33 45 f8             	xor    -0x8(%rbp),%eax
    6621:	25 00 00 00 80       	and    $0x80000000,%eax
    6626:	33 45 fc             	xor    -0x4(%rbp),%eax
    6629:	2b 45 f8             	sub    -0x8(%rbp),%eax
    662c:	33 45 f8             	xor    -0x8(%rbp),%eax
    662f:	21 d0                	and    %edx,%eax
    6631:	85 c0                	test   %eax,%eax
    6633:	78 08                	js     663d <safe_sub_func_int32_t_s_s+0x38>
    6635:	8b 45 fc             	mov    -0x4(%rbp),%eax
    6638:	2b 45 f8             	sub    -0x8(%rbp),%eax
    663b:	eb 03                	jmp    6640 <safe_sub_func_int32_t_s_s+0x3b>
    663d:	8b 45 fc             	mov    -0x4(%rbp),%eax
    6640:	5d                   	pop    %rbp
    6641:	c3                   	retq   

0000000000006642 <safe_mul_func_int32_t_s_s>:
    6642:	f3 0f 1e fa          	endbr64 
    6646:	55                   	push   %rbp
    6647:	48 89 e5             	mov    %rsp,%rbp
    664a:	89 7d fc             	mov    %edi,-0x4(%rbp)
    664d:	89 75 f8             	mov    %esi,-0x8(%rbp)
    6650:	83 7d fc 00          	cmpl   $0x0,-0x4(%rbp)
    6654:	7e 14                	jle    666a <safe_mul_func_int32_t_s_s+0x28>
    6656:	83 7d f8 00          	cmpl   $0x0,-0x8(%rbp)
    665a:	7e 0e                	jle    666a <safe_mul_func_int32_t_s_s+0x28>
    665c:	b8 ff ff ff 7f       	mov    $0x7fffffff,%eax
    6661:	99                   	cltd   
    6662:	f7 7d f8             	idivl  -0x8(%rbp)
    6665:	39 45 fc             	cmp    %eax,-0x4(%rbp)
    6668:	7f 5d                	jg     66c7 <safe_mul_func_int32_t_s_s+0x85>
    666a:	83 7d fc 00          	cmpl   $0x0,-0x4(%rbp)
    666e:	7e 14                	jle    6684 <safe_mul_func_int32_t_s_s+0x42>
    6670:	83 7d f8 00          	cmpl   $0x0,-0x8(%rbp)
    6674:	7f 0e                	jg     6684 <safe_mul_func_int32_t_s_s+0x42>
    6676:	b8 00 00 00 80       	mov    $0x80000000,%eax
    667b:	99                   	cltd   
    667c:	f7 7d fc             	idivl  -0x4(%rbp)
    667f:	39 45 f8             	cmp    %eax,-0x8(%rbp)
    6682:	7c 43                	jl     66c7 <safe_mul_func_int32_t_s_s+0x85>
    6684:	83 7d fc 00          	cmpl   $0x0,-0x4(%rbp)
    6688:	7f 14                	jg     669e <safe_mul_func_int32_t_s_s+0x5c>
    668a:	83 7d f8 00          	cmpl   $0x0,-0x8(%rbp)
    668e:	7e 0e                	jle    669e <safe_mul_func_int32_t_s_s+0x5c>
    6690:	b8 00 00 00 80       	mov    $0x80000000,%eax
    6695:	99                   	cltd   
    6696:	f7 7d f8             	idivl  -0x8(%rbp)
    6699:	39 45 fc             	cmp    %eax,-0x4(%rbp)
    669c:	7c 29                	jl     66c7 <safe_mul_func_int32_t_s_s+0x85>
    669e:	83 7d fc 00          	cmpl   $0x0,-0x4(%rbp)
    66a2:	7f 1a                	jg     66be <safe_mul_func_int32_t_s_s+0x7c>
    66a4:	83 7d f8 00          	cmpl   $0x0,-0x8(%rbp)
    66a8:	7f 14                	jg     66be <safe_mul_func_int32_t_s_s+0x7c>
    66aa:	83 7d fc 00          	cmpl   $0x0,-0x4(%rbp)
    66ae:	74 0e                	je     66be <safe_mul_func_int32_t_s_s+0x7c>
    66b0:	b8 ff ff ff 7f       	mov    $0x7fffffff,%eax
    66b5:	99                   	cltd   
    66b6:	f7 7d fc             	idivl  -0x4(%rbp)
    66b9:	39 45 f8             	cmp    %eax,-0x8(%rbp)
    66bc:	7c 09                	jl     66c7 <safe_mul_func_int32_t_s_s+0x85>
    66be:	8b 45 fc             	mov    -0x4(%rbp),%eax
    66c1:	0f af 45 f8          	imul   -0x8(%rbp),%eax
    66c5:	eb 03                	jmp    66ca <safe_mul_func_int32_t_s_s+0x88>
    66c7:	8b 45 fc             	mov    -0x4(%rbp),%eax
    66ca:	5d                   	pop    %rbp
    66cb:	c3                   	retq   

00000000000066cc <safe_mod_func_int32_t_s_s>:
    66cc:	f3 0f 1e fa          	endbr64 
    66d0:	55                   	push   %rbp
    66d1:	48 89 e5             	mov    %rsp,%rbp
    66d4:	89 7d fc             	mov    %edi,-0x4(%rbp)
    66d7:	89 75 f8             	mov    %esi,-0x8(%rbp)
    66da:	83 7d f8 00          	cmpl   $0x0,-0x8(%rbp)
    66de:	74 1a                	je     66fa <safe_mod_func_int32_t_s_s+0x2e>
    66e0:	81 7d fc 00 00 00 80 	cmpl   $0x80000000,-0x4(%rbp)
    66e7:	75 06                	jne    66ef <safe_mod_func_int32_t_s_s+0x23>
    66e9:	83 7d f8 ff          	cmpl   $0xffffffff,-0x8(%rbp)
    66ed:	74 0b                	je     66fa <safe_mod_func_int32_t_s_s+0x2e>
    66ef:	8b 45 fc             	mov    -0x4(%rbp),%eax
    66f2:	99                   	cltd   
    66f3:	f7 7d f8             	idivl  -0x8(%rbp)
    66f6:	89 d0                	mov    %edx,%eax
    66f8:	eb 03                	jmp    66fd <safe_mod_func_int32_t_s_s+0x31>
    66fa:	8b 45 fc             	mov    -0x4(%rbp),%eax
    66fd:	5d                   	pop    %rbp
    66fe:	c3                   	retq   

00000000000066ff <safe_div_func_int32_t_s_s>:
    66ff:	f3 0f 1e fa          	endbr64 
    6703:	55                   	push   %rbp
    6704:	48 89 e5             	mov    %rsp,%rbp
    6707:	89 7d fc             	mov    %edi,-0x4(%rbp)
    670a:	89 75 f8             	mov    %esi,-0x8(%rbp)
    670d:	83 7d f8 00          	cmpl   $0x0,-0x8(%rbp)
    6711:	74 18                	je     672b <safe_div_func_int32_t_s_s+0x2c>
    6713:	81 7d fc 00 00 00 80 	cmpl   $0x80000000,-0x4(%rbp)
    671a:	75 06                	jne    6722 <safe_div_func_int32_t_s_s+0x23>
    671c:	83 7d f8 ff          	cmpl   $0xffffffff,-0x8(%rbp)
    6720:	74 09                	je     672b <safe_div_func_int32_t_s_s+0x2c>
    6722:	8b 45 fc             	mov    -0x4(%rbp),%eax
    6725:	99                   	cltd   
    6726:	f7 7d f8             	idivl  -0x8(%rbp)
    6729:	eb 03                	jmp    672e <safe_div_func_int32_t_s_s+0x2f>
    672b:	8b 45 fc             	mov    -0x4(%rbp),%eax
    672e:	5d                   	pop    %rbp
    672f:	c3                   	retq   

0000000000006730 <safe_lshift_func_int32_t_s_s>:
    6730:	f3 0f 1e fa          	endbr64 
    6734:	55                   	push   %rbp
    6735:	48 89 e5             	mov    %rsp,%rbp
    6738:	89 7d fc             	mov    %edi,-0x4(%rbp)
    673b:	89 75 f8             	mov    %esi,-0x8(%rbp)
    673e:	83 7d fc 00          	cmpl   $0x0,-0x4(%rbp)
    6742:	78 2d                	js     6771 <safe_lshift_func_int32_t_s_s+0x41>
    6744:	83 7d f8 00          	cmpl   $0x0,-0x8(%rbp)
    6748:	78 27                	js     6771 <safe_lshift_func_int32_t_s_s+0x41>
    674a:	83 7d f8 1f          	cmpl   $0x1f,-0x8(%rbp)
    674e:	7f 21                	jg     6771 <safe_lshift_func_int32_t_s_s+0x41>
    6750:	8b 45 f8             	mov    -0x8(%rbp),%eax
    6753:	ba ff ff ff 7f       	mov    $0x7fffffff,%edx
    6758:	89 c1                	mov    %eax,%ecx
    675a:	d3 fa                	sar    %cl,%edx
    675c:	89 d0                	mov    %edx,%eax
    675e:	39 45 fc             	cmp    %eax,-0x4(%rbp)
    6761:	7f 0e                	jg     6771 <safe_lshift_func_int32_t_s_s+0x41>
    6763:	8b 45 f8             	mov    -0x8(%rbp),%eax
    6766:	8b 55 fc             	mov    -0x4(%rbp),%edx
    6769:	89 c1                	mov    %eax,%ecx
    676b:	d3 e2                	shl    %cl,%edx
    676d:	89 d0                	mov    %edx,%eax
    676f:	eb 03                	jmp    6774 <safe_lshift_func_int32_t_s_s+0x44>
    6771:	8b 45 fc             	mov    -0x4(%rbp),%eax
    6774:	5d                   	pop    %rbp
    6775:	c3                   	retq   

0000000000006776 <safe_lshift_func_int32_t_s_u>:
    6776:	f3 0f 1e fa          	endbr64 
    677a:	55                   	push   %rbp
    677b:	48 89 e5             	mov    %rsp,%rbp
    677e:	89 7d fc             	mov    %edi,-0x4(%rbp)
    6781:	89 75 f8             	mov    %esi,-0x8(%rbp)
    6784:	83 7d fc 00          	cmpl   $0x0,-0x4(%rbp)
    6788:	78 27                	js     67b1 <safe_lshift_func_int32_t_s_u+0x3b>
    678a:	83 7d f8 1f          	cmpl   $0x1f,-0x8(%rbp)
    678e:	77 21                	ja     67b1 <safe_lshift_func_int32_t_s_u+0x3b>
    6790:	8b 45 f8             	mov    -0x8(%rbp),%eax
    6793:	ba ff ff ff 7f       	mov    $0x7fffffff,%edx
    6798:	89 c1                	mov    %eax,%ecx
    679a:	d3 fa                	sar    %cl,%edx
    679c:	89 d0                	mov    %edx,%eax
    679e:	39 45 fc             	cmp    %eax,-0x4(%rbp)
    67a1:	7f 0e                	jg     67b1 <safe_lshift_func_int32_t_s_u+0x3b>
    67a3:	8b 45 f8             	mov    -0x8(%rbp),%eax
    67a6:	8b 55 fc             	mov    -0x4(%rbp),%edx
    67a9:	89 c1                	mov    %eax,%ecx
    67ab:	d3 e2                	shl    %cl,%edx
    67ad:	89 d0                	mov    %edx,%eax
    67af:	eb 03                	jmp    67b4 <safe_lshift_func_int32_t_s_u+0x3e>
    67b1:	8b 45 fc             	mov    -0x4(%rbp),%eax
    67b4:	5d                   	pop    %rbp
    67b5:	c3                   	retq   

00000000000067b6 <safe_rshift_func_int32_t_s_s>:
    67b6:	f3 0f 1e fa          	endbr64 
    67ba:	55                   	push   %rbp
    67bb:	48 89 e5             	mov    %rsp,%rbp
    67be:	89 7d fc             	mov    %edi,-0x4(%rbp)
    67c1:	89 75 f8             	mov    %esi,-0x8(%rbp)
    67c4:	83 7d fc 00          	cmpl   $0x0,-0x4(%rbp)
    67c8:	78 1a                	js     67e4 <safe_rshift_func_int32_t_s_s+0x2e>
    67ca:	83 7d f8 00          	cmpl   $0x0,-0x8(%rbp)
    67ce:	78 14                	js     67e4 <safe_rshift_func_int32_t_s_s+0x2e>
    67d0:	83 7d f8 1f          	cmpl   $0x1f,-0x8(%rbp)
    67d4:	7f 0e                	jg     67e4 <safe_rshift_func_int32_t_s_s+0x2e>
    67d6:	8b 45 f8             	mov    -0x8(%rbp),%eax
    67d9:	8b 55 fc             	mov    -0x4(%rbp),%edx
    67dc:	89 c1                	mov    %eax,%ecx
    67de:	d3 fa                	sar    %cl,%edx
    67e0:	89 d0                	mov    %edx,%eax
    67e2:	eb 03                	jmp    67e7 <safe_rshift_func_int32_t_s_s+0x31>
    67e4:	8b 45 fc             	mov    -0x4(%rbp),%eax
    67e7:	5d                   	pop    %rbp
    67e8:	c3                   	retq   

00000000000067e9 <safe_rshift_func_int32_t_s_u>:
    67e9:	f3 0f 1e fa          	endbr64 
    67ed:	55                   	push   %rbp
    67ee:	48 89 e5             	mov    %rsp,%rbp
    67f1:	89 7d fc             	mov    %edi,-0x4(%rbp)
    67f4:	89 75 f8             	mov    %esi,-0x8(%rbp)
    67f7:	83 7d fc 00          	cmpl   $0x0,-0x4(%rbp)
    67fb:	78 14                	js     6811 <safe_rshift_func_int32_t_s_u+0x28>
    67fd:	83 7d f8 1f          	cmpl   $0x1f,-0x8(%rbp)
    6801:	77 0e                	ja     6811 <safe_rshift_func_int32_t_s_u+0x28>
    6803:	8b 45 f8             	mov    -0x8(%rbp),%eax
    6806:	8b 55 fc             	mov    -0x4(%rbp),%edx
    6809:	89 c1                	mov    %eax,%ecx
    680b:	d3 fa                	sar    %cl,%edx
    680d:	89 d0                	mov    %edx,%eax
    680f:	eb 03                	jmp    6814 <safe_rshift_func_int32_t_s_u+0x2b>
    6811:	8b 45 fc             	mov    -0x4(%rbp),%eax
    6814:	5d                   	pop    %rbp
    6815:	c3                   	retq   

0000000000006816 <safe_unary_minus_func_int64_t_s>:
    6816:	f3 0f 1e fa          	endbr64 
    681a:	55                   	push   %rbp
    681b:	48 89 e5             	mov    %rsp,%rbp
    681e:	48 89 7d f8          	mov    %rdi,-0x8(%rbp)
    6822:	48 b8 00 00 00 00 00 	movabs $0x8000000000000000,%rax
    6829:	00 00 80 
    682c:	48 39 45 f8          	cmp    %rax,-0x8(%rbp)
    6830:	74 09                	je     683b <safe_unary_minus_func_int64_t_s+0x25>
    6832:	48 8b 45 f8          	mov    -0x8(%rbp),%rax
    6836:	48 f7 d8             	neg    %rax
    6839:	eb 04                	jmp    683f <safe_unary_minus_func_int64_t_s+0x29>
    683b:	48 8b 45 f8          	mov    -0x8(%rbp),%rax
    683f:	5d                   	pop    %rbp
    6840:	c3                   	retq   

0000000000006841 <safe_add_func_int64_t_s_s>:
    6841:	f3 0f 1e fa          	endbr64 
    6845:	55                   	push   %rbp
    6846:	48 89 e5             	mov    %rsp,%rbp
    6849:	48 89 7d f8          	mov    %rdi,-0x8(%rbp)
    684d:	48 89 75 f0          	mov    %rsi,-0x10(%rbp)
    6851:	48 83 7d f8 00       	cmpq   $0x0,-0x8(%rbp)
    6856:	7e 1b                	jle    6873 <safe_add_func_int64_t_s_s+0x32>
    6858:	48 83 7d f0 00       	cmpq   $0x0,-0x10(%rbp)
    685d:	7e 14                	jle    6873 <safe_add_func_int64_t_s_s+0x32>
    685f:	48 b8 ff ff ff ff ff 	movabs $0x7fffffffffffffff,%rax
    6866:	ff ff 7f 
    6869:	48 2b 45 f0          	sub    -0x10(%rbp),%rax
    686d:	48 39 45 f8          	cmp    %rax,-0x8(%rbp)
    6871:	7f 2f                	jg     68a2 <safe_add_func_int64_t_s_s+0x61>
    6873:	48 83 7d f8 00       	cmpq   $0x0,-0x8(%rbp)
    6878:	79 1b                	jns    6895 <safe_add_func_int64_t_s_s+0x54>
    687a:	48 83 7d f0 00       	cmpq   $0x0,-0x10(%rbp)
    687f:	79 14                	jns    6895 <safe_add_func_int64_t_s_s+0x54>
    6881:	48 b8 00 00 00 00 00 	movabs $0x8000000000000000,%rax
    6888:	00 00 80 
    688b:	48 2b 45 f0          	sub    -0x10(%rbp),%rax
    688f:	48 39 45 f8          	cmp    %rax,-0x8(%rbp)
    6893:	7c 0d                	jl     68a2 <safe_add_func_int64_t_s_s+0x61>
    6895:	48 8b 55 f8          	mov    -0x8(%rbp),%rdx
    6899:	48 8b 45 f0          	mov    -0x10(%rbp),%rax
    689d:	48 01 d0             	add    %rdx,%rax
    68a0:	eb 04                	jmp    68a6 <safe_add_func_int64_t_s_s+0x65>
    68a2:	48 8b 45 f8          	mov    -0x8(%rbp),%rax
    68a6:	5d                   	pop    %rbp
    68a7:	c3                   	retq   

00000000000068a8 <safe_sub_func_int64_t_s_s>:
    68a8:	f3 0f 1e fa          	endbr64 
    68ac:	55                   	push   %rbp
    68ad:	48 89 e5             	mov    %rsp,%rbp
    68b0:	48 89 7d f8          	mov    %rdi,-0x8(%rbp)
    68b4:	48 89 75 f0          	mov    %rsi,-0x10(%rbp)
    68b8:	48 8b 45 f8          	mov    -0x8(%rbp),%rax
    68bc:	48 33 45 f0          	xor    -0x10(%rbp),%rax
    68c0:	48 89 c2             	mov    %rax,%rdx
    68c3:	48 8b 45 f8          	mov    -0x8(%rbp),%rax
    68c7:	48 33 45 f0          	xor    -0x10(%rbp),%rax
    68cb:	48 b9 00 00 00 00 00 	movabs $0x8000000000000000,%rcx
    68d2:	00 00 80 
    68d5:	48 21 c8             	and    %rcx,%rax
    68d8:	48 33 45 f8          	xor    -0x8(%rbp),%rax
    68dc:	48 2b 45 f0          	sub    -0x10(%rbp),%rax
    68e0:	48 33 45 f0          	xor    -0x10(%rbp),%rax
    68e4:	48 21 d0             	and    %rdx,%rax
    68e7:	48 85 c0             	test   %rax,%rax
    68ea:	78 0a                	js     68f6 <safe_sub_func_int64_t_s_s+0x4e>
    68ec:	48 8b 45 f8          	mov    -0x8(%rbp),%rax
    68f0:	48 2b 45 f0          	sub    -0x10(%rbp),%rax
    68f4:	eb 04                	jmp    68fa <safe_sub_func_int64_t_s_s+0x52>
    68f6:	48 8b 45 f8          	mov    -0x8(%rbp),%rax
    68fa:	5d                   	pop    %rbp
    68fb:	c3                   	retq   

00000000000068fc <safe_mul_func_int64_t_s_s>:
    68fc:	f3 0f 1e fa          	endbr64 
    6900:	55                   	push   %rbp
    6901:	48 89 e5             	mov    %rsp,%rbp
    6904:	48 89 7d f8          	mov    %rdi,-0x8(%rbp)
    6908:	48 89 75 f0          	mov    %rsi,-0x10(%rbp)
    690c:	48 83 7d f8 00       	cmpq   $0x0,-0x8(%rbp)
    6911:	7e 1d                	jle    6930 <safe_mul_func_int64_t_s_s+0x34>
    6913:	48 83 7d f0 00       	cmpq   $0x0,-0x10(%rbp)
    6918:	7e 16                	jle    6930 <safe_mul_func_int64_t_s_s+0x34>
    691a:	48 b8 ff ff ff ff ff 	movabs $0x7fffffffffffffff,%rax
    6921:	ff ff 7f 
    6924:	48 99                	cqto   
    6926:	48 f7 7d f0          	idivq  -0x10(%rbp)
    692a:	48 39 45 f8          	cmp    %rax,-0x8(%rbp)
    692e:	7f 7e                	jg     69ae <safe_mul_func_int64_t_s_s+0xb2>
    6930:	48 83 7d f8 00       	cmpq   $0x0,-0x8(%rbp)
    6935:	7e 1d                	jle    6954 <safe_mul_func_int64_t_s_s+0x58>
    6937:	48 83 7d f0 00       	cmpq   $0x0,-0x10(%rbp)
    693c:	7f 16                	jg     6954 <safe_mul_func_int64_t_s_s+0x58>
    693e:	48 b8 00 00 00 00 00 	movabs $0x8000000000000000,%rax
    6945:	00 00 80 
    6948:	48 99                	cqto   
    694a:	48 f7 7d f8          	idivq  -0x8(%rbp)
    694e:	48 39 45 f0          	cmp    %rax,-0x10(%rbp)
    6952:	7c 5a                	jl     69ae <safe_mul_func_int64_t_s_s+0xb2>
    6954:	48 83 7d f8 00       	cmpq   $0x0,-0x8(%rbp)
    6959:	7f 1d                	jg     6978 <safe_mul_func_int64_t_s_s+0x7c>
    695b:	48 83 7d f0 00       	cmpq   $0x0,-0x10(%rbp)
    6960:	7e 16                	jle    6978 <safe_mul_func_int64_t_s_s+0x7c>
    6962:	48 b8 00 00 00 00 00 	movabs $0x8000000000000000,%rax
    6969:	00 00 80 
    696c:	48 99                	cqto   
    696e:	48 f7 7d f0          	idivq  -0x10(%rbp)
    6972:	48 39 45 f8          	cmp    %rax,-0x8(%rbp)
    6976:	7c 36                	jl     69ae <safe_mul_func_int64_t_s_s+0xb2>
    6978:	48 83 7d f8 00       	cmpq   $0x0,-0x8(%rbp)
    697d:	7f 24                	jg     69a3 <safe_mul_func_int64_t_s_s+0xa7>
    697f:	48 83 7d f0 00       	cmpq   $0x0,-0x10(%rbp)
    6984:	7f 1d                	jg     69a3 <safe_mul_func_int64_t_s_s+0xa7>
    6986:	48 83 7d f8 00       	cmpq   $0x0,-0x8(%rbp)
    698b:	74 16                	je     69a3 <safe_mul_func_int64_t_s_s+0xa7>
    698d:	48 b8 ff ff ff ff ff 	movabs $0x7fffffffffffffff,%rax
    6994:	ff ff 7f 
    6997:	48 99                	cqto   
    6999:	48 f7 7d f8          	idivq  -0x8(%rbp)
    699d:	48 39 45 f0          	cmp    %rax,-0x10(%rbp)
    69a1:	7c 0b                	jl     69ae <safe_mul_func_int64_t_s_s+0xb2>
    69a3:	48 8b 45 f8          	mov    -0x8(%rbp),%rax
    69a7:	48 0f af 45 f0       	imul   -0x10(%rbp),%rax
    69ac:	eb 04                	jmp    69b2 <safe_mul_func_int64_t_s_s+0xb6>
    69ae:	48 8b 45 f8          	mov    -0x8(%rbp),%rax
    69b2:	5d                   	pop    %rbp
    69b3:	c3                   	retq   

00000000000069b4 <safe_mod_func_int64_t_s_s>:
    69b4:	f3 0f 1e fa          	endbr64 
    69b8:	55                   	push   %rbp
    69b9:	48 89 e5             	mov    %rsp,%rbp
    69bc:	48 89 7d f8          	mov    %rdi,-0x8(%rbp)
    69c0:	48 89 75 f0          	mov    %rsi,-0x10(%rbp)
    69c4:	48 83 7d f0 00       	cmpq   $0x0,-0x10(%rbp)
    69c9:	74 26                	je     69f1 <safe_mod_func_int64_t_s_s+0x3d>
    69cb:	48 b8 00 00 00 00 00 	movabs $0x8000000000000000,%rax
    69d2:	00 00 80 
    69d5:	48 39 45 f8          	cmp    %rax,-0x8(%rbp)
    69d9:	75 07                	jne    69e2 <safe_mod_func_int64_t_s_s+0x2e>
    69db:	48 83 7d f0 ff       	cmpq   $0xffffffffffffffff,-0x10(%rbp)
    69e0:	74 0f                	je     69f1 <safe_mod_func_int64_t_s_s+0x3d>
    69e2:	48 8b 45 f8          	mov    -0x8(%rbp),%rax
    69e6:	48 99                	cqto   
    69e8:	48 f7 7d f0          	idivq  -0x10(%rbp)
    69ec:	48 89 d0             	mov    %rdx,%rax
    69ef:	eb 04                	jmp    69f5 <safe_mod_func_int64_t_s_s+0x41>
    69f1:	48 8b 45 f8          	mov    -0x8(%rbp),%rax
    69f5:	5d                   	pop    %rbp
    69f6:	c3                   	retq   

00000000000069f7 <safe_div_func_int64_t_s_s>:
    69f7:	f3 0f 1e fa          	endbr64 
    69fb:	55                   	push   %rbp
    69fc:	48 89 e5             	mov    %rsp,%rbp
    69ff:	48 89 7d f8          	mov    %rdi,-0x8(%rbp)
    6a03:	48 89 75 f0          	mov    %rsi,-0x10(%rbp)
    6a07:	48 83 7d f0 00       	cmpq   $0x0,-0x10(%rbp)
    6a0c:	74 23                	je     6a31 <safe_div_func_int64_t_s_s+0x3a>
    6a0e:	48 b8 00 00 00 00 00 	movabs $0x8000000000000000,%rax
    6a15:	00 00 80 
    6a18:	48 39 45 f8          	cmp    %rax,-0x8(%rbp)
    6a1c:	75 07                	jne    6a25 <safe_div_func_int64_t_s_s+0x2e>
    6a1e:	48 83 7d f0 ff       	cmpq   $0xffffffffffffffff,-0x10(%rbp)
    6a23:	74 0c                	je     6a31 <safe_div_func_int64_t_s_s+0x3a>
    6a25:	48 8b 45 f8          	mov    -0x8(%rbp),%rax
    6a29:	48 99                	cqto   
    6a2b:	48 f7 7d f0          	idivq  -0x10(%rbp)
    6a2f:	eb 04                	jmp    6a35 <safe_div_func_int64_t_s_s+0x3e>
    6a31:	48 8b 45 f8          	mov    -0x8(%rbp),%rax
    6a35:	5d                   	pop    %rbp
    6a36:	c3                   	retq   

0000000000006a37 <safe_lshift_func_int64_t_s_s>:
    6a37:	f3 0f 1e fa          	endbr64 
    6a3b:	55                   	push   %rbp
    6a3c:	48 89 e5             	mov    %rsp,%rbp
    6a3f:	48 89 7d f8          	mov    %rdi,-0x8(%rbp)
    6a43:	89 75 f4             	mov    %esi,-0xc(%rbp)
    6a46:	48 83 7d f8 00       	cmpq   $0x0,-0x8(%rbp)
    6a4b:	78 38                	js     6a85 <safe_lshift_func_int64_t_s_s+0x4e>
    6a4d:	83 7d f4 00          	cmpl   $0x0,-0xc(%rbp)
    6a51:	78 32                	js     6a85 <safe_lshift_func_int64_t_s_s+0x4e>
    6a53:	83 7d f4 1f          	cmpl   $0x1f,-0xc(%rbp)
    6a57:	7f 2c                	jg     6a85 <safe_lshift_func_int64_t_s_s+0x4e>
    6a59:	8b 45 f4             	mov    -0xc(%rbp),%eax
    6a5c:	48 ba ff ff ff ff ff 	movabs $0x7fffffffffffffff,%rdx
    6a63:	ff ff 7f 
    6a66:	89 c1                	mov    %eax,%ecx
    6a68:	48 d3 fa             	sar    %cl,%rdx
    6a6b:	48 89 d0             	mov    %rdx,%rax
    6a6e:	48 39 45 f8          	cmp    %rax,-0x8(%rbp)
    6a72:	7f 11                	jg     6a85 <safe_lshift_func_int64_t_s_s+0x4e>
    6a74:	8b 45 f4             	mov    -0xc(%rbp),%eax
    6a77:	48 8b 55 f8          	mov    -0x8(%rbp),%rdx
    6a7b:	89 c1                	mov    %eax,%ecx
    6a7d:	48 d3 e2             	shl    %cl,%rdx
    6a80:	48 89 d0             	mov    %rdx,%rax
    6a83:	eb 04                	jmp    6a89 <safe_lshift_func_int64_t_s_s+0x52>
    6a85:	48 8b 45 f8          	mov    -0x8(%rbp),%rax
    6a89:	5d                   	pop    %rbp
    6a8a:	c3                   	retq   

0000000000006a8b <safe_lshift_func_int64_t_s_u>:
    6a8b:	f3 0f 1e fa          	endbr64 
    6a8f:	55                   	push   %rbp
    6a90:	48 89 e5             	mov    %rsp,%rbp
    6a93:	48 89 7d f8          	mov    %rdi,-0x8(%rbp)
    6a97:	89 75 f4             	mov    %esi,-0xc(%rbp)
    6a9a:	48 83 7d f8 00       	cmpq   $0x0,-0x8(%rbp)
    6a9f:	78 32                	js     6ad3 <safe_lshift_func_int64_t_s_u+0x48>
    6aa1:	83 7d f4 1f          	cmpl   $0x1f,-0xc(%rbp)
    6aa5:	77 2c                	ja     6ad3 <safe_lshift_func_int64_t_s_u+0x48>
    6aa7:	8b 45 f4             	mov    -0xc(%rbp),%eax
    6aaa:	48 ba ff ff ff ff ff 	movabs $0x7fffffffffffffff,%rdx
    6ab1:	ff ff 7f 
    6ab4:	89 c1                	mov    %eax,%ecx
    6ab6:	48 d3 fa             	sar    %cl,%rdx
    6ab9:	48 89 d0             	mov    %rdx,%rax
    6abc:	48 39 45 f8          	cmp    %rax,-0x8(%rbp)
    6ac0:	7f 11                	jg     6ad3 <safe_lshift_func_int64_t_s_u+0x48>
    6ac2:	8b 45 f4             	mov    -0xc(%rbp),%eax
    6ac5:	48 8b 55 f8          	mov    -0x8(%rbp),%rdx
    6ac9:	89 c1                	mov    %eax,%ecx
    6acb:	48 d3 e2             	shl    %cl,%rdx
    6ace:	48 89 d0             	mov    %rdx,%rax
    6ad1:	eb 04                	jmp    6ad7 <safe_lshift_func_int64_t_s_u+0x4c>
    6ad3:	48 8b 45 f8          	mov    -0x8(%rbp),%rax
    6ad7:	5d                   	pop    %rbp
    6ad8:	c3                   	retq   

0000000000006ad9 <safe_rshift_func_int64_t_s_s>:
    6ad9:	f3 0f 1e fa          	endbr64 
    6add:	55                   	push   %rbp
    6ade:	48 89 e5             	mov    %rsp,%rbp
    6ae1:	48 89 7d f8          	mov    %rdi,-0x8(%rbp)
    6ae5:	89 75 f4             	mov    %esi,-0xc(%rbp)
    6ae8:	48 83 7d f8 00       	cmpq   $0x0,-0x8(%rbp)
    6aed:	78 1d                	js     6b0c <safe_rshift_func_int64_t_s_s+0x33>
    6aef:	83 7d f4 00          	cmpl   $0x0,-0xc(%rbp)
    6af3:	78 17                	js     6b0c <safe_rshift_func_int64_t_s_s+0x33>
    6af5:	83 7d f4 1f          	cmpl   $0x1f,-0xc(%rbp)
    6af9:	7f 11                	jg     6b0c <safe_rshift_func_int64_t_s_s+0x33>
    6afb:	8b 45 f4             	mov    -0xc(%rbp),%eax
    6afe:	48 8b 55 f8          	mov    -0x8(%rbp),%rdx
    6b02:	89 c1                	mov    %eax,%ecx
    6b04:	48 d3 fa             	sar    %cl,%rdx
    6b07:	48 89 d0             	mov    %rdx,%rax
    6b0a:	eb 04                	jmp    6b10 <safe_rshift_func_int64_t_s_s+0x37>
    6b0c:	48 8b 45 f8          	mov    -0x8(%rbp),%rax
    6b10:	5d                   	pop    %rbp
    6b11:	c3                   	retq   

0000000000006b12 <safe_rshift_func_int64_t_s_u>:
    6b12:	f3 0f 1e fa          	endbr64 
    6b16:	55                   	push   %rbp
    6b17:	48 89 e5             	mov    %rsp,%rbp
    6b1a:	48 89 7d f8          	mov    %rdi,-0x8(%rbp)
    6b1e:	89 75 f4             	mov    %esi,-0xc(%rbp)
    6b21:	48 83 7d f8 00       	cmpq   $0x0,-0x8(%rbp)
    6b26:	78 17                	js     6b3f <safe_rshift_func_int64_t_s_u+0x2d>
    6b28:	83 7d f4 1f          	cmpl   $0x1f,-0xc(%rbp)
    6b2c:	77 11                	ja     6b3f <safe_rshift_func_int64_t_s_u+0x2d>
    6b2e:	8b 45 f4             	mov    -0xc(%rbp),%eax
    6b31:	48 8b 55 f8          	mov    -0x8(%rbp),%rdx
    6b35:	89 c1                	mov    %eax,%ecx
    6b37:	48 d3 fa             	sar    %cl,%rdx
    6b3a:	48 89 d0             	mov    %rdx,%rax
    6b3d:	eb 04                	jmp    6b43 <safe_rshift_func_int64_t_s_u+0x31>
    6b3f:	48 8b 45 f8          	mov    -0x8(%rbp),%rax
    6b43:	5d                   	pop    %rbp
    6b44:	c3                   	retq   

0000000000006b45 <safe_unary_minus_func_uint8_t_u>:
    6b45:	f3 0f 1e fa          	endbr64 
    6b49:	55                   	push   %rbp
    6b4a:	48 89 e5             	mov    %rsp,%rbp
    6b4d:	89 f8                	mov    %edi,%eax
    6b4f:	88 45 fc             	mov    %al,-0x4(%rbp)
    6b52:	0f b6 45 fc          	movzbl -0x4(%rbp),%eax
    6b56:	f7 d8                	neg    %eax
    6b58:	5d                   	pop    %rbp
    6b59:	c3                   	retq   

0000000000006b5a <safe_add_func_uint8_t_u_u>:
    6b5a:	f3 0f 1e fa          	endbr64 
    6b5e:	55                   	push   %rbp
    6b5f:	48 89 e5             	mov    %rsp,%rbp
    6b62:	89 fa                	mov    %edi,%edx
    6b64:	89 f0                	mov    %esi,%eax
    6b66:	88 55 fc             	mov    %dl,-0x4(%rbp)
    6b69:	88 45 f8             	mov    %al,-0x8(%rbp)
    6b6c:	0f b6 55 fc          	movzbl -0x4(%rbp),%edx
    6b70:	0f b6 45 f8          	movzbl -0x8(%rbp),%eax
    6b74:	01 d0                	add    %edx,%eax
    6b76:	5d                   	pop    %rbp
    6b77:	c3                   	retq   

0000000000006b78 <safe_sub_func_uint8_t_u_u>:
    6b78:	f3 0f 1e fa          	endbr64 
    6b7c:	55                   	push   %rbp
    6b7d:	48 89 e5             	mov    %rsp,%rbp
    6b80:	89 fa                	mov    %edi,%edx
    6b82:	89 f0                	mov    %esi,%eax
    6b84:	88 55 fc             	mov    %dl,-0x4(%rbp)
    6b87:	88 45 f8             	mov    %al,-0x8(%rbp)
    6b8a:	0f b6 45 fc          	movzbl -0x4(%rbp),%eax
    6b8e:	2a 45 f8             	sub    -0x8(%rbp),%al
    6b91:	5d                   	pop    %rbp
    6b92:	c3                   	retq   

0000000000006b93 <safe_mul_func_uint8_t_u_u>:
    6b93:	f3 0f 1e fa          	endbr64 
    6b97:	55                   	push   %rbp
    6b98:	48 89 e5             	mov    %rsp,%rbp
    6b9b:	89 fa                	mov    %edi,%edx
    6b9d:	89 f0                	mov    %esi,%eax
    6b9f:	88 55 fc             	mov    %dl,-0x4(%rbp)
    6ba2:	88 45 f8             	mov    %al,-0x8(%rbp)
    6ba5:	0f b6 45 fc          	movzbl -0x4(%rbp),%eax
    6ba9:	f6 65 f8             	mulb   -0x8(%rbp)
    6bac:	5d                   	pop    %rbp
    6bad:	c3                   	retq   

0000000000006bae <safe_mod_func_uint8_t_u_u>:
    6bae:	f3 0f 1e fa          	endbr64 
    6bb2:	55                   	push   %rbp
    6bb3:	48 89 e5             	mov    %rsp,%rbp
    6bb6:	89 fa                	mov    %edi,%edx
    6bb8:	89 f0                	mov    %esi,%eax
    6bba:	88 55 fc             	mov    %dl,-0x4(%rbp)
    6bbd:	88 45 f8             	mov    %al,-0x8(%rbp)
    6bc0:	80 7d f8 00          	cmpb   $0x0,-0x8(%rbp)
    6bc4:	74 0f                	je     6bd5 <safe_mod_func_uint8_t_u_u+0x27>
    6bc6:	0f b6 45 fc          	movzbl -0x4(%rbp),%eax
    6bca:	0f b6 c0             	movzbl %al,%eax
    6bcd:	f6 75 f8             	divb   -0x8(%rbp)
    6bd0:	0f b6 c4             	movzbl %ah,%eax
    6bd3:	eb 04                	jmp    6bd9 <safe_mod_func_uint8_t_u_u+0x2b>
    6bd5:	0f b6 45 fc          	movzbl -0x4(%rbp),%eax
    6bd9:	5d                   	pop    %rbp
    6bda:	c3                   	retq   

0000000000006bdb <safe_div_func_uint8_t_u_u>:
    6bdb:	f3 0f 1e fa          	endbr64 
    6bdf:	55                   	push   %rbp
    6be0:	48 89 e5             	mov    %rsp,%rbp
    6be3:	89 fa                	mov    %edi,%edx
    6be5:	89 f0                	mov    %esi,%eax
    6be7:	88 55 fc             	mov    %dl,-0x4(%rbp)
    6bea:	88 45 f8             	mov    %al,-0x8(%rbp)
    6bed:	80 7d f8 00          	cmpb   $0x0,-0x8(%rbp)
    6bf1:	74 0c                	je     6bff <safe_div_func_uint8_t_u_u+0x24>
    6bf3:	0f b6 45 fc          	movzbl -0x4(%rbp),%eax
    6bf7:	0f b6 c0             	movzbl %al,%eax
    6bfa:	f6 75 f8             	divb   -0x8(%rbp)
    6bfd:	eb 04                	jmp    6c03 <safe_div_func_uint8_t_u_u+0x28>
    6bff:	0f b6 45 fc          	movzbl -0x4(%rbp),%eax
    6c03:	5d                   	pop    %rbp
    6c04:	c3                   	retq   

0000000000006c05 <safe_lshift_func_uint8_t_u_s>:
    6c05:	f3 0f 1e fa          	endbr64 
    6c09:	55                   	push   %rbp
    6c0a:	48 89 e5             	mov    %rsp,%rbp
    6c0d:	89 f8                	mov    %edi,%eax
    6c0f:	89 75 f8             	mov    %esi,-0x8(%rbp)
    6c12:	88 45 fc             	mov    %al,-0x4(%rbp)
    6c15:	83 7d f8 00          	cmpl   $0x0,-0x8(%rbp)
    6c19:	78 2b                	js     6c46 <safe_lshift_func_uint8_t_u_s+0x41>
    6c1b:	83 7d f8 1f          	cmpl   $0x1f,-0x8(%rbp)
    6c1f:	7f 25                	jg     6c46 <safe_lshift_func_uint8_t_u_s+0x41>
    6c21:	0f b6 55 fc          	movzbl -0x4(%rbp),%edx
    6c25:	8b 45 f8             	mov    -0x8(%rbp),%eax
    6c28:	be ff 00 00 00       	mov    $0xff,%esi
    6c2d:	89 c1                	mov    %eax,%ecx
    6c2f:	d3 fe                	sar    %cl,%esi
    6c31:	89 f0                	mov    %esi,%eax
    6c33:	39 c2                	cmp    %eax,%edx
    6c35:	7f 0f                	jg     6c46 <safe_lshift_func_uint8_t_u_s+0x41>
    6c37:	0f b6 55 fc          	movzbl -0x4(%rbp),%edx
    6c3b:	8b 45 f8             	mov    -0x8(%rbp),%eax
    6c3e:	89 c1                	mov    %eax,%ecx
    6c40:	d3 e2                	shl    %cl,%edx
    6c42:	89 d0                	mov    %edx,%eax
    6c44:	eb 04                	jmp    6c4a <safe_lshift_func_uint8_t_u_s+0x45>
    6c46:	0f b6 45 fc          	movzbl -0x4(%rbp),%eax
    6c4a:	5d                   	pop    %rbp
    6c4b:	c3                   	retq   

0000000000006c4c <safe_lshift_func_uint8_t_u_u>:
    6c4c:	f3 0f 1e fa          	endbr64 
    6c50:	55                   	push   %rbp
    6c51:	48 89 e5             	mov    %rsp,%rbp
    6c54:	89 f8                	mov    %edi,%eax
    6c56:	89 75 f8             	mov    %esi,-0x8(%rbp)
    6c59:	88 45 fc             	mov    %al,-0x4(%rbp)
    6c5c:	83 7d f8 1f          	cmpl   $0x1f,-0x8(%rbp)
    6c60:	77 25                	ja     6c87 <safe_lshift_func_uint8_t_u_u+0x3b>
    6c62:	0f b6 55 fc          	movzbl -0x4(%rbp),%edx
    6c66:	8b 45 f8             	mov    -0x8(%rbp),%eax
    6c69:	be ff 00 00 00       	mov    $0xff,%esi
    6c6e:	89 c1                	mov    %eax,%ecx
    6c70:	d3 fe                	sar    %cl,%esi
    6c72:	89 f0                	mov    %esi,%eax
    6c74:	39 c2                	cmp    %eax,%edx
    6c76:	7f 0f                	jg     6c87 <safe_lshift_func_uint8_t_u_u+0x3b>
    6c78:	0f b6 55 fc          	movzbl -0x4(%rbp),%edx
    6c7c:	8b 45 f8             	mov    -0x8(%rbp),%eax
    6c7f:	89 c1                	mov    %eax,%ecx
    6c81:	d3 e2                	shl    %cl,%edx
    6c83:	89 d0                	mov    %edx,%eax
    6c85:	eb 04                	jmp    6c8b <safe_lshift_func_uint8_t_u_u+0x3f>
    6c87:	0f b6 45 fc          	movzbl -0x4(%rbp),%eax
    6c8b:	5d                   	pop    %rbp
    6c8c:	c3                   	retq   

0000000000006c8d <safe_rshift_func_uint8_t_u_s>:
    6c8d:	f3 0f 1e fa          	endbr64 
    6c91:	55                   	push   %rbp
    6c92:	48 89 e5             	mov    %rsp,%rbp
    6c95:	89 f8                	mov    %edi,%eax
    6c97:	89 75 f8             	mov    %esi,-0x8(%rbp)
    6c9a:	88 45 fc             	mov    %al,-0x4(%rbp)
    6c9d:	83 7d f8 00          	cmpl   $0x0,-0x8(%rbp)
    6ca1:	78 15                	js     6cb8 <safe_rshift_func_uint8_t_u_s+0x2b>
    6ca3:	83 7d f8 1f          	cmpl   $0x1f,-0x8(%rbp)
    6ca7:	7f 0f                	jg     6cb8 <safe_rshift_func_uint8_t_u_s+0x2b>
    6ca9:	0f b6 55 fc          	movzbl -0x4(%rbp),%edx
    6cad:	8b 45 f8             	mov    -0x8(%rbp),%eax
    6cb0:	89 c1                	mov    %eax,%ecx
    6cb2:	d3 fa                	sar    %cl,%edx
    6cb4:	89 d0                	mov    %edx,%eax
    6cb6:	eb 04                	jmp    6cbc <safe_rshift_func_uint8_t_u_s+0x2f>
    6cb8:	0f b6 45 fc          	movzbl -0x4(%rbp),%eax
    6cbc:	5d                   	pop    %rbp
    6cbd:	c3                   	retq   

0000000000006cbe <safe_rshift_func_uint8_t_u_u>:
    6cbe:	f3 0f 1e fa          	endbr64 
    6cc2:	55                   	push   %rbp
    6cc3:	48 89 e5             	mov    %rsp,%rbp
    6cc6:	89 f8                	mov    %edi,%eax
    6cc8:	89 75 f8             	mov    %esi,-0x8(%rbp)
    6ccb:	88 45 fc             	mov    %al,-0x4(%rbp)
    6cce:	83 7d f8 1f          	cmpl   $0x1f,-0x8(%rbp)
    6cd2:	77 0f                	ja     6ce3 <safe_rshift_func_uint8_t_u_u+0x25>
    6cd4:	0f b6 55 fc          	movzbl -0x4(%rbp),%edx
    6cd8:	8b 45 f8             	mov    -0x8(%rbp),%eax
    6cdb:	89 c1                	mov    %eax,%ecx
    6cdd:	d3 fa                	sar    %cl,%edx
    6cdf:	89 d0                	mov    %edx,%eax
    6ce1:	eb 04                	jmp    6ce7 <safe_rshift_func_uint8_t_u_u+0x29>
    6ce3:	0f b6 45 fc          	movzbl -0x4(%rbp),%eax
    6ce7:	5d                   	pop    %rbp
    6ce8:	c3                   	retq   

0000000000006ce9 <safe_unary_minus_func_uint16_t_u>:
    6ce9:	f3 0f 1e fa          	endbr64 
    6ced:	55                   	push   %rbp
    6cee:	48 89 e5             	mov    %rsp,%rbp
    6cf1:	89 f8                	mov    %edi,%eax
    6cf3:	66 89 45 fc          	mov    %ax,-0x4(%rbp)
    6cf7:	0f b7 45 fc          	movzwl -0x4(%rbp),%eax
    6cfb:	f7 d8                	neg    %eax
    6cfd:	5d                   	pop    %rbp
    6cfe:	c3                   	retq   

0000000000006cff <safe_add_func_uint16_t_u_u>:
    6cff:	f3 0f 1e fa          	endbr64 
    6d03:	55                   	push   %rbp
    6d04:	48 89 e5             	mov    %rsp,%rbp
    6d07:	89 fa                	mov    %edi,%edx
    6d09:	89 f0                	mov    %esi,%eax
    6d0b:	66 89 55 fc          	mov    %dx,-0x4(%rbp)
    6d0f:	66 89 45 f8          	mov    %ax,-0x8(%rbp)
    6d13:	0f b7 55 fc          	movzwl -0x4(%rbp),%edx
    6d17:	0f b7 45 f8          	movzwl -0x8(%rbp),%eax
    6d1b:	01 d0                	add    %edx,%eax
    6d1d:	5d                   	pop    %rbp
    6d1e:	c3                   	retq   

0000000000006d1f <safe_sub_func_uint16_t_u_u>:
    6d1f:	f3 0f 1e fa          	endbr64 
    6d23:	55                   	push   %rbp
    6d24:	48 89 e5             	mov    %rsp,%rbp
    6d27:	89 fa                	mov    %edi,%edx
    6d29:	89 f0                	mov    %esi,%eax
    6d2b:	66 89 55 fc          	mov    %dx,-0x4(%rbp)
    6d2f:	66 89 45 f8          	mov    %ax,-0x8(%rbp)
    6d33:	0f b7 45 fc          	movzwl -0x4(%rbp),%eax
    6d37:	66 2b 45 f8          	sub    -0x8(%rbp),%ax
    6d3b:	5d                   	pop    %rbp
    6d3c:	c3                   	retq   

0000000000006d3d <safe_mul_func_uint16_t_u_u>:
    6d3d:	f3 0f 1e fa          	endbr64 
    6d41:	55                   	push   %rbp
    6d42:	48 89 e5             	mov    %rsp,%rbp
    6d45:	89 fa                	mov    %edi,%edx
    6d47:	89 f0                	mov    %esi,%eax
    6d49:	66 89 55 fc          	mov    %dx,-0x4(%rbp)
    6d4d:	66 89 45 f8          	mov    %ax,-0x8(%rbp)
    6d51:	0f b7 45 fc          	movzwl -0x4(%rbp),%eax
    6d55:	66 0f af 45 f8       	imul   -0x8(%rbp),%ax
    6d5a:	5d                   	pop    %rbp
    6d5b:	c3                   	retq   

0000000000006d5c <safe_mod_func_uint16_t_u_u>:
    6d5c:	f3 0f 1e fa          	endbr64 
    6d60:	55                   	push   %rbp
    6d61:	48 89 e5             	mov    %rsp,%rbp
    6d64:	89 fa                	mov    %edi,%edx
    6d66:	89 f0                	mov    %esi,%eax
    6d68:	66 89 55 fc          	mov    %dx,-0x4(%rbp)
    6d6c:	66 89 45 f8          	mov    %ax,-0x8(%rbp)
    6d70:	66 83 7d f8 00       	cmpw   $0x0,-0x8(%rbp)
    6d75:	74 11                	je     6d88 <safe_mod_func_uint16_t_u_u+0x2c>
    6d77:	0f b7 45 fc          	movzwl -0x4(%rbp),%eax
    6d7b:	ba 00 00 00 00       	mov    $0x0,%edx
    6d80:	66 f7 75 f8          	divw   -0x8(%rbp)
    6d84:	89 d0                	mov    %edx,%eax
    6d86:	eb 04                	jmp    6d8c <safe_mod_func_uint16_t_u_u+0x30>
    6d88:	0f b7 45 fc          	movzwl -0x4(%rbp),%eax
    6d8c:	5d                   	pop    %rbp
    6d8d:	c3                   	retq   

0000000000006d8e <safe_div_func_uint16_t_u_u>:
    6d8e:	f3 0f 1e fa          	endbr64 
    6d92:	55                   	push   %rbp
    6d93:	48 89 e5             	mov    %rsp,%rbp
    6d96:	89 fa                	mov    %edi,%edx
    6d98:	89 f0                	mov    %esi,%eax
    6d9a:	66 89 55 fc          	mov    %dx,-0x4(%rbp)
    6d9e:	66 89 45 f8          	mov    %ax,-0x8(%rbp)
    6da2:	66 83 7d f8 00       	cmpw   $0x0,-0x8(%rbp)
    6da7:	74 0f                	je     6db8 <safe_div_func_uint16_t_u_u+0x2a>
    6da9:	0f b7 45 fc          	movzwl -0x4(%rbp),%eax
    6dad:	ba 00 00 00 00       	mov    $0x0,%edx
    6db2:	66 f7 75 f8          	divw   -0x8(%rbp)
    6db6:	eb 04                	jmp    6dbc <safe_div_func_uint16_t_u_u+0x2e>
    6db8:	0f b7 45 fc          	movzwl -0x4(%rbp),%eax
    6dbc:	5d                   	pop    %rbp
    6dbd:	c3                   	retq   

0000000000006dbe <safe_lshift_func_uint16_t_u_s>:
    6dbe:	f3 0f 1e fa          	endbr64 
    6dc2:	55                   	push   %rbp
    6dc3:	48 89 e5             	mov    %rsp,%rbp
    6dc6:	89 f8                	mov    %edi,%eax
    6dc8:	89 75 f8             	mov    %esi,-0x8(%rbp)
    6dcb:	66 89 45 fc          	mov    %ax,-0x4(%rbp)
    6dcf:	83 7d f8 00          	cmpl   $0x0,-0x8(%rbp)
    6dd3:	78 2b                	js     6e00 <safe_lshift_func_uint16_t_u_s+0x42>
    6dd5:	83 7d f8 1f          	cmpl   $0x1f,-0x8(%rbp)
    6dd9:	7f 25                	jg     6e00 <safe_lshift_func_uint16_t_u_s+0x42>
    6ddb:	0f b7 55 fc          	movzwl -0x4(%rbp),%edx
    6ddf:	8b 45 f8             	mov    -0x8(%rbp),%eax
    6de2:	be ff ff 00 00       	mov    $0xffff,%esi
    6de7:	89 c1                	mov    %eax,%ecx
    6de9:	d3 fe                	sar    %cl,%esi
    6deb:	89 f0                	mov    %esi,%eax
    6ded:	39 c2                	cmp    %eax,%edx
    6def:	7f 0f                	jg     6e00 <safe_lshift_func_uint16_t_u_s+0x42>
    6df1:	0f b7 55 fc          	movzwl -0x4(%rbp),%edx
    6df5:	8b 45 f8             	mov    -0x8(%rbp),%eax
    6df8:	89 c1                	mov    %eax,%ecx
    6dfa:	d3 e2                	shl    %cl,%edx
    6dfc:	89 d0                	mov    %edx,%eax
    6dfe:	eb 04                	jmp    6e04 <safe_lshift_func_uint16_t_u_s+0x46>
    6e00:	0f b7 45 fc          	movzwl -0x4(%rbp),%eax
    6e04:	5d                   	pop    %rbp
    6e05:	c3                   	retq   

0000000000006e06 <safe_lshift_func_uint16_t_u_u>:
    6e06:	f3 0f 1e fa          	endbr64 
    6e0a:	55                   	push   %rbp
    6e0b:	48 89 e5             	mov    %rsp,%rbp
    6e0e:	89 f8                	mov    %edi,%eax
    6e10:	89 75 f8             	mov    %esi,-0x8(%rbp)
    6e13:	66 89 45 fc          	mov    %ax,-0x4(%rbp)
    6e17:	83 7d f8 1f          	cmpl   $0x1f,-0x8(%rbp)
    6e1b:	77 25                	ja     6e42 <safe_lshift_func_uint16_t_u_u+0x3c>
    6e1d:	0f b7 55 fc          	movzwl -0x4(%rbp),%edx
    6e21:	8b 45 f8             	mov    -0x8(%rbp),%eax
    6e24:	be ff ff 00 00       	mov    $0xffff,%esi
    6e29:	89 c1                	mov    %eax,%ecx
    6e2b:	d3 fe                	sar    %cl,%esi
    6e2d:	89 f0                	mov    %esi,%eax
    6e2f:	39 c2                	cmp    %eax,%edx
    6e31:	7f 0f                	jg     6e42 <safe_lshift_func_uint16_t_u_u+0x3c>
    6e33:	0f b7 55 fc          	movzwl -0x4(%rbp),%edx
    6e37:	8b 45 f8             	mov    -0x8(%rbp),%eax
    6e3a:	89 c1                	mov    %eax,%ecx
    6e3c:	d3 e2                	shl    %cl,%edx
    6e3e:	89 d0                	mov    %edx,%eax
    6e40:	eb 04                	jmp    6e46 <safe_lshift_func_uint16_t_u_u+0x40>
    6e42:	0f b7 45 fc          	movzwl -0x4(%rbp),%eax
    6e46:	5d                   	pop    %rbp
    6e47:	c3                   	retq   

0000000000006e48 <safe_rshift_func_uint16_t_u_s>:
    6e48:	f3 0f 1e fa          	endbr64 
    6e4c:	55                   	push   %rbp
    6e4d:	48 89 e5             	mov    %rsp,%rbp
    6e50:	89 f8                	mov    %edi,%eax
    6e52:	89 75 f8             	mov    %esi,-0x8(%rbp)
    6e55:	66 89 45 fc          	mov    %ax,-0x4(%rbp)
    6e59:	83 7d f8 00          	cmpl   $0x0,-0x8(%rbp)
    6e5d:	78 15                	js     6e74 <safe_rshift_func_uint16_t_u_s+0x2c>
    6e5f:	83 7d f8 1f          	cmpl   $0x1f,-0x8(%rbp)
    6e63:	7f 0f                	jg     6e74 <safe_rshift_func_uint16_t_u_s+0x2c>
    6e65:	0f b7 55 fc          	movzwl -0x4(%rbp),%edx
    6e69:	8b 45 f8             	mov    -0x8(%rbp),%eax
    6e6c:	89 c1                	mov    %eax,%ecx
    6e6e:	d3 fa                	sar    %cl,%edx
    6e70:	89 d0                	mov    %edx,%eax
    6e72:	eb 04                	jmp    6e78 <safe_rshift_func_uint16_t_u_s+0x30>
    6e74:	0f b7 45 fc          	movzwl -0x4(%rbp),%eax
    6e78:	5d                   	pop    %rbp
    6e79:	c3                   	retq   

0000000000006e7a <safe_rshift_func_uint16_t_u_u>:
    6e7a:	f3 0f 1e fa          	endbr64 
    6e7e:	55                   	push   %rbp
    6e7f:	48 89 e5             	mov    %rsp,%rbp
    6e82:	89 f8                	mov    %edi,%eax
    6e84:	89 75 f8             	mov    %esi,-0x8(%rbp)
    6e87:	66 89 45 fc          	mov    %ax,-0x4(%rbp)
    6e8b:	83 7d f8 1f          	cmpl   $0x1f,-0x8(%rbp)
    6e8f:	77 0f                	ja     6ea0 <safe_rshift_func_uint16_t_u_u+0x26>
    6e91:	0f b7 55 fc          	movzwl -0x4(%rbp),%edx
    6e95:	8b 45 f8             	mov    -0x8(%rbp),%eax
    6e98:	89 c1                	mov    %eax,%ecx
    6e9a:	d3 fa                	sar    %cl,%edx
    6e9c:	89 d0                	mov    %edx,%eax
    6e9e:	eb 04                	jmp    6ea4 <safe_rshift_func_uint16_t_u_u+0x2a>
    6ea0:	0f b7 45 fc          	movzwl -0x4(%rbp),%eax
    6ea4:	5d                   	pop    %rbp
    6ea5:	c3                   	retq   

0000000000006ea6 <safe_unary_minus_func_uint32_t_u>:
    6ea6:	f3 0f 1e fa          	endbr64 
    6eaa:	55                   	push   %rbp
    6eab:	48 89 e5             	mov    %rsp,%rbp
    6eae:	89 7d fc             	mov    %edi,-0x4(%rbp)
    6eb1:	8b 45 fc             	mov    -0x4(%rbp),%eax
    6eb4:	f7 d8                	neg    %eax
    6eb6:	5d                   	pop    %rbp
    6eb7:	c3                   	retq   

0000000000006eb8 <safe_add_func_uint32_t_u_u>:
    6eb8:	f3 0f 1e fa          	endbr64 
    6ebc:	55                   	push   %rbp
    6ebd:	48 89 e5             	mov    %rsp,%rbp
    6ec0:	89 7d fc             	mov    %edi,-0x4(%rbp)
    6ec3:	89 75 f8             	mov    %esi,-0x8(%rbp)
    6ec6:	8b 55 fc             	mov    -0x4(%rbp),%edx
    6ec9:	8b 45 f8             	mov    -0x8(%rbp),%eax
    6ecc:	01 d0                	add    %edx,%eax
    6ece:	5d                   	pop    %rbp
    6ecf:	c3                   	retq   

0000000000006ed0 <safe_sub_func_uint32_t_u_u>:
    6ed0:	f3 0f 1e fa          	endbr64 
    6ed4:	55                   	push   %rbp
    6ed5:	48 89 e5             	mov    %rsp,%rbp
    6ed8:	89 7d fc             	mov    %edi,-0x4(%rbp)
    6edb:	89 75 f8             	mov    %esi,-0x8(%rbp)
    6ede:	8b 45 fc             	mov    -0x4(%rbp),%eax
    6ee1:	2b 45 f8             	sub    -0x8(%rbp),%eax
    6ee4:	5d                   	pop    %rbp
    6ee5:	c3                   	retq   

0000000000006ee6 <safe_mul_func_uint32_t_u_u>:
    6ee6:	f3 0f 1e fa          	endbr64 
    6eea:	55                   	push   %rbp
    6eeb:	48 89 e5             	mov    %rsp,%rbp
    6eee:	89 7d fc             	mov    %edi,-0x4(%rbp)
    6ef1:	89 75 f8             	mov    %esi,-0x8(%rbp)
    6ef4:	8b 45 fc             	mov    -0x4(%rbp),%eax
    6ef7:	0f af 45 f8          	imul   -0x8(%rbp),%eax
    6efb:	5d                   	pop    %rbp
    6efc:	c3                   	retq   

0000000000006efd <safe_mod_func_uint32_t_u_u>:
    6efd:	f3 0f 1e fa          	endbr64 
    6f01:	55                   	push   %rbp
    6f02:	48 89 e5             	mov    %rsp,%rbp
    6f05:	89 7d fc             	mov    %edi,-0x4(%rbp)
    6f08:	89 75 f8             	mov    %esi,-0x8(%rbp)
    6f0b:	83 7d f8 00          	cmpl   $0x0,-0x8(%rbp)
    6f0f:	74 0f                	je     6f20 <safe_mod_func_uint32_t_u_u+0x23>
    6f11:	8b 45 fc             	mov    -0x4(%rbp),%eax
    6f14:	ba 00 00 00 00       	mov    $0x0,%edx
    6f19:	f7 75 f8             	divl   -0x8(%rbp)
    6f1c:	89 d0                	mov    %edx,%eax
    6f1e:	eb 03                	jmp    6f23 <safe_mod_func_uint32_t_u_u+0x26>
    6f20:	8b 45 fc             	mov    -0x4(%rbp),%eax
    6f23:	5d                   	pop    %rbp
    6f24:	c3                   	retq   

0000000000006f25 <safe_div_func_uint32_t_u_u>:
    6f25:	f3 0f 1e fa          	endbr64 
    6f29:	55                   	push   %rbp
    6f2a:	48 89 e5             	mov    %rsp,%rbp
    6f2d:	89 7d fc             	mov    %edi,-0x4(%rbp)
    6f30:	89 75 f8             	mov    %esi,-0x8(%rbp)
    6f33:	83 7d f8 00          	cmpl   $0x0,-0x8(%rbp)
    6f37:	74 0d                	je     6f46 <safe_div_func_uint32_t_u_u+0x21>
    6f39:	8b 45 fc             	mov    -0x4(%rbp),%eax
    6f3c:	ba 00 00 00 00       	mov    $0x0,%edx
    6f41:	f7 75 f8             	divl   -0x8(%rbp)
    6f44:	eb 03                	jmp    6f49 <safe_div_func_uint32_t_u_u+0x24>
    6f46:	8b 45 fc             	mov    -0x4(%rbp),%eax
    6f49:	5d                   	pop    %rbp
    6f4a:	c3                   	retq   

0000000000006f4b <safe_lshift_func_uint32_t_u_s>:
    6f4b:	f3 0f 1e fa          	endbr64 
    6f4f:	55                   	push   %rbp
    6f50:	48 89 e5             	mov    %rsp,%rbp
    6f53:	89 7d fc             	mov    %edi,-0x4(%rbp)
    6f56:	89 75 f8             	mov    %esi,-0x8(%rbp)
    6f59:	83 7d f8 00          	cmpl   $0x0,-0x8(%rbp)
    6f5d:	78 27                	js     6f86 <safe_lshift_func_uint32_t_u_s+0x3b>
    6f5f:	83 7d f8 1f          	cmpl   $0x1f,-0x8(%rbp)
    6f63:	7f 21                	jg     6f86 <safe_lshift_func_uint32_t_u_s+0x3b>
    6f65:	8b 45 f8             	mov    -0x8(%rbp),%eax
    6f68:	ba ff ff ff ff       	mov    $0xffffffff,%edx
    6f6d:	89 c1                	mov    %eax,%ecx
    6f6f:	d3 ea                	shr    %cl,%edx
    6f71:	89 d0                	mov    %edx,%eax
    6f73:	39 45 fc             	cmp    %eax,-0x4(%rbp)
    6f76:	77 0e                	ja     6f86 <safe_lshift_func_uint32_t_u_s+0x3b>
    6f78:	8b 45 f8             	mov    -0x8(%rbp),%eax
    6f7b:	8b 55 fc             	mov    -0x4(%rbp),%edx
    6f7e:	89 c1                	mov    %eax,%ecx
    6f80:	d3 e2                	shl    %cl,%edx
    6f82:	89 d0                	mov    %edx,%eax
    6f84:	eb 03                	jmp    6f89 <safe_lshift_func_uint32_t_u_s+0x3e>
    6f86:	8b 45 fc             	mov    -0x4(%rbp),%eax
    6f89:	5d                   	pop    %rbp
    6f8a:	c3                   	retq   

0000000000006f8b <safe_lshift_func_uint32_t_u_u>:
    6f8b:	f3 0f 1e fa          	endbr64 
    6f8f:	55                   	push   %rbp
    6f90:	48 89 e5             	mov    %rsp,%rbp
    6f93:	89 7d fc             	mov    %edi,-0x4(%rbp)
    6f96:	89 75 f8             	mov    %esi,-0x8(%rbp)
    6f99:	83 7d f8 1f          	cmpl   $0x1f,-0x8(%rbp)
    6f9d:	77 21                	ja     6fc0 <safe_lshift_func_uint32_t_u_u+0x35>
    6f9f:	8b 45 f8             	mov    -0x8(%rbp),%eax
    6fa2:	ba ff ff ff ff       	mov    $0xffffffff,%edx
    6fa7:	89 c1                	mov    %eax,%ecx
    6fa9:	d3 ea                	shr    %cl,%edx
    6fab:	89 d0                	mov    %edx,%eax
    6fad:	39 45 fc             	cmp    %eax,-0x4(%rbp)
    6fb0:	77 0e                	ja     6fc0 <safe_lshift_func_uint32_t_u_u+0x35>
    6fb2:	8b 45 f8             	mov    -0x8(%rbp),%eax
    6fb5:	8b 55 fc             	mov    -0x4(%rbp),%edx
    6fb8:	89 c1                	mov    %eax,%ecx
    6fba:	d3 e2                	shl    %cl,%edx
    6fbc:	89 d0                	mov    %edx,%eax
    6fbe:	eb 03                	jmp    6fc3 <safe_lshift_func_uint32_t_u_u+0x38>
    6fc0:	8b 45 fc             	mov    -0x4(%rbp),%eax
    6fc3:	5d                   	pop    %rbp
    6fc4:	c3                   	retq   

0000000000006fc5 <safe_rshift_func_uint32_t_u_s>:
    6fc5:	f3 0f 1e fa          	endbr64 
    6fc9:	55                   	push   %rbp
    6fca:	48 89 e5             	mov    %rsp,%rbp
    6fcd:	89 7d fc             	mov    %edi,-0x4(%rbp)
    6fd0:	89 75 f8             	mov    %esi,-0x8(%rbp)
    6fd3:	83 7d f8 00          	cmpl   $0x0,-0x8(%rbp)
    6fd7:	78 14                	js     6fed <safe_rshift_func_uint32_t_u_s+0x28>
    6fd9:	83 7d f8 1f          	cmpl   $0x1f,-0x8(%rbp)
    6fdd:	7f 0e                	jg     6fed <safe_rshift_func_uint32_t_u_s+0x28>
    6fdf:	8b 45 f8             	mov    -0x8(%rbp),%eax
    6fe2:	8b 55 fc             	mov    -0x4(%rbp),%edx
    6fe5:	89 c1                	mov    %eax,%ecx
    6fe7:	d3 ea                	shr    %cl,%edx
    6fe9:	89 d0                	mov    %edx,%eax
    6feb:	eb 03                	jmp    6ff0 <safe_rshift_func_uint32_t_u_s+0x2b>
    6fed:	8b 45 fc             	mov    -0x4(%rbp),%eax
    6ff0:	5d                   	pop    %rbp
    6ff1:	c3                   	retq   

0000000000006ff2 <safe_rshift_func_uint32_t_u_u>:
    6ff2:	f3 0f 1e fa          	endbr64 
    6ff6:	55                   	push   %rbp
    6ff7:	48 89 e5             	mov    %rsp,%rbp
    6ffa:	89 7d fc             	mov    %edi,-0x4(%rbp)
    6ffd:	89 75 f8             	mov    %esi,-0x8(%rbp)
    7000:	83 7d f8 1f          	cmpl   $0x1f,-0x8(%rbp)
    7004:	77 0e                	ja     7014 <safe_rshift_func_uint32_t_u_u+0x22>
    7006:	8b 45 f8             	mov    -0x8(%rbp),%eax
    7009:	8b 55 fc             	mov    -0x4(%rbp),%edx
    700c:	89 c1                	mov    %eax,%ecx
    700e:	d3 ea                	shr    %cl,%edx
    7010:	89 d0                	mov    %edx,%eax
    7012:	eb 03                	jmp    7017 <safe_rshift_func_uint32_t_u_u+0x25>
    7014:	8b 45 fc             	mov    -0x4(%rbp),%eax
    7017:	5d                   	pop    %rbp
    7018:	c3                   	retq   

0000000000007019 <safe_unary_minus_func_uint64_t_u>:
    7019:	f3 0f 1e fa          	endbr64 
    701d:	55                   	push   %rbp
    701e:	48 89 e5             	mov    %rsp,%rbp
    7021:	48 89 7d f8          	mov    %rdi,-0x8(%rbp)
    7025:	48 8b 45 f8          	mov    -0x8(%rbp),%rax
    7029:	48 f7 d8             	neg    %rax
    702c:	5d                   	pop    %rbp
    702d:	c3                   	retq   

000000000000702e <safe_add_func_uint64_t_u_u>:
    702e:	f3 0f 1e fa          	endbr64 
    7032:	55                   	push   %rbp
    7033:	48 89 e5             	mov    %rsp,%rbp
    7036:	48 89 7d f8          	mov    %rdi,-0x8(%rbp)
    703a:	48 89 75 f0          	mov    %rsi,-0x10(%rbp)
    703e:	48 8b 55 f8          	mov    -0x8(%rbp),%rdx
    7042:	48 8b 45 f0          	mov    -0x10(%rbp),%rax
    7046:	48 01 d0             	add    %rdx,%rax
    7049:	5d                   	pop    %rbp
    704a:	c3                   	retq   

000000000000704b <safe_sub_func_uint64_t_u_u>:
    704b:	f3 0f 1e fa          	endbr64 
    704f:	55                   	push   %rbp
    7050:	48 89 e5             	mov    %rsp,%rbp
    7053:	48 89 7d f8          	mov    %rdi,-0x8(%rbp)
    7057:	48 89 75 f0          	mov    %rsi,-0x10(%rbp)
    705b:	48 8b 45 f8          	mov    -0x8(%rbp),%rax
    705f:	48 2b 45 f0          	sub    -0x10(%rbp),%rax
    7063:	5d                   	pop    %rbp
    7064:	c3                   	retq   

0000000000007065 <safe_mul_func_uint64_t_u_u>:
    7065:	f3 0f 1e fa          	endbr64 
    7069:	55                   	push   %rbp
    706a:	48 89 e5             	mov    %rsp,%rbp
    706d:	48 89 7d f8          	mov    %rdi,-0x8(%rbp)
    7071:	48 89 75 f0          	mov    %rsi,-0x10(%rbp)
    7075:	48 8b 45 f8          	mov    -0x8(%rbp),%rax
    7079:	48 0f af 45 f0       	imul   -0x10(%rbp),%rax
    707e:	5d                   	pop    %rbp
    707f:	c3                   	retq   

0000000000007080 <safe_mod_func_uint64_t_u_u>:
    7080:	f3 0f 1e fa          	endbr64 
    7084:	55                   	push   %rbp
    7085:	48 89 e5             	mov    %rsp,%rbp
    7088:	48 89 7d f8          	mov    %rdi,-0x8(%rbp)
    708c:	48 89 75 f0          	mov    %rsi,-0x10(%rbp)
    7090:	48 83 7d f0 00       	cmpq   $0x0,-0x10(%rbp)
    7095:	74 12                	je     70a9 <safe_mod_func_uint64_t_u_u+0x29>
    7097:	48 8b 45 f8          	mov    -0x8(%rbp),%rax
    709b:	ba 00 00 00 00       	mov    $0x0,%edx
    70a0:	48 f7 75 f0          	divq   -0x10(%rbp)
    70a4:	48 89 d0             	mov    %rdx,%rax
    70a7:	eb 04                	jmp    70ad <safe_mod_func_uint64_t_u_u+0x2d>
    70a9:	48 8b 45 f8          	mov    -0x8(%rbp),%rax
    70ad:	5d                   	pop    %rbp
    70ae:	c3                   	retq   

00000000000070af <safe_div_func_uint64_t_u_u>:
    70af:	f3 0f 1e fa          	endbr64 
    70b3:	55                   	push   %rbp
    70b4:	48 89 e5             	mov    %rsp,%rbp
    70b7:	48 89 7d f8          	mov    %rdi,-0x8(%rbp)
    70bb:	48 89 75 f0          	mov    %rsi,-0x10(%rbp)
    70bf:	48 83 7d f0 00       	cmpq   $0x0,-0x10(%rbp)
    70c4:	74 0f                	je     70d5 <safe_div_func_uint64_t_u_u+0x26>
    70c6:	48 8b 45 f8          	mov    -0x8(%rbp),%rax
    70ca:	ba 00 00 00 00       	mov    $0x0,%edx
    70cf:	48 f7 75 f0          	divq   -0x10(%rbp)
    70d3:	eb 04                	jmp    70d9 <safe_div_func_uint64_t_u_u+0x2a>
    70d5:	48 8b 45 f8          	mov    -0x8(%rbp),%rax
    70d9:	5d                   	pop    %rbp
    70da:	c3                   	retq   

00000000000070db <safe_lshift_func_uint64_t_u_s>:
    70db:	f3 0f 1e fa          	endbr64 
    70df:	55                   	push   %rbp
    70e0:	48 89 e5             	mov    %rsp,%rbp
    70e3:	48 89 7d f8          	mov    %rdi,-0x8(%rbp)
    70e7:	89 75 f4             	mov    %esi,-0xc(%rbp)
    70ea:	83 7d f4 00          	cmpl   $0x0,-0xc(%rbp)
    70ee:	78 2f                	js     711f <safe_lshift_func_uint64_t_u_s+0x44>
    70f0:	83 7d f4 1f          	cmpl   $0x1f,-0xc(%rbp)
    70f4:	7f 29                	jg     711f <safe_lshift_func_uint64_t_u_s+0x44>
    70f6:	8b 45 f4             	mov    -0xc(%rbp),%eax
    70f9:	48 c7 c2 ff ff ff ff 	mov    $0xffffffffffffffff,%rdx
    7100:	89 c1                	mov    %eax,%ecx
    7102:	48 d3 ea             	shr    %cl,%rdx
    7105:	48 89 d0             	mov    %rdx,%rax
    7108:	48 39 45 f8          	cmp    %rax,-0x8(%rbp)
    710c:	77 11                	ja     711f <safe_lshift_func_uint64_t_u_s+0x44>
    710e:	8b 45 f4             	mov    -0xc(%rbp),%eax
    7111:	48 8b 55 f8          	mov    -0x8(%rbp),%rdx
    7115:	89 c1                	mov    %eax,%ecx
    7117:	48 d3 e2             	shl    %cl,%rdx
    711a:	48 89 d0             	mov    %rdx,%rax
    711d:	eb 04                	jmp    7123 <safe_lshift_func_uint64_t_u_s+0x48>
    711f:	48 8b 45 f8          	mov    -0x8(%rbp),%rax
    7123:	5d                   	pop    %rbp
    7124:	c3                   	retq   

0000000000007125 <safe_lshift_func_uint64_t_u_u>:
    7125:	f3 0f 1e fa          	endbr64 
    7129:	55                   	push   %rbp
    712a:	48 89 e5             	mov    %rsp,%rbp
    712d:	48 89 7d f8          	mov    %rdi,-0x8(%rbp)
    7131:	89 75 f4             	mov    %esi,-0xc(%rbp)
    7134:	83 7d f4 1f          	cmpl   $0x1f,-0xc(%rbp)
    7138:	77 29                	ja     7163 <safe_lshift_func_uint64_t_u_u+0x3e>
    713a:	8b 45 f4             	mov    -0xc(%rbp),%eax
    713d:	48 c7 c2 ff ff ff ff 	mov    $0xffffffffffffffff,%rdx
    7144:	89 c1                	mov    %eax,%ecx
    7146:	48 d3 ea             	shr    %cl,%rdx
    7149:	48 89 d0             	mov    %rdx,%rax
    714c:	48 39 45 f8          	cmp    %rax,-0x8(%rbp)
    7150:	77 11                	ja     7163 <safe_lshift_func_uint64_t_u_u+0x3e>
    7152:	8b 45 f4             	mov    -0xc(%rbp),%eax
    7155:	48 8b 55 f8          	mov    -0x8(%rbp),%rdx
    7159:	89 c1                	mov    %eax,%ecx
    715b:	48 d3 e2             	shl    %cl,%rdx
    715e:	48 89 d0             	mov    %rdx,%rax
    7161:	eb 04                	jmp    7167 <safe_lshift_func_uint64_t_u_u+0x42>
    7163:	48 8b 45 f8          	mov    -0x8(%rbp),%rax
    7167:	5d                   	pop    %rbp
    7168:	c3                   	retq   

0000000000007169 <safe_rshift_func_uint64_t_u_s>:
    7169:	f3 0f 1e fa          	endbr64 
    716d:	55                   	push   %rbp
    716e:	48 89 e5             	mov    %rsp,%rbp
    7171:	48 89 7d f8          	mov    %rdi,-0x8(%rbp)
    7175:	89 75 f4             	mov    %esi,-0xc(%rbp)
    7178:	83 7d f4 00          	cmpl   $0x0,-0xc(%rbp)
    717c:	78 17                	js     7195 <safe_rshift_func_uint64_t_u_s+0x2c>
    717e:	83 7d f4 1f          	cmpl   $0x1f,-0xc(%rbp)
    7182:	7f 11                	jg     7195 <safe_rshift_func_uint64_t_u_s+0x2c>
    7184:	8b 45 f4             	mov    -0xc(%rbp),%eax
    7187:	48 8b 55 f8          	mov    -0x8(%rbp),%rdx
    718b:	89 c1                	mov    %eax,%ecx
    718d:	48 d3 ea             	shr    %cl,%rdx
    7190:	48 89 d0             	mov    %rdx,%rax
    7193:	eb 04                	jmp    7199 <safe_rshift_func_uint64_t_u_s+0x30>
    7195:	48 8b 45 f8          	mov    -0x8(%rbp),%rax
    7199:	5d                   	pop    %rbp
    719a:	c3                   	retq   

000000000000719b <safe_rshift_func_uint64_t_u_u>:
    719b:	f3 0f 1e fa          	endbr64 
    719f:	55                   	push   %rbp
    71a0:	48 89 e5             	mov    %rsp,%rbp
    71a3:	48 89 7d f8          	mov    %rdi,-0x8(%rbp)
    71a7:	89 75 f4             	mov    %esi,-0xc(%rbp)
    71aa:	83 7d f4 1f          	cmpl   $0x1f,-0xc(%rbp)
    71ae:	77 11                	ja     71c1 <safe_rshift_func_uint64_t_u_u+0x26>
    71b0:	8b 45 f4             	mov    -0xc(%rbp),%eax
    71b3:	48 8b 55 f8          	mov    -0x8(%rbp),%rdx
    71b7:	89 c1                	mov    %eax,%ecx
    71b9:	48 d3 ea             	shr    %cl,%rdx
    71bc:	48 89 d0             	mov    %rdx,%rax
    71bf:	eb 04                	jmp    71c5 <safe_rshift_func_uint64_t_u_u+0x2a>
    71c1:	48 8b 45 f8          	mov    -0x8(%rbp),%rax
    71c5:	5d                   	pop    %rbp
    71c6:	c3                   	retq   

00000000000071c7 <safe_add_func_float_f_f>:
    71c7:	f3 0f 1e fa          	endbr64 
    71cb:	55                   	push   %rbp
    71cc:	48 89 e5             	mov    %rsp,%rbp
    71cf:	f3 0f 11 45 fc       	movss  %xmm0,-0x4(%rbp)
    71d4:	f3 0f 11 4d f8       	movss  %xmm1,-0x8(%rbp)
    71d9:	f3 0f 10 4d fc       	movss  -0x4(%rbp),%xmm1
    71de:	f3 0f 10 05 b2 dc 00 	movss  0xdcb2(%rip),%xmm0        # 14e98 <g_991+0xe44>
    71e5:	00 
    71e6:	f3 0f 59 c8          	mulss  %xmm0,%xmm1
    71ea:	f3 0f 10 55 f8       	movss  -0x8(%rbp),%xmm2
    71ef:	f3 0f 10 05 a1 dc 00 	movss  0xdca1(%rip),%xmm0        # 14e98 <g_991+0xe44>
    71f6:	00 
    71f7:	f3 0f 59 c2          	mulss  %xmm2,%xmm0
    71fb:	f3 0f 58 c1          	addss  %xmm1,%xmm0
    71ff:	f3 0f 10 0d 99 dc 00 	movss  0xdc99(%rip),%xmm1        # 14ea0 <g_991+0xe4c>
    7206:	00 
    7207:	0f 54 c1             	andps  %xmm1,%xmm0
    720a:	0f 2f 05 9f dc 00 00 	comiss 0xdc9f(%rip),%xmm0        # 14eb0 <g_991+0xe5c>
    7211:	76 07                	jbe    721a <safe_add_func_float_f_f+0x53>
    7213:	f3 0f 10 45 fc       	movss  -0x4(%rbp),%xmm0
    7218:	eb 0a                	jmp    7224 <safe_add_func_float_f_f+0x5d>
    721a:	f3 0f 10 45 fc       	movss  -0x4(%rbp),%xmm0
    721f:	f3 0f 58 45 f8       	addss  -0x8(%rbp),%xmm0
    7224:	5d                   	pop    %rbp
    7225:	c3                   	retq   

0000000000007226 <safe_sub_func_float_f_f>:
    7226:	f3 0f 1e fa          	endbr64 
    722a:	55                   	push   %rbp
    722b:	48 89 e5             	mov    %rsp,%rbp
    722e:	f3 0f 11 45 fc       	movss  %xmm0,-0x4(%rbp)
    7233:	f3 0f 11 4d f8       	movss  %xmm1,-0x8(%rbp)
    7238:	f3 0f 10 4d fc       	movss  -0x4(%rbp),%xmm1
    723d:	f3 0f 10 05 53 dc 00 	movss  0xdc53(%rip),%xmm0        # 14e98 <g_991+0xe44>
    7244:	00 
    7245:	f3 0f 59 c1          	mulss  %xmm1,%xmm0
    7249:	f3 0f 10 55 f8       	movss  -0x8(%rbp),%xmm2
    724e:	f3 0f 10 0d 42 dc 00 	movss  0xdc42(%rip),%xmm1        # 14e98 <g_991+0xe44>
    7255:	00 
    7256:	f3 0f 59 ca          	mulss  %xmm2,%xmm1
    725a:	f3 0f 5c c1          	subss  %xmm1,%xmm0
    725e:	f3 0f 10 0d 3a dc 00 	movss  0xdc3a(%rip),%xmm1        # 14ea0 <g_991+0xe4c>
    7265:	00 
    7266:	0f 54 c1             	andps  %xmm1,%xmm0
    7269:	0f 2f 05 40 dc 00 00 	comiss 0xdc40(%rip),%xmm0        # 14eb0 <g_991+0xe5c>
    7270:	76 07                	jbe    7279 <safe_sub_func_float_f_f+0x53>
    7272:	f3 0f 10 45 fc       	movss  -0x4(%rbp),%xmm0
    7277:	eb 0a                	jmp    7283 <safe_sub_func_float_f_f+0x5d>
    7279:	f3 0f 10 45 fc       	movss  -0x4(%rbp),%xmm0
    727e:	f3 0f 5c 45 f8       	subss  -0x8(%rbp),%xmm0
    7283:	5d                   	pop    %rbp
    7284:	c3                   	retq   

0000000000007285 <safe_mul_func_float_f_f>:
    7285:	f3 0f 1e fa          	endbr64 
    7289:	55                   	push   %rbp
    728a:	48 89 e5             	mov    %rsp,%rbp
    728d:	f3 0f 11 45 fc       	movss  %xmm0,-0x4(%rbp)
    7292:	f3 0f 11 4d f8       	movss  %xmm1,-0x8(%rbp)
    7297:	f3 0f 10 4d fc       	movss  -0x4(%rbp),%xmm1
    729c:	f3 0f 10 05 10 dc 00 	movss  0xdc10(%rip),%xmm0        # 14eb4 <g_991+0xe60>
    72a3:	00 
    72a4:	f3 0f 59 c8          	mulss  %xmm0,%xmm1
    72a8:	f3 0f 10 55 f8       	movss  -0x8(%rbp),%xmm2
    72ad:	f3 0f 10 05 03 dc 00 	movss  0xdc03(%rip),%xmm0        # 14eb8 <g_991+0xe64>
    72b4:	00 
    72b5:	f3 0f 59 c2          	mulss  %xmm2,%xmm0
    72b9:	f3 0f 59 c1          	mulss  %xmm1,%xmm0
    72bd:	f3 0f 10 0d db db 00 	movss  0xdbdb(%rip),%xmm1        # 14ea0 <g_991+0xe4c>
    72c4:	00 
    72c5:	0f 54 c1             	andps  %xmm1,%xmm0
    72c8:	0f 2f 05 ed db 00 00 	comiss 0xdbed(%rip),%xmm0        # 14ebc <g_991+0xe68>
    72cf:	76 07                	jbe    72d8 <safe_mul_func_float_f_f+0x53>
    72d1:	f3 0f 10 45 fc       	movss  -0x4(%rbp),%xmm0
    72d6:	eb 0a                	jmp    72e2 <safe_mul_func_float_f_f+0x5d>
    72d8:	f3 0f 10 45 fc       	movss  -0x4(%rbp),%xmm0
    72dd:	f3 0f 59 45 f8       	mulss  -0x8(%rbp),%xmm0
    72e2:	5d                   	pop    %rbp
    72e3:	c3                   	retq   

00000000000072e4 <safe_div_func_float_f_f>:
    72e4:	f3 0f 1e fa          	endbr64 
    72e8:	55                   	push   %rbp
    72e9:	48 89 e5             	mov    %rsp,%rbp
    72ec:	f3 0f 11 45 fc       	movss  %xmm0,-0x4(%rbp)
    72f1:	f3 0f 11 4d f8       	movss  %xmm1,-0x8(%rbp)
    72f6:	f3 0f 10 45 f8       	movss  -0x8(%rbp),%xmm0
    72fb:	f3 0f 10 0d 9d db 00 	movss  0xdb9d(%rip),%xmm1        # 14ea0 <g_991+0xe4c>
    7302:	00 
    7303:	0f 54 c8             	andps  %xmm0,%xmm1
    7306:	f3 0f 10 05 b2 db 00 	movss  0xdbb2(%rip),%xmm0        # 14ec0 <g_991+0xe6c>
    730d:	00 
    730e:	0f 2f c1             	comiss %xmm1,%xmm0
    7311:	0f 97 c0             	seta   %al
    7314:	83 f0 01             	xor    $0x1,%eax
    7317:	84 c0                	test   %al,%al
    7319:	75 56                	jne    7371 <safe_div_func_float_f_f+0x8d>
    731b:	66 0f ef c0          	pxor   %xmm0,%xmm0
    731f:	0f 2e 45 f8          	ucomiss -0x8(%rbp),%xmm0
    7323:	7a 0a                	jp     732f <safe_div_func_float_f_f+0x4b>
    7325:	66 0f ef c0          	pxor   %xmm0,%xmm0
    7329:	0f 2e 45 f8          	ucomiss -0x8(%rbp),%xmm0
    732d:	74 4e                	je     737d <safe_div_func_float_f_f+0x99>
    732f:	f3 0f 10 4d fc       	movss  -0x4(%rbp),%xmm1
    7334:	f3 0f 10 05 88 db 00 	movss  0xdb88(%rip),%xmm0        # 14ec4 <g_991+0xe70>
    733b:	00 
    733c:	f3 0f 59 c1          	mulss  %xmm1,%xmm0
    7340:	f3 0f 10 55 f8       	movss  -0x8(%rbp),%xmm2
    7345:	f3 0f 10 0d 7b db 00 	movss  0xdb7b(%rip),%xmm1        # 14ec8 <g_991+0xe74>
    734c:	00 
    734d:	f3 0f 59 ca          	mulss  %xmm2,%xmm1
    7351:	f3 0f 5e c1          	divss  %xmm1,%xmm0
    7355:	f3 0f 10 0d 43 db 00 	movss  0xdb43(%rip),%xmm1        # 14ea0 <g_991+0xe4c>
    735c:	00 
    735d:	0f 54 c1             	andps  %xmm1,%xmm0
    7360:	0f 2f 05 65 db 00 00 	comiss 0xdb65(%rip),%xmm0        # 14ecc <g_991+0xe78>
    7367:	0f 97 c0             	seta   %al
    736a:	83 f0 01             	xor    $0x1,%eax
    736d:	84 c0                	test   %al,%al
    736f:	74 0c                	je     737d <safe_div_func_float_f_f+0x99>
    7371:	f3 0f 10 45 fc       	movss  -0x4(%rbp),%xmm0
    7376:	f3 0f 5e 45 f8       	divss  -0x8(%rbp),%xmm0
    737b:	eb 05                	jmp    7382 <safe_div_func_float_f_f+0x9e>
    737d:	f3 0f 10 45 fc       	movss  -0x4(%rbp),%xmm0
    7382:	5d                   	pop    %rbp
    7383:	c3                   	retq   

0000000000007384 <safe_add_func_double_f_f>:
    7384:	f3 0f 1e fa          	endbr64 
    7388:	55                   	push   %rbp
    7389:	48 89 e5             	mov    %rsp,%rbp
    738c:	f2 0f 11 45 f8       	movsd  %xmm0,-0x8(%rbp)
    7391:	f2 0f 11 4d f0       	movsd  %xmm1,-0x10(%rbp)
    7396:	f2 0f 10 4d f8       	movsd  -0x8(%rbp),%xmm1
    739b:	f2 0f 10 05 2d db 00 	movsd  0xdb2d(%rip),%xmm0        # 14ed0 <g_991+0xe7c>
    73a2:	00 
    73a3:	f2 0f 59 c8          	mulsd  %xmm0,%xmm1
    73a7:	f2 0f 10 55 f0       	movsd  -0x10(%rbp),%xmm2
    73ac:	f2 0f 10 05 1c db 00 	movsd  0xdb1c(%rip),%xmm0        # 14ed0 <g_991+0xe7c>
    73b3:	00 
    73b4:	f2 0f 59 c2          	mulsd  %xmm2,%xmm0
    73b8:	f2 0f 58 c1          	addsd  %xmm1,%xmm0
    73bc:	f3 0f 7e 0d 1c db 00 	movq   0xdb1c(%rip),%xmm1        # 14ee0 <g_991+0xe8c>
    73c3:	00 
    73c4:	66 0f 54 c1          	andpd  %xmm1,%xmm0
    73c8:	66 0f 2f 05 20 db 00 	comisd 0xdb20(%rip),%xmm0        # 14ef0 <g_991+0xe9c>
    73cf:	00 
    73d0:	76 07                	jbe    73d9 <safe_add_func_double_f_f+0x55>
    73d2:	f2 0f 10 45 f8       	movsd  -0x8(%rbp),%xmm0
    73d7:	eb 0a                	jmp    73e3 <safe_add_func_double_f_f+0x5f>
    73d9:	f2 0f 10 45 f8       	movsd  -0x8(%rbp),%xmm0
    73de:	f2 0f 58 45 f0       	addsd  -0x10(%rbp),%xmm0
    73e3:	5d                   	pop    %rbp
    73e4:	c3                   	retq   

00000000000073e5 <safe_sub_func_double_f_f>:
    73e5:	f3 0f 1e fa          	endbr64 
    73e9:	55                   	push   %rbp
    73ea:	48 89 e5             	mov    %rsp,%rbp
    73ed:	f2 0f 11 45 f8       	movsd  %xmm0,-0x8(%rbp)
    73f2:	f2 0f 11 4d f0       	movsd  %xmm1,-0x10(%rbp)
    73f7:	f2 0f 10 4d f8       	movsd  -0x8(%rbp),%xmm1
    73fc:	f2 0f 10 05 cc da 00 	movsd  0xdacc(%rip),%xmm0        # 14ed0 <g_991+0xe7c>
    7403:	00 
    7404:	f2 0f 59 c1          	mulsd  %xmm1,%xmm0
    7408:	f2 0f 10 55 f0       	movsd  -0x10(%rbp),%xmm2
    740d:	f2 0f 10 0d bb da 00 	movsd  0xdabb(%rip),%xmm1        # 14ed0 <g_991+0xe7c>
    7414:	00 
    7415:	f2 0f 59 ca          	mulsd  %xmm2,%xmm1
    7419:	f2 0f 5c c1          	subsd  %xmm1,%xmm0
    741d:	f3 0f 7e 0d bb da 00 	movq   0xdabb(%rip),%xmm1        # 14ee0 <g_991+0xe8c>
    7424:	00 
    7425:	66 0f 54 c1          	andpd  %xmm1,%xmm0
    7429:	66 0f 2f 05 bf da 00 	comisd 0xdabf(%rip),%xmm0        # 14ef0 <g_991+0xe9c>
    7430:	00 
    7431:	76 07                	jbe    743a <safe_sub_func_double_f_f+0x55>
    7433:	f2 0f 10 45 f8       	movsd  -0x8(%rbp),%xmm0
    7438:	eb 0a                	jmp    7444 <safe_sub_func_double_f_f+0x5f>
    743a:	f2 0f 10 45 f8       	movsd  -0x8(%rbp),%xmm0
    743f:	f2 0f 5c 45 f0       	subsd  -0x10(%rbp),%xmm0
    7444:	5d                   	pop    %rbp
    7445:	c3                   	retq   

0000000000007446 <safe_mul_func_double_f_f>:
    7446:	f3 0f 1e fa          	endbr64 
    744a:	55                   	push   %rbp
    744b:	48 89 e5             	mov    %rsp,%rbp
    744e:	f2 0f 11 45 f8       	movsd  %xmm0,-0x8(%rbp)
    7453:	f2 0f 11 4d f0       	movsd  %xmm1,-0x10(%rbp)
    7458:	f2 0f 10 4d f8       	movsd  -0x8(%rbp),%xmm1
    745d:	f2 0f 10 05 93 da 00 	movsd  0xda93(%rip),%xmm0        # 14ef8 <g_991+0xea4>
    7464:	00 
    7465:	f2 0f 59 c8          	mulsd  %xmm0,%xmm1
    7469:	f2 0f 10 55 f0       	movsd  -0x10(%rbp),%xmm2
    746e:	f2 0f 10 05 8a da 00 	movsd  0xda8a(%rip),%xmm0        # 14f00 <g_991+0xeac>
    7475:	00 
    7476:	f2 0f 59 c2          	mulsd  %xmm2,%xmm0
    747a:	f2 0f 59 c1          	mulsd  %xmm1,%xmm0
    747e:	f3 0f 7e 0d 5a da 00 	movq   0xda5a(%rip),%xmm1        # 14ee0 <g_991+0xe8c>
    7485:	00 
    7486:	66 0f 54 c1          	andpd  %xmm1,%xmm0
    748a:	66 0f 2f 05 76 da 00 	comisd 0xda76(%rip),%xmm0        # 14f08 <g_991+0xeb4>
    7491:	00 
    7492:	76 07                	jbe    749b <safe_mul_func_double_f_f+0x55>
    7494:	f2 0f 10 45 f8       	movsd  -0x8(%rbp),%xmm0
    7499:	eb 0a                	jmp    74a5 <safe_mul_func_double_f_f+0x5f>
    749b:	f2 0f 10 45 f8       	movsd  -0x8(%rbp),%xmm0
    74a0:	f2 0f 59 45 f0       	mulsd  -0x10(%rbp),%xmm0
    74a5:	5d                   	pop    %rbp
    74a6:	c3                   	retq   

00000000000074a7 <safe_div_func_double_f_f>:
    74a7:	f3 0f 1e fa          	endbr64 
    74ab:	55                   	push   %rbp
    74ac:	48 89 e5             	mov    %rsp,%rbp
    74af:	f2 0f 11 45 f8       	movsd  %xmm0,-0x8(%rbp)
    74b4:	f2 0f 11 4d f0       	movsd  %xmm1,-0x10(%rbp)
    74b9:	f2 0f 10 45 f0       	movsd  -0x10(%rbp),%xmm0
    74be:	f3 0f 7e 0d 1a da 00 	movq   0xda1a(%rip),%xmm1        # 14ee0 <g_991+0xe8c>
    74c5:	00 
    74c6:	66 0f 54 c8          	andpd  %xmm0,%xmm1
    74ca:	f2 0f 10 05 3e da 00 	movsd  0xda3e(%rip),%xmm0        # 14f10 <g_991+0xebc>
    74d1:	00 
    74d2:	66 0f 2f c1          	comisd %xmm1,%xmm0
    74d6:	0f 97 c0             	seta   %al
    74d9:	83 f0 01             	xor    $0x1,%eax
    74dc:	84 c0                	test   %al,%al
    74de:	75 5a                	jne    753a <safe_div_func_double_f_f+0x93>
    74e0:	66 0f ef c0          	pxor   %xmm0,%xmm0
    74e4:	66 0f 2e 45 f0       	ucomisd -0x10(%rbp),%xmm0
    74e9:	7a 0b                	jp     74f6 <safe_div_func_double_f_f+0x4f>
    74eb:	66 0f ef c0          	pxor   %xmm0,%xmm0
    74ef:	66 0f 2e 45 f0       	ucomisd -0x10(%rbp),%xmm0
    74f4:	74 50                	je     7546 <safe_div_func_double_f_f+0x9f>
    74f6:	f2 0f 10 4d f8       	movsd  -0x8(%rbp),%xmm1
    74fb:	f2 0f 10 05 15 da 00 	movsd  0xda15(%rip),%xmm0        # 14f18 <g_991+0xec4>
    7502:	00 
    7503:	f2 0f 59 c1          	mulsd  %xmm1,%xmm0
    7507:	f2 0f 10 55 f0       	movsd  -0x10(%rbp),%xmm2
    750c:	f2 0f 10 0d 0c da 00 	movsd  0xda0c(%rip),%xmm1        # 14f20 <g_991+0xecc>
    7513:	00 
    7514:	f2 0f 59 ca          	mulsd  %xmm2,%xmm1
    7518:	f2 0f 5e c1          	divsd  %xmm1,%xmm0
    751c:	f3 0f 7e 0d bc d9 00 	movq   0xd9bc(%rip),%xmm1        # 14ee0 <g_991+0xe8c>
    7523:	00 
    7524:	66 0f 54 c1          	andpd  %xmm1,%xmm0
    7528:	66 0f 2f 05 f8 d9 00 	comisd 0xd9f8(%rip),%xmm0        # 14f28 <g_991+0xed4>
    752f:	00 
    7530:	0f 97 c0             	seta   %al
    7533:	83 f0 01             	xor    $0x1,%eax
    7536:	84 c0                	test   %al,%al
    7538:	74 0c                	je     7546 <safe_div_func_double_f_f+0x9f>
    753a:	f2 0f 10 45 f8       	movsd  -0x8(%rbp),%xmm0
    753f:	f2 0f 5e 45 f0       	divsd  -0x10(%rbp),%xmm0
    7544:	eb 05                	jmp    754b <safe_div_func_double_f_f+0xa4>
    7546:	f2 0f 10 45 f8       	movsd  -0x8(%rbp),%xmm0
    754b:	5d                   	pop    %rbp
    754c:	c3                   	retq   

000000000000754d <safe_convert_func_float_to_int32_t>:
    754d:	f3 0f 1e fa          	endbr64 
    7551:	55                   	push   %rbp
    7552:	48 89 e5             	mov    %rsp,%rbp
    7555:	f3 0f 11 45 fc       	movss  %xmm0,-0x4(%rbp)
    755a:	f3 0f 10 05 ce d9 00 	movss  0xd9ce(%rip),%xmm0        # 14f30 <g_991+0xedc>
    7561:	00 
    7562:	0f 2f 45 fc          	comiss -0x4(%rbp),%xmm0
    7566:	0f 93 c0             	setae  %al
    7569:	83 f0 01             	xor    $0x1,%eax
    756c:	84 c0                	test   %al,%al
    756e:	74 21                	je     7591 <safe_convert_func_float_to_int32_t+0x44>
    7570:	f3 0f 10 45 fc       	movss  -0x4(%rbp),%xmm0
    7575:	0f 2f 05 b8 d9 00 00 	comiss 0xd9b8(%rip),%xmm0        # 14f34 <g_991+0xee0>
    757c:	0f 93 c0             	setae  %al
    757f:	83 f0 01             	xor    $0x1,%eax
    7582:	84 c0                	test   %al,%al
    7584:	74 0b                	je     7591 <safe_convert_func_float_to_int32_t+0x44>
    7586:	f3 0f 10 45 fc       	movss  -0x4(%rbp),%xmm0
    758b:	f3 0f 2c c0          	cvttss2si %xmm0,%eax
    758f:	eb 05                	jmp    7596 <safe_convert_func_float_to_int32_t+0x49>
    7591:	b8 ff ff ff 7f       	mov    $0x7fffffff,%eax
    7596:	5d                   	pop    %rbp
    7597:	c3                   	retq   

0000000000007598 <crc32_gentab>:
    7598:	f3 0f 1e fa          	endbr64 
    759c:	55                   	push   %rbp
    759d:	48 89 e5             	mov    %rsp,%rbp
    75a0:	c7 45 fc 20 83 b8 ed 	movl   $0xedb88320,-0x4(%rbp)
    75a7:	c7 45 f4 00 00 00 00 	movl   $0x0,-0xc(%rbp)
    75ae:	eb 51                	jmp    7601 <crc32_gentab+0x69>
    75b0:	8b 45 f4             	mov    -0xc(%rbp),%eax
    75b3:	89 45 f0             	mov    %eax,-0x10(%rbp)
    75b6:	c7 45 f8 08 00 00 00 	movl   $0x8,-0x8(%rbp)
    75bd:	eb 1e                	jmp    75dd <crc32_gentab+0x45>
    75bf:	8b 45 f0             	mov    -0x10(%rbp),%eax
    75c2:	83 e0 01             	and    $0x1,%eax
    75c5:	85 c0                	test   %eax,%eax
    75c7:	74 0d                	je     75d6 <crc32_gentab+0x3e>
    75c9:	8b 45 f0             	mov    -0x10(%rbp),%eax
    75cc:	d1 e8                	shr    %eax
    75ce:	33 45 fc             	xor    -0x4(%rbp),%eax
    75d1:	89 45 f0             	mov    %eax,-0x10(%rbp)
    75d4:	eb 03                	jmp    75d9 <crc32_gentab+0x41>
    75d6:	d1 6d f0             	shrl   -0x10(%rbp)
    75d9:	83 6d f8 01          	subl   $0x1,-0x8(%rbp)
    75dd:	83 7d f8 00          	cmpl   $0x0,-0x8(%rbp)
    75e1:	7f dc                	jg     75bf <crc32_gentab+0x27>
    75e3:	8b 45 f4             	mov    -0xc(%rbp),%eax
    75e6:	48 98                	cltq   
    75e8:	48 8d 0c 85 00 00 00 	lea    0x0(,%rax,4),%rcx
    75ef:	00 
    75f0:	48 8d 15 09 31 01 00 	lea    0x13109(%rip),%rdx        # 1a700 <crc32_tab>
    75f7:	8b 45 f0             	mov    -0x10(%rbp),%eax
    75fa:	89 04 11             	mov    %eax,(%rcx,%rdx,1)
    75fd:	83 45 f4 01          	addl   $0x1,-0xc(%rbp)
    7601:	81 7d f4 ff 00 00 00 	cmpl   $0xff,-0xc(%rbp)
    7608:	7e a6                	jle    75b0 <crc32_gentab+0x18>
    760a:	90                   	nop
    760b:	90                   	nop
    760c:	5d                   	pop    %rbp
    760d:	c3                   	retq   

000000000000760e <crc32_byte>:
    760e:	f3 0f 1e fa          	endbr64 
    7612:	55                   	push   %rbp
    7613:	48 89 e5             	mov    %rsp,%rbp
    7616:	89 f8                	mov    %edi,%eax
    7618:	88 45 fc             	mov    %al,-0x4(%rbp)
    761b:	8b 05 ff 09 01 00    	mov    0x109ff(%rip),%eax        # 18020 <crc32_context>
    7621:	c1 e8 08             	shr    $0x8,%eax
    7624:	89 c1                	mov    %eax,%ecx
    7626:	0f b6 55 fc          	movzbl -0x4(%rbp),%edx
    762a:	8b 05 f0 09 01 00    	mov    0x109f0(%rip),%eax        # 18020 <crc32_context>
    7630:	31 d0                	xor    %edx,%eax
    7632:	0f b6 c0             	movzbl %al,%eax
    7635:	89 c0                	mov    %eax,%eax
    7637:	48 8d 14 85 00 00 00 	lea    0x0(,%rax,4),%rdx
    763e:	00 
    763f:	48 8d 05 ba 30 01 00 	lea    0x130ba(%rip),%rax        # 1a700 <crc32_tab>
    7646:	8b 04 02             	mov    (%rdx,%rax,1),%eax
    7649:	31 c8                	xor    %ecx,%eax
    764b:	89 05 cf 09 01 00    	mov    %eax,0x109cf(%rip)        # 18020 <crc32_context>
    7651:	90                   	nop
    7652:	5d                   	pop    %rbp
    7653:	c3                   	retq   

0000000000007654 <crc32_8bytes>:
    7654:	f3 0f 1e fa          	endbr64 
    7658:	55                   	push   %rbp
    7659:	48 89 e5             	mov    %rsp,%rbp
    765c:	48 83 ec 08          	sub    $0x8,%rsp
    7660:	48 89 7d f8          	mov    %rdi,-0x8(%rbp)
    7664:	48 8b 45 f8          	mov    -0x8(%rbp),%rax
    7668:	0f b6 c0             	movzbl %al,%eax
    766b:	89 c7                	mov    %eax,%edi
    766d:	e8 9c ff ff ff       	callq  760e <crc32_byte>
    7672:	48 8b 45 f8          	mov    -0x8(%rbp),%rax
    7676:	48 c1 e8 08          	shr    $0x8,%rax
    767a:	0f b6 c0             	movzbl %al,%eax
    767d:	89 c7                	mov    %eax,%edi
    767f:	e8 8a ff ff ff       	callq  760e <crc32_byte>
    7684:	48 8b 45 f8          	mov    -0x8(%rbp),%rax
    7688:	48 c1 e8 10          	shr    $0x10,%rax
    768c:	0f b6 c0             	movzbl %al,%eax
    768f:	89 c7                	mov    %eax,%edi
    7691:	e8 78 ff ff ff       	callq  760e <crc32_byte>
    7696:	48 8b 45 f8          	mov    -0x8(%rbp),%rax
    769a:	48 c1 e8 18          	shr    $0x18,%rax
    769e:	0f b6 c0             	movzbl %al,%eax
    76a1:	89 c7                	mov    %eax,%edi
    76a3:	e8 66 ff ff ff       	callq  760e <crc32_byte>
    76a8:	48 8b 45 f8          	mov    -0x8(%rbp),%rax
    76ac:	48 c1 e8 20          	shr    $0x20,%rax
    76b0:	0f b6 c0             	movzbl %al,%eax
    76b3:	89 c7                	mov    %eax,%edi
    76b5:	e8 54 ff ff ff       	callq  760e <crc32_byte>
    76ba:	48 8b 45 f8          	mov    -0x8(%rbp),%rax
    76be:	48 c1 e8 28          	shr    $0x28,%rax
    76c2:	0f b6 c0             	movzbl %al,%eax
    76c5:	89 c7                	mov    %eax,%edi
    76c7:	e8 42 ff ff ff       	callq  760e <crc32_byte>
    76cc:	48 8b 45 f8          	mov    -0x8(%rbp),%rax
    76d0:	48 c1 e8 30          	shr    $0x30,%rax
    76d4:	0f b6 c0             	movzbl %al,%eax
    76d7:	89 c7                	mov    %eax,%edi
    76d9:	e8 30 ff ff ff       	callq  760e <crc32_byte>
    76de:	48 8b 45 f8          	mov    -0x8(%rbp),%rax
    76e2:	48 c1 e8 38          	shr    $0x38,%rax
    76e6:	0f b6 c0             	movzbl %al,%eax
    76e9:	89 c7                	mov    %eax,%edi
    76eb:	e8 1e ff ff ff       	callq  760e <crc32_byte>
    76f0:	90                   	nop
    76f1:	c9                   	leaveq 
    76f2:	c3                   	retq   

00000000000076f3 <transparent_crc>:
    76f3:	f3 0f 1e fa          	endbr64 
    76f7:	55                   	push   %rbp
    76f8:	48 89 e5             	mov    %rsp,%rbp
    76fb:	48 83 ec 20          	sub    $0x20,%rsp
    76ff:	48 89 7d f8          	mov    %rdi,-0x8(%rbp)
    7703:	48 89 75 f0          	mov    %rsi,-0x10(%rbp)
    7707:	89 55 ec             	mov    %edx,-0x14(%rbp)
    770a:	48 8b 45 f8          	mov    -0x8(%rbp),%rax
    770e:	48 89 c7             	mov    %rax,%rdi
    7711:	e8 3e ff ff ff       	callq  7654 <crc32_8bytes>
    7716:	83 7d ec 00          	cmpl   $0x0,-0x14(%rbp)
    771a:	74 22                	je     773e <transparent_crc+0x4b>
    771c:	8b 05 fe 08 01 00    	mov    0x108fe(%rip),%eax        # 18020 <crc32_context>
    7722:	f7 d0                	not    %eax
    7724:	89 c2                	mov    %eax,%edx
    7726:	48 8b 45 f0          	mov    -0x10(%rbp),%rax
    772a:	48 89 c6             	mov    %rax,%rsi
    772d:	48 8d 3d fc c8 00 00 	lea    0xc8fc(%rip),%rdi        # 14030 <_IO_stdin_used+0x30>
    7734:	b8 00 00 00 00       	mov    $0x0,%eax
    7739:	e8 42 e9 ff ff       	callq  6080 <printf@plt>
    773e:	90                   	nop
    773f:	c9                   	leaveq 
    7740:	c3                   	retq   

0000000000007741 <transparent_crc_bytes>:
    7741:	f3 0f 1e fa          	endbr64 
    7745:	55                   	push   %rbp
    7746:	48 89 e5             	mov    %rsp,%rbp
    7749:	48 83 ec 30          	sub    $0x30,%rsp
    774d:	48 89 7d e8          	mov    %rdi,-0x18(%rbp)
    7751:	89 75 e4             	mov    %esi,-0x1c(%rbp)
    7754:	48 89 55 d8          	mov    %rdx,-0x28(%rbp)
    7758:	89 4d e0             	mov    %ecx,-0x20(%rbp)
    775b:	c7 45 fc 00 00 00 00 	movl   $0x0,-0x4(%rbp)
    7762:	eb 1e                	jmp    7782 <transparent_crc_bytes+0x41>
    7764:	8b 45 fc             	mov    -0x4(%rbp),%eax
    7767:	48 63 d0             	movslq %eax,%rdx
    776a:	48 8b 45 e8          	mov    -0x18(%rbp),%rax
    776e:	48 01 d0             	add    %rdx,%rax
    7771:	0f b6 00             	movzbl (%rax),%eax
    7774:	0f b6 c0             	movzbl %al,%eax
    7777:	89 c7                	mov    %eax,%edi
    7779:	e8 90 fe ff ff       	callq  760e <crc32_byte>
    777e:	83 45 fc 01          	addl   $0x1,-0x4(%rbp)
    7782:	8b 45 fc             	mov    -0x4(%rbp),%eax
    7785:	3b 45 e4             	cmp    -0x1c(%rbp),%eax
    7788:	7c da                	jl     7764 <transparent_crc_bytes+0x23>
    778a:	83 7d e0 00          	cmpl   $0x0,-0x20(%rbp)
    778e:	74 22                	je     77b2 <transparent_crc_bytes+0x71>
    7790:	8b 05 8a 08 01 00    	mov    0x1088a(%rip),%eax        # 18020 <crc32_context>
    7796:	f7 d0                	not    %eax
    7798:	89 c2                	mov    %eax,%edx
    779a:	48 8b 45 d8          	mov    -0x28(%rbp),%rax
    779e:	48 89 c6             	mov    %rax,%rsi
    77a1:	48 8d 3d 88 c8 00 00 	lea    0xc888(%rip),%rdi        # 14030 <_IO_stdin_used+0x30>
    77a8:	b8 00 00 00 00       	mov    $0x0,%eax
    77ad:	e8 ce e8 ff ff       	callq  6080 <printf@plt>
    77b2:	90                   	nop
    77b3:	c9                   	leaveq 
    77b4:	c3                   	retq   

00000000000077b5 <func_1>:
    77b5:	f3 0f 1e fa          	endbr64 
    77b9:	55                   	push   %rbp
    77ba:	48 89 e5             	mov    %rsp,%rbp
    77bd:	41 57                	push   %r15
    77bf:	41 56                	push   %r14
    77c1:	41 55                	push   %r13
    77c3:	41 54                	push   %r12
    77c5:	53                   	push   %rbx
    77c6:	48 81 ec 98 04 00 00 	sub    $0x498,%rsp
    77cd:	64 48 8b 04 25 28 00 	mov    %fs:0x28,%rax
    77d4:	00 00 
    77d6:	48 89 45 c8          	mov    %rax,-0x38(%rbp)
    77da:	31 c0                	xor    %eax,%eax
    77dc:	c6 85 72 fb ff ff 2f 	movb   $0x2f,-0x48e(%rbp)
    77e3:	48 8d 05 4a 08 01 00 	lea    0x1084a(%rip),%rax        # 18034 <g_30>
    77ea:	48 89 85 90 fb ff ff 	mov    %rax,-0x470(%rbp)
    77f1:	48 8d 85 00 fc ff ff 	lea    -0x400(%rbp),%rax
    77f8:	48 8d 15 61 0d 01 00 	lea    0x10d61(%rip),%rdx        # 18560 <g_1266+0x40>
    77ff:	b9 78 00 00 00       	mov    $0x78,%ecx
    7804:	48 89 c7             	mov    %rax,%rdi
    7807:	48 89 d6             	mov    %rdx,%rsi
    780a:	f3 48 a5             	rep movsq %ds:(%rsi),%es:(%rdi)
    780d:	c7 85 80 fb ff ff b8 	movl   $0xc10b42b8,-0x480(%rbp)
    7814:	42 0b c1 
    7817:	48 8d 05 a4 09 01 00 	lea    0x109a4(%rip),%rax        # 181c2 <g_288>
    781e:	48 89 85 98 fb ff ff 	mov    %rax,-0x468(%rbp)
    7825:	c7 85 84 fb ff ff fc 	movl   $0xfffffffc,-0x47c(%rbp)
    782c:	ff ff ff 
    782f:	48 c7 85 a0 fb ff ff 	movq   $0xfffffffffffffff6,-0x460(%rbp)
    7836:	f6 ff ff ff 
    783a:	48 8d 05 31 08 01 00 	lea    0x10831(%rip),%rax        # 18072 <g_246+0x2>
    7841:	48 89 85 a8 fb ff ff 	mov    %rax,-0x458(%rbp)
    7848:	c7 85 74 fb ff ff bb 	movl   $0x36ad6abb,-0x48c(%rbp)
    784f:	6a ad 36 
    7852:	48 c7 85 b0 fb ff ff 	movq   $0x0,-0x450(%rbp)
    7859:	00 00 00 00 
    785d:	48 8d 05 9c 28 01 00 	lea    0x1289c(%rip),%rax        # 1a100 <g_236>
    7864:	48 89 85 b8 fb ff ff 	mov    %rax,-0x448(%rbp)
    786b:	48 8d 05 96 28 01 00 	lea    0x12896(%rip),%rax        # 1a108 <g_235>
    7872:	48 89 85 c0 fb ff ff 	mov    %rax,-0x440(%rbp)
    7879:	48 8d 05 88 28 01 00 	lea    0x12888(%rip),%rax        # 1a108 <g_235>
    7880:	48 89 85 c8 fb ff ff 	mov    %rax,-0x438(%rbp)
    7887:	48 8d 05 72 28 01 00 	lea    0x12872(%rip),%rax        # 1a100 <g_236>
    788e:	48 89 85 d0 fb ff ff 	mov    %rax,-0x430(%rbp)
    7895:	48 8d 05 bc 07 01 00 	lea    0x107bc(%rip),%rax        # 18058 <g_146>
    789c:	48 89 85 88 fb ff ff 	mov    %rax,-0x478(%rbp)
    78a3:	48 8d 85 88 fb ff ff 	lea    -0x478(%rbp),%rax
    78aa:	48 89 85 d8 fb ff ff 	mov    %rax,-0x428(%rbp)
    78b1:	48 8d 05 a0 28 01 00 	lea    0x128a0(%rip),%rax        # 1a158 <g_792>
    78b8:	48 89 85 e0 fb ff ff 	mov    %rax,-0x420(%rbp)
    78bf:	48 8d 05 86 07 01 00 	lea    0x10786(%rip),%rax        # 1804c <g_115>
    78c6:	48 89 85 e8 fb ff ff 	mov    %rax,-0x418(%rbp)
    78cd:	c6 85 73 fb ff ff f8 	movb   $0xf8,-0x48d(%rbp)
    78d4:	c7 85 78 fb ff ff 00 	movl   $0x0,-0x488(%rbp)
    78db:	00 00 00 
    78de:	eb 51                	jmp    7931 <func_1+0x17c>
    78e0:	c7 85 7c fb ff ff 00 	movl   $0x0,-0x484(%rbp)
    78e7:	00 00 00 
    78ea:	eb 35                	jmp    7921 <func_1+0x16c>
    78ec:	8b 85 7c fb ff ff    	mov    -0x484(%rbp),%eax
    78f2:	48 63 c8             	movslq %eax,%rcx
    78f5:	8b 85 78 fb ff ff    	mov    -0x488(%rbp),%eax
    78fb:	48 63 d0             	movslq %eax,%rdx
    78fe:	48 89 d0             	mov    %rdx,%rax
    7901:	48 01 c0             	add    %rax,%rax
    7904:	48 01 d0             	add    %rdx,%rax
    7907:	48 8d 5d d0          	lea    -0x30(%rbp),%rbx
    790b:	48 01 d8             	add    %rbx,%rax
    790e:	48 01 c8             	add    %rcx,%rax
    7911:	48 2d df 03 00 00    	sub    $0x3df,%rax
    7917:	c6 00 03             	movb   $0x3,(%rax)
    791a:	83 85 7c fb ff ff 01 	addl   $0x1,-0x484(%rbp)
    7921:	83 bd 7c fb ff ff 02 	cmpl   $0x2,-0x484(%rbp)
    7928:	7e c2                	jle    78ec <func_1+0x137>
    792a:	83 85 78 fb ff ff 01 	addl   $0x1,-0x488(%rbp)
    7931:	83 bd 78 fb ff ff 00 	cmpl   $0x0,-0x488(%rbp)
    7938:	7e a6                	jle    78e0 <func_1+0x12b>
    793a:	c7 85 78 fb ff ff 00 	movl   $0x0,-0x488(%rbp)
    7941:	00 00 00 
    7944:	eb 1a                	jmp    7960 <func_1+0x1ab>
    7946:	8b 85 78 fb ff ff    	mov    -0x488(%rbp),%eax
    794c:	48 98                	cltq   
    794e:	c7 84 85 f4 fb ff ff 	movl   $0xfffffff7,-0x40c(%rbp,%rax,4)
    7955:	f7 ff ff ff 
    7959:	83 85 78 fb ff ff 01 	addl   $0x1,-0x488(%rbp)
    7960:	83 bd 78 fb ff ff 02 	cmpl   $0x2,-0x488(%rbp)
    7967:	7e dd                	jle    7946 <func_1+0x191>
    7969:	8b 85 74 fb ff ff    	mov    -0x48c(%rbp),%eax
    796f:	44 0f b6 e8          	movzbl %al,%r13d
    7973:	0f b6 05 72 08 01 00 	movzbl 0x10872(%rip),%eax        # 181ec <g_419+0xc>
    797a:	c1 e0 07             	shl    $0x7,%eax
    797d:	c0 f8 07             	sar    $0x7,%al
    7980:	66 98                	cbtw   
    7982:	44 0f b7 f0          	movzwl %ax,%r14d
    7986:	0f b6 05 63 0b 01 00 	movzbl 0x10b63(%rip),%eax        # 184f0 <g_738>
    798d:	c1 e0 07             	shl    $0x7,%eax
    7990:	c0 f8 07             	sar    $0x7,%al
    7993:	66 98                	cbtw   
    7995:	0f b7 c0             	movzwl %ax,%eax
    7998:	89 85 6c fb ff ff    	mov    %eax,-0x494(%rbp)
    799e:	0f b6 05 5f 08 01 00 	movzbl 0x1085f(%rip),%eax        # 18204 <g_426>
    79a5:	c1 e0 07             	shl    $0x7,%eax
    79a8:	c0 f8 07             	sar    $0x7,%al
    79ab:	48 0f be c0          	movsbq %al,%rax
    79af:	48 89 85 60 fb ff ff 	mov    %rax,-0x4a0(%rbp)
    79b6:	0f b6 05 2f 08 01 00 	movzbl 0x1082f(%rip),%eax        # 181ec <g_419+0xc>
    79bd:	c1 e0 07             	shl    $0x7,%eax
    79c0:	c0 f8 07             	sar    $0x7,%al
    79c3:	44 0f be f8          	movsbl %al,%r15d
    79c7:	0f b6 85 72 fb ff ff 	movzbl -0x48e(%rbp),%eax
    79ce:	89 85 68 fb ff ff    	mov    %eax,-0x498(%rbp)
    79d4:	0f b6 85 f3 fb ff ff 	movzbl -0x40d(%rbp),%eax
    79db:	0f b6 c0             	movzbl %al,%eax
    79de:	89 85 5c fb ff ff    	mov    %eax,-0x4a4(%rbp)
    79e4:	48 8b 85 90 fb ff ff 	mov    -0x470(%rbp),%rax
    79eb:	8b 10                	mov    (%rax),%edx
    79ed:	0f b6 05 3c 06 01 00 	movzbl 0x1063c(%rip),%eax        # 18030 <g_27>
    79f4:	0f be c0             	movsbl %al,%eax
    79f7:	21 c2                	and    %eax,%edx
    79f9:	48 8b 85 90 fb ff ff 	mov    -0x470(%rbp),%rax
    7a00:	89 10                	mov    %edx,(%rax)
    7a02:	48 8b 85 90 fb ff ff 	mov    -0x470(%rbp),%rax
    7a09:	8b 10                	mov    (%rax),%edx
    7a0b:	0f b6 85 72 fb ff ff 	movzbl -0x48e(%rbp),%eax
    7a12:	39 c2                	cmp    %eax,%edx
    7a14:	0f 82 8c 01 00 00    	jb     7ba6 <func_1+0x3f1>
    7a1a:	0f b6 85 f3 fb ff ff 	movzbl -0x40d(%rbp),%eax
    7a21:	0f b6 c0             	movzbl %al,%eax
    7a24:	89 85 58 fb ff ff    	mov    %eax,-0x4a8(%rbp)
    7a2a:	0f b6 05 d3 07 01 00 	movzbl 0x107d3(%rip),%eax        # 18204 <g_426>
    7a31:	c1 e0 07             	shl    $0x7,%eax
    7a34:	c0 f8 07             	sar    $0x7,%al
    7a37:	66 98                	cbtw   
    7a39:	0f b7 d8             	movzwl %ax,%ebx
    7a3c:	89 9d 54 fb ff ff    	mov    %ebx,-0x4ac(%rbp)
    7a42:	0f b6 85 f3 fb ff ff 	movzbl -0x40d(%rbp),%eax
    7a49:	0f b6 f8             	movzbl %al,%edi
    7a4c:	89 bd 50 fb ff ff    	mov    %edi,-0x4b0(%rbp)
    7a52:	48 8b 05 ff 05 01 00 	mov    0x105ff(%rip),%rax        # 18058 <g_146>
    7a59:	44 0f be c8          	movsbl %al,%r9d
    7a5d:	44 89 8d 4c fb ff ff 	mov    %r9d,-0x4b4(%rbp)
    7a64:	0f b6 05 c5 05 01 00 	movzbl 0x105c5(%rip),%eax        # 18030 <g_27>
    7a6b:	44 0f be e0          	movsbl %al,%r12d
    7a6f:	0f b6 85 f3 fb ff ff 	movzbl -0x40d(%rbp),%eax
    7a76:	0f b6 d8             	movzbl %al,%ebx
    7a79:	8b 15 b5 05 01 00    	mov    0x105b5(%rip),%edx        # 18034 <g_30>
    7a7f:	8b 05 af 05 01 00    	mov    0x105af(%rip),%eax        # 18034 <g_30>
    7a85:	89 c1                	mov    %eax,%ecx
    7a87:	0f b6 85 72 fb ff ff 	movzbl -0x48e(%rbp),%eax
    7a8e:	0f be f0             	movsbl %al,%esi
    7a91:	48 8b 85 90 fb ff ff 	mov    -0x470(%rbp),%rax
    7a98:	41 89 d0             	mov    %edx,%r8d
    7a9b:	48 8d 15 92 05 01 00 	lea    0x10592(%rip),%rdx        # 18034 <g_30>
    7aa2:	48 89 c7             	mov    %rax,%rdi
    7aa5:	e8 ec a2 00 00       	callq  11d96 <func_62>
    7aaa:	48 83 bd 90 fb ff ff 	cmpq   $0x0,-0x470(%rbp)
    7ab1:	00 
    7ab2:	0f 95 c0             	setne  %al
    7ab5:	0f b6 c0             	movzbl %al,%eax
    7ab8:	89 de                	mov    %ebx,%esi
    7aba:	89 c7                	mov    %eax,%edi
    7abc:	e8 f7 f3 ff ff       	callq  6eb8 <safe_add_func_uint32_t_u_u>
    7ac1:	98                   	cwtl   
    7ac2:	be ff ff ff ff       	mov    $0xffffffff,%esi
    7ac7:	89 c7                	mov    %eax,%edi
    7ac9:	e8 e5 e8 ff ff       	callq  63b3 <safe_add_func_int16_t_s_s>
    7ace:	0f be c0             	movsbl %al,%eax
    7ad1:	be 04 00 00 00       	mov    $0x4,%esi
    7ad6:	89 c7                	mov    %eax,%edi
    7ad8:	e8 58 e8 ff ff       	callq  6335 <safe_rshift_func_int8_t_s_s>
    7add:	0f be d0             	movsbl %al,%edx
    7ae0:	48 8b 85 90 fb ff ff 	mov    -0x470(%rbp),%rax
    7ae7:	89 10                	mov    %edx,(%rax)
    7ae9:	48 8b 85 90 fb ff ff 	mov    -0x470(%rbp),%rax
    7af0:	8b 30                	mov    (%rax),%esi
    7af2:	0f b6 85 f3 fb ff ff 	movzbl -0x40d(%rbp),%eax
    7af9:	0f b6 f8             	movzbl %al,%edi
    7afc:	48 8b 85 90 fb ff ff 	mov    -0x470(%rbp),%rax
    7b03:	48 89 c1             	mov    %rax,%rcx
    7b06:	44 89 e2             	mov    %r12d,%edx
    7b09:	e8 65 a2 00 00       	callq  11d73 <func_51>
    7b0e:	0f be c0             	movsbl %al,%eax
    7b11:	8b b5 4c fb ff ff    	mov    -0x4b4(%rbp),%esi
    7b17:	89 c7                	mov    %eax,%edi
    7b19:	e8 f4 e6 ff ff       	callq  6212 <safe_mul_func_int8_t_s_s>
    7b1e:	48 0f be c0          	movsbq %al,%rax
    7b22:	48 89 c7             	mov    %rax,%rdi
    7b25:	e8 03 87 00 00       	callq  1022d <func_47>
    7b2a:	48 89 c6             	mov    %rax,%rsi
    7b2d:	0f b6 85 f3 fb ff ff 	movzbl -0x40d(%rbp),%eax
    7b34:	0f b6 c0             	movzbl %al,%eax
    7b37:	89 85 f8 fb ff ff    	mov    %eax,-0x408(%rbp)
    7b3d:	8b 85 f8 fb ff ff    	mov    -0x408(%rbp),%eax
    7b43:	89 85 80 fb ff ff    	mov    %eax,-0x480(%rbp)
    7b49:	8b 85 80 fb ff ff    	mov    -0x480(%rbp),%eax
    7b4f:	48 98                	cltq   
    7b51:	8b 8d 54 fb ff ff    	mov    -0x4ac(%rbp),%ecx
    7b57:	8b 95 50 fb ff ff    	mov    -0x4b0(%rbp),%edx
    7b5d:	48 89 c7             	mov    %rax,%rdi
    7b60:	e8 bf 32 00 00       	callq  ae24 <func_37>
    7b65:	48 89 c7             	mov    %rax,%rdi
    7b68:	e8 b8 29 00 00       	callq  a525 <func_35>
    7b6d:	be 07 00 00 00       	mov    $0x7,%esi
    7b72:	89 c7                	mov    %eax,%edi
    7b74:	e8 86 eb ff ff       	callq  66ff <safe_div_func_int32_t_s_s>
    7b79:	89 c2                	mov    %eax,%edx
    7b7b:	0f b6 05 74 09 01 00 	movzbl 0x10974(%rip),%eax        # 184f6 <g_802>
    7b82:	c1 e0 07             	shl    $0x7,%eax
    7b85:	c0 f8 07             	sar    $0x7,%al
    7b88:	66 98                	cbtw   
    7b8a:	31 d0                	xor    %edx,%eax
    7b8c:	98                   	cwtl   
    7b8d:	8b b5 58 fb ff ff    	mov    -0x4a8(%rbp),%esi
    7b93:	89 c7                	mov    %eax,%edi
    7b95:	e8 5b e8 ff ff       	callq  63f5 <safe_mul_func_int16_t_s_s>
    7b9a:	66 85 c0             	test   %ax,%ax
    7b9d:	74 07                	je     7ba6 <func_1+0x3f1>
    7b9f:	ba 01 00 00 00       	mov    $0x1,%edx
    7ba4:	eb 05                	jmp    7bab <func_1+0x3f6>
    7ba6:	ba 00 00 00 00       	mov    $0x0,%edx
    7bab:	0f b6 85 72 fb ff ff 	movzbl -0x48e(%rbp),%eax
    7bb2:	21 c2                	and    %eax,%edx
    7bb4:	0f b6 05 75 04 01 00 	movzbl 0x10475(%rip),%eax        # 18030 <g_27>
    7bbb:	66 0f be c8          	movsbw %al,%cx
    7bbf:	0f b7 05 6c 04 01 00 	movzwl 0x1046c(%rip),%eax        # 18032 <g_28>
    7bc6:	31 c8                	xor    %ecx,%eax
    7bc8:	66 89 05 63 04 01 00 	mov    %ax,0x10463(%rip)        # 18032 <g_28>
    7bcf:	0f b7 05 5c 04 01 00 	movzwl 0x1045c(%rip),%eax        # 18032 <g_28>
    7bd6:	48 0f bf f0          	movswq %ax,%rsi
    7bda:	0f b6 05 4f 04 01 00 	movzbl 0x1044f(%rip),%eax        # 18030 <g_27>
    7be1:	48 0f be c0          	movsbq %al,%rax
    7be5:	8b 8d 5c fb ff ff    	mov    -0x4a4(%rbp),%ecx
    7beb:	48 89 c7             	mov    %rax,%rdi
    7bee:	e8 4e 21 00 00       	callq  9d41 <func_22>
    7bf3:	0f b6 c0             	movzbl %al,%eax
    7bf6:	8b b5 68 fb ff ff    	mov    -0x498(%rbp),%esi
    7bfc:	89 c7                	mov    %eax,%edi
    7bfe:	e8 49 f0 ff ff       	callq  6c4c <safe_lshift_func_uint8_t_u_u>
    7c03:	48 8b 95 98 fb ff ff 	mov    -0x468(%rbp),%rdx
    7c0a:	88 02                	mov    %al,(%rdx)
    7c0c:	48 8b 85 98 fb ff ff 	mov    -0x468(%rbp),%rax
    7c13:	0f b6 00             	movzbl (%rax),%eax
    7c16:	0f b6 c0             	movzbl %al,%eax
    7c19:	be 00 00 00 00       	mov    $0x0,%esi
    7c1e:	89 c7                	mov    %eax,%edi
    7c20:	e8 99 f0 ff ff       	callq  6cbe <safe_rshift_func_uint8_t_u_u>
    7c25:	0f b6 85 72 fb ff ff 	movzbl -0x48e(%rbp),%eax
    7c2c:	39 85 84 fb ff ff    	cmp    %eax,-0x47c(%rbp)
    7c32:	7e 08                	jle    7c3c <func_1+0x487>
    7c34:	8b 85 f8 fb ff ff    	mov    -0x408(%rbp),%eax
    7c3a:	85 c0                	test   %eax,%eax
    7c3c:	0f b6 85 f3 fb ff ff 	movzbl -0x40d(%rbp),%eax
    7c43:	0f b6 c0             	movzbl %al,%eax
    7c46:	48 8b 95 a0 fb ff ff 	mov    -0x460(%rbp),%rdx
    7c4d:	44 8b 85 6c fb ff ff 	mov    -0x494(%rbp),%r8d
    7c54:	48 89 d1             	mov    %rdx,%rcx
    7c57:	48 8b 95 60 fb ff ff 	mov    -0x4a0(%rbp),%rdx
    7c5e:	44 89 fe             	mov    %r15d,%esi
    7c61:	89 c7                	mov    %eax,%edi
    7c63:	e8 5d 01 00 00       	callq  7dc5 <func_12>
    7c68:	0f b6 95 f3 fb ff ff 	movzbl -0x40d(%rbp),%edx
    7c6f:	0f b6 d2             	movzbl %dl,%edx
    7c72:	21 d0                	and    %edx,%eax
    7c74:	85 c0                	test   %eax,%eax
    7c76:	75 0b                	jne    7c83 <func_1+0x4ce>
    7c78:	0f b6 85 f3 fb ff ff 	movzbl -0x40d(%rbp),%eax
    7c7f:	84 c0                	test   %al,%al
    7c81:	74 07                	je     7c8a <func_1+0x4d5>
    7c83:	b8 01 00 00 00       	mov    $0x1,%eax
    7c88:	eb 05                	jmp    7c8f <func_1+0x4da>
    7c8a:	b8 00 00 00 00       	mov    $0x0,%eax
    7c8f:	89 c2                	mov    %eax,%edx
    7c91:	48 8b 85 a8 fb ff ff 	mov    -0x458(%rbp),%rax
    7c98:	66 89 10             	mov    %dx,(%rax)
    7c9b:	48 8b 85 a8 fb ff ff 	mov    -0x458(%rbp),%rax
    7ca2:	0f b7 00             	movzwl (%rax),%eax
    7ca5:	0f bf d0             	movswl %ax,%edx
    7ca8:	0f b6 85 f1 fb ff ff 	movzbl -0x40f(%rbp),%eax
    7caf:	0f b6 c0             	movzbl %al,%eax
    7cb2:	39 c2                	cmp    %eax,%edx
    7cb4:	0f 9c c0             	setl   %al
    7cb7:	0f b6 c0             	movzbl %al,%eax
    7cba:	89 c7                	mov    %eax,%edi
    7cbc:	e8 dc 00 00 00       	callq  7d9d <func_10>
    7cc1:	0f b6 95 f3 fb ff ff 	movzbl -0x40d(%rbp),%edx
    7cc8:	0f b6 d2             	movzbl %dl,%edx
    7ccb:	39 d0                	cmp    %edx,%eax
    7ccd:	0f 9e c0             	setle  %al
    7cd0:	0f b6 c0             	movzbl %al,%eax
    7cd3:	33 85 84 fb ff ff    	xor    -0x47c(%rbp),%eax
    7cd9:	89 c2                	mov    %eax,%edx
    7cdb:	0f b6 85 72 fb ff ff 	movzbl -0x48e(%rbp),%eax
    7ce2:	89 d6                	mov    %edx,%esi
    7ce4:	89 c7                	mov    %eax,%edi
    7ce6:	e8 a7 e7 ff ff       	callq  6492 <safe_lshift_func_int16_t_s_s>
    7ceb:	8b 05 6f 03 01 00    	mov    0x1036f(%rip),%eax        # 18060 <g_151>
    7cf1:	0f b7 c0             	movzwl %ax,%eax
    7cf4:	44 89 f6             	mov    %r14d,%esi
    7cf7:	89 c7                	mov    %eax,%edi
    7cf9:	e8 5e f0 ff ff       	callq  6d5c <safe_mod_func_uint16_t_u_u>
    7cfe:	0f b7 d0             	movzwl %ax,%edx
    7d01:	0f b6 05 fc 04 01 00 	movzbl 0x104fc(%rip),%eax        # 18204 <g_426>
    7d08:	c1 e0 07             	shl    $0x7,%eax
    7d0b:	c0 f8 07             	sar    $0x7,%al
    7d0e:	0f be c0             	movsbl %al,%eax
    7d11:	39 c2                	cmp    %eax,%edx
    7d13:	0f 9d c0             	setge  %al
    7d16:	0f b6 d0             	movzbl %al,%edx
    7d19:	48 8b 85 a8 fb ff ff 	mov    -0x458(%rbp),%rax
    7d20:	66 89 10             	mov    %dx,(%rax)
    7d23:	48 8b 85 a8 fb ff ff 	mov    -0x458(%rbp),%rax
    7d2a:	0f b7 00             	movzwl (%rax),%eax
    7d2d:	0f b6 c0             	movzbl %al,%eax
    7d30:	83 e0 78             	and    $0x78,%eax
    7d33:	44 89 ee             	mov    %r13d,%esi
    7d36:	89 c7                	mov    %eax,%edi
    7d38:	e8 56 ee ff ff       	callq  6b93 <safe_mul_func_uint8_t_u_u>
    7d3d:	48 8b 05 e4 02 01 00 	mov    0x102e4(%rip),%rax        # 18028 <g_2>
    7d44:	8b 85 74 fb ff ff    	mov    -0x48c(%rbp),%eax
    7d4a:	89 85 f8 fb ff ff    	mov    %eax,-0x408(%rbp)
    7d50:	48 8b 05 69 29 01 00 	mov    0x12969(%rip),%rax        # 1a6c0 <g_1262>
    7d57:	48 8d 95 74 fb ff ff 	lea    -0x48c(%rbp),%rdx
    7d5e:	48 89 10             	mov    %rdx,(%rax)
    7d61:	48 8d 85 74 fb ff ff 	lea    -0x48c(%rbp),%rax
    7d68:	48 89 85 e8 fb ff ff 	mov    %rax,-0x418(%rbp)
    7d6f:	48 0f be 85 73 fb ff 	movsbq -0x48d(%rbp),%rax
    7d76:	ff 
    7d77:	48 8b 5d c8          	mov    -0x38(%rbp),%rbx
    7d7b:	64 48 33 1c 25 28 00 	xor    %fs:0x28,%rbx
    7d82:	00 00 
    7d84:	74 05                	je     7d8b <func_1+0x5d6>
    7d86:	e8 e5 e2 ff ff       	callq  6070 <__stack_chk_fail@plt>
    7d8b:	48 81 c4 98 04 00 00 	add    $0x498,%rsp
    7d92:	5b                   	pop    %rbx
    7d93:	41 5c                	pop    %r12
    7d95:	41 5d                	pop    %r13
    7d97:	41 5e                	pop    %r14
    7d99:	41 5f                	pop    %r15
    7d9b:	5d                   	pop    %rbp
    7d9c:	c3                   	retq   

0000000000007d9d <func_10>:
    7d9d:	f3 0f 1e fa          	endbr64 
    7da1:	55                   	push   %rbp
    7da2:	48 89 e5             	mov    %rsp,%rbp
    7da5:	89 7d ec             	mov    %edi,-0x14(%rbp)
    7da8:	48 8d 05 9d 02 01 00 	lea    0x1029d(%rip),%rax        # 1804c <g_115>
    7daf:	48 89 45 f8          	mov    %rax,-0x8(%rbp)
    7db3:	48 8b 45 f8          	mov    -0x8(%rbp),%rax
    7db7:	c7 00 2e b9 cc a7    	movl   $0xa7ccb92e,(%rax)
    7dbd:	48 8b 45 f8          	mov    -0x8(%rbp),%rax
    7dc1:	8b 00                	mov    (%rax),%eax
    7dc3:	5d                   	pop    %rbp
    7dc4:	c3                   	retq   

0000000000007dc5 <func_12>:
    7dc5:	f3 0f 1e fa          	endbr64 
    7dc9:	55                   	push   %rbp
    7dca:	48 89 e5             	mov    %rsp,%rbp
    7dcd:	41 54                	push   %r12
    7dcf:	53                   	push   %rbx
    7dd0:	48 81 ec 00 10 00 00 	sub    $0x1000,%rsp
    7dd7:	48 83 0c 24 00       	orq    $0x0,(%rsp)
    7ddc:	48 81 ec 80 01 00 00 	sub    $0x180,%rsp
    7de3:	89 bd 8c ee ff ff    	mov    %edi,-0x1174(%rbp)
    7de9:	89 b5 88 ee ff ff    	mov    %esi,-0x1178(%rbp)
    7def:	48 89 95 80 ee ff ff 	mov    %rdx,-0x1180(%rbp)
    7df6:	48 89 8d 78 ee ff ff 	mov    %rcx,-0x1188(%rbp)
    7dfd:	44 89 c0             	mov    %r8d,%eax
    7e00:	66 89 85 74 ee ff ff 	mov    %ax,-0x118c(%rbp)
    7e07:	64 48 8b 04 25 28 00 	mov    %fs:0x28,%rax
    7e0e:	00 00 
    7e10:	48 89 45 e8          	mov    %rax,-0x18(%rbp)
    7e14:	31 c0                	xor    %eax,%eax
    7e16:	c7 85 a0 ee ff ff 3e 	movl   $0x1971003e,-0x1160(%rbp)
    7e1d:	00 71 19 
    7e20:	48 8d 05 e9 22 01 00 	lea    0x122e9(%rip),%rax        # 1a110 <g_277>
    7e27:	48 89 85 90 ef ff ff 	mov    %rax,-0x1070(%rbp)
    7e2e:	48 c7 85 08 ef ff ff 	movq   $0x0,-0x10f8(%rbp)
    7e35:	00 00 00 00 
    7e39:	48 8d 85 08 ef ff ff 	lea    -0x10f8(%rbp),%rax
    7e40:	48 89 85 60 f2 ff ff 	mov    %rax,-0xda0(%rbp)
    7e47:	48 8d 85 08 ef ff ff 	lea    -0x10f8(%rbp),%rax
    7e4e:	48 89 85 68 f2 ff ff 	mov    %rax,-0xd98(%rbp)
    7e55:	48 c7 85 70 f2 ff ff 	movq   $0x0,-0xd90(%rbp)
    7e5c:	00 00 00 00 
    7e60:	48 8d 85 08 ef ff ff 	lea    -0x10f8(%rbp),%rax
    7e67:	48 89 85 78 f2 ff ff 	mov    %rax,-0xd88(%rbp)
    7e6e:	48 c7 85 80 f2 ff ff 	movq   $0x0,-0xd80(%rbp)
    7e75:	00 00 00 00 
    7e79:	48 8d 85 08 ef ff ff 	lea    -0x10f8(%rbp),%rax
    7e80:	48 89 85 88 f2 ff ff 	mov    %rax,-0xd78(%rbp)
    7e87:	48 8d 85 08 ef ff ff 	lea    -0x10f8(%rbp),%rax
    7e8e:	48 89 85 90 f2 ff ff 	mov    %rax,-0xd70(%rbp)
    7e95:	48 8d 85 08 ef ff ff 	lea    -0x10f8(%rbp),%rax
    7e9c:	48 89 85 98 f2 ff ff 	mov    %rax,-0xd68(%rbp)
    7ea3:	48 c7 85 a0 f2 ff ff 	movq   $0x0,-0xd60(%rbp)
    7eaa:	00 00 00 00 
    7eae:	48 8d 85 08 ef ff ff 	lea    -0x10f8(%rbp),%rax
    7eb5:	48 89 85 a8 f2 ff ff 	mov    %rax,-0xd58(%rbp)
    7ebc:	48 8d 85 08 ef ff ff 	lea    -0x10f8(%rbp),%rax
    7ec3:	48 89 85 b0 f2 ff ff 	mov    %rax,-0xd50(%rbp)
    7eca:	48 8d 85 08 ef ff ff 	lea    -0x10f8(%rbp),%rax
    7ed1:	48 89 85 b8 f2 ff ff 	mov    %rax,-0xd48(%rbp)
    7ed8:	48 8d 85 08 ef ff ff 	lea    -0x10f8(%rbp),%rax
    7edf:	48 89 85 c0 f2 ff ff 	mov    %rax,-0xd40(%rbp)
    7ee6:	48 8d 85 08 ef ff ff 	lea    -0x10f8(%rbp),%rax
    7eed:	48 89 85 c8 f2 ff ff 	mov    %rax,-0xd38(%rbp)
    7ef4:	48 8d 85 08 ef ff ff 	lea    -0x10f8(%rbp),%rax
    7efb:	48 89 85 d0 f2 ff ff 	mov    %rax,-0xd30(%rbp)
    7f02:	48 8d 85 08 ef ff ff 	lea    -0x10f8(%rbp),%rax
    7f09:	48 89 85 d8 f2 ff ff 	mov    %rax,-0xd28(%rbp)
    7f10:	48 8d 85 08 ef ff ff 	lea    -0x10f8(%rbp),%rax
    7f17:	48 89 85 e0 f2 ff ff 	mov    %rax,-0xd20(%rbp)
    7f1e:	48 8d 85 08 ef ff ff 	lea    -0x10f8(%rbp),%rax
    7f25:	48 89 85 e8 f2 ff ff 	mov    %rax,-0xd18(%rbp)
    7f2c:	48 8d 85 08 ef ff ff 	lea    -0x10f8(%rbp),%rax
    7f33:	48 89 85 f0 f2 ff ff 	mov    %rax,-0xd10(%rbp)
    7f3a:	48 8d 85 08 ef ff ff 	lea    -0x10f8(%rbp),%rax
    7f41:	48 89 85 f8 f2 ff ff 	mov    %rax,-0xd08(%rbp)
    7f48:	48 c7 85 00 f3 ff ff 	movq   $0x0,-0xd00(%rbp)
    7f4f:	00 00 00 00 
    7f53:	48 8d 85 08 ef ff ff 	lea    -0x10f8(%rbp),%rax
    7f5a:	48 89 85 08 f3 ff ff 	mov    %rax,-0xcf8(%rbp)
    7f61:	48 c7 85 10 f3 ff ff 	movq   $0x0,-0xcf0(%rbp)
    7f68:	00 00 00 00 
    7f6c:	48 8d 85 08 ef ff ff 	lea    -0x10f8(%rbp),%rax
    7f73:	48 89 85 18 f3 ff ff 	mov    %rax,-0xce8(%rbp)
    7f7a:	48 8d 85 08 ef ff ff 	lea    -0x10f8(%rbp),%rax
    7f81:	48 89 85 20 f3 ff ff 	mov    %rax,-0xce0(%rbp)
    7f88:	48 8d 85 08 ef ff ff 	lea    -0x10f8(%rbp),%rax
    7f8f:	48 89 85 28 f3 ff ff 	mov    %rax,-0xcd8(%rbp)
    7f96:	48 c7 85 30 f3 ff ff 	movq   $0x0,-0xcd0(%rbp)
    7f9d:	00 00 00 00 
    7fa1:	48 8d 85 08 ef ff ff 	lea    -0x10f8(%rbp),%rax
    7fa8:	48 89 85 38 f3 ff ff 	mov    %rax,-0xcc8(%rbp)
    7faf:	48 8d 85 08 ef ff ff 	lea    -0x10f8(%rbp),%rax
    7fb6:	48 89 85 40 f3 ff ff 	mov    %rax,-0xcc0(%rbp)
    7fbd:	48 8d 85 08 ef ff ff 	lea    -0x10f8(%rbp),%rax
    7fc4:	48 89 85 48 f3 ff ff 	mov    %rax,-0xcb8(%rbp)
    7fcb:	48 8d 85 08 ef ff ff 	lea    -0x10f8(%rbp),%rax
    7fd2:	48 89 85 50 f3 ff ff 	mov    %rax,-0xcb0(%rbp)
    7fd9:	48 8d 85 08 ef ff ff 	lea    -0x10f8(%rbp),%rax
    7fe0:	48 89 85 58 f3 ff ff 	mov    %rax,-0xca8(%rbp)
    7fe7:	48 8d 85 08 ef ff ff 	lea    -0x10f8(%rbp),%rax
    7fee:	48 89 85 60 f3 ff ff 	mov    %rax,-0xca0(%rbp)
    7ff5:	48 8d 85 08 ef ff ff 	lea    -0x10f8(%rbp),%rax
    7ffc:	48 89 85 68 f3 ff ff 	mov    %rax,-0xc98(%rbp)
    8003:	48 8d 85 08 ef ff ff 	lea    -0x10f8(%rbp),%rax
    800a:	48 89 85 70 f3 ff ff 	mov    %rax,-0xc90(%rbp)
    8011:	48 8d 85 08 ef ff ff 	lea    -0x10f8(%rbp),%rax
    8018:	48 89 85 78 f3 ff ff 	mov    %rax,-0xc88(%rbp)
    801f:	48 8d 85 08 ef ff ff 	lea    -0x10f8(%rbp),%rax
    8026:	48 89 85 80 f3 ff ff 	mov    %rax,-0xc80(%rbp)
    802d:	48 8d 85 08 ef ff ff 	lea    -0x10f8(%rbp),%rax
    8034:	48 89 85 88 f3 ff ff 	mov    %rax,-0xc78(%rbp)
    803b:	48 c7 85 90 f3 ff ff 	movq   $0x0,-0xc70(%rbp)
    8042:	00 00 00 00 
    8046:	48 8d 85 08 ef ff ff 	lea    -0x10f8(%rbp),%rax
    804d:	48 89 85 98 f3 ff ff 	mov    %rax,-0xc68(%rbp)
    8054:	48 c7 85 a0 f3 ff ff 	movq   $0x0,-0xc60(%rbp)
    805b:	00 00 00 00 
    805f:	48 8d 85 08 ef ff ff 	lea    -0x10f8(%rbp),%rax
    8066:	48 89 85 a8 f3 ff ff 	mov    %rax,-0xc58(%rbp)
    806d:	48 8d 85 08 ef ff ff 	lea    -0x10f8(%rbp),%rax
    8074:	48 89 85 b0 f3 ff ff 	mov    %rax,-0xc50(%rbp)
    807b:	48 8d 85 08 ef ff ff 	lea    -0x10f8(%rbp),%rax
    8082:	48 89 85 b8 f3 ff ff 	mov    %rax,-0xc48(%rbp)
    8089:	48 c7 85 c0 f3 ff ff 	movq   $0x0,-0xc40(%rbp)
    8090:	00 00 00 00 
    8094:	48 8d 85 08 ef ff ff 	lea    -0x10f8(%rbp),%rax
    809b:	48 89 85 c8 f3 ff ff 	mov    %rax,-0xc38(%rbp)
    80a2:	48 8d 85 08 ef ff ff 	lea    -0x10f8(%rbp),%rax
    80a9:	48 89 85 d0 f3 ff ff 	mov    %rax,-0xc30(%rbp)
    80b0:	48 8d 85 08 ef ff ff 	lea    -0x10f8(%rbp),%rax
    80b7:	48 89 85 d8 f3 ff ff 	mov    %rax,-0xc28(%rbp)
    80be:	48 8d 85 08 ef ff ff 	lea    -0x10f8(%rbp),%rax
    80c5:	48 89 85 e0 f3 ff ff 	mov    %rax,-0xc20(%rbp)
    80cc:	48 8d 85 08 ef ff ff 	lea    -0x10f8(%rbp),%rax
    80d3:	48 89 85 e8 f3 ff ff 	mov    %rax,-0xc18(%rbp)
    80da:	48 8d 85 08 ef ff ff 	lea    -0x10f8(%rbp),%rax
    80e1:	48 89 85 f0 f3 ff ff 	mov    %rax,-0xc10(%rbp)
    80e8:	48 8d 85 08 ef ff ff 	lea    -0x10f8(%rbp),%rax
    80ef:	48 89 85 f8 f3 ff ff 	mov    %rax,-0xc08(%rbp)
    80f6:	48 8d 85 08 ef ff ff 	lea    -0x10f8(%rbp),%rax
    80fd:	48 89 85 00 f4 ff ff 	mov    %rax,-0xc00(%rbp)
    8104:	48 8d 85 08 ef ff ff 	lea    -0x10f8(%rbp),%rax
    810b:	48 89 85 08 f4 ff ff 	mov    %rax,-0xbf8(%rbp)
    8112:	48 8d 85 08 ef ff ff 	lea    -0x10f8(%rbp),%rax
    8119:	48 89 85 10 f4 ff ff 	mov    %rax,-0xbf0(%rbp)
    8120:	48 8d 85 08 ef ff ff 	lea    -0x10f8(%rbp),%rax
    8127:	48 89 85 18 f4 ff ff 	mov    %rax,-0xbe8(%rbp)
    812e:	48 8d 85 08 ef ff ff 	lea    -0x10f8(%rbp),%rax
    8135:	48 89 85 20 f4 ff ff 	mov    %rax,-0xbe0(%rbp)
    813c:	48 8d 85 08 ef ff ff 	lea    -0x10f8(%rbp),%rax
    8143:	48 89 85 28 f4 ff ff 	mov    %rax,-0xbd8(%rbp)
    814a:	48 8d 85 08 ef ff ff 	lea    -0x10f8(%rbp),%rax
    8151:	48 89 85 30 f4 ff ff 	mov    %rax,-0xbd0(%rbp)
    8158:	48 8d 85 08 ef ff ff 	lea    -0x10f8(%rbp),%rax
    815f:	48 89 85 38 f4 ff ff 	mov    %rax,-0xbc8(%rbp)
    8166:	48 c7 85 40 f4 ff ff 	movq   $0x0,-0xbc0(%rbp)
    816d:	00 00 00 00 
    8171:	48 8d 85 08 ef ff ff 	lea    -0x10f8(%rbp),%rax
    8178:	48 89 85 48 f4 ff ff 	mov    %rax,-0xbb8(%rbp)
    817f:	48 8d 85 08 ef ff ff 	lea    -0x10f8(%rbp),%rax
    8186:	48 89 85 50 f4 ff ff 	mov    %rax,-0xbb0(%rbp)
    818d:	48 8d 85 08 ef ff ff 	lea    -0x10f8(%rbp),%rax
    8194:	48 89 85 58 f4 ff ff 	mov    %rax,-0xba8(%rbp)
    819b:	48 8d 85 08 ef ff ff 	lea    -0x10f8(%rbp),%rax
    81a2:	48 89 85 60 f4 ff ff 	mov    %rax,-0xba0(%rbp)
    81a9:	48 8d 85 08 ef ff ff 	lea    -0x10f8(%rbp),%rax
    81b0:	48 89 85 68 f4 ff ff 	mov    %rax,-0xb98(%rbp)
    81b7:	48 8d 85 08 ef ff ff 	lea    -0x10f8(%rbp),%rax
    81be:	48 89 85 70 f4 ff ff 	mov    %rax,-0xb90(%rbp)
    81c5:	48 8d 85 08 ef ff ff 	lea    -0x10f8(%rbp),%rax
    81cc:	48 89 85 78 f4 ff ff 	mov    %rax,-0xb88(%rbp)
    81d3:	48 8d 85 08 ef ff ff 	lea    -0x10f8(%rbp),%rax
    81da:	48 89 85 80 f4 ff ff 	mov    %rax,-0xb80(%rbp)
    81e1:	48 8d 85 08 ef ff ff 	lea    -0x10f8(%rbp),%rax
    81e8:	48 89 85 88 f4 ff ff 	mov    %rax,-0xb78(%rbp)
    81ef:	48 8d 85 08 ef ff ff 	lea    -0x10f8(%rbp),%rax
    81f6:	48 89 85 90 f4 ff ff 	mov    %rax,-0xb70(%rbp)
    81fd:	48 8d 85 08 ef ff ff 	lea    -0x10f8(%rbp),%rax
    8204:	48 89 85 98 f4 ff ff 	mov    %rax,-0xb68(%rbp)
    820b:	48 c7 85 a0 f4 ff ff 	movq   $0x0,-0xb60(%rbp)
    8212:	00 00 00 00 
    8216:	48 8d 85 08 ef ff ff 	lea    -0x10f8(%rbp),%rax
    821d:	48 89 85 a8 f4 ff ff 	mov    %rax,-0xb58(%rbp)
    8224:	48 8d 85 08 ef ff ff 	lea    -0x10f8(%rbp),%rax
    822b:	48 89 85 b0 f4 ff ff 	mov    %rax,-0xb50(%rbp)
    8232:	48 8d 85 08 ef ff ff 	lea    -0x10f8(%rbp),%rax
    8239:	48 89 85 b8 f4 ff ff 	mov    %rax,-0xb48(%rbp)
    8240:	48 8d 85 08 ef ff ff 	lea    -0x10f8(%rbp),%rax
    8247:	48 89 85 c0 f4 ff ff 	mov    %rax,-0xb40(%rbp)
    824e:	48 8d 85 08 ef ff ff 	lea    -0x10f8(%rbp),%rax
    8255:	48 89 85 c8 f4 ff ff 	mov    %rax,-0xb38(%rbp)
    825c:	48 c7 85 d0 f4 ff ff 	movq   $0x0,-0xb30(%rbp)
    8263:	00 00 00 00 
    8267:	48 8d 85 08 ef ff ff 	lea    -0x10f8(%rbp),%rax
    826e:	48 89 85 d8 f4 ff ff 	mov    %rax,-0xb28(%rbp)
    8275:	48 8d 85 08 ef ff ff 	lea    -0x10f8(%rbp),%rax
    827c:	48 89 85 e0 f4 ff ff 	mov    %rax,-0xb20(%rbp)
    8283:	48 8d 85 60 f2 ff ff 	lea    -0xda0(%rbp),%rax
    828a:	48 05 c8 00 00 00    	add    $0xc8,%rax
    8290:	48 89 85 10 ef ff ff 	mov    %rax,-0x10f0(%rbp)
    8297:	48 8d 85 10 ef ff ff 	lea    -0x10f0(%rbp),%rax
    829e:	48 89 85 28 ef ff ff 	mov    %rax,-0x10d8(%rbp)
    82a5:	c7 85 c8 ee ff ff 83 	movl   $0xf71d5b83,-0x1138(%rbp)
    82ac:	5b 1d f7 
    82af:	c7 85 cc ee ff ff 00 	movl   $0x0,-0x1134(%rbp)
    82b6:	00 00 00 
    82b9:	c7 85 d0 ee ff ff ed 	movl   $0x75d96ed,-0x1130(%rbp)
    82c0:	96 5d 07 
    82c3:	c7 85 d4 ee ff ff 01 	movl   $0x1,-0x112c(%rbp)
    82ca:	00 00 00 
    82cd:	c7 85 a4 ee ff ff ef 	movl   $0xc156d2ef,-0x115c(%rbp)
    82d4:	d2 56 c1 
    82d7:	c7 85 d8 ee ff ff 01 	movl   $0x1,-0x1128(%rbp)
    82de:	00 00 00 
    82e1:	c7 85 10 f0 ff ff 69 	movl   $0x31916b69,-0xff0(%rbp)
    82e8:	6b 91 31 
    82eb:	c7 85 14 f0 ff ff 69 	movl   $0x31916b69,-0xfec(%rbp)
    82f2:	6b 91 31 
    82f5:	c7 85 18 f0 ff ff 75 	movl   $0x5919dd75,-0xfe8(%rbp)
    82fc:	dd 19 59 
    82ff:	c7 85 1c f0 ff ff 18 	movl   $0xbcc71618,-0xfe4(%rbp)
    8306:	16 c7 bc 
    8309:	c7 85 20 f0 ff ff 75 	movl   $0x5919dd75,-0xfe0(%rbp)
    8310:	dd 19 59 
    8313:	c7 85 24 f0 ff ff 69 	movl   $0x31916b69,-0xfdc(%rbp)
    831a:	6b 91 31 
    831d:	c7 85 28 f0 ff ff 69 	movl   $0x31916b69,-0xfd8(%rbp)
    8324:	6b 91 31 
    8327:	c7 85 2c f0 ff ff 75 	movl   $0x5919dd75,-0xfd4(%rbp)
    832e:	dd 19 59 
    8331:	c7 85 30 f0 ff ff 18 	movl   $0xbcc71618,-0xfd0(%rbp)
    8338:	16 c7 bc 
    833b:	c7 85 34 f0 ff ff 75 	movl   $0x5919dd75,-0xfcc(%rbp)
    8342:	dd 19 59 
    8345:	c7 85 a8 ee ff ff 00 	movl   $0x0,-0x1158(%rbp)
    834c:	00 00 00 
    834f:	eb 14                	jmp    8365 <func_12+0x5a0>
    8351:	8b 85 a8 ee ff ff    	mov    -0x1158(%rbp),%eax
    8357:	48 98                	cltq   
    8359:	c6 44 05 dd ad       	movb   $0xad,-0x23(%rbp,%rax,1)
    835e:	83 85 a8 ee ff ff 01 	addl   $0x1,-0x1158(%rbp)
    8365:	83 bd a8 ee ff ff 01 	cmpl   $0x1,-0x1158(%rbp)
    836c:	7e e3                	jle    8351 <func_12+0x58c>
    836e:	c7 85 a8 ee ff ff 00 	movl   $0x0,-0x1158(%rbp)
    8375:	00 00 00 
    8378:	eb 1e                	jmp    8398 <func_12+0x5d3>
    837a:	8b 85 a8 ee ff ff    	mov    -0x1158(%rbp),%eax
    8380:	48 98                	cltq   
    8382:	48 8d 15 c7 fc 00 00 	lea    0xfcc7(%rip),%rdx        # 18050 <g_135>
    8389:	48 89 94 c5 98 ef ff 	mov    %rdx,-0x1068(%rbp,%rax,8)
    8390:	ff 
    8391:	83 85 a8 ee ff ff 01 	addl   $0x1,-0x1158(%rbp)
    8398:	83 bd a8 ee ff ff 00 	cmpl   $0x0,-0x1158(%rbp)
    839f:	7e d9                	jle    837a <func_12+0x5b5>
    83a1:	c6 05 88 fc 00 00 06 	movb   $0x6,0xfc88(%rip)        # 18030 <g_27>
    83a8:	e9 5e 19 00 00       	jmpq   9d0b <func_12+0x1f46>
    83ad:	c7 85 98 ee ff ff 01 	movl   $0x1,-0x1168(%rbp)
    83b4:	00 00 00 
    83b7:	c7 85 ac ee ff ff 4c 	movl   $0xb427a04c,-0x1154(%rbp)
    83be:	a0 27 b4 
    83c1:	c7 85 dc ee ff ff f8 	movl   $0x83d194f8,-0x1124(%rbp)
    83c8:	94 d1 83 
    83cb:	c7 85 e0 ee ff ff 79 	movl   $0xab5dc079,-0x1120(%rbp)
    83d2:	c0 5d ab 
    83d5:	c7 85 e4 ee ff ff 8e 	movl   $0x97d3f38e,-0x111c(%rbp)
    83dc:	f3 d3 97 
    83df:	c7 85 e8 ee ff ff a8 	movl   $0xce2e3da8,-0x1118(%rbp)
    83e6:	3d 2e ce 
    83e9:	c7 85 ec ee ff ff 9c 	movl   $0x8680929c,-0x1114(%rbp)
    83f0:	92 80 86 
    83f3:	48 8d 85 20 f1 ff ff 	lea    -0xee0(%rbp),%rax
    83fa:	48 8d 15 5f bc 00 00 	lea    0xbc5f(%rip),%rdx        # 14060 <g_991+0xc>
    8401:	b9 28 00 00 00       	mov    $0x28,%ecx
    8406:	48 89 c7             	mov    %rax,%rdi
    8409:	48 89 d6             	mov    %rdx,%rsi
    840c:	f3 48 a5             	rep movsq %ds:(%rsi),%es:(%rdi)
    840f:	c7 85 f0 ee ff ff cf 	movl   $0x91ebafcf,-0x1110(%rbp)
    8416:	af eb 91 
    8419:	48 c7 45 df 00 00 00 	movq   $0x0,-0x21(%rbp)
    8420:	00 
    8421:	c6 45 e7 00          	movb   $0x0,-0x19(%rbp)
    8425:	48 8d 05 fc 1c 01 00 	lea    0x11cfc(%rip),%rax        # 1a128 <g_326>
    842c:	48 89 85 80 f0 ff ff 	mov    %rax,-0xf80(%rbp)
    8433:	48 8d 05 ee 1c 01 00 	lea    0x11cee(%rip),%rax        # 1a128 <g_326>
    843a:	48 89 85 88 f0 ff ff 	mov    %rax,-0xf78(%rbp)
    8441:	48 8d 05 e0 1c 01 00 	lea    0x11ce0(%rip),%rax        # 1a128 <g_326>
    8448:	48 89 85 90 f0 ff ff 	mov    %rax,-0xf70(%rbp)
    844f:	48 c7 85 98 f0 ff ff 	movq   $0x0,-0xf68(%rbp)
    8456:	00 00 00 00 
    845a:	48 8d 05 c7 1c 01 00 	lea    0x11cc7(%rip),%rax        # 1a128 <g_326>
    8461:	48 89 85 a0 f0 ff ff 	mov    %rax,-0xf60(%rbp)
    8468:	48 8d 05 b9 1c 01 00 	lea    0x11cb9(%rip),%rax        # 1a128 <g_326>
    846f:	48 89 85 a8 f0 ff ff 	mov    %rax,-0xf58(%rbp)
    8476:	48 c7 85 b0 f0 ff ff 	movq   $0x0,-0xf50(%rbp)
    847d:	00 00 00 00 
    8481:	48 8d 05 a0 1c 01 00 	lea    0x11ca0(%rip),%rax        # 1a128 <g_326>
    8488:	48 89 85 b8 f0 ff ff 	mov    %rax,-0xf48(%rbp)
    848f:	48 c7 85 c0 f0 ff ff 	movq   $0x0,-0xf40(%rbp)
    8496:	00 00 00 00 
    849a:	48 8d 05 87 1c 01 00 	lea    0x11c87(%rip),%rax        # 1a128 <g_326>
    84a1:	48 89 85 c8 f0 ff ff 	mov    %rax,-0xf38(%rbp)
    84a8:	48 8d 05 79 1c 01 00 	lea    0x11c79(%rip),%rax        # 1a128 <g_326>
    84af:	48 89 85 d0 f0 ff ff 	mov    %rax,-0xf30(%rbp)
    84b6:	48 c7 85 d8 f0 ff ff 	movq   $0x0,-0xf28(%rbp)
    84bd:	00 00 00 00 
    84c1:	48 8d 05 60 1c 01 00 	lea    0x11c60(%rip),%rax        # 1a128 <g_326>
    84c8:	48 89 85 e0 f0 ff ff 	mov    %rax,-0xf20(%rbp)
    84cf:	48 8d 05 52 1c 01 00 	lea    0x11c52(%rip),%rax        # 1a128 <g_326>
    84d6:	48 89 85 e8 f0 ff ff 	mov    %rax,-0xf18(%rbp)
    84dd:	48 8d 05 44 1c 01 00 	lea    0x11c44(%rip),%rax        # 1a128 <g_326>
    84e4:	48 89 85 f0 f0 ff ff 	mov    %rax,-0xf10(%rbp)
    84eb:	48 8d 05 36 1c 01 00 	lea    0x11c36(%rip),%rax        # 1a128 <g_326>
    84f2:	48 89 85 f8 f0 ff ff 	mov    %rax,-0xf08(%rbp)
    84f9:	48 8d 05 28 1c 01 00 	lea    0x11c28(%rip),%rax        # 1a128 <g_326>
    8500:	48 89 85 00 f1 ff ff 	mov    %rax,-0xf00(%rbp)
    8507:	48 8d 05 1a 1c 01 00 	lea    0x11c1a(%rip),%rax        # 1a128 <g_326>
    850e:	48 89 85 08 f1 ff ff 	mov    %rax,-0xef8(%rbp)
    8515:	48 8d 05 0c 1c 01 00 	lea    0x11c0c(%rip),%rax        # 1a128 <g_326>
    851c:	48 89 85 10 f1 ff ff 	mov    %rax,-0xef0(%rbp)
    8523:	48 8d 05 fe 1b 01 00 	lea    0x11bfe(%rip),%rax        # 1a128 <g_326>
    852a:	48 89 85 18 f1 ff ff 	mov    %rax,-0xee8(%rbp)
    8531:	c7 85 b0 ee ff ff 00 	movl   $0x0,-0x1150(%rbp)
    8538:	00 00 00 
    853b:	eb 19                	jmp    8556 <func_12+0x791>
    853d:	8b 85 b0 ee ff ff    	mov    -0x1150(%rbp),%eax
    8543:	48 98                	cltq   
    8545:	66 c7 84 45 a6 ef ff 	movw   $0x8a12,-0x105a(%rbp,%rax,2)
    854c:	ff 12 8a 
    854f:	83 85 b0 ee ff ff 01 	addl   $0x1,-0x1150(%rbp)
    8556:	83 bd b0 ee ff ff 04 	cmpl   $0x4,-0x1150(%rbp)
    855d:	7e de                	jle    853d <func_12+0x778>
    855f:	66 c7 85 74 ee ff ff 	movw   $0x1a,-0x118c(%rbp)
    8566:	1a 00 
    8568:	e9 df 16 00 00       	jmpq   9c4c <func_12+0x1e87>
    856d:	c7 85 b4 ee ff ff 00 	movl   $0x0,-0x114c(%rbp)
    8574:	00 00 00 
    8577:	c7 85 b8 ee ff ff f6 	movl   $0xfffffff6,-0x1148(%rbp)
    857e:	ff ff ff 
    8581:	c7 85 9c ee ff ff 39 	movl   $0x847b2439,-0x1164(%rbp)
    8588:	24 7b 84 
    858b:	48 8d 05 7e 25 01 00 	lea    0x1257e(%rip),%rax        # 1ab10 <g_123>
    8592:	48 89 85 18 ef ff ff 	mov    %rax,-0x10e8(%rbp)
    8599:	48 8d 85 18 ef ff ff 	lea    -0x10e8(%rbp),%rax
    85a0:	48 89 85 f0 f4 ff ff 	mov    %rax,-0xb10(%rbp)
    85a7:	48 c7 85 f8 f4 ff ff 	movq   $0x0,-0xb08(%rbp)
    85ae:	00 00 00 00 
    85b2:	48 c7 85 00 f5 ff ff 	movq   $0x0,-0xb00(%rbp)
    85b9:	00 00 00 00 
    85bd:	48 8d 85 18 ef ff ff 	lea    -0x10e8(%rbp),%rax
    85c4:	48 89 85 08 f5 ff ff 	mov    %rax,-0xaf8(%rbp)
    85cb:	48 c7 85 10 f5 ff ff 	movq   $0x0,-0xaf0(%rbp)
    85d2:	00 00 00 00 
    85d6:	48 c7 85 18 f5 ff ff 	movq   $0x0,-0xae8(%rbp)
    85dd:	00 00 00 00 
    85e1:	48 8d 85 18 ef ff ff 	lea    -0x10e8(%rbp),%rax
    85e8:	48 89 85 20 f5 ff ff 	mov    %rax,-0xae0(%rbp)
    85ef:	48 8d 85 18 ef ff ff 	lea    -0x10e8(%rbp),%rax
    85f6:	48 89 85 28 f5 ff ff 	mov    %rax,-0xad8(%rbp)
    85fd:	48 c7 85 30 f5 ff ff 	movq   $0x0,-0xad0(%rbp)
    8604:	00 00 00 00 
    8608:	48 8d 85 18 ef ff ff 	lea    -0x10e8(%rbp),%rax
    860f:	48 89 85 38 f5 ff ff 	mov    %rax,-0xac8(%rbp)
    8616:	48 8d 85 18 ef ff ff 	lea    -0x10e8(%rbp),%rax
    861d:	48 89 85 40 f5 ff ff 	mov    %rax,-0xac0(%rbp)
    8624:	48 c7 85 48 f5 ff ff 	movq   $0x0,-0xab8(%rbp)
    862b:	00 00 00 00 
    862f:	48 8d 85 18 ef ff ff 	lea    -0x10e8(%rbp),%rax
    8636:	48 89 85 50 f5 ff ff 	mov    %rax,-0xab0(%rbp)
    863d:	48 8d 85 18 ef ff ff 	lea    -0x10e8(%rbp),%rax
    8644:	48 89 85 58 f5 ff ff 	mov    %rax,-0xaa8(%rbp)
    864b:	48 c7 85 60 f5 ff ff 	movq   $0x0,-0xaa0(%rbp)
    8652:	00 00 00 00 
    8656:	48 c7 85 68 f5 ff ff 	movq   $0x0,-0xa98(%rbp)
    865d:	00 00 00 00 
    8661:	48 8d 85 18 ef ff ff 	lea    -0x10e8(%rbp),%rax
    8668:	48 89 85 70 f5 ff ff 	mov    %rax,-0xa90(%rbp)
    866f:	48 c7 85 78 f5 ff ff 	movq   $0x0,-0xa88(%rbp)
    8676:	00 00 00 00 
    867a:	48 c7 85 80 f5 ff ff 	movq   $0x0,-0xa80(%rbp)
    8681:	00 00 00 00 
    8685:	48 8d 85 18 ef ff ff 	lea    -0x10e8(%rbp),%rax
    868c:	48 89 85 88 f5 ff ff 	mov    %rax,-0xa78(%rbp)
    8693:	48 8d 85 18 ef ff ff 	lea    -0x10e8(%rbp),%rax
    869a:	48 89 85 90 f5 ff ff 	mov    %rax,-0xa70(%rbp)
    86a1:	48 8d 85 18 ef ff ff 	lea    -0x10e8(%rbp),%rax
    86a8:	48 89 85 98 f5 ff ff 	mov    %rax,-0xa68(%rbp)
    86af:	48 c7 85 a0 f5 ff ff 	movq   $0x0,-0xa60(%rbp)
    86b6:	00 00 00 00 
    86ba:	48 c7 85 a8 f5 ff ff 	movq   $0x0,-0xa58(%rbp)
    86c1:	00 00 00 00 
    86c5:	48 8d 85 18 ef ff ff 	lea    -0x10e8(%rbp),%rax
    86cc:	48 89 85 b0 f5 ff ff 	mov    %rax,-0xa50(%rbp)
    86d3:	48 c7 85 b8 f5 ff ff 	movq   $0x0,-0xa48(%rbp)
    86da:	00 00 00 00 
    86de:	48 c7 85 c0 f5 ff ff 	movq   $0x0,-0xa40(%rbp)
    86e5:	00 00 00 00 
    86e9:	48 8d 85 18 ef ff ff 	lea    -0x10e8(%rbp),%rax
    86f0:	48 89 85 c8 f5 ff ff 	mov    %rax,-0xa38(%rbp)
    86f7:	48 8d 85 18 ef ff ff 	lea    -0x10e8(%rbp),%rax
    86fe:	48 89 85 d0 f5 ff ff 	mov    %rax,-0xa30(%rbp)
    8705:	48 c7 85 d8 f5 ff ff 	movq   $0x0,-0xa28(%rbp)
    870c:	00 00 00 00 
    8710:	48 8d 85 18 ef ff ff 	lea    -0x10e8(%rbp),%rax
    8717:	48 89 85 e0 f5 ff ff 	mov    %rax,-0xa20(%rbp)
    871e:	48 8d 85 18 ef ff ff 	lea    -0x10e8(%rbp),%rax
    8725:	48 89 85 e8 f5 ff ff 	mov    %rax,-0xa18(%rbp)
    872c:	48 c7 85 f0 f5 ff ff 	movq   $0x0,-0xa10(%rbp)
    8733:	00 00 00 00 
    8737:	48 8d 85 18 ef ff ff 	lea    -0x10e8(%rbp),%rax
    873e:	48 89 85 f8 f5 ff ff 	mov    %rax,-0xa08(%rbp)
    8745:	48 8d 85 18 ef ff ff 	lea    -0x10e8(%rbp),%rax
    874c:	48 89 85 00 f6 ff ff 	mov    %rax,-0xa00(%rbp)
    8753:	48 c7 85 08 f6 ff ff 	movq   $0x0,-0x9f8(%rbp)
    875a:	00 00 00 00 
    875e:	48 c7 85 10 f6 ff ff 	movq   $0x0,-0x9f0(%rbp)
    8765:	00 00 00 00 
    8769:	48 8d 85 18 ef ff ff 	lea    -0x10e8(%rbp),%rax
    8770:	48 89 85 18 f6 ff ff 	mov    %rax,-0x9e8(%rbp)
    8777:	48 c7 85 20 f6 ff ff 	movq   $0x0,-0x9e0(%rbp)
    877e:	00 00 00 00 
    8782:	48 c7 85 28 f6 ff ff 	movq   $0x0,-0x9d8(%rbp)
    8789:	00 00 00 00 
    878d:	48 8d 85 18 ef ff ff 	lea    -0x10e8(%rbp),%rax
    8794:	48 89 85 30 f6 ff ff 	mov    %rax,-0x9d0(%rbp)
    879b:	48 8d 85 18 ef ff ff 	lea    -0x10e8(%rbp),%rax
    87a2:	48 89 85 38 f6 ff ff 	mov    %rax,-0x9c8(%rbp)
    87a9:	48 8d 85 18 ef ff ff 	lea    -0x10e8(%rbp),%rax
    87b0:	48 89 85 40 f6 ff ff 	mov    %rax,-0x9c0(%rbp)
    87b7:	48 c7 85 48 f6 ff ff 	movq   $0x0,-0x9b8(%rbp)
    87be:	00 00 00 00 
    87c2:	48 c7 85 50 f6 ff ff 	movq   $0x0,-0x9b0(%rbp)
    87c9:	00 00 00 00 
    87cd:	48 8d 85 18 ef ff ff 	lea    -0x10e8(%rbp),%rax
    87d4:	48 89 85 58 f6 ff ff 	mov    %rax,-0x9a8(%rbp)
    87db:	48 8d 85 18 ef ff ff 	lea    -0x10e8(%rbp),%rax
    87e2:	48 89 85 60 f6 ff ff 	mov    %rax,-0x9a0(%rbp)
    87e9:	48 c7 85 68 f6 ff ff 	movq   $0x0,-0x998(%rbp)
    87f0:	00 00 00 00 
    87f4:	48 8d 85 18 ef ff ff 	lea    -0x10e8(%rbp),%rax
    87fb:	48 89 85 70 f6 ff ff 	mov    %rax,-0x990(%rbp)
    8802:	48 c7 85 78 f6 ff ff 	movq   $0x0,-0x988(%rbp)
    8809:	00 00 00 00 
    880d:	48 8d 85 18 ef ff ff 	lea    -0x10e8(%rbp),%rax
    8814:	48 89 85 80 f6 ff ff 	mov    %rax,-0x980(%rbp)
    881b:	48 8d 85 18 ef ff ff 	lea    -0x10e8(%rbp),%rax
    8822:	48 89 85 88 f6 ff ff 	mov    %rax,-0x978(%rbp)
    8829:	48 8d 85 18 ef ff ff 	lea    -0x10e8(%rbp),%rax
    8830:	48 89 85 90 f6 ff ff 	mov    %rax,-0x970(%rbp)
    8837:	48 8d 85 18 ef ff ff 	lea    -0x10e8(%rbp),%rax
    883e:	48 89 85 98 f6 ff ff 	mov    %rax,-0x968(%rbp)
    8845:	48 c7 85 a0 f6 ff ff 	movq   $0x0,-0x960(%rbp)
    884c:	00 00 00 00 
    8850:	48 8d 85 18 ef ff ff 	lea    -0x10e8(%rbp),%rax
    8857:	48 89 85 a8 f6 ff ff 	mov    %rax,-0x958(%rbp)
    885e:	48 c7 85 b0 f6 ff ff 	movq   $0x0,-0x950(%rbp)
    8865:	00 00 00 00 
    8869:	48 8d 85 18 ef ff ff 	lea    -0x10e8(%rbp),%rax
    8870:	48 89 85 b8 f6 ff ff 	mov    %rax,-0x948(%rbp)
    8877:	48 8d 85 18 ef ff ff 	lea    -0x10e8(%rbp),%rax
    887e:	48 89 85 c0 f6 ff ff 	mov    %rax,-0x940(%rbp)
    8885:	48 8d 85 18 ef ff ff 	lea    -0x10e8(%rbp),%rax
    888c:	48 89 85 c8 f6 ff ff 	mov    %rax,-0x938(%rbp)
    8893:	48 8d 85 18 ef ff ff 	lea    -0x10e8(%rbp),%rax
    889a:	48 89 85 d0 f6 ff ff 	mov    %rax,-0x930(%rbp)
    88a1:	48 c7 85 d8 f6 ff ff 	movq   $0x0,-0x928(%rbp)
    88a8:	00 00 00 00 
    88ac:	48 8d 85 18 ef ff ff 	lea    -0x10e8(%rbp),%rax
    88b3:	48 89 85 e0 f6 ff ff 	mov    %rax,-0x920(%rbp)
    88ba:	48 c7 85 e8 f6 ff ff 	movq   $0x0,-0x918(%rbp)
    88c1:	00 00 00 00 
    88c5:	48 8d 85 18 ef ff ff 	lea    -0x10e8(%rbp),%rax
    88cc:	48 89 85 f0 f6 ff ff 	mov    %rax,-0x910(%rbp)
    88d3:	48 8d 85 18 ef ff ff 	lea    -0x10e8(%rbp),%rax
    88da:	48 89 85 f8 f6 ff ff 	mov    %rax,-0x908(%rbp)
    88e1:	48 8d 85 18 ef ff ff 	lea    -0x10e8(%rbp),%rax
    88e8:	48 89 85 00 f7 ff ff 	mov    %rax,-0x900(%rbp)
    88ef:	48 8d 85 18 ef ff ff 	lea    -0x10e8(%rbp),%rax
    88f6:	48 89 85 08 f7 ff ff 	mov    %rax,-0x8f8(%rbp)
    88fd:	48 c7 85 10 f7 ff ff 	movq   $0x0,-0x8f0(%rbp)
    8904:	00 00 00 00 
    8908:	48 8d 85 18 ef ff ff 	lea    -0x10e8(%rbp),%rax
    890f:	48 89 85 18 f7 ff ff 	mov    %rax,-0x8e8(%rbp)
    8916:	48 c7 85 20 f7 ff ff 	movq   $0x0,-0x8e0(%rbp)
    891d:	00 00 00 00 
    8921:	48 8d 85 18 ef ff ff 	lea    -0x10e8(%rbp),%rax
    8928:	48 89 85 28 f7 ff ff 	mov    %rax,-0x8d8(%rbp)
    892f:	48 8d 85 18 ef ff ff 	lea    -0x10e8(%rbp),%rax
    8936:	48 89 85 30 f7 ff ff 	mov    %rax,-0x8d0(%rbp)
    893d:	48 8d 85 18 ef ff ff 	lea    -0x10e8(%rbp),%rax
    8944:	48 89 85 38 f7 ff ff 	mov    %rax,-0x8c8(%rbp)
    894b:	48 8d 85 18 ef ff ff 	lea    -0x10e8(%rbp),%rax
    8952:	48 89 85 40 f7 ff ff 	mov    %rax,-0x8c0(%rbp)
    8959:	48 c7 85 48 f7 ff ff 	movq   $0x0,-0x8b8(%rbp)
    8960:	00 00 00 00 
    8964:	48 8d 85 18 ef ff ff 	lea    -0x10e8(%rbp),%rax
    896b:	48 89 85 50 f7 ff ff 	mov    %rax,-0x8b0(%rbp)
    8972:	48 c7 85 58 f7 ff ff 	movq   $0x0,-0x8a8(%rbp)
    8979:	00 00 00 00 
    897d:	48 8d 85 18 ef ff ff 	lea    -0x10e8(%rbp),%rax
    8984:	48 89 85 60 f7 ff ff 	mov    %rax,-0x8a0(%rbp)
    898b:	48 8d 85 18 ef ff ff 	lea    -0x10e8(%rbp),%rax
    8992:	48 89 85 68 f7 ff ff 	mov    %rax,-0x898(%rbp)
    8999:	48 8d 85 18 ef ff ff 	lea    -0x10e8(%rbp),%rax
    89a0:	48 89 85 70 f7 ff ff 	mov    %rax,-0x890(%rbp)
    89a7:	48 8d 85 18 ef ff ff 	lea    -0x10e8(%rbp),%rax
    89ae:	48 89 85 78 f7 ff ff 	mov    %rax,-0x888(%rbp)
    89b5:	48 c7 85 80 f7 ff ff 	movq   $0x0,-0x880(%rbp)
    89bc:	00 00 00 00 
    89c0:	48 8d 85 18 ef ff ff 	lea    -0x10e8(%rbp),%rax
    89c7:	48 89 85 88 f7 ff ff 	mov    %rax,-0x878(%rbp)
    89ce:	48 c7 85 90 f7 ff ff 	movq   $0x0,-0x870(%rbp)
    89d5:	00 00 00 00 
    89d9:	48 8d 85 18 ef ff ff 	lea    -0x10e8(%rbp),%rax
    89e0:	48 89 85 98 f7 ff ff 	mov    %rax,-0x868(%rbp)
    89e7:	48 8d 85 18 ef ff ff 	lea    -0x10e8(%rbp),%rax
    89ee:	48 89 85 a0 f7 ff ff 	mov    %rax,-0x860(%rbp)
    89f5:	48 8d 85 18 ef ff ff 	lea    -0x10e8(%rbp),%rax
    89fc:	48 89 85 a8 f7 ff ff 	mov    %rax,-0x858(%rbp)
    8a03:	48 8d 85 18 ef ff ff 	lea    -0x10e8(%rbp),%rax
    8a0a:	48 89 85 b0 f7 ff ff 	mov    %rax,-0x850(%rbp)
    8a11:	48 c7 85 b8 f7 ff ff 	movq   $0x0,-0x848(%rbp)
    8a18:	00 00 00 00 
    8a1c:	48 8d 85 18 ef ff ff 	lea    -0x10e8(%rbp),%rax
    8a23:	48 89 85 c0 f7 ff ff 	mov    %rax,-0x840(%rbp)
    8a2a:	48 c7 85 c8 f7 ff ff 	movq   $0x0,-0x838(%rbp)
    8a31:	00 00 00 00 
    8a35:	48 8d 85 18 ef ff ff 	lea    -0x10e8(%rbp),%rax
    8a3c:	48 89 85 d0 f7 ff ff 	mov    %rax,-0x830(%rbp)
    8a43:	48 8d 85 18 ef ff ff 	lea    -0x10e8(%rbp),%rax
    8a4a:	48 89 85 d8 f7 ff ff 	mov    %rax,-0x828(%rbp)
    8a51:	48 8d 85 18 ef ff ff 	lea    -0x10e8(%rbp),%rax
    8a58:	48 89 85 e0 f7 ff ff 	mov    %rax,-0x820(%rbp)
    8a5f:	48 8d 85 18 ef ff ff 	lea    -0x10e8(%rbp),%rax
    8a66:	48 89 85 e8 f7 ff ff 	mov    %rax,-0x818(%rbp)
    8a6d:	48 c7 85 f0 f7 ff ff 	movq   $0x0,-0x810(%rbp)
    8a74:	00 00 00 00 
    8a78:	48 8d 85 18 ef ff ff 	lea    -0x10e8(%rbp),%rax
    8a7f:	48 89 85 f8 f7 ff ff 	mov    %rax,-0x808(%rbp)
    8a86:	48 c7 85 00 f8 ff ff 	movq   $0x0,-0x800(%rbp)
    8a8d:	00 00 00 00 
    8a91:	48 8d 85 18 ef ff ff 	lea    -0x10e8(%rbp),%rax
    8a98:	48 89 85 08 f8 ff ff 	mov    %rax,-0x7f8(%rbp)
    8a9f:	48 8d 85 18 ef ff ff 	lea    -0x10e8(%rbp),%rax
    8aa6:	48 89 85 10 f8 ff ff 	mov    %rax,-0x7f0(%rbp)
    8aad:	48 8d 85 18 ef ff ff 	lea    -0x10e8(%rbp),%rax
    8ab4:	48 89 85 18 f8 ff ff 	mov    %rax,-0x7e8(%rbp)
    8abb:	48 8d 85 18 ef ff ff 	lea    -0x10e8(%rbp),%rax
    8ac2:	48 89 85 20 f8 ff ff 	mov    %rax,-0x7e0(%rbp)
    8ac9:	48 c7 85 28 f8 ff ff 	movq   $0x0,-0x7d8(%rbp)
    8ad0:	00 00 00 00 
    8ad4:	48 8d 85 18 ef ff ff 	lea    -0x10e8(%rbp),%rax
    8adb:	48 89 85 30 f8 ff ff 	mov    %rax,-0x7d0(%rbp)
    8ae2:	48 c7 85 38 f8 ff ff 	movq   $0x0,-0x7c8(%rbp)
    8ae9:	00 00 00 00 
    8aed:	48 8d 85 18 ef ff ff 	lea    -0x10e8(%rbp),%rax
    8af4:	48 89 85 40 f8 ff ff 	mov    %rax,-0x7c0(%rbp)
    8afb:	48 8d 85 18 ef ff ff 	lea    -0x10e8(%rbp),%rax
    8b02:	48 89 85 48 f8 ff ff 	mov    %rax,-0x7b8(%rbp)
    8b09:	48 8d 85 f0 f4 ff ff 	lea    -0xb10(%rbp),%rax
    8b10:	48 05 b0 00 00 00    	add    $0xb0,%rax
    8b16:	48 89 85 20 ef ff ff 	mov    %rax,-0x10e0(%rbp)
    8b1d:	48 8d 05 2c 20 01 00 	lea    0x1202c(%rip),%rax        # 1ab50 <g_1080>
    8b24:	48 89 85 30 ef ff ff 	mov    %rax,-0x10d0(%rbp)
    8b2b:	c7 85 f4 ee ff ff 05 	movl   $0x5,-0x110c(%rbp)
    8b32:	00 00 00 
    8b35:	c7 85 f8 ee ff ff 13 	movl   $0xbe9b8113,-0x1108(%rbp)
    8b3c:	81 9b be 
    8b3f:	c7 85 fc ee ff ff 06 	movl   $0x6,-0x1104(%rbp)
    8b46:	00 00 00 
    8b49:	c7 85 c0 ef ff ff 69 	movl   $0x5d7e669,-0x1040(%rbp)
    8b50:	e6 d7 05 
    8b53:	c7 85 c4 ef ff ff 69 	movl   $0x5d7e669,-0x103c(%rbp)
    8b5a:	e6 d7 05 
    8b5d:	c7 85 c8 ef ff ff 69 	movl   $0x5d7e669,-0x1038(%rbp)
    8b64:	e6 d7 05 
    8b67:	c7 85 cc ef ff ff 69 	movl   $0x5d7e669,-0x1034(%rbp)
    8b6e:	e6 d7 05 
    8b71:	c7 85 d0 ef ff ff 69 	movl   $0x5d7e669,-0x1030(%rbp)
    8b78:	e6 d7 05 
    8b7b:	83 bd b4 ee ff ff 00 	cmpl   $0x0,-0x114c(%rbp)
    8b82:	0f 85 d4 10 00 00    	jne    9c5c <func_12+0x1e97>
    8b88:	c7 85 b4 ee ff ff 00 	movl   $0x0,-0x114c(%rbp)
    8b8f:	00 00 00 
    8b92:	eb 6d                	jmp    8c01 <func_12+0xe3c>
    8b94:	48 8d 05 dd f4 00 00 	lea    0xf4dd(%rip),%rax        # 18078 <g_247>
    8b9b:	48 89 85 80 ef ff ff 	mov    %rax,-0x1080(%rbp)
    8ba2:	c7 85 04 ef ff ff ff 	movl   $0xffffffff,-0x10fc(%rbp)
    8ba9:	ff ff ff 
    8bac:	c7 85 bc ee ff ff 00 	movl   $0x0,-0x1144(%rbp)
    8bb3:	00 00 00 
    8bb6:	eb 1b                	jmp    8bd3 <func_12+0xe0e>
    8bb8:	8b 85 bc ee ff ff    	mov    -0x1144(%rbp),%eax
    8bbe:	48 98                	cltq   
    8bc0:	48 c7 84 c5 50 f8 ff 	movq   $0x0,-0x7b0(%rbp,%rax,8)
    8bc7:	ff 00 00 00 00 
    8bcc:	83 85 bc ee ff ff 01 	addl   $0x1,-0x1144(%rbp)
    8bd3:	83 bd bc ee ff ff 00 	cmpl   $0x0,-0x1144(%rbp)
    8bda:	7e dc                	jle    8bb8 <func_12+0xdf3>
    8bdc:	83 ad a0 ee ff ff 01 	subl   $0x1,-0x1160(%rbp)
    8be3:	8b 85 b4 ee ff ff    	mov    -0x114c(%rbp),%eax
    8be9:	0f b6 c0             	movzbl %al,%eax
    8bec:	be 02 00 00 00       	mov    $0x2,%esi
    8bf1:	89 c7                	mov    %eax,%edi
    8bf3:	e8 62 df ff ff       	callq  6b5a <safe_add_func_uint8_t_u_u>
    8bf8:	0f b6 c0             	movzbl %al,%eax
    8bfb:	89 85 b4 ee ff ff    	mov    %eax,-0x114c(%rbp)
    8c01:	83 bd b4 ee ff ff 3a 	cmpl   $0x3a,-0x114c(%rbp)
    8c08:	74 8a                	je     8b94 <func_12+0xdcf>
    8c0a:	48 c7 05 23 f4 00 00 	movq   $0xffffffffffffffe7,0xf423(%rip)        # 18038 <g_44>
    8c11:	e7 ff ff ff 
    8c15:	90                   	nop
    8c16:	48 8b 05 1b f4 00 00 	mov    0xf41b(%rip),%rax        # 18038 <g_44>
    8c1d:	48 83 f8 2c          	cmp    $0x2c,%rax
    8c21:	0f 86 14 10 00 00    	jbe    9c3b <func_12+0x1e76>
    8c27:	c6 85 97 ee ff ff 30 	movb   $0x30,-0x1169(%rbp)
    8c2e:	c7 85 e0 ef ff ff a2 	movl   $0x638fbfa2,-0x1020(%rbp)
    8c35:	bf 8f 63 
    8c38:	c7 85 e4 ef ff ff a2 	movl   $0x638fbfa2,-0x101c(%rbp)
    8c3f:	bf 8f 63 
    8c42:	c7 85 e8 ef ff ff a2 	movl   $0x638fbfa2,-0x1018(%rbp)
    8c49:	bf 8f 63 
    8c4c:	c7 85 ec ef ff ff a2 	movl   $0x638fbfa2,-0x1014(%rbp)
    8c53:	bf 8f 63 
    8c56:	c7 85 f0 ef ff ff a2 	movl   $0x638fbfa2,-0x1010(%rbp)
    8c5d:	bf 8f 63 
    8c60:	c7 85 f4 ef ff ff a2 	movl   $0x638fbfa2,-0x100c(%rbp)
    8c67:	bf 8f 63 
    8c6a:	c7 85 f8 ef ff ff a2 	movl   $0x638fbfa2,-0x1008(%rbp)
    8c71:	bf 8f 63 
    8c74:	c7 85 fc ef ff ff a2 	movl   $0x638fbfa2,-0x1004(%rbp)
    8c7b:	bf 8f 63 
    8c7e:	c7 85 00 f0 ff ff a2 	movl   $0x638fbfa2,-0x1000(%rbp)
    8c85:	bf 8f 63 
    8c88:	48 c7 85 38 ef ff ff 	movq   $0x0,-0x10c8(%rbp)
    8c8f:	00 00 00 00 
    8c93:	c7 85 b8 ee ff ff 00 	movl   $0x0,-0x1148(%rbp)
    8c9a:	00 00 00 
    8c9d:	e9 81 0f 00 00       	jmpq   9c23 <func_12+0x1e5e>
    8ca2:	c7 85 00 ef ff ff fd 	movl   $0xfffffffd,-0x1100(%rbp)
    8ca9:	ff ff ff 
    8cac:	48 8d 05 75 14 01 00 	lea    0x11475(%rip),%rax        # 1a128 <g_326>
    8cb3:	48 89 85 40 ef ff ff 	mov    %rax,-0x10c0(%rbp)
    8cba:	48 8d 85 98 ee ff ff 	lea    -0x1168(%rbp),%rax
    8cc1:	48 89 85 48 ef ff ff 	mov    %rax,-0x10b8(%rbp)
    8cc8:	c7 85 c0 ee ff ff 00 	movl   $0x0,-0x1140(%rbp)
    8ccf:	00 00 00 
    8cd2:	eb 1e                	jmp    8cf2 <func_12+0xf2d>
    8cd4:	8b 85 c0 ee ff ff    	mov    -0x1140(%rbp),%eax
    8cda:	48 98                	cltq   
    8cdc:	48 8d 15 69 f3 00 00 	lea    0xf369(%rip),%rdx        # 1804c <g_115>
    8ce3:	48 89 94 c5 40 f0 ff 	mov    %rdx,-0xfc0(%rbp,%rax,8)
    8cea:	ff 
    8ceb:	83 85 c0 ee ff ff 01 	addl   $0x1,-0x1140(%rbp)
    8cf2:	83 bd c0 ee ff ff 06 	cmpl   $0x6,-0x1140(%rbp)
    8cf9:	7e d9                	jle    8cd4 <func_12+0xf0f>
    8cfb:	80 bd 97 ee ff ff 00 	cmpb   $0x0,-0x1169(%rbp)
    8d02:	74 15                	je     8d19 <func_12+0xf54>
    8d04:	66 83 bd 74 ee ff ff 	cmpw   $0x0,-0x118c(%rbp)
    8d0b:	00 
    8d0c:	74 0b                	je     8d19 <func_12+0xf54>
    8d0e:	8b 85 00 ef ff ff    	mov    -0x1100(%rbp),%eax
    8d14:	e9 08 10 00 00       	jmpq   9d21 <func_12+0x1f5c>
    8d19:	48 c7 85 50 ef ff ff 	movq   $0x0,-0x10b0(%rbp)
    8d20:	00 00 00 00 
    8d24:	48 8d 05 95 f4 00 00 	lea    0xf495(%rip),%rax        # 181c0 <g_263>
    8d2b:	48 89 85 58 ef ff ff 	mov    %rax,-0x10a8(%rbp)
    8d32:	48 8d 85 20 ef ff ff 	lea    -0x10e0(%rbp),%rax
    8d39:	48 89 85 50 f8 ff ff 	mov    %rax,-0x7b0(%rbp)
    8d40:	48 8d 85 20 ef ff ff 	lea    -0x10e0(%rbp),%rax
    8d47:	48 89 85 58 f8 ff ff 	mov    %rax,-0x7a8(%rbp)
    8d4e:	48 8d 85 20 ef ff ff 	lea    -0x10e0(%rbp),%rax
    8d55:	48 89 85 60 f8 ff ff 	mov    %rax,-0x7a0(%rbp)
    8d5c:	48 8d 85 20 ef ff ff 	lea    -0x10e0(%rbp),%rax
    8d63:	48 89 85 68 f8 ff ff 	mov    %rax,-0x798(%rbp)
    8d6a:	48 c7 85 70 f8 ff ff 	movq   $0x0,-0x790(%rbp)
    8d71:	00 00 00 00 
    8d75:	48 8d 85 20 ef ff ff 	lea    -0x10e0(%rbp),%rax
    8d7c:	48 89 85 78 f8 ff ff 	mov    %rax,-0x788(%rbp)
    8d83:	48 8d 85 20 ef ff ff 	lea    -0x10e0(%rbp),%rax
    8d8a:	48 89 85 80 f8 ff ff 	mov    %rax,-0x780(%rbp)
    8d91:	48 8d 85 20 ef ff ff 	lea    -0x10e0(%rbp),%rax
    8d98:	48 89 85 88 f8 ff ff 	mov    %rax,-0x778(%rbp)
    8d9f:	48 8d 85 20 ef ff ff 	lea    -0x10e0(%rbp),%rax
    8da6:	48 89 85 90 f8 ff ff 	mov    %rax,-0x770(%rbp)
    8dad:	48 8d 85 20 ef ff ff 	lea    -0x10e0(%rbp),%rax
    8db4:	48 89 85 98 f8 ff ff 	mov    %rax,-0x768(%rbp)
    8dbb:	48 8d 85 20 ef ff ff 	lea    -0x10e0(%rbp),%rax
    8dc2:	48 89 85 a0 f8 ff ff 	mov    %rax,-0x760(%rbp)
    8dc9:	48 8d 85 20 ef ff ff 	lea    -0x10e0(%rbp),%rax
    8dd0:	48 89 85 a8 f8 ff ff 	mov    %rax,-0x758(%rbp)
    8dd7:	48 8d 85 20 ef ff ff 	lea    -0x10e0(%rbp),%rax
    8dde:	48 89 85 b0 f8 ff ff 	mov    %rax,-0x750(%rbp)
    8de5:	48 c7 85 b8 f8 ff ff 	movq   $0x0,-0x748(%rbp)
    8dec:	00 00 00 00 
    8df0:	48 8d 85 20 ef ff ff 	lea    -0x10e0(%rbp),%rax
    8df7:	48 89 85 c0 f8 ff ff 	mov    %rax,-0x740(%rbp)
    8dfe:	48 c7 85 c8 f8 ff ff 	movq   $0x0,-0x738(%rbp)
    8e05:	00 00 00 00 
    8e09:	48 8d 85 20 ef ff ff 	lea    -0x10e0(%rbp),%rax
    8e10:	48 89 85 d0 f8 ff ff 	mov    %rax,-0x730(%rbp)
    8e17:	48 8d 85 20 ef ff ff 	lea    -0x10e0(%rbp),%rax
    8e1e:	48 89 85 d8 f8 ff ff 	mov    %rax,-0x728(%rbp)
    8e25:	48 8d 85 20 ef ff ff 	lea    -0x10e0(%rbp),%rax
    8e2c:	48 89 85 e0 f8 ff ff 	mov    %rax,-0x720(%rbp)
    8e33:	48 8d 85 20 ef ff ff 	lea    -0x10e0(%rbp),%rax
    8e3a:	48 89 85 e8 f8 ff ff 	mov    %rax,-0x718(%rbp)
    8e41:	48 8d 85 20 ef ff ff 	lea    -0x10e0(%rbp),%rax
    8e48:	48 89 85 f0 f8 ff ff 	mov    %rax,-0x710(%rbp)
    8e4f:	48 8d 85 20 ef ff ff 	lea    -0x10e0(%rbp),%rax
    8e56:	48 89 85 f8 f8 ff ff 	mov    %rax,-0x708(%rbp)
    8e5d:	48 8d 85 20 ef ff ff 	lea    -0x10e0(%rbp),%rax
    8e64:	48 89 85 00 f9 ff ff 	mov    %rax,-0x700(%rbp)
    8e6b:	48 c7 85 08 f9 ff ff 	movq   $0x0,-0x6f8(%rbp)
    8e72:	00 00 00 00 
    8e76:	48 8d 85 20 ef ff ff 	lea    -0x10e0(%rbp),%rax
    8e7d:	48 89 85 10 f9 ff ff 	mov    %rax,-0x6f0(%rbp)
    8e84:	48 8d 85 20 ef ff ff 	lea    -0x10e0(%rbp),%rax
    8e8b:	48 89 85 18 f9 ff ff 	mov    %rax,-0x6e8(%rbp)
    8e92:	48 c7 85 20 f9 ff ff 	movq   $0x0,-0x6e0(%rbp)
    8e99:	00 00 00 00 
    8e9d:	48 8d 85 20 ef ff ff 	lea    -0x10e0(%rbp),%rax
    8ea4:	48 89 85 28 f9 ff ff 	mov    %rax,-0x6d8(%rbp)
    8eab:	48 8d 85 20 ef ff ff 	lea    -0x10e0(%rbp),%rax
    8eb2:	48 89 85 30 f9 ff ff 	mov    %rax,-0x6d0(%rbp)
    8eb9:	48 c7 85 38 f9 ff ff 	movq   $0x0,-0x6c8(%rbp)
    8ec0:	00 00 00 00 
    8ec4:	48 c7 85 40 f9 ff ff 	movq   $0x0,-0x6c0(%rbp)
    8ecb:	00 00 00 00 
    8ecf:	48 c7 85 48 f9 ff ff 	movq   $0x0,-0x6b8(%rbp)
    8ed6:	00 00 00 00 
    8eda:	48 8d 85 20 ef ff ff 	lea    -0x10e0(%rbp),%rax
    8ee1:	48 89 85 50 f9 ff ff 	mov    %rax,-0x6b0(%rbp)
    8ee8:	48 8d 85 20 ef ff ff 	lea    -0x10e0(%rbp),%rax
    8eef:	48 89 85 58 f9 ff ff 	mov    %rax,-0x6a8(%rbp)
    8ef6:	48 c7 85 60 f9 ff ff 	movq   $0x0,-0x6a0(%rbp)
    8efd:	00 00 00 00 
    8f01:	48 8d 85 20 ef ff ff 	lea    -0x10e0(%rbp),%rax
    8f08:	48 89 85 68 f9 ff ff 	mov    %rax,-0x698(%rbp)
    8f0f:	48 8d 85 20 ef ff ff 	lea    -0x10e0(%rbp),%rax
    8f16:	48 89 85 70 f9 ff ff 	mov    %rax,-0x690(%rbp)
    8f1d:	48 c7 85 78 f9 ff ff 	movq   $0x0,-0x688(%rbp)
    8f24:	00 00 00 00 
    8f28:	48 8d 85 20 ef ff ff 	lea    -0x10e0(%rbp),%rax
    8f2f:	48 89 85 80 f9 ff ff 	mov    %rax,-0x680(%rbp)
    8f36:	48 8d 85 20 ef ff ff 	lea    -0x10e0(%rbp),%rax
    8f3d:	48 89 85 88 f9 ff ff 	mov    %rax,-0x678(%rbp)
    8f44:	48 8d 85 20 ef ff ff 	lea    -0x10e0(%rbp),%rax
    8f4b:	48 89 85 90 f9 ff ff 	mov    %rax,-0x670(%rbp)
    8f52:	48 8d 85 20 ef ff ff 	lea    -0x10e0(%rbp),%rax
    8f59:	48 89 85 98 f9 ff ff 	mov    %rax,-0x668(%rbp)
    8f60:	48 8d 85 20 ef ff ff 	lea    -0x10e0(%rbp),%rax
    8f67:	48 89 85 a0 f9 ff ff 	mov    %rax,-0x660(%rbp)
    8f6e:	48 8d 85 20 ef ff ff 	lea    -0x10e0(%rbp),%rax
    8f75:	48 89 85 a8 f9 ff ff 	mov    %rax,-0x658(%rbp)
    8f7c:	48 8d 85 20 ef ff ff 	lea    -0x10e0(%rbp),%rax
    8f83:	48 89 85 b0 f9 ff ff 	mov    %rax,-0x650(%rbp)
    8f8a:	48 8d 85 20 ef ff ff 	lea    -0x10e0(%rbp),%rax
    8f91:	48 89 85 b8 f9 ff ff 	mov    %rax,-0x648(%rbp)
    8f98:	48 8d 85 20 ef ff ff 	lea    -0x10e0(%rbp),%rax
    8f9f:	48 89 85 c0 f9 ff ff 	mov    %rax,-0x640(%rbp)
    8fa6:	48 8d 85 20 ef ff ff 	lea    -0x10e0(%rbp),%rax
    8fad:	48 89 85 c8 f9 ff ff 	mov    %rax,-0x638(%rbp)
    8fb4:	48 c7 85 d0 f9 ff ff 	movq   $0x0,-0x630(%rbp)
    8fbb:	00 00 00 00 
    8fbf:	48 8d 85 20 ef ff ff 	lea    -0x10e0(%rbp),%rax
    8fc6:	48 89 85 d8 f9 ff ff 	mov    %rax,-0x628(%rbp)
    8fcd:	48 8d 85 20 ef ff ff 	lea    -0x10e0(%rbp),%rax
    8fd4:	48 89 85 e0 f9 ff ff 	mov    %rax,-0x620(%rbp)
    8fdb:	48 8d 85 20 ef ff ff 	lea    -0x10e0(%rbp),%rax
    8fe2:	48 89 85 e8 f9 ff ff 	mov    %rax,-0x618(%rbp)
    8fe9:	48 8d 85 20 ef ff ff 	lea    -0x10e0(%rbp),%rax
    8ff0:	48 89 85 f0 f9 ff ff 	mov    %rax,-0x610(%rbp)
    8ff7:	48 8d 85 20 ef ff ff 	lea    -0x10e0(%rbp),%rax
    8ffe:	48 89 85 f8 f9 ff ff 	mov    %rax,-0x608(%rbp)
    9005:	48 8d 85 20 ef ff ff 	lea    -0x10e0(%rbp),%rax
    900c:	48 89 85 00 fa ff ff 	mov    %rax,-0x600(%rbp)
    9013:	48 c7 85 08 fa ff ff 	movq   $0x0,-0x5f8(%rbp)
    901a:	00 00 00 00 
    901e:	48 8d 85 20 ef ff ff 	lea    -0x10e0(%rbp),%rax
    9025:	48 89 85 10 fa ff ff 	mov    %rax,-0x5f0(%rbp)
    902c:	48 8d 85 20 ef ff ff 	lea    -0x10e0(%rbp),%rax
    9033:	48 89 85 18 fa ff ff 	mov    %rax,-0x5e8(%rbp)
    903a:	48 8d 85 20 ef ff ff 	lea    -0x10e0(%rbp),%rax
    9041:	48 89 85 20 fa ff ff 	mov    %rax,-0x5e0(%rbp)
    9048:	48 8d 85 20 ef ff ff 	lea    -0x10e0(%rbp),%rax
    904f:	48 89 85 28 fa ff ff 	mov    %rax,-0x5d8(%rbp)
    9056:	48 8d 85 20 ef ff ff 	lea    -0x10e0(%rbp),%rax
    905d:	48 89 85 30 fa ff ff 	mov    %rax,-0x5d0(%rbp)
    9064:	48 8d 85 20 ef ff ff 	lea    -0x10e0(%rbp),%rax
    906b:	48 89 85 38 fa ff ff 	mov    %rax,-0x5c8(%rbp)
    9072:	48 8d 85 20 ef ff ff 	lea    -0x10e0(%rbp),%rax
    9079:	48 89 85 40 fa ff ff 	mov    %rax,-0x5c0(%rbp)
    9080:	48 8d 85 20 ef ff ff 	lea    -0x10e0(%rbp),%rax
    9087:	48 89 85 48 fa ff ff 	mov    %rax,-0x5b8(%rbp)
    908e:	48 c7 85 50 fa ff ff 	movq   $0x0,-0x5b0(%rbp)
    9095:	00 00 00 00 
    9099:	48 c7 85 58 fa ff ff 	movq   $0x0,-0x5a8(%rbp)
    90a0:	00 00 00 00 
    90a4:	48 c7 85 60 fa ff ff 	movq   $0x0,-0x5a0(%rbp)
    90ab:	00 00 00 00 
    90af:	48 8d 85 20 ef ff ff 	lea    -0x10e0(%rbp),%rax
    90b6:	48 89 85 68 fa ff ff 	mov    %rax,-0x598(%rbp)
    90bd:	48 8d 85 20 ef ff ff 	lea    -0x10e0(%rbp),%rax
    90c4:	48 89 85 70 fa ff ff 	mov    %rax,-0x590(%rbp)
    90cb:	48 8d 85 20 ef ff ff 	lea    -0x10e0(%rbp),%rax
    90d2:	48 89 85 78 fa ff ff 	mov    %rax,-0x588(%rbp)
    90d9:	48 8d 85 20 ef ff ff 	lea    -0x10e0(%rbp),%rax
    90e0:	48 89 85 80 fa ff ff 	mov    %rax,-0x580(%rbp)
    90e7:	48 8d 85 20 ef ff ff 	lea    -0x10e0(%rbp),%rax
    90ee:	48 89 85 88 fa ff ff 	mov    %rax,-0x578(%rbp)
    90f5:	48 8d 85 20 ef ff ff 	lea    -0x10e0(%rbp),%rax
    90fc:	48 89 85 90 fa ff ff 	mov    %rax,-0x570(%rbp)
    9103:	48 8d 85 20 ef ff ff 	lea    -0x10e0(%rbp),%rax
    910a:	48 89 85 98 fa ff ff 	mov    %rax,-0x568(%rbp)
    9111:	48 8d 85 20 ef ff ff 	lea    -0x10e0(%rbp),%rax
    9118:	48 89 85 a0 fa ff ff 	mov    %rax,-0x560(%rbp)
    911f:	48 8d 85 20 ef ff ff 	lea    -0x10e0(%rbp),%rax
    9126:	48 89 85 a8 fa ff ff 	mov    %rax,-0x558(%rbp)
    912d:	48 8d 85 20 ef ff ff 	lea    -0x10e0(%rbp),%rax
    9134:	48 89 85 b0 fa ff ff 	mov    %rax,-0x550(%rbp)
    913b:	48 8d 85 20 ef ff ff 	lea    -0x10e0(%rbp),%rax
    9142:	48 89 85 b8 fa ff ff 	mov    %rax,-0x548(%rbp)
    9149:	48 8d 85 20 ef ff ff 	lea    -0x10e0(%rbp),%rax
    9150:	48 89 85 c0 fa ff ff 	mov    %rax,-0x540(%rbp)
    9157:	48 c7 85 c8 fa ff ff 	movq   $0x0,-0x538(%rbp)
    915e:	00 00 00 00 
    9162:	48 c7 85 d0 fa ff ff 	movq   $0x0,-0x530(%rbp)
    9169:	00 00 00 00 
    916d:	48 8d 85 20 ef ff ff 	lea    -0x10e0(%rbp),%rax
    9174:	48 89 85 d8 fa ff ff 	mov    %rax,-0x528(%rbp)
    917b:	48 8d 85 20 ef ff ff 	lea    -0x10e0(%rbp),%rax
    9182:	48 89 85 e0 fa ff ff 	mov    %rax,-0x520(%rbp)
    9189:	48 8d 85 20 ef ff ff 	lea    -0x10e0(%rbp),%rax
    9190:	48 89 85 e8 fa ff ff 	mov    %rax,-0x518(%rbp)
    9197:	48 c7 85 f0 fa ff ff 	movq   $0x0,-0x510(%rbp)
    919e:	00 00 00 00 
    91a2:	48 8d 85 20 ef ff ff 	lea    -0x10e0(%rbp),%rax
    91a9:	48 89 85 f8 fa ff ff 	mov    %rax,-0x508(%rbp)
    91b0:	48 8d 85 20 ef ff ff 	lea    -0x10e0(%rbp),%rax
    91b7:	48 89 85 00 fb ff ff 	mov    %rax,-0x500(%rbp)
    91be:	48 8d 85 20 ef ff ff 	lea    -0x10e0(%rbp),%rax
    91c5:	48 89 85 08 fb ff ff 	mov    %rax,-0x4f8(%rbp)
    91cc:	48 c7 85 10 fb ff ff 	movq   $0x0,-0x4f0(%rbp)
    91d3:	00 00 00 00 
    91d7:	48 8d 85 20 ef ff ff 	lea    -0x10e0(%rbp),%rax
    91de:	48 89 85 18 fb ff ff 	mov    %rax,-0x4e8(%rbp)
    91e5:	48 8d 85 20 ef ff ff 	lea    -0x10e0(%rbp),%rax
    91ec:	48 89 85 20 fb ff ff 	mov    %rax,-0x4e0(%rbp)
    91f3:	48 c7 85 28 fb ff ff 	movq   $0x0,-0x4d8(%rbp)
    91fa:	00 00 00 00 
    91fe:	48 8d 85 20 ef ff ff 	lea    -0x10e0(%rbp),%rax
    9205:	48 89 85 30 fb ff ff 	mov    %rax,-0x4d0(%rbp)
    920c:	48 8d 85 20 ef ff ff 	lea    -0x10e0(%rbp),%rax
    9213:	48 89 85 38 fb ff ff 	mov    %rax,-0x4c8(%rbp)
    921a:	48 8d 85 20 ef ff ff 	lea    -0x10e0(%rbp),%rax
    9221:	48 89 85 40 fb ff ff 	mov    %rax,-0x4c0(%rbp)
    9228:	48 c7 85 48 fb ff ff 	movq   $0x0,-0x4b8(%rbp)
    922f:	00 00 00 00 
    9233:	48 8d 85 20 ef ff ff 	lea    -0x10e0(%rbp),%rax
    923a:	48 89 85 50 fb ff ff 	mov    %rax,-0x4b0(%rbp)
    9241:	48 8d 85 20 ef ff ff 	lea    -0x10e0(%rbp),%rax
    9248:	48 89 85 58 fb ff ff 	mov    %rax,-0x4a8(%rbp)
    924f:	48 8d 85 20 ef ff ff 	lea    -0x10e0(%rbp),%rax
    9256:	48 89 85 60 fb ff ff 	mov    %rax,-0x4a0(%rbp)
    925d:	48 c7 85 68 fb ff ff 	movq   $0x0,-0x498(%rbp)
    9264:	00 00 00 00 
    9268:	48 8d 85 20 ef ff ff 	lea    -0x10e0(%rbp),%rax
    926f:	48 89 85 70 fb ff ff 	mov    %rax,-0x490(%rbp)
    9276:	48 8d 85 20 ef ff ff 	lea    -0x10e0(%rbp),%rax
    927d:	48 89 85 78 fb ff ff 	mov    %rax,-0x488(%rbp)
    9284:	48 8d 85 20 ef ff ff 	lea    -0x10e0(%rbp),%rax
    928b:	48 89 85 80 fb ff ff 	mov    %rax,-0x480(%rbp)
    9292:	48 8d 85 20 ef ff ff 	lea    -0x10e0(%rbp),%rax
    9299:	48 89 85 88 fb ff ff 	mov    %rax,-0x478(%rbp)
    92a0:	48 8d 85 20 ef ff ff 	lea    -0x10e0(%rbp),%rax
    92a7:	48 89 85 90 fb ff ff 	mov    %rax,-0x470(%rbp)
    92ae:	48 8d 85 20 ef ff ff 	lea    -0x10e0(%rbp),%rax
    92b5:	48 89 85 98 fb ff ff 	mov    %rax,-0x468(%rbp)
    92bc:	48 8d 85 20 ef ff ff 	lea    -0x10e0(%rbp),%rax
    92c3:	48 89 85 a0 fb ff ff 	mov    %rax,-0x460(%rbp)
    92ca:	48 8d 85 20 ef ff ff 	lea    -0x10e0(%rbp),%rax
    92d1:	48 89 85 a8 fb ff ff 	mov    %rax,-0x458(%rbp)
    92d8:	48 8d 85 20 ef ff ff 	lea    -0x10e0(%rbp),%rax
    92df:	48 89 85 b0 fb ff ff 	mov    %rax,-0x450(%rbp)
    92e6:	48 8d 85 20 ef ff ff 	lea    -0x10e0(%rbp),%rax
    92ed:	48 89 85 b8 fb ff ff 	mov    %rax,-0x448(%rbp)
    92f4:	48 8d 85 20 ef ff ff 	lea    -0x10e0(%rbp),%rax
    92fb:	48 89 85 c0 fb ff ff 	mov    %rax,-0x440(%rbp)
    9302:	48 8d 85 20 ef ff ff 	lea    -0x10e0(%rbp),%rax
    9309:	48 89 85 c8 fb ff ff 	mov    %rax,-0x438(%rbp)
    9310:	48 8d 85 20 ef ff ff 	lea    -0x10e0(%rbp),%rax
    9317:	48 89 85 d0 fb ff ff 	mov    %rax,-0x430(%rbp)
    931e:	48 8d 85 20 ef ff ff 	lea    -0x10e0(%rbp),%rax
    9325:	48 89 85 d8 fb ff ff 	mov    %rax,-0x428(%rbp)
    932c:	48 8d 85 20 ef ff ff 	lea    -0x10e0(%rbp),%rax
    9333:	48 89 85 e0 fb ff ff 	mov    %rax,-0x420(%rbp)
    933a:	48 8d 85 20 ef ff ff 	lea    -0x10e0(%rbp),%rax
    9341:	48 89 85 e8 fb ff ff 	mov    %rax,-0x418(%rbp)
    9348:	48 8d 85 20 ef ff ff 	lea    -0x10e0(%rbp),%rax
    934f:	48 89 85 f0 fb ff ff 	mov    %rax,-0x410(%rbp)
    9356:	48 8d 85 20 ef ff ff 	lea    -0x10e0(%rbp),%rax
    935d:	48 89 85 f8 fb ff ff 	mov    %rax,-0x408(%rbp)
    9364:	48 8d 85 20 ef ff ff 	lea    -0x10e0(%rbp),%rax
    936b:	48 89 85 00 fc ff ff 	mov    %rax,-0x400(%rbp)
    9372:	48 8d 85 20 ef ff ff 	lea    -0x10e0(%rbp),%rax
    9379:	48 89 85 08 fc ff ff 	mov    %rax,-0x3f8(%rbp)
    9380:	48 8d 85 20 ef ff ff 	lea    -0x10e0(%rbp),%rax
    9387:	48 89 85 10 fc ff ff 	mov    %rax,-0x3f0(%rbp)
    938e:	48 8d 85 20 ef ff ff 	lea    -0x10e0(%rbp),%rax
    9395:	48 89 85 18 fc ff ff 	mov    %rax,-0x3e8(%rbp)
    939c:	48 8d 85 20 ef ff ff 	lea    -0x10e0(%rbp),%rax
    93a3:	48 89 85 20 fc ff ff 	mov    %rax,-0x3e0(%rbp)
    93aa:	48 8d 85 20 ef ff ff 	lea    -0x10e0(%rbp),%rax
    93b1:	48 89 85 28 fc ff ff 	mov    %rax,-0x3d8(%rbp)
    93b8:	48 8d 85 20 ef ff ff 	lea    -0x10e0(%rbp),%rax
    93bf:	48 89 85 30 fc ff ff 	mov    %rax,-0x3d0(%rbp)
    93c6:	48 c7 85 38 fc ff ff 	movq   $0x0,-0x3c8(%rbp)
    93cd:	00 00 00 00 
    93d1:	48 8d 85 20 ef ff ff 	lea    -0x10e0(%rbp),%rax
    93d8:	48 89 85 40 fc ff ff 	mov    %rax,-0x3c0(%rbp)
    93df:	48 8d 85 20 ef ff ff 	lea    -0x10e0(%rbp),%rax
    93e6:	48 89 85 48 fc ff ff 	mov    %rax,-0x3b8(%rbp)
    93ed:	48 8d 85 20 ef ff ff 	lea    -0x10e0(%rbp),%rax
    93f4:	48 89 85 50 fc ff ff 	mov    %rax,-0x3b0(%rbp)
    93fb:	48 8d 85 20 ef ff ff 	lea    -0x10e0(%rbp),%rax
    9402:	48 89 85 58 fc ff ff 	mov    %rax,-0x3a8(%rbp)
    9409:	48 8d 85 20 ef ff ff 	lea    -0x10e0(%rbp),%rax
    9410:	48 89 85 60 fc ff ff 	mov    %rax,-0x3a0(%rbp)
    9417:	48 8d 85 20 ef ff ff 	lea    -0x10e0(%rbp),%rax
    941e:	48 89 85 68 fc ff ff 	mov    %rax,-0x398(%rbp)
    9425:	48 8d 85 20 ef ff ff 	lea    -0x10e0(%rbp),%rax
    942c:	48 89 85 70 fc ff ff 	mov    %rax,-0x390(%rbp)
    9433:	48 c7 85 78 fc ff ff 	movq   $0x0,-0x388(%rbp)
    943a:	00 00 00 00 
    943e:	48 8d 85 20 ef ff ff 	lea    -0x10e0(%rbp),%rax
    9445:	48 89 85 80 fc ff ff 	mov    %rax,-0x380(%rbp)
    944c:	48 8d 85 20 ef ff ff 	lea    -0x10e0(%rbp),%rax
    9453:	48 89 85 88 fc ff ff 	mov    %rax,-0x378(%rbp)
    945a:	48 8d 85 20 ef ff ff 	lea    -0x10e0(%rbp),%rax
    9461:	48 89 85 90 fc ff ff 	mov    %rax,-0x370(%rbp)
    9468:	48 8d 85 20 ef ff ff 	lea    -0x10e0(%rbp),%rax
    946f:	48 89 85 98 fc ff ff 	mov    %rax,-0x368(%rbp)
    9476:	48 8d 85 20 ef ff ff 	lea    -0x10e0(%rbp),%rax
    947d:	48 89 85 a0 fc ff ff 	mov    %rax,-0x360(%rbp)
    9484:	48 8d 85 20 ef ff ff 	lea    -0x10e0(%rbp),%rax
    948b:	48 89 85 a8 fc ff ff 	mov    %rax,-0x358(%rbp)
    9492:	48 8d 85 20 ef ff ff 	lea    -0x10e0(%rbp),%rax
    9499:	48 89 85 b0 fc ff ff 	mov    %rax,-0x350(%rbp)
    94a0:	48 8d 85 20 ef ff ff 	lea    -0x10e0(%rbp),%rax
    94a7:	48 89 85 b8 fc ff ff 	mov    %rax,-0x348(%rbp)
    94ae:	48 8d 85 20 ef ff ff 	lea    -0x10e0(%rbp),%rax
    94b5:	48 89 85 c0 fc ff ff 	mov    %rax,-0x340(%rbp)
    94bc:	48 8d 85 20 ef ff ff 	lea    -0x10e0(%rbp),%rax
    94c3:	48 89 85 c8 fc ff ff 	mov    %rax,-0x338(%rbp)
    94ca:	48 8d 85 20 ef ff ff 	lea    -0x10e0(%rbp),%rax
    94d1:	48 89 85 d0 fc ff ff 	mov    %rax,-0x330(%rbp)
    94d8:	48 8d 85 20 ef ff ff 	lea    -0x10e0(%rbp),%rax
    94df:	48 89 85 d8 fc ff ff 	mov    %rax,-0x328(%rbp)
    94e6:	48 8d 85 20 ef ff ff 	lea    -0x10e0(%rbp),%rax
    94ed:	48 89 85 e0 fc ff ff 	mov    %rax,-0x320(%rbp)
    94f4:	48 8d 85 20 ef ff ff 	lea    -0x10e0(%rbp),%rax
    94fb:	48 89 85 e8 fc ff ff 	mov    %rax,-0x318(%rbp)
    9502:	48 c7 85 f0 fc ff ff 	movq   $0x0,-0x310(%rbp)
    9509:	00 00 00 00 
    950d:	48 8d 85 20 ef ff ff 	lea    -0x10e0(%rbp),%rax
    9514:	48 89 85 f8 fc ff ff 	mov    %rax,-0x308(%rbp)
    951b:	48 8d 85 20 ef ff ff 	lea    -0x10e0(%rbp),%rax
    9522:	48 89 85 00 fd ff ff 	mov    %rax,-0x300(%rbp)
    9529:	48 8d 85 20 ef ff ff 	lea    -0x10e0(%rbp),%rax
    9530:	48 89 85 08 fd ff ff 	mov    %rax,-0x2f8(%rbp)
    9537:	48 8d 85 20 ef ff ff 	lea    -0x10e0(%rbp),%rax
    953e:	48 89 85 10 fd ff ff 	mov    %rax,-0x2f0(%rbp)
    9545:	48 8d 85 20 ef ff ff 	lea    -0x10e0(%rbp),%rax
    954c:	48 89 85 18 fd ff ff 	mov    %rax,-0x2e8(%rbp)
    9553:	48 8d 85 20 ef ff ff 	lea    -0x10e0(%rbp),%rax
    955a:	48 89 85 20 fd ff ff 	mov    %rax,-0x2e0(%rbp)
    9561:	48 8d 85 20 ef ff ff 	lea    -0x10e0(%rbp),%rax
    9568:	48 89 85 28 fd ff ff 	mov    %rax,-0x2d8(%rbp)
    956f:	48 8d 85 20 ef ff ff 	lea    -0x10e0(%rbp),%rax
    9576:	48 89 85 30 fd ff ff 	mov    %rax,-0x2d0(%rbp)
    957d:	48 8d 85 20 ef ff ff 	lea    -0x10e0(%rbp),%rax
    9584:	48 89 85 38 fd ff ff 	mov    %rax,-0x2c8(%rbp)
    958b:	48 8d 85 20 ef ff ff 	lea    -0x10e0(%rbp),%rax
    9592:	48 89 85 40 fd ff ff 	mov    %rax,-0x2c0(%rbp)
    9599:	48 c7 85 48 fd ff ff 	movq   $0x0,-0x2b8(%rbp)
    95a0:	00 00 00 00 
    95a4:	48 c7 85 50 fd ff ff 	movq   $0x0,-0x2b0(%rbp)
    95ab:	00 00 00 00 
    95af:	48 8d 85 20 ef ff ff 	lea    -0x10e0(%rbp),%rax
    95b6:	48 89 85 58 fd ff ff 	mov    %rax,-0x2a8(%rbp)
    95bd:	48 c7 85 60 fd ff ff 	movq   $0x0,-0x2a0(%rbp)
    95c4:	00 00 00 00 
    95c8:	48 c7 85 68 fd ff ff 	movq   $0x0,-0x298(%rbp)
    95cf:	00 00 00 00 
    95d3:	48 8d 85 20 ef ff ff 	lea    -0x10e0(%rbp),%rax
    95da:	48 89 85 70 fd ff ff 	mov    %rax,-0x290(%rbp)
    95e1:	48 8d 85 20 ef ff ff 	lea    -0x10e0(%rbp),%rax
    95e8:	48 89 85 78 fd ff ff 	mov    %rax,-0x288(%rbp)
    95ef:	48 c7 85 80 fd ff ff 	movq   $0x0,-0x280(%rbp)
    95f6:	00 00 00 00 
    95fa:	48 8d 85 20 ef ff ff 	lea    -0x10e0(%rbp),%rax
    9601:	48 89 85 88 fd ff ff 	mov    %rax,-0x278(%rbp)
    9608:	48 8d 85 20 ef ff ff 	lea    -0x10e0(%rbp),%rax
    960f:	48 89 85 90 fd ff ff 	mov    %rax,-0x270(%rbp)
    9616:	48 8d 85 20 ef ff ff 	lea    -0x10e0(%rbp),%rax
    961d:	48 89 85 98 fd ff ff 	mov    %rax,-0x268(%rbp)
    9624:	48 8d 85 20 ef ff ff 	lea    -0x10e0(%rbp),%rax
    962b:	48 89 85 a0 fd ff ff 	mov    %rax,-0x260(%rbp)
    9632:	48 8d 85 20 ef ff ff 	lea    -0x10e0(%rbp),%rax
    9639:	48 89 85 a8 fd ff ff 	mov    %rax,-0x258(%rbp)
    9640:	48 8d 85 20 ef ff ff 	lea    -0x10e0(%rbp),%rax
    9647:	48 89 85 b0 fd ff ff 	mov    %rax,-0x250(%rbp)
    964e:	48 c7 85 b8 fd ff ff 	movq   $0x0,-0x248(%rbp)
    9655:	00 00 00 00 
    9659:	48 8d 85 20 ef ff ff 	lea    -0x10e0(%rbp),%rax
    9660:	48 89 85 c0 fd ff ff 	mov    %rax,-0x240(%rbp)
    9667:	48 8d 85 20 ef ff ff 	lea    -0x10e0(%rbp),%rax
    966e:	48 89 85 c8 fd ff ff 	mov    %rax,-0x238(%rbp)
    9675:	48 8d 85 20 ef ff ff 	lea    -0x10e0(%rbp),%rax
    967c:	48 89 85 d0 fd ff ff 	mov    %rax,-0x230(%rbp)
    9683:	48 8d 85 20 ef ff ff 	lea    -0x10e0(%rbp),%rax
    968a:	48 89 85 d8 fd ff ff 	mov    %rax,-0x228(%rbp)
    9691:	48 c7 85 e0 fd ff ff 	movq   $0x0,-0x220(%rbp)
    9698:	00 00 00 00 
    969c:	48 8d 85 20 ef ff ff 	lea    -0x10e0(%rbp),%rax
    96a3:	48 89 85 e8 fd ff ff 	mov    %rax,-0x218(%rbp)
    96aa:	48 8d 85 20 ef ff ff 	lea    -0x10e0(%rbp),%rax
    96b1:	48 89 85 f0 fd ff ff 	mov    %rax,-0x210(%rbp)
    96b8:	48 c7 85 f8 fd ff ff 	movq   $0x0,-0x208(%rbp)
    96bf:	00 00 00 00 
    96c3:	48 8d 85 20 ef ff ff 	lea    -0x10e0(%rbp),%rax
    96ca:	48 89 85 00 fe ff ff 	mov    %rax,-0x200(%rbp)
    96d1:	48 8d 85 20 ef ff ff 	lea    -0x10e0(%rbp),%rax
    96d8:	48 89 85 08 fe ff ff 	mov    %rax,-0x1f8(%rbp)
    96df:	48 c7 85 10 fe ff ff 	movq   $0x0,-0x1f0(%rbp)
    96e6:	00 00 00 00 
    96ea:	48 8d 85 20 ef ff ff 	lea    -0x10e0(%rbp),%rax
    96f1:	48 89 85 18 fe ff ff 	mov    %rax,-0x1e8(%rbp)
    96f8:	48 8d 85 20 ef ff ff 	lea    -0x10e0(%rbp),%rax
    96ff:	48 89 85 20 fe ff ff 	mov    %rax,-0x1e0(%rbp)
    9706:	48 8d 85 20 ef ff ff 	lea    -0x10e0(%rbp),%rax
    970d:	48 89 85 28 fe ff ff 	mov    %rax,-0x1d8(%rbp)
    9714:	48 8d 85 20 ef ff ff 	lea    -0x10e0(%rbp),%rax
    971b:	48 89 85 30 fe ff ff 	mov    %rax,-0x1d0(%rbp)
    9722:	48 8d 85 20 ef ff ff 	lea    -0x10e0(%rbp),%rax
    9729:	48 89 85 38 fe ff ff 	mov    %rax,-0x1c8(%rbp)
    9730:	48 8d 85 20 ef ff ff 	lea    -0x10e0(%rbp),%rax
    9737:	48 89 85 40 fe ff ff 	mov    %rax,-0x1c0(%rbp)
    973e:	48 8d 85 20 ef ff ff 	lea    -0x10e0(%rbp),%rax
    9745:	48 89 85 48 fe ff ff 	mov    %rax,-0x1b8(%rbp)
    974c:	48 8d 85 20 ef ff ff 	lea    -0x10e0(%rbp),%rax
    9753:	48 89 85 50 fe ff ff 	mov    %rax,-0x1b0(%rbp)
    975a:	48 8d 85 20 ef ff ff 	lea    -0x10e0(%rbp),%rax
    9761:	48 89 85 58 fe ff ff 	mov    %rax,-0x1a8(%rbp)
    9768:	48 8d 85 20 ef ff ff 	lea    -0x10e0(%rbp),%rax
    976f:	48 89 85 60 fe ff ff 	mov    %rax,-0x1a0(%rbp)
    9776:	48 8d 85 20 ef ff ff 	lea    -0x10e0(%rbp),%rax
    977d:	48 89 85 68 fe ff ff 	mov    %rax,-0x198(%rbp)
    9784:	48 c7 85 70 fe ff ff 	movq   $0x0,-0x190(%rbp)
    978b:	00 00 00 00 
    978f:	48 8d 85 20 ef ff ff 	lea    -0x10e0(%rbp),%rax
    9796:	48 89 85 78 fe ff ff 	mov    %rax,-0x188(%rbp)
    979d:	48 8d 85 20 ef ff ff 	lea    -0x10e0(%rbp),%rax
    97a4:	48 89 85 80 fe ff ff 	mov    %rax,-0x180(%rbp)
    97ab:	48 8d 85 20 ef ff ff 	lea    -0x10e0(%rbp),%rax
    97b2:	48 89 85 88 fe ff ff 	mov    %rax,-0x178(%rbp)
    97b9:	48 8d 85 20 ef ff ff 	lea    -0x10e0(%rbp),%rax
    97c0:	48 89 85 90 fe ff ff 	mov    %rax,-0x170(%rbp)
    97c7:	48 8d 85 20 ef ff ff 	lea    -0x10e0(%rbp),%rax
    97ce:	48 89 85 98 fe ff ff 	mov    %rax,-0x168(%rbp)
    97d5:	48 8d 85 20 ef ff ff 	lea    -0x10e0(%rbp),%rax
    97dc:	48 89 85 a0 fe ff ff 	mov    %rax,-0x160(%rbp)
    97e3:	48 8d 85 20 ef ff ff 	lea    -0x10e0(%rbp),%rax
    97ea:	48 89 85 a8 fe ff ff 	mov    %rax,-0x158(%rbp)
    97f1:	48 8d 85 20 ef ff ff 	lea    -0x10e0(%rbp),%rax
    97f8:	48 89 85 b0 fe ff ff 	mov    %rax,-0x150(%rbp)
    97ff:	48 8d 85 20 ef ff ff 	lea    -0x10e0(%rbp),%rax
    9806:	48 89 85 b8 fe ff ff 	mov    %rax,-0x148(%rbp)
    980d:	48 8d 85 20 ef ff ff 	lea    -0x10e0(%rbp),%rax
    9814:	48 89 85 c0 fe ff ff 	mov    %rax,-0x140(%rbp)
    981b:	48 8d 85 20 ef ff ff 	lea    -0x10e0(%rbp),%rax
    9822:	48 89 85 c8 fe ff ff 	mov    %rax,-0x138(%rbp)
    9829:	48 8d 85 20 ef ff ff 	lea    -0x10e0(%rbp),%rax
    9830:	48 89 85 d0 fe ff ff 	mov    %rax,-0x130(%rbp)
    9837:	48 8d 85 20 ef ff ff 	lea    -0x10e0(%rbp),%rax
    983e:	48 89 85 d8 fe ff ff 	mov    %rax,-0x128(%rbp)
    9845:	48 8d 85 20 ef ff ff 	lea    -0x10e0(%rbp),%rax
    984c:	48 89 85 e0 fe ff ff 	mov    %rax,-0x120(%rbp)
    9853:	48 c7 85 e8 fe ff ff 	movq   $0x0,-0x118(%rbp)
    985a:	00 00 00 00 
    985e:	48 c7 85 f0 fe ff ff 	movq   $0x0,-0x110(%rbp)
    9865:	00 00 00 00 
    9869:	48 8d 85 20 ef ff ff 	lea    -0x10e0(%rbp),%rax
    9870:	48 89 85 f8 fe ff ff 	mov    %rax,-0x108(%rbp)
    9877:	48 8d 85 20 ef ff ff 	lea    -0x10e0(%rbp),%rax
    987e:	48 89 85 00 ff ff ff 	mov    %rax,-0x100(%rbp)
    9885:	48 8d 85 20 ef ff ff 	lea    -0x10e0(%rbp),%rax
    988c:	48 89 85 08 ff ff ff 	mov    %rax,-0xf8(%rbp)
    9893:	48 8d 85 20 ef ff ff 	lea    -0x10e0(%rbp),%rax
    989a:	48 89 85 10 ff ff ff 	mov    %rax,-0xf0(%rbp)
    98a1:	48 8d 85 20 ef ff ff 	lea    -0x10e0(%rbp),%rax
    98a8:	48 89 85 18 ff ff ff 	mov    %rax,-0xe8(%rbp)
    98af:	48 8d 85 20 ef ff ff 	lea    -0x10e0(%rbp),%rax
    98b6:	48 89 85 20 ff ff ff 	mov    %rax,-0xe0(%rbp)
    98bd:	48 8d 85 20 ef ff ff 	lea    -0x10e0(%rbp),%rax
    98c4:	48 89 85 28 ff ff ff 	mov    %rax,-0xd8(%rbp)
    98cb:	48 8d 85 20 ef ff ff 	lea    -0x10e0(%rbp),%rax
    98d2:	48 89 85 30 ff ff ff 	mov    %rax,-0xd0(%rbp)
    98d9:	48 8d 85 20 ef ff ff 	lea    -0x10e0(%rbp),%rax
    98e0:	48 89 85 38 ff ff ff 	mov    %rax,-0xc8(%rbp)
    98e7:	48 8d 85 20 ef ff ff 	lea    -0x10e0(%rbp),%rax
    98ee:	48 89 85 40 ff ff ff 	mov    %rax,-0xc0(%rbp)
    98f5:	48 8d 85 20 ef ff ff 	lea    -0x10e0(%rbp),%rax
    98fc:	48 89 85 48 ff ff ff 	mov    %rax,-0xb8(%rbp)
    9903:	48 c7 85 50 ff ff ff 	movq   $0x0,-0xb0(%rbp)
    990a:	00 00 00 00 
    990e:	48 8d 85 20 ef ff ff 	lea    -0x10e0(%rbp),%rax
    9915:	48 89 85 58 ff ff ff 	mov    %rax,-0xa8(%rbp)
    991c:	48 8d 85 20 ef ff ff 	lea    -0x10e0(%rbp),%rax
    9923:	48 89 85 60 ff ff ff 	mov    %rax,-0xa0(%rbp)
    992a:	48 8d 85 20 ef ff ff 	lea    -0x10e0(%rbp),%rax
    9931:	48 89 85 68 ff ff ff 	mov    %rax,-0x98(%rbp)
    9938:	48 c7 85 70 ff ff ff 	movq   $0x0,-0x90(%rbp)
    993f:	00 00 00 00 
    9943:	48 8d 85 20 ef ff ff 	lea    -0x10e0(%rbp),%rax
    994a:	48 89 85 78 ff ff ff 	mov    %rax,-0x88(%rbp)
    9951:	48 8d 85 20 ef ff ff 	lea    -0x10e0(%rbp),%rax
    9958:	48 89 45 80          	mov    %rax,-0x80(%rbp)
    995c:	48 c7 45 88 00 00 00 	movq   $0x0,-0x78(%rbp)
    9963:	00 
    9964:	48 8d 85 20 ef ff ff 	lea    -0x10e0(%rbp),%rax
    996b:	48 89 45 90          	mov    %rax,-0x70(%rbp)
    996f:	48 8d 85 20 ef ff ff 	lea    -0x10e0(%rbp),%rax
    9976:	48 89 45 98          	mov    %rax,-0x68(%rbp)
    997a:	48 8d 85 20 ef ff ff 	lea    -0x10e0(%rbp),%rax
    9981:	48 89 45 a0          	mov    %rax,-0x60(%rbp)
    9985:	48 8d 85 20 ef ff ff 	lea    -0x10e0(%rbp),%rax
    998c:	48 89 45 a8          	mov    %rax,-0x58(%rbp)
    9990:	48 8d 85 20 ef ff ff 	lea    -0x10e0(%rbp),%rax
    9997:	48 89 45 b0          	mov    %rax,-0x50(%rbp)
    999b:	48 8d 85 20 ef ff ff 	lea    -0x10e0(%rbp),%rax
    99a2:	48 89 45 b8          	mov    %rax,-0x48(%rbp)
    99a6:	48 8d 85 20 ef ff ff 	lea    -0x10e0(%rbp),%rax
    99ad:	48 89 45 c0          	mov    %rax,-0x40(%rbp)
    99b1:	48 8d 85 20 ef ff ff 	lea    -0x10e0(%rbp),%rax
    99b8:	48 89 45 c8          	mov    %rax,-0x38(%rbp)
    99bc:	48 8d 85 9c ee ff ff 	lea    -0x1164(%rbp),%rax
    99c3:	48 89 85 60 ef ff ff 	mov    %rax,-0x10a0(%rbp)
    99ca:	48 8d 85 e0 ef ff ff 	lea    -0x1020(%rbp),%rax
    99d1:	48 89 85 68 ef ff ff 	mov    %rax,-0x1098(%rbp)
    99d8:	48 8d 05 99 e6 00 00 	lea    0xe699(%rip),%rax        # 18078 <g_247>
    99df:	48 89 85 70 ef ff ff 	mov    %rax,-0x1090(%rbp)
    99e6:	48 8d 05 33 08 01 00 	lea    0x10833(%rip),%rax        # 1a220 <g_924>
    99ed:	48 89 85 78 ef ff ff 	mov    %rax,-0x1088(%rbp)
    99f4:	c7 85 c4 ee ff ff 00 	movl   $0x0,-0x113c(%rbp)
    99fb:	00 00 00 
    99fe:	eb 1e                	jmp    9a1e <func_12+0x1c59>
    9a00:	8b 85 c4 ee ff ff    	mov    -0x113c(%rbp),%eax
    9a06:	48 98                	cltq   
    9a08:	48 8d 95 e0 ef ff ff 	lea    -0x1020(%rbp),%rdx
    9a0f:	48 89 94 c5 b0 ef ff 	mov    %rdx,-0x1050(%rbp,%rax,8)
    9a16:	ff 
    9a17:	83 85 c4 ee ff ff 01 	addl   $0x1,-0x113c(%rbp)
    9a1e:	83 bd c4 ee ff ff 01 	cmpl   $0x1,-0x113c(%rbp)
    9a25:	7e d9                	jle    9a00 <func_12+0x1c3b>
    9a27:	0f b7 95 74 ee ff ff 	movzwl -0x118c(%rbp),%edx
    9a2e:	48 8b 85 58 ef ff ff 	mov    -0x10a8(%rbp),%rax
    9a35:	0f b7 00             	movzwl (%rax),%eax
    9a38:	83 c8 01             	or     $0x1,%eax
    9a3b:	89 c1                	mov    %eax,%ecx
    9a3d:	48 8b 85 58 ef ff ff 	mov    -0x10a8(%rbp),%rax
    9a44:	66 89 08             	mov    %cx,(%rax)
    9a47:	48 8b 85 58 ef ff ff 	mov    -0x10a8(%rbp),%rax
    9a4e:	0f b7 00             	movzwl (%rax),%eax
    9a51:	0f b7 c0             	movzwl %ax,%eax
    9a54:	89 d6                	mov    %edx,%esi
    9a56:	89 c7                	mov    %eax,%edi
    9a58:	e8 e0 d2 ff ff       	callq  6d3d <safe_mul_func_uint16_t_u_u>
    9a5d:	48 8b 85 20 ef ff ff 	mov    -0x10e0(%rbp),%rax
    9a64:	48 89 85 28 ef ff ff 	mov    %rax,-0x10d8(%rbp)
    9a6b:	48 8d 05 3e 0c 01 00 	lea    0x10c3e(%rip),%rax        # 1a6b0 <g_1207>
    9a72:	48 39 85 28 ef ff ff 	cmp    %rax,-0x10d8(%rbp)
    9a79:	0f 95 c0             	setne  %al
    9a7c:	0f b6 d8             	movzbl %al,%ebx
    9a7f:	8b 05 eb e7 00 00    	mov    0xe7eb(%rip),%eax        # 18270 <g_715+0x50>
    9a85:	41 89 c4             	mov    %eax,%r12d
    9a88:	8b 85 b8 ee ff ff    	mov    -0x1148(%rbp),%eax
    9a8e:	0f b7 c0             	movzwl %ax,%eax
    9a91:	be 2b db 00 00       	mov    $0xdb2b,%esi
    9a96:	89 c7                	mov    %eax,%edi
    9a98:	e8 a0 d2 ff ff       	callq  6d3d <safe_mul_func_uint16_t_u_u>
    9a9d:	44 09 e0             	or     %r12d,%eax
    9aa0:	0f b7 c0             	movzwl %ax,%eax
    9aa3:	89 de                	mov    %ebx,%esi
    9aa5:	89 c7                	mov    %eax,%edi
    9aa7:	e8 53 d2 ff ff       	callq  6cff <safe_add_func_uint16_t_u_u>
    9aac:	48 8b 85 78 ee ff ff 	mov    -0x1188(%rbp),%rax
    9ab3:	0f be c0             	movsbl %al,%eax
    9ab6:	be 25 00 00 00       	mov    $0x25,%esi
    9abb:	89 c7                	mov    %eax,%edi
    9abd:	e8 50 c7 ff ff       	callq  6212 <safe_mul_func_int8_t_s_s>
    9ac2:	8b 05 98 e5 00 00    	mov    0xe598(%rip),%eax        # 18060 <g_151>
    9ac8:	83 e0 01             	and    $0x1,%eax
    9acb:	89 85 e0 ef ff ff    	mov    %eax,-0x1020(%rbp)
    9ad1:	8b 85 e0 ef ff ff    	mov    -0x1020(%rbp),%eax
    9ad7:	85 c0                	test   %eax,%eax
    9ad9:	75 0c                	jne    9ae7 <func_12+0x1d22>
    9adb:	0f b7 05 86 e5 00 00 	movzwl 0xe586(%rip),%eax        # 18068 <g_210>
    9ae2:	66 85 c0             	test   %ax,%ax
    9ae5:	74 07                	je     9aee <func_12+0x1d29>
    9ae7:	ba 01 00 00 00       	mov    $0x1,%edx
    9aec:	eb 05                	jmp    9af3 <func_12+0x1d2e>
    9aee:	ba 00 00 00 00       	mov    $0x0,%edx
    9af3:	48 8b 85 60 ef ff ff 	mov    -0x10a0(%rbp),%rax
    9afa:	8b 00                	mov    (%rax),%eax
    9afc:	09 c2                	or     %eax,%edx
    9afe:	48 8b 85 60 ef ff ff 	mov    -0x10a0(%rbp),%rax
    9b05:	89 10                	mov    %edx,(%rax)
    9b07:	83 ad ac ee ff ff 01 	subl   $0x1,-0x1154(%rbp)
    9b0e:	83 bd 00 ef ff ff 00 	cmpl   $0x0,-0x1100(%rbp)
    9b15:	0f 85 ea 00 00 00    	jne    9c05 <func_12+0x1e40>
    9b1b:	48 8b 05 de 05 01 00 	mov    0x105de(%rip),%rax        # 1a100 <g_236>
    9b22:	4c 8b 20             	mov    (%rax),%r12
    9b25:	48 8b 05 e4 05 01 00 	mov    0x105e4(%rip),%rax        # 1a110 <g_277>
    9b2c:	0f b6 00             	movzbl (%rax),%eax
    9b2f:	0f be d8             	movsbl %al,%ebx
    9b32:	8b 05 98 e6 00 00    	mov    0xe698(%rip),%eax        # 181d0 <g_412>
    9b38:	89 c6                	mov    %eax,%esi
    9b3a:	bf 07 00 00 00       	mov    $0x7,%edi
    9b3f:	e8 e6 c9 ff ff       	callq  652a <safe_rshift_func_int16_t_s_s>
    9b44:	48 8b 85 38 ef ff ff 	mov    -0x10c8(%rbp),%rax
    9b4b:	48 3b 85 30 ef ff ff 	cmp    -0x10d0(%rbp),%rax
    9b52:	0f 95 c0             	setne  %al
    9b55:	0f b6 c0             	movzbl %al,%eax
    9b58:	be 05 00 00 00       	mov    $0x5,%esi
    9b5d:	89 c7                	mov    %eax,%edi
    9b5f:	e8 5a d1 ff ff       	callq  6cbe <safe_rshift_func_uint8_t_u_u>
    9b64:	83 f0 18             	xor    $0x18,%eax
    9b67:	0f be c0             	movsbl %al,%eax
    9b6a:	89 de                	mov    %ebx,%esi
    9b6c:	89 c7                	mov    %eax,%edi
    9b6e:	e8 f7 c6 ff ff       	callq  626a <safe_div_func_int8_t_s_s>
    9b73:	0f be d0             	movsbl %al,%edx
    9b76:	48 8b 85 70 ef ff ff 	mov    -0x1090(%rbp),%rax
    9b7d:	8b 00                	mov    (%rax),%eax
    9b7f:	39 c2                	cmp    %eax,%edx
    9b81:	0f 95 c0             	setne  %al
    9b84:	0f b6 d0             	movzbl %al,%edx
    9b87:	8b 85 98 ee ff ff    	mov    -0x1168(%rbp),%eax
    9b8d:	89 85 00 ef ff ff    	mov    %eax,-0x1100(%rbp)
    9b93:	8b 85 e0 ef ff ff    	mov    -0x1020(%rbp),%eax
    9b99:	39 85 a0 ee ff ff    	cmp    %eax,-0x1160(%rbp)
    9b9f:	0f 95 c0             	setne  %al
    9ba2:	0f b6 c8             	movzbl %al,%ecx
    9ba5:	48 8b 05 94 0a 01 00 	mov    0x10a94(%rip),%rax        # 1a640 <g_922>
    9bac:	48 8b 00             	mov    (%rax),%rax
    9baf:	48 39 85 78 ef ff ff 	cmp    %rax,-0x1088(%rbp)
    9bb6:	0f 95 c0             	setne  %al
    9bb9:	0f b6 c0             	movzbl %al,%eax
    9bbc:	39 c1                	cmp    %eax,%ecx
    9bbe:	0f 9d c0             	setge  %al
    9bc1:	0f b6 c0             	movzbl %al,%eax
    9bc4:	89 d6                	mov    %edx,%esi
    9bc6:	89 c7                	mov    %eax,%edi
    9bc8:	e8 45 c6 ff ff       	callq  6212 <safe_mul_func_int8_t_s_s>
    9bcd:	0f be d0             	movsbl %al,%edx
    9bd0:	0f b7 85 74 ee ff ff 	movzwl -0x118c(%rbp),%eax
    9bd7:	39 c2                	cmp    %eax,%edx
    9bd9:	0f 9f c0             	setg   %al
    9bdc:	0f b6 c0             	movzbl %al,%eax
    9bdf:	49 39 c4             	cmp    %rax,%r12
    9be2:	0f 9f c0             	setg   %al
    9be5:	0f b6 d0             	movzbl %al,%edx
    9be8:	48 8b 85 68 ef ff ff 	mov    -0x1098(%rbp),%rax
    9bef:	89 10                	mov    %edx,(%rax)
    9bf1:	0f b6 45 de          	movzbl -0x22(%rbp),%eax
    9bf5:	83 c0 01             	add    $0x1,%eax
    9bf8:	88 45 de             	mov    %al,-0x22(%rbp)
    9bfb:	0f b6 45 e7          	movzbl -0x19(%rbp),%eax
    9bff:	83 c0 01             	add    $0x1,%eax
    9c02:	88 45 e7             	mov    %al,-0x19(%rbp)
    9c05:	8b 85 b8 ee ff ff    	mov    -0x1148(%rbp),%eax
    9c0b:	0f b6 c0             	movzbl %al,%eax
    9c0e:	be 09 00 00 00       	mov    $0x9,%esi
    9c13:	89 c7                	mov    %eax,%edi
    9c15:	e8 40 cf ff ff       	callq  6b5a <safe_add_func_uint8_t_u_u>
    9c1a:	0f b6 c0             	movzbl %al,%eax
    9c1d:	89 85 b8 ee ff ff    	mov    %eax,-0x1148(%rbp)
    9c23:	83 bd b8 ee ff ff 0a 	cmpl   $0xa,-0x1148(%rbp)
    9c2a:	0f 84 72 f0 ff ff    	je     8ca2 <func_12+0xedd>
    9c30:	8b 85 fc ee ff ff    	mov    -0x1104(%rbp),%eax
    9c36:	e9 e6 00 00 00       	jmpq   9d21 <func_12+0x1f5c>
    9c3b:	0f b7 85 74 ee ff ff 	movzwl -0x118c(%rbp),%eax
    9c42:	83 e8 01             	sub    $0x1,%eax
    9c45:	66 89 85 74 ee ff ff 	mov    %ax,-0x118c(%rbp)
    9c4c:	66 83 bd 74 ee ff ff 	cmpw   $0x18,-0x118c(%rbp)
    9c53:	18 
    9c54:	0f 87 13 e9 ff ff    	ja     856d <func_12+0x7a8>
    9c5a:	eb 01                	jmp    9c5d <func_12+0x1e98>
    9c5c:	90                   	nop
    9c5d:	66 83 bd 74 ee ff ff 	cmpw   $0x0,-0x118c(%rbp)
    9c64:	00 
    9c65:	0f 85 81 00 00 00    	jne    9cec <func_12+0x1f27>
    9c6b:	48 8d 05 06 e4 00 00 	lea    0xe406(%rip),%rax        # 18078 <g_247>
    9c72:	48 89 85 98 ef ff ff 	mov    %rax,-0x1068(%rbp)
    9c79:	c7 05 7d e8 00 00 00 	movl   $0x0,0xe87d(%rip)        # 18500 <g_977>
    9c80:	00 00 00 
    9c83:	eb 5a                	jmp    9cdf <func_12+0x1f1a>
    9c85:	48 8d 85 10 f0 ff ff 	lea    -0xff0(%rbp),%rax
    9c8c:	48 83 c0 18          	add    $0x18,%rax
    9c90:	48 89 85 88 ef ff ff 	mov    %rax,-0x1078(%rbp)
    9c97:	c7 85 a4 ee ff ff 00 	movl   $0x0,-0x115c(%rbp)
    9c9e:	00 00 00 
    9ca1:	eb 24                	jmp    9cc7 <func_12+0x1f02>
    9ca3:	48 8b 85 88 ef ff ff 	mov    -0x1078(%rbp),%rax
    9caa:	48 89 85 98 ef ff ff 	mov    %rax,-0x1068(%rbp)
    9cb1:	8b 05 49 e8 00 00    	mov    0xe849(%rip),%eax        # 18500 <g_977>
    9cb7:	89 c0                	mov    %eax,%eax
    9cb9:	0f b6 44 05 dd       	movzbl -0x23(%rbp,%rax,1),%eax
    9cbe:	84 c0                	test   %al,%al
    9cc0:	83 85 a4 ee ff ff 01 	addl   $0x1,-0x115c(%rbp)
    9cc7:	83 bd a4 ee ff ff 01 	cmpl   $0x1,-0x115c(%rbp)
    9cce:	7e d3                	jle    9ca3 <func_12+0x1ede>
    9cd0:	8b 05 2a e8 00 00    	mov    0xe82a(%rip),%eax        # 18500 <g_977>
    9cd6:	83 c0 01             	add    $0x1,%eax
    9cd9:	89 05 21 e8 00 00    	mov    %eax,0xe821(%rip)        # 18500 <g_977>
    9cdf:	8b 05 1b e8 00 00    	mov    0xe81b(%rip),%eax        # 18500 <g_977>
    9ce5:	83 f8 01             	cmp    $0x1,%eax
    9ce8:	76 9b                	jbe    9c85 <func_12+0x1ec0>
    9cea:	eb 01                	jmp    9ced <func_12+0x1f28>
    9cec:	90                   	nop
    9ced:	0f b6 05 3c e3 00 00 	movzbl 0xe33c(%rip),%eax        # 18030 <g_27>
    9cf4:	48 0f be c0          	movsbq %al,%rax
    9cf8:	be 07 00 00 00       	mov    $0x7,%esi
    9cfd:	48 89 c7             	mov    %rax,%rdi
    9d00:	e8 29 d3 ff ff       	callq  702e <safe_add_func_uint64_t_u_u>
    9d05:	88 05 25 e3 00 00    	mov    %al,0xe325(%rip)        # 18030 <g_27>
    9d0b:	0f b6 05 1e e3 00 00 	movzbl 0xe31e(%rip),%eax        # 18030 <g_27>
    9d12:	3c 07                	cmp    $0x7,%al
    9d14:	0f 8f 93 e6 ff ff    	jg     83ad <func_12+0x5e8>
    9d1a:	48 8b 85 80 ee ff ff 	mov    -0x1180(%rbp),%rax
    9d21:	48 8b 5d e8          	mov    -0x18(%rbp),%rbx
    9d25:	64 48 33 1c 25 28 00 	xor    %fs:0x28,%rbx
    9d2c:	00 00 
    9d2e:	74 05                	je     9d35 <func_12+0x1f70>
    9d30:	e8 3b c3 ff ff       	callq  6070 <__stack_chk_fail@plt>
    9d35:	48 81 c4 80 11 00 00 	add    $0x1180,%rsp
    9d3c:	5b                   	pop    %rbx
    9d3d:	41 5c                	pop    %r12
    9d3f:	5d                   	pop    %rbp
    9d40:	c3                   	retq   

0000000000009d41 <func_22>:
    9d41:	f3 0f 1e fa          	endbr64 
    9d45:	55                   	push   %rbp
    9d46:	48 89 e5             	mov    %rsp,%rbp
    9d49:	41 57                	push   %r15
    9d4b:	41 56                	push   %r14
    9d4d:	41 55                	push   %r13
    9d4f:	41 54                	push   %r12
    9d51:	53                   	push   %rbx
    9d52:	48 81 ec 68 07 00 00 	sub    $0x768,%rsp
    9d59:	48 89 bd 88 f8 ff ff 	mov    %rdi,-0x778(%rbp)
    9d60:	48 89 b5 80 f8 ff ff 	mov    %rsi,-0x780(%rbp)
    9d67:	89 95 7c f8 ff ff    	mov    %edx,-0x784(%rbp)
    9d6d:	89 c8                	mov    %ecx,%eax
    9d6f:	88 85 78 f8 ff ff    	mov    %al,-0x788(%rbp)
    9d75:	64 48 8b 04 25 28 00 	mov    %fs:0x28,%rax
    9d7c:	00 00 
    9d7e:	48 89 45 c8          	mov    %rax,-0x38(%rbp)
    9d82:	31 c0                	xor    %eax,%eax
    9d84:	48 b8 34 3a ef 1d fb 	movabs $0x433830fb1def3a34,%rax
    9d8b:	30 38 43 
    9d8e:	48 89 85 f0 f8 ff ff 	mov    %rax,-0x710(%rbp)
    9d95:	48 8d 05 c8 e2 00 00 	lea    0xe2c8(%rip),%rax        # 18064 <g_201>
    9d9c:	48 89 85 f8 f8 ff ff 	mov    %rax,-0x708(%rbp)
    9da3:	c7 85 9c f8 ff ff eb 	movl   $0x514b15eb,-0x764(%rbp)
    9daa:	15 4b 51 
    9dad:	48 8d 05 7e e2 00 00 	lea    0xe27e(%rip),%rax        # 18032 <g_28>
    9db4:	48 89 85 00 f9 ff ff 	mov    %rax,-0x700(%rbp)
    9dbb:	48 8d 85 60 f9 ff ff 	lea    -0x6a0(%rbp),%rax
    9dc2:	48 83 c0 28          	add    $0x28,%rax
    9dc6:	48 89 85 20 f9 ff ff 	mov    %rax,-0x6e0(%rbp)
    9dcd:	48 8d 85 60 f9 ff ff 	lea    -0x6a0(%rbp),%rax
    9dd4:	48 83 c0 38          	add    $0x38,%rax
    9dd8:	48 89 85 28 f9 ff ff 	mov    %rax,-0x6d8(%rbp)
    9ddf:	48 8d 85 60 f9 ff ff 	lea    -0x6a0(%rbp),%rax
    9de6:	48 83 c0 28          	add    $0x28,%rax
    9dea:	48 89 85 30 f9 ff ff 	mov    %rax,-0x6d0(%rbp)
    9df1:	48 8d 85 60 f9 ff ff 	lea    -0x6a0(%rbp),%rax
    9df8:	48 83 c0 28          	add    $0x28,%rax
    9dfc:	48 89 85 38 f9 ff ff 	mov    %rax,-0x6c8(%rbp)
    9e03:	48 8d 85 60 f9 ff ff 	lea    -0x6a0(%rbp),%rax
    9e0a:	48 83 c0 38          	add    $0x38,%rax
    9e0e:	48 89 85 40 f9 ff ff 	mov    %rax,-0x6c0(%rbp)
    9e15:	48 8d 85 60 f9 ff ff 	lea    -0x6a0(%rbp),%rax
    9e1c:	48 83 c0 28          	add    $0x28,%rax
    9e20:	48 89 85 48 f9 ff ff 	mov    %rax,-0x6b8(%rbp)
    9e27:	48 8d 85 60 f9 ff ff 	lea    -0x6a0(%rbp),%rax
    9e2e:	48 83 c0 28          	add    $0x28,%rax
    9e32:	48 89 85 50 f9 ff ff 	mov    %rax,-0x6b0(%rbp)
    9e39:	48 8d 85 60 f9 ff ff 	lea    -0x6a0(%rbp),%rax
    9e40:	48 83 c0 38          	add    $0x38,%rax
    9e44:	48 89 85 58 f9 ff ff 	mov    %rax,-0x6a8(%rbp)
    9e4b:	66 c7 85 94 f8 ff ff 	movw   $0xffff,-0x76c(%rbp)
    9e52:	ff ff 
    9e54:	48 8d 05 0d e2 00 00 	lea    0xe20d(%rip),%rax        # 18068 <g_210>
    9e5b:	48 89 85 08 f9 ff ff 	mov    %rax,-0x6f8(%rbp)
    9e62:	48 8d 05 e3 e1 00 00 	lea    0xe1e3(%rip),%rax        # 1804c <g_115>
    9e69:	48 89 85 a8 f8 ff ff 	mov    %rax,-0x758(%rbp)
    9e70:	c7 85 a0 f8 ff ff e5 	movl   $0x1d8febe5,-0x760(%rbp)
    9e77:	eb 8f 1d 
    9e7a:	48 8d 05 cf 02 01 00 	lea    0x102cf(%rip),%rax        # 1a150 <g_737>
    9e81:	48 89 85 10 f9 ff ff 	mov    %rax,-0x6f0(%rbp)
    9e88:	48 c7 85 b0 f8 ff ff 	movq   $0x0,-0x750(%rbp)
    9e8f:	00 00 00 00 
    9e93:	48 8d 85 b0 f8 ff ff 	lea    -0x750(%rbp),%rax
    9e9a:	48 89 85 18 f9 ff ff 	mov    %rax,-0x6e8(%rbp)
    9ea1:	48 8d 05 70 0c 01 00 	lea    0x10c70(%rip),%rax        # 1ab18 <g_322>
    9ea8:	48 89 85 b8 f8 ff ff 	mov    %rax,-0x748(%rbp)
    9eaf:	66 c7 85 96 f8 ff ff 	movw   $0xe237,-0x76a(%rbp)
    9eb6:	37 e2 
    9eb8:	c7 85 a4 f8 ff ff 00 	movl   $0x0,-0x75c(%rbp)
    9ebf:	00 00 00 
    9ec2:	c7 85 b0 f9 ff ff 00 	movl   $0x0,-0x650(%rbp)
    9ec9:	00 00 00 
    9ecc:	c7 85 b4 f9 ff ff 00 	movl   $0x0,-0x64c(%rbp)
    9ed3:	00 00 00 
    9ed6:	c7 85 b8 f9 ff ff fb 	movl   $0xfffffffb,-0x648(%rbp)
    9edd:	ff ff ff 
    9ee0:	c7 85 bc f9 ff ff f4 	movl   $0xecc83ef4,-0x644(%rbp)
    9ee7:	3e c8 ec 
    9eea:	c7 85 c0 f9 ff ff 2e 	movl   $0xc62d3d2e,-0x640(%rbp)
    9ef1:	3d 2d c6 
    9ef4:	c7 85 c4 f9 ff ff 00 	movl   $0x0,-0x63c(%rbp)
    9efb:	00 00 00 
    9efe:	c7 85 c8 f9 ff ff 1b 	movl   $0x31a9a01b,-0x638(%rbp)
    9f05:	a0 a9 31 
    9f08:	c7 85 cc f9 ff ff 00 	movl   $0x0,-0x634(%rbp)
    9f0f:	00 00 00 
    9f12:	c7 85 d0 f9 ff ff f4 	movl   $0xecc83ef4,-0x630(%rbp)
    9f19:	3e c8 ec 
    9f1c:	c7 85 d4 f9 ff ff f4 	movl   $0xecc83ef4,-0x62c(%rbp)
    9f23:	3e c8 ec 
    9f26:	c7 85 d8 f9 ff ff fb 	movl   $0xfffffffb,-0x628(%rbp)
    9f2d:	ff ff ff 
    9f30:	c7 85 dc f9 ff ff 1b 	movl   $0x31a9a01b,-0x624(%rbp)
    9f37:	a0 a9 31 
    9f3a:	c7 85 e0 f9 ff ff fb 	movl   $0xfffffffb,-0x620(%rbp)
    9f41:	ff ff ff 
    9f44:	c7 85 e4 f9 ff ff 2e 	movl   $0xc62d3d2e,-0x61c(%rbp)
    9f4b:	3d 2d c6 
    9f4e:	c7 85 e8 f9 ff ff f4 	movl   $0xecc83ef4,-0x618(%rbp)
    9f55:	3e c8 ec 
    9f58:	c7 85 ec f9 ff ff 00 	movl   $0x0,-0x614(%rbp)
    9f5f:	00 00 00 
    9f62:	c7 85 f0 f9 ff ff 00 	movl   $0x0,-0x610(%rbp)
    9f69:	00 00 00 
    9f6c:	c7 85 f4 f9 ff ff fb 	movl   $0xfffffffb,-0x60c(%rbp)
    9f73:	ff ff ff 
    9f76:	c7 85 f8 f9 ff ff f4 	movl   $0xecc83ef4,-0x608(%rbp)
    9f7d:	3e c8 ec 
    9f80:	c7 85 fc f9 ff ff 2e 	movl   $0xc62d3d2e,-0x604(%rbp)
    9f87:	3d 2d c6 
    9f8a:	c7 85 00 fa ff ff 00 	movl   $0x0,-0x600(%rbp)
    9f91:	00 00 00 
    9f94:	c7 85 04 fa ff ff 1b 	movl   $0x31a9a01b,-0x5fc(%rbp)
    9f9b:	a0 a9 31 
    9f9e:	c7 85 08 fa ff ff 00 	movl   $0x0,-0x5f8(%rbp)
    9fa5:	00 00 00 
    9fa8:	c7 85 0c fa ff ff f4 	movl   $0xecc83ef4,-0x5f4(%rbp)
    9faf:	3e c8 ec 
    9fb2:	c7 85 10 fa ff ff f4 	movl   $0xecc83ef4,-0x5f0(%rbp)
    9fb9:	3e c8 ec 
    9fbc:	c7 85 14 fa ff ff fb 	movl   $0xfffffffb,-0x5ec(%rbp)
    9fc3:	ff ff ff 
    9fc6:	c7 85 18 fa ff ff 1b 	movl   $0x31a9a01b,-0x5e8(%rbp)
    9fcd:	a0 a9 31 
    9fd0:	c7 85 1c fa ff ff fb 	movl   $0xfffffffb,-0x5e4(%rbp)
    9fd7:	ff ff ff 
    9fda:	c7 85 20 fa ff ff 2e 	movl   $0xc62d3d2e,-0x5e0(%rbp)
    9fe1:	3d 2d c6 
    9fe4:	c7 85 24 fa ff ff f4 	movl   $0xecc83ef4,-0x5dc(%rbp)
    9feb:	3e c8 ec 
    9fee:	48 c7 85 e8 f8 ff ff 	movq   $0x0,-0x718(%rbp)
    9ff5:	00 00 00 00 
    9ff9:	c7 85 98 f8 ff ff 00 	movl   $0x0,-0x768(%rbp)
    a000:	00 00 00 
    a003:	eb 1e                	jmp    a023 <func_22+0x2e2>
    a005:	8b 85 98 f8 ff ff    	mov    -0x768(%rbp),%eax
    a00b:	48 98                	cltq   
    a00d:	48 8d 15 4c e0 00 00 	lea    0xe04c(%rip),%rdx        # 18060 <g_151>
    a014:	48 89 94 c5 60 f9 ff 	mov    %rdx,-0x6a0(%rbp,%rax,8)
    a01b:	ff 
    a01c:	83 85 98 f8 ff ff 01 	addl   $0x1,-0x768(%rbp)
    a023:	83 bd 98 f8 ff ff 09 	cmpl   $0x9,-0x768(%rbp)
    a02a:	7e d9                	jle    a005 <func_22+0x2c4>
    a02c:	0f b6 05 c8 e1 00 00 	movzbl 0xe1c8(%rip),%eax        # 181fb <g_421>
    a033:	c1 e0 07             	shl    $0x7,%eax
    a036:	c0 f8 07             	sar    $0x7,%al
    a039:	0f b6 d8             	movzbl %al,%ebx
    a03c:	0f b6 85 78 f8 ff ff 	movzbl -0x788(%rbp),%eax
    a043:	44 0f b6 e0          	movzbl %al,%r12d
    a047:	48 8b 85 08 f9 ff ff 	mov    -0x6f8(%rbp),%rax
    a04e:	66 c7 00 00 00       	movw   $0x0,(%rax)
    a053:	0f b7 85 94 f8 ff ff 	movzwl -0x76c(%rbp),%eax
    a05a:	66 35 14 9b          	xor    $0x9b14,%ax
    a05e:	98                   	cwtl   
    a05f:	be 00 00 00 00       	mov    $0x0,%esi
    a064:	89 c7                	mov    %eax,%edi
    a066:	e8 8a c3 ff ff       	callq  63f5 <safe_mul_func_int16_t_s_s>
    a06b:	0f be c0             	movsbl %al,%eax
    a06e:	44 89 e6             	mov    %r12d,%esi
    a071:	89 c7                	mov    %eax,%edi
    a073:	e8 29 c2 ff ff       	callq  62a1 <safe_lshift_func_int8_t_s_s>
    a078:	4c 0f be e0          	movsbq %al,%r12
    a07c:	48 8b 05 95 00 01 00 	mov    0x10095(%rip),%rax        # 1a118 <g_275>
    a083:	48 8b 00             	mov    (%rax),%rax
    a086:	48 8b 00             	mov    (%rax),%rax
    a089:	c6 00 c4             	movb   $0xc4,(%rax)
    a08c:	0f b6 00             	movzbl (%rax),%eax
    a08f:	0f be c0             	movsbl %al,%eax
    a092:	21 85 9c f8 ff ff    	and    %eax,-0x764(%rbp)
    a098:	8b 85 9c f8 ff ff    	mov    -0x764(%rbp),%eax
    a09e:	0f be c0             	movsbl %al,%eax
    a0a1:	89 c7                	mov    %eax,%edi
    a0a3:	e8 17 c1 ff ff       	callq  61bf <safe_unary_minus_func_int8_t_s>
    a0a8:	66 0f be d0          	movsbw %al,%dx
    a0ac:	48 8b 85 00 f9 ff ff 	mov    -0x700(%rbp),%rax
    a0b3:	66 89 10             	mov    %dx,(%rax)
    a0b6:	48 8b 85 00 f9 ff ff 	mov    -0x700(%rbp),%rax
    a0bd:	0f b7 00             	movzwl (%rax),%eax
    a0c0:	0f bf d0             	movswl %ax,%edx
    a0c3:	48 8b 85 f0 f8 ff ff 	mov    -0x710(%rbp),%rax
    a0ca:	89 c1                	mov    %eax,%ecx
    a0cc:	48 8b 85 f8 f8 ff ff 	mov    -0x708(%rbp),%rax
    a0d3:	66 89 08             	mov    %cx,(%rax)
    a0d6:	48 8b 85 f8 f8 ff ff 	mov    -0x708(%rbp),%rax
    a0dd:	0f b7 00             	movzwl (%rax),%eax
    a0e0:	0f b7 c0             	movzwl %ax,%eax
    a0e3:	89 d6                	mov    %edx,%esi
    a0e5:	89 c7                	mov    %eax,%edi
    a0e7:	e8 d2 cc ff ff       	callq  6dbe <safe_lshift_func_uint16_t_u_s>
    a0ec:	0f b7 d0             	movzwl %ax,%edx
    a0ef:	48 8b 85 48 f9 ff ff 	mov    -0x6b8(%rbp),%rax
    a0f6:	48 85 c0             	test   %rax,%rax
    a0f9:	0f 95 c0             	setne  %al
    a0fc:	0f b6 c0             	movzbl %al,%eax
    a0ff:	48 0b 85 f0 f8 ff ff 	or     -0x710(%rbp),%rax
    a106:	48 39 c2             	cmp    %rax,%rdx
    a109:	0f 95 c0             	setne  %al
    a10c:	0f b6 c0             	movzbl %al,%eax
    a10f:	4c 89 e6             	mov    %r12,%rsi
    a112:	48 89 c7             	mov    %rax,%rdi
    a115:	e8 8e c7 ff ff       	callq  68a8 <safe_sub_func_int64_t_s_s>
    a11a:	0f b7 c0             	movzwl %ax,%eax
    a11d:	be 00 00 00 00       	mov    $0x0,%esi
    a122:	89 c7                	mov    %eax,%edi
    a124:	e8 d6 cb ff ff       	callq  6cff <safe_add_func_uint16_t_u_u>
    a129:	0f b7 c0             	movzwl %ax,%eax
    a12c:	09 85 7c f8 ff ff    	or     %eax,-0x784(%rbp)
    a132:	48 8b 85 a8 f8 ff ff 	mov    -0x758(%rbp),%rax
    a139:	8b 95 7c f8 ff ff    	mov    -0x784(%rbp),%edx
    a13f:	89 10                	mov    %edx,(%rax)
    a141:	8b 00                	mov    (%rax),%eax
    a143:	21 85 a0 f8 ff ff    	and    %eax,-0x760(%rbp)
    a149:	83 bd a0 f8 ff ff 00 	cmpl   $0x0,-0x760(%rbp)
    a150:	74 0b                	je     a15d <func_22+0x41c>
    a152:	48 8b 85 a8 f8 ff ff 	mov    -0x758(%rbp),%rax
    a159:	8b 00                	mov    (%rax),%eax
    a15b:	85 c0                	test   %eax,%eax
    a15d:	8b 05 6d e0 00 00    	mov    0xe06d(%rip),%eax        # 181d0 <g_412>
    a163:	0f b6 c0             	movzbl %al,%eax
    a166:	89 de                	mov    %ebx,%esi
    a168:	89 c7                	mov    %eax,%edi
    a16a:	e8 6c ca ff ff       	callq  6bdb <safe_div_func_uint8_t_u_u>
    a16f:	0f b6 c0             	movzbl %al,%eax
    a172:	be 0b 00 00 00       	mov    $0xb,%esi
    a177:	89 c7                	mov    %eax,%edi
    a179:	e8 88 cc ff ff       	callq  6e06 <safe_lshift_func_uint16_t_u_u>
    a17e:	48 b8 fe 76 ac 58 79 	movabs $0x75b3547958ac76fe,%rax
    a185:	54 b3 75 
    a188:	48 89 85 c0 f8 ff ff 	mov    %rax,-0x740(%rbp)
    a18f:	48 8d 85 30 fa ff ff 	lea    -0x5d0(%rbp),%rax
    a196:	48 8d 15 83 e7 00 00 	lea    0xe783(%rip),%rdx        # 18920 <g_1266+0x400>
    a19d:	b9 46 00 00 00       	mov    $0x46,%ecx
    a1a2:	48 89 c7             	mov    %rax,%rdi
    a1a5:	48 89 d6             	mov    %rdx,%rsi
    a1a8:	f3 48 a5             	rep movsq %ds:(%rsi),%es:(%rdi)
    a1ab:	48 8d 85 60 fc ff ff 	lea    -0x3a0(%rbp),%rax
    a1b2:	48 8d 15 e7 9f 00 00 	lea    0x9fe7(%rip),%rdx        # 141a0 <g_991+0x14c>
    a1b9:	b9 6c 00 00 00       	mov    $0x6c,%ecx
    a1be:	48 89 c7             	mov    %rax,%rdi
    a1c1:	48 89 d6             	mov    %rdx,%rsi
    a1c4:	f3 48 a5             	rep movsq %ds:(%rsi),%es:(%rdi)
    a1c7:	48 8d 05 4a 09 01 00 	lea    0x1094a(%rip),%rax        # 1ab18 <g_322>
    a1ce:	48 89 85 c8 f8 ff ff 	mov    %rax,-0x738(%rbp)
    a1d5:	48 8d 05 2c 09 01 00 	lea    0x1092c(%rip),%rax        # 1ab08 <g_106>
    a1dc:	48 89 85 d0 f8 ff ff 	mov    %rax,-0x730(%rbp)
    a1e3:	48 c7 85 d8 f8 ff ff 	movq   $0x0,-0x728(%rbp)
    a1ea:	00 00 00 00 
    a1ee:	48 8d 85 a8 f8 ff ff 	lea    -0x758(%rbp),%rax
    a1f5:	48 89 85 e0 f8 ff ff 	mov    %rax,-0x720(%rbp)
    a1fc:	48 83 bd 10 f9 ff ff 	cmpq   $0x0,-0x6f0(%rbp)
    a203:	00 
    a204:	0f 94 c0             	sete   %al
    a207:	0f b6 c0             	movzbl %al,%eax
    a20a:	89 c6                	mov    %eax,%esi
    a20c:	bf 00 00 00 00       	mov    $0x0,%edi
    a211:	e8 27 cb ff ff       	callq  6d3d <safe_mul_func_uint16_t_u_u>
    a216:	48 8b 85 88 f8 ff ff 	mov    -0x778(%rbp),%rax
    a21d:	89 c2                	mov    %eax,%edx
    a21f:	48 8b 85 00 f9 ff ff 	mov    -0x700(%rbp),%rax
    a226:	66 89 10             	mov    %dx,(%rax)
    a229:	48 8b 85 00 f9 ff ff 	mov    -0x700(%rbp),%rax
    a230:	0f b7 00             	movzwl (%rax),%eax
    a233:	0f bf d8             	movswl %ax,%ebx
    a236:	48 8b 85 88 f8 ff ff 	mov    -0x778(%rbp),%rax
    a23d:	98                   	cwtl   
    a23e:	48 8b 95 08 f9 ff ff 	mov    -0x6f8(%rbp),%rdx
    a245:	66 c7 02 00 00       	movw   $0x0,(%rdx)
    a24a:	89 c6                	mov    %eax,%esi
    a24c:	bf 00 00 00 00       	mov    $0x0,%edi
    a251:	e8 9f c1 ff ff       	callq  63f5 <safe_mul_func_int16_t_s_s>
    a256:	66 85 c0             	test   %ax,%ax
    a259:	75 0d                	jne    a268 <func_22+0x527>
    a25b:	48 8b 85 a8 f8 ff ff 	mov    -0x758(%rbp),%rax
    a262:	8b 00                	mov    (%rax),%eax
    a264:	85 c0                	test   %eax,%eax
    a266:	74 07                	je     a26f <func_22+0x52e>
    a268:	b8 01 00 00 00       	mov    $0x1,%eax
    a26d:	eb 05                	jmp    a274 <func_22+0x533>
    a26f:	b8 00 00 00 00       	mov    $0x0,%eax
    a274:	21 d8                	and    %ebx,%eax
    a276:	48 98                	cltq   
    a278:	48 39 85 c0 f8 ff ff 	cmp    %rax,-0x740(%rbp)
    a27f:	0f 97 c0             	seta   %al
    a282:	0f b6 c0             	movzbl %al,%eax
    a285:	48 39 85 80 f8 ff ff 	cmp    %rax,-0x780(%rbp)
    a28c:	0f 96 c0             	setbe  %al
    a28f:	0f b6 c0             	movzbl %al,%eax
    a292:	89 c7                	mov    %eax,%edi
    a294:	e8 26 bf ff ff       	callq  61bf <safe_unary_minus_func_int8_t_s>
    a299:	0f be c0             	movsbl %al,%eax
    a29c:	89 85 9c f8 ff ff    	mov    %eax,-0x764(%rbp)
    a2a2:	8b 95 9c f8 ff ff    	mov    -0x764(%rbp),%edx
    a2a8:	8b 85 40 fd ff ff    	mov    -0x2c0(%rbp),%eax
    a2ae:	09 d0                	or     %edx,%eax
    a2b0:	89 85 40 fd ff ff    	mov    %eax,-0x2c0(%rbp)
    a2b6:	48 8b 85 c0 f8 ff ff 	mov    -0x740(%rbp),%rax
    a2bd:	0f b7 c0             	movzwl %ax,%eax
    a2c0:	be 05 00 00 00       	mov    $0x5,%esi
    a2c5:	89 c7                	mov    %eax,%edi
    a2c7:	e8 f2 ca ff ff       	callq  6dbe <safe_lshift_func_uint16_t_u_s>
    a2cc:	0f b6 c0             	movzbl %al,%eax
    a2cf:	be 19 00 00 00       	mov    $0x19,%esi
    a2d4:	89 c7                	mov    %eax,%edi
    a2d6:	e8 7f c8 ff ff       	callq  6b5a <safe_add_func_uint8_t_u_u>
    a2db:	84 c0                	test   %al,%al
    a2dd:	74 11                	je     a2f0 <func_22+0x5af>
    a2df:	48 83 bd 80 f8 ff ff 	cmpq   $0x0,-0x780(%rbp)
    a2e6:	00 
    a2e7:	74 07                	je     a2f0 <func_22+0x5af>
    a2e9:	b8 01 00 00 00       	mov    $0x1,%eax
    a2ee:	eb 05                	jmp    a2f5 <func_22+0x5b4>
    a2f0:	b8 00 00 00 00       	mov    $0x0,%eax
    a2f5:	be f6 ff ff ff       	mov    $0xfffffff6,%esi
    a2fa:	89 c7                	mov    %eax,%edi
    a2fc:	e8 cb c3 ff ff       	callq  66cc <safe_mod_func_int32_t_s_s>
    a301:	48 98                	cltq   
    a303:	48 89 c7             	mov    %rax,%rdi
    a306:	e8 0b c5 ff ff       	callq  6816 <safe_unary_minus_func_int64_t_s>
    a30b:	48 85 c0             	test   %rax,%rax
    a30e:	75 0b                	jne    a31b <func_22+0x5da>
    a310:	48 8b 85 a8 f8 ff ff 	mov    -0x758(%rbp),%rax
    a317:	8b 00                	mov    (%rax),%eax
    a319:	85 c0                	test   %eax,%eax
    a31b:	0f b6 05 df de 00 00 	movzbl 0xdedf(%rip),%eax        # 18201 <g_423>
    a322:	c1 e0 07             	shl    $0x7,%eax
    a325:	c0 f8 07             	sar    $0x7,%al
    a328:	66 98                	cbtw   
    a32a:	0f b7 d0             	movzwl %ax,%edx
    a32d:	0f b6 85 78 f8 ff ff 	movzbl -0x788(%rbp),%eax
    a334:	0f b6 c0             	movzbl %al,%eax
    a337:	89 d6                	mov    %edx,%esi
    a339:	89 c7                	mov    %eax,%edi
    a33b:	e8 fd c9 ff ff       	callq  6d3d <safe_mul_func_uint16_t_u_u>
    a340:	0f b7 c0             	movzwl %ax,%eax
    a343:	89 85 7c f8 ff ff    	mov    %eax,-0x784(%rbp)
    a349:	48 8b 85 c8 f8 ff ff 	mov    -0x738(%rbp),%rax
    a350:	48 8d 15 b9 07 01 00 	lea    0x107b9(%rip),%rdx        # 1ab10 <g_123>
    a357:	48 89 10             	mov    %rdx,(%rax)
    a35a:	48 8d 05 af 07 01 00 	lea    0x107af(%rip),%rax        # 1ab10 <g_123>
    a361:	48 39 85 18 f9 ff ff 	cmp    %rax,-0x6e8(%rbp)
    a368:	0f 94 c0             	sete   %al
    a36b:	0f b6 c0             	movzbl %al,%eax
    a36e:	be 07 00 00 00       	mov    $0x7,%esi
    a373:	89 c7                	mov    %eax,%edi
    a375:	e8 00 cb ff ff       	callq  6e7a <safe_rshift_func_uint16_t_u_u>
    a37a:	48 83 bd c8 f8 ff ff 	cmpq   $0x0,-0x738(%rbp)
    a381:	00 
    a382:	0f 95 c0             	setne  %al
    a385:	0f b6 d0             	movzbl %al,%edx
    a388:	8b 05 a6 dc 00 00    	mov    0xdca6(%rip),%eax        # 18034 <g_30>
    a38e:	39 c2                	cmp    %eax,%edx
    a390:	48 8b 85 a8 f8 ff ff 	mov    -0x758(%rbp),%rax
    a397:	8b 00                	mov    (%rax),%eax
    a399:	85 c0                	test   %eax,%eax
    a39b:	8b 85 7c f8 ff ff    	mov    -0x784(%rbp),%eax
    a3a1:	89 c6                	mov    %eax,%esi
    a3a3:	bf 00 00 00 00       	mov    $0x0,%edi
    a3a8:	e8 52 c3 ff ff       	callq  66ff <safe_div_func_int32_t_s_s>
    a3ad:	48 8b 95 d0 f8 ff ff 	mov    -0x730(%rbp),%rdx
    a3b4:	8b 12                	mov    (%rdx),%edx
    a3b6:	21 c2                	and    %eax,%edx
    a3b8:	48 8b 85 d0 f8 ff ff 	mov    -0x730(%rbp),%rax
    a3bf:	89 10                	mov    %edx,(%rax)
    a3c1:	48 8b 85 e0 f8 ff ff 	mov    -0x720(%rbp),%rax
    a3c8:	48 8d 15 81 dc 00 00 	lea    0xdc81(%rip),%rdx        # 18050 <g_135>
    a3cf:	48 89 10             	mov    %rdx,(%rax)
    a3d2:	48 8b 85 88 f8 ff ff 	mov    -0x778(%rbp),%rax
    a3d9:	0f be d8             	movsbl %al,%ebx
    a3dc:	48 8b 85 80 f8 ff ff 	mov    -0x780(%rbp),%rax
    a3e3:	44 0f be e0          	movsbl %al,%r12d
    a3e7:	48 8b 85 a8 f8 ff ff 	mov    -0x758(%rbp),%rax
    a3ee:	8b 00                	mov    (%rax),%eax
    a3f0:	0f be c0             	movsbl %al,%eax
    a3f3:	be fc ff ff ff       	mov    $0xfffffffc,%esi
    a3f8:	89 c7                	mov    %eax,%edi
    a3fa:	e8 f3 bd ff ff       	callq  61f2 <safe_sub_func_int8_t_s_s>
    a3ff:	48 8b 85 a8 f8 ff ff 	mov    -0x758(%rbp),%rax
    a406:	48 8b 95 80 f8 ff ff 	mov    -0x780(%rbp),%rdx
    a40d:	89 10                	mov    %edx,(%rax)
    a40f:	48 8b 85 88 f8 ff ff 	mov    -0x778(%rbp),%rax
    a416:	41 89 c7             	mov    %eax,%r15d
    a419:	48 8b 05 e0 fc 00 00 	mov    0xfce0(%rip),%rax        # 1a100 <g_236>
    a420:	4c 8b 28             	mov    (%rax),%r13
    a423:	48 8b 85 88 f8 ff ff 	mov    -0x778(%rbp),%rax
    a42a:	44 0f bf f0          	movswl %ax,%r14d
    a42e:	0f b6 85 78 f8 ff ff 	movzbl -0x788(%rbp),%eax
    a435:	0f b6 c0             	movzbl %al,%eax
    a438:	be 0e 00 00 00       	mov    $0xe,%esi
    a43d:	89 c7                	mov    %eax,%edi
    a43f:	e8 04 ca ff ff       	callq  6e48 <safe_rshift_func_uint16_t_u_s>
    a444:	98                   	cwtl   
    a445:	44 89 f6             	mov    %r14d,%esi
    a448:	89 c7                	mov    %eax,%edi
    a44a:	e8 a6 bf ff ff       	callq  63f5 <safe_mul_func_int16_t_s_s>
    a44f:	98                   	cwtl   
    a450:	89 c6                	mov    %eax,%esi
    a452:	bf d1 ff ff ff       	mov    $0xffffffd1,%edi
    a457:	e8 92 be ff ff       	callq  62ee <safe_lshift_func_int8_t_s_u>
    a45c:	48 8b 05 9d fc 00 00 	mov    0xfc9d(%rip),%rax        # 1a100 <g_236>
    a463:	48 8b 00             	mov    (%rax),%rax
    a466:	4c 89 ee             	mov    %r13,%rsi
    a469:	48 89 c7             	mov    %rax,%rdi
    a46c:	e8 37 c4 ff ff       	callq  68a8 <safe_sub_func_int64_t_s_s>
    a471:	48 8b 95 08 f9 ff ff 	mov    -0x6f8(%rbp),%rdx
    a478:	0f b7 12             	movzwl (%rdx),%edx
    a47b:	21 c2                	and    %eax,%edx
    a47d:	48 8b 85 08 f9 ff ff 	mov    -0x6f8(%rbp),%rax
    a484:	66 89 10             	mov    %dx,(%rax)
    a487:	48 8b 85 08 f9 ff ff 	mov    -0x6f8(%rbp),%rax
    a48e:	0f b7 10             	movzwl (%rax),%edx
    a491:	48 8b 85 00 f9 ff ff 	mov    -0x700(%rbp),%rax
    a498:	66 89 10             	mov    %dx,(%rax)
    a49b:	44 89 fe             	mov    %r15d,%esi
    a49e:	bf 01 00 00 00       	mov    $0x1,%edi
    a4a3:	e8 10 ca ff ff       	callq  6eb8 <safe_add_func_uint32_t_u_u>
    a4a8:	89 c2                	mov    %eax,%edx
    a4aa:	48 8b 05 6f fd 00 00 	mov    0xfd6f(%rip),%rax        # 1a220 <g_924>
    a4b1:	48 8b 00             	mov    (%rax),%rax
    a4b4:	88 10                	mov    %dl,(%rax)
    a4b6:	8b 85 7c f8 ff ff    	mov    -0x784(%rbp),%eax
    a4bc:	48 98                	cltq   
    a4be:	48 39 85 80 f8 ff ff 	cmp    %rax,-0x780(%rbp)
    a4c5:	0f 93 c0             	setae  %al
    a4c8:	0f b6 c0             	movzbl %al,%eax
    a4cb:	89 c6                	mov    %eax,%esi
    a4cd:	bf fd ff ff ff       	mov    $0xfffffffd,%edi
    a4d2:	e8 2e c1 ff ff       	callq  6605 <safe_sub_func_int32_t_s_s>
    a4d7:	0f be c0             	movsbl %al,%eax
    a4da:	44 89 e6             	mov    %r12d,%esi
    a4dd:	89 c7                	mov    %eax,%edi
    a4df:	e8 f0 bc ff ff       	callq  61d4 <safe_add_func_int8_t_s_s>
    a4e4:	0f be c0             	movsbl %al,%eax
    a4e7:	89 de                	mov    %ebx,%esi
    a4e9:	89 c7                	mov    %eax,%edi
    a4eb:	e8 e4 bc ff ff       	callq  61d4 <safe_add_func_int8_t_s_s>
    a4f0:	0f be c0             	movsbl %al,%eax
    a4f3:	89 85 7c f8 ff ff    	mov    %eax,-0x784(%rbp)
    a4f9:	8b 85 7c f8 ff ff    	mov    -0x784(%rbp),%eax
    a4ff:	48 8b 5d c8          	mov    -0x38(%rbp),%rbx
    a503:	64 48 33 1c 25 28 00 	xor    %fs:0x28,%rbx
    a50a:	00 00 
    a50c:	74 05                	je     a513 <func_22+0x7d2>
    a50e:	e8 5d bb ff ff       	callq  6070 <__stack_chk_fail@plt>
    a513:	48 81 c4 68 07 00 00 	add    $0x768,%rsp
    a51a:	5b                   	pop    %rbx
    a51b:	41 5c                	pop    %r12
    a51d:	41 5d                	pop    %r13
    a51f:	41 5e                	pop    %r14
    a521:	41 5f                	pop    %r15
    a523:	5d                   	pop    %rbp
    a524:	c3                   	retq   

000000000000a525 <func_35>:
    a525:	f3 0f 1e fa          	endbr64 
    a529:	55                   	push   %rbp
    a52a:	48 89 e5             	mov    %rsp,%rbp
    a52d:	41 54                	push   %r12
    a52f:	53                   	push   %rbx
    a530:	48 81 ec 30 0a 00 00 	sub    $0xa30,%rsp
    a537:	48 89 bd c8 f5 ff ff 	mov    %rdi,-0xa38(%rbp)
    a53e:	64 48 8b 04 25 28 00 	mov    %fs:0x28,%rax
    a545:	00 00 
    a547:	48 89 45 e8          	mov    %rax,-0x18(%rbp)
    a54b:	31 c0                	xor    %eax,%eax
    a54d:	48 b8 74 fd f8 42 25 	movabs $0x12961b2542f8fd74,%rax
    a554:	1b 96 12 
    a557:	48 89 85 38 f6 ff ff 	mov    %rax,-0x9c8(%rbp)
    a55e:	c7 85 f4 f5 ff ff da 	movl   $0x856ce9da,-0xa0c(%rbp)
    a565:	e9 6c 85 
    a568:	c7 85 f8 f5 ff ff 09 	movl   $0x9,-0xa08(%rbp)
    a56f:	00 00 00 
    a572:	c7 85 fc f5 ff ff 71 	movl   $0xa47d3d71,-0xa04(%rbp)
    a579:	3d 7d a4 
    a57c:	c7 85 00 f6 ff ff d1 	movl   $0x4a85f6d1,-0xa00(%rbp)
    a583:	f6 85 4a 
    a586:	c7 85 04 f6 ff ff 08 	movl   $0x8,-0x9fc(%rbp)
    a58d:	00 00 00 
    a590:	c7 85 08 f6 ff ff 00 	movl   $0x0,-0x9f8(%rbp)
    a597:	00 00 00 
    a59a:	c7 85 0c f6 ff ff 60 	movl   $0x51aabc60,-0x9f4(%rbp)
    a5a1:	bc aa 51 
    a5a4:	c7 85 e0 f5 ff ff f6 	movl   $0xfffffff6,-0xa20(%rbp)
    a5ab:	ff ff ff 
    a5ae:	c7 85 10 f6 ff ff 40 	movl   $0x302a8440,-0x9f0(%rbp)
    a5b5:	84 2a 30 
    a5b8:	48 c7 85 40 f6 ff ff 	movq   $0x0,-0x9c0(%rbp)
    a5bf:	00 00 00 00 
    a5c3:	48 c7 85 48 f6 ff ff 	movq   $0x0,-0x9b8(%rbp)
    a5ca:	00 00 00 00 
    a5ce:	48 c7 85 10 f7 ff ff 	movq   $0xffffffffffffffff,-0x8f0(%rbp)
    a5d5:	ff ff ff ff 
    a5d9:	48 bb 0b fd 64 bf 8c 	movabs $0x1cc9c8cbf64fd0b,%rbx
    a5e0:	9c cc 01 
    a5e3:	48 89 9d 18 f7 ff ff 	mov    %rbx,-0x8e8(%rbp)
    a5ea:	48 c7 85 20 f7 ff ff 	movq   $0xffffffffffffffff,-0x8e0(%rbp)
    a5f1:	ff ff ff ff 
    a5f5:	48 89 9d 28 f7 ff ff 	mov    %rbx,-0x8d8(%rbp)
    a5fc:	48 c7 85 30 f7 ff ff 	movq   $0xffffffffffffffff,-0x8d0(%rbp)
    a603:	ff ff ff ff 
    a607:	48 b8 9d 71 95 4a 72 	movabs $0x3e6a8a724a95719d,%rax
    a60e:	8a 6a 3e 
    a611:	48 89 85 38 f7 ff ff 	mov    %rax,-0x8c8(%rbp)
    a618:	48 89 85 40 f7 ff ff 	mov    %rax,-0x8c0(%rbp)
    a61f:	48 89 85 48 f7 ff ff 	mov    %rax,-0x8b8(%rbp)
    a626:	48 89 85 50 f7 ff ff 	mov    %rax,-0x8b0(%rbp)
    a62d:	48 89 85 58 f7 ff ff 	mov    %rax,-0x8a8(%rbp)
    a634:	48 c7 85 60 f7 ff ff 	movq   $0xffffffffffffffff,-0x8a0(%rbp)
    a63b:	ff ff ff ff 
    a63f:	48 89 9d 68 f7 ff ff 	mov    %rbx,-0x898(%rbp)
    a646:	48 c7 85 70 f7 ff ff 	movq   $0xffffffffffffffff,-0x890(%rbp)
    a64d:	ff ff ff ff 
    a651:	48 89 9d 78 f7 ff ff 	mov    %rbx,-0x888(%rbp)
    a658:	48 c7 85 80 f7 ff ff 	movq   $0xffffffffffffffff,-0x880(%rbp)
    a65f:	ff ff ff ff 
    a663:	c7 85 ec f5 ff ff 00 	movl   $0x0,-0xa14(%rbp)
    a66a:	00 00 00 
    a66d:	eb 4d                	jmp    a6bc <func_35+0x197>
    a66f:	c7 85 f0 f5 ff ff 00 	movl   $0x0,-0xa10(%rbp)
    a676:	00 00 00 
    a679:	eb 31                	jmp    a6ac <func_35+0x187>
    a67b:	8b 85 f0 f5 ff ff    	mov    -0xa10(%rbp),%eax
    a681:	48 63 c8             	movslq %eax,%rcx
    a684:	8b 85 ec f5 ff ff    	mov    -0xa14(%rbp),%eax
    a68a:	48 63 d0             	movslq %eax,%rdx
    a68d:	48 89 d0             	mov    %rdx,%rax
    a690:	48 c1 e0 03          	shl    $0x3,%rax
    a694:	48 01 d0             	add    %rdx,%rax
    a697:	48 01 c8             	add    %rcx,%rax
    a69a:	c7 84 85 c0 f6 ff ff 	movl   $0xa129f85b,-0x940(%rbp,%rax,4)
    a6a1:	5b f8 29 a1 
    a6a5:	83 85 f0 f5 ff ff 01 	addl   $0x1,-0xa10(%rbp)
    a6ac:	83 bd f0 f5 ff ff 08 	cmpl   $0x8,-0xa10(%rbp)
    a6b3:	7e c6                	jle    a67b <func_35+0x156>
    a6b5:	83 85 ec f5 ff ff 01 	addl   $0x1,-0xa14(%rbp)
    a6bc:	83 bd ec f5 ff ff 01 	cmpl   $0x1,-0xa14(%rbp)
    a6c3:	7e aa                	jle    a66f <func_35+0x14a>
    a6c5:	48 8b 85 38 f6 ff ff 	mov    -0x9c8(%rbp),%rax
    a6cc:	89 c7                	mov    %eax,%edi
    a6ce:	e8 c3 be ff ff       	callq  6596 <safe_unary_minus_func_int32_t_s>
    a6d3:	85 c0                	test   %eax,%eax
    a6d5:	0f 84 c0 03 00 00    	je     aa9b <func_35+0x576>
    a6db:	48 8d 85 50 f8 ff ff 	lea    -0x7b0(%rbp),%rax
    a6e2:	48 8d 15 77 e4 00 00 	lea    0xe477(%rip),%rdx        # 18b60 <g_1266+0x640>
    a6e9:	b9 f3 00 00 00       	mov    $0xf3,%ecx
    a6ee:	48 89 c7             	mov    %rax,%rdi
    a6f1:	48 89 d6             	mov    %rdx,%rsi
    a6f4:	f3 48 a5             	rep movsq %ds:(%rsi),%es:(%rdi)
    a6f7:	66 c7 85 90 f7 ff ff 	movw   $0xffff,-0x870(%rbp)
    a6fe:	ff ff 
    a700:	66 c7 85 92 f7 ff ff 	movw   $0x2dd9,-0x86e(%rbp)
    a707:	d9 2d 
    a709:	66 c7 85 94 f7 ff ff 	movw   $0xffff,-0x86c(%rbp)
    a710:	ff ff 
    a712:	66 c7 85 96 f7 ff ff 	movw   $0x0,-0x86a(%rbp)
    a719:	00 00 
    a71b:	66 c7 85 98 f7 ff ff 	movw   $0xf043,-0x868(%rbp)
    a722:	43 f0 
    a724:	66 c7 85 9a f7 ff ff 	movw   $0x2935,-0x866(%rbp)
    a72b:	35 29 
    a72d:	66 c7 85 9c f7 ff ff 	movw   $0x1,-0x864(%rbp)
    a734:	01 00 
    a736:	66 c7 85 9e f7 ff ff 	movw   $0xf043,-0x862(%rbp)
    a73d:	43 f0 
    a73f:	66 c7 85 a0 f7 ff ff 	movw   $0xffff,-0x860(%rbp)
    a746:	ff ff 
    a748:	66 c7 85 a2 f7 ff ff 	movw   $0xfffc,-0x85e(%rbp)
    a74f:	fc ff 
    a751:	66 c7 85 a4 f7 ff ff 	movw   $0xf043,-0x85c(%rbp)
    a758:	43 f0 
    a75a:	66 c7 85 a6 f7 ff ff 	movw   $0x7d81,-0x85a(%rbp)
    a761:	81 7d 
    a763:	66 c7 85 a8 f7 ff ff 	movw   $0x1,-0x858(%rbp)
    a76a:	01 00 
    a76c:	66 c7 85 aa f7 ff ff 	movw   $0xffff,-0x856(%rbp)
    a773:	ff ff 
    a775:	66 c7 85 ac f7 ff ff 	movw   $0xffff,-0x854(%rbp)
    a77c:	ff ff 
    a77e:	66 c7 85 ae f7 ff ff 	movw   $0x7c55,-0x852(%rbp)
    a785:	55 7c 
    a787:	66 c7 85 b0 f7 ff ff 	movw   $0x2e04,-0x850(%rbp)
    a78e:	04 2e 
    a790:	66 c7 85 b2 f7 ff ff 	movw   $0x7c55,-0x84e(%rbp)
    a797:	55 7c 
    a799:	66 c7 85 b4 f7 ff ff 	movw   $0xffff,-0x84c(%rbp)
    a7a0:	ff ff 
    a7a2:	66 c7 85 b6 f7 ff ff 	movw   $0xffff,-0x84a(%rbp)
    a7a9:	ff ff 
    a7ab:	66 c7 85 b8 f7 ff ff 	movw   $0x1,-0x848(%rbp)
    a7b2:	01 00 
    a7b4:	66 c7 85 ba f7 ff ff 	movw   $0x34be,-0x846(%rbp)
    a7bb:	be 34 
    a7bd:	66 c7 85 bc f7 ff ff 	movw   $0x1,-0x844(%rbp)
    a7c4:	01 00 
    a7c6:	66 c7 85 be f7 ff ff 	movw   $0x7c55,-0x842(%rbp)
    a7cd:	55 7c 
    a7cf:	66 c7 85 c0 f7 ff ff 	movw   $0xfffa,-0x840(%rbp)
    a7d6:	fa ff 
    a7d8:	66 c7 85 c2 f7 ff ff 	movw   $0x446,-0x83e(%rbp)
    a7df:	46 04 
    a7e1:	66 c7 85 c4 f7 ff ff 	movw   $0x0,-0x83c(%rbp)
    a7e8:	00 00 
    a7ea:	66 c7 85 c6 f7 ff ff 	movw   $0x2e04,-0x83a(%rbp)
    a7f1:	04 2e 
    a7f3:	66 c7 85 c8 f7 ff ff 	movw   $0x446,-0x838(%rbp)
    a7fa:	46 04 
    a7fc:	66 c7 85 ca f7 ff ff 	movw   $0x6de8,-0x836(%rbp)
    a803:	e8 6d 
    a805:	66 c7 85 cc f7 ff ff 	movw   $0xc459,-0x834(%rbp)
    a80c:	59 c4 
    a80e:	66 c7 85 ce f7 ff ff 	movw   $0xf043,-0x832(%rbp)
    a815:	43 f0 
    a817:	66 c7 85 d0 f7 ff ff 	movw   $0x4fba,-0x830(%rbp)
    a81e:	ba 4f 
    a820:	66 c7 85 d2 f7 ff ff 	movw   $0xc459,-0x82e(%rbp)
    a827:	59 c4 
    a829:	66 c7 85 d4 f7 ff ff 	movw   $0xffff,-0x82c(%rbp)
    a830:	ff ff 
    a832:	66 c7 85 d6 f7 ff ff 	movw   $0x0,-0x82a(%rbp)
    a839:	00 00 
    a83b:	66 c7 85 d8 f7 ff ff 	movw   $0x1,-0x828(%rbp)
    a842:	01 00 
    a844:	66 c7 85 da f7 ff ff 	movw   $0x2e04,-0x826(%rbp)
    a84b:	04 2e 
    a84d:	66 c7 85 dc f7 ff ff 	movw   $0x2935,-0x824(%rbp)
    a854:	35 29 
    a856:	66 c7 85 de f7 ff ff 	movw   $0xfffc,-0x822(%rbp)
    a85d:	fc ff 
    a85f:	66 c7 85 e0 f7 ff ff 	movw   $0xfffc,-0x820(%rbp)
    a866:	fc ff 
    a868:	66 c7 85 e2 f7 ff ff 	movw   $0x0,-0x81e(%rbp)
    a86f:	00 00 
    a871:	66 c7 85 e4 f7 ff ff 	movw   $0x1,-0x81c(%rbp)
    a878:	01 00 
    a87a:	66 c7 85 e6 f7 ff ff 	movw   $0x2dd9,-0x81a(%rbp)
    a881:	d9 2d 
    a883:	66 c7 85 e8 f7 ff ff 	movw   $0x446,-0x818(%rbp)
    a88a:	46 04 
    a88c:	66 c7 85 ea f7 ff ff 	movw   $0xfffd,-0x816(%rbp)
    a893:	fd ff 
    a895:	66 c7 85 ec f7 ff ff 	movw   $0xf043,-0x814(%rbp)
    a89c:	43 f0 
    a89e:	66 c7 85 ee f7 ff ff 	movw   $0x7c55,-0x812(%rbp)
    a8a5:	55 7c 
    a8a7:	66 c7 85 f0 f7 ff ff 	movw   $0x7c55,-0x810(%rbp)
    a8ae:	55 7c 
    a8b0:	66 c7 85 f2 f7 ff ff 	movw   $0xf043,-0x80e(%rbp)
    a8b7:	43 f0 
    a8b9:	66 c7 85 f4 f7 ff ff 	movw   $0x0,-0x80c(%rbp)
    a8c0:	00 00 
    a8c2:	66 c7 85 f6 f7 ff ff 	movw   $0x1,-0x80a(%rbp)
    a8c9:	01 00 
    a8cb:	66 c7 85 f8 f7 ff ff 	movw   $0x4fba,-0x808(%rbp)
    a8d2:	ba 4f 
    a8d4:	66 c7 85 fa f7 ff ff 	movw   $0x4fba,-0x806(%rbp)
    a8db:	ba 4f 
    a8dd:	66 c7 85 fc f7 ff ff 	movw   $0x1,-0x804(%rbp)
    a8e4:	01 00 
    a8e6:	66 c7 85 fe f7 ff ff 	movw   $0x58d3,-0x802(%rbp)
    a8ed:	d3 58 
    a8ef:	66 c7 85 00 f8 ff ff 	movw   $0x0,-0x800(%rbp)
    a8f6:	00 00 
    a8f8:	66 c7 85 02 f8 ff ff 	movw   $0x7c55,-0x7fe(%rbp)
    a8ff:	55 7c 
    a901:	66 c7 85 04 f8 ff ff 	movw   $0x0,-0x7fc(%rbp)
    a908:	00 00 
    a90a:	66 c7 85 06 f8 ff ff 	movw   $0x2935,-0x7fa(%rbp)
    a911:	35 29 
    a913:	66 c7 85 08 f8 ff ff 	movw   $0xfff9,-0x7f8(%rbp)
    a91a:	f9 ff 
    a91c:	66 c7 85 0a f8 ff ff 	movw   $0x7d81,-0x7f6(%rbp)
    a923:	81 7d 
    a925:	66 c7 85 0c f8 ff ff 	movw   $0x2e04,-0x7f4(%rbp)
    a92c:	04 2e 
    a92e:	66 c7 85 0e f8 ff ff 	movw   $0x0,-0x7f2(%rbp)
    a935:	00 00 
    a937:	66 c7 85 10 f8 ff ff 	movw   $0x0,-0x7f0(%rbp)
    a93e:	00 00 
    a940:	66 c7 85 12 f8 ff ff 	movw   $0xf043,-0x7ee(%rbp)
    a947:	43 f0 
    a949:	66 c7 85 14 f8 ff ff 	movw   $0xfff9,-0x7ec(%rbp)
    a950:	f9 ff 
    a952:	66 c7 85 16 f8 ff ff 	movw   $0xffff,-0x7ea(%rbp)
    a959:	ff ff 
    a95b:	66 c7 85 18 f8 ff ff 	movw   $0xfffc,-0x7e8(%rbp)
    a962:	fc ff 
    a964:	66 c7 85 1a f8 ff ff 	movw   $0x446,-0x7e6(%rbp)
    a96b:	46 04 
    a96d:	66 c7 85 1c f8 ff ff 	movw   $0xfff9,-0x7e4(%rbp)
    a974:	f9 ff 
    a976:	66 c7 85 1e f8 ff ff 	movw   $0xffff,-0x7e2(%rbp)
    a97d:	ff ff 
    a97f:	66 c7 85 20 f8 ff ff 	movw   $0x58d3,-0x7e0(%rbp)
    a986:	d3 58 
    a988:	66 c7 85 22 f8 ff ff 	movw   $0xfffd,-0x7de(%rbp)
    a98f:	fd ff 
    a991:	66 c7 85 24 f8 ff ff 	movw   $0xffff,-0x7dc(%rbp)
    a998:	ff ff 
    a99a:	66 c7 85 26 f8 ff ff 	movw   $0x58d3,-0x7da(%rbp)
    a9a1:	d3 58 
    a9a3:	66 c7 85 28 f8 ff ff 	movw   $0x446,-0x7d8(%rbp)
    a9aa:	46 04 
    a9ac:	66 c7 85 2a f8 ff ff 	movw   $0x9,-0x7d6(%rbp)
    a9b3:	09 00 
    a9b5:	66 c7 85 2c f8 ff ff 	movw   $0xfff9,-0x7d4(%rbp)
    a9bc:	f9 ff 
    a9be:	66 c7 85 2e f8 ff ff 	movw   $0xffff,-0x7d2(%rbp)
    a9c5:	ff ff 
    a9c7:	66 c7 85 30 f8 ff ff 	movw   $0x58d3,-0x7d0(%rbp)
    a9ce:	d3 58 
    a9d0:	66 c7 85 32 f8 ff ff 	movw   $0x446,-0x7ce(%rbp)
    a9d7:	46 04 
    a9d9:	66 c7 85 34 f8 ff ff 	movw   $0x9,-0x7cc(%rbp)
    a9e0:	09 00 
    a9e2:	66 c7 85 36 f8 ff ff 	movw   $0xfff9,-0x7ca(%rbp)
    a9e9:	f9 ff 
    a9eb:	66 c7 85 38 f8 ff ff 	movw   $0xffff,-0x7c8(%rbp)
    a9f2:	ff ff 
    a9f4:	66 c7 85 3a f8 ff ff 	movw   $0xfff9,-0x7c6(%rbp)
    a9fb:	f9 ff 
    a9fd:	66 c7 85 3c f8 ff ff 	movw   $0x9,-0x7c4(%rbp)
    aa04:	09 00 
    aa06:	66 c7 85 3e f8 ff ff 	movw   $0x446,-0x7c2(%rbp)
    aa0d:	46 04 
    aa0f:	66 c7 85 40 f8 ff ff 	movw   $0x58d3,-0x7c0(%rbp)
    aa16:	d3 58 
    aa18:	66 c7 85 42 f8 ff ff 	movw   $0xffff,-0x7be(%rbp)
    aa1f:	ff ff 
    aa21:	c7 85 14 f6 ff ff 2d 	movl   $0xd2dab92d,-0x9ec(%rbp)
    aa28:	b9 da d2 
    aa2b:	48 c7 05 12 01 01 00 	movq   $0x0,0x10112(%rip)        # 1ab48 <g_950+0x8>
    aa32:	00 00 00 00 
    aa36:	48 c7 05 ff d5 00 00 	movq   $0x1,0xd5ff(%rip)        # 18040 <g_72>
    aa3d:	01 00 00 00 
    aa41:	90                   	nop
    aa42:	48 8b 05 f7 d5 00 00 	mov    0xd5f7(%rip),%rax        # 18040 <g_72>
    aa49:	48 85 c0             	test   %rax,%rax
    aa4c:	78 15                	js     aa63 <func_35+0x53e>
    aa4e:	c7 85 1c f6 ff ff fa 	movl   $0xfffffffa,-0x9e4(%rbp)
    aa55:	ff ff ff 
    aa58:	8b 85 1c f6 ff ff    	mov    -0x9e4(%rbp),%eax
    aa5e:	e9 a1 03 00 00       	jmpq   ae04 <func_35+0x8df>
    aa63:	c7 85 f4 f5 ff ff 98 	movl   $0xc2d3b98,-0xa0c(%rbp)
    aa6a:	3b 2d 0c 
    aa6d:	83 ad 14 f6 ff ff 01 	subl   $0x1,-0x9ec(%rbp)
    aa74:	83 bd 10 f6 ff ff 00 	cmpl   $0x0,-0x9f0(%rbp)
    aa7b:	90                   	nop
    aa7c:	f3 0f 1e fa          	endbr64 
    aa80:	c7 05 c6 d5 00 00 07 	movl   $0x7,0xd5c6(%rip)        # 18050 <g_135>
    aa87:	00 00 00 
    aa8a:	90                   	nop
    aa8b:	8b 05 bf d5 00 00    	mov    0xd5bf(%rip),%eax        # 18050 <g_135>
    aa91:	83 f8 01             	cmp    $0x1,%eax
    aa94:	7f 10                	jg     aaa6 <func_35+0x581>
    aa96:	e9 4e 03 00 00       	jmpq   ade9 <func_35+0x8c4>
    aa9b:	8b 85 10 f6 ff ff    	mov    -0x9f0(%rbp),%eax
    aaa1:	e9 5e 03 00 00       	jmpq   ae04 <func_35+0x8df>
    aaa6:	48 8d 05 53 da 00 00 	lea    0xda53(%rip),%rax        # 18500 <g_977>
    aaad:	48 89 85 20 f6 ff ff 	mov    %rax,-0x9e0(%rbp)
    aab4:	48 8d 85 20 f6 ff ff 	lea    -0x9e0(%rbp),%rax
    aabb:	48 89 85 28 f6 ff ff 	mov    %rax,-0x9d8(%rbp)
    aac2:	48 8d 85 28 f6 ff ff 	lea    -0x9d8(%rbp),%rax
    aac9:	48 89 85 90 f7 ff ff 	mov    %rax,-0x870(%rbp)
    aad0:	48 8d 85 28 f6 ff ff 	lea    -0x9d8(%rbp),%rax
    aad7:	48 89 85 98 f7 ff ff 	mov    %rax,-0x868(%rbp)
    aade:	48 8d 85 28 f6 ff ff 	lea    -0x9d8(%rbp),%rax
    aae5:	48 89 85 a0 f7 ff ff 	mov    %rax,-0x860(%rbp)
    aaec:	48 8d 85 28 f6 ff ff 	lea    -0x9d8(%rbp),%rax
    aaf3:	48 89 85 a8 f7 ff ff 	mov    %rax,-0x858(%rbp)
    aafa:	48 8d 85 28 f6 ff ff 	lea    -0x9d8(%rbp),%rax
    ab01:	48 89 85 b0 f7 ff ff 	mov    %rax,-0x850(%rbp)
    ab08:	48 8d 85 28 f6 ff ff 	lea    -0x9d8(%rbp),%rax
    ab0f:	48 89 85 b8 f7 ff ff 	mov    %rax,-0x848(%rbp)
    ab16:	48 8d 85 28 f6 ff ff 	lea    -0x9d8(%rbp),%rax
    ab1d:	48 89 85 c0 f7 ff ff 	mov    %rax,-0x840(%rbp)
    ab24:	48 8d 85 28 f6 ff ff 	lea    -0x9d8(%rbp),%rax
    ab2b:	48 89 85 c8 f7 ff ff 	mov    %rax,-0x838(%rbp)
    ab32:	48 8d 85 28 f6 ff ff 	lea    -0x9d8(%rbp),%rax
    ab39:	48 89 85 d0 f7 ff ff 	mov    %rax,-0x830(%rbp)
    ab40:	48 c7 85 50 f6 ff ff 	movq   $0x0,-0x9b0(%rbp)
    ab47:	00 00 00 00 
    ab4b:	48 8d 05 fe f5 00 00 	lea    0xf5fe(%rip),%rax        # 1a150 <g_737>
    ab52:	48 89 85 58 f6 ff ff 	mov    %rax,-0x9a8(%rbp)
    ab59:	48 8d 85 90 f6 ff ff 	lea    -0x970(%rbp),%rax
    ab60:	48 83 c0 10          	add    $0x10,%rax
    ab64:	48 89 85 50 f8 ff ff 	mov    %rax,-0x7b0(%rbp)
    ab6b:	48 8d 85 90 f6 ff ff 	lea    -0x970(%rbp),%rax
    ab72:	48 83 c0 10          	add    $0x10,%rax
    ab76:	48 89 85 58 f8 ff ff 	mov    %rax,-0x7a8(%rbp)
    ab7d:	48 8d 85 90 f6 ff ff 	lea    -0x970(%rbp),%rax
    ab84:	48 83 c0 10          	add    $0x10,%rax
    ab88:	48 89 85 60 f8 ff ff 	mov    %rax,-0x7a0(%rbp)
    ab8f:	48 8d 85 90 f6 ff ff 	lea    -0x970(%rbp),%rax
    ab96:	48 83 c0 10          	add    $0x10,%rax
    ab9a:	48 89 85 68 f8 ff ff 	mov    %rax,-0x798(%rbp)
    aba1:	48 8d 85 90 f6 ff ff 	lea    -0x970(%rbp),%rax
    aba8:	48 83 c0 10          	add    $0x10,%rax
    abac:	48 89 85 70 f8 ff ff 	mov    %rax,-0x790(%rbp)
    abb3:	48 8d 85 90 f6 ff ff 	lea    -0x970(%rbp),%rax
    abba:	48 83 c0 10          	add    $0x10,%rax
    abbe:	48 89 85 78 f8 ff ff 	mov    %rax,-0x788(%rbp)
    abc5:	48 8d 85 90 f6 ff ff 	lea    -0x970(%rbp),%rax
    abcc:	48 83 c0 10          	add    $0x10,%rax
    abd0:	48 89 85 80 f8 ff ff 	mov    %rax,-0x780(%rbp)
    abd7:	48 8d 85 90 f6 ff ff 	lea    -0x970(%rbp),%rax
    abde:	48 83 c0 10          	add    $0x10,%rax
    abe2:	48 89 85 88 f8 ff ff 	mov    %rax,-0x778(%rbp)
    abe9:	48 8d 85 90 f6 ff ff 	lea    -0x970(%rbp),%rax
    abf0:	48 83 c0 10          	add    $0x10,%rax
    abf4:	48 89 85 90 f8 ff ff 	mov    %rax,-0x770(%rbp)
    abfb:	48 8d 85 90 f6 ff ff 	lea    -0x970(%rbp),%rax
    ac02:	48 83 c0 18          	add    $0x18,%rax
    ac06:	48 89 85 30 f6 ff ff 	mov    %rax,-0x9d0(%rbp)
    ac0d:	48 8d 85 30 f6 ff ff 	lea    -0x9d0(%rbp),%rax
    ac14:	48 89 85 60 f6 ff ff 	mov    %rax,-0x9a0(%rbp)
    ac1b:	c7 85 18 f6 ff ff 15 	movl   $0x7a35f515,-0x9e8(%rbp)
    ac22:	f5 35 7a 
    ac25:	48 c7 85 68 f6 ff ff 	movq   $0x0,-0x998(%rbp)
    ac2c:	00 00 00 00 
    ac30:	48 8d 85 e0 f5 ff ff 	lea    -0xa20(%rbp),%rax
    ac37:	48 89 85 70 f6 ff ff 	mov    %rax,-0x990(%rbp)
    ac3e:	48 c7 85 78 f6 ff ff 	movq   $0x0,-0x988(%rbp)
    ac45:	00 00 00 00 
    ac49:	48 8d 85 c0 f6 ff ff 	lea    -0x940(%rbp),%rax
    ac50:	48 83 c0 18          	add    $0x18,%rax
    ac54:	48 89 85 80 f6 ff ff 	mov    %rax,-0x980(%rbp)
    ac5b:	c6 85 df f5 ff ff 1d 	movb   $0x1d,-0xa21(%rbp)
    ac62:	48 b8 6e 89 d6 36 f1 	movabs $0xa2a642f136d6896e,%rax
    ac69:	42 a6 a2 
    ac6c:	48 89 85 88 f6 ff ff 	mov    %rax,-0x978(%rbp)
    ac73:	c7 85 e4 f5 ff ff 00 	movl   $0x0,-0xa1c(%rbp)
    ac7a:	00 00 00 
    ac7d:	eb 50                	jmp    accf <func_35+0x7aa>
    ac7f:	c7 85 e8 f5 ff ff 00 	movl   $0x0,-0xa18(%rbp)
    ac86:	00 00 00 
    ac89:	eb 34                	jmp    acbf <func_35+0x79a>
    ac8b:	8b 85 e8 f5 ff ff    	mov    -0xa18(%rbp),%eax
    ac91:	48 63 c8             	movslq %eax,%rcx
    ac94:	8b 85 e4 f5 ff ff    	mov    -0xa1c(%rbp),%eax
    ac9a:	48 63 d0             	movslq %eax,%rdx
    ac9d:	48 89 d0             	mov    %rdx,%rax
    aca0:	48 01 c0             	add    %rax,%rax
    aca3:	48 01 d0             	add    %rdx,%rax
    aca6:	48 01 c8             	add    %rcx,%rax
    aca9:	48 8d 15 58 d8 00 00 	lea    0xd858(%rip),%rdx        # 18508 <g_988>
    acb0:	48 89 94 c5 90 f6 ff 	mov    %rdx,-0x970(%rbp,%rax,8)
    acb7:	ff 
    acb8:	83 85 e8 f5 ff ff 01 	addl   $0x1,-0xa18(%rbp)
    acbf:	83 bd e8 f5 ff ff 02 	cmpl   $0x2,-0xa18(%rbp)
    acc6:	7e c3                	jle    ac8b <func_35+0x766>
    acc8:	83 85 e4 f5 ff ff 01 	addl   $0x1,-0xa1c(%rbp)
    accf:	83 bd e4 f5 ff ff 01 	cmpl   $0x1,-0xa1c(%rbp)
    acd6:	7e a7                	jle    ac7f <func_35+0x75a>
    acd8:	8b 85 d8 f6 ff ff    	mov    -0x928(%rbp),%eax
    acde:	48 63 d8             	movslq %eax,%rbx
    ace1:	8b 85 18 f6 ff ff    	mov    -0x9e8(%rbp),%eax
    ace7:	4c 63 e0             	movslq %eax,%r12
    acea:	48 8b 85 70 f8 ff ff 	mov    -0x790(%rbp),%rax
    acf1:	48 89 05 a0 f9 00 00 	mov    %rax,0xf9a0(%rip)        # 1a698 <g_989+0x38>
    acf8:	48 8b 05 99 f9 00 00 	mov    0xf999(%rip),%rax        # 1a698 <g_989+0x38>
    acff:	48 89 85 70 f8 ff ff 	mov    %rax,-0x790(%rbp)
    ad06:	48 8b 95 70 f8 ff ff 	mov    -0x790(%rbp),%rdx
    ad0d:	48 8b 85 60 f6 ff ff 	mov    -0x9a0(%rbp),%rax
    ad14:	48 89 10             	mov    %rdx,(%rax)
    ad17:	48 83 bd 50 f6 ff ff 	cmpq   $0x0,-0x9b0(%rbp)
    ad1e:	00 
    ad1f:	0f 95 c0             	setne  %al
    ad22:	0f b6 c0             	movzbl %al,%eax
    ad25:	be f9 ff ff ff       	mov    $0xfffffff9,%esi
    ad2a:	89 c7                	mov    %eax,%edi
    ad2c:	e8 24 b7 ff ff       	callq  6455 <safe_div_func_int16_t_s_s>
    ad31:	83 bd fc f5 ff ff 00 	cmpl   $0x0,-0xa04(%rbp)
    ad38:	0f 94 c2             	sete   %dl
    ad3b:	48 8b 05 ce f3 00 00 	mov    0xf3ce(%rip),%rax        # 1a110 <g_277>
    ad42:	88 10                	mov    %dl,(%rax)
    ad44:	0f b6 00             	movzbl (%rax),%eax
    ad47:	0f be c0             	movsbl %al,%eax
    ad4a:	39 85 18 f6 ff ff    	cmp    %eax,-0x9e8(%rbp)
    ad50:	48 8b 85 70 f6 ff ff 	mov    -0x990(%rbp),%rax
    ad57:	c7 00 01 00 00 00    	movl   $0x1,(%rax)
    ad5d:	b8 01 00 00 00       	mov    $0x1,%eax
    ad62:	0f b6 c0             	movzbl %al,%eax
    ad65:	be bb 00 00 00       	mov    $0xbb,%esi
    ad6a:	89 c7                	mov    %eax,%edi
    ad6c:	e8 3d be ff ff       	callq  6bae <safe_mod_func_uint8_t_u_u>
    ad71:	8b 85 ec f6 ff ff    	mov    -0x914(%rbp),%eax
    ad77:	c1 e8 1f             	shr    $0x1f,%eax
    ad7a:	0f b6 c0             	movzbl %al,%eax
    ad7d:	be 00 00 00 00       	mov    $0x0,%esi
    ad82:	48 89 c7             	mov    %rax,%rdi
    ad85:	e8 db c2 ff ff       	callq  7065 <safe_mul_func_uint64_t_u_u>
    ad8a:	8b 85 e0 f5 ff ff    	mov    -0xa20(%rbp),%eax
    ad90:	48 98                	cltq   
    ad92:	4c 89 e6             	mov    %r12,%rsi
    ad95:	48 89 c7             	mov    %rax,%rdi
    ad98:	e8 0b bb ff ff       	callq  68a8 <safe_sub_func_int64_t_s_s>
    ad9d:	ba 00 00 00 00       	mov    $0x0,%edx
    ada2:	48 0f be d2          	movsbq %dl,%rdx
    ada6:	48 39 d0             	cmp    %rdx,%rax
    ada9:	0f 9d c0             	setge  %al
    adac:	0f b6 c0             	movzbl %al,%eax
    adaf:	48 89 de             	mov    %rbx,%rsi
    adb2:	48 89 c7             	mov    %rax,%rdi
    adb5:	e8 91 c2 ff ff       	callq  704b <safe_sub_func_uint64_t_u_u>
    adba:	89 c2                	mov    %eax,%edx
    adbc:	48 8b 85 80 f6 ff ff 	mov    -0x980(%rbp),%rax
    adc3:	89 10                	mov    %edx,(%rax)
    adc5:	48 8b 85 80 f6 ff ff 	mov    -0x980(%rbp),%rax
    adcc:	8b 10                	mov    (%rax),%edx
    adce:	0f b6 85 df f5 ff ff 	movzbl -0xa21(%rbp),%eax
    add5:	09 c2                	or     %eax,%edx
    add7:	48 8b 85 80 f6 ff ff 	mov    -0x980(%rbp),%rax
    adde:	89 10                	mov    %edx,(%rax)
    ade0:	48 8b 85 88 f6 ff ff 	mov    -0x978(%rbp),%rax
    ade7:	eb 1b                	jmp    ae04 <func_35+0x8df>
    ade9:	48 83 bd 40 f6 ff ff 	cmpq   $0x0,-0x9c0(%rbp)
    adf0:	00 
    adf1:	0f 95 c0             	setne  %al
    adf4:	0f b6 c0             	movzbl %al,%eax
    adf7:	89 85 f4 f5 ff ff    	mov    %eax,-0xa0c(%rbp)
    adfd:	48 8b 85 10 f7 ff ff 	mov    -0x8f0(%rbp),%rax
    ae04:	48 8b 4d e8          	mov    -0x18(%rbp),%rcx
    ae08:	64 48 33 0c 25 28 00 	xor    %fs:0x28,%rcx
    ae0f:	00 00 
    ae11:	74 05                	je     ae18 <func_35+0x8f3>
    ae13:	e8 58 b2 ff ff       	callq  6070 <__stack_chk_fail@plt>
    ae18:	48 81 c4 30 0a 00 00 	add    $0xa30,%rsp
    ae1f:	5b                   	pop    %rbx
    ae20:	41 5c                	pop    %r12
    ae22:	5d                   	pop    %rbp
    ae23:	c3                   	retq   

000000000000ae24 <func_37>:
    ae24:	f3 0f 1e fa          	endbr64 
    ae28:	55                   	push   %rbp
    ae29:	48 89 e5             	mov    %rsp,%rbp
    ae2c:	41 57                	push   %r15
    ae2e:	41 56                	push   %r14
    ae30:	41 55                	push   %r13
    ae32:	41 54                	push   %r12
    ae34:	53                   	push   %rbx
    ae35:	48 81 ec 00 10 00 00 	sub    $0x1000,%rsp
    ae3c:	48 83 0c 24 00       	orq    $0x0,(%rsp)
    ae41:	48 81 ec 98 04 00 00 	sub    $0x498,%rsp
    ae48:	48 89 bd 58 eb ff ff 	mov    %rdi,-0x14a8(%rbp)
    ae4f:	48 89 b5 50 eb ff ff 	mov    %rsi,-0x14b0(%rbp)
    ae56:	89 c8                	mov    %ecx,%eax
    ae58:	66 89 95 4c eb ff ff 	mov    %dx,-0x14b4(%rbp)
    ae5f:	66 89 85 48 eb ff ff 	mov    %ax,-0x14b8(%rbp)
    ae66:	64 48 8b 04 25 28 00 	mov    %fs:0x28,%rax
    ae6d:	00 00 
    ae6f:	48 89 45 c8          	mov    %rax,-0x38(%rbp)
    ae73:	31 c0                	xor    %eax,%eax
    ae75:	48 8d 05 9c fc 00 00 	lea    0xfc9c(%rip),%rax        # 1ab18 <g_322>
    ae7c:	48 89 85 68 ec ff ff 	mov    %rax,-0x1398(%rbp)
    ae83:	48 8d 85 68 ec ff ff 	lea    -0x1398(%rbp),%rax
    ae8a:	48 89 85 08 ed ff ff 	mov    %rax,-0x12f8(%rbp)
    ae91:	48 c7 85 70 ec ff ff 	movq   $0x0,-0x1390(%rbp)
    ae98:	00 00 00 00 
    ae9c:	48 8d 05 c1 d1 00 00 	lea    0xd1c1(%rip),%rax        # 18064 <g_201>
    aea3:	48 89 85 78 ec ff ff 	mov    %rax,-0x1388(%rbp)
    aeaa:	48 c7 85 10 ed ff ff 	movq   $0x4,-0x12f0(%rbp)
    aeb1:	04 00 00 00 
    aeb5:	48 c7 85 80 ec ff ff 	movq   $0x0,-0x1380(%rbp)
    aebc:	00 00 00 00 
    aec0:	48 8d 85 80 ec ff ff 	lea    -0x1380(%rbp),%rax
    aec7:	48 89 85 88 ec ff ff 	mov    %rax,-0x1378(%rbp)
    aece:	48 8d 85 88 ec ff ff 	lea    -0x1378(%rbp),%rax
    aed5:	48 89 85 90 ec ff ff 	mov    %rax,-0x1370(%rbp)
    aedc:	48 8d 85 88 ec ff ff 	lea    -0x1378(%rbp),%rax
    aee3:	48 89 85 98 ec ff ff 	mov    %rax,-0x1368(%rbp)
    aeea:	48 c7 85 a0 ec ff ff 	movq   $0x9,-0x1360(%rbp)
    aef1:	09 00 00 00 
    aef5:	48 c7 85 a8 ec ff ff 	movq   $0x0,-0x1358(%rbp)
    aefc:	00 00 00 00 
    af00:	c7 85 b8 eb ff ff fa 	movl   $0xfffffffa,-0x1448(%rbp)
    af07:	ff ff ff 
    af0a:	c6 85 6e eb ff ff 00 	movb   $0x0,-0x1492(%rbp)
    af11:	48 8d 85 88 ec ff ff 	lea    -0x1378(%rbp),%rax
    af18:	48 89 85 b0 ec ff ff 	mov    %rax,-0x1350(%rbp)
    af1f:	48 8d 05 ea d2 00 00 	lea    0xd2ea(%rip),%rax        # 18210 <g_614>
    af26:	48 89 85 b8 ec ff ff 	mov    %rax,-0x1348(%rbp)
    af2d:	c6 85 6f eb ff ff ae 	movb   $0xae,-0x1491(%rbp)
    af34:	c6 85 6d eb ff ff 2a 	movb   $0x2a,-0x1493(%rbp)
    af3b:	48 c7 85 c0 ec ff ff 	movq   $0x0,-0x1340(%rbp)
    af42:	00 00 00 00 
    af46:	48 8d 85 c0 ec ff ff 	lea    -0x1340(%rbp),%rax
    af4d:	48 89 85 c8 ec ff ff 	mov    %rax,-0x1338(%rbp)
    af54:	c6 85 70 eb ff ff 87 	movb   $0x87,-0x1490(%rbp)
    af5b:	c7 85 b0 f0 ff ff 94 	movl   $0x63aba294,-0xf50(%rbp)
    af62:	a2 ab 63 
    af65:	c7 85 b4 f0 ff ff 9a 	movl   $0x8e043c9a,-0xf4c(%rbp)
    af6c:	3c 04 8e 
    af6f:	c7 85 b8 f0 ff ff 18 	movl   $0xfd45ef18,-0xf48(%rbp)
    af76:	ef 45 fd 
    af79:	c7 85 bc f0 ff ff 9a 	movl   $0x8e043c9a,-0xf44(%rbp)
    af80:	3c 04 8e 
    af83:	c7 85 c0 f0 ff ff ff 	movl   $0x39f02fff,-0xf40(%rbp)
    af8a:	2f f0 39 
    af8d:	c7 85 c4 f0 ff ff ff 	movl   $0xffffffff,-0xf3c(%rbp)
    af94:	ff ff ff 
    af97:	c7 85 c8 f0 ff ff fd 	movl   $0xfffffffd,-0xf38(%rbp)
    af9e:	ff ff ff 
    afa1:	c7 85 cc f0 ff ff 18 	movl   $0xfd45ef18,-0xf34(%rbp)
    afa8:	ef 45 fd 
    afab:	c7 85 d0 f0 ff ff 9a 	movl   $0x8e043c9a,-0xf30(%rbp)
    afb2:	3c 04 8e 
    afb5:	c7 85 d4 f0 ff ff ff 	movl   $0xffffffff,-0xf2c(%rbp)
    afbc:	ff ff ff 
    afbf:	c7 85 d8 f0 ff ff ff 	movl   $0xffffffff,-0xf28(%rbp)
    afc6:	ff ff ff 
    afc9:	c7 85 dc f0 ff ff 9a 	movl   $0x8e043c9a,-0xf24(%rbp)
    afd0:	3c 04 8e 
    afd3:	c7 85 e0 f0 ff ff ff 	movl   $0xffffffff,-0xf20(%rbp)
    afda:	ff ff ff 
    afdd:	c7 85 e4 f0 ff ff 9a 	movl   $0x8e043c9a,-0xf1c(%rbp)
    afe4:	3c 04 8e 
    afe7:	c7 85 e8 f0 ff ff ff 	movl   $0x39f02fff,-0xf18(%rbp)
    afee:	2f f0 39 
    aff1:	c7 85 ec f0 ff ff 94 	movl   $0x63aba294,-0xf14(%rbp)
    aff8:	a2 ab 63 
    affb:	c7 85 f0 f0 ff ff ff 	movl   $0xffffffff,-0xf10(%rbp)
    b002:	ff ff ff 
    b005:	c7 85 f4 f0 ff ff ff 	movl   $0x39f02fff,-0xf0c(%rbp)
    b00c:	2f f0 39 
    b00f:	c7 85 f8 f0 ff ff ff 	movl   $0xffffffff,-0xf08(%rbp)
    b016:	ff ff ff 
    b019:	c7 85 fc f0 ff ff fd 	movl   $0xfffffffd,-0xf04(%rbp)
    b020:	ff ff ff 
    b023:	c7 85 00 f1 ff ff 9a 	movl   $0x8e043c9a,-0xf00(%rbp)
    b02a:	3c 04 8e 
    b02d:	c7 85 04 f1 ff ff 94 	movl   $0x63aba294,-0xefc(%rbp)
    b034:	a2 ab 63 
    b037:	c7 85 08 f1 ff ff fd 	movl   $0xfffffffd,-0xef8(%rbp)
    b03e:	ff ff ff 
    b041:	c7 85 0c f1 ff ff fd 	movl   $0xfffffffd,-0xef4(%rbp)
    b048:	ff ff ff 
    b04b:	c7 85 10 f1 ff ff ff 	movl   $0x39f02fff,-0xef0(%rbp)
    b052:	2f f0 39 
    b055:	c7 85 14 f1 ff ff ff 	movl   $0x39f02fff,-0xeec(%rbp)
    b05c:	2f f0 39 
    b05f:	c7 85 18 f1 ff ff 18 	movl   $0xfd45ef18,-0xee8(%rbp)
    b066:	ef 45 fd 
    b069:	c7 85 1c f1 ff ff 94 	movl   $0x63aba294,-0xee4(%rbp)
    b070:	a2 ab 63 
    b073:	48 c7 85 d0 ec ff ff 	movq   $0x0,-0x1330(%rbp)
    b07a:	00 00 00 00 
    b07e:	c7 85 bc eb ff ff 00 	movl   $0x0,-0x1444(%rbp)
    b085:	00 00 00 
    b088:	c7 85 d4 eb ff ff 02 	movl   $0x1caede02,-0x142c(%rbp)
    b08f:	de ae 1c 
    b092:	c7 85 c0 eb ff ff 00 	movl   $0x0,-0x1440(%rbp)
    b099:	00 00 00 
    b09c:	eb 1a                	jmp    b0b8 <func_37+0x294>
    b09e:	8b 85 c0 eb ff ff    	mov    -0x1440(%rbp),%eax
    b0a4:	48 98                	cltq   
    b0a6:	c7 84 85 34 ef ff ff 	movl   $0x0,-0x10cc(%rbp,%rax,4)
    b0ad:	00 00 00 00 
    b0b1:	83 85 c0 eb ff ff 01 	addl   $0x1,-0x1440(%rbp)
    b0b8:	83 bd c0 eb ff ff 00 	cmpl   $0x0,-0x1440(%rbp)
    b0bf:	7e dd                	jle    b09e <func_37+0x27a>
    b0c1:	c7 85 c0 eb ff ff 00 	movl   $0x0,-0x1440(%rbp)
    b0c8:	00 00 00 
    b0cb:	eb 1e                	jmp    b0eb <func_37+0x2c7>
    b0cd:	8b 85 c0 eb ff ff    	mov    -0x1440(%rbp),%eax
    b0d3:	48 98                	cltq   
    b0d5:	48 8d 95 78 ec ff ff 	lea    -0x1388(%rbp),%rdx
    b0dc:	48 89 94 c5 60 ef ff 	mov    %rdx,-0x10a0(%rbp,%rax,8)
    b0e3:	ff 
    b0e4:	83 85 c0 eb ff ff 01 	addl   $0x1,-0x1440(%rbp)
    b0eb:	83 bd c0 eb ff ff 02 	cmpl   $0x2,-0x1440(%rbp)
    b0f2:	7e d9                	jle    b0cd <func_37+0x2a9>
    b0f4:	90                   	nop
    b0f5:	0f b6 05 05 d1 00 00 	movzbl 0xd105(%rip),%eax        # 18201 <g_423>
    b0fc:	c1 e0 07             	shl    $0x7,%eax
    b0ff:	c0 f8 07             	sar    $0x7,%al
    b102:	0f be d0             	movsbl %al,%edx
    b105:	48 8b 85 08 ed ff ff 	mov    -0x12f8(%rbp),%rax
    b10c:	48 8d 0d 0d f0 00 00 	lea    0xf00d(%rip),%rcx        # 1a120 <g_323>
    b113:	48 89 08             	mov    %rcx,(%rax)
    b116:	48 8b 85 08 ed ff ff 	mov    -0x12f8(%rbp),%rax
    b11d:	48 8b 08             	mov    (%rax),%rcx
    b120:	48 8b 85 70 ec ff ff 	mov    -0x1390(%rbp),%rax
    b127:	48 39 c1             	cmp    %rax,%rcx
    b12a:	0f 94 c0             	sete   %al
    b12d:	0f b6 c0             	movzbl %al,%eax
    b130:	39 c2                	cmp    %eax,%edx
    b132:	0f 8f 20 03 00 00    	jg     b458 <func_37+0x634>
    b138:	48 8d 05 0d cf 00 00 	lea    0xcf0d(%rip),%rax        # 1804c <g_115>
    b13f:	48 89 85 f0 f8 ff ff 	mov    %rax,-0x710(%rbp)
    b146:	48 8d 85 34 ef ff ff 	lea    -0x10cc(%rbp),%rax
    b14d:	48 89 85 f8 f8 ff ff 	mov    %rax,-0x708(%rbp)
    b154:	48 8d 05 1d cf 00 00 	lea    0xcf1d(%rip),%rax        # 18078 <g_247>
    b15b:	48 89 85 00 f9 ff ff 	mov    %rax,-0x700(%rbp)
    b162:	48 8d 05 0f cf 00 00 	lea    0xcf0f(%rip),%rax        # 18078 <g_247>
    b169:	48 89 85 08 f9 ff ff 	mov    %rax,-0x6f8(%rbp)
    b170:	48 8d 05 01 cf 00 00 	lea    0xcf01(%rip),%rax        # 18078 <g_247>
    b177:	48 89 85 10 f9 ff ff 	mov    %rax,-0x6f0(%rbp)
    b17e:	48 8d 05 f3 ce 00 00 	lea    0xcef3(%rip),%rax        # 18078 <g_247>
    b185:	48 89 85 18 f9 ff ff 	mov    %rax,-0x6e8(%rbp)
    b18c:	48 8d 05 e5 ce 00 00 	lea    0xcee5(%rip),%rax        # 18078 <g_247>
    b193:	48 89 85 20 f9 ff ff 	mov    %rax,-0x6e0(%rbp)
    b19a:	48 8d 85 34 ef ff ff 	lea    -0x10cc(%rbp),%rax
    b1a1:	48 89 85 28 f9 ff ff 	mov    %rax,-0x6d8(%rbp)
    b1a8:	48 8d 05 9d ce 00 00 	lea    0xce9d(%rip),%rax        # 1804c <g_115>
    b1af:	48 89 85 30 f9 ff ff 	mov    %rax,-0x6d0(%rbp)
    b1b6:	48 8d 05 bb ce 00 00 	lea    0xcebb(%rip),%rax        # 18078 <g_247>
    b1bd:	48 89 85 38 f9 ff ff 	mov    %rax,-0x6c8(%rbp)
    b1c4:	48 8d 85 34 ef ff ff 	lea    -0x10cc(%rbp),%rax
    b1cb:	48 89 85 40 f9 ff ff 	mov    %rax,-0x6c0(%rbp)
    b1d2:	48 8d 05 9f ce 00 00 	lea    0xce9f(%rip),%rax        # 18078 <g_247>
    b1d9:	48 89 85 48 f9 ff ff 	mov    %rax,-0x6b8(%rbp)
    b1e0:	48 8d 05 65 ce 00 00 	lea    0xce65(%rip),%rax        # 1804c <g_115>
    b1e7:	48 89 85 50 f9 ff ff 	mov    %rax,-0x6b0(%rbp)
    b1ee:	48 8d 85 34 ef ff ff 	lea    -0x10cc(%rbp),%rax
    b1f5:	48 89 85 58 f9 ff ff 	mov    %rax,-0x6a8(%rbp)
    b1fc:	48 8d 05 75 ce 00 00 	lea    0xce75(%rip),%rax        # 18078 <g_247>
    b203:	48 89 85 60 f9 ff ff 	mov    %rax,-0x6a0(%rbp)
    b20a:	48 8d 05 67 ce 00 00 	lea    0xce67(%rip),%rax        # 18078 <g_247>
    b211:	48 89 85 68 f9 ff ff 	mov    %rax,-0x698(%rbp)
    b218:	48 8d 05 59 ce 00 00 	lea    0xce59(%rip),%rax        # 18078 <g_247>
    b21f:	48 89 85 70 f9 ff ff 	mov    %rax,-0x690(%rbp)
    b226:	48 8d 05 4b ce 00 00 	lea    0xce4b(%rip),%rax        # 18078 <g_247>
    b22d:	48 89 85 78 f9 ff ff 	mov    %rax,-0x688(%rbp)
    b234:	48 8d 05 3d ce 00 00 	lea    0xce3d(%rip),%rax        # 18078 <g_247>
    b23b:	48 89 85 80 f9 ff ff 	mov    %rax,-0x680(%rbp)
    b242:	48 8d 85 34 ef ff ff 	lea    -0x10cc(%rbp),%rax
    b249:	48 89 85 88 f9 ff ff 	mov    %rax,-0x678(%rbp)
    b250:	48 8d 05 f5 cd 00 00 	lea    0xcdf5(%rip),%rax        # 1804c <g_115>
    b257:	48 89 85 90 f9 ff ff 	mov    %rax,-0x670(%rbp)
    b25e:	48 8d 05 13 ce 00 00 	lea    0xce13(%rip),%rax        # 18078 <g_247>
    b265:	48 89 85 98 f9 ff ff 	mov    %rax,-0x668(%rbp)
    b26c:	48 8d 85 34 ef ff ff 	lea    -0x10cc(%rbp),%rax
    b273:	48 89 85 a0 f9 ff ff 	mov    %rax,-0x660(%rbp)
    b27a:	48 8d 05 f7 cd 00 00 	lea    0xcdf7(%rip),%rax        # 18078 <g_247>
    b281:	48 89 85 a8 f9 ff ff 	mov    %rax,-0x658(%rbp)
    b288:	48 8d 05 bd cd 00 00 	lea    0xcdbd(%rip),%rax        # 1804c <g_115>
    b28f:	48 89 85 b0 f9 ff ff 	mov    %rax,-0x650(%rbp)
    b296:	48 8d 85 34 ef ff ff 	lea    -0x10cc(%rbp),%rax
    b29d:	48 89 85 b8 f9 ff ff 	mov    %rax,-0x648(%rbp)
    b2a4:	48 8d 05 cd cd 00 00 	lea    0xcdcd(%rip),%rax        # 18078 <g_247>
    b2ab:	48 89 85 c0 f9 ff ff 	mov    %rax,-0x640(%rbp)
    b2b2:	48 8d 05 bf cd 00 00 	lea    0xcdbf(%rip),%rax        # 18078 <g_247>
    b2b9:	48 89 85 c8 f9 ff ff 	mov    %rax,-0x638(%rbp)
    b2c0:	48 8d 05 b1 cd 00 00 	lea    0xcdb1(%rip),%rax        # 18078 <g_247>
    b2c7:	48 89 85 d0 f9 ff ff 	mov    %rax,-0x630(%rbp)
    b2ce:	48 8d 05 a3 cd 00 00 	lea    0xcda3(%rip),%rax        # 18078 <g_247>
    b2d5:	48 89 85 d8 f9 ff ff 	mov    %rax,-0x628(%rbp)
    b2dc:	48 8d 05 95 cd 00 00 	lea    0xcd95(%rip),%rax        # 18078 <g_247>
    b2e3:	48 89 85 e0 f9 ff ff 	mov    %rax,-0x620(%rbp)
    b2ea:	48 8d 85 34 ef ff ff 	lea    -0x10cc(%rbp),%rax
    b2f1:	48 89 85 e8 f9 ff ff 	mov    %rax,-0x618(%rbp)
    b2f8:	48 8d 05 4d cd 00 00 	lea    0xcd4d(%rip),%rax        # 1804c <g_115>
    b2ff:	48 89 85 f0 f9 ff ff 	mov    %rax,-0x610(%rbp)
    b306:	48 8d 05 6b cd 00 00 	lea    0xcd6b(%rip),%rax        # 18078 <g_247>
    b30d:	48 89 85 f8 f9 ff ff 	mov    %rax,-0x608(%rbp)
    b314:	48 8d 85 34 ef ff ff 	lea    -0x10cc(%rbp),%rax
    b31b:	48 89 85 00 fa ff ff 	mov    %rax,-0x600(%rbp)
    b322:	48 8d 05 4f cd 00 00 	lea    0xcd4f(%rip),%rax        # 18078 <g_247>
    b329:	48 89 85 08 fa ff ff 	mov    %rax,-0x5f8(%rbp)
    b330:	48 8d 05 15 cd 00 00 	lea    0xcd15(%rip),%rax        # 1804c <g_115>
    b337:	48 89 85 10 fa ff ff 	mov    %rax,-0x5f0(%rbp)
    b33e:	48 8d 85 34 ef ff ff 	lea    -0x10cc(%rbp),%rax
    b345:	48 89 85 18 fa ff ff 	mov    %rax,-0x5e8(%rbp)
    b34c:	48 8d 05 25 cd 00 00 	lea    0xcd25(%rip),%rax        # 18078 <g_247>
    b353:	48 89 85 20 fa ff ff 	mov    %rax,-0x5e0(%rbp)
    b35a:	48 8d 05 17 cd 00 00 	lea    0xcd17(%rip),%rax        # 18078 <g_247>
    b361:	48 89 85 28 fa ff ff 	mov    %rax,-0x5d8(%rbp)
    b368:	66 c7 85 78 eb ff ff 	movw   $0xffff,-0x1488(%rbp)
    b36f:	ff ff 
    b371:	48 8d 05 98 ed 00 00 	lea    0xed98(%rip),%rax        # 1a110 <g_277>
    b378:	48 89 85 e8 ec ff ff 	mov    %rax,-0x1318(%rbp)
    b37f:	48 8d 85 e8 ec ff ff 	lea    -0x1318(%rbp),%rax
    b386:	48 89 85 f0 ec ff ff 	mov    %rax,-0x1310(%rbp)
    b38d:	48 8d 85 f0 ec ff ff 	lea    -0x1310(%rbp),%rax
    b394:	48 89 85 20 ed ff ff 	mov    %rax,-0x12e0(%rbp)
    b39b:	48 8d 85 f0 ec ff ff 	lea    -0x1310(%rbp),%rax
    b3a2:	48 89 85 f8 ec ff ff 	mov    %rax,-0x1308(%rbp)
    b3a9:	48 c7 85 90 f5 ff ff 	movq   $0x0,-0xa70(%rbp)
    b3b0:	00 00 00 00 
    b3b4:	48 8d 85 f8 ec ff ff 	lea    -0x1308(%rbp),%rax
    b3bb:	48 89 85 98 f5 ff ff 	mov    %rax,-0xa68(%rbp)
    b3c2:	48 c7 85 a0 f5 ff ff 	movq   $0x0,-0xa60(%rbp)
    b3c9:	00 00 00 00 
    b3cd:	48 8d 85 f8 ec ff ff 	lea    -0x1308(%rbp),%rax
    b3d4:	48 89 85 a8 f5 ff ff 	mov    %rax,-0xa58(%rbp)
    b3db:	48 c7 85 b0 f5 ff ff 	movq   $0x0,-0xa50(%rbp)
    b3e2:	00 00 00 00 
    b3e6:	48 8d 85 f8 ec ff ff 	lea    -0x1308(%rbp),%rax
    b3ed:	48 89 85 b8 f5 ff ff 	mov    %rax,-0xa48(%rbp)
    b3f4:	48 c7 85 c0 f5 ff ff 	movq   $0x0,-0xa40(%rbp)
    b3fb:	00 00 00 00 
    b3ff:	48 8d 85 f8 ec ff ff 	lea    -0x1308(%rbp),%rax
    b406:	48 89 85 c8 f5 ff ff 	mov    %rax,-0xa38(%rbp)
    b40d:	48 c7 85 d0 f5 ff ff 	movq   $0x0,-0xa30(%rbp)
    b414:	00 00 00 00 
    b418:	48 8d 85 f8 ec ff ff 	lea    -0x1308(%rbp),%rax
    b41f:	48 89 85 d8 f5 ff ff 	mov    %rax,-0xa28(%rbp)
    b426:	48 8d 85 f8 ec ff ff 	lea    -0x1308(%rbp),%rax
    b42d:	48 89 85 28 ed ff ff 	mov    %rax,-0x12d8(%rbp)
    b434:	0f b7 85 78 eb ff ff 	movzwl -0x1488(%rbp),%eax
    b43b:	83 e8 01             	sub    $0x1,%eax
    b43e:	66 89 85 78 eb ff ff 	mov    %ax,-0x1488(%rbp)
    b445:	48 8b 85 28 ed ff ff 	mov    -0x12d8(%rbp),%rax
    b44c:	48 8b 95 20 ed ff ff 	mov    -0x12e0(%rbp),%rdx
    b453:	48 89 10             	mov    %rdx,(%rax)
    b456:	eb 4c                	jmp    b4a4 <func_37+0x680>
    b458:	48 8d 05 05 cc 00 00 	lea    0xcc05(%rip),%rax        # 18064 <g_201>
    b45f:	48 89 85 f0 ec ff ff 	mov    %rax,-0x1310(%rbp)
    b466:	48 8d 85 f0 ec ff ff 	lea    -0x1310(%rbp),%rax
    b46d:	48 89 85 f8 ec ff ff 	mov    %rax,-0x1308(%rbp)
    b474:	48 8d 85 f8 ec ff ff 	lea    -0x1308(%rbp),%rax
    b47b:	48 89 85 18 ed ff ff 	mov    %rax,-0x12e8(%rbp)
    b482:	48 8b 95 f8 ec ff ff 	mov    -0x1308(%rbp),%rdx
    b489:	48 8b 85 18 ed ff ff 	mov    -0x12e8(%rbp),%rax
    b490:	48 89 10             	mov    %rdx,(%rax)
    b493:	48 8b 85 18 ed ff ff 	mov    -0x12e8(%rbp),%rax
    b49a:	48 8b 00             	mov    (%rax),%rax
    b49d:	48 89 85 68 ef ff ff 	mov    %rax,-0x1098(%rbp)
    b4a4:	48 83 bd 10 ed ff ff 	cmpq   $0x0,-0x12f0(%rbp)
    b4ab:	00 
    b4ac:	0f 84 59 22 00 00    	je     d70b <func_37+0x28e7>
    b4b2:	48 8d 85 90 ec ff ff 	lea    -0x1370(%rbp),%rax
    b4b9:	48 89 85 e0 ed ff ff 	mov    %rax,-0x1220(%rbp)
    b4c0:	48 c7 85 e8 ec ff ff 	movq   $0x0,-0x1318(%rbp)
    b4c7:	00 00 00 00 
    b4cb:	48 8d 85 e8 ec ff ff 	lea    -0x1318(%rbp),%rax
    b4d2:	48 89 85 50 f3 ff ff 	mov    %rax,-0xcb0(%rbp)
    b4d9:	48 8d 85 e8 ec ff ff 	lea    -0x1318(%rbp),%rax
    b4e0:	48 89 85 58 f3 ff ff 	mov    %rax,-0xca8(%rbp)
    b4e7:	48 8d 85 e8 ec ff ff 	lea    -0x1318(%rbp),%rax
    b4ee:	48 89 85 60 f3 ff ff 	mov    %rax,-0xca0(%rbp)
    b4f5:	48 8d 85 e8 ec ff ff 	lea    -0x1318(%rbp),%rax
    b4fc:	48 89 85 68 f3 ff ff 	mov    %rax,-0xc98(%rbp)
    b503:	48 8d 85 e8 ec ff ff 	lea    -0x1318(%rbp),%rax
    b50a:	48 89 85 70 f3 ff ff 	mov    %rax,-0xc90(%rbp)
    b511:	48 8d 85 e8 ec ff ff 	lea    -0x1318(%rbp),%rax
    b518:	48 89 85 78 f3 ff ff 	mov    %rax,-0xc88(%rbp)
    b51f:	48 8d 85 e8 ec ff ff 	lea    -0x1318(%rbp),%rax
    b526:	48 89 85 80 f3 ff ff 	mov    %rax,-0xc80(%rbp)
    b52d:	48 8d 85 e8 ec ff ff 	lea    -0x1318(%rbp),%rax
    b534:	48 89 85 88 f3 ff ff 	mov    %rax,-0xc78(%rbp)
    b53b:	48 8d 85 e8 ec ff ff 	lea    -0x1318(%rbp),%rax
    b542:	48 89 85 90 f3 ff ff 	mov    %rax,-0xc70(%rbp)
    b549:	48 8d 85 e8 ec ff ff 	lea    -0x1318(%rbp),%rax
    b550:	48 89 85 98 f3 ff ff 	mov    %rax,-0xc68(%rbp)
    b557:	48 c7 85 e8 ed ff ff 	movq   $0x0,-0x1218(%rbp)
    b55e:	00 00 00 00 
    b562:	48 8d 05 59 cc 00 00 	lea    0xcc59(%rip),%rax        # 181c2 <g_288>
    b569:	48 89 85 f0 ed ff ff 	mov    %rax,-0x1210(%rbp)
    b570:	c7 85 7c eb ff ff 5a 	movl   $0x5670c95a,-0x1484(%rbp)
    b577:	c9 70 56 
    b57a:	48 c7 85 f8 ed ff ff 	movq   $0x0,-0x1208(%rbp)
    b581:	00 00 00 00 
    b585:	c7 85 80 eb ff ff e5 	movl   $0xe76ad7e5,-0x1480(%rbp)
    b58c:	d7 6a e7 
    b58f:	48 8d 05 7a eb 00 00 	lea    0xeb7a(%rip),%rax        # 1a110 <g_277>
    b596:	48 89 85 f0 ec ff ff 	mov    %rax,-0x1310(%rbp)
    b59d:	c7 85 30 f0 ff ff ff 	movl   $0xffffffff,-0xfd0(%rbp)
    b5a4:	ff ff ff 
    b5a7:	c7 85 34 f0 ff ff 09 	movl   $0x9,-0xfcc(%rbp)
    b5ae:	00 00 00 
    b5b1:	c7 85 38 f0 ff ff 09 	movl   $0x9,-0xfc8(%rbp)
    b5b8:	00 00 00 
    b5bb:	c7 85 3c f0 ff ff ff 	movl   $0xffffffff,-0xfc4(%rbp)
    b5c2:	ff ff ff 
    b5c5:	c7 85 40 f0 ff ff 09 	movl   $0x9,-0xfc0(%rbp)
    b5cc:	00 00 00 
    b5cf:	c7 85 44 f0 ff ff 09 	movl   $0x9,-0xfbc(%rbp)
    b5d6:	00 00 00 
    b5d9:	c7 85 48 f0 ff ff ff 	movl   $0xffffffff,-0xfb8(%rbp)
    b5e0:	ff ff ff 
    b5e3:	c7 85 4c f0 ff ff 09 	movl   $0x9,-0xfb4(%rbp)
    b5ea:	00 00 00 
    b5ed:	c7 85 50 f0 ff ff 09 	movl   $0x9,-0xfb0(%rbp)
    b5f4:	00 00 00 
    b5f7:	66 c7 85 a0 ef ff ff 	movw   $0x0,-0x1060(%rbp)
    b5fe:	00 00 
    b600:	66 c7 85 a2 ef ff ff 	movw   $0x0,-0x105e(%rbp)
    b607:	00 00 
    b609:	66 c7 85 a4 ef ff ff 	movw   $0x0,-0x105c(%rbp)
    b610:	00 00 
    b612:	66 c7 85 a6 ef ff ff 	movw   $0x0,-0x105a(%rbp)
    b619:	00 00 
    b61b:	66 c7 85 a8 ef ff ff 	movw   $0x0,-0x1058(%rbp)
    b622:	00 00 
    b624:	48 8d 05 fd ea 00 00 	lea    0xeafd(%rip),%rax        # 1a128 <g_326>
    b62b:	48 89 85 00 ee ff ff 	mov    %rax,-0x1200(%rbp)
    b632:	66 c7 85 7a eb ff ff 	movw   $0xffff,-0x1486(%rbp)
    b639:	ff ff 
    b63b:	48 8d 85 78 ec ff ff 	lea    -0x1388(%rbp),%rax
    b642:	48 89 85 08 ee ff ff 	mov    %rax,-0x11f8(%rbp)
    b649:	48 c7 85 10 ee ff ff 	movq   $0x0,-0x11f0(%rbp)
    b650:	00 00 00 00 
    b654:	48 b8 6d 05 96 ad 60 	movabs $0xbec89f60ad96056d,%rax
    b65b:	9f c8 be 
    b65e:	48 89 85 18 ee ff ff 	mov    %rax,-0x11e8(%rbp)
    b665:	c7 85 c4 eb ff ff 00 	movl   $0x0,-0x143c(%rbp)
    b66c:	00 00 00 
    b66f:	eb 1e                	jmp    b68f <func_37+0x86b>
    b671:	8b 85 c4 eb ff ff    	mov    -0x143c(%rbp),%eax
    b677:	48 98                	cltq   
    b679:	48 8d 15 87 cb 00 00 	lea    0xcb87(%rip),%rdx        # 18207 <g_579>
    b680:	48 89 94 c5 d0 ef ff 	mov    %rdx,-0x1030(%rbp,%rax,8)
    b687:	ff 
    b688:	83 85 c4 eb ff ff 01 	addl   $0x1,-0x143c(%rbp)
    b68f:	83 bd c4 eb ff ff 01 	cmpl   $0x1,-0x143c(%rbp)
    b696:	7e d9                	jle    b671 <func_37+0x84d>
    b698:	0f b7 85 48 eb ff ff 	movzwl -0x14b8(%rbp),%eax
    b69f:	44 0f b7 e8          	movzwl %ax,%r13d
    b6a3:	0f b7 9d 4c eb ff ff 	movzwl -0x14b4(%rbp),%ebx
    b6aa:	0f b7 85 48 eb ff ff 	movzwl -0x14b8(%rbp),%eax
    b6b1:	44 0f b7 e0          	movzwl %ax,%r12d
    b6b5:	48 8b 85 58 eb ff ff 	mov    -0x14a8(%rbp),%rax
    b6bc:	0f be d0             	movsbl %al,%edx
    b6bf:	48 8b 8d 90 ec ff ff 	mov    -0x1370(%rbp),%rcx
    b6c6:	48 8b 85 e0 ed ff ff 	mov    -0x1220(%rbp),%rax
    b6cd:	48 89 08             	mov    %rcx,(%rax)
    b6d0:	48 8b 85 e0 ed ff ff 	mov    -0x1220(%rbp),%rax
    b6d7:	48 8b 00             	mov    (%rax),%rax
    b6da:	48 89 85 98 ec ff ff 	mov    %rax,-0x1368(%rbp)
    b6e1:	48 8b 8d 98 ec ff ff 	mov    -0x1368(%rbp),%rcx
    b6e8:	48 8d 85 88 ec ff ff 	lea    -0x1378(%rbp),%rax
    b6ef:	48 39 c1             	cmp    %rax,%rcx
    b6f2:	0f 94 c0             	sete   %al
    b6f5:	89 c1                	mov    %eax,%ecx
    b6f7:	48 8b 85 f0 ed ff ff 	mov    -0x1210(%rbp),%rax
    b6fe:	c6 00 ff             	movb   $0xff,(%rax)
    b701:	48 8b 85 f0 ed ff ff 	mov    -0x1210(%rbp),%rax
    b708:	0f b6 00             	movzbl (%rax),%eax
    b70b:	0f b6 c0             	movzbl %al,%eax
    b70e:	89 85 7c eb ff ff    	mov    %eax,-0x1484(%rbp)
    b714:	8b 85 7c eb ff ff    	mov    -0x1484(%rbp),%eax
    b71a:	09 c8                	or     %ecx,%eax
    b71c:	0f be c0             	movsbl %al,%eax
    b71f:	89 d6                	mov    %edx,%esi
    b721:	89 c7                	mov    %eax,%edi
    b723:	e8 ea aa ff ff       	callq  6212 <safe_mul_func_int8_t_s_s>
    b728:	0f be c0             	movsbl %al,%eax
    b72b:	89 85 34 ef ff ff    	mov    %eax,-0x10cc(%rbp)
    b731:	0f b7 85 4c eb ff ff 	movzwl -0x14b4(%rbp),%eax
    b738:	89 85 80 eb ff ff    	mov    %eax,-0x1480(%rbp)
    b73e:	8b 85 80 eb ff ff    	mov    -0x1480(%rbp),%eax
    b744:	48 98                	cltq   
    b746:	4c 89 e6             	mov    %r12,%rsi
    b749:	48 89 c7             	mov    %rax,%rdi
    b74c:	e8 63 b2 ff ff       	callq  69b4 <safe_mod_func_int64_t_s_s>
    b751:	48 85 c0             	test   %rax,%rax
    b754:	0f 95 c0             	setne  %al
    b757:	0f b6 c0             	movzbl %al,%eax
    b75a:	be 05 00 00 00       	mov    $0x5,%esi
    b75f:	89 c7                	mov    %eax,%edi
    b761:	e8 58 b5 ff ff       	callq  6cbe <safe_rshift_func_uint8_t_u_u>
    b766:	0f b6 c0             	movzbl %al,%eax
    b769:	89 de                	mov    %ebx,%esi
    b76b:	89 c7                	mov    %eax,%edi
    b76d:	e8 8d b5 ff ff       	callq  6cff <safe_add_func_uint16_t_u_u>
    b772:	0f b6 05 49 ca 00 00 	movzbl 0xca49(%rip),%eax        # 181c2 <g_288>
    b779:	84 c0                	test   %al,%al
    b77b:	0f 94 c0             	sete   %al
    b77e:	0f b6 c0             	movzbl %al,%eax
    b781:	be 04 00 00 00       	mov    $0x4,%esi
    b786:	89 c7                	mov    %eax,%edi
    b788:	e8 eb b3 ff ff       	callq  6b78 <safe_sub_func_uint8_t_u_u>
    b78d:	0f b6 c0             	movzbl %al,%eax
    b790:	44 31 e8             	xor    %r13d,%eax
    b793:	89 c6                	mov    %eax,%esi
    b795:	bf ff ff ff ff       	mov    $0xffffffff,%edi
    b79a:	e8 17 ae ff ff       	callq  65b6 <safe_add_func_int32_t_s_s>
    b79f:	85 c0                	test   %eax,%eax
    b7a1:	0f 84 0f 0b 00 00    	je     c2b6 <func_37+0x1492>
    b7a7:	48 b8 6f 42 08 85 6b 	movabs $0x6543dc6b8508426f,%rax
    b7ae:	dc 43 65 
    b7b1:	48 89 85 98 ee ff ff 	mov    %rax,-0x1168(%rbp)
    b7b8:	c7 85 90 f5 ff ff 1d 	movl   $0xf7b8501d,-0xa70(%rbp)
    b7bf:	50 b8 f7 
    b7c2:	c7 85 94 f5 ff ff 1d 	movl   $0xf7b8501d,-0xa6c(%rbp)
    b7c9:	50 b8 f7 
    b7cc:	c7 85 98 f5 ff ff 1d 	movl   $0xf7b8501d,-0xa68(%rbp)
    b7d3:	50 b8 f7 
    b7d6:	c7 85 9c f5 ff ff 1d 	movl   $0xf7b8501d,-0xa64(%rbp)
    b7dd:	50 b8 f7 
    b7e0:	c7 85 a0 f5 ff ff 1d 	movl   $0xf7b8501d,-0xa60(%rbp)
    b7e7:	50 b8 f7 
    b7ea:	c7 85 a4 f5 ff ff 1d 	movl   $0xf7b8501d,-0xa5c(%rbp)
    b7f1:	50 b8 f7 
    b7f4:	c7 85 a8 f5 ff ff 1d 	movl   $0xf7b8501d,-0xa58(%rbp)
    b7fb:	50 b8 f7 
    b7fe:	c7 85 ac f5 ff ff 1d 	movl   $0xf7b8501d,-0xa54(%rbp)
    b805:	50 b8 f7 
    b808:	c7 85 b0 f5 ff ff 1d 	movl   $0xf7b8501d,-0xa50(%rbp)
    b80f:	50 b8 f7 
    b812:	c7 85 b4 f5 ff ff 1d 	movl   $0xf7b8501d,-0xa4c(%rbp)
    b819:	50 b8 f7 
    b81c:	c7 85 b8 f5 ff ff 1d 	movl   $0xf7b8501d,-0xa48(%rbp)
    b823:	50 b8 f7 
    b826:	c7 85 bc f5 ff ff 1d 	movl   $0xf7b8501d,-0xa44(%rbp)
    b82d:	50 b8 f7 
    b830:	c7 85 c0 f5 ff ff 1d 	movl   $0xf7b8501d,-0xa40(%rbp)
    b837:	50 b8 f7 
    b83a:	c7 85 c4 f5 ff ff 1d 	movl   $0xf7b8501d,-0xa3c(%rbp)
    b841:	50 b8 f7 
    b844:	c7 85 c8 f5 ff ff 1d 	movl   $0xf7b8501d,-0xa38(%rbp)
    b84b:	50 b8 f7 
    b84e:	c7 85 cc f5 ff ff 1d 	movl   $0xf7b8501d,-0xa34(%rbp)
    b855:	50 b8 f7 
    b858:	c7 85 d0 f5 ff ff 1d 	movl   $0xf7b8501d,-0xa30(%rbp)
    b85f:	50 b8 f7 
    b862:	c7 85 d4 f5 ff ff 1d 	movl   $0xf7b8501d,-0xa2c(%rbp)
    b869:	50 b8 f7 
    b86c:	c7 85 d8 f5 ff ff 1d 	movl   $0xf7b8501d,-0xa28(%rbp)
    b873:	50 b8 f7 
    b876:	c7 85 dc f5 ff ff 1d 	movl   $0xf7b8501d,-0xa24(%rbp)
    b87d:	50 b8 f7 
    b880:	c7 85 e0 f5 ff ff 1d 	movl   $0xf7b8501d,-0xa20(%rbp)
    b887:	50 b8 f7 
    b88a:	c7 85 e4 f5 ff ff 1d 	movl   $0xf7b8501d,-0xa1c(%rbp)
    b891:	50 b8 f7 
    b894:	c7 85 e8 f5 ff ff 1d 	movl   $0xf7b8501d,-0xa18(%rbp)
    b89b:	50 b8 f7 
    b89e:	c7 85 ec f5 ff ff 1d 	movl   $0xf7b8501d,-0xa14(%rbp)
    b8a5:	50 b8 f7 
    b8a8:	c7 85 f0 f5 ff ff 1d 	movl   $0xf7b8501d,-0xa10(%rbp)
    b8af:	50 b8 f7 
    b8b2:	c7 85 f4 f5 ff ff 1d 	movl   $0xf7b8501d,-0xa0c(%rbp)
    b8b9:	50 b8 f7 
    b8bc:	c7 85 f8 f5 ff ff 1d 	movl   $0xf7b8501d,-0xa08(%rbp)
    b8c3:	50 b8 f7 
    b8c6:	c7 85 fc f5 ff ff 1d 	movl   $0xf7b8501d,-0xa04(%rbp)
    b8cd:	50 b8 f7 
    b8d0:	c7 85 00 f6 ff ff 1d 	movl   $0xf7b8501d,-0xa00(%rbp)
    b8d7:	50 b8 f7 
    b8da:	c7 85 04 f6 ff ff 1d 	movl   $0xf7b8501d,-0x9fc(%rbp)
    b8e1:	50 b8 f7 
    b8e4:	c7 85 08 f6 ff ff 1d 	movl   $0xf7b8501d,-0x9f8(%rbp)
    b8eb:	50 b8 f7 
    b8ee:	c7 85 0c f6 ff ff 1d 	movl   $0xf7b8501d,-0x9f4(%rbp)
    b8f5:	50 b8 f7 
    b8f8:	c7 85 10 f6 ff ff 1d 	movl   $0xf7b8501d,-0x9f0(%rbp)
    b8ff:	50 b8 f7 
    b902:	c7 85 14 f6 ff ff 1d 	movl   $0xf7b8501d,-0x9ec(%rbp)
    b909:	50 b8 f7 
    b90c:	c7 85 18 f6 ff ff 1d 	movl   $0xf7b8501d,-0x9e8(%rbp)
    b913:	50 b8 f7 
    b916:	c7 85 1c f6 ff ff 1d 	movl   $0xf7b8501d,-0x9e4(%rbp)
    b91d:	50 b8 f7 
    b920:	c7 85 20 f6 ff ff 1d 	movl   $0xf7b8501d,-0x9e0(%rbp)
    b927:	50 b8 f7 
    b92a:	c7 85 24 f6 ff ff 1d 	movl   $0xf7b8501d,-0x9dc(%rbp)
    b931:	50 b8 f7 
    b934:	c7 85 28 f6 ff ff 1d 	movl   $0xf7b8501d,-0x9d8(%rbp)
    b93b:	50 b8 f7 
    b93e:	c7 85 2c f6 ff ff 1d 	movl   $0xf7b8501d,-0x9d4(%rbp)
    b945:	50 b8 f7 
    b948:	c7 85 30 f6 ff ff 1d 	movl   $0xf7b8501d,-0x9d0(%rbp)
    b94f:	50 b8 f7 
    b952:	c7 85 34 f6 ff ff 1d 	movl   $0xf7b8501d,-0x9cc(%rbp)
    b959:	50 b8 f7 
    b95c:	c7 85 38 f6 ff ff 1d 	movl   $0xf7b8501d,-0x9c8(%rbp)
    b963:	50 b8 f7 
    b966:	c7 85 3c f6 ff ff 1d 	movl   $0xf7b8501d,-0x9c4(%rbp)
    b96d:	50 b8 f7 
    b970:	c7 85 40 f6 ff ff 1d 	movl   $0xf7b8501d,-0x9c0(%rbp)
    b977:	50 b8 f7 
    b97a:	c7 85 44 f6 ff ff 1d 	movl   $0xf7b8501d,-0x9bc(%rbp)
    b981:	50 b8 f7 
    b984:	c7 85 48 f6 ff ff 1d 	movl   $0xf7b8501d,-0x9b8(%rbp)
    b98b:	50 b8 f7 
    b98e:	c7 85 4c f6 ff ff 1d 	movl   $0xf7b8501d,-0x9b4(%rbp)
    b995:	50 b8 f7 
    b998:	c7 85 50 f6 ff ff 1d 	movl   $0xf7b8501d,-0x9b0(%rbp)
    b99f:	50 b8 f7 
    b9a2:	c7 85 54 f6 ff ff 1d 	movl   $0xf7b8501d,-0x9ac(%rbp)
    b9a9:	50 b8 f7 
    b9ac:	c7 85 58 f6 ff ff 1d 	movl   $0xf7b8501d,-0x9a8(%rbp)
    b9b3:	50 b8 f7 
    b9b6:	c7 85 5c f6 ff ff 1d 	movl   $0xf7b8501d,-0x9a4(%rbp)
    b9bd:	50 b8 f7 
    b9c0:	c7 85 60 f6 ff ff 1d 	movl   $0xf7b8501d,-0x9a0(%rbp)
    b9c7:	50 b8 f7 
    b9ca:	c7 85 64 f6 ff ff 1d 	movl   $0xf7b8501d,-0x99c(%rbp)
    b9d1:	50 b8 f7 
    b9d4:	c7 85 68 f6 ff ff 1d 	movl   $0xf7b8501d,-0x998(%rbp)
    b9db:	50 b8 f7 
    b9de:	c7 85 6c f6 ff ff 1d 	movl   $0xf7b8501d,-0x994(%rbp)
    b9e5:	50 b8 f7 
    b9e8:	c7 85 70 f6 ff ff 1d 	movl   $0xf7b8501d,-0x990(%rbp)
    b9ef:	50 b8 f7 
    b9f2:	c7 85 74 f6 ff ff 1d 	movl   $0xf7b8501d,-0x98c(%rbp)
    b9f9:	50 b8 f7 
    b9fc:	c7 85 78 f6 ff ff 1d 	movl   $0xf7b8501d,-0x988(%rbp)
    ba03:	50 b8 f7 
    ba06:	c7 85 7c f6 ff ff 1d 	movl   $0xf7b8501d,-0x984(%rbp)
    ba0d:	50 b8 f7 
    ba10:	c7 85 80 f6 ff ff 1d 	movl   $0xf7b8501d,-0x980(%rbp)
    ba17:	50 b8 f7 
    ba1a:	c7 85 84 f6 ff ff 1d 	movl   $0xf7b8501d,-0x97c(%rbp)
    ba21:	50 b8 f7 
    ba24:	c7 85 88 f6 ff ff 1d 	movl   $0xf7b8501d,-0x978(%rbp)
    ba2b:	50 b8 f7 
    ba2e:	c7 85 8c f6 ff ff 1d 	movl   $0xf7b8501d,-0x974(%rbp)
    ba35:	50 b8 f7 
    ba38:	c6 85 76 eb ff ff 00 	movb   $0x0,-0x148a(%rbp)
    ba3f:	48 c7 85 a0 ee ff ff 	movq   $0x0,-0x1160(%rbp)
    ba46:	00 00 00 00 
    ba4a:	c7 85 c8 eb ff ff 00 	movl   $0x0,-0x1438(%rbp)
    ba51:	00 00 00 
    ba54:	eb 1a                	jmp    ba70 <func_37+0xc4c>
    ba56:	8b 85 c8 eb ff ff    	mov    -0x1438(%rbp),%eax
    ba5c:	48 98                	cltq   
    ba5e:	c7 84 85 40 ef ff ff 	movl   $0xfffffffa,-0x10c0(%rbp,%rax,4)
    ba65:	fa ff ff ff 
    ba69:	83 85 c8 eb ff ff 01 	addl   $0x1,-0x1438(%rbp)
    ba70:	83 bd c8 eb ff ff 00 	cmpl   $0x0,-0x1438(%rbp)
    ba77:	7e dd                	jle    ba56 <func_37+0xc32>
    ba79:	c7 85 c8 eb ff ff 00 	movl   $0x0,-0x1438(%rbp)
    ba80:	00 00 00 
    ba83:	eb 19                	jmp    ba9e <func_37+0xc7a>
    ba85:	8b 85 c8 eb ff ff    	mov    -0x1438(%rbp),%eax
    ba8b:	48 98                	cltq   
    ba8d:	66 c7 84 45 80 ef ff 	movw   $0xfffd,-0x1080(%rbp,%rax,2)
    ba94:	ff fd ff 
    ba97:	83 85 c8 eb ff ff 01 	addl   $0x1,-0x1438(%rbp)
    ba9e:	83 bd c8 eb ff ff 02 	cmpl   $0x2,-0x1438(%rbp)
    baa5:	7e de                	jle    ba85 <func_37+0xc61>
    baa7:	48 c7 05 a6 c5 00 00 	movq   $0x3,0xc5a6(%rip)        # 18058 <g_146>
    baae:	03 00 00 00 
    bab2:	90                   	nop
    bab3:	48 8b 05 9e c5 00 00 	mov    0xc59e(%rip),%rax        # 18058 <g_146>
    baba:	48 85 c0             	test   %rax,%rax
    babd:	0f 88 59 07 00 00    	js     c21c <func_37+0x13f8>
    bac3:	c7 85 d8 ec ff ff 00 	movl   $0x0,-0x1328(%rbp)
    baca:	00 00 00 
    bacd:	48 b8 bf de f2 31 a1 	movabs $0x6de3d2a131f2debf,%rax
    bad4:	d2 e3 6d 
    bad7:	48 89 85 a8 ee ff ff 	mov    %rax,-0x1158(%rbp)
    bade:	48 8d 05 2b e6 00 00 	lea    0xe62b(%rip),%rax        # 1a110 <g_277>
    bae5:	48 89 85 70 f0 ff ff 	mov    %rax,-0xf90(%rbp)
    baec:	48 8d 05 1d e6 00 00 	lea    0xe61d(%rip),%rax        # 1a110 <g_277>
    baf3:	48 89 85 78 f0 ff ff 	mov    %rax,-0xf88(%rbp)
    bafa:	48 8d 05 0f e6 00 00 	lea    0xe60f(%rip),%rax        # 1a110 <g_277>
    bb01:	48 89 85 80 f0 ff ff 	mov    %rax,-0xf80(%rbp)
    bb08:	48 8d 05 01 e6 00 00 	lea    0xe601(%rip),%rax        # 1a110 <g_277>
    bb0f:	48 89 85 88 f0 ff ff 	mov    %rax,-0xf78(%rbp)
    bb16:	48 8d 05 f3 e5 00 00 	lea    0xe5f3(%rip),%rax        # 1a110 <g_277>
    bb1d:	48 89 85 90 f0 ff ff 	mov    %rax,-0xf70(%rbp)
    bb24:	48 8d 05 e5 e5 00 00 	lea    0xe5e5(%rip),%rax        # 1a110 <g_277>
    bb2b:	48 89 85 98 f0 ff ff 	mov    %rax,-0xf68(%rbp)
    bb32:	48 8d 05 d7 e5 00 00 	lea    0xe5d7(%rip),%rax        # 1a110 <g_277>
    bb39:	48 89 85 a0 f0 ff ff 	mov    %rax,-0xf60(%rbp)
    bb40:	48 8d 05 c9 e5 00 00 	lea    0xe5c9(%rip),%rax        # 1a110 <g_277>
    bb47:	48 89 85 a8 f0 ff ff 	mov    %rax,-0xf58(%rbp)
    bb4e:	48 8d 05 df c4 00 00 	lea    0xc4df(%rip),%rax        # 18034 <g_30>
    bb55:	48 89 85 20 f1 ff ff 	mov    %rax,-0xee0(%rbp)
    bb5c:	48 8d 05 d1 c4 00 00 	lea    0xc4d1(%rip),%rax        # 18034 <g_30>
    bb63:	48 89 85 28 f1 ff ff 	mov    %rax,-0xed8(%rbp)
    bb6a:	48 8d 05 c3 c4 00 00 	lea    0xc4c3(%rip),%rax        # 18034 <g_30>
    bb71:	48 89 85 30 f1 ff ff 	mov    %rax,-0xed0(%rbp)
    bb78:	48 8d 05 b5 c4 00 00 	lea    0xc4b5(%rip),%rax        # 18034 <g_30>
    bb7f:	48 89 85 38 f1 ff ff 	mov    %rax,-0xec8(%rbp)
    bb86:	48 8d 05 a7 c4 00 00 	lea    0xc4a7(%rip),%rax        # 18034 <g_30>
    bb8d:	48 89 85 40 f1 ff ff 	mov    %rax,-0xec0(%rbp)
    bb94:	48 8d 05 99 c4 00 00 	lea    0xc499(%rip),%rax        # 18034 <g_30>
    bb9b:	48 89 85 48 f1 ff ff 	mov    %rax,-0xeb8(%rbp)
    bba2:	48 8d 05 8b c4 00 00 	lea    0xc48b(%rip),%rax        # 18034 <g_30>
    bba9:	48 89 85 50 f1 ff ff 	mov    %rax,-0xeb0(%rbp)
    bbb0:	48 8d 05 7d c4 00 00 	lea    0xc47d(%rip),%rax        # 18034 <g_30>
    bbb7:	48 89 85 58 f1 ff ff 	mov    %rax,-0xea8(%rbp)
    bbbe:	c7 85 cc eb ff ff 00 	movl   $0x0,-0x1434(%rbp)
    bbc5:	00 00 00 
    bbc8:	eb 1a                	jmp    bbe4 <func_37+0xdc0>
    bbca:	8b 85 cc eb ff ff    	mov    -0x1434(%rbp),%eax
    bbd0:	48 98                	cltq   
    bbd2:	c7 84 85 00 f0 ff ff 	movl   $0x1,-0x1000(%rbp,%rax,4)
    bbd9:	01 00 00 00 
    bbdd:	83 85 cc eb ff ff 01 	addl   $0x1,-0x1434(%rbp)
    bbe4:	83 bd cc eb ff ff 01 	cmpl   $0x1,-0x1434(%rbp)
    bbeb:	7e dd                	jle    bbca <func_37+0xda6>
    bbed:	48 8d 85 34 ef ff ff 	lea    -0x10cc(%rbp),%rax
    bbf4:	48 89 05 2d e5 00 00 	mov    %rax,0xe52d(%rip)        # 1a128 <g_326>
    bbfb:	c7 05 47 c4 00 00 00 	movl   $0x0,0xc447(%rip)        # 1804c <g_115>
    bc02:	00 00 00 
    bc05:	e9 6d 01 00 00       	jmpq   bd77 <func_37+0xf53>
    bc0a:	48 b8 de 10 b6 62 40 	movabs $0x7bb3a24062b610de,%rax
    bc11:	a2 b3 7b 
    bc14:	48 89 85 10 ef ff ff 	mov    %rax,-0x10f0(%rbp)
    bc1b:	c7 85 e0 ec ff ff fa 	movl   $0xfffffffa,-0x1320(%rbp)
    bc22:	ff ff ff 
    bc25:	c7 85 d0 eb ff ff 00 	movl   $0x0,-0x1430(%rbp)
    bc2c:	00 00 00 
    bc2f:	eb 1a                	jmp    bc4b <func_37+0xe27>
    bc31:	8b 85 d0 eb ff ff    	mov    -0x1430(%rbp),%eax
    bc37:	48 98                	cltq   
    bc39:	c7 84 85 f0 f8 ff ff 	movl   $0x7,-0x710(%rbp,%rax,4)
    bc40:	07 00 00 00 
    bc44:	83 85 d0 eb ff ff 01 	addl   $0x1,-0x1430(%rbp)
    bc4b:	83 bd d0 eb ff ff 01 	cmpl   $0x1,-0x1430(%rbp)
    bc52:	7e dd                	jle    bc31 <func_37+0xe0d>
    bc54:	8b 05 da c3 00 00    	mov    0xc3da(%rip),%eax        # 18034 <g_30>
    bc5a:	98                   	cwtl   
    bc5b:	be 04 00 00 00       	mov    $0x4,%esi
    bc60:	89 c7                	mov    %eax,%edi
    bc62:	e8 fc a8 ff ff       	callq  6563 <safe_rshift_func_int16_t_s_u>
    bc67:	48 0f bf d8          	movswq %ax,%rbx
    bc6b:	48 8b 85 10 ef ff ff 	mov    -0x10f0(%rbp),%rax
    bc72:	89 c2                	mov    %eax,%edx
    bc74:	0f b7 85 4c eb ff ff 	movzwl -0x14b4(%rbp),%eax
    bc7b:	89 d6                	mov    %edx,%esi
    bc7d:	89 c7                	mov    %eax,%edi
    bc7f:	e8 4c b2 ff ff       	callq  6ed0 <safe_sub_func_uint32_t_u_u>
    bc84:	48 8b 85 58 eb ff ff 	mov    -0x14a8(%rbp),%rax
    bc8b:	48 f7 d0             	not    %rax
    bc8e:	48 89 de             	mov    %rbx,%rsi
    bc91:	48 89 c7             	mov    %rax,%rdi
    bc94:	e8 0f ac ff ff       	callq  68a8 <safe_sub_func_int64_t_s_s>
    bc99:	48 c7 85 18 ef ff ff 	movq   $0x0,-0x10e8(%rbp)
    bca0:	00 00 00 00 
    bca4:	48 8d 05 7d e4 00 00 	lea    0xe47d(%rip),%rax        # 1a128 <g_326>
    bcab:	48 89 85 20 ef ff ff 	mov    %rax,-0x10e0(%rbp)
    bcb2:	48 8b 85 98 ec ff ff 	mov    -0x1368(%rbp),%rax
    bcb9:	48 c7 00 00 00 00 00 	movq   $0x0,(%rax)
    bcc0:	48 8b 85 20 ef ff ff 	mov    -0x10e0(%rbp),%rax
    bcc7:	48 c7 00 00 00 00 00 	movq   $0x0,(%rax)
    bcce:	8b 05 78 c3 00 00    	mov    0xc378(%rip),%eax        # 1804c <g_115>
    bcd4:	48 98                	cltq   
    bcd6:	8b 94 85 34 ef ff ff 	mov    -0x10cc(%rbp,%rax,4),%edx
    bcdd:	8b 05 69 c3 00 00    	mov    0xc369(%rip),%eax        # 1804c <g_115>
    bce3:	81 f2 3e 99 d4 27    	xor    $0x27d4993e,%edx
    bce9:	48 98                	cltq   
    bceb:	89 94 85 34 ef ff ff 	mov    %edx,-0x10cc(%rbp,%rax,4)
    bcf2:	c6 05 c9 c4 00 00 f4 	movb   $0xf4,0xc4c9(%rip)        # 181c2 <g_288>
    bcf9:	eb 62                	jmp    bd5d <func_37+0xf39>
    bcfb:	48 8d 85 34 ef ff ff 	lea    -0x10cc(%rbp),%rax
    bd02:	48 89 85 f8 ec ff ff 	mov    %rax,-0x1308(%rbp)
    bd09:	48 8d 85 f8 ec ff ff 	lea    -0x1308(%rbp),%rax
    bd10:	48 89 85 28 ef ff ff 	mov    %rax,-0x10d8(%rbp)
    bd17:	48 8b 85 58 eb ff ff 	mov    -0x14a8(%rbp),%rax
    bd1e:	89 85 80 eb ff ff    	mov    %eax,-0x1480(%rbp)
    bd24:	48 8b 85 f8 ec ff ff 	mov    -0x1308(%rbp),%rax
    bd2b:	8b 10                	mov    (%rax),%edx
    bd2d:	48 8b 85 f8 ec ff ff 	mov    -0x1308(%rbp),%rax
    bd34:	81 f2 0b d6 bc de    	xor    $0xdebcd60b,%edx
    bd3a:	89 10                	mov    %edx,(%rax)
    bd3c:	48 8b 85 28 ef ff ff 	mov    -0x10d8(%rbp),%rax
    bd43:	48 8b 95 50 eb ff ff 	mov    -0x14b0(%rbp),%rdx
    bd4a:	48 89 10             	mov    %rdx,(%rax)
    bd4d:	0f b6 05 6e c4 00 00 	movzbl 0xc46e(%rip),%eax        # 181c2 <g_288>
    bd54:	83 c0 01             	add    $0x1,%eax
    bd57:	88 05 65 c4 00 00    	mov    %al,0xc465(%rip)        # 181c2 <g_288>
    bd5d:	0f b6 05 5e c4 00 00 	movzbl 0xc45e(%rip),%eax        # 181c2 <g_288>
    bd64:	3c 03                	cmp    $0x3,%al
    bd66:	77 93                	ja     bcfb <func_37+0xed7>
    bd68:	8b 05 de c2 00 00    	mov    0xc2de(%rip),%eax        # 1804c <g_115>
    bd6e:	83 e8 01             	sub    $0x1,%eax
    bd71:	89 05 d5 c2 00 00    	mov    %eax,0xc2d5(%rip)        # 1804c <g_115>
    bd77:	8b 05 cf c2 00 00    	mov    0xc2cf(%rip),%eax        # 1804c <g_115>
    bd7d:	85 c0                	test   %eax,%eax
    bd7f:	0f 89 85 fe ff ff    	jns    bc0a <func_37+0xde6>
    bd85:	48 8b 85 f0 ed ff ff 	mov    -0x1210(%rbp),%rax
    bd8c:	0f b6 00             	movzbl (%rax),%eax
    bd8f:	8d 48 01             	lea    0x1(%rax),%ecx
    bd92:	48 8b 95 f0 ed ff ff 	mov    -0x1210(%rbp),%rdx
    bd99:	88 0a                	mov    %cl,(%rdx)
    bd9b:	0f be d8             	movsbl %al,%ebx
    bd9e:	0f b6 05 a4 c2 00 00 	movzbl 0xc2a4(%rip),%eax        # 18049 <g_97>
    bda5:	66 98                	cbtw   
    bda7:	0f b7 c0             	movzwl %ax,%eax
    bdaa:	be 0a 00 00 00       	mov    $0xa,%esi
    bdaf:	89 c7                	mov    %eax,%edi
    bdb1:	e8 50 b0 ff ff       	callq  6e06 <safe_lshift_func_uint16_t_u_u>
    bdb6:	0f b7 d0             	movzwl %ax,%edx
    bdb9:	8b 85 d8 ec ff ff    	mov    -0x1328(%rbp),%eax
    bdbf:	09 d0                	or     %edx,%eax
    bdc1:	89 85 d8 ec ff ff    	mov    %eax,-0x1328(%rbp)
    bdc7:	8b 85 d8 ec ff ff    	mov    -0x1328(%rbp),%eax
    bdcd:	3d f6 08 00 00       	cmp    $0x8f6,%eax
    bdd2:	0f 95 c0             	setne  %al
    bdd5:	0f b6 c0             	movzbl %al,%eax
    bdd8:	89 de                	mov    %ebx,%esi
    bdda:	89 c7                	mov    %eax,%edi
    bddc:	e8 f3 a3 ff ff       	callq  61d4 <safe_add_func_int8_t_s_s>
    bde1:	83 f0 03             	xor    $0x3,%eax
    bde4:	0f be d8             	movsbl %al,%ebx
    bde7:	48 8b 85 98 ee ff ff 	mov    -0x1168(%rbp),%rax
    bdee:	0f be c0             	movsbl %al,%eax
    bdf1:	be 05 00 00 00       	mov    $0x5,%esi
    bdf6:	89 c7                	mov    %eax,%edi
    bdf8:	e8 f1 a4 ff ff       	callq  62ee <safe_lshift_func_int8_t_s_u>
    bdfd:	3c 08                	cmp    $0x8,%al
    bdff:	0f 96 c0             	setbe  %al
    be02:	0f b6 d0             	movzbl %al,%edx
    be05:	8b 05 55 c2 00 00    	mov    0xc255(%rip),%eax        # 18060 <g_151>
    be0b:	39 c2                	cmp    %eax,%edx
    be0d:	0f 97 c0             	seta   %al
    be10:	0f b6 c0             	movzbl %al,%eax
    be13:	39 c3                	cmp    %eax,%ebx
    be15:	0f 85 12 02 00 00    	jne    c02d <func_37+0x1209>
    be1b:	c6 85 77 eb ff ff 43 	movb   $0x43,-0x1489(%rbp)
    be22:	c7 85 38 ec ff ff b0 	movl   $0x9ffaabb0,-0x13c8(%rbp)
    be29:	ab fa 9f 
    be2c:	c7 85 3c ec ff ff fc 	movl   $0xfffffffc,-0x13c4(%rbp)
    be33:	ff ff ff 
    be36:	c7 85 40 ec ff ff 6a 	movl   $0xcf6f0b6a,-0x13c0(%rbp)
    be3d:	0b 6f cf 
    be40:	c7 85 44 ec ff ff 01 	movl   $0x1,-0x13bc(%rbp)
    be47:	00 00 00 
    be4a:	c7 85 48 ec ff ff f9 	movl   $0xfffffff9,-0x13b8(%rbp)
    be51:	ff ff ff 
    be54:	c7 85 4c ec ff ff f2 	movl   $0xca9a6ff2,-0x13b4(%rbp)
    be5b:	6f 9a ca 
    be5e:	c7 85 50 ec ff ff ff 	movl   $0xffffffff,-0x13b0(%rbp)
    be65:	ff ff ff 
    be68:	c7 85 54 ec ff ff 4c 	movl   $0xaf635c4c,-0x13ac(%rbp)
    be6f:	5c 63 af 
    be72:	c7 85 58 ec ff ff 82 	movl   $0x31fd7082,-0x13a8(%rbp)
    be79:	70 fd 31 
    be7c:	c7 85 5c ec ff ff ff 	movl   $0xffffffff,-0x13a4(%rbp)
    be83:	ff ff ff 
    be86:	c7 85 60 ec ff ff 10 	movl   $0xe29bb10,-0x13a0(%rbp)
    be8d:	bb 29 0e 
    be90:	c7 85 64 ec ff ff 50 	movl   $0x2e521950,-0x139c(%rbp)
    be97:	19 52 2e 
    be9a:	c7 85 b4 eb ff ff 00 	movl   $0x0,-0x144c(%rbp)
    bea1:	00 00 00 
    bea4:	eb 14                	jmp    beba <func_37+0x1096>
    bea6:	8b 85 b4 eb ff ff    	mov    -0x144c(%rbp),%eax
    beac:	48 98                	cltq   
    beae:	c6 44 05 bf 80       	movb   $0x80,-0x41(%rbp,%rax,1)
    beb3:	83 85 b4 eb ff ff 01 	addl   $0x1,-0x144c(%rbp)
    beba:	83 bd b4 eb ff ff 08 	cmpl   $0x8,-0x144c(%rbp)
    bec1:	7e e3                	jle    bea6 <func_37+0x1082>
    bec3:	0f b7 9d 4c eb ff ff 	movzwl -0x14b4(%rbp),%ebx
    beca:	48 8b 85 a8 ee ff ff 	mov    -0x1158(%rbp),%rax
    bed1:	44 0f be e0          	movsbl %al,%r12d
    bed5:	0f be 85 77 eb ff ff 	movsbl -0x1489(%rbp),%eax
    bedc:	89 c6                	mov    %eax,%esi
    bede:	bf 01 00 00 00       	mov    $0x1,%edi
    bee3:	e8 49 a3 ff ff       	callq  6231 <safe_mod_func_int8_t_s_s>
    bee8:	0f be d0             	movsbl %al,%edx
    beeb:	48 8b 05 26 e2 00 00 	mov    0xe226(%rip),%rax        # 1a118 <g_275>
    bef2:	48 8b 00             	mov    (%rax),%rax
    bef5:	48 8b 00             	mov    (%rax),%rax
    bef8:	0f b6 00             	movzbl (%rax),%eax
    befb:	0f be c0             	movsbl %al,%eax
    befe:	89 d6                	mov    %edx,%esi
    bf00:	89 c7                	mov    %eax,%edi
    bf02:	e8 cd a2 ff ff       	callq  61d4 <safe_add_func_int8_t_s_s>
    bf07:	44 89 e6             	mov    %r12d,%esi
    bf0a:	bf 01 00 00 00       	mov    $0x1,%edi
    bf0f:	e8 fe a2 ff ff       	callq  6212 <safe_mul_func_int8_t_s_s>
    bf14:	48 8b 05 3d c1 00 00 	mov    0xc13d(%rip),%rax        # 18058 <g_146>
    bf1b:	98                   	cwtl   
    bf1c:	be 01 00 00 00       	mov    $0x1,%esi
    bf21:	89 c7                	mov    %eax,%edi
    bf23:	e8 ab a4 ff ff       	callq  63d3 <safe_sub_func_int16_t_s_s>
    bf28:	0f be 85 77 eb ff ff 	movsbl -0x1489(%rbp),%eax
    bf2f:	89 de                	mov    %ebx,%esi
    bf31:	89 c7                	mov    %eax,%edi
    bf33:	e8 f2 a5 ff ff       	callq  652a <safe_rshift_func_int16_t_s_s>
    bf38:	66 85 c0             	test   %ax,%ax
    bf3b:	74 61                	je     bf9e <func_37+0x117a>
    bf3d:	48 8d 85 80 eb ff ff 	lea    -0x1480(%rbp),%rax
    bf44:	48 89 85 f0 f8 ff ff 	mov    %rax,-0x710(%rbp)
    bf4b:	48 8d 85 80 eb ff ff 	lea    -0x1480(%rbp),%rax
    bf52:	48 89 85 f8 f8 ff ff 	mov    %rax,-0x708(%rbp)
    bf59:	48 8d 85 80 eb ff ff 	lea    -0x1480(%rbp),%rax
    bf60:	48 89 85 00 f9 ff ff 	mov    %rax,-0x700(%rbp)
    bf67:	48 8d 85 80 eb ff ff 	lea    -0x1480(%rbp),%rax
    bf6e:	48 89 85 08 f9 ff ff 	mov    %rax,-0x6f8(%rbp)
    bf75:	48 8d 85 80 eb ff ff 	lea    -0x1480(%rbp),%rax
    bf7c:	48 89 85 10 f9 ff ff 	mov    %rax,-0x6f0(%rbp)
    bf83:	8b 85 40 ef ff ff    	mov    -0x10c0(%rbp),%eax
    bf89:	83 e8 01             	sub    $0x1,%eax
    bf8c:	89 85 40 ef ff ff    	mov    %eax,-0x10c0(%rbp)
    bf92:	48 8b 85 50 f1 ff ff 	mov    -0xeb0(%rbp),%rax
    bf99:	e9 69 42 00 00       	jmpq   10207 <func_37+0x53e3>
    bf9e:	48 c7 85 e8 ee ff ff 	movq   $0x0,-0x1118(%rbp)
    bfa5:	00 00 00 00 
    bfa9:	48 c7 85 f0 ee ff ff 	movq   $0x0,-0x1110(%rbp)
    bfb0:	00 00 00 00 
    bfb4:	48 8d 05 bd c0 00 00 	lea    0xc0bd(%rip),%rax        # 18078 <g_247>
    bfbb:	48 89 85 f8 ee ff ff 	mov    %rax,-0x1108(%rbp)
    bfc2:	48 8d 85 34 ef ff ff 	lea    -0x10cc(%rbp),%rax
    bfc9:	48 89 85 00 ef ff ff 	mov    %rax,-0x1100(%rbp)
    bfd0:	48 8d 85 d8 ec ff ff 	lea    -0x1328(%rbp),%rax
    bfd7:	48 89 85 08 ef ff ff 	mov    %rax,-0x10f8(%rbp)
    bfde:	c7 85 84 eb ff ff 00 	movl   $0x0,-0x147c(%rbp)
    bfe5:	00 00 00 
    bfe8:	eb 1e                	jmp    c008 <func_37+0x11e4>
    bfea:	8b 85 84 eb ff ff    	mov    -0x147c(%rbp),%eax
    bff0:	48 98                	cltq   
    bff2:	48 8d 15 7f c0 00 00 	lea    0xc07f(%rip),%rdx        # 18078 <g_247>
    bff9:	48 89 94 c5 f0 f8 ff 	mov    %rdx,-0x710(%rbp,%rax,8)
    c000:	ff 
    c001:	83 85 84 eb ff ff 01 	addl   $0x1,-0x147c(%rbp)
    c008:	83 bd 84 eb ff ff 02 	cmpl   $0x2,-0x147c(%rbp)
    c00f:	7e d9                	jle    bfea <func_37+0x11c6>
    c011:	0f b6 85 76 eb ff ff 	movzbl -0x148a(%rbp),%eax
    c018:	83 e8 01             	sub    $0x1,%eax
    c01b:	88 85 76 eb ff ff    	mov    %al,-0x148a(%rbp)
    c021:	48 8d 05 38 c0 00 00 	lea    0xc038(%rip),%rax        # 18060 <g_151>
    c028:	e9 da 41 00 00       	jmpq   10207 <func_37+0x53e3>
    c02d:	48 8d 85 34 ef ff ff 	lea    -0x10cc(%rbp),%rax
    c034:	48 89 85 b0 ee ff ff 	mov    %rax,-0x1150(%rbp)
    c03b:	48 c7 85 b8 ee ff ff 	movq   $0x0,-0x1148(%rbp)
    c042:	00 00 00 00 
    c046:	48 8d 85 30 f0 ff ff 	lea    -0xfd0(%rbp),%rax
    c04d:	48 89 85 c0 ee ff ff 	mov    %rax,-0x1140(%rbp)
    c054:	48 8d 85 90 f5 ff ff 	lea    -0xa70(%rbp),%rax
    c05b:	48 05 fc 00 00 00    	add    $0xfc,%rax
    c061:	48 89 85 c8 ee ff ff 	mov    %rax,-0x1138(%rbp)
    c068:	48 8d 85 90 f5 ff ff 	lea    -0xa70(%rbp),%rax
    c06f:	48 05 fc 00 00 00    	add    $0xfc,%rax
    c075:	48 89 85 d0 ee ff ff 	mov    %rax,-0x1130(%rbp)
    c07c:	48 c7 85 d8 ee ff ff 	movq   $0x0,-0x1128(%rbp)
    c083:	00 00 00 00 
    c087:	48 8d 85 30 f0 ff ff 	lea    -0xfd0(%rbp),%rax
    c08e:	48 89 85 e0 ee ff ff 	mov    %rax,-0x1120(%rbp)
    c095:	48 8d 95 f0 f8 ff ff 	lea    -0x710(%rbp),%rdx
    c09c:	b8 00 00 00 00       	mov    $0x0,%eax
    c0a1:	b9 50 00 00 00       	mov    $0x50,%ecx
    c0a6:	48 89 d7             	mov    %rdx,%rdi
    c0a9:	f3 48 ab             	rep stos %rax,%es:(%rdi)
    c0ac:	c7 85 88 eb ff ff 00 	movl   $0x0,-0x1478(%rbp)
    c0b3:	00 00 00 
    c0b6:	eb 14                	jmp    c0cc <func_37+0x12a8>
    c0b8:	8b 85 88 eb ff ff    	mov    -0x1478(%rbp),%eax
    c0be:	48 98                	cltq   
    c0c0:	c6 44 05 bf 01       	movb   $0x1,-0x41(%rbp,%rax,1)
    c0c5:	83 85 88 eb ff ff 01 	addl   $0x1,-0x1478(%rbp)
    c0cc:	83 bd 88 eb ff ff 04 	cmpl   $0x4,-0x1478(%rbp)
    c0d3:	7e e3                	jle    c0b8 <func_37+0x1294>
    c0d5:	0f b7 85 4c eb ff ff 	movzwl -0x14b4(%rbp),%eax
    c0dc:	0f be d8             	movsbl %al,%ebx
    c0df:	48 8b 85 58 eb ff ff 	mov    -0x14a8(%rbp),%rax
    c0e6:	44 0f b6 e0          	movzbl %al,%r12d
    c0ea:	48 8b 85 10 ed ff ff 	mov    -0x12f0(%rbp),%rax
    c0f1:	89 c6                	mov    %eax,%esi
    c0f3:	bf f9 90 04 f2       	mov    $0xf20490f9,%edi
    c0f8:	e8 08 a5 ff ff       	callq  6605 <safe_sub_func_int32_t_s_s>
    c0fd:	8b 85 d8 ec ff ff    	mov    -0x1328(%rbp),%eax
    c103:	4c 63 e8             	movslq %eax,%r13
    c106:	8b 85 40 ef ff ff    	mov    -0x10c0(%rbp),%eax
    c10c:	89 c0                	mov    %eax,%eax
    c10e:	48 89 c7             	mov    %rax,%rdi
    c111:	e8 00 a7 ff ff       	callq  6816 <safe_unary_minus_func_int64_t_s>
    c116:	0f b7 05 47 bf 00 00 	movzwl 0xbf47(%rip),%eax        # 18064 <g_201>
    c11d:	44 0f b7 f0          	movzwl %ax,%r14d
    c121:	48 83 bd 00 ee ff ff 	cmpq   $0x0,-0x1200(%rbp)
    c128:	00 
    c129:	75 0c                	jne    c137 <func_37+0x1313>
    c12b:	0f b7 85 48 eb ff ff 	movzwl -0x14b8(%rbp),%eax
    c132:	66 85 c0             	test   %ax,%ax
    c135:	74 07                	je     c13e <func_37+0x131a>
    c137:	b8 01 00 00 00       	mov    $0x1,%eax
    c13c:	eb 05                	jmp    c143 <func_37+0x131f>
    c13e:	b8 00 00 00 00       	mov    $0x0,%eax
    c143:	48 98                	cltq   
    c145:	48 8b 95 58 eb ff ff 	mov    -0x14a8(%rbp),%rdx
    c14c:	48 89 d6             	mov    %rdx,%rsi
    c14f:	48 89 c7             	mov    %rax,%rdi
    c152:	e8 58 af ff ff       	callq  70af <safe_div_func_uint64_t_u_u>
    c157:	48 89 c2             	mov    %rax,%rdx
    c15a:	48 8b 05 af df 00 00 	mov    0xdfaf(%rip),%rax        # 1a110 <g_277>
    c161:	88 10                	mov    %dl,(%rax)
    c163:	0f b6 00             	movzbl (%rax),%eax
    c166:	0f be c0             	movsbl %al,%eax
    c169:	89 c7                	mov    %eax,%edi
    c16b:	e8 4f a0 ff ff       	callq  61bf <safe_unary_minus_func_int8_t_s>
    c170:	84 c0                	test   %al,%al
    c172:	75 0a                	jne    c17e <func_37+0x135a>
    c174:	8b 05 fe be 00 00    	mov    0xbefe(%rip),%eax        # 18078 <g_247>
    c17a:	85 c0                	test   %eax,%eax
    c17c:	74 07                	je     c185 <func_37+0x1361>
    c17e:	b8 01 00 00 00       	mov    $0x1,%eax
    c183:	eb 05                	jmp    c18a <func_37+0x1366>
    c185:	b8 00 00 00 00       	mov    $0x0,%eax
    c18a:	0f b7 c0             	movzwl %ax,%eax
    c18d:	44 89 f6             	mov    %r14d,%esi
    c190:	89 c7                	mov    %eax,%edi
    c192:	e8 a6 ab ff ff       	callq  6d3d <safe_mul_func_uint16_t_u_u>
    c197:	48 8b 85 d0 ef ff ff 	mov    -0x1030(%rbp),%rax
    c19e:	48 85 c0             	test   %rax,%rax
    c1a1:	0f 95 c0             	setne  %al
    c1a4:	0f b6 c0             	movzbl %al,%eax
    c1a7:	4c 89 ee             	mov    %r13,%rsi
    c1aa:	48 89 c7             	mov    %rax,%rdi
    c1ad:	e8 f6 a6 ff ff       	callq  68a8 <safe_sub_func_int64_t_s_s>
    c1b2:	0f be c0             	movsbl %al,%eax
    c1b5:	be 01 00 00 00       	mov    $0x1,%esi
    c1ba:	89 c7                	mov    %eax,%edi
    c1bc:	e8 74 a1 ff ff       	callq  6335 <safe_rshift_func_int8_t_s_s>
    c1c1:	84 c0                	test   %al,%al
    c1c3:	74 07                	je     c1cc <func_37+0x13a8>
    c1c5:	b8 01 00 00 00       	mov    $0x1,%eax
    c1ca:	eb 05                	jmp    c1d1 <func_37+0x13ad>
    c1cc:	b8 00 00 00 00       	mov    $0x0,%eax
    c1d1:	0f b6 c0             	movzbl %al,%eax
    c1d4:	44 89 e6             	mov    %r12d,%esi
    c1d7:	89 c7                	mov    %eax,%edi
    c1d9:	e8 b5 a9 ff ff       	callq  6b93 <safe_mul_func_uint8_t_u_u>
    c1de:	48 8b 85 08 ed ff ff 	mov    -0x12f8(%rbp),%rax
    c1e5:	48 8b 00             	mov    (%rax),%rax
    c1e8:	48 8b 00             	mov    (%rax),%rax
    c1eb:	48 85 c0             	test   %rax,%rax
    c1ee:	0f 94 c0             	sete   %al
    c1f1:	0f b6 c0             	movzbl %al,%eax
    c1f4:	89 de                	mov    %ebx,%esi
    c1f6:	89 c7                	mov    %eax,%edi
    c1f8:	e8 6d a0 ff ff       	callq  626a <safe_div_func_int8_t_s_s>
    c1fd:	0f be d0             	movsbl %al,%edx
    c200:	48 8b 85 b0 ee ff ff 	mov    -0x1150(%rbp),%rax
    c207:	89 10                	mov    %edx,(%rax)
    c209:	80 85 6e eb ff ff 01 	addb   $0x1,-0x1492(%rbp)
    c210:	48 8d 05 1d be 00 00 	lea    0xbe1d(%rip),%rax        # 18034 <g_30>
    c217:	e9 eb 3f 00 00       	jmpq   10207 <func_37+0x53e3>
    c21c:	48 8b 85 00 ee ff ff 	mov    -0x1200(%rbp),%rax
    c223:	48 8d 15 4e be 00 00 	lea    0xbe4e(%rip),%rdx        # 18078 <g_247>
    c22a:	48 89 10             	mov    %rdx,(%rax)
    c22d:	0f b6 05 c7 bf 00 00 	movzbl 0xbfc7(%rip),%eax        # 181fb <g_421>
    c234:	83 e0 01             	and    $0x1,%eax
    c237:	84 c0                	test   %al,%al
    c239:	75 3f                	jne    c27a <func_37+0x1456>
    c23b:	0f b6 85 76 eb ff ff 	movzbl -0x148a(%rbp),%eax
    c242:	48 8b 95 a0 ee ff ff 	mov    -0x1160(%rbp),%rdx
    c249:	0f b7 d2             	movzwl %dx,%edx
    c24c:	83 e2 01             	and    $0x1,%edx
    c24f:	89 c6                	mov    %eax,%esi
    c251:	89 d7                	mov    %edx,%edi
    c253:	e8 e5 aa ff ff       	callq  6d3d <safe_mul_func_uint16_t_u_u>
    c258:	0f b7 c0             	movzwl %ax,%eax
    c25b:	be 97 d1 00 00       	mov    $0xd197,%esi
    c260:	89 c7                	mov    %eax,%edi
    c262:	e8 b8 aa ff ff       	callq  6d1f <safe_sub_func_uint16_t_u_u>
    c267:	0f b7 d0             	movzwl %ax,%edx
    c26a:	48 8b 85 00 ee ff ff 	mov    -0x1200(%rbp),%rax
    c271:	48 8b 00             	mov    (%rax),%rax
    c274:	8b 00                	mov    (%rax),%eax
    c276:	39 c2                	cmp    %eax,%edx
    c278:	7e 07                	jle    c281 <func_37+0x145d>
    c27a:	b8 01 00 00 00       	mov    $0x1,%eax
    c27f:	eb 05                	jmp    c286 <func_37+0x1462>
    c281:	b8 00 00 00 00       	mov    $0x0,%eax
    c286:	3d f7 ff 00 00       	cmp    $0xfff7,%eax
    c28b:	0f 96 c0             	setbe  %al
    c28e:	0f b6 d0             	movzbl %al,%edx
    c291:	48 8b 05 c0 bd 00 00 	mov    0xbdc0(%rip),%rax        # 18058 <g_146>
    c298:	48 39 c2             	cmp    %rax,%rdx
    c29b:	0f 94 c0             	sete   %al
    c29e:	0f b6 d0             	movzbl %al,%edx
    c2a1:	0f b7 85 82 ef ff ff 	movzwl -0x107e(%rbp),%eax
    c2a8:	31 d0                	xor    %edx,%eax
    c2aa:	66 89 85 82 ef ff ff 	mov    %ax,-0x107e(%rbp)
    c2b1:	e9 47 3f 00 00       	jmpq   101fd <func_37+0x53d9>
    c2b6:	48 b8 c6 ea 30 5c 68 	movabs $0x9684ff685c30eac6,%rax
    c2bd:	ff 84 96 
    c2c0:	48 89 85 20 ee ff ff 	mov    %rax,-0x11e0(%rbp)
    c2c7:	c7 85 10 ec ff ff 28 	movl   $0x5623b028,-0x13f0(%rbp)
    c2ce:	b0 23 56 
    c2d1:	c7 85 14 ec ff ff 00 	movl   $0x0,-0x13ec(%rbp)
    c2d8:	00 00 00 
    c2db:	c7 85 8c eb ff ff 07 	movl   $0x7,-0x1474(%rbp)
    c2e2:	00 00 00 
    c2e5:	c7 85 90 f5 ff ff 70 	movl   $0xfbd1ff70,-0xa70(%rbp)
    c2ec:	ff d1 fb 
    c2ef:	c7 85 94 f5 ff ff 70 	movl   $0xfbd1ff70,-0xa6c(%rbp)
    c2f6:	ff d1 fb 
    c2f9:	c7 85 98 f5 ff ff 00 	movl   $0x0,-0xa68(%rbp)
    c300:	00 00 00 
    c303:	c7 85 9c f5 ff ff 00 	movl   $0x0,-0xa64(%rbp)
    c30a:	00 00 00 
    c30d:	c7 85 a0 f5 ff ff 70 	movl   $0xfbd1ff70,-0xa60(%rbp)
    c314:	ff d1 fb 
    c317:	c7 85 a4 f5 ff ff 70 	movl   $0xfbd1ff70,-0xa5c(%rbp)
    c31e:	ff d1 fb 
    c321:	c7 85 a8 f5 ff ff 00 	movl   $0x0,-0xa58(%rbp)
    c328:	00 00 00 
    c32b:	c7 85 ac f5 ff ff 00 	movl   $0x0,-0xa54(%rbp)
    c332:	00 00 00 
    c335:	c7 85 b0 f5 ff ff 70 	movl   $0xfbd1ff70,-0xa50(%rbp)
    c33c:	ff d1 fb 
    c33f:	c7 85 b4 f5 ff ff 70 	movl   $0xfbd1ff70,-0xa4c(%rbp)
    c346:	ff d1 fb 
    c349:	c7 85 b8 f5 ff ff 70 	movl   $0xfbd1ff70,-0xa48(%rbp)
    c350:	ff d1 fb 
    c353:	c7 85 bc f5 ff ff 00 	movl   $0x0,-0xa44(%rbp)
    c35a:	00 00 00 
    c35d:	c7 85 c0 f5 ff ff 00 	movl   $0x0,-0xa40(%rbp)
    c364:	00 00 00 
    c367:	c7 85 c4 f5 ff ff 70 	movl   $0xfbd1ff70,-0xa3c(%rbp)
    c36e:	ff d1 fb 
    c371:	c7 85 c8 f5 ff ff 70 	movl   $0xfbd1ff70,-0xa38(%rbp)
    c378:	ff d1 fb 
    c37b:	c7 85 cc f5 ff ff 00 	movl   $0x0,-0xa34(%rbp)
    c382:	00 00 00 
    c385:	c7 85 d0 f5 ff ff 00 	movl   $0x0,-0xa30(%rbp)
    c38c:	00 00 00 
    c38f:	c7 85 d4 f5 ff ff 70 	movl   $0xfbd1ff70,-0xa2c(%rbp)
    c396:	ff d1 fb 
    c399:	c7 85 d8 f5 ff ff 70 	movl   $0xfbd1ff70,-0xa28(%rbp)
    c3a0:	ff d1 fb 
    c3a3:	c7 85 dc f5 ff ff 00 	movl   $0x0,-0xa24(%rbp)
    c3aa:	00 00 00 
    c3ad:	48 c7 85 28 ee ff ff 	movq   $0xffffffffffffffff,-0x11d8(%rbp)
    c3b4:	ff ff ff ff 
    c3b8:	48 c7 85 30 ee ff ff 	movq   $0x0,-0x11d0(%rbp)
    c3bf:	00 00 00 00 
    c3c3:	48 8d 05 6e dd 00 00 	lea    0xdd6e(%rip),%rax        # 1a138 <g_425>
    c3ca:	48 89 85 38 ee ff ff 	mov    %rax,-0x11c8(%rbp)
    c3d1:	48 c7 85 f0 f8 ff ff 	movq   $0x0,-0x710(%rbp)
    c3d8:	00 00 00 00 
    c3dc:	48 8d 85 d0 ef ff ff 	lea    -0x1030(%rbp),%rax
    c3e3:	48 89 85 f8 f8 ff ff 	mov    %rax,-0x708(%rbp)
    c3ea:	48 8d 85 d0 ef ff ff 	lea    -0x1030(%rbp),%rax
    c3f1:	48 83 c0 08          	add    $0x8,%rax
    c3f5:	48 89 85 00 f9 ff ff 	mov    %rax,-0x700(%rbp)
    c3fc:	48 c7 85 08 f9 ff ff 	movq   $0x0,-0x6f8(%rbp)
    c403:	00 00 00 00 
    c407:	48 c7 85 10 f9 ff ff 	movq   $0x0,-0x6f0(%rbp)
    c40e:	00 00 00 00 
    c412:	48 c7 85 18 f9 ff ff 	movq   $0x0,-0x6e8(%rbp)
    c419:	00 00 00 00 
    c41d:	48 c7 85 20 f9 ff ff 	movq   $0x0,-0x6e0(%rbp)
    c424:	00 00 00 00 
    c428:	48 8d 85 d0 ef ff ff 	lea    -0x1030(%rbp),%rax
    c42f:	48 89 85 28 f9 ff ff 	mov    %rax,-0x6d8(%rbp)
    c436:	48 8d 85 d0 ef ff ff 	lea    -0x1030(%rbp),%rax
    c43d:	48 89 85 30 f9 ff ff 	mov    %rax,-0x6d0(%rbp)
    c444:	48 c7 85 38 f9 ff ff 	movq   $0x0,-0x6c8(%rbp)
    c44b:	00 00 00 00 
    c44f:	48 c7 85 40 f9 ff ff 	movq   $0x0,-0x6c0(%rbp)
    c456:	00 00 00 00 
    c45a:	48 8d 85 d0 ef ff ff 	lea    -0x1030(%rbp),%rax
    c461:	48 89 85 48 f9 ff ff 	mov    %rax,-0x6b8(%rbp)
    c468:	48 8d 85 d0 ef ff ff 	lea    -0x1030(%rbp),%rax
    c46f:	48 83 c0 08          	add    $0x8,%rax
    c473:	48 89 85 50 f9 ff ff 	mov    %rax,-0x6b0(%rbp)
    c47a:	48 8d 85 d0 ef ff ff 	lea    -0x1030(%rbp),%rax
    c481:	48 89 85 58 f9 ff ff 	mov    %rax,-0x6a8(%rbp)
    c488:	48 8d 85 d0 ef ff ff 	lea    -0x1030(%rbp),%rax
    c48f:	48 89 85 60 f9 ff ff 	mov    %rax,-0x6a0(%rbp)
    c496:	48 8d 85 d0 ef ff ff 	lea    -0x1030(%rbp),%rax
    c49d:	48 89 85 68 f9 ff ff 	mov    %rax,-0x698(%rbp)
    c4a4:	48 8d 85 d0 ef ff ff 	lea    -0x1030(%rbp),%rax
    c4ab:	48 89 85 70 f9 ff ff 	mov    %rax,-0x690(%rbp)
    c4b2:	48 8d 85 d0 ef ff ff 	lea    -0x1030(%rbp),%rax
    c4b9:	48 89 85 78 f9 ff ff 	mov    %rax,-0x688(%rbp)
    c4c0:	48 8d 85 d0 ef ff ff 	lea    -0x1030(%rbp),%rax
    c4c7:	48 89 85 80 f9 ff ff 	mov    %rax,-0x680(%rbp)
    c4ce:	48 8d 85 d0 ef ff ff 	lea    -0x1030(%rbp),%rax
    c4d5:	48 89 85 88 f9 ff ff 	mov    %rax,-0x678(%rbp)
    c4dc:	48 8d 85 d0 ef ff ff 	lea    -0x1030(%rbp),%rax
    c4e3:	48 83 c0 08          	add    $0x8,%rax
    c4e7:	48 89 85 90 f9 ff ff 	mov    %rax,-0x670(%rbp)
    c4ee:	48 8d 85 d0 ef ff ff 	lea    -0x1030(%rbp),%rax
    c4f5:	48 83 c0 08          	add    $0x8,%rax
    c4f9:	48 89 85 98 f9 ff ff 	mov    %rax,-0x668(%rbp)
    c500:	48 8d 85 d0 ef ff ff 	lea    -0x1030(%rbp),%rax
    c507:	48 89 85 a0 f9 ff ff 	mov    %rax,-0x660(%rbp)
    c50e:	48 c7 85 a8 f9 ff ff 	movq   $0x0,-0x658(%rbp)
    c515:	00 00 00 00 
    c519:	48 c7 85 b0 f9 ff ff 	movq   $0x0,-0x650(%rbp)
    c520:	00 00 00 00 
    c524:	48 8d 85 d0 ef ff ff 	lea    -0x1030(%rbp),%rax
    c52b:	48 89 85 b8 f9 ff ff 	mov    %rax,-0x648(%rbp)
    c532:	48 8d 85 d0 ef ff ff 	lea    -0x1030(%rbp),%rax
    c539:	48 89 85 c0 f9 ff ff 	mov    %rax,-0x640(%rbp)
    c540:	48 8d 85 d0 ef ff ff 	lea    -0x1030(%rbp),%rax
    c547:	48 89 85 c8 f9 ff ff 	mov    %rax,-0x638(%rbp)
    c54e:	48 c7 85 d0 f9 ff ff 	movq   $0x0,-0x630(%rbp)
    c555:	00 00 00 00 
    c559:	48 8d 85 d0 ef ff ff 	lea    -0x1030(%rbp),%rax
    c560:	48 83 c0 08          	add    $0x8,%rax
    c564:	48 89 85 d8 f9 ff ff 	mov    %rax,-0x628(%rbp)
    c56b:	48 8d 85 d0 ef ff ff 	lea    -0x1030(%rbp),%rax
    c572:	48 83 c0 08          	add    $0x8,%rax
    c576:	48 89 85 e0 f9 ff ff 	mov    %rax,-0x620(%rbp)
    c57d:	48 8d 85 d0 ef ff ff 	lea    -0x1030(%rbp),%rax
    c584:	48 89 85 e8 f9 ff ff 	mov    %rax,-0x618(%rbp)
    c58b:	48 c7 85 f0 f9 ff ff 	movq   $0x0,-0x610(%rbp)
    c592:	00 00 00 00 
    c596:	48 8d 85 d0 ef ff ff 	lea    -0x1030(%rbp),%rax
    c59d:	48 89 85 f8 f9 ff ff 	mov    %rax,-0x608(%rbp)
    c5a4:	48 8d 85 d0 ef ff ff 	lea    -0x1030(%rbp),%rax
    c5ab:	48 89 85 00 fa ff ff 	mov    %rax,-0x600(%rbp)
    c5b2:	48 8d 85 d0 ef ff ff 	lea    -0x1030(%rbp),%rax
    c5b9:	48 89 85 08 fa ff ff 	mov    %rax,-0x5f8(%rbp)
    c5c0:	48 c7 85 10 fa ff ff 	movq   $0x0,-0x5f0(%rbp)
    c5c7:	00 00 00 00 
    c5cb:	48 8d 85 d0 ef ff ff 	lea    -0x1030(%rbp),%rax
    c5d2:	48 83 c0 08          	add    $0x8,%rax
    c5d6:	48 89 85 18 fa ff ff 	mov    %rax,-0x5e8(%rbp)
    c5dd:	48 c7 85 20 fa ff ff 	movq   $0x0,-0x5e0(%rbp)
    c5e4:	00 00 00 00 
    c5e8:	48 8d 85 d0 ef ff ff 	lea    -0x1030(%rbp),%rax
    c5ef:	48 89 85 28 fa ff ff 	mov    %rax,-0x5d8(%rbp)
    c5f6:	48 8d 85 d0 ef ff ff 	lea    -0x1030(%rbp),%rax
    c5fd:	48 89 85 30 fa ff ff 	mov    %rax,-0x5d0(%rbp)
    c604:	48 8d 85 d0 ef ff ff 	lea    -0x1030(%rbp),%rax
    c60b:	48 89 85 38 fa ff ff 	mov    %rax,-0x5c8(%rbp)
    c612:	48 8d 85 d0 ef ff ff 	lea    -0x1030(%rbp),%rax
    c619:	48 83 c0 08          	add    $0x8,%rax
    c61d:	48 89 85 40 fa ff ff 	mov    %rax,-0x5c0(%rbp)
    c624:	48 c7 85 48 fa ff ff 	movq   $0x0,-0x5b8(%rbp)
    c62b:	00 00 00 00 
    c62f:	48 c7 85 50 fa ff ff 	movq   $0x0,-0x5b0(%rbp)
    c636:	00 00 00 00 
    c63a:	48 c7 85 58 fa ff ff 	movq   $0x0,-0x5a8(%rbp)
    c641:	00 00 00 00 
    c645:	48 c7 85 60 fa ff ff 	movq   $0x0,-0x5a0(%rbp)
    c64c:	00 00 00 00 
    c650:	48 8d 85 d0 ef ff ff 	lea    -0x1030(%rbp),%rax
    c657:	48 83 c0 08          	add    $0x8,%rax
    c65b:	48 89 85 68 fa ff ff 	mov    %rax,-0x598(%rbp)
    c662:	48 8d 85 d0 ef ff ff 	lea    -0x1030(%rbp),%rax
    c669:	48 89 85 70 fa ff ff 	mov    %rax,-0x590(%rbp)
    c670:	48 8d 85 d0 ef ff ff 	lea    -0x1030(%rbp),%rax
    c677:	48 89 85 78 fa ff ff 	mov    %rax,-0x588(%rbp)
    c67e:	48 8d 85 d0 ef ff ff 	lea    -0x1030(%rbp),%rax
    c685:	48 89 85 80 fa ff ff 	mov    %rax,-0x580(%rbp)
    c68c:	48 8d 85 d0 ef ff ff 	lea    -0x1030(%rbp),%rax
    c693:	48 89 85 88 fa ff ff 	mov    %rax,-0x578(%rbp)
    c69a:	48 8d 85 d0 ef ff ff 	lea    -0x1030(%rbp),%rax
    c6a1:	48 83 c0 08          	add    $0x8,%rax
    c6a5:	48 89 85 90 fa ff ff 	mov    %rax,-0x570(%rbp)
    c6ac:	48 c7 85 98 fa ff ff 	movq   $0x0,-0x568(%rbp)
    c6b3:	00 00 00 00 
    c6b7:	48 8d 85 d0 ef ff ff 	lea    -0x1030(%rbp),%rax
    c6be:	48 89 85 a0 fa ff ff 	mov    %rax,-0x560(%rbp)
    c6c5:	48 c7 85 a8 fa ff ff 	movq   $0x0,-0x558(%rbp)
    c6cc:	00 00 00 00 
    c6d0:	48 8d 85 d0 ef ff ff 	lea    -0x1030(%rbp),%rax
    c6d7:	48 83 c0 08          	add    $0x8,%rax
    c6db:	48 89 85 b0 fa ff ff 	mov    %rax,-0x550(%rbp)
    c6e2:	48 8d 85 d0 ef ff ff 	lea    -0x1030(%rbp),%rax
    c6e9:	48 89 85 b8 fa ff ff 	mov    %rax,-0x548(%rbp)
    c6f0:	48 8d 85 d0 ef ff ff 	lea    -0x1030(%rbp),%rax
    c6f7:	48 89 85 c0 fa ff ff 	mov    %rax,-0x540(%rbp)
    c6fe:	48 8d 85 d0 ef ff ff 	lea    -0x1030(%rbp),%rax
    c705:	48 89 85 c8 fa ff ff 	mov    %rax,-0x538(%rbp)
    c70c:	48 8d 85 d0 ef ff ff 	lea    -0x1030(%rbp),%rax
    c713:	48 89 85 d0 fa ff ff 	mov    %rax,-0x530(%rbp)
    c71a:	48 8d 85 d0 ef ff ff 	lea    -0x1030(%rbp),%rax
    c721:	48 89 85 d8 fa ff ff 	mov    %rax,-0x528(%rbp)
    c728:	48 8d 85 d0 ef ff ff 	lea    -0x1030(%rbp),%rax
    c72f:	48 89 85 e0 fa ff ff 	mov    %rax,-0x520(%rbp)
    c736:	48 8d 85 d0 ef ff ff 	lea    -0x1030(%rbp),%rax
    c73d:	48 89 85 e8 fa ff ff 	mov    %rax,-0x518(%rbp)
    c744:	48 8d 85 d0 ef ff ff 	lea    -0x1030(%rbp),%rax
    c74b:	48 89 85 f0 fa ff ff 	mov    %rax,-0x510(%rbp)
    c752:	48 8d 85 d0 ef ff ff 	lea    -0x1030(%rbp),%rax
    c759:	48 89 85 f8 fa ff ff 	mov    %rax,-0x508(%rbp)
    c760:	48 8d 85 d0 ef ff ff 	lea    -0x1030(%rbp),%rax
    c767:	48 89 85 00 fb ff ff 	mov    %rax,-0x500(%rbp)
    c76e:	48 8d 85 d0 ef ff ff 	lea    -0x1030(%rbp),%rax
    c775:	48 83 c0 08          	add    $0x8,%rax
    c779:	48 89 85 08 fb ff ff 	mov    %rax,-0x4f8(%rbp)
    c780:	48 8d 85 d0 ef ff ff 	lea    -0x1030(%rbp),%rax
    c787:	48 89 85 10 fb ff ff 	mov    %rax,-0x4f0(%rbp)
    c78e:	48 c7 85 18 fb ff ff 	movq   $0x0,-0x4e8(%rbp)
    c795:	00 00 00 00 
    c799:	48 8d 85 d0 ef ff ff 	lea    -0x1030(%rbp),%rax
    c7a0:	48 89 85 20 fb ff ff 	mov    %rax,-0x4e0(%rbp)
    c7a7:	48 8d 85 d0 ef ff ff 	lea    -0x1030(%rbp),%rax
    c7ae:	48 89 85 28 fb ff ff 	mov    %rax,-0x4d8(%rbp)
    c7b5:	48 8d 85 d0 ef ff ff 	lea    -0x1030(%rbp),%rax
    c7bc:	48 83 c0 08          	add    $0x8,%rax
    c7c0:	48 89 85 30 fb ff ff 	mov    %rax,-0x4d0(%rbp)
    c7c7:	48 8d 85 d0 ef ff ff 	lea    -0x1030(%rbp),%rax
    c7ce:	48 83 c0 08          	add    $0x8,%rax
    c7d2:	48 89 85 38 fb ff ff 	mov    %rax,-0x4c8(%rbp)
    c7d9:	48 8d 85 d0 ef ff ff 	lea    -0x1030(%rbp),%rax
    c7e0:	48 89 85 40 fb ff ff 	mov    %rax,-0x4c0(%rbp)
    c7e7:	48 8d 85 d0 ef ff ff 	lea    -0x1030(%rbp),%rax
    c7ee:	48 89 85 48 fb ff ff 	mov    %rax,-0x4b8(%rbp)
    c7f5:	48 8d 85 d0 ef ff ff 	lea    -0x1030(%rbp),%rax
    c7fc:	48 89 85 50 fb ff ff 	mov    %rax,-0x4b0(%rbp)
    c803:	48 8d 85 d0 ef ff ff 	lea    -0x1030(%rbp),%rax
    c80a:	48 89 85 58 fb ff ff 	mov    %rax,-0x4a8(%rbp)
    c811:	48 c7 85 60 fb ff ff 	movq   $0x0,-0x4a0(%rbp)
    c818:	00 00 00 00 
    c81c:	48 8d 85 d0 ef ff ff 	lea    -0x1030(%rbp),%rax
    c823:	48 83 c0 08          	add    $0x8,%rax
    c827:	48 89 85 68 fb ff ff 	mov    %rax,-0x498(%rbp)
    c82e:	48 8d 85 d0 ef ff ff 	lea    -0x1030(%rbp),%rax
    c835:	48 83 c0 08          	add    $0x8,%rax
    c839:	48 89 85 70 fb ff ff 	mov    %rax,-0x490(%rbp)
    c840:	48 8d 85 d0 ef ff ff 	lea    -0x1030(%rbp),%rax
    c847:	48 89 85 78 fb ff ff 	mov    %rax,-0x488(%rbp)
    c84e:	48 8d 85 d0 ef ff ff 	lea    -0x1030(%rbp),%rax
    c855:	48 89 85 80 fb ff ff 	mov    %rax,-0x480(%rbp)
    c85c:	48 8d 85 d0 ef ff ff 	lea    -0x1030(%rbp),%rax
    c863:	48 83 c0 08          	add    $0x8,%rax
    c867:	48 89 85 88 fb ff ff 	mov    %rax,-0x478(%rbp)
    c86e:	48 8d 85 d0 ef ff ff 	lea    -0x1030(%rbp),%rax
    c875:	48 83 c0 08          	add    $0x8,%rax
    c879:	48 89 85 90 fb ff ff 	mov    %rax,-0x470(%rbp)
    c880:	48 8d 85 d0 ef ff ff 	lea    -0x1030(%rbp),%rax
    c887:	48 83 c0 08          	add    $0x8,%rax
    c88b:	48 89 85 98 fb ff ff 	mov    %rax,-0x468(%rbp)
    c892:	48 8d 85 d0 ef ff ff 	lea    -0x1030(%rbp),%rax
    c899:	48 83 c0 08          	add    $0x8,%rax
    c89d:	48 89 85 a0 fb ff ff 	mov    %rax,-0x460(%rbp)
    c8a4:	48 8d 85 d0 ef ff ff 	lea    -0x1030(%rbp),%rax
    c8ab:	48 89 85 a8 fb ff ff 	mov    %rax,-0x458(%rbp)
    c8b2:	48 8d 85 d0 ef ff ff 	lea    -0x1030(%rbp),%rax
    c8b9:	48 89 85 b0 fb ff ff 	mov    %rax,-0x450(%rbp)
    c8c0:	48 8d 85 d0 ef ff ff 	lea    -0x1030(%rbp),%rax
    c8c7:	48 89 85 b8 fb ff ff 	mov    %rax,-0x448(%rbp)
    c8ce:	48 c7 85 c0 fb ff ff 	movq   $0x0,-0x440(%rbp)
    c8d5:	00 00 00 00 
    c8d9:	48 8d 85 d0 ef ff ff 	lea    -0x1030(%rbp),%rax
    c8e0:	48 89 85 c8 fb ff ff 	mov    %rax,-0x438(%rbp)
    c8e7:	48 8d 85 d0 ef ff ff 	lea    -0x1030(%rbp),%rax
    c8ee:	48 89 85 d0 fb ff ff 	mov    %rax,-0x430(%rbp)
    c8f5:	48 8d 85 d0 ef ff ff 	lea    -0x1030(%rbp),%rax
    c8fc:	48 83 c0 08          	add    $0x8,%rax
    c900:	48 89 85 d8 fb ff ff 	mov    %rax,-0x428(%rbp)
    c907:	48 8d 85 d0 ef ff ff 	lea    -0x1030(%rbp),%rax
    c90e:	48 89 85 e0 fb ff ff 	mov    %rax,-0x420(%rbp)
    c915:	48 8d 85 d0 ef ff ff 	lea    -0x1030(%rbp),%rax
    c91c:	48 83 c0 08          	add    $0x8,%rax
    c920:	48 89 85 e8 fb ff ff 	mov    %rax,-0x418(%rbp)
    c927:	48 8d 85 d0 ef ff ff 	lea    -0x1030(%rbp),%rax
    c92e:	48 89 85 f0 fb ff ff 	mov    %rax,-0x410(%rbp)
    c935:	48 c7 85 f8 fb ff ff 	movq   $0x0,-0x408(%rbp)
    c93c:	00 00 00 00 
    c940:	48 8d 85 d0 ef ff ff 	lea    -0x1030(%rbp),%rax
    c947:	48 89 85 00 fc ff ff 	mov    %rax,-0x400(%rbp)
    c94e:	48 8d 85 d0 ef ff ff 	lea    -0x1030(%rbp),%rax
    c955:	48 89 85 08 fc ff ff 	mov    %rax,-0x3f8(%rbp)
    c95c:	48 8d 85 d0 ef ff ff 	lea    -0x1030(%rbp),%rax
    c963:	48 83 c0 08          	add    $0x8,%rax
    c967:	48 89 85 10 fc ff ff 	mov    %rax,-0x3f0(%rbp)
    c96e:	48 8d 85 d0 ef ff ff 	lea    -0x1030(%rbp),%rax
    c975:	48 89 85 18 fc ff ff 	mov    %rax,-0x3e8(%rbp)
    c97c:	48 8d 85 d0 ef ff ff 	lea    -0x1030(%rbp),%rax
    c983:	48 83 c0 08          	add    $0x8,%rax
    c987:	48 89 85 20 fc ff ff 	mov    %rax,-0x3e0(%rbp)
    c98e:	48 8d 85 d0 ef ff ff 	lea    -0x1030(%rbp),%rax
    c995:	48 89 85 28 fc ff ff 	mov    %rax,-0x3d8(%rbp)
    c99c:	48 8d 85 d0 ef ff ff 	lea    -0x1030(%rbp),%rax
    c9a3:	48 83 c0 08          	add    $0x8,%rax
    c9a7:	48 89 85 30 fc ff ff 	mov    %rax,-0x3d0(%rbp)
    c9ae:	48 8d 85 d0 ef ff ff 	lea    -0x1030(%rbp),%rax
    c9b5:	48 89 85 38 fc ff ff 	mov    %rax,-0x3c8(%rbp)
    c9bc:	48 c7 85 40 fc ff ff 	movq   $0x0,-0x3c0(%rbp)
    c9c3:	00 00 00 00 
    c9c7:	48 8d 85 d0 ef ff ff 	lea    -0x1030(%rbp),%rax
    c9ce:	48 83 c0 08          	add    $0x8,%rax
    c9d2:	48 89 85 48 fc ff ff 	mov    %rax,-0x3b8(%rbp)
    c9d9:	48 8d 85 d0 ef ff ff 	lea    -0x1030(%rbp),%rax
    c9e0:	48 89 85 50 fc ff ff 	mov    %rax,-0x3b0(%rbp)
    c9e7:	48 c7 85 58 fc ff ff 	movq   $0x0,-0x3a8(%rbp)
    c9ee:	00 00 00 00 
    c9f2:	48 8d 85 d0 ef ff ff 	lea    -0x1030(%rbp),%rax
    c9f9:	48 83 c0 08          	add    $0x8,%rax
    c9fd:	48 89 85 60 fc ff ff 	mov    %rax,-0x3a0(%rbp)
    ca04:	48 8d 85 d0 ef ff ff 	lea    -0x1030(%rbp),%rax
    ca0b:	48 89 85 68 fc ff ff 	mov    %rax,-0x398(%rbp)
    ca12:	48 8d 85 d0 ef ff ff 	lea    -0x1030(%rbp),%rax
    ca19:	48 89 85 70 fc ff ff 	mov    %rax,-0x390(%rbp)
    ca20:	48 8d 85 d0 ef ff ff 	lea    -0x1030(%rbp),%rax
    ca27:	48 89 85 78 fc ff ff 	mov    %rax,-0x388(%rbp)
    ca2e:	48 8d 85 d0 ef ff ff 	lea    -0x1030(%rbp),%rax
    ca35:	48 89 85 80 fc ff ff 	mov    %rax,-0x380(%rbp)
    ca3c:	48 8d 85 d0 ef ff ff 	lea    -0x1030(%rbp),%rax
    ca43:	48 83 c0 08          	add    $0x8,%rax
    ca47:	48 89 85 88 fc ff ff 	mov    %rax,-0x378(%rbp)
    ca4e:	48 8d 85 d0 ef ff ff 	lea    -0x1030(%rbp),%rax
    ca55:	48 89 85 90 fc ff ff 	mov    %rax,-0x370(%rbp)
    ca5c:	48 8d 85 d0 ef ff ff 	lea    -0x1030(%rbp),%rax
    ca63:	48 89 85 98 fc ff ff 	mov    %rax,-0x368(%rbp)
    ca6a:	48 8d 85 d0 ef ff ff 	lea    -0x1030(%rbp),%rax
    ca71:	48 89 85 a0 fc ff ff 	mov    %rax,-0x360(%rbp)
    ca78:	48 8d 85 d0 ef ff ff 	lea    -0x1030(%rbp),%rax
    ca7f:	48 89 85 a8 fc ff ff 	mov    %rax,-0x358(%rbp)
    ca86:	48 8d 85 d0 ef ff ff 	lea    -0x1030(%rbp),%rax
    ca8d:	48 89 85 b0 fc ff ff 	mov    %rax,-0x350(%rbp)
    ca94:	48 8d 85 d0 ef ff ff 	lea    -0x1030(%rbp),%rax
    ca9b:	48 89 85 b8 fc ff ff 	mov    %rax,-0x348(%rbp)
    caa2:	48 8d 85 d0 ef ff ff 	lea    -0x1030(%rbp),%rax
    caa9:	48 89 85 c0 fc ff ff 	mov    %rax,-0x340(%rbp)
    cab0:	48 8d 85 d0 ef ff ff 	lea    -0x1030(%rbp),%rax
    cab7:	48 89 85 c8 fc ff ff 	mov    %rax,-0x338(%rbp)
    cabe:	48 c7 85 d0 fc ff ff 	movq   $0x0,-0x330(%rbp)
    cac5:	00 00 00 00 
    cac9:	48 8d 85 d0 ef ff ff 	lea    -0x1030(%rbp),%rax
    cad0:	48 89 85 d8 fc ff ff 	mov    %rax,-0x328(%rbp)
    cad7:	48 8d 85 d0 ef ff ff 	lea    -0x1030(%rbp),%rax
    cade:	48 83 c0 08          	add    $0x8,%rax
    cae2:	48 89 85 e0 fc ff ff 	mov    %rax,-0x320(%rbp)
    cae9:	48 8d 85 d0 ef ff ff 	lea    -0x1030(%rbp),%rax
    caf0:	48 89 85 e8 fc ff ff 	mov    %rax,-0x318(%rbp)
    caf7:	48 8d 85 d0 ef ff ff 	lea    -0x1030(%rbp),%rax
    cafe:	48 89 85 f0 fc ff ff 	mov    %rax,-0x310(%rbp)
    cb05:	48 8d 85 d0 ef ff ff 	lea    -0x1030(%rbp),%rax
    cb0c:	48 89 85 f8 fc ff ff 	mov    %rax,-0x308(%rbp)
    cb13:	48 8d 85 d0 ef ff ff 	lea    -0x1030(%rbp),%rax
    cb1a:	48 89 85 00 fd ff ff 	mov    %rax,-0x300(%rbp)
    cb21:	48 8d 85 d0 ef ff ff 	lea    -0x1030(%rbp),%rax
    cb28:	48 89 85 08 fd ff ff 	mov    %rax,-0x2f8(%rbp)
    cb2f:	48 8d 85 d0 ef ff ff 	lea    -0x1030(%rbp),%rax
    cb36:	48 89 85 10 fd ff ff 	mov    %rax,-0x2f0(%rbp)
    cb3d:	48 8d 85 d0 ef ff ff 	lea    -0x1030(%rbp),%rax
    cb44:	48 89 85 18 fd ff ff 	mov    %rax,-0x2e8(%rbp)
    cb4b:	48 8d 85 d0 ef ff ff 	lea    -0x1030(%rbp),%rax
    cb52:	48 83 c0 08          	add    $0x8,%rax
    cb56:	48 89 85 20 fd ff ff 	mov    %rax,-0x2e0(%rbp)
    cb5d:	48 8d 85 d0 ef ff ff 	lea    -0x1030(%rbp),%rax
    cb64:	48 83 c0 08          	add    $0x8,%rax
    cb68:	48 89 85 28 fd ff ff 	mov    %rax,-0x2d8(%rbp)
    cb6f:	48 8d 85 d0 ef ff ff 	lea    -0x1030(%rbp),%rax
    cb76:	48 89 85 30 fd ff ff 	mov    %rax,-0x2d0(%rbp)
    cb7d:	48 c7 85 38 fd ff ff 	movq   $0x0,-0x2c8(%rbp)
    cb84:	00 00 00 00 
    cb88:	48 c7 85 40 fd ff ff 	movq   $0x0,-0x2c0(%rbp)
    cb8f:	00 00 00 00 
    cb93:	48 8d 85 d0 ef ff ff 	lea    -0x1030(%rbp),%rax
    cb9a:	48 89 85 48 fd ff ff 	mov    %rax,-0x2b8(%rbp)
    cba1:	48 8d 85 d0 ef ff ff 	lea    -0x1030(%rbp),%rax
    cba8:	48 89 85 50 fd ff ff 	mov    %rax,-0x2b0(%rbp)
    cbaf:	48 8d 85 d0 ef ff ff 	lea    -0x1030(%rbp),%rax
    cbb6:	48 89 85 58 fd ff ff 	mov    %rax,-0x2a8(%rbp)
    cbbd:	48 c7 85 60 fd ff ff 	movq   $0x0,-0x2a0(%rbp)
    cbc4:	00 00 00 00 
    cbc8:	48 8d 85 d0 ef ff ff 	lea    -0x1030(%rbp),%rax
    cbcf:	48 83 c0 08          	add    $0x8,%rax
    cbd3:	48 89 85 68 fd ff ff 	mov    %rax,-0x298(%rbp)
    cbda:	48 8d 85 d0 ef ff ff 	lea    -0x1030(%rbp),%rax
    cbe1:	48 83 c0 08          	add    $0x8,%rax
    cbe5:	48 89 85 70 fd ff ff 	mov    %rax,-0x290(%rbp)
    cbec:	48 8d 85 d0 ef ff ff 	lea    -0x1030(%rbp),%rax
    cbf3:	48 89 85 78 fd ff ff 	mov    %rax,-0x288(%rbp)
    cbfa:	48 c7 85 80 fd ff ff 	movq   $0x0,-0x280(%rbp)
    cc01:	00 00 00 00 
    cc05:	48 8d 85 d0 ef ff ff 	lea    -0x1030(%rbp),%rax
    cc0c:	48 89 85 88 fd ff ff 	mov    %rax,-0x278(%rbp)
    cc13:	48 8d 85 d0 ef ff ff 	lea    -0x1030(%rbp),%rax
    cc1a:	48 89 85 90 fd ff ff 	mov    %rax,-0x270(%rbp)
    cc21:	48 8d 85 d0 ef ff ff 	lea    -0x1030(%rbp),%rax
    cc28:	48 89 85 98 fd ff ff 	mov    %rax,-0x268(%rbp)
    cc2f:	48 c7 85 a0 fd ff ff 	movq   $0x0,-0x260(%rbp)
    cc36:	00 00 00 00 
    cc3a:	48 8d 85 d0 ef ff ff 	lea    -0x1030(%rbp),%rax
    cc41:	48 83 c0 08          	add    $0x8,%rax
    cc45:	48 89 85 a8 fd ff ff 	mov    %rax,-0x258(%rbp)
    cc4c:	48 c7 85 b0 fd ff ff 	movq   $0x0,-0x250(%rbp)
    cc53:	00 00 00 00 
    cc57:	48 8d 85 d0 ef ff ff 	lea    -0x1030(%rbp),%rax
    cc5e:	48 89 85 b8 fd ff ff 	mov    %rax,-0x248(%rbp)
    cc65:	48 8d 85 d0 ef ff ff 	lea    -0x1030(%rbp),%rax
    cc6c:	48 89 85 c0 fd ff ff 	mov    %rax,-0x240(%rbp)
    cc73:	48 8d 85 d0 ef ff ff 	lea    -0x1030(%rbp),%rax
    cc7a:	48 89 85 c8 fd ff ff 	mov    %rax,-0x238(%rbp)
    cc81:	48 8d 85 d0 ef ff ff 	lea    -0x1030(%rbp),%rax
    cc88:	48 83 c0 08          	add    $0x8,%rax
    cc8c:	48 89 85 d0 fd ff ff 	mov    %rax,-0x230(%rbp)
    cc93:	48 c7 85 d8 fd ff ff 	movq   $0x0,-0x228(%rbp)
    cc9a:	00 00 00 00 
    cc9e:	48 c7 85 e0 fd ff ff 	movq   $0x0,-0x220(%rbp)
    cca5:	00 00 00 00 
    cca9:	48 c7 85 e8 fd ff ff 	movq   $0x0,-0x218(%rbp)
    ccb0:	00 00 00 00 
    ccb4:	48 c7 85 f0 fd ff ff 	movq   $0x0,-0x210(%rbp)
    ccbb:	00 00 00 00 
    ccbf:	48 8d 85 d0 ef ff ff 	lea    -0x1030(%rbp),%rax
    ccc6:	48 83 c0 08          	add    $0x8,%rax
    ccca:	48 89 85 f8 fd ff ff 	mov    %rax,-0x208(%rbp)
    ccd1:	48 8d 85 d0 ef ff ff 	lea    -0x1030(%rbp),%rax
    ccd8:	48 89 85 00 fe ff ff 	mov    %rax,-0x200(%rbp)
    ccdf:	48 8d 85 d0 ef ff ff 	lea    -0x1030(%rbp),%rax
    cce6:	48 89 85 08 fe ff ff 	mov    %rax,-0x1f8(%rbp)
    cced:	48 8d 85 d0 ef ff ff 	lea    -0x1030(%rbp),%rax
    ccf4:	48 89 85 10 fe ff ff 	mov    %rax,-0x1f0(%rbp)
    ccfb:	48 8d 85 d0 ef ff ff 	lea    -0x1030(%rbp),%rax
    cd02:	48 89 85 18 fe ff ff 	mov    %rax,-0x1e8(%rbp)
    cd09:	48 8d 85 d0 ef ff ff 	lea    -0x1030(%rbp),%rax
    cd10:	48 83 c0 08          	add    $0x8,%rax
    cd14:	48 89 85 20 fe ff ff 	mov    %rax,-0x1e0(%rbp)
    cd1b:	48 c7 85 28 fe ff ff 	movq   $0x0,-0x1d8(%rbp)
    cd22:	00 00 00 00 
    cd26:	48 8d 85 d0 ef ff ff 	lea    -0x1030(%rbp),%rax
    cd2d:	48 89 85 30 fe ff ff 	mov    %rax,-0x1d0(%rbp)
    cd34:	48 c7 85 38 fe ff ff 	movq   $0x0,-0x1c8(%rbp)
    cd3b:	00 00 00 00 
    cd3f:	48 8d 85 d0 ef ff ff 	lea    -0x1030(%rbp),%rax
    cd46:	48 83 c0 08          	add    $0x8,%rax
    cd4a:	48 89 85 40 fe ff ff 	mov    %rax,-0x1c0(%rbp)
    cd51:	48 8d 85 d0 ef ff ff 	lea    -0x1030(%rbp),%rax
    cd58:	48 89 85 48 fe ff ff 	mov    %rax,-0x1b8(%rbp)
    cd5f:	48 8d 85 d0 ef ff ff 	lea    -0x1030(%rbp),%rax
    cd66:	48 89 85 50 fe ff ff 	mov    %rax,-0x1b0(%rbp)
    cd6d:	48 8d 85 d0 ef ff ff 	lea    -0x1030(%rbp),%rax
    cd74:	48 89 85 58 fe ff ff 	mov    %rax,-0x1a8(%rbp)
    cd7b:	48 8d 85 d0 ef ff ff 	lea    -0x1030(%rbp),%rax
    cd82:	48 89 85 60 fe ff ff 	mov    %rax,-0x1a0(%rbp)
    cd89:	48 8d 85 d0 ef ff ff 	lea    -0x1030(%rbp),%rax
    cd90:	48 89 85 68 fe ff ff 	mov    %rax,-0x198(%rbp)
    cd97:	48 8d 85 d0 ef ff ff 	lea    -0x1030(%rbp),%rax
    cd9e:	48 89 85 70 fe ff ff 	mov    %rax,-0x190(%rbp)
    cda5:	48 8d 85 d0 ef ff ff 	lea    -0x1030(%rbp),%rax
    cdac:	48 89 85 78 fe ff ff 	mov    %rax,-0x188(%rbp)
    cdb3:	48 8d 85 d0 ef ff ff 	lea    -0x1030(%rbp),%rax
    cdba:	48 89 85 80 fe ff ff 	mov    %rax,-0x180(%rbp)
    cdc1:	48 8d 85 d0 ef ff ff 	lea    -0x1030(%rbp),%rax
    cdc8:	48 89 85 88 fe ff ff 	mov    %rax,-0x178(%rbp)
    cdcf:	48 8d 85 d0 ef ff ff 	lea    -0x1030(%rbp),%rax
    cdd6:	48 89 85 90 fe ff ff 	mov    %rax,-0x170(%rbp)
    cddd:	48 8d 85 d0 ef ff ff 	lea    -0x1030(%rbp),%rax
    cde4:	48 83 c0 08          	add    $0x8,%rax
    cde8:	48 89 85 98 fe ff ff 	mov    %rax,-0x168(%rbp)
    cdef:	48 8d 85 d0 ef ff ff 	lea    -0x1030(%rbp),%rax
    cdf6:	48 89 85 a0 fe ff ff 	mov    %rax,-0x160(%rbp)
    cdfd:	48 c7 85 a8 fe ff ff 	movq   $0x0,-0x158(%rbp)
    ce04:	00 00 00 00 
    ce08:	48 8d 85 d0 ef ff ff 	lea    -0x1030(%rbp),%rax
    ce0f:	48 89 85 b0 fe ff ff 	mov    %rax,-0x150(%rbp)
    ce16:	48 8d 85 d0 ef ff ff 	lea    -0x1030(%rbp),%rax
    ce1d:	48 89 85 b8 fe ff ff 	mov    %rax,-0x148(%rbp)
    ce24:	48 8d 85 d0 ef ff ff 	lea    -0x1030(%rbp),%rax
    ce2b:	48 83 c0 08          	add    $0x8,%rax
    ce2f:	48 89 85 c0 fe ff ff 	mov    %rax,-0x140(%rbp)
    ce36:	48 8d 85 d0 ef ff ff 	lea    -0x1030(%rbp),%rax
    ce3d:	48 83 c0 08          	add    $0x8,%rax
    ce41:	48 89 85 c8 fe ff ff 	mov    %rax,-0x138(%rbp)
    ce48:	48 8d 85 d0 ef ff ff 	lea    -0x1030(%rbp),%rax
    ce4f:	48 89 85 d0 fe ff ff 	mov    %rax,-0x130(%rbp)
    ce56:	48 8d 85 d0 ef ff ff 	lea    -0x1030(%rbp),%rax
    ce5d:	48 89 85 d8 fe ff ff 	mov    %rax,-0x128(%rbp)
    ce64:	48 8d 85 d0 ef ff ff 	lea    -0x1030(%rbp),%rax
    ce6b:	48 89 85 e0 fe ff ff 	mov    %rax,-0x120(%rbp)
    ce72:	48 8d 85 d0 ef ff ff 	lea    -0x1030(%rbp),%rax
    ce79:	48 89 85 e8 fe ff ff 	mov    %rax,-0x118(%rbp)
    ce80:	48 c7 85 f0 fe ff ff 	movq   $0x0,-0x110(%rbp)
    ce87:	00 00 00 00 
    ce8b:	48 8d 85 d0 ef ff ff 	lea    -0x1030(%rbp),%rax
    ce92:	48 83 c0 08          	add    $0x8,%rax
    ce96:	48 89 85 f8 fe ff ff 	mov    %rax,-0x108(%rbp)
    ce9d:	48 8d 85 d0 ef ff ff 	lea    -0x1030(%rbp),%rax
    cea4:	48 83 c0 08          	add    $0x8,%rax
    cea8:	48 89 85 00 ff ff ff 	mov    %rax,-0x100(%rbp)
    ceaf:	48 8d 85 d0 ef ff ff 	lea    -0x1030(%rbp),%rax
    ceb6:	48 89 85 08 ff ff ff 	mov    %rax,-0xf8(%rbp)
    cebd:	48 8d 85 d0 ef ff ff 	lea    -0x1030(%rbp),%rax
    cec4:	48 89 85 10 ff ff ff 	mov    %rax,-0xf0(%rbp)
    cecb:	48 8d 85 d0 ef ff ff 	lea    -0x1030(%rbp),%rax
    ced2:	48 83 c0 08          	add    $0x8,%rax
    ced6:	48 89 85 18 ff ff ff 	mov    %rax,-0xe8(%rbp)
    cedd:	48 8d 85 d0 ef ff ff 	lea    -0x1030(%rbp),%rax
    cee4:	48 83 c0 08          	add    $0x8,%rax
    cee8:	48 89 85 20 ff ff ff 	mov    %rax,-0xe0(%rbp)
    ceef:	48 8d 85 d0 ef ff ff 	lea    -0x1030(%rbp),%rax
    cef6:	48 83 c0 08          	add    $0x8,%rax
    cefa:	48 89 85 28 ff ff ff 	mov    %rax,-0xd8(%rbp)
    cf01:	48 8d 85 d0 ef ff ff 	lea    -0x1030(%rbp),%rax
    cf08:	48 89 85 30 ff ff ff 	mov    %rax,-0xd0(%rbp)
    cf0f:	48 8d 85 d0 ef ff ff 	lea    -0x1030(%rbp),%rax
    cf16:	48 89 85 38 ff ff ff 	mov    %rax,-0xc8(%rbp)
    cf1d:	48 c7 85 40 ff ff ff 	movq   $0x0,-0xc0(%rbp)
    cf24:	00 00 00 00 
    cf28:	48 8d 85 d0 ef ff ff 	lea    -0x1030(%rbp),%rax
    cf2f:	48 83 c0 08          	add    $0x8,%rax
    cf33:	48 89 85 48 ff ff ff 	mov    %rax,-0xb8(%rbp)
    cf3a:	48 8d 85 d0 ef ff ff 	lea    -0x1030(%rbp),%rax
    cf41:	48 89 85 50 ff ff ff 	mov    %rax,-0xb0(%rbp)
    cf48:	48 8d 85 d0 ef ff ff 	lea    -0x1030(%rbp),%rax
    cf4f:	48 89 85 58 ff ff ff 	mov    %rax,-0xa8(%rbp)
    cf56:	48 8d 85 d0 ef ff ff 	lea    -0x1030(%rbp),%rax
    cf5d:	48 89 85 60 ff ff ff 	mov    %rax,-0xa0(%rbp)
    cf64:	48 8d 85 d0 ef ff ff 	lea    -0x1030(%rbp),%rax
    cf6b:	48 89 85 68 ff ff ff 	mov    %rax,-0x98(%rbp)
    cf72:	48 8d 85 d0 ef ff ff 	lea    -0x1030(%rbp),%rax
    cf79:	48 89 85 70 ff ff ff 	mov    %rax,-0x90(%rbp)
    cf80:	48 8d 85 d0 ef ff ff 	lea    -0x1030(%rbp),%rax
    cf87:	48 89 85 78 ff ff ff 	mov    %rax,-0x88(%rbp)
    cf8e:	48 8d 85 d0 ef ff ff 	lea    -0x1030(%rbp),%rax
    cf95:	48 89 45 80          	mov    %rax,-0x80(%rbp)
    cf99:	48 8d 85 d0 ef ff ff 	lea    -0x1030(%rbp),%rax
    cfa0:	48 89 45 88          	mov    %rax,-0x78(%rbp)
    cfa4:	48 8d 85 d0 ef ff ff 	lea    -0x1030(%rbp),%rax
    cfab:	48 89 45 90          	mov    %rax,-0x70(%rbp)
    cfaf:	48 8d 85 d0 ef ff ff 	lea    -0x1030(%rbp),%rax
    cfb6:	48 83 c0 08          	add    $0x8,%rax
    cfba:	48 89 45 98          	mov    %rax,-0x68(%rbp)
    cfbe:	48 8d 85 d0 ef ff ff 	lea    -0x1030(%rbp),%rax
    cfc5:	48 89 45 a0          	mov    %rax,-0x60(%rbp)
    cfc9:	48 8d 85 d0 ef ff ff 	lea    -0x1030(%rbp),%rax
    cfd0:	48 83 c0 08          	add    $0x8,%rax
    cfd4:	48 89 45 a8          	mov    %rax,-0x58(%rbp)
    cfd8:	48 8b 05 49 d1 00 00 	mov    0xd149(%rip),%rax        # 1a128 <g_326>
    cfdf:	8b 00                	mov    (%rax),%eax
    cfe1:	85 c0                	test   %eax,%eax
    cfe3:	74 21                	je     d006 <func_37+0x21e2>
    cfe5:	48 8d 85 b8 ec ff ff 	lea    -0x1348(%rbp),%rax
    cfec:	48 89 85 40 ee ff ff 	mov    %rax,-0x11c0(%rbp)
    cff3:	48 8b 95 b8 ec ff ff 	mov    -0x1348(%rbp),%rdx
    cffa:	48 8b 85 40 ee ff ff 	mov    -0x11c0(%rbp),%rax
    d001:	48 89 10             	mov    %rdx,(%rax)
    d004:	eb 12                	jmp    d018 <func_37+0x21f4>
    d006:	48 8b 05 1b d1 00 00 	mov    0xd11b(%rip),%rax        # 1a128 <g_326>
    d00d:	8b 00                	mov    (%rax),%eax
    d00f:	48 98                	cltq   
    d011:	48 31 85 20 ee ff ff 	xor    %rax,-0x11e0(%rbp)
    d018:	c6 05 29 b0 00 00 04 	movb   $0x4,0xb029(%rip)        # 18048 <g_95>
    d01f:	e9 b1 06 00 00       	jmpq   d6d5 <func_37+0x28b1>
    d024:	66 c7 85 20 f1 ff ff 	movw   $0x1,-0xee0(%rbp)
    d02b:	01 00 
    d02d:	66 c7 85 22 f1 ff ff 	movw   $0xffff,-0xede(%rbp)
    d034:	ff ff 
    d036:	66 c7 85 24 f1 ff ff 	movw   $0xfffa,-0xedc(%rbp)
    d03d:	fa ff 
    d03f:	66 c7 85 26 f1 ff ff 	movw   $0xfffa,-0xeda(%rbp)
    d046:	fa ff 
    d048:	66 c7 85 28 f1 ff ff 	movw   $0x6,-0xed8(%rbp)
    d04f:	06 00 
    d051:	66 c7 85 2a f1 ff ff 	movw   $0x6,-0xed6(%rbp)
    d058:	06 00 
    d05a:	66 c7 85 2c f1 ff ff 	movw   $0x330d,-0xed4(%rbp)
    d061:	0d 33 
    d063:	66 c7 85 2e f1 ff ff 	movw   $0xffff,-0xed2(%rbp)
    d06a:	ff ff 
    d06c:	66 c7 85 30 f1 ff ff 	movw   $0xffff,-0xed0(%rbp)
    d073:	ff ff 
    d075:	66 c7 85 32 f1 ff ff 	movw   $0x1,-0xece(%rbp)
    d07c:	01 00 
    d07e:	66 c7 85 34 f1 ff ff 	movw   $0x330d,-0xecc(%rbp)
    d085:	0d 33 
    d087:	66 c7 85 36 f1 ff ff 	movw   $0x1,-0xeca(%rbp)
    d08e:	01 00 
    d090:	66 c7 85 38 f1 ff ff 	movw   $0x6,-0xec8(%rbp)
    d097:	06 00 
    d099:	66 c7 85 3a f1 ff ff 	movw   $0xe4b5,-0xec6(%rbp)
    d0a0:	b5 e4 
    d0a2:	66 c7 85 3c f1 ff ff 	movw   $0xfffa,-0xec4(%rbp)
    d0a9:	fa ff 
    d0ab:	66 c7 85 3e f1 ff ff 	movw   $0x330d,-0xec2(%rbp)
    d0b2:	0d 33 
    d0b4:	66 c7 85 40 f1 ff ff 	movw   $0x1,-0xec0(%rbp)
    d0bb:	01 00 
    d0bd:	66 c7 85 42 f1 ff ff 	movw   $0xe4b5,-0xebe(%rbp)
    d0c4:	b5 e4 
    d0c6:	66 c7 85 44 f1 ff ff 	movw   $0xe4b5,-0xebc(%rbp)
    d0cd:	b5 e4 
    d0cf:	66 c7 85 46 f1 ff ff 	movw   $0x1,-0xeba(%rbp)
    d0d6:	01 00 
    d0d8:	66 c7 85 48 f1 ff ff 	movw   $0xe4b5,-0xeb8(%rbp)
    d0df:	b5 e4 
    d0e1:	66 c7 85 4a f1 ff ff 	movw   $0x1,-0xeb6(%rbp)
    d0e8:	01 00 
    d0ea:	66 c7 85 4c f1 ff ff 	movw   $0x6,-0xeb4(%rbp)
    d0f1:	06 00 
    d0f3:	66 c7 85 4e f1 ff ff 	movw   $0xffff,-0xeb2(%rbp)
    d0fa:	ff ff 
    d0fc:	66 c7 85 50 f1 ff ff 	movw   $0xe4b5,-0xeb0(%rbp)
    d103:	b5 e4 
    d105:	66 c7 85 52 f1 ff ff 	movw   $0x6,-0xeae(%rbp)
    d10c:	06 00 
    d10e:	66 c7 85 54 f1 ff ff 	movw   $0xe4b5,-0xeac(%rbp)
    d115:	b5 e4 
    d117:	66 c7 85 56 f1 ff ff 	movw   $0xfffa,-0xeaa(%rbp)
    d11e:	fa ff 
    d120:	66 c7 85 58 f1 ff ff 	movw   $0x1,-0xea8(%rbp)
    d127:	01 00 
    d129:	66 c7 85 5a f1 ff ff 	movw   $0xffff,-0xea6(%rbp)
    d130:	ff ff 
    d132:	66 c7 85 5c f1 ff ff 	movw   $0xfffa,-0xea4(%rbp)
    d139:	fa ff 
    d13b:	66 c7 85 5e f1 ff ff 	movw   $0xfffa,-0xea2(%rbp)
    d142:	fa ff 
    d144:	c7 85 18 ec ff ff 26 	movl   $0xf9d17426,-0x13e8(%rbp)
    d14b:	74 d1 f9 
    d14e:	c7 85 1c ec ff ff 4f 	movl   $0xa19b1c4f,-0x13e4(%rbp)
    d155:	1c 9b a1 
    d158:	c7 85 20 ec ff ff c7 	movl   $0x4408b4c7,-0x13e0(%rbp)
    d15f:	b4 08 44 
    d162:	c7 85 24 ec ff ff 00 	movl   $0x0,-0x13dc(%rbp)
    d169:	00 00 00 
    d16c:	48 8d 85 88 ec ff ff 	lea    -0x1378(%rbp),%rax
    d173:	48 89 85 48 ee ff ff 	mov    %rax,-0x11b8(%rbp)
    d17a:	48 8d 85 70 f0 ff ff 	lea    -0xf90(%rbp),%rax
    d181:	48 89 85 50 ee ff ff 	mov    %rax,-0x11b0(%rbp)
    d188:	c7 45 bf da da da da 	movl   $0xdadadada,-0x41(%rbp)
    d18f:	c6 45 c3 da          	movb   $0xda,-0x3d(%rbp)
    d193:	48 c7 85 58 ee ff ff 	movq   $0x0,-0x11a8(%rbp)
    d19a:	00 00 00 00 
    d19e:	c7 85 90 eb ff ff 00 	movl   $0x0,-0x1470(%rbp)
    d1a5:	00 00 00 
    d1a8:	eb 1e                	jmp    d1c8 <func_37+0x23a4>
    d1aa:	8b 85 90 eb ff ff    	mov    -0x1470(%rbp),%eax
    d1b0:	48 98                	cltq   
    d1b2:	48 8d 15 a7 ae 00 00 	lea    0xaea7(%rip),%rdx        # 18060 <g_151>
    d1b9:	48 89 94 c5 70 f0 ff 	mov    %rdx,-0xf90(%rbp,%rax,8)
    d1c0:	ff 
    d1c1:	83 85 90 eb ff ff 01 	addl   $0x1,-0x1470(%rbp)
    d1c8:	83 bd 90 eb ff ff 06 	cmpl   $0x6,-0x1470(%rbp)
    d1cf:	7e d9                	jle    d1aa <func_37+0x2386>
    d1d1:	0f b7 85 48 eb ff ff 	movzwl -0x14b8(%rbp),%eax
    d1d8:	0f be d8             	movsbl %al,%ebx
    d1db:	0f b6 05 1f b0 00 00 	movzbl 0xb01f(%rip),%eax        # 18201 <g_423>
    d1e2:	c1 e0 07             	shl    $0x7,%eax
    d1e5:	c0 f8 07             	sar    $0x7,%al
    d1e8:	0f be c0             	movsbl %al,%eax
    d1eb:	48 8b 95 00 ee ff ff 	mov    -0x1200(%rbp),%rdx
    d1f2:	48 8b 12             	mov    (%rdx),%rdx
    d1f5:	c7 02 c7 00 00 00    	movl   $0xc7,(%rdx)
    d1fb:	89 c6                	mov    %eax,%esi
    d1fd:	bf c7 00 00 00       	mov    $0xc7,%edi
    d202:	e8 b7 9a ff ff       	callq  6cbe <safe_rshift_func_uint8_t_u_u>
    d207:	f7 d0                	not    %eax
    d209:	0f be c0             	movsbl %al,%eax
    d20c:	89 de                	mov    %ebx,%esi
    d20e:	89 c7                	mov    %eax,%edi
    d210:	e8 1c 90 ff ff       	callq  6231 <safe_mod_func_int8_t_s_s>
    d215:	48 0f be c0          	movsbq %al,%rax
    d219:	48 39 85 58 eb ff ff 	cmp    %rax,-0x14a8(%rbp)
    d220:	0f 95 c0             	setne  %al
    d223:	0f b6 d8             	movzbl %al,%ebx
    d226:	48 83 bd 50 eb ff ff 	cmpq   $0x0,-0x14b0(%rbp)
    d22d:	00 
    d22e:	48 8b 05 e3 ce 00 00 	mov    0xcee3(%rip),%rax        # 1a118 <g_275>
    d235:	48 8b 00             	mov    (%rax),%rax
    d238:	48 8b 85 58 eb ff ff 	mov    -0x14a8(%rbp),%rax
    d23f:	98                   	cwtl   
    d240:	be 06 00 00 00       	mov    $0x6,%esi
    d245:	89 c7                	mov    %eax,%edi
    d247:	e8 17 93 ff ff       	callq  6563 <safe_rshift_func_int16_t_s_u>
    d24c:	0f b7 d0             	movzwl %ax,%edx
    d24f:	0f b7 85 48 eb ff ff 	movzwl -0x14b8(%rbp),%eax
    d256:	0f b7 c0             	movzwl %ax,%eax
    d259:	89 d6                	mov    %edx,%esi
    d25b:	89 c7                	mov    %eax,%edi
    d25d:	e8 db 9a ff ff       	callq  6d3d <safe_mul_func_uint16_t_u_u>
    d262:	0f b7 c0             	movzwl %ax,%eax
    d265:	be 1b 59 00 00       	mov    $0x591b,%esi
    d26a:	89 c7                	mov    %eax,%edi
    d26c:	e8 cc 9a ff ff       	callq  6d3d <safe_mul_func_uint16_t_u_u>
    d271:	0f b7 c0             	movzwl %ax,%eax
    d274:	89 c7                	mov    %eax,%edi
    d276:	e8 1b 93 ff ff       	callq  6596 <safe_unary_minus_func_int32_t_s>
    d27b:	39 c3                	cmp    %eax,%ebx
    d27d:	0f 8f 46 04 00 00    	jg     d6c9 <func_37+0x28a5>
    d283:	c7 85 94 eb ff ff 37 	movl   $0xa8b66837,-0x146c(%rbp)
    d28a:	68 b6 a8 
    d28d:	c7 85 28 ec ff ff fd 	movl   $0xfffffffd,-0x13d8(%rbp)
    d294:	ff ff ff 
    d297:	c7 85 2c ec ff ff 16 	movl   $0x465c0416,-0x13d4(%rbp)
    d29e:	04 5c 46 
    d2a1:	c7 85 30 ec ff ff 1c 	movl   $0xb04eb01c,-0x13d0(%rbp)
    d2a8:	b0 4e b0 
    d2ab:	c7 85 f8 ec ff ff 01 	movl   $0x1,-0x1308(%rbp)
    d2b2:	00 00 00 
    d2b5:	c7 85 34 ec ff ff ff 	movl   $0xffffffff,-0x13cc(%rbp)
    d2bc:	ff ff ff 
    d2bf:	48 8d 85 f0 ec ff ff 	lea    -0x1310(%rbp),%rax
    d2c6:	48 89 85 00 ed ff ff 	mov    %rax,-0x1300(%rbp)
    d2cd:	c7 85 b8 eb ff ff 00 	movl   $0x0,-0x1448(%rbp)
    d2d4:	00 00 00 
    d2d7:	eb 4b                	jmp    d324 <func_37+0x2500>
    d2d9:	48 8d 05 84 ad 00 00 	lea    0xad84(%rip),%rax        # 18064 <g_201>
    d2e0:	48 89 85 60 ee ff ff 	mov    %rax,-0x11a0(%rbp)
    d2e7:	8b 85 b8 eb ff ff    	mov    -0x1448(%rbp),%eax
    d2ed:	8b 84 85 34 ef ff ff 	mov    -0x10cc(%rbp,%rax,4),%eax
    d2f4:	85 c0                	test   %eax,%eax
    d2f6:	75 37                	jne    d32f <func_37+0x250b>
    d2f8:	48 8b 85 58 eb ff ff 	mov    -0x14a8(%rbp),%rax
    d2ff:	48 8d 50 ff          	lea    -0x1(%rax),%rdx
    d303:	48 89 95 58 eb ff ff 	mov    %rdx,-0x14a8(%rbp)
    d30a:	be 01 00 00 00       	mov    $0x1,%esi
    d30f:	48 89 c7             	mov    %rax,%rdi
    d312:	e8 98 9d ff ff       	callq  70af <safe_div_func_uint64_t_u_u>
    d317:	09 85 94 eb ff ff    	or     %eax,-0x146c(%rbp)
    d31d:	83 85 b8 eb ff ff 01 	addl   $0x1,-0x1448(%rbp)
    d324:	83 bd b8 eb ff ff 00 	cmpl   $0x0,-0x1448(%rbp)
    d32b:	74 ac                	je     d2d9 <func_37+0x24b5>
    d32d:	eb 01                	jmp    d330 <func_37+0x250c>
    d32f:	90                   	nop
    d330:	48 83 bd 10 ed ff ff 	cmpq   $0x0,-0x12f0(%rbp)
    d337:	00 
    d338:	74 0c                	je     d346 <func_37+0x2522>
    d33a:	48 8b 85 50 eb ff ff 	mov    -0x14b0(%rbp),%rax
    d341:	e9 c1 2e 00 00       	jmpq   10207 <func_37+0x53e3>
    d346:	48 c7 85 68 ee ff ff 	movq   $0x0,-0x1198(%rbp)
    d34d:	00 00 00 00 
    d351:	48 c7 85 70 ee ff ff 	movq   $0x0,-0x1190(%rbp)
    d358:	00 00 00 00 
    d35c:	c7 85 98 eb ff ff 00 	movl   $0x0,-0x1468(%rbp)
    d363:	00 00 00 
    d366:	eb 1e                	jmp    d386 <func_37+0x2562>
    d368:	8b 85 98 eb ff ff    	mov    -0x1468(%rbp),%eax
    d36e:	48 98                	cltq   
    d370:	48 8d 95 34 ef ff ff 	lea    -0x10cc(%rbp),%rdx
    d377:	48 89 94 c5 00 f0 ff 	mov    %rdx,-0x1000(%rbp,%rax,8)
    d37e:	ff 
    d37f:	83 85 98 eb ff ff 01 	addl   $0x1,-0x1468(%rbp)
    d386:	83 bd 98 eb ff ff 01 	cmpl   $0x1,-0x1468(%rbp)
    d38d:	7e d9                	jle    d368 <func_37+0x2544>
    d38f:	80 ad 6d eb ff ff 01 	subb   $0x1,-0x1493(%rbp)
    d396:	48 8b 85 00 ee ff ff 	mov    -0x1200(%rbp),%rax
    d39d:	48 8b 00             	mov    (%rax),%rax
    d3a0:	c7 00 12 b9 68 ea    	movl   $0xea68b912,(%rax)
    d3a6:	48 8b 85 00 ee ff ff 	mov    -0x1200(%rbp),%rax
    d3ad:	48 8b 00             	mov    (%rax),%rax
    d3b0:	8b 00                	mov    (%rax),%eax
    d3b2:	0f be c0             	movsbl %al,%eax
    d3b5:	89 c6                	mov    %eax,%esi
    d3b7:	bf 66 00 00 00       	mov    $0x66,%edi
    d3bc:	e8 51 8e ff ff       	callq  6212 <safe_mul_func_int8_t_s_s>
    d3c1:	0f be c0             	movsbl %al,%eax
    d3c4:	31 85 2c ec ff ff    	xor    %eax,-0x13d4(%rbp)
    d3ca:	8b 85 2c ec ff ff    	mov    -0x13d4(%rbp),%eax
    d3d0:	0f be c0             	movsbl %al,%eax
    d3d3:	be 01 00 00 00       	mov    $0x1,%esi
    d3d8:	89 c7                	mov    %eax,%edi
    d3da:	e8 c2 8e ff ff       	callq  62a1 <safe_lshift_func_int8_t_s_s>
    d3df:	48 0f be d0          	movsbq %al,%rdx
    d3e3:	48 8b 05 3e cd 00 00 	mov    0xcd3e(%rip),%rax        # 1a128 <g_326>
    d3ea:	8b 08                	mov    (%rax),%ecx
    d3ec:	48 8b 85 00 ee ff ff 	mov    -0x1200(%rbp),%rax
    d3f3:	48 8b 00             	mov    (%rax),%rax
    d3f6:	8b 00                	mov    (%rax),%eax
    d3f8:	31 c8                	xor    %ecx,%eax
    d3fa:	48 98                	cltq   
    d3fc:	48 39 85 10 ed ff ff 	cmp    %rax,-0x12f0(%rbp)
    d403:	0f 93 c0             	setae  %al
    d406:	0f b6 c0             	movzbl %al,%eax
    d409:	48 89 d6             	mov    %rdx,%rsi
    d40c:	48 89 c7             	mov    %rax,%rdi
    d40f:	e8 a0 95 ff ff       	callq  69b4 <safe_mod_func_int64_t_s_s>
    d414:	09 85 8c eb ff ff    	or     %eax,-0x1474(%rbp)
    d41a:	48 8b 05 07 cd 00 00 	mov    0xcd07(%rip),%rax        # 1a128 <g_326>
    d421:	0f b7 95 4c eb ff ff 	movzwl -0x14b4(%rbp),%edx
    d428:	89 10                	mov    %edx,(%rax)
    d42a:	8b 00                	mov    (%rax),%eax
    d42c:	89 85 8c eb ff ff    	mov    %eax,-0x1474(%rbp)
    d432:	c7 85 8c eb ff ff 04 	movl   $0x4,-0x1474(%rbp)
    d439:	00 00 00 
    d43c:	e9 69 02 00 00       	jmpq   d6aa <func_37+0x2886>
    d441:	48 8d 85 c8 ec ff ff 	lea    -0x1338(%rbp),%rax
    d448:	48 89 85 78 ee ff ff 	mov    %rax,-0x1188(%rbp)
    d44f:	48 8d 05 02 ac 00 00 	lea    0xac02(%rip),%rax        # 18058 <g_146>
    d456:	48 89 85 80 ee ff ff 	mov    %rax,-0x1180(%rbp)
    d45d:	48 8d 85 f8 ec ff ff 	lea    -0x1308(%rbp),%rax
    d464:	48 89 85 88 ee ff ff 	mov    %rax,-0x1178(%rbp)
    d46b:	48 8d 85 f0 ec ff ff 	lea    -0x1310(%rbp),%rax
    d472:	48 89 85 90 ee ff ff 	mov    %rax,-0x1170(%rbp)
    d479:	48 8b 95 c8 ec ff ff 	mov    -0x1338(%rbp),%rdx
    d480:	48 8b 85 78 ee ff ff 	mov    -0x1188(%rbp),%rax
    d487:	48 89 10             	mov    %rdx,(%rax)
    d48a:	48 8b 85 78 ee ff ff 	mov    -0x1188(%rbp),%rax
    d491:	48 8b 00             	mov    (%rax),%rax
    d494:	48 89 85 10 ee ff ff 	mov    %rax,-0x11f0(%rbp)
    d49b:	48 8b 85 e0 ed ff ff 	mov    -0x1220(%rbp),%rax
    d4a2:	48 8b 95 48 ee ff ff 	mov    -0x11b8(%rbp),%rdx
    d4a9:	48 89 10             	mov    %rdx,(%rax)
    d4ac:	48 8b 85 f0 ed ff ff 	mov    -0x1210(%rbp),%rax
    d4b3:	0f b6 00             	movzbl (%rax),%eax
    d4b6:	8d 50 01             	lea    0x1(%rax),%edx
    d4b9:	48 8b 85 f0 ed ff ff 	mov    -0x1210(%rbp),%rax
    d4c0:	88 10                	mov    %dl,(%rax)
    d4c2:	48 8b 85 f0 ed ff ff 	mov    -0x1210(%rbp),%rax
    d4c9:	0f b6 00             	movzbl (%rax),%eax
    d4cc:	3c 74                	cmp    $0x74,%al
    d4ce:	0f 94 c0             	sete   %al
    d4d1:	44 0f b6 e8          	movzbl %al,%r13d
    d4d5:	48 8b 85 58 eb ff ff 	mov    -0x14a8(%rbp),%rax
    d4dc:	0f b6 d8             	movzbl %al,%ebx
    d4df:	44 0f b7 a5 4c eb ff 	movzwl -0x14b4(%rbp),%r12d
    d4e6:	ff 
    d4e7:	0f b7 95 4c eb ff ff 	movzwl -0x14b4(%rbp),%edx
    d4ee:	48 83 bd 18 ee ff ff 	cmpq   $0x0,-0x11e8(%rbp)
    d4f5:	00 
    d4f6:	0f 94 c0             	sete   %al
    d4f9:	0f b6 c0             	movzbl %al,%eax
    d4fc:	48 89 d6             	mov    %rdx,%rsi
    d4ff:	48 89 c7             	mov    %rax,%rdi
    d502:	e8 ad 94 ff ff       	callq  69b4 <safe_mod_func_int64_t_s_s>
    d507:	48 33 85 58 eb ff ff 	xor    -0x14a8(%rbp),%rax
    d50e:	48 89 c2             	mov    %rax,%rdx
    d511:	48 8b 85 80 ee ff ff 	mov    -0x1180(%rbp),%rax
    d518:	48 89 10             	mov    %rdx,(%rax)
    d51b:	48 8b 85 80 ee ff ff 	mov    -0x1180(%rbp),%rax
    d522:	48 8b 00             	mov    (%rax),%rax
    d525:	4c 89 e6             	mov    %r12,%rsi
    d528:	48 89 c7             	mov    %rax,%rdi
    d52b:	e8 78 93 ff ff       	callq  68a8 <safe_sub_func_int64_t_s_s>
    d530:	0f b6 c0             	movzbl %al,%eax
    d533:	89 de                	mov    %ebx,%esi
    d535:	89 c7                	mov    %eax,%edi
    d537:	e8 57 96 ff ff       	callq  6b93 <safe_mul_func_uint8_t_u_u>
    d53c:	80 bd 70 eb ff ff 00 	cmpb   $0x0,-0x1490(%rbp)
    d543:	0f 9f c0             	setg   %al
    d546:	0f b6 c0             	movzbl %al,%eax
    d549:	be 00 00 00 00       	mov    $0x0,%esi
    d54e:	89 c7                	mov    %eax,%edi
    d550:	e8 69 97 ff ff       	callq  6cbe <safe_rshift_func_uint8_t_u_u>
    d555:	0f b6 c0             	movzbl %al,%eax
    d558:	89 85 18 ec ff ff    	mov    %eax,-0x13e8(%rbp)
    d55e:	8b 85 18 ec ff ff    	mov    -0x13e8(%rbp),%eax
    d564:	89 05 1e af 00 00    	mov    %eax,0xaf1e(%rip)        # 18488 <g_715+0x268>
    d56a:	8b 05 18 af 00 00    	mov    0xaf18(%rip),%eax        # 18488 <g_715+0x268>
    d570:	41 39 c5             	cmp    %eax,%r13d
    d573:	0f 92 c2             	setb   %dl
    d576:	48 8b 85 00 ee ff ff 	mov    -0x1200(%rbp),%rax
    d57d:	48 8b 00             	mov    (%rax),%rax
    d580:	0f b6 d2             	movzbl %dl,%edx
    d583:	89 10                	mov    %edx,(%rax)
    d585:	48 8d 05 ec aa 00 00 	lea    0xaaec(%rip),%rax        # 18078 <g_247>
    d58c:	48 89 85 88 ee ff ff 	mov    %rax,-0x1178(%rbp)
    d593:	0f b7 85 4c eb ff ff 	movzwl -0x14b4(%rbp),%eax
    d59a:	0f bf d8             	movswl %ax,%ebx
    d59d:	48 8b 85 58 eb ff ff 	mov    -0x14a8(%rbp),%rax
    d5a4:	89 c2                	mov    %eax,%edx
    d5a6:	48 8b 85 50 ee ff ff 	mov    -0x11b0(%rbp),%rax
    d5ad:	48 8b 00             	mov    (%rax),%rax
    d5b0:	c7 00 c8 7c 92 4f    	movl   $0x4f927cc8,(%rax)
    d5b6:	48 81 bd 58 eb ff ff 	cmpq   $0x4f927cc8,-0x14a8(%rbp)
    d5bd:	c8 7c 92 4f 
    d5c1:	0f 94 c0             	sete   %al
    d5c4:	0f b6 c0             	movzbl %al,%eax
    d5c7:	89 d6                	mov    %edx,%esi
    d5c9:	89 c7                	mov    %eax,%edi
    d5cb:	e8 bd 96 ff ff       	callq  6c8d <safe_rshift_func_uint8_t_u_s>
    d5d0:	48 8b 95 90 ec ff ff 	mov    -0x1370(%rbp),%rdx
    d5d7:	48 8b 85 e0 ed ff ff 	mov    -0x1220(%rbp),%rax
    d5de:	48 8b 00             	mov    (%rax),%rax
    d5e1:	48 8b 12             	mov    (%rdx),%rdx
    d5e4:	48 89 10             	mov    %rdx,(%rax)
    d5e7:	48 8b 00             	mov    (%rax),%rax
    d5ea:	48 89 85 58 ee ff ff 	mov    %rax,-0x11a8(%rbp)
    d5f1:	48 8b 85 58 ee ff ff 	mov    -0x11a8(%rbp),%rax
    d5f8:	48 89 85 90 ee ff ff 	mov    %rax,-0x1170(%rbp)
    d5ff:	0f b7 85 48 eb ff ff 	movzwl -0x14b8(%rbp),%eax
    d606:	89 c2                	mov    %eax,%edx
    d608:	48 8b 05 f1 ca 00 00 	mov    0xcaf1(%rip),%rax        # 1a100 <g_236>
    d60f:	48 8b 00             	mov    (%rax),%rax
    d612:	31 d0                	xor    %edx,%eax
    d614:	0f b6 c0             	movzbl %al,%eax
    d617:	be 00 00 00 00       	mov    $0x0,%esi
    d61c:	89 c7                	mov    %eax,%edi
    d61e:	e8 37 95 ff ff       	callq  6b5a <safe_add_func_uint8_t_u_u>
    d623:	48 8b 85 58 eb ff ff 	mov    -0x14a8(%rbp),%rax
    d62a:	f7 d0                	not    %eax
    d62c:	0f be c0             	movsbl %al,%eax
    d62f:	be 01 00 00 00       	mov    $0x1,%esi
    d634:	89 c7                	mov    %eax,%edi
    d636:	e8 fa 8c ff ff       	callq  6335 <safe_rshift_func_int8_t_s_s>
    d63b:	84 c0                	test   %al,%al
    d63d:	74 11                	je     d650 <func_37+0x282c>
    d63f:	48 83 bd 58 eb ff ff 	cmpq   $0x0,-0x14a8(%rbp)
    d646:	00 
    d647:	74 07                	je     d650 <func_37+0x282c>
    d649:	b8 01 00 00 00       	mov    $0x1,%eax
    d64e:	eb 05                	jmp    d655 <func_37+0x2831>
    d650:	b8 00 00 00 00       	mov    $0x0,%eax
    d655:	83 f8 01             	cmp    $0x1,%eax
    d658:	48 8d 15 e9 ca 00 00 	lea    0xcae9(%rip),%rdx        # 1a148 <g_722>
    d65f:	48 8d 05 e2 ca 00 00 	lea    0xcae2(%rip),%rax        # 1a148 <g_722>
    d666:	48 39 c2             	cmp    %rax,%rdx
    d669:	0f 94 c0             	sete   %al
    d66c:	0f b6 c0             	movzbl %al,%eax
    d66f:	89 85 18 ec ff ff    	mov    %eax,-0x13e8(%rbp)
    d675:	89 de                	mov    %ebx,%esi
    d677:	bf 01 00 00 00       	mov    $0x1,%edi
    d67c:	e8 d4 8d ff ff       	callq  6455 <safe_div_func_int16_t_s_s>
    d681:	48 8b 85 00 ee ff ff 	mov    -0x1200(%rbp),%rax
    d688:	48 8b 95 50 eb ff ff 	mov    -0x14b0(%rbp),%rdx
    d68f:	48 89 10             	mov    %rdx,(%rax)
    d692:	48 8b 85 00 ee ff ff 	mov    -0x1200(%rbp),%rax
    d699:	48 8d 15 d8 a9 00 00 	lea    0xa9d8(%rip),%rdx        # 18078 <g_247>
    d6a0:	48 89 10             	mov    %rdx,(%rax)
    d6a3:	83 ad 8c eb ff ff 01 	subl   $0x1,-0x1474(%rbp)
    d6aa:	83 bd 8c eb ff ff 00 	cmpl   $0x0,-0x1474(%rbp)
    d6b1:	0f 89 8a fd ff ff    	jns    d441 <func_37+0x261d>
    d6b7:	0f b6 05 8a a9 00 00 	movzbl 0xa98a(%rip),%eax        # 18048 <g_95>
    d6be:	83 e8 01             	sub    $0x1,%eax
    d6c1:	88 05 81 a9 00 00    	mov    %al,0xa981(%rip)        # 18048 <g_95>
    d6c7:	eb 0c                	jmp    d6d5 <func_37+0x28b1>
    d6c9:	48 8b 85 30 ee ff ff 	mov    -0x11d0(%rbp),%rax
    d6d0:	e9 32 2b 00 00       	jmpq   10207 <func_37+0x53e3>
    d6d5:	0f b6 05 6c a9 00 00 	movzbl 0xa96c(%rip),%eax        # 18048 <g_95>
    d6dc:	84 c0                	test   %al,%al
    d6de:	0f 89 40 f9 ff ff    	jns    d024 <func_37+0x2200>
    d6e4:	48 8b 15 4d ca 00 00 	mov    0xca4d(%rip),%rdx        # 1a138 <g_425>
    d6eb:	48 8b 85 38 ee ff ff 	mov    -0x11c8(%rbp),%rax
    d6f2:	48 89 10             	mov    %rdx,(%rax)
    d6f5:	48 8b 85 38 ee ff ff 	mov    -0x11c8(%rbp),%rax
    d6fc:	48 8b 00             	mov    (%rax),%rax
    d6ff:	48 89 05 4a ca 00 00 	mov    %rax,0xca4a(%rip)        # 1a150 <g_737>
    d706:	e9 f2 2a 00 00       	jmpq   101fd <func_37+0x53d9>
    d70b:	c7 85 d8 eb ff ff f6 	movl   $0xfffffff6,-0x1428(%rbp)
    d712:	ff ff ff 
    d715:	c7 85 9c eb ff ff ff 	movl   $0xffffffff,-0x1464(%rbp)
    d71c:	ff ff ff 
    d71f:	c7 85 7c eb ff ff 61 	movl   $0xa075cb61,-0x1484(%rbp)
    d726:	cb 75 a0 
    d729:	c7 85 40 ef ff ff 00 	movl   $0x0,-0x10c0(%rbp)
    d730:	00 00 00 
    d733:	c7 85 44 ef ff ff 00 	movl   $0x0,-0x10bc(%rbp)
    d73a:	00 00 00 
    d73d:	c7 85 48 ef ff ff 00 	movl   $0x0,-0x10b8(%rbp)
    d744:	00 00 00 
    d747:	c7 85 4c ef ff ff 00 	movl   $0x0,-0x10b4(%rbp)
    d74e:	00 00 00 
    d751:	c7 85 50 ef ff ff 00 	movl   $0x0,-0x10b0(%rbp)
    d758:	00 00 00 
    d75b:	c6 85 71 eb ff ff 99 	movb   $0x99,-0x148f(%rbp)
    d762:	c7 85 dc eb ff ff fb 	movl   $0xfffffffb,-0x1424(%rbp)
    d769:	ff ff ff 
    d76c:	48 8d 05 ad c9 00 00 	lea    0xc9ad(%rip),%rax        # 1a120 <g_323>
    d773:	48 89 85 30 ed ff ff 	mov    %rax,-0x12d0(%rbp)
    d77a:	48 8d 85 20 f1 ff ff 	lea    -0xee0(%rbp),%rax
    d781:	48 8d 15 78 bb 00 00 	lea    0xbb78(%rip),%rdx        # 19300 <g_1266+0xde0>
    d788:	b9 46 00 00 00       	mov    $0x46,%ecx
    d78d:	48 89 c7             	mov    %rax,%rdi
    d790:	48 89 d6             	mov    %rdx,%rsi
    d793:	f3 48 a5             	rep movsq %ds:(%rsi),%es:(%rdi)
    d796:	48 c7 85 f0 f8 ff ff 	movq   $0x0,-0x710(%rbp)
    d79d:	00 00 00 00 
    d7a1:	48 8d 85 d0 ec ff ff 	lea    -0x1330(%rbp),%rax
    d7a8:	48 89 85 f8 f8 ff ff 	mov    %rax,-0x708(%rbp)
    d7af:	48 8d 85 d0 ec ff ff 	lea    -0x1330(%rbp),%rax
    d7b6:	48 89 85 00 f9 ff ff 	mov    %rax,-0x700(%rbp)
    d7bd:	48 c7 85 08 f9 ff ff 	movq   $0x0,-0x6f8(%rbp)
    d7c4:	00 00 00 00 
    d7c8:	48 c7 85 10 f9 ff ff 	movq   $0x0,-0x6f0(%rbp)
    d7cf:	00 00 00 00 
    d7d3:	48 8d 05 76 c9 00 00 	lea    0xc976(%rip),%rax        # 1a150 <g_737>
    d7da:	48 89 85 18 f9 ff ff 	mov    %rax,-0x6e8(%rbp)
    d7e1:	48 8d 05 68 c9 00 00 	lea    0xc968(%rip),%rax        # 1a150 <g_737>
    d7e8:	48 89 85 20 f9 ff ff 	mov    %rax,-0x6e0(%rbp)
    d7ef:	48 8d 85 d0 ec ff ff 	lea    -0x1330(%rbp),%rax
    d7f6:	48 89 85 28 f9 ff ff 	mov    %rax,-0x6d8(%rbp)
    d7fd:	48 8d 05 34 c9 00 00 	lea    0xc934(%rip),%rax        # 1a138 <g_425>
    d804:	48 89 85 30 f9 ff ff 	mov    %rax,-0x6d0(%rbp)
    d80b:	48 8d 85 d0 ec ff ff 	lea    -0x1330(%rbp),%rax
    d812:	48 89 85 38 f9 ff ff 	mov    %rax,-0x6c8(%rbp)
    d819:	48 8d 85 d0 ec ff ff 	lea    -0x1330(%rbp),%rax
    d820:	48 89 85 40 f9 ff ff 	mov    %rax,-0x6c0(%rbp)
    d827:	48 c7 85 48 f9 ff ff 	movq   $0x0,-0x6b8(%rbp)
    d82e:	00 00 00 00 
    d832:	48 8d 85 d0 ec ff ff 	lea    -0x1330(%rbp),%rax
    d839:	48 89 85 50 f9 ff ff 	mov    %rax,-0x6b0(%rbp)
    d840:	48 8d 85 d0 ec ff ff 	lea    -0x1330(%rbp),%rax
    d847:	48 89 85 58 f9 ff ff 	mov    %rax,-0x6a8(%rbp)
    d84e:	48 8d 05 e3 c8 00 00 	lea    0xc8e3(%rip),%rax        # 1a138 <g_425>
    d855:	48 89 85 60 f9 ff ff 	mov    %rax,-0x6a0(%rbp)
    d85c:	48 8d 05 ed c8 00 00 	lea    0xc8ed(%rip),%rax        # 1a150 <g_737>
    d863:	48 89 85 68 f9 ff ff 	mov    %rax,-0x698(%rbp)
    d86a:	48 8d 85 d0 ec ff ff 	lea    -0x1330(%rbp),%rax
    d871:	48 89 85 70 f9 ff ff 	mov    %rax,-0x690(%rbp)
    d878:	48 8d 05 b9 c8 00 00 	lea    0xc8b9(%rip),%rax        # 1a138 <g_425>
    d87f:	48 89 85 78 f9 ff ff 	mov    %rax,-0x688(%rbp)
    d886:	48 8d 05 ab c8 00 00 	lea    0xc8ab(%rip),%rax        # 1a138 <g_425>
    d88d:	48 89 85 80 f9 ff ff 	mov    %rax,-0x680(%rbp)
    d894:	48 8d 05 9d c8 00 00 	lea    0xc89d(%rip),%rax        # 1a138 <g_425>
    d89b:	48 89 85 88 f9 ff ff 	mov    %rax,-0x678(%rbp)
    d8a2:	48 c7 85 90 f9 ff ff 	movq   $0x0,-0x670(%rbp)
    d8a9:	00 00 00 00 
    d8ad:	48 c7 85 98 f9 ff ff 	movq   $0x0,-0x668(%rbp)
    d8b4:	00 00 00 00 
    d8b8:	48 8d 05 91 c8 00 00 	lea    0xc891(%rip),%rax        # 1a150 <g_737>
    d8bf:	48 89 85 a0 f9 ff ff 	mov    %rax,-0x660(%rbp)
    d8c6:	48 c7 85 a8 f9 ff ff 	movq   $0x0,-0x658(%rbp)
    d8cd:	00 00 00 00 
    d8d1:	48 8d 05 60 c8 00 00 	lea    0xc860(%rip),%rax        # 1a138 <g_425>
    d8d8:	48 89 85 b0 f9 ff ff 	mov    %rax,-0x650(%rbp)
    d8df:	48 8d 85 d0 ec ff ff 	lea    -0x1330(%rbp),%rax
    d8e6:	48 89 85 b8 f9 ff ff 	mov    %rax,-0x648(%rbp)
    d8ed:	48 8d 05 5c c8 00 00 	lea    0xc85c(%rip),%rax        # 1a150 <g_737>
    d8f4:	48 89 85 c0 f9 ff ff 	mov    %rax,-0x640(%rbp)
    d8fb:	48 8d 05 36 c8 00 00 	lea    0xc836(%rip),%rax        # 1a138 <g_425>
    d902:	48 89 85 c8 f9 ff ff 	mov    %rax,-0x638(%rbp)
    d909:	48 8d 05 40 c8 00 00 	lea    0xc840(%rip),%rax        # 1a150 <g_737>
    d910:	48 89 85 d0 f9 ff ff 	mov    %rax,-0x630(%rbp)
    d917:	48 8d 85 d0 ec ff ff 	lea    -0x1330(%rbp),%rax
    d91e:	48 89 85 d8 f9 ff ff 	mov    %rax,-0x628(%rbp)
    d925:	48 c7 85 e0 f9 ff ff 	movq   $0x0,-0x620(%rbp)
    d92c:	00 00 00 00 
    d930:	48 8d 85 d0 ec ff ff 	lea    -0x1330(%rbp),%rax
    d937:	48 89 85 e8 f9 ff ff 	mov    %rax,-0x618(%rbp)
    d93e:	48 8d 85 d0 ec ff ff 	lea    -0x1330(%rbp),%rax
    d945:	48 89 85 f0 f9 ff ff 	mov    %rax,-0x610(%rbp)
    d94c:	48 c7 85 f8 f9 ff ff 	movq   $0x0,-0x608(%rbp)
    d953:	00 00 00 00 
    d957:	48 c7 85 00 fa ff ff 	movq   $0x0,-0x600(%rbp)
    d95e:	00 00 00 00 
    d962:	48 8d 05 e7 c7 00 00 	lea    0xc7e7(%rip),%rax        # 1a150 <g_737>
    d969:	48 89 85 08 fa ff ff 	mov    %rax,-0x5f8(%rbp)
    d970:	48 8d 05 d9 c7 00 00 	lea    0xc7d9(%rip),%rax        # 1a150 <g_737>
    d977:	48 89 85 10 fa ff ff 	mov    %rax,-0x5f0(%rbp)
    d97e:	48 8d 85 d0 ec ff ff 	lea    -0x1330(%rbp),%rax
    d985:	48 89 85 18 fa ff ff 	mov    %rax,-0x5e8(%rbp)
    d98c:	48 8d 05 a5 c7 00 00 	lea    0xc7a5(%rip),%rax        # 1a138 <g_425>
    d993:	48 89 85 20 fa ff ff 	mov    %rax,-0x5e0(%rbp)
    d99a:	48 8d 85 d0 ec ff ff 	lea    -0x1330(%rbp),%rax
    d9a1:	48 89 85 28 fa ff ff 	mov    %rax,-0x5d8(%rbp)
    d9a8:	48 8d 85 d0 ec ff ff 	lea    -0x1330(%rbp),%rax
    d9af:	48 89 85 30 fa ff ff 	mov    %rax,-0x5d0(%rbp)
    d9b6:	48 c7 85 38 fa ff ff 	movq   $0x0,-0x5c8(%rbp)
    d9bd:	00 00 00 00 
    d9c1:	48 8d 85 d0 ec ff ff 	lea    -0x1330(%rbp),%rax
    d9c8:	48 89 85 40 fa ff ff 	mov    %rax,-0x5c0(%rbp)
    d9cf:	48 8d 85 d0 ec ff ff 	lea    -0x1330(%rbp),%rax
    d9d6:	48 89 85 48 fa ff ff 	mov    %rax,-0x5b8(%rbp)
    d9dd:	48 8d 05 54 c7 00 00 	lea    0xc754(%rip),%rax        # 1a138 <g_425>
    d9e4:	48 89 85 50 fa ff ff 	mov    %rax,-0x5b0(%rbp)
    d9eb:	48 8d 05 5e c7 00 00 	lea    0xc75e(%rip),%rax        # 1a150 <g_737>
    d9f2:	48 89 85 58 fa ff ff 	mov    %rax,-0x5a8(%rbp)
    d9f9:	48 8d 85 d0 ec ff ff 	lea    -0x1330(%rbp),%rax
    da00:	48 89 85 60 fa ff ff 	mov    %rax,-0x5a0(%rbp)
    da07:	48 8d 05 2a c7 00 00 	lea    0xc72a(%rip),%rax        # 1a138 <g_425>
    da0e:	48 89 85 68 fa ff ff 	mov    %rax,-0x598(%rbp)
    da15:	48 8d 05 1c c7 00 00 	lea    0xc71c(%rip),%rax        # 1a138 <g_425>
    da1c:	48 89 85 70 fa ff ff 	mov    %rax,-0x590(%rbp)
    da23:	48 8d 05 0e c7 00 00 	lea    0xc70e(%rip),%rax        # 1a138 <g_425>
    da2a:	48 89 85 78 fa ff ff 	mov    %rax,-0x588(%rbp)
    da31:	48 c7 85 80 fa ff ff 	movq   $0x0,-0x580(%rbp)
    da38:	00 00 00 00 
    da3c:	48 c7 85 88 fa ff ff 	movq   $0x0,-0x578(%rbp)
    da43:	00 00 00 00 
    da47:	48 8d 05 02 c7 00 00 	lea    0xc702(%rip),%rax        # 1a150 <g_737>
    da4e:	48 89 85 90 fa ff ff 	mov    %rax,-0x570(%rbp)
    da55:	48 c7 85 98 fa ff ff 	movq   $0x0,-0x568(%rbp)
    da5c:	00 00 00 00 
    da60:	48 8d 05 d1 c6 00 00 	lea    0xc6d1(%rip),%rax        # 1a138 <g_425>
    da67:	48 89 85 a0 fa ff ff 	mov    %rax,-0x560(%rbp)
    da6e:	48 8d 85 d0 ec ff ff 	lea    -0x1330(%rbp),%rax
    da75:	48 89 85 a8 fa ff ff 	mov    %rax,-0x558(%rbp)
    da7c:	48 8d 05 cd c6 00 00 	lea    0xc6cd(%rip),%rax        # 1a150 <g_737>
    da83:	48 89 85 b0 fa ff ff 	mov    %rax,-0x550(%rbp)
    da8a:	48 8d 05 a7 c6 00 00 	lea    0xc6a7(%rip),%rax        # 1a138 <g_425>
    da91:	48 89 85 b8 fa ff ff 	mov    %rax,-0x548(%rbp)
    da98:	48 8d 05 b1 c6 00 00 	lea    0xc6b1(%rip),%rax        # 1a150 <g_737>
    da9f:	48 89 85 c0 fa ff ff 	mov    %rax,-0x540(%rbp)
    daa6:	48 8d 85 d0 ec ff ff 	lea    -0x1330(%rbp),%rax
    daad:	48 89 85 c8 fa ff ff 	mov    %rax,-0x538(%rbp)
    dab4:	48 c7 85 d0 fa ff ff 	movq   $0x0,-0x530(%rbp)
    dabb:	00 00 00 00 
    dabf:	48 8d 85 d0 ec ff ff 	lea    -0x1330(%rbp),%rax
    dac6:	48 89 85 d8 fa ff ff 	mov    %rax,-0x528(%rbp)
    dacd:	48 8d 85 d0 ec ff ff 	lea    -0x1330(%rbp),%rax
    dad4:	48 89 85 e0 fa ff ff 	mov    %rax,-0x520(%rbp)
    dadb:	48 c7 85 e8 fa ff ff 	movq   $0x0,-0x518(%rbp)
    dae2:	00 00 00 00 
    dae6:	48 8d 05 4b c6 00 00 	lea    0xc64b(%rip),%rax        # 1a138 <g_425>
    daed:	48 89 85 f0 fa ff ff 	mov    %rax,-0x510(%rbp)
    daf4:	48 8d 05 3d c6 00 00 	lea    0xc63d(%rip),%rax        # 1a138 <g_425>
    dafb:	48 89 85 f8 fa ff ff 	mov    %rax,-0x508(%rbp)
    db02:	48 8d 05 47 c6 00 00 	lea    0xc647(%rip),%rax        # 1a150 <g_737>
    db09:	48 89 85 00 fb ff ff 	mov    %rax,-0x500(%rbp)
    db10:	48 8d 05 39 c6 00 00 	lea    0xc639(%rip),%rax        # 1a150 <g_737>
    db17:	48 89 85 08 fb ff ff 	mov    %rax,-0x4f8(%rbp)
    db1e:	48 8d 05 13 c6 00 00 	lea    0xc613(%rip),%rax        # 1a138 <g_425>
    db25:	48 89 85 10 fb ff ff 	mov    %rax,-0x4f0(%rbp)
    db2c:	48 8d 05 05 c6 00 00 	lea    0xc605(%rip),%rax        # 1a138 <g_425>
    db33:	48 89 85 18 fb ff ff 	mov    %rax,-0x4e8(%rbp)
    db3a:	48 c7 85 20 fb ff ff 	movq   $0x0,-0x4e0(%rbp)
    db41:	00 00 00 00 
    db45:	48 8d 85 d0 ec ff ff 	lea    -0x1330(%rbp),%rax
    db4c:	48 89 85 28 fb ff ff 	mov    %rax,-0x4d8(%rbp)
    db53:	48 8d 85 d0 ec ff ff 	lea    -0x1330(%rbp),%rax
    db5a:	48 89 85 30 fb ff ff 	mov    %rax,-0x4d0(%rbp)
    db61:	48 c7 85 38 fb ff ff 	movq   $0x0,-0x4c8(%rbp)
    db68:	00 00 00 00 
    db6c:	48 8d 05 c5 c5 00 00 	lea    0xc5c5(%rip),%rax        # 1a138 <g_425>
    db73:	48 89 85 40 fb ff ff 	mov    %rax,-0x4c0(%rbp)
    db7a:	48 8d 05 b7 c5 00 00 	lea    0xc5b7(%rip),%rax        # 1a138 <g_425>
    db81:	48 89 85 48 fb ff ff 	mov    %rax,-0x4b8(%rbp)
    db88:	48 8d 85 d0 ec ff ff 	lea    -0x1330(%rbp),%rax
    db8f:	48 89 85 50 fb ff ff 	mov    %rax,-0x4b0(%rbp)
    db96:	48 8d 85 d0 ec ff ff 	lea    -0x1330(%rbp),%rax
    db9d:	48 89 85 58 fb ff ff 	mov    %rax,-0x4a8(%rbp)
    dba4:	48 8d 05 8d c5 00 00 	lea    0xc58d(%rip),%rax        # 1a138 <g_425>
    dbab:	48 89 85 60 fb ff ff 	mov    %rax,-0x4a0(%rbp)
    dbb2:	48 8d 05 97 c5 00 00 	lea    0xc597(%rip),%rax        # 1a150 <g_737>
    dbb9:	48 89 85 68 fb ff ff 	mov    %rax,-0x498(%rbp)
    dbc0:	48 c7 85 70 fb ff ff 	movq   $0x0,-0x490(%rbp)
    dbc7:	00 00 00 00 
    dbcb:	48 8d 85 d0 ec ff ff 	lea    -0x1330(%rbp),%rax
    dbd2:	48 89 85 78 fb ff ff 	mov    %rax,-0x488(%rbp)
    dbd9:	48 c7 85 80 fb ff ff 	movq   $0x0,-0x480(%rbp)
    dbe0:	00 00 00 00 
    dbe4:	48 c7 85 88 fb ff ff 	movq   $0x0,-0x478(%rbp)
    dbeb:	00 00 00 00 
    dbef:	48 8d 05 42 c5 00 00 	lea    0xc542(%rip),%rax        # 1a138 <g_425>
    dbf6:	48 89 85 90 fb ff ff 	mov    %rax,-0x470(%rbp)
    dbfd:	48 c7 85 98 fb ff ff 	movq   $0x0,-0x468(%rbp)
    dc04:	00 00 00 00 
    dc08:	48 8d 05 41 c5 00 00 	lea    0xc541(%rip),%rax        # 1a150 <g_737>
    dc0f:	48 89 85 a0 fb ff ff 	mov    %rax,-0x460(%rbp)
    dc16:	48 8d 85 d0 ec ff ff 	lea    -0x1330(%rbp),%rax
    dc1d:	48 89 85 a8 fb ff ff 	mov    %rax,-0x458(%rbp)
    dc24:	48 c7 85 b0 fb ff ff 	movq   $0x0,-0x450(%rbp)
    dc2b:	00 00 00 00 
    dc2f:	48 8d 05 02 c5 00 00 	lea    0xc502(%rip),%rax        # 1a138 <g_425>
    dc36:	48 89 85 b8 fb ff ff 	mov    %rax,-0x448(%rbp)
    dc3d:	48 c7 85 c0 fb ff ff 	movq   $0x0,-0x440(%rbp)
    dc44:	00 00 00 00 
    dc48:	48 8d 85 d0 ec ff ff 	lea    -0x1330(%rbp),%rax
    dc4f:	48 89 85 c8 fb ff ff 	mov    %rax,-0x438(%rbp)
    dc56:	48 8d 85 d0 ec ff ff 	lea    -0x1330(%rbp),%rax
    dc5d:	48 89 85 d0 fb ff ff 	mov    %rax,-0x430(%rbp)
    dc64:	48 c7 85 d8 fb ff ff 	movq   $0x0,-0x428(%rbp)
    dc6b:	00 00 00 00 
    dc6f:	48 8d 05 c2 c4 00 00 	lea    0xc4c2(%rip),%rax        # 1a138 <g_425>
    dc76:	48 89 85 e0 fb ff ff 	mov    %rax,-0x420(%rbp)
    dc7d:	48 8d 05 b4 c4 00 00 	lea    0xc4b4(%rip),%rax        # 1a138 <g_425>
    dc84:	48 89 85 e8 fb ff ff 	mov    %rax,-0x418(%rbp)
    dc8b:	48 8d 05 be c4 00 00 	lea    0xc4be(%rip),%rax        # 1a150 <g_737>
    dc92:	48 89 85 f0 fb ff ff 	mov    %rax,-0x410(%rbp)
    dc99:	48 8d 05 b0 c4 00 00 	lea    0xc4b0(%rip),%rax        # 1a150 <g_737>
    dca0:	48 89 85 f8 fb ff ff 	mov    %rax,-0x408(%rbp)
    dca7:	48 8d 05 8a c4 00 00 	lea    0xc48a(%rip),%rax        # 1a138 <g_425>
    dcae:	48 89 85 00 fc ff ff 	mov    %rax,-0x400(%rbp)
    dcb5:	48 8d 05 7c c4 00 00 	lea    0xc47c(%rip),%rax        # 1a138 <g_425>
    dcbc:	48 89 85 08 fc ff ff 	mov    %rax,-0x3f8(%rbp)
    dcc3:	48 c7 85 10 fc ff ff 	movq   $0x0,-0x3f0(%rbp)
    dcca:	00 00 00 00 
    dcce:	48 8d 85 d0 ec ff ff 	lea    -0x1330(%rbp),%rax
    dcd5:	48 89 85 18 fc ff ff 	mov    %rax,-0x3e8(%rbp)
    dcdc:	48 8d 85 d0 ec ff ff 	lea    -0x1330(%rbp),%rax
    dce3:	48 89 85 20 fc ff ff 	mov    %rax,-0x3e0(%rbp)
    dcea:	48 c7 85 28 fc ff ff 	movq   $0x0,-0x3d8(%rbp)
    dcf1:	00 00 00 00 
    dcf5:	48 8d 05 3c c4 00 00 	lea    0xc43c(%rip),%rax        # 1a138 <g_425>
    dcfc:	48 89 85 30 fc ff ff 	mov    %rax,-0x3d0(%rbp)
    dd03:	48 8d 05 2e c4 00 00 	lea    0xc42e(%rip),%rax        # 1a138 <g_425>
    dd0a:	48 89 85 38 fc ff ff 	mov    %rax,-0x3c8(%rbp)
    dd11:	48 8d 85 d0 ec ff ff 	lea    -0x1330(%rbp),%rax
    dd18:	48 89 85 40 fc ff ff 	mov    %rax,-0x3c0(%rbp)
    dd1f:	48 8d 85 d0 ec ff ff 	lea    -0x1330(%rbp),%rax
    dd26:	48 89 85 48 fc ff ff 	mov    %rax,-0x3b8(%rbp)
    dd2d:	48 8d 05 04 c4 00 00 	lea    0xc404(%rip),%rax        # 1a138 <g_425>
    dd34:	48 89 85 50 fc ff ff 	mov    %rax,-0x3b0(%rbp)
    dd3b:	48 8d 05 0e c4 00 00 	lea    0xc40e(%rip),%rax        # 1a150 <g_737>
    dd42:	48 89 85 58 fc ff ff 	mov    %rax,-0x3a8(%rbp)
    dd49:	48 c7 85 60 fc ff ff 	movq   $0x0,-0x3a0(%rbp)
    dd50:	00 00 00 00 
    dd54:	48 8d 85 d0 ec ff ff 	lea    -0x1330(%rbp),%rax
    dd5b:	48 89 85 68 fc ff ff 	mov    %rax,-0x398(%rbp)
    dd62:	48 c7 85 70 fc ff ff 	movq   $0x0,-0x390(%rbp)
    dd69:	00 00 00 00 
    dd6d:	48 c7 85 78 fc ff ff 	movq   $0x0,-0x388(%rbp)
    dd74:	00 00 00 00 
    dd78:	48 8d 05 b9 c3 00 00 	lea    0xc3b9(%rip),%rax        # 1a138 <g_425>
    dd7f:	48 89 85 80 fc ff ff 	mov    %rax,-0x380(%rbp)
    dd86:	48 c7 85 88 fc ff ff 	movq   $0x0,-0x378(%rbp)
    dd8d:	00 00 00 00 
    dd91:	48 8d 05 b8 c3 00 00 	lea    0xc3b8(%rip),%rax        # 1a150 <g_737>
    dd98:	48 89 85 90 fc ff ff 	mov    %rax,-0x370(%rbp)
    dd9f:	48 8d 85 d0 ec ff ff 	lea    -0x1330(%rbp),%rax
    dda6:	48 89 85 98 fc ff ff 	mov    %rax,-0x368(%rbp)
    ddad:	48 c7 85 a0 fc ff ff 	movq   $0x0,-0x360(%rbp)
    ddb4:	00 00 00 00 
    ddb8:	48 8d 05 79 c3 00 00 	lea    0xc379(%rip),%rax        # 1a138 <g_425>
    ddbf:	48 89 85 a8 fc ff ff 	mov    %rax,-0x358(%rbp)
    ddc6:	48 c7 85 b0 fc ff ff 	movq   $0x0,-0x350(%rbp)
    ddcd:	00 00 00 00 
    ddd1:	48 8d 85 d0 ec ff ff 	lea    -0x1330(%rbp),%rax
    ddd8:	48 89 85 b8 fc ff ff 	mov    %rax,-0x348(%rbp)
    dddf:	48 8d 85 d0 ec ff ff 	lea    -0x1330(%rbp),%rax
    dde6:	48 89 85 c0 fc ff ff 	mov    %rax,-0x340(%rbp)
    dded:	48 c7 85 c8 fc ff ff 	movq   $0x0,-0x338(%rbp)
    ddf4:	00 00 00 00 
    ddf8:	48 8d 05 39 c3 00 00 	lea    0xc339(%rip),%rax        # 1a138 <g_425>
    ddff:	48 89 85 d0 fc ff ff 	mov    %rax,-0x330(%rbp)
    de06:	48 8d 05 2b c3 00 00 	lea    0xc32b(%rip),%rax        # 1a138 <g_425>
    de0d:	48 89 85 d8 fc ff ff 	mov    %rax,-0x328(%rbp)
    de14:	48 8d 05 35 c3 00 00 	lea    0xc335(%rip),%rax        # 1a150 <g_737>
    de1b:	48 89 85 e0 fc ff ff 	mov    %rax,-0x320(%rbp)
    de22:	48 8d 05 27 c3 00 00 	lea    0xc327(%rip),%rax        # 1a150 <g_737>
    de29:	48 89 85 e8 fc ff ff 	mov    %rax,-0x318(%rbp)
    de30:	48 8d 05 01 c3 00 00 	lea    0xc301(%rip),%rax        # 1a138 <g_425>
    de37:	48 89 85 f0 fc ff ff 	mov    %rax,-0x310(%rbp)
    de3e:	48 8d 05 f3 c2 00 00 	lea    0xc2f3(%rip),%rax        # 1a138 <g_425>
    de45:	48 89 85 f8 fc ff ff 	mov    %rax,-0x308(%rbp)
    de4c:	48 c7 85 00 fd ff ff 	movq   $0x0,-0x300(%rbp)
    de53:	00 00 00 00 
    de57:	48 8d 85 d0 ec ff ff 	lea    -0x1330(%rbp),%rax
    de5e:	48 89 85 08 fd ff ff 	mov    %rax,-0x2f8(%rbp)
    de65:	48 8d 85 d0 ec ff ff 	lea    -0x1330(%rbp),%rax
    de6c:	48 89 85 10 fd ff ff 	mov    %rax,-0x2f0(%rbp)
    de73:	48 c7 85 18 fd ff ff 	movq   $0x0,-0x2e8(%rbp)
    de7a:	00 00 00 00 
    de7e:	48 8d 05 b3 c2 00 00 	lea    0xc2b3(%rip),%rax        # 1a138 <g_425>
    de85:	48 89 85 20 fd ff ff 	mov    %rax,-0x2e0(%rbp)
    de8c:	48 8d 05 a5 c2 00 00 	lea    0xc2a5(%rip),%rax        # 1a138 <g_425>
    de93:	48 89 85 28 fd ff ff 	mov    %rax,-0x2d8(%rbp)
    de9a:	48 8d 85 d0 ec ff ff 	lea    -0x1330(%rbp),%rax
    dea1:	48 89 85 30 fd ff ff 	mov    %rax,-0x2d0(%rbp)
    dea8:	48 8d 85 d0 ec ff ff 	lea    -0x1330(%rbp),%rax
    deaf:	48 89 85 38 fd ff ff 	mov    %rax,-0x2c8(%rbp)
    deb6:	48 8d 05 7b c2 00 00 	lea    0xc27b(%rip),%rax        # 1a138 <g_425>
    debd:	48 89 85 40 fd ff ff 	mov    %rax,-0x2c0(%rbp)
    dec4:	48 8d 05 85 c2 00 00 	lea    0xc285(%rip),%rax        # 1a150 <g_737>
    decb:	48 89 85 48 fd ff ff 	mov    %rax,-0x2b8(%rbp)
    ded2:	48 c7 85 50 fd ff ff 	movq   $0x0,-0x2b0(%rbp)
    ded9:	00 00 00 00 
    dedd:	48 8d 85 d0 ec ff ff 	lea    -0x1330(%rbp),%rax
    dee4:	48 89 85 58 fd ff ff 	mov    %rax,-0x2a8(%rbp)
    deeb:	48 c7 85 60 fd ff ff 	movq   $0x0,-0x2a0(%rbp)
    def2:	00 00 00 00 
    def6:	48 c7 85 68 fd ff ff 	movq   $0x0,-0x298(%rbp)
    defd:	00 00 00 00 
    df01:	48 8d 05 30 c2 00 00 	lea    0xc230(%rip),%rax        # 1a138 <g_425>
    df08:	48 89 85 70 fd ff ff 	mov    %rax,-0x290(%rbp)
    df0f:	48 c7 85 78 fd ff ff 	movq   $0x0,-0x288(%rbp)
    df16:	00 00 00 00 
    df1a:	48 8d 05 2f c2 00 00 	lea    0xc22f(%rip),%rax        # 1a150 <g_737>
    df21:	48 89 85 80 fd ff ff 	mov    %rax,-0x280(%rbp)
    df28:	48 8d 85 d0 ec ff ff 	lea    -0x1330(%rbp),%rax
    df2f:	48 89 85 88 fd ff ff 	mov    %rax,-0x278(%rbp)
    df36:	48 c7 85 90 fd ff ff 	movq   $0x0,-0x270(%rbp)
    df3d:	00 00 00 00 
    df41:	48 8d 05 f0 c1 00 00 	lea    0xc1f0(%rip),%rax        # 1a138 <g_425>
    df48:	48 89 85 98 fd ff ff 	mov    %rax,-0x268(%rbp)
    df4f:	48 c7 85 a0 fd ff ff 	movq   $0x0,-0x260(%rbp)
    df56:	00 00 00 00 
    df5a:	48 8d 85 d0 ec ff ff 	lea    -0x1330(%rbp),%rax
    df61:	48 89 85 a8 fd ff ff 	mov    %rax,-0x258(%rbp)
    df68:	48 8d 85 d0 ec ff ff 	lea    -0x1330(%rbp),%rax
    df6f:	48 89 85 b0 fd ff ff 	mov    %rax,-0x250(%rbp)
    df76:	48 c7 85 b8 fd ff ff 	movq   $0x0,-0x248(%rbp)
    df7d:	00 00 00 00 
    df81:	48 8d 05 b0 c1 00 00 	lea    0xc1b0(%rip),%rax        # 1a138 <g_425>
    df88:	48 89 85 c0 fd ff ff 	mov    %rax,-0x240(%rbp)
    df8f:	48 8d 05 a2 c1 00 00 	lea    0xc1a2(%rip),%rax        # 1a138 <g_425>
    df96:	48 89 85 c8 fd ff ff 	mov    %rax,-0x238(%rbp)
    df9d:	48 8d 05 ac c1 00 00 	lea    0xc1ac(%rip),%rax        # 1a150 <g_737>
    dfa4:	48 89 85 d0 fd ff ff 	mov    %rax,-0x230(%rbp)
    dfab:	48 8d 05 9e c1 00 00 	lea    0xc19e(%rip),%rax        # 1a150 <g_737>
    dfb2:	48 89 85 d8 fd ff ff 	mov    %rax,-0x228(%rbp)
    dfb9:	48 8d 05 78 c1 00 00 	lea    0xc178(%rip),%rax        # 1a138 <g_425>
    dfc0:	48 89 85 e0 fd ff ff 	mov    %rax,-0x220(%rbp)
    dfc7:	48 8d 05 6a c1 00 00 	lea    0xc16a(%rip),%rax        # 1a138 <g_425>
    dfce:	48 89 85 e8 fd ff ff 	mov    %rax,-0x218(%rbp)
    dfd5:	48 c7 85 f0 fd ff ff 	movq   $0x0,-0x210(%rbp)
    dfdc:	00 00 00 00 
    dfe0:	48 8d 85 d0 ec ff ff 	lea    -0x1330(%rbp),%rax
    dfe7:	48 89 85 f8 fd ff ff 	mov    %rax,-0x208(%rbp)
    dfee:	48 8d 85 d0 ec ff ff 	lea    -0x1330(%rbp),%rax
    dff5:	48 89 85 00 fe ff ff 	mov    %rax,-0x200(%rbp)
    dffc:	48 c7 85 08 fe ff ff 	movq   $0x0,-0x1f8(%rbp)
    e003:	00 00 00 00 
    e007:	48 8d 05 2a c1 00 00 	lea    0xc12a(%rip),%rax        # 1a138 <g_425>
    e00e:	48 89 85 10 fe ff ff 	mov    %rax,-0x1f0(%rbp)
    e015:	48 8d 05 1c c1 00 00 	lea    0xc11c(%rip),%rax        # 1a138 <g_425>
    e01c:	48 89 85 18 fe ff ff 	mov    %rax,-0x1e8(%rbp)
    e023:	48 8d 85 d0 ec ff ff 	lea    -0x1330(%rbp),%rax
    e02a:	48 89 85 20 fe ff ff 	mov    %rax,-0x1e0(%rbp)
    e031:	48 8d 85 d0 ec ff ff 	lea    -0x1330(%rbp),%rax
    e038:	48 89 85 28 fe ff ff 	mov    %rax,-0x1d8(%rbp)
    e03f:	48 8d 05 f2 c0 00 00 	lea    0xc0f2(%rip),%rax        # 1a138 <g_425>
    e046:	48 89 85 30 fe ff ff 	mov    %rax,-0x1d0(%rbp)
    e04d:	48 8d 05 fc c0 00 00 	lea    0xc0fc(%rip),%rax        # 1a150 <g_737>
    e054:	48 89 85 38 fe ff ff 	mov    %rax,-0x1c8(%rbp)
    e05b:	48 c7 85 40 fe ff ff 	movq   $0x0,-0x1c0(%rbp)
    e062:	00 00 00 00 
    e066:	48 8d 85 d0 ec ff ff 	lea    -0x1330(%rbp),%rax
    e06d:	48 89 85 48 fe ff ff 	mov    %rax,-0x1b8(%rbp)
    e074:	48 c7 85 50 fe ff ff 	movq   $0x0,-0x1b0(%rbp)
    e07b:	00 00 00 00 
    e07f:	48 c7 85 58 fe ff ff 	movq   $0x0,-0x1a8(%rbp)
    e086:	00 00 00 00 
    e08a:	48 8d 05 a7 c0 00 00 	lea    0xc0a7(%rip),%rax        # 1a138 <g_425>
    e091:	48 89 85 60 fe ff ff 	mov    %rax,-0x1a0(%rbp)
    e098:	48 c7 85 68 fe ff ff 	movq   $0x0,-0x198(%rbp)
    e09f:	00 00 00 00 
    e0a3:	48 8d 05 a6 c0 00 00 	lea    0xc0a6(%rip),%rax        # 1a150 <g_737>
    e0aa:	48 89 85 70 fe ff ff 	mov    %rax,-0x190(%rbp)
    e0b1:	48 8d 85 d0 ec ff ff 	lea    -0x1330(%rbp),%rax
    e0b8:	48 89 85 78 fe ff ff 	mov    %rax,-0x188(%rbp)
    e0bf:	48 c7 85 80 fe ff ff 	movq   $0x0,-0x180(%rbp)
    e0c6:	00 00 00 00 
    e0ca:	48 8d 05 67 c0 00 00 	lea    0xc067(%rip),%rax        # 1a138 <g_425>
    e0d1:	48 89 85 88 fe ff ff 	mov    %rax,-0x178(%rbp)
    e0d8:	48 8d 85 d0 ec ff ff 	lea    -0x1330(%rbp),%rax
    e0df:	48 89 85 70 f0 ff ff 	mov    %rax,-0xf90(%rbp)
    e0e6:	48 8d 85 d0 ec ff ff 	lea    -0x1330(%rbp),%rax
    e0ed:	48 89 85 78 f0 ff ff 	mov    %rax,-0xf88(%rbp)
    e0f4:	48 8d 85 d0 ec ff ff 	lea    -0x1330(%rbp),%rax
    e0fb:	48 89 85 80 f0 ff ff 	mov    %rax,-0xf80(%rbp)
    e102:	48 8d 85 d0 ec ff ff 	lea    -0x1330(%rbp),%rax
    e109:	48 89 85 88 f0 ff ff 	mov    %rax,-0xf78(%rbp)
    e110:	48 8d 85 d0 ec ff ff 	lea    -0x1330(%rbp),%rax
    e117:	48 89 85 90 f0 ff ff 	mov    %rax,-0xf70(%rbp)
    e11e:	48 8d 85 d0 ec ff ff 	lea    -0x1330(%rbp),%rax
    e125:	48 89 85 98 f0 ff ff 	mov    %rax,-0xf68(%rbp)
    e12c:	48 8d 85 d0 ec ff ff 	lea    -0x1330(%rbp),%rax
    e133:	48 89 85 a0 f0 ff ff 	mov    %rax,-0xf60(%rbp)
    e13a:	48 8d 85 d0 ec ff ff 	lea    -0x1330(%rbp),%rax
    e141:	48 89 85 a8 f0 ff ff 	mov    %rax,-0xf58(%rbp)
    e148:	c7 85 a0 eb ff ff 00 	movl   $0x0,-0x1460(%rbp)
    e14f:	00 00 00 
    e152:	eb 1b                	jmp    e16f <func_37+0x334b>
    e154:	8b 85 a0 eb ff ff    	mov    -0x1460(%rbp),%eax
    e15a:	48 98                	cltq   
    e15c:	48 c7 84 c5 30 f0 ff 	movq   $0x0,-0xfd0(%rbp,%rax,8)
    e163:	ff 00 00 00 00 
    e168:	83 85 a0 eb ff ff 01 	addl   $0x1,-0x1460(%rbp)
    e16f:	83 bd a0 eb ff ff 07 	cmpl   $0x7,-0x1460(%rbp)
    e176:	7e dc                	jle    e154 <func_37+0x3330>
    e178:	8b 85 b0 f0 ff ff    	mov    -0xf50(%rbp),%eax
    e17e:	83 c0 01             	add    $0x1,%eax
    e181:	89 85 b0 f0 ff ff    	mov    %eax,-0xf50(%rbp)
    e187:	66 c7 85 48 eb ff ff 	movw   $0x0,-0x14b8(%rbp)
    e18e:	00 00 
    e190:	e9 3e 19 00 00       	jmpq   fad3 <func_37+0x4caf>
    e195:	c7 85 e8 eb ff ff ff 	movl   $0xffffffff,-0x1418(%rbp)
    e19c:	ff ff ff 
    e19f:	48 8d 85 34 ef ff ff 	lea    -0x10cc(%rbp),%rax
    e1a6:	48 89 85 38 ed ff ff 	mov    %rax,-0x12c8(%rbp)
    e1ad:	48 8d 05 0e a0 00 00 	lea    0xa00e(%rip),%rax        # 181c2 <g_288>
    e1b4:	48 89 85 40 ed ff ff 	mov    %rax,-0x12c0(%rbp)
    e1bb:	48 8d 05 8e bf 00 00 	lea    0xbf8e(%rip),%rax        # 1a150 <g_737>
    e1c2:	48 89 85 d8 ec ff ff 	mov    %rax,-0x1328(%rbp)
    e1c9:	c6 85 73 eb ff ff f8 	movb   $0xf8,-0x148d(%rbp)
    e1d0:	c7 85 ec eb ff ff f9 	movl   $0xfffffff9,-0x1414(%rbp)
    e1d7:	ff ff ff 
    e1da:	c7 85 f0 eb ff ff f8 	movl   $0xfffffff8,-0x1410(%rbp)
    e1e1:	ff ff ff 
    e1e4:	c7 85 a4 eb ff ff ff 	movl   $0xffffffff,-0x145c(%rbp)
    e1eb:	ff ff ff 
    e1ee:	c7 85 a0 ef ff ff e4 	movl   $0x8e3d09e4,-0x1060(%rbp)
    e1f5:	09 3d 8e 
    e1f8:	c7 85 a4 ef ff ff 08 	movl   $0x8,-0x105c(%rbp)
    e1ff:	00 00 00 
    e202:	c7 85 a8 ef ff ff 50 	movl   $0x8e987050,-0x1058(%rbp)
    e209:	70 98 8e 
    e20c:	c7 85 ac ef ff ff 50 	movl   $0x8e987050,-0x1054(%rbp)
    e213:	70 98 8e 
    e216:	c7 85 b0 ef ff ff 08 	movl   $0x8,-0x1050(%rbp)
    e21d:	00 00 00 
    e220:	c7 85 b4 ef ff ff e4 	movl   $0x8e3d09e4,-0x104c(%rbp)
    e227:	09 3d 8e 
    e22a:	c7 85 b8 ef ff ff 08 	movl   $0x8,-0x1048(%rbp)
    e231:	00 00 00 
    e234:	c7 85 bc ef ff ff 50 	movl   $0x8e987050,-0x1044(%rbp)
    e23b:	70 98 8e 
    e23e:	c7 85 c0 ef ff ff 50 	movl   $0x8e987050,-0x1040(%rbp)
    e245:	70 98 8e 
    e248:	c7 85 c4 ef ff ff 08 	movl   $0x8,-0x103c(%rbp)
    e24f:	00 00 00 
    e252:	48 8d 05 d7 c8 00 00 	lea    0xc8d7(%rip),%rax        # 1ab30 <g_793>
    e259:	48 89 85 48 ed ff ff 	mov    %rax,-0x12b8(%rbp)
    e260:	48 c7 85 50 ed ff ff 	movq   $0x0,-0x12b0(%rbp)
    e267:	00 00 00 00 
    e26b:	c7 85 a8 eb ff ff 00 	movl   $0x0,-0x1458(%rbp)
    e272:	00 00 00 
    e275:	eb 1b                	jmp    e292 <func_37+0x346e>
    e277:	8b 85 a8 eb ff ff    	mov    -0x1458(%rbp),%eax
    e27d:	48 98                	cltq   
    e27f:	48 c7 84 c5 80 ef ff 	movq   $0x0,-0x1080(%rbp,%rax,8)
    e286:	ff 00 00 00 00 
    e28b:	83 85 a8 eb ff ff 01 	addl   $0x1,-0x1458(%rbp)
    e292:	83 bd a8 eb ff ff 02 	cmpl   $0x2,-0x1458(%rbp)
    e299:	7e dc                	jle    e277 <func_37+0x3453>
    e29b:	c7 05 bb 9d 00 00 00 	movl   $0x0,0x9dbb(%rip)        # 18060 <g_151>
    e2a2:	00 00 00 
    e2a5:	eb 7e                	jmp    e325 <func_37+0x3501>
    e2a7:	48 c7 85 d0 ed ff ff 	movq   $0x0,-0x1230(%rbp)
    e2ae:	00 00 00 00 
    e2b2:	48 8d 05 6f be 00 00 	lea    0xbe6f(%rip),%rax        # 1a128 <g_326>
    e2b9:	48 89 85 d8 ed ff ff 	mov    %rax,-0x1228(%rbp)
    e2c0:	48 8b 85 d8 ed ff ff 	mov    -0x1228(%rbp),%rax
    e2c7:	48 8d 15 7e 9d 00 00 	lea    0x9d7e(%rip),%rdx        # 1804c <g_115>
    e2ce:	48 89 10             	mov    %rdx,(%rax)
    e2d1:	8b 15 89 9d 00 00    	mov    0x9d89(%rip),%edx        # 18060 <g_151>
    e2d7:	0f b7 85 48 eb ff ff 	movzwl -0x14b8(%rbp),%eax
    e2de:	0f b7 c0             	movzwl %ax,%eax
    e2e1:	48 98                	cltq   
    e2e3:	48 8d 0c 00          	lea    (%rax,%rax,1),%rcx
    e2e7:	48 8d 05 82 9d 00 00 	lea    0x9d82(%rip),%rax        # 18070 <g_246>
    e2ee:	0f b7 04 01          	movzwl (%rcx,%rax,1),%eax
    e2f2:	98                   	cwtl   
    e2f3:	89 d6                	mov    %edx,%esi
    e2f5:	89 c7                	mov    %eax,%edi
    e2f7:	e8 29 8c ff ff       	callq  6f25 <safe_div_func_uint32_t_u_u>
    e2fc:	48 8b 95 d8 ed ff ff 	mov    -0x1228(%rbp),%rdx
    e303:	48 8b 12             	mov    (%rdx),%rdx
    e306:	8b 12                	mov    (%rdx),%edx
    e308:	31 c2                	xor    %eax,%edx
    e30a:	48 8b 85 d8 ed ff ff 	mov    -0x1228(%rbp),%rax
    e311:	48 8b 00             	mov    (%rax),%rax
    e314:	89 10                	mov    %edx,(%rax)
    e316:	8b 05 44 9d 00 00    	mov    0x9d44(%rip),%eax        # 18060 <g_151>
    e31c:	83 c0 01             	add    $0x1,%eax
    e31f:	89 05 3b 9d 00 00    	mov    %eax,0x9d3b(%rip)        # 18060 <g_151>
    e325:	8b 05 35 9d 00 00    	mov    0x9d35(%rip),%eax        # 18060 <g_151>
    e32b:	83 f8 03             	cmp    $0x3,%eax
    e32e:	0f 86 73 ff ff ff    	jbe    e2a7 <func_37+0x3483>
    e334:	8b 85 d8 eb ff ff    	mov    -0x1428(%rbp),%eax
    e33a:	0c ff                	or     $0xff,%al
    e33c:	89 c6                	mov    %eax,%esi
    e33e:	bf 29 00 00 00       	mov    $0x29,%edi
    e343:	e8 59 7f ff ff       	callq  62a1 <safe_lshift_func_int8_t_s_s>
    e348:	48 8b 85 58 eb ff ff 	mov    -0x14a8(%rbp),%rax
    e34f:	0f b7 d8             	movzwl %ax,%ebx
    e352:	48 8b 05 a7 bd 00 00 	mov    0xbda7(%rip),%rax        # 1a100 <g_236>
    e359:	48 8b 00             	mov    (%rax),%rax
    e35c:	0f b7 c0             	movzwl %ax,%eax
    e35f:	83 e0 01             	and    $0x1,%eax
    e362:	89 c6                	mov    %eax,%esi
    e364:	bf 01 00 00 00       	mov    $0x1,%edi
    e369:	e8 ee 89 ff ff       	callq  6d5c <safe_mod_func_uint16_t_u_u>
    e36e:	48 8b 85 50 f0 ff ff 	mov    -0xfb0(%rbp),%rax
    e375:	48 85 c0             	test   %rax,%rax
    e378:	0f 94 c0             	sete   %al
    e37b:	0f b6 c0             	movzbl %al,%eax
    e37e:	89 de                	mov    %ebx,%esi
    e380:	89 c7                	mov    %eax,%edi
    e382:	e8 d5 89 ff ff       	callq  6d5c <safe_mod_func_uint16_t_u_u>
    e387:	89 c2                	mov    %eax,%edx
    e389:	8b 85 b0 f0 ff ff    	mov    -0xf50(%rbp),%eax
    e38f:	21 d0                	and    %edx,%eax
    e391:	0f be c0             	movsbl %al,%eax
    e394:	be 07 00 00 00       	mov    $0x7,%esi
    e399:	89 c7                	mov    %eax,%edi
    e39b:	e8 cc 7f ff ff       	callq  636c <safe_rshift_func_int8_t_s_u>
    e3a0:	0f be c0             	movsbl %al,%eax
    e3a3:	0b 85 e8 eb ff ff    	or     -0x1418(%rbp),%eax
    e3a9:	89 c0                	mov    %eax,%eax
    e3ab:	83 e0 01             	and    $0x1,%eax
    e3ae:	48 89 c2             	mov    %rax,%rdx
    e3b1:	8b 05 95 9c 00 00    	mov    0x9c95(%rip),%eax        # 1804c <g_115>
    e3b7:	48 98                	cltq   
    e3b9:	48 39 c2             	cmp    %rax,%rdx
    e3bc:	0f 96 c0             	setbe  %al
    e3bf:	0f b6 d0             	movzbl %al,%edx
    e3c2:	48 8b 85 38 ed ff ff 	mov    -0x12c8(%rbp),%rax
    e3c9:	8b 00                	mov    (%rax),%eax
    e3cb:	09 c2                	or     %eax,%edx
    e3cd:	48 8b 85 38 ed ff ff 	mov    -0x12c8(%rbp),%rax
    e3d4:	89 10                	mov    %edx,(%rax)
    e3d6:	c7 05 54 9c 00 00 01 	movl   $0x1,0x9c54(%rip)        # 18034 <g_30>
    e3dd:	00 00 00 
    e3e0:	e9 ed 02 00 00       	jmpq   e6d2 <func_37+0x38ae>
    e3e5:	c7 85 90 f5 ff ff a8 	movl   $0x6f8ff4a8,-0xa70(%rbp)
    e3ec:	f4 8f 6f 
    e3ef:	c7 85 94 f5 ff ff 00 	movl   $0x0,-0xa6c(%rbp)
    e3f6:	00 00 00 
    e3f9:	c7 85 98 f5 ff ff 00 	movl   $0x0,-0xa68(%rbp)
    e400:	00 00 00 
    e403:	c7 85 9c f5 ff ff a8 	movl   $0x6f8ff4a8,-0xa64(%rbp)
    e40a:	f4 8f 6f 
    e40d:	c7 85 a0 f5 ff ff 00 	movl   $0x0,-0xa60(%rbp)
    e414:	00 00 00 
    e417:	c7 85 a4 f5 ff ff 00 	movl   $0x0,-0xa5c(%rbp)
    e41e:	00 00 00 
    e421:	c7 85 a8 f5 ff ff a8 	movl   $0x6f8ff4a8,-0xa58(%rbp)
    e428:	f4 8f 6f 
    e42b:	c7 85 ac f5 ff ff 00 	movl   $0x0,-0xa54(%rbp)
    e432:	00 00 00 
    e435:	c7 85 b0 f5 ff ff 00 	movl   $0x0,-0xa50(%rbp)
    e43c:	00 00 00 
    e43f:	48 8d 05 06 9c 00 00 	lea    0x9c06(%rip),%rax        # 1804c <g_115>
    e446:	48 89 85 b0 ed ff ff 	mov    %rax,-0x1250(%rbp)
    e44d:	48 8d 05 9f a0 00 00 	lea    0xa09f(%rip),%rax        # 184f3 <g_790>
    e454:	48 89 85 b8 ed ff ff 	mov    %rax,-0x1248(%rbp)
    e45b:	66 c7 05 00 9c 00 00 	movw   $0x0,0x9c00(%rip)        # 18064 <g_201>
    e462:	00 00 
    e464:	e9 8b 01 00 00       	jmpq   e5f4 <func_37+0x37d0>
    e469:	48 8d 05 dc 9b 00 00 	lea    0x9bdc(%rip),%rax        # 1804c <g_115>
    e470:	48 89 85 c0 ed ff ff 	mov    %rax,-0x1240(%rbp)
    e477:	c7 85 ac eb ff ff 00 	movl   $0x0,-0x1454(%rbp)
    e47e:	00 00 00 
    e481:	eb 1e                	jmp    e4a1 <func_37+0x367d>
    e483:	8b 85 ac eb ff ff    	mov    -0x1454(%rbp),%eax
    e489:	48 98                	cltq   
    e48b:	48 8d 95 a0 ec ff ff 	lea    -0x1360(%rbp),%rdx
    e492:	48 89 94 c5 50 f3 ff 	mov    %rdx,-0xcb0(%rbp,%rax,8)
    e499:	ff 
    e49a:	83 85 ac eb ff ff 01 	addl   $0x1,-0x1454(%rbp)
    e4a1:	83 bd ac eb ff ff 02 	cmpl   $0x2,-0x1454(%rbp)
    e4a8:	7e d9                	jle    e483 <func_37+0x365f>
    e4aa:	c7 85 9c eb ff ff 01 	movl   $0x1,-0x1464(%rbp)
    e4b1:	00 00 00 
    e4b4:	8b 15 7a 9b 00 00    	mov    0x9b7a(%rip),%edx        # 18034 <g_30>
    e4ba:	8b 05 74 9b 00 00    	mov    0x9b74(%rip),%eax        # 18034 <g_30>
    e4c0:	83 c0 01             	add    $0x1,%eax
    e4c3:	89 c1                	mov    %eax,%ecx
    e4c5:	89 d2                	mov    %edx,%edx
    e4c7:	48 89 d0             	mov    %rdx,%rax
    e4ca:	48 c1 e0 02          	shl    $0x2,%rax
    e4ce:	48 01 d0             	add    %rdx,%rax
    e4d1:	48 01 c0             	add    %rax,%rax
    e4d4:	48 01 c8             	add    %rcx,%rax
    e4d7:	48 8d 14 85 00 00 00 	lea    0x0(,%rax,4),%rdx
    e4de:	00 
    e4df:	48 8d 05 9a 9b 00 00 	lea    0x9b9a(%rip),%rax        # 18080 <g_248>
    e4e6:	8b 04 02             	mov    (%rdx,%rax,1),%eax
    e4e9:	83 f8 01             	cmp    $0x1,%eax
    e4ec:	0f 97 c0             	seta   %al
    e4ef:	0f b6 c0             	movzbl %al,%eax
    e4f2:	66 89 05 7d 9b 00 00 	mov    %ax,0x9b7d(%rip)        # 18076 <g_246+0x6>
    e4f9:	0f b7 05 76 9b 00 00 	movzwl 0x9b76(%rip),%eax        # 18076 <g_246+0x6>
    e500:	0f bf c8             	movswl %ax,%ecx
    e503:	0f b7 85 48 eb ff ff 	movzwl -0x14b8(%rbp),%eax
    e50a:	0f b7 c0             	movzwl %ax,%eax
    e50d:	8d 50 05             	lea    0x5(%rax),%edx
    e510:	0f b7 05 4d 9b 00 00 	movzwl 0x9b4d(%rip),%eax        # 18064 <g_201>
    e517:	0f b7 c0             	movzwl %ax,%eax
    e51a:	83 c0 02             	add    $0x2,%eax
    e51d:	48 63 f0             	movslq %eax,%rsi
    e520:	48 63 d2             	movslq %edx,%rdx
    e523:	48 89 d0             	mov    %rdx,%rax
    e526:	48 c1 e0 02          	shl    $0x2,%rax
    e52a:	48 01 d0             	add    %rdx,%rax
    e52d:	48 01 c0             	add    %rax,%rax
    e530:	48 01 f0             	add    %rsi,%rax
    e533:	48 8d 14 85 00 00 00 	lea    0x0(,%rax,4),%rdx
    e53a:	00 
    e53b:	48 8d 05 3e 9b 00 00 	lea    0x9b3e(%rip),%rax        # 18080 <g_248>
    e542:	8b 04 02             	mov    (%rdx,%rax,1),%eax
    e545:	98                   	cwtl   
    e546:	89 ce                	mov    %ecx,%esi
    e548:	89 c7                	mov    %eax,%edi
    e54a:	e8 a6 7e ff ff       	callq  63f5 <safe_mul_func_int16_t_s_s>
    e54f:	98                   	cwtl   
    e550:	be 02 00 00 00       	mov    $0x2,%esi
    e555:	89 c7                	mov    %eax,%edi
    e557:	e8 85 7f ff ff       	callq  64e1 <safe_lshift_func_int16_t_s_u>
    e55c:	98                   	cwtl   
    e55d:	89 c7                	mov    %eax,%edi
    e55f:	e8 42 89 ff ff       	callq  6ea6 <safe_unary_minus_func_uint32_t_u>
    e564:	48 8d 85 30 f0 ff ff 	lea    -0xfd0(%rbp),%rax
    e56b:	48 83 c0 20          	add    $0x20,%rax
    e56f:	48 89 85 f8 ec ff ff 	mov    %rax,-0x1308(%rbp)
    e576:	48 8d 85 f8 ec ff ff 	lea    -0x1308(%rbp),%rax
    e57d:	48 89 85 c8 ed ff ff 	mov    %rax,-0x1238(%rbp)
    e584:	48 8b 95 f8 ec ff ff 	mov    -0x1308(%rbp),%rdx
    e58b:	48 8b 85 c8 ed ff ff 	mov    -0x1238(%rbp),%rax
    e592:	48 89 10             	mov    %rdx,(%rax)
    e595:	48 8b 85 c8 ed ff ff 	mov    -0x1238(%rbp),%rax
    e59c:	48 8b 00             	mov    (%rax),%rax
    e59f:	48 85 c0             	test   %rax,%rax
    e5a2:	0f 94 c0             	sete   %al
    e5a5:	0f b6 d0             	movzbl %al,%edx
    e5a8:	48 83 bd 40 ed ff ff 	cmpq   $0x0,-0x12c0(%rbp)
    e5af:	00 
    e5b0:	0f 95 c0             	setne  %al
    e5b3:	0f b6 c0             	movzbl %al,%eax
    e5b6:	89 d6                	mov    %edx,%esi
    e5b8:	89 c7                	mov    %eax,%edi
    e5ba:	e8 2f 7d ff ff       	callq  62ee <safe_lshift_func_int8_t_s_u>
    e5bf:	0f be c0             	movsbl %al,%eax
    e5c2:	89 85 9c eb ff ff    	mov    %eax,-0x1464(%rbp)
    e5c8:	48 8b 05 59 bb 00 00 	mov    0xbb59(%rip),%rax        # 1a128 <g_326>
    e5cf:	8b 00                	mov    (%rax),%eax
    e5d1:	85 c0                	test   %eax,%eax
    e5d3:	74 13                	je     e5e8 <func_37+0x37c4>
    e5d5:	0f b7 05 88 9a 00 00 	movzwl 0x9a88(%rip),%eax        # 18064 <g_201>
    e5dc:	83 c0 01             	add    $0x1,%eax
    e5df:	66 89 05 7e 9a 00 00 	mov    %ax,0x9a7e(%rip)        # 18064 <g_201>
    e5e6:	eb 0c                	jmp    e5f4 <func_37+0x37d0>
    e5e8:	48 8d 05 71 9a 00 00 	lea    0x9a71(%rip),%rax        # 18060 <g_151>
    e5ef:	e9 13 1c 00 00       	jmpq   10207 <func_37+0x53e3>
    e5f4:	0f b7 05 69 9a 00 00 	movzwl 0x9a69(%rip),%eax        # 18064 <g_201>
    e5fb:	66 83 f8 03          	cmp    $0x3,%ax
    e5ff:	0f 86 64 fe ff ff    	jbe    e469 <func_37+0x3645>
    e605:	48 8b 05 04 bb 00 00 	mov    0xbb04(%rip),%rax        # 1a110 <g_277>
    e60c:	0f b6 00             	movzbl (%rax),%eax
    e60f:	0f be c0             	movsbl %al,%eax
    e612:	39 85 9c eb ff ff    	cmp    %eax,-0x1464(%rbp)
    e618:	0f 9f c0             	setg   %al
    e61b:	0f b6 d0             	movzbl %al,%edx
    e61e:	48 8b 05 3b bb 00 00 	mov    0xbb3b(%rip),%rax        # 1a160 <g_791>
    e625:	48 85 c0             	test   %rax,%rax
    e628:	0f 94 c0             	sete   %al
    e62b:	0f b6 c0             	movzbl %al,%eax
    e62e:	31 d0                	xor    %edx,%eax
    e630:	89 c3                	mov    %eax,%ebx
    e632:	0f b7 85 48 eb ff ff 	movzwl -0x14b8(%rbp),%eax
    e639:	0f b7 c0             	movzwl %ax,%eax
    e63c:	8d 50 03             	lea    0x3(%rax),%edx
    e63f:	0f b7 85 48 eb ff ff 	movzwl -0x14b8(%rbp),%eax
    e646:	0f b7 c0             	movzwl %ax,%eax
    e649:	83 c0 03             	add    $0x3,%eax
    e64c:	48 63 c8             	movslq %eax,%rcx
    e64f:	48 63 d2             	movslq %edx,%rdx
    e652:	48 89 d0             	mov    %rdx,%rax
    e655:	48 c1 e0 02          	shl    $0x2,%rax
    e659:	48 01 d0             	add    %rdx,%rax
    e65c:	48 01 c0             	add    %rax,%rax
    e65f:	48 01 c8             	add    %rcx,%rax
    e662:	48 8d 14 85 00 00 00 	lea    0x0(,%rax,4),%rdx
    e669:	00 
    e66a:	48 8d 05 0f 9a 00 00 	lea    0x9a0f(%rip),%rax        # 18080 <g_248>
    e671:	8b 04 02             	mov    (%rdx,%rax,1),%eax
    e674:	3d e6 80 00 00       	cmp    $0x80e6,%eax
    e679:	0f 95 c0             	setne  %al
    e67c:	0f b6 d0             	movzbl %al,%edx
    e67f:	48 8b 85 b8 ed ff ff 	mov    -0x1248(%rbp),%rax
    e686:	48 89 05 c3 ba 00 00 	mov    %rax,0xbac3(%rip)        # 1a150 <g_737>
    e68d:	48 8b 0d bc ba 00 00 	mov    0xbabc(%rip),%rcx        # 1a150 <g_737>
    e694:	48 8b 85 d0 ec ff ff 	mov    -0x1330(%rbp),%rax
    e69b:	48 39 c1             	cmp    %rax,%rcx
    e69e:	0f 94 c0             	sete   %al
    e6a1:	0f b6 c0             	movzbl %al,%eax
    e6a4:	48 89 d6             	mov    %rdx,%rsi
    e6a7:	48 89 c7             	mov    %rax,%rdi
    e6aa:	e8 f9 81 ff ff       	callq  68a8 <safe_sub_func_int64_t_s_s>
    e6af:	89 de                	mov    %ebx,%esi
    e6b1:	89 c7                	mov    %eax,%edi
    e6b3:	e8 45 88 ff ff       	callq  6efd <safe_mod_func_uint32_t_u_u>
    e6b8:	89 c2                	mov    %eax,%edx
    e6ba:	48 8b 05 67 ba 00 00 	mov    0xba67(%rip),%rax        # 1a128 <g_326>
    e6c1:	89 10                	mov    %edx,(%rax)
    e6c3:	8b 05 6b 99 00 00    	mov    0x996b(%rip),%eax        # 18034 <g_30>
    e6c9:	83 c0 01             	add    $0x1,%eax
    e6cc:	89 05 62 99 00 00    	mov    %eax,0x9962(%rip)        # 18034 <g_30>
    e6d2:	8b 05 5c 99 00 00    	mov    0x995c(%rip),%eax        # 18034 <g_30>
    e6d8:	83 f8 07             	cmp    $0x7,%eax
    e6db:	0f 86 04 fd ff ff    	jbe    e3e5 <func_37+0x35c1>
    e6e1:	c7 85 9c eb ff ff 03 	movl   $0x3,-0x1464(%rbp)
    e6e8:	00 00 00 
    e6eb:	e9 c5 13 00 00       	jmpq   fab5 <func_37+0x4c91>
    e6f0:	48 8d 85 80 ef ff ff 	lea    -0x1080(%rbp),%rax
    e6f7:	48 89 85 58 ed ff ff 	mov    %rax,-0x12a8(%rbp)
    e6fe:	48 8d 05 f1 9d 00 00 	lea    0x9df1(%rip),%rax        # 184f6 <g_802>
    e705:	48 89 85 e0 ec ff ff 	mov    %rax,-0x1320(%rbp)
    e70c:	48 8d 85 e0 ec ff ff 	lea    -0x1320(%rbp),%rax
    e713:	48 89 85 e8 ec ff ff 	mov    %rax,-0x1318(%rbp)
    e71a:	48 8d 85 e8 ec ff ff 	lea    -0x1318(%rbp),%rax
    e721:	48 89 85 60 ed ff ff 	mov    %rax,-0x12a0(%rbp)
    e728:	48 c7 85 68 ed ff ff 	movq   $0x0,-0x1298(%rbp)
    e72f:	00 00 00 00 
    e733:	48 8d 85 d8 ec ff ff 	lea    -0x1328(%rbp),%rax
    e73a:	48 89 85 70 ed ff ff 	mov    %rax,-0x1290(%rbp)
    e741:	c7 85 80 eb ff ff 16 	movl   $0x37c3b516,-0x1480(%rbp)
    e748:	b5 c3 37 
    e74b:	c7 85 f4 eb ff ff ff 	movl   $0xffffffff,-0x140c(%rbp)
    e752:	ff ff ff 
    e755:	c7 85 f8 eb ff ff d8 	movl   $0x515b7ad8,-0x1408(%rbp)
    e75c:	7a 5b 51 
    e75f:	c7 85 fc eb ff ff 09 	movl   $0x9,-0x1404(%rbp)
    e766:	00 00 00 
    e769:	c7 85 00 f0 ff ff 33 	movl   $0x2dd4c433,-0x1000(%rbp)
    e770:	c4 d4 2d 
    e773:	c7 85 04 f0 ff ff 33 	movl   $0xa6580833,-0xffc(%rbp)
    e77a:	08 58 a6 
    e77d:	c7 85 08 f0 ff ff 33 	movl   $0x2dd4c433,-0xff8(%rbp)
    e784:	c4 d4 2d 
    e787:	c7 85 0c f0 ff ff 33 	movl   $0x2dd4c433,-0xff4(%rbp)
    e78e:	c4 d4 2d 
    e791:	c7 85 10 f0 ff ff 33 	movl   $0xa6580833,-0xff0(%rbp)
    e798:	08 58 a6 
    e79b:	c7 85 14 f0 ff ff 33 	movl   $0x2dd4c433,-0xfec(%rbp)
    e7a2:	c4 d4 2d 
    e7a5:	c7 85 18 f0 ff ff 33 	movl   $0x2dd4c433,-0xfe8(%rbp)
    e7ac:	c4 d4 2d 
    e7af:	c7 85 1c f0 ff ff 33 	movl   $0xa6580833,-0xfe4(%rbp)
    e7b6:	08 58 a6 
    e7b9:	c7 85 20 f0 ff ff 33 	movl   $0x2dd4c433,-0xfe0(%rbp)
    e7c0:	c4 d4 2d 
    e7c3:	c7 85 24 f0 ff ff 33 	movl   $0x2dd4c433,-0xfdc(%rbp)
    e7ca:	c4 d4 2d 
    e7cd:	c7 85 28 f0 ff ff 33 	movl   $0xa6580833,-0xfd8(%rbp)
    e7d4:	08 58 a6 
    e7d7:	c7 85 2c f0 ff ff 33 	movl   $0x2dd4c433,-0xfd4(%rbp)
    e7de:	c4 d4 2d 
    e7e1:	c7 85 00 ec ff ff bb 	movl   $0xfd3c82bb,-0x1400(%rbp)
    e7e8:	82 3c fd 
    e7eb:	48 8d 85 90 ec ff ff 	lea    -0x1370(%rbp),%rax
    e7f2:	48 89 85 78 ed ff ff 	mov    %rax,-0x1288(%rbp)
    e7f9:	48 8b 95 88 ef ff ff 	mov    -0x1078(%rbp),%rdx
    e800:	48 8b 85 58 ed ff ff 	mov    -0x12a8(%rbp),%rax
    e807:	48 89 10             	mov    %rdx,(%rax)
    e80a:	48 8b 85 58 ed ff ff 	mov    -0x12a8(%rbp),%rax
    e811:	48 8b 10             	mov    (%rax),%rdx
    e814:	48 8b 85 60 ed ff ff 	mov    -0x12a0(%rbp),%rax
    e81b:	48 89 10             	mov    %rdx,(%rax)
    e81e:	48 8b 85 60 ed ff ff 	mov    -0x12a0(%rbp),%rax
    e825:	48 8b 08             	mov    (%rax),%rcx
    e828:	48 8b 95 d8 ec ff ff 	mov    -0x1328(%rbp),%rdx
    e82f:	48 8b 85 70 ed ff ff 	mov    -0x1290(%rbp),%rax
    e836:	48 89 10             	mov    %rdx,(%rax)
    e839:	48 8b 85 70 ed ff ff 	mov    -0x1290(%rbp),%rax
    e840:	48 8b 00             	mov    (%rax),%rax
    e843:	48 39 c1             	cmp    %rax,%rcx
    e846:	0f 94 c0             	sete   %al
    e849:	0f b6 c0             	movzbl %al,%eax
    e84c:	8b 95 80 eb ff ff    	mov    -0x1480(%rbp),%edx
    e852:	83 ca 40             	or     $0x40,%edx
    e855:	09 c2                	or     %eax,%edx
    e857:	8b 05 db 98 00 00    	mov    0x98db(%rip),%eax        # 18138 <g_248+0xb8>
    e85d:	0f b6 c0             	movzbl %al,%eax
    e860:	89 d6                	mov    %edx,%esi
    e862:	89 c7                	mov    %eax,%edi
    e864:	e8 24 84 ff ff       	callq  6c8d <safe_rshift_func_uint8_t_u_s>
    e869:	48 8b 05 b8 b8 00 00 	mov    0xb8b8(%rip),%rax        # 1a128 <g_326>
    e870:	48 8b 95 58 eb ff ff 	mov    -0x14a8(%rbp),%rdx
    e877:	89 10                	mov    %edx,(%rax)
    e879:	66 83 bd 4c eb ff ff 	cmpw   $0x0,-0x14b4(%rbp)
    e880:	00 
    e881:	0f 85 26 12 00 00    	jne    faad <func_37+0x4c89>
    e887:	48 83 bd 58 eb ff ff 	cmpq   $0x0,-0x14a8(%rbp)
    e88e:	00 
    e88f:	0f 84 a0 05 00 00    	je     ee35 <func_37+0x4011>
    e895:	66 c7 85 90 f5 ff ff 	movw   $0x9dae,-0xa70(%rbp)
    e89c:	ae 9d 
    e89e:	66 c7 85 92 f5 ff ff 	movw   $0x78ee,-0xa6e(%rbp)
    e8a5:	ee 78 
    e8a7:	66 c7 85 94 f5 ff ff 	movw   $0x1000,-0xa6c(%rbp)
    e8ae:	00 10 
    e8b0:	66 c7 85 96 f5 ff ff 	movw   $0x78f7,-0xa6a(%rbp)
    e8b7:	f7 78 
    e8b9:	66 c7 85 98 f5 ff ff 	movw   $0x9d07,-0xa68(%rbp)
    e8c0:	07 9d 
    e8c2:	66 c7 85 9a f5 ff ff 	movw   $0x9dff,-0xa66(%rbp)
    e8c9:	ff 9d 
    e8cb:	66 c7 85 9c f5 ff ff 	movw   $0x7807,-0xa64(%rbp)
    e8d2:	07 78 
    e8d4:	66 c7 85 9e f5 ff ff 	movw   $0x10f7,-0xa62(%rbp)
    e8db:	f7 10 
    e8dd:	66 c7 85 a0 f5 ff ff 	movw   $0x7800,-0xa60(%rbp)
    e8e4:	00 78 
    e8e6:	66 c7 85 a2 f5 ff ff 	movw   $0x9dee,-0xa5e(%rbp)
    e8ed:	ee 9d 
    e8ef:	66 c7 85 a4 f5 ff ff 	movw   $0x9dae,-0xa5c(%rbp)
    e8f6:	ae 9d 
    e8f8:	66 c7 85 a6 f5 ff ff 	movw   $0x78ee,-0xa5a(%rbp)
    e8ff:	ee 78 
    e901:	66 c7 85 a8 f5 ff ff 	movw   $0x1000,-0xa58(%rbp)
    e908:	00 10 
    e90a:	66 c7 85 aa f5 ff ff 	movw   $0x78f7,-0xa56(%rbp)
    e911:	f7 78 
    e913:	66 c7 85 ac f5 ff ff 	movw   $0x9d07,-0xa54(%rbp)
    e91a:	07 9d 
    e91c:	66 c7 85 ae f5 ff ff 	movw   $0x9dff,-0xa52(%rbp)
    e923:	ff 9d 
    e925:	66 c7 85 b0 f5 ff ff 	movw   $0x7807,-0xa50(%rbp)
    e92c:	07 78 
    e92e:	66 c7 85 b2 f5 ff ff 	movw   $0x10f7,-0xa4e(%rbp)
    e935:	f7 10 
    e937:	66 c7 85 b4 f5 ff ff 	movw   $0x7800,-0xa4c(%rbp)
    e93e:	00 78 
    e940:	66 c7 85 b6 f5 ff ff 	movw   $0x9dee,-0xa4a(%rbp)
    e947:	ee 9d 
    e949:	66 c7 85 b8 f5 ff ff 	movw   $0x9dae,-0xa48(%rbp)
    e950:	ae 9d 
    e952:	66 c7 85 ba f5 ff ff 	movw   $0x78ee,-0xa46(%rbp)
    e959:	ee 78 
    e95b:	66 c7 85 bc f5 ff ff 	movw   $0x1000,-0xa44(%rbp)
    e962:	00 10 
    e964:	66 c7 85 be f5 ff ff 	movw   $0x78f7,-0xa42(%rbp)
    e96b:	f7 78 
    e96d:	66 c7 85 c0 f5 ff ff 	movw   $0x9d07,-0xa40(%rbp)
    e974:	07 9d 
    e976:	66 c7 85 c2 f5 ff ff 	movw   $0x9dff,-0xa3e(%rbp)
    e97d:	ff 9d 
    e97f:	66 c7 85 c4 f5 ff ff 	movw   $0x7807,-0xa3c(%rbp)
    e986:	07 78 
    e988:	66 c7 85 c6 f5 ff ff 	movw   $0x10f7,-0xa3a(%rbp)
    e98f:	f7 10 
    e991:	66 c7 85 c8 f5 ff ff 	movw   $0x7800,-0xa38(%rbp)
    e998:	00 78 
    e99a:	66 c7 85 ca f5 ff ff 	movw   $0x9dee,-0xa36(%rbp)
    e9a1:	ee 9d 
    e9a3:	66 c7 85 cc f5 ff ff 	movw   $0x9dae,-0xa34(%rbp)
    e9aa:	ae 9d 
    e9ac:	66 c7 85 ce f5 ff ff 	movw   $0x78ee,-0xa32(%rbp)
    e9b3:	ee 78 
    e9b5:	66 c7 85 d0 f5 ff ff 	movw   $0x1000,-0xa30(%rbp)
    e9bc:	00 10 
    e9be:	66 c7 85 d2 f5 ff ff 	movw   $0x78f7,-0xa2e(%rbp)
    e9c5:	f7 78 
    e9c7:	66 c7 85 d4 f5 ff ff 	movw   $0x9d07,-0xa2c(%rbp)
    e9ce:	07 9d 
    e9d0:	66 c7 85 d6 f5 ff ff 	movw   $0x9dff,-0xa2a(%rbp)
    e9d7:	ff 9d 
    e9d9:	66 c7 85 d8 f5 ff ff 	movw   $0x7807,-0xa28(%rbp)
    e9e0:	07 78 
    e9e2:	66 c7 85 da f5 ff ff 	movw   $0x10f7,-0xa26(%rbp)
    e9e9:	f7 10 
    e9eb:	66 c7 85 dc f5 ff ff 	movw   $0x7800,-0xa24(%rbp)
    e9f2:	00 78 
    e9f4:	66 c7 85 de f5 ff ff 	movw   $0x9dee,-0xa22(%rbp)
    e9fb:	ee 9d 
    e9fd:	66 c7 85 e0 f5 ff ff 	movw   $0x9dae,-0xa20(%rbp)
    ea04:	ae 9d 
    ea06:	66 c7 85 e2 f5 ff ff 	movw   $0x78ee,-0xa1e(%rbp)
    ea0d:	ee 78 
    ea0f:	66 c7 85 e4 f5 ff ff 	movw   $0x1000,-0xa1c(%rbp)
    ea16:	00 10 
    ea18:	66 c7 85 e6 f5 ff ff 	movw   $0x78f7,-0xa1a(%rbp)
    ea1f:	f7 78 
    ea21:	66 c7 85 e8 f5 ff ff 	movw   $0x9d07,-0xa18(%rbp)
    ea28:	07 9d 
    ea2a:	66 c7 85 ea f5 ff ff 	movw   $0x9dff,-0xa16(%rbp)
    ea31:	ff 9d 
    ea33:	66 c7 85 ec f5 ff ff 	movw   $0x7807,-0xa14(%rbp)
    ea3a:	07 78 
    ea3c:	66 c7 85 ee f5 ff ff 	movw   $0x10f7,-0xa12(%rbp)
    ea43:	f7 10 
    ea45:	66 c7 85 f0 f5 ff ff 	movw   $0x7800,-0xa10(%rbp)
    ea4c:	00 78 
    ea4e:	66 c7 85 f2 f5 ff ff 	movw   $0x9dee,-0xa0e(%rbp)
    ea55:	ee 9d 
    ea57:	66 c7 85 f4 f5 ff ff 	movw   $0x9dae,-0xa0c(%rbp)
    ea5e:	ae 9d 
    ea60:	66 c7 85 f6 f5 ff ff 	movw   $0x78ee,-0xa0a(%rbp)
    ea67:	ee 78 
    ea69:	66 c7 85 f8 f5 ff ff 	movw   $0x1000,-0xa08(%rbp)
    ea70:	00 10 
    ea72:	66 c7 85 fa f5 ff ff 	movw   $0x78f7,-0xa06(%rbp)
    ea79:	f7 78 
    ea7b:	66 c7 85 fc f5 ff ff 	movw   $0x9d07,-0xa04(%rbp)
    ea82:	07 9d 
    ea84:	66 c7 85 fe f5 ff ff 	movw   $0x9dff,-0xa02(%rbp)
    ea8b:	ff 9d 
    ea8d:	66 c7 85 00 f6 ff ff 	movw   $0x7807,-0xa00(%rbp)
    ea94:	07 78 
    ea96:	66 c7 85 02 f6 ff ff 	movw   $0x10f7,-0x9fe(%rbp)
    ea9d:	f7 10 
    ea9f:	66 c7 85 04 f6 ff ff 	movw   $0x7800,-0x9fc(%rbp)
    eaa6:	00 78 
    eaa8:	66 c7 85 06 f6 ff ff 	movw   $0x9dee,-0x9fa(%rbp)
    eaaf:	ee 9d 
    eab1:	66 c7 85 08 f6 ff ff 	movw   $0x9dae,-0x9f8(%rbp)
    eab8:	ae 9d 
    eaba:	66 c7 85 0a f6 ff ff 	movw   $0x78ee,-0x9f6(%rbp)
    eac1:	ee 78 
    eac3:	66 c7 85 0c f6 ff ff 	movw   $0x1000,-0x9f4(%rbp)
    eaca:	00 10 
    eacc:	66 c7 85 0e f6 ff ff 	movw   $0x78f7,-0x9f2(%rbp)
    ead3:	f7 78 
    ead5:	66 c7 85 10 f6 ff ff 	movw   $0x9d07,-0x9f0(%rbp)
    eadc:	07 9d 
    eade:	66 c7 85 12 f6 ff ff 	movw   $0x9dff,-0x9ee(%rbp)
    eae5:	ff 9d 
    eae7:	66 c7 85 14 f6 ff ff 	movw   $0x7807,-0x9ec(%rbp)
    eaee:	07 78 
    eaf0:	66 c7 85 16 f6 ff ff 	movw   $0x10f7,-0x9ea(%rbp)
    eaf7:	f7 10 
    eaf9:	66 c7 85 18 f6 ff ff 	movw   $0x7800,-0x9e8(%rbp)
    eb00:	00 78 
    eb02:	66 c7 85 1a f6 ff ff 	movw   $0x9dee,-0x9e6(%rbp)
    eb09:	ee 9d 
    eb0b:	66 c7 85 1c f6 ff ff 	movw   $0x9dae,-0x9e4(%rbp)
    eb12:	ae 9d 
    eb14:	66 c7 85 1e f6 ff ff 	movw   $0x2220,-0x9e2(%rbp)
    eb1b:	20 22 
    eb1d:	66 c7 85 20 f6 ff ff 	movw   $0x78ae,-0x9e0(%rbp)
    eb24:	ae 78 
    eb26:	66 c7 85 22 f6 ff ff 	movw   $0x22ff,-0x9de(%rbp)
    eb2d:	ff 22 
    eb2f:	66 c7 85 24 f6 ff ff 	movw   $0x10fc,-0x9dc(%rbp)
    eb36:	fc 10 
    eb38:	66 c7 85 26 f6 ff ff 	movw   $0x10ee,-0x9da(%rbp)
    eb3f:	ee 10 
    eb41:	66 c7 85 28 f6 ff ff 	movw   $0x22fc,-0x9d8(%rbp)
    eb48:	fc 22 
    eb4a:	66 c7 85 2a f6 ff ff 	movw   $0x78ff,-0x9d6(%rbp)
    eb51:	ff 78 
    eb53:	66 c7 85 2c f6 ff ff 	movw   $0x22ae,-0x9d4(%rbp)
    eb5a:	ae 22 
    eb5c:	66 c7 85 2e f6 ff ff 	movw   $0x1020,-0x9d2(%rbp)
    eb63:	20 10 
    eb65:	66 c7 85 30 f6 ff ff 	movw   $0x1007,-0x9d0(%rbp)
    eb6c:	07 10 
    eb6e:	66 c7 85 32 f6 ff ff 	movw   $0x2220,-0x9ce(%rbp)
    eb75:	20 22 
    eb77:	66 c7 85 34 f6 ff ff 	movw   $0x78ae,-0x9cc(%rbp)
    eb7e:	ae 78 
    eb80:	66 c7 85 36 f6 ff ff 	movw   $0x22ff,-0x9ca(%rbp)
    eb87:	ff 22 
    eb89:	66 c7 85 38 f6 ff ff 	movw   $0x10fc,-0x9c8(%rbp)
    eb90:	fc 10 
    eb92:	66 c7 85 3a f6 ff ff 	movw   $0x10ee,-0x9c6(%rbp)
    eb99:	ee 10 
    eb9b:	66 c7 85 3c f6 ff ff 	movw   $0x22fc,-0x9c4(%rbp)
    eba2:	fc 22 
    eba4:	66 c7 85 3e f6 ff ff 	movw   $0x78ff,-0x9c2(%rbp)
    ebab:	ff 78 
    ebad:	66 c7 85 40 f6 ff ff 	movw   $0x22ae,-0x9c0(%rbp)
    ebb4:	ae 22 
    ebb6:	66 c7 85 42 f6 ff ff 	movw   $0x1020,-0x9be(%rbp)
    ebbd:	20 10 
    ebbf:	48 8d 05 8a 94 00 00 	lea    0x948a(%rip),%rax        # 18050 <g_135>
    ebc6:	48 89 85 98 ed ff ff 	mov    %rax,-0x1268(%rbp)
    ebcd:	48 8d 85 7c eb ff ff 	lea    -0x1484(%rbp),%rax
    ebd4:	48 89 85 50 f3 ff ff 	mov    %rax,-0xcb0(%rbp)
    ebdb:	48 8d 85 80 eb ff ff 	lea    -0x1480(%rbp),%rax
    ebe2:	48 89 85 58 f3 ff ff 	mov    %rax,-0xca8(%rbp)
    ebe9:	48 8d 85 80 eb ff ff 	lea    -0x1480(%rbp),%rax
    ebf0:	48 89 85 60 f3 ff ff 	mov    %rax,-0xca0(%rbp)
    ebf7:	48 8d 85 7c eb ff ff 	lea    -0x1484(%rbp),%rax
    ebfe:	48 89 85 68 f3 ff ff 	mov    %rax,-0xc98(%rbp)
    ec05:	48 8d 85 80 eb ff ff 	lea    -0x1480(%rbp),%rax
    ec0c:	48 89 85 70 f3 ff ff 	mov    %rax,-0xc90(%rbp)
    ec13:	48 8d 85 80 eb ff ff 	lea    -0x1480(%rbp),%rax
    ec1a:	48 89 85 78 f3 ff ff 	mov    %rax,-0xc88(%rbp)
    ec21:	48 8d 85 7c eb ff ff 	lea    -0x1484(%rbp),%rax
    ec28:	48 89 85 80 f3 ff ff 	mov    %rax,-0xc80(%rbp)
    ec2f:	48 8d 05 02 94 00 00 	lea    0x9402(%rip),%rax        # 18038 <g_44>
    ec36:	48 89 85 a0 ed ff ff 	mov    %rax,-0x1260(%rbp)
    ec3d:	48 8d 85 70 ec ff ff 	lea    -0x1390(%rbp),%rax
    ec44:	48 89 85 a8 ed ff ff 	mov    %rax,-0x1258(%rbp)
    ec4b:	c6 85 75 eb ff ff fc 	movb   $0xfc,-0x148b(%rbp)
    ec52:	83 85 00 ec ff ff 01 	addl   $0x1,-0x1400(%rbp)
    ec59:	48 8b 85 a0 ed ff ff 	mov    -0x1260(%rbp),%rax
    ec60:	48 8b 00             	mov    (%rax),%rax
    ec63:	48 8d 50 01          	lea    0x1(%rax),%rdx
    ec67:	48 8b 85 a0 ed ff ff 	mov    -0x1260(%rbp),%rax
    ec6e:	48 89 10             	mov    %rdx,(%rax)
    ec71:	48 8b 85 a0 ed ff ff 	mov    -0x1260(%rbp),%rax
    ec78:	48 8b 00             	mov    (%rax),%rax
    ec7b:	48 85 c0             	test   %rax,%rax
    ec7e:	0f 85 9a 01 00 00    	jne    ee1e <func_37+0x3ffa>
    ec84:	44 0f b7 ad 4c eb ff 	movzwl -0x14b4(%rbp),%r13d
    ec8b:	ff 
    ec8c:	0f b6 9d 75 eb ff ff 	movzbl -0x148b(%rbp),%ebx
    ec93:	be 01 00 00 00       	mov    $0x1,%esi
    ec98:	bf 01 00 00 00       	mov    $0x1,%edi
    ec9d:	e8 4c 76 ff ff       	callq  62ee <safe_lshift_func_int8_t_s_u>
    eca2:	89 c2                	mov    %eax,%edx
    eca4:	48 8b 05 7d b4 00 00 	mov    0xb47d(%rip),%rax        # 1a128 <g_326>
    ecab:	0f be d2             	movsbl %dl,%edx
    ecae:	89 10                	mov    %edx,(%rax)
    ecb0:	8b 00                	mov    (%rax),%eax
    ecb2:	89 de                	mov    %ebx,%esi
    ecb4:	89 c7                	mov    %eax,%edi
    ecb6:	e8 fb 78 ff ff       	callq  65b6 <safe_add_func_int32_t_s_s>
    ecbb:	83 c8 01             	or     $0x1,%eax
    ecbe:	0f be d8             	movsbl %al,%ebx
    ecc1:	0f b7 85 48 eb ff ff 	movzwl -0x14b8(%rbp),%eax
    ecc8:	44 0f b7 e0          	movzwl %ax,%r12d
    eccc:	48 8b 85 78 ec ff ff 	mov    -0x1388(%rbp),%rax
    ecd3:	0f b7 10             	movzwl (%rax),%edx
    ecd6:	48 8b 85 58 eb ff ff 	mov    -0x14a8(%rbp),%rax
    ecdd:	89 c1                	mov    %eax,%ecx
    ecdf:	48 8b 85 78 ec ff ff 	mov    -0x1388(%rbp),%rax
    ece6:	09 ca                	or     %ecx,%edx
    ece8:	66 89 10             	mov    %dx,(%rax)
    eceb:	0f b7 00             	movzwl (%rax),%eax
    ecee:	0f b7 d0             	movzwl %ax,%edx
    ecf1:	83 ad bc eb ff ff 01 	subl   $0x1,-0x1444(%rbp)
    ecf8:	48 8b 05 11 b5 00 00 	mov    0xb511(%rip),%rax        # 1a210 <g_846+0x30>
    ecff:	48 8d 8d 80 ef ff ff 	lea    -0x1080(%rbp),%rcx
    ed06:	48 83 c1 10          	add    $0x10,%rcx
    ed0a:	48 39 c8             	cmp    %rcx,%rax
    ed0d:	74 07                	je     ed16 <func_37+0x3ef2>
    ed0f:	b8 01 00 00 00       	mov    $0x1,%eax
    ed14:	eb 05                	jmp    ed1b <func_37+0x3ef7>
    ed16:	b8 00 00 00 00       	mov    $0x0,%eax
    ed1b:	48 3b 85 58 eb ff ff 	cmp    -0x14a8(%rbp),%rax
    ed22:	0f 92 c0             	setb   %al
    ed25:	0f b6 c0             	movzbl %al,%eax
    ed28:	89 d6                	mov    %edx,%esi
    ed2a:	89 c7                	mov    %eax,%edi
    ed2c:	e8 2b 80 ff ff       	callq  6d5c <safe_mod_func_uint16_t_u_u>
    ed31:	0f b7 c0             	movzwl %ax,%eax
    ed34:	44 89 e6             	mov    %r12d,%esi
    ed37:	89 c7                	mov    %eax,%edi
    ed39:	e8 e1 7f ff ff       	callq  6d1f <safe_sub_func_uint16_t_u_u>
    ed3e:	0f b7 d0             	movzwl %ax,%edx
    ed41:	48 8b 85 a8 ec ff ff 	mov    -0x1358(%rbp),%rax
    ed48:	48 89 d6             	mov    %rdx,%rsi
    ed4b:	48 89 c7             	mov    %rax,%rdi
    ed4e:	e8 61 7c ff ff       	callq  69b4 <safe_mod_func_int64_t_s_s>
    ed53:	0f be c0             	movsbl %al,%eax
    ed56:	89 de                	mov    %ebx,%esi
    ed58:	89 c7                	mov    %eax,%edi
    ed5a:	e8 0b 75 ff ff       	callq  626a <safe_div_func_int8_t_s_s>
    ed5f:	0f be c0             	movsbl %al,%eax
    ed62:	be fd ff ff ff       	mov    $0xfffffffd,%esi
    ed67:	89 c7                	mov    %eax,%edi
    ed69:	e8 91 79 ff ff       	callq  66ff <safe_div_func_int32_t_s_s>
    ed6e:	48 98                	cltq   
    ed70:	48 39 85 58 eb ff ff 	cmp    %rax,-0x14a8(%rbp)
    ed77:	0f 96 c0             	setbe  %al
    ed7a:	0f b6 c0             	movzbl %al,%eax
    ed7d:	be fe ff 00 00       	mov    $0xfffe,%esi
    ed82:	89 c7                	mov    %eax,%edi
    ed84:	e8 96 7f ff ff       	callq  6d1f <safe_sub_func_uint16_t_u_u>
    ed89:	0f b7 c0             	movzwl %ax,%eax
    ed8c:	25 1b 8a 7f 64       	and    $0x647f8a1b,%eax
    ed91:	49 39 c5             	cmp    %rax,%r13
    ed94:	0f 94 c0             	sete   %al
    ed97:	0f b6 d0             	movzbl %al,%edx
    ed9a:	48 8b 05 5f b3 00 00 	mov    0xb35f(%rip),%rax        # 1a100 <g_236>
    eda1:	48 8b 00             	mov    (%rax),%rax
    eda4:	48 39 c2             	cmp    %rax,%rdx
    eda7:	0f 9f c0             	setg   %al
    edaa:	0f b6 d0             	movzbl %al,%edx
    edad:	48 8b 85 98 ed ff ff 	mov    -0x1268(%rbp),%rax
    edb4:	89 10                	mov    %edx,(%rax)
    edb6:	48 8b 85 98 ed ff ff 	mov    -0x1268(%rbp),%rax
    edbd:	8b 10                	mov    (%rax),%edx
    edbf:	48 8b 85 38 ed ff ff 	mov    -0x12c8(%rbp),%rax
    edc6:	89 10                	mov    %edx,(%rax)
    edc8:	48 8b 85 38 ed ff ff 	mov    -0x12c8(%rbp),%rax
    edcf:	8b 00                	mov    (%rax),%eax
    edd1:	85 c0                	test   %eax,%eax
    edd3:	75 0d                	jne    ede2 <func_37+0x3fbe>
    edd5:	48 8b 85 98 ed ff ff 	mov    -0x1268(%rbp),%rax
    eddc:	8b 00                	mov    (%rax),%eax
    edde:	85 c0                	test   %eax,%eax
    ede0:	74 07                	je     ede9 <func_37+0x3fc5>
    ede2:	b8 01 00 00 00       	mov    $0x1,%eax
    ede7:	eb 05                	jmp    edee <func_37+0x3fca>
    ede9:	b8 00 00 00 00       	mov    $0x0,%eax
    edee:	48 98                	cltq   
    edf0:	48 c7 c6 ff ff ff ff 	mov    $0xffffffffffffffff,%rsi
    edf7:	48 89 c7             	mov    %rax,%rdi
    edfa:	e8 4c 82 ff ff       	callq  704b <safe_sub_func_uint64_t_u_u>
    edff:	0f b7 95 48 eb ff ff 	movzwl -0x14b8(%rbp),%edx
    ee06:	0f b7 d2             	movzwl %dx,%edx
    ee09:	48 39 d0             	cmp    %rdx,%rax
    ee0c:	0f 92 c0             	setb   %al
    ee0f:	0f b6 d0             	movzbl %al,%edx
    ee12:	48 8b 85 a0 ec ff ff 	mov    -0x1360(%rbp),%rax
    ee19:	48 39 c2             	cmp    %rax,%rdx
    ee1c:	7e 07                	jle    ee25 <func_37+0x4001>
    ee1e:	b8 01 00 00 00       	mov    $0x1,%eax
    ee23:	eb 05                	jmp    ee2a <func_37+0x4006>
    ee25:	b8 00 00 00 00       	mov    $0x0,%eax
    ee2a:	89 85 a0 ef ff ff    	mov    %eax,-0x1060(%rbp)
    ee30:	e9 79 0c 00 00       	jmpq   faae <func_37+0x4c8a>
    ee35:	48 8d 05 8c 93 00 00 	lea    0x938c(%rip),%rax        # 181c8 <g_317>
    ee3c:	48 89 85 80 ed ff ff 	mov    %rax,-0x1280(%rbp)
    ee43:	c7 85 04 ec ff ff 00 	movl   $0x0,-0x13fc(%rbp)
    ee4a:	00 00 00 
    ee4d:	c7 85 08 ec ff ff 08 	movl   $0x8,-0x13f8(%rbp)
    ee54:	00 00 00 
    ee57:	c7 85 d0 ef ff ff 09 	movl   $0x9,-0x1030(%rbp)
    ee5e:	00 00 00 
    ee61:	c7 85 d4 ef ff ff 01 	movl   $0x1,-0x102c(%rbp)
    ee68:	00 00 00 
    ee6b:	c7 85 d8 ef ff ff 01 	movl   $0x1,-0x1028(%rbp)
    ee72:	00 00 00 
    ee75:	c7 85 dc ef ff ff 09 	movl   $0x9,-0x1024(%rbp)
    ee7c:	00 00 00 
    ee7f:	c7 85 e0 ef ff ff ad 	movl   $0xb61731ad,-0x1020(%rbp)
    ee86:	31 17 b6 
    ee89:	c7 85 e4 ef ff ff 09 	movl   $0x9,-0x101c(%rbp)
    ee90:	00 00 00 
    ee93:	c7 85 e8 ef ff ff 01 	movl   $0x1,-0x1018(%rbp)
    ee9a:	00 00 00 
    ee9d:	c7 85 ec ef ff ff 01 	movl   $0x1,-0x1014(%rbp)
    eea4:	00 00 00 
    eea7:	c7 85 f0 ef ff ff 09 	movl   $0x9,-0x1010(%rbp)
    eeae:	00 00 00 
    eeb1:	c7 85 f4 ef ff ff ad 	movl   $0xb61731ad,-0x100c(%rbp)
    eeb8:	31 17 b6 
    eebb:	c6 85 74 eb ff ff 7e 	movb   $0x7e,-0x148c(%rbp)
    eec2:	48 8d 85 b8 ec ff ff 	lea    -0x1348(%rbp),%rax
    eec9:	48 89 85 f0 ec ff ff 	mov    %rax,-0x1310(%rbp)
    eed0:	48 8d 85 b8 ec ff ff 	lea    -0x1348(%rbp),%rax
    eed7:	48 89 85 f8 ec ff ff 	mov    %rax,-0x1308(%rbp)
    eede:	48 8d 85 f8 ec ff ff 	lea    -0x1308(%rbp),%rax
    eee5:	48 89 85 88 ed ff ff 	mov    %rax,-0x1278(%rbp)
    eeec:	48 83 bd 58 eb ff ff 	cmpq   $0x0,-0x14a8(%rbp)
    eef3:	00 
    eef4:	0f 85 c9 00 00 00    	jne    efc3 <func_37+0x419f>
    eefa:	0f b7 85 48 eb ff ff 	movzwl -0x14b8(%rbp),%eax
    ef01:	0f b7 d8             	movzwl %ax,%ebx
    ef04:	48 8d 05 0d bc 00 00 	lea    0xbc0d(%rip),%rax        # 1ab18 <g_322>
    ef0b:	48 39 85 30 ed ff ff 	cmp    %rax,-0x12d0(%rbp)
    ef12:	0f 94 c0             	sete   %al
    ef15:	41 89 c4             	mov    %eax,%r12d
    ef18:	be 09 00 00 00       	mov    $0x9,%esi
    ef1d:	bf 52 36 00 00       	mov    $0x3652,%edi
    ef22:	e8 ce 74 ff ff       	callq  63f5 <safe_mul_func_int16_t_s_s>
    ef27:	44 21 e0             	and    %r12d,%eax
    ef2a:	0f be c0             	movsbl %al,%eax
    ef2d:	89 c6                	mov    %eax,%esi
    ef2f:	bf 00 00 00 00       	mov    $0x0,%edi
    ef34:	e8 f8 72 ff ff       	callq  6231 <safe_mod_func_int8_t_s_s>
    ef39:	ba 01 00 00 00       	mov    $0x1,%edx
    ef3e:	0f b7 85 48 eb ff ff 	movzwl -0x14b8(%rbp),%eax
    ef45:	0f b7 c0             	movzwl %ax,%eax
    ef48:	39 c2                	cmp    %eax,%edx
    ef4a:	0f 9c c0             	setl   %al
    ef4d:	0f b6 d0             	movzbl %al,%edx
    ef50:	48 8b 85 58 eb ff ff 	mov    -0x14a8(%rbp),%rax
    ef57:	0f be c0             	movsbl %al,%eax
    ef5a:	89 d6                	mov    %edx,%esi
    ef5c:	89 c7                	mov    %eax,%edi
    ef5e:	e8 8f 72 ff ff       	callq  61f2 <safe_sub_func_int8_t_s_s>
    ef63:	48 8b 85 78 ec ff ff 	mov    -0x1388(%rbp),%rax
    ef6a:	0f b7 00             	movzwl (%rax),%eax
    ef6d:	89 c2                	mov    %eax,%edx
    ef6f:	48 8b 85 38 ed ff ff 	mov    -0x12c8(%rbp),%rax
    ef76:	8b 00                	mov    (%rax),%eax
    ef78:	09 c2                	or     %eax,%edx
    ef7a:	48 8b 85 78 ec ff ff 	mov    -0x1388(%rbp),%rax
    ef81:	66 89 10             	mov    %dx,(%rax)
    ef84:	0f b7 00             	movzwl (%rax),%eax
    ef87:	66 85 c0             	test   %ax,%ax
    ef8a:	0f 95 c0             	setne  %al
    ef8d:	0f b6 c0             	movzbl %al,%eax
    ef90:	89 de                	mov    %ebx,%esi
    ef92:	89 c7                	mov    %eax,%edi
    ef94:	e8 e1 7e ff ff       	callq  6e7a <safe_rshift_func_uint16_t_u_u>
    ef99:	0f b7 d0             	movzwl %ax,%edx
    ef9c:	48 8b 85 38 ed ff ff 	mov    -0x12c8(%rbp),%rax
    efa3:	8b 00                	mov    (%rax),%eax
    efa5:	39 c2                	cmp    %eax,%edx
    efa7:	0f 9c c0             	setl   %al
    efaa:	0f b6 c0             	movzbl %al,%eax
    efad:	be fb ff ff ff       	mov    $0xfffffffb,%esi
    efb2:	89 c7                	mov    %eax,%edi
    efb4:	e8 6c 7f ff ff       	callq  6f25 <safe_div_func_uint32_t_u_u>
    efb9:	8b 95 80 eb ff ff    	mov    -0x1480(%rbp),%edx
    efbf:	39 d0                	cmp    %edx,%eax
    efc1:	75 07                	jne    efca <func_37+0x41a6>
    efc3:	b8 01 00 00 00       	mov    $0x1,%eax
    efc8:	eb 05                	jmp    efcf <func_37+0x41ab>
    efca:	b8 00 00 00 00       	mov    $0x0,%eax
    efcf:	3d fd 00 00 00       	cmp    $0xfd,%eax
    efd4:	76 07                	jbe    efdd <func_37+0x41b9>
    efd6:	b8 c5 80 00 00       	mov    $0x80c5,%eax
    efdb:	eb 05                	jmp    efe2 <func_37+0x41be>
    efdd:	b8 c4 80 00 00       	mov    $0x80c4,%eax
    efe2:	21 85 a4 eb ff ff    	and    %eax,-0x145c(%rbp)
    efe8:	83 bd a4 eb ff ff 00 	cmpl   $0x0,-0x145c(%rbp)
    efef:	79 0a                	jns    effb <func_37+0x41d7>
    eff1:	8b 05 19 92 00 00    	mov    0x9219(%rip),%eax        # 18210 <g_614>
    eff7:	85 c0                	test   %eax,%eax
    eff9:	74 08                	je     f003 <func_37+0x41df>
    effb:	66 83 bd 4c eb ff ff 	cmpw   $0x0,-0x14b4(%rbp)
    f002:	00 
    f003:	48 8d 85 38 ef ff ff 	lea    -0x10c8(%rbp),%rax
    f00a:	48 89 85 90 f5 ff ff 	mov    %rax,-0xa70(%rbp)
    f011:	48 8d 85 38 ef ff ff 	lea    -0x10c8(%rbp),%rax
    f018:	48 89 85 98 f5 ff ff 	mov    %rax,-0xa68(%rbp)
    f01f:	48 c7 85 a0 f5 ff ff 	movq   $0x0,-0xa60(%rbp)
    f026:	00 00 00 00 
    f02a:	48 8d 85 38 ef ff ff 	lea    -0x10c8(%rbp),%rax
    f031:	48 89 85 a8 f5 ff ff 	mov    %rax,-0xa58(%rbp)
    f038:	48 c7 85 b0 f5 ff ff 	movq   $0x0,-0xa50(%rbp)
    f03f:	00 00 00 00 
    f043:	48 8d 85 38 ef ff ff 	lea    -0x10c8(%rbp),%rax
    f04a:	48 89 85 b8 f5 ff ff 	mov    %rax,-0xa48(%rbp)
    f051:	48 8d 85 38 ef ff ff 	lea    -0x10c8(%rbp),%rax
    f058:	48 89 85 c0 f5 ff ff 	mov    %rax,-0xa40(%rbp)
    f05f:	48 8d 85 38 ef ff ff 	lea    -0x10c8(%rbp),%rax
    f066:	48 89 85 c8 f5 ff ff 	mov    %rax,-0xa38(%rbp)
    f06d:	48 8d 05 94 b0 00 00 	lea    0xb094(%rip),%rax        # 1a108 <g_235>
    f074:	48 89 85 d0 f5 ff ff 	mov    %rax,-0xa30(%rbp)
    f07b:	48 8d 05 86 b0 00 00 	lea    0xb086(%rip),%rax        # 1a108 <g_235>
    f082:	48 89 85 d8 f5 ff ff 	mov    %rax,-0xa28(%rbp)
    f089:	48 8d 85 38 ef ff ff 	lea    -0x10c8(%rbp),%rax
    f090:	48 89 85 e0 f5 ff ff 	mov    %rax,-0xa20(%rbp)
    f097:	48 c7 85 e8 f5 ff ff 	movq   $0x0,-0xa18(%rbp)
    f09e:	00 00 00 00 
    f0a2:	48 8d 05 5f b0 00 00 	lea    0xb05f(%rip),%rax        # 1a108 <g_235>
    f0a9:	48 89 85 f0 f5 ff ff 	mov    %rax,-0xa10(%rbp)
    f0b0:	48 8d 85 38 ef ff ff 	lea    -0x10c8(%rbp),%rax
    f0b7:	48 89 85 f8 f5 ff ff 	mov    %rax,-0xa08(%rbp)
    f0be:	48 8d 85 38 ef ff ff 	lea    -0x10c8(%rbp),%rax
    f0c5:	48 89 85 00 f6 ff ff 	mov    %rax,-0xa00(%rbp)
    f0cc:	48 8d 85 38 ef ff ff 	lea    -0x10c8(%rbp),%rax
    f0d3:	48 89 85 08 f6 ff ff 	mov    %rax,-0x9f8(%rbp)
    f0da:	48 8d 85 38 ef ff ff 	lea    -0x10c8(%rbp),%rax
    f0e1:	48 89 85 10 f6 ff ff 	mov    %rax,-0x9f0(%rbp)
    f0e8:	48 8d 85 38 ef ff ff 	lea    -0x10c8(%rbp),%rax
    f0ef:	48 89 85 18 f6 ff ff 	mov    %rax,-0x9e8(%rbp)
    f0f6:	48 8d 85 38 ef ff ff 	lea    -0x10c8(%rbp),%rax
    f0fd:	48 89 85 20 f6 ff ff 	mov    %rax,-0x9e0(%rbp)
    f104:	48 c7 85 28 f6 ff ff 	movq   $0x0,-0x9d8(%rbp)
    f10b:	00 00 00 00 
    f10f:	48 8d 05 f2 af 00 00 	lea    0xaff2(%rip),%rax        # 1a108 <g_235>
    f116:	48 89 85 30 f6 ff ff 	mov    %rax,-0x9d0(%rbp)
    f11d:	48 8d 85 38 ef ff ff 	lea    -0x10c8(%rbp),%rax
    f124:	48 89 85 38 f6 ff ff 	mov    %rax,-0x9c8(%rbp)
    f12b:	48 8d 85 38 ef ff ff 	lea    -0x10c8(%rbp),%rax
    f132:	48 89 85 40 f6 ff ff 	mov    %rax,-0x9c0(%rbp)
    f139:	48 8d 85 38 ef ff ff 	lea    -0x10c8(%rbp),%rax
    f140:	48 89 85 48 f6 ff ff 	mov    %rax,-0x9b8(%rbp)
    f147:	48 c7 85 50 f6 ff ff 	movq   $0x0,-0x9b0(%rbp)
    f14e:	00 00 00 00 
    f152:	48 8d 85 38 ef ff ff 	lea    -0x10c8(%rbp),%rax
    f159:	48 89 85 58 f6 ff ff 	mov    %rax,-0x9a8(%rbp)
    f160:	48 8d 05 a1 af 00 00 	lea    0xafa1(%rip),%rax        # 1a108 <g_235>
    f167:	48 89 85 60 f6 ff ff 	mov    %rax,-0x9a0(%rbp)
    f16e:	48 8d 05 93 af 00 00 	lea    0xaf93(%rip),%rax        # 1a108 <g_235>
    f175:	48 89 85 68 f6 ff ff 	mov    %rax,-0x998(%rbp)
    f17c:	48 8d 05 85 af 00 00 	lea    0xaf85(%rip),%rax        # 1a108 <g_235>
    f183:	48 89 85 70 f6 ff ff 	mov    %rax,-0x990(%rbp)
    f18a:	48 8d 85 38 ef ff ff 	lea    -0x10c8(%rbp),%rax
    f191:	48 89 85 78 f6 ff ff 	mov    %rax,-0x988(%rbp)
    f198:	48 8d 85 38 ef ff ff 	lea    -0x10c8(%rbp),%rax
    f19f:	48 89 85 80 f6 ff ff 	mov    %rax,-0x980(%rbp)
    f1a6:	48 8d 05 5b af 00 00 	lea    0xaf5b(%rip),%rax        # 1a108 <g_235>
    f1ad:	48 89 85 88 f6 ff ff 	mov    %rax,-0x978(%rbp)
    f1b4:	48 8d 85 38 ef ff ff 	lea    -0x10c8(%rbp),%rax
    f1bb:	48 89 85 90 f6 ff ff 	mov    %rax,-0x970(%rbp)
    f1c2:	48 8d 85 38 ef ff ff 	lea    -0x10c8(%rbp),%rax
    f1c9:	48 89 85 98 f6 ff ff 	mov    %rax,-0x968(%rbp)
    f1d0:	48 8d 05 31 af 00 00 	lea    0xaf31(%rip),%rax        # 1a108 <g_235>
    f1d7:	48 89 85 a0 f6 ff ff 	mov    %rax,-0x960(%rbp)
    f1de:	48 8d 05 23 af 00 00 	lea    0xaf23(%rip),%rax        # 1a108 <g_235>
    f1e5:	48 89 85 a8 f6 ff ff 	mov    %rax,-0x958(%rbp)
    f1ec:	48 8d 85 38 ef ff ff 	lea    -0x10c8(%rbp),%rax
    f1f3:	48 89 85 b0 f6 ff ff 	mov    %rax,-0x950(%rbp)
    f1fa:	48 8d 05 07 af 00 00 	lea    0xaf07(%rip),%rax        # 1a108 <g_235>
    f201:	48 89 85 b8 f6 ff ff 	mov    %rax,-0x948(%rbp)
    f208:	48 8d 85 38 ef ff ff 	lea    -0x10c8(%rbp),%rax
    f20f:	48 89 85 c0 f6 ff ff 	mov    %rax,-0x940(%rbp)
    f216:	48 8d 85 38 ef ff ff 	lea    -0x10c8(%rbp),%rax
    f21d:	48 89 85 c8 f6 ff ff 	mov    %rax,-0x938(%rbp)
    f224:	48 8d 05 dd ae 00 00 	lea    0xaedd(%rip),%rax        # 1a108 <g_235>
    f22b:	48 89 85 d0 f6 ff ff 	mov    %rax,-0x930(%rbp)
    f232:	48 8d 85 38 ef ff ff 	lea    -0x10c8(%rbp),%rax
    f239:	48 89 85 d8 f6 ff ff 	mov    %rax,-0x928(%rbp)
    f240:	48 8d 05 c1 ae 00 00 	lea    0xaec1(%rip),%rax        # 1a108 <g_235>
    f247:	48 89 85 e0 f6 ff ff 	mov    %rax,-0x920(%rbp)
    f24e:	48 8d 85 38 ef ff ff 	lea    -0x10c8(%rbp),%rax
    f255:	48 89 85 e8 f6 ff ff 	mov    %rax,-0x918(%rbp)
    f25c:	48 8d 85 38 ef ff ff 	lea    -0x10c8(%rbp),%rax
    f263:	48 89 85 f0 f6 ff ff 	mov    %rax,-0x910(%rbp)
    f26a:	48 8d 85 38 ef ff ff 	lea    -0x10c8(%rbp),%rax
    f271:	48 89 85 f8 f6 ff ff 	mov    %rax,-0x908(%rbp)
    f278:	48 8d 85 38 ef ff ff 	lea    -0x10c8(%rbp),%rax
    f27f:	48 89 85 00 f7 ff ff 	mov    %rax,-0x900(%rbp)
    f286:	48 8d 85 38 ef ff ff 	lea    -0x10c8(%rbp),%rax
    f28d:	48 89 85 08 f7 ff ff 	mov    %rax,-0x8f8(%rbp)
    f294:	48 8d 05 6d ae 00 00 	lea    0xae6d(%rip),%rax        # 1a108 <g_235>
    f29b:	48 89 85 10 f7 ff ff 	mov    %rax,-0x8f0(%rbp)
    f2a2:	48 8d 85 38 ef ff ff 	lea    -0x10c8(%rbp),%rax
    f2a9:	48 89 85 18 f7 ff ff 	mov    %rax,-0x8e8(%rbp)
    f2b0:	48 8d 05 51 ae 00 00 	lea    0xae51(%rip),%rax        # 1a108 <g_235>
    f2b7:	48 89 85 20 f7 ff ff 	mov    %rax,-0x8e0(%rbp)
    f2be:	48 8d 85 38 ef ff ff 	lea    -0x10c8(%rbp),%rax
    f2c5:	48 89 85 28 f7 ff ff 	mov    %rax,-0x8d8(%rbp)
    f2cc:	48 8d 85 38 ef ff ff 	lea    -0x10c8(%rbp),%rax
    f2d3:	48 89 85 30 f7 ff ff 	mov    %rax,-0x8d0(%rbp)
    f2da:	48 8d 05 27 ae 00 00 	lea    0xae27(%rip),%rax        # 1a108 <g_235>
    f2e1:	48 89 85 38 f7 ff ff 	mov    %rax,-0x8c8(%rbp)
    f2e8:	48 8d 85 38 ef ff ff 	lea    -0x10c8(%rbp),%rax
    f2ef:	48 89 85 40 f7 ff ff 	mov    %rax,-0x8c0(%rbp)
    f2f6:	48 8d 05 0b ae 00 00 	lea    0xae0b(%rip),%rax        # 1a108 <g_235>
    f2fd:	48 89 85 48 f7 ff ff 	mov    %rax,-0x8b8(%rbp)
    f304:	48 8d 05 fd ad 00 00 	lea    0xadfd(%rip),%rax        # 1a108 <g_235>
    f30b:	48 89 85 50 f7 ff ff 	mov    %rax,-0x8b0(%rbp)
    f312:	48 8d 85 38 ef ff ff 	lea    -0x10c8(%rbp),%rax
    f319:	48 89 85 58 f7 ff ff 	mov    %rax,-0x8a8(%rbp)
    f320:	48 8d 85 38 ef ff ff 	lea    -0x10c8(%rbp),%rax
    f327:	48 89 85 60 f7 ff ff 	mov    %rax,-0x8a0(%rbp)
    f32e:	48 8d 05 d3 ad 00 00 	lea    0xadd3(%rip),%rax        # 1a108 <g_235>
    f335:	48 89 85 68 f7 ff ff 	mov    %rax,-0x898(%rbp)
    f33c:	48 8d 85 38 ef ff ff 	lea    -0x10c8(%rbp),%rax
    f343:	48 89 85 70 f7 ff ff 	mov    %rax,-0x890(%rbp)
    f34a:	48 8d 85 38 ef ff ff 	lea    -0x10c8(%rbp),%rax
    f351:	48 89 85 78 f7 ff ff 	mov    %rax,-0x888(%rbp)
    f358:	48 8d 05 a9 ad 00 00 	lea    0xada9(%rip),%rax        # 1a108 <g_235>
    f35f:	48 89 85 80 f7 ff ff 	mov    %rax,-0x880(%rbp)
    f366:	48 8d 05 9b ad 00 00 	lea    0xad9b(%rip),%rax        # 1a108 <g_235>
    f36d:	48 89 85 88 f7 ff ff 	mov    %rax,-0x878(%rbp)
    f374:	48 8d 05 8d ad 00 00 	lea    0xad8d(%rip),%rax        # 1a108 <g_235>
    f37b:	48 89 85 90 f7 ff ff 	mov    %rax,-0x870(%rbp)
    f382:	48 8d 85 38 ef ff ff 	lea    -0x10c8(%rbp),%rax
    f389:	48 89 85 98 f7 ff ff 	mov    %rax,-0x868(%rbp)
    f390:	48 c7 85 a0 f7 ff ff 	movq   $0x0,-0x860(%rbp)
    f397:	00 00 00 00 
    f39b:	48 8d 85 38 ef ff ff 	lea    -0x10c8(%rbp),%rax
    f3a2:	48 89 85 a8 f7 ff ff 	mov    %rax,-0x858(%rbp)
    f3a9:	48 8d 85 38 ef ff ff 	lea    -0x10c8(%rbp),%rax
    f3b0:	48 89 85 b0 f7 ff ff 	mov    %rax,-0x850(%rbp)
    f3b7:	48 8d 85 38 ef ff ff 	lea    -0x10c8(%rbp),%rax
    f3be:	48 89 85 b8 f7 ff ff 	mov    %rax,-0x848(%rbp)
    f3c5:	48 8d 05 3c ad 00 00 	lea    0xad3c(%rip),%rax        # 1a108 <g_235>
    f3cc:	48 89 85 c0 f7 ff ff 	mov    %rax,-0x840(%rbp)
    f3d3:	48 c7 85 c8 f7 ff ff 	movq   $0x0,-0x838(%rbp)
    f3da:	00 00 00 00 
    f3de:	48 8d 85 38 ef ff ff 	lea    -0x10c8(%rbp),%rax
    f3e5:	48 89 85 d0 f7 ff ff 	mov    %rax,-0x830(%rbp)
    f3ec:	48 8d 85 38 ef ff ff 	lea    -0x10c8(%rbp),%rax
    f3f3:	48 89 85 d8 f7 ff ff 	mov    %rax,-0x828(%rbp)
    f3fa:	48 8d 85 38 ef ff ff 	lea    -0x10c8(%rbp),%rax
    f401:	48 89 85 e0 f7 ff ff 	mov    %rax,-0x820(%rbp)
    f408:	48 8d 85 38 ef ff ff 	lea    -0x10c8(%rbp),%rax
    f40f:	48 89 85 e8 f7 ff ff 	mov    %rax,-0x818(%rbp)
    f416:	48 8d 85 38 ef ff ff 	lea    -0x10c8(%rbp),%rax
    f41d:	48 89 85 f0 f7 ff ff 	mov    %rax,-0x810(%rbp)
    f424:	48 8d 85 38 ef ff ff 	lea    -0x10c8(%rbp),%rax
    f42b:	48 89 85 f8 f7 ff ff 	mov    %rax,-0x808(%rbp)
    f432:	48 8d 05 cf ac 00 00 	lea    0xaccf(%rip),%rax        # 1a108 <g_235>
    f439:	48 89 85 00 f8 ff ff 	mov    %rax,-0x800(%rbp)
    f440:	48 c7 85 08 f8 ff ff 	movq   $0x0,-0x7f8(%rbp)
    f447:	00 00 00 00 
    f44b:	48 8d 85 38 ef ff ff 	lea    -0x10c8(%rbp),%rax
    f452:	48 89 85 10 f8 ff ff 	mov    %rax,-0x7f0(%rbp)
    f459:	48 8d 05 a8 ac 00 00 	lea    0xaca8(%rip),%rax        # 1a108 <g_235>
    f460:	48 89 85 18 f8 ff ff 	mov    %rax,-0x7e8(%rbp)
    f467:	48 8d 05 9a ac 00 00 	lea    0xac9a(%rip),%rax        # 1a108 <g_235>
    f46e:	48 89 85 20 f8 ff ff 	mov    %rax,-0x7e0(%rbp)
    f475:	48 8d 85 38 ef ff ff 	lea    -0x10c8(%rbp),%rax
    f47c:	48 89 85 28 f8 ff ff 	mov    %rax,-0x7d8(%rbp)
    f483:	48 8d 85 38 ef ff ff 	lea    -0x10c8(%rbp),%rax
    f48a:	48 89 85 30 f8 ff ff 	mov    %rax,-0x7d0(%rbp)
    f491:	48 8d 85 38 ef ff ff 	lea    -0x10c8(%rbp),%rax
    f498:	48 89 85 38 f8 ff ff 	mov    %rax,-0x7c8(%rbp)
    f49f:	48 c7 85 40 f8 ff ff 	movq   $0x0,-0x7c0(%rbp)
    f4a6:	00 00 00 00 
    f4aa:	48 8d 85 38 ef ff ff 	lea    -0x10c8(%rbp),%rax
    f4b1:	48 89 85 48 f8 ff ff 	mov    %rax,-0x7b8(%rbp)
    f4b8:	48 c7 85 50 f8 ff ff 	movq   $0x0,-0x7b0(%rbp)
    f4bf:	00 00 00 00 
    f4c3:	48 8d 85 38 ef ff ff 	lea    -0x10c8(%rbp),%rax
    f4ca:	48 89 85 58 f8 ff ff 	mov    %rax,-0x7a8(%rbp)
    f4d1:	48 8d 85 38 ef ff ff 	lea    -0x10c8(%rbp),%rax
    f4d8:	48 89 85 60 f8 ff ff 	mov    %rax,-0x7a0(%rbp)
    f4df:	48 8d 05 22 ac 00 00 	lea    0xac22(%rip),%rax        # 1a108 <g_235>
    f4e6:	48 89 85 68 f8 ff ff 	mov    %rax,-0x798(%rbp)
    f4ed:	48 8d 05 14 ac 00 00 	lea    0xac14(%rip),%rax        # 1a108 <g_235>
    f4f4:	48 89 85 70 f8 ff ff 	mov    %rax,-0x790(%rbp)
    f4fb:	48 8d 85 38 ef ff ff 	lea    -0x10c8(%rbp),%rax
    f502:	48 89 85 78 f8 ff ff 	mov    %rax,-0x788(%rbp)
    f509:	48 8d 85 38 ef ff ff 	lea    -0x10c8(%rbp),%rax
    f510:	48 89 85 80 f8 ff ff 	mov    %rax,-0x780(%rbp)
    f517:	48 8d 85 38 ef ff ff 	lea    -0x10c8(%rbp),%rax
    f51e:	48 89 85 88 f8 ff ff 	mov    %rax,-0x778(%rbp)
    f525:	48 8d 05 dc ab 00 00 	lea    0xabdc(%rip),%rax        # 1a108 <g_235>
    f52c:	48 89 85 90 f8 ff ff 	mov    %rax,-0x770(%rbp)
    f533:	48 8d 85 38 ef ff ff 	lea    -0x10c8(%rbp),%rax
    f53a:	48 89 85 98 f8 ff ff 	mov    %rax,-0x768(%rbp)
    f541:	48 c7 85 a0 f8 ff ff 	movq   $0x0,-0x760(%rbp)
    f548:	00 00 00 00 
    f54c:	48 8d 85 38 ef ff ff 	lea    -0x10c8(%rbp),%rax
    f553:	48 89 85 a8 f8 ff ff 	mov    %rax,-0x758(%rbp)
    f55a:	48 c7 85 b0 f8 ff ff 	movq   $0x0,-0x750(%rbp)
    f561:	00 00 00 00 
    f565:	48 8d 85 38 ef ff ff 	lea    -0x10c8(%rbp),%rax
    f56c:	48 89 85 b8 f8 ff ff 	mov    %rax,-0x748(%rbp)
    f573:	48 8d 85 38 ef ff ff 	lea    -0x10c8(%rbp),%rax
    f57a:	48 89 85 c0 f8 ff ff 	mov    %rax,-0x740(%rbp)
    f581:	48 8d 85 38 ef ff ff 	lea    -0x10c8(%rbp),%rax
    f588:	48 89 85 c8 f8 ff ff 	mov    %rax,-0x738(%rbp)
    f58f:	48 8d 85 38 ef ff ff 	lea    -0x10c8(%rbp),%rax
    f596:	48 89 85 d0 f8 ff ff 	mov    %rax,-0x730(%rbp)
    f59d:	48 8d 85 38 ef ff ff 	lea    -0x10c8(%rbp),%rax
    f5a4:	48 89 85 d8 f8 ff ff 	mov    %rax,-0x728(%rbp)
    f5ab:	48 8d 85 38 ef ff ff 	lea    -0x10c8(%rbp),%rax
    f5b2:	48 89 85 e0 f8 ff ff 	mov    %rax,-0x720(%rbp)
    f5b9:	48 c7 85 e8 f8 ff ff 	movq   $0x0,-0x718(%rbp)
    f5c0:	00 00 00 00 
    f5c4:	48 8d 85 40 ef ff ff 	lea    -0x10c0(%rbp),%rax
    f5cb:	48 83 c0 0c          	add    $0xc,%rax
    f5cf:	48 89 85 50 f3 ff ff 	mov    %rax,-0xcb0(%rbp)
    f5d6:	48 8d 85 40 ef ff ff 	lea    -0x10c0(%rbp),%rax
    f5dd:	48 83 c0 0c          	add    $0xc,%rax
    f5e1:	48 89 85 58 f3 ff ff 	mov    %rax,-0xca8(%rbp)
    f5e8:	48 8d 85 40 ef ff ff 	lea    -0x10c0(%rbp),%rax
    f5ef:	48 83 c0 0c          	add    $0xc,%rax
    f5f3:	48 89 85 60 f3 ff ff 	mov    %rax,-0xca0(%rbp)
    f5fa:	48 8d 85 40 ef ff ff 	lea    -0x10c0(%rbp),%rax
    f601:	48 83 c0 0c          	add    $0xc,%rax
    f605:	48 89 85 68 f3 ff ff 	mov    %rax,-0xc98(%rbp)
    f60c:	48 8d 85 40 ef ff ff 	lea    -0x10c0(%rbp),%rax
    f613:	48 83 c0 0c          	add    $0xc,%rax
    f617:	48 89 85 70 f3 ff ff 	mov    %rax,-0xc90(%rbp)
    f61e:	48 8d 85 40 ef ff ff 	lea    -0x10c0(%rbp),%rax
    f625:	48 83 c0 0c          	add    $0xc,%rax
    f629:	48 89 85 78 f3 ff ff 	mov    %rax,-0xc88(%rbp)
    f630:	48 8d 85 40 ef ff ff 	lea    -0x10c0(%rbp),%rax
    f637:	48 83 c0 0c          	add    $0xc,%rax
    f63b:	48 89 85 80 f3 ff ff 	mov    %rax,-0xc80(%rbp)
    f642:	48 8d 85 40 ef ff ff 	lea    -0x10c0(%rbp),%rax
    f649:	48 83 c0 0c          	add    $0xc,%rax
    f64d:	48 89 85 88 f3 ff ff 	mov    %rax,-0xc78(%rbp)
    f654:	48 8d 85 40 ef ff ff 	lea    -0x10c0(%rbp),%rax
    f65b:	48 83 c0 0c          	add    $0xc,%rax
    f65f:	48 89 85 90 f3 ff ff 	mov    %rax,-0xc70(%rbp)
    f666:	48 8d 85 40 ef ff ff 	lea    -0x10c0(%rbp),%rax
    f66d:	48 83 c0 0c          	add    $0xc,%rax
    f671:	48 89 85 98 f3 ff ff 	mov    %rax,-0xc68(%rbp)
    f678:	48 8d 85 40 ef ff ff 	lea    -0x10c0(%rbp),%rax
    f67f:	48 83 c0 0c          	add    $0xc,%rax
    f683:	48 89 85 a0 f3 ff ff 	mov    %rax,-0xc60(%rbp)
    f68a:	48 8d 85 40 ef ff ff 	lea    -0x10c0(%rbp),%rax
    f691:	48 83 c0 0c          	add    $0xc,%rax
    f695:	48 89 85 a8 f3 ff ff 	mov    %rax,-0xc58(%rbp)
    f69c:	c7 85 b0 eb ff ff 00 	movl   $0x0,-0x1450(%rbp)
    f6a3:	00 00 00 
    f6a6:	eb 1e                	jmp    f6c6 <func_37+0x48a2>
    f6a8:	8b 85 b0 eb ff ff    	mov    -0x1450(%rbp),%eax
    f6ae:	48 98                	cltq   
    f6b0:	48 8d 15 49 aa 00 00 	lea    0xaa49(%rip),%rdx        # 1a100 <g_236>
    f6b7:	48 89 94 c5 38 ef ff 	mov    %rdx,-0x10c8(%rbp,%rax,8)
    f6be:	ff 
    f6bf:	83 85 b0 eb ff ff 01 	addl   $0x1,-0x1450(%rbp)
    f6c6:	83 bd b0 eb ff ff 00 	cmpl   $0x0,-0x1450(%rbp)
    f6cd:	7e d9                	jle    f6a8 <func_37+0x4884>
    f6cf:	48 8b 85 38 ed ff ff 	mov    -0x12c8(%rbp),%rax
    f6d6:	8b 10                	mov    (%rax),%edx
    f6d8:	0f b6 85 6d eb ff ff 	movzbl -0x1493(%rbp),%eax
    f6df:	31 c2                	xor    %eax,%edx
    f6e1:	48 8b 85 38 ed ff ff 	mov    -0x12c8(%rbp),%rax
    f6e8:	89 10                	mov    %edx,(%rax)
    f6ea:	8b 85 08 f0 ff ff    	mov    -0xff8(%rbp),%eax
    f6f0:	39 85 b8 eb ff ff    	cmp    %eax,-0x1448(%rbp)
    f6f6:	0f 96 c0             	setbe  %al
    f6f9:	44 0f b6 e8          	movzbl %al,%r13d
    f6fd:	48 8b 85 38 ef ff ff 	mov    -0x10c8(%rbp),%rax
    f704:	48 89 85 08 f3 ff ff 	mov    %rax,-0xcf8(%rbp)
    f70b:	48 8b 85 08 f3 ff ff 	mov    -0xcf8(%rbp),%rax
    f712:	48 8d 15 e7 a9 00 00 	lea    0xa9e7(%rip),%rdx        # 1a100 <g_236>
    f719:	48 39 d0             	cmp    %rdx,%rax
    f71c:	0f 94 c0             	sete   %al
    f71f:	44 0f b6 f0          	movzbl %al,%r14d
    f723:	8b 9d b8 eb ff ff    	mov    -0x1448(%rbp),%ebx
    f729:	48 8b 15 f0 a9 00 00 	mov    0xa9f0(%rip),%rdx        # 1a120 <g_323>
    f730:	48 8b 85 68 ec ff ff 	mov    -0x1398(%rbp),%rax
    f737:	48 8b 00             	mov    (%rax),%rax
    f73a:	48 8b 12             	mov    (%rdx),%rdx
    f73d:	48 89 10             	mov    %rdx,(%rax)
    f740:	48 8b 00             	mov    (%rax),%rax
    f743:	48 39 85 80 ed ff ff 	cmp    %rax,-0x1280(%rbp)
    f74a:	41 0f 94 c7          	sete   %r15b
    f74e:	8b 85 14 f0 ff ff    	mov    -0xfec(%rbp),%eax
    f754:	44 0f b6 e0          	movzbl %al,%r12d
    f758:	0f b7 85 48 eb ff ff 	movzwl -0x14b8(%rbp),%eax
    f75f:	0f b6 d0             	movzbl %al,%edx
    f762:	48 8b 05 bf a9 00 00 	mov    0xa9bf(%rip),%rax        # 1a128 <g_326>
    f769:	8b 00                	mov    (%rax),%eax
    f76b:	85 c0                	test   %eax,%eax
    f76d:	0f 95 c0             	setne  %al
    f770:	0f b6 c0             	movzbl %al,%eax
    f773:	89 d6                	mov    %edx,%esi
    f775:	89 c7                	mov    %eax,%edi
    f777:	e8 5f 74 ff ff       	callq  6bdb <safe_div_func_uint8_t_u_u>
    f77c:	0f b6 c0             	movzbl %al,%eax
    f77f:	44 89 e6             	mov    %r12d,%esi
    f782:	89 c7                	mov    %eax,%edi
    f784:	e8 25 74 ff ff       	callq  6bae <safe_mod_func_uint8_t_u_u>
    f789:	0f b6 c0             	movzbl %al,%eax
    f78c:	48 39 85 58 eb ff ff 	cmp    %rax,-0x14a8(%rbp)
    f793:	0f 96 c0             	setbe  %al
    f796:	44 31 f8             	xor    %r15d,%eax
    f799:	0f b6 c0             	movzbl %al,%eax
    f79c:	89 de                	mov    %ebx,%esi
    f79e:	89 c7                	mov    %eax,%edi
    f7a0:	e8 60 74 ff ff       	callq  6c05 <safe_lshift_func_uint8_t_u_s>
    f7a5:	0f b6 c0             	movzbl %al,%eax
    f7a8:	41 39 c6             	cmp    %eax,%r14d
    f7ab:	0f 9f c0             	setg   %al
    f7ae:	0f b6 c0             	movzbl %al,%eax
    f7b1:	be e6 2a ec a0       	mov    $0xa0ec2ae6,%esi
    f7b6:	89 c7                	mov    %eax,%edi
    f7b8:	e8 fb 76 ff ff       	callq  6eb8 <safe_add_func_uint32_t_u_u>
    f7bd:	41 39 c5             	cmp    %eax,%r13d
    f7c0:	0f 97 c0             	seta   %al
    f7c3:	0f b6 d0             	movzbl %al,%edx
    f7c6:	48 8b 85 38 ed ff ff 	mov    -0x12c8(%rbp),%rax
    f7cd:	89 10                	mov    %edx,(%rax)
    f7cf:	48 8b 85 38 ed ff ff 	mov    -0x12c8(%rbp),%rax
    f7d6:	8b 00                	mov    (%rax),%eax
    f7d8:	31 85 04 ec ff ff    	xor    %eax,-0x13fc(%rbp)
    f7de:	0f b6 85 74 eb ff ff 	movzbl -0x148c(%rbp),%eax
    f7e5:	83 e8 01             	sub    $0x1,%eax
    f7e8:	88 85 74 eb ff ff    	mov    %al,-0x148c(%rbp)
    f7ee:	66 c7 85 4c eb ff ff 	movw   $0x0,-0x14b4(%rbp)
    f7f5:	00 00 
    f7f7:	e9 a1 02 00 00       	jmpq   fa9d <func_37+0x4c79>
    f7fc:	48 b8 4f 57 57 cd 0c 	movabs $0x690db00ccd57574f,%rax
    f803:	b0 0d 69 
    f806:	48 89 85 90 ed ff ff 	mov    %rax,-0x1270(%rbp)
    f80d:	c7 85 0c ec ff ff 07 	movl   $0x7,-0x13f4(%rbp)
    f814:	00 00 00 
    f817:	48 8d 05 22 ae 00 00 	lea    0xae22(%rip),%rax        # 1a640 <g_922>
    f81e:	48 89 85 90 f5 ff ff 	mov    %rax,-0xa70(%rbp)
    f825:	48 8d 05 14 ae 00 00 	lea    0xae14(%rip),%rax        # 1a640 <g_922>
    f82c:	48 89 85 98 f5 ff ff 	mov    %rax,-0xa68(%rbp)
    f833:	48 8d 05 06 ae 00 00 	lea    0xae06(%rip),%rax        # 1a640 <g_922>
    f83a:	48 89 85 a0 f5 ff ff 	mov    %rax,-0xa60(%rbp)
    f841:	48 8d 05 f8 ad 00 00 	lea    0xadf8(%rip),%rax        # 1a640 <g_922>
    f848:	48 89 85 a8 f5 ff ff 	mov    %rax,-0xa58(%rbp)
    f84f:	48 8d 05 ea ad 00 00 	lea    0xadea(%rip),%rax        # 1a640 <g_922>
    f856:	48 89 85 b0 f5 ff ff 	mov    %rax,-0xa50(%rbp)
    f85d:	48 8d 85 98 ec ff ff 	lea    -0x1368(%rbp),%rax
    f864:	48 89 85 b8 f5 ff ff 	mov    %rax,-0xa48(%rbp)
    f86b:	48 8d 85 b0 ec ff ff 	lea    -0x1350(%rbp),%rax
    f872:	48 89 85 c0 f5 ff ff 	mov    %rax,-0xa40(%rbp)
    f879:	48 8d 85 98 ec ff ff 	lea    -0x1368(%rbp),%rax
    f880:	48 89 85 c8 f5 ff ff 	mov    %rax,-0xa38(%rbp)
    f887:	48 8d 85 b0 ec ff ff 	lea    -0x1350(%rbp),%rax
    f88e:	48 89 85 d0 f5 ff ff 	mov    %rax,-0xa30(%rbp)
    f895:	48 8d 85 98 ec ff ff 	lea    -0x1368(%rbp),%rax
    f89c:	48 89 85 d8 f5 ff ff 	mov    %rax,-0xa28(%rbp)
    f8a3:	48 8d 05 96 ad 00 00 	lea    0xad96(%rip),%rax        # 1a640 <g_922>
    f8aa:	48 89 85 e0 f5 ff ff 	mov    %rax,-0xa20(%rbp)
    f8b1:	48 8d 05 88 ad 00 00 	lea    0xad88(%rip),%rax        # 1a640 <g_922>
    f8b8:	48 89 85 e8 f5 ff ff 	mov    %rax,-0xa18(%rbp)
    f8bf:	48 8d 05 7a ad 00 00 	lea    0xad7a(%rip),%rax        # 1a640 <g_922>
    f8c6:	48 89 85 f0 f5 ff ff 	mov    %rax,-0xa10(%rbp)
    f8cd:	48 8d 05 6c ad 00 00 	lea    0xad6c(%rip),%rax        # 1a640 <g_922>
    f8d4:	48 89 85 f8 f5 ff ff 	mov    %rax,-0xa08(%rbp)
    f8db:	48 8d 05 5e ad 00 00 	lea    0xad5e(%rip),%rax        # 1a640 <g_922>
    f8e2:	48 89 85 00 f6 ff ff 	mov    %rax,-0xa00(%rbp)
    f8e9:	48 8d 85 98 ec ff ff 	lea    -0x1368(%rbp),%rax
    f8f0:	48 89 85 08 f6 ff ff 	mov    %rax,-0x9f8(%rbp)
    f8f7:	48 8d 85 b0 ec ff ff 	lea    -0x1350(%rbp),%rax
    f8fe:	48 89 85 10 f6 ff ff 	mov    %rax,-0x9f0(%rbp)
    f905:	48 8d 85 98 ec ff ff 	lea    -0x1368(%rbp),%rax
    f90c:	48 89 85 18 f6 ff ff 	mov    %rax,-0x9e8(%rbp)
    f913:	48 8d 85 b0 ec ff ff 	lea    -0x1350(%rbp),%rax
    f91a:	48 89 85 20 f6 ff ff 	mov    %rax,-0x9e0(%rbp)
    f921:	48 8d 85 98 ec ff ff 	lea    -0x1368(%rbp),%rax
    f928:	48 89 85 28 f6 ff ff 	mov    %rax,-0x9d8(%rbp)
    f92f:	48 8d 05 0a ad 00 00 	lea    0xad0a(%rip),%rax        # 1a640 <g_922>
    f936:	48 89 85 30 f6 ff ff 	mov    %rax,-0x9d0(%rbp)
    f93d:	48 8d 05 fc ac 00 00 	lea    0xacfc(%rip),%rax        # 1a640 <g_922>
    f944:	48 89 85 38 f6 ff ff 	mov    %rax,-0x9c8(%rbp)
    f94b:	48 8d 05 ee ac 00 00 	lea    0xacee(%rip),%rax        # 1a640 <g_922>
    f952:	48 89 85 40 f6 ff ff 	mov    %rax,-0x9c0(%rbp)
    f959:	48 8d 05 e0 ac 00 00 	lea    0xace0(%rip),%rax        # 1a640 <g_922>
    f960:	48 89 85 48 f6 ff ff 	mov    %rax,-0x9b8(%rbp)
    f967:	48 8d 05 d2 ac 00 00 	lea    0xacd2(%rip),%rax        # 1a640 <g_922>
    f96e:	48 89 85 50 f6 ff ff 	mov    %rax,-0x9b0(%rbp)
    f975:	0f b6 05 7c 88 00 00 	movzbl 0x887c(%rip),%eax        # 181f8 <g_420>
    f97c:	c1 e0 07             	shl    $0x7,%eax
    f97f:	c0 f8 07             	sar    $0x7,%al
    f982:	0f be d8             	movsbl %al,%ebx
    f985:	48 8b 85 90 ed ff ff 	mov    -0x1270(%rbp),%rax
    f98c:	89 85 0c ec ff ff    	mov    %eax,-0x13f4(%rbp)
    f992:	48 8b 15 a7 ac 00 00 	mov    0xaca7(%rip),%rdx        # 1a640 <g_922>
    f999:	48 8b 85 78 ed ff ff 	mov    -0x1288(%rbp),%rax
    f9a0:	48 89 10             	mov    %rdx,(%rax)
    f9a3:	48 8b 85 78 ed ff ff 	mov    -0x1288(%rbp),%rax
    f9aa:	48 8b 00             	mov    (%rax),%rax
    f9ad:	48 89 05 8c ac 00 00 	mov    %rax,0xac8c(%rip)        # 1a640 <g_922>
    f9b4:	48 8b 15 85 ac 00 00 	mov    0xac85(%rip),%rdx        # 1a640 <g_922>
    f9bb:	48 8d 05 56 ab 00 00 	lea    0xab56(%rip),%rax        # 1a518 <g_923+0x2d8>
    f9c2:	48 89 05 7f ac 00 00 	mov    %rax,0xac7f(%rip)        # 1a648 <g_926>
    f9c9:	48 8b 05 78 ac 00 00 	mov    0xac78(%rip),%rax        # 1a648 <g_926>
    f9d0:	48 39 c2             	cmp    %rax,%rdx
    f9d3:	0f 94 c0             	sete   %al
    f9d6:	0f b6 d0             	movzbl %al,%edx
    f9d9:	0f b7 05 e0 87 00 00 	movzwl 0x87e0(%rip),%eax        # 181c0 <g_263>
    f9e0:	0f b7 c0             	movzwl %ax,%eax
    f9e3:	39 c2                	cmp    %eax,%edx
    f9e5:	75 0c                	jne    f9f3 <func_37+0x4bcf>
    f9e7:	0f b7 85 48 eb ff ff 	movzwl -0x14b8(%rbp),%eax
    f9ee:	66 85 c0             	test   %ax,%ax
    f9f1:	74 07                	je     f9fa <func_37+0x4bd6>
    f9f3:	b8 01 00 00 00       	mov    $0x1,%eax
    f9f8:	eb 05                	jmp    f9ff <func_37+0x4bdb>
    f9fa:	b8 00 00 00 00       	mov    $0x0,%eax
    f9ff:	89 c2                	mov    %eax,%edx
    fa01:	0f b7 85 48 eb ff ff 	movzwl -0x14b8(%rbp),%eax
    fa08:	21 d0                	and    %edx,%eax
    fa0a:	0f b7 c0             	movzwl %ax,%eax
    fa0d:	25 ad a0 00 00       	and    $0xa0ad,%eax
    fa12:	89 c2                	mov    %eax,%edx
    fa14:	48 8b 8d 90 fa ff ff 	mov    -0x570(%rbp),%rcx
    fa1b:	48 8b 85 70 f0 ff ff 	mov    -0xf90(%rbp),%rax
    fa22:	48 39 c1             	cmp    %rax,%rcx
    fa25:	0f 94 c0             	sete   %al
    fa28:	0f b6 c0             	movzbl %al,%eax
    fa2b:	0f b7 8d 48 eb ff ff 	movzwl -0x14b8(%rbp),%ecx
    fa32:	21 c8                	and    %ecx,%eax
    fa34:	0f b7 c0             	movzwl %ax,%eax
    fa37:	89 d6                	mov    %edx,%esi
    fa39:	89 c7                	mov    %eax,%edi
    fa3b:	e8 df 72 ff ff       	callq  6d1f <safe_sub_func_uint16_t_u_u>
    fa40:	0f b7 c0             	movzwl %ax,%eax
    fa43:	39 85 0c ec ff ff    	cmp    %eax,-0x13f4(%rbp)
    fa49:	0f 9c c0             	setl   %al
    fa4c:	0f b6 c0             	movzbl %al,%eax
    fa4f:	89 c7                	mov    %eax,%edi
    fa51:	e8 40 6b ff ff       	callq  6596 <safe_unary_minus_func_int32_t_s>
    fa56:	f7 d0                	not    %eax
    fa58:	0f b7 c0             	movzwl %ax,%eax
    fa5b:	89 de                	mov    %ebx,%esi
    fa5d:	89 c7                	mov    %eax,%edi
    fa5f:	e8 5a 73 ff ff       	callq  6dbe <safe_lshift_func_uint16_t_u_s>
    fa64:	48 8b 95 38 ed ff ff 	mov    -0x12c8(%rbp),%rdx
    fa6b:	8b 12                	mov    (%rdx),%edx
    fa6d:	0f b7 c0             	movzwl %ax,%eax
    fa70:	21 c2                	and    %eax,%edx
    fa72:	48 8b 85 38 ed ff ff 	mov    -0x12c8(%rbp),%rax
    fa79:	89 10                	mov    %edx,(%rax)
    fa7b:	48 83 bd 58 eb ff ff 	cmpq   $0x0,-0x14a8(%rbp)
    fa82:	00 
    fa83:	75 0f                	jne    fa94 <func_37+0x4c70>
    fa85:	8b 05 c1 85 00 00    	mov    0x85c1(%rip),%eax        # 1804c <g_115>
    fa8b:	85 c0                	test   %eax,%eax
    fa8d:	74 06                	je     fa95 <func_37+0x4c71>
    fa8f:	e9 61 b6 ff ff       	jmpq   b0f5 <func_37+0x2d1>
    fa94:	90                   	nop
    fa95:	66 83 85 4c eb ff ff 	addw   $0x1,-0x14b4(%rbp)
    fa9c:	01 
    fa9d:	66 83 bd 4c eb ff ff 	cmpw   $0x2,-0x14b4(%rbp)
    faa4:	02 
    faa5:	0f 86 51 fd ff ff    	jbe    f7fc <func_37+0x49d8>
    faab:	eb 01                	jmp    faae <func_37+0x4c8a>
    faad:	90                   	nop
    faae:	83 ad 9c eb ff ff 01 	subl   $0x1,-0x1464(%rbp)
    fab5:	83 bd 9c eb ff ff 00 	cmpl   $0x0,-0x1464(%rbp)
    fabc:	0f 89 2e ec ff ff    	jns    e6f0 <func_37+0x38cc>
    fac2:	0f b7 85 48 eb ff ff 	movzwl -0x14b8(%rbp),%eax
    fac9:	83 c0 01             	add    $0x1,%eax
    facc:	66 89 85 48 eb ff ff 	mov    %ax,-0x14b8(%rbp)
    fad3:	0f b7 85 48 eb ff ff 	movzwl -0x14b8(%rbp),%eax
    fada:	66 83 f8 02          	cmp    $0x2,%ax
    fade:	0f 86 b1 e6 ff ff    	jbe    e195 <func_37+0x3371>
    fae4:	c7 05 8a 85 00 00 00 	movl   $0x0,0x858a(%rip)        # 18078 <g_247>
    faeb:	00 00 00 
    faee:	e9 fb 06 00 00       	jmpq   101ee <func_37+0x53ca>
    faf3:	48 8d 05 46 85 00 00 	lea    0x8546(%rip),%rax        # 18040 <g_72>
    fafa:	48 89 85 90 f5 ff ff 	mov    %rax,-0xa70(%rbp)
    fb01:	48 c7 85 98 f5 ff ff 	movq   $0x0,-0xa68(%rbp)
    fb08:	00 00 00 00 
    fb0c:	48 8d 05 45 85 00 00 	lea    0x8545(%rip),%rax        # 18058 <g_146>
    fb13:	48 89 85 a0 f5 ff ff 	mov    %rax,-0xa60(%rbp)
    fb1a:	48 8d 85 a8 ec ff ff 	lea    -0x1358(%rbp),%rax
    fb21:	48 89 85 a8 f5 ff ff 	mov    %rax,-0xa58(%rbp)
    fb28:	48 c7 85 b0 f5 ff ff 	movq   $0x0,-0xa50(%rbp)
    fb2f:	00 00 00 00 
    fb33:	48 8d 85 a8 ec ff ff 	lea    -0x1358(%rbp),%rax
    fb3a:	48 89 85 b8 f5 ff ff 	mov    %rax,-0xa48(%rbp)
    fb41:	48 8d 05 f8 84 00 00 	lea    0x84f8(%rip),%rax        # 18040 <g_72>
    fb48:	48 89 85 c0 f5 ff ff 	mov    %rax,-0xa40(%rbp)
    fb4f:	48 c7 85 c8 f5 ff ff 	movq   $0x0,-0xa38(%rbp)
    fb56:	00 00 00 00 
    fb5a:	48 c7 85 d0 f5 ff ff 	movq   $0x0,-0xa30(%rbp)
    fb61:	00 00 00 00 
    fb65:	48 8d 05 d4 84 00 00 	lea    0x84d4(%rip),%rax        # 18040 <g_72>
    fb6c:	48 89 85 d8 f5 ff ff 	mov    %rax,-0xa28(%rbp)
    fb73:	48 c7 85 e0 f5 ff ff 	movq   $0x0,-0xa20(%rbp)
    fb7a:	00 00 00 00 
    fb7e:	48 8d 05 d3 84 00 00 	lea    0x84d3(%rip),%rax        # 18058 <g_146>
    fb85:	48 89 85 e8 f5 ff ff 	mov    %rax,-0xa18(%rbp)
    fb8c:	48 8d 05 ad 84 00 00 	lea    0x84ad(%rip),%rax        # 18040 <g_72>
    fb93:	48 89 85 f0 f5 ff ff 	mov    %rax,-0xa10(%rbp)
    fb9a:	48 8d 05 b7 84 00 00 	lea    0x84b7(%rip),%rax        # 18058 <g_146>
    fba1:	48 89 85 f8 f5 ff ff 	mov    %rax,-0xa08(%rbp)
    fba8:	48 8d 05 91 84 00 00 	lea    0x8491(%rip),%rax        # 18040 <g_72>
    fbaf:	48 89 85 00 f6 ff ff 	mov    %rax,-0xa00(%rbp)
    fbb6:	48 c7 85 08 f6 ff ff 	movq   $0x0,-0x9f8(%rbp)
    fbbd:	00 00 00 00 
    fbc1:	48 8d 85 a0 ec ff ff 	lea    -0x1360(%rbp),%rax
    fbc8:	48 89 85 10 f6 ff ff 	mov    %rax,-0x9f0(%rbp)
    fbcf:	48 c7 85 18 f6 ff ff 	movq   $0x0,-0x9e8(%rbp)
    fbd6:	00 00 00 00 
    fbda:	48 8d 05 77 84 00 00 	lea    0x8477(%rip),%rax        # 18058 <g_146>
    fbe1:	48 89 85 20 f6 ff ff 	mov    %rax,-0x9e0(%rbp)
    fbe8:	48 8d 05 69 84 00 00 	lea    0x8469(%rip),%rax        # 18058 <g_146>
    fbef:	48 89 85 28 f6 ff ff 	mov    %rax,-0x9d8(%rbp)
    fbf6:	48 8d 05 5b 84 00 00 	lea    0x845b(%rip),%rax        # 18058 <g_146>
    fbfd:	48 89 85 30 f6 ff ff 	mov    %rax,-0x9d0(%rbp)
    fc04:	48 8d 05 35 84 00 00 	lea    0x8435(%rip),%rax        # 18040 <g_72>
    fc0b:	48 89 85 38 f6 ff ff 	mov    %rax,-0x9c8(%rbp)
    fc12:	48 8d 05 3f 84 00 00 	lea    0x843f(%rip),%rax        # 18058 <g_146>
    fc19:	48 89 85 40 f6 ff ff 	mov    %rax,-0x9c0(%rbp)
    fc20:	48 8d 85 a8 ec ff ff 	lea    -0x1358(%rbp),%rax
    fc27:	48 89 85 48 f6 ff ff 	mov    %rax,-0x9b8(%rbp)
    fc2e:	48 c7 85 50 f6 ff ff 	movq   $0x0,-0x9b0(%rbp)
    fc35:	00 00 00 00 
    fc39:	48 8d 85 a8 ec ff ff 	lea    -0x1358(%rbp),%rax
    fc40:	48 89 85 58 f6 ff ff 	mov    %rax,-0x9a8(%rbp)
    fc47:	48 8d 05 0a 84 00 00 	lea    0x840a(%rip),%rax        # 18058 <g_146>
    fc4e:	48 89 85 60 f6 ff ff 	mov    %rax,-0x9a0(%rbp)
    fc55:	48 8d 85 a8 ec ff ff 	lea    -0x1358(%rbp),%rax
    fc5c:	48 89 85 68 f6 ff ff 	mov    %rax,-0x998(%rbp)
    fc63:	48 8d 85 a8 ec ff ff 	lea    -0x1358(%rbp),%rax
    fc6a:	48 89 85 70 f6 ff ff 	mov    %rax,-0x990(%rbp)
    fc71:	48 c7 85 78 f6 ff ff 	movq   $0x0,-0x988(%rbp)
    fc78:	00 00 00 00 
    fc7c:	48 c7 85 80 f6 ff ff 	movq   $0x0,-0x980(%rbp)
    fc83:	00 00 00 00 
    fc87:	48 8d 05 b2 83 00 00 	lea    0x83b2(%rip),%rax        # 18040 <g_72>
    fc8e:	48 89 85 88 f6 ff ff 	mov    %rax,-0x978(%rbp)
    fc95:	48 8d 05 a4 83 00 00 	lea    0x83a4(%rip),%rax        # 18040 <g_72>
    fc9c:	48 89 85 90 f6 ff ff 	mov    %rax,-0x970(%rbp)
    fca3:	48 8d 05 96 83 00 00 	lea    0x8396(%rip),%rax        # 18040 <g_72>
    fcaa:	48 89 85 98 f6 ff ff 	mov    %rax,-0x968(%rbp)
    fcb1:	48 8d 05 88 83 00 00 	lea    0x8388(%rip),%rax        # 18040 <g_72>
    fcb8:	48 89 85 a0 f6 ff ff 	mov    %rax,-0x960(%rbp)
    fcbf:	48 8d 85 a8 ec ff ff 	lea    -0x1358(%rbp),%rax
    fcc6:	48 89 85 a8 f6 ff ff 	mov    %rax,-0x958(%rbp)
    fccd:	48 8d 05 84 83 00 00 	lea    0x8384(%rip),%rax        # 18058 <g_146>
    fcd4:	48 89 85 b0 f6 ff ff 	mov    %rax,-0x950(%rbp)
    fcdb:	48 c7 85 b8 f6 ff ff 	movq   $0x0,-0x948(%rbp)
    fce2:	00 00 00 00 
    fce6:	48 8d 05 53 83 00 00 	lea    0x8353(%rip),%rax        # 18040 <g_72>
    fced:	48 89 85 c0 f6 ff ff 	mov    %rax,-0x940(%rbp)
    fcf4:	48 c7 85 c8 f6 ff ff 	movq   $0x0,-0x938(%rbp)
    fcfb:	00 00 00 00 
    fcff:	48 c7 85 d0 f6 ff ff 	movq   $0x0,-0x930(%rbp)
    fd06:	00 00 00 00 
    fd0a:	48 8d 85 a8 ec ff ff 	lea    -0x1358(%rbp),%rax
    fd11:	48 89 85 d8 f6 ff ff 	mov    %rax,-0x928(%rbp)
    fd18:	48 8d 05 21 83 00 00 	lea    0x8321(%rip),%rax        # 18040 <g_72>
    fd1f:	48 89 85 e0 f6 ff ff 	mov    %rax,-0x920(%rbp)
    fd26:	48 8d 05 2b 83 00 00 	lea    0x832b(%rip),%rax        # 18058 <g_146>
    fd2d:	48 89 85 e8 f6 ff ff 	mov    %rax,-0x918(%rbp)
    fd34:	48 c7 85 f0 f6 ff ff 	movq   $0x0,-0x910(%rbp)
    fd3b:	00 00 00 00 
    fd3f:	48 8d 05 fa 82 00 00 	lea    0x82fa(%rip),%rax        # 18040 <g_72>
    fd46:	48 89 85 f8 f6 ff ff 	mov    %rax,-0x908(%rbp)
    fd4d:	48 8d 05 04 83 00 00 	lea    0x8304(%rip),%rax        # 18058 <g_146>
    fd54:	48 89 85 00 f7 ff ff 	mov    %rax,-0x900(%rbp)
    fd5b:	48 8d 05 de 82 00 00 	lea    0x82de(%rip),%rax        # 18040 <g_72>
    fd62:	48 89 85 08 f7 ff ff 	mov    %rax,-0x8f8(%rbp)
    fd69:	48 8d 05 d0 82 00 00 	lea    0x82d0(%rip),%rax        # 18040 <g_72>
    fd70:	48 89 85 10 f7 ff ff 	mov    %rax,-0x8f0(%rbp)
    fd77:	48 c7 85 18 f7 ff ff 	movq   $0x0,-0x8e8(%rbp)
    fd7e:	00 00 00 00 
    fd82:	48 8d 05 b7 82 00 00 	lea    0x82b7(%rip),%rax        # 18040 <g_72>
    fd89:	48 89 85 20 f7 ff ff 	mov    %rax,-0x8e0(%rbp)
    fd90:	48 8d 85 a8 ec ff ff 	lea    -0x1358(%rbp),%rax
    fd97:	48 89 85 28 f7 ff ff 	mov    %rax,-0x8d8(%rbp)
    fd9e:	48 8d 05 9b 82 00 00 	lea    0x829b(%rip),%rax        # 18040 <g_72>
    fda5:	48 89 85 30 f7 ff ff 	mov    %rax,-0x8d0(%rbp)
    fdac:	48 c7 85 38 f7 ff ff 	movq   $0x0,-0x8c8(%rbp)
    fdb3:	00 00 00 00 
    fdb7:	48 8d 05 82 82 00 00 	lea    0x8282(%rip),%rax        # 18040 <g_72>
    fdbe:	48 89 85 40 f7 ff ff 	mov    %rax,-0x8c0(%rbp)
    fdc5:	48 8d 85 a8 ec ff ff 	lea    -0x1358(%rbp),%rax
    fdcc:	48 89 85 48 f7 ff ff 	mov    %rax,-0x8b8(%rbp)
    fdd3:	48 8d 85 a8 ec ff ff 	lea    -0x1358(%rbp),%rax
    fdda:	48 89 85 50 f7 ff ff 	mov    %rax,-0x8b0(%rbp)
    fde1:	48 8d 85 a8 ec ff ff 	lea    -0x1358(%rbp),%rax
    fde8:	48 89 85 58 f7 ff ff 	mov    %rax,-0x8a8(%rbp)
    fdef:	48 8d 05 4a 82 00 00 	lea    0x824a(%rip),%rax        # 18040 <g_72>
    fdf6:	48 89 85 60 f7 ff ff 	mov    %rax,-0x8a0(%rbp)
    fdfd:	48 8d 05 3c 82 00 00 	lea    0x823c(%rip),%rax        # 18040 <g_72>
    fe04:	48 89 85 68 f7 ff ff 	mov    %rax,-0x898(%rbp)
    fe0b:	48 8d 05 2e 82 00 00 	lea    0x822e(%rip),%rax        # 18040 <g_72>
    fe12:	48 89 85 70 f7 ff ff 	mov    %rax,-0x890(%rbp)
    fe19:	48 8d 05 38 82 00 00 	lea    0x8238(%rip),%rax        # 18058 <g_146>
    fe20:	48 89 85 78 f7 ff ff 	mov    %rax,-0x888(%rbp)
    fe27:	48 8d 85 a8 ec ff ff 	lea    -0x1358(%rbp),%rax
    fe2e:	48 89 85 80 f7 ff ff 	mov    %rax,-0x880(%rbp)
    fe35:	48 c7 85 88 f7 ff ff 	movq   $0x0,-0x878(%rbp)
    fe3c:	00 00 00 00 
    fe40:	48 8d 05 f9 81 00 00 	lea    0x81f9(%rip),%rax        # 18040 <g_72>
    fe47:	48 89 85 90 f7 ff ff 	mov    %rax,-0x870(%rbp)
    fe4e:	48 8d 05 eb 81 00 00 	lea    0x81eb(%rip),%rax        # 18040 <g_72>
    fe55:	48 89 85 98 f7 ff ff 	mov    %rax,-0x868(%rbp)
    fe5c:	48 8d 05 f5 81 00 00 	lea    0x81f5(%rip),%rax        # 18058 <g_146>
    fe63:	48 89 85 a0 f7 ff ff 	mov    %rax,-0x860(%rbp)
    fe6a:	48 8d 85 a0 ec ff ff 	lea    -0x1360(%rbp),%rax
    fe71:	48 89 85 a8 f7 ff ff 	mov    %rax,-0x858(%rbp)
    fe78:	48 c7 85 b0 f7 ff ff 	movq   $0x0,-0x850(%rbp)
    fe7f:	00 00 00 00 
    fe83:	48 8d 05 b6 81 00 00 	lea    0x81b6(%rip),%rax        # 18040 <g_72>
    fe8a:	48 89 85 b8 f7 ff ff 	mov    %rax,-0x848(%rbp)
    fe91:	48 8d 05 c0 81 00 00 	lea    0x81c0(%rip),%rax        # 18058 <g_146>
    fe98:	48 89 85 c0 f7 ff ff 	mov    %rax,-0x840(%rbp)
    fe9f:	48 8d 05 b2 81 00 00 	lea    0x81b2(%rip),%rax        # 18058 <g_146>
    fea6:	48 89 85 c8 f7 ff ff 	mov    %rax,-0x838(%rbp)
    fead:	48 8d 85 a0 ec ff ff 	lea    -0x1360(%rbp),%rax
    feb4:	48 89 85 d0 f7 ff ff 	mov    %rax,-0x830(%rbp)
    febb:	48 8d 85 a0 ec ff ff 	lea    -0x1360(%rbp),%rax
    fec2:	48 89 85 d8 f7 ff ff 	mov    %rax,-0x828(%rbp)
    fec9:	48 8d 85 a8 ec ff ff 	lea    -0x1358(%rbp),%rax
    fed0:	48 89 85 e0 f7 ff ff 	mov    %rax,-0x820(%rbp)
    fed7:	48 8d 85 a8 ec ff ff 	lea    -0x1358(%rbp),%rax
    fede:	48 89 85 e8 f7 ff ff 	mov    %rax,-0x818(%rbp)
    fee5:	48 8d 05 54 81 00 00 	lea    0x8154(%rip),%rax        # 18040 <g_72>
    feec:	48 89 85 f0 f7 ff ff 	mov    %rax,-0x810(%rbp)
    fef3:	48 8d 05 5e 81 00 00 	lea    0x815e(%rip),%rax        # 18058 <g_146>
    fefa:	48 89 85 f8 f7 ff ff 	mov    %rax,-0x808(%rbp)
    ff01:	48 8d 05 50 81 00 00 	lea    0x8150(%rip),%rax        # 18058 <g_146>
    ff08:	48 89 85 00 f8 ff ff 	mov    %rax,-0x800(%rbp)
    ff0f:	48 8d 05 42 81 00 00 	lea    0x8142(%rip),%rax        # 18058 <g_146>
    ff16:	48 89 85 08 f8 ff ff 	mov    %rax,-0x7f8(%rbp)
    ff1d:	48 c7 85 10 f8 ff ff 	movq   $0x0,-0x7f0(%rbp)
    ff24:	00 00 00 00 
    ff28:	48 c7 85 18 f8 ff ff 	movq   $0x0,-0x7e8(%rbp)
    ff2f:	00 00 00 00 
    ff33:	48 8d 05 06 81 00 00 	lea    0x8106(%rip),%rax        # 18040 <g_72>
    ff3a:	48 89 85 20 f8 ff ff 	mov    %rax,-0x7e0(%rbp)
    ff41:	48 8d 05 f8 80 00 00 	lea    0x80f8(%rip),%rax        # 18040 <g_72>
    ff48:	48 89 85 28 f8 ff ff 	mov    %rax,-0x7d8(%rbp)
    ff4f:	48 8d 05 02 81 00 00 	lea    0x8102(%rip),%rax        # 18058 <g_146>
    ff56:	48 89 85 30 f8 ff ff 	mov    %rax,-0x7d0(%rbp)
    ff5d:	48 8d 85 a8 ec ff ff 	lea    -0x1358(%rbp),%rax
    ff64:	48 89 85 38 f8 ff ff 	mov    %rax,-0x7c8(%rbp)
    ff6b:	48 8d 05 e6 80 00 00 	lea    0x80e6(%rip),%rax        # 18058 <g_146>
    ff72:	48 89 85 40 f8 ff ff 	mov    %rax,-0x7c0(%rbp)
    ff79:	48 8d 85 a8 ec ff ff 	lea    -0x1358(%rbp),%rax
    ff80:	48 89 85 48 f8 ff ff 	mov    %rax,-0x7b8(%rbp)
    ff87:	48 8d 05 b2 80 00 00 	lea    0x80b2(%rip),%rax        # 18040 <g_72>
    ff8e:	48 89 85 50 f8 ff ff 	mov    %rax,-0x7b0(%rbp)
    ff95:	48 c7 85 58 f8 ff ff 	movq   $0x0,-0x7a8(%rbp)
    ff9c:	00 00 00 00 
    ffa0:	48 8d 85 a0 ec ff ff 	lea    -0x1360(%rbp),%rax
    ffa7:	48 89 85 60 f8 ff ff 	mov    %rax,-0x7a0(%rbp)
    ffae:	48 c7 85 68 f8 ff ff 	movq   $0x0,-0x798(%rbp)
    ffb5:	00 00 00 00 
    ffb9:	48 8d 85 a8 ec ff ff 	lea    -0x1358(%rbp),%rax
    ffc0:	48 89 85 70 f8 ff ff 	mov    %rax,-0x790(%rbp)
    ffc7:	48 8d 85 a0 ec ff ff 	lea    -0x1360(%rbp),%rax
    ffce:	48 89 85 78 f8 ff ff 	mov    %rax,-0x788(%rbp)
    ffd5:	48 8d 05 7c 80 00 00 	lea    0x807c(%rip),%rax        # 18058 <g_146>
    ffdc:	48 89 85 80 f8 ff ff 	mov    %rax,-0x780(%rbp)
    ffe3:	48 8d 05 6e 80 00 00 	lea    0x806e(%rip),%rax        # 18058 <g_146>
    ffea:	48 89 85 88 f8 ff ff 	mov    %rax,-0x778(%rbp)
    fff1:	48 8d 85 a8 ec ff ff 	lea    -0x1358(%rbp),%rax
    fff8:	48 89 85 90 f8 ff ff 	mov    %rax,-0x770(%rbp)
    ffff:	48 8d 05 52 80 00 00 	lea    0x8052(%rip),%rax        # 18058 <g_146>
   10006:	48 89 85 98 f8 ff ff 	mov    %rax,-0x768(%rbp)
   1000d:	48 8d 05 2c 80 00 00 	lea    0x802c(%rip),%rax        # 18040 <g_72>
   10014:	48 89 85 a0 f8 ff ff 	mov    %rax,-0x760(%rbp)
   1001b:	48 8d 05 36 80 00 00 	lea    0x8036(%rip),%rax        # 18058 <g_146>
   10022:	48 89 85 a8 f8 ff ff 	mov    %rax,-0x758(%rbp)
   10029:	48 c7 85 b0 f8 ff ff 	movq   $0x0,-0x750(%rbp)
   10030:	00 00 00 00 
   10034:	48 8d 05 1d 80 00 00 	lea    0x801d(%rip),%rax        # 18058 <g_146>
   1003b:	48 89 85 b8 f8 ff ff 	mov    %rax,-0x748(%rbp)
   10042:	48 c7 85 c0 f8 ff ff 	movq   $0x0,-0x740(%rbp)
   10049:	00 00 00 00 
   1004d:	48 c7 85 c8 f8 ff ff 	movq   $0x0,-0x738(%rbp)
   10054:	00 00 00 00 
   10058:	48 8d 85 a0 ec ff ff 	lea    -0x1360(%rbp),%rax
   1005f:	48 89 85 d0 f8 ff ff 	mov    %rax,-0x730(%rbp)
   10066:	48 8d 05 eb 7f 00 00 	lea    0x7feb(%rip),%rax        # 18058 <g_146>
   1006d:	48 89 85 d8 f8 ff ff 	mov    %rax,-0x728(%rbp)
   10074:	48 8d 05 c5 7f 00 00 	lea    0x7fc5(%rip),%rax        # 18040 <g_72>
   1007b:	48 89 85 e0 f8 ff ff 	mov    %rax,-0x720(%rbp)
   10082:	48 8d 05 b7 7f 00 00 	lea    0x7fb7(%rip),%rax        # 18040 <g_72>
   10089:	48 89 85 e8 f8 ff ff 	mov    %rax,-0x718(%rbp)
   10090:	c6 85 72 eb ff ff 5c 	movb   $0x5c,-0x148e(%rbp)
   10097:	c7 85 e0 eb ff ff fc 	movl   $0xfffffffc,-0x1420(%rbp)
   1009e:	ff ff ff 
   100a1:	c7 85 e4 eb ff ff 5b 	movl   $0xb3e68e5b,-0x141c(%rbp)
   100a8:	8e e6 b3 
   100ab:	48 8d 85 50 f3 ff ff 	lea    -0xcb0(%rbp),%rax
   100b2:	48 8d 15 47 44 00 00 	lea    0x4447(%rip),%rdx        # 14500 <g_991+0x4ac>
   100b9:	b9 48 00 00 00       	mov    $0x48,%ecx
   100be:	48 89 c7             	mov    %rax,%rdi
   100c1:	48 89 d6             	mov    %rdx,%rsi
   100c4:	f3 48 a5             	rep movsq %ds:(%rsi),%es:(%rdi)
   100c7:	0f b7 9d 4c eb ff ff 	movzwl -0x14b4(%rbp),%ebx
   100ce:	48 83 bd 58 eb ff ff 	cmpq   $0x0,-0x14a8(%rbp)
   100d5:	00 
   100d6:	0f 84 cb 00 00 00    	je     101a7 <func_37+0x5383>
   100dc:	83 b5 e0 eb ff ff 01 	xorl   $0x1,-0x1420(%rbp)
   100e3:	83 bd e0 eb ff ff 00 	cmpl   $0x0,-0x1420(%rbp)
   100ea:	75 71                	jne    1015d <func_37+0x5339>
   100ec:	8b 85 e4 eb ff ff    	mov    -0x141c(%rbp),%eax
   100f2:	48 63 d0             	movslq %eax,%rdx
   100f5:	48 8b 85 a8 ec ff ff 	mov    -0x1358(%rbp),%rax
   100fc:	48 39 c2             	cmp    %rax,%rdx
   100ff:	0f 9c c0             	setl   %al
   10102:	44 0f b6 e8          	movzbl %al,%r13d
   10106:	48 8b 85 58 eb ff ff 	mov    -0x14a8(%rbp),%rax
   1010d:	44 0f be e0          	movsbl %al,%r12d
   10111:	48 0f be 95 70 eb ff 	movsbq -0x1490(%rbp),%rdx
   10118:	ff 
   10119:	83 bd e0 eb ff ff 00 	cmpl   $0x0,-0x1420(%rbp)
   10120:	0f 95 c0             	setne  %al
   10123:	0f b6 c0             	movzbl %al,%eax
   10126:	48 89 d6             	mov    %rdx,%rsi
   10129:	48 89 c7             	mov    %rax,%rdi
   1012c:	e8 83 68 ff ff       	callq  69b4 <safe_mod_func_int64_t_s_s>
   10131:	0f b7 95 48 eb ff ff 	movzwl -0x14b8(%rbp),%edx
   10138:	0f b7 d2             	movzwl %dx,%edx
   1013b:	48 39 d0             	cmp    %rdx,%rax
   1013e:	0f 9d c0             	setge  %al
   10141:	0f b6 c0             	movzbl %al,%eax
   10144:	89 85 d4 eb ff ff    	mov    %eax,-0x142c(%rbp)
   1014a:	44 89 e6             	mov    %r12d,%esi
   1014d:	bf 52 00 00 00       	mov    $0x52,%edi
   10152:	e8 da 60 ff ff       	callq  6231 <safe_mod_func_int8_t_s_s>
   10157:	0f be c0             	movsbl %al,%eax
   1015a:	41 39 c5             	cmp    %eax,%r13d
   1015d:	be 64 00 00 00       	mov    $0x64,%esi
   10162:	bf 01 00 00 00       	mov    $0x1,%edi
   10167:	e8 a6 60 ff ff       	callq  6212 <safe_mul_func_int8_t_s_s>
   1016c:	48 0f be d0          	movsbq %al,%rdx
   10170:	8b 85 34 ef ff ff    	mov    -0x10cc(%rbp),%eax
   10176:	48 98                	cltq   
   10178:	48 39 85 58 eb ff ff 	cmp    %rax,-0x14a8(%rbp)
   1017f:	0f 94 c0             	sete   %al
   10182:	20 85 72 eb ff ff    	and    %al,-0x148e(%rbp)
   10188:	48 0f be 85 72 eb ff 	movsbq -0x148e(%rbp),%rax
   1018f:	ff 
   10190:	48 89 d6             	mov    %rdx,%rsi
   10193:	48 89 c7             	mov    %rax,%rdi
   10196:	e8 a6 66 ff ff       	callq  6841 <safe_add_func_int64_t_s_s>
   1019b:	48 85 c0             	test   %rax,%rax
   1019e:	74 07                	je     101a7 <func_37+0x5383>
   101a0:	b8 01 00 00 00       	mov    $0x1,%eax
   101a5:	eb 05                	jmp    101ac <func_37+0x5388>
   101a7:	b8 00 00 00 00       	mov    $0x0,%eax
   101ac:	48 98                	cltq   
   101ae:	48 89 05 8b 7e 00 00 	mov    %rax,0x7e8b(%rip)        # 18040 <g_72>
   101b5:	48 8b 05 84 7e 00 00 	mov    0x7e84(%rip),%rax        # 18040 <g_72>
   101bc:	48 85 c0             	test   %rax,%rax
   101bf:	75 07                	jne    101c8 <func_37+0x53a4>
   101c1:	80 bd 71 eb ff ff 00 	cmpb   $0x0,-0x148f(%rbp)
   101c8:	89 de                	mov    %ebx,%esi
   101ca:	bf 04 00 00 00       	mov    $0x4,%edi
   101cf:	e8 e2 63 ff ff       	callq  65b6 <safe_add_func_int32_t_s_s>
   101d4:	48 c7 85 18 f5 ff ff 	movq   $0x0,-0xae8(%rbp)
   101db:	00 00 00 00 
   101df:	8b 05 93 7e 00 00    	mov    0x7e93(%rip),%eax        # 18078 <g_247>
   101e5:	83 e8 01             	sub    $0x1,%eax
   101e8:	89 05 8a 7e 00 00    	mov    %eax,0x7e8a(%rip)        # 18078 <g_247>
   101ee:	8b 05 84 7e 00 00    	mov    0x7e84(%rip),%eax        # 18078 <g_247>
   101f4:	83 f8 e5             	cmp    $0xffffffe5,%eax
   101f7:	0f 8d f6 f8 ff ff    	jge    faf3 <func_37+0x4ccf>
   101fd:	48 8b 05 54 9f 00 00 	mov    0x9f54(%rip),%rax        # 1a158 <g_792>
   10204:	48 8b 00             	mov    (%rax),%rax
   10207:	48 8b 5d c8          	mov    -0x38(%rbp),%rbx
   1020b:	64 48 33 1c 25 28 00 	xor    %fs:0x28,%rbx
   10212:	00 00 
   10214:	74 05                	je     1021b <func_37+0x53f7>
   10216:	e8 55 5e ff ff       	callq  6070 <__stack_chk_fail@plt>
   1021b:	48 81 c4 98 14 00 00 	add    $0x1498,%rsp
   10222:	5b                   	pop    %rbx
   10223:	41 5c                	pop    %r12
   10225:	41 5d                	pop    %r13
   10227:	41 5e                	pop    %r14
   10229:	41 5f                	pop    %r15
   1022b:	5d                   	pop    %rbp
   1022c:	c3                   	retq   

000000000001022d <func_47>:
   1022d:	f3 0f 1e fa          	endbr64 
   10231:	55                   	push   %rbp
   10232:	48 89 e5             	mov    %rsp,%rbp
   10235:	41 56                	push   %r14
   10237:	41 55                	push   %r13
   10239:	41 54                	push   %r12
   1023b:	53                   	push   %rbx
   1023c:	48 81 ec 00 10 00 00 	sub    $0x1000,%rsp
   10243:	48 83 0c 24 00       	orq    $0x0,(%rsp)
   10248:	48 81 ec c0 01 00 00 	sub    $0x1c0,%rsp
   1024f:	48 89 bd 28 ee ff ff 	mov    %rdi,-0x11d8(%rbp)
   10256:	64 48 8b 04 25 28 00 	mov    %fs:0x28,%rax
   1025d:	00 00 
   1025f:	48 89 45 d8          	mov    %rax,-0x28(%rbp)
   10263:	31 c0                	xor    %eax,%eax
   10265:	48 c7 85 88 ee ff ff 	movq   $0x0,-0x1178(%rbp)
   1026c:	00 00 00 00 
   10270:	48 8d 05 ed 7d 00 00 	lea    0x7ded(%rip),%rax        # 18064 <g_201>
   10277:	48 89 85 d0 ee ff ff 	mov    %rax,-0x1130(%rbp)
   1027e:	c7 85 34 ee ff ff ea 	movl   $0x1f1468ea,-0x11cc(%rbp)
   10285:	68 14 1f 
   10288:	48 8d 05 d7 7d 00 00 	lea    0x7dd7(%rip),%rax        # 18066 <g_208>
   1028f:	48 89 85 d8 ee ff ff 	mov    %rax,-0x1128(%rbp)
   10296:	48 8d 05 cb 7d 00 00 	lea    0x7dcb(%rip),%rax        # 18068 <g_210>
   1029d:	48 89 85 00 f0 ff ff 	mov    %rax,-0x1000(%rbp)
   102a4:	48 8d 05 bd 7d 00 00 	lea    0x7dbd(%rip),%rax        # 18068 <g_210>
   102ab:	48 89 85 08 f0 ff ff 	mov    %rax,-0xff8(%rbp)
   102b2:	48 c7 85 10 f0 ff ff 	movq   $0x0,-0xff0(%rbp)
   102b9:	00 00 00 00 
   102bd:	48 8d 05 a4 7d 00 00 	lea    0x7da4(%rip),%rax        # 18068 <g_210>
   102c4:	48 89 85 18 f0 ff ff 	mov    %rax,-0xfe8(%rbp)
   102cb:	48 8d 05 96 7d 00 00 	lea    0x7d96(%rip),%rax        # 18068 <g_210>
   102d2:	48 89 85 20 f0 ff ff 	mov    %rax,-0xfe0(%rbp)
   102d9:	48 c7 85 28 f0 ff ff 	movq   $0x0,-0xfd8(%rbp)
   102e0:	00 00 00 00 
   102e4:	48 8d 85 e0 f1 ff ff 	lea    -0xe20(%rbp),%rax
   102eb:	48 8d 15 4e 44 00 00 	lea    0x444e(%rip),%rdx        # 14740 <g_991+0x6ec>
   102f2:	b9 32 00 00 00       	mov    $0x32,%ecx
   102f7:	48 89 c7             	mov    %rax,%rdi
   102fa:	48 89 d6             	mov    %rdx,%rsi
   102fd:	f3 48 a5             	rep movsq %ds:(%rsi),%es:(%rdi)
   10300:	66 c7 85 32 ee ff ff 	movw   $0xa3d0,-0x11ce(%rbp)
   10307:	d0 a3 
   10309:	48 8d 05 00 9e 00 00 	lea    0x9e00(%rip),%rax        # 1a110 <g_277>
   10310:	48 89 85 90 ee ff ff 	mov    %rax,-0x1170(%rbp)
   10317:	48 8d 85 90 ee ff ff 	lea    -0x1170(%rbp),%rax
   1031e:	48 89 85 e0 ee ff ff 	mov    %rax,-0x1120(%rbp)
   10325:	c7 85 48 ee ff ff 01 	movl   $0x1,-0x11b8(%rbp)
   1032c:	00 00 00 
   1032f:	66 c7 85 60 f0 ff ff 	movw   $0x73b4,-0xfa0(%rbp)
   10336:	b4 73 
   10338:	66 c7 85 62 f0 ff ff 	movw   $0x1,-0xf9e(%rbp)
   1033f:	01 00 
   10341:	66 c7 85 64 f0 ff ff 	movw   $0x73b4,-0xf9c(%rbp)
   10348:	b4 73 
   1034a:	66 c7 85 66 f0 ff ff 	movw   $0x21f3,-0xf9a(%rbp)
   10351:	f3 21 
   10353:	66 c7 85 68 f0 ff ff 	movw   $0x73b4,-0xf98(%rbp)
   1035a:	b4 73 
   1035c:	66 c7 85 6a f0 ff ff 	movw   $0x21f3,-0xf96(%rbp)
   10363:	f3 21 
   10365:	66 c7 85 6c f0 ff ff 	movw   $0x73b4,-0xf94(%rbp)
   1036c:	b4 73 
   1036e:	66 c7 85 6e f0 ff ff 	movw   $0x1,-0xf92(%rbp)
   10375:	01 00 
   10377:	66 c7 85 70 f0 ff ff 	movw   $0x73b4,-0xf90(%rbp)
   1037e:	b4 73 
   10380:	66 c7 85 72 f0 ff ff 	movw   $0x1,-0xf8e(%rbp)
   10387:	01 00 
   10389:	66 c7 85 74 f0 ff ff 	movw   $0x73b4,-0xf8c(%rbp)
   10390:	b4 73 
   10392:	66 c7 85 76 f0 ff ff 	movw   $0x21f3,-0xf8a(%rbp)
   10399:	f3 21 
   1039b:	66 c7 85 78 f0 ff ff 	movw   $0x73b4,-0xf88(%rbp)
   103a2:	b4 73 
   103a4:	66 c7 85 7a f0 ff ff 	movw   $0x21f3,-0xf86(%rbp)
   103ab:	f3 21 
   103ad:	66 c7 85 7c f0 ff ff 	movw   $0x73b4,-0xf84(%rbp)
   103b4:	b4 73 
   103b6:	66 c7 85 7e f0 ff ff 	movw   $0x1,-0xf82(%rbp)
   103bd:	01 00 
   103bf:	66 c7 85 80 f0 ff ff 	movw   $0x73b4,-0xf80(%rbp)
   103c6:	b4 73 
   103c8:	66 c7 85 82 f0 ff ff 	movw   $0x1,-0xf7e(%rbp)
   103cf:	01 00 
   103d1:	66 c7 85 84 f0 ff ff 	movw   $0x73b4,-0xf7c(%rbp)
   103d8:	b4 73 
   103da:	66 c7 85 86 f0 ff ff 	movw   $0x21f3,-0xf7a(%rbp)
   103e1:	f3 21 
   103e3:	66 c7 85 88 f0 ff ff 	movw   $0x73b4,-0xf78(%rbp)
   103ea:	b4 73 
   103ec:	66 c7 85 8a f0 ff ff 	movw   $0x21f3,-0xf76(%rbp)
   103f3:	f3 21 
   103f5:	66 c7 85 8c f0 ff ff 	movw   $0x73b4,-0xf74(%rbp)
   103fc:	b4 73 
   103fe:	66 c7 85 8e f0 ff ff 	movw   $0x1,-0xf72(%rbp)
   10405:	01 00 
   10407:	66 c7 85 90 f0 ff ff 	movw   $0x73b4,-0xf70(%rbp)
   1040e:	b4 73 
   10410:	66 c7 85 92 f0 ff ff 	movw   $0x1,-0xf6e(%rbp)
   10417:	01 00 
   10419:	66 c7 85 94 f0 ff ff 	movw   $0x73b4,-0xf6c(%rbp)
   10420:	b4 73 
   10422:	66 c7 85 96 f0 ff ff 	movw   $0x21f3,-0xf6a(%rbp)
   10429:	f3 21 
   1042b:	66 c7 85 98 f0 ff ff 	movw   $0x73b4,-0xf68(%rbp)
   10432:	b4 73 
   10434:	66 c7 85 9a f0 ff ff 	movw   $0x21f3,-0xf66(%rbp)
   1043b:	f3 21 
   1043d:	66 c7 85 9c f0 ff ff 	movw   $0x73b4,-0xf64(%rbp)
   10444:	b4 73 
   10446:	66 c7 85 9e f0 ff ff 	movw   $0x1,-0xf62(%rbp)
   1044d:	01 00 
   1044f:	66 c7 85 a0 f0 ff ff 	movw   $0x73b4,-0xf60(%rbp)
   10456:	b4 73 
   10458:	66 c7 85 a2 f0 ff ff 	movw   $0x1,-0xf5e(%rbp)
   1045f:	01 00 
   10461:	66 c7 85 a4 f0 ff ff 	movw   $0x73b4,-0xf5c(%rbp)
   10468:	b4 73 
   1046a:	66 c7 85 a6 f0 ff ff 	movw   $0x21f3,-0xf5a(%rbp)
   10471:	f3 21 
   10473:	48 8d 05 8e 9c 00 00 	lea    0x9c8e(%rip),%rax        # 1a108 <g_235>
   1047a:	48 89 85 e8 ee ff ff 	mov    %rax,-0x1118(%rbp)
   10481:	66 c7 85 30 f0 ff ff 	movw   $0xd4cd,-0xfd0(%rbp)
   10488:	cd d4 
   1048a:	66 c7 85 32 f0 ff ff 	movw   $0x1,-0xfce(%rbp)
   10491:	01 00 
   10493:	66 c7 85 34 f0 ff ff 	movw   $0x75ac,-0xfcc(%rbp)
   1049a:	ac 75 
   1049c:	66 c7 85 36 f0 ff ff 	movw   $0x3055,-0xfca(%rbp)
   104a3:	55 30 
   104a5:	66 c7 85 38 f0 ff ff 	movw   $0x3,-0xfc8(%rbp)
   104ac:	03 00 
   104ae:	66 c7 85 3a f0 ff ff 	movw   $0x3,-0xfc6(%rbp)
   104b5:	03 00 
   104b7:	66 c7 85 3c f0 ff ff 	movw   $0xd4cd,-0xfc4(%rbp)
   104be:	cd d4 
   104c0:	66 c7 85 3e f0 ff ff 	movw   $0x1,-0xfc2(%rbp)
   104c7:	01 00 
   104c9:	66 c7 85 40 f0 ff ff 	movw   $0x75ac,-0xfc0(%rbp)
   104d0:	ac 75 
   104d2:	66 c7 85 42 f0 ff ff 	movw   $0x3055,-0xfbe(%rbp)
   104d9:	55 30 
   104db:	66 c7 85 44 f0 ff ff 	movw   $0x3,-0xfbc(%rbp)
   104e2:	03 00 
   104e4:	66 c7 85 46 f0 ff ff 	movw   $0x3,-0xfba(%rbp)
   104eb:	03 00 
   104ed:	66 c7 85 48 f0 ff ff 	movw   $0xd4cd,-0xfb8(%rbp)
   104f4:	cd d4 
   104f6:	66 c7 85 4a f0 ff ff 	movw   $0x1,-0xfb6(%rbp)
   104fd:	01 00 
   104ff:	66 c7 85 4c f0 ff ff 	movw   $0x75ac,-0xfb4(%rbp)
   10506:	ac 75 
   10508:	66 c7 85 4e f0 ff ff 	movw   $0x3055,-0xfb2(%rbp)
   1050f:	55 30 
   10511:	66 c7 85 50 f0 ff ff 	movw   $0x3,-0xfb0(%rbp)
   10518:	03 00 
   1051a:	66 c7 85 52 f0 ff ff 	movw   $0x3,-0xfae(%rbp)
   10521:	03 00 
   10523:	66 c7 85 54 f0 ff ff 	movw   $0xd4cd,-0xfac(%rbp)
   1052a:	cd d4 
   1052c:	66 c7 85 56 f0 ff ff 	movw   $0x1,-0xfaa(%rbp)
   10533:	01 00 
   10535:	66 c7 85 58 f0 ff ff 	movw   $0x75ac,-0xfa8(%rbp)
   1053c:	ac 75 
   1053e:	66 c7 85 5a f0 ff ff 	movw   $0x3055,-0xfa6(%rbp)
   10545:	55 30 
   10547:	66 c7 85 5c f0 ff ff 	movw   $0x3,-0xfa4(%rbp)
   1054e:	03 00 
   10550:	66 c7 85 5e f0 ff ff 	movw   $0x3,-0xfa2(%rbp)
   10557:	03 00 
   10559:	48 c7 85 f0 ee ff ff 	movq   $0x0,-0x1110(%rbp)
   10560:	00 00 00 00 
   10564:	48 8d 05 ed 7a 00 00 	lea    0x7aed(%rip),%rax        # 18058 <g_146>
   1056b:	48 89 85 f8 ee ff ff 	mov    %rax,-0x1108(%rbp)
   10572:	48 c7 85 00 ef ff ff 	movq   $0x0,-0x1100(%rbp)
   10579:	00 00 00 00 
   1057d:	48 b8 78 ed eb 2c 13 	movabs $0xd76933132cebed78,%rax
   10584:	33 69 d7 
   10587:	48 89 85 c8 ee ff ff 	mov    %rax,-0x1138(%rbp)
   1058e:	48 8b 85 88 ee ff ff 	mov    -0x1178(%rbp),%rax
   10595:	48 8d 15 9c 7a 00 00 	lea    0x7a9c(%rip),%rdx        # 18038 <g_44>
   1059c:	48 39 d0             	cmp    %rdx,%rax
   1059f:	0f 84 f0 04 00 00    	je     10a95 <func_47+0x868>
   105a5:	48 8b 85 28 ee ff ff 	mov    -0x11d8(%rbp),%rax
   105ac:	0f bf d8             	movswl %ax,%ebx
   105af:	48 8b 85 d0 ee ff ff 	mov    -0x1130(%rbp),%rax
   105b6:	0f b7 10             	movzwl (%rax),%edx
   105b9:	48 8b 85 d0 ee ff ff 	mov    -0x1130(%rbp),%rax
   105c0:	66 89 10             	mov    %dx,(%rax)
   105c3:	48 8b 85 d0 ee ff ff 	mov    -0x1130(%rbp),%rax
   105ca:	0f b7 00             	movzwl (%rax),%eax
   105cd:	66 83 f8 02          	cmp    $0x2,%ax
   105d1:	8b 85 34 ee ff ff    	mov    -0x11cc(%rbp),%eax
   105d7:	41 89 c4             	mov    %eax,%r12d
   105da:	8b 05 54 7a 00 00    	mov    0x7a54(%rip),%eax        # 18034 <g_30>
   105e0:	89 c2                	mov    %eax,%edx
   105e2:	8b 85 34 ee ff ff    	mov    -0x11cc(%rbp),%eax
   105e8:	48 98                	cltq   
   105ea:	48 89 d6             	mov    %rdx,%rsi
   105ed:	48 89 c7             	mov    %rax,%rdi
   105f0:	e8 ba 6a ff ff       	callq  70af <safe_div_func_uint64_t_u_u>
   105f5:	98                   	cwtl   
   105f6:	44 89 e6             	mov    %r12d,%esi
   105f9:	89 c7                	mov    %eax,%edi
   105fb:	e8 e1 5e ff ff       	callq  64e1 <safe_lshift_func_int16_t_s_u>
   10600:	48 0f bf c0          	movswq %ax,%rax
   10604:	48 39 85 28 ee ff ff 	cmp    %rax,-0x11d8(%rbp)
   1060b:	48 83 bd 28 ee ff ff 	cmpq   $0x0,-0x11d8(%rbp)
   10612:	00 
   10613:	75 0b                	jne    10620 <func_47+0x3f3>
   10615:	0f b6 05 14 7a 00 00 	movzbl 0x7a14(%rip),%eax        # 18030 <g_27>
   1061c:	84 c0                	test   %al,%al
   1061e:	74 07                	je     10627 <func_47+0x3fa>
   10620:	b8 01 00 00 00       	mov    $0x1,%eax
   10625:	eb 05                	jmp    1062c <func_47+0x3ff>
   10627:	b8 00 00 00 00       	mov    $0x0,%eax
   1062c:	48 98                	cltq   
   1062e:	48 be ce 54 77 0c 96 	movabs $0x2e0279960c7754ce,%rsi
   10635:	79 02 2e 
   10638:	48 89 c7             	mov    %rax,%rdi
   1063b:	e8 ee 69 ff ff       	callq  702e <safe_add_func_uint64_t_u_u>
   10640:	48 8b 95 d8 ee ff ff 	mov    -0x1128(%rbp),%rdx
   10647:	0f b7 12             	movzwl (%rdx),%edx
   1064a:	31 d0                	xor    %edx,%eax
   1064c:	89 c2                	mov    %eax,%edx
   1064e:	48 8b 85 d8 ee ff ff 	mov    -0x1128(%rbp),%rax
   10655:	66 89 10             	mov    %dx,(%rax)
   10658:	48 8b 85 d8 ee ff ff 	mov    -0x1128(%rbp),%rax
   1065f:	0f b7 00             	movzwl (%rax),%eax
   10662:	66 89 05 ff 79 00 00 	mov    %ax,0x79ff(%rip)        # 18068 <g_210>
   10669:	0f b7 05 f8 79 00 00 	movzwl 0x79f8(%rip),%eax        # 18068 <g_210>
   10670:	98                   	cwtl   
   10671:	89 de                	mov    %ebx,%esi
   10673:	89 c7                	mov    %eax,%edi
   10675:	e8 7b 5d ff ff       	callq  63f5 <safe_mul_func_int16_t_s_s>
   1067a:	66 85 c0             	test   %ax,%ax
   1067d:	0f 84 12 04 00 00    	je     10a95 <func_47+0x868>
   10683:	48 8d 85 50 f8 ff ff 	lea    -0x7b0(%rbp),%rax
   1068a:	48 8d 15 4f 42 00 00 	lea    0x424f(%rip),%rdx        # 148e0 <g_991+0x88c>
   10691:	b9 25 00 00 00       	mov    $0x25,%ecx
   10696:	48 89 c7             	mov    %rax,%rdi
   10699:	48 89 d6             	mov    %rdx,%rsi
   1069c:	f3 48 a5             	rep movsq %ds:(%rsi),%es:(%rdi)
   1069f:	48 89 f2             	mov    %rsi,%rdx
   106a2:	48 89 f8             	mov    %rdi,%rax
   106a5:	8b 0a                	mov    (%rdx),%ecx
   106a7:	89 08                	mov    %ecx,(%rax)
   106a9:	48 8d 40 04          	lea    0x4(%rax),%rax
   106ad:	48 8d 52 04          	lea    0x4(%rdx),%rdx
   106b1:	c6 05 90 79 00 00 00 	movb   $0x0,0x7990(%rip)        # 18048 <g_95>
   106b8:	90                   	nop
   106b9:	0f b6 05 88 79 00 00 	movzbl 0x7988(%rip),%eax        # 18048 <g_95>
   106c0:	3c 04                	cmp    $0x4,%al
   106c2:	7f 0c                	jg     106d0 <func_47+0x4a3>
   106c4:	48 8d 05 95 79 00 00 	lea    0x7995(%rip),%rax        # 18060 <g_151>
   106cb:	e9 7f 16 00 00       	jmpq   11d4f <func_47+0x1b22>
   106d0:	48 c7 05 65 79 00 00 	movq   $0xffffffffffffffe3,0x7965(%rip)        # 18040 <g_72>
   106d7:	e3 ff ff ff 
   106db:	90                   	nop
   106dc:	48 8b 05 5d 79 00 00 	mov    0x795d(%rip),%rax        # 18040 <g_72>
   106e3:	48 83 f8 e7          	cmp    $0xffffffffffffffe7,%rax
   106e7:	0f 8c e3 04 00 00    	jl     10bd0 <func_47+0x9a3>
   106ed:	48 b8 82 79 05 0a 56 	movabs $0xd5b990560a057982,%rax
   106f4:	90 b9 d5 
   106f7:	48 89 85 c0 ee ff ff 	mov    %rax,-0x1140(%rbp)
   106fe:	c7 85 40 ee ff ff 00 	movl   $0x0,-0x11c0(%rbp)
   10705:	00 00 00 
   10708:	eb 1a                	jmp    10724 <func_47+0x4f7>
   1070a:	8b 85 40 ee ff ff    	mov    -0x11c0(%rbp),%eax
   10710:	48 98                	cltq   
   10712:	c7 84 85 70 f3 ff ff 	movl   $0x6f5a32c3,-0xc90(%rbp,%rax,4)
   10719:	c3 32 5a 6f 
   1071d:	83 85 40 ee ff ff 01 	addl   $0x1,-0x11c0(%rbp)
   10724:	83 bd 40 ee ff ff 03 	cmpl   $0x3,-0x11c0(%rbp)
   1072b:	7e dd                	jle    1070a <func_47+0x4dd>
   1072d:	0f b7 05 34 79 00 00 	movzwl 0x7934(%rip),%eax        # 18068 <g_210>
   10734:	0f bf d0             	movswl %ax,%edx
   10737:	8b 85 34 ee ff ff    	mov    -0x11cc(%rbp),%eax
   1073d:	09 d0                	or     %edx,%eax
   1073f:	89 85 34 ee ff ff    	mov    %eax,-0x11cc(%rbp)
   10745:	c7 85 34 ee ff ff 00 	movl   $0x0,-0x11cc(%rbp)
   1074c:	00 00 00 
   1074f:	e9 26 03 00 00       	jmpq   10a7a <func_47+0x84d>
   10754:	c7 85 4c ee ff ff 08 	movl   $0x8,-0x11b4(%rbp)
   1075b:	00 00 00 
   1075e:	c7 85 50 ee ff ff 27 	movl   $0x7395427,-0x11b0(%rbp)
   10765:	54 39 07 
   10768:	c7 05 ee 78 00 00 01 	movl   $0x1,0x78ee(%rip)        # 18060 <g_151>
   1076f:	00 00 00 
   10772:	e9 68 02 00 00       	jmpq   109df <func_47+0x7b2>
   10777:	48 c7 05 b6 78 00 00 	movq   $0x0,0x78b6(%rip)        # 18038 <g_44>
   1077e:	00 00 00 00 
   10782:	e9 38 02 00 00       	jmpq   109bf <func_47+0x792>
   10787:	48 8d 05 c2 78 00 00 	lea    0x78c2(%rip),%rax        # 18050 <g_135>
   1078e:	48 89 85 10 ef ff ff 	mov    %rax,-0x10f0(%rbp)
   10795:	48 c7 85 d0 f5 ff ff 	movq   $0x0,-0xa30(%rbp)
   1079c:	00 00 00 00 
   107a0:	48 8d 85 70 f3 ff ff 	lea    -0xc90(%rbp),%rax
   107a7:	48 83 c0 04          	add    $0x4,%rax
   107ab:	48 89 85 d8 f5 ff ff 	mov    %rax,-0xa28(%rbp)
   107b2:	48 8d 05 93 78 00 00 	lea    0x7893(%rip),%rax        # 1804c <g_115>
   107b9:	48 89 85 e0 f5 ff ff 	mov    %rax,-0xa20(%rbp)
   107c0:	48 c7 85 e8 f5 ff ff 	movq   $0x0,-0xa18(%rbp)
   107c7:	00 00 00 00 
   107cb:	48 c7 85 f0 f5 ff ff 	movq   $0x0,-0xa10(%rbp)
   107d2:	00 00 00 00 
   107d6:	48 8d 05 73 78 00 00 	lea    0x7873(%rip),%rax        # 18050 <g_135>
   107dd:	48 89 85 f8 f5 ff ff 	mov    %rax,-0xa08(%rbp)
   107e4:	48 8d 85 70 f3 ff ff 	lea    -0xc90(%rbp),%rax
   107eb:	48 83 c0 04          	add    $0x4,%rax
   107ef:	48 89 85 00 f6 ff ff 	mov    %rax,-0xa00(%rbp)
   107f6:	48 8d 05 53 78 00 00 	lea    0x7853(%rip),%rax        # 18050 <g_135>
   107fd:	48 89 85 08 f6 ff ff 	mov    %rax,-0x9f8(%rbp)
   10804:	48 8d 05 fd a2 00 00 	lea    0xa2fd(%rip),%rax        # 1ab08 <g_106>
   1080b:	48 89 85 10 f6 ff ff 	mov    %rax,-0x9f0(%rbp)
   10812:	48 8d 05 37 78 00 00 	lea    0x7837(%rip),%rax        # 18050 <g_135>
   10819:	48 89 85 18 f6 ff ff 	mov    %rax,-0x9e8(%rbp)
   10820:	48 c7 85 20 f6 ff ff 	movq   $0x0,-0x9e0(%rbp)
   10827:	00 00 00 00 
   1082b:	48 c7 85 28 f6 ff ff 	movq   $0x0,-0x9d8(%rbp)
   10832:	00 00 00 00 
   10836:	48 8d 85 70 f3 ff ff 	lea    -0xc90(%rbp),%rax
   1083d:	48 83 c0 04          	add    $0x4,%rax
   10841:	48 89 85 30 f6 ff ff 	mov    %rax,-0x9d0(%rbp)
   10848:	48 8d 85 70 f3 ff ff 	lea    -0xc90(%rbp),%rax
   1084f:	48 83 c0 04          	add    $0x4,%rax
   10853:	48 89 85 38 f6 ff ff 	mov    %rax,-0x9c8(%rbp)
   1085a:	48 c7 85 40 f6 ff ff 	movq   $0x0,-0x9c0(%rbp)
   10861:	00 00 00 00 
   10865:	48 8d 85 70 f3 ff ff 	lea    -0xc90(%rbp),%rax
   1086c:	48 83 c0 04          	add    $0x4,%rax
   10870:	48 89 85 48 f6 ff ff 	mov    %rax,-0x9b8(%rbp)
   10877:	48 8d 05 8a a2 00 00 	lea    0xa28a(%rip),%rax        # 1ab08 <g_106>
   1087e:	48 89 85 50 f6 ff ff 	mov    %rax,-0x9b0(%rbp)
   10885:	48 c7 85 58 f6 ff ff 	movq   $0x0,-0x9a8(%rbp)
   1088c:	00 00 00 00 
   10890:	48 8d 05 71 a2 00 00 	lea    0xa271(%rip),%rax        # 1ab08 <g_106>
   10897:	48 89 85 60 f6 ff ff 	mov    %rax,-0x9a0(%rbp)
   1089e:	48 8d 85 70 f3 ff ff 	lea    -0xc90(%rbp),%rax
   108a5:	48 83 c0 04          	add    $0x4,%rax
   108a9:	48 89 85 68 f6 ff ff 	mov    %rax,-0x998(%rbp)
   108b0:	48 c7 85 70 f6 ff ff 	movq   $0x0,-0x990(%rbp)
   108b7:	00 00 00 00 
   108bb:	48 8d 85 70 f3 ff ff 	lea    -0xc90(%rbp),%rax
   108c2:	48 83 c0 04          	add    $0x4,%rax
   108c6:	48 89 85 78 f6 ff ff 	mov    %rax,-0x988(%rbp)
   108cd:	48 8d 85 70 f3 ff ff 	lea    -0xc90(%rbp),%rax
   108d4:	48 83 c0 04          	add    $0x4,%rax
   108d8:	48 89 85 80 f6 ff ff 	mov    %rax,-0x980(%rbp)
   108df:	48 c7 85 88 f6 ff ff 	movq   $0x0,-0x978(%rbp)
   108e6:	00 00 00 00 
   108ea:	48 c7 85 90 f6 ff ff 	movq   $0x0,-0x970(%rbp)
   108f1:	00 00 00 00 
   108f5:	48 8d 05 54 77 00 00 	lea    0x7754(%rip),%rax        # 18050 <g_135>
   108fc:	48 89 85 98 f6 ff ff 	mov    %rax,-0x968(%rbp)
   10903:	48 8d 05 fe a1 00 00 	lea    0xa1fe(%rip),%rax        # 1ab08 <g_106>
   1090a:	48 89 85 a0 f6 ff ff 	mov    %rax,-0x960(%rbp)
   10911:	48 8d 05 38 77 00 00 	lea    0x7738(%rip),%rax        # 18050 <g_135>
   10918:	48 89 85 a8 f6 ff ff 	mov    %rax,-0x958(%rbp)
   1091f:	48 8d 85 70 f3 ff ff 	lea    -0xc90(%rbp),%rax
   10926:	48 83 c0 04          	add    $0x4,%rax
   1092a:	48 89 85 b0 f6 ff ff 	mov    %rax,-0x950(%rbp)
   10931:	48 8d 05 18 77 00 00 	lea    0x7718(%rip),%rax        # 18050 <g_135>
   10938:	48 89 85 b8 f6 ff ff 	mov    %rax,-0x948(%rbp)
   1093f:	48 c7 85 c0 f6 ff ff 	movq   $0x0,-0x940(%rbp)
   10946:	00 00 00 00 
   1094a:	48 c7 85 c8 f6 ff ff 	movq   $0x0,-0x938(%rbp)
   10951:	00 00 00 00 
   10955:	48 8d 05 f0 76 00 00 	lea    0x76f0(%rip),%rax        # 1804c <g_115>
   1095c:	48 89 85 d0 f6 ff ff 	mov    %rax,-0x930(%rbp)
   10963:	48 8d 85 70 f3 ff ff 	lea    -0xc90(%rbp),%rax
   1096a:	48 83 c0 04          	add    $0x4,%rax
   1096e:	48 89 85 d8 f6 ff ff 	mov    %rax,-0x928(%rbp)
   10975:	48 c7 85 e0 f6 ff ff 	movq   $0x0,-0x920(%rbp)
   1097c:	00 00 00 00 
   10980:	c7 85 54 ee ff ff 00 	movl   $0x0,-0x11ac(%rbp)
   10987:	00 00 00 
   1098a:	48 83 85 c0 ee ff ff 	addq   $0x1,-0x1140(%rbp)
   10991:	01 
   10992:	83 bd 4c ee ff ff 00 	cmpl   $0x0,-0x11b4(%rbp)
   10999:	75 11                	jne    109ac <func_47+0x77f>
   1099b:	8b 85 fc f8 ff ff    	mov    -0x704(%rbp),%eax
   109a1:	83 c0 01             	add    $0x1,%eax
   109a4:	89 85 fc f8 ff ff    	mov    %eax,-0x704(%rbp)
   109aa:	eb 01                	jmp    109ad <func_47+0x780>
   109ac:	90                   	nop
   109ad:	48 8b 05 84 76 00 00 	mov    0x7684(%rip),%rax        # 18038 <g_44>
   109b4:	48 83 c0 01          	add    $0x1,%rax
   109b8:	48 89 05 79 76 00 00 	mov    %rax,0x7679(%rip)        # 18038 <g_44>
   109bf:	48 8b 05 72 76 00 00 	mov    0x7672(%rip),%rax        # 18038 <g_44>
   109c6:	48 83 f8 05          	cmp    $0x5,%rax
   109ca:	0f 86 b7 fd ff ff    	jbe    10787 <func_47+0x55a>
   109d0:	8b 05 8a 76 00 00    	mov    0x768a(%rip),%eax        # 18060 <g_151>
   109d6:	83 c0 01             	add    $0x1,%eax
   109d9:	89 05 81 76 00 00    	mov    %eax,0x7681(%rip)        # 18060 <g_151>
   109df:	8b 05 7b 76 00 00    	mov    0x767b(%rip),%eax        # 18060 <g_151>
   109e5:	83 f8 05             	cmp    $0x5,%eax
   109e8:	0f 86 89 fd ff ff    	jbe    10777 <func_47+0x54a>
   109ee:	66 c7 05 71 76 00 00 	movw   $0x5,0x7671(%rip)        # 18068 <g_210>
   109f5:	05 00 
   109f7:	eb 44                	jmp    10a3d <func_47+0x810>
   109f9:	48 8d 85 50 f8 ff ff 	lea    -0x7b0(%rbp),%rax
   10a00:	48 83 c0 3c          	add    $0x3c,%rax
   10a04:	48 89 85 08 ef ff ff 	mov    %rax,-0x10f8(%rbp)
   10a0b:	c7 05 3b 76 00 00 03 	movl   $0x3,0x763b(%rip)        # 18050 <g_135>
   10a12:	00 00 00 
   10a15:	90                   	nop
   10a16:	8b 05 34 76 00 00    	mov    0x7634(%rip),%eax        # 18050 <g_135>
   10a1c:	85 c0                	test   %eax,%eax
   10a1e:	78 0c                	js     10a2c <func_47+0x7ff>
   10a20:	48 8d 05 39 76 00 00 	lea    0x7639(%rip),%rax        # 18060 <g_151>
   10a27:	e9 23 13 00 00       	jmpq   11d4f <func_47+0x1b22>
   10a2c:	0f b7 05 35 76 00 00 	movzwl 0x7635(%rip),%eax        # 18068 <g_210>
   10a33:	83 e8 01             	sub    $0x1,%eax
   10a36:	66 89 05 2b 76 00 00 	mov    %ax,0x762b(%rip)        # 18068 <g_210>
   10a3d:	0f b7 05 24 76 00 00 	movzwl 0x7624(%rip),%eax        # 18068 <g_210>
   10a44:	66 85 c0             	test   %ax,%ax
   10a47:	79 b0                	jns    109f9 <func_47+0x7cc>
   10a49:	c7 05 e1 75 00 00 00 	movl   $0x0,0x75e1(%rip)        # 18034 <g_30>
   10a50:	00 00 00 
   10a53:	90                   	nop
   10a54:	8b 05 da 75 00 00    	mov    0x75da(%rip),%eax        # 18034 <g_30>
   10a5a:	83 f8 05             	cmp    $0x5,%eax
   10a5d:	77 0c                	ja     10a6b <func_47+0x83e>
   10a5f:	48 8d 05 fa 75 00 00 	lea    0x75fa(%rip),%rax        # 18060 <g_151>
   10a66:	e9 e4 12 00 00       	jmpq   11d4f <func_47+0x1b22>
   10a6b:	8b 85 34 ee ff ff    	mov    -0x11cc(%rbp),%eax
   10a71:	83 c0 01             	add    $0x1,%eax
   10a74:	89 85 34 ee ff ff    	mov    %eax,-0x11cc(%rbp)
   10a7a:	8b 85 34 ee ff ff    	mov    -0x11cc(%rbp),%eax
   10a80:	83 f8 05             	cmp    $0x5,%eax
   10a83:	0f 8e cb fc ff ff    	jle    10754 <func_47+0x527>
   10a89:	48 8d 05 d0 75 00 00 	lea    0x75d0(%rip),%rax        # 18060 <g_151>
   10a90:	e9 ba 12 00 00       	jmpq   11d4f <func_47+0x1b22>
   10a95:	48 8d 05 bc 75 00 00 	lea    0x75bc(%rip),%rax        # 18058 <g_146>
   10a9c:	48 89 85 50 f8 ff ff 	mov    %rax,-0x7b0(%rbp)
   10aa3:	48 c7 85 58 f8 ff ff 	movq   $0x0,-0x7a8(%rbp)
   10aaa:	00 00 00 00 
   10aae:	48 8d 05 a3 75 00 00 	lea    0x75a3(%rip),%rax        # 18058 <g_146>
   10ab5:	48 89 85 60 f8 ff ff 	mov    %rax,-0x7a0(%rbp)
   10abc:	48 c7 85 68 f8 ff ff 	movq   $0x0,-0x798(%rbp)
   10ac3:	00 00 00 00 
   10ac7:	48 8d 05 8a 75 00 00 	lea    0x758a(%rip),%rax        # 18058 <g_146>
   10ace:	48 89 85 70 f8 ff ff 	mov    %rax,-0x790(%rbp)
   10ad5:	48 c7 85 78 f8 ff ff 	movq   $0x0,-0x788(%rbp)
   10adc:	00 00 00 00 
   10ae0:	48 8d 05 71 75 00 00 	lea    0x7571(%rip),%rax        # 18058 <g_146>
   10ae7:	48 89 85 80 f8 ff ff 	mov    %rax,-0x780(%rbp)
   10aee:	48 c7 85 88 f8 ff ff 	movq   $0x0,-0x778(%rbp)
   10af5:	00 00 00 00 
   10af9:	48 8d 05 58 75 00 00 	lea    0x7558(%rip),%rax        # 18058 <g_146>
   10b00:	48 89 85 90 f8 ff ff 	mov    %rax,-0x770(%rbp)
   10b07:	48 c7 85 98 f8 ff ff 	movq   $0x0,-0x768(%rbp)
   10b0e:	00 00 00 00 
   10b12:	48 8d 85 50 f8 ff ff 	lea    -0x7b0(%rbp),%rax
   10b19:	48 83 c0 18          	add    $0x18,%rax
   10b1d:	48 89 85 b0 ee ff ff 	mov    %rax,-0x1150(%rbp)
   10b24:	c6 05 1d 75 00 00 00 	movb   $0x0,0x751d(%rip)        # 18048 <g_95>
   10b2b:	90                   	nop
   10b2c:	0f b6 05 15 75 00 00 	movzbl 0x7515(%rip),%eax        # 18048 <g_95>
   10b33:	3c 08                	cmp    $0x8,%al
   10b35:	0f 8e 96 00 00 00    	jle    10bd1 <func_47+0x9a4>
   10b3b:	48 c7 85 18 ef ff ff 	movq   $0x0,-0x10e8(%rbp)
   10b42:	00 00 00 00 
   10b46:	48 8d 85 b0 ee ff ff 	lea    -0x1150(%rbp),%rax
   10b4d:	48 89 85 d0 f5 ff ff 	mov    %rax,-0xa30(%rbp)
   10b54:	48 8d 85 b0 ee ff ff 	lea    -0x1150(%rbp),%rax
   10b5b:	48 89 85 d8 f5 ff ff 	mov    %rax,-0xa28(%rbp)
   10b62:	48 8d 85 b0 ee ff ff 	lea    -0x1150(%rbp),%rax
   10b69:	48 89 85 e0 f5 ff ff 	mov    %rax,-0xa20(%rbp)
   10b70:	48 8d 85 b0 ee ff ff 	lea    -0x1150(%rbp),%rax
   10b77:	48 89 85 e8 f5 ff ff 	mov    %rax,-0xa18(%rbp)
   10b7e:	48 8d 85 b0 ee ff ff 	lea    -0x1150(%rbp),%rax
   10b85:	48 89 85 f0 f5 ff ff 	mov    %rax,-0xa10(%rbp)
   10b8c:	48 8d 85 b0 ee ff ff 	lea    -0x1150(%rbp),%rax
   10b93:	48 89 85 f8 f5 ff ff 	mov    %rax,-0xa08(%rbp)
   10b9a:	48 8d 85 b0 ee ff ff 	lea    -0x1150(%rbp),%rax
   10ba1:	48 89 85 00 f6 ff ff 	mov    %rax,-0xa00(%rbp)
   10ba8:	48 8d 05 b1 74 00 00 	lea    0x74b1(%rip),%rax        # 18060 <g_151>
   10baf:	48 89 85 20 ef ff ff 	mov    %rax,-0x10e0(%rbp)
   10bb6:	48 8b 85 b0 ee ff ff 	mov    -0x1150(%rbp),%rax
   10bbd:	48 89 05 44 95 00 00 	mov    %rax,0x9544(%rip)        # 1a108 <g_235>
   10bc4:	48 8b 85 20 ef ff ff 	mov    -0x10e0(%rbp),%rax
   10bcb:	e9 7f 11 00 00       	jmpq   11d4f <func_47+0x1b22>
   10bd0:	90                   	nop
   10bd1:	48 c7 05 5c 74 00 00 	movq   $0xd,0x745c(%rip)        # 18038 <g_44>
   10bd8:	0d 00 00 00 
   10bdc:	e9 56 11 00 00       	jmpq   11d37 <func_47+0x1b0a>
   10be1:	48 8d 85 34 ee ff ff 	lea    -0x11cc(%rbp),%rax
   10be8:	48 89 85 28 ef ff ff 	mov    %rax,-0x10d8(%rbp)
   10bef:	48 8d 85 e0 f1 ff ff 	lea    -0xe20(%rbp),%rax
   10bf6:	48 05 50 01 00 00    	add    $0x150,%rax
   10bfc:	48 89 85 30 ef ff ff 	mov    %rax,-0x10d0(%rbp)
   10c03:	48 8d 85 34 ee ff ff 	lea    -0x11cc(%rbp),%rax
   10c0a:	48 89 85 38 ef ff ff 	mov    %rax,-0x10c8(%rbp)
   10c11:	48 8d 85 34 ee ff ff 	lea    -0x11cc(%rbp),%rax
   10c18:	48 89 85 98 ee ff ff 	mov    %rax,-0x1168(%rbp)
   10c1f:	48 8d 05 9a 75 00 00 	lea    0x759a(%rip),%rax        # 181c0 <g_263>
   10c26:	48 89 85 40 ef ff ff 	mov    %rax,-0x10c0(%rbp)
   10c2d:	48 c7 85 48 ef ff ff 	movq   $0x0,-0x10b8(%rbp)
   10c34:	00 00 00 00 
   10c38:	48 c7 85 50 ef ff ff 	movq   $0x0,-0x10b0(%rbp)
   10c3f:	00 00 00 00 
   10c43:	48 c7 85 58 ef ff ff 	movq   $0x0,-0x10a8(%rbp)
   10c4a:	00 00 00 00 
   10c4e:	48 8d 05 eb 73 00 00 	lea    0x73eb(%rip),%rax        # 18040 <g_72>
   10c55:	48 89 85 60 ef ff ff 	mov    %rax,-0x10a0(%rbp)
   10c5c:	48 c7 85 68 ef ff ff 	movq   $0x0,-0x1098(%rbp)
   10c63:	00 00 00 00 
   10c67:	48 8d 85 d0 f5 ff ff 	lea    -0xa30(%rbp),%rax
   10c6e:	48 8d 15 cb 88 00 00 	lea    0x88cb(%rip),%rdx        # 19540 <g_1266+0x1020>
   10c75:	b9 50 00 00 00       	mov    $0x50,%ecx
   10c7a:	48 89 c7             	mov    %rax,%rdi
   10c7d:	48 89 d6             	mov    %rdx,%rsi
   10c80:	f3 48 a5             	rep movsq %ds:(%rsi),%es:(%rdi)
   10c83:	48 8d 85 50 f8 ff ff 	lea    -0x7b0(%rbp),%rax
   10c8a:	48 8d 15 2f 8b 00 00 	lea    0x8b2f(%rip),%rdx        # 197c0 <g_1266+0x12a0>
   10c91:	b9 f0 00 00 00       	mov    $0xf0,%ecx
   10c96:	48 89 c7             	mov    %rax,%rdi
   10c99:	48 89 d6             	mov    %rdx,%rsi
   10c9c:	f3 48 a5             	rep movsq %ds:(%rsi),%es:(%rdi)
   10c9f:	48 c7 85 70 ef ff ff 	movq   $0x0,-0x1090(%rbp)
   10ca6:	00 00 00 00 
   10caa:	48 c7 85 78 ef ff ff 	movq   $0x0,-0x1088(%rbp)
   10cb1:	00 00 00 00 
   10cb5:	48 8d 85 98 ee ff ff 	lea    -0x1168(%rbp),%rax
   10cbc:	48 89 85 80 ef ff ff 	mov    %rax,-0x1080(%rbp)
   10cc3:	c7 85 44 ee ff ff 00 	movl   $0x0,-0x11bc(%rbp)
   10cca:	00 00 00 
   10ccd:	eb 1e                	jmp    10ced <func_47+0xac0>
   10ccf:	8b 85 44 ee ff ff    	mov    -0x11bc(%rbp),%eax
   10cd5:	48 98                	cltq   
   10cd7:	48 8d 95 34 ee ff ff 	lea    -0x11cc(%rbp),%rdx
   10cde:	48 89 94 c5 e0 ef ff 	mov    %rdx,-0x1020(%rbp,%rax,8)
   10ce5:	ff 
   10ce6:	83 85 44 ee ff ff 01 	addl   $0x1,-0x11bc(%rbp)
   10ced:	83 bd 44 ee ff ff 03 	cmpl   $0x3,-0x11bc(%rbp)
   10cf4:	7e d9                	jle    10ccf <func_47+0xaa2>
   10cf6:	0f b7 05 6b 73 00 00 	movzwl 0x736b(%rip),%eax        # 18068 <g_210>
   10cfd:	66 85 c0             	test   %ax,%ax
   10d00:	74 05                	je     10d07 <func_47+0xada>
   10d02:	e9 87 f8 ff ff       	jmpq   1058e <func_47+0x361>
   10d07:	8b 05 2b 74 00 00    	mov    0x742b(%rip),%eax        # 18138 <g_248+0xb8>
   10d0d:	83 c0 01             	add    $0x1,%eax
   10d10:	89 05 22 74 00 00    	mov    %eax,0x7422(%rip)        # 18138 <g_248+0xb8>
   10d16:	8b 85 70 f2 ff ff    	mov    -0xd90(%rbp),%eax
   10d1c:	0f b6 d8             	movzbl %al,%ebx
   10d1f:	48 8b 85 28 ee ff ff 	mov    -0x11d8(%rbp),%rax
   10d26:	41 89 c5             	mov    %eax,%r13d
   10d29:	0f b7 85 32 ee ff ff 	movzwl -0x11ce(%rbp),%eax
   10d30:	44 0f b6 e0          	movzbl %al,%r12d
   10d34:	48 8b 05 dd 93 00 00 	mov    0x93dd(%rip),%rax        # 1a118 <g_275>
   10d3b:	48 39 85 e0 ee ff ff 	cmp    %rax,-0x1120(%rbp)
   10d42:	0f 95 c0             	setne  %al
   10d45:	0f b6 d0             	movzbl %al,%edx
   10d48:	0f b7 05 19 73 00 00 	movzwl 0x7319(%rip),%eax        # 18068 <g_210>
   10d4f:	21 d0                	and    %edx,%eax
   10d51:	66 89 05 10 73 00 00 	mov    %ax,0x7310(%rip)        # 18068 <g_210>
   10d58:	0f b7 05 09 73 00 00 	movzwl 0x7309(%rip),%eax        # 18068 <g_210>
   10d5f:	0f bf d0             	movswl %ax,%edx
   10d62:	48 8b 85 98 ee ff ff 	mov    -0x1168(%rbp),%rax
   10d69:	8b 00                	mov    (%rax),%eax
   10d6b:	98                   	cwtl   
   10d6c:	89 d6                	mov    %edx,%esi
   10d6e:	89 c7                	mov    %eax,%edi
   10d70:	e8 80 56 ff ff       	callq  63f5 <safe_mul_func_int16_t_s_s>
   10d75:	98                   	cwtl   
   10d76:	f7 d0                	not    %eax
   10d78:	89 c1                	mov    %eax,%ecx
   10d7a:	48 8b 85 60 ef ff ff 	mov    -0x10a0(%rbp),%rax
   10d81:	48 8b 10             	mov    (%rax),%rdx
   10d84:	48 63 c1             	movslq %ecx,%rax
   10d87:	48 09 c2             	or     %rax,%rdx
   10d8a:	48 8b 85 60 ef ff ff 	mov    -0x10a0(%rbp),%rax
   10d91:	48 89 10             	mov    %rdx,(%rax)
   10d94:	48 8b 85 60 ef ff ff 	mov    -0x10a0(%rbp),%rax
   10d9b:	48 8b 10             	mov    (%rax),%rdx
   10d9e:	48 8b 85 28 ef ff ff 	mov    -0x10d8(%rbp),%rax
   10da5:	8b 00                	mov    (%rax),%eax
   10da7:	48 98                	cltq   
   10da9:	48 39 c2             	cmp    %rax,%rdx
   10dac:	7d 1e                	jge    10dcc <func_47+0xb9f>
   10dae:	48 8b 85 28 ef ff ff 	mov    -0x10d8(%rbp),%rax
   10db5:	8b 00                	mov    (%rax),%eax
   10db7:	85 c0                	test   %eax,%eax
   10db9:	74 11                	je     10dcc <func_47+0xb9f>
   10dbb:	48 83 bd 28 ee ff ff 	cmpq   $0x0,-0x11d8(%rbp)
   10dc2:	00 
   10dc3:	74 07                	je     10dcc <func_47+0xb9f>
   10dc5:	b8 01 00 00 00       	mov    $0x1,%eax
   10dca:	eb 05                	jmp    10dd1 <func_47+0xba4>
   10dcc:	b8 00 00 00 00       	mov    $0x0,%eax
   10dd1:	be ff ff ff ff       	mov    $0xffffffff,%esi
   10dd6:	89 c7                	mov    %eax,%edi
   10dd8:	e8 f3 60 ff ff       	callq  6ed0 <safe_sub_func_uint32_t_u_u>
   10ddd:	0f bf d0             	movswl %ax,%edx
   10de0:	48 8b 85 28 ee ff ff 	mov    -0x11d8(%rbp),%rax
   10de7:	98                   	cwtl   
   10de8:	89 d6                	mov    %edx,%esi
   10dea:	89 c7                	mov    %eax,%edi
   10dec:	e8 04 56 ff ff       	callq  63f5 <safe_mul_func_int16_t_s_s>
   10df1:	48 0f bf c0          	movswq %ax,%rax
   10df5:	48 39 85 28 ee ff ff 	cmp    %rax,-0x11d8(%rbp)
   10dfc:	0f 96 c0             	setbe  %al
   10dff:	0f b6 d0             	movzbl %al,%edx
   10e02:	48 8b 85 30 ef ff ff 	mov    -0x10d0(%rbp),%rax
   10e09:	8b 00                	mov    (%rax),%eax
   10e0b:	83 f8 01             	cmp    $0x1,%eax
   10e0e:	0f 97 c0             	seta   %al
   10e11:	0f b6 c0             	movzbl %al,%eax
   10e14:	89 d6                	mov    %edx,%esi
   10e16:	89 c7                	mov    %eax,%edi
   10e18:	e8 f5 53 ff ff       	callq  6212 <safe_mul_func_int8_t_s_s>
   10e1d:	48 8b 85 40 ef ff ff 	mov    -0x10c0(%rbp),%rax
   10e24:	0f b7 00             	movzwl (%rax),%eax
   10e27:	8d 50 01             	lea    0x1(%rax),%edx
   10e2a:	48 8b 85 40 ef ff ff 	mov    -0x10c0(%rbp),%rax
   10e31:	66 89 10             	mov    %dx,(%rax)
   10e34:	0f b7 85 32 ee ff ff 	movzwl -0x11ce(%rbp),%eax
   10e3b:	0f b6 c0             	movzbl %al,%eax
   10e3e:	be 00 00 00 00       	mov    $0x0,%esi
   10e43:	89 c7                	mov    %eax,%edi
   10e45:	e8 02 5e ff ff       	callq  6c4c <safe_lshift_func_uint8_t_u_u>
   10e4a:	44 89 e6             	mov    %r12d,%esi
   10e4d:	bf 01 00 00 00       	mov    $0x1,%edi
   10e52:	e8 3c 5d ff ff       	callq  6b93 <safe_mul_func_uint8_t_u_u>
   10e57:	0f b6 c0             	movzbl %al,%eax
   10e5a:	44 89 ee             	mov    %r13d,%esi
   10e5d:	89 c7                	mov    %eax,%edi
   10e5f:	e8 5a 5f ff ff       	callq  6dbe <safe_lshift_func_uint16_t_u_s>
   10e64:	89 de                	mov    %ebx,%esi
   10e66:	bf c5 00 00 00       	mov    $0xc5,%edi
   10e6b:	e8 08 5d ff ff       	callq  6b78 <safe_sub_func_uint8_t_u_u>
   10e70:	be c7 00 00 00       	mov    $0xc7,%esi
   10e75:	bf 00 00 00 00       	mov    $0x0,%edi
   10e7a:	e8 db 5c ff ff       	callq  6b5a <safe_add_func_uint8_t_u_u>
   10e7f:	0f b6 c0             	movzbl %al,%eax
   10e82:	89 85 b0 f2 ff ff    	mov    %eax,-0xd50(%rbp)
   10e88:	c6 05 33 73 00 00 00 	movb   $0x0,0x7333(%rip)        # 181c2 <g_288>
   10e8f:	0f b6 05 2c 73 00 00 	movzbl 0x732c(%rip),%eax        # 181c2 <g_288>
   10e96:	84 c0                	test   %al,%al
   10e98:	75 11                	jne    10eab <func_47+0xc7e>
   10e9a:	48 8b 85 98 ee ff ff 	mov    -0x1168(%rbp),%rax
   10ea1:	8b 00                	mov    (%rax),%eax
   10ea3:	85 c0                	test   %eax,%eax
   10ea5:	0f 84 db 01 00 00    	je     11086 <func_47+0xe59>
   10eab:	48 c7 85 b8 ef ff ff 	movq   $0x1,-0x1048(%rbp)
   10eb2:	01 00 00 00 
   10eb6:	48 8b 85 38 ef ff ff 	mov    -0x10c8(%rbp),%rax
   10ebd:	c7 00 41 b7 9a 3c    	movl   $0x3c9ab741,(%rax)
   10ec3:	48 8b 85 38 ef ff ff 	mov    -0x10c8(%rbp),%rax
   10eca:	8b 10                	mov    (%rax),%edx
   10ecc:	48 8b 85 30 ef ff ff 	mov    -0x10d0(%rbp),%rax
   10ed3:	8b 00                	mov    (%rax),%eax
   10ed5:	31 c2                	xor    %eax,%edx
   10ed7:	48 8b 85 30 ef ff ff 	mov    -0x10d0(%rbp),%rax
   10ede:	89 10                	mov    %edx,(%rax)
   10ee0:	0f b7 05 81 71 00 00 	movzwl 0x7181(%rip),%eax        # 18068 <g_210>
   10ee7:	0f bf d8             	movswl %ax,%ebx
   10eea:	0f b6 05 3f 71 00 00 	movzbl 0x713f(%rip),%eax        # 18030 <g_27>
   10ef1:	84 c0                	test   %al,%al
   10ef3:	0f 85 bf 00 00 00    	jne    10fb8 <func_47+0xd8b>
   10ef9:	48 8b 85 b8 ef ff ff 	mov    -0x1048(%rbp),%rax
   10f00:	41 89 c4             	mov    %eax,%r12d
   10f03:	8b 05 a7 71 00 00    	mov    0x71a7(%rip),%eax        # 180b0 <g_248+0x30>
   10f09:	f7 d0                	not    %eax
   10f0b:	89 c0                	mov    %eax,%eax
   10f0d:	48 be 5f 8e 75 2a 28 	movabs $0x91a1ce282a758e5f,%rsi
   10f14:	ce a1 91 
   10f17:	48 89 c7             	mov    %rax,%rdi
   10f1a:	e8 0f 61 ff ff       	callq  702e <safe_add_func_uint64_t_u_u>
   10f1f:	89 c2                	mov    %eax,%edx
   10f21:	48 8b 85 28 ef ff ff 	mov    -0x10d8(%rbp),%rax
   10f28:	89 10                	mov    %edx,(%rax)
   10f2a:	48 8b 85 28 ef ff ff 	mov    -0x10d8(%rbp),%rax
   10f31:	8b 00                	mov    (%rax),%eax
   10f33:	44 89 e6             	mov    %r12d,%esi
   10f36:	89 c7                	mov    %eax,%edi
   10f38:	e8 c2 57 ff ff       	callq  66ff <safe_div_func_int32_t_s_s>
   10f3d:	48 8b 05 d4 91 00 00 	mov    0x91d4(%rip),%rax        # 1a118 <g_275>
   10f44:	48 8b 00             	mov    (%rax),%rax
   10f47:	48 83 bd e8 ee ff ff 	cmpq   $0x0,-0x1118(%rbp)
   10f4e:	00 
   10f4f:	0f 94 c0             	sete   %al
   10f52:	0f b6 c0             	movzbl %al,%eax
   10f55:	be 00 00 00 00       	mov    $0x0,%esi
   10f5a:	89 c7                	mov    %eax,%edi
   10f5c:	e8 72 54 ff ff       	callq  63d3 <safe_sub_func_int16_t_s_s>
   10f61:	48 0f bf c0          	movswq %ax,%rax
   10f65:	48 39 85 b8 ef ff ff 	cmp    %rax,-0x1048(%rbp)
   10f6c:	0f 92 c0             	setb   %al
   10f6f:	89 c2                	mov    %eax,%edx
   10f71:	8b 05 e9 70 00 00    	mov    0x70e9(%rip),%eax        # 18060 <g_151>
   10f77:	31 d0                	xor    %edx,%eax
   10f79:	0f b6 c0             	movzbl %al,%eax
   10f7c:	be 8a 00 00 00       	mov    $0x8a,%esi
   10f81:	89 c7                	mov    %eax,%edi
   10f83:	e8 26 5c ff ff       	callq  6bae <safe_mod_func_uint8_t_u_u>
   10f88:	0f b6 d0             	movzbl %al,%edx
   10f8b:	48 8b 85 30 ef ff ff 	mov    -0x10d0(%rbp),%rax
   10f92:	89 10                	mov    %edx,(%rax)
   10f94:	48 8b 85 30 ef ff ff 	mov    -0x10d0(%rbp),%rax
   10f9b:	8b 00                	mov    (%rax),%eax
   10f9d:	85 c0                	test   %eax,%eax
   10f9f:	75 17                	jne    10fb8 <func_47+0xd8b>
   10fa1:	48 8b 85 30 ef ff ff 	mov    -0x10d0(%rbp),%rax
   10fa8:	8b 00                	mov    (%rax),%eax
   10faa:	85 c0                	test   %eax,%eax
   10fac:	75 0a                	jne    10fb8 <func_47+0xd8b>
   10fae:	8b 05 e8 70 00 00    	mov    0x70e8(%rip),%eax        # 1809c <g_248+0x1c>
   10fb4:	85 c0                	test   %eax,%eax
   10fb6:	74 07                	je     10fbf <func_47+0xd92>
   10fb8:	b8 01 00 00 00       	mov    $0x1,%eax
   10fbd:	eb 05                	jmp    10fc4 <func_47+0xd97>
   10fbf:	b8 00 00 00 00       	mov    $0x0,%eax
   10fc4:	0f b6 c0             	movzbl %al,%eax
   10fc7:	be 00 00 00 00       	mov    $0x0,%esi
   10fcc:	89 c7                	mov    %eax,%edi
   10fce:	e8 ba 5c ff ff       	callq  6c8d <safe_rshift_func_uint8_t_u_s>
   10fd3:	48 8b 05 36 91 00 00 	mov    0x9136(%rip),%rax        # 1a110 <g_277>
   10fda:	0f b6 00             	movzbl (%rax),%eax
   10fdd:	0f be c0             	movsbl %al,%eax
   10fe0:	89 de                	mov    %ebx,%esi
   10fe2:	89 c7                	mov    %eax,%edi
   10fe4:	e8 05 53 ff ff       	callq  62ee <safe_lshift_func_int8_t_s_u>
   10fe9:	8b 05 71 70 00 00    	mov    0x7071(%rip),%eax        # 18060 <g_151>
   10fef:	85 c0                	test   %eax,%eax
   10ff1:	75 0c                	jne    10fff <func_47+0xdd2>
   10ff3:	48 8b 05 46 70 00 00 	mov    0x7046(%rip),%rax        # 18040 <g_72>
   10ffa:	48 85 c0             	test   %rax,%rax
   10ffd:	74 07                	je     11006 <func_47+0xdd9>
   10fff:	b8 01 00 00 00       	mov    $0x1,%eax
   11004:	eb 05                	jmp    1100b <func_47+0xdde>
   11006:	b8 00 00 00 00       	mov    $0x0,%eax
   1100b:	83 f8 01             	cmp    $0x1,%eax
   1100e:	74 10                	je     11020 <func_47+0xdf3>
   11010:	83 bd 48 ee ff ff 00 	cmpl   $0x0,-0x11b8(%rbp)
   11017:	74 07                	je     11020 <func_47+0xdf3>
   11019:	ba 01 00 00 00       	mov    $0x1,%edx
   1101e:	eb 05                	jmp    11025 <func_47+0xdf8>
   11020:	ba 00 00 00 00       	mov    $0x0,%edx
   11025:	48 8b 05 ec 90 00 00 	mov    0x90ec(%rip),%rax        # 1a118 <g_275>
   1102c:	48 8b 00             	mov    (%rax),%rax
   1102f:	48 8b 00             	mov    (%rax),%rax
   11032:	0f b6 00             	movzbl (%rax),%eax
   11035:	0f be c0             	movsbl %al,%eax
   11038:	39 c2                	cmp    %eax,%edx
   1103a:	7e 11                	jle    1104d <func_47+0xe20>
   1103c:	48 83 bd 28 ee ff ff 	cmpq   $0x0,-0x11d8(%rbp)
   11043:	00 
   11044:	74 07                	je     1104d <func_47+0xe20>
   11046:	b8 01 00 00 00       	mov    $0x1,%eax
   1104b:	eb 05                	jmp    11052 <func_47+0xe25>
   1104d:	b8 00 00 00 00       	mov    $0x0,%eax
   11052:	48 98                	cltq   
   11054:	48 8b 95 28 ee ff ff 	mov    -0x11d8(%rbp),%rdx
   1105b:	48 89 d6             	mov    %rdx,%rsi
   1105e:	48 89 c7             	mov    %rax,%rdi
   11061:	e8 e5 5f ff ff       	callq  704b <safe_sub_func_uint64_t_u_u>
   11066:	48 39 85 28 ee ff ff 	cmp    %rax,-0x11d8(%rbp)
   1106d:	0f 97 c0             	seta   %al
   11070:	0f b6 d0             	movzbl %al,%edx
   11073:	8b 05 d3 6f 00 00    	mov    0x6fd3(%rip),%eax        # 1804c <g_115>
   11079:	21 d0                	and    %edx,%eax
   1107b:	89 05 cb 6f 00 00    	mov    %eax,0x6fcb(%rip)        # 1804c <g_115>
   11081:	e9 80 0c 00 00       	jmpq   11d06 <func_47+0x1ad9>
   11086:	48 b8 4c a7 1f ea b7 	movabs $0x3968a6b7ea1fa74c,%rax
   1108d:	a6 68 39 
   11090:	48 89 85 a0 ee ff ff 	mov    %rax,-0x1160(%rbp)
   11097:	48 8d 85 88 ee ff ff 	lea    -0x1178(%rbp),%rax
   1109e:	48 89 85 88 ef ff ff 	mov    %rax,-0x1078(%rbp)
   110a5:	c7 85 58 ee ff ff 00 	movl   $0x0,-0x11a8(%rbp)
   110ac:	00 00 00 
   110af:	c7 85 5c ee ff ff 01 	movl   $0x1,-0x11a4(%rbp)
   110b6:	00 00 00 
   110b9:	c7 85 60 ee ff ff fc 	movl   $0xfffffffc,-0x11a0(%rbp)
   110c0:	ff ff ff 
   110c3:	0f b7 85 54 f0 ff ff 	movzwl -0xfac(%rbp),%eax
   110ca:	83 c0 01             	add    $0x1,%eax
   110cd:	66 89 85 54 f0 ff ff 	mov    %ax,-0xfac(%rbp)
   110d4:	66 c7 05 e3 70 00 00 	movw   $0xffeb,0x70e3(%rip)        # 181c0 <g_263>
   110db:	eb ff 
   110dd:	e9 13 0c 00 00       	jmpq   11cf5 <func_47+0x1ac8>
   110e2:	c7 85 64 ee ff ff 01 	movl   $0x1,-0x119c(%rbp)
   110e9:	00 00 00 
   110ec:	48 8d 85 70 f3 ff ff 	lea    -0xc90(%rbp),%rax
   110f3:	48 8d 15 26 39 00 00 	lea    0x3926(%rip),%rdx        # 14a20 <g_991+0x9cc>
   110fa:	b9 4b 00 00 00       	mov    $0x4b,%ecx
   110ff:	48 89 c7             	mov    %rax,%rdi
   11102:	48 89 d6             	mov    %rdx,%rsi
   11105:	f3 48 a5             	rep movsq %ds:(%rsi),%es:(%rdi)
   11108:	c7 85 68 ee ff ff ff 	movl   $0xffffffff,-0x1198(%rbp)
   1110f:	ff ff ff 
   11112:	66 c7 85 c0 ef ff ff 	movw   $0x6bdb,-0x1040(%rbp)
   11119:	db 6b 
   1111b:	66 c7 85 c2 ef ff ff 	movw   $0x2,-0x103e(%rbp)
   11122:	02 00 
   11124:	66 c7 85 c4 ef ff ff 	movw   $0xffff,-0x103c(%rbp)
   1112b:	ff ff 
   1112d:	66 c7 85 c6 ef ff ff 	movw   $0xffff,-0x103a(%rbp)
   11134:	ff ff 
   11136:	66 c7 85 c8 ef ff ff 	movw   $0x2,-0x1038(%rbp)
   1113d:	02 00 
   1113f:	66 c7 85 ca ef ff ff 	movw   $0x6bdb,-0x1036(%rbp)
   11146:	db 6b 
   11148:	66 c7 85 cc ef ff ff 	movw   $0xfffe,-0x1034(%rbp)
   1114f:	fe ff 
   11151:	66 c7 85 ce ef ff ff 	movw   $0x6bdb,-0x1032(%rbp)
   11158:	db 6b 
   1115a:	66 c7 85 d0 ef ff ff 	movw   $0x2,-0x1030(%rbp)
   11161:	02 00 
   11163:	66 c7 85 d2 ef ff ff 	movw   $0xffff,-0x102e(%rbp)
   1116a:	ff ff 
   1116c:	66 c7 85 d4 ef ff ff 	movw   $0xffff,-0x102c(%rbp)
   11173:	ff ff 
   11175:	66 c7 85 d6 ef ff ff 	movw   $0x2,-0x102a(%rbp)
   1117c:	02 00 
   1117e:	66 c7 85 d8 ef ff ff 	movw   $0x6bdb,-0x1028(%rbp)
   11185:	db 6b 
   11187:	66 c7 85 da ef ff ff 	movw   $0xfffe,-0x1026(%rbp)
   1118e:	fe ff 
   11190:	48 b8 b6 54 51 79 22 	movabs $0xa15c8c22795154b6,%rax
   11197:	8c 5c a1 
   1119a:	48 89 85 b8 ee ff ff 	mov    %rax,-0x1148(%rbp)
   111a1:	c7 85 38 ee ff ff 3f 	movl   $0xa872e3f,-0x11c8(%rbp)
   111a8:	2e 87 0a 
   111ab:	48 8d 05 8e 6e 00 00 	lea    0x6e8e(%rip),%rax        # 18040 <g_72>
   111b2:	48 89 85 b0 f0 ff ff 	mov    %rax,-0xf50(%rbp)
   111b9:	48 8d 05 80 6e 00 00 	lea    0x6e80(%rip),%rax        # 18040 <g_72>
   111c0:	48 89 85 b8 f0 ff ff 	mov    %rax,-0xf48(%rbp)
   111c7:	48 8d 85 a0 ee ff ff 	lea    -0x1160(%rbp),%rax
   111ce:	48 89 85 c0 f0 ff ff 	mov    %rax,-0xf40(%rbp)
   111d5:	48 8d 05 64 6e 00 00 	lea    0x6e64(%rip),%rax        # 18040 <g_72>
   111dc:	48 89 85 c8 f0 ff ff 	mov    %rax,-0xf38(%rbp)
   111e3:	48 8d 05 56 6e 00 00 	lea    0x6e56(%rip),%rax        # 18040 <g_72>
   111ea:	48 89 85 d0 f0 ff ff 	mov    %rax,-0xf30(%rbp)
   111f1:	48 8d 85 a0 ee ff ff 	lea    -0x1160(%rbp),%rax
   111f8:	48 89 85 d8 f0 ff ff 	mov    %rax,-0xf28(%rbp)
   111ff:	48 8d 05 3a 6e 00 00 	lea    0x6e3a(%rip),%rax        # 18040 <g_72>
   11206:	48 89 85 e0 f0 ff ff 	mov    %rax,-0xf20(%rbp)
   1120d:	48 8d 05 2c 6e 00 00 	lea    0x6e2c(%rip),%rax        # 18040 <g_72>
   11214:	48 89 85 e8 f0 ff ff 	mov    %rax,-0xf18(%rbp)
   1121b:	48 8d 85 a0 ee ff ff 	lea    -0x1160(%rbp),%rax
   11222:	48 89 85 f0 f0 ff ff 	mov    %rax,-0xf10(%rbp)
   11229:	c6 05 19 6e 00 00 00 	movb   $0x0,0x6e19(%rip)        # 18049 <g_97>
   11230:	e9 61 03 00 00       	jmpq   11596 <func_47+0x1369>
   11235:	48 8d 05 8c 6f 00 00 	lea    0x6f8c(%rip),%rax        # 181c8 <g_317>
   1123c:	48 89 85 a8 ee ff ff 	mov    %rax,-0x1158(%rbp)
   11243:	48 8d 85 a8 ee ff ff 	lea    -0x1158(%rbp),%rax
   1124a:	48 89 85 b0 ee ff ff 	mov    %rax,-0x1150(%rbp)
   11251:	48 8d 85 b0 ee ff ff 	lea    -0x1150(%rbp),%rax
   11258:	48 89 85 00 f1 ff ff 	mov    %rax,-0xf00(%rbp)
   1125f:	48 c7 85 08 f1 ff ff 	movq   $0x0,-0xef8(%rbp)
   11266:	00 00 00 00 
   1126a:	48 8d 85 b0 ee ff ff 	lea    -0x1150(%rbp),%rax
   11271:	48 89 85 10 f1 ff ff 	mov    %rax,-0xef0(%rbp)
   11278:	48 c7 85 18 f1 ff ff 	movq   $0x0,-0xee8(%rbp)
   1127f:	00 00 00 00 
   11283:	48 8d 85 b0 ee ff ff 	lea    -0x1150(%rbp),%rax
   1128a:	48 89 85 20 f1 ff ff 	mov    %rax,-0xee0(%rbp)
   11291:	48 c7 85 28 f1 ff ff 	movq   $0x0,-0xed8(%rbp)
   11298:	00 00 00 00 
   1129c:	48 8d 85 b0 ee ff ff 	lea    -0x1150(%rbp),%rax
   112a3:	48 89 85 30 f1 ff ff 	mov    %rax,-0xed0(%rbp)
   112aa:	48 c7 85 38 f1 ff ff 	movq   $0x0,-0xec8(%rbp)
   112b1:	00 00 00 00 
   112b5:	48 8d 85 b0 ee ff ff 	lea    -0x1150(%rbp),%rax
   112bc:	48 89 85 40 f1 ff ff 	mov    %rax,-0xec0(%rbp)
   112c3:	0f b6 05 7f 6d 00 00 	movzbl 0x6d7f(%rip),%eax        # 18049 <g_97>
   112ca:	0f be c0             	movsbl %al,%eax
   112cd:	48 98                	cltq   
   112cf:	48 8d 14 00          	lea    (%rax,%rax,1),%rdx
   112d3:	48 8d 05 96 6d 00 00 	lea    0x6d96(%rip),%rax        # 18070 <g_246>
   112da:	0f b7 04 02          	movzwl (%rdx,%rax,1),%eax
   112de:	0f bf d8             	movswl %ax,%ebx
   112e1:	48 8b 85 d0 ee ff ff 	mov    -0x1130(%rbp),%rax
   112e8:	66 c7 00 02 00       	movw   $0x2,(%rax)
   112ed:	48 8b 85 a8 ee ff ff 	mov    -0x1158(%rbp),%rax
   112f4:	48 8b 08             	mov    (%rax),%rcx
   112f7:	0f b6 05 4b 6d 00 00 	movzbl 0x6d4b(%rip),%eax        # 18049 <g_97>
   112fe:	0f be c0             	movsbl %al,%eax
   11301:	8d 50 03             	lea    0x3(%rax),%edx
   11304:	0f b6 05 3e 6d 00 00 	movzbl 0x6d3e(%rip),%eax        # 18049 <g_97>
   1130b:	0f be c0             	movsbl %al,%eax
   1130e:	48 98                	cltq   
   11310:	48 63 d2             	movslq %edx,%rdx
   11313:	48 c1 e2 02          	shl    $0x2,%rdx
   11317:	48 01 d0             	add    %rdx,%rax
   1131a:	0f b7 84 45 60 f0 ff 	movzwl -0xfa0(%rbp,%rax,2),%eax
   11321:	ff 
   11322:	0f b7 d0             	movzwl %ax,%edx
   11325:	48 8b 85 a8 ee ff ff 	mov    -0x1158(%rbp),%rax
   1132c:	48 31 ca             	xor    %rcx,%rdx
   1132f:	48 89 10             	mov    %rdx,(%rax)
   11332:	48 8d 05 d7 97 00 00 	lea    0x97d7(%rip),%rax        # 1ab10 <g_123>
   11339:	48 89 05 d8 97 00 00 	mov    %rax,0x97d8(%rip)        # 1ab18 <g_322>
   11340:	48 8b 05 d1 97 00 00 	mov    0x97d1(%rip),%rax        # 1ab18 <g_322>
   11347:	48 89 05 d2 8d 00 00 	mov    %rax,0x8dd2(%rip)        # 1a120 <g_323>
   1134e:	8b 05 b4 97 00 00    	mov    0x97b4(%rip),%eax        # 1ab08 <g_106>
   11354:	85 c0                	test   %eax,%eax
   11356:	0f 9e c0             	setle  %al
   11359:	0f b6 c0             	movzbl %al,%eax
   1135c:	be 01 00 00 00       	mov    $0x1,%esi
   11361:	89 c7                	mov    %eax,%edi
   11363:	e8 9e 5a ff ff       	callq  6e06 <safe_lshift_func_uint16_t_u_u>
   11368:	b8 01 00 00 00       	mov    $0x1,%eax
   1136d:	39 d8                	cmp    %ebx,%eax
   1136f:	0f 9d c0             	setge  %al
   11372:	0f b6 c0             	movzbl %al,%eax
   11375:	48 c7 c6 fc ff ff ff 	mov    $0xfffffffffffffffc,%rsi
   1137c:	48 89 c7             	mov    %rax,%rdi
   1137f:	e8 c7 5c ff ff       	callq  704b <safe_sub_func_uint64_t_u_u>
   11384:	48 3d ee 04 00 00    	cmp    $0x4ee,%rax
   1138a:	0f 94 c0             	sete   %al
   1138d:	0f b6 c8             	movzbl %al,%ecx
   11390:	48 8b 85 98 ee ff ff 	mov    -0x1168(%rbp),%rax
   11397:	8b 10                	mov    (%rax),%edx
   11399:	48 8b 85 98 ee ff ff 	mov    -0x1168(%rbp),%rax
   113a0:	21 ca                	and    %ecx,%edx
   113a2:	89 10                	mov    %edx,(%rax)
   113a4:	c6 05 17 6e 00 00 02 	movb   $0x2,0x6e17(%rip)        # 181c2 <g_288>
   113ab:	eb 7f                	jmp    1142c <func_47+0x11ff>
   113ad:	0f b6 05 0e 6e 00 00 	movzbl 0x6e0e(%rip),%eax        # 181c2 <g_288>
   113b4:	0f b6 c0             	movzbl %al,%eax
   113b7:	0f b6 15 8b 6c 00 00 	movzbl 0x6c8b(%rip),%edx        # 18049 <g_97>
   113be:	0f be d2             	movsbl %dl,%edx
   113c1:	83 c2 06             	add    $0x6,%edx
   113c4:	48 63 ca             	movslq %edx,%rcx
   113c7:	48 63 d0             	movslq %eax,%rdx
   113ca:	48 89 d0             	mov    %rdx,%rax
   113cd:	48 c1 e0 02          	shl    $0x2,%rax
   113d1:	48 01 d0             	add    %rdx,%rax
   113d4:	48 01 c0             	add    %rax,%rax
   113d7:	48 01 c8             	add    %rcx,%rax
   113da:	48 8d 14 85 00 00 00 	lea    0x0(,%rax,4),%rdx
   113e1:	00 
   113e2:	48 8d 05 97 6c 00 00 	lea    0x6c97(%rip),%rax        # 18080 <g_248>
   113e9:	8b 04 02             	mov    (%rdx,%rax,1),%eax
   113ec:	85 c0                	test   %eax,%eax
   113ee:	75 4d                	jne    1143d <func_47+0x1210>
   113f0:	48 8b 85 28 ef ff ff 	mov    -0x10d8(%rbp),%rax
   113f7:	8b 00                	mov    (%rax),%eax
   113f9:	89 c6                	mov    %eax,%esi
   113fb:	bf ff 00 00 00       	mov    $0xff,%edi
   11400:	e8 88 58 ff ff       	callq  6c8d <safe_rshift_func_uint8_t_u_s>
   11405:	48 8b 95 30 ef ff ff 	mov    -0x10d0(%rbp),%rdx
   1140c:	8b 12                	mov    (%rdx),%edx
   1140e:	0f b6 c0             	movzbl %al,%eax
   11411:	09 c2                	or     %eax,%edx
   11413:	48 8b 85 30 ef ff ff 	mov    -0x10d0(%rbp),%rax
   1141a:	89 10                	mov    %edx,(%rax)
   1141c:	0f b6 05 9f 6d 00 00 	movzbl 0x6d9f(%rip),%eax        # 181c2 <g_288>
   11423:	83 c0 01             	add    $0x1,%eax
   11426:	88 05 96 6d 00 00    	mov    %al,0x6d96(%rip)        # 181c2 <g_288>
   1142c:	0f b6 05 8f 6d 00 00 	movzbl 0x6d8f(%rip),%eax        # 181c2 <g_288>
   11433:	3c 07                	cmp    $0x7,%al
   11435:	0f 86 72 ff ff ff    	jbe    113ad <func_47+0x1180>
   1143b:	eb 01                	jmp    1143e <func_47+0x1211>
   1143d:	90                   	nop
   1143e:	c7 05 ec 6b 00 00 00 	movl   $0x0,0x6bec(%rip)        # 18034 <g_30>
   11445:	00 00 00 
   11448:	eb 40                	jmp    1148a <func_47+0x125d>
   1144a:	0f b6 05 f8 6b 00 00 	movzbl 0x6bf8(%rip),%eax        # 18049 <g_97>
   11451:	0f be c0             	movsbl %al,%eax
   11454:	83 c0 04             	add    $0x4,%eax
   11457:	8b 15 d7 6b 00 00    	mov    0x6bd7(%rip),%edx        # 18034 <g_30>
   1145d:	89 d1                	mov    %edx,%ecx
   1145f:	48 63 d0             	movslq %eax,%rdx
   11462:	48 89 d0             	mov    %rdx,%rax
   11465:	48 01 c0             	add    %rax,%rax
   11468:	48 01 d0             	add    %rdx,%rax
   1146b:	48 01 c8             	add    %rcx,%rax
   1146e:	0f b7 84 45 30 f0 ff 	movzwl -0xfd0(%rbp,%rax,2),%eax
   11475:	ff 
   11476:	66 85 c0             	test   %ax,%ax
   11479:	75 1c                	jne    11497 <func_47+0x126a>
   1147b:	8b 05 b3 6b 00 00    	mov    0x6bb3(%rip),%eax        # 18034 <g_30>
   11481:	83 c0 01             	add    $0x1,%eax
   11484:	89 05 aa 6b 00 00    	mov    %eax,0x6baa(%rip)        # 18034 <g_30>
   1148a:	8b 05 a4 6b 00 00    	mov    0x6ba4(%rip),%eax        # 18034 <g_30>
   11490:	83 f8 02             	cmp    $0x2,%eax
   11493:	76 b5                	jbe    1144a <func_47+0x121d>
   11495:	eb 01                	jmp    11498 <func_47+0x126b>
   11497:	90                   	nop
   11498:	c7 05 aa 6b 00 00 00 	movl   $0x0,0x6baa(%rip)        # 1804c <g_115>
   1149f:	00 00 00 
   114a2:	e9 d0 00 00 00       	jmpq   11577 <func_47+0x134a>
   114a7:	48 8d 05 62 96 00 00 	lea    0x9662(%rip),%rax        # 1ab10 <g_123>
   114ae:	48 89 85 b0 ef ff ff 	mov    %rax,-0x1050(%rbp)
   114b5:	48 8b 85 28 ee ff ff 	mov    -0x11d8(%rbp),%rax
   114bc:	48 f7 d0             	not    %rax
   114bf:	48 39 85 28 ee ff ff 	cmp    %rax,-0x11d8(%rbp)
   114c6:	0f 93 c0             	setae  %al
   114c9:	88 05 f3 6c 00 00    	mov    %al,0x6cf3(%rip)        # 181c2 <g_288>
   114cf:	48 8b 05 4a 8c 00 00 	mov    0x8c4a(%rip),%rax        # 1a120 <g_323>
   114d6:	48 8b 00             	mov    (%rax),%rax
   114d9:	48 85 c0             	test   %rax,%rax
   114dc:	48 8b 85 98 ee ff ff 	mov    -0x1168(%rbp),%rax
   114e3:	8b 00                	mov    (%rax),%eax
   114e5:	0f b7 d8             	movzwl %ax,%ebx
   114e8:	48 8b 85 a0 ee ff ff 	mov    -0x1160(%rbp),%rax
   114ef:	89 c1                	mov    %eax,%ecx
   114f1:	48 83 bd 28 ee ff ff 	cmpq   $0x0,-0x11d8(%rbp)
   114f8:	00 
   114f9:	75 09                	jne    11504 <func_47+0x12d7>
   114fb:	83 bd 64 ee ff ff 00 	cmpl   $0x0,-0x119c(%rbp)
   11502:	74 07                	je     1150b <func_47+0x12de>
   11504:	b8 01 00 00 00       	mov    $0x1,%eax
   11509:	eb 05                	jmp    11510 <func_47+0x12e3>
   1150b:	b8 00 00 00 00       	mov    $0x0,%eax
   11510:	48 63 d0             	movslq %eax,%rdx
   11513:	48 8b 85 a0 ee ff ff 	mov    -0x1160(%rbp),%rax
   1151a:	48 39 c2             	cmp    %rax,%rdx
   1151d:	0f 9c c0             	setl   %al
   11520:	0f b6 c0             	movzbl %al,%eax
   11523:	89 ce                	mov    %ecx,%esi
   11525:	89 c7                	mov    %eax,%edi
   11527:	e8 fe 4f ff ff       	callq  652a <safe_rshift_func_int16_t_s_s>
   1152c:	0f b7 c0             	movzwl %ax,%eax
   1152f:	89 de                	mov    %ebx,%esi
   11531:	89 c7                	mov    %eax,%edi
   11533:	e8 05 58 ff ff       	callq  6d3d <safe_mul_func_uint16_t_u_u>
   11538:	48 8b 85 b0 ef ff ff 	mov    -0x1050(%rbp),%rax
   1153f:	48 89 05 d2 95 00 00 	mov    %rax,0x95d2(%rip)        # 1ab18 <g_322>
   11546:	48 8b 05 cb 95 00 00 	mov    0x95cb(%rip),%rax        # 1ab18 <g_322>
   1154d:	48 39 85 88 ef ff ff 	cmp    %rax,-0x1078(%rbp)
   11554:	0f 95 c0             	setne  %al
   11557:	0f b6 d0             	movzbl %al,%edx
   1155a:	8b 85 b0 f5 ff ff    	mov    -0xa50(%rbp),%eax
   11560:	31 d0                	xor    %edx,%eax
   11562:	89 85 b0 f5 ff ff    	mov    %eax,-0xa50(%rbp)
   11568:	8b 05 de 6a 00 00    	mov    0x6ade(%rip),%eax        # 1804c <g_115>
   1156e:	83 c0 01             	add    $0x1,%eax
   11571:	89 05 d5 6a 00 00    	mov    %eax,0x6ad5(%rip)        # 1804c <g_115>
   11577:	8b 05 cf 6a 00 00    	mov    0x6acf(%rip),%eax        # 1804c <g_115>
   1157d:	83 f8 02             	cmp    $0x2,%eax
   11580:	0f 8e 21 ff ff ff    	jle    114a7 <func_47+0x127a>
   11586:	0f b6 05 bc 6a 00 00 	movzbl 0x6abc(%rip),%eax        # 18049 <g_97>
   1158d:	83 c0 01             	add    $0x1,%eax
   11590:	88 05 b3 6a 00 00    	mov    %al,0x6ab3(%rip)        # 18049 <g_97>
   11596:	0f b6 05 ac 6a 00 00 	movzbl 0x6aac(%rip),%eax        # 18049 <g_97>
   1159d:	3c 03                	cmp    $0x3,%al
   1159f:	0f 8e 90 fc ff ff    	jle    11235 <func_47+0x1008>
   115a5:	48 8b 85 a0 ee ff ff 	mov    -0x1160(%rbp),%rax
   115ac:	48 85 c0             	test   %rax,%rax
   115af:	74 11                	je     115c2 <func_47+0x1395>
   115b1:	48 83 bd 28 ee ff ff 	cmpq   $0x0,-0x11d8(%rbp)
   115b8:	00 
   115b9:	74 07                	je     115c2 <func_47+0x1395>
   115bb:	b8 01 00 00 00       	mov    $0x1,%eax
   115c0:	eb 05                	jmp    115c7 <func_47+0x139a>
   115c2:	b8 00 00 00 00       	mov    $0x0,%eax
   115c7:	48 63 d0             	movslq %eax,%rdx
   115ca:	48 8b 85 a0 ee ff ff 	mov    -0x1160(%rbp),%rax
   115d1:	48 39 c2             	cmp    %rax,%rdx
   115d4:	0f 95 c0             	setne  %al
   115d7:	0f b6 d0             	movzbl %al,%edx
   115da:	48 8b 85 38 ef ff ff 	mov    -0x10c8(%rbp),%rax
   115e1:	89 10                	mov    %edx,(%rax)
   115e3:	c7 85 48 ee ff ff 00 	movl   $0x0,-0x11b8(%rbp)
   115ea:	00 00 00 
   115ed:	e9 91 04 00 00       	jmpq   11a83 <func_47+0x1856>
   115f2:	66 c7 85 30 ee ff ff 	movw   $0xfffc,-0x11d0(%rbp)
   115f9:	fc ff 
   115fb:	c7 85 3c ee ff ff 01 	movl   $0x1,-0x11c4(%rbp)
   11602:	00 00 00 
   11605:	c7 85 80 ee ff ff 06 	movl   $0x6,-0x1180(%rbp)
   1160c:	00 00 00 
   1160f:	48 8d 05 02 95 00 00 	lea    0x9502(%rip),%rax        # 1ab18 <g_322>
   11616:	48 89 85 a0 ef ff ff 	mov    %rax,-0x1060(%rbp)
   1161d:	c7 05 51 6a 00 00 17 	movl   $0x17,0x6a51(%rip)        # 18078 <g_247>
   11624:	00 00 00 
   11627:	e9 41 04 00 00       	jmpq   11a6d <func_47+0x1840>
   1162c:	48 8d 85 30 f0 ff ff 	lea    -0xfd0(%rbp),%rax
   11633:	48 83 c0 0e          	add    $0xe,%rax
   11637:	48 89 85 a8 ef ff ff 	mov    %rax,-0x1058(%rbp)
   1163e:	48 c7 85 00 f1 ff ff 	movq   $0x7,-0xf00(%rbp)
   11645:	07 00 00 00 
   11649:	48 c7 85 08 f1 ff ff 	movq   $0xffffffffffffffff,-0xef8(%rbp)
   11650:	ff ff ff ff 
   11654:	48 b8 a7 8d 0b 4d d0 	movabs $0xafbea2d04d0b8da7,%rax
   1165b:	a2 be af 
   1165e:	48 89 85 10 f1 ff ff 	mov    %rax,-0xef0(%rbp)
   11665:	48 89 85 18 f1 ff ff 	mov    %rax,-0xee8(%rbp)
   1166c:	48 bb 8d 2b c6 df 5d 	movabs $0x161e205ddfc62b8d,%rbx
   11673:	20 1e 16 
   11676:	48 89 9d 20 f1 ff ff 	mov    %rbx,-0xee0(%rbp)
   1167d:	48 89 9d 28 f1 ff ff 	mov    %rbx,-0xed8(%rbp)
   11684:	48 c7 85 30 f1 ff ff 	movq   $0x7,-0xed0(%rbp)
   1168b:	07 00 00 00 
   1168f:	48 89 85 38 f1 ff ff 	mov    %rax,-0xec8(%rbp)
   11696:	48 b9 6d b9 bf c1 11 	movabs $0x5e8a5a11c1bfb96d,%rcx
   1169d:	5a 8a 5e 
   116a0:	48 89 8d 40 f1 ff ff 	mov    %rcx,-0xec0(%rbp)
   116a7:	48 c7 85 48 f1 ff ff 	movq   $0xffffffffffffffff,-0xeb8(%rbp)
   116ae:	ff ff ff ff 
   116b2:	48 89 8d 50 f1 ff ff 	mov    %rcx,-0xeb0(%rbp)
   116b9:	48 c7 85 58 f1 ff ff 	movq   $0x7,-0xea8(%rbp)
   116c0:	07 00 00 00 
   116c4:	48 89 8d 60 f1 ff ff 	mov    %rcx,-0xea0(%rbp)
   116cb:	48 c7 85 68 f1 ff ff 	movq   $0x7,-0xe98(%rbp)
   116d2:	07 00 00 00 
   116d6:	48 c7 85 70 f1 ff ff 	movq   $0x7,-0xe90(%rbp)
   116dd:	07 00 00 00 
   116e1:	48 89 8d 78 f1 ff ff 	mov    %rcx,-0xe88(%rbp)
   116e8:	48 89 9d 80 f1 ff ff 	mov    %rbx,-0xe80(%rbp)
   116ef:	48 c7 85 88 f1 ff ff 	movq   $0x7,-0xe78(%rbp)
   116f6:	07 00 00 00 
   116fa:	48 89 85 90 f1 ff ff 	mov    %rax,-0xe70(%rbp)
   11701:	48 c7 85 98 f1 ff ff 	movq   $0x7,-0xe68(%rbp)
   11708:	07 00 00 00 
   1170c:	48 c7 85 a0 f1 ff ff 	movq   $0x7,-0xe60(%rbp)
   11713:	07 00 00 00 
   11717:	48 c7 85 a8 f1 ff ff 	movq   $0xffffffffffffffff,-0xe58(%rbp)
   1171e:	ff ff ff ff 
   11722:	48 89 85 b0 f1 ff ff 	mov    %rax,-0xe50(%rbp)
   11729:	48 89 85 b8 f1 ff ff 	mov    %rax,-0xe48(%rbp)
   11730:	48 89 9d c0 f1 ff ff 	mov    %rbx,-0xe40(%rbp)
   11737:	48 89 9d c8 f1 ff ff 	mov    %rbx,-0xe38(%rbp)
   1173e:	48 c7 85 d0 f1 ff ff 	movq   $0x7,-0xe30(%rbp)
   11745:	07 00 00 00 
   11749:	48 89 85 d8 f1 ff ff 	mov    %rax,-0xe28(%rbp)
   11750:	c7 85 84 ee ff ff ad 	movl   $0xc18b79ad,-0x117c(%rbp)
   11757:	79 8b c1 
   1175a:	48 8b 05 b7 89 00 00 	mov    0x89b7(%rip),%rax        # 1a118 <g_275>
   11761:	48 8b 00             	mov    (%rax),%rax
   11764:	48 8b 00             	mov    (%rax),%rax
   11767:	0f b6 00             	movzbl (%rax),%eax
   1176a:	66 44 0f be e0       	movsbw %al,%r12w
   1176f:	0f b7 05 f2 68 00 00 	movzwl 0x68f2(%rip),%eax        # 18068 <g_210>
   11776:	0f bf d8             	movswl %ax,%ebx
   11779:	48 8b 85 28 ee ff ff 	mov    -0x11d8(%rbp),%rax
   11780:	41 89 c6             	mov    %eax,%r14d
   11783:	66 83 85 30 ee ff ff 	addw   $0x1,-0x11d0(%rbp)
   1178a:	01 
   1178b:	0f b7 85 30 ee ff ff 	movzwl -0x11d0(%rbp),%eax
   11792:	0f b6 c0             	movzbl %al,%eax
   11795:	be 07 00 00 00       	mov    $0x7,%esi
   1179a:	89 c7                	mov    %eax,%edi
   1179c:	e8 ab 54 ff ff       	callq  6c4c <safe_lshift_func_uint8_t_u_u>
   117a1:	0f b6 d0             	movzbl %al,%edx
   117a4:	48 8b 85 a8 ef ff ff 	mov    -0x1058(%rbp),%rax
   117ab:	66 89 10             	mov    %dx,(%rax)
   117ae:	0f b7 05 af 68 00 00 	movzwl 0x68af(%rip),%eax        # 18064 <g_201>
   117b5:	89 c2                	mov    %eax,%edx
   117b7:	8b 05 3f 69 00 00    	mov    0x693f(%rip),%eax        # 180fc <g_248+0x7c>
   117bd:	89 85 b0 f5 ff ff    	mov    %eax,-0xa50(%rbp)
   117c3:	8b 85 b0 f5 ff ff    	mov    -0xa50(%rbp),%eax
   117c9:	31 d0                	xor    %edx,%eax
   117cb:	0f b6 c0             	movzbl %al,%eax
   117ce:	be 04 00 00 00       	mov    $0x4,%esi
   117d3:	89 c7                	mov    %eax,%edi
   117d5:	e8 2b 54 ff ff       	callq  6c05 <safe_lshift_func_uint8_t_u_s>
   117da:	0f b6 d0             	movzbl %al,%edx
   117dd:	0f b7 05 dc 69 00 00 	movzwl 0x69dc(%rip),%eax        # 181c0 <g_263>
   117e4:	66 39 c2             	cmp    %ax,%dx
   117e7:	0f 92 c0             	setb   %al
   117ea:	44 0f b6 e8          	movzbl %al,%r13d
   117ee:	48 8b 85 20 f1 ff ff 	mov    -0xee0(%rbp),%rax
   117f5:	0f be d0             	movsbl %al,%edx
   117f8:	48 8b 85 28 ee ff ff 	mov    -0x11d8(%rbp),%rax
   117ff:	0f be c0             	movsbl %al,%eax
   11802:	89 d6                	mov    %edx,%esi
   11804:	89 c7                	mov    %eax,%edi
   11806:	e8 07 4a ff ff       	callq  6212 <safe_mul_func_int8_t_s_s>
   1180b:	0f be c0             	movsbl %al,%eax
   1180e:	44 09 e8             	or     %r13d,%eax
   11811:	21 85 3c ee ff ff    	and    %eax,-0x11c4(%rbp)
   11817:	c7 85 68 ee ff ff 00 	movl   $0x0,-0x1198(%rbp)
   1181e:	00 00 00 
   11821:	8b 85 68 ee ff ff    	mov    -0x1198(%rbp),%eax
   11827:	89 85 80 ee ff ff    	mov    %eax,-0x1180(%rbp)
   1182d:	83 bd 80 ee ff ff 00 	cmpl   $0x0,-0x1180(%rbp)
   11834:	75 0a                	jne    11840 <func_47+0x1613>
   11836:	0f b7 85 cc ef ff ff 	movzwl -0x1034(%rbp),%eax
   1183d:	66 85 c0             	test   %ax,%ax
   11840:	0f b7 85 cc ef ff ff 	movzwl -0x1034(%rbp),%eax
   11847:	98                   	cwtl   
   11848:	44 89 f6             	mov    %r14d,%esi
   1184b:	89 c7                	mov    %eax,%edi
   1184d:	e8 40 4c ff ff       	callq  6492 <safe_lshift_func_int16_t_s_s>
   11852:	48 8b 85 b8 ee ff ff 	mov    -0x1148(%rbp),%rax
   11859:	0f b6 c0             	movzbl %al,%eax
   1185c:	89 de                	mov    %ebx,%esi
   1185e:	89 c7                	mov    %eax,%edi
   11860:	e8 e7 53 ff ff       	callq  6c4c <safe_lshift_func_uint8_t_u_u>
   11865:	0f b6 d0             	movzbl %al,%edx
   11868:	48 8b 05 a9 88 00 00 	mov    0x88a9(%rip),%rax        # 1a118 <g_275>
   1186f:	48 8b 00             	mov    (%rax),%rax
   11872:	48 8b 00             	mov    (%rax),%rax
   11875:	0f b6 00             	movzbl (%rax),%eax
   11878:	66 98                	cbtw   
   1187a:	f7 d0                	not    %eax
   1187c:	98                   	cwtl   
   1187d:	89 d6                	mov    %edx,%esi
   1187f:	89 c7                	mov    %eax,%edi
   11881:	e8 90 4b ff ff       	callq  6416 <safe_mod_func_int16_t_s_s>
   11886:	66 41 39 c4          	cmp    %ax,%r12w
   1188a:	0f 95 c0             	setne  %al
   1188d:	0f b6 c0             	movzbl %al,%eax
   11890:	09 85 38 ee ff ff    	or     %eax,-0x11c8(%rbp)
   11896:	48 83 bd 28 ee ff ff 	cmpq   $0x0,-0x11d8(%rbp)
   1189d:	00 
   1189e:	0f 85 34 01 00 00    	jne    119d8 <func_47+0x17ab>
   118a4:	8b 05 a2 67 00 00    	mov    0x67a2(%rip),%eax        # 1804c <g_115>
   118aa:	0f bf d8             	movswl %ax,%ebx
   118ad:	0f b7 85 ca ef ff ff 	movzwl -0x1036(%rbp),%eax
   118b4:	66 85 c0             	test   %ax,%ax
   118b7:	0f 84 e5 00 00 00    	je     119a2 <func_47+0x1775>
   118bd:	44 8b 25 74 68 00 00 	mov    0x6874(%rip),%r12d        # 18138 <g_248+0xb8>
   118c4:	48 83 bd a0 ef ff ff 	cmpq   $0x0,-0x1060(%rbp)
   118cb:	00 
   118cc:	0f 84 93 00 00 00    	je     11965 <func_47+0x1738>
   118d2:	be 0c 00 00 00       	mov    $0xc,%esi
   118d7:	bf 86 4c 00 00       	mov    $0x4c86,%edi
   118dc:	e8 99 55 ff ff       	callq  6e7a <safe_rshift_func_uint16_t_u_u>
   118e1:	0f b7 d0             	movzwl %ax,%edx
   118e4:	8b 85 3c ee ff ff    	mov    -0x11c4(%rbp),%eax
   118ea:	48 98                	cltq   
   118ec:	48 39 85 28 ee ff ff 	cmp    %rax,-0x11d8(%rbp)
   118f3:	0f 95 c0             	setne  %al
   118f6:	0f b6 c0             	movzbl %al,%eax
   118f9:	39 c2                	cmp    %eax,%edx
   118fb:	0f 9f c0             	setg   %al
   118fe:	0f b6 c0             	movzbl %al,%eax
   11901:	8b 15 49 67 00 00    	mov    0x6749(%rip),%edx        # 18050 <g_135>
   11907:	21 d0                	and    %edx,%eax
   11909:	98                   	cwtl   
   1190a:	be 0f 00 00 00       	mov    $0xf,%esi
   1190f:	89 c7                	mov    %eax,%edi
   11911:	e8 14 4c ff ff       	callq  652a <safe_rshift_func_int16_t_s_s>
   11916:	48 8b 85 a0 f1 ff ff 	mov    -0xe60(%rbp),%rax
   1191d:	48 83 f8 01          	cmp    $0x1,%rax
   11921:	0f 95 c0             	setne  %al
   11924:	0f b6 d0             	movzbl %al,%edx
   11927:	0f b7 05 92 68 00 00 	movzwl 0x6892(%rip),%eax        # 181c0 <g_263>
   1192e:	0f b7 c0             	movzwl %ax,%eax
   11931:	89 d6                	mov    %edx,%esi
   11933:	89 c7                	mov    %eax,%edi
   11935:	e8 03 54 ff ff       	callq  6d3d <safe_mul_func_uint16_t_u_u>
   1193a:	be 07 00 00 00       	mov    $0x7,%esi
   1193f:	bf 01 00 00 00       	mov    $0x1,%edi
   11944:	e8 31 55 ff ff       	callq  6e7a <safe_rshift_func_uint16_t_u_u>
   11949:	0f b7 d0             	movzwl %ax,%edx
   1194c:	48 8b 05 75 68 00 00 	mov    0x6875(%rip),%rax        # 181c8 <g_317>
   11953:	48 09 d0             	or     %rdx,%rax
   11956:	48 3d 1c 0e d9 2d    	cmp    $0x2dd90e1c,%rax
   1195c:	77 07                	ja     11965 <func_47+0x1738>
   1195e:	b8 01 00 00 00       	mov    $0x1,%eax
   11963:	eb 05                	jmp    1196a <func_47+0x173d>
   11965:	b8 00 00 00 00       	mov    $0x0,%eax
   1196a:	83 f8 fb             	cmp    $0xfffffffb,%eax
   1196d:	0f 96 c0             	setbe  %al
   11970:	0f b6 c0             	movzbl %al,%eax
   11973:	be f9 ff 00 00       	mov    $0xfff9,%esi
   11978:	89 c7                	mov    %eax,%edi
   1197a:	e8 0f 54 ff ff       	callq  6d8e <safe_div_func_uint16_t_u_u>
   1197f:	48 83 bd 28 ee ff ff 	cmpq   $0x0,-0x11d8(%rbp)
   11986:	00 
   11987:	74 11                	je     1199a <func_47+0x176d>
   11989:	48 83 bd 28 ee ff ff 	cmpq   $0x0,-0x11d8(%rbp)
   11990:	00 
   11991:	74 07                	je     1199a <func_47+0x176d>
   11993:	b8 01 00 00 00       	mov    $0x1,%eax
   11998:	eb 05                	jmp    1199f <func_47+0x1772>
   1199a:	b8 00 00 00 00       	mov    $0x0,%eax
   1199f:	41 39 c4             	cmp    %eax,%r12d
   119a2:	48 8b 05 57 87 00 00 	mov    0x8757(%rip),%rax        # 1a100 <g_236>
   119a9:	48 8b 00             	mov    (%rax),%rax
   119ac:	48 ba 62 02 dc 30 43 	movabs $0x2734244330dc0262,%rdx
   119b3:	24 34 27 
   119b6:	48 39 d0             	cmp    %rdx,%rax
   119b9:	0f 9e c0             	setle  %al
   119bc:	0f b6 c0             	movzbl %al,%eax
   119bf:	89 de                	mov    %ebx,%esi
   119c1:	89 c7                	mov    %eax,%edi
   119c3:	e8 8d 4a ff ff       	callq  6455 <safe_div_func_int16_t_s_s>
   119c8:	48 0f bf d0          	movswq %ax,%rdx
   119cc:	48 8b 05 65 66 00 00 	mov    0x6665(%rip),%rax        # 18038 <g_44>
   119d3:	48 39 c2             	cmp    %rax,%rdx
   119d6:	74 07                	je     119df <func_47+0x17b2>
   119d8:	bb 01 00 00 00       	mov    $0x1,%ebx
   119dd:	eb 05                	jmp    119e4 <func_47+0x17b7>
   119df:	bb 00 00 00 00       	mov    $0x0,%ebx
   119e4:	8b 05 76 66 00 00    	mov    0x6676(%rip),%eax        # 18060 <g_151>
   119ea:	83 e8 01             	sub    $0x1,%eax
   119ed:	89 05 6d 66 00 00    	mov    %eax,0x666d(%rip)        # 18060 <g_151>
   119f3:	8b 05 67 66 00 00    	mov    0x6667(%rip),%eax        # 18060 <g_151>
   119f9:	89 c7                	mov    %eax,%edi
   119fb:	e8 a6 54 ff ff       	callq  6ea6 <safe_unary_minus_func_uint32_t_u>
   11a00:	98                   	cwtl   
   11a01:	89 de                	mov    %ebx,%esi
   11a03:	89 c7                	mov    %eax,%edi
   11a05:	e8 20 4b ff ff       	callq  652a <safe_rshift_func_int16_t_s_s>
   11a0a:	48 8b 85 98 ee ff ff 	mov    -0x1168(%rbp),%rax
   11a11:	48 8b 95 30 ef ff ff 	mov    -0x10d0(%rbp),%rdx
   11a18:	8b 12                	mov    (%rdx),%edx
   11a1a:	89 10                	mov    %edx,(%rax)
   11a1c:	48 8b 85 30 ef ff ff 	mov    -0x10d0(%rbp),%rax
   11a23:	8b 10                	mov    (%rax),%edx
   11a25:	8b 8d 84 ee ff ff    	mov    -0x117c(%rbp),%ecx
   11a2b:	48 8b 85 20 f1 ff ff 	mov    -0xee0(%rbp),%rax
   11a32:	48 39 c1             	cmp    %rax,%rcx
   11a35:	0f 92 c0             	setb   %al
   11a38:	0f b6 c0             	movzbl %al,%eax
   11a3b:	09 c2                	or     %eax,%edx
   11a3d:	48 8b 85 30 ef ff ff 	mov    -0x10d0(%rbp),%rax
   11a44:	89 10                	mov    %edx,(%rax)
   11a46:	48 8b 85 98 ee ff ff 	mov    -0x1168(%rbp),%rax
   11a4d:	8b 10                	mov    (%rax),%edx
   11a4f:	48 8b 85 98 ee ff ff 	mov    -0x1168(%rbp),%rax
   11a56:	23 95 80 ee ff ff    	and    -0x1180(%rbp),%edx
   11a5c:	89 10                	mov    %edx,(%rax)
   11a5e:	8b 05 14 66 00 00    	mov    0x6614(%rip),%eax        # 18078 <g_247>
   11a64:	83 e8 01             	sub    $0x1,%eax
   11a67:	89 05 0b 66 00 00    	mov    %eax,0x660b(%rip)        # 18078 <g_247>
   11a6d:	8b 05 05 66 00 00    	mov    0x6605(%rip),%eax        # 18078 <g_247>
   11a73:	83 f8 f8             	cmp    $0xfffffff8,%eax
   11a76:	0f 8c b0 fb ff ff    	jl     1162c <func_47+0x13ff>
   11a7c:	83 85 48 ee ff ff 01 	addl   $0x1,-0x11b8(%rbp)
   11a83:	83 bd 48 ee ff ff 34 	cmpl   $0x34,-0x11b8(%rbp)
   11a8a:	0f 87 62 fb ff ff    	ja     115f2 <func_47+0x13c5>
   11a90:	48 c7 85 b8 ee ff ff 	movq   $0x0,-0x1148(%rbp)
   11a97:	00 00 00 00 
   11a9b:	e9 36 02 00 00       	jmpq   11cd6 <func_47+0x1aa9>
   11aa0:	c7 85 6c ee ff ff 78 	movl   $0x50ea9a78,-0x1194(%rbp)
   11aa7:	9a ea 50 
   11aaa:	48 c7 85 90 ef ff ff 	movq   $0x0,-0x1070(%rbp)
   11ab1:	00 00 00 00 
   11ab5:	c7 85 70 ee ff ff 01 	movl   $0x1,-0x1190(%rbp)
   11abc:	00 00 00 
   11abf:	c7 85 74 ee ff ff 04 	movl   $0x4,-0x118c(%rbp)
   11ac6:	00 00 00 
   11ac9:	c7 85 78 ee ff ff fa 	movl   $0xfffffffa,-0x1188(%rbp)
   11ad0:	ff ff ff 
   11ad3:	c7 85 7c ee ff ff 01 	movl   $0x1,-0x1184(%rbp)
   11ada:	00 00 00 
   11add:	48 8d 05 1a 67 00 00 	lea    0x671a(%rip),%rax        # 181fe <g_422>
   11ae4:	48 89 85 00 f1 ff ff 	mov    %rax,-0xf00(%rbp)
   11aeb:	48 8d 05 fa 66 00 00 	lea    0x66fa(%rip),%rax        # 181ec <g_419+0xc>
   11af2:	48 89 85 08 f1 ff ff 	mov    %rax,-0xef8(%rbp)
   11af9:	48 8d 05 fe 66 00 00 	lea    0x66fe(%rip),%rax        # 181fe <g_422>
   11b00:	48 89 85 10 f1 ff ff 	mov    %rax,-0xef0(%rbp)
   11b07:	48 8d 05 ed 66 00 00 	lea    0x66ed(%rip),%rax        # 181fb <g_421>
   11b0e:	48 89 85 18 f1 ff ff 	mov    %rax,-0xee8(%rbp)
   11b15:	48 8d 05 df 66 00 00 	lea    0x66df(%rip),%rax        # 181fb <g_421>
   11b1c:	48 89 85 20 f1 ff ff 	mov    %rax,-0xee0(%rbp)
   11b23:	48 8d 05 d4 66 00 00 	lea    0x66d4(%rip),%rax        # 181fe <g_422>
   11b2a:	48 89 85 28 f1 ff ff 	mov    %rax,-0xed8(%rbp)
   11b31:	48 8d 05 b4 66 00 00 	lea    0x66b4(%rip),%rax        # 181ec <g_419+0xc>
   11b38:	48 89 85 30 f1 ff ff 	mov    %rax,-0xed0(%rbp)
   11b3f:	48 8d 05 b8 66 00 00 	lea    0x66b8(%rip),%rax        # 181fe <g_422>
   11b46:	48 89 85 38 f1 ff ff 	mov    %rax,-0xec8(%rbp)
   11b4d:	48 8d 05 a7 66 00 00 	lea    0x66a7(%rip),%rax        # 181fb <g_421>
   11b54:	48 89 85 40 f1 ff ff 	mov    %rax,-0xec0(%rbp)
   11b5b:	48 8d 05 99 66 00 00 	lea    0x6699(%rip),%rax        # 181fb <g_421>
   11b62:	48 89 85 48 f1 ff ff 	mov    %rax,-0xeb8(%rbp)
   11b69:	48 8d 85 00 f1 ff ff 	lea    -0xf00(%rbp),%rax
   11b70:	48 83 c0 48          	add    $0x48,%rax
   11b74:	48 89 85 98 ef ff ff 	mov    %rax,-0x1068(%rbp)
   11b7b:	48 8b 85 a0 ee ff ff 	mov    -0x1160(%rbp),%rax
   11b82:	48 39 85 28 ee ff ff 	cmp    %rax,-0x11d8(%rbp)
   11b89:	0f 94 c0             	sete   %al
   11b8c:	0f b6 d0             	movzbl %al,%edx
   11b8f:	48 8b 85 d0 ee ff ff 	mov    -0x1130(%rbp),%rax
   11b96:	66 89 10             	mov    %dx,(%rax)
   11b99:	be 01 00 00 00       	mov    $0x1,%esi
   11b9e:	bf 01 00 00 00       	mov    $0x1,%edi
   11ba3:	e8 a0 52 ff ff       	callq  6e48 <safe_rshift_func_uint16_t_u_s>
   11ba8:	b8 00 00 00 00       	mov    $0x0,%eax
   11bad:	89 c2                	mov    %eax,%edx
   11baf:	8b 85 6c ee ff ff    	mov    -0x1194(%rbp),%eax
   11bb5:	09 d0                	or     %edx,%eax
   11bb7:	89 85 6c ee ff ff    	mov    %eax,-0x1194(%rbp)
   11bbd:	8b 85 6c ee ff ff    	mov    -0x1194(%rbp),%eax
   11bc3:	48 63 d8             	movslq %eax,%rbx
   11bc6:	48 8b 85 28 ee ff ff 	mov    -0x11d8(%rbp),%rax
   11bcd:	0f b7 d0             	movzwl %ax,%edx
   11bd0:	48 8b 85 58 ef ff ff 	mov    -0x10a8(%rbp),%rax
   11bd7:	48 89 85 f8 ee ff ff 	mov    %rax,-0x1108(%rbp)
   11bde:	48 8b 85 f8 ee ff ff 	mov    -0x1108(%rbp),%rax
   11be5:	48 89 85 d0 f0 ff ff 	mov    %rax,-0xf30(%rbp)
   11bec:	48 8b 85 d0 f0 ff ff 	mov    -0xf30(%rbp),%rax
   11bf3:	48 85 c0             	test   %rax,%rax
   11bf6:	0f 94 c0             	sete   %al
   11bf9:	0f b6 c0             	movzbl %al,%eax
   11bfc:	48 39 85 28 ee ff ff 	cmp    %rax,-0x11d8(%rbp)
   11c03:	0f 97 c0             	seta   %al
   11c06:	0f b6 c0             	movzbl %al,%eax
   11c09:	89 d6                	mov    %edx,%esi
   11c0b:	89 c7                	mov    %eax,%edi
   11c0d:	e8 2b 51 ff ff       	callq  6d3d <safe_mul_func_uint16_t_u_u>
   11c12:	66 35 85 2e          	xor    $0x2e85,%ax
   11c16:	0f b7 d0             	movzwl %ax,%edx
   11c19:	48 8b 85 60 ef ff ff 	mov    -0x10a0(%rbp),%rax
   11c20:	48 89 10             	mov    %rdx,(%rax)
   11c23:	48 8b 85 60 ef ff ff 	mov    -0x10a0(%rbp),%rax
   11c2a:	48 8b 00             	mov    (%rax),%rax
   11c2d:	83 f0 42             	xor    $0x42,%eax
   11c30:	0f b6 c0             	movzbl %al,%eax
   11c33:	8b 95 38 ee ff ff    	mov    -0x11c8(%rbp),%edx
   11c39:	89 d6                	mov    %edx,%esi
   11c3b:	89 c7                	mov    %eax,%edi
   11c3d:	e8 c3 4f ff ff       	callq  6c05 <safe_lshift_func_uint8_t_u_s>
   11c42:	0f b6 c0             	movzbl %al,%eax
   11c45:	48 8b 95 28 ee ff ff 	mov    -0x11d8(%rbp),%rdx
   11c4c:	48 89 d6             	mov    %rdx,%rsi
   11c4f:	48 89 c7             	mov    %rax,%rdi
   11c52:	e8 29 54 ff ff       	callq  7080 <safe_mod_func_uint64_t_u_u>
   11c57:	48 09 d8             	or     %rbx,%rax
   11c5a:	48 39 85 28 ee ff ff 	cmp    %rax,-0x11d8(%rbp)
   11c61:	76 0c                	jbe    11c6f <func_47+0x1a42>
   11c63:	48 8b 85 00 ef ff ff 	mov    -0x1100(%rbp),%rax
   11c6a:	e9 e0 00 00 00       	jmpq   11d4f <func_47+0x1b22>
   11c6f:	48 8b 85 38 ef ff ff 	mov    -0x10c8(%rbp),%rax
   11c76:	c7 00 03 00 00 00    	movl   $0x3,(%rax)
   11c7c:	8b 05 4e 65 00 00    	mov    0x654e(%rip),%eax        # 181d0 <g_412>
   11c82:	83 c0 01             	add    $0x1,%eax
   11c85:	89 05 45 65 00 00    	mov    %eax,0x6545(%rip)        # 181d0 <g_412>
   11c8b:	48 83 ad c8 ee ff ff 	subq   $0x1,-0x1138(%rbp)
   11c92:	01 
   11c93:	48 8b 95 40 f1 ff ff 	mov    -0xec0(%rbp),%rdx
   11c9a:	48 8b 85 98 ef ff ff 	mov    -0x1068(%rbp),%rax
   11ca1:	48 89 10             	mov    %rdx,(%rax)
   11ca4:	48 8b 85 98 ef ff ff 	mov    -0x1068(%rbp),%rax
   11cab:	48 8b 00             	mov    (%rax),%rax
   11cae:	48 89 05 83 84 00 00 	mov    %rax,0x8483(%rip)        # 1a138 <g_425>
   11cb5:	48 8b 85 b8 ee ff ff 	mov    -0x1148(%rbp),%rax
   11cbc:	0f be c0             	movsbl %al,%eax
   11cbf:	be 04 00 00 00       	mov    $0x4,%esi
   11cc4:	89 c7                	mov    %eax,%edi
   11cc6:	e8 09 45 ff ff       	callq  61d4 <safe_add_func_int8_t_s_s>
   11ccb:	48 0f be c0          	movsbq %al,%rax
   11ccf:	48 89 85 b8 ee ff ff 	mov    %rax,-0x1148(%rbp)
   11cd6:	48 83 bd b8 ee ff ff 	cmpq   $0x2f,-0x1148(%rbp)
   11cdd:	2f 
   11cde:	0f 87 bc fd ff ff    	ja     11aa0 <func_47+0x1873>
   11ce4:	0f b7 05 d5 64 00 00 	movzwl 0x64d5(%rip),%eax        # 181c0 <g_263>
   11ceb:	83 c0 01             	add    $0x1,%eax
   11cee:	66 89 05 cb 64 00 00 	mov    %ax,0x64cb(%rip)        # 181c0 <g_263>
   11cf5:	0f b7 05 c4 64 00 00 	movzwl 0x64c4(%rip),%eax        # 181c0 <g_263>
   11cfc:	66 83 f8 27          	cmp    $0x27,%ax
   11d00:	0f 84 dc f3 ff ff    	je     110e2 <func_47+0xeb5>
   11d06:	48 8b 85 80 ef ff ff 	mov    -0x1080(%rbp),%rax
   11d0d:	48 8d 15 f4 8d 00 00 	lea    0x8df4(%rip),%rdx        # 1ab08 <g_106>
   11d14:	48 89 10             	mov    %rdx,(%rax)
   11d17:	48 8b 05 1a 63 00 00 	mov    0x631a(%rip),%rax        # 18038 <g_44>
   11d1e:	0f b6 c0             	movzbl %al,%eax
   11d21:	be 09 00 00 00       	mov    $0x9,%esi
   11d26:	89 c7                	mov    %eax,%edi
   11d28:	e8 2d 4e ff ff       	callq  6b5a <safe_add_func_uint8_t_u_u>
   11d2d:	0f b6 c0             	movzbl %al,%eax
   11d30:	48 89 05 01 63 00 00 	mov    %rax,0x6301(%rip)        # 18038 <g_44>
   11d37:	48 8b 05 fa 62 00 00 	mov    0x62fa(%rip),%rax        # 18038 <g_44>
   11d3e:	48 83 f8 27          	cmp    $0x27,%rax
   11d42:	0f 86 99 ee ff ff    	jbe    10be1 <func_47+0x9b4>
   11d48:	48 8b 85 00 ef ff ff 	mov    -0x1100(%rbp),%rax
   11d4f:	48 8b 5d d8          	mov    -0x28(%rbp),%rbx
   11d53:	64 48 33 1c 25 28 00 	xor    %fs:0x28,%rbx
   11d5a:	00 00 
   11d5c:	74 05                	je     11d63 <func_47+0x1b36>
   11d5e:	e8 0d 43 ff ff       	callq  6070 <__stack_chk_fail@plt>
   11d63:	48 81 c4 c0 11 00 00 	add    $0x11c0,%rsp
   11d6a:	5b                   	pop    %rbx
   11d6b:	41 5c                	pop    %r12
   11d6d:	41 5d                	pop    %r13
   11d6f:	41 5e                	pop    %r14
   11d71:	5d                   	pop    %rbp
   11d72:	c3                   	retq   

0000000000011d73 <func_51>:
   11d73:	f3 0f 1e fa          	endbr64 
   11d77:	55                   	push   %rbp
   11d78:	48 89 e5             	mov    %rsp,%rbp
   11d7b:	89 7d ec             	mov    %edi,-0x14(%rbp)
   11d7e:	89 75 e8             	mov    %esi,-0x18(%rbp)
   11d81:	89 55 e4             	mov    %edx,-0x1c(%rbp)
   11d84:	48 89 4d d8          	mov    %rcx,-0x28(%rbp)
   11d88:	48 c7 45 f8 ff ff ff 	movq   $0xffffffffffffffff,-0x8(%rbp)
   11d8f:	ff 
   11d90:	48 8b 45 f8          	mov    -0x8(%rbp),%rax
   11d94:	5d                   	pop    %rbp
   11d95:	c3                   	retq   

0000000000011d96 <func_62>:
   11d96:	f3 0f 1e fa          	endbr64 
   11d9a:	55                   	push   %rbp
   11d9b:	48 89 e5             	mov    %rsp,%rbp
   11d9e:	41 57                	push   %r15
   11da0:	41 56                	push   %r14
   11da2:	41 55                	push   %r13
   11da4:	41 54                	push   %r12
   11da6:	53                   	push   %rbx
   11da7:	48 81 ec 98 05 00 00 	sub    $0x598,%rsp
   11dae:	48 89 bd 68 fa ff ff 	mov    %rdi,-0x598(%rbp)
   11db5:	89 f0                	mov    %esi,%eax
   11db7:	48 89 95 58 fa ff ff 	mov    %rdx,-0x5a8(%rbp)
   11dbe:	48 89 8d 50 fa ff ff 	mov    %rcx,-0x5b0(%rbp)
   11dc5:	44 89 85 60 fa ff ff 	mov    %r8d,-0x5a0(%rbp)
   11dcc:	88 85 64 fa ff ff    	mov    %al,-0x59c(%rbp)
   11dd2:	64 48 8b 04 25 28 00 	mov    %fs:0x28,%rax
   11dd9:	00 00 
   11ddb:	48 89 45 c8          	mov    %rax,-0x38(%rbp)
   11ddf:	31 c0                	xor    %eax,%eax
   11de1:	48 8d 05 50 62 00 00 	lea    0x6250(%rip),%rax        # 18038 <g_44>
   11de8:	48 89 85 98 fa ff ff 	mov    %rax,-0x568(%rbp)
   11def:	c7 85 90 fb ff ff 0d 	movl   $0xa002b50d,-0x470(%rbp)
   11df6:	b5 02 a0 
   11df9:	c7 85 94 fb ff ff ff 	movl   $0xffffffff,-0x46c(%rbp)
   11e00:	ff ff ff 
   11e03:	c7 85 98 fb ff ff 0d 	movl   $0xa002b50d,-0x468(%rbp)
   11e0a:	b5 02 a0 
   11e0d:	c7 85 9c fb ff ff 04 	movl   $0x4,-0x464(%rbp)
   11e14:	00 00 00 
   11e17:	c7 85 a0 fb ff ff 05 	movl   $0x5,-0x460(%rbp)
   11e1e:	00 00 00 
   11e21:	c7 85 a4 fb ff ff 04 	movl   $0x4,-0x45c(%rbp)
   11e28:	00 00 00 
   11e2b:	c7 85 a8 fb ff ff 0d 	movl   $0xa002b50d,-0x458(%rbp)
   11e32:	b5 02 a0 
   11e35:	c7 85 ac fb ff ff ff 	movl   $0xffffffff,-0x454(%rbp)
   11e3c:	ff ff ff 
   11e3f:	c7 85 b0 fb ff ff 0d 	movl   $0xa002b50d,-0x450(%rbp)
   11e46:	b5 02 a0 
   11e49:	c7 85 b4 fb ff ff 04 	movl   $0x4,-0x44c(%rbp)
   11e50:	00 00 00 
   11e53:	c7 85 b8 fb ff ff 05 	movl   $0x5,-0x448(%rbp)
   11e5a:	00 00 00 
   11e5d:	c7 85 bc fb ff ff 04 	movl   $0x4,-0x444(%rbp)
   11e64:	00 00 00 
   11e67:	c7 85 c0 fb ff ff 0d 	movl   $0xa002b50d,-0x440(%rbp)
   11e6e:	b5 02 a0 
   11e71:	c7 85 c4 fb ff ff ff 	movl   $0xffffffff,-0x43c(%rbp)
   11e78:	ff ff ff 
   11e7b:	c7 85 c8 fb ff ff 0d 	movl   $0xa002b50d,-0x438(%rbp)
   11e82:	b5 02 a0 
   11e85:	48 8d 05 bc 61 00 00 	lea    0x61bc(%rip),%rax        # 18048 <g_95>
   11e8c:	48 89 85 a0 fa ff ff 	mov    %rax,-0x560(%rbp)
   11e93:	48 8d 05 af 61 00 00 	lea    0x61af(%rip),%rax        # 18049 <g_97>
   11e9a:	48 89 85 a8 fa ff ff 	mov    %rax,-0x558(%rbp)
   11ea1:	48 c7 85 b0 fa ff ff 	movq   $0x0,-0x550(%rbp)
   11ea8:	00 00 00 00 
   11eac:	48 8d 05 55 8c 00 00 	lea    0x8c55(%rip),%rax        # 1ab08 <g_106>
   11eb3:	48 89 85 c8 fa ff ff 	mov    %rax,-0x538(%rbp)
   11eba:	48 c7 85 f0 fc ff ff 	movq   $0x0,-0x310(%rbp)
   11ec1:	00 00 00 00 
   11ec5:	48 8d 85 a8 fa ff ff 	lea    -0x558(%rbp),%rax
   11ecc:	48 89 85 f8 fc ff ff 	mov    %rax,-0x308(%rbp)
   11ed3:	48 c7 85 00 fd ff ff 	movq   $0x0,-0x300(%rbp)
   11eda:	00 00 00 00 
   11ede:	48 c7 85 08 fd ff ff 	movq   $0x0,-0x2f8(%rbp)
   11ee5:	00 00 00 00 
   11ee9:	48 8d 85 a0 fa ff ff 	lea    -0x560(%rbp),%rax
   11ef0:	48 89 85 10 fd ff ff 	mov    %rax,-0x2f0(%rbp)
   11ef7:	48 c7 85 18 fd ff ff 	movq   $0x0,-0x2e8(%rbp)
   11efe:	00 00 00 00 
   11f02:	48 c7 85 20 fd ff ff 	movq   $0x0,-0x2e0(%rbp)
   11f09:	00 00 00 00 
   11f0d:	48 8d 85 a8 fa ff ff 	lea    -0x558(%rbp),%rax
   11f14:	48 89 85 28 fd ff ff 	mov    %rax,-0x2d8(%rbp)
   11f1b:	48 c7 85 30 fd ff ff 	movq   $0x0,-0x2d0(%rbp)
   11f22:	00 00 00 00 
   11f26:	48 8d 85 a8 fa ff ff 	lea    -0x558(%rbp),%rax
   11f2d:	48 89 85 38 fd ff ff 	mov    %rax,-0x2c8(%rbp)
   11f34:	48 8d 85 a0 fa ff ff 	lea    -0x560(%rbp),%rax
   11f3b:	48 89 85 40 fd ff ff 	mov    %rax,-0x2c0(%rbp)
   11f42:	48 8d 85 a8 fa ff ff 	lea    -0x558(%rbp),%rax
   11f49:	48 89 85 48 fd ff ff 	mov    %rax,-0x2b8(%rbp)
   11f50:	48 8d 85 a8 fa ff ff 	lea    -0x558(%rbp),%rax
   11f57:	48 89 85 50 fd ff ff 	mov    %rax,-0x2b0(%rbp)
   11f5e:	48 8d 85 a0 fa ff ff 	lea    -0x560(%rbp),%rax
   11f65:	48 89 85 58 fd ff ff 	mov    %rax,-0x2a8(%rbp)
   11f6c:	48 8d 85 a8 fa ff ff 	lea    -0x558(%rbp),%rax
   11f73:	48 89 85 60 fd ff ff 	mov    %rax,-0x2a0(%rbp)
   11f7a:	48 8d 85 a8 fa ff ff 	lea    -0x558(%rbp),%rax
   11f81:	48 89 85 68 fd ff ff 	mov    %rax,-0x298(%rbp)
   11f88:	48 8d 85 a0 fa ff ff 	lea    -0x560(%rbp),%rax
   11f8f:	48 89 85 70 fd ff ff 	mov    %rax,-0x290(%rbp)
   11f96:	48 8d 85 a8 fa ff ff 	lea    -0x558(%rbp),%rax
   11f9d:	48 89 85 78 fd ff ff 	mov    %rax,-0x288(%rbp)
   11fa4:	48 c7 85 80 fd ff ff 	movq   $0x0,-0x280(%rbp)
   11fab:	00 00 00 00 
   11faf:	48 8d 85 a8 fa ff ff 	lea    -0x558(%rbp),%rax
   11fb6:	48 89 85 88 fd ff ff 	mov    %rax,-0x278(%rbp)
   11fbd:	48 c7 85 90 fd ff ff 	movq   $0x0,-0x270(%rbp)
   11fc4:	00 00 00 00 
   11fc8:	48 c7 85 98 fd ff ff 	movq   $0x0,-0x268(%rbp)
   11fcf:	00 00 00 00 
   11fd3:	48 8d 85 a0 fa ff ff 	lea    -0x560(%rbp),%rax
   11fda:	48 89 85 a0 fd ff ff 	mov    %rax,-0x260(%rbp)
   11fe1:	48 c7 85 a8 fd ff ff 	movq   $0x0,-0x258(%rbp)
   11fe8:	00 00 00 00 
   11fec:	48 c7 85 b0 fd ff ff 	movq   $0x0,-0x250(%rbp)
   11ff3:	00 00 00 00 
   11ff7:	48 8d 85 a8 fa ff ff 	lea    -0x558(%rbp),%rax
   11ffe:	48 89 85 b8 fd ff ff 	mov    %rax,-0x248(%rbp)
   12005:	48 c7 85 c0 fd ff ff 	movq   $0x0,-0x240(%rbp)
   1200c:	00 00 00 00 
   12010:	48 8d 85 a8 fa ff ff 	lea    -0x558(%rbp),%rax
   12017:	48 89 85 c8 fd ff ff 	mov    %rax,-0x238(%rbp)
   1201e:	48 8d 85 a0 fa ff ff 	lea    -0x560(%rbp),%rax
   12025:	48 89 85 d0 fd ff ff 	mov    %rax,-0x230(%rbp)
   1202c:	48 8d 85 a8 fa ff ff 	lea    -0x558(%rbp),%rax
   12033:	48 89 85 d8 fd ff ff 	mov    %rax,-0x228(%rbp)
   1203a:	48 8d 85 a8 fa ff ff 	lea    -0x558(%rbp),%rax
   12041:	48 89 85 e0 fd ff ff 	mov    %rax,-0x220(%rbp)
   12048:	48 8d 85 a0 fa ff ff 	lea    -0x560(%rbp),%rax
   1204f:	48 89 85 e8 fd ff ff 	mov    %rax,-0x218(%rbp)
   12056:	48 8d 85 a8 fa ff ff 	lea    -0x558(%rbp),%rax
   1205d:	48 89 85 f0 fd ff ff 	mov    %rax,-0x210(%rbp)
   12064:	48 8d 85 a8 fa ff ff 	lea    -0x558(%rbp),%rax
   1206b:	48 89 85 f8 fd ff ff 	mov    %rax,-0x208(%rbp)
   12072:	48 8d 85 a0 fa ff ff 	lea    -0x560(%rbp),%rax
   12079:	48 89 85 00 fe ff ff 	mov    %rax,-0x200(%rbp)
   12080:	48 8d 85 a8 fa ff ff 	lea    -0x558(%rbp),%rax
   12087:	48 89 85 08 fe ff ff 	mov    %rax,-0x1f8(%rbp)
   1208e:	48 c7 85 10 fe ff ff 	movq   $0x0,-0x1f0(%rbp)
   12095:	00 00 00 00 
   12099:	48 8d 85 a8 fa ff ff 	lea    -0x558(%rbp),%rax
   120a0:	48 89 85 18 fe ff ff 	mov    %rax,-0x1e8(%rbp)
   120a7:	48 c7 85 20 fe ff ff 	movq   $0x0,-0x1e0(%rbp)
   120ae:	00 00 00 00 
   120b2:	48 c7 85 28 fe ff ff 	movq   $0x0,-0x1d8(%rbp)
   120b9:	00 00 00 00 
   120bd:	48 8d 85 a0 fa ff ff 	lea    -0x560(%rbp),%rax
   120c4:	48 89 85 30 fe ff ff 	mov    %rax,-0x1d0(%rbp)
   120cb:	48 c7 85 38 fe ff ff 	movq   $0x0,-0x1c8(%rbp)
   120d2:	00 00 00 00 
   120d6:	48 c7 85 40 fe ff ff 	movq   $0x0,-0x1c0(%rbp)
   120dd:	00 00 00 00 
   120e1:	48 8d 85 a8 fa ff ff 	lea    -0x558(%rbp),%rax
   120e8:	48 89 85 48 fe ff ff 	mov    %rax,-0x1b8(%rbp)
   120ef:	48 c7 85 50 fe ff ff 	movq   $0x0,-0x1b0(%rbp)
   120f6:	00 00 00 00 
   120fa:	48 8d 85 a8 fa ff ff 	lea    -0x558(%rbp),%rax
   12101:	48 89 85 58 fe ff ff 	mov    %rax,-0x1a8(%rbp)
   12108:	48 8d 85 a0 fa ff ff 	lea    -0x560(%rbp),%rax
   1210f:	48 89 85 60 fe ff ff 	mov    %rax,-0x1a0(%rbp)
   12116:	48 8d 85 a8 fa ff ff 	lea    -0x558(%rbp),%rax
   1211d:	48 89 85 68 fe ff ff 	mov    %rax,-0x198(%rbp)
   12124:	48 8d 85 a8 fa ff ff 	lea    -0x558(%rbp),%rax
   1212b:	48 89 85 70 fe ff ff 	mov    %rax,-0x190(%rbp)
   12132:	48 8d 85 a0 fa ff ff 	lea    -0x560(%rbp),%rax
   12139:	48 89 85 78 fe ff ff 	mov    %rax,-0x188(%rbp)
   12140:	48 8d 85 a8 fa ff ff 	lea    -0x558(%rbp),%rax
   12147:	48 89 85 80 fe ff ff 	mov    %rax,-0x180(%rbp)
   1214e:	48 8d 85 a8 fa ff ff 	lea    -0x558(%rbp),%rax
   12155:	48 89 85 88 fe ff ff 	mov    %rax,-0x178(%rbp)
   1215c:	48 8d 85 a0 fa ff ff 	lea    -0x560(%rbp),%rax
   12163:	48 89 85 90 fe ff ff 	mov    %rax,-0x170(%rbp)
   1216a:	48 8d 85 a8 fa ff ff 	lea    -0x558(%rbp),%rax
   12171:	48 89 85 98 fe ff ff 	mov    %rax,-0x168(%rbp)
   12178:	48 c7 85 a0 fe ff ff 	movq   $0x0,-0x160(%rbp)
   1217f:	00 00 00 00 
   12183:	48 8d 85 a8 fa ff ff 	lea    -0x558(%rbp),%rax
   1218a:	48 89 85 a8 fe ff ff 	mov    %rax,-0x158(%rbp)
   12191:	48 c7 85 b0 fe ff ff 	movq   $0x0,-0x150(%rbp)
   12198:	00 00 00 00 
   1219c:	48 c7 85 b8 fe ff ff 	movq   $0x0,-0x148(%rbp)
   121a3:	00 00 00 00 
   121a7:	48 8d 85 a0 fa ff ff 	lea    -0x560(%rbp),%rax
   121ae:	48 89 85 c0 fe ff ff 	mov    %rax,-0x140(%rbp)
   121b5:	48 c7 85 c8 fe ff ff 	movq   $0x0,-0x138(%rbp)
   121bc:	00 00 00 00 
   121c0:	48 c7 85 d0 fe ff ff 	movq   $0x0,-0x130(%rbp)
   121c7:	00 00 00 00 
   121cb:	48 8d 85 a8 fa ff ff 	lea    -0x558(%rbp),%rax
   121d2:	48 89 85 d8 fe ff ff 	mov    %rax,-0x128(%rbp)
   121d9:	48 c7 85 e0 fe ff ff 	movq   $0x0,-0x120(%rbp)
   121e0:	00 00 00 00 
   121e4:	48 8d 85 a8 fa ff ff 	lea    -0x558(%rbp),%rax
   121eb:	48 89 85 e8 fe ff ff 	mov    %rax,-0x118(%rbp)
   121f2:	48 8d 85 a0 fa ff ff 	lea    -0x560(%rbp),%rax
   121f9:	48 89 85 f0 fe ff ff 	mov    %rax,-0x110(%rbp)
   12200:	48 8d 85 a8 fa ff ff 	lea    -0x558(%rbp),%rax
   12207:	48 89 85 f8 fe ff ff 	mov    %rax,-0x108(%rbp)
   1220e:	48 8d 85 a8 fa ff ff 	lea    -0x558(%rbp),%rax
   12215:	48 89 85 00 ff ff ff 	mov    %rax,-0x100(%rbp)
   1221c:	48 8d 85 a0 fa ff ff 	lea    -0x560(%rbp),%rax
   12223:	48 89 85 08 ff ff ff 	mov    %rax,-0xf8(%rbp)
   1222a:	48 8d 85 a8 fa ff ff 	lea    -0x558(%rbp),%rax
   12231:	48 89 85 10 ff ff ff 	mov    %rax,-0xf0(%rbp)
   12238:	48 8d 85 a8 fa ff ff 	lea    -0x558(%rbp),%rax
   1223f:	48 89 85 18 ff ff ff 	mov    %rax,-0xe8(%rbp)
   12246:	48 8d 85 a0 fa ff ff 	lea    -0x560(%rbp),%rax
   1224d:	48 89 85 20 ff ff ff 	mov    %rax,-0xe0(%rbp)
   12254:	48 8d 85 a8 fa ff ff 	lea    -0x558(%rbp),%rax
   1225b:	48 89 85 28 ff ff ff 	mov    %rax,-0xd8(%rbp)
   12262:	48 c7 85 30 ff ff ff 	movq   $0x0,-0xd0(%rbp)
   12269:	00 00 00 00 
   1226d:	48 8d 85 a8 fa ff ff 	lea    -0x558(%rbp),%rax
   12274:	48 89 85 38 ff ff ff 	mov    %rax,-0xc8(%rbp)
   1227b:	48 c7 85 40 ff ff ff 	movq   $0x0,-0xc0(%rbp)
   12282:	00 00 00 00 
   12286:	48 c7 85 48 ff ff ff 	movq   $0x0,-0xb8(%rbp)
   1228d:	00 00 00 00 
   12291:	48 8d 85 a0 fa ff ff 	lea    -0x560(%rbp),%rax
   12298:	48 89 85 50 ff ff ff 	mov    %rax,-0xb0(%rbp)
   1229f:	48 c7 85 58 ff ff ff 	movq   $0x0,-0xa8(%rbp)
   122a6:	00 00 00 00 
   122aa:	48 c7 85 60 ff ff ff 	movq   $0x0,-0xa0(%rbp)
   122b1:	00 00 00 00 
   122b5:	48 8d 85 a8 fa ff ff 	lea    -0x558(%rbp),%rax
   122bc:	48 89 85 68 ff ff ff 	mov    %rax,-0x98(%rbp)
   122c3:	48 c7 85 70 ff ff ff 	movq   $0x0,-0x90(%rbp)
   122ca:	00 00 00 00 
   122ce:	48 8d 85 a8 fa ff ff 	lea    -0x558(%rbp),%rax
   122d5:	48 89 85 78 ff ff ff 	mov    %rax,-0x88(%rbp)
   122dc:	48 8d 85 a0 fa ff ff 	lea    -0x560(%rbp),%rax
   122e3:	48 89 45 80          	mov    %rax,-0x80(%rbp)
   122e7:	48 8d 85 a8 fa ff ff 	lea    -0x558(%rbp),%rax
   122ee:	48 89 45 88          	mov    %rax,-0x78(%rbp)
   122f2:	48 8d 85 a8 fa ff ff 	lea    -0x558(%rbp),%rax
   122f9:	48 89 45 90          	mov    %rax,-0x70(%rbp)
   122fd:	48 8d 85 a0 fa ff ff 	lea    -0x560(%rbp),%rax
   12304:	48 89 45 98          	mov    %rax,-0x68(%rbp)
   12308:	48 8d 85 a8 fa ff ff 	lea    -0x558(%rbp),%rax
   1230f:	48 89 45 a0          	mov    %rax,-0x60(%rbp)
   12313:	48 8d 85 a8 fa ff ff 	lea    -0x558(%rbp),%rax
   1231a:	48 89 45 a8          	mov    %rax,-0x58(%rbp)
   1231e:	48 8d 85 a0 fa ff ff 	lea    -0x560(%rbp),%rax
   12325:	48 89 45 b0          	mov    %rax,-0x50(%rbp)
   12329:	48 8d 85 a8 fa ff ff 	lea    -0x558(%rbp),%rax
   12330:	48 89 45 b8          	mov    %rax,-0x48(%rbp)
   12334:	c7 85 80 fa ff ff 54 	movl   $0xb03c3254,-0x580(%rbp)
   1233b:	32 3c b0 
   1233e:	48 8b 85 50 fa ff ff 	mov    -0x5b0(%rbp),%rax
   12345:	0f bf d8             	movswl %ax,%ebx
   12348:	4c 8b a5 50 fa ff ff 	mov    -0x5b0(%rbp),%r12
   1234f:	48 8b 85 a0 fa ff ff 	mov    -0x560(%rbp),%rax
   12356:	0f b6 10             	movzbl (%rax),%edx
   12359:	8b 85 9c fb ff ff    	mov    -0x464(%rbp),%eax
   1235f:	89 c1                	mov    %eax,%ecx
   12361:	48 8b 85 a0 fa ff ff 	mov    -0x560(%rbp),%rax
   12368:	21 ca                	and    %ecx,%edx
   1236a:	88 10                	mov    %dl,(%rax)
   1236c:	0f b6 08             	movzbl (%rax),%ecx
   1236f:	48 8b 85 a8 fa ff ff 	mov    -0x558(%rbp),%rax
   12376:	0f b6 10             	movzbl (%rax),%edx
   12379:	48 8b 85 a8 fa ff ff 	mov    -0x558(%rbp),%rax
   12380:	09 ca                	or     %ecx,%edx
   12382:	88 10                	mov    %dl,(%rax)
   12384:	0f b6 05 bd 5c 00 00 	movzbl 0x5cbd(%rip),%eax        # 18048 <g_95>
   1238b:	44 0f be e8          	movsbl %al,%r13d
   1238f:	0f b6 05 9a 5c 00 00 	movzbl 0x5c9a(%rip),%eax        # 18030 <g_27>
   12396:	3c 04                	cmp    $0x4,%al
   12398:	0f 94 c0             	sete   %al
   1239b:	0f b6 d0             	movzbl %al,%edx
   1239e:	8b 05 90 5c 00 00    	mov    0x5c90(%rip),%eax        # 18034 <g_30>
   123a4:	39 c2                	cmp    %eax,%edx
   123a6:	0f 94 c0             	sete   %al
   123a9:	0f b6 d0             	movzbl %al,%edx
   123ac:	8b 85 9c fb ff ff    	mov    -0x464(%rbp),%eax
   123b2:	0f b6 c0             	movzbl %al,%eax
   123b5:	89 d6                	mov    %edx,%esi
   123b7:	89 c7                	mov    %eax,%edi
   123b9:	e8 ba 47 ff ff       	callq  6b78 <safe_sub_func_uint8_t_u_u>
   123be:	44 89 ee             	mov    %r13d,%esi
   123c1:	bf 00 00 00 00       	mov    $0x0,%edi
   123c6:	e8 27 3e ff ff       	callq  61f2 <safe_sub_func_int8_t_s_s>
   123cb:	66 98                	cbtw   
   123cd:	0f b7 c0             	movzwl %ax,%eax
   123d0:	be e6 3f 00 00       	mov    $0x3fe6,%esi
   123d5:	89 c7                	mov    %eax,%edi
   123d7:	e8 80 49 ff ff       	callq  6d5c <safe_mod_func_uint16_t_u_u>
   123dc:	0f b7 c0             	movzwl %ax,%eax
   123df:	4c 89 e6             	mov    %r12,%rsi
   123e2:	48 89 c7             	mov    %rax,%rdi
   123e5:	e8 ca 45 ff ff       	callq  69b4 <safe_mod_func_int64_t_s_s>
   123ea:	0f b6 05 3f 5c 00 00 	movzbl 0x5c3f(%rip),%eax        # 18030 <g_27>
   123f1:	0f be c0             	movsbl %al,%eax
   123f4:	be 07 00 00 00       	mov    $0x7,%esi
   123f9:	89 c7                	mov    %eax,%edi
   123fb:	e8 ee 3e ff ff       	callq  62ee <safe_lshift_func_int8_t_s_u>
   12400:	48 8b 95 c8 fa ff ff 	mov    -0x538(%rbp),%rdx
   12407:	8b 12                	mov    (%rdx),%edx
   12409:	0f be c0             	movsbl %al,%eax
   1240c:	21 c2                	and    %eax,%edx
   1240e:	48 8b 85 c8 fa ff ff 	mov    -0x538(%rbp),%rax
   12415:	89 10                	mov    %edx,(%rax)
   12417:	48 8b 85 c8 fa ff ff 	mov    -0x538(%rbp),%rax
   1241e:	8b 00                	mov    (%rax),%eax
   12420:	85 c0                	test   %eax,%eax
   12422:	75 0a                	jne    1242e <func_62+0x698>
   12424:	8b 05 0a 5c 00 00    	mov    0x5c0a(%rip),%eax        # 18034 <g_30>
   1242a:	85 c0                	test   %eax,%eax
   1242c:	74 07                	je     12435 <func_62+0x69f>
   1242e:	b8 01 00 00 00       	mov    $0x1,%eax
   12433:	eb 05                	jmp    1243a <func_62+0x6a4>
   12435:	b8 00 00 00 00       	mov    $0x0,%eax
   1243a:	0f be c0             	movsbl %al,%eax
   1243d:	be 07 00 00 00       	mov    $0x7,%esi
   12442:	89 c7                	mov    %eax,%edi
   12444:	e8 a5 3e ff ff       	callq  62ee <safe_lshift_func_int8_t_s_u>
   12449:	be e7 00 00 00       	mov    $0xe7,%esi
   1244e:	bf 00 00 00 00       	mov    $0x0,%edi
   12453:	e8 3b 47 ff ff       	callq  6b93 <safe_mul_func_uint8_t_u_u>
   12458:	0f b6 d0             	movzbl %al,%edx
   1245b:	8b 85 9c fb ff ff    	mov    -0x464(%rbp),%eax
   12461:	48 98                	cltq   
   12463:	48 89 d6             	mov    %rdx,%rsi
   12466:	48 89 c7             	mov    %rax,%rdi
   12469:	e8 d3 43 ff ff       	callq  6841 <safe_add_func_int64_t_s_s>
   1246e:	98                   	cwtl   
   1246f:	89 de                	mov    %ebx,%esi
   12471:	89 c7                	mov    %eax,%edi
   12473:	e8 9e 3f ff ff       	callq  6416 <safe_mod_func_int16_t_s_s>
   12478:	98                   	cwtl   
   12479:	be 66 52 f8 72       	mov    $0x72f85266,%esi
   1247e:	89 c7                	mov    %eax,%edi
   12480:	e8 4b 4a ff ff       	callq  6ed0 <safe_sub_func_uint32_t_u_u>
   12485:	0f b7 d0             	movzwl %ax,%edx
   12488:	48 8b 85 98 fa ff ff 	mov    -0x568(%rbp),%rax
   1248f:	48 85 c0             	test   %rax,%rax
   12492:	0f 94 c0             	sete   %al
   12495:	0f b6 c0             	movzbl %al,%eax
   12498:	89 d6                	mov    %edx,%esi
   1249a:	89 c7                	mov    %eax,%edi
   1249c:	e8 9c 48 ff ff       	callq  6d3d <safe_mul_func_uint16_t_u_u>
   124a1:	0f b7 d0             	movzwl %ax,%edx
   124a4:	0f be 85 64 fa ff ff 	movsbl -0x59c(%rbp),%eax
   124ab:	21 d0                	and    %edx,%eax
   124ad:	85 c0                	test   %eax,%eax
   124af:	75 0b                	jne    124bc <func_62+0x726>
   124b1:	0f b6 05 78 5b 00 00 	movzbl 0x5b78(%rip),%eax        # 18030 <g_27>
   124b8:	84 c0                	test   %al,%al
   124ba:	74 07                	je     124c3 <func_62+0x72d>
   124bc:	b8 01 00 00 00       	mov    $0x1,%eax
   124c1:	eb 05                	jmp    124c8 <func_62+0x732>
   124c3:	b8 00 00 00 00       	mov    $0x0,%eax
   124c8:	48 98                	cltq   
   124ca:	48 c7 c6 fb ff ff ff 	mov    $0xfffffffffffffffb,%rsi
   124d1:	48 89 c7             	mov    %rax,%rdi
   124d4:	e8 db 44 ff ff       	callq  69b4 <safe_mod_func_int64_t_s_s>
   124d9:	48 c7 05 5c 5b 00 00 	movq   $0x9,0x5b5c(%rip)        # 18040 <g_72>
   124e0:	09 00 00 00 
   124e4:	be 00 00 00 00       	mov    $0x0,%esi
   124e9:	bf 09 00 00 00       	mov    $0x9,%edi
   124ee:	e8 12 47 ff ff       	callq  6c05 <safe_lshift_func_uint8_t_u_s>
   124f3:	48 8b 85 b0 fa ff ff 	mov    -0x550(%rbp),%rax
   124fa:	48 89 c7             	mov    %rax,%rdi
   124fd:	e8 8a 0a 00 00       	callq  12f8c <func_68>
   12502:	83 c8 01             	or     $0x1,%eax
   12505:	89 c2                	mov    %eax,%edx
   12507:	48 8b 85 c8 fa ff ff 	mov    -0x538(%rbp),%rax
   1250e:	89 10                	mov    %edx,(%rax)
   12510:	48 8b 85 c8 fa ff ff 	mov    -0x538(%rbp),%rax
   12517:	c7 00 79 d0 e3 4f    	movl   $0x4fe3d079,(%rax)
   1251d:	c7 05 25 5b 00 00 00 	movl   $0x0,0x5b25(%rip)        # 1804c <g_115>
   12524:	00 00 00 
   12527:	e9 04 07 00 00       	jmpq   12c30 <func_62+0xe9a>
   1252c:	48 8d 05 05 5b 00 00 	lea    0x5b05(%rip),%rax        # 18038 <g_44>
   12533:	48 89 85 f8 fa ff ff 	mov    %rax,-0x508(%rbp)
   1253a:	48 c7 85 d0 fb ff ff 	movq   $0x0,-0x430(%rbp)
   12541:	00 00 00 00 
   12545:	48 8d 05 ec 5a 00 00 	lea    0x5aec(%rip),%rax        # 18038 <g_44>
   1254c:	48 89 85 d8 fb ff ff 	mov    %rax,-0x428(%rbp)
   12553:	48 c7 85 e0 fb ff ff 	movq   $0x0,-0x420(%rbp)
   1255a:	00 00 00 00 
   1255e:	48 8d 05 d3 5a 00 00 	lea    0x5ad3(%rip),%rax        # 18038 <g_44>
   12565:	48 89 85 e8 fb ff ff 	mov    %rax,-0x418(%rbp)
   1256c:	48 c7 85 f0 fb ff ff 	movq   $0x0,-0x410(%rbp)
   12573:	00 00 00 00 
   12577:	48 8d 05 ba 5a 00 00 	lea    0x5aba(%rip),%rax        # 18038 <g_44>
   1257e:	48 89 85 f8 fb ff ff 	mov    %rax,-0x408(%rbp)
   12585:	48 8d 05 ac 5a 00 00 	lea    0x5aac(%rip),%rax        # 18038 <g_44>
   1258c:	48 89 85 00 fc ff ff 	mov    %rax,-0x400(%rbp)
   12593:	48 c7 85 08 fc ff ff 	movq   $0x0,-0x3f8(%rbp)
   1259a:	00 00 00 00 
   1259e:	48 8d 05 93 5a 00 00 	lea    0x5a93(%rip),%rax        # 18038 <g_44>
   125a5:	48 89 85 10 fc ff ff 	mov    %rax,-0x3f0(%rbp)
   125ac:	48 c7 85 18 fc ff ff 	movq   $0x0,-0x3e8(%rbp)
   125b3:	00 00 00 00 
   125b7:	48 8d 05 7a 5a 00 00 	lea    0x5a7a(%rip),%rax        # 18038 <g_44>
   125be:	48 89 85 20 fc ff ff 	mov    %rax,-0x3e0(%rbp)
   125c5:	48 c7 85 28 fc ff ff 	movq   $0x0,-0x3d8(%rbp)
   125cc:	00 00 00 00 
   125d0:	c7 85 8c fa ff ff 00 	movl   $0x0,-0x574(%rbp)
   125d7:	00 00 00 
   125da:	c7 85 90 fa ff ff 00 	movl   $0x0,-0x570(%rbp)
   125e1:	00 00 00 
   125e4:	c7 85 74 fa ff ff 1c 	movl   $0x1215561c,-0x58c(%rbp)
   125eb:	56 15 12 
   125ee:	c7 85 94 fa ff ff 31 	movl   $0xc5e8ae31,-0x56c(%rbp)
   125f5:	ae e8 c5 
   125f8:	48 8d 85 a8 fa ff ff 	lea    -0x558(%rbp),%rax
   125ff:	48 89 85 b8 fa ff ff 	mov    %rax,-0x548(%rbp)
   12606:	48 8d 85 74 fa ff ff 	lea    -0x58c(%rbp),%rax
   1260d:	48 89 85 00 fb ff ff 	mov    %rax,-0x500(%rbp)
   12614:	c7 85 78 fa ff ff 00 	movl   $0x0,-0x588(%rbp)
   1261b:	00 00 00 
   1261e:	eb 1e                	jmp    1263e <func_62+0x8a8>
   12620:	8b 85 78 fa ff ff    	mov    -0x588(%rbp),%eax
   12626:	48 98                	cltq   
   12628:	48 8d 15 09 5a 00 00 	lea    0x5a09(%rip),%rdx        # 18038 <g_44>
   1262f:	48 89 94 c5 50 fb ff 	mov    %rdx,-0x4b0(%rbp,%rax,8)
   12636:	ff 
   12637:	83 85 78 fa ff ff 01 	addl   $0x1,-0x588(%rbp)
   1263e:	83 bd 78 fa ff ff 01 	cmpl   $0x1,-0x588(%rbp)
   12645:	7e d9                	jle    12620 <func_62+0x88a>
   12647:	c7 85 78 fa ff ff 00 	movl   $0x0,-0x588(%rbp)
   1264e:	00 00 00 
   12651:	eb 14                	jmp    12667 <func_62+0x8d1>
   12653:	8b 85 78 fa ff ff    	mov    -0x588(%rbp),%eax
   12659:	48 98                	cltq   
   1265b:	c6 44 05 c5 01       	movb   $0x1,-0x3b(%rbp,%rax,1)
   12660:	83 85 78 fa ff ff 01 	addl   $0x1,-0x588(%rbp)
   12667:	83 bd 78 fa ff ff 02 	cmpl   $0x2,-0x588(%rbp)
   1266e:	7e e3                	jle    12653 <func_62+0x8bd>
   12670:	c7 85 78 fa ff ff 00 	movl   $0x0,-0x588(%rbp)
   12677:	00 00 00 
   1267a:	eb 1a                	jmp    12696 <func_62+0x900>
   1267c:	8b 85 78 fa ff ff    	mov    -0x588(%rbp),%eax
   12682:	48 98                	cltq   
   12684:	c7 84 85 60 fb ff ff 	movl   $0x0,-0x4a0(%rbp,%rax,4)
   1268b:	00 00 00 00 
   1268f:	83 85 78 fa ff ff 01 	addl   $0x1,-0x588(%rbp)
   12696:	83 bd 78 fa ff ff 08 	cmpl   $0x8,-0x588(%rbp)
   1269d:	7e dd                	jle    1267c <func_62+0x8e6>
   1269f:	c7 05 5f 84 00 00 00 	movl   $0x0,0x845f(%rip)        # 1ab08 <g_106>
   126a6:	00 00 00 
   126a9:	e9 bb 02 00 00       	jmpq   12969 <func_62+0xbd3>
   126ae:	48 8d 05 83 59 00 00 	lea    0x5983(%rip),%rax        # 18038 <g_44>
   126b5:	48 89 85 c0 fa ff ff 	mov    %rax,-0x540(%rbp)
   126bc:	48 8d 85 c0 fa ff ff 	lea    -0x540(%rbp),%rax
   126c3:	48 89 85 30 fc ff ff 	mov    %rax,-0x3d0(%rbp)
   126ca:	48 8d 85 98 fa ff ff 	lea    -0x568(%rbp),%rax
   126d1:	48 89 85 38 fc ff ff 	mov    %rax,-0x3c8(%rbp)
   126d8:	48 8d 85 c0 fa ff ff 	lea    -0x540(%rbp),%rax
   126df:	48 89 85 40 fc ff ff 	mov    %rax,-0x3c0(%rbp)
   126e6:	48 8d 85 98 fa ff ff 	lea    -0x568(%rbp),%rax
   126ed:	48 89 85 48 fc ff ff 	mov    %rax,-0x3b8(%rbp)
   126f4:	48 8d 85 c0 fa ff ff 	lea    -0x540(%rbp),%rax
   126fb:	48 89 85 50 fc ff ff 	mov    %rax,-0x3b0(%rbp)
   12702:	48 8d 85 98 fa ff ff 	lea    -0x568(%rbp),%rax
   12709:	48 89 85 58 fc ff ff 	mov    %rax,-0x3a8(%rbp)
   12710:	48 8d 85 c0 fa ff ff 	lea    -0x540(%rbp),%rax
   12717:	48 89 85 60 fc ff ff 	mov    %rax,-0x3a0(%rbp)
   1271e:	48 8d 85 98 fa ff ff 	lea    -0x568(%rbp),%rax
   12725:	48 89 85 68 fc ff ff 	mov    %rax,-0x398(%rbp)
   1272c:	48 8d 85 c0 fa ff ff 	lea    -0x540(%rbp),%rax
   12733:	48 89 85 70 fc ff ff 	mov    %rax,-0x390(%rbp)
   1273a:	48 8d 85 c0 fa ff ff 	lea    -0x540(%rbp),%rax
   12741:	48 89 85 78 fc ff ff 	mov    %rax,-0x388(%rbp)
   12748:	48 8d 85 c0 fa ff ff 	lea    -0x540(%rbp),%rax
   1274f:	48 89 85 80 fc ff ff 	mov    %rax,-0x380(%rbp)
   12756:	48 c7 85 88 fc ff ff 	movq   $0x0,-0x378(%rbp)
   1275d:	00 00 00 00 
   12761:	48 c7 85 90 fc ff ff 	movq   $0x0,-0x370(%rbp)
   12768:	00 00 00 00 
   1276c:	48 8d 85 c0 fa ff ff 	lea    -0x540(%rbp),%rax
   12773:	48 89 85 98 fc ff ff 	mov    %rax,-0x368(%rbp)
   1277a:	48 8d 85 c0 fa ff ff 	lea    -0x540(%rbp),%rax
   12781:	48 89 85 a0 fc ff ff 	mov    %rax,-0x360(%rbp)
   12788:	48 c7 85 a8 fc ff ff 	movq   $0x0,-0x358(%rbp)
   1278f:	00 00 00 00 
   12793:	48 c7 85 b0 fc ff ff 	movq   $0x0,-0x350(%rbp)
   1279a:	00 00 00 00 
   1279e:	48 8d 85 c0 fa ff ff 	lea    -0x540(%rbp),%rax
   127a5:	48 89 85 b8 fc ff ff 	mov    %rax,-0x348(%rbp)
   127ac:	48 8d 05 8d 58 00 00 	lea    0x588d(%rip),%rax        # 18040 <g_72>
   127b3:	48 89 85 38 fb ff ff 	mov    %rax,-0x4c8(%rbp)
   127ba:	48 c7 85 40 fb ff ff 	movq   $0x0,-0x4c0(%rbp)
   127c1:	00 00 00 00 
   127c5:	48 8d 05 84 58 00 00 	lea    0x5884(%rip),%rax        # 18050 <g_135>
   127cc:	48 89 85 48 fb ff ff 	mov    %rax,-0x4b8(%rbp)
   127d3:	48 8b 85 68 fa ff ff 	mov    -0x598(%rbp),%rax
   127da:	8b 08                	mov    (%rax),%ecx
   127dc:	8b 05 6a 58 00 00    	mov    0x586a(%rip),%eax        # 1804c <g_115>
   127e2:	8b 15 20 83 00 00    	mov    0x8320(%rip),%edx        # 1ab08 <g_106>
   127e8:	48 63 f2             	movslq %edx,%rsi
   127eb:	48 63 d0             	movslq %eax,%rdx
   127ee:	48 89 d0             	mov    %rdx,%rax
   127f1:	48 01 c0             	add    %rax,%rax
   127f4:	48 01 d0             	add    %rdx,%rax
   127f7:	48 01 f0             	add    %rsi,%rax
   127fa:	8b 84 85 90 fb ff ff 	mov    -0x470(%rbp,%rax,4),%eax
   12801:	09 c1                	or     %eax,%ecx
   12803:	89 ca                	mov    %ecx,%edx
   12805:	48 8b 85 68 fa ff ff 	mov    -0x598(%rbp),%rax
   1280c:	89 10                	mov    %edx,(%rax)
   1280e:	48 8b 85 68 fa ff ff 	mov    -0x598(%rbp),%rax
   12815:	8b 00                	mov    (%rax),%eax
   12817:	85 c0                	test   %eax,%eax
   12819:	0f 84 22 01 00 00    	je     12941 <func_62+0xbab>
   1281f:	8b 9d 8c fa ff ff    	mov    -0x574(%rbp),%ebx
   12825:	48 8b 85 c0 fa ff ff 	mov    -0x540(%rbp),%rax
   1282c:	48 89 85 f8 fa ff ff 	mov    %rax,-0x508(%rbp)
   12833:	48 8b 85 98 fa ff ff 	mov    -0x568(%rbp),%rax
   1283a:	48 89 05 cf 82 00 00 	mov    %rax,0x82cf(%rip)        # 1ab10 <g_123>
   12841:	48 8b 85 c8 fa ff ff 	mov    -0x538(%rbp),%rax
   12848:	8b 00                	mov    (%rax),%eax
   1284a:	85 c0                	test   %eax,%eax
   1284c:	74 7e                	je     128cc <func_62+0xb36>
   1284e:	48 83 bd 50 fa ff ff 	cmpq   $0x0,-0x5b0(%rbp)
   12855:	00 
   12856:	74 18                	je     12870 <func_62+0xada>
   12858:	48 8b 85 68 fa ff ff 	mov    -0x598(%rbp),%rax
   1285f:	8b 00                	mov    (%rax),%eax
   12861:	89 c6                	mov    %eax,%esi
   12863:	bf 01 00 00 00       	mov    $0x1,%edi
   12868:	e8 4b 46 ff ff       	callq  6eb8 <safe_add_func_uint32_t_u_u>
   1286d:	83 f8 ff             	cmp    $0xffffffff,%eax
   12870:	0f b6 05 d2 57 00 00 	movzbl 0x57d2(%rip),%eax        # 18049 <g_97>
   12877:	0f be c0             	movsbl %al,%eax
   1287a:	39 85 60 fa ff ff    	cmp    %eax,-0x5a0(%rbp)
   12880:	0f 97 c0             	seta   %al
   12883:	0f b6 c0             	movzbl %al,%eax
   12886:	48 39 85 50 fa ff ff 	cmp    %rax,-0x5b0(%rbp)
   1288d:	0f 96 c0             	setbe  %al
   12890:	0f b6 c0             	movzbl %al,%eax
   12893:	be e0 ff ff ff       	mov    $0xffffffe0,%esi
   12898:	89 c7                	mov    %eax,%edi
   1289a:	e8 53 39 ff ff       	callq  61f2 <safe_sub_func_int8_t_s_s>
   1289f:	48 8d 05 92 57 00 00 	lea    0x5792(%rip),%rax        # 18038 <g_44>
   128a6:	48 89 85 10 fc ff ff 	mov    %rax,-0x3f0(%rbp)
   128ad:	48 8b 85 10 fc ff ff 	mov    -0x3f0(%rbp),%rax
   128b4:	48 89 85 50 fb ff ff 	mov    %rax,-0x4b0(%rbp)
   128bb:	48 8b 85 50 fb ff ff 	mov    -0x4b0(%rbp),%rax
   128c2:	48 8d 15 6f 57 00 00 	lea    0x576f(%rip),%rdx        # 18038 <g_44>
   128c9:	48 39 d0             	cmp    %rdx,%rax
   128cc:	89 de                	mov    %ebx,%esi
   128ce:	bf 01 00 00 00       	mov    $0x1,%edi
   128d3:	e8 f8 45 ff ff       	callq  6ed0 <safe_sub_func_uint32_t_u_u>
   128d8:	0f b6 15 6a 57 00 00 	movzbl 0x576a(%rip),%edx        # 18049 <g_97>
   128df:	0f be d2             	movsbl %dl,%edx
   128e2:	39 d0                	cmp    %edx,%eax
   128e4:	0f 97 c0             	seta   %al
   128e7:	0f b6 c8             	movzbl %al,%ecx
   128ea:	48 8b 85 38 fb ff ff 	mov    -0x4c8(%rbp),%rax
   128f1:	48 8b 10             	mov    (%rax),%rdx
   128f4:	48 63 c1             	movslq %ecx,%rax
   128f7:	48 31 c2             	xor    %rax,%rdx
   128fa:	48 8b 85 38 fb ff ff 	mov    -0x4c8(%rbp),%rax
   12901:	48 89 10             	mov    %rdx,(%rax)
   12904:	48 8b 85 38 fb ff ff 	mov    -0x4c8(%rbp),%rax
   1290b:	48 8b 08             	mov    (%rax),%rcx
   1290e:	8b 05 38 57 00 00    	mov    0x5738(%rip),%eax        # 1804c <g_115>
   12914:	8b 15 ee 81 00 00    	mov    0x81ee(%rip),%edx        # 1ab08 <g_106>
   1291a:	48 63 f2             	movslq %edx,%rsi
   1291d:	48 63 d0             	movslq %eax,%rdx
   12920:	48 89 d0             	mov    %rdx,%rax
   12923:	48 01 c0             	add    %rax,%rax
   12926:	48 01 d0             	add    %rdx,%rax
   12929:	48 01 f0             	add    %rsi,%rax
   1292c:	8b 84 85 90 fb ff ff 	mov    -0x470(%rbp,%rax,4),%eax
   12933:	48 98                	cltq   
   12935:	48 39 c1             	cmp    %rax,%rcx
   12938:	7c 07                	jl     12941 <func_62+0xbab>
   1293a:	ba 01 00 00 00       	mov    $0x1,%edx
   1293f:	eb 05                	jmp    12946 <func_62+0xbb0>
   12941:	ba 00 00 00 00       	mov    $0x0,%edx
   12946:	48 8b 85 48 fb ff ff 	mov    -0x4b8(%rbp),%rax
   1294d:	8b 00                	mov    (%rax),%eax
   1294f:	31 c2                	xor    %eax,%edx
   12951:	48 8b 85 48 fb ff ff 	mov    -0x4b8(%rbp),%rax
   12958:	89 10                	mov    %edx,(%rax)
   1295a:	8b 05 a8 81 00 00    	mov    0x81a8(%rip),%eax        # 1ab08 <g_106>
   12960:	83 c0 01             	add    $0x1,%eax
   12963:	89 05 9f 81 00 00    	mov    %eax,0x819f(%rip)        # 1ab08 <g_106>
   12969:	8b 05 99 81 00 00    	mov    0x8199(%rip),%eax        # 1ab08 <g_106>
   1296f:	83 f8 02             	cmp    $0x2,%eax
   12972:	0f 8e 36 fd ff ff    	jle    126ae <func_62+0x918>
   12978:	8b 05 d2 56 00 00    	mov    0x56d2(%rip),%eax        # 18050 <g_135>
   1297e:	83 f0 f8             	xor    $0xfffffff8,%eax
   12981:	89 05 c9 56 00 00    	mov    %eax,0x56c9(%rip)        # 18050 <g_135>
   12987:	0f b6 05 bb 56 00 00 	movzbl 0x56bb(%rip),%eax        # 18049 <g_97>
   1298e:	0f be d0             	movsbl %al,%edx
   12991:	48 8b 85 c8 fa ff ff 	mov    -0x538(%rbp),%rax
   12998:	89 10                	mov    %edx,(%rax)
   1299a:	c7 85 60 fa ff ff 12 	movl   $0x12,-0x5a0(%rbp)
   129a1:	00 00 00 
   129a4:	e9 6b 02 00 00       	jmpq   12c14 <func_62+0xe7e>
   129a9:	48 8d 05 a0 56 00 00 	lea    0x56a0(%rip),%rax        # 18050 <g_135>
   129b0:	48 89 85 08 fb ff ff 	mov    %rax,-0x4f8(%rbp)
   129b7:	c7 85 c0 fa ff ff 01 	movl   $0x1,-0x540(%rbp)
   129be:	00 00 00 
   129c1:	48 8d 85 c0 fa ff ff 	lea    -0x540(%rbp),%rax
   129c8:	48 89 85 10 fb ff ff 	mov    %rax,-0x4f0(%rbp)
   129cf:	48 8d 85 c0 fa ff ff 	lea    -0x540(%rbp),%rax
   129d6:	48 89 85 18 fb ff ff 	mov    %rax,-0x4e8(%rbp)
   129dd:	48 c7 85 20 fb ff ff 	movq   $0x0,-0x4e0(%rbp)
   129e4:	00 00 00 00 
   129e8:	48 8d 05 61 56 00 00 	lea    0x5661(%rip),%rax        # 18050 <g_135>
   129ef:	48 89 85 28 fb ff ff 	mov    %rax,-0x4d8(%rbp)
   129f6:	48 8d 05 4f 56 00 00 	lea    0x564f(%rip),%rax        # 1804c <g_115>
   129fd:	48 89 85 30 fc ff ff 	mov    %rax,-0x3d0(%rbp)
   12a04:	48 8d 05 45 56 00 00 	lea    0x5645(%rip),%rax        # 18050 <g_135>
   12a0b:	48 89 85 38 fc ff ff 	mov    %rax,-0x3c8(%rbp)
   12a12:	48 8d 05 33 56 00 00 	lea    0x5633(%rip),%rax        # 1804c <g_115>
   12a19:	48 89 85 40 fc ff ff 	mov    %rax,-0x3c0(%rbp)
   12a20:	48 8d 05 29 56 00 00 	lea    0x5629(%rip),%rax        # 18050 <g_135>
   12a27:	48 89 85 48 fc ff ff 	mov    %rax,-0x3b8(%rbp)
   12a2e:	48 8d 05 17 56 00 00 	lea    0x5617(%rip),%rax        # 1804c <g_115>
   12a35:	48 89 85 50 fc ff ff 	mov    %rax,-0x3b0(%rbp)
   12a3c:	48 8d 05 0d 56 00 00 	lea    0x560d(%rip),%rax        # 18050 <g_135>
   12a43:	48 89 85 58 fc ff ff 	mov    %rax,-0x3a8(%rbp)
   12a4a:	48 8d 05 ff 55 00 00 	lea    0x55ff(%rip),%rax        # 18050 <g_135>
   12a51:	48 89 85 60 fc ff ff 	mov    %rax,-0x3a0(%rbp)
   12a58:	48 8d 05 ed 55 00 00 	lea    0x55ed(%rip),%rax        # 1804c <g_115>
   12a5f:	48 89 85 68 fc ff ff 	mov    %rax,-0x398(%rbp)
   12a66:	48 8d 85 90 fb ff ff 	lea    -0x470(%rbp),%rax
   12a6d:	48 83 c0 0c          	add    $0xc,%rax
   12a71:	48 89 85 70 fc ff ff 	mov    %rax,-0x390(%rbp)
   12a78:	48 8d 05 d1 55 00 00 	lea    0x55d1(%rip),%rax        # 18050 <g_135>
   12a7f:	48 89 85 78 fc ff ff 	mov    %rax,-0x388(%rbp)
   12a86:	48 8d 05 c3 55 00 00 	lea    0x55c3(%rip),%rax        # 18050 <g_135>
   12a8d:	48 89 85 80 fc ff ff 	mov    %rax,-0x380(%rbp)
   12a94:	48 8d 05 b5 55 00 00 	lea    0x55b5(%rip),%rax        # 18050 <g_135>
   12a9b:	48 89 85 88 fc ff ff 	mov    %rax,-0x378(%rbp)
   12aa2:	48 8d 05 a7 55 00 00 	lea    0x55a7(%rip),%rax        # 18050 <g_135>
   12aa9:	48 89 85 90 fc ff ff 	mov    %rax,-0x370(%rbp)
   12ab0:	48 8d 05 99 55 00 00 	lea    0x5599(%rip),%rax        # 18050 <g_135>
   12ab7:	48 89 85 98 fc ff ff 	mov    %rax,-0x368(%rbp)
   12abe:	48 8d 05 8b 55 00 00 	lea    0x558b(%rip),%rax        # 18050 <g_135>
   12ac5:	48 89 85 a0 fc ff ff 	mov    %rax,-0x360(%rbp)
   12acc:	48 8d 05 7d 55 00 00 	lea    0x557d(%rip),%rax        # 18050 <g_135>
   12ad3:	48 89 85 a8 fc ff ff 	mov    %rax,-0x358(%rbp)
   12ada:	48 8d 85 90 fb ff ff 	lea    -0x470(%rbp),%rax
   12ae1:	48 83 c0 0c          	add    $0xc,%rax
   12ae5:	48 89 85 b0 fc ff ff 	mov    %rax,-0x350(%rbp)
   12aec:	48 8d 85 90 fb ff ff 	lea    -0x470(%rbp),%rax
   12af3:	48 83 c0 0c          	add    $0xc,%rax
   12af7:	48 89 85 b8 fc ff ff 	mov    %rax,-0x348(%rbp)
   12afe:	48 8d 05 4b 55 00 00 	lea    0x554b(%rip),%rax        # 18050 <g_135>
   12b05:	48 89 85 c0 fc ff ff 	mov    %rax,-0x340(%rbp)
   12b0c:	48 8d 05 3d 55 00 00 	lea    0x553d(%rip),%rax        # 18050 <g_135>
   12b13:	48 89 85 c8 fc ff ff 	mov    %rax,-0x338(%rbp)
   12b1a:	48 8d 05 2b 55 00 00 	lea    0x552b(%rip),%rax        # 1804c <g_115>
   12b21:	48 89 85 d0 fc ff ff 	mov    %rax,-0x330(%rbp)
   12b28:	48 8d 05 21 55 00 00 	lea    0x5521(%rip),%rax        # 18050 <g_135>
   12b2f:	48 89 85 d8 fc ff ff 	mov    %rax,-0x328(%rbp)
   12b36:	48 8d 05 0f 55 00 00 	lea    0x550f(%rip),%rax        # 1804c <g_115>
   12b3d:	48 89 85 e0 fc ff ff 	mov    %rax,-0x320(%rbp)
   12b44:	48 8d 05 05 55 00 00 	lea    0x5505(%rip),%rax        # 18050 <g_135>
   12b4b:	48 89 85 e8 fc ff ff 	mov    %rax,-0x318(%rbp)
   12b52:	48 8d 85 b8 fa ff ff 	lea    -0x548(%rbp),%rax
   12b59:	48 89 85 30 fb ff ff 	mov    %rax,-0x4d0(%rbp)
   12b60:	8b 05 fa 54 00 00    	mov    0x54fa(%rip),%eax        # 18060 <g_151>
   12b66:	83 e8 01             	sub    $0x1,%eax
   12b69:	89 05 f1 54 00 00    	mov    %eax,0x54f1(%rip)        # 18060 <g_151>
   12b6f:	48 8b 85 50 fa ff ff 	mov    -0x5b0(%rbp),%rax
   12b76:	0f be d8             	movsbl %al,%ebx
   12b79:	be 01 00 00 00       	mov    $0x1,%esi
   12b7e:	bf f9 00 00 00       	mov    $0xf9,%edi
   12b83:	e8 05 41 ff ff       	callq  6c8d <safe_rshift_func_uint8_t_u_s>
   12b88:	0f be c0             	movsbl %al,%eax
   12b8b:	89 de                	mov    %ebx,%esi
   12b8d:	89 c7                	mov    %eax,%edi
   12b8f:	e8 d6 36 ff ff       	callq  626a <safe_div_func_int8_t_s_s>
   12b94:	84 c0                	test   %al,%al
   12b96:	74 11                	je     12ba9 <func_62+0xe13>
   12b98:	8b 85 70 fb ff ff    	mov    -0x490(%rbp),%eax
   12b9e:	85 c0                	test   %eax,%eax
   12ba0:	74 07                	je     12ba9 <func_62+0xe13>
   12ba2:	b8 01 00 00 00       	mov    $0x1,%eax
   12ba7:	eb 05                	jmp    12bae <func_62+0xe18>
   12ba9:	b8 00 00 00 00       	mov    $0x0,%eax
   12bae:	0f b6 c0             	movzbl %al,%eax
   12bb1:	be 00 00 00 00       	mov    $0x0,%esi
   12bb6:	89 c7                	mov    %eax,%edi
   12bb8:	e8 8f 40 ff ff       	callq  6c4c <safe_lshift_func_uint8_t_u_u>
   12bbd:	0f b6 c0             	movzbl %al,%eax
   12bc0:	89 05 42 7f 00 00    	mov    %eax,0x7f42(%rip)        # 1ab08 <g_106>
   12bc6:	8b 15 3c 7f 00 00    	mov    0x7f3c(%rip),%edx        # 1ab08 <g_106>
   12bcc:	48 8b 85 08 fb ff ff 	mov    -0x4f8(%rbp),%rax
   12bd3:	8b 00                	mov    (%rax),%eax
   12bd5:	09 c2                	or     %eax,%edx
   12bd7:	48 8b 85 08 fb ff ff 	mov    -0x4f8(%rbp),%rax
   12bde:	89 10                	mov    %edx,(%rax)
   12be0:	48 8b 95 b8 fa ff ff 	mov    -0x548(%rbp),%rdx
   12be7:	48 8b 85 30 fb ff ff 	mov    -0x4d0(%rbp),%rax
   12bee:	48 89 10             	mov    %rdx,(%rax)
   12bf1:	48 c7 85 00 fb ff ff 	movq   $0x0,-0x500(%rbp)
   12bf8:	00 00 00 00 
   12bfc:	8b 85 60 fa ff ff    	mov    -0x5a0(%rbp),%eax
   12c02:	be 08 00 00 00       	mov    $0x8,%esi
   12c07:	89 c7                	mov    %eax,%edi
   12c09:	e8 a8 39 ff ff       	callq  65b6 <safe_add_func_int32_t_s_s>
   12c0e:	89 85 60 fa ff ff    	mov    %eax,-0x5a0(%rbp)
   12c14:	83 bd 60 fa ff ff 39 	cmpl   $0x39,-0x5a0(%rbp)
   12c1b:	0f 87 88 fd ff ff    	ja     129a9 <func_62+0xc13>
   12c21:	8b 05 25 54 00 00    	mov    0x5425(%rip),%eax        # 1804c <g_115>
   12c27:	83 c0 01             	add    $0x1,%eax
   12c2a:	89 05 1c 54 00 00    	mov    %eax,0x541c(%rip)        # 1804c <g_115>
   12c30:	8b 05 16 54 00 00    	mov    0x5416(%rip),%eax        # 1804c <g_115>
   12c36:	83 f8 02             	cmp    $0x2,%eax
   12c39:	0f 8e ed f8 ff ff    	jle    1252c <func_62+0x796>
   12c3f:	c6 85 64 fa ff ff ef 	movb   $0xef,-0x59c(%rbp)
   12c46:	e9 08 03 00 00       	jmpq   12f53 <func_62+0x11bd>
   12c4b:	48 8d 85 b0 fa ff ff 	lea    -0x550(%rbp),%rax
   12c52:	48 89 85 d0 fa ff ff 	mov    %rax,-0x530(%rbp)
   12c59:	48 8d 85 a0 fa ff ff 	lea    -0x560(%rbp),%rax
   12c60:	48 89 85 d8 fa ff ff 	mov    %rax,-0x528(%rbp)
   12c67:	c7 85 7c fa ff ff 00 	movl   $0x0,-0x584(%rbp)
   12c6e:	00 00 00 
   12c71:	eb 1a                	jmp    12c8d <func_62+0xef7>
   12c73:	8b 85 7c fa ff ff    	mov    -0x584(%rbp),%eax
   12c79:	48 98                	cltq   
   12c7b:	c7 84 85 d0 fb ff ff 	movl   $0x34b38b24,-0x430(%rbp,%rax,4)
   12c82:	24 8b b3 34 
   12c86:	83 85 7c fa ff ff 01 	addl   $0x1,-0x584(%rbp)
   12c8d:	83 bd 7c fa ff ff 02 	cmpl   $0x2,-0x584(%rbp)
   12c94:	7e dd                	jle    12c73 <func_62+0xedd>
   12c96:	48 8b 85 d0 fa ff ff 	mov    -0x530(%rbp),%rax
   12c9d:	48 8d 15 64 7e 00 00 	lea    0x7e64(%rip),%rdx        # 1ab08 <g_106>
   12ca4:	48 89 10             	mov    %rdx,(%rax)
   12ca7:	48 c7 85 50 fa ff ff 	movq   $0x0,-0x5b0(%rbp)
   12cae:	00 00 00 00 
   12cb2:	e9 72 02 00 00       	jmpq   12f29 <func_62+0x1193>
   12cb7:	c7 85 30 fc ff ff ff 	movl   $0xffffffff,-0x3d0(%rbp)
   12cbe:	ff ff ff 
   12cc1:	c7 85 34 fc ff ff ff 	movl   $0xffffffff,-0x3cc(%rbp)
   12cc8:	ff ff ff 
   12ccb:	c7 85 38 fc ff ff ff 	movl   $0xffffffff,-0x3c8(%rbp)
   12cd2:	ff ff ff 
   12cd5:	c7 85 3c fc ff ff ff 	movl   $0xffffffff,-0x3c4(%rbp)
   12cdc:	ff ff ff 
   12cdf:	c7 85 40 fc ff ff ff 	movl   $0xffffffff,-0x3c0(%rbp)
   12ce6:	ff ff ff 
   12ce9:	c7 85 44 fc ff ff ff 	movl   $0xffffffff,-0x3bc(%rbp)
   12cf0:	ff ff ff 
   12cf3:	48 8d 85 a0 fa ff ff 	lea    -0x560(%rbp),%rax
   12cfa:	48 89 85 b8 fa ff ff 	mov    %rax,-0x548(%rbp)
   12d01:	48 8d 85 b8 fa ff ff 	lea    -0x548(%rbp),%rax
   12d08:	48 89 85 e0 fa ff ff 	mov    %rax,-0x520(%rbp)
   12d0f:	48 8d 85 a0 fa ff ff 	lea    -0x560(%rbp),%rax
   12d16:	48 89 85 c0 fa ff ff 	mov    %rax,-0x540(%rbp)
   12d1d:	48 8d 85 c0 fa ff ff 	lea    -0x540(%rbp),%rax
   12d24:	48 89 85 e8 fa ff ff 	mov    %rax,-0x518(%rbp)
   12d2b:	c7 85 84 fa ff ff f4 	movl   $0x5d7cc8f4,-0x57c(%rbp)
   12d32:	c8 7c 5d 
   12d35:	c7 85 88 fa ff ff a8 	movl   $0xde6c51a8,-0x578(%rbp)
   12d3c:	51 6c de 
   12d3f:	48 8d 85 90 fb ff ff 	lea    -0x470(%rbp),%rax
   12d46:	48 83 c0 34          	add    $0x34,%rax
   12d4a:	48 89 85 f0 fa ff ff 	mov    %rax,-0x510(%rbp)
   12d51:	48 8b 05 00 53 00 00 	mov    0x5300(%rip),%rax        # 18058 <g_146>
   12d58:	48 85 c0             	test   %rax,%rax
   12d5b:	0f 85 d8 01 00 00    	jne    12f39 <func_62+0x11a3>
   12d61:	0f b6 05 c8 52 00 00 	movzbl 0x52c8(%rip),%eax        # 18030 <g_27>
   12d68:	0f be d8             	movsbl %al,%ebx
   12d6b:	48 8b 95 b8 fa ff ff 	mov    -0x548(%rbp),%rdx
   12d72:	48 8b 85 e0 fa ff ff 	mov    -0x520(%rbp),%rax
   12d79:	48 89 10             	mov    %rdx,(%rax)
   12d7c:	48 8b 85 e0 fa ff ff 	mov    -0x520(%rbp),%rax
   12d83:	48 8b 10             	mov    (%rax),%rdx
   12d86:	48 8b 85 e8 fa ff ff 	mov    -0x518(%rbp),%rax
   12d8d:	48 89 10             	mov    %rdx,(%rax)
   12d90:	48 8b 85 f8 fd ff ff 	mov    -0x208(%rbp),%rax
   12d97:	48 89 85 d8 fa ff ff 	mov    %rax,-0x528(%rbp)
   12d9e:	8b 85 88 fa ff ff    	mov    -0x578(%rbp),%eax
   12da4:	44 0f b7 e0          	movzwl %ax,%r12d
   12da8:	8b 85 34 fc ff ff    	mov    -0x3cc(%rbp),%eax
   12dae:	89 85 4c fa ff ff    	mov    %eax,-0x5b4(%rbp)
   12db4:	8b 05 7a 52 00 00    	mov    0x527a(%rip),%eax        # 18034 <g_30>
   12dba:	89 c1                	mov    %eax,%ecx
   12dbc:	48 89 8d 40 fa ff ff 	mov    %rcx,-0x5c0(%rbp)
   12dc3:	44 0f be ad 64 fa ff 	movsbl -0x59c(%rbp),%r13d
   12dca:	ff 
   12dcb:	0f b6 05 76 52 00 00 	movzbl 0x5276(%rip),%eax        # 18048 <g_95>
   12dd2:	66 44 0f be f8       	movsbw %al,%r15w
   12dd7:	8b 05 6f 52 00 00    	mov    0x526f(%rip),%eax        # 1804c <g_115>
   12ddd:	44 0f bf f0          	movswl %ax,%r14d
   12de1:	0f b6 05 60 52 00 00 	movzbl 0x5260(%rip),%eax        # 18048 <g_95>
   12de8:	0f be c0             	movsbl %al,%eax
   12deb:	c7 85 84 fa ff ff 95 	movl   $0x36d37e95,-0x57c(%rbp)
   12df2:	7e d3 36 
   12df5:	89 c6                	mov    %eax,%esi
   12df7:	bf 95 7e d3 36       	mov    $0x36d37e95,%edi
   12dfc:	e8 fc 40 ff ff       	callq  6efd <safe_mod_func_uint32_t_u_u>
   12e01:	98                   	cwtl   
   12e02:	44 89 f6             	mov    %r14d,%esi
   12e05:	89 c7                	mov    %eax,%edi
   12e07:	e8 49 36 ff ff       	callq  6455 <safe_div_func_int16_t_s_s>
   12e0c:	66 41 39 c7          	cmp    %ax,%r15w
   12e10:	0f 9e c0             	setle  %al
   12e13:	0f b6 d0             	movzbl %al,%edx
   12e16:	8b 85 44 fc ff ff    	mov    -0x3bc(%rbp),%eax
   12e1c:	39 c2                	cmp    %eax,%edx
   12e1e:	0f 94 c0             	sete   %al
   12e21:	0f b6 c0             	movzbl %al,%eax
   12e24:	39 85 60 fa ff ff    	cmp    %eax,-0x5a0(%rbp)
   12e2a:	0f 96 c0             	setbe  %al
   12e2d:	0f b6 c0             	movzbl %al,%eax
   12e30:	44 89 ee             	mov    %r13d,%esi
   12e33:	89 c7                	mov    %eax,%edi
   12e35:	e8 12 3e ff ff       	callq  6c4c <safe_lshift_func_uint8_t_u_u>
   12e3a:	0f b6 d0             	movzbl %al,%edx
   12e3d:	48 8b 85 d0 fa ff ff 	mov    -0x530(%rbp),%rax
   12e44:	48 8b 00             	mov    (%rax),%rax
   12e47:	8b 00                	mov    (%rax),%eax
   12e49:	09 d0                	or     %edx,%eax
   12e4b:	48 98                	cltq   
   12e4d:	48 8b b5 40 fa ff ff 	mov    -0x5c0(%rbp),%rsi
   12e54:	48 89 c7             	mov    %rax,%rdi
   12e57:	e8 d2 41 ff ff       	callq  702e <safe_add_func_uint64_t_u_u>
   12e5c:	0f b7 c0             	movzwl %ax,%eax
   12e5f:	8b b5 4c fa ff ff    	mov    -0x5b4(%rbp),%esi
   12e65:	89 c7                	mov    %eax,%edi
   12e67:	e8 9a 3f ff ff       	callq  6e06 <safe_lshift_func_uint16_t_u_u>
   12e6c:	48 8b 85 98 fa ff ff 	mov    -0x568(%rbp),%rax
   12e73:	8b 95 84 fa ff ff    	mov    -0x57c(%rbp),%edx
   12e79:	48 63 d2             	movslq %edx,%rdx
   12e7c:	48 89 10             	mov    %rdx,(%rax)
   12e7f:	48 8b 00             	mov    (%rax),%rax
   12e82:	48 85 c0             	test   %rax,%rax
   12e85:	75 09                	jne    12e90 <func_62+0x10fa>
   12e87:	80 bd 64 fa ff ff 00 	cmpb   $0x0,-0x59c(%rbp)
   12e8e:	74 07                	je     12e97 <func_62+0x1101>
   12e90:	b8 01 00 00 00       	mov    $0x1,%eax
   12e95:	eb 05                	jmp    12e9c <func_62+0x1106>
   12e97:	b8 00 00 00 00       	mov    $0x0,%eax
   12e9c:	0f b7 c0             	movzwl %ax,%eax
   12e9f:	44 89 e6             	mov    %r12d,%esi
   12ea2:	89 c7                	mov    %eax,%edi
   12ea4:	e8 b3 3e ff ff       	callq  6d5c <safe_mod_func_uint16_t_u_u>
   12ea9:	0f b7 d0             	movzwl %ax,%edx
   12eac:	8b 05 82 51 00 00    	mov    0x5182(%rip),%eax        # 18034 <g_30>
   12eb2:	21 c2                	and    %eax,%edx
   12eb4:	8b 05 4e 7c 00 00    	mov    0x7c4e(%rip),%eax        # 1ab08 <g_106>
   12eba:	39 c2                	cmp    %eax,%edx
   12ebc:	0f 92 c0             	setb   %al
   12ebf:	0f b6 c0             	movzbl %al,%eax
   12ec2:	89 de                	mov    %ebx,%esi
   12ec4:	89 c7                	mov    %eax,%edi
   12ec6:	e8 27 33 ff ff       	callq  61f2 <safe_sub_func_int8_t_s_s>
   12ecb:	48 8b 85 b0 fa ff ff 	mov    -0x550(%rbp),%rax
   12ed2:	8b 00                	mov    (%rax),%eax
   12ed4:	83 e0 01             	and    $0x1,%eax
   12ed7:	89 c2                	mov    %eax,%edx
   12ed9:	8b 05 29 7c 00 00    	mov    0x7c29(%rip),%eax        # 1ab08 <g_106>
   12edf:	39 c2                	cmp    %eax,%edx
   12ee1:	0f 9f c0             	setg   %al
   12ee4:	0f b6 d0             	movzbl %al,%edx
   12ee7:	48 8b 85 f0 fa ff ff 	mov    -0x510(%rbp),%rax
   12eee:	8b 00                	mov    (%rax),%eax
   12ef0:	21 c2                	and    %eax,%edx
   12ef2:	48 8b 85 f0 fa ff ff 	mov    -0x510(%rbp),%rax
   12ef9:	89 10                	mov    %edx,(%rax)
   12efb:	ba 09 00 00 00       	mov    $0x9,%edx
   12f00:	8b 85 d4 fb ff ff    	mov    -0x42c(%rbp),%eax
   12f06:	09 d0                	or     %edx,%eax
   12f08:	89 85 d4 fb ff ff    	mov    %eax,-0x42c(%rbp)
   12f0e:	48 8b 85 50 fa ff ff 	mov    -0x5b0(%rbp),%rax
   12f15:	be 05 00 00 00       	mov    $0x5,%esi
   12f1a:	48 89 c7             	mov    %rax,%rdi
   12f1d:	e8 1f 39 ff ff       	callq  6841 <safe_add_func_int64_t_s_s>
   12f22:	48 89 85 50 fa ff ff 	mov    %rax,-0x5b0(%rbp)
   12f29:	48 83 bd 50 fa ff ff 	cmpq   $0x5,-0x5b0(%rbp)
   12f30:	05 
   12f31:	0f 86 80 fd ff ff    	jbe    12cb7 <func_62+0xf21>
   12f37:	eb 01                	jmp    12f3a <func_62+0x11a4>
   12f39:	90                   	nop
   12f3a:	0f be 85 64 fa ff ff 	movsbl -0x59c(%rbp),%eax
   12f41:	be 09 00 00 00       	mov    $0x9,%esi
   12f46:	89 c7                	mov    %eax,%edi
   12f48:	e8 66 34 ff ff       	callq  63b3 <safe_add_func_int16_t_s_s>
   12f4d:	88 85 64 fa ff ff    	mov    %al,-0x59c(%rbp)
   12f53:	80 bd 64 fa ff ff 15 	cmpb   $0x15,-0x59c(%rbp)
   12f5a:	0f 8e eb fc ff ff    	jle    12c4b <func_62+0xeb5>
   12f60:	8b 85 80 fa ff ff    	mov    -0x580(%rbp),%eax
   12f66:	48 8b 5d c8          	mov    -0x38(%rbp),%rbx
   12f6a:	64 48 33 1c 25 28 00 	xor    %fs:0x28,%rbx
   12f71:	00 00 
   12f73:	74 05                	je     12f7a <func_62+0x11e4>
   12f75:	e8 f6 30 ff ff       	callq  6070 <__stack_chk_fail@plt>
   12f7a:	48 81 c4 98 05 00 00 	add    $0x598,%rsp
   12f81:	5b                   	pop    %rbx
   12f82:	41 5c                	pop    %r12
   12f84:	41 5d                	pop    %r13
   12f86:	41 5e                	pop    %r14
   12f88:	41 5f                	pop    %r15
   12f8a:	5d                   	pop    %rbp
   12f8b:	c3                   	retq   

0000000000012f8c <func_68>:
   12f8c:	f3 0f 1e fa          	endbr64 
   12f90:	55                   	push   %rbp
   12f91:	48 89 e5             	mov    %rsp,%rbp
   12f94:	53                   	push   %rbx
   12f95:	48 81 ec 08 02 00 00 	sub    $0x208,%rsp
   12f9c:	48 89 bd f8 fd ff ff 	mov    %rdi,-0x208(%rbp)
   12fa3:	64 48 8b 04 25 28 00 	mov    %fs:0x28,%rax
   12faa:	00 00 
   12fac:	48 89 45 e8          	mov    %rax,-0x18(%rbp)
   12fb0:	31 c0                	xor    %eax,%eax
   12fb2:	48 8d 05 4f 7b 00 00 	lea    0x7b4f(%rip),%rax        # 1ab08 <g_106>
   12fb9:	48 89 85 10 fe ff ff 	mov    %rax,-0x1f0(%rbp)
   12fc0:	48 8d 05 6d 50 00 00 	lea    0x506d(%rip),%rax        # 18034 <g_30>
   12fc7:	48 89 85 08 fe ff ff 	mov    %rax,-0x1f8(%rbp)
   12fce:	48 8d 85 08 fe ff ff 	lea    -0x1f8(%rbp),%rax
   12fd5:	48 89 85 18 fe ff ff 	mov    %rax,-0x1e8(%rbp)
   12fdc:	48 8d 85 20 fe ff ff 	lea    -0x1e0(%rbp),%rax
   12fe3:	48 8d 15 56 6f 00 00 	lea    0x6f56(%rip),%rdx        # 19f40 <g_1266+0x1a20>
   12fea:	b9 38 00 00 00       	mov    $0x38,%ecx
   12fef:	48 89 c7             	mov    %rax,%rdi
   12ff2:	48 89 d6             	mov    %rdx,%rsi
   12ff5:	f3 48 a5             	rep movsq %ds:(%rsi),%es:(%rdi)
   12ff8:	48 8b 85 10 fe ff ff 	mov    -0x1f0(%rbp),%rax
   12fff:	8b 00                	mov    (%rax),%eax
   13001:	35 5c a7 a1 bd       	xor    $0xbda1a75c,%eax
   13006:	89 c2                	mov    %eax,%edx
   13008:	48 8b 85 10 fe ff ff 	mov    -0x1f0(%rbp),%rax
   1300f:	89 10                	mov    %edx,(%rax)
   13011:	48 8b 85 10 fe ff ff 	mov    -0x1f0(%rbp),%rax
   13018:	8b 00                	mov    (%rax),%eax
   1301a:	3d d0 f2 2c 53       	cmp    $0x532cf2d0,%eax
   1301f:	7e 4c                	jle    1306d <func_68+0xe1>
   13021:	0f b6 05 20 50 00 00 	movzbl 0x5020(%rip),%eax        # 18048 <g_95>
   13028:	0f b6 d8             	movzbl %al,%ebx
   1302b:	48 8b 85 10 fe ff ff 	mov    -0x1f0(%rbp),%rax
   13032:	8b 00                	mov    (%rax),%eax
   13034:	0f b7 d0             	movzwl %ax,%edx
   13037:	48 8b 85 10 fe ff ff 	mov    -0x1f0(%rbp),%rax
   1303e:	8b 00                	mov    (%rax),%eax
   13040:	0f b7 c0             	movzwl %ax,%eax
   13043:	89 d6                	mov    %edx,%esi
   13045:	89 c7                	mov    %eax,%edi
   13047:	e8 42 3d ff ff       	callq  6d8e <safe_div_func_uint16_t_u_u>
   1304c:	48 8b 85 18 fe ff ff 	mov    -0x1e8(%rbp),%rax
   13053:	48 8b 95 10 fe ff ff 	mov    -0x1f0(%rbp),%rdx
   1305a:	48 89 10             	mov    %rdx,(%rax)
   1305d:	89 de                	mov    %ebx,%esi
   1305f:	bf 01 00 00 00       	mov    $0x1,%edi
   13064:	e8 72 3b ff ff       	callq  6bdb <safe_div_func_uint8_t_u_u>
   13069:	84 c0                	test   %al,%al
   1306b:	74 07                	je     13074 <func_68+0xe8>
   1306d:	ba 01 00 00 00       	mov    $0x1,%edx
   13072:	eb 05                	jmp    13079 <func_68+0xed>
   13074:	ba 00 00 00 00       	mov    $0x0,%edx
   13079:	8b 05 cd 4f 00 00    	mov    0x4fcd(%rip),%eax        # 1804c <g_115>
   1307f:	31 d0                	xor    %edx,%eax
   13081:	89 05 c5 4f 00 00    	mov    %eax,0x4fc5(%rip)        # 1804c <g_115>
   13087:	48 8b 05 b2 4f 00 00 	mov    0x4fb2(%rip),%rax        # 18040 <g_72>
   1308e:	48 8b 4d e8          	mov    -0x18(%rbp),%rcx
   13092:	64 48 33 0c 25 28 00 	xor    %fs:0x28,%rcx
   13099:	00 00 
   1309b:	74 05                	je     130a2 <func_68+0x116>
   1309d:	e8 ce 2f ff ff       	callq  6070 <__stack_chk_fail@plt>
   130a2:	48 81 c4 08 02 00 00 	add    $0x208,%rsp
   130a9:	5b                   	pop    %rbx
   130aa:	5d                   	pop    %rbp
   130ab:	c3                   	retq   

00000000000130ac <main>:
   130ac:	f3 0f 1e fa          	endbr64 
   130b0:	55                   	push   %rbp
   130b1:	48 89 e5             	mov    %rsp,%rbp
   130b4:	48 83 ec 20          	sub    $0x20,%rsp
   130b8:	89 7d ec             	mov    %edi,-0x14(%rbp)
   130bb:	48 89 75 e0          	mov    %rsi,-0x20(%rbp)
   130bf:	c7 45 fc 00 00 00 00 	movl   $0x0,-0x4(%rbp)
   130c6:	83 7d ec 02          	cmpl   $0x2,-0x14(%rbp)
   130ca:	75 25                	jne    130f1 <main+0x45>
   130cc:	48 8b 45 e0          	mov    -0x20(%rbp),%rax
   130d0:	48 83 c0 08          	add    $0x8,%rax
   130d4:	48 8b 00             	mov    (%rax),%rax
   130d7:	48 8d 35 9a 1b 00 00 	lea    0x1b9a(%rip),%rsi        # 14c78 <g_991+0xc24>
   130de:	48 89 c7             	mov    %rax,%rdi
   130e1:	e8 aa 2f ff ff       	callq  6090 <strcmp@plt>
   130e6:	85 c0                	test   %eax,%eax
   130e8:	75 07                	jne    130f1 <main+0x45>
   130ea:	c7 45 fc 01 00 00 00 	movl   $0x1,-0x4(%rbp)
   130f1:	e8 93 30 ff ff       	callq  6189 <platform_main_begin>
   130f6:	e8 9d 44 ff ff       	callq  7598 <crc32_gentab>
   130fb:	e8 b5 46 ff ff       	callq  77b5 <func_1>
   13100:	48 8b 05 21 4f 00 00 	mov    0x4f21(%rip),%rax        # 18028 <g_2>
   13107:	48 89 c1             	mov    %rax,%rcx
   1310a:	8b 45 fc             	mov    -0x4(%rbp),%eax
   1310d:	89 c2                	mov    %eax,%edx
   1310f:	48 8d 35 64 1b 00 00 	lea    0x1b64(%rip),%rsi        # 14c7a <g_991+0xc26>
   13116:	48 89 cf             	mov    %rcx,%rdi
   13119:	e8 d5 45 ff ff       	callq  76f3 <transparent_crc>
   1311e:	0f b6 05 0b 4f 00 00 	movzbl 0x4f0b(%rip),%eax        # 18030 <g_27>
   13125:	48 0f be c0          	movsbq %al,%rax
   13129:	8b 55 fc             	mov    -0x4(%rbp),%edx
   1312c:	48 8d 35 4b 1b 00 00 	lea    0x1b4b(%rip),%rsi        # 14c7e <g_991+0xc2a>
   13133:	48 89 c7             	mov    %rax,%rdi
   13136:	e8 b8 45 ff ff       	callq  76f3 <transparent_crc>
   1313b:	0f b7 05 f0 4e 00 00 	movzwl 0x4ef0(%rip),%eax        # 18032 <g_28>
   13142:	48 0f bf c0          	movswq %ax,%rax
   13146:	8b 55 fc             	mov    -0x4(%rbp),%edx
   13149:	48 8d 35 33 1b 00 00 	lea    0x1b33(%rip),%rsi        # 14c83 <g_991+0xc2f>
   13150:	48 89 c7             	mov    %rax,%rdi
   13153:	e8 9b 45 ff ff       	callq  76f3 <transparent_crc>
   13158:	8b 05 d6 4e 00 00    	mov    0x4ed6(%rip),%eax        # 18034 <g_30>
   1315e:	89 c1                	mov    %eax,%ecx
   13160:	8b 45 fc             	mov    -0x4(%rbp),%eax
   13163:	89 c2                	mov    %eax,%edx
   13165:	48 8d 35 1c 1b 00 00 	lea    0x1b1c(%rip),%rsi        # 14c88 <g_991+0xc34>
   1316c:	48 89 cf             	mov    %rcx,%rdi
   1316f:	e8 7f 45 ff ff       	callq  76f3 <transparent_crc>
   13174:	48 8b 05 bd 4e 00 00 	mov    0x4ebd(%rip),%rax        # 18038 <g_44>
   1317b:	8b 55 fc             	mov    -0x4(%rbp),%edx
   1317e:	48 8d 35 08 1b 00 00 	lea    0x1b08(%rip),%rsi        # 14c8d <g_991+0xc39>
   13185:	48 89 c7             	mov    %rax,%rdi
   13188:	e8 66 45 ff ff       	callq  76f3 <transparent_crc>
   1318d:	48 8b 05 ac 4e 00 00 	mov    0x4eac(%rip),%rax        # 18040 <g_72>
   13194:	48 89 c1             	mov    %rax,%rcx
   13197:	8b 45 fc             	mov    -0x4(%rbp),%eax
   1319a:	89 c2                	mov    %eax,%edx
   1319c:	48 8d 35 ef 1a 00 00 	lea    0x1aef(%rip),%rsi        # 14c92 <g_991+0xc3e>
   131a3:	48 89 cf             	mov    %rcx,%rdi
   131a6:	e8 48 45 ff ff       	callq  76f3 <transparent_crc>
   131ab:	0f b6 05 96 4e 00 00 	movzbl 0x4e96(%rip),%eax        # 18048 <g_95>
   131b2:	48 0f be c0          	movsbq %al,%rax
   131b6:	8b 55 fc             	mov    -0x4(%rbp),%edx
   131b9:	48 8d 35 d7 1a 00 00 	lea    0x1ad7(%rip),%rsi        # 14c97 <g_991+0xc43>
   131c0:	48 89 c7             	mov    %rax,%rdi
   131c3:	e8 2b 45 ff ff       	callq  76f3 <transparent_crc>
   131c8:	0f b6 05 7a 4e 00 00 	movzbl 0x4e7a(%rip),%eax        # 18049 <g_97>
   131cf:	48 0f be c0          	movsbq %al,%rax
   131d3:	8b 55 fc             	mov    -0x4(%rbp),%edx
   131d6:	48 8d 35 bf 1a 00 00 	lea    0x1abf(%rip),%rsi        # 14c9c <g_991+0xc48>
   131dd:	48 89 c7             	mov    %rax,%rdi
   131e0:	e8 0e 45 ff ff       	callq  76f3 <transparent_crc>
   131e5:	8b 05 1d 79 00 00    	mov    0x791d(%rip),%eax        # 1ab08 <g_106>
   131eb:	48 98                	cltq   
   131ed:	8b 55 fc             	mov    -0x4(%rbp),%edx
   131f0:	48 8d 35 aa 1a 00 00 	lea    0x1aaa(%rip),%rsi        # 14ca1 <g_991+0xc4d>
   131f7:	48 89 c7             	mov    %rax,%rdi
   131fa:	e8 f4 44 ff ff       	callq  76f3 <transparent_crc>
   131ff:	8b 05 47 4e 00 00    	mov    0x4e47(%rip),%eax        # 1804c <g_115>
   13205:	48 98                	cltq   
   13207:	8b 55 fc             	mov    -0x4(%rbp),%edx
   1320a:	48 8d 35 96 1a 00 00 	lea    0x1a96(%rip),%rsi        # 14ca7 <g_991+0xc53>
   13211:	48 89 c7             	mov    %rax,%rdi
   13214:	e8 da 44 ff ff       	callq  76f3 <transparent_crc>
   13219:	8b 05 31 4e 00 00    	mov    0x4e31(%rip),%eax        # 18050 <g_135>
   1321f:	48 98                	cltq   
   13221:	8b 55 fc             	mov    -0x4(%rbp),%edx
   13224:	48 8d 35 82 1a 00 00 	lea    0x1a82(%rip),%rsi        # 14cad <g_991+0xc59>
   1322b:	48 89 c7             	mov    %rax,%rdi
   1322e:	e8 c0 44 ff ff       	callq  76f3 <transparent_crc>
   13233:	48 8b 05 1e 4e 00 00 	mov    0x4e1e(%rip),%rax        # 18058 <g_146>
   1323a:	48 89 c1             	mov    %rax,%rcx
   1323d:	8b 45 fc             	mov    -0x4(%rbp),%eax
   13240:	89 c2                	mov    %eax,%edx
   13242:	48 8d 35 6a 1a 00 00 	lea    0x1a6a(%rip),%rsi        # 14cb3 <g_991+0xc5f>
   13249:	48 89 cf             	mov    %rcx,%rdi
   1324c:	e8 a2 44 ff ff       	callq  76f3 <transparent_crc>
   13251:	8b 05 09 4e 00 00    	mov    0x4e09(%rip),%eax        # 18060 <g_151>
   13257:	89 c1                	mov    %eax,%ecx
   13259:	8b 45 fc             	mov    -0x4(%rbp),%eax
   1325c:	89 c2                	mov    %eax,%edx
   1325e:	48 8d 35 54 1a 00 00 	lea    0x1a54(%rip),%rsi        # 14cb9 <g_991+0xc65>
   13265:	48 89 cf             	mov    %rcx,%rdi
   13268:	e8 86 44 ff ff       	callq  76f3 <transparent_crc>
   1326d:	0f b7 05 f0 4d 00 00 	movzwl 0x4df0(%rip),%eax        # 18064 <g_201>
   13274:	0f b7 c0             	movzwl %ax,%eax
   13277:	8b 55 fc             	mov    -0x4(%rbp),%edx
   1327a:	48 8d 35 3e 1a 00 00 	lea    0x1a3e(%rip),%rsi        # 14cbf <g_991+0xc6b>
   13281:	48 89 c7             	mov    %rax,%rdi
   13284:	e8 6a 44 ff ff       	callq  76f3 <transparent_crc>
   13289:	0f b7 05 d6 4d 00 00 	movzwl 0x4dd6(%rip),%eax        # 18066 <g_208>
   13290:	48 0f bf c0          	movswq %ax,%rax
   13294:	8b 55 fc             	mov    -0x4(%rbp),%edx
   13297:	48 8d 35 27 1a 00 00 	lea    0x1a27(%rip),%rsi        # 14cc5 <g_991+0xc71>
   1329e:	48 89 c7             	mov    %rax,%rdi
   132a1:	e8 4d 44 ff ff       	callq  76f3 <transparent_crc>
   132a6:	0f b7 05 bb 4d 00 00 	movzwl 0x4dbb(%rip),%eax        # 18068 <g_210>
   132ad:	48 0f bf c0          	movswq %ax,%rax
   132b1:	8b 55 fc             	mov    -0x4(%rbp),%edx
   132b4:	48 8d 35 10 1a 00 00 	lea    0x1a10(%rip),%rsi        # 14ccb <g_991+0xc77>
   132bb:	48 89 c7             	mov    %rax,%rdi
   132be:	e8 30 44 ff ff       	callq  76f3 <transparent_crc>
   132c3:	c7 45 f0 00 00 00 00 	movl   $0x0,-0x10(%rbp)
   132ca:	eb 4a                	jmp    13316 <main+0x26a>
   132cc:	8b 45 f0             	mov    -0x10(%rbp),%eax
   132cf:	48 98                	cltq   
   132d1:	48 8d 14 00          	lea    (%rax,%rax,1),%rdx
   132d5:	48 8d 05 94 4d 00 00 	lea    0x4d94(%rip),%rax        # 18070 <g_246>
   132dc:	0f b7 04 02          	movzwl (%rdx,%rax,1),%eax
   132e0:	48 0f bf c0          	movswq %ax,%rax
   132e4:	8b 55 fc             	mov    -0x4(%rbp),%edx
   132e7:	48 8d 35 e3 19 00 00 	lea    0x19e3(%rip),%rsi        # 14cd1 <g_991+0xc7d>
   132ee:	48 89 c7             	mov    %rax,%rdi
   132f1:	e8 fd 43 ff ff       	callq  76f3 <transparent_crc>
   132f6:	83 7d fc 00          	cmpl   $0x0,-0x4(%rbp)
   132fa:	74 16                	je     13312 <main+0x266>
   132fc:	8b 45 f0             	mov    -0x10(%rbp),%eax
   132ff:	89 c6                	mov    %eax,%esi
   13301:	48 8d 3d d2 19 00 00 	lea    0x19d2(%rip),%rdi        # 14cda <g_991+0xc86>
   13308:	b8 00 00 00 00       	mov    $0x0,%eax
   1330d:	e8 6e 2d ff ff       	callq  6080 <printf@plt>
   13312:	83 45 f0 01          	addl   $0x1,-0x10(%rbp)
   13316:	83 7d f0 03          	cmpl   $0x3,-0x10(%rbp)
   1331a:	7e b0                	jle    132cc <main+0x220>
   1331c:	8b 05 56 4d 00 00    	mov    0x4d56(%rip),%eax        # 18078 <g_247>
   13322:	48 98                	cltq   
   13324:	8b 55 fc             	mov    -0x4(%rbp),%edx
   13327:	48 8d 35 ba 19 00 00 	lea    0x19ba(%rip),%rsi        # 14ce8 <g_991+0xc94>
   1332e:	48 89 c7             	mov    %rax,%rdi
   13331:	e8 bd 43 ff ff       	callq  76f3 <transparent_crc>
   13336:	c7 45 f0 00 00 00 00 	movl   $0x0,-0x10(%rbp)
   1333d:	eb 7a                	jmp    133b9 <main+0x30d>
   1333f:	c7 45 f4 00 00 00 00 	movl   $0x0,-0xc(%rbp)
   13346:	eb 67                	jmp    133af <main+0x303>
   13348:	8b 45 f4             	mov    -0xc(%rbp),%eax
   1334b:	48 63 c8             	movslq %eax,%rcx
   1334e:	8b 45 f0             	mov    -0x10(%rbp),%eax
   13351:	48 63 d0             	movslq %eax,%rdx
   13354:	48 89 d0             	mov    %rdx,%rax
   13357:	48 c1 e0 02          	shl    $0x2,%rax
   1335b:	48 01 d0             	add    %rdx,%rax
   1335e:	48 01 c0             	add    %rax,%rax
   13361:	48 01 c8             	add    %rcx,%rax
   13364:	48 8d 14 85 00 00 00 	lea    0x0(,%rax,4),%rdx
   1336b:	00 
   1336c:	48 8d 05 0d 4d 00 00 	lea    0x4d0d(%rip),%rax        # 18080 <g_248>
   13373:	8b 04 02             	mov    (%rdx,%rax,1),%eax
   13376:	89 c1                	mov    %eax,%ecx
   13378:	8b 45 fc             	mov    -0x4(%rbp),%eax
   1337b:	89 c2                	mov    %eax,%edx
   1337d:	48 8d 35 6a 19 00 00 	lea    0x196a(%rip),%rsi        # 14cee <g_991+0xc9a>
   13384:	48 89 cf             	mov    %rcx,%rdi
   13387:	e8 67 43 ff ff       	callq  76f3 <transparent_crc>
   1338c:	83 7d fc 00          	cmpl   $0x0,-0x4(%rbp)
   13390:	74 19                	je     133ab <main+0x2ff>
   13392:	8b 55 f4             	mov    -0xc(%rbp),%edx
   13395:	8b 45 f0             	mov    -0x10(%rbp),%eax
   13398:	89 c6                	mov    %eax,%esi
   1339a:	48 8d 3d 59 19 00 00 	lea    0x1959(%rip),%rdi        # 14cfa <g_991+0xca6>
   133a1:	b8 00 00 00 00       	mov    $0x0,%eax
   133a6:	e8 d5 2c ff ff       	callq  6080 <printf@plt>
   133ab:	83 45 f4 01          	addl   $0x1,-0xc(%rbp)
   133af:	83 7d f4 09          	cmpl   $0x9,-0xc(%rbp)
   133b3:	7e 93                	jle    13348 <main+0x29c>
   133b5:	83 45 f0 01          	addl   $0x1,-0x10(%rbp)
   133b9:	83 7d f0 07          	cmpl   $0x7,-0x10(%rbp)
   133bd:	7e 80                	jle    1333f <main+0x293>
   133bf:	0f b7 05 fa 4d 00 00 	movzwl 0x4dfa(%rip),%eax        # 181c0 <g_263>
   133c6:	0f b7 c0             	movzwl %ax,%eax
   133c9:	8b 55 fc             	mov    -0x4(%rbp),%edx
   133cc:	48 8d 35 39 19 00 00 	lea    0x1939(%rip),%rsi        # 14d0c <g_991+0xcb8>
   133d3:	48 89 c7             	mov    %rax,%rdi
   133d6:	e8 18 43 ff ff       	callq  76f3 <transparent_crc>
   133db:	0f b6 05 e0 4d 00 00 	movzbl 0x4de0(%rip),%eax        # 181c2 <g_288>
   133e2:	0f b6 c0             	movzbl %al,%eax
   133e5:	8b 55 fc             	mov    -0x4(%rbp),%edx
   133e8:	48 8d 35 23 19 00 00 	lea    0x1923(%rip),%rsi        # 14d12 <g_991+0xcbe>
   133ef:	48 89 c7             	mov    %rax,%rdi
   133f2:	e8 fc 42 ff ff       	callq  76f3 <transparent_crc>
   133f7:	48 8b 05 ca 4d 00 00 	mov    0x4dca(%rip),%rax        # 181c8 <g_317>
   133fe:	8b 55 fc             	mov    -0x4(%rbp),%edx
   13401:	48 8d 35 10 19 00 00 	lea    0x1910(%rip),%rsi        # 14d18 <g_991+0xcc4>
   13408:	48 89 c7             	mov    %rax,%rdi
   1340b:	e8 e3 42 ff ff       	callq  76f3 <transparent_crc>
   13410:	8b 05 ba 4d 00 00    	mov    0x4dba(%rip),%eax        # 181d0 <g_412>
   13416:	89 c1                	mov    %eax,%ecx
   13418:	8b 45 fc             	mov    -0x4(%rbp),%eax
   1341b:	89 c2                	mov    %eax,%edx
   1341d:	48 8d 35 fa 18 00 00 	lea    0x18fa(%rip),%rsi        # 14d1e <g_991+0xcca>
   13424:	48 89 cf             	mov    %rcx,%rdi
   13427:	e8 c7 42 ff ff       	callq  76f3 <transparent_crc>
   1342c:	c7 45 f0 00 00 00 00 	movl   $0x0,-0x10(%rbp)
   13433:	e9 ac 00 00 00       	jmpq   134e4 <main+0x438>
   13438:	8b 45 f0             	mov    -0x10(%rbp),%eax
   1343b:	48 63 d0             	movslq %eax,%rdx
   1343e:	48 89 d0             	mov    %rdx,%rax
   13441:	48 01 c0             	add    %rax,%rax
   13444:	48 01 c2             	add    %rax,%rdx
   13447:	48 8d 05 92 4d 00 00 	lea    0x4d92(%rip),%rax        # 181e0 <g_419>
   1344e:	0f b6 04 02          	movzbl (%rdx,%rax,1),%eax
   13452:	c1 e0 07             	shl    $0x7,%eax
   13455:	c0 f8 07             	sar    $0x7,%al
   13458:	48 0f be c0          	movsbq %al,%rax
   1345c:	8b 55 fc             	mov    -0x4(%rbp),%edx
   1345f:	48 8d 35 be 18 00 00 	lea    0x18be(%rip),%rsi        # 14d24 <g_991+0xcd0>
   13466:	48 89 c7             	mov    %rax,%rdi
   13469:	e8 85 42 ff ff       	callq  76f3 <transparent_crc>
   1346e:	8b 45 f0             	mov    -0x10(%rbp),%eax
   13471:	48 63 d0             	movslq %eax,%rdx
   13474:	48 89 d0             	mov    %rdx,%rax
   13477:	48 01 c0             	add    %rax,%rax
   1347a:	48 01 c2             	add    %rax,%rdx
   1347d:	48 8d 05 5c 4d 00 00 	lea    0x4d5c(%rip),%rax        # 181e0 <g_419>
   13484:	0f b6 0c 02          	movzbl (%rdx,%rax,1),%ecx
   13488:	d0 e9                	shr    %cl
   1348a:	0f b6 c9             	movzbl %cl,%ecx
   1348d:	0f b6 74 02 01       	movzbl 0x1(%rdx,%rax,1),%esi
   13492:	40 0f b6 f6          	movzbl %sil,%esi
   13496:	48 c1 e6 07          	shl    $0x7,%rsi
   1349a:	48 09 f1             	or     %rsi,%rcx
   1349d:	0f b6 44 02 02       	movzbl 0x2(%rdx,%rax,1),%eax
   134a2:	0f b6 c0             	movzbl %al,%eax
   134a5:	83 e0 01             	and    $0x1,%eax
   134a8:	48 c1 e0 0f          	shl    $0xf,%rax
   134ac:	48 09 c8             	or     %rcx,%rax
   134af:	0f b7 c0             	movzwl %ax,%eax
   134b2:	8b 55 fc             	mov    -0x4(%rbp),%edx
   134b5:	48 8d 35 74 18 00 00 	lea    0x1874(%rip),%rsi        # 14d30 <g_991+0xcdc>
   134bc:	48 89 c7             	mov    %rax,%rdi
   134bf:	e8 2f 42 ff ff       	callq  76f3 <transparent_crc>
   134c4:	83 7d fc 00          	cmpl   $0x0,-0x4(%rbp)
   134c8:	74 16                	je     134e0 <main+0x434>
   134ca:	8b 45 f0             	mov    -0x10(%rbp),%eax
   134cd:	89 c6                	mov    %eax,%esi
   134cf:	48 8d 3d 04 18 00 00 	lea    0x1804(%rip),%rdi        # 14cda <g_991+0xc86>
   134d6:	b8 00 00 00 00       	mov    $0x0,%eax
   134db:	e8 a0 2b ff ff       	callq  6080 <printf@plt>
   134e0:	83 45 f0 01          	addl   $0x1,-0x10(%rbp)
   134e4:	83 7d f0 07          	cmpl   $0x7,-0x10(%rbp)
   134e8:	0f 8e 4a ff ff ff    	jle    13438 <main+0x38c>
   134ee:	0f b6 05 03 4d 00 00 	movzbl 0x4d03(%rip),%eax        # 181f8 <g_420>
   134f5:	c1 e0 07             	shl    $0x7,%eax
   134f8:	c0 f8 07             	sar    $0x7,%al
   134fb:	48 0f be c0          	movsbq %al,%rax
   134ff:	8b 55 fc             	mov    -0x4(%rbp),%edx
   13502:	48 8d 35 33 18 00 00 	lea    0x1833(%rip),%rsi        # 14d3c <g_991+0xce8>
   13509:	48 89 c7             	mov    %rax,%rdi
   1350c:	e8 e2 41 ff ff       	callq  76f3 <transparent_crc>
   13511:	0f b6 05 e0 4c 00 00 	movzbl 0x4ce0(%rip),%eax        # 181f8 <g_420>
   13518:	d0 e8                	shr    %al
   1351a:	0f b6 c0             	movzbl %al,%eax
   1351d:	0f b6 15 d5 4c 00 00 	movzbl 0x4cd5(%rip),%edx        # 181f9 <g_420+0x1>
   13524:	0f b6 d2             	movzbl %dl,%edx
   13527:	48 c1 e2 07          	shl    $0x7,%rdx
   1352b:	48 09 c2             	or     %rax,%rdx
   1352e:	0f b6 05 c5 4c 00 00 	movzbl 0x4cc5(%rip),%eax        # 181fa <g_420+0x2>
   13535:	0f b6 c0             	movzbl %al,%eax
   13538:	83 e0 01             	and    $0x1,%eax
   1353b:	48 c1 e0 0f          	shl    $0xf,%rax
   1353f:	48 09 d0             	or     %rdx,%rax
   13542:	0f b7 c0             	movzwl %ax,%eax
   13545:	8b 55 fc             	mov    -0x4(%rbp),%edx
   13548:	48 8d 35 f6 17 00 00 	lea    0x17f6(%rip),%rsi        # 14d45 <g_991+0xcf1>
   1354f:	48 89 c7             	mov    %rax,%rdi
   13552:	e8 9c 41 ff ff       	callq  76f3 <transparent_crc>
   13557:	0f b6 05 9d 4c 00 00 	movzbl 0x4c9d(%rip),%eax        # 181fb <g_421>
   1355e:	c1 e0 07             	shl    $0x7,%eax
   13561:	c0 f8 07             	sar    $0x7,%al
   13564:	48 0f be c0          	movsbq %al,%rax
   13568:	8b 55 fc             	mov    -0x4(%rbp),%edx
   1356b:	48 8d 35 dc 17 00 00 	lea    0x17dc(%rip),%rsi        # 14d4e <g_991+0xcfa>
   13572:	48 89 c7             	mov    %rax,%rdi
   13575:	e8 79 41 ff ff       	callq  76f3 <transparent_crc>
   1357a:	0f b6 05 7a 4c 00 00 	movzbl 0x4c7a(%rip),%eax        # 181fb <g_421>
   13581:	d0 e8                	shr    %al
   13583:	0f b6 c0             	movzbl %al,%eax
   13586:	0f b6 15 6f 4c 00 00 	movzbl 0x4c6f(%rip),%edx        # 181fc <g_421+0x1>
   1358d:	0f b6 d2             	movzbl %dl,%edx
   13590:	48 c1 e2 07          	shl    $0x7,%rdx
   13594:	48 09 c2             	or     %rax,%rdx
   13597:	0f b6 05 5f 4c 00 00 	movzbl 0x4c5f(%rip),%eax        # 181fd <g_421+0x2>
   1359e:	0f b6 c0             	movzbl %al,%eax
   135a1:	83 e0 01             	and    $0x1,%eax
   135a4:	48 c1 e0 0f          	shl    $0xf,%rax
   135a8:	48 09 d0             	or     %rdx,%rax
   135ab:	0f b7 c0             	movzwl %ax,%eax
   135ae:	8b 55 fc             	mov    -0x4(%rbp),%edx
   135b1:	48 8d 35 9f 17 00 00 	lea    0x179f(%rip),%rsi        # 14d57 <g_991+0xd03>
   135b8:	48 89 c7             	mov    %rax,%rdi
   135bb:	e8 33 41 ff ff       	callq  76f3 <transparent_crc>
   135c0:	0f b6 05 37 4c 00 00 	movzbl 0x4c37(%rip),%eax        # 181fe <g_422>
   135c7:	c1 e0 07             	shl    $0x7,%eax
   135ca:	c0 f8 07             	sar    $0x7,%al
   135cd:	48 0f be c0          	movsbq %al,%rax
   135d1:	8b 55 fc             	mov    -0x4(%rbp),%edx
   135d4:	48 8d 35 85 17 00 00 	lea    0x1785(%rip),%rsi        # 14d60 <g_991+0xd0c>
   135db:	48 89 c7             	mov    %rax,%rdi
   135de:	e8 10 41 ff ff       	callq  76f3 <transparent_crc>
   135e3:	0f b6 05 14 4c 00 00 	movzbl 0x4c14(%rip),%eax        # 181fe <g_422>
   135ea:	d0 e8                	shr    %al
   135ec:	0f b6 c0             	movzbl %al,%eax
   135ef:	0f b6 15 09 4c 00 00 	movzbl 0x4c09(%rip),%edx        # 181ff <g_422+0x1>
   135f6:	0f b6 d2             	movzbl %dl,%edx
   135f9:	48 c1 e2 07          	shl    $0x7,%rdx
   135fd:	48 09 c2             	or     %rax,%rdx
   13600:	0f b6 05 f9 4b 00 00 	movzbl 0x4bf9(%rip),%eax        # 18200 <g_422+0x2>
   13607:	0f b6 c0             	movzbl %al,%eax
   1360a:	83 e0 01             	and    $0x1,%eax
   1360d:	48 c1 e0 0f          	shl    $0xf,%rax
   13611:	48 09 d0             	or     %rdx,%rax
   13614:	0f b7 c0             	movzwl %ax,%eax
   13617:	8b 55 fc             	mov    -0x4(%rbp),%edx
   1361a:	48 8d 35 48 17 00 00 	lea    0x1748(%rip),%rsi        # 14d69 <g_991+0xd15>
   13621:	48 89 c7             	mov    %rax,%rdi
   13624:	e8 ca 40 ff ff       	callq  76f3 <transparent_crc>
   13629:	0f b6 05 d1 4b 00 00 	movzbl 0x4bd1(%rip),%eax        # 18201 <g_423>
   13630:	c1 e0 07             	shl    $0x7,%eax
   13633:	c0 f8 07             	sar    $0x7,%al
   13636:	48 0f be c0          	movsbq %al,%rax
   1363a:	8b 55 fc             	mov    -0x4(%rbp),%edx
   1363d:	48 8d 35 2e 17 00 00 	lea    0x172e(%rip),%rsi        # 14d72 <g_991+0xd1e>
   13644:	48 89 c7             	mov    %rax,%rdi
   13647:	e8 a7 40 ff ff       	callq  76f3 <transparent_crc>
   1364c:	0f b6 05 ae 4b 00 00 	movzbl 0x4bae(%rip),%eax        # 18201 <g_423>
   13653:	d0 e8                	shr    %al
   13655:	0f b6 c0             	movzbl %al,%eax
   13658:	0f b6 15 a3 4b 00 00 	movzbl 0x4ba3(%rip),%edx        # 18202 <g_423+0x1>
   1365f:	0f b6 d2             	movzbl %dl,%edx
   13662:	48 c1 e2 07          	shl    $0x7,%rdx
   13666:	48 09 c2             	or     %rax,%rdx
   13669:	0f b6 05 93 4b 00 00 	movzbl 0x4b93(%rip),%eax        # 18203 <g_423+0x2>
   13670:	0f b6 c0             	movzbl %al,%eax
   13673:	83 e0 01             	and    $0x1,%eax
   13676:	48 c1 e0 0f          	shl    $0xf,%rax
   1367a:	48 09 d0             	or     %rdx,%rax
   1367d:	0f b7 c0             	movzwl %ax,%eax
   13680:	8b 55 fc             	mov    -0x4(%rbp),%edx
   13683:	48 8d 35 f1 16 00 00 	lea    0x16f1(%rip),%rsi        # 14d7b <g_991+0xd27>
   1368a:	48 89 c7             	mov    %rax,%rdi
   1368d:	e8 61 40 ff ff       	callq  76f3 <transparent_crc>
   13692:	0f b6 05 6b 4b 00 00 	movzbl 0x4b6b(%rip),%eax        # 18204 <g_426>
   13699:	c1 e0 07             	shl    $0x7,%eax
   1369c:	c0 f8 07             	sar    $0x7,%al
   1369f:	48 0f be c0          	movsbq %al,%rax
   136a3:	8b 55 fc             	mov    -0x4(%rbp),%edx
   136a6:	48 8d 35 d7 16 00 00 	lea    0x16d7(%rip),%rsi        # 14d84 <g_991+0xd30>
   136ad:	48 89 c7             	mov    %rax,%rdi
   136b0:	e8 3e 40 ff ff       	callq  76f3 <transparent_crc>
   136b5:	0f b6 05 48 4b 00 00 	movzbl 0x4b48(%rip),%eax        # 18204 <g_426>
   136bc:	d0 e8                	shr    %al
   136be:	0f b6 c0             	movzbl %al,%eax
   136c1:	0f b6 15 3d 4b 00 00 	movzbl 0x4b3d(%rip),%edx        # 18205 <g_426+0x1>
   136c8:	0f b6 d2             	movzbl %dl,%edx
   136cb:	48 c1 e2 07          	shl    $0x7,%rdx
   136cf:	48 09 c2             	or     %rax,%rdx
   136d2:	0f b6 05 2d 4b 00 00 	movzbl 0x4b2d(%rip),%eax        # 18206 <g_426+0x2>
   136d9:	0f b6 c0             	movzbl %al,%eax
   136dc:	83 e0 01             	and    $0x1,%eax
   136df:	48 c1 e0 0f          	shl    $0xf,%rax
   136e3:	48 09 d0             	or     %rdx,%rax
   136e6:	0f b7 c0             	movzwl %ax,%eax
   136e9:	8b 55 fc             	mov    -0x4(%rbp),%edx
   136ec:	48 8d 35 9a 16 00 00 	lea    0x169a(%rip),%rsi        # 14d8d <g_991+0xd39>
   136f3:	48 89 c7             	mov    %rax,%rdi
   136f6:	e8 f8 3f ff ff       	callq  76f3 <transparent_crc>
   136fb:	0f b6 05 05 4b 00 00 	movzbl 0x4b05(%rip),%eax        # 18207 <g_579>
   13702:	c1 e0 07             	shl    $0x7,%eax
   13705:	c0 f8 07             	sar    $0x7,%al
   13708:	48 0f be c0          	movsbq %al,%rax
   1370c:	8b 55 fc             	mov    -0x4(%rbp),%edx
   1370f:	48 8d 35 80 16 00 00 	lea    0x1680(%rip),%rsi        # 14d96 <g_991+0xd42>
   13716:	48 89 c7             	mov    %rax,%rdi
   13719:	e8 d5 3f ff ff       	callq  76f3 <transparent_crc>
   1371e:	0f b6 05 e2 4a 00 00 	movzbl 0x4ae2(%rip),%eax        # 18207 <g_579>
   13725:	d0 e8                	shr    %al
   13727:	0f b6 c0             	movzbl %al,%eax
   1372a:	0f b6 15 d7 4a 00 00 	movzbl 0x4ad7(%rip),%edx        # 18208 <g_579+0x1>
   13731:	0f b6 d2             	movzbl %dl,%edx
   13734:	48 c1 e2 07          	shl    $0x7,%rdx
   13738:	48 09 c2             	or     %rax,%rdx
   1373b:	0f b6 05 c7 4a 00 00 	movzbl 0x4ac7(%rip),%eax        # 18209 <g_579+0x2>
   13742:	0f b6 c0             	movzbl %al,%eax
   13745:	83 e0 01             	and    $0x1,%eax
   13748:	48 c1 e0 0f          	shl    $0xf,%rax
   1374c:	48 09 d0             	or     %rdx,%rax
   1374f:	0f b7 c0             	movzwl %ax,%eax
   13752:	8b 55 fc             	mov    -0x4(%rbp),%edx
   13755:	48 8d 35 43 16 00 00 	lea    0x1643(%rip),%rsi        # 14d9f <g_991+0xd4b>
   1375c:	48 89 c7             	mov    %rax,%rdi
   1375f:	e8 8f 3f ff ff       	callq  76f3 <transparent_crc>
   13764:	8b 05 a6 4a 00 00    	mov    0x4aa6(%rip),%eax        # 18210 <g_614>
   1376a:	89 c1                	mov    %eax,%ecx
   1376c:	8b 45 fc             	mov    -0x4(%rbp),%eax
   1376f:	89 c2                	mov    %eax,%edx
   13771:	48 8d 35 30 16 00 00 	lea    0x1630(%rip),%rsi        # 14da8 <g_991+0xd54>
   13778:	48 89 cf             	mov    %rcx,%rdi
   1377b:	e8 73 3f ff ff       	callq  76f3 <transparent_crc>
   13780:	48 8b 05 89 4a 00 00 	mov    0x4a89(%rip),%rax        # 18210 <g_614>
   13787:	48 c1 e8 20          	shr    $0x20,%rax
   1378b:	83 e0 3f             	and    $0x3f,%eax
   1378e:	0f b6 c0             	movzbl %al,%eax
   13791:	8b 55 fc             	mov    -0x4(%rbp),%edx
   13794:	48 8d 35 16 16 00 00 	lea    0x1616(%rip),%rsi        # 14db1 <g_991+0xd5d>
   1379b:	48 89 c7             	mov    %rax,%rdi
   1379e:	e8 50 3f ff ff       	callq  76f3 <transparent_crc>
   137a3:	c7 45 f0 00 00 00 00 	movl   $0x0,-0x10(%rbp)
   137aa:	e9 a3 00 00 00       	jmpq   13852 <main+0x7a6>
   137af:	c7 45 f4 00 00 00 00 	movl   $0x0,-0xc(%rbp)
   137b6:	e9 89 00 00 00       	jmpq   13844 <main+0x798>
   137bb:	c7 45 f8 00 00 00 00 	movl   $0x0,-0x8(%rbp)
   137c2:	eb 76                	jmp    1383a <main+0x78e>
   137c4:	8b 45 f8             	mov    -0x8(%rbp),%eax
   137c7:	48 63 c8             	movslq %eax,%rcx
   137ca:	8b 45 f0             	mov    -0x10(%rbp),%eax
   137cd:	48 98                	cltq   
   137cf:	8b 55 f4             	mov    -0xc(%rbp),%edx
   137d2:	48 63 d2             	movslq %edx,%rdx
   137d5:	48 6b f0 5a          	imul   $0x5a,%rax,%rsi
   137d9:	48 89 d0             	mov    %rdx,%rax
   137dc:	48 c1 e0 02          	shl    $0x2,%rax
   137e0:	48 01 d0             	add    %rdx,%rax
   137e3:	48 01 c0             	add    %rax,%rax
   137e6:	48 01 f0             	add    %rsi,%rax
   137e9:	48 01 c8             	add    %rcx,%rax
   137ec:	48 8d 14 85 00 00 00 	lea    0x0(,%rax,4),%rdx
   137f3:	00 
   137f4:	48 8d 05 25 4a 00 00 	lea    0x4a25(%rip),%rax        # 18220 <g_715>
   137fb:	8b 04 02             	mov    (%rdx,%rax,1),%eax
   137fe:	89 c1                	mov    %eax,%ecx
   13800:	8b 45 fc             	mov    -0x4(%rbp),%eax
   13803:	89 c2                	mov    %eax,%edx
   13805:	48 8d 35 ae 15 00 00 	lea    0x15ae(%rip),%rsi        # 14dba <g_991+0xd66>
   1380c:	48 89 cf             	mov    %rcx,%rdi
   1380f:	e8 df 3e ff ff       	callq  76f3 <transparent_crc>
   13814:	83 7d fc 00          	cmpl   $0x0,-0x4(%rbp)
   13818:	74 1c                	je     13836 <main+0x78a>
   1381a:	8b 4d f8             	mov    -0x8(%rbp),%ecx
   1381d:	8b 55 f4             	mov    -0xc(%rbp),%edx
   13820:	8b 45 f0             	mov    -0x10(%rbp),%eax
   13823:	89 c6                	mov    %eax,%esi
   13825:	48 8d 3d 9d 15 00 00 	lea    0x159d(%rip),%rdi        # 14dc9 <g_991+0xd75>
   1382c:	b8 00 00 00 00       	mov    $0x0,%eax
   13831:	e8 4a 28 ff ff       	callq  6080 <printf@plt>
   13836:	83 45 f8 01          	addl   $0x1,-0x8(%rbp)
   1383a:	83 7d f8 09          	cmpl   $0x9,-0x8(%rbp)
   1383e:	7e 84                	jle    137c4 <main+0x718>
   13840:	83 45 f4 01          	addl   $0x1,-0xc(%rbp)
   13844:	83 7d f4 08          	cmpl   $0x8,-0xc(%rbp)
   13848:	0f 8e 6d ff ff ff    	jle    137bb <main+0x70f>
   1384e:	83 45 f0 01          	addl   $0x1,-0x10(%rbp)
   13852:	83 7d f0 01          	cmpl   $0x1,-0x10(%rbp)
   13856:	0f 8e 53 ff ff ff    	jle    137af <main+0x703>
   1385c:	0f b6 05 8d 4c 00 00 	movzbl 0x4c8d(%rip),%eax        # 184f0 <g_738>
   13863:	c1 e0 07             	shl    $0x7,%eax
   13866:	c0 f8 07             	sar    $0x7,%al
   13869:	48 0f be c0          	movsbq %al,%rax
   1386d:	8b 55 fc             	mov    -0x4(%rbp),%edx
   13870:	48 8d 35 68 15 00 00 	lea    0x1568(%rip),%rsi        # 14ddf <g_991+0xd8b>
   13877:	48 89 c7             	mov    %rax,%rdi
   1387a:	e8 74 3e ff ff       	callq  76f3 <transparent_crc>
   1387f:	0f b6 05 6a 4c 00 00 	movzbl 0x4c6a(%rip),%eax        # 184f0 <g_738>
   13886:	d0 e8                	shr    %al
   13888:	0f b6 c0             	movzbl %al,%eax
   1388b:	0f b6 15 5f 4c 00 00 	movzbl 0x4c5f(%rip),%edx        # 184f1 <g_738+0x1>
   13892:	0f b6 d2             	movzbl %dl,%edx
   13895:	48 c1 e2 07          	shl    $0x7,%rdx
   13899:	48 09 c2             	or     %rax,%rdx
   1389c:	0f b6 05 4f 4c 00 00 	movzbl 0x4c4f(%rip),%eax        # 184f2 <g_738+0x2>
   138a3:	0f b6 c0             	movzbl %al,%eax
   138a6:	83 e0 01             	and    $0x1,%eax
   138a9:	48 c1 e0 0f          	shl    $0xf,%rax
   138ad:	48 09 d0             	or     %rdx,%rax
   138b0:	0f b7 c0             	movzwl %ax,%eax
   138b3:	8b 55 fc             	mov    -0x4(%rbp),%edx
   138b6:	48 8d 35 2b 15 00 00 	lea    0x152b(%rip),%rsi        # 14de8 <g_991+0xd94>
   138bd:	48 89 c7             	mov    %rax,%rdi
   138c0:	e8 2e 3e ff ff       	callq  76f3 <transparent_crc>
   138c5:	0f b6 05 27 4c 00 00 	movzbl 0x4c27(%rip),%eax        # 184f3 <g_790>
   138cc:	c1 e0 07             	shl    $0x7,%eax
   138cf:	c0 f8 07             	sar    $0x7,%al
   138d2:	48 0f be c0          	movsbq %al,%rax
   138d6:	8b 55 fc             	mov    -0x4(%rbp),%edx
   138d9:	48 8d 35 11 15 00 00 	lea    0x1511(%rip),%rsi        # 14df1 <g_991+0xd9d>
   138e0:	48 89 c7             	mov    %rax,%rdi
   138e3:	e8 0b 3e ff ff       	callq  76f3 <transparent_crc>
   138e8:	0f b6 05 04 4c 00 00 	movzbl 0x4c04(%rip),%eax        # 184f3 <g_790>
   138ef:	d0 e8                	shr    %al
   138f1:	0f b6 c0             	movzbl %al,%eax
   138f4:	0f b6 15 f9 4b 00 00 	movzbl 0x4bf9(%rip),%edx        # 184f4 <g_790+0x1>
   138fb:	0f b6 d2             	movzbl %dl,%edx
   138fe:	48 c1 e2 07          	shl    $0x7,%rdx
   13902:	48 09 c2             	or     %rax,%rdx
   13905:	0f b6 05 e9 4b 00 00 	movzbl 0x4be9(%rip),%eax        # 184f5 <g_790+0x2>
   1390c:	0f b6 c0             	movzbl %al,%eax
   1390f:	83 e0 01             	and    $0x1,%eax
   13912:	48 c1 e0 0f          	shl    $0xf,%rax
   13916:	48 09 d0             	or     %rdx,%rax
   13919:	0f b7 c0             	movzwl %ax,%eax
   1391c:	8b 55 fc             	mov    -0x4(%rbp),%edx
   1391f:	48 8d 35 d4 14 00 00 	lea    0x14d4(%rip),%rsi        # 14dfa <g_991+0xda6>
   13926:	48 89 c7             	mov    %rax,%rdi
   13929:	e8 c5 3d ff ff       	callq  76f3 <transparent_crc>
   1392e:	0f b6 05 c1 4b 00 00 	movzbl 0x4bc1(%rip),%eax        # 184f6 <g_802>
   13935:	c1 e0 07             	shl    $0x7,%eax
   13938:	c0 f8 07             	sar    $0x7,%al
   1393b:	48 0f be c0          	movsbq %al,%rax
   1393f:	8b 55 fc             	mov    -0x4(%rbp),%edx
   13942:	48 8d 35 ba 14 00 00 	lea    0x14ba(%rip),%rsi        # 14e03 <g_991+0xdaf>
   13949:	48 89 c7             	mov    %rax,%rdi
   1394c:	e8 a2 3d ff ff       	callq  76f3 <transparent_crc>
   13951:	0f b6 05 9e 4b 00 00 	movzbl 0x4b9e(%rip),%eax        # 184f6 <g_802>
   13958:	d0 e8                	shr    %al
   1395a:	0f b6 c0             	movzbl %al,%eax
   1395d:	0f b6 15 93 4b 00 00 	movzbl 0x4b93(%rip),%edx        # 184f7 <g_802+0x1>
   13964:	0f b6 d2             	movzbl %dl,%edx
   13967:	48 c1 e2 07          	shl    $0x7,%rdx
   1396b:	48 09 c2             	or     %rax,%rdx
   1396e:	0f b6 05 83 4b 00 00 	movzbl 0x4b83(%rip),%eax        # 184f8 <g_802+0x2>
   13975:	0f b6 c0             	movzbl %al,%eax
   13978:	83 e0 01             	and    $0x1,%eax
   1397b:	48 c1 e0 0f          	shl    $0xf,%rax
   1397f:	48 09 d0             	or     %rdx,%rax
   13982:	0f b7 c0             	movzwl %ax,%eax
   13985:	8b 55 fc             	mov    -0x4(%rbp),%edx
   13988:	48 8d 35 7d 14 00 00 	lea    0x147d(%rip),%rsi        # 14e0c <g_991+0xdb8>
   1398f:	48 89 c7             	mov    %rax,%rdi
   13992:	e8 5c 3d ff ff       	callq  76f3 <transparent_crc>
   13997:	0f b6 05 5b 4b 00 00 	movzbl 0x4b5b(%rip),%eax        # 184f9 <g_849>
   1399e:	c1 e0 07             	shl    $0x7,%eax
   139a1:	c0 f8 07             	sar    $0x7,%al
   139a4:	48 0f be c0          	movsbq %al,%rax
   139a8:	8b 55 fc             	mov    -0x4(%rbp),%edx
   139ab:	48 8d 35 63 14 00 00 	lea    0x1463(%rip),%rsi        # 14e15 <g_991+0xdc1>
   139b2:	48 89 c7             	mov    %rax,%rdi
   139b5:	e8 39 3d ff ff       	callq  76f3 <transparent_crc>
   139ba:	0f b6 05 38 4b 00 00 	movzbl 0x4b38(%rip),%eax        # 184f9 <g_849>
   139c1:	d0 e8                	shr    %al
   139c3:	0f b6 c0             	movzbl %al,%eax
   139c6:	0f b6 15 2d 4b 00 00 	movzbl 0x4b2d(%rip),%edx        # 184fa <g_849+0x1>
   139cd:	0f b6 d2             	movzbl %dl,%edx
   139d0:	48 c1 e2 07          	shl    $0x7,%rdx
   139d4:	48 09 c2             	or     %rax,%rdx
   139d7:	0f b6 05 1d 4b 00 00 	movzbl 0x4b1d(%rip),%eax        # 184fb <g_849+0x2>
   139de:	0f b6 c0             	movzbl %al,%eax
   139e1:	83 e0 01             	and    $0x1,%eax
   139e4:	48 c1 e0 0f          	shl    $0xf,%rax
   139e8:	48 09 d0             	or     %rdx,%rax
   139eb:	0f b7 c0             	movzwl %ax,%eax
   139ee:	8b 55 fc             	mov    -0x4(%rbp),%edx
   139f1:	48 8d 35 26 14 00 00 	lea    0x1426(%rip),%rsi        # 14e1e <g_991+0xdca>
   139f8:	48 89 c7             	mov    %rax,%rdi
   139fb:	e8 f3 3c ff ff       	callq  76f3 <transparent_crc>
   13a00:	0f b6 05 f5 4a 00 00 	movzbl 0x4af5(%rip),%eax        # 184fc <g_850>
   13a07:	c1 e0 07             	shl    $0x7,%eax
   13a0a:	c0 f8 07             	sar    $0x7,%al
   13a0d:	48 0f be c0          	movsbq %al,%rax
   13a11:	8b 55 fc             	mov    -0x4(%rbp),%edx
   13a14:	48 8d 35 0c 14 00 00 	lea    0x140c(%rip),%rsi        # 14e27 <g_991+0xdd3>
   13a1b:	48 89 c7             	mov    %rax,%rdi
   13a1e:	e8 d0 3c ff ff       	callq  76f3 <transparent_crc>
   13a23:	0f b6 05 d2 4a 00 00 	movzbl 0x4ad2(%rip),%eax        # 184fc <g_850>
   13a2a:	d0 e8                	shr    %al
   13a2c:	0f b6 c0             	movzbl %al,%eax
   13a2f:	0f b6 15 c7 4a 00 00 	movzbl 0x4ac7(%rip),%edx        # 184fd <g_850+0x1>
   13a36:	0f b6 d2             	movzbl %dl,%edx
   13a39:	48 c1 e2 07          	shl    $0x7,%rdx
   13a3d:	48 09 c2             	or     %rax,%rdx
   13a40:	0f b6 05 b7 4a 00 00 	movzbl 0x4ab7(%rip),%eax        # 184fe <g_850+0x2>
   13a47:	0f b6 c0             	movzbl %al,%eax
   13a4a:	83 e0 01             	and    $0x1,%eax
   13a4d:	48 c1 e0 0f          	shl    $0xf,%rax
   13a51:	48 09 d0             	or     %rdx,%rax
   13a54:	0f b7 c0             	movzwl %ax,%eax
   13a57:	8b 55 fc             	mov    -0x4(%rbp),%edx
   13a5a:	48 8d 35 cf 13 00 00 	lea    0x13cf(%rip),%rsi        # 14e30 <g_991+0xddc>
   13a61:	48 89 c7             	mov    %rax,%rdi
   13a64:	e8 8a 3c ff ff       	callq  76f3 <transparent_crc>
   13a69:	0f b6 05 8f 4a 00 00 	movzbl 0x4a8f(%rip),%eax        # 184ff <g_971>
   13a70:	0f b6 c0             	movzbl %al,%eax
   13a73:	8b 55 fc             	mov    -0x4(%rbp),%edx
   13a76:	48 8d 35 bc 13 00 00 	lea    0x13bc(%rip),%rsi        # 14e39 <g_991+0xde5>
   13a7d:	48 89 c7             	mov    %rax,%rdi
   13a80:	e8 6e 3c ff ff       	callq  76f3 <transparent_crc>
   13a85:	8b 05 75 4a 00 00    	mov    0x4a75(%rip),%eax        # 18500 <g_977>
   13a8b:	89 c1                	mov    %eax,%ecx
   13a8d:	8b 45 fc             	mov    -0x4(%rbp),%eax
   13a90:	89 c2                	mov    %eax,%edx
   13a92:	48 8d 35 a6 13 00 00 	lea    0x13a6(%rip),%rsi        # 14e3f <g_991+0xdeb>
   13a99:	48 89 cf             	mov    %rcx,%rdi
   13a9c:	e8 52 3c ff ff       	callq  76f3 <transparent_crc>
   13aa1:	48 8b 05 58 4a 00 00 	mov    0x4a58(%rip),%rax        # 18500 <g_977>
   13aa8:	48 c1 e8 20          	shr    $0x20,%rax
   13aac:	83 e0 3f             	and    $0x3f,%eax
   13aaf:	0f b6 c0             	movzbl %al,%eax
   13ab2:	8b 55 fc             	mov    -0x4(%rbp),%edx
   13ab5:	48 8d 35 8c 13 00 00 	lea    0x138c(%rip),%rsi        # 14e48 <g_991+0xdf4>
   13abc:	48 89 c7             	mov    %rax,%rdi
   13abf:	e8 2f 3c ff ff       	callq  76f3 <transparent_crc>
   13ac4:	0f b6 05 3d 4a 00 00 	movzbl 0x4a3d(%rip),%eax        # 18508 <g_988>
   13acb:	c1 e0 07             	shl    $0x7,%eax
   13ace:	c0 f8 07             	sar    $0x7,%al
   13ad1:	48 0f be c0          	movsbq %al,%rax
   13ad5:	8b 55 fc             	mov    -0x4(%rbp),%edx
   13ad8:	48 8d 35 72 13 00 00 	lea    0x1372(%rip),%rsi        # 14e51 <g_991+0xdfd>
   13adf:	48 89 c7             	mov    %rax,%rdi
   13ae2:	e8 0c 3c ff ff       	callq  76f3 <transparent_crc>
   13ae7:	0f b6 05 1a 4a 00 00 	movzbl 0x4a1a(%rip),%eax        # 18508 <g_988>
   13aee:	d0 e8                	shr    %al
   13af0:	0f b6 c0             	movzbl %al,%eax
   13af3:	0f b6 15 0f 4a 00 00 	movzbl 0x4a0f(%rip),%edx        # 18509 <g_988+0x1>
   13afa:	0f b6 d2             	movzbl %dl,%edx
   13afd:	48 c1 e2 07          	shl    $0x7,%rdx
   13b01:	48 09 c2             	or     %rax,%rdx
   13b04:	0f b6 05 ff 49 00 00 	movzbl 0x49ff(%rip),%eax        # 1850a <g_988+0x2>
   13b0b:	0f b6 c0             	movzbl %al,%eax
   13b0e:	83 e0 01             	and    $0x1,%eax
   13b11:	48 c1 e0 0f          	shl    $0xf,%rax
   13b15:	48 09 d0             	or     %rdx,%rax
   13b18:	0f b7 c0             	movzwl %ax,%eax
   13b1b:	8b 55 fc             	mov    -0x4(%rbp),%edx
   13b1e:	48 8d 35 35 13 00 00 	lea    0x1335(%rip),%rsi        # 14e5a <g_991+0xe06>
   13b25:	48 89 c7             	mov    %rax,%rdi
   13b28:	e8 c6 3b ff ff       	callq  76f3 <transparent_crc>
   13b2d:	b8 00 00 00 00       	mov    $0x0,%eax
   13b32:	48 0f be c0          	movsbq %al,%rax
   13b36:	8b 55 fc             	mov    -0x4(%rbp),%edx
   13b39:	48 8d 35 23 13 00 00 	lea    0x1323(%rip),%rsi        # 14e63 <g_991+0xe0f>
   13b40:	48 89 c7             	mov    %rax,%rdi
   13b43:	e8 ab 3b ff ff       	callq  76f3 <transparent_crc>
   13b48:	0f b6 05 05 05 00 00 	movzbl 0x505(%rip),%eax        # 14054 <g_991>
   13b4f:	d0 e8                	shr    %al
   13b51:	0f b6 c0             	movzbl %al,%eax
   13b54:	0f b6 15 fa 04 00 00 	movzbl 0x4fa(%rip),%edx        # 14055 <g_991+0x1>
   13b5b:	0f b6 d2             	movzbl %dl,%edx
   13b5e:	48 c1 e2 07          	shl    $0x7,%rdx
   13b62:	48 09 c2             	or     %rax,%rdx
   13b65:	0f b6 05 ea 04 00 00 	movzbl 0x4ea(%rip),%eax        # 14056 <g_991+0x2>
   13b6c:	0f b6 c0             	movzbl %al,%eax
   13b6f:	83 e0 01             	and    $0x1,%eax
   13b72:	48 c1 e0 0f          	shl    $0xf,%rax
   13b76:	48 09 d0             	or     %rdx,%rax
   13b79:	0f b7 c0             	movzwl %ax,%eax
   13b7c:	8b 55 fc             	mov    -0x4(%rbp),%edx
   13b7f:	48 8d 35 e6 12 00 00 	lea    0x12e6(%rip),%rsi        # 14e6c <g_991+0xe18>
   13b86:	48 89 c7             	mov    %rax,%rdi
   13b89:	e8 65 3b ff ff       	callq  76f3 <transparent_crc>
   13b8e:	8b 05 78 49 00 00    	mov    0x4978(%rip),%eax        # 1850c <g_1234>
   13b94:	48 98                	cltq   
   13b96:	8b 55 fc             	mov    -0x4(%rbp),%edx
   13b99:	48 8d 35 d5 12 00 00 	lea    0x12d5(%rip),%rsi        # 14e75 <g_991+0xe21>
   13ba0:	48 89 c7             	mov    %rax,%rdi
   13ba3:	e8 4b 3b ff ff       	callq  76f3 <transparent_crc>
   13ba8:	c7 45 f0 00 00 00 00 	movl   $0x0,-0x10(%rbp)
   13baf:	e9 81 00 00 00       	jmpq   13c35 <main+0xb89>
   13bb4:	8b 45 f0             	mov    -0x10(%rbp),%eax
   13bb7:	48 98                	cltq   
   13bb9:	48 8d 14 c5 00 00 00 	lea    0x0(,%rax,8),%rdx
   13bc0:	00 
   13bc1:	48 8d 05 58 49 00 00 	lea    0x4958(%rip),%rax        # 18520 <g_1266>
   13bc8:	8b 04 02             	mov    (%rdx,%rax,1),%eax
   13bcb:	89 c1                	mov    %eax,%ecx
   13bcd:	8b 45 fc             	mov    -0x4(%rbp),%eax
   13bd0:	89 c2                	mov    %eax,%edx
   13bd2:	48 8d 35 a3 12 00 00 	lea    0x12a3(%rip),%rsi        # 14e7c <g_991+0xe28>
   13bd9:	48 89 cf             	mov    %rcx,%rdi
   13bdc:	e8 12 3b ff ff       	callq  76f3 <transparent_crc>
   13be1:	8b 45 f0             	mov    -0x10(%rbp),%eax
   13be4:	48 98                	cltq   
   13be6:	48 8d 14 c5 00 00 00 	lea    0x0(,%rax,8),%rdx
   13bed:	00 
   13bee:	48 8d 05 2b 49 00 00 	lea    0x492b(%rip),%rax        # 18520 <g_1266>
   13bf5:	48 8b 04 02          	mov    (%rdx,%rax,1),%rax
   13bf9:	48 c1 e8 20          	shr    $0x20,%rax
   13bfd:	83 e0 3f             	and    $0x3f,%eax
   13c00:	0f b6 c0             	movzbl %al,%eax
   13c03:	8b 55 fc             	mov    -0x4(%rbp),%edx
   13c06:	48 8d 35 7c 12 00 00 	lea    0x127c(%rip),%rsi        # 14e89 <g_991+0xe35>
   13c0d:	48 89 c7             	mov    %rax,%rdi
   13c10:	e8 de 3a ff ff       	callq  76f3 <transparent_crc>
   13c15:	83 7d fc 00          	cmpl   $0x0,-0x4(%rbp)
   13c19:	74 16                	je     13c31 <main+0xb85>
   13c1b:	8b 45 f0             	mov    -0x10(%rbp),%eax
   13c1e:	89 c6                	mov    %eax,%esi
   13c20:	48 8d 3d b3 10 00 00 	lea    0x10b3(%rip),%rdi        # 14cda <g_991+0xc86>
   13c27:	b8 00 00 00 00       	mov    $0x0,%eax
   13c2c:	e8 4f 24 ff ff       	callq  6080 <printf@plt>
   13c31:	83 45 f0 01          	addl   $0x1,-0x10(%rbp)
   13c35:	83 7d f0 06          	cmpl   $0x6,-0x10(%rbp)
   13c39:	0f 8e 75 ff ff ff    	jle    13bb4 <main+0xb08>
   13c3f:	8b 05 db 43 00 00    	mov    0x43db(%rip),%eax        # 18020 <crc32_context>
   13c45:	f7 d0                	not    %eax
   13c47:	89 c2                	mov    %eax,%edx
   13c49:	8b 45 fc             	mov    -0x4(%rbp),%eax
   13c4c:	89 c6                	mov    %eax,%esi
   13c4e:	89 d7                	mov    %edx,%edi
   13c50:	e8 3f 25 ff ff       	callq  6194 <platform_main_end>
   13c55:	b8 00 00 00 00       	mov    $0x0,%eax
   13c5a:	c9                   	leaveq 
   13c5b:	c3                   	retq   
   13c5c:	0f 1f 40 00          	nopl   0x0(%rax)

0000000000013c60 <__libc_csu_init>:
   13c60:	f3 0f 1e fa          	endbr64 
   13c64:	41 57                	push   %r15
   13c66:	4c 8d 3d e3 40 00 00 	lea    0x40e3(%rip),%r15        # 17d50 <__frame_dummy_init_array_entry>
   13c6d:	41 56                	push   %r14
   13c6f:	49 89 d6             	mov    %rdx,%r14
   13c72:	41 55                	push   %r13
   13c74:	49 89 f5             	mov    %rsi,%r13
   13c77:	41 54                	push   %r12
   13c79:	41 89 fc             	mov    %edi,%r12d
   13c7c:	55                   	push   %rbp
   13c7d:	48 8d 2d d4 40 00 00 	lea    0x40d4(%rip),%rbp        # 17d58 <__do_global_dtors_aux_fini_array_entry>
   13c84:	53                   	push   %rbx
   13c85:	4c 29 fd             	sub    %r15,%rbp
   13c88:	48 83 ec 08          	sub    $0x8,%rsp
   13c8c:	e8 6f 23 ff ff       	callq  6000 <_init>
   13c91:	48 c1 fd 03          	sar    $0x3,%rbp
   13c95:	74 1f                	je     13cb6 <__libc_csu_init+0x56>
   13c97:	31 db                	xor    %ebx,%ebx
   13c99:	0f 1f 80 00 00 00 00 	nopl   0x0(%rax)
   13ca0:	4c 89 f2             	mov    %r14,%rdx
   13ca3:	4c 89 ee             	mov    %r13,%rsi
   13ca6:	44 89 e7             	mov    %r12d,%edi
   13ca9:	41 ff 14 df          	callq  *(%r15,%rbx,8)
   13cad:	48 83 c3 01          	add    $0x1,%rbx
   13cb1:	48 39 dd             	cmp    %rbx,%rbp
   13cb4:	75 ea                	jne    13ca0 <__libc_csu_init+0x40>
   13cb6:	48 83 c4 08          	add    $0x8,%rsp
   13cba:	5b                   	pop    %rbx
   13cbb:	5d                   	pop    %rbp
   13cbc:	41 5c                	pop    %r12
   13cbe:	41 5d                	pop    %r13
   13cc0:	41 5e                	pop    %r14
   13cc2:	41 5f                	pop    %r15
   13cc4:	c3                   	retq   
   13cc5:	66 66 2e 0f 1f 84 00 	data16 nopw %cs:0x0(%rax,%rax,1)
   13ccc:	00 00 00 00 

0000000000013cd0 <__libc_csu_fini>:
   13cd0:	f3 0f 1e fa          	endbr64 
   13cd4:	c3                   	retq   
