


Disassembly of section .text:

00000000000070a0 <_start>:
    70a0:	f3 0f 1e fa          	endbr64 
    70a4:	31 ed                	xor    %ebp,%ebp
    70a6:	49 89 d1             	mov    %rdx,%r9
    70a9:	5e                   	pop    %rsi
    70aa:	48 89 e2             	mov    %rsp,%rdx
    70ad:	48 83 e4 f0          	and    $0xfffffffffffffff0,%rsp
    70b1:	50                   	push   %rax
    70b2:	54                   	push   %rsp
    70b3:	4c 8d 05 d6 b6 00 00 	lea    0xb6d6(%rip),%r8        # 12790 <__libc_csu_fini>
    70ba:	48 8d 0d 5f b6 00 00 	lea    0xb65f(%rip),%rcx        # 12720 <__libc_csu_init>
    70c1:	48 8d 3d 3f 90 00 00 	lea    0x903f(%rip),%rdi        # 10107 <main>
    70c8:	ff 15 12 1f 01 00    	callq  *0x11f12(%rip)        # 18fe0 <__libc_start_main@GLIBC_2.2.5>
    70ce:	f4                   	hlt    
    70cf:	90                   	nop

00000000000070d0 <deregister_tm_clones>:
    70d0:	48 8d 3d f9 57 01 00 	lea    0x157f9(%rip),%rdi        # 1c8d0 <__TMC_END__>
    70d7:	48 8d 05 f2 57 01 00 	lea    0x157f2(%rip),%rax        # 1c8d0 <__TMC_END__>
    70de:	48 39 f8             	cmp    %rdi,%rax
    70e1:	74 15                	je     70f8 <deregister_tm_clones+0x28>
    70e3:	48 8b 05 ee 1e 01 00 	mov    0x11eee(%rip),%rax        # 18fd8 <_ITM_deregisterTMCloneTable>
    70ea:	48 85 c0             	test   %rax,%rax
    70ed:	74 09                	je     70f8 <deregister_tm_clones+0x28>
    70ef:	ff e0                	jmpq   *%rax
    70f1:	0f 1f 80 00 00 00 00 	nopl   0x0(%rax)
    70f8:	c3                   	retq   
    70f9:	0f 1f 80 00 00 00 00 	nopl   0x0(%rax)

0000000000007100 <register_tm_clones>:
    7100:	48 8d 3d c9 57 01 00 	lea    0x157c9(%rip),%rdi        # 1c8d0 <__TMC_END__>
    7107:	48 8d 35 c2 57 01 00 	lea    0x157c2(%rip),%rsi        # 1c8d0 <__TMC_END__>
    710e:	48 29 fe             	sub    %rdi,%rsi
    7111:	48 89 f0             	mov    %rsi,%rax
    7114:	48 c1 ee 3f          	shr    $0x3f,%rsi
    7118:	48 c1 f8 03          	sar    $0x3,%rax
    711c:	48 01 c6             	add    %rax,%rsi
    711f:	48 d1 fe             	sar    %rsi
    7122:	74 14                	je     7138 <register_tm_clones+0x38>
    7124:	48 8b 05 c5 1e 01 00 	mov    0x11ec5(%rip),%rax        # 18ff0 <_ITM_registerTMCloneTable>
    712b:	48 85 c0             	test   %rax,%rax
    712e:	74 08                	je     7138 <register_tm_clones+0x38>
    7130:	ff e0                	jmpq   *%rax
    7132:	66 0f 1f 44 00 00    	nopw   0x0(%rax,%rax,1)
    7138:	c3                   	retq   
    7139:	0f 1f 80 00 00 00 00 	nopl   0x0(%rax)

0000000000007140 <__do_global_dtors_aux>:
    7140:	f3 0f 1e fa          	endbr64 
    7144:	80 3d 95 57 01 00 00 	cmpb   $0x0,0x15795(%rip)        # 1c8e0 <completed.8061>
    714b:	75 2b                	jne    7178 <__do_global_dtors_aux+0x38>
    714d:	55                   	push   %rbp
    714e:	48 83 3d a2 1e 01 00 	cmpq   $0x0,0x11ea2(%rip)        # 18ff8 <__cxa_finalize@GLIBC_2.2.5>
    7155:	00 
    7156:	48 89 e5             	mov    %rsp,%rbp
    7159:	74 0c                	je     7167 <__do_global_dtors_aux+0x27>
    715b:	48 8b 3d a6 1e 01 00 	mov    0x11ea6(%rip),%rdi        # 19008 <__dso_handle>
    7162:	e8 f9 fe ff ff       	callq  7060 <__cxa_finalize@plt>
    7167:	e8 64 ff ff ff       	callq  70d0 <deregister_tm_clones>
    716c:	c6 05 6d 57 01 00 01 	movb   $0x1,0x1576d(%rip)        # 1c8e0 <completed.8061>
    7173:	5d                   	pop    %rbp
    7174:	c3                   	retq   
    7175:	0f 1f 00             	nopl   (%rax)
    7178:	c3                   	retq   
    7179:	0f 1f 80 00 00 00 00 	nopl   0x0(%rax)

0000000000007180 <frame_dummy>:
    7180:	f3 0f 1e fa          	endbr64 
    7184:	e9 77 ff ff ff       	jmpq   7100 <register_tm_clones>

0000000000007189 <platform_main_begin>:
    7189:	f3 0f 1e fa          	endbr64 
    718d:	55                   	push   %rbp
    718e:	48 89 e5             	mov    %rsp,%rbp
    7191:	90                   	nop
    7192:	5d                   	pop    %rbp
    7193:	c3                   	retq   

0000000000007194 <platform_main_end>:
    7194:	f3 0f 1e fa          	endbr64 
    7198:	55                   	push   %rbp
    7199:	48 89 e5             	mov    %rsp,%rbp
    719c:	48 83 ec 10          	sub    $0x10,%rsp
    71a0:	89 7d fc             	mov    %edi,-0x4(%rbp)
    71a3:	89 75 f8             	mov    %esi,-0x8(%rbp)
    71a6:	8b 45 fc             	mov    -0x4(%rbp),%eax
    71a9:	89 c6                	mov    %eax,%esi
    71ab:	48 8d 3d 6e be 00 00 	lea    0xbe6e(%rip),%rdi        # 13020 <_IO_stdin_used+0x20>
    71b2:	b8 00 00 00 00       	mov    $0x0,%eax
    71b7:	e8 c4 fe ff ff       	callq  7080 <printf@plt>
    71bc:	90                   	nop
    71bd:	c9                   	leaveq 
    71be:	c3                   	retq   

00000000000071bf <safe_unary_minus_func_int8_t_s>:
    71bf:	f3 0f 1e fa          	endbr64 
    71c3:	55                   	push   %rbp
    71c4:	48 89 e5             	mov    %rsp,%rbp
    71c7:	89 f8                	mov    %edi,%eax
    71c9:	88 45 fc             	mov    %al,-0x4(%rbp)
    71cc:	0f b6 45 fc          	movzbl -0x4(%rbp),%eax
    71d0:	f7 d8                	neg    %eax
    71d2:	5d                   	pop    %rbp
    71d3:	c3                   	retq   

00000000000071d4 <safe_add_func_int8_t_s_s>:
    71d4:	f3 0f 1e fa          	endbr64 
    71d8:	55                   	push   %rbp
    71d9:	48 89 e5             	mov    %rsp,%rbp
    71dc:	89 fa                	mov    %edi,%edx
    71de:	89 f0                	mov    %esi,%eax
    71e0:	88 55 fc             	mov    %dl,-0x4(%rbp)
    71e3:	88 45 f8             	mov    %al,-0x8(%rbp)
    71e6:	0f b6 55 fc          	movzbl -0x4(%rbp),%edx
    71ea:	0f b6 45 f8          	movzbl -0x8(%rbp),%eax
    71ee:	01 d0                	add    %edx,%eax
    71f0:	5d                   	pop    %rbp
    71f1:	c3                   	retq   

00000000000071f2 <safe_sub_func_int8_t_s_s>:
    71f2:	f3 0f 1e fa          	endbr64 
    71f6:	55                   	push   %rbp
    71f7:	48 89 e5             	mov    %rsp,%rbp
    71fa:	89 fa                	mov    %edi,%edx
    71fc:	89 f0                	mov    %esi,%eax
    71fe:	88 55 fc             	mov    %dl,-0x4(%rbp)
    7201:	88 45 f8             	mov    %al,-0x8(%rbp)
    7204:	0f b6 55 fc          	movzbl -0x4(%rbp),%edx
    7208:	0f b6 45 f8          	movzbl -0x8(%rbp),%eax
    720c:	29 c2                	sub    %eax,%edx
    720e:	89 d0                	mov    %edx,%eax
    7210:	5d                   	pop    %rbp
    7211:	c3                   	retq   

0000000000007212 <safe_mul_func_int8_t_s_s>:
    7212:	f3 0f 1e fa          	endbr64 
    7216:	55                   	push   %rbp
    7217:	48 89 e5             	mov    %rsp,%rbp
    721a:	89 fa                	mov    %edi,%edx
    721c:	89 f0                	mov    %esi,%eax
    721e:	88 55 fc             	mov    %dl,-0x4(%rbp)
    7221:	88 45 f8             	mov    %al,-0x8(%rbp)
    7224:	0f b6 45 fc          	movzbl -0x4(%rbp),%eax
    7228:	0f b6 55 f8          	movzbl -0x8(%rbp),%edx
    722c:	0f af c2             	imul   %edx,%eax
    722f:	5d                   	pop    %rbp
    7230:	c3                   	retq   

0000000000007231 <safe_mod_func_int8_t_s_s>:
    7231:	f3 0f 1e fa          	endbr64 
    7235:	55                   	push   %rbp
    7236:	48 89 e5             	mov    %rsp,%rbp
    7239:	89 fa                	mov    %edi,%edx
    723b:	89 f0                	mov    %esi,%eax
    723d:	88 55 fc             	mov    %dl,-0x4(%rbp)
    7240:	88 45 f8             	mov    %al,-0x8(%rbp)
    7243:	80 7d f8 00          	cmpb   $0x0,-0x8(%rbp)
    7247:	74 1b                	je     7264 <safe_mod_func_int8_t_s_s+0x33>
    7249:	80 7d fc 80          	cmpb   $0x80,-0x4(%rbp)
    724d:	75 06                	jne    7255 <safe_mod_func_int8_t_s_s+0x24>
    724f:	80 7d f8 ff          	cmpb   $0xff,-0x8(%rbp)
    7253:	74 0f                	je     7264 <safe_mod_func_int8_t_s_s+0x33>
    7255:	0f be 45 fc          	movsbl -0x4(%rbp),%eax
    7259:	0f be 4d f8          	movsbl -0x8(%rbp),%ecx
    725d:	99                   	cltd   
    725e:	f7 f9                	idiv   %ecx
    7260:	89 d0                	mov    %edx,%eax
    7262:	eb 04                	jmp    7268 <safe_mod_func_int8_t_s_s+0x37>
    7264:	0f b6 45 fc          	movzbl -0x4(%rbp),%eax
    7268:	5d                   	pop    %rbp
    7269:	c3                   	retq   

000000000000726a <safe_div_func_int8_t_s_s>:
    726a:	f3 0f 1e fa          	endbr64 
    726e:	55                   	push   %rbp
    726f:	48 89 e5             	mov    %rsp,%rbp
    7272:	89 fa                	mov    %edi,%edx
    7274:	89 f0                	mov    %esi,%eax
    7276:	88 55 fc             	mov    %dl,-0x4(%rbp)
    7279:	88 45 f8             	mov    %al,-0x8(%rbp)
    727c:	80 7d f8 00          	cmpb   $0x0,-0x8(%rbp)
    7280:	74 19                	je     729b <safe_div_func_int8_t_s_s+0x31>
    7282:	80 7d fc 80          	cmpb   $0x80,-0x4(%rbp)
    7286:	75 06                	jne    728e <safe_div_func_int8_t_s_s+0x24>
    7288:	80 7d f8 ff          	cmpb   $0xff,-0x8(%rbp)
    728c:	74 0d                	je     729b <safe_div_func_int8_t_s_s+0x31>
    728e:	0f be 45 fc          	movsbl -0x4(%rbp),%eax
    7292:	0f be 4d f8          	movsbl -0x8(%rbp),%ecx
    7296:	99                   	cltd   
    7297:	f7 f9                	idiv   %ecx
    7299:	eb 04                	jmp    729f <safe_div_func_int8_t_s_s+0x35>
    729b:	0f b6 45 fc          	movzbl -0x4(%rbp),%eax
    729f:	5d                   	pop    %rbp
    72a0:	c3                   	retq   

00000000000072a1 <safe_lshift_func_int8_t_s_s>:
    72a1:	f3 0f 1e fa          	endbr64 
    72a5:	55                   	push   %rbp
    72a6:	48 89 e5             	mov    %rsp,%rbp
    72a9:	89 f8                	mov    %edi,%eax
    72ab:	89 75 f8             	mov    %esi,-0x8(%rbp)
    72ae:	88 45 fc             	mov    %al,-0x4(%rbp)
    72b1:	80 7d fc 00          	cmpb   $0x0,-0x4(%rbp)
    72b5:	78 31                	js     72e8 <safe_lshift_func_int8_t_s_s+0x47>
    72b7:	83 7d f8 00          	cmpl   $0x0,-0x8(%rbp)
    72bb:	78 2b                	js     72e8 <safe_lshift_func_int8_t_s_s+0x47>
    72bd:	83 7d f8 1f          	cmpl   $0x1f,-0x8(%rbp)
    72c1:	7f 25                	jg     72e8 <safe_lshift_func_int8_t_s_s+0x47>
    72c3:	0f be 55 fc          	movsbl -0x4(%rbp),%edx
    72c7:	8b 45 f8             	mov    -0x8(%rbp),%eax
    72ca:	be 7f 00 00 00       	mov    $0x7f,%esi
    72cf:	89 c1                	mov    %eax,%ecx
    72d1:	d3 fe                	sar    %cl,%esi
    72d3:	89 f0                	mov    %esi,%eax
    72d5:	39 c2                	cmp    %eax,%edx
    72d7:	7f 0f                	jg     72e8 <safe_lshift_func_int8_t_s_s+0x47>
    72d9:	0f be 55 fc          	movsbl -0x4(%rbp),%edx
    72dd:	8b 45 f8             	mov    -0x8(%rbp),%eax
    72e0:	89 c1                	mov    %eax,%ecx
    72e2:	d3 e2                	shl    %cl,%edx
    72e4:	89 d0                	mov    %edx,%eax
    72e6:	eb 04                	jmp    72ec <safe_lshift_func_int8_t_s_s+0x4b>
    72e8:	0f b6 45 fc          	movzbl -0x4(%rbp),%eax
    72ec:	5d                   	pop    %rbp
    72ed:	c3                   	retq   

00000000000072ee <safe_lshift_func_int8_t_s_u>:
    72ee:	f3 0f 1e fa          	endbr64 
    72f2:	55                   	push   %rbp
    72f3:	48 89 e5             	mov    %rsp,%rbp
    72f6:	89 f8                	mov    %edi,%eax
    72f8:	89 75 f8             	mov    %esi,-0x8(%rbp)
    72fb:	88 45 fc             	mov    %al,-0x4(%rbp)
    72fe:	80 7d fc 00          	cmpb   $0x0,-0x4(%rbp)
    7302:	78 2b                	js     732f <safe_lshift_func_int8_t_s_u+0x41>
    7304:	83 7d f8 1f          	cmpl   $0x1f,-0x8(%rbp)
    7308:	77 25                	ja     732f <safe_lshift_func_int8_t_s_u+0x41>
    730a:	0f be 55 fc          	movsbl -0x4(%rbp),%edx
    730e:	8b 45 f8             	mov    -0x8(%rbp),%eax
    7311:	be 7f 00 00 00       	mov    $0x7f,%esi
    7316:	89 c1                	mov    %eax,%ecx
    7318:	d3 fe                	sar    %cl,%esi
    731a:	89 f0                	mov    %esi,%eax
    731c:	39 c2                	cmp    %eax,%edx
    731e:	7f 0f                	jg     732f <safe_lshift_func_int8_t_s_u+0x41>
    7320:	0f be 55 fc          	movsbl -0x4(%rbp),%edx
    7324:	8b 45 f8             	mov    -0x8(%rbp),%eax
    7327:	89 c1                	mov    %eax,%ecx
    7329:	d3 e2                	shl    %cl,%edx
    732b:	89 d0                	mov    %edx,%eax
    732d:	eb 04                	jmp    7333 <safe_lshift_func_int8_t_s_u+0x45>
    732f:	0f b6 45 fc          	movzbl -0x4(%rbp),%eax
    7333:	5d                   	pop    %rbp
    7334:	c3                   	retq   

0000000000007335 <safe_rshift_func_int8_t_s_s>:
    7335:	f3 0f 1e fa          	endbr64 
    7339:	55                   	push   %rbp
    733a:	48 89 e5             	mov    %rsp,%rbp
    733d:	89 f8                	mov    %edi,%eax
    733f:	89 75 f8             	mov    %esi,-0x8(%rbp)
    7342:	88 45 fc             	mov    %al,-0x4(%rbp)
    7345:	80 7d fc 00          	cmpb   $0x0,-0x4(%rbp)
    7349:	78 1b                	js     7366 <safe_rshift_func_int8_t_s_s+0x31>
    734b:	83 7d f8 00          	cmpl   $0x0,-0x8(%rbp)
    734f:	78 15                	js     7366 <safe_rshift_func_int8_t_s_s+0x31>
    7351:	83 7d f8 1f          	cmpl   $0x1f,-0x8(%rbp)
    7355:	7f 0f                	jg     7366 <safe_rshift_func_int8_t_s_s+0x31>
    7357:	0f be 55 fc          	movsbl -0x4(%rbp),%edx
    735b:	8b 45 f8             	mov    -0x8(%rbp),%eax
    735e:	89 c1                	mov    %eax,%ecx
    7360:	d3 fa                	sar    %cl,%edx
    7362:	89 d0                	mov    %edx,%eax
    7364:	eb 04                	jmp    736a <safe_rshift_func_int8_t_s_s+0x35>
    7366:	0f b6 45 fc          	movzbl -0x4(%rbp),%eax
    736a:	5d                   	pop    %rbp
    736b:	c3                   	retq   

000000000000736c <safe_rshift_func_int8_t_s_u>:
    736c:	f3 0f 1e fa          	endbr64 
    7370:	55                   	push   %rbp
    7371:	48 89 e5             	mov    %rsp,%rbp
    7374:	89 f8                	mov    %edi,%eax
    7376:	89 75 f8             	mov    %esi,-0x8(%rbp)
    7379:	88 45 fc             	mov    %al,-0x4(%rbp)
    737c:	80 7d fc 00          	cmpb   $0x0,-0x4(%rbp)
    7380:	78 15                	js     7397 <safe_rshift_func_int8_t_s_u+0x2b>
    7382:	83 7d f8 1f          	cmpl   $0x1f,-0x8(%rbp)
    7386:	77 0f                	ja     7397 <safe_rshift_func_int8_t_s_u+0x2b>
    7388:	0f be 55 fc          	movsbl -0x4(%rbp),%edx
    738c:	8b 45 f8             	mov    -0x8(%rbp),%eax
    738f:	89 c1                	mov    %eax,%ecx
    7391:	d3 fa                	sar    %cl,%edx
    7393:	89 d0                	mov    %edx,%eax
    7395:	eb 04                	jmp    739b <safe_rshift_func_int8_t_s_u+0x2f>
    7397:	0f b6 45 fc          	movzbl -0x4(%rbp),%eax
    739b:	5d                   	pop    %rbp
    739c:	c3                   	retq   

000000000000739d <safe_unary_minus_func_int16_t_s>:
    739d:	f3 0f 1e fa          	endbr64 
    73a1:	55                   	push   %rbp
    73a2:	48 89 e5             	mov    %rsp,%rbp
    73a5:	89 f8                	mov    %edi,%eax
    73a7:	66 89 45 fc          	mov    %ax,-0x4(%rbp)
    73ab:	0f b7 45 fc          	movzwl -0x4(%rbp),%eax
    73af:	f7 d8                	neg    %eax
    73b1:	5d                   	pop    %rbp
    73b2:	c3                   	retq   

00000000000073b3 <safe_add_func_int16_t_s_s>:
    73b3:	f3 0f 1e fa          	endbr64 
    73b7:	55                   	push   %rbp
    73b8:	48 89 e5             	mov    %rsp,%rbp
    73bb:	89 fa                	mov    %edi,%edx
    73bd:	89 f0                	mov    %esi,%eax
    73bf:	66 89 55 fc          	mov    %dx,-0x4(%rbp)
    73c3:	66 89 45 f8          	mov    %ax,-0x8(%rbp)
    73c7:	0f b7 55 fc          	movzwl -0x4(%rbp),%edx
    73cb:	0f b7 45 f8          	movzwl -0x8(%rbp),%eax
    73cf:	01 d0                	add    %edx,%eax
    73d1:	5d                   	pop    %rbp
    73d2:	c3                   	retq   

00000000000073d3 <safe_sub_func_int16_t_s_s>:
    73d3:	f3 0f 1e fa          	endbr64 
    73d7:	55                   	push   %rbp
    73d8:	48 89 e5             	mov    %rsp,%rbp
    73db:	89 fa                	mov    %edi,%edx
    73dd:	89 f0                	mov    %esi,%eax
    73df:	66 89 55 fc          	mov    %dx,-0x4(%rbp)
    73e3:	66 89 45 f8          	mov    %ax,-0x8(%rbp)
    73e7:	0f b7 55 fc          	movzwl -0x4(%rbp),%edx
    73eb:	0f b7 45 f8          	movzwl -0x8(%rbp),%eax
    73ef:	29 c2                	sub    %eax,%edx
    73f1:	89 d0                	mov    %edx,%eax
    73f3:	5d                   	pop    %rbp
    73f4:	c3                   	retq   

00000000000073f5 <safe_mul_func_int16_t_s_s>:
    73f5:	f3 0f 1e fa          	endbr64 
    73f9:	55                   	push   %rbp
    73fa:	48 89 e5             	mov    %rsp,%rbp
    73fd:	89 fa                	mov    %edi,%edx
    73ff:	89 f0                	mov    %esi,%eax
    7401:	66 89 55 fc          	mov    %dx,-0x4(%rbp)
    7405:	66 89 45 f8          	mov    %ax,-0x8(%rbp)
    7409:	0f b7 55 fc          	movzwl -0x4(%rbp),%edx
    740d:	0f b7 45 f8          	movzwl -0x8(%rbp),%eax
    7411:	0f af c2             	imul   %edx,%eax
    7414:	5d                   	pop    %rbp
    7415:	c3                   	retq   

0000000000007416 <safe_mod_func_int16_t_s_s>:
    7416:	f3 0f 1e fa          	endbr64 
    741a:	55                   	push   %rbp
    741b:	48 89 e5             	mov    %rsp,%rbp
    741e:	89 fa                	mov    %edi,%edx
    7420:	89 f0                	mov    %esi,%eax
    7422:	66 89 55 fc          	mov    %dx,-0x4(%rbp)
    7426:	66 89 45 f8          	mov    %ax,-0x8(%rbp)
    742a:	66 83 7d f8 00       	cmpw   $0x0,-0x8(%rbp)
    742f:	74 1e                	je     744f <safe_mod_func_int16_t_s_s+0x39>
    7431:	66 81 7d fc 00 80    	cmpw   $0x8000,-0x4(%rbp)
    7437:	75 07                	jne    7440 <safe_mod_func_int16_t_s_s+0x2a>
    7439:	66 83 7d f8 ff       	cmpw   $0xffff,-0x8(%rbp)
    743e:	74 0f                	je     744f <safe_mod_func_int16_t_s_s+0x39>
    7440:	0f bf 45 fc          	movswl -0x4(%rbp),%eax
    7444:	0f bf 4d f8          	movswl -0x8(%rbp),%ecx
    7448:	99                   	cltd   
    7449:	f7 f9                	idiv   %ecx
    744b:	89 d0                	mov    %edx,%eax
    744d:	eb 04                	jmp    7453 <safe_mod_func_int16_t_s_s+0x3d>
    744f:	0f b7 45 fc          	movzwl -0x4(%rbp),%eax
    7453:	5d                   	pop    %rbp
    7454:	c3                   	retq   

0000000000007455 <safe_div_func_int16_t_s_s>:
    7455:	f3 0f 1e fa          	endbr64 
    7459:	55                   	push   %rbp
    745a:	48 89 e5             	mov    %rsp,%rbp
    745d:	89 fa                	mov    %edi,%edx
    745f:	89 f0                	mov    %esi,%eax
    7461:	66 89 55 fc          	mov    %dx,-0x4(%rbp)
    7465:	66 89 45 f8          	mov    %ax,-0x8(%rbp)
    7469:	66 83 7d f8 00       	cmpw   $0x0,-0x8(%rbp)
    746e:	74 1c                	je     748c <safe_div_func_int16_t_s_s+0x37>
    7470:	66 81 7d fc 00 80    	cmpw   $0x8000,-0x4(%rbp)
    7476:	75 07                	jne    747f <safe_div_func_int16_t_s_s+0x2a>
    7478:	66 83 7d f8 ff       	cmpw   $0xffff,-0x8(%rbp)
    747d:	74 0d                	je     748c <safe_div_func_int16_t_s_s+0x37>
    747f:	0f bf 45 fc          	movswl -0x4(%rbp),%eax
    7483:	0f bf 4d f8          	movswl -0x8(%rbp),%ecx
    7487:	99                   	cltd   
    7488:	f7 f9                	idiv   %ecx
    748a:	eb 04                	jmp    7490 <safe_div_func_int16_t_s_s+0x3b>
    748c:	0f b7 45 fc          	movzwl -0x4(%rbp),%eax
    7490:	5d                   	pop    %rbp
    7491:	c3                   	retq   

0000000000007492 <safe_lshift_func_int16_t_s_s>:
    7492:	f3 0f 1e fa          	endbr64 
    7496:	55                   	push   %rbp
    7497:	48 89 e5             	mov    %rsp,%rbp
    749a:	89 f8                	mov    %edi,%eax
    749c:	89 75 f8             	mov    %esi,-0x8(%rbp)
    749f:	66 89 45 fc          	mov    %ax,-0x4(%rbp)
    74a3:	66 83 7d fc 00       	cmpw   $0x0,-0x4(%rbp)
    74a8:	78 31                	js     74db <safe_lshift_func_int16_t_s_s+0x49>
    74aa:	83 7d f8 00          	cmpl   $0x0,-0x8(%rbp)
    74ae:	78 2b                	js     74db <safe_lshift_func_int16_t_s_s+0x49>
    74b0:	83 7d f8 1f          	cmpl   $0x1f,-0x8(%rbp)
    74b4:	7f 25                	jg     74db <safe_lshift_func_int16_t_s_s+0x49>
    74b6:	0f bf 55 fc          	movswl -0x4(%rbp),%edx
    74ba:	8b 45 f8             	mov    -0x8(%rbp),%eax
    74bd:	be ff 7f 00 00       	mov    $0x7fff,%esi
    74c2:	89 c1                	mov    %eax,%ecx
    74c4:	d3 fe                	sar    %cl,%esi
    74c6:	89 f0                	mov    %esi,%eax
    74c8:	39 c2                	cmp    %eax,%edx
    74ca:	7f 0f                	jg     74db <safe_lshift_func_int16_t_s_s+0x49>
    74cc:	0f bf 55 fc          	movswl -0x4(%rbp),%edx
    74d0:	8b 45 f8             	mov    -0x8(%rbp),%eax
    74d3:	89 c1                	mov    %eax,%ecx
    74d5:	d3 e2                	shl    %cl,%edx
    74d7:	89 d0                	mov    %edx,%eax
    74d9:	eb 04                	jmp    74df <safe_lshift_func_int16_t_s_s+0x4d>
    74db:	0f b7 45 fc          	movzwl -0x4(%rbp),%eax
    74df:	5d                   	pop    %rbp
    74e0:	c3                   	retq   

00000000000074e1 <safe_lshift_func_int16_t_s_u>:
    74e1:	f3 0f 1e fa          	endbr64 
    74e5:	55                   	push   %rbp
    74e6:	48 89 e5             	mov    %rsp,%rbp
    74e9:	89 f8                	mov    %edi,%eax
    74eb:	89 75 f8             	mov    %esi,-0x8(%rbp)
    74ee:	66 89 45 fc          	mov    %ax,-0x4(%rbp)
    74f2:	66 83 7d fc 00       	cmpw   $0x0,-0x4(%rbp)
    74f7:	78 2b                	js     7524 <safe_lshift_func_int16_t_s_u+0x43>
    74f9:	83 7d f8 1f          	cmpl   $0x1f,-0x8(%rbp)
    74fd:	77 25                	ja     7524 <safe_lshift_func_int16_t_s_u+0x43>
    74ff:	0f bf 55 fc          	movswl -0x4(%rbp),%edx
    7503:	8b 45 f8             	mov    -0x8(%rbp),%eax
    7506:	be ff 7f 00 00       	mov    $0x7fff,%esi
    750b:	89 c1                	mov    %eax,%ecx
    750d:	d3 fe                	sar    %cl,%esi
    750f:	89 f0                	mov    %esi,%eax
    7511:	39 c2                	cmp    %eax,%edx
    7513:	7f 0f                	jg     7524 <safe_lshift_func_int16_t_s_u+0x43>
    7515:	0f bf 55 fc          	movswl -0x4(%rbp),%edx
    7519:	8b 45 f8             	mov    -0x8(%rbp),%eax
    751c:	89 c1                	mov    %eax,%ecx
    751e:	d3 e2                	shl    %cl,%edx
    7520:	89 d0                	mov    %edx,%eax
    7522:	eb 04                	jmp    7528 <safe_lshift_func_int16_t_s_u+0x47>
    7524:	0f b7 45 fc          	movzwl -0x4(%rbp),%eax
    7528:	5d                   	pop    %rbp
    7529:	c3                   	retq   

000000000000752a <safe_rshift_func_int16_t_s_s>:
    752a:	f3 0f 1e fa          	endbr64 
    752e:	55                   	push   %rbp
    752f:	48 89 e5             	mov    %rsp,%rbp
    7532:	89 f8                	mov    %edi,%eax
    7534:	89 75 f8             	mov    %esi,-0x8(%rbp)
    7537:	66 89 45 fc          	mov    %ax,-0x4(%rbp)
    753b:	66 83 7d fc 00       	cmpw   $0x0,-0x4(%rbp)
    7540:	78 1b                	js     755d <safe_rshift_func_int16_t_s_s+0x33>
    7542:	83 7d f8 00          	cmpl   $0x0,-0x8(%rbp)
    7546:	78 15                	js     755d <safe_rshift_func_int16_t_s_s+0x33>
    7548:	83 7d f8 1f          	cmpl   $0x1f,-0x8(%rbp)
    754c:	7f 0f                	jg     755d <safe_rshift_func_int16_t_s_s+0x33>
    754e:	0f bf 55 fc          	movswl -0x4(%rbp),%edx
    7552:	8b 45 f8             	mov    -0x8(%rbp),%eax
    7555:	89 c1                	mov    %eax,%ecx
    7557:	d3 fa                	sar    %cl,%edx
    7559:	89 d0                	mov    %edx,%eax
    755b:	eb 04                	jmp    7561 <safe_rshift_func_int16_t_s_s+0x37>
    755d:	0f b7 45 fc          	movzwl -0x4(%rbp),%eax
    7561:	5d                   	pop    %rbp
    7562:	c3                   	retq   

0000000000007563 <safe_rshift_func_int16_t_s_u>:
    7563:	f3 0f 1e fa          	endbr64 
    7567:	55                   	push   %rbp
    7568:	48 89 e5             	mov    %rsp,%rbp
    756b:	89 f8                	mov    %edi,%eax
    756d:	89 75 f8             	mov    %esi,-0x8(%rbp)
    7570:	66 89 45 fc          	mov    %ax,-0x4(%rbp)
    7574:	66 83 7d fc 00       	cmpw   $0x0,-0x4(%rbp)
    7579:	78 15                	js     7590 <safe_rshift_func_int16_t_s_u+0x2d>
    757b:	83 7d f8 1f          	cmpl   $0x1f,-0x8(%rbp)
    757f:	77 0f                	ja     7590 <safe_rshift_func_int16_t_s_u+0x2d>
    7581:	0f bf 55 fc          	movswl -0x4(%rbp),%edx
    7585:	8b 45 f8             	mov    -0x8(%rbp),%eax
    7588:	89 c1                	mov    %eax,%ecx
    758a:	d3 fa                	sar    %cl,%edx
    758c:	89 d0                	mov    %edx,%eax
    758e:	eb 04                	jmp    7594 <safe_rshift_func_int16_t_s_u+0x31>
    7590:	0f b7 45 fc          	movzwl -0x4(%rbp),%eax
    7594:	5d                   	pop    %rbp
    7595:	c3                   	retq   

0000000000007596 <safe_unary_minus_func_int32_t_s>:
    7596:	f3 0f 1e fa          	endbr64 
    759a:	55                   	push   %rbp
    759b:	48 89 e5             	mov    %rsp,%rbp
    759e:	89 7d fc             	mov    %edi,-0x4(%rbp)
    75a1:	81 7d fc 00 00 00 80 	cmpl   $0x80000000,-0x4(%rbp)
    75a8:	74 07                	je     75b1 <safe_unary_minus_func_int32_t_s+0x1b>
    75aa:	8b 45 fc             	mov    -0x4(%rbp),%eax
    75ad:	f7 d8                	neg    %eax
    75af:	eb 03                	jmp    75b4 <safe_unary_minus_func_int32_t_s+0x1e>
    75b1:	8b 45 fc             	mov    -0x4(%rbp),%eax
    75b4:	5d                   	pop    %rbp
    75b5:	c3                   	retq   

00000000000075b6 <safe_add_func_int32_t_s_s>:
    75b6:	f3 0f 1e fa          	endbr64 
    75ba:	55                   	push   %rbp
    75bb:	48 89 e5             	mov    %rsp,%rbp
    75be:	89 7d fc             	mov    %edi,-0x4(%rbp)
    75c1:	89 75 f8             	mov    %esi,-0x8(%rbp)
    75c4:	83 7d fc 00          	cmpl   $0x0,-0x4(%rbp)
    75c8:	7e 13                	jle    75dd <safe_add_func_int32_t_s_s+0x27>
    75ca:	83 7d f8 00          	cmpl   $0x0,-0x8(%rbp)
    75ce:	7e 0d                	jle    75dd <safe_add_func_int32_t_s_s+0x27>
    75d0:	b8 ff ff ff 7f       	mov    $0x7fffffff,%eax
    75d5:	2b 45 f8             	sub    -0x8(%rbp),%eax
    75d8:	39 45 fc             	cmp    %eax,-0x4(%rbp)
    75db:	7f 23                	jg     7600 <safe_add_func_int32_t_s_s+0x4a>
    75dd:	83 7d fc 00          	cmpl   $0x0,-0x4(%rbp)
    75e1:	79 13                	jns    75f6 <safe_add_func_int32_t_s_s+0x40>
    75e3:	83 7d f8 00          	cmpl   $0x0,-0x8(%rbp)
    75e7:	79 0d                	jns    75f6 <safe_add_func_int32_t_s_s+0x40>
    75e9:	b8 00 00 00 80       	mov    $0x80000000,%eax
    75ee:	2b 45 f8             	sub    -0x8(%rbp),%eax
    75f1:	39 45 fc             	cmp    %eax,-0x4(%rbp)
    75f4:	7c 0a                	jl     7600 <safe_add_func_int32_t_s_s+0x4a>
    75f6:	8b 55 fc             	mov    -0x4(%rbp),%edx
    75f9:	8b 45 f8             	mov    -0x8(%rbp),%eax
    75fc:	01 d0                	add    %edx,%eax
    75fe:	eb 03                	jmp    7603 <safe_add_func_int32_t_s_s+0x4d>
    7600:	8b 45 fc             	mov    -0x4(%rbp),%eax
    7603:	5d                   	pop    %rbp
    7604:	c3                   	retq   

0000000000007605 <safe_sub_func_int32_t_s_s>:
    7605:	f3 0f 1e fa          	endbr64 
    7609:	55                   	push   %rbp
    760a:	48 89 e5             	mov    %rsp,%rbp
    760d:	89 7d fc             	mov    %edi,-0x4(%rbp)
    7610:	89 75 f8             	mov    %esi,-0x8(%rbp)
    7613:	8b 45 fc             	mov    -0x4(%rbp),%eax
    7616:	33 45 f8             	xor    -0x8(%rbp),%eax
    7619:	89 c2                	mov    %eax,%edx
    761b:	8b 45 fc             	mov    -0x4(%rbp),%eax
    761e:	33 45 f8             	xor    -0x8(%rbp),%eax
    7621:	25 00 00 00 80       	and    $0x80000000,%eax
    7626:	33 45 fc             	xor    -0x4(%rbp),%eax
    7629:	2b 45 f8             	sub    -0x8(%rbp),%eax
    762c:	33 45 f8             	xor    -0x8(%rbp),%eax
    762f:	21 d0                	and    %edx,%eax
    7631:	85 c0                	test   %eax,%eax
    7633:	78 08                	js     763d <safe_sub_func_int32_t_s_s+0x38>
    7635:	8b 45 fc             	mov    -0x4(%rbp),%eax
    7638:	2b 45 f8             	sub    -0x8(%rbp),%eax
    763b:	eb 03                	jmp    7640 <safe_sub_func_int32_t_s_s+0x3b>
    763d:	8b 45 fc             	mov    -0x4(%rbp),%eax
    7640:	5d                   	pop    %rbp
    7641:	c3                   	retq   

0000000000007642 <safe_mul_func_int32_t_s_s>:
    7642:	f3 0f 1e fa          	endbr64 
    7646:	55                   	push   %rbp
    7647:	48 89 e5             	mov    %rsp,%rbp
    764a:	89 7d fc             	mov    %edi,-0x4(%rbp)
    764d:	89 75 f8             	mov    %esi,-0x8(%rbp)
    7650:	83 7d fc 00          	cmpl   $0x0,-0x4(%rbp)
    7654:	7e 14                	jle    766a <safe_mul_func_int32_t_s_s+0x28>
    7656:	83 7d f8 00          	cmpl   $0x0,-0x8(%rbp)
    765a:	7e 0e                	jle    766a <safe_mul_func_int32_t_s_s+0x28>
    765c:	b8 ff ff ff 7f       	mov    $0x7fffffff,%eax
    7661:	99                   	cltd   
    7662:	f7 7d f8             	idivl  -0x8(%rbp)
    7665:	39 45 fc             	cmp    %eax,-0x4(%rbp)
    7668:	7f 5d                	jg     76c7 <safe_mul_func_int32_t_s_s+0x85>
    766a:	83 7d fc 00          	cmpl   $0x0,-0x4(%rbp)
    766e:	7e 14                	jle    7684 <safe_mul_func_int32_t_s_s+0x42>
    7670:	83 7d f8 00          	cmpl   $0x0,-0x8(%rbp)
    7674:	7f 0e                	jg     7684 <safe_mul_func_int32_t_s_s+0x42>
    7676:	b8 00 00 00 80       	mov    $0x80000000,%eax
    767b:	99                   	cltd   
    767c:	f7 7d fc             	idivl  -0x4(%rbp)
    767f:	39 45 f8             	cmp    %eax,-0x8(%rbp)
    7682:	7c 43                	jl     76c7 <safe_mul_func_int32_t_s_s+0x85>
    7684:	83 7d fc 00          	cmpl   $0x0,-0x4(%rbp)
    7688:	7f 14                	jg     769e <safe_mul_func_int32_t_s_s+0x5c>
    768a:	83 7d f8 00          	cmpl   $0x0,-0x8(%rbp)
    768e:	7e 0e                	jle    769e <safe_mul_func_int32_t_s_s+0x5c>
    7690:	b8 00 00 00 80       	mov    $0x80000000,%eax
    7695:	99                   	cltd   
    7696:	f7 7d f8             	idivl  -0x8(%rbp)
    7699:	39 45 fc             	cmp    %eax,-0x4(%rbp)
    769c:	7c 29                	jl     76c7 <safe_mul_func_int32_t_s_s+0x85>
    769e:	83 7d fc 00          	cmpl   $0x0,-0x4(%rbp)
    76a2:	7f 1a                	jg     76be <safe_mul_func_int32_t_s_s+0x7c>
    76a4:	83 7d f8 00          	cmpl   $0x0,-0x8(%rbp)
    76a8:	7f 14                	jg     76be <safe_mul_func_int32_t_s_s+0x7c>
    76aa:	83 7d fc 00          	cmpl   $0x0,-0x4(%rbp)
    76ae:	74 0e                	je     76be <safe_mul_func_int32_t_s_s+0x7c>
    76b0:	b8 ff ff ff 7f       	mov    $0x7fffffff,%eax
    76b5:	99                   	cltd   
    76b6:	f7 7d fc             	idivl  -0x4(%rbp)
    76b9:	39 45 f8             	cmp    %eax,-0x8(%rbp)
    76bc:	7c 09                	jl     76c7 <safe_mul_func_int32_t_s_s+0x85>
    76be:	8b 45 fc             	mov    -0x4(%rbp),%eax
    76c1:	0f af 45 f8          	imul   -0x8(%rbp),%eax
    76c5:	eb 03                	jmp    76ca <safe_mul_func_int32_t_s_s+0x88>
    76c7:	8b 45 fc             	mov    -0x4(%rbp),%eax
    76ca:	5d                   	pop    %rbp
    76cb:	c3                   	retq   

00000000000076cc <safe_mod_func_int32_t_s_s>:
    76cc:	f3 0f 1e fa          	endbr64 
    76d0:	55                   	push   %rbp
    76d1:	48 89 e5             	mov    %rsp,%rbp
    76d4:	89 7d fc             	mov    %edi,-0x4(%rbp)
    76d7:	89 75 f8             	mov    %esi,-0x8(%rbp)
    76da:	83 7d f8 00          	cmpl   $0x0,-0x8(%rbp)
    76de:	74 1a                	je     76fa <safe_mod_func_int32_t_s_s+0x2e>
    76e0:	81 7d fc 00 00 00 80 	cmpl   $0x80000000,-0x4(%rbp)
    76e7:	75 06                	jne    76ef <safe_mod_func_int32_t_s_s+0x23>
    76e9:	83 7d f8 ff          	cmpl   $0xffffffff,-0x8(%rbp)
    76ed:	74 0b                	je     76fa <safe_mod_func_int32_t_s_s+0x2e>
    76ef:	8b 45 fc             	mov    -0x4(%rbp),%eax
    76f2:	99                   	cltd   
    76f3:	f7 7d f8             	idivl  -0x8(%rbp)
    76f6:	89 d0                	mov    %edx,%eax
    76f8:	eb 03                	jmp    76fd <safe_mod_func_int32_t_s_s+0x31>
    76fa:	8b 45 fc             	mov    -0x4(%rbp),%eax
    76fd:	5d                   	pop    %rbp
    76fe:	c3                   	retq   

00000000000076ff <safe_div_func_int32_t_s_s>:
    76ff:	f3 0f 1e fa          	endbr64 
    7703:	55                   	push   %rbp
    7704:	48 89 e5             	mov    %rsp,%rbp
    7707:	89 7d fc             	mov    %edi,-0x4(%rbp)
    770a:	89 75 f8             	mov    %esi,-0x8(%rbp)
    770d:	83 7d f8 00          	cmpl   $0x0,-0x8(%rbp)
    7711:	74 18                	je     772b <safe_div_func_int32_t_s_s+0x2c>
    7713:	81 7d fc 00 00 00 80 	cmpl   $0x80000000,-0x4(%rbp)
    771a:	75 06                	jne    7722 <safe_div_func_int32_t_s_s+0x23>
    771c:	83 7d f8 ff          	cmpl   $0xffffffff,-0x8(%rbp)
    7720:	74 09                	je     772b <safe_div_func_int32_t_s_s+0x2c>
    7722:	8b 45 fc             	mov    -0x4(%rbp),%eax
    7725:	99                   	cltd   
    7726:	f7 7d f8             	idivl  -0x8(%rbp)
    7729:	eb 03                	jmp    772e <safe_div_func_int32_t_s_s+0x2f>
    772b:	8b 45 fc             	mov    -0x4(%rbp),%eax
    772e:	5d                   	pop    %rbp
    772f:	c3                   	retq   

0000000000007730 <safe_lshift_func_int32_t_s_s>:
    7730:	f3 0f 1e fa          	endbr64 
    7734:	55                   	push   %rbp
    7735:	48 89 e5             	mov    %rsp,%rbp
    7738:	89 7d fc             	mov    %edi,-0x4(%rbp)
    773b:	89 75 f8             	mov    %esi,-0x8(%rbp)
    773e:	83 7d fc 00          	cmpl   $0x0,-0x4(%rbp)
    7742:	78 2d                	js     7771 <safe_lshift_func_int32_t_s_s+0x41>
    7744:	83 7d f8 00          	cmpl   $0x0,-0x8(%rbp)
    7748:	78 27                	js     7771 <safe_lshift_func_int32_t_s_s+0x41>
    774a:	83 7d f8 1f          	cmpl   $0x1f,-0x8(%rbp)
    774e:	7f 21                	jg     7771 <safe_lshift_func_int32_t_s_s+0x41>
    7750:	8b 45 f8             	mov    -0x8(%rbp),%eax
    7753:	ba ff ff ff 7f       	mov    $0x7fffffff,%edx
    7758:	89 c1                	mov    %eax,%ecx
    775a:	d3 fa                	sar    %cl,%edx
    775c:	89 d0                	mov    %edx,%eax
    775e:	39 45 fc             	cmp    %eax,-0x4(%rbp)
    7761:	7f 0e                	jg     7771 <safe_lshift_func_int32_t_s_s+0x41>
    7763:	8b 45 f8             	mov    -0x8(%rbp),%eax
    7766:	8b 55 fc             	mov    -0x4(%rbp),%edx
    7769:	89 c1                	mov    %eax,%ecx
    776b:	d3 e2                	shl    %cl,%edx
    776d:	89 d0                	mov    %edx,%eax
    776f:	eb 03                	jmp    7774 <safe_lshift_func_int32_t_s_s+0x44>
    7771:	8b 45 fc             	mov    -0x4(%rbp),%eax
    7774:	5d                   	pop    %rbp
    7775:	c3                   	retq   

0000000000007776 <safe_lshift_func_int32_t_s_u>:
    7776:	f3 0f 1e fa          	endbr64 
    777a:	55                   	push   %rbp
    777b:	48 89 e5             	mov    %rsp,%rbp
    777e:	89 7d fc             	mov    %edi,-0x4(%rbp)
    7781:	89 75 f8             	mov    %esi,-0x8(%rbp)
    7784:	83 7d fc 00          	cmpl   $0x0,-0x4(%rbp)
    7788:	78 27                	js     77b1 <safe_lshift_func_int32_t_s_u+0x3b>
    778a:	83 7d f8 1f          	cmpl   $0x1f,-0x8(%rbp)
    778e:	77 21                	ja     77b1 <safe_lshift_func_int32_t_s_u+0x3b>
    7790:	8b 45 f8             	mov    -0x8(%rbp),%eax
    7793:	ba ff ff ff 7f       	mov    $0x7fffffff,%edx
    7798:	89 c1                	mov    %eax,%ecx
    779a:	d3 fa                	sar    %cl,%edx
    779c:	89 d0                	mov    %edx,%eax
    779e:	39 45 fc             	cmp    %eax,-0x4(%rbp)
    77a1:	7f 0e                	jg     77b1 <safe_lshift_func_int32_t_s_u+0x3b>
    77a3:	8b 45 f8             	mov    -0x8(%rbp),%eax
    77a6:	8b 55 fc             	mov    -0x4(%rbp),%edx
    77a9:	89 c1                	mov    %eax,%ecx
    77ab:	d3 e2                	shl    %cl,%edx
    77ad:	89 d0                	mov    %edx,%eax
    77af:	eb 03                	jmp    77b4 <safe_lshift_func_int32_t_s_u+0x3e>
    77b1:	8b 45 fc             	mov    -0x4(%rbp),%eax
    77b4:	5d                   	pop    %rbp
    77b5:	c3                   	retq   

00000000000077b6 <safe_rshift_func_int32_t_s_s>:
    77b6:	f3 0f 1e fa          	endbr64 
    77ba:	55                   	push   %rbp
    77bb:	48 89 e5             	mov    %rsp,%rbp
    77be:	89 7d fc             	mov    %edi,-0x4(%rbp)
    77c1:	89 75 f8             	mov    %esi,-0x8(%rbp)
    77c4:	83 7d fc 00          	cmpl   $0x0,-0x4(%rbp)
    77c8:	78 1a                	js     77e4 <safe_rshift_func_int32_t_s_s+0x2e>
    77ca:	83 7d f8 00          	cmpl   $0x0,-0x8(%rbp)
    77ce:	78 14                	js     77e4 <safe_rshift_func_int32_t_s_s+0x2e>
    77d0:	83 7d f8 1f          	cmpl   $0x1f,-0x8(%rbp)
    77d4:	7f 0e                	jg     77e4 <safe_rshift_func_int32_t_s_s+0x2e>
    77d6:	8b 45 f8             	mov    -0x8(%rbp),%eax
    77d9:	8b 55 fc             	mov    -0x4(%rbp),%edx
    77dc:	89 c1                	mov    %eax,%ecx
    77de:	d3 fa                	sar    %cl,%edx
    77e0:	89 d0                	mov    %edx,%eax
    77e2:	eb 03                	jmp    77e7 <safe_rshift_func_int32_t_s_s+0x31>
    77e4:	8b 45 fc             	mov    -0x4(%rbp),%eax
    77e7:	5d                   	pop    %rbp
    77e8:	c3                   	retq   

00000000000077e9 <safe_rshift_func_int32_t_s_u>:
    77e9:	f3 0f 1e fa          	endbr64 
    77ed:	55                   	push   %rbp
    77ee:	48 89 e5             	mov    %rsp,%rbp
    77f1:	89 7d fc             	mov    %edi,-0x4(%rbp)
    77f4:	89 75 f8             	mov    %esi,-0x8(%rbp)
    77f7:	83 7d fc 00          	cmpl   $0x0,-0x4(%rbp)
    77fb:	78 14                	js     7811 <safe_rshift_func_int32_t_s_u+0x28>
    77fd:	83 7d f8 1f          	cmpl   $0x1f,-0x8(%rbp)
    7801:	77 0e                	ja     7811 <safe_rshift_func_int32_t_s_u+0x28>
    7803:	8b 45 f8             	mov    -0x8(%rbp),%eax
    7806:	8b 55 fc             	mov    -0x4(%rbp),%edx
    7809:	89 c1                	mov    %eax,%ecx
    780b:	d3 fa                	sar    %cl,%edx
    780d:	89 d0                	mov    %edx,%eax
    780f:	eb 03                	jmp    7814 <safe_rshift_func_int32_t_s_u+0x2b>
    7811:	8b 45 fc             	mov    -0x4(%rbp),%eax
    7814:	5d                   	pop    %rbp
    7815:	c3                   	retq   

0000000000007816 <safe_unary_minus_func_int64_t_s>:
    7816:	f3 0f 1e fa          	endbr64 
    781a:	55                   	push   %rbp
    781b:	48 89 e5             	mov    %rsp,%rbp
    781e:	48 89 7d f8          	mov    %rdi,-0x8(%rbp)
    7822:	48 b8 00 00 00 00 00 	movabs $0x8000000000000000,%rax
    7829:	00 00 80 
    782c:	48 39 45 f8          	cmp    %rax,-0x8(%rbp)
    7830:	74 09                	je     783b <safe_unary_minus_func_int64_t_s+0x25>
    7832:	48 8b 45 f8          	mov    -0x8(%rbp),%rax
    7836:	48 f7 d8             	neg    %rax
    7839:	eb 04                	jmp    783f <safe_unary_minus_func_int64_t_s+0x29>
    783b:	48 8b 45 f8          	mov    -0x8(%rbp),%rax
    783f:	5d                   	pop    %rbp
    7840:	c3                   	retq   

0000000000007841 <safe_add_func_int64_t_s_s>:
    7841:	f3 0f 1e fa          	endbr64 
    7845:	55                   	push   %rbp
    7846:	48 89 e5             	mov    %rsp,%rbp
    7849:	48 89 7d f8          	mov    %rdi,-0x8(%rbp)
    784d:	48 89 75 f0          	mov    %rsi,-0x10(%rbp)
    7851:	48 83 7d f8 00       	cmpq   $0x0,-0x8(%rbp)
    7856:	7e 1b                	jle    7873 <safe_add_func_int64_t_s_s+0x32>
    7858:	48 83 7d f0 00       	cmpq   $0x0,-0x10(%rbp)
    785d:	7e 14                	jle    7873 <safe_add_func_int64_t_s_s+0x32>
    785f:	48 b8 ff ff ff ff ff 	movabs $0x7fffffffffffffff,%rax
    7866:	ff ff 7f 
    7869:	48 2b 45 f0          	sub    -0x10(%rbp),%rax
    786d:	48 39 45 f8          	cmp    %rax,-0x8(%rbp)
    7871:	7f 2f                	jg     78a2 <safe_add_func_int64_t_s_s+0x61>
    7873:	48 83 7d f8 00       	cmpq   $0x0,-0x8(%rbp)
    7878:	79 1b                	jns    7895 <safe_add_func_int64_t_s_s+0x54>
    787a:	48 83 7d f0 00       	cmpq   $0x0,-0x10(%rbp)
    787f:	79 14                	jns    7895 <safe_add_func_int64_t_s_s+0x54>
    7881:	48 b8 00 00 00 00 00 	movabs $0x8000000000000000,%rax
    7888:	00 00 80 
    788b:	48 2b 45 f0          	sub    -0x10(%rbp),%rax
    788f:	48 39 45 f8          	cmp    %rax,-0x8(%rbp)
    7893:	7c 0d                	jl     78a2 <safe_add_func_int64_t_s_s+0x61>
    7895:	48 8b 55 f8          	mov    -0x8(%rbp),%rdx
    7899:	48 8b 45 f0          	mov    -0x10(%rbp),%rax
    789d:	48 01 d0             	add    %rdx,%rax
    78a0:	eb 04                	jmp    78a6 <safe_add_func_int64_t_s_s+0x65>
    78a2:	48 8b 45 f8          	mov    -0x8(%rbp),%rax
    78a6:	5d                   	pop    %rbp
    78a7:	c3                   	retq   

00000000000078a8 <safe_sub_func_int64_t_s_s>:
    78a8:	f3 0f 1e fa          	endbr64 
    78ac:	55                   	push   %rbp
    78ad:	48 89 e5             	mov    %rsp,%rbp
    78b0:	48 89 7d f8          	mov    %rdi,-0x8(%rbp)
    78b4:	48 89 75 f0          	mov    %rsi,-0x10(%rbp)
    78b8:	48 8b 45 f8          	mov    -0x8(%rbp),%rax
    78bc:	48 33 45 f0          	xor    -0x10(%rbp),%rax
    78c0:	48 89 c2             	mov    %rax,%rdx
    78c3:	48 8b 45 f8          	mov    -0x8(%rbp),%rax
    78c7:	48 33 45 f0          	xor    -0x10(%rbp),%rax
    78cb:	48 b9 00 00 00 00 00 	movabs $0x8000000000000000,%rcx
    78d2:	00 00 80 
    78d5:	48 21 c8             	and    %rcx,%rax
    78d8:	48 33 45 f8          	xor    -0x8(%rbp),%rax
    78dc:	48 2b 45 f0          	sub    -0x10(%rbp),%rax
    78e0:	48 33 45 f0          	xor    -0x10(%rbp),%rax
    78e4:	48 21 d0             	and    %rdx,%rax
    78e7:	48 85 c0             	test   %rax,%rax
    78ea:	78 0a                	js     78f6 <safe_sub_func_int64_t_s_s+0x4e>
    78ec:	48 8b 45 f8          	mov    -0x8(%rbp),%rax
    78f0:	48 2b 45 f0          	sub    -0x10(%rbp),%rax
    78f4:	eb 04                	jmp    78fa <safe_sub_func_int64_t_s_s+0x52>
    78f6:	48 8b 45 f8          	mov    -0x8(%rbp),%rax
    78fa:	5d                   	pop    %rbp
    78fb:	c3                   	retq   

00000000000078fc <safe_mul_func_int64_t_s_s>:
    78fc:	f3 0f 1e fa          	endbr64 
    7900:	55                   	push   %rbp
    7901:	48 89 e5             	mov    %rsp,%rbp
    7904:	48 89 7d f8          	mov    %rdi,-0x8(%rbp)
    7908:	48 89 75 f0          	mov    %rsi,-0x10(%rbp)
    790c:	48 83 7d f8 00       	cmpq   $0x0,-0x8(%rbp)
    7911:	7e 1d                	jle    7930 <safe_mul_func_int64_t_s_s+0x34>
    7913:	48 83 7d f0 00       	cmpq   $0x0,-0x10(%rbp)
    7918:	7e 16                	jle    7930 <safe_mul_func_int64_t_s_s+0x34>
    791a:	48 b8 ff ff ff ff ff 	movabs $0x7fffffffffffffff,%rax
    7921:	ff ff 7f 
    7924:	48 99                	cqto   
    7926:	48 f7 7d f0          	idivq  -0x10(%rbp)
    792a:	48 39 45 f8          	cmp    %rax,-0x8(%rbp)
    792e:	7f 7e                	jg     79ae <safe_mul_func_int64_t_s_s+0xb2>
    7930:	48 83 7d f8 00       	cmpq   $0x0,-0x8(%rbp)
    7935:	7e 1d                	jle    7954 <safe_mul_func_int64_t_s_s+0x58>
    7937:	48 83 7d f0 00       	cmpq   $0x0,-0x10(%rbp)
    793c:	7f 16                	jg     7954 <safe_mul_func_int64_t_s_s+0x58>
    793e:	48 b8 00 00 00 00 00 	movabs $0x8000000000000000,%rax
    7945:	00 00 80 
    7948:	48 99                	cqto   
    794a:	48 f7 7d f8          	idivq  -0x8(%rbp)
    794e:	48 39 45 f0          	cmp    %rax,-0x10(%rbp)
    7952:	7c 5a                	jl     79ae <safe_mul_func_int64_t_s_s+0xb2>
    7954:	48 83 7d f8 00       	cmpq   $0x0,-0x8(%rbp)
    7959:	7f 1d                	jg     7978 <safe_mul_func_int64_t_s_s+0x7c>
    795b:	48 83 7d f0 00       	cmpq   $0x0,-0x10(%rbp)
    7960:	7e 16                	jle    7978 <safe_mul_func_int64_t_s_s+0x7c>
    7962:	48 b8 00 00 00 00 00 	movabs $0x8000000000000000,%rax
    7969:	00 00 80 
    796c:	48 99                	cqto   
    796e:	48 f7 7d f0          	idivq  -0x10(%rbp)
    7972:	48 39 45 f8          	cmp    %rax,-0x8(%rbp)
    7976:	7c 36                	jl     79ae <safe_mul_func_int64_t_s_s+0xb2>
    7978:	48 83 7d f8 00       	cmpq   $0x0,-0x8(%rbp)
    797d:	7f 24                	jg     79a3 <safe_mul_func_int64_t_s_s+0xa7>
    797f:	48 83 7d f0 00       	cmpq   $0x0,-0x10(%rbp)
    7984:	7f 1d                	jg     79a3 <safe_mul_func_int64_t_s_s+0xa7>
    7986:	48 83 7d f8 00       	cmpq   $0x0,-0x8(%rbp)
    798b:	74 16                	je     79a3 <safe_mul_func_int64_t_s_s+0xa7>
    798d:	48 b8 ff ff ff ff ff 	movabs $0x7fffffffffffffff,%rax
    7994:	ff ff 7f 
    7997:	48 99                	cqto   
    7999:	48 f7 7d f8          	idivq  -0x8(%rbp)
    799d:	48 39 45 f0          	cmp    %rax,-0x10(%rbp)
    79a1:	7c 0b                	jl     79ae <safe_mul_func_int64_t_s_s+0xb2>
    79a3:	48 8b 45 f8          	mov    -0x8(%rbp),%rax
    79a7:	48 0f af 45 f0       	imul   -0x10(%rbp),%rax
    79ac:	eb 04                	jmp    79b2 <safe_mul_func_int64_t_s_s+0xb6>
    79ae:	48 8b 45 f8          	mov    -0x8(%rbp),%rax
    79b2:	5d                   	pop    %rbp
    79b3:	c3                   	retq   

00000000000079b4 <safe_mod_func_int64_t_s_s>:
    79b4:	f3 0f 1e fa          	endbr64 
    79b8:	55                   	push   %rbp
    79b9:	48 89 e5             	mov    %rsp,%rbp
    79bc:	48 89 7d f8          	mov    %rdi,-0x8(%rbp)
    79c0:	48 89 75 f0          	mov    %rsi,-0x10(%rbp)
    79c4:	48 83 7d f0 00       	cmpq   $0x0,-0x10(%rbp)
    79c9:	74 26                	je     79f1 <safe_mod_func_int64_t_s_s+0x3d>
    79cb:	48 b8 00 00 00 00 00 	movabs $0x8000000000000000,%rax
    79d2:	00 00 80 
    79d5:	48 39 45 f8          	cmp    %rax,-0x8(%rbp)
    79d9:	75 07                	jne    79e2 <safe_mod_func_int64_t_s_s+0x2e>
    79db:	48 83 7d f0 ff       	cmpq   $0xffffffffffffffff,-0x10(%rbp)
    79e0:	74 0f                	je     79f1 <safe_mod_func_int64_t_s_s+0x3d>
    79e2:	48 8b 45 f8          	mov    -0x8(%rbp),%rax
    79e6:	48 99                	cqto   
    79e8:	48 f7 7d f0          	idivq  -0x10(%rbp)
    79ec:	48 89 d0             	mov    %rdx,%rax
    79ef:	eb 04                	jmp    79f5 <safe_mod_func_int64_t_s_s+0x41>
    79f1:	48 8b 45 f8          	mov    -0x8(%rbp),%rax
    79f5:	5d                   	pop    %rbp
    79f6:	c3                   	retq   

00000000000079f7 <safe_div_func_int64_t_s_s>:
    79f7:	f3 0f 1e fa          	endbr64 
    79fb:	55                   	push   %rbp
    79fc:	48 89 e5             	mov    %rsp,%rbp
    79ff:	48 89 7d f8          	mov    %rdi,-0x8(%rbp)
    7a03:	48 89 75 f0          	mov    %rsi,-0x10(%rbp)
    7a07:	48 83 7d f0 00       	cmpq   $0x0,-0x10(%rbp)
    7a0c:	74 23                	je     7a31 <safe_div_func_int64_t_s_s+0x3a>
    7a0e:	48 b8 00 00 00 00 00 	movabs $0x8000000000000000,%rax
    7a15:	00 00 80 
    7a18:	48 39 45 f8          	cmp    %rax,-0x8(%rbp)
    7a1c:	75 07                	jne    7a25 <safe_div_func_int64_t_s_s+0x2e>
    7a1e:	48 83 7d f0 ff       	cmpq   $0xffffffffffffffff,-0x10(%rbp)
    7a23:	74 0c                	je     7a31 <safe_div_func_int64_t_s_s+0x3a>
    7a25:	48 8b 45 f8          	mov    -0x8(%rbp),%rax
    7a29:	48 99                	cqto   
    7a2b:	48 f7 7d f0          	idivq  -0x10(%rbp)
    7a2f:	eb 04                	jmp    7a35 <safe_div_func_int64_t_s_s+0x3e>
    7a31:	48 8b 45 f8          	mov    -0x8(%rbp),%rax
    7a35:	5d                   	pop    %rbp
    7a36:	c3                   	retq   

0000000000007a37 <safe_lshift_func_int64_t_s_s>:
    7a37:	f3 0f 1e fa          	endbr64 
    7a3b:	55                   	push   %rbp
    7a3c:	48 89 e5             	mov    %rsp,%rbp
    7a3f:	48 89 7d f8          	mov    %rdi,-0x8(%rbp)
    7a43:	89 75 f4             	mov    %esi,-0xc(%rbp)
    7a46:	48 83 7d f8 00       	cmpq   $0x0,-0x8(%rbp)
    7a4b:	78 38                	js     7a85 <safe_lshift_func_int64_t_s_s+0x4e>
    7a4d:	83 7d f4 00          	cmpl   $0x0,-0xc(%rbp)
    7a51:	78 32                	js     7a85 <safe_lshift_func_int64_t_s_s+0x4e>
    7a53:	83 7d f4 1f          	cmpl   $0x1f,-0xc(%rbp)
    7a57:	7f 2c                	jg     7a85 <safe_lshift_func_int64_t_s_s+0x4e>
    7a59:	8b 45 f4             	mov    -0xc(%rbp),%eax
    7a5c:	48 ba ff ff ff ff ff 	movabs $0x7fffffffffffffff,%rdx
    7a63:	ff ff 7f 
    7a66:	89 c1                	mov    %eax,%ecx
    7a68:	48 d3 fa             	sar    %cl,%rdx
    7a6b:	48 89 d0             	mov    %rdx,%rax
    7a6e:	48 39 45 f8          	cmp    %rax,-0x8(%rbp)
    7a72:	7f 11                	jg     7a85 <safe_lshift_func_int64_t_s_s+0x4e>
    7a74:	8b 45 f4             	mov    -0xc(%rbp),%eax
    7a77:	48 8b 55 f8          	mov    -0x8(%rbp),%rdx
    7a7b:	89 c1                	mov    %eax,%ecx
    7a7d:	48 d3 e2             	shl    %cl,%rdx
    7a80:	48 89 d0             	mov    %rdx,%rax
    7a83:	eb 04                	jmp    7a89 <safe_lshift_func_int64_t_s_s+0x52>
    7a85:	48 8b 45 f8          	mov    -0x8(%rbp),%rax
    7a89:	5d                   	pop    %rbp
    7a8a:	c3                   	retq   

0000000000007a8b <safe_lshift_func_int64_t_s_u>:
    7a8b:	f3 0f 1e fa          	endbr64 
    7a8f:	55                   	push   %rbp
    7a90:	48 89 e5             	mov    %rsp,%rbp
    7a93:	48 89 7d f8          	mov    %rdi,-0x8(%rbp)
    7a97:	89 75 f4             	mov    %esi,-0xc(%rbp)
    7a9a:	48 83 7d f8 00       	cmpq   $0x0,-0x8(%rbp)
    7a9f:	78 32                	js     7ad3 <safe_lshift_func_int64_t_s_u+0x48>
    7aa1:	83 7d f4 1f          	cmpl   $0x1f,-0xc(%rbp)
    7aa5:	77 2c                	ja     7ad3 <safe_lshift_func_int64_t_s_u+0x48>
    7aa7:	8b 45 f4             	mov    -0xc(%rbp),%eax
    7aaa:	48 ba ff ff ff ff ff 	movabs $0x7fffffffffffffff,%rdx
    7ab1:	ff ff 7f 
    7ab4:	89 c1                	mov    %eax,%ecx
    7ab6:	48 d3 fa             	sar    %cl,%rdx
    7ab9:	48 89 d0             	mov    %rdx,%rax
    7abc:	48 39 45 f8          	cmp    %rax,-0x8(%rbp)
    7ac0:	7f 11                	jg     7ad3 <safe_lshift_func_int64_t_s_u+0x48>
    7ac2:	8b 45 f4             	mov    -0xc(%rbp),%eax
    7ac5:	48 8b 55 f8          	mov    -0x8(%rbp),%rdx
    7ac9:	89 c1                	mov    %eax,%ecx
    7acb:	48 d3 e2             	shl    %cl,%rdx
    7ace:	48 89 d0             	mov    %rdx,%rax
    7ad1:	eb 04                	jmp    7ad7 <safe_lshift_func_int64_t_s_u+0x4c>
    7ad3:	48 8b 45 f8          	mov    -0x8(%rbp),%rax
    7ad7:	5d                   	pop    %rbp
    7ad8:	c3                   	retq   

0000000000007ad9 <safe_rshift_func_int64_t_s_s>:
    7ad9:	f3 0f 1e fa          	endbr64 
    7add:	55                   	push   %rbp
    7ade:	48 89 e5             	mov    %rsp,%rbp
    7ae1:	48 89 7d f8          	mov    %rdi,-0x8(%rbp)
    7ae5:	89 75 f4             	mov    %esi,-0xc(%rbp)
    7ae8:	48 83 7d f8 00       	cmpq   $0x0,-0x8(%rbp)
    7aed:	78 1d                	js     7b0c <safe_rshift_func_int64_t_s_s+0x33>
    7aef:	83 7d f4 00          	cmpl   $0x0,-0xc(%rbp)
    7af3:	78 17                	js     7b0c <safe_rshift_func_int64_t_s_s+0x33>
    7af5:	83 7d f4 1f          	cmpl   $0x1f,-0xc(%rbp)
    7af9:	7f 11                	jg     7b0c <safe_rshift_func_int64_t_s_s+0x33>
    7afb:	8b 45 f4             	mov    -0xc(%rbp),%eax
    7afe:	48 8b 55 f8          	mov    -0x8(%rbp),%rdx
    7b02:	89 c1                	mov    %eax,%ecx
    7b04:	48 d3 fa             	sar    %cl,%rdx
    7b07:	48 89 d0             	mov    %rdx,%rax
    7b0a:	eb 04                	jmp    7b10 <safe_rshift_func_int64_t_s_s+0x37>
    7b0c:	48 8b 45 f8          	mov    -0x8(%rbp),%rax
    7b10:	5d                   	pop    %rbp
    7b11:	c3                   	retq   

0000000000007b12 <safe_rshift_func_int64_t_s_u>:
    7b12:	f3 0f 1e fa          	endbr64 
    7b16:	55                   	push   %rbp
    7b17:	48 89 e5             	mov    %rsp,%rbp
    7b1a:	48 89 7d f8          	mov    %rdi,-0x8(%rbp)
    7b1e:	89 75 f4             	mov    %esi,-0xc(%rbp)
    7b21:	48 83 7d f8 00       	cmpq   $0x0,-0x8(%rbp)
    7b26:	78 17                	js     7b3f <safe_rshift_func_int64_t_s_u+0x2d>
    7b28:	83 7d f4 1f          	cmpl   $0x1f,-0xc(%rbp)
    7b2c:	77 11                	ja     7b3f <safe_rshift_func_int64_t_s_u+0x2d>
    7b2e:	8b 45 f4             	mov    -0xc(%rbp),%eax
    7b31:	48 8b 55 f8          	mov    -0x8(%rbp),%rdx
    7b35:	89 c1                	mov    %eax,%ecx
    7b37:	48 d3 fa             	sar    %cl,%rdx
    7b3a:	48 89 d0             	mov    %rdx,%rax
    7b3d:	eb 04                	jmp    7b43 <safe_rshift_func_int64_t_s_u+0x31>
    7b3f:	48 8b 45 f8          	mov    -0x8(%rbp),%rax
    7b43:	5d                   	pop    %rbp
    7b44:	c3                   	retq   

0000000000007b45 <safe_unary_minus_func_uint8_t_u>:
    7b45:	f3 0f 1e fa          	endbr64 
    7b49:	55                   	push   %rbp
    7b4a:	48 89 e5             	mov    %rsp,%rbp
    7b4d:	89 f8                	mov    %edi,%eax
    7b4f:	88 45 fc             	mov    %al,-0x4(%rbp)
    7b52:	0f b6 45 fc          	movzbl -0x4(%rbp),%eax
    7b56:	f7 d8                	neg    %eax
    7b58:	5d                   	pop    %rbp
    7b59:	c3                   	retq   

0000000000007b5a <safe_add_func_uint8_t_u_u>:
    7b5a:	f3 0f 1e fa          	endbr64 
    7b5e:	55                   	push   %rbp
    7b5f:	48 89 e5             	mov    %rsp,%rbp
    7b62:	89 fa                	mov    %edi,%edx
    7b64:	89 f0                	mov    %esi,%eax
    7b66:	88 55 fc             	mov    %dl,-0x4(%rbp)
    7b69:	88 45 f8             	mov    %al,-0x8(%rbp)
    7b6c:	0f b6 55 fc          	movzbl -0x4(%rbp),%edx
    7b70:	0f b6 45 f8          	movzbl -0x8(%rbp),%eax
    7b74:	01 d0                	add    %edx,%eax
    7b76:	5d                   	pop    %rbp
    7b77:	c3                   	retq   

0000000000007b78 <safe_sub_func_uint8_t_u_u>:
    7b78:	f3 0f 1e fa          	endbr64 
    7b7c:	55                   	push   %rbp
    7b7d:	48 89 e5             	mov    %rsp,%rbp
    7b80:	89 fa                	mov    %edi,%edx
    7b82:	89 f0                	mov    %esi,%eax
    7b84:	88 55 fc             	mov    %dl,-0x4(%rbp)
    7b87:	88 45 f8             	mov    %al,-0x8(%rbp)
    7b8a:	0f b6 45 fc          	movzbl -0x4(%rbp),%eax
    7b8e:	2a 45 f8             	sub    -0x8(%rbp),%al
    7b91:	5d                   	pop    %rbp
    7b92:	c3                   	retq   

0000000000007b93 <safe_mul_func_uint8_t_u_u>:
    7b93:	f3 0f 1e fa          	endbr64 
    7b97:	55                   	push   %rbp
    7b98:	48 89 e5             	mov    %rsp,%rbp
    7b9b:	89 fa                	mov    %edi,%edx
    7b9d:	89 f0                	mov    %esi,%eax
    7b9f:	88 55 fc             	mov    %dl,-0x4(%rbp)
    7ba2:	88 45 f8             	mov    %al,-0x8(%rbp)
    7ba5:	0f b6 45 fc          	movzbl -0x4(%rbp),%eax
    7ba9:	f6 65 f8             	mulb   -0x8(%rbp)
    7bac:	5d                   	pop    %rbp
    7bad:	c3                   	retq   

0000000000007bae <safe_mod_func_uint8_t_u_u>:
    7bae:	f3 0f 1e fa          	endbr64 
    7bb2:	55                   	push   %rbp
    7bb3:	48 89 e5             	mov    %rsp,%rbp
    7bb6:	89 fa                	mov    %edi,%edx
    7bb8:	89 f0                	mov    %esi,%eax
    7bba:	88 55 fc             	mov    %dl,-0x4(%rbp)
    7bbd:	88 45 f8             	mov    %al,-0x8(%rbp)
    7bc0:	80 7d f8 00          	cmpb   $0x0,-0x8(%rbp)
    7bc4:	74 0f                	je     7bd5 <safe_mod_func_uint8_t_u_u+0x27>
    7bc6:	0f b6 45 fc          	movzbl -0x4(%rbp),%eax
    7bca:	0f b6 c0             	movzbl %al,%eax
    7bcd:	f6 75 f8             	divb   -0x8(%rbp)
    7bd0:	0f b6 c4             	movzbl %ah,%eax
    7bd3:	eb 04                	jmp    7bd9 <safe_mod_func_uint8_t_u_u+0x2b>
    7bd5:	0f b6 45 fc          	movzbl -0x4(%rbp),%eax
    7bd9:	5d                   	pop    %rbp
    7bda:	c3                   	retq   

0000000000007bdb <safe_div_func_uint8_t_u_u>:
    7bdb:	f3 0f 1e fa          	endbr64 
    7bdf:	55                   	push   %rbp
    7be0:	48 89 e5             	mov    %rsp,%rbp
    7be3:	89 fa                	mov    %edi,%edx
    7be5:	89 f0                	mov    %esi,%eax
    7be7:	88 55 fc             	mov    %dl,-0x4(%rbp)
    7bea:	88 45 f8             	mov    %al,-0x8(%rbp)
    7bed:	80 7d f8 00          	cmpb   $0x0,-0x8(%rbp)
    7bf1:	74 0c                	je     7bff <safe_div_func_uint8_t_u_u+0x24>
    7bf3:	0f b6 45 fc          	movzbl -0x4(%rbp),%eax
    7bf7:	0f b6 c0             	movzbl %al,%eax
    7bfa:	f6 75 f8             	divb   -0x8(%rbp)
    7bfd:	eb 04                	jmp    7c03 <safe_div_func_uint8_t_u_u+0x28>
    7bff:	0f b6 45 fc          	movzbl -0x4(%rbp),%eax
    7c03:	5d                   	pop    %rbp
    7c04:	c3                   	retq   

0000000000007c05 <safe_lshift_func_uint8_t_u_s>:
    7c05:	f3 0f 1e fa          	endbr64 
    7c09:	55                   	push   %rbp
    7c0a:	48 89 e5             	mov    %rsp,%rbp
    7c0d:	89 f8                	mov    %edi,%eax
    7c0f:	89 75 f8             	mov    %esi,-0x8(%rbp)
    7c12:	88 45 fc             	mov    %al,-0x4(%rbp)
    7c15:	83 7d f8 00          	cmpl   $0x0,-0x8(%rbp)
    7c19:	78 2b                	js     7c46 <safe_lshift_func_uint8_t_u_s+0x41>
    7c1b:	83 7d f8 1f          	cmpl   $0x1f,-0x8(%rbp)
    7c1f:	7f 25                	jg     7c46 <safe_lshift_func_uint8_t_u_s+0x41>
    7c21:	0f b6 55 fc          	movzbl -0x4(%rbp),%edx
    7c25:	8b 45 f8             	mov    -0x8(%rbp),%eax
    7c28:	be ff 00 00 00       	mov    $0xff,%esi
    7c2d:	89 c1                	mov    %eax,%ecx
    7c2f:	d3 fe                	sar    %cl,%esi
    7c31:	89 f0                	mov    %esi,%eax
    7c33:	39 c2                	cmp    %eax,%edx
    7c35:	7f 0f                	jg     7c46 <safe_lshift_func_uint8_t_u_s+0x41>
    7c37:	0f b6 55 fc          	movzbl -0x4(%rbp),%edx
    7c3b:	8b 45 f8             	mov    -0x8(%rbp),%eax
    7c3e:	89 c1                	mov    %eax,%ecx
    7c40:	d3 e2                	shl    %cl,%edx
    7c42:	89 d0                	mov    %edx,%eax
    7c44:	eb 04                	jmp    7c4a <safe_lshift_func_uint8_t_u_s+0x45>
    7c46:	0f b6 45 fc          	movzbl -0x4(%rbp),%eax
    7c4a:	5d                   	pop    %rbp
    7c4b:	c3                   	retq   

0000000000007c4c <safe_lshift_func_uint8_t_u_u>:
    7c4c:	f3 0f 1e fa          	endbr64 
    7c50:	55                   	push   %rbp
    7c51:	48 89 e5             	mov    %rsp,%rbp
    7c54:	89 f8                	mov    %edi,%eax
    7c56:	89 75 f8             	mov    %esi,-0x8(%rbp)
    7c59:	88 45 fc             	mov    %al,-0x4(%rbp)
    7c5c:	83 7d f8 1f          	cmpl   $0x1f,-0x8(%rbp)
    7c60:	77 25                	ja     7c87 <safe_lshift_func_uint8_t_u_u+0x3b>
    7c62:	0f b6 55 fc          	movzbl -0x4(%rbp),%edx
    7c66:	8b 45 f8             	mov    -0x8(%rbp),%eax
    7c69:	be ff 00 00 00       	mov    $0xff,%esi
    7c6e:	89 c1                	mov    %eax,%ecx
    7c70:	d3 fe                	sar    %cl,%esi
    7c72:	89 f0                	mov    %esi,%eax
    7c74:	39 c2                	cmp    %eax,%edx
    7c76:	7f 0f                	jg     7c87 <safe_lshift_func_uint8_t_u_u+0x3b>
    7c78:	0f b6 55 fc          	movzbl -0x4(%rbp),%edx
    7c7c:	8b 45 f8             	mov    -0x8(%rbp),%eax
    7c7f:	89 c1                	mov    %eax,%ecx
    7c81:	d3 e2                	shl    %cl,%edx
    7c83:	89 d0                	mov    %edx,%eax
    7c85:	eb 04                	jmp    7c8b <safe_lshift_func_uint8_t_u_u+0x3f>
    7c87:	0f b6 45 fc          	movzbl -0x4(%rbp),%eax
    7c8b:	5d                   	pop    %rbp
    7c8c:	c3                   	retq   

0000000000007c8d <safe_rshift_func_uint8_t_u_s>:
    7c8d:	f3 0f 1e fa          	endbr64 
    7c91:	55                   	push   %rbp
    7c92:	48 89 e5             	mov    %rsp,%rbp
    7c95:	89 f8                	mov    %edi,%eax
    7c97:	89 75 f8             	mov    %esi,-0x8(%rbp)
    7c9a:	88 45 fc             	mov    %al,-0x4(%rbp)
    7c9d:	83 7d f8 00          	cmpl   $0x0,-0x8(%rbp)
    7ca1:	78 15                	js     7cb8 <safe_rshift_func_uint8_t_u_s+0x2b>
    7ca3:	83 7d f8 1f          	cmpl   $0x1f,-0x8(%rbp)
    7ca7:	7f 0f                	jg     7cb8 <safe_rshift_func_uint8_t_u_s+0x2b>
    7ca9:	0f b6 55 fc          	movzbl -0x4(%rbp),%edx
    7cad:	8b 45 f8             	mov    -0x8(%rbp),%eax
    7cb0:	89 c1                	mov    %eax,%ecx
    7cb2:	d3 fa                	sar    %cl,%edx
    7cb4:	89 d0                	mov    %edx,%eax
    7cb6:	eb 04                	jmp    7cbc <safe_rshift_func_uint8_t_u_s+0x2f>
    7cb8:	0f b6 45 fc          	movzbl -0x4(%rbp),%eax
    7cbc:	5d                   	pop    %rbp
    7cbd:	c3                   	retq   

0000000000007cbe <safe_rshift_func_uint8_t_u_u>:
    7cbe:	f3 0f 1e fa          	endbr64 
    7cc2:	55                   	push   %rbp
    7cc3:	48 89 e5             	mov    %rsp,%rbp
    7cc6:	89 f8                	mov    %edi,%eax
    7cc8:	89 75 f8             	mov    %esi,-0x8(%rbp)
    7ccb:	88 45 fc             	mov    %al,-0x4(%rbp)
    7cce:	83 7d f8 1f          	cmpl   $0x1f,-0x8(%rbp)
    7cd2:	77 0f                	ja     7ce3 <safe_rshift_func_uint8_t_u_u+0x25>
    7cd4:	0f b6 55 fc          	movzbl -0x4(%rbp),%edx
    7cd8:	8b 45 f8             	mov    -0x8(%rbp),%eax
    7cdb:	89 c1                	mov    %eax,%ecx
    7cdd:	d3 fa                	sar    %cl,%edx
    7cdf:	89 d0                	mov    %edx,%eax
    7ce1:	eb 04                	jmp    7ce7 <safe_rshift_func_uint8_t_u_u+0x29>
    7ce3:	0f b6 45 fc          	movzbl -0x4(%rbp),%eax
    7ce7:	5d                   	pop    %rbp
    7ce8:	c3                   	retq   

0000000000007ce9 <safe_unary_minus_func_uint16_t_u>:
    7ce9:	f3 0f 1e fa          	endbr64 
    7ced:	55                   	push   %rbp
    7cee:	48 89 e5             	mov    %rsp,%rbp
    7cf1:	89 f8                	mov    %edi,%eax
    7cf3:	66 89 45 fc          	mov    %ax,-0x4(%rbp)
    7cf7:	0f b7 45 fc          	movzwl -0x4(%rbp),%eax
    7cfb:	f7 d8                	neg    %eax
    7cfd:	5d                   	pop    %rbp
    7cfe:	c3                   	retq   

0000000000007cff <safe_add_func_uint16_t_u_u>:
    7cff:	f3 0f 1e fa          	endbr64 
    7d03:	55                   	push   %rbp
    7d04:	48 89 e5             	mov    %rsp,%rbp
    7d07:	89 fa                	mov    %edi,%edx
    7d09:	89 f0                	mov    %esi,%eax
    7d0b:	66 89 55 fc          	mov    %dx,-0x4(%rbp)
    7d0f:	66 89 45 f8          	mov    %ax,-0x8(%rbp)
    7d13:	0f b7 55 fc          	movzwl -0x4(%rbp),%edx
    7d17:	0f b7 45 f8          	movzwl -0x8(%rbp),%eax
    7d1b:	01 d0                	add    %edx,%eax
    7d1d:	5d                   	pop    %rbp
    7d1e:	c3                   	retq   

0000000000007d1f <safe_sub_func_uint16_t_u_u>:
    7d1f:	f3 0f 1e fa          	endbr64 
    7d23:	55                   	push   %rbp
    7d24:	48 89 e5             	mov    %rsp,%rbp
    7d27:	89 fa                	mov    %edi,%edx
    7d29:	89 f0                	mov    %esi,%eax
    7d2b:	66 89 55 fc          	mov    %dx,-0x4(%rbp)
    7d2f:	66 89 45 f8          	mov    %ax,-0x8(%rbp)
    7d33:	0f b7 45 fc          	movzwl -0x4(%rbp),%eax
    7d37:	66 2b 45 f8          	sub    -0x8(%rbp),%ax
    7d3b:	5d                   	pop    %rbp
    7d3c:	c3                   	retq   

0000000000007d3d <safe_mul_func_uint16_t_u_u>:
    7d3d:	f3 0f 1e fa          	endbr64 
    7d41:	55                   	push   %rbp
    7d42:	48 89 e5             	mov    %rsp,%rbp
    7d45:	89 fa                	mov    %edi,%edx
    7d47:	89 f0                	mov    %esi,%eax
    7d49:	66 89 55 fc          	mov    %dx,-0x4(%rbp)
    7d4d:	66 89 45 f8          	mov    %ax,-0x8(%rbp)
    7d51:	0f b7 45 fc          	movzwl -0x4(%rbp),%eax
    7d55:	66 0f af 45 f8       	imul   -0x8(%rbp),%ax
    7d5a:	5d                   	pop    %rbp
    7d5b:	c3                   	retq   

0000000000007d5c <safe_mod_func_uint16_t_u_u>:
    7d5c:	f3 0f 1e fa          	endbr64 
    7d60:	55                   	push   %rbp
    7d61:	48 89 e5             	mov    %rsp,%rbp
    7d64:	89 fa                	mov    %edi,%edx
    7d66:	89 f0                	mov    %esi,%eax
    7d68:	66 89 55 fc          	mov    %dx,-0x4(%rbp)
    7d6c:	66 89 45 f8          	mov    %ax,-0x8(%rbp)
    7d70:	66 83 7d f8 00       	cmpw   $0x0,-0x8(%rbp)
    7d75:	74 11                	je     7d88 <safe_mod_func_uint16_t_u_u+0x2c>
    7d77:	0f b7 45 fc          	movzwl -0x4(%rbp),%eax
    7d7b:	ba 00 00 00 00       	mov    $0x0,%edx
    7d80:	66 f7 75 f8          	divw   -0x8(%rbp)
    7d84:	89 d0                	mov    %edx,%eax
    7d86:	eb 04                	jmp    7d8c <safe_mod_func_uint16_t_u_u+0x30>
    7d88:	0f b7 45 fc          	movzwl -0x4(%rbp),%eax
    7d8c:	5d                   	pop    %rbp
    7d8d:	c3                   	retq   

0000000000007d8e <safe_div_func_uint16_t_u_u>:
    7d8e:	f3 0f 1e fa          	endbr64 
    7d92:	55                   	push   %rbp
    7d93:	48 89 e5             	mov    %rsp,%rbp
    7d96:	89 fa                	mov    %edi,%edx
    7d98:	89 f0                	mov    %esi,%eax
    7d9a:	66 89 55 fc          	mov    %dx,-0x4(%rbp)
    7d9e:	66 89 45 f8          	mov    %ax,-0x8(%rbp)
    7da2:	66 83 7d f8 00       	cmpw   $0x0,-0x8(%rbp)
    7da7:	74 0f                	je     7db8 <safe_div_func_uint16_t_u_u+0x2a>
    7da9:	0f b7 45 fc          	movzwl -0x4(%rbp),%eax
    7dad:	ba 00 00 00 00       	mov    $0x0,%edx
    7db2:	66 f7 75 f8          	divw   -0x8(%rbp)
    7db6:	eb 04                	jmp    7dbc <safe_div_func_uint16_t_u_u+0x2e>
    7db8:	0f b7 45 fc          	movzwl -0x4(%rbp),%eax
    7dbc:	5d                   	pop    %rbp
    7dbd:	c3                   	retq   

0000000000007dbe <safe_lshift_func_uint16_t_u_s>:
    7dbe:	f3 0f 1e fa          	endbr64 
    7dc2:	55                   	push   %rbp
    7dc3:	48 89 e5             	mov    %rsp,%rbp
    7dc6:	89 f8                	mov    %edi,%eax
    7dc8:	89 75 f8             	mov    %esi,-0x8(%rbp)
    7dcb:	66 89 45 fc          	mov    %ax,-0x4(%rbp)
    7dcf:	83 7d f8 00          	cmpl   $0x0,-0x8(%rbp)
    7dd3:	78 2b                	js     7e00 <safe_lshift_func_uint16_t_u_s+0x42>
    7dd5:	83 7d f8 1f          	cmpl   $0x1f,-0x8(%rbp)
    7dd9:	7f 25                	jg     7e00 <safe_lshift_func_uint16_t_u_s+0x42>
    7ddb:	0f b7 55 fc          	movzwl -0x4(%rbp),%edx
    7ddf:	8b 45 f8             	mov    -0x8(%rbp),%eax
    7de2:	be ff ff 00 00       	mov    $0xffff,%esi
    7de7:	89 c1                	mov    %eax,%ecx
    7de9:	d3 fe                	sar    %cl,%esi
    7deb:	89 f0                	mov    %esi,%eax
    7ded:	39 c2                	cmp    %eax,%edx
    7def:	7f 0f                	jg     7e00 <safe_lshift_func_uint16_t_u_s+0x42>
    7df1:	0f b7 55 fc          	movzwl -0x4(%rbp),%edx
    7df5:	8b 45 f8             	mov    -0x8(%rbp),%eax
    7df8:	89 c1                	mov    %eax,%ecx
    7dfa:	d3 e2                	shl    %cl,%edx
    7dfc:	89 d0                	mov    %edx,%eax
    7dfe:	eb 04                	jmp    7e04 <safe_lshift_func_uint16_t_u_s+0x46>
    7e00:	0f b7 45 fc          	movzwl -0x4(%rbp),%eax
    7e04:	5d                   	pop    %rbp
    7e05:	c3                   	retq   

0000000000007e06 <safe_lshift_func_uint16_t_u_u>:
    7e06:	f3 0f 1e fa          	endbr64 
    7e0a:	55                   	push   %rbp
    7e0b:	48 89 e5             	mov    %rsp,%rbp
    7e0e:	89 f8                	mov    %edi,%eax
    7e10:	89 75 f8             	mov    %esi,-0x8(%rbp)
    7e13:	66 89 45 fc          	mov    %ax,-0x4(%rbp)
    7e17:	83 7d f8 1f          	cmpl   $0x1f,-0x8(%rbp)
    7e1b:	77 25                	ja     7e42 <safe_lshift_func_uint16_t_u_u+0x3c>
    7e1d:	0f b7 55 fc          	movzwl -0x4(%rbp),%edx
    7e21:	8b 45 f8             	mov    -0x8(%rbp),%eax
    7e24:	be ff ff 00 00       	mov    $0xffff,%esi
    7e29:	89 c1                	mov    %eax,%ecx
    7e2b:	d3 fe                	sar    %cl,%esi
    7e2d:	89 f0                	mov    %esi,%eax
    7e2f:	39 c2                	cmp    %eax,%edx
    7e31:	7f 0f                	jg     7e42 <safe_lshift_func_uint16_t_u_u+0x3c>
    7e33:	0f b7 55 fc          	movzwl -0x4(%rbp),%edx
    7e37:	8b 45 f8             	mov    -0x8(%rbp),%eax
    7e3a:	89 c1                	mov    %eax,%ecx
    7e3c:	d3 e2                	shl    %cl,%edx
    7e3e:	89 d0                	mov    %edx,%eax
    7e40:	eb 04                	jmp    7e46 <safe_lshift_func_uint16_t_u_u+0x40>
    7e42:	0f b7 45 fc          	movzwl -0x4(%rbp),%eax
    7e46:	5d                   	pop    %rbp
    7e47:	c3                   	retq   

0000000000007e48 <safe_rshift_func_uint16_t_u_s>:
    7e48:	f3 0f 1e fa          	endbr64 
    7e4c:	55                   	push   %rbp
    7e4d:	48 89 e5             	mov    %rsp,%rbp
    7e50:	89 f8                	mov    %edi,%eax
    7e52:	89 75 f8             	mov    %esi,-0x8(%rbp)
    7e55:	66 89 45 fc          	mov    %ax,-0x4(%rbp)
    7e59:	83 7d f8 00          	cmpl   $0x0,-0x8(%rbp)
    7e5d:	78 15                	js     7e74 <safe_rshift_func_uint16_t_u_s+0x2c>
    7e5f:	83 7d f8 1f          	cmpl   $0x1f,-0x8(%rbp)
    7e63:	7f 0f                	jg     7e74 <safe_rshift_func_uint16_t_u_s+0x2c>
    7e65:	0f b7 55 fc          	movzwl -0x4(%rbp),%edx
    7e69:	8b 45 f8             	mov    -0x8(%rbp),%eax
    7e6c:	89 c1                	mov    %eax,%ecx
    7e6e:	d3 fa                	sar    %cl,%edx
    7e70:	89 d0                	mov    %edx,%eax
    7e72:	eb 04                	jmp    7e78 <safe_rshift_func_uint16_t_u_s+0x30>
    7e74:	0f b7 45 fc          	movzwl -0x4(%rbp),%eax
    7e78:	5d                   	pop    %rbp
    7e79:	c3                   	retq   

0000000000007e7a <safe_rshift_func_uint16_t_u_u>:
    7e7a:	f3 0f 1e fa          	endbr64 
    7e7e:	55                   	push   %rbp
    7e7f:	48 89 e5             	mov    %rsp,%rbp
    7e82:	89 f8                	mov    %edi,%eax
    7e84:	89 75 f8             	mov    %esi,-0x8(%rbp)
    7e87:	66 89 45 fc          	mov    %ax,-0x4(%rbp)
    7e8b:	83 7d f8 1f          	cmpl   $0x1f,-0x8(%rbp)
    7e8f:	77 0f                	ja     7ea0 <safe_rshift_func_uint16_t_u_u+0x26>
    7e91:	0f b7 55 fc          	movzwl -0x4(%rbp),%edx
    7e95:	8b 45 f8             	mov    -0x8(%rbp),%eax
    7e98:	89 c1                	mov    %eax,%ecx
    7e9a:	d3 fa                	sar    %cl,%edx
    7e9c:	89 d0                	mov    %edx,%eax
    7e9e:	eb 04                	jmp    7ea4 <safe_rshift_func_uint16_t_u_u+0x2a>
    7ea0:	0f b7 45 fc          	movzwl -0x4(%rbp),%eax
    7ea4:	5d                   	pop    %rbp
    7ea5:	c3                   	retq   

0000000000007ea6 <safe_unary_minus_func_uint32_t_u>:
    7ea6:	f3 0f 1e fa          	endbr64 
    7eaa:	55                   	push   %rbp
    7eab:	48 89 e5             	mov    %rsp,%rbp
    7eae:	89 7d fc             	mov    %edi,-0x4(%rbp)
    7eb1:	8b 45 fc             	mov    -0x4(%rbp),%eax
    7eb4:	f7 d8                	neg    %eax
    7eb6:	5d                   	pop    %rbp
    7eb7:	c3                   	retq   

0000000000007eb8 <safe_add_func_uint32_t_u_u>:
    7eb8:	f3 0f 1e fa          	endbr64 
    7ebc:	55                   	push   %rbp
    7ebd:	48 89 e5             	mov    %rsp,%rbp
    7ec0:	89 7d fc             	mov    %edi,-0x4(%rbp)
    7ec3:	89 75 f8             	mov    %esi,-0x8(%rbp)
    7ec6:	8b 55 fc             	mov    -0x4(%rbp),%edx
    7ec9:	8b 45 f8             	mov    -0x8(%rbp),%eax
    7ecc:	01 d0                	add    %edx,%eax
    7ece:	5d                   	pop    %rbp
    7ecf:	c3                   	retq   

0000000000007ed0 <safe_sub_func_uint32_t_u_u>:
    7ed0:	f3 0f 1e fa          	endbr64 
    7ed4:	55                   	push   %rbp
    7ed5:	48 89 e5             	mov    %rsp,%rbp
    7ed8:	89 7d fc             	mov    %edi,-0x4(%rbp)
    7edb:	89 75 f8             	mov    %esi,-0x8(%rbp)
    7ede:	8b 45 fc             	mov    -0x4(%rbp),%eax
    7ee1:	2b 45 f8             	sub    -0x8(%rbp),%eax
    7ee4:	5d                   	pop    %rbp
    7ee5:	c3                   	retq   

0000000000007ee6 <safe_mul_func_uint32_t_u_u>:
    7ee6:	f3 0f 1e fa          	endbr64 
    7eea:	55                   	push   %rbp
    7eeb:	48 89 e5             	mov    %rsp,%rbp
    7eee:	89 7d fc             	mov    %edi,-0x4(%rbp)
    7ef1:	89 75 f8             	mov    %esi,-0x8(%rbp)
    7ef4:	8b 45 fc             	mov    -0x4(%rbp),%eax
    7ef7:	0f af 45 f8          	imul   -0x8(%rbp),%eax
    7efb:	5d                   	pop    %rbp
    7efc:	c3                   	retq   

0000000000007efd <safe_mod_func_uint32_t_u_u>:
    7efd:	f3 0f 1e fa          	endbr64 
    7f01:	55                   	push   %rbp
    7f02:	48 89 e5             	mov    %rsp,%rbp
    7f05:	89 7d fc             	mov    %edi,-0x4(%rbp)
    7f08:	89 75 f8             	mov    %esi,-0x8(%rbp)
    7f0b:	83 7d f8 00          	cmpl   $0x0,-0x8(%rbp)
    7f0f:	74 0f                	je     7f20 <safe_mod_func_uint32_t_u_u+0x23>
    7f11:	8b 45 fc             	mov    -0x4(%rbp),%eax
    7f14:	ba 00 00 00 00       	mov    $0x0,%edx
    7f19:	f7 75 f8             	divl   -0x8(%rbp)
    7f1c:	89 d0                	mov    %edx,%eax
    7f1e:	eb 03                	jmp    7f23 <safe_mod_func_uint32_t_u_u+0x26>
    7f20:	8b 45 fc             	mov    -0x4(%rbp),%eax
    7f23:	5d                   	pop    %rbp
    7f24:	c3                   	retq   

0000000000007f25 <safe_div_func_uint32_t_u_u>:
    7f25:	f3 0f 1e fa          	endbr64 
    7f29:	55                   	push   %rbp
    7f2a:	48 89 e5             	mov    %rsp,%rbp
    7f2d:	89 7d fc             	mov    %edi,-0x4(%rbp)
    7f30:	89 75 f8             	mov    %esi,-0x8(%rbp)
    7f33:	83 7d f8 00          	cmpl   $0x0,-0x8(%rbp)
    7f37:	74 0d                	je     7f46 <safe_div_func_uint32_t_u_u+0x21>
    7f39:	8b 45 fc             	mov    -0x4(%rbp),%eax
    7f3c:	ba 00 00 00 00       	mov    $0x0,%edx
    7f41:	f7 75 f8             	divl   -0x8(%rbp)
    7f44:	eb 03                	jmp    7f49 <safe_div_func_uint32_t_u_u+0x24>
    7f46:	8b 45 fc             	mov    -0x4(%rbp),%eax
    7f49:	5d                   	pop    %rbp
    7f4a:	c3                   	retq   

0000000000007f4b <safe_lshift_func_uint32_t_u_s>:
    7f4b:	f3 0f 1e fa          	endbr64 
    7f4f:	55                   	push   %rbp
    7f50:	48 89 e5             	mov    %rsp,%rbp
    7f53:	89 7d fc             	mov    %edi,-0x4(%rbp)
    7f56:	89 75 f8             	mov    %esi,-0x8(%rbp)
    7f59:	83 7d f8 00          	cmpl   $0x0,-0x8(%rbp)
    7f5d:	78 27                	js     7f86 <safe_lshift_func_uint32_t_u_s+0x3b>
    7f5f:	83 7d f8 1f          	cmpl   $0x1f,-0x8(%rbp)
    7f63:	7f 21                	jg     7f86 <safe_lshift_func_uint32_t_u_s+0x3b>
    7f65:	8b 45 f8             	mov    -0x8(%rbp),%eax
    7f68:	ba ff ff ff ff       	mov    $0xffffffff,%edx
    7f6d:	89 c1                	mov    %eax,%ecx
    7f6f:	d3 ea                	shr    %cl,%edx
    7f71:	89 d0                	mov    %edx,%eax
    7f73:	39 45 fc             	cmp    %eax,-0x4(%rbp)
    7f76:	77 0e                	ja     7f86 <safe_lshift_func_uint32_t_u_s+0x3b>
    7f78:	8b 45 f8             	mov    -0x8(%rbp),%eax
    7f7b:	8b 55 fc             	mov    -0x4(%rbp),%edx
    7f7e:	89 c1                	mov    %eax,%ecx
    7f80:	d3 e2                	shl    %cl,%edx
    7f82:	89 d0                	mov    %edx,%eax
    7f84:	eb 03                	jmp    7f89 <safe_lshift_func_uint32_t_u_s+0x3e>
    7f86:	8b 45 fc             	mov    -0x4(%rbp),%eax
    7f89:	5d                   	pop    %rbp
    7f8a:	c3                   	retq   

0000000000007f8b <safe_lshift_func_uint32_t_u_u>:
    7f8b:	f3 0f 1e fa          	endbr64 
    7f8f:	55                   	push   %rbp
    7f90:	48 89 e5             	mov    %rsp,%rbp
    7f93:	89 7d fc             	mov    %edi,-0x4(%rbp)
    7f96:	89 75 f8             	mov    %esi,-0x8(%rbp)
    7f99:	83 7d f8 1f          	cmpl   $0x1f,-0x8(%rbp)
    7f9d:	77 21                	ja     7fc0 <safe_lshift_func_uint32_t_u_u+0x35>
    7f9f:	8b 45 f8             	mov    -0x8(%rbp),%eax
    7fa2:	ba ff ff ff ff       	mov    $0xffffffff,%edx
    7fa7:	89 c1                	mov    %eax,%ecx
    7fa9:	d3 ea                	shr    %cl,%edx
    7fab:	89 d0                	mov    %edx,%eax
    7fad:	39 45 fc             	cmp    %eax,-0x4(%rbp)
    7fb0:	77 0e                	ja     7fc0 <safe_lshift_func_uint32_t_u_u+0x35>
    7fb2:	8b 45 f8             	mov    -0x8(%rbp),%eax
    7fb5:	8b 55 fc             	mov    -0x4(%rbp),%edx
    7fb8:	89 c1                	mov    %eax,%ecx
    7fba:	d3 e2                	shl    %cl,%edx
    7fbc:	89 d0                	mov    %edx,%eax
    7fbe:	eb 03                	jmp    7fc3 <safe_lshift_func_uint32_t_u_u+0x38>
    7fc0:	8b 45 fc             	mov    -0x4(%rbp),%eax
    7fc3:	5d                   	pop    %rbp
    7fc4:	c3                   	retq   

0000000000007fc5 <safe_rshift_func_uint32_t_u_s>:
    7fc5:	f3 0f 1e fa          	endbr64 
    7fc9:	55                   	push   %rbp
    7fca:	48 89 e5             	mov    %rsp,%rbp
    7fcd:	89 7d fc             	mov    %edi,-0x4(%rbp)
    7fd0:	89 75 f8             	mov    %esi,-0x8(%rbp)
    7fd3:	83 7d f8 00          	cmpl   $0x0,-0x8(%rbp)
    7fd7:	78 14                	js     7fed <safe_rshift_func_uint32_t_u_s+0x28>
    7fd9:	83 7d f8 1f          	cmpl   $0x1f,-0x8(%rbp)
    7fdd:	7f 0e                	jg     7fed <safe_rshift_func_uint32_t_u_s+0x28>
    7fdf:	8b 45 f8             	mov    -0x8(%rbp),%eax
    7fe2:	8b 55 fc             	mov    -0x4(%rbp),%edx
    7fe5:	89 c1                	mov    %eax,%ecx
    7fe7:	d3 ea                	shr    %cl,%edx
    7fe9:	89 d0                	mov    %edx,%eax
    7feb:	eb 03                	jmp    7ff0 <safe_rshift_func_uint32_t_u_s+0x2b>
    7fed:	8b 45 fc             	mov    -0x4(%rbp),%eax
    7ff0:	5d                   	pop    %rbp
    7ff1:	c3                   	retq   

0000000000007ff2 <safe_rshift_func_uint32_t_u_u>:
    7ff2:	f3 0f 1e fa          	endbr64 
    7ff6:	55                   	push   %rbp
    7ff7:	48 89 e5             	mov    %rsp,%rbp
    7ffa:	89 7d fc             	mov    %edi,-0x4(%rbp)
    7ffd:	89 75 f8             	mov    %esi,-0x8(%rbp)
    8000:	83 7d f8 1f          	cmpl   $0x1f,-0x8(%rbp)
    8004:	77 0e                	ja     8014 <safe_rshift_func_uint32_t_u_u+0x22>
    8006:	8b 45 f8             	mov    -0x8(%rbp),%eax
    8009:	8b 55 fc             	mov    -0x4(%rbp),%edx
    800c:	89 c1                	mov    %eax,%ecx
    800e:	d3 ea                	shr    %cl,%edx
    8010:	89 d0                	mov    %edx,%eax
    8012:	eb 03                	jmp    8017 <safe_rshift_func_uint32_t_u_u+0x25>
    8014:	8b 45 fc             	mov    -0x4(%rbp),%eax
    8017:	5d                   	pop    %rbp
    8018:	c3                   	retq   

0000000000008019 <safe_unary_minus_func_uint64_t_u>:
    8019:	f3 0f 1e fa          	endbr64 
    801d:	55                   	push   %rbp
    801e:	48 89 e5             	mov    %rsp,%rbp
    8021:	48 89 7d f8          	mov    %rdi,-0x8(%rbp)
    8025:	48 8b 45 f8          	mov    -0x8(%rbp),%rax
    8029:	48 f7 d8             	neg    %rax
    802c:	5d                   	pop    %rbp
    802d:	c3                   	retq   

000000000000802e <safe_add_func_uint64_t_u_u>:
    802e:	f3 0f 1e fa          	endbr64 
    8032:	55                   	push   %rbp
    8033:	48 89 e5             	mov    %rsp,%rbp
    8036:	48 89 7d f8          	mov    %rdi,-0x8(%rbp)
    803a:	48 89 75 f0          	mov    %rsi,-0x10(%rbp)
    803e:	48 8b 55 f8          	mov    -0x8(%rbp),%rdx
    8042:	48 8b 45 f0          	mov    -0x10(%rbp),%rax
    8046:	48 01 d0             	add    %rdx,%rax
    8049:	5d                   	pop    %rbp
    804a:	c3                   	retq   

000000000000804b <safe_sub_func_uint64_t_u_u>:
    804b:	f3 0f 1e fa          	endbr64 
    804f:	55                   	push   %rbp
    8050:	48 89 e5             	mov    %rsp,%rbp
    8053:	48 89 7d f8          	mov    %rdi,-0x8(%rbp)
    8057:	48 89 75 f0          	mov    %rsi,-0x10(%rbp)
    805b:	48 8b 45 f8          	mov    -0x8(%rbp),%rax
    805f:	48 2b 45 f0          	sub    -0x10(%rbp),%rax
    8063:	5d                   	pop    %rbp
    8064:	c3                   	retq   

0000000000008065 <safe_mul_func_uint64_t_u_u>:
    8065:	f3 0f 1e fa          	endbr64 
    8069:	55                   	push   %rbp
    806a:	48 89 e5             	mov    %rsp,%rbp
    806d:	48 89 7d f8          	mov    %rdi,-0x8(%rbp)
    8071:	48 89 75 f0          	mov    %rsi,-0x10(%rbp)
    8075:	48 8b 45 f8          	mov    -0x8(%rbp),%rax
    8079:	48 0f af 45 f0       	imul   -0x10(%rbp),%rax
    807e:	5d                   	pop    %rbp
    807f:	c3                   	retq   

0000000000008080 <safe_mod_func_uint64_t_u_u>:
    8080:	f3 0f 1e fa          	endbr64 
    8084:	55                   	push   %rbp
    8085:	48 89 e5             	mov    %rsp,%rbp
    8088:	48 89 7d f8          	mov    %rdi,-0x8(%rbp)
    808c:	48 89 75 f0          	mov    %rsi,-0x10(%rbp)
    8090:	48 83 7d f0 00       	cmpq   $0x0,-0x10(%rbp)
    8095:	74 12                	je     80a9 <safe_mod_func_uint64_t_u_u+0x29>
    8097:	48 8b 45 f8          	mov    -0x8(%rbp),%rax
    809b:	ba 00 00 00 00       	mov    $0x0,%edx
    80a0:	48 f7 75 f0          	divq   -0x10(%rbp)
    80a4:	48 89 d0             	mov    %rdx,%rax
    80a7:	eb 04                	jmp    80ad <safe_mod_func_uint64_t_u_u+0x2d>
    80a9:	48 8b 45 f8          	mov    -0x8(%rbp),%rax
    80ad:	5d                   	pop    %rbp
    80ae:	c3                   	retq   

00000000000080af <safe_div_func_uint64_t_u_u>:
    80af:	f3 0f 1e fa          	endbr64 
    80b3:	55                   	push   %rbp
    80b4:	48 89 e5             	mov    %rsp,%rbp
    80b7:	48 89 7d f8          	mov    %rdi,-0x8(%rbp)
    80bb:	48 89 75 f0          	mov    %rsi,-0x10(%rbp)
    80bf:	48 83 7d f0 00       	cmpq   $0x0,-0x10(%rbp)
    80c4:	74 0f                	je     80d5 <safe_div_func_uint64_t_u_u+0x26>
    80c6:	48 8b 45 f8          	mov    -0x8(%rbp),%rax
    80ca:	ba 00 00 00 00       	mov    $0x0,%edx
    80cf:	48 f7 75 f0          	divq   -0x10(%rbp)
    80d3:	eb 04                	jmp    80d9 <safe_div_func_uint64_t_u_u+0x2a>
    80d5:	48 8b 45 f8          	mov    -0x8(%rbp),%rax
    80d9:	5d                   	pop    %rbp
    80da:	c3                   	retq   

00000000000080db <safe_lshift_func_uint64_t_u_s>:
    80db:	f3 0f 1e fa          	endbr64 
    80df:	55                   	push   %rbp
    80e0:	48 89 e5             	mov    %rsp,%rbp
    80e3:	48 89 7d f8          	mov    %rdi,-0x8(%rbp)
    80e7:	89 75 f4             	mov    %esi,-0xc(%rbp)
    80ea:	83 7d f4 00          	cmpl   $0x0,-0xc(%rbp)
    80ee:	78 2f                	js     811f <safe_lshift_func_uint64_t_u_s+0x44>
    80f0:	83 7d f4 1f          	cmpl   $0x1f,-0xc(%rbp)
    80f4:	7f 29                	jg     811f <safe_lshift_func_uint64_t_u_s+0x44>
    80f6:	8b 45 f4             	mov    -0xc(%rbp),%eax
    80f9:	48 c7 c2 ff ff ff ff 	mov    $0xffffffffffffffff,%rdx
    8100:	89 c1                	mov    %eax,%ecx
    8102:	48 d3 ea             	shr    %cl,%rdx
    8105:	48 89 d0             	mov    %rdx,%rax
    8108:	48 39 45 f8          	cmp    %rax,-0x8(%rbp)
    810c:	77 11                	ja     811f <safe_lshift_func_uint64_t_u_s+0x44>
    810e:	8b 45 f4             	mov    -0xc(%rbp),%eax
    8111:	48 8b 55 f8          	mov    -0x8(%rbp),%rdx
    8115:	89 c1                	mov    %eax,%ecx
    8117:	48 d3 e2             	shl    %cl,%rdx
    811a:	48 89 d0             	mov    %rdx,%rax
    811d:	eb 04                	jmp    8123 <safe_lshift_func_uint64_t_u_s+0x48>
    811f:	48 8b 45 f8          	mov    -0x8(%rbp),%rax
    8123:	5d                   	pop    %rbp
    8124:	c3                   	retq   

0000000000008125 <safe_lshift_func_uint64_t_u_u>:
    8125:	f3 0f 1e fa          	endbr64 
    8129:	55                   	push   %rbp
    812a:	48 89 e5             	mov    %rsp,%rbp
    812d:	48 89 7d f8          	mov    %rdi,-0x8(%rbp)
    8131:	89 75 f4             	mov    %esi,-0xc(%rbp)
    8134:	83 7d f4 1f          	cmpl   $0x1f,-0xc(%rbp)
    8138:	77 29                	ja     8163 <safe_lshift_func_uint64_t_u_u+0x3e>
    813a:	8b 45 f4             	mov    -0xc(%rbp),%eax
    813d:	48 c7 c2 ff ff ff ff 	mov    $0xffffffffffffffff,%rdx
    8144:	89 c1                	mov    %eax,%ecx
    8146:	48 d3 ea             	shr    %cl,%rdx
    8149:	48 89 d0             	mov    %rdx,%rax
    814c:	48 39 45 f8          	cmp    %rax,-0x8(%rbp)
    8150:	77 11                	ja     8163 <safe_lshift_func_uint64_t_u_u+0x3e>
    8152:	8b 45 f4             	mov    -0xc(%rbp),%eax
    8155:	48 8b 55 f8          	mov    -0x8(%rbp),%rdx
    8159:	89 c1                	mov    %eax,%ecx
    815b:	48 d3 e2             	shl    %cl,%rdx
    815e:	48 89 d0             	mov    %rdx,%rax
    8161:	eb 04                	jmp    8167 <safe_lshift_func_uint64_t_u_u+0x42>
    8163:	48 8b 45 f8          	mov    -0x8(%rbp),%rax
    8167:	5d                   	pop    %rbp
    8168:	c3                   	retq   

0000000000008169 <safe_rshift_func_uint64_t_u_s>:
    8169:	f3 0f 1e fa          	endbr64 
    816d:	55                   	push   %rbp
    816e:	48 89 e5             	mov    %rsp,%rbp
    8171:	48 89 7d f8          	mov    %rdi,-0x8(%rbp)
    8175:	89 75 f4             	mov    %esi,-0xc(%rbp)
    8178:	83 7d f4 00          	cmpl   $0x0,-0xc(%rbp)
    817c:	78 17                	js     8195 <safe_rshift_func_uint64_t_u_s+0x2c>
    817e:	83 7d f4 1f          	cmpl   $0x1f,-0xc(%rbp)
    8182:	7f 11                	jg     8195 <safe_rshift_func_uint64_t_u_s+0x2c>
    8184:	8b 45 f4             	mov    -0xc(%rbp),%eax
    8187:	48 8b 55 f8          	mov    -0x8(%rbp),%rdx
    818b:	89 c1                	mov    %eax,%ecx
    818d:	48 d3 ea             	shr    %cl,%rdx
    8190:	48 89 d0             	mov    %rdx,%rax
    8193:	eb 04                	jmp    8199 <safe_rshift_func_uint64_t_u_s+0x30>
    8195:	48 8b 45 f8          	mov    -0x8(%rbp),%rax
    8199:	5d                   	pop    %rbp
    819a:	c3                   	retq   

000000000000819b <safe_rshift_func_uint64_t_u_u>:
    819b:	f3 0f 1e fa          	endbr64 
    819f:	55                   	push   %rbp
    81a0:	48 89 e5             	mov    %rsp,%rbp
    81a3:	48 89 7d f8          	mov    %rdi,-0x8(%rbp)
    81a7:	89 75 f4             	mov    %esi,-0xc(%rbp)
    81aa:	83 7d f4 1f          	cmpl   $0x1f,-0xc(%rbp)
    81ae:	77 11                	ja     81c1 <safe_rshift_func_uint64_t_u_u+0x26>
    81b0:	8b 45 f4             	mov    -0xc(%rbp),%eax
    81b3:	48 8b 55 f8          	mov    -0x8(%rbp),%rdx
    81b7:	89 c1                	mov    %eax,%ecx
    81b9:	48 d3 ea             	shr    %cl,%rdx
    81bc:	48 89 d0             	mov    %rdx,%rax
    81bf:	eb 04                	jmp    81c5 <safe_rshift_func_uint64_t_u_u+0x2a>
    81c1:	48 8b 45 f8          	mov    -0x8(%rbp),%rax
    81c5:	5d                   	pop    %rbp
    81c6:	c3                   	retq   

00000000000081c7 <safe_add_func_float_f_f>:
    81c7:	f3 0f 1e fa          	endbr64 
    81cb:	55                   	push   %rbp
    81cc:	48 89 e5             	mov    %rsp,%rbp
    81cf:	f3 0f 11 45 fc       	movss  %xmm0,-0x4(%rbp)
    81d4:	f3 0f 11 4d f8       	movss  %xmm1,-0x8(%rbp)
    81d9:	f3 0f 10 4d fc       	movss  -0x4(%rbp),%xmm1
    81de:	f3 0f 10 05 5e e0 00 	movss  0xe05e(%rip),%xmm0        # 16244 <l_874.4727+0x24>
    81e5:	00 
    81e6:	f3 0f 59 c8          	mulss  %xmm0,%xmm1
    81ea:	f3 0f 10 55 f8       	movss  -0x8(%rbp),%xmm2
    81ef:	f3 0f 10 05 4d e0 00 	movss  0xe04d(%rip),%xmm0        # 16244 <l_874.4727+0x24>
    81f6:	00 
    81f7:	f3 0f 59 c2          	mulss  %xmm2,%xmm0
    81fb:	f3 0f 58 c1          	addss  %xmm1,%xmm0
    81ff:	f3 0f 10 0d 49 e0 00 	movss  0xe049(%rip),%xmm1        # 16250 <l_874.4727+0x30>
    8206:	00 
    8207:	0f 54 c1             	andps  %xmm1,%xmm0
    820a:	0f 2f 05 4f e0 00 00 	comiss 0xe04f(%rip),%xmm0        # 16260 <l_874.4727+0x40>
    8211:	76 07                	jbe    821a <safe_add_func_float_f_f+0x53>
    8213:	f3 0f 10 45 fc       	movss  -0x4(%rbp),%xmm0
    8218:	eb 0a                	jmp    8224 <safe_add_func_float_f_f+0x5d>
    821a:	f3 0f 10 45 fc       	movss  -0x4(%rbp),%xmm0
    821f:	f3 0f 58 45 f8       	addss  -0x8(%rbp),%xmm0
    8224:	5d                   	pop    %rbp
    8225:	c3                   	retq   

0000000000008226 <safe_sub_func_float_f_f>:
    8226:	f3 0f 1e fa          	endbr64 
    822a:	55                   	push   %rbp
    822b:	48 89 e5             	mov    %rsp,%rbp
    822e:	f3 0f 11 45 fc       	movss  %xmm0,-0x4(%rbp)
    8233:	f3 0f 11 4d f8       	movss  %xmm1,-0x8(%rbp)
    8238:	f3 0f 10 4d fc       	movss  -0x4(%rbp),%xmm1
    823d:	f3 0f 10 05 ff df 00 	movss  0xdfff(%rip),%xmm0        # 16244 <l_874.4727+0x24>
    8244:	00 
    8245:	f3 0f 59 c1          	mulss  %xmm1,%xmm0
    8249:	f3 0f 10 55 f8       	movss  -0x8(%rbp),%xmm2
    824e:	f3 0f 10 0d ee df 00 	movss  0xdfee(%rip),%xmm1        # 16244 <l_874.4727+0x24>
    8255:	00 
    8256:	f3 0f 59 ca          	mulss  %xmm2,%xmm1
    825a:	f3 0f 5c c1          	subss  %xmm1,%xmm0
    825e:	f3 0f 10 0d ea df 00 	movss  0xdfea(%rip),%xmm1        # 16250 <l_874.4727+0x30>
    8265:	00 
    8266:	0f 54 c1             	andps  %xmm1,%xmm0
    8269:	0f 2f 05 f0 df 00 00 	comiss 0xdff0(%rip),%xmm0        # 16260 <l_874.4727+0x40>
    8270:	76 07                	jbe    8279 <safe_sub_func_float_f_f+0x53>
    8272:	f3 0f 10 45 fc       	movss  -0x4(%rbp),%xmm0
    8277:	eb 0a                	jmp    8283 <safe_sub_func_float_f_f+0x5d>
    8279:	f3 0f 10 45 fc       	movss  -0x4(%rbp),%xmm0
    827e:	f3 0f 5c 45 f8       	subss  -0x8(%rbp),%xmm0
    8283:	5d                   	pop    %rbp
    8284:	c3                   	retq   

0000000000008285 <safe_mul_func_float_f_f>:
    8285:	f3 0f 1e fa          	endbr64 
    8289:	55                   	push   %rbp
    828a:	48 89 e5             	mov    %rsp,%rbp
    828d:	f3 0f 11 45 fc       	movss  %xmm0,-0x4(%rbp)
    8292:	f3 0f 11 4d f8       	movss  %xmm1,-0x8(%rbp)
    8297:	f3 0f 10 4d fc       	movss  -0x4(%rbp),%xmm1
    829c:	f3 0f 10 05 c0 df 00 	movss  0xdfc0(%rip),%xmm0        # 16264 <l_874.4727+0x44>
    82a3:	00 
    82a4:	f3 0f 59 c8          	mulss  %xmm0,%xmm1
    82a8:	f3 0f 10 55 f8       	movss  -0x8(%rbp),%xmm2
    82ad:	f3 0f 10 05 b3 df 00 	movss  0xdfb3(%rip),%xmm0        # 16268 <l_874.4727+0x48>
    82b4:	00 
    82b5:	f3 0f 59 c2          	mulss  %xmm2,%xmm0
    82b9:	f3 0f 59 c1          	mulss  %xmm1,%xmm0
    82bd:	f3 0f 10 0d 8b df 00 	movss  0xdf8b(%rip),%xmm1        # 16250 <l_874.4727+0x30>
    82c4:	00 
    82c5:	0f 54 c1             	andps  %xmm1,%xmm0
    82c8:	0f 2f 05 9d df 00 00 	comiss 0xdf9d(%rip),%xmm0        # 1626c <l_874.4727+0x4c>
    82cf:	76 07                	jbe    82d8 <safe_mul_func_float_f_f+0x53>
    82d1:	f3 0f 10 45 fc       	movss  -0x4(%rbp),%xmm0
    82d6:	eb 0a                	jmp    82e2 <safe_mul_func_float_f_f+0x5d>
    82d8:	f3 0f 10 45 fc       	movss  -0x4(%rbp),%xmm0
    82dd:	f3 0f 59 45 f8       	mulss  -0x8(%rbp),%xmm0
    82e2:	5d                   	pop    %rbp
    82e3:	c3                   	retq   

00000000000082e4 <safe_div_func_float_f_f>:
    82e4:	f3 0f 1e fa          	endbr64 
    82e8:	55                   	push   %rbp
    82e9:	48 89 e5             	mov    %rsp,%rbp
    82ec:	f3 0f 11 45 fc       	movss  %xmm0,-0x4(%rbp)
    82f1:	f3 0f 11 4d f8       	movss  %xmm1,-0x8(%rbp)
    82f6:	f3 0f 10 45 f8       	movss  -0x8(%rbp),%xmm0
    82fb:	f3 0f 10 0d 4d df 00 	movss  0xdf4d(%rip),%xmm1        # 16250 <l_874.4727+0x30>
    8302:	00 
    8303:	0f 54 c8             	andps  %xmm0,%xmm1
    8306:	f3 0f 10 05 62 df 00 	movss  0xdf62(%rip),%xmm0        # 16270 <l_874.4727+0x50>
    830d:	00 
    830e:	0f 2f c1             	comiss %xmm1,%xmm0
    8311:	0f 97 c0             	seta   %al
    8314:	83 f0 01             	xor    $0x1,%eax
    8317:	84 c0                	test   %al,%al
    8319:	75 56                	jne    8371 <safe_div_func_float_f_f+0x8d>
    831b:	66 0f ef c0          	pxor   %xmm0,%xmm0
    831f:	0f 2e 45 f8          	ucomiss -0x8(%rbp),%xmm0
    8323:	7a 0a                	jp     832f <safe_div_func_float_f_f+0x4b>
    8325:	66 0f ef c0          	pxor   %xmm0,%xmm0
    8329:	0f 2e 45 f8          	ucomiss -0x8(%rbp),%xmm0
    832d:	74 4e                	je     837d <safe_div_func_float_f_f+0x99>
    832f:	f3 0f 10 4d fc       	movss  -0x4(%rbp),%xmm1
    8334:	f3 0f 10 05 38 df 00 	movss  0xdf38(%rip),%xmm0        # 16274 <l_874.4727+0x54>
    833b:	00 
    833c:	f3 0f 59 c1          	mulss  %xmm1,%xmm0
    8340:	f3 0f 10 55 f8       	movss  -0x8(%rbp),%xmm2
    8345:	f3 0f 10 0d 2b df 00 	movss  0xdf2b(%rip),%xmm1        # 16278 <l_874.4727+0x58>
    834c:	00 
    834d:	f3 0f 59 ca          	mulss  %xmm2,%xmm1
    8351:	f3 0f 5e c1          	divss  %xmm1,%xmm0
    8355:	f3 0f 10 0d f3 de 00 	movss  0xdef3(%rip),%xmm1        # 16250 <l_874.4727+0x30>
    835c:	00 
    835d:	0f 54 c1             	andps  %xmm1,%xmm0
    8360:	0f 2f 05 15 df 00 00 	comiss 0xdf15(%rip),%xmm0        # 1627c <l_874.4727+0x5c>
    8367:	0f 97 c0             	seta   %al
    836a:	83 f0 01             	xor    $0x1,%eax
    836d:	84 c0                	test   %al,%al
    836f:	74 0c                	je     837d <safe_div_func_float_f_f+0x99>
    8371:	f3 0f 10 45 fc       	movss  -0x4(%rbp),%xmm0
    8376:	f3 0f 5e 45 f8       	divss  -0x8(%rbp),%xmm0
    837b:	eb 05                	jmp    8382 <safe_div_func_float_f_f+0x9e>
    837d:	f3 0f 10 45 fc       	movss  -0x4(%rbp),%xmm0
    8382:	5d                   	pop    %rbp
    8383:	c3                   	retq   

0000000000008384 <safe_add_func_double_f_f>:
    8384:	f3 0f 1e fa          	endbr64 
    8388:	55                   	push   %rbp
    8389:	48 89 e5             	mov    %rsp,%rbp
    838c:	f2 0f 11 45 f8       	movsd  %xmm0,-0x8(%rbp)
    8391:	f2 0f 11 4d f0       	movsd  %xmm1,-0x10(%rbp)
    8396:	f2 0f 10 4d f8       	movsd  -0x8(%rbp),%xmm1
    839b:	f2 0f 10 05 dd de 00 	movsd  0xdedd(%rip),%xmm0        # 16280 <l_874.4727+0x60>
    83a2:	00 
    83a3:	f2 0f 59 c8          	mulsd  %xmm0,%xmm1
    83a7:	f2 0f 10 55 f0       	movsd  -0x10(%rbp),%xmm2
    83ac:	f2 0f 10 05 cc de 00 	movsd  0xdecc(%rip),%xmm0        # 16280 <l_874.4727+0x60>
    83b3:	00 
    83b4:	f2 0f 59 c2          	mulsd  %xmm2,%xmm0
    83b8:	f2 0f 58 c1          	addsd  %xmm1,%xmm0
    83bc:	f3 0f 7e 0d cc de 00 	movq   0xdecc(%rip),%xmm1        # 16290 <l_874.4727+0x70>
    83c3:	00 
    83c4:	66 0f 54 c1          	andpd  %xmm1,%xmm0
    83c8:	66 0f 2f 05 d0 de 00 	comisd 0xded0(%rip),%xmm0        # 162a0 <l_874.4727+0x80>
    83cf:	00 
    83d0:	76 07                	jbe    83d9 <safe_add_func_double_f_f+0x55>
    83d2:	f2 0f 10 45 f8       	movsd  -0x8(%rbp),%xmm0
    83d7:	eb 0a                	jmp    83e3 <safe_add_func_double_f_f+0x5f>
    83d9:	f2 0f 10 45 f8       	movsd  -0x8(%rbp),%xmm0
    83de:	f2 0f 58 45 f0       	addsd  -0x10(%rbp),%xmm0
    83e3:	5d                   	pop    %rbp
    83e4:	c3                   	retq   

00000000000083e5 <safe_sub_func_double_f_f>:
    83e5:	f3 0f 1e fa          	endbr64 
    83e9:	55                   	push   %rbp
    83ea:	48 89 e5             	mov    %rsp,%rbp
    83ed:	f2 0f 11 45 f8       	movsd  %xmm0,-0x8(%rbp)
    83f2:	f2 0f 11 4d f0       	movsd  %xmm1,-0x10(%rbp)
    83f7:	f2 0f 10 4d f8       	movsd  -0x8(%rbp),%xmm1
    83fc:	f2 0f 10 05 7c de 00 	movsd  0xde7c(%rip),%xmm0        # 16280 <l_874.4727+0x60>
    8403:	00 
    8404:	f2 0f 59 c1          	mulsd  %xmm1,%xmm0
    8408:	f2 0f 10 55 f0       	movsd  -0x10(%rbp),%xmm2
    840d:	f2 0f 10 0d 6b de 00 	movsd  0xde6b(%rip),%xmm1        # 16280 <l_874.4727+0x60>
    8414:	00 
    8415:	f2 0f 59 ca          	mulsd  %xmm2,%xmm1
    8419:	f2 0f 5c c1          	subsd  %xmm1,%xmm0
    841d:	f3 0f 7e 0d 6b de 00 	movq   0xde6b(%rip),%xmm1        # 16290 <l_874.4727+0x70>
    8424:	00 
    8425:	66 0f 54 c1          	andpd  %xmm1,%xmm0
    8429:	66 0f 2f 05 6f de 00 	comisd 0xde6f(%rip),%xmm0        # 162a0 <l_874.4727+0x80>
    8430:	00 
    8431:	76 07                	jbe    843a <safe_sub_func_double_f_f+0x55>
    8433:	f2 0f 10 45 f8       	movsd  -0x8(%rbp),%xmm0
    8438:	eb 0a                	jmp    8444 <safe_sub_func_double_f_f+0x5f>
    843a:	f2 0f 10 45 f8       	movsd  -0x8(%rbp),%xmm0
    843f:	f2 0f 5c 45 f0       	subsd  -0x10(%rbp),%xmm0
    8444:	5d                   	pop    %rbp
    8445:	c3                   	retq   

0000000000008446 <safe_mul_func_double_f_f>:
    8446:	f3 0f 1e fa          	endbr64 
    844a:	55                   	push   %rbp
    844b:	48 89 e5             	mov    %rsp,%rbp
    844e:	f2 0f 11 45 f8       	movsd  %xmm0,-0x8(%rbp)
    8453:	f2 0f 11 4d f0       	movsd  %xmm1,-0x10(%rbp)
    8458:	f2 0f 10 4d f8       	movsd  -0x8(%rbp),%xmm1
    845d:	f2 0f 10 05 43 de 00 	movsd  0xde43(%rip),%xmm0        # 162a8 <l_874.4727+0x88>
    8464:	00 
    8465:	f2 0f 59 c8          	mulsd  %xmm0,%xmm1
    8469:	f2 0f 10 55 f0       	movsd  -0x10(%rbp),%xmm2
    846e:	f2 0f 10 05 3a de 00 	movsd  0xde3a(%rip),%xmm0        # 162b0 <l_874.4727+0x90>
    8475:	00 
    8476:	f2 0f 59 c2          	mulsd  %xmm2,%xmm0
    847a:	f2 0f 59 c1          	mulsd  %xmm1,%xmm0
    847e:	f3 0f 7e 0d 0a de 00 	movq   0xde0a(%rip),%xmm1        # 16290 <l_874.4727+0x70>
    8485:	00 
    8486:	66 0f 54 c1          	andpd  %xmm1,%xmm0
    848a:	66 0f 2f 05 26 de 00 	comisd 0xde26(%rip),%xmm0        # 162b8 <l_874.4727+0x98>
    8491:	00 
    8492:	76 07                	jbe    849b <safe_mul_func_double_f_f+0x55>
    8494:	f2 0f 10 45 f8       	movsd  -0x8(%rbp),%xmm0
    8499:	eb 0a                	jmp    84a5 <safe_mul_func_double_f_f+0x5f>
    849b:	f2 0f 10 45 f8       	movsd  -0x8(%rbp),%xmm0
    84a0:	f2 0f 59 45 f0       	mulsd  -0x10(%rbp),%xmm0
    84a5:	5d                   	pop    %rbp
    84a6:	c3                   	retq   

00000000000084a7 <safe_div_func_double_f_f>:
    84a7:	f3 0f 1e fa          	endbr64 
    84ab:	55                   	push   %rbp
    84ac:	48 89 e5             	mov    %rsp,%rbp
    84af:	f2 0f 11 45 f8       	movsd  %xmm0,-0x8(%rbp)
    84b4:	f2 0f 11 4d f0       	movsd  %xmm1,-0x10(%rbp)
    84b9:	f2 0f 10 45 f0       	movsd  -0x10(%rbp),%xmm0
    84be:	f3 0f 7e 0d ca dd 00 	movq   0xddca(%rip),%xmm1        # 16290 <l_874.4727+0x70>
    84c5:	00 
    84c6:	66 0f 54 c8          	andpd  %xmm0,%xmm1
    84ca:	f2 0f 10 05 ee dd 00 	movsd  0xddee(%rip),%xmm0        # 162c0 <l_874.4727+0xa0>
    84d1:	00 
    84d2:	66 0f 2f c1          	comisd %xmm1,%xmm0
    84d6:	0f 97 c0             	seta   %al
    84d9:	83 f0 01             	xor    $0x1,%eax
    84dc:	84 c0                	test   %al,%al
    84de:	75 5a                	jne    853a <safe_div_func_double_f_f+0x93>
    84e0:	66 0f ef c0          	pxor   %xmm0,%xmm0
    84e4:	66 0f 2e 45 f0       	ucomisd -0x10(%rbp),%xmm0
    84e9:	7a 0b                	jp     84f6 <safe_div_func_double_f_f+0x4f>
    84eb:	66 0f ef c0          	pxor   %xmm0,%xmm0
    84ef:	66 0f 2e 45 f0       	ucomisd -0x10(%rbp),%xmm0
    84f4:	74 50                	je     8546 <safe_div_func_double_f_f+0x9f>
    84f6:	f2 0f 10 4d f8       	movsd  -0x8(%rbp),%xmm1
    84fb:	f2 0f 10 05 c5 dd 00 	movsd  0xddc5(%rip),%xmm0        # 162c8 <l_874.4727+0xa8>
    8502:	00 
    8503:	f2 0f 59 c1          	mulsd  %xmm1,%xmm0
    8507:	f2 0f 10 55 f0       	movsd  -0x10(%rbp),%xmm2
    850c:	f2 0f 10 0d bc dd 00 	movsd  0xddbc(%rip),%xmm1        # 162d0 <l_874.4727+0xb0>
    8513:	00 
    8514:	f2 0f 59 ca          	mulsd  %xmm2,%xmm1
    8518:	f2 0f 5e c1          	divsd  %xmm1,%xmm0
    851c:	f3 0f 7e 0d 6c dd 00 	movq   0xdd6c(%rip),%xmm1        # 16290 <l_874.4727+0x70>
    8523:	00 
    8524:	66 0f 54 c1          	andpd  %xmm1,%xmm0
    8528:	66 0f 2f 05 a8 dd 00 	comisd 0xdda8(%rip),%xmm0        # 162d8 <l_874.4727+0xb8>
    852f:	00 
    8530:	0f 97 c0             	seta   %al
    8533:	83 f0 01             	xor    $0x1,%eax
    8536:	84 c0                	test   %al,%al
    8538:	74 0c                	je     8546 <safe_div_func_double_f_f+0x9f>
    853a:	f2 0f 10 45 f8       	movsd  -0x8(%rbp),%xmm0
    853f:	f2 0f 5e 45 f0       	divsd  -0x10(%rbp),%xmm0
    8544:	eb 05                	jmp    854b <safe_div_func_double_f_f+0xa4>
    8546:	f2 0f 10 45 f8       	movsd  -0x8(%rbp),%xmm0
    854b:	5d                   	pop    %rbp
    854c:	c3                   	retq   

000000000000854d <safe_convert_func_float_to_int32_t>:
    854d:	f3 0f 1e fa          	endbr64 
    8551:	55                   	push   %rbp
    8552:	48 89 e5             	mov    %rsp,%rbp
    8555:	f3 0f 11 45 fc       	movss  %xmm0,-0x4(%rbp)
    855a:	f3 0f 10 05 7e dd 00 	movss  0xdd7e(%rip),%xmm0        # 162e0 <l_874.4727+0xc0>
    8561:	00 
    8562:	0f 2f 45 fc          	comiss -0x4(%rbp),%xmm0
    8566:	0f 93 c0             	setae  %al
    8569:	83 f0 01             	xor    $0x1,%eax
    856c:	84 c0                	test   %al,%al
    856e:	74 21                	je     8591 <safe_convert_func_float_to_int32_t+0x44>
    8570:	f3 0f 10 45 fc       	movss  -0x4(%rbp),%xmm0
    8575:	0f 2f 05 68 dd 00 00 	comiss 0xdd68(%rip),%xmm0        # 162e4 <l_874.4727+0xc4>
    857c:	0f 93 c0             	setae  %al
    857f:	83 f0 01             	xor    $0x1,%eax
    8582:	84 c0                	test   %al,%al
    8584:	74 0b                	je     8591 <safe_convert_func_float_to_int32_t+0x44>
    8586:	f3 0f 10 45 fc       	movss  -0x4(%rbp),%xmm0
    858b:	f3 0f 2c c0          	cvttss2si %xmm0,%eax
    858f:	eb 05                	jmp    8596 <safe_convert_func_float_to_int32_t+0x49>
    8591:	b8 ff ff ff 7f       	mov    $0x7fffffff,%eax
    8596:	5d                   	pop    %rbp
    8597:	c3                   	retq   

0000000000008598 <crc32_gentab>:
    8598:	f3 0f 1e fa          	endbr64 
    859c:	55                   	push   %rbp
    859d:	48 89 e5             	mov    %rsp,%rbp
    85a0:	c7 45 fc 20 83 b8 ed 	movl   $0xedb88320,-0x4(%rbp)
    85a7:	c7 45 f4 00 00 00 00 	movl   $0x0,-0xc(%rbp)
    85ae:	eb 51                	jmp    8601 <crc32_gentab+0x69>
    85b0:	8b 45 f4             	mov    -0xc(%rbp),%eax
    85b3:	89 45 f0             	mov    %eax,-0x10(%rbp)
    85b6:	c7 45 f8 08 00 00 00 	movl   $0x8,-0x8(%rbp)
    85bd:	eb 1e                	jmp    85dd <crc32_gentab+0x45>
    85bf:	8b 45 f0             	mov    -0x10(%rbp),%eax
    85c2:	83 e0 01             	and    $0x1,%eax
    85c5:	85 c0                	test   %eax,%eax
    85c7:	74 0d                	je     85d6 <crc32_gentab+0x3e>
    85c9:	8b 45 f0             	mov    -0x10(%rbp),%eax
    85cc:	d1 e8                	shr    %eax
    85ce:	33 45 fc             	xor    -0x4(%rbp),%eax
    85d1:	89 45 f0             	mov    %eax,-0x10(%rbp)
    85d4:	eb 03                	jmp    85d9 <crc32_gentab+0x41>
    85d6:	d1 6d f0             	shrl   -0x10(%rbp)
    85d9:	83 6d f8 01          	subl   $0x1,-0x8(%rbp)
    85dd:	83 7d f8 00          	cmpl   $0x0,-0x8(%rbp)
    85e1:	7f dc                	jg     85bf <crc32_gentab+0x27>
    85e3:	8b 45 f4             	mov    -0xc(%rbp),%eax
    85e6:	48 98                	cltq   
    85e8:	48 8d 0c 85 00 00 00 	lea    0x0(,%rax,4),%rcx
    85ef:	00 
    85f0:	48 8d 15 09 43 01 00 	lea    0x14309(%rip),%rdx        # 1c900 <crc32_tab>
    85f7:	8b 45 f0             	mov    -0x10(%rbp),%eax
    85fa:	89 04 11             	mov    %eax,(%rcx,%rdx,1)
    85fd:	83 45 f4 01          	addl   $0x1,-0xc(%rbp)
    8601:	81 7d f4 ff 00 00 00 	cmpl   $0xff,-0xc(%rbp)
    8608:	7e a6                	jle    85b0 <crc32_gentab+0x18>
    860a:	90                   	nop
    860b:	90                   	nop
    860c:	5d                   	pop    %rbp
    860d:	c3                   	retq   

000000000000860e <crc32_byte>:
    860e:	f3 0f 1e fa          	endbr64 
    8612:	55                   	push   %rbp
    8613:	48 89 e5             	mov    %rsp,%rbp
    8616:	89 f8                	mov    %edi,%eax
    8618:	88 45 fc             	mov    %al,-0x4(%rbp)
    861b:	8b 05 ff 09 01 00    	mov    0x109ff(%rip),%eax        # 19020 <crc32_context>
    8621:	c1 e8 08             	shr    $0x8,%eax
    8624:	89 c1                	mov    %eax,%ecx
    8626:	0f b6 55 fc          	movzbl -0x4(%rbp),%edx
    862a:	8b 05 f0 09 01 00    	mov    0x109f0(%rip),%eax        # 19020 <crc32_context>
    8630:	31 d0                	xor    %edx,%eax
    8632:	0f b6 c0             	movzbl %al,%eax
    8635:	89 c0                	mov    %eax,%eax
    8637:	48 8d 14 85 00 00 00 	lea    0x0(,%rax,4),%rdx
    863e:	00 
    863f:	48 8d 05 ba 42 01 00 	lea    0x142ba(%rip),%rax        # 1c900 <crc32_tab>
    8646:	8b 04 02             	mov    (%rdx,%rax,1),%eax
    8649:	31 c8                	xor    %ecx,%eax
    864b:	89 05 cf 09 01 00    	mov    %eax,0x109cf(%rip)        # 19020 <crc32_context>
    8651:	90                   	nop
    8652:	5d                   	pop    %rbp
    8653:	c3                   	retq   

0000000000008654 <crc32_8bytes>:
    8654:	f3 0f 1e fa          	endbr64 
    8658:	55                   	push   %rbp
    8659:	48 89 e5             	mov    %rsp,%rbp
    865c:	48 83 ec 08          	sub    $0x8,%rsp
    8660:	48 89 7d f8          	mov    %rdi,-0x8(%rbp)
    8664:	48 8b 45 f8          	mov    -0x8(%rbp),%rax
    8668:	0f b6 c0             	movzbl %al,%eax
    866b:	89 c7                	mov    %eax,%edi
    866d:	e8 9c ff ff ff       	callq  860e <crc32_byte>
    8672:	48 8b 45 f8          	mov    -0x8(%rbp),%rax
    8676:	48 c1 e8 08          	shr    $0x8,%rax
    867a:	0f b6 c0             	movzbl %al,%eax
    867d:	89 c7                	mov    %eax,%edi
    867f:	e8 8a ff ff ff       	callq  860e <crc32_byte>
    8684:	48 8b 45 f8          	mov    -0x8(%rbp),%rax
    8688:	48 c1 e8 10          	shr    $0x10,%rax
    868c:	0f b6 c0             	movzbl %al,%eax
    868f:	89 c7                	mov    %eax,%edi
    8691:	e8 78 ff ff ff       	callq  860e <crc32_byte>
    8696:	48 8b 45 f8          	mov    -0x8(%rbp),%rax
    869a:	48 c1 e8 18          	shr    $0x18,%rax
    869e:	0f b6 c0             	movzbl %al,%eax
    86a1:	89 c7                	mov    %eax,%edi
    86a3:	e8 66 ff ff ff       	callq  860e <crc32_byte>
    86a8:	48 8b 45 f8          	mov    -0x8(%rbp),%rax
    86ac:	48 c1 e8 20          	shr    $0x20,%rax
    86b0:	0f b6 c0             	movzbl %al,%eax
    86b3:	89 c7                	mov    %eax,%edi
    86b5:	e8 54 ff ff ff       	callq  860e <crc32_byte>
    86ba:	48 8b 45 f8          	mov    -0x8(%rbp),%rax
    86be:	48 c1 e8 28          	shr    $0x28,%rax
    86c2:	0f b6 c0             	movzbl %al,%eax
    86c5:	89 c7                	mov    %eax,%edi
    86c7:	e8 42 ff ff ff       	callq  860e <crc32_byte>
    86cc:	48 8b 45 f8          	mov    -0x8(%rbp),%rax
    86d0:	48 c1 e8 30          	shr    $0x30,%rax
    86d4:	0f b6 c0             	movzbl %al,%eax
    86d7:	89 c7                	mov    %eax,%edi
    86d9:	e8 30 ff ff ff       	callq  860e <crc32_byte>
    86de:	48 8b 45 f8          	mov    -0x8(%rbp),%rax
    86e2:	48 c1 e8 38          	shr    $0x38,%rax
    86e6:	0f b6 c0             	movzbl %al,%eax
    86e9:	89 c7                	mov    %eax,%edi
    86eb:	e8 1e ff ff ff       	callq  860e <crc32_byte>
    86f0:	90                   	nop
    86f1:	c9                   	leaveq 
    86f2:	c3                   	retq   

00000000000086f3 <transparent_crc>:
    86f3:	f3 0f 1e fa          	endbr64 
    86f7:	55                   	push   %rbp
    86f8:	48 89 e5             	mov    %rsp,%rbp
    86fb:	48 83 ec 20          	sub    $0x20,%rsp
    86ff:	48 89 7d f8          	mov    %rdi,-0x8(%rbp)
    8703:	48 89 75 f0          	mov    %rsi,-0x10(%rbp)
    8707:	89 55 ec             	mov    %edx,-0x14(%rbp)
    870a:	48 8b 45 f8          	mov    -0x8(%rbp),%rax
    870e:	48 89 c7             	mov    %rax,%rdi
    8711:	e8 3e ff ff ff       	callq  8654 <crc32_8bytes>
    8716:	83 7d ec 00          	cmpl   $0x0,-0x14(%rbp)
    871a:	74 22                	je     873e <transparent_crc+0x4b>
    871c:	8b 05 fe 08 01 00    	mov    0x108fe(%rip),%eax        # 19020 <crc32_context>
    8722:	f7 d0                	not    %eax
    8724:	89 c2                	mov    %eax,%edx
    8726:	48 8b 45 f0          	mov    -0x10(%rbp),%rax
    872a:	48 89 c6             	mov    %rax,%rsi
    872d:	48 8d 3d fc a8 00 00 	lea    0xa8fc(%rip),%rdi        # 13030 <_IO_stdin_used+0x30>
    8734:	b8 00 00 00 00       	mov    $0x0,%eax
    8739:	e8 42 e9 ff ff       	callq  7080 <printf@plt>
    873e:	90                   	nop
    873f:	c9                   	leaveq 
    8740:	c3                   	retq   

0000000000008741 <transparent_crc_bytes>:
    8741:	f3 0f 1e fa          	endbr64 
    8745:	55                   	push   %rbp
    8746:	48 89 e5             	mov    %rsp,%rbp
    8749:	48 83 ec 30          	sub    $0x30,%rsp
    874d:	48 89 7d e8          	mov    %rdi,-0x18(%rbp)
    8751:	89 75 e4             	mov    %esi,-0x1c(%rbp)
    8754:	48 89 55 d8          	mov    %rdx,-0x28(%rbp)
    8758:	89 4d e0             	mov    %ecx,-0x20(%rbp)
    875b:	c7 45 fc 00 00 00 00 	movl   $0x0,-0x4(%rbp)
    8762:	eb 1e                	jmp    8782 <transparent_crc_bytes+0x41>
    8764:	8b 45 fc             	mov    -0x4(%rbp),%eax
    8767:	48 63 d0             	movslq %eax,%rdx
    876a:	48 8b 45 e8          	mov    -0x18(%rbp),%rax
    876e:	48 01 d0             	add    %rdx,%rax
    8771:	0f b6 00             	movzbl (%rax),%eax
    8774:	0f b6 c0             	movzbl %al,%eax
    8777:	89 c7                	mov    %eax,%edi
    8779:	e8 90 fe ff ff       	callq  860e <crc32_byte>
    877e:	83 45 fc 01          	addl   $0x1,-0x4(%rbp)
    8782:	8b 45 fc             	mov    -0x4(%rbp),%eax
    8785:	3b 45 e4             	cmp    -0x1c(%rbp),%eax
    8788:	7c da                	jl     8764 <transparent_crc_bytes+0x23>
    878a:	83 7d e0 00          	cmpl   $0x0,-0x20(%rbp)
    878e:	74 22                	je     87b2 <transparent_crc_bytes+0x71>
    8790:	8b 05 8a 08 01 00    	mov    0x1088a(%rip),%eax        # 19020 <crc32_context>
    8796:	f7 d0                	not    %eax
    8798:	89 c2                	mov    %eax,%edx
    879a:	48 8b 45 d8          	mov    -0x28(%rbp),%rax
    879e:	48 89 c6             	mov    %rax,%rsi
    87a1:	48 8d 3d 88 a8 00 00 	lea    0xa888(%rip),%rdi        # 13030 <_IO_stdin_used+0x30>
    87a8:	b8 00 00 00 00       	mov    $0x0,%eax
    87ad:	e8 ce e8 ff ff       	callq  7080 <printf@plt>
    87b2:	90                   	nop
    87b3:	c9                   	leaveq 
    87b4:	c3                   	retq   

00000000000087b5 <func_1>:
    87b5:	f3 0f 1e fa          	endbr64 
    87b9:	55                   	push   %rbp
    87ba:	48 89 e5             	mov    %rsp,%rbp
    87bd:	41 57                	push   %r15
    87bf:	41 56                	push   %r14
    87c1:	41 55                	push   %r13
    87c3:	41 54                	push   %r12
    87c5:	53                   	push   %rbx
    87c6:	48 81 ec e8 09 00 00 	sub    $0x9e8,%rsp
    87cd:	64 48 8b 04 25 28 00 	mov    %fs:0x28,%rax
    87d4:	00 00 
    87d6:	48 89 45 c8          	mov    %rax,-0x38(%rbp)
    87da:	31 c0                	xor    %eax,%eax
    87dc:	c7 85 f4 f5 ff ff ef 	movl   $0xfde2bbef,-0xa0c(%rbp)
    87e3:	bb e2 fd 
    87e6:	48 8d 05 7b 0b 01 00 	lea    0x10b7b(%rip),%rax        # 19368 <g_366>
    87ed:	48 89 85 10 f6 ff ff 	mov    %rax,-0x9f0(%rbp)
    87f4:	48 8d 85 10 f6 ff ff 	lea    -0x9f0(%rbp),%rax
    87fb:	48 89 85 68 f6 ff ff 	mov    %rax,-0x998(%rbp)
    8802:	48 8d 05 37 0d 01 00 	lea    0x10d37(%rip),%rax        # 19540 <g_735>
    8809:	48 89 85 70 f6 ff ff 	mov    %rax,-0x990(%rbp)
    8810:	48 b8 4b 95 d5 6b 1c 	movabs $0x1b602d1c6bd5954b,%rax
    8817:	2d 60 1b 
    881a:	48 89 85 30 f7 ff ff 	mov    %rax,-0x8d0(%rbp)
    8821:	48 89 85 38 f7 ff ff 	mov    %rax,-0x8c8(%rbp)
    8828:	48 89 85 40 f7 ff ff 	mov    %rax,-0x8c0(%rbp)
    882f:	48 89 85 48 f7 ff ff 	mov    %rax,-0x8b8(%rbp)
    8836:	48 89 85 50 f7 ff ff 	mov    %rax,-0x8b0(%rbp)
    883d:	48 c7 85 18 f6 ff ff 	movq   $0x0,-0x9e8(%rbp)
    8844:	00 00 00 00 
    8848:	48 8d 85 18 f6 ff ff 	lea    -0x9e8(%rbp),%rax
    884f:	48 89 85 20 f6 ff ff 	mov    %rax,-0x9e0(%rbp)
    8856:	48 8d 85 20 f6 ff ff 	lea    -0x9e0(%rbp),%rax
    885d:	48 89 85 60 f7 ff ff 	mov    %rax,-0x8a0(%rbp)
    8864:	48 8d 85 20 f6 ff ff 	lea    -0x9e0(%rbp),%rax
    886b:	48 89 85 68 f7 ff ff 	mov    %rax,-0x898(%rbp)
    8872:	48 8d 85 20 f6 ff ff 	lea    -0x9e0(%rbp),%rax
    8879:	48 89 85 70 f7 ff ff 	mov    %rax,-0x890(%rbp)
    8880:	48 8d 85 20 f6 ff ff 	lea    -0x9e0(%rbp),%rax
    8887:	48 89 85 78 f7 ff ff 	mov    %rax,-0x888(%rbp)
    888e:	48 8d 85 20 f6 ff ff 	lea    -0x9e0(%rbp),%rax
    8895:	48 89 85 80 f7 ff ff 	mov    %rax,-0x880(%rbp)
    889c:	48 8d 85 60 f7 ff ff 	lea    -0x8a0(%rbp),%rax
    88a3:	48 83 c0 20          	add    $0x20,%rax
    88a7:	48 89 85 28 f6 ff ff 	mov    %rax,-0x9d8(%rbp)
    88ae:	c7 85 30 f8 ff ff ff 	movl   $0xffffffff,-0x7d0(%rbp)
    88b5:	ff ff ff 
    88b8:	c7 85 34 f8 ff ff 1d 	movl   $0x33e64c1d,-0x7cc(%rbp)
    88bf:	4c e6 33 
    88c2:	c7 85 38 f8 ff ff 39 	movl   $0x60416b39,-0x7c8(%rbp)
    88c9:	6b 41 60 
    88cc:	c7 85 3c f8 ff ff 61 	movl   $0xf3baec61,-0x7c4(%rbp)
    88d3:	ec ba f3 
    88d6:	c7 85 40 f8 ff ff ff 	movl   $0xffffffff,-0x7c0(%rbp)
    88dd:	ff ff ff 
    88e0:	c7 85 44 f8 ff ff 16 	movl   $0x76672e16,-0x7bc(%rbp)
    88e7:	2e 67 76 
    88ea:	c7 85 48 f8 ff ff 77 	movl   $0xeba19177,-0x7b8(%rbp)
    88f1:	91 a1 eb 
    88f4:	c7 85 4c f8 ff ff 08 	movl   $0x8,-0x7b4(%rbp)
    88fb:	00 00 00 
    88fe:	c7 85 50 f8 ff ff 1d 	movl   $0x33e64c1d,-0x7b0(%rbp)
    8905:	4c e6 33 
    8908:	c7 85 54 f8 ff ff 02 	movl   $0x2,-0x7ac(%rbp)
    890f:	00 00 00 
    8912:	c7 85 58 f8 ff ff 00 	movl   $0x0,-0x7a8(%rbp)
    8919:	00 00 00 
    891c:	c7 85 5c f8 ff ff 32 	movl   $0x9509e632,-0x7a4(%rbp)
    8923:	e6 09 95 
    8926:	c7 85 60 f8 ff ff 20 	movl   $0x26313020,-0x7a0(%rbp)
    892d:	30 31 26 
    8930:	c7 85 64 f8 ff ff 01 	movl   $0x1,-0x79c(%rbp)
    8937:	00 00 00 
    893a:	c7 85 68 f8 ff ff 20 	movl   $0x26313020,-0x798(%rbp)
    8941:	30 31 26 
    8944:	c7 85 6c f8 ff ff f8 	movl   $0xfffffff8,-0x794(%rbp)
    894b:	ff ff ff 
    894e:	c7 85 70 f8 ff ff f8 	movl   $0xfffffff8,-0x790(%rbp)
    8955:	ff ff ff 
    8958:	c7 85 74 f8 ff ff 20 	movl   $0x26313020,-0x78c(%rbp)
    895f:	30 31 26 
    8962:	c7 85 78 f8 ff ff bd 	movl   $0x79a4abd,-0x788(%rbp)
    8969:	4a 9a 07 
    896c:	c7 85 7c f8 ff ff 77 	movl   $0xeba19177,-0x784(%rbp)
    8973:	91 a1 eb 
    8976:	c7 85 80 f8 ff ff a3 	movl   $0xbe42d5a3,-0x780(%rbp)
    897d:	d5 42 be 
    8980:	c7 85 84 f8 ff ff 61 	movl   $0xf3baec61,-0x77c(%rbp)
    8987:	ec ba f3 
    898a:	c7 85 88 f8 ff ff 08 	movl   $0x8,-0x778(%rbp)
    8991:	00 00 00 
    8994:	c7 85 8c f8 ff ff ff 	movl   $0xffffffff,-0x774(%rbp)
    899b:	ff ff ff 
    899e:	c7 85 90 f8 ff ff 01 	movl   $0x1,-0x770(%rbp)
    89a5:	00 00 00 
    89a8:	c7 85 94 f8 ff ff 00 	movl   $0x0,-0x76c(%rbp)
    89af:	00 00 00 
    89b2:	c7 85 98 f8 ff ff 03 	movl   $0x3,-0x768(%rbp)
    89b9:	00 00 00 
    89bc:	c7 85 9c f8 ff ff 39 	movl   $0x60416b39,-0x764(%rbp)
    89c3:	6b 41 60 
    89c6:	c7 85 a0 f8 ff ff 16 	movl   $0x76672e16,-0x760(%rbp)
    89cd:	2e 67 76 
    89d0:	c7 85 a4 f8 ff ff a3 	movl   $0xbe42d5a3,-0x75c(%rbp)
    89d7:	d5 42 be 
    89da:	c7 85 a8 f8 ff ff 32 	movl   $0x9509e632,-0x758(%rbp)
    89e1:	e6 09 95 
    89e4:	c7 85 ac f8 ff ff 61 	movl   $0xf3baec61,-0x754(%rbp)
    89eb:	ec ba f3 
    89ee:	c7 85 b0 f8 ff ff 01 	movl   $0x1,-0x750(%rbp)
    89f5:	00 00 00 
    89f8:	c7 85 b4 f8 ff ff 00 	movl   $0x0,-0x74c(%rbp)
    89ff:	00 00 00 
    8a02:	c7 85 b8 f8 ff ff 39 	movl   $0x60416b39,-0x748(%rbp)
    8a09:	6b 41 60 
    8a0c:	c7 85 bc f8 ff ff 46 	movl   $0x35326946,-0x744(%rbp)
    8a13:	69 32 35 
    8a16:	c7 85 c0 f8 ff ff f8 	movl   $0xfffffff8,-0x740(%rbp)
    8a1d:	ff ff ff 
    8a20:	c7 85 c4 f8 ff ff 16 	movl   $0x76672e16,-0x73c(%rbp)
    8a27:	2e 67 76 
    8a2a:	c7 85 c8 f8 ff ff 02 	movl   $0x2,-0x738(%rbp)
    8a31:	00 00 00 
    8a34:	c7 85 cc f8 ff ff 61 	movl   $0xf3baec61,-0x734(%rbp)
    8a3b:	ec ba f3 
    8a3e:	c7 85 d0 f8 ff ff 61 	movl   $0xf3baec61,-0x730(%rbp)
    8a45:	ec ba f3 
    8a48:	c7 85 d4 f8 ff ff 16 	movl   $0x76672e16,-0x72c(%rbp)
    8a4f:	2e 67 76 
    8a52:	c7 85 d8 f8 ff ff 46 	movl   $0x35326946,-0x728(%rbp)
    8a59:	69 32 35 
    8a5c:	c7 85 dc f8 ff ff 00 	movl   $0x0,-0x724(%rbp)
    8a63:	00 00 00 
    8a66:	c7 85 e0 f8 ff ff 02 	movl   $0x2,-0x720(%rbp)
    8a6d:	00 00 00 
    8a70:	c7 85 e4 f8 ff ff 16 	movl   $0x76672e16,-0x71c(%rbp)
    8a77:	2e 67 76 
    8a7a:	c7 85 e8 f8 ff ff bd 	movl   $0x79a4abd,-0x718(%rbp)
    8a81:	4a 9a 07 
    8a84:	c7 85 ec f8 ff ff a3 	movl   $0xbe42d5a3,-0x714(%rbp)
    8a8b:	d5 42 be 
    8a8e:	c7 85 f0 f8 ff ff 46 	movl   $0x35326946,-0x710(%rbp)
    8a95:	69 32 35 
    8a98:	c7 85 f4 f8 ff ff 06 	movl   $0x32540b06,-0x70c(%rbp)
    8a9f:	0b 54 32 
    8aa2:	48 8d 85 f4 f5 ff ff 	lea    -0xa0c(%rbp),%rax
    8aa9:	48 89 85 78 f6 ff ff 	mov    %rax,-0x988(%rbp)
    8ab0:	48 c7 85 80 f6 ff ff 	movq   $0x0,-0x980(%rbp)
    8ab7:	00 00 00 00 
    8abb:	48 8d 85 30 f8 ff ff 	lea    -0x7d0(%rbp),%rax
    8ac2:	48 83 c0 64          	add    $0x64,%rax
    8ac6:	48 89 85 88 f6 ff ff 	mov    %rax,-0x978(%rbp)
    8acd:	48 c7 85 90 f6 ff ff 	movq   $0x0,-0x970(%rbp)
    8ad4:	00 00 00 00 
    8ad8:	48 c7 85 98 f6 ff ff 	movq   $0x0,-0x968(%rbp)
    8adf:	00 00 00 00 
    8ae3:	48 c7 85 a0 f6 ff ff 	movq   $0x0,-0x960(%rbp)
    8aea:	00 00 00 00 
    8aee:	48 c7 85 90 f7 ff ff 	movq   $0x0,-0x870(%rbp)
    8af5:	00 00 00 00 
    8af9:	48 c7 85 98 f7 ff ff 	movq   $0x0,-0x868(%rbp)
    8b00:	00 00 00 00 
    8b04:	48 8d 05 9d 08 01 00 	lea    0x1089d(%rip),%rax        # 193a8 <g_505>
    8b0b:	48 89 85 a0 f7 ff ff 	mov    %rax,-0x860(%rbp)
    8b12:	48 c7 85 a8 f7 ff ff 	movq   $0x0,-0x858(%rbp)
    8b19:	00 00 00 00 
    8b1d:	48 c7 85 b0 f7 ff ff 	movq   $0x0,-0x850(%rbp)
    8b24:	00 00 00 00 
    8b28:	48 8d 05 79 08 01 00 	lea    0x10879(%rip),%rax        # 193a8 <g_505>
    8b2f:	48 89 85 b8 f7 ff ff 	mov    %rax,-0x848(%rbp)
    8b36:	48 c7 85 c0 f7 ff ff 	movq   $0x0,-0x840(%rbp)
    8b3d:	00 00 00 00 
    8b41:	48 c7 85 c8 f7 ff ff 	movq   $0x0,-0x838(%rbp)
    8b48:	00 00 00 00 
    8b4c:	48 8d 05 55 08 01 00 	lea    0x10855(%rip),%rax        # 193a8 <g_505>
    8b53:	48 89 85 d0 f7 ff ff 	mov    %rax,-0x830(%rbp)
    8b5a:	48 c7 85 a8 f6 ff ff 	movq   $0x0,-0x958(%rbp)
    8b61:	00 00 00 00 
    8b65:	48 8d 05 c4 2f 01 00 	lea    0x12fc4(%rip),%rax        # 1bb30 <g_849+0x90>
    8b6c:	48 89 85 30 f6 ff ff 	mov    %rax,-0x9d0(%rbp)
    8b73:	48 8d 85 30 f6 ff ff 	lea    -0x9d0(%rbp),%rax
    8b7a:	48 89 85 38 f6 ff ff 	mov    %rax,-0x9c8(%rbp)
    8b81:	48 8d 85 38 f6 ff ff 	lea    -0x9c8(%rbp),%rax
    8b88:	48 89 85 40 f6 ff ff 	mov    %rax,-0x9c0(%rbp)
    8b8f:	48 8d 85 40 f6 ff ff 	lea    -0x9c0(%rbp),%rax
    8b96:	48 89 85 b0 f6 ff ff 	mov    %rax,-0x950(%rbp)
    8b9d:	48 8d 85 c0 fa ff ff 	lea    -0x540(%rbp),%rax
    8ba4:	48 8d 15 b5 11 01 00 	lea    0x111b5(%rip),%rdx        # 19d60 <g_2596+0x10>
    8bab:	b9 a0 00 00 00       	mov    $0xa0,%ecx
    8bb0:	48 89 c7             	mov    %rax,%rdi
    8bb3:	48 89 d6             	mov    %rdx,%rsi
    8bb6:	f3 48 a5             	rep movsq %ds:(%rsi),%es:(%rdi)
    8bb9:	c7 85 fc f5 ff ff 00 	movl   $0x0,-0xa04(%rbp)
    8bc0:	00 00 00 
    8bc3:	eb 21                	jmp    8be6 <func_1+0x431>
    8bc5:	8b 85 fc f5 ff ff    	mov    -0xa04(%rbp),%eax
    8bcb:	48 98                	cltq   
    8bcd:	48 bb b3 08 0d 6c a1 	movabs $0x4a958a16c0d08b3,%rbx
    8bd4:	58 a9 04 
    8bd7:	48 89 9c c5 e0 f7 ff 	mov    %rbx,-0x820(%rbp,%rax,8)
    8bde:	ff 
    8bdf:	83 85 fc f5 ff ff 01 	addl   $0x1,-0xa04(%rbp)
    8be6:	83 bd fc f5 ff ff 08 	cmpl   $0x8,-0xa04(%rbp)
    8bed:	7e d6                	jle    8bc5 <func_1+0x410>
    8bef:	8b 85 f4 f5 ff ff    	mov    -0xa0c(%rbp),%eax
    8bf5:	48 63 d0             	movslq %eax,%rdx
    8bf8:	8b 85 f4 f5 ff ff    	mov    -0xa0c(%rbp),%eax
    8bfe:	98                   	cwtl   
    8bff:	48 8d 8d f4 f5 ff ff 	lea    -0xa0c(%rbp),%rcx
    8c06:	48 89 ce             	mov    %rcx,%rsi
    8c09:	89 c7                	mov    %eax,%edi
    8c0b:	e8 f6 06 00 00       	callq  9306 <func_2>
    8c10:	48 8b 05 d1 3a 01 00 	mov    0x13ad1(%rip),%rax        # 1c6e8 <g_2061>
    8c17:	48 8d 95 f4 f5 ff ff 	lea    -0xa0c(%rbp),%rdx
    8c1e:	48 89 10             	mov    %rdx,(%rax)
    8c21:	8b 85 f4 f5 ff ff    	mov    -0xa0c(%rbp),%eax
    8c27:	c1 e8 1f             	shr    $0x1f,%eax
    8c2a:	89 c2                	mov    %eax,%edx
    8c2c:	48 8b 05 bd 37 01 00 	mov    0x137bd(%rip),%rax        # 1c3f0 <g_1159>
    8c33:	48 8b 00             	mov    (%rax),%rax
    8c36:	48 8b 00             	mov    (%rax),%rax
    8c39:	0f b6 d2             	movzbl %dl,%edx
    8c3c:	89 10                	mov    %edx,(%rax)
    8c3e:	8b 00                	mov    (%rax),%eax
    8c40:	85 c0                	test   %eax,%eax
    8c42:	0f 84 6b 04 00 00    	je     90b3 <func_1+0x8fe>
    8c48:	c7 85 f8 f5 ff ff aa 	movl   $0x7bf32aaa,-0xa08(%rbp)
    8c4f:	2a f3 7b 
    8c52:	48 8d 85 f8 f5 ff ff 	lea    -0xa08(%rbp),%rax
    8c59:	48 89 85 d8 f6 ff ff 	mov    %rax,-0x928(%rbp)
    8c60:	48 8d 85 00 f9 ff ff 	lea    -0x700(%rbp),%rax
    8c67:	48 8d 15 f2 15 01 00 	lea    0x115f2(%rip),%rdx        # 1a260 <g_2596+0x510>
    8c6e:	b9 38 00 00 00       	mov    $0x38,%ecx
    8c73:	48 89 c7             	mov    %rax,%rdi
    8c76:	48 89 d6             	mov    %rdx,%rsi
    8c79:	f3 48 a5             	rep movsq %ds:(%rsi),%es:(%rdi)
    8c7c:	48 8d 85 00 f9 ff ff 	lea    -0x700(%rbp),%rax
    8c83:	48 83 c0 78          	add    $0x78,%rax
    8c87:	48 89 85 48 f6 ff ff 	mov    %rax,-0x9b8(%rbp)
    8c8e:	48 8d 85 48 f6 ff ff 	lea    -0x9b8(%rbp),%rax
    8c95:	48 89 85 e0 f6 ff ff 	mov    %rax,-0x920(%rbp)
    8c9c:	48 8d 85 48 f6 ff ff 	lea    -0x9b8(%rbp),%rax
    8ca3:	48 89 85 50 f6 ff ff 	mov    %rax,-0x9b0(%rbp)
    8caa:	48 8d 85 50 f6 ff ff 	lea    -0x9b0(%rbp),%rax
    8cb1:	48 89 85 e8 f6 ff ff 	mov    %rax,-0x918(%rbp)
    8cb8:	48 8d 05 01 05 01 00 	lea    0x10501(%rip),%rax        # 191c0 <g_122>
    8cbf:	48 89 85 f0 f6 ff ff 	mov    %rax,-0x910(%rbp)
    8cc6:	48 8d 05 e3 0e 01 00 	lea    0x10ee3(%rip),%rax        # 19bb0 <g_2082>
    8ccd:	48 89 85 f8 f6 ff ff 	mov    %rax,-0x908(%rbp)
    8cd4:	48 8d 05 50 06 01 00 	lea    0x10650(%rip),%rax        # 1932b <g_164+0x6b>
    8cdb:	48 89 85 58 f6 ff ff 	mov    %rax,-0x9a8(%rbp)
    8ce2:	48 8d 85 58 f6 ff ff 	lea    -0x9a8(%rbp),%rax
    8ce9:	48 89 85 60 f6 ff ff 	mov    %rax,-0x9a0(%rbp)
    8cf0:	48 8d 85 60 f6 ff ff 	lea    -0x9a0(%rbp),%rax
    8cf7:	48 89 85 00 f7 ff ff 	mov    %rax,-0x900(%rbp)
    8cfe:	c7 85 04 f6 ff ff 04 	movl   $0xcfea6504,-0x9fc(%rbp)
    8d05:	65 ea cf 
    8d08:	48 8d 05 d9 39 01 00 	lea    0x139d9(%rip),%rax        # 1c6e8 <g_2061>
    8d0f:	48 89 85 08 f7 ff ff 	mov    %rax,-0x8f8(%rbp)
    8d16:	c7 05 54 03 01 00 02 	movl   $0x2,0x10354(%rip)        # 19074 <g_40>
    8d1d:	00 00 00 
    8d20:	90                   	nop
    8d21:	8b 05 4d 03 01 00    	mov    0x1034d(%rip),%eax        # 19074 <g_40>
    8d27:	83 f8 12             	cmp    $0x12,%eax
    8d2a:	7f 0b                	jg     8d37 <func_1+0x582>
    8d2c:	8b 85 f4 f5 ff ff    	mov    -0xa0c(%rbp),%eax
    8d32:	e9 a9 05 00 00       	jmpq   92e0 <func_1+0xb2b>
    8d37:	48 8b 05 a2 2c 01 00 	mov    0x12ca2(%rip),%rax        # 1b9e0 <g_39>
    8d3e:	8b 95 f8 f5 ff ff    	mov    -0xa08(%rbp),%edx
    8d44:	89 10                	mov    %edx,(%rax)
    8d46:	8b 10                	mov    (%rax),%edx
    8d48:	48 8b 85 d8 f6 ff ff 	mov    -0x928(%rbp),%rax
    8d4f:	89 10                	mov    %edx,(%rax)
    8d51:	48 c7 05 5c 0e 01 00 	movq   $0xf,0x10e5c(%rip)        # 19bb8 <g_2082+0x8>
    8d58:	0f 00 00 00 
    8d5c:	90                   	nop
    8d5d:	48 8b 05 54 0e 01 00 	mov    0x10e54(%rip),%rax        # 19bb8 <g_2082+0x8>
    8d64:	48 83 f8 21          	cmp    $0x21,%rax
    8d68:	75 20                	jne    8d8a <func_1+0x5d5>
    8d6a:	48 8b 05 7f 36 01 00 	mov    0x1367f(%rip),%rax        # 1c3f0 <g_1159>
    8d71:	48 8b 00             	mov    (%rax),%rax
    8d74:	48 c7 00 00 00 00 00 	movq   $0x0,(%rax)
    8d7b:	0f b6 05 ac 05 01 00 	movzbl 0x105ac(%rip),%eax        # 1932e <g_164+0x6e>
    8d82:	0f b6 c0             	movzbl %al,%eax
    8d85:	e9 56 05 00 00       	jmpq   92e0 <func_1+0xb2b>
    8d8a:	48 8d 85 10 f6 ff ff 	lea    -0x9f0(%rbp),%rax
    8d91:	48 39 85 68 f6 ff ff 	cmp    %rax,-0x998(%rbp)
    8d98:	0f 94 c0             	sete   %al
    8d9b:	0f b6 c0             	movzbl %al,%eax
    8d9e:	be 02 00 00 00       	mov    $0x2,%esi
    8da3:	89 c7                	mov    %eax,%edi
    8da5:	e8 f7 e4 ff ff       	callq  72a1 <safe_lshift_func_int8_t_s_s>
    8daa:	0f be d0             	movsbl %al,%edx
    8dad:	48 8b 85 e8 f6 ff ff 	mov    -0x918(%rbp),%rax
    8db4:	48 8d 8d 48 f6 ff ff 	lea    -0x9b8(%rbp),%rcx
    8dbb:	48 89 08             	mov    %rcx,(%rax)
    8dbe:	48 8b 85 e8 f6 ff ff 	mov    -0x918(%rbp),%rax
    8dc5:	48 8b 00             	mov    (%rax),%rax
    8dc8:	48 39 85 e0 f6 ff ff 	cmp    %rax,-0x920(%rbp)
    8dcf:	0f 94 c0             	sete   %al
    8dd2:	0f b6 c8             	movzbl %al,%ecx
    8dd5:	48 8b 85 d8 f6 ff ff 	mov    -0x928(%rbp),%rax
    8ddc:	89 08                	mov    %ecx,(%rax)
    8dde:	48 8b 85 d8 f6 ff ff 	mov    -0x928(%rbp),%rax
    8de5:	8b 00                	mov    (%rax),%eax
    8de7:	98                   	cwtl   
    8de8:	89 d6                	mov    %edx,%esi
    8dea:	89 c7                	mov    %eax,%edi
    8dec:	e8 e2 e5 ff ff       	callq  73d3 <safe_sub_func_int16_t_s_s>
    8df1:	48 8b 05 d0 38 01 00 	mov    0x138d0(%rip),%rax        # 1c6c8 <g_1886>
    8df8:	48 8b 00             	mov    (%rax),%rax
    8dfb:	48 8d 15 de 35 01 00 	lea    0x135de(%rip),%rdx        # 1c3e0 <g_1052>
    8e02:	48 39 d0             	cmp    %rdx,%rax
    8e05:	0f 94 c0             	sete   %al
    8e08:	0f b6 c0             	movzbl %al,%eax
    8e0b:	be 04 00 00 00       	mov    $0x4,%esi
    8e10:	89 c7                	mov    %eax,%edi
    8e12:	e8 a7 ee ff ff       	callq  7cbe <safe_rshift_func_uint8_t_u_u>
    8e17:	89 c2                	mov    %eax,%edx
    8e19:	48 8b 05 c0 2b 01 00 	mov    0x12bc0(%rip),%rax        # 1b9e0 <g_39>
    8e20:	0f b6 d2             	movzbl %dl,%edx
    8e23:	89 10                	mov    %edx,(%rax)
    8e25:	8b 00                	mov    (%rax),%eax
    8e27:	85 c0                	test   %eax,%eax
    8e29:	0f 84 a7 00 00 00    	je     8ed6 <func_1+0x721>
    8e2f:	c6 85 f3 f5 ff ff ff 	movb   $0xff,-0xa0d(%rbp)
    8e36:	48 8d 05 72 02 01 00 	lea    0x10272(%rip),%rax        # 190af <g_105+0xf>
    8e3d:	48 89 85 18 f7 ff ff 	mov    %rax,-0x8e8(%rbp)
    8e44:	48 8d 05 15 39 01 00 	lea    0x13915(%rip),%rax        # 1c760 <g_2412>
    8e4b:	48 89 85 20 f7 ff ff 	mov    %rax,-0x8e0(%rbp)
    8e52:	48 8d 85 60 f6 ff ff 	lea    -0x9a0(%rbp),%rax
    8e59:	48 89 85 28 f7 ff ff 	mov    %rax,-0x8d8(%rbp)
    8e60:	48 8b 05 a1 38 01 00 	mov    0x138a1(%rip),%rax        # 1c708 <g_2079>
    8e67:	48 8b 00             	mov    (%rax),%rax
    8e6a:	48 8b 30             	mov    (%rax),%rsi
    8e6d:	48 8b 05 8c 38 01 00 	mov    0x1388c(%rip),%rax        # 1c700 <g_2080>
    8e74:	48 8b 08             	mov    (%rax),%rcx
    8e77:	48 8b 06             	mov    (%rsi),%rax
    8e7a:	48 8b 56 08          	mov    0x8(%rsi),%rdx
    8e7e:	48 89 01             	mov    %rax,(%rcx)
    8e81:	48 89 51 08          	mov    %rdx,0x8(%rcx)
    8e85:	48 8b 46 10          	mov    0x10(%rsi),%rax
    8e89:	48 89 41 10          	mov    %rax,0x10(%rcx)
    8e8d:	48 bf 92 99 0b 95 24 	movabs $0x3daf9424950b9992,%rdi
    8e94:	94 af 3d 
    8e97:	e8 7d f1 ff ff       	callq  8019 <safe_unary_minus_func_uint64_t_u>
    8e9c:	48 89 c2             	mov    %rax,%rdx
    8e9f:	48 8b 05 42 35 01 00 	mov    0x13542(%rip),%rax        # 1c3e8 <g_1160>
    8ea6:	48 8b 00             	mov    (%rax),%rax
    8ea9:	8b 08                	mov    (%rax),%ecx
    8eab:	31 ca                	xor    %ecx,%edx
    8ead:	89 10                	mov    %edx,(%rax)
    8eaf:	48 8b 05 22 38 01 00 	mov    0x13822(%rip),%rax        # 1c6d8 <g_1964>
    8eb6:	48 8b 10             	mov    (%rax),%rdx
    8eb9:	48 8b 85 20 f7 ff ff 	mov    -0x8e0(%rbp),%rax
    8ec0:	48 89 10             	mov    %rdx,(%rax)
    8ec3:	48 8b 85 00 f7 ff ff 	mov    -0x900(%rbp),%rax
    8eca:	48 89 85 28 f7 ff ff 	mov    %rax,-0x8d8(%rbp)
    8ed1:	e9 e0 03 00 00       	jmpq   92b6 <func_1+0xb01>
    8ed6:	c7 85 08 f6 ff ff 00 	movl   $0x0,-0x9f8(%rbp)
    8edd:	00 00 00 
    8ee0:	48 8d 05 39 3e 01 00 	lea    0x13e39(%rip),%rax        # 1cd20 <g_506>
    8ee7:	48 89 85 10 f7 ff ff 	mov    %rax,-0x8f0(%rbp)
    8eee:	66 c7 05 5f 0d 01 00 	movw   $0x0,0x10d5f(%rip)        # 19c56 <g_2204+0x6>
    8ef5:	00 00 
    8ef7:	e9 8d 01 00 00       	jmpq   9089 <func_1+0x8d4>
    8efc:	c7 85 0c f6 ff ff 07 	movl   $0x7,-0x9f4(%rbp)
    8f03:	00 00 00 
    8f06:	8b 85 0c f6 ff ff    	mov    -0x9f4(%rbp),%eax
    8f0c:	0f bf d8             	movswl %ax,%ebx
    8f0f:	48 8b 85 50 f7 ff ff 	mov    -0x8b0(%rbp),%rax
    8f16:	44 0f b7 e0          	movzwl %ax,%r12d
    8f1a:	48 8b 85 d8 f6 ff ff 	mov    -0x928(%rbp),%rax
    8f21:	8b 00                	mov    (%rax),%eax
    8f23:	44 0f b7 e8          	movzwl %ax,%r13d
    8f27:	48 8b 85 d8 f6 ff ff 	mov    -0x928(%rbp),%rax
    8f2e:	8b 00                	mov    (%rax),%eax
    8f30:	4c 63 f0             	movslq %eax,%r14
    8f33:	48 8b 85 d8 f6 ff ff 	mov    -0x928(%rbp),%rax
    8f3a:	8b 00                	mov    (%rax),%eax
    8f3c:	44 0f be f8          	movsbl %al,%r15d
    8f40:	8b 85 04 f6 ff ff    	mov    -0x9fc(%rbp),%eax
    8f46:	0f b7 c0             	movzwl %ax,%eax
    8f49:	be 40 66 00 00       	mov    $0x6640,%esi
    8f4e:	89 c7                	mov    %eax,%edi
    8f50:	e8 ca ed ff ff       	callq  7d1f <safe_sub_func_uint16_t_u_u>
    8f55:	48 8d 05 8c 37 01 00 	lea    0x1378c(%rip),%rax        # 1c6e8 <g_2061>
    8f5c:	48 39 85 08 f7 ff ff 	cmp    %rax,-0x8f8(%rbp)
    8f63:	0f 95 c0             	setne  %al
    8f66:	0f b6 c0             	movzbl %al,%eax
    8f69:	39 85 08 f6 ff ff    	cmp    %eax,-0x9f8(%rbp)
    8f6f:	0f 94 c0             	sete   %al
    8f72:	0f b6 c0             	movzbl %al,%eax
    8f75:	44 89 fe             	mov    %r15d,%esi
    8f78:	89 c7                	mov    %eax,%edi
    8f7a:	e8 93 e2 ff ff       	callq  7212 <safe_mul_func_int8_t_s_s>
    8f7f:	48 0f be c0          	movsbq %al,%rax
    8f83:	4c 89 f6             	mov    %r14,%rsi
    8f86:	48 89 c7             	mov    %rax,%rdi
    8f89:	e8 1a e9 ff ff       	callq  78a8 <safe_sub_func_int64_t_s_s>
    8f8e:	48 85 c0             	test   %rax,%rax
    8f91:	8b 85 0c f6 ff ff    	mov    -0x9f4(%rbp),%eax
    8f97:	0f be c0             	movsbl %al,%eax
    8f9a:	be 00 00 00 00       	mov    $0x0,%esi
    8f9f:	89 c7                	mov    %eax,%edi
    8fa1:	e8 4c e2 ff ff       	callq  71f2 <safe_sub_func_int8_t_s_s>
    8fa6:	48 0f be c0          	movsbq %al,%rax
    8faa:	48 89 c7             	mov    %rax,%rdi
    8fad:	e8 67 f0 ff ff       	callq  8019 <safe_unary_minus_func_uint64_t_u>
    8fb2:	48 83 f8 ff          	cmp    $0xffffffffffffffff,%rax
    8fb6:	0f 94 c0             	sete   %al
    8fb9:	0f b6 c0             	movzbl %al,%eax
    8fbc:	be ff ff ff ff       	mov    $0xffffffff,%esi
    8fc1:	89 c7                	mov    %eax,%edi
    8fc3:	e8 0b e4 ff ff       	callq  73d3 <safe_sub_func_int16_t_s_s>
    8fc8:	0f b6 d0             	movzbl %al,%edx
    8fcb:	0f b7 05 84 0c 01 00 	movzwl 0x10c84(%rip),%eax        # 19c56 <g_2204+0x6>
    8fd2:	98                   	cwtl   
    8fd3:	83 c0 01             	add    $0x1,%eax
    8fd6:	48 98                	cltq   
    8fd8:	48 8d 0d f1 07 01 00 	lea    0x107f1(%rip),%rcx        # 197d0 <g_1576>
    8fdf:	0f b6 04 08          	movzbl (%rax,%rcx,1),%eax
    8fe3:	0f be c8             	movsbl %al,%ecx
    8fe6:	48 83 bd 70 f6 ff ff 	cmpq   $0x0,-0x990(%rbp)
    8fed:	00 
    8fee:	0f 95 c0             	setne  %al
    8ff1:	0f b6 c0             	movzbl %al,%eax
    8ff4:	39 c1                	cmp    %eax,%ecx
    8ff6:	0f 9f c0             	setg   %al
    8ff9:	0f b6 c0             	movzbl %al,%eax
    8ffc:	89 d6                	mov    %edx,%esi
    8ffe:	89 c7                	mov    %eax,%edi
    9000:	e8 8e eb ff ff       	callq  7b93 <safe_mul_func_uint8_t_u_u>
    9005:	c7 85 f4 f5 ff ff 01 	movl   $0x1,-0xa0c(%rbp)
    900c:	00 00 00 
    900f:	8b 85 f4 f5 ff ff    	mov    -0xa0c(%rbp),%eax
    9015:	85 c0                	test   %eax,%eax
    9017:	0f 9f c0             	setg   %al
    901a:	0f b6 c0             	movzbl %al,%eax
    901d:	44 89 ee             	mov    %r13d,%esi
    9020:	89 c7                	mov    %eax,%edi
    9022:	e8 f8 ec ff ff       	callq  7d1f <safe_sub_func_uint16_t_u_u>
    9027:	66 85 c0             	test   %ax,%ax
    902a:	74 10                	je     903c <func_1+0x887>
    902c:	83 bd 08 f6 ff ff 00 	cmpl   $0x0,-0x9f8(%rbp)
    9033:	74 07                	je     903c <func_1+0x887>
    9035:	b8 01 00 00 00       	mov    $0x1,%eax
    903a:	eb 05                	jmp    9041 <func_1+0x88c>
    903c:	b8 00 00 00 00       	mov    $0x0,%eax
    9041:	85 c0                	test   %eax,%eax
    9043:	0f 95 c0             	setne  %al
    9046:	0f b6 c0             	movzbl %al,%eax
    9049:	44 89 e6             	mov    %r12d,%esi
    904c:	89 c7                	mov    %eax,%edi
    904e:	e8 cc ec ff ff       	callq  7d1f <safe_sub_func_uint16_t_u_u>
    9053:	98                   	cwtl   
    9054:	89 de                	mov    %ebx,%esi
    9056:	89 c7                	mov    %eax,%edi
    9058:	e8 76 e3 ff ff       	callq  73d3 <safe_sub_func_int16_t_s_s>
    905d:	be 89 77 00 00       	mov    $0x7789,%esi
    9062:	bf 78 c5 ff ff       	mov    $0xffffc578,%edi
    9067:	e8 aa e3 ff ff       	callq  7416 <safe_mod_func_int16_t_s_s>
    906c:	0f bf d0             	movswl %ax,%edx
    906f:	48 8b 85 d8 f6 ff ff 	mov    -0x928(%rbp),%rax
    9076:	89 10                	mov    %edx,(%rax)
    9078:	0f b7 05 d7 0b 01 00 	movzwl 0x10bd7(%rip),%eax        # 19c56 <g_2204+0x6>
    907f:	83 c0 01             	add    $0x1,%eax
    9082:	66 89 05 cd 0b 01 00 	mov    %ax,0x10bcd(%rip)        # 19c56 <g_2204+0x6>
    9089:	0f b7 05 c6 0b 01 00 	movzwl 0x10bc6(%rip),%eax        # 19c56 <g_2204+0x6>
    9090:	66 83 f8 01          	cmp    $0x1,%ax
    9094:	0f 8e 62 fe ff ff    	jle    8efc <func_1+0x747>
    909a:	48 8b 85 08 f7 ff ff 	mov    -0x8f8(%rbp),%rax
    90a1:	48 8b 00             	mov    (%rax),%rax
    90a4:	48 8b 95 10 f7 ff ff 	mov    -0x8f0(%rbp),%rdx
    90ab:	48 89 10             	mov    %rdx,(%rax)
    90ae:	e9 03 02 00 00       	jmpq   92b6 <func_1+0xb01>
    90b3:	48 8d 85 28 f6 ff ff 	lea    -0x9d8(%rbp),%rax
    90ba:	48 89 85 b8 f6 ff ff 	mov    %rax,-0x948(%rbp)
    90c1:	c7 85 00 f9 ff ff f7 	movl   $0xfffffff7,-0x700(%rbp)
    90c8:	ff ff ff 
    90cb:	c7 85 04 f9 ff ff 09 	movl   $0x48963609,-0x6fc(%rbp)
    90d2:	36 96 48 
    90d5:	c7 85 08 f9 ff ff f7 	movl   $0xfffffff7,-0x6f8(%rbp)
    90dc:	ff ff ff 
    90df:	c7 85 0c f9 ff ff 09 	movl   $0x48963609,-0x6f4(%rbp)
    90e6:	36 96 48 
    90e9:	c7 85 10 f9 ff ff f7 	movl   $0xfffffff7,-0x6f0(%rbp)
    90f0:	ff ff ff 
    90f3:	c7 85 14 f9 ff ff 09 	movl   $0x48963609,-0x6ec(%rbp)
    90fa:	36 96 48 
    90fd:	c7 85 18 f9 ff ff f7 	movl   $0xfffffff7,-0x6e8(%rbp)
    9104:	ff ff ff 
    9107:	c7 85 1c f9 ff ff 09 	movl   $0x48963609,-0x6e4(%rbp)
    910e:	36 96 48 
    9111:	c7 85 20 f9 ff ff f7 	movl   $0xfffffff7,-0x6e0(%rbp)
    9118:	ff ff ff 
    911b:	c7 85 00 f6 ff ff ff 	movl   $0x1a0883ff,-0xa00(%rbp)
    9122:	83 08 1a 
    9125:	48 8d 05 2a ff 00 00 	lea    0xff2a(%rip),%rax        # 19056 <g_8+0x16>
    912c:	48 89 85 c0 f6 ff ff 	mov    %rax,-0x940(%rbp)
    9133:	48 8d 05 56 01 01 00 	lea    0x10156(%rip),%rax        # 19290 <g_123+0x50>
    913a:	48 89 85 c8 f6 ff ff 	mov    %rax,-0x938(%rbp)
    9141:	48 8d 05 60 01 01 00 	lea    0x10160(%rip),%rax        # 192a8 <g_145+0x8>
    9148:	48 89 85 d0 f6 ff ff 	mov    %rax,-0x930(%rbp)
    914f:	48 8b 95 28 f6 ff ff 	mov    -0x9d8(%rbp),%rdx
    9156:	48 8b 85 b8 f6 ff ff 	mov    -0x948(%rbp),%rax
    915d:	48 89 10             	mov    %rdx,(%rax)
    9160:	8b 85 0c f9 ff ff    	mov    -0x6f4(%rbp),%eax
    9166:	c7 85 00 f6 ff ff a0 	movl   $0x9ed4fea0,-0xa00(%rbp)
    916d:	fe d4 9e 
    9170:	ba 00 00 00 00       	mov    $0x0,%edx
    9175:	39 c2                	cmp    %eax,%edx
    9177:	0f 94 c0             	sete   %al
    917a:	0f b6 c0             	movzbl %al,%eax
    917d:	89 c6                	mov    %eax,%esi
    917f:	bf ce 00 00 00       	mov    $0xce,%edi
    9184:	e8 0a ea ff ff       	callq  7b93 <safe_mul_func_uint8_t_u_u>
    9189:	8b 85 20 f9 ff ff    	mov    -0x6e0(%rbp),%eax
    918f:	48 63 d8             	movslq %eax,%rbx
    9192:	48 8b 85 38 f7 ff ff 	mov    -0x8c8(%rbp),%rax
    9199:	48 8b 95 30 f7 ff ff 	mov    -0x8d0(%rbp),%rdx
    91a0:	48 81 fa 62 40 00 00 	cmp    $0x4062,%rdx
    91a7:	77 11                	ja     91ba <func_1+0xa05>
    91a9:	8b 95 0c f9 ff ff    	mov    -0x6f4(%rbp),%edx
    91af:	85 d2                	test   %edx,%edx
    91b1:	74 07                	je     91ba <func_1+0xa05>
    91b3:	ba 01 00 00 00       	mov    $0x1,%edx
    91b8:	eb 05                	jmp    91bf <func_1+0xa0a>
    91ba:	ba 00 00 00 00       	mov    $0x0,%edx
    91bf:	48 63 d2             	movslq %edx,%rdx
    91c2:	b9 ff ff ff ff       	mov    $0xffffffff,%ecx
    91c7:	48 09 d1             	or     %rdx,%rcx
    91ca:	48 8b 95 38 f7 ff ff 	mov    -0x8c8(%rbp),%rdx
    91d1:	48 21 ca             	and    %rcx,%rdx
    91d4:	48 89 c6             	mov    %rax,%rsi
    91d7:	48 89 d7             	mov    %rdx,%rdi
    91da:	e8 d0 ee ff ff       	callq  80af <safe_div_func_uint64_t_u_u>
    91df:	be 03 00 00 00       	mov    $0x3,%esi
    91e4:	bf 01 00 00 00       	mov    $0x1,%edi
    91e9:	e8 75 e3 ff ff       	callq  7563 <safe_rshift_func_int16_t_s_u>
    91ee:	66 83 f8 fa          	cmp    $0xfffa,%ax
    91f2:	0f 95 c2             	setne  %dl
    91f5:	48 8b 05 4c 34 01 00 	mov    0x1344c(%rip),%rax        # 1c648 <g_1436>
    91fc:	0f b6 d2             	movzbl %dl,%edx
    91ff:	48 89 10             	mov    %rdx,(%rax)
    9202:	48 8b 00             	mov    (%rax),%rax
    9205:	48 89 de             	mov    %rbx,%rsi
    9208:	48 89 c7             	mov    %rax,%rdi
    920b:	e8 31 e6 ff ff       	callq  7841 <safe_add_func_int64_t_s_s>
    9210:	48 8b 05 51 34 01 00 	mov    0x13451(%rip),%rax        # 1c668 <g_1487>
    9217:	48 8b 00             	mov    (%rax),%rax
    921a:	0f b6 00             	movzbl (%rax),%eax
    921d:	3c 01                	cmp    $0x1,%al
    921f:	0f 95 c0             	setne  %al
    9222:	0f b6 c0             	movzbl %al,%eax
    9225:	be 00 00 00 00       	mov    $0x0,%esi
    922a:	89 c7                	mov    %eax,%edi
    922c:	e8 8d ea ff ff       	callq  7cbe <safe_rshift_func_uint8_t_u_u>
    9231:	48 8b 95 c8 f6 ff ff 	mov    -0x938(%rbp),%rdx
    9238:	48 8b 12             	mov    (%rdx),%rdx
    923b:	0f b6 c0             	movzbl %al,%eax
    923e:	48 31 c2             	xor    %rax,%rdx
    9241:	48 8b 85 c8 f6 ff ff 	mov    -0x938(%rbp),%rax
    9248:	48 89 10             	mov    %rdx,(%rax)
    924b:	48 8b 85 c8 f6 ff ff 	mov    -0x938(%rbp),%rax
    9252:	48 8b 10             	mov    (%rax),%rdx
    9255:	48 8b 85 d0 f6 ff ff 	mov    -0x930(%rbp),%rax
    925c:	48 8b 00             	mov    (%rax),%rax
    925f:	48 21 c2             	and    %rax,%rdx
    9262:	48 8b 85 d0 f6 ff ff 	mov    -0x930(%rbp),%rax
    9269:	48 89 10             	mov    %rdx,(%rax)
    926c:	8b 8d 00 f6 ff ff    	mov    -0xa00(%rbp),%ecx
    9272:	48 8b 05 6f 34 01 00 	mov    0x1346f(%rip),%rax        # 1c6e8 <g_2061>
    9279:	48 8b 00             	mov    (%rax),%rax
    927c:	8b 10                	mov    (%rax),%edx
    927e:	48 8b 05 63 34 01 00 	mov    0x13463(%rip),%rax        # 1c6e8 <g_2061>
    9285:	48 8b 00             	mov    (%rax),%rax
    9288:	21 ca                	and    %ecx,%edx
    928a:	89 10                	mov    %edx,(%rax)
    928c:	48 8b 05 5d 34 01 00 	mov    0x1345d(%rip),%rax        # 1c6f0 <g_2060>
    9293:	48 8b 00             	mov    (%rax),%rax
    9296:	48 8b 00             	mov    (%rax),%rax
    9299:	c7 00 01 00 00 00    	movl   $0x1,(%rax)
    929f:	8b 00                	mov    (%rax),%eax
    92a1:	89 85 10 f9 ff ff    	mov    %eax,-0x6f0(%rbp)
    92a7:	48 8b 05 0a 35 01 00 	mov    0x1350a(%rip),%rax        # 1c7b8 <g_2587>
    92ae:	8b 95 10 f9 ff ff    	mov    -0x6f0(%rbp),%edx
    92b4:	89 10                	mov    %edx,(%rax)
    92b6:	0f b6 05 93 0a 01 00 	movzbl 0x10a93(%rip),%eax        # 19d50 <g_2596>
    92bd:	83 c0 01             	add    $0x1,%eax
    92c0:	88 05 8a 0a 01 00    	mov    %al,0x10a8a(%rip)        # 19d50 <g_2596>
    92c6:	48 8b 15 13 34 01 00 	mov    0x13413(%rip),%rdx        # 1c6e0 <g_2036>
    92cd:	48 8b 05 0c 34 01 00 	mov    0x1340c(%rip),%rax        # 1c6e0 <g_2036>
    92d4:	48 8b 12             	mov    (%rdx),%rdx
    92d7:	48 89 10             	mov    %rdx,(%rax)
    92da:	8b 05 f0 00 01 00    	mov    0x100f0(%rip),%eax        # 193d0 <g_605>
    92e0:	48 8b 5d c8          	mov    -0x38(%rbp),%rbx
    92e4:	64 48 33 1c 25 28 00 	xor    %fs:0x28,%rbx
    92eb:	00 00 
    92ed:	74 05                	je     92f4 <func_1+0xb3f>
    92ef:	e8 7c dd ff ff       	callq  7070 <__stack_chk_fail@plt>
    92f4:	48 81 c4 e8 09 00 00 	add    $0x9e8,%rsp
    92fb:	5b                   	pop    %rbx
    92fc:	41 5c                	pop    %r12
    92fe:	41 5d                	pop    %r13
    9300:	41 5e                	pop    %r14
    9302:	41 5f                	pop    %r15
    9304:	5d                   	pop    %rbp
    9305:	c3                   	retq   

0000000000009306 <func_2>:
    9306:	f3 0f 1e fa          	endbr64 
    930a:	55                   	push   %rbp
    930b:	48 89 e5             	mov    %rsp,%rbp
    930e:	41 56                	push   %r14
    9310:	41 55                	push   %r13
    9312:	41 54                	push   %r12
    9314:	53                   	push   %rbx
    9315:	48 81 ec 40 07 00 00 	sub    $0x740,%rsp
    931c:	89 f8                	mov    %edi,%eax
    931e:	48 89 b5 b0 f8 ff ff 	mov    %rsi,-0x750(%rbp)
    9325:	48 89 95 a8 f8 ff ff 	mov    %rdx,-0x758(%rbp)
    932c:	66 89 85 bc f8 ff ff 	mov    %ax,-0x744(%rbp)
    9333:	64 48 8b 04 25 28 00 	mov    %fs:0x28,%rax
    933a:	00 00 
    933c:	48 89 45 d8          	mov    %rax,-0x28(%rbp)
    9340:	31 c0                	xor    %eax,%eax
    9342:	c7 85 c4 f8 ff ff d2 	movl   $0xb13281d2,-0x73c(%rbp)
    9349:	81 32 b1 
    934c:	48 c7 85 c8 f8 ff ff 	movq   $0xfffffffffffffffd,-0x738(%rbp)
    9353:	fd ff ff ff 
    9357:	48 c7 85 d0 f8 ff ff 	movq   $0x0,-0x730(%rbp)
    935e:	00 00 00 00 
    9362:	48 8d 05 fb fc 00 00 	lea    0xfcfb(%rip),%rax        # 19064 <g_27>
    9369:	48 89 85 d8 f8 ff ff 	mov    %rax,-0x728(%rbp)
    9370:	48 8d 85 00 fc ff ff 	lea    -0x400(%rbp),%rax
    9377:	48 8d 15 42 9d 00 00 	lea    0x9d42(%rip),%rdx        # 130c0 <g_2035+0x18>
    937e:	b9 79 00 00 00       	mov    $0x79,%ecx
    9383:	48 89 c7             	mov    %rax,%rdi
    9386:	48 89 d6             	mov    %rdx,%rsi
    9389:	f3 48 a5             	rep movsq %ds:(%rsi),%es:(%rdi)
    938c:	48 89 f2             	mov    %rsi,%rdx
    938f:	48 89 f8             	mov    %rdi,%rax
    9392:	8b 0a                	mov    (%rdx),%ecx
    9394:	89 08                	mov    %ecx,(%rax)
    9396:	48 8d 40 04          	lea    0x4(%rax),%rax
    939a:	48 8d 52 04          	lea    0x4(%rdx),%rdx
    939e:	48 8d 85 00 f9 ff ff 	lea    -0x700(%rbp),%rax
    93a5:	48 8d 15 74 10 01 00 	lea    0x11074(%rip),%rdx        # 1a420 <g_2596+0x6d0>
    93ac:	b9 2d 00 00 00       	mov    $0x2d,%ecx
    93b1:	48 89 c7             	mov    %rax,%rdi
    93b4:	48 89 d6             	mov    %rdx,%rsi
    93b7:	f3 48 a5             	rep movsq %ds:(%rsi),%es:(%rdi)
    93ba:	48 c7 85 e0 f8 ff ff 	movq   $0x0,-0x720(%rbp)
    93c1:	00 00 00 00 
    93c5:	48 8d 05 a4 fc 00 00 	lea    0xfca4(%rip),%rax        # 19070 <g_35>
    93cc:	48 89 85 e8 f8 ff ff 	mov    %rax,-0x718(%rbp)
    93d3:	48 8d 05 06 26 01 00 	lea    0x12606(%rip),%rax        # 1b9e0 <g_39>
    93da:	48 89 85 f0 f8 ff ff 	mov    %rax,-0x710(%rbp)
    93e1:	48 8d 85 70 fa ff ff 	lea    -0x590(%rbp),%rax
    93e8:	48 8d 15 b1 11 01 00 	lea    0x111b1(%rip),%rdx        # 1a5a0 <g_2596+0x850>
    93ef:	b9 32 00 00 00       	mov    $0x32,%ecx
    93f4:	48 89 c7             	mov    %rax,%rdi
    93f7:	48 89 d6             	mov    %rdx,%rsi
    93fa:	f3 48 a5             	rep movsq %ds:(%rsi),%es:(%rdi)
    93fd:	48 8d 85 00 fc ff ff 	lea    -0x400(%rbp),%rax
    9404:	48 05 f4 01 00 00    	add    $0x1f4,%rax
    940a:	48 89 85 f8 f8 ff ff 	mov    %rax,-0x708(%rbp)
    9411:	8b 85 c4 f8 ff ff    	mov    -0x73c(%rbp),%eax
    9417:	88 05 39 fc 00 00    	mov    %al,0xfc39(%rip)        # 19056 <g_8+0x16>
    941d:	48 8b 05 14 08 01 00 	mov    0x10814(%rip),%rax        # 19c38 <g_2194+0x8>
    9424:	41 89 c6             	mov    %eax,%r14d
    9427:	48 8b 85 d8 f8 ff ff 	mov    -0x728(%rbp),%rax
    942e:	0f b7 10             	movzwl (%rax),%edx
    9431:	0f b6 05 1e fc 00 00 	movzbl 0xfc1e(%rip),%eax        # 19056 <g_8+0x16>
    9438:	66 98                	cbtw   
    943a:	31 c2                	xor    %eax,%edx
    943c:	48 8b 85 d8 f8 ff ff 	mov    -0x728(%rbp),%rax
    9443:	66 89 10             	mov    %dx,(%rax)
    9446:	48 8b 85 d8 f8 ff ff 	mov    -0x728(%rbp),%rax
    944d:	0f b7 00             	movzwl (%rax),%eax
    9450:	66 21 85 bc f8 ff ff 	and    %ax,-0x744(%rbp)
    9457:	0f bf 85 bc f8 ff ff 	movswl -0x744(%rbp),%eax
    945e:	89 85 6c fc ff ff    	mov    %eax,-0x394(%rbp)
    9464:	8b 9d 6c fc ff ff    	mov    -0x394(%rbp),%ebx
    946a:	48 c7 05 f3 fb 00 00 	movq   $0x0,0xfbf3(%rip)        # 19068 <g_32>
    9471:	00 00 00 00 
    9475:	48 83 bd c8 f8 ff ff 	cmpq   $0x0,-0x738(%rbp)
    947c:	00 
    947d:	0f 95 c0             	setne  %al
    9480:	0f b6 d0             	movzbl %al,%edx
    9483:	48 8b 85 e8 f8 ff ff 	mov    -0x718(%rbp),%rax
    948a:	8b 00                	mov    (%rax),%eax
    948c:	21 c2                	and    %eax,%edx
    948e:	48 8b 85 e8 f8 ff ff 	mov    -0x718(%rbp),%rax
    9495:	89 10                	mov    %edx,(%rax)
    9497:	48 8b 85 e8 f8 ff ff 	mov    -0x718(%rbp),%rax
    949e:	8b 00                	mov    (%rax),%eax
    94a0:	85 c0                	test   %eax,%eax
    94a2:	0f 95 c0             	setne  %al
    94a5:	0f b6 d0             	movzbl %al,%edx
    94a8:	8b 85 c4 f8 ff ff    	mov    -0x73c(%rbp),%eax
    94ae:	0f b7 c0             	movzwl %ax,%eax
    94b1:	89 d6                	mov    %edx,%esi
    94b3:	89 c7                	mov    %eax,%edi
    94b5:	e8 04 e9 ff ff       	callq  7dbe <safe_lshift_func_uint16_t_u_s>
    94ba:	0f b7 c0             	movzwl %ax,%eax
    94bd:	39 c3                	cmp    %eax,%ebx
    94bf:	0f 9e c0             	setle  %al
    94c2:	44 0f b6 e8          	movzbl %al,%r13d
    94c6:	8b 9d c4 f8 ff ff    	mov    -0x73c(%rbp),%ebx
    94cc:	48 8b 85 a8 f8 ff ff 	mov    -0x758(%rbp),%rax
    94d3:	44 0f b6 e0          	movzbl %al,%r12d
    94d7:	0f b6 05 78 fb 00 00 	movzbl 0xfb78(%rip),%eax        # 19056 <g_8+0x16>
    94de:	0f be c0             	movsbl %al,%eax
    94e1:	89 c6                	mov    %eax,%esi
    94e3:	bf 60 ba 00 00       	mov    $0xba60,%edi
    94e8:	e8 d1 e8 ff ff       	callq  7dbe <safe_lshift_func_uint16_t_u_s>
    94ed:	0f b6 c0             	movzbl %al,%eax
    94f0:	44 89 e6             	mov    %r12d,%esi
    94f3:	89 c7                	mov    %eax,%edi
    94f5:	e8 60 e6 ff ff       	callq  7b5a <safe_add_func_uint8_t_u_u>
    94fa:	0f be c0             	movsbl %al,%eax
    94fd:	89 de                	mov    %ebx,%esi
    94ff:	89 c7                	mov    %eax,%edi
    9501:	e8 9b dd ff ff       	callq  72a1 <safe_lshift_func_int8_t_s_s>
    9506:	8b 05 68 fb 00 00    	mov    0xfb68(%rip),%eax        # 19074 <g_40>
    950c:	48 98                	cltq   
    950e:	48 39 85 a8 f8 ff ff 	cmp    %rax,-0x758(%rbp)
    9515:	0f 96 c0             	setbe  %al
    9518:	0f b6 d0             	movzbl %al,%edx
    951b:	48 8b 05 be 24 01 00 	mov    0x124be(%rip),%rax        # 1b9e0 <g_39>
    9522:	89 d6                	mov    %edx,%esi
    9524:	48 89 c7             	mov    %rax,%rdi
    9527:	e8 8f 17 00 00       	callq  acbb <func_36>
    952c:	49 39 c5             	cmp    %rax,%r13
    952f:	0f 9f c0             	setg   %al
    9532:	0f b6 d0             	movzbl %al,%edx
    9535:	48 8b 05 34 25 01 00 	mov    0x12534(%rip),%rax        # 1ba70 <g_734>
    953c:	8b 00                	mov    (%rax),%eax
    953e:	39 c2                	cmp    %eax,%edx
    9540:	0f 93 c0             	setae  %al
    9543:	0f b6 c8             	movzbl %al,%ecx
    9546:	48 8b 85 c8 f8 ff ff 	mov    -0x738(%rbp),%rax
    954d:	98                   	cwtl   
    954e:	48 8b 95 b0 f8 ff ff 	mov    -0x750(%rbp),%rdx
    9555:	89 ce                	mov    %ecx,%esi
    9557:	89 c7                	mov    %eax,%edi
    9559:	e8 b0 16 00 00       	callq  ac0e <func_20>
    955e:	48 8d 35 73 02 01 00 	lea    0x10273(%rip),%rsi        # 197d8 <g_1666>
    9565:	48 89 c7             	mov    %rax,%rdi
    9568:	e8 f3 15 00 00       	callq  ab60 <func_17>
    956d:	48 8b 95 f0 f8 ff ff 	mov    -0x710(%rbp),%rdx
    9574:	48 89 02             	mov    %rax,(%rdx)
    9577:	48 8b 85 f0 f8 ff ff 	mov    -0x710(%rbp),%rax
    957e:	48 8b 00             	mov    (%rax),%rax
    9581:	48 89 c7             	mov    %rax,%rdi
    9584:	e8 06 0a 00 00       	callq  9f8f <func_15>
    9589:	48 89 c7             	mov    %rax,%rdi
    958c:	48 8b 8d b0 f8 ff ff 	mov    -0x750(%rbp),%rcx
    9593:	8b 95 c4 f8 ff ff    	mov    -0x73c(%rbp),%edx
    9599:	48 8b 85 e8 f8 ff ff 	mov    -0x718(%rbp),%rax
    95a0:	49 89 c8             	mov    %rcx,%r8
    95a3:	89 d1                	mov    %edx,%ecx
    95a5:	44 89 f2             	mov    %r14d,%edx
    95a8:	48 89 c6             	mov    %rax,%rsi
    95ab:	e8 32 00 00 00       	callq  95e2 <func_9>
    95b0:	48 89 85 f8 f8 ff ff 	mov    %rax,-0x708(%rbp)
    95b7:	48 8b 85 a8 f8 ff ff 	mov    -0x758(%rbp),%rax
    95be:	48 8b 5d d8          	mov    -0x28(%rbp),%rbx
    95c2:	64 48 33 1c 25 28 00 	xor    %fs:0x28,%rbx
    95c9:	00 00 
    95cb:	74 05                	je     95d2 <func_2+0x2cc>
    95cd:	e8 9e da ff ff       	callq  7070 <__stack_chk_fail@plt>
    95d2:	48 81 c4 40 07 00 00 	add    $0x740,%rsp
    95d9:	5b                   	pop    %rbx
    95da:	41 5c                	pop    %r12
    95dc:	41 5d                	pop    %r13
    95de:	41 5e                	pop    %r14
    95e0:	5d                   	pop    %rbp
    95e1:	c3                   	retq   

00000000000095e2 <func_9>:
    95e2:	f3 0f 1e fa          	endbr64 
    95e6:	55                   	push   %rbp
    95e7:	48 89 e5             	mov    %rsp,%rbp
    95ea:	41 57                	push   %r15
    95ec:	41 56                	push   %r14
    95ee:	41 55                	push   %r13
    95f0:	41 54                	push   %r12
    95f2:	53                   	push   %rbx
    95f3:	48 81 ec e8 07 00 00 	sub    $0x7e8,%rsp
    95fa:	48 89 bd 18 f8 ff ff 	mov    %rdi,-0x7e8(%rbp)
    9601:	48 89 b5 10 f8 ff ff 	mov    %rsi,-0x7f0(%rbp)
    9608:	89 95 0c f8 ff ff    	mov    %edx,-0x7f4(%rbp)
    960e:	89 8d 08 f8 ff ff    	mov    %ecx,-0x7f8(%rbp)
    9614:	4c 89 85 00 f8 ff ff 	mov    %r8,-0x800(%rbp)
    961b:	64 48 8b 04 25 28 00 	mov    %fs:0x28,%rax
    9622:	00 00 
    9624:	48 89 45 c8          	mov    %rax,-0x38(%rbp)
    9628:	31 c0                	xor    %eax,%eax
    962a:	48 8d 85 e0 fc ff ff 	lea    -0x320(%rbp),%rax
    9631:	48 8d 15 68 9e 00 00 	lea    0x9e68(%rip),%rdx        # 134a0 <g_2035+0x3f8>
    9638:	b9 5a 00 00 00       	mov    $0x5a,%ecx
    963d:	48 89 c7             	mov    %rax,%rdi
    9640:	48 89 d6             	mov    %rdx,%rsi
    9643:	f3 48 a5             	rep movsq %ds:(%rsi),%es:(%rdi)
    9646:	c7 85 28 f8 ff ff 96 	movl   $0xd4301b96,-0x7d8(%rbp)
    964d:	1b 30 d4 
    9650:	48 8d 05 2d 02 01 00 	lea    0x1022d(%rip),%rax        # 19884 <g_1852+0x64>
    9657:	48 89 85 70 f8 ff ff 	mov    %rax,-0x790(%rbp)
    965e:	48 8d 05 93 30 01 00 	lea    0x13093(%rip),%rax        # 1c6f8 <g_2081>
    9665:	48 89 85 78 f8 ff ff 	mov    %rax,-0x788(%rbp)
    966c:	48 8d 05 c5 30 01 00 	lea    0x130c5(%rip),%rax        # 1c738 <g_2228>
    9673:	48 89 85 80 f8 ff ff 	mov    %rax,-0x780(%rbp)
    967a:	c7 85 34 f8 ff ff 01 	movl   $0x1,-0x7cc(%rbp)
    9681:	00 00 00 
    9684:	c7 85 38 f8 ff ff 8b 	movl   $0x538c678b,-0x7c8(%rbp)
    968b:	67 8c 53 
    968e:	48 c7 85 88 f8 ff ff 	movq   $0x0,-0x778(%rbp)
    9695:	00 00 00 00 
    9699:	c7 85 3c f8 ff ff 69 	movl   $0x46d06f69,-0x7c4(%rbp)
    96a0:	6f d0 46 
    96a3:	48 c7 85 68 f8 ff ff 	movq   $0xffffffffffffffff,-0x798(%rbp)
    96aa:	ff ff ff ff 
    96ae:	48 c7 85 10 f9 ff ff 	movq   $0x0,-0x6f0(%rbp)
    96b5:	00 00 00 00 
    96b9:	48 8d 85 ac f8 ff ff 	lea    -0x754(%rbp),%rax
    96c0:	48 89 85 18 f9 ff ff 	mov    %rax,-0x6e8(%rbp)
    96c7:	48 c7 85 20 f9 ff ff 	movq   $0x0,-0x6e0(%rbp)
    96ce:	00 00 00 00 
    96d2:	48 8d 85 ac f8 ff ff 	lea    -0x754(%rbp),%rax
    96d9:	48 89 85 28 f9 ff ff 	mov    %rax,-0x6d8(%rbp)
    96e0:	48 8d 05 39 36 01 00 	lea    0x13639(%rip),%rax        # 1cd20 <g_506>
    96e7:	48 89 85 30 f9 ff ff 	mov    %rax,-0x6d0(%rbp)
    96ee:	48 8d 85 ac f8 ff ff 	lea    -0x754(%rbp),%rax
    96f5:	48 89 85 38 f9 ff ff 	mov    %rax,-0x6c8(%rbp)
    96fc:	48 c7 85 40 f9 ff ff 	movq   $0x0,-0x6c0(%rbp)
    9703:	00 00 00 00 
    9707:	48 8d 85 ac f8 ff ff 	lea    -0x754(%rbp),%rax
    970e:	48 89 85 48 f9 ff ff 	mov    %rax,-0x6b8(%rbp)
    9715:	48 c7 85 50 f9 ff ff 	movq   $0x0,-0x6b0(%rbp)
    971c:	00 00 00 00 
    9720:	48 8d 85 ac f8 ff ff 	lea    -0x754(%rbp),%rax
    9727:	48 89 85 58 f9 ff ff 	mov    %rax,-0x6a8(%rbp)
    972e:	48 8d 05 eb 35 01 00 	lea    0x135eb(%rip),%rax        # 1cd20 <g_506>
    9735:	48 89 85 60 f9 ff ff 	mov    %rax,-0x6a0(%rbp)
    973c:	48 8d 85 ac f8 ff ff 	lea    -0x754(%rbp),%rax
    9743:	48 89 85 68 f9 ff ff 	mov    %rax,-0x698(%rbp)
    974a:	48 c7 85 70 f9 ff ff 	movq   $0x0,-0x690(%rbp)
    9751:	00 00 00 00 
    9755:	48 8d 85 ac f8 ff ff 	lea    -0x754(%rbp),%rax
    975c:	48 89 85 78 f9 ff ff 	mov    %rax,-0x688(%rbp)
    9763:	48 c7 85 80 f9 ff ff 	movq   $0x0,-0x680(%rbp)
    976a:	00 00 00 00 
    976e:	48 8d 85 ac f8 ff ff 	lea    -0x754(%rbp),%rax
    9775:	48 89 85 88 f9 ff ff 	mov    %rax,-0x678(%rbp)
    977c:	48 8d 05 9d 35 01 00 	lea    0x1359d(%rip),%rax        # 1cd20 <g_506>
    9783:	48 89 85 90 f9 ff ff 	mov    %rax,-0x670(%rbp)
    978a:	48 8d 85 ac f8 ff ff 	lea    -0x754(%rbp),%rax
    9791:	48 89 85 98 f9 ff ff 	mov    %rax,-0x668(%rbp)
    9798:	c7 85 2c f8 ff ff 00 	movl   $0x0,-0x7d4(%rbp)
    979f:	00 00 00 
    97a2:	eb 1a                	jmp    97be <func_9+0x1dc>
    97a4:	8b 85 2c f8 ff ff    	mov    -0x7d4(%rbp),%eax
    97aa:	48 98                	cltq   
    97ac:	c7 84 85 ac f8 ff ff 	movl   $0xfffffffd,-0x754(%rbp,%rax,4)
    97b3:	fd ff ff ff 
    97b7:	83 85 2c f8 ff ff 01 	addl   $0x1,-0x7d4(%rbp)
    97be:	83 bd 2c f8 ff ff 00 	cmpl   $0x0,-0x7d4(%rbp)
    97c5:	7e dd                	jle    97a4 <func_9+0x1c2>
    97c7:	48 8b 85 00 f8 ff ff 	mov    -0x800(%rbp),%rax
    97ce:	8b 00                	mov    (%rax),%eax
    97d0:	85 c0                	test   %eax,%eax
    97d2:	0f 84 4c 01 00 00    	je     9924 <func_9+0x342>
    97d8:	44 8b a5 08 f8 ff ff 	mov    -0x7f8(%rbp),%r12d
    97df:	48 8b 85 70 fd ff ff 	mov    -0x290(%rbp),%rax
    97e6:	be 06 00 00 00       	mov    $0x6,%esi
    97eb:	48 89 c7             	mov    %rax,%rdi
    97ee:	e8 8d e8 ff ff       	callq  8080 <safe_mod_func_uint64_t_u_u>
    97f3:	98                   	cwtl   
    97f4:	be ff ff ff ff       	mov    $0xffffffff,%esi
    97f9:	89 c7                	mov    %eax,%edi
    97fb:	e8 f5 db ff ff       	callq  73f5 <safe_mul_func_int16_t_s_s>
    9800:	48 8b 9d d0 fd ff ff 	mov    -0x230(%rbp),%rbx
    9807:	48 8b 85 70 f8 ff ff 	mov    -0x790(%rbp),%rax
    980e:	66 c7 00 f7 ff       	movw   $0xfff7,(%rax)
    9813:	48 8b 85 b8 fe ff ff 	mov    -0x148(%rbp),%rax
    981a:	0f bf d0             	movswl %ax,%edx
    981d:	48 8b 85 18 fd ff ff 	mov    -0x2e8(%rbp),%rax
    9824:	09 85 28 f8 ff ff    	or     %eax,-0x7d8(%rbp)
    982a:	8b 85 28 f8 ff ff    	mov    -0x7d8(%rbp),%eax
    9830:	98                   	cwtl   
    9831:	89 d6                	mov    %edx,%esi
    9833:	89 c7                	mov    %eax,%edi
    9835:	e8 99 db ff ff       	callq  73d3 <safe_sub_func_int16_t_s_s>
    983a:	0f b6 c0             	movzbl %al,%eax
    983d:	be 00 00 00 00       	mov    $0x0,%esi
    9842:	89 c7                	mov    %eax,%edi
    9844:	e8 bc e3 ff ff       	callq  7c05 <safe_lshift_func_uint8_t_u_s>
    9849:	0f b6 d0             	movzbl %al,%edx
    984c:	48 8b 05 cd 2e 01 00 	mov    0x12ecd(%rip),%rax        # 1c720 <g_2103>
    9853:	48 8b 00             	mov    (%rax),%rax
    9856:	48 85 c0             	test   %rax,%rax
    9859:	0f 95 c0             	setne  %al
    985c:	0f b6 c0             	movzbl %al,%eax
    985f:	48 8b 8d 18 fd ff ff 	mov    -0x2e8(%rbp),%rcx
    9866:	31 c8                	xor    %ecx,%eax
    9868:	98                   	cwtl   
    9869:	89 d6                	mov    %edx,%esi
    986b:	89 c7                	mov    %eax,%edi
    986d:	e8 b8 dc ff ff       	callq  752a <safe_rshift_func_int16_t_s_s>
    9872:	66 83 f8 f7          	cmp    $0xfff7,%ax
    9876:	0f 94 c0             	sete   %al
    9879:	0f b6 c0             	movzbl %al,%eax
    987c:	48 89 de             	mov    %rbx,%rsi
    987f:	48 89 c7             	mov    %rax,%rdi
    9882:	e8 70 e1 ff ff       	callq  79f7 <safe_div_func_int64_t_s_s>
    9887:	8b 95 0c f8 ff ff    	mov    -0x7f4(%rbp),%edx
    988d:	48 21 d0             	and    %rdx,%rax
    9890:	49 39 c4             	cmp    %rax,%r12
    9893:	0f 8d 8b 00 00 00    	jge    9924 <func_9+0x342>
    9899:	48 8d 05 39 fa 00 00 	lea    0xfa39(%rip),%rax        # 192d9 <g_164+0x19>
    98a0:	48 89 85 90 f8 ff ff 	mov    %rax,-0x770(%rbp)
    98a7:	48 8b 85 90 f8 ff ff 	mov    -0x770(%rbp),%rax
    98ae:	0f b6 00             	movzbl (%rax),%eax
    98b1:	8d 48 ff             	lea    -0x1(%rax),%ecx
    98b4:	48 8b 95 90 f8 ff ff 	mov    -0x770(%rbp),%rdx
    98bb:	88 0a                	mov    %cl,(%rdx)
    98bd:	0f b6 d8             	movzbl %al,%ebx
    98c0:	48 83 bd 78 f8 ff ff 	cmpq   $0x0,-0x788(%rbp)
    98c7:	00 
    98c8:	0f 94 c0             	sete   %al
    98cb:	0f b6 c0             	movzbl %al,%eax
    98ce:	be 01 00 00 00       	mov    $0x1,%esi
    98d3:	89 c7                	mov    %eax,%edi
    98d5:	e8 b9 e2 ff ff       	callq  7b93 <safe_mul_func_uint8_t_u_u>
    98da:	84 c0                	test   %al,%al
    98dc:	75 0d                	jne    98eb <func_9+0x309>
    98de:	48 8b 05 8b 21 01 00 	mov    0x1218b(%rip),%rax        # 1ba70 <g_734>
    98e5:	8b 00                	mov    (%rax),%eax
    98e7:	85 c0                	test   %eax,%eax
    98e9:	74 07                	je     98f2 <func_9+0x310>
    98eb:	b8 01 00 00 00       	mov    $0x1,%eax
    98f0:	eb 05                	jmp    98f7 <func_9+0x315>
    98f2:	b8 00 00 00 00       	mov    $0x0,%eax
    98f7:	21 d8                	and    %ebx,%eax
    98f9:	89 c2                	mov    %eax,%edx
    98fb:	48 8b 85 18 f8 ff ff 	mov    -0x7e8(%rbp),%rax
    9902:	89 10                	mov    %edx,(%rax)
    9904:	48 8b 05 f5 2d 01 00 	mov    0x12df5(%rip),%rax        # 1c700 <g_2080>
    990b:	48 8b 10             	mov    (%rax),%rdx
    990e:	48 8b 85 78 f8 ff ff 	mov    -0x788(%rbp),%rax
    9915:	48 89 10             	mov    %rdx,(%rax)
    9918:	48 8b 05 41 2e 01 00 	mov    0x12e41(%rip),%rax        # 1c760 <g_2412>
    991f:	e9 45 06 00 00       	jmpq   9f69 <func_9+0x987>
    9924:	48 8b 85 18 f8 ff ff 	mov    -0x7e8(%rbp),%rax
    992b:	8b 00                	mov    (%rax),%eax
    992d:	83 c8 05             	or     $0x5,%eax
    9930:	89 c2                	mov    %eax,%edx
    9932:	48 8b 85 18 f8 ff ff 	mov    -0x7e8(%rbp),%rax
    9939:	89 10                	mov    %edx,(%rax)
    993b:	8b 85 28 f8 ff ff    	mov    -0x7d8(%rbp),%eax
    9941:	0f be d8             	movsbl %al,%ebx
    9944:	48 8b 85 18 fd ff ff 	mov    -0x2e8(%rbp),%rax
    994b:	44 0f bf e0          	movswl %ax,%r12d
    994f:	48 83 bd 80 f8 ff ff 	cmpq   $0x0,-0x780(%rbp)
    9956:	00 
    9957:	0f 94 c0             	sete   %al
    995a:	0f b6 d0             	movzbl %al,%edx
    995d:	48 8b 85 18 f8 ff ff 	mov    -0x7e8(%rbp),%rax
    9964:	89 10                	mov    %edx,(%rax)
    9966:	48 8b 05 c3 20 01 00 	mov    0x120c3(%rip),%rax        # 1ba30 <g_149>
    996d:	48 8b 00             	mov    (%rax),%rax
    9970:	8b 00                	mov    (%rax),%eax
    9972:	85 c0                	test   %eax,%eax
    9974:	74 1a                	je     9990 <func_9+0x3ae>
    9976:	48 8b 85 18 fd ff ff 	mov    -0x2e8(%rbp),%rax
    997d:	be 01 00 00 00       	mov    $0x1,%esi
    9982:	89 c7                	mov    %eax,%edi
    9984:	e8 2d dc ff ff       	callq  75b6 <safe_add_func_int32_t_s_s>
    9989:	83 bd 0c f8 ff ff 00 	cmpl   $0x0,-0x7f4(%rbp)
    9990:	83 bd 0c f8 ff ff 00 	cmpl   $0x0,-0x7f4(%rbp)
    9997:	0f 95 c2             	setne  %dl
    999a:	48 8b 45 90          	mov    -0x70(%rbp),%rax
    999e:	48 c1 e8 3f          	shr    $0x3f,%rax
    99a2:	21 d0                	and    %edx,%eax
    99a4:	0f b6 d0             	movzbl %al,%edx
    99a7:	8b 85 ac f8 ff ff    	mov    -0x754(%rbp),%eax
    99ad:	09 d0                	or     %edx,%eax
    99af:	89 85 ac f8 ff ff    	mov    %eax,-0x754(%rbp)
    99b5:	8b 85 ac f8 ff ff    	mov    -0x754(%rbp),%eax
    99bb:	98                   	cwtl   
    99bc:	44 89 e6             	mov    %r12d,%esi
    99bf:	89 c7                	mov    %eax,%edi
    99c1:	e8 ed d9 ff ff       	callq  73b3 <safe_add_func_int16_t_s_s>
    99c6:	98                   	cwtl   
    99c7:	25 c4 24 2c ff       	and    $0xff2c24c4,%eax
    99cc:	89 85 34 f8 ff ff    	mov    %eax,-0x7cc(%rbp)
    99d2:	c7 85 38 f8 ff ff 01 	movl   $0x1,-0x7c8(%rbp)
    99d9:	00 00 00 
    99dc:	b8 01 00 00 00       	mov    $0x1,%eax
    99e1:	89 c2                	mov    %eax,%edx
    99e3:	8b 85 0c f8 ff ff    	mov    -0x7f4(%rbp),%eax
    99e9:	09 d0                	or     %edx,%eax
    99eb:	0f be c0             	movsbl %al,%eax
    99ee:	89 de                	mov    %ebx,%esi
    99f0:	89 c7                	mov    %eax,%edi
    99f2:	e8 73 d8 ff ff       	callq  726a <safe_div_func_int8_t_s_s>
    99f7:	0f be c8             	movsbl %al,%ecx
    99fa:	8b 85 28 f8 ff ff    	mov    -0x7d8(%rbp),%eax
    9a00:	98                   	cwtl   
    9a01:	48 8b 15 e8 29 01 00 	mov    0x129e8(%rip),%rdx        # 1c3f0 <g_1159>
    9a08:	48 8b 1a             	mov    (%rdx),%rbx
    9a0b:	48 8b 95 10 f8 ff ff 	mov    -0x7f0(%rbp),%rdx
    9a12:	89 ce                	mov    %ecx,%esi
    9a14:	89 c7                	mov    %eax,%edi
    9a16:	e8 f3 11 00 00       	callq  ac0e <func_20>
    9a1b:	48 89 03             	mov    %rax,(%rbx)
    9a1e:	83 bd 28 f8 ff ff 00 	cmpl   $0x0,-0x7d8(%rbp)
    9a25:	0f 84 fa 04 00 00    	je     9f25 <func_9+0x943>
    9a2b:	48 8d 85 60 fa ff ff 	lea    -0x5a0(%rbp),%rax
    9a32:	48 8d 15 47 9d 00 00 	lea    0x9d47(%rip),%rdx        # 13780 <g_2035+0x6d8>
    9a39:	b9 50 00 00 00       	mov    $0x50,%ecx
    9a3e:	48 89 c7             	mov    %rax,%rdi
    9a41:	48 89 d6             	mov    %rdx,%rsi
    9a44:	f3 48 a5             	rep movsq %ds:(%rsi),%es:(%rdi)
    9a47:	c7 85 40 f8 ff ff 02 	movl   $0x2,-0x7c0(%rbp)
    9a4e:	00 00 00 
    9a51:	c7 85 44 f8 ff ff ca 	movl   $0xc4b8a8ca,-0x7bc(%rbp)
    9a58:	a8 b8 c4 
    9a5b:	c7 85 48 f8 ff ff 00 	movl   $0x0,-0x7b8(%rbp)
    9a62:	00 00 00 
    9a65:	c7 85 4c f8 ff ff f6 	movl   $0xfffffff6,-0x7b4(%rbp)
    9a6c:	ff ff ff 
    9a6f:	c7 85 50 f8 ff ff 0b 	movl   $0x95f22f0b,-0x7b0(%rbp)
    9a76:	2f f2 95 
    9a79:	c7 85 54 f8 ff ff ff 	movl   $0xffffffff,-0x7ac(%rbp)
    9a80:	ff ff ff 
    9a83:	c7 85 58 f8 ff ff 23 	movl   $0xb70db723,-0x7a8(%rbp)
    9a8a:	b7 0d b7 
    9a8d:	c7 85 5c f8 ff ff b3 	movl   $0xeed692b3,-0x7a4(%rbp)
    9a94:	92 d6 ee 
    9a97:	c7 85 60 f8 ff ff fe 	movl   $0xfffffffe,-0x7a0(%rbp)
    9a9e:	ff ff ff 
    9aa1:	48 c7 05 e4 f8 00 00 	movq   $0xfffffffffffffff5,0xf8e4(%rip)        # 19390 <g_417>
    9aa8:	f5 ff ff ff 
    9aac:	e9 61 04 00 00       	jmpq   9f12 <func_9+0x930>
    9ab1:	48 8d 05 c0 fb 00 00 	lea    0xfbc0(%rip),%rax        # 19678 <g_1430+0x8>
    9ab8:	48 89 85 98 f8 ff ff 	mov    %rax,-0x768(%rbp)
    9abf:	48 c7 85 a0 f8 ff ff 	movq   $0x0,-0x760(%rbp)
    9ac6:	00 00 00 00 
    9aca:	c7 85 64 f8 ff ff d3 	movl   $0x4f6eb7d3,-0x79c(%rbp)
    9ad1:	b7 6e 4f 
    9ad4:	48 8d 85 ac f8 ff ff 	lea    -0x754(%rbp),%rax
    9adb:	48 89 85 b0 f8 ff ff 	mov    %rax,-0x750(%rbp)
    9ae2:	48 8d 85 ac f8 ff ff 	lea    -0x754(%rbp),%rax
    9ae9:	48 89 85 b8 f8 ff ff 	mov    %rax,-0x748(%rbp)
    9af0:	48 8d 85 ac f8 ff ff 	lea    -0x754(%rbp),%rax
    9af7:	48 89 85 c0 f8 ff ff 	mov    %rax,-0x740(%rbp)
    9afe:	48 8d 85 ac f8 ff ff 	lea    -0x754(%rbp),%rax
    9b05:	48 89 85 c8 f8 ff ff 	mov    %rax,-0x738(%rbp)
    9b0c:	48 8d 85 ac f8 ff ff 	lea    -0x754(%rbp),%rax
    9b13:	48 89 85 d0 f8 ff ff 	mov    %rax,-0x730(%rbp)
    9b1a:	48 8d 85 ac f8 ff ff 	lea    -0x754(%rbp),%rax
    9b21:	48 89 85 d8 f8 ff ff 	mov    %rax,-0x728(%rbp)
    9b28:	48 8d 85 ac f8 ff ff 	lea    -0x754(%rbp),%rax
    9b2f:	48 89 85 e0 f8 ff ff 	mov    %rax,-0x720(%rbp)
    9b36:	48 8d 85 ac f8 ff ff 	lea    -0x754(%rbp),%rax
    9b3d:	48 89 85 e8 f8 ff ff 	mov    %rax,-0x718(%rbp)
    9b44:	48 8d 85 ac f8 ff ff 	lea    -0x754(%rbp),%rax
    9b4b:	48 89 85 f0 f8 ff ff 	mov    %rax,-0x710(%rbp)
    9b52:	48 8d 85 ac f8 ff ff 	lea    -0x754(%rbp),%rax
    9b59:	48 89 85 f8 f8 ff ff 	mov    %rax,-0x708(%rbp)
    9b60:	48 c7 85 00 f9 ff ff 	movq   $0x0,-0x700(%rbp)
    9b67:	00 00 00 00 
    9b6b:	48 8d 85 ac f8 ff ff 	lea    -0x754(%rbp),%rax
    9b72:	48 89 85 08 f9 ff ff 	mov    %rax,-0x6f8(%rbp)
    9b79:	48 c7 85 a0 f9 ff ff 	movq   $0x0,-0x660(%rbp)
    9b80:	00 00 00 00 
    9b84:	48 b8 16 f7 6a 63 2f 	movabs $0xa2772f636af716,%rax
    9b8b:	77 a2 00 
    9b8e:	48 89 85 a8 f9 ff ff 	mov    %rax,-0x658(%rbp)
    9b95:	48 89 85 b0 f9 ff ff 	mov    %rax,-0x650(%rbp)
    9b9c:	48 c7 85 b8 f9 ff ff 	movq   $0x4,-0x648(%rbp)
    9ba3:	04 00 00 00 
    9ba7:	48 c7 85 c0 f9 ff ff 	movq   $0x0,-0x640(%rbp)
    9bae:	00 00 00 00 
    9bb2:	48 bb 7e dc f5 d6 60 	movabs $0x682df160d6f5dc7e,%rbx
    9bb9:	f1 2d 68 
    9bbc:	48 89 9d c8 f9 ff ff 	mov    %rbx,-0x638(%rbp)
    9bc3:	48 c7 85 d0 f9 ff ff 	movq   $0x0,-0x630(%rbp)
    9bca:	00 00 00 00 
    9bce:	48 89 85 d8 f9 ff ff 	mov    %rax,-0x628(%rbp)
    9bd5:	48 89 85 e0 f9 ff ff 	mov    %rax,-0x620(%rbp)
    9bdc:	48 c7 85 e8 f9 ff ff 	movq   $0x4,-0x618(%rbp)
    9be3:	04 00 00 00 
    9be7:	48 c7 85 f0 f9 ff ff 	movq   $0x0,-0x610(%rbp)
    9bee:	00 00 00 00 
    9bf2:	48 89 9d f8 f9 ff ff 	mov    %rbx,-0x608(%rbp)
    9bf9:	48 c7 85 00 fa ff ff 	movq   $0x0,-0x600(%rbp)
    9c00:	00 00 00 00 
    9c04:	48 89 85 08 fa ff ff 	mov    %rax,-0x5f8(%rbp)
    9c0b:	48 89 85 10 fa ff ff 	mov    %rax,-0x5f0(%rbp)
    9c12:	48 c7 85 18 fa ff ff 	movq   $0x4,-0x5e8(%rbp)
    9c19:	04 00 00 00 
    9c1d:	48 c7 85 20 fa ff ff 	movq   $0x0,-0x5e0(%rbp)
    9c24:	00 00 00 00 
    9c28:	48 89 9d 28 fa ff ff 	mov    %rbx,-0x5d8(%rbp)
    9c2f:	48 c7 85 30 fa ff ff 	movq   $0x0,-0x5d0(%rbp)
    9c36:	00 00 00 00 
    9c3a:	48 89 85 38 fa ff ff 	mov    %rax,-0x5c8(%rbp)
    9c41:	48 89 85 40 fa ff ff 	mov    %rax,-0x5c0(%rbp)
    9c48:	48 c7 85 48 fa ff ff 	movq   $0x4,-0x5b8(%rbp)
    9c4f:	04 00 00 00 
    9c53:	48 c7 85 50 fa ff ff 	movq   $0x0,-0x5b0(%rbp)
    9c5a:	00 00 00 00 
    9c5e:	48 89 9d 58 fa ff ff 	mov    %rbx,-0x5a8(%rbp)
    9c65:	c7 85 30 f8 ff ff 00 	movl   $0x0,-0x7d0(%rbp)
    9c6c:	00 00 00 
    9c6f:	eb 14                	jmp    9c85 <func_9+0x6a3>
    9c71:	8b 85 30 f8 ff ff    	mov    -0x7d0(%rbp),%eax
    9c77:	48 98                	cltq   
    9c79:	c6 44 05 be 00       	movb   $0x0,-0x42(%rbp,%rax,1)
    9c7e:	83 85 30 f8 ff ff 01 	addl   $0x1,-0x7d0(%rbp)
    9c85:	83 bd 30 f8 ff ff 09 	cmpl   $0x9,-0x7d0(%rbp)
    9c8c:	7e e3                	jle    9c71 <func_9+0x68f>
    9c8e:	0f b6 45 c5          	movzbl -0x3b(%rbp),%eax
    9c92:	0f b6 d8             	movzbl %al,%ebx
    9c95:	44 8b a5 0c f8 ff ff 	mov    -0x7f4(%rbp),%r12d
    9c9c:	44 8b ad 38 f8 ff ff 	mov    -0x7c8(%rbp),%r13d
    9ca3:	0f b7 05 aa ff 00 00 	movzwl 0xffaa(%rip),%eax        # 19c54 <g_2204+0x4>
    9caa:	44 0f be f0          	movsbl %al,%r14d
    9cae:	48 8b 85 80 fb ff ff 	mov    -0x480(%rbp),%rax
    9cb5:	44 0f b6 f8          	movzbl %al,%r15d
    9cb9:	48 c7 85 88 f8 ff ff 	movq   $0x0,-0x778(%rbp)
    9cc0:	00 00 00 00 
    9cc4:	83 bd 38 f8 ff ff 00 	cmpl   $0x0,-0x7c8(%rbp)
    9ccb:	0f 95 c0             	setne  %al
    9cce:	88 85 ff f7 ff ff    	mov    %al,-0x801(%rbp)
    9cd4:	8b 85 ac f8 ff ff    	mov    -0x754(%rbp),%eax
    9cda:	89 85 f8 f7 ff ff    	mov    %eax,-0x808(%rbp)
    9ce0:	48 8b 85 98 f8 ff ff 	mov    -0x768(%rbp),%rax
    9ce7:	48 8b 00             	mov    (%rax),%rax
    9cea:	48 8d 50 ff          	lea    -0x1(%rax),%rdx
    9cee:	48 8b 85 98 f8 ff ff 	mov    -0x768(%rbp),%rax
    9cf5:	48 89 10             	mov    %rdx,(%rax)
    9cf8:	48 8b 85 98 f8 ff ff 	mov    -0x768(%rbp),%rax
    9cff:	48 8b 00             	mov    (%rax),%rax
    9d02:	48 85 c0             	test   %rax,%rax
    9d05:	75 47                	jne    9d4e <func_9+0x76c>
    9d07:	8b 85 0c f8 ff ff    	mov    -0x7f4(%rbp),%eax
    9d0d:	0f be c0             	movsbl %al,%eax
    9d10:	89 85 f4 f7 ff ff    	mov    %eax,-0x80c(%rbp)
    9d16:	8b 85 ac f8 ff ff    	mov    -0x754(%rbp),%eax
    9d1c:	89 c2                	mov    %eax,%edx
    9d1e:	8b 85 0c f8 ff ff    	mov    -0x7f4(%rbp),%eax
    9d24:	09 d0                	or     %edx,%eax
    9d26:	98                   	cwtl   
    9d27:	be 06 00 00 00       	mov    $0x6,%esi
    9d2c:	89 c7                	mov    %eax,%edi
    9d2e:	e8 ae d7 ff ff       	callq  74e1 <safe_lshift_func_int16_t_s_u>
    9d33:	66 83 f8 07          	cmp    $0x7,%ax
    9d37:	0f 9e c0             	setle  %al
    9d3a:	0f b6 c0             	movzbl %al,%eax
    9d3d:	8b b5 f4 f7 ff ff    	mov    -0x80c(%rbp),%esi
    9d43:	89 c7                	mov    %eax,%edi
    9d45:	e8 a8 d4 ff ff       	callq  71f2 <safe_sub_func_int8_t_s_s>
    9d4a:	84 c0                	test   %al,%al
    9d4c:	74 07                	je     9d55 <func_9+0x773>
    9d4e:	b8 01 00 00 00       	mov    $0x1,%eax
    9d53:	eb 05                	jmp    9d5a <func_9+0x778>
    9d55:	b8 00 00 00 00       	mov    $0x0,%eax
    9d5a:	8b b5 f8 f7 ff ff    	mov    -0x808(%rbp),%esi
    9d60:	89 c7                	mov    %eax,%edi
    9d62:	e8 69 e1 ff ff       	callq  7ed0 <safe_sub_func_uint32_t_u_u>
    9d67:	22 85 ff f7 ff ff    	and    -0x801(%rbp),%al
    9d6d:	0f b6 c0             	movzbl %al,%eax
    9d70:	be e6 00 00 00       	mov    $0xe6,%esi
    9d75:	89 c7                	mov    %eax,%edi
    9d77:	e8 fc dd ff ff       	callq  7b78 <safe_sub_func_uint8_t_u_u>
    9d7c:	48 8b 05 65 1c 01 00 	mov    0x11c65(%rip),%rax        # 1b9e8 <g_77>
    9d83:	48 8b 00             	mov    (%rax),%rax
    9d86:	0f b6 45 c0          	movzbl -0x40(%rbp),%eax
    9d8a:	0f b6 c0             	movzbl %al,%eax
    9d8d:	8b 95 ac f8 ff ff    	mov    -0x754(%rbp),%edx
    9d93:	09 d0                	or     %edx,%eax
    9d95:	98                   	cwtl   
    9d96:	be 0d 00 00 00       	mov    $0xd,%esi
    9d9b:	89 c7                	mov    %eax,%edi
    9d9d:	e8 c1 d7 ff ff       	callq  7563 <safe_rshift_func_int16_t_s_u>
    9da2:	98                   	cwtl   
    9da3:	89 c6                	mov    %eax,%esi
    9da5:	bf 2d e8 59 4f       	mov    $0x4f59e82d,%edi
    9daa:	e8 07 d8 ff ff       	callq  75b6 <safe_add_func_int32_t_s_s>
    9daf:	0f b6 c0             	movzbl %al,%eax
    9db2:	be 01 00 00 00       	mov    $0x1,%esi
    9db7:	89 c7                	mov    %eax,%edi
    9db9:	e8 ba dd ff ff       	callq  7b78 <safe_sub_func_uint8_t_u_u>
    9dbe:	83 bd 0c f8 ff ff 00 	cmpl   $0x0,-0x7f4(%rbp)
    9dc5:	0f 95 c0             	setne  %al
    9dc8:	0f b6 c0             	movzbl %al,%eax
    9dcb:	39 85 28 f8 ff ff    	cmp    %eax,-0x7d8(%rbp)
    9dd1:	0f 94 c0             	sete   %al
    9dd4:	0f b6 c0             	movzbl %al,%eax
    9dd7:	44 89 fe             	mov    %r15d,%esi
    9dda:	89 c7                	mov    %eax,%edi
    9ddc:	e8 79 dd ff ff       	callq  7b5a <safe_add_func_uint8_t_u_u>
    9de1:	84 c0                	test   %al,%al
    9de3:	75 09                	jne    9dee <func_9+0x80c>
    9de5:	83 bd 40 f8 ff ff 00 	cmpl   $0x0,-0x7c0(%rbp)
    9dec:	74 07                	je     9df5 <func_9+0x813>
    9dee:	b8 01 00 00 00       	mov    $0x1,%eax
    9df3:	eb 05                	jmp    9dfa <func_9+0x818>
    9df5:	b8 00 00 00 00       	mov    $0x0,%eax
    9dfa:	0f be c0             	movsbl %al,%eax
    9dfd:	44 89 f6             	mov    %r14d,%esi
    9e00:	89 c7                	mov    %eax,%edi
    9e02:	e8 0b d4 ff ff       	callq  7212 <safe_mul_func_int8_t_s_s>
    9e07:	0f b6 c0             	movzbl %al,%eax
    9e0a:	44 89 ee             	mov    %r13d,%esi
    9e0d:	89 c7                	mov    %eax,%edi
    9e0f:	e8 aa de ff ff       	callq  7cbe <safe_rshift_func_uint8_t_u_u>
    9e14:	84 c0                	test   %al,%al
    9e16:	75 0c                	jne    9e24 <func_9+0x842>
    9e18:	48 8b 85 98 fc ff ff 	mov    -0x368(%rbp),%rax
    9e1f:	48 85 c0             	test   %rax,%rax
    9e22:	74 07                	je     9e2b <func_9+0x849>
    9e24:	b8 01 00 00 00       	mov    $0x1,%eax
    9e29:	eb 05                	jmp    9e30 <func_9+0x84e>
    9e2b:	b8 00 00 00 00       	mov    $0x0,%eax
    9e30:	48 98                	cltq   
    9e32:	4c 89 e6             	mov    %r12,%rsi
    9e35:	48 89 c7             	mov    %rax,%rdi
    9e38:	e8 f1 e1 ff ff       	callq  802e <safe_add_func_uint64_t_u_u>
    9e3d:	b8 00 00 00 00       	mov    $0x0,%eax
    9e42:	98                   	cwtl   
    9e43:	be 04 00 00 00       	mov    $0x4,%esi
    9e48:	89 c7                	mov    %eax,%edi
    9e4a:	e8 43 d6 ff ff       	callq  7492 <safe_lshift_func_int16_t_s_s>
    9e4f:	0f b7 c0             	movzwl %ax,%eax
    9e52:	89 de                	mov    %ebx,%esi
    9e54:	89 c7                	mov    %eax,%edi
    9e56:	e8 1f e0 ff ff       	callq  7e7a <safe_rshift_func_uint16_t_u_u>
    9e5b:	0f b6 55 c0          	movzbl -0x40(%rbp),%edx
    9e5f:	0f b6 d2             	movzbl %dl,%edx
    9e62:	66 39 d0             	cmp    %dx,%ax
    9e65:	0f 96 c0             	setbe  %al
    9e68:	0f b6 d0             	movzbl %al,%edx
    9e6b:	0f b6 45 bf          	movzbl -0x41(%rbp),%eax
    9e6f:	0f b6 c0             	movzbl %al,%eax
    9e72:	09 d0                	or     %edx,%eax
    9e74:	83 f8 f9             	cmp    $0xfffffff9,%eax
    9e77:	0f 9d c0             	setge  %al
    9e7a:	0f b6 c0             	movzbl %al,%eax
    9e7d:	be 06 00 00 00       	mov    $0x6,%esi
    9e82:	89 c7                	mov    %eax,%edi
    9e84:	e8 9c e0 ff ff       	callq  7f25 <safe_div_func_uint32_t_u_u>
    9e89:	0f b7 c0             	movzwl %ax,%eax
    9e8c:	89 c6                	mov    %eax,%esi
    9e8e:	bf 08 00 00 00       	mov    $0x8,%edi
    9e93:	e8 87 de ff ff       	callq  7d1f <safe_sub_func_uint16_t_u_u>
    9e98:	98                   	cwtl   
    9e99:	be 0e 00 00 00       	mov    $0xe,%esi
    9e9e:	89 c7                	mov    %eax,%edi
    9ea0:	e8 be d6 ff ff       	callq  7563 <safe_rshift_func_int16_t_s_u>
    9ea5:	66 85 c0             	test   %ax,%ax
    9ea8:	75 09                	jne    9eb3 <func_9+0x8d1>
    9eaa:	83 bd 08 f8 ff ff 00 	cmpl   $0x0,-0x7f8(%rbp)
    9eb1:	74 07                	je     9eba <func_9+0x8d8>
    9eb3:	ba 01 00 00 00       	mov    $0x1,%edx
    9eb8:	eb 05                	jmp    9ebf <func_9+0x8dd>
    9eba:	ba 00 00 00 00       	mov    $0x0,%edx
    9ebf:	48 8b 85 18 f8 ff ff 	mov    -0x7e8(%rbp),%rax
    9ec6:	8b 00                	mov    (%rax),%eax
    9ec8:	21 c2                	and    %eax,%edx
    9eca:	48 8b 85 18 f8 ff ff 	mov    -0x7e8(%rbp),%rax
    9ed1:	89 10                	mov    %edx,(%rax)
    9ed3:	48 8b 05 d6 28 01 00 	mov    0x128d6(%rip),%rax        # 1c7b0 <g_2469>
    9eda:	48 8b 95 a0 f8 ff ff 	mov    -0x760(%rbp),%rdx
    9ee1:	48 89 10             	mov    %rdx,(%rax)
    9ee4:	48 8b 85 30 fa ff ff 	mov    -0x5d0(%rbp),%rax
    9eeb:	48 83 e8 01          	sub    $0x1,%rax
    9eef:	48 89 85 30 fa ff ff 	mov    %rax,-0x5d0(%rbp)
    9ef6:	48 8b 05 93 f4 00 00 	mov    0xf493(%rip),%rax        # 19390 <g_417>
    9efd:	be 01 00 00 00       	mov    $0x1,%esi
    9f02:	89 c7                	mov    %eax,%edi
    9f04:	e8 ad d6 ff ff       	callq  75b6 <safe_add_func_int32_t_s_s>
    9f09:	48 98                	cltq   
    9f0b:	48 89 05 7e f4 00 00 	mov    %rax,0xf47e(%rip)        # 19390 <g_417>
    9f12:	48 8b 05 77 f4 00 00 	mov    0xf477(%rip),%rax        # 19390 <g_417>
    9f19:	48 83 f8 07          	cmp    $0x7,%rax
    9f1d:	0f 85 8e fb ff ff    	jne    9ab1 <func_9+0x4cf>
    9f23:	eb 0c                	jmp    9f31 <func_9+0x94f>
    9f25:	48 8b 05 2c 28 01 00 	mov    0x1282c(%rip),%rax        # 1c758 <g_2326>
    9f2c:	48 8b 00             	mov    (%rax),%rax
    9f2f:	eb 38                	jmp    9f69 <func_9+0x987>
    9f31:	66 c7 05 1c fd 00 00 	movw   $0x5,0xfd1c(%rip)        # 19c56 <g_2204+0x6>
    9f38:	05 00 
    9f3a:	eb 19                	jmp    9f55 <func_9+0x973>
    9f3c:	48 83 85 68 f8 ff ff 	addq   $0x1,-0x798(%rbp)
    9f43:	01 
    9f44:	0f b7 05 0b fd 00 00 	movzwl 0xfd0b(%rip),%eax        # 19c56 <g_2204+0x6>
    9f4b:	83 e8 01             	sub    $0x1,%eax
    9f4e:	66 89 05 01 fd 00 00 	mov    %ax,0xfd01(%rip)        # 19c56 <g_2204+0x6>
    9f55:	0f b7 05 fa fc 00 00 	movzwl 0xfcfa(%rip),%eax        # 19c56 <g_2204+0x6>
    9f5c:	66 83 f8 e4          	cmp    $0xffe4,%ax
    9f60:	7c da                	jl     9f3c <func_9+0x95a>
    9f62:	48 8b 85 18 f8 ff ff 	mov    -0x7e8(%rbp),%rax
    9f69:	48 8b 4d c8          	mov    -0x38(%rbp),%rcx
    9f6d:	64 48 33 0c 25 28 00 	xor    %fs:0x28,%rcx
    9f74:	00 00 
    9f76:	74 05                	je     9f7d <func_9+0x99b>
    9f78:	e8 f3 d0 ff ff       	callq  7070 <__stack_chk_fail@plt>
    9f7d:	48 81 c4 e8 07 00 00 	add    $0x7e8,%rsp
    9f84:	5b                   	pop    %rbx
    9f85:	41 5c                	pop    %r12
    9f87:	41 5d                	pop    %r13
    9f89:	41 5e                	pop    %r14
    9f8b:	41 5f                	pop    %r15
    9f8d:	5d                   	pop    %rbp
    9f8e:	c3                   	retq   

0000000000009f8f <func_15>:
    9f8f:	f3 0f 1e fa          	endbr64 
    9f93:	55                   	push   %rbp
    9f94:	48 89 e5             	mov    %rsp,%rbp
    9f97:	41 56                	push   %r14
    9f99:	41 55                	push   %r13
    9f9b:	41 54                	push   %r12
    9f9d:	53                   	push   %rbx
    9f9e:	48 81 ec f0 0b 00 00 	sub    $0xbf0,%rsp
    9fa5:	48 89 bd f8 f3 ff ff 	mov    %rdi,-0xc08(%rbp)
    9fac:	64 48 8b 04 25 28 00 	mov    %fs:0x28,%rax
    9fb3:	00 00 
    9fb5:	48 89 45 d8          	mov    %rax,-0x28(%rbp)
    9fb9:	31 c0                	xor    %eax,%eax
    9fbb:	48 c7 85 80 f4 ff ff 	movq   $0x7,-0xb80(%rbp)
    9fc2:	07 00 00 00 
    9fc6:	48 8d 05 a7 f0 00 00 	lea    0xf0a7(%rip),%rax        # 19074 <g_40>
    9fcd:	48 89 85 88 f4 ff ff 	mov    %rax,-0xb78(%rbp)
    9fd4:	c7 85 24 f4 ff ff c3 	movl   $0x7235a4c3,-0xbdc(%rbp)
    9fdb:	a4 35 72 
    9fde:	c7 85 10 f4 ff ff f7 	movl   $0xfffffff7,-0xbf0(%rbp)
    9fe5:	ff ff ff 
    9fe8:	c7 85 28 f4 ff ff c1 	movl   $0x82ef6fc1,-0xbd8(%rbp)
    9fef:	6f ef 82 
    9ff2:	48 c7 85 90 f4 ff ff 	movq   $0x0,-0xb70(%rbp)
    9ff9:	00 00 00 00 
    9ffd:	48 c7 85 68 f4 ff ff 	movq   $0x0,-0xb98(%rbp)
    a004:	00 00 00 00 
    a008:	48 8d 85 68 f4 ff ff 	lea    -0xb98(%rbp),%rax
    a00f:	48 89 85 98 f4 ff ff 	mov    %rax,-0xb68(%rbp)
    a016:	48 8d 05 2b 26 01 00 	lea    0x1262b(%rip),%rax        # 1c648 <g_1436>
    a01d:	48 89 85 a0 f4 ff ff 	mov    %rax,-0xb60(%rbp)
    a024:	c7 85 2c f4 ff ff eb 	movl   $0xada26ceb,-0xbd4(%rbp)
    a02b:	6c a2 ad 
    a02e:	c7 85 30 f4 ff ff fc 	movl   $0xfffffffc,-0xbd0(%rbp)
    a035:	ff ff ff 
    a038:	48 c7 85 a8 f4 ff ff 	movq   $0x0,-0xb58(%rbp)
    a03f:	00 00 00 00 
    a043:	48 8d 85 90 f9 ff ff 	lea    -0x670(%rbp),%rax
    a04a:	48 8d 15 af 99 00 00 	lea    0x99af(%rip),%rdx        # 13a00 <g_2035+0x958>
    a051:	b9 c8 00 00 00       	mov    $0xc8,%ecx
    a056:	48 89 c7             	mov    %rax,%rdi
    a059:	48 89 d6             	mov    %rdx,%rsi
    a05c:	f3 48 a5             	rep movsq %ds:(%rsi),%es:(%rdi)
    a05f:	c7 85 14 f4 ff ff 3a 	movl   $0x92c0a3a,-0xbec(%rbp)
    a066:	0a 2c 09 
    a069:	48 8d 05 86 f5 00 00 	lea    0xf586(%rip),%rax        # 195f6 <g_1315+0x6>
    a070:	48 89 85 b0 f4 ff ff 	mov    %rax,-0xb50(%rbp)
    a077:	48 b8 24 a0 c1 85 49 	movabs $0x9f57404985c1a024,%rax
    a07e:	40 57 9f 
    a081:	48 89 85 80 f5 ff ff 	mov    %rax,-0xa80(%rbp)
    a088:	48 89 85 88 f5 ff ff 	mov    %rax,-0xa78(%rbp)
    a08f:	48 89 85 90 f5 ff ff 	mov    %rax,-0xa70(%rbp)
    a096:	48 89 85 98 f5 ff ff 	mov    %rax,-0xa68(%rbp)
    a09d:	48 89 85 a0 f5 ff ff 	mov    %rax,-0xa60(%rbp)
    a0a4:	48 89 85 a8 f5 ff ff 	mov    %rax,-0xa58(%rbp)
    a0ab:	48 89 85 b0 f5 ff ff 	mov    %rax,-0xa50(%rbp)
    a0b2:	48 89 85 b8 f5 ff ff 	mov    %rax,-0xa48(%rbp)
    a0b9:	48 8d 05 18 f7 00 00 	lea    0xf718(%rip),%rax        # 197d8 <g_1666>
    a0c0:	48 89 85 b8 f4 ff ff 	mov    %rax,-0xb48(%rbp)
    a0c7:	c7 85 18 f4 ff ff 01 	movl   $0x1,-0xbe8(%rbp)
    a0ce:	00 00 00 
    a0d1:	48 8d 05 58 1a 01 00 	lea    0x11a58(%rip),%rax        # 1bb30 <g_849+0x90>
    a0d8:	48 89 85 c0 f4 ff ff 	mov    %rax,-0xb40(%rbp)
    a0df:	c7 85 1c f4 ff ff 00 	movl   $0x0,-0xbe4(%rbp)
    a0e6:	00 00 00 
    a0e9:	eb 1a                	jmp    a105 <func_15+0x176>
    a0eb:	8b 85 1c f4 ff ff    	mov    -0xbe4(%rbp),%eax
    a0f1:	48 98                	cltq   
    a0f3:	c7 84 85 34 f5 ff ff 	movl   $0x9,-0xacc(%rbp,%rax,4)
    a0fa:	09 00 00 00 
    a0fe:	83 85 1c f4 ff ff 01 	addl   $0x1,-0xbe4(%rbp)
    a105:	83 bd 1c f4 ff ff 02 	cmpl   $0x2,-0xbe4(%rbp)
    a10c:	7e dd                	jle    a0eb <func_15+0x15c>
    a10e:	48 c7 05 9f f4 00 00 	movq   $0x17,0xf49f(%rip)        # 195b8 <g_1033+0x8>
    a115:	17 00 00 00 
    a119:	e9 6e 02 00 00       	jmpq   a38c <func_15+0x3fd>
    a11e:	48 c7 85 00 f5 ff ff 	movq   $0xffffffffffffffff,-0xb00(%rbp)
    a125:	ff ff ff ff 
    a129:	c7 85 c0 f5 ff ff 00 	movl   $0x0,-0xa40(%rbp)
    a130:	00 00 00 
    a133:	c7 85 c4 f5 ff ff 00 	movl   $0x0,-0xa3c(%rbp)
    a13a:	00 00 00 
    a13d:	c7 85 c8 f5 ff ff 00 	movl   $0x0,-0xa38(%rbp)
    a144:	00 00 00 
    a147:	c7 85 cc f5 ff ff 00 	movl   $0x0,-0xa34(%rbp)
    a14e:	00 00 00 
    a151:	c7 85 d0 f5 ff ff 00 	movl   $0x0,-0xa30(%rbp)
    a158:	00 00 00 
    a15b:	c7 85 d4 f5 ff ff 01 	movl   $0x1,-0xa2c(%rbp)
    a162:	00 00 00 
    a165:	c7 85 d8 f5 ff ff e7 	movl   $0xef772ae7,-0xa28(%rbp)
    a16c:	2a 77 ef 
    a16f:	c7 85 dc f5 ff ff 01 	movl   $0x1,-0xa24(%rbp)
    a176:	00 00 00 
    a179:	c7 85 e0 f5 ff ff e7 	movl   $0xef772ae7,-0xa20(%rbp)
    a180:	2a 77 ef 
    a183:	c7 85 e4 f5 ff ff 01 	movl   $0x1,-0xa1c(%rbp)
    a18a:	00 00 00 
    a18d:	c7 85 e8 f5 ff ff 00 	movl   $0x0,-0xa18(%rbp)
    a194:	00 00 00 
    a197:	c7 85 ec f5 ff ff 00 	movl   $0x0,-0xa14(%rbp)
    a19e:	00 00 00 
    a1a1:	c7 85 f0 f5 ff ff 00 	movl   $0x0,-0xa10(%rbp)
    a1a8:	00 00 00 
    a1ab:	c7 85 f4 f5 ff ff 00 	movl   $0x0,-0xa0c(%rbp)
    a1b2:	00 00 00 
    a1b5:	c7 85 f8 f5 ff ff 00 	movl   $0x0,-0xa08(%rbp)
    a1bc:	00 00 00 
    a1bf:	c7 85 fc f5 ff ff 01 	movl   $0x1,-0xa04(%rbp)
    a1c6:	00 00 00 
    a1c9:	c7 85 00 f6 ff ff e7 	movl   $0xef772ae7,-0xa00(%rbp)
    a1d0:	2a 77 ef 
    a1d3:	c7 85 04 f6 ff ff 01 	movl   $0x1,-0x9fc(%rbp)
    a1da:	00 00 00 
    a1dd:	c7 85 08 f6 ff ff e7 	movl   $0xef772ae7,-0x9f8(%rbp)
    a1e4:	2a 77 ef 
    a1e7:	c7 85 0c f6 ff ff 01 	movl   $0x1,-0x9f4(%rbp)
    a1ee:	00 00 00 
    a1f1:	c7 85 10 f6 ff ff 00 	movl   $0x0,-0x9f0(%rbp)
    a1f8:	00 00 00 
    a1fb:	c7 85 14 f6 ff ff 00 	movl   $0x0,-0x9ec(%rbp)
    a202:	00 00 00 
    a205:	c7 85 18 f6 ff ff 00 	movl   $0x0,-0x9e8(%rbp)
    a20c:	00 00 00 
    a20f:	c7 85 1c f6 ff ff 00 	movl   $0x0,-0x9e4(%rbp)
    a216:	00 00 00 
    a219:	c7 85 20 f6 ff ff 00 	movl   $0x0,-0x9e0(%rbp)
    a220:	00 00 00 
    a223:	c7 85 4c f4 ff ff 47 	movl   $0x9bd1547,-0xbb4(%rbp)
    a22a:	15 bd 09 
    a22d:	c7 85 50 f4 ff ff 01 	movl   $0x1,-0xbb0(%rbp)
    a234:	00 00 00 
    a237:	c7 85 54 f4 ff ff fa 	movl   $0xfffffffa,-0xbac(%rbp)
    a23e:	ff ff ff 
    a241:	c7 85 58 f4 ff ff b5 	movl   $0x328ecbb5,-0xba8(%rbp)
    a248:	cb 8e 32 
    a24b:	c7 85 5c f4 ff ff 01 	movl   $0x1,-0xba4(%rbp)
    a252:	00 00 00 
    a255:	c7 85 60 f4 ff ff 64 	movl   $0x6b77fd64,-0xba0(%rbp)
    a25c:	fd 77 6b 
    a25f:	48 8d 85 30 f6 ff ff 	lea    -0x9d0(%rbp),%rax
    a266:	48 8d 15 d3 9d 00 00 	lea    0x9dd3(%rip),%rdx        # 14040 <g_2035+0xf98>
    a26d:	b9 6c 00 00 00       	mov    $0x6c,%ecx
    a272:	48 89 c7             	mov    %rax,%rdi
    a275:	48 89 d6             	mov    %rdx,%rsi
    a278:	f3 48 a5             	rep movsq %ds:(%rsi),%es:(%rdi)
    a27b:	48 c7 85 60 f5 ff ff 	movq   $0x0,-0xaa0(%rbp)
    a282:	00 00 00 00 
    a286:	48 c7 85 68 f5 ff ff 	movq   $0x0,-0xa98(%rbp)
    a28d:	00 00 00 00 
    a291:	48 c7 85 70 f5 ff ff 	movq   $0x0,-0xa90(%rbp)
    a298:	00 00 00 00 
    a29c:	48 c7 85 78 f5 ff ff 	movq   $0x0,-0xa88(%rbp)
    a2a3:	00 00 00 00 
    a2a7:	48 8d 85 60 f5 ff ff 	lea    -0xaa0(%rbp),%rax
    a2ae:	48 89 85 08 f5 ff ff 	mov    %rax,-0xaf8(%rbp)
    a2b5:	48 c7 85 10 f5 ff ff 	movq   $0x0,-0xaf0(%rbp)
    a2bc:	00 00 00 00 
    a2c0:	48 8d 05 e9 f8 00 00 	lea    0xf8e9(%rip),%rax        # 19bb0 <g_2082>
    a2c7:	48 89 85 18 f5 ff ff 	mov    %rax,-0xae8(%rbp)
    a2ce:	48 c7 85 20 f5 ff ff 	movq   $0x0,-0xae0(%rbp)
    a2d5:	00 00 00 00 
    a2d9:	c6 85 0d f4 ff ff 17 	movb   $0x17,-0xbf3(%rbp)
    a2e0:	48 8d 05 21 2a 01 00 	lea    0x12a21(%rip),%rax        # 1cd08 <g_116>
    a2e7:	48 89 85 70 f4 ff ff 	mov    %rax,-0xb90(%rbp)
    a2ee:	48 8d 85 70 f4 ff ff 	lea    -0xb90(%rbp),%rax
    a2f5:	48 89 85 78 f4 ff ff 	mov    %rax,-0xb88(%rbp)
    a2fc:	48 8d 85 78 f4 ff ff 	lea    -0xb88(%rbp),%rax
    a303:	48 89 85 28 f5 ff ff 	mov    %rax,-0xad8(%rbp)
    a30a:	c7 85 64 f4 ff ff fa 	movl   $0xfffffffa,-0xb9c(%rbp)
    a311:	ff ff ff 
    a314:	c7 85 20 f4 ff ff 00 	movl   $0x0,-0xbe0(%rbp)
    a31b:	00 00 00 
    a31e:	eb 1e                	jmp    a33e <func_15+0x3af>
    a320:	8b 85 20 f4 ff ff    	mov    -0xbe0(%rbp),%eax
    a326:	48 98                	cltq   
    a328:	48 8d 15 79 8d 00 00 	lea    0x8d79(%rip),%rdx        # 130a8 <g_2035>
    a32f:	48 89 94 c5 40 f5 ff 	mov    %rdx,-0xac0(%rbp,%rax,8)
    a336:	ff 
    a337:	83 85 20 f4 ff ff 01 	addl   $0x1,-0xbe0(%rbp)
    a33e:	83 bd 20 f4 ff ff 02 	cmpl   $0x2,-0xbe0(%rbp)
    a345:	7e d9                	jle    a320 <func_15+0x391>
    a347:	48 8b 05 1a 17 01 00 	mov    0x1171a(%rip),%rax        # 1ba68 <g_509>
    a34e:	48 8b 08             	mov    (%rax),%rcx
    a351:	48 8b 05 98 f7 00 00 	mov    0xf798(%rip),%rax        # 19af0 <g_1869>
    a358:	48 8b 15 99 f7 00 00 	mov    0xf799(%rip),%rdx        # 19af8 <g_1869+0x8>
    a35f:	48 89 01             	mov    %rax,(%rcx)
    a362:	48 89 51 08          	mov    %rdx,0x8(%rcx)
    a366:	48 8b 05 93 f7 00 00 	mov    0xf793(%rip),%rax        # 19b00 <g_1869+0x10>
    a36d:	48 89 41 10          	mov    %rax,0x10(%rcx)
    a371:	48 8b 05 40 f2 00 00 	mov    0xf240(%rip),%rax        # 195b8 <g_1033+0x8>
    a378:	be 09 00 00 00       	mov    $0x9,%esi
    a37d:	48 89 c7             	mov    %rax,%rdi
    a380:	e8 23 d5 ff ff       	callq  78a8 <safe_sub_func_int64_t_s_s>
    a385:	48 89 05 2c f2 00 00 	mov    %rax,0xf22c(%rip)        # 195b8 <g_1033+0x8>
    a38c:	48 8b 05 25 f2 00 00 	mov    0xf225(%rip),%rax        # 195b8 <g_1033+0x8>
    a393:	48 83 f8 06          	cmp    $0x6,%rax
    a397:	0f 86 81 fd ff ff    	jbe    a11e <func_15+0x18f>
    a39d:	48 c7 05 f8 ef 00 00 	movq   $0x4,0xeff8(%rip)        # 193a0 <g_497>
    a3a4:	04 00 00 00 
    a3a8:	e9 78 07 00 00       	jmpq   ab25 <func_15+0xb96>
    a3ad:	c7 85 34 f4 ff ff fa 	movl   $0x31365afa,-0xbcc(%rbp)
    a3b4:	5a 36 31 
    a3b7:	c7 85 38 f4 ff ff 00 	movl   $0x0,-0xbc8(%rbp)
    a3be:	00 00 00 
    a3c1:	48 8d 05 58 19 01 00 	lea    0x11958(%rip),%rax        # 1bd20 <g_849+0x280>
    a3c8:	48 89 85 c8 f4 ff ff 	mov    %rax,-0xb38(%rbp)
    a3cf:	48 8b 05 1a 23 01 00 	mov    0x1231a(%rip),%rax        # 1c6f0 <g_2060>
    a3d6:	48 8b 18             	mov    (%rax),%rbx
    a3d9:	48 8b 95 f8 f3 ff ff 	mov    -0xc08(%rbp),%rdx
    a3e0:	48 8d 85 14 f4 ff ff 	lea    -0xbec(%rbp),%rax
    a3e7:	48 89 d6             	mov    %rdx,%rsi
    a3ea:	48 89 c7             	mov    %rax,%rdi
    a3ed:	e8 6e 07 00 00       	callq  ab60 <func_17>
    a3f2:	48 89 03             	mov    %rax,(%rbx)
    a3f5:	48 c7 05 40 ef 00 00 	movq   $0x1,0xef40(%rip)        # 19340 <g_195>
    a3fc:	01 00 00 00 
    a400:	e9 fd 06 00 00       	jmpq   ab02 <func_15+0xb73>
    a405:	66 c7 85 0e f4 ff ff 	movw   $0x1,-0xbf2(%rbp)
    a40c:	01 00 
    a40e:	c7 85 78 f4 ff ff 07 	movl   $0x7,-0xb88(%rbp)
    a415:	00 00 00 
    a418:	48 8d 05 29 22 01 00 	lea    0x12229(%rip),%rax        # 1c648 <g_1436>
    a41f:	48 89 85 d0 f4 ff ff 	mov    %rax,-0xb30(%rbp)
    a426:	66 c7 05 87 f1 00 00 	movw   $0x8,0xf187(%rip)        # 195b6 <g_1033+0x6>
    a42d:	08 00 
    a42f:	eb 49                	jmp    a47a <func_15+0x4eb>
    a431:	48 8b 05 b0 1f 01 00 	mov    0x11fb0(%rip),%rax        # 1c3e8 <g_1160>
    a438:	48 8b 95 f8 f3 ff ff 	mov    -0xc08(%rbp),%rdx
    a43f:	48 89 10             	mov    %rdx,(%rax)
    a442:	48 8b 0d 17 16 01 00 	mov    0x11617(%rip),%rcx        # 1ba60 <g_510>
    a449:	48 8b 05 80 f8 00 00 	mov    0xf880(%rip),%rax        # 19cd0 <g_2328>
    a450:	48 8b 15 81 f8 00 00 	mov    0xf881(%rip),%rdx        # 19cd8 <g_2328+0x8>
    a457:	48 89 01             	mov    %rax,(%rcx)
    a45a:	48 89 51 08          	mov    %rdx,0x8(%rcx)
    a45e:	48 8b 05 7b f8 00 00 	mov    0xf87b(%rip),%rax        # 19ce0 <g_2328+0x10>
    a465:	48 89 41 10          	mov    %rax,0x10(%rcx)
    a469:	0f b7 05 46 f1 00 00 	movzwl 0xf146(%rip),%eax        # 195b6 <g_1033+0x6>
    a470:	83 e8 01             	sub    $0x1,%eax
    a473:	66 89 05 3c f1 00 00 	mov    %ax,0xf13c(%rip)        # 195b6 <g_1033+0x6>
    a47a:	0f b7 05 35 f1 00 00 	movzwl 0xf135(%rip),%eax        # 195b6 <g_1033+0x6>
    a481:	66 85 c0             	test   %ax,%ax
    a484:	79 ab                	jns    a431 <func_15+0x4a2>
    a486:	66 c7 05 d9 ee 00 00 	movw   $0x0,0xeed9(%rip)        # 19368 <g_366>
    a48d:	00 00 
    a48f:	e9 12 03 00 00       	jmpq   a7a6 <func_15+0x817>
    a494:	48 8d 05 d9 f6 00 00 	lea    0xf6d9(%rip),%rax        # 19b74 <g_2040+0x4>
    a49b:	48 89 85 e8 f4 ff ff 	mov    %rax,-0xb18(%rbp)
    a4a2:	c7 85 40 f4 ff ff 91 	movl   $0x907a0b91,-0xbc0(%rbp)
    a4a9:	0b 7a 90 
    a4ac:	48 8b 05 b5 21 01 00 	mov    0x121b5(%rip),%rax        # 1c668 <g_1487>
    a4b3:	48 8b 00             	mov    (%rax),%rax
    a4b6:	0f b6 00             	movzbl (%rax),%eax
    a4b9:	48 8b 05 a0 21 01 00 	mov    0x121a0(%rip),%rax        # 1c660 <g_1488>
    a4c0:	0f b6 00             	movzbl (%rax),%eax
    a4c3:	0f b6 d8             	movzbl %al,%ebx
    a4c6:	48 8b 05 a3 15 01 00 	mov    0x115a3(%rip),%rax        # 1ba70 <g_734>
    a4cd:	8b 00                	mov    (%rax),%eax
    a4cf:	89 c2                	mov    %eax,%edx
    a4d1:	0f b7 85 0e f4 ff ff 	movzwl -0xbf2(%rbp),%eax
    a4d8:	21 d0                	and    %edx,%eax
    a4da:	44 0f b6 e0          	movzbl %al,%r12d
    a4de:	48 8b 85 88 f4 ff ff 	mov    -0xb78(%rbp),%rax
    a4e5:	8b 00                	mov    (%rax),%eax
    a4e7:	85 c0                	test   %eax,%eax
    a4e9:	75 2f                	jne    a51a <func_15+0x58b>
    a4eb:	0f b7 85 0e f4 ff ff 	movzwl -0xbf2(%rbp),%eax
    a4f2:	0f b6 d0             	movzbl %al,%edx
    a4f5:	0f b7 85 0e f4 ff ff 	movzwl -0xbf2(%rbp),%eax
    a4fc:	0f b6 c0             	movzbl %al,%eax
    a4ff:	89 d6                	mov    %edx,%esi
    a501:	89 c7                	mov    %eax,%edi
    a503:	e8 d3 d6 ff ff       	callq  7bdb <safe_div_func_uint8_t_u_u>
    a508:	0f b6 c0             	movzbl %al,%eax
    a50b:	89 85 40 f4 ff ff    	mov    %eax,-0xbc0(%rbp)
    a511:	83 bd 40 f4 ff ff 00 	cmpl   $0x0,-0xbc0(%rbp)
    a518:	74 07                	je     a521 <func_15+0x592>
    a51a:	b8 01 00 00 00       	mov    $0x1,%eax
    a51f:	eb 05                	jmp    a526 <func_15+0x597>
    a521:	b8 00 00 00 00       	mov    $0x0,%eax
    a526:	0f b6 c0             	movzbl %al,%eax
    a529:	44 89 e6             	mov    %r12d,%esi
    a52c:	89 c7                	mov    %eax,%edi
    a52e:	e8 60 d6 ff ff       	callq  7b93 <safe_mul_func_uint8_t_u_u>
    a533:	0f b6 c0             	movzbl %al,%eax
    a536:	89 de                	mov    %ebx,%esi
    a538:	89 c7                	mov    %eax,%edi
    a53a:	e8 39 d6 ff ff       	callq  7b78 <safe_sub_func_uint8_t_u_u>
    a53f:	0f b6 d0             	movzbl %al,%edx
    a542:	8b 85 34 f4 ff ff    	mov    -0xbcc(%rbp),%eax
    a548:	48 98                	cltq   
    a54a:	48 89 d6             	mov    %rdx,%rsi
    a54d:	48 89 c7             	mov    %rax,%rdi
    a550:	e8 53 d3 ff ff       	callq  78a8 <safe_sub_func_int64_t_s_s>
    a555:	48 3d 9b 00 00 00    	cmp    $0x9b,%rax
    a55b:	0f 9f c0             	setg   %al
    a55e:	0f b6 c0             	movzbl %al,%eax
    a561:	be 07 00 00 00       	mov    $0x7,%esi
    a566:	89 c7                	mov    %eax,%edi
    a568:	e8 98 d6 ff ff       	callq  7c05 <safe_lshift_func_uint8_t_u_s>
    a56d:	0f b6 d0             	movzbl %al,%edx
    a570:	0f b7 85 0e f4 ff ff 	movzwl -0xbf2(%rbp),%eax
    a577:	21 d0                	and    %edx,%eax
    a579:	85 c0                	test   %eax,%eax
    a57b:	0f 84 8f 00 00 00    	je     a610 <func_15+0x681>
    a581:	0f b7 05 e0 ed 00 00 	movzwl 0xede0(%rip),%eax        # 19368 <g_366>
    a588:	0f b7 f0             	movzwl %ax,%esi
    a58b:	0f b7 05 d6 ed 00 00 	movzwl 0xedd6(%rip),%eax        # 19368 <g_366>
    a592:	0f b7 c0             	movzwl %ax,%eax
    a595:	48 63 d0             	movslq %eax,%rdx
    a598:	48 89 d0             	mov    %rdx,%rax
    a59b:	48 01 c0             	add    %rax,%rax
    a59e:	48 01 d0             	add    %rdx,%rax
    a5a1:	48 c1 e0 03          	shl    $0x3,%rax
    a5a5:	48 89 c7             	mov    %rax,%rdi
    a5a8:	48 8d 0d f1 f1 00 00 	lea    0xf1f1(%rip),%rcx        # 197a0 <g_1528>
    a5af:	48 63 d6             	movslq %esi,%rdx
    a5b2:	48 89 d0             	mov    %rdx,%rax
    a5b5:	48 01 c0             	add    %rax,%rax
    a5b8:	48 01 d0             	add    %rdx,%rax
    a5bb:	48 c1 e0 03          	shl    $0x3,%rax
    a5bf:	49 89 c0             	mov    %rax,%r8
    a5c2:	48 8d 35 d7 f1 00 00 	lea    0xf1d7(%rip),%rsi        # 197a0 <g_1528>
    a5c9:	49 8b 04 30          	mov    (%r8,%rsi,1),%rax
    a5cd:	49 8b 54 30 08       	mov    0x8(%r8,%rsi,1),%rdx
    a5d2:	48 89 04 0f          	mov    %rax,(%rdi,%rcx,1)
    a5d6:	48 89 54 0f 08       	mov    %rdx,0x8(%rdi,%rcx,1)
    a5db:	49 8b 44 30 10       	mov    0x10(%r8,%rsi,1),%rax
    a5e0:	48 89 44 0f 10       	mov    %rax,0x10(%rdi,%rcx,1)
    a5e5:	48 8b 05 fc f6 00 00 	mov    0xf6fc(%rip),%rax        # 19ce8 <g_2344>
    a5ec:	48 83 c0 01          	add    $0x1,%rax
    a5f0:	48 89 05 f1 f6 00 00 	mov    %rax,0xf6f1(%rip)        # 19ce8 <g_2344>
    a5f7:	48 8b 05 f2 1d 01 00 	mov    0x11df2(%rip),%rax        # 1c3f0 <g_1159>
    a5fe:	48 8b 00             	mov    (%rax),%rax
    a601:	48 8d 95 78 f4 ff ff 	lea    -0xb88(%rbp),%rdx
    a608:	48 89 10             	mov    %rdx,(%rax)
    a60b:	e9 e9 00 00 00       	jmpq   a6f9 <func_15+0x76a>
    a610:	48 8d 85 34 f5 ff ff 	lea    -0xacc(%rbp),%rax
    a617:	48 83 c0 04          	add    $0x4,%rax
    a61b:	48 89 85 f0 f4 ff ff 	mov    %rax,-0xb10(%rbp)
    a622:	48 8d 85 10 f4 ff ff 	lea    -0xbf0(%rbp),%rax
    a629:	48 89 85 f8 f4 ff ff 	mov    %rax,-0xb08(%rbp)
    a630:	c7 85 44 f4 ff ff 47 	movl   $0xed5b8e47,-0xbbc(%rbp)
    a637:	8e 5b ed 
    a63a:	c7 85 48 f4 ff ff e2 	movl   $0xe36de2,-0xbb8(%rbp)
    a641:	6d e3 00 
    a644:	48 8d 05 5d ed 00 00 	lea    0xed5d(%rip),%rax        # 193a8 <g_505>
    a64b:	48 89 85 30 f6 ff ff 	mov    %rax,-0x9d0(%rbp)
    a652:	48 8d 85 78 f4 ff ff 	lea    -0xb88(%rbp),%rax
    a659:	48 89 85 38 f6 ff ff 	mov    %rax,-0x9c8(%rbp)
    a660:	48 8d 85 78 f4 ff ff 	lea    -0xb88(%rbp),%rax
    a667:	48 89 85 40 f6 ff ff 	mov    %rax,-0x9c0(%rbp)
    a66e:	48 8d 05 33 ed 00 00 	lea    0xed33(%rip),%rax        # 193a8 <g_505>
    a675:	48 89 85 48 f6 ff ff 	mov    %rax,-0x9b8(%rbp)
    a67c:	48 8d 85 78 f4 ff ff 	lea    -0xb88(%rbp),%rax
    a683:	48 89 85 50 f6 ff ff 	mov    %rax,-0x9b0(%rbp)
    a68a:	48 8d 85 78 f4 ff ff 	lea    -0xb88(%rbp),%rax
    a691:	48 89 85 58 f6 ff ff 	mov    %rax,-0x9a8(%rbp)
    a698:	48 8d 05 09 ed 00 00 	lea    0xed09(%rip),%rax        # 193a8 <g_505>
    a69f:	48 89 85 60 f6 ff ff 	mov    %rax,-0x9a0(%rbp)
    a6a6:	48 8d 85 78 f4 ff ff 	lea    -0xb88(%rbp),%rax
    a6ad:	48 89 85 68 f6 ff ff 	mov    %rax,-0x998(%rbp)
    a6b4:	48 8b 85 88 f4 ff ff 	mov    -0xb78(%rbp),%rax
    a6bb:	8b 10                	mov    (%rax),%edx
    a6bd:	48 8b 85 f8 f3 ff ff 	mov    -0xc08(%rbp),%rax
    a6c4:	8b 00                	mov    (%rax),%eax
    a6c6:	21 c2                	and    %eax,%edx
    a6c8:	48 8b 85 88 f4 ff ff 	mov    -0xb78(%rbp),%rax
    a6cf:	89 10                	mov    %edx,(%rax)
    a6d1:	c7 85 10 f4 ff ff 03 	movl   $0x3,-0xbf0(%rbp)
    a6d8:	00 00 00 
    a6db:	90                   	nop
    a6dc:	8b 85 10 f4 ff ff    	mov    -0xbf0(%rbp),%eax
    a6e2:	85 c0                	test   %eax,%eax
    a6e4:	78 0c                	js     a6f2 <func_15+0x763>
    a6e6:	48 8b 85 b8 f4 ff ff 	mov    -0xb48(%rbp),%rax
    a6ed:	e9 4a 04 00 00       	jmpq   ab3c <func_15+0xbad>
    a6f2:	83 ad 18 f4 ff ff 01 	subl   $0x1,-0xbe8(%rbp)
    a6f9:	48 8b 05 58 20 01 00 	mov    0x12058(%rip),%rax        # 1c758 <g_2326>
    a700:	48 8b 00             	mov    (%rax),%rax
    a703:	8b 00                	mov    (%rax),%eax
    a705:	85 c0                	test   %eax,%eax
    a707:	0f 85 87 00 00 00    	jne    a794 <func_15+0x805>
    a70d:	0f b7 05 54 ec 00 00 	movzwl 0xec54(%rip),%eax        # 19368 <g_366>
    a714:	0f b7 f0             	movzwl %ax,%esi
    a717:	0f b7 05 4a ec 00 00 	movzwl 0xec4a(%rip),%eax        # 19368 <g_366>
    a71e:	0f b7 d0             	movzwl %ax,%edx
    a721:	0f b7 05 40 ec 00 00 	movzwl 0xec40(%rip),%eax        # 19368 <g_366>
    a728:	0f b7 c0             	movzwl %ax,%eax
    a72b:	48 98                	cltq   
    a72d:	48 63 ca             	movslq %edx,%rcx
    a730:	48 89 c2             	mov    %rax,%rdx
    a733:	48 01 d2             	add    %rdx,%rdx
    a736:	48 01 c2             	add    %rax,%rdx
    a739:	48 8d 04 d5 00 00 00 	lea    0x0(,%rdx,8),%rax
    a740:	00 
    a741:	48 89 c2             	mov    %rax,%rdx
    a744:	48 89 c8             	mov    %rcx,%rax
    a747:	48 01 c0             	add    %rax,%rax
    a74a:	48 01 c8             	add    %rcx,%rax
    a74d:	48 c1 e0 04          	shl    $0x4,%rax
    a751:	48 01 c2             	add    %rax,%rdx
    a754:	48 8d 05 e5 ea 00 00 	lea    0xeae5(%rip),%rax        # 19240 <g_123>
    a75b:	48 8d 0c 02          	lea    (%rdx,%rax,1),%rcx
    a75f:	48 63 d6             	movslq %esi,%rdx
    a762:	48 89 d0             	mov    %rdx,%rax
    a765:	48 01 c0             	add    %rax,%rax
    a768:	48 01 d0             	add    %rdx,%rax
    a76b:	48 c1 e0 03          	shl    $0x3,%rax
    a76f:	48 89 c7             	mov    %rax,%rdi
    a772:	48 8d 35 27 f0 00 00 	lea    0xf027(%rip),%rsi        # 197a0 <g_1528>
    a779:	48 8b 04 37          	mov    (%rdi,%rsi,1),%rax
    a77d:	48 8b 54 37 08       	mov    0x8(%rdi,%rsi,1),%rdx
    a782:	48 89 01             	mov    %rax,(%rcx)
    a785:	48 89 51 08          	mov    %rdx,0x8(%rcx)
    a789:	48 8b 44 37 10       	mov    0x10(%rdi,%rsi,1),%rax
    a78e:	48 89 41 10          	mov    %rax,0x10(%rcx)
    a792:	eb 01                	jmp    a795 <func_15+0x806>
    a794:	90                   	nop
    a795:	0f b7 05 cc eb 00 00 	movzwl 0xebcc(%rip),%eax        # 19368 <g_366>
    a79c:	83 c0 01             	add    $0x1,%eax
    a79f:	66 89 05 c2 eb 00 00 	mov    %ax,0xebc2(%rip)        # 19368 <g_366>
    a7a6:	0f b7 05 bb eb 00 00 	movzwl 0xebbb(%rip),%eax        # 19368 <g_366>
    a7ad:	66 83 f8 01          	cmp    $0x1,%ax
    a7b1:	0f 86 dd fc ff ff    	jbe    a494 <func_15+0x505>
    a7b7:	66 c7 05 e4 ea 00 00 	movw   $0x4,0xeae4(%rip)        # 192a4 <g_145+0x4>
    a7be:	04 00 
    a7c0:	e9 69 02 00 00       	jmpq   aa2e <func_15+0xa9f>
    a7c5:	c6 85 0b f4 ff ff 01 	movb   $0x1,-0xbf5(%rbp)
    a7cc:	48 8b 0d 25 1f 01 00 	mov    0x11f25(%rip),%rcx        # 1c6f8 <g_2081>
    a7d3:	48 8b 05 16 f5 00 00 	mov    0xf516(%rip),%rax        # 19cf0 <g_2357>
    a7da:	48 8b 15 17 f5 00 00 	mov    0xf517(%rip),%rdx        # 19cf8 <g_2357+0x8>
    a7e1:	48 89 01             	mov    %rax,(%rcx)
    a7e4:	48 89 51 08          	mov    %rdx,0x8(%rcx)
    a7e8:	48 8b 05 11 f5 00 00 	mov    0xf511(%rip),%rax        # 19d00 <g_2357+0x10>
    a7ef:	48 89 41 10          	mov    %rax,0x10(%rcx)
    a7f3:	66 c7 05 ba ed 00 00 	movw   $0x1,0xedba(%rip)        # 195b6 <g_1033+0x6>
    a7fa:	01 00 
    a7fc:	e9 0c 02 00 00       	jmpq   aa0d <func_15+0xa7e>
    a801:	c6 85 0c f4 ff ff 0a 	movb   $0xa,-0xbf4(%rbp)
    a808:	66 c7 05 bd e8 00 00 	movw   $0x0,0xe8bd(%rip)        # 190ce <g_107>
    a80f:	00 00 
    a811:	e9 d2 01 00 00       	jmpq   a9e8 <func_15+0xa59>
    a816:	48 8d 05 6b e8 00 00 	lea    0xe86b(%rip),%rax        # 19088 <g_91>
    a81d:	48 89 85 d8 f4 ff ff 	mov    %rax,-0xb28(%rbp)
    a824:	48 8d 05 ad ed 00 00 	lea    0xedad(%rip),%rax        # 195d8 <g_1120>
    a82b:	48 89 85 e0 f4 ff ff 	mov    %rax,-0xb20(%rbp)
    a832:	c7 85 3c f4 ff ff f8 	movl   $0x4b8d93f8,-0xbc4(%rbp)
    a839:	93 8d 4b 
    a83c:	0f b7 05 73 ed 00 00 	movzwl 0xed73(%rip),%eax        # 195b6 <g_1033+0x6>
    a843:	98                   	cwtl   
    a844:	8d 48 02             	lea    0x2(%rax),%ecx
    a847:	0f b7 05 80 e8 00 00 	movzwl 0xe880(%rip),%eax        # 190ce <g_107>
    a84e:	98                   	cwtl   
    a84f:	83 c0 01             	add    $0x1,%eax
    a852:	48 8b 35 e7 ea 00 00 	mov    0xeae7(%rip),%rsi        # 19340 <g_195>
    a859:	48 63 d0             	movslq %eax,%rdx
    a85c:	48 63 c9             	movslq %ecx,%rcx
    a85f:	48 89 d0             	mov    %rdx,%rax
    a862:	48 01 c0             	add    %rax,%rax
    a865:	48 01 d0             	add    %rdx,%rax
    a868:	48 01 c0             	add    %rax,%rax
    a86b:	48 89 ca             	mov    %rcx,%rdx
    a86e:	48 c1 e2 04          	shl    $0x4,%rdx
    a872:	48 29 ca             	sub    %rcx,%rdx
    a875:	48 01 d2             	add    %rdx,%rdx
    a878:	48 01 d0             	add    %rdx,%rax
    a87b:	48 8d 14 30          	lea    (%rax,%rsi,1),%rdx
    a87f:	48 8d 05 3a ea 00 00 	lea    0xea3a(%rip),%rax        # 192c0 <g_164>
    a886:	48 01 d0             	add    %rdx,%rax
    a889:	0f b6 00             	movzbl (%rax),%eax
    a88c:	84 c0                	test   %al,%al
    a88e:	0f 85 67 01 00 00    	jne    a9fb <func_15+0xa6c>
    a894:	48 8b 05 05 eb 00 00 	mov    0xeb05(%rip),%rax        # 193a0 <g_497>
    a89b:	48 83 c0 01          	add    $0x1,%rax
    a89f:	48 8b 84 c5 80 f5 ff 	mov    -0xa80(%rbp,%rax,8),%rax
    a8a6:	ff 
    a8a7:	48 85 c0             	test   %rax,%rax
    a8aa:	0f 85 26 01 00 00    	jne    a9d6 <func_15+0xa47>
    a8b0:	48 8b 85 b8 f4 ff ff 	mov    -0xb48(%rbp),%rax
    a8b7:	8b 10                	mov    (%rax),%edx
    a8b9:	48 8b 85 b8 f4 ff ff 	mov    -0xb48(%rbp),%rax
    a8c0:	89 10                	mov    %edx,(%rax)
    a8c2:	48 8b 85 b8 f4 ff ff 	mov    -0xb48(%rbp),%rax
    a8c9:	8b 00                	mov    (%rax),%eax
    a8cb:	41 89 c6             	mov    %eax,%r14d
    a8ce:	48 8b 05 cb ea 00 00 	mov    0xeacb(%rip),%rax        # 193a0 <g_497>
    a8d5:	48 83 c0 01          	add    $0x1,%rax
    a8d9:	48 8b 84 c5 80 f5 ff 	mov    -0xa80(%rbp,%rax,8),%rax
    a8e0:	ff 
    a8e1:	49 89 c5             	mov    %rax,%r13
    a8e4:	48 0f be 9d 0c f4 ff 	movsbq -0xbf4(%rbp),%rbx
    a8eb:	ff 
    a8ec:	44 0f be a5 0b f4 ff 	movsbl -0xbf5(%rbp),%r12d
    a8f3:	ff 
    a8f4:	48 8b 05 d5 1d 01 00 	mov    0x11dd5(%rip),%rax        # 1c6d0 <g_1940>
    a8fb:	0f b7 00             	movzwl (%rax),%eax
    a8fe:	0f b7 d0             	movzwl %ax,%edx
    a901:	66 0f be 8d 0c f4 ff 	movsbw -0xbf4(%rbp),%cx
    a908:	ff 
    a909:	48 8b 85 d8 f4 ff ff 	mov    -0xb28(%rbp),%rax
    a910:	66 89 08             	mov    %cx,(%rax)
    a913:	48 8b 85 d8 f4 ff ff 	mov    -0xb28(%rbp),%rax
    a91a:	0f b7 00             	movzwl (%rax),%eax
    a91d:	0f b7 c0             	movzwl %ax,%eax
    a920:	89 d6                	mov    %edx,%esi
    a922:	89 c7                	mov    %eax,%edi
    a924:	e8 65 d4 ff ff       	callq  7d8e <safe_div_func_uint16_t_u_u>
    a929:	0f b7 c0             	movzwl %ax,%eax
    a92c:	44 89 e6             	mov    %r12d,%esi
    a92f:	89 c7                	mov    %eax,%edi
    a931:	e8 12 d5 ff ff       	callq  7e48 <safe_rshift_func_uint16_t_u_s>
    a936:	0f b7 c0             	movzwl %ax,%eax
    a939:	48 8b 15 60 ea 00 00 	mov    0xea60(%rip),%rdx        # 193a0 <g_497>
    a940:	48 83 c2 01          	add    $0x1,%rdx
    a944:	48 8b 94 d5 80 f5 ff 	mov    -0xa80(%rbp,%rdx,8),%rdx
    a94b:	ff 
    a94c:	89 c6                	mov    %eax,%esi
    a94e:	89 d7                	mov    %edx,%edi
    a950:	e8 aa cd ff ff       	callq  76ff <safe_div_func_int32_t_s_s>
    a955:	48 98                	cltq   
    a957:	48 89 de             	mov    %rbx,%rsi
    a95a:	48 89 c7             	mov    %rax,%rdi
    a95d:	e8 4d d7 ff ff       	callq  80af <safe_div_func_uint64_t_u_u>
    a962:	4c 89 ee             	mov    %r13,%rsi
    a965:	bf 00 00 00 00       	mov    $0x0,%edi
    a96a:	e8 11 d7 ff ff       	callq  8080 <safe_mod_func_uint64_t_u_u>
    a96f:	89 c1                	mov    %eax,%ecx
    a971:	48 8b 85 88 f4 ff ff 	mov    -0xb78(%rbp),%rax
    a978:	8b 10                	mov    (%rax),%edx
    a97a:	48 8b 85 88 f4 ff ff 	mov    -0xb78(%rbp),%rax
    a981:	89 10                	mov    %edx,(%rax)
    a983:	48 8b 85 88 f4 ff ff 	mov    -0xb78(%rbp),%rax
    a98a:	8b 00                	mov    (%rax),%eax
    a98c:	89 ce                	mov    %ecx,%esi
    a98e:	89 c7                	mov    %eax,%edi
    a990:	e8 37 cd ff ff       	callq  76cc <safe_mod_func_int32_t_s_s>
    a995:	85 c0                	test   %eax,%eax
    a997:	0f 9e c0             	setle  %al
    a99a:	0f b6 c8             	movzbl %al,%ecx
    a99d:	48 8b 05 cc 10 01 00 	mov    0x110cc(%rip),%rax        # 1ba70 <g_734>
    a9a4:	8b 10                	mov    (%rax),%edx
    a9a6:	48 8b 05 c3 10 01 00 	mov    0x110c3(%rip),%rax        # 1ba70 <g_734>
    a9ad:	31 ca                	xor    %ecx,%edx
    a9af:	89 10                	mov    %edx,(%rax)
    a9b1:	8b 10                	mov    (%rax),%edx
    a9b3:	48 8b 85 e0 f4 ff ff 	mov    -0xb20(%rbp),%rax
    a9ba:	89 10                	mov    %edx,(%rax)
    a9bc:	48 8b 85 e0 f4 ff ff 	mov    -0xb20(%rbp),%rax
    a9c3:	8b 00                	mov    (%rax),%eax
    a9c5:	41 39 c6             	cmp    %eax,%r14d
    a9c8:	0f 95 c0             	setne  %al
    a9cb:	0f b6 c0             	movzbl %al,%eax
    a9ce:	21 85 3c f4 ff ff    	and    %eax,-0xbc4(%rbp)
    a9d4:	eb 01                	jmp    a9d7 <func_15+0xa48>
    a9d6:	90                   	nop
    a9d7:	0f b7 05 f0 e6 00 00 	movzwl 0xe6f0(%rip),%eax        # 190ce <g_107>
    a9de:	83 c0 01             	add    $0x1,%eax
    a9e1:	66 89 05 e6 e6 00 00 	mov    %ax,0xe6e6(%rip)        # 190ce <g_107>
    a9e8:	0f b7 05 df e6 00 00 	movzwl 0xe6df(%rip),%eax        # 190ce <g_107>
    a9ef:	66 83 f8 03          	cmp    $0x3,%ax
    a9f3:	0f 8e 1d fe ff ff    	jle    a816 <func_15+0x887>
    a9f9:	eb 01                	jmp    a9fc <func_15+0xa6d>
    a9fb:	90                   	nop
    a9fc:	0f b7 05 b3 eb 00 00 	movzwl 0xebb3(%rip),%eax        # 195b6 <g_1033+0x6>
    aa03:	83 e8 01             	sub    $0x1,%eax
    aa06:	66 89 05 a9 eb 00 00 	mov    %ax,0xeba9(%rip)        # 195b6 <g_1033+0x6>
    aa0d:	0f b7 05 a2 eb 00 00 	movzwl 0xeba2(%rip),%eax        # 195b6 <g_1033+0x6>
    aa14:	66 85 c0             	test   %ax,%ax
    aa17:	0f 89 e4 fd ff ff    	jns    a801 <func_15+0x872>
    aa1d:	0f b7 05 80 e8 00 00 	movzwl 0xe880(%rip),%eax        # 192a4 <g_145+0x4>
    aa24:	83 e8 01             	sub    $0x1,%eax
    aa27:	66 89 05 76 e8 00 00 	mov    %ax,0xe876(%rip)        # 192a4 <g_145+0x4>
    aa2e:	0f b7 05 6f e8 00 00 	movzwl 0xe86f(%rip),%eax        # 192a4 <g_145+0x4>
    aa35:	66 85 c0             	test   %ax,%ax
    aa38:	0f 8f 87 fd ff ff    	jg     a7c5 <func_15+0x836>
    aa3e:	48 8b 05 f3 0f 01 00 	mov    0x10ff3(%rip),%rax        # 1ba38 <g_244>
    aa45:	48 8b 18             	mov    (%rax),%rbx
    aa48:	48 83 bd d0 f4 ff ff 	cmpq   $0x0,-0xb30(%rbp)
    aa4f:	00 
    aa50:	0f 94 c0             	sete   %al
    aa53:	44 0f b6 e0          	movzbl %al,%r12d
    aa57:	48 8b 85 b8 f4 ff ff 	mov    -0xb48(%rbp),%rax
    aa5e:	8b 00                	mov    (%rax),%eax
    aa60:	41 89 c5             	mov    %eax,%r13d
    aa63:	0f b7 95 0e f4 ff ff 	movzwl -0xbf2(%rbp),%edx
    aa6a:	0f b7 85 0e f4 ff ff 	movzwl -0xbf2(%rbp),%eax
    aa71:	48 89 d6             	mov    %rdx,%rsi
    aa74:	48 89 c7             	mov    %rax,%rdi
    aa77:	e8 c5 cd ff ff       	callq  7841 <safe_add_func_int64_t_s_s>
    aa7c:	be 1f 00 00 00       	mov    $0x1f,%esi
    aa81:	bf 01 00 00 00       	mov    $0x1,%edi
    aa86:	e8 ed d0 ff ff       	callq  7b78 <safe_sub_func_uint8_t_u_u>
    aa8b:	48 8b 85 c0 f4 ff ff 	mov    -0xb40(%rbp),%rax
    aa92:	48 3b 85 c8 f4 ff ff 	cmp    -0xb38(%rbp),%rax
    aa99:	0f 95 c0             	setne  %al
    aa9c:	89 c2                	mov    %eax,%edx
    aa9e:	8b 85 34 f4 ff ff    	mov    -0xbcc(%rbp),%eax
    aaa4:	09 d0                	or     %edx,%eax
    aaa6:	0f be c0             	movsbl %al,%eax
    aaa9:	44 89 ee             	mov    %r13d,%esi
    aaac:	89 c7                	mov    %eax,%edi
    aaae:	e8 3b c8 ff ff       	callq  72ee <safe_lshift_func_int8_t_s_u>
    aab3:	66 98                	cbtw   
    aab5:	0f b7 c0             	movzwl %ax,%eax
    aab8:	be 05 00 00 00       	mov    $0x5,%esi
    aabd:	89 c7                	mov    %eax,%edi
    aabf:	e8 ca d2 ff ff       	callq  7d8e <safe_div_func_uint16_t_u_u>
    aac4:	66 25 38 a4          	and    $0xa438,%ax
    aac8:	44 21 e0             	and    %r12d,%eax
    aacb:	0f bf c8             	movswl %ax,%ecx
    aace:	0f b7 85 0e f4 ff ff 	movzwl -0xbf2(%rbp),%eax
    aad5:	98                   	cwtl   
    aad6:	48 8b 15 13 19 01 00 	mov    0x11913(%rip),%rdx        # 1c3f0 <g_1159>
    aadd:	4c 8b 22             	mov    (%rdx),%r12
    aae0:	48 89 da             	mov    %rbx,%rdx
    aae3:	89 ce                	mov    %ecx,%esi
    aae5:	89 c7                	mov    %eax,%edi
    aae7:	e8 22 01 00 00       	callq  ac0e <func_20>
    aaec:	49 89 04 24          	mov    %rax,(%r12)
    aaf0:	48 8b 05 49 e8 00 00 	mov    0xe849(%rip),%rax        # 19340 <g_195>
    aaf7:	48 83 c0 01          	add    $0x1,%rax
    aafb:	48 89 05 3e e8 00 00 	mov    %rax,0xe83e(%rip)        # 19340 <g_195>
    ab02:	48 8b 05 37 e8 00 00 	mov    0xe837(%rip),%rax        # 19340 <g_195>
    ab09:	48 83 f8 04          	cmp    $0x4,%rax
    ab0d:	0f 86 f2 f8 ff ff    	jbe    a405 <func_15+0x476>
    ab13:	48 8b 05 86 e8 00 00 	mov    0xe886(%rip),%rax        # 193a0 <g_497>
    ab1a:	48 83 e8 01          	sub    $0x1,%rax
    ab1e:	48 89 05 7b e8 00 00 	mov    %rax,0xe87b(%rip)        # 193a0 <g_497>
    ab25:	48 8b 05 74 e8 00 00 	mov    0xe874(%rip),%rax        # 193a0 <g_497>
    ab2c:	48 85 c0             	test   %rax,%rax
    ab2f:	0f 89 78 f8 ff ff    	jns    a3ad <func_15+0x41e>
    ab35:	48 8b 85 f8 f3 ff ff 	mov    -0xc08(%rbp),%rax
    ab3c:	48 8b 5d d8          	mov    -0x28(%rbp),%rbx
    ab40:	64 48 33 1c 25 28 00 	xor    %fs:0x28,%rbx
    ab47:	00 00 
    ab49:	74 05                	je     ab50 <func_15+0xbc1>
    ab4b:	e8 20 c5 ff ff       	callq  7070 <__stack_chk_fail@plt>
    ab50:	48 81 c4 f0 0b 00 00 	add    $0xbf0,%rsp
    ab57:	5b                   	pop    %rbx
    ab58:	41 5c                	pop    %r12
    ab5a:	41 5d                	pop    %r13
    ab5c:	41 5e                	pop    %r14
    ab5e:	5d                   	pop    %rbp
    ab5f:	c3                   	retq   

000000000000ab60 <func_17>:
    ab60:	f3 0f 1e fa          	endbr64 
    ab64:	55                   	push   %rbp
    ab65:	48 89 e5             	mov    %rsp,%rbp
    ab68:	48 83 ec 60          	sub    $0x60,%rsp
    ab6c:	48 89 7d a8          	mov    %rdi,-0x58(%rbp)
    ab70:	48 89 75 a0          	mov    %rsi,-0x60(%rbp)
    ab74:	64 48 8b 04 25 28 00 	mov    %fs:0x28,%rax
    ab7b:	00 00 
    ab7d:	48 89 45 f8          	mov    %rax,-0x8(%rbp)
    ab81:	31 c0                	xor    %eax,%eax
    ab83:	48 8d 05 1e e8 00 00 	lea    0xe81e(%rip),%rax        # 193a8 <g_505>
    ab8a:	48 89 45 b0          	mov    %rax,-0x50(%rbp)
    ab8e:	48 8d 05 df e4 00 00 	lea    0xe4df(%rip),%rax        # 19074 <g_40>
    ab95:	48 89 45 b8          	mov    %rax,-0x48(%rbp)
    ab99:	48 8d 05 08 e8 00 00 	lea    0xe808(%rip),%rax        # 193a8 <g_505>
    aba0:	48 89 45 c0          	mov    %rax,-0x40(%rbp)
    aba4:	48 8d 05 c9 e4 00 00 	lea    0xe4c9(%rip),%rax        # 19074 <g_40>
    abab:	48 89 45 c8          	mov    %rax,-0x38(%rbp)
    abaf:	48 8d 05 f2 e7 00 00 	lea    0xe7f2(%rip),%rax        # 193a8 <g_505>
    abb6:	48 89 45 d0          	mov    %rax,-0x30(%rbp)
    abba:	48 8d 05 b3 e4 00 00 	lea    0xe4b3(%rip),%rax        # 19074 <g_40>
    abc1:	48 89 45 d8          	mov    %rax,-0x28(%rbp)
    abc5:	48 8d 05 dc e7 00 00 	lea    0xe7dc(%rip),%rax        # 193a8 <g_505>
    abcc:	48 89 45 e0          	mov    %rax,-0x20(%rbp)
    abd0:	48 8d 05 9d e4 00 00 	lea    0xe49d(%rip),%rax        # 19074 <g_40>
    abd7:	48 89 45 e8          	mov    %rax,-0x18(%rbp)
    abdb:	48 8d 05 c6 e7 00 00 	lea    0xe7c6(%rip),%rax        # 193a8 <g_505>
    abe2:	48 89 45 f0          	mov    %rax,-0x10(%rbp)
    abe6:	48 8b 05 fb 17 01 00 	mov    0x117fb(%rip),%rax        # 1c3e8 <g_1160>
    abed:	48 8b 55 f0          	mov    -0x10(%rbp),%rdx
    abf1:	48 89 10             	mov    %rdx,(%rax)
    abf4:	48 8b 45 a0          	mov    -0x60(%rbp),%rax
    abf8:	48 8b 4d f8          	mov    -0x8(%rbp),%rcx
    abfc:	64 48 33 0c 25 28 00 	xor    %fs:0x28,%rcx
    ac03:	00 00 
    ac05:	74 05                	je     ac0c <func_17+0xac>
    ac07:	e8 64 c4 ff ff       	callq  7070 <__stack_chk_fail@plt>
    ac0c:	c9                   	leaveq 
    ac0d:	c3                   	retq   

000000000000ac0e <func_20>:
    ac0e:	f3 0f 1e fa          	endbr64 
    ac12:	55                   	push   %rbp
    ac13:	48 89 e5             	mov    %rsp,%rbp
    ac16:	48 81 ec e0 07 00 00 	sub    $0x7e0,%rsp
    ac1d:	89 f9                	mov    %edi,%ecx
    ac1f:	89 f0                	mov    %esi,%eax
    ac21:	48 89 95 20 f8 ff ff 	mov    %rdx,-0x7e0(%rbp)
    ac28:	89 ca                	mov    %ecx,%edx
    ac2a:	66 89 95 2c f8 ff ff 	mov    %dx,-0x7d4(%rbp)
    ac31:	66 89 85 28 f8 ff ff 	mov    %ax,-0x7d8(%rbp)
    ac38:	64 48 8b 04 25 28 00 	mov    %fs:0x28,%rax
    ac3f:	00 00 
    ac41:	48 89 45 f8          	mov    %rax,-0x8(%rbp)
    ac45:	31 c0                	xor    %eax,%eax
    ac47:	48 8d 05 26 e4 00 00 	lea    0xe426(%rip),%rax        # 19074 <g_40>
    ac4e:	48 89 85 38 f8 ff ff 	mov    %rax,-0x7c8(%rbp)
    ac55:	48 8d 05 7c eb 00 00 	lea    0xeb7c(%rip),%rax        # 197d8 <g_1666>
    ac5c:	48 89 85 40 f8 ff ff 	mov    %rax,-0x7c0(%rbp)
    ac63:	48 8d 05 b6 20 01 00 	lea    0x120b6(%rip),%rax        # 1cd20 <g_506>
    ac6a:	48 89 85 48 f8 ff ff 	mov    %rax,-0x7b8(%rbp)
    ac71:	48 8d 85 50 f8 ff ff 	lea    -0x7b0(%rbp),%rax
    ac78:	48 8d 15 c1 fa 00 00 	lea    0xfac1(%rip),%rdx        # 1a740 <g_2596+0x9f0>
    ac7f:	b9 f5 00 00 00       	mov    $0xf5,%ecx
    ac84:	48 89 c7             	mov    %rax,%rdi
    ac87:	48 89 d6             	mov    %rdx,%rsi
    ac8a:	f3 48 a5             	rep movsq %ds:(%rsi),%es:(%rdi)
    ac8d:	c7 85 34 f8 ff ff 00 	movl   $0x0,-0x7cc(%rbp)
    ac94:	00 00 00 
    ac97:	83 85 34 f8 ff ff 01 	addl   $0x1,-0x7cc(%rbp)
    ac9e:	48 8b 85 30 f9 ff ff 	mov    -0x6d0(%rbp),%rax
    aca5:	48 8b 75 f8          	mov    -0x8(%rbp),%rsi
    aca9:	64 48 33 34 25 28 00 	xor    %fs:0x28,%rsi
    acb0:	00 00 
    acb2:	74 05                	je     acb9 <func_20+0xab>
    acb4:	e8 b7 c3 ff ff       	callq  7070 <__stack_chk_fail@plt>
    acb9:	c9                   	leaveq 
    acba:	c3                   	retq   

000000000000acbb <func_36>:
    acbb:	f3 0f 1e fa          	endbr64 
    acbf:	55                   	push   %rbp
    acc0:	48 89 e5             	mov    %rsp,%rbp
    acc3:	41 57                	push   %r15
    acc5:	41 56                	push   %r14
    acc7:	41 55                	push   %r13
    acc9:	41 54                	push   %r12
    accb:	53                   	push   %rbx
    accc:	48 81 ec 58 09 00 00 	sub    $0x958,%rsp
    acd3:	48 89 bd a8 f6 ff ff 	mov    %rdi,-0x958(%rbp)
    acda:	89 b5 a4 f6 ff ff    	mov    %esi,-0x95c(%rbp)
    ace0:	64 48 8b 04 25 28 00 	mov    %fs:0x28,%rax
    ace7:	00 00 
    ace9:	48 89 45 c8          	mov    %rax,-0x38(%rbp)
    aced:	31 c0                	xor    %eax,%eax
    acef:	c7 85 d4 f6 ff ff 01 	movl   $0x1,-0x92c(%rbp)
    acf6:	00 00 00 
    acf9:	48 8d 05 80 e3 00 00 	lea    0xe380(%rip),%rax        # 19080 <g_88>
    ad00:	48 89 85 10 f7 ff ff 	mov    %rax,-0x8f0(%rbp)
    ad07:	c7 85 b4 f6 ff ff 8d 	movl   $0xd2a19d8d,-0x94c(%rbp)
    ad0e:	9d a1 d2 
    ad11:	48 8d 05 70 e3 00 00 	lea    0xe370(%rip),%rax        # 19088 <g_91>
    ad18:	48 89 85 f8 f6 ff ff 	mov    %rax,-0x908(%rbp)
    ad1f:	48 c7 85 00 f7 ff ff 	movq   $0x0,-0x900(%rbp)
    ad26:	00 00 00 00 
    ad2a:	c7 85 b8 f6 ff ff 04 	movl   $0x4,-0x948(%rbp)
    ad31:	00 00 00 
    ad34:	c7 85 bc f6 ff ff ff 	movl   $0xffffffff,-0x944(%rbp)
    ad3b:	ff ff ff 
    ad3e:	c7 85 c0 f6 ff ff 1f 	movl   $0xd3e1991f,-0x940(%rbp)
    ad45:	99 e1 d3 
    ad48:	c7 85 c4 f6 ff ff 13 	movl   $0x8a3eed13,-0x93c(%rbp)
    ad4f:	ed 3e 8a 
    ad52:	48 b8 a5 2c c2 cc 50 	movabs $0x4223e050ccc22ca5,%rax
    ad59:	e0 23 42 
    ad5c:	48 89 85 08 f7 ff ff 	mov    %rax,-0x8f8(%rbp)
    ad63:	48 8d 85 30 f7 ff ff 	lea    -0x8d0(%rbp),%rax
    ad6a:	48 8d 15 2f 96 00 00 	lea    0x962f(%rip),%rdx        # 143a0 <g_2035+0x12f8>
    ad71:	b9 32 00 00 00       	mov    $0x32,%ecx
    ad76:	48 89 c7             	mov    %rax,%rdi
    ad79:	48 89 d6             	mov    %rdx,%rsi
    ad7c:	f3 48 a5             	rep movsq %ds:(%rsi),%es:(%rdi)
    ad7f:	c6 85 b3 f6 ff ff ff 	movb   $0xff,-0x94d(%rbp)
    ad86:	c7 85 c8 f6 ff ff fa 	movl   $0xfffffffa,-0x938(%rbp)
    ad8d:	ff ff ff 
    ad90:	c7 85 cc f6 ff ff 34 	movl   $0x4e1fb834,-0x934(%rbp)
    ad97:	b8 1f 4e 
    ad9a:	c7 85 d0 f6 ff ff 02 	movl   $0x2,-0x930(%rbp)
    ada1:	00 00 00 
    ada4:	b8 ff ff ff ff       	mov    $0xffffffff,%eax
    ada9:	89 85 a0 f6 ff ff    	mov    %eax,-0x960(%rbp)
    adaf:	44 8b a5 d4 f6 ff ff 	mov    -0x92c(%rbp),%r12d
    adb6:	8b 85 d4 f6 ff ff    	mov    -0x92c(%rbp),%eax
    adbc:	0f bf d8             	movswl %ax,%ebx
    adbf:	4c 8b 35 aa 0c 01 00 	mov    0x10caa(%rip),%r14        # 1ba70 <g_734>
    adc6:	0f b7 05 a9 e5 00 00 	movzwl 0xe5a9(%rip),%eax        # 19376 <g_369+0x6>
    adcd:	44 0f bf e8          	movswl %ax,%r13d
    add1:	8b 05 f5 e5 00 00    	mov    0xe5f5(%rip),%eax        # 193cc <g_531>
    add7:	4c 63 f8             	movslq %eax,%r15
    adda:	0f b6 05 a7 e5 00 00 	movzbl 0xe5a7(%rip),%eax        # 19388 <g_416>
    ade1:	0f be c0             	movsbl %al,%eax
    ade4:	89 85 9c f6 ff ff    	mov    %eax,-0x964(%rbp)
    adea:	0f b6 05 65 e2 00 00 	movzbl 0xe265(%rip),%eax        # 19056 <g_8+0x16>
    adf1:	66 98                	cbtw   
    adf3:	0f b7 c0             	movzwl %ax,%eax
    adf6:	89 85 98 f6 ff ff    	mov    %eax,-0x968(%rbp)
    adfc:	8b 85 d4 f6 ff ff    	mov    -0x92c(%rbp),%eax
    ae02:	0f b7 c0             	movzwl %ax,%eax
    ae05:	89 85 94 f6 ff ff    	mov    %eax,-0x96c(%rbp)
    ae0b:	83 bd a4 f6 ff ff 00 	cmpl   $0x0,-0x95c(%rbp)
    ae12:	0f 85 a0 00 00 00    	jne    aeb8 <func_36+0x1fd>
    ae18:	0f b6 05 2b e2 00 00 	movzbl 0xe22b(%rip),%eax        # 1904a <g_8+0xa>
    ae1f:	48 0f be c0          	movsbq %al,%rax
    ae23:	48 89 85 88 f6 ff ff 	mov    %rax,-0x978(%rbp)
    ae2a:	0f b6 05 25 e2 00 00 	movzbl 0xe225(%rip),%eax        # 19056 <g_8+0x16>
    ae31:	0f be d0             	movsbl %al,%edx
    ae34:	8b 85 d4 f6 ff ff    	mov    -0x92c(%rbp),%eax
    ae3a:	98                   	cwtl   
    ae3b:	89 d6                	mov    %edx,%esi
    ae3d:	89 c7                	mov    %eax,%edi
    ae3f:	e8 9d c6 ff ff       	callq  74e1 <safe_lshift_func_int16_t_s_u>
    ae44:	98                   	cwtl   
    ae45:	89 c6                	mov    %eax,%esi
    ae47:	bf d2 d8 ff ff       	mov    $0xffffd8d2,%edi
    ae4c:	e8 c5 c5 ff ff       	callq  7416 <safe_mod_func_int16_t_s_s>
    ae51:	48 0f bf d0          	movswq %ax,%rdx
    ae55:	48 8b 05 1c e2 00 00 	mov    0xe21c(%rip),%rax        # 19078 <g_78>
    ae5c:	48 39 c2             	cmp    %rax,%rdx
    ae5f:	0f 9c c0             	setl   %al
    ae62:	0f b6 c8             	movzbl %al,%ecx
    ae65:	48 8b 85 10 f7 ff ff 	mov    -0x8f0(%rbp),%rax
    ae6c:	48 8b 10             	mov    (%rax),%rdx
    ae6f:	48 63 c1             	movslq %ecx,%rax
    ae72:	48 09 c2             	or     %rax,%rdx
    ae75:	48 8b 85 10 f7 ff ff 	mov    -0x8f0(%rbp),%rax
    ae7c:	48 89 10             	mov    %rdx,(%rax)
    ae7f:	48 8b 85 10 f7 ff ff 	mov    -0x8f0(%rbp),%rax
    ae86:	48 8b 00             	mov    (%rax),%rax
    ae89:	89 85 b4 f6 ff ff    	mov    %eax,-0x94c(%rbp)
    ae8f:	8b 85 b4 f6 ff ff    	mov    -0x94c(%rbp),%eax
    ae95:	48 98                	cltq   
    ae97:	48 8b b5 88 f6 ff ff 	mov    -0x978(%rbp),%rsi
    ae9e:	48 89 c7             	mov    %rax,%rdi
    aea1:	e8 9b c9 ff ff       	callq  7841 <safe_add_func_int64_t_s_s>
    aea6:	48 ba cd e2 d9 f8 29 	movabs $0x6835ac29f8d9e2cd,%rdx
    aead:	ac 35 68 
    aeb0:	48 21 d0             	and    %rdx,%rax
    aeb3:	48 85 c0             	test   %rax,%rax
    aeb6:	74 07                	je     aebf <func_36+0x204>
    aeb8:	b8 01 00 00 00       	mov    $0x1,%eax
    aebd:	eb 05                	jmp    aec4 <func_36+0x209>
    aebf:	b8 00 00 00 00       	mov    $0x0,%eax
    aec4:	98                   	cwtl   
    aec5:	be 0a 00 00 00       	mov    $0xa,%esi
    aeca:	89 c7                	mov    %eax,%edi
    aecc:	e8 c1 c5 ff ff       	callq  7492 <safe_lshift_func_int16_t_s_s>
    aed1:	81 bd a4 f6 ff ff f3 	cmpl   $0xf3,-0x95c(%rbp)
    aed8:	00 00 00 
    aedb:	0f 97 c2             	seta   %dl
    aede:	48 8b 05 03 0b 01 00 	mov    0x10b03(%rip),%rax        # 1b9e8 <g_77>
    aee5:	48 8d 0d 8c e1 00 00 	lea    0xe18c(%rip),%rcx        # 19078 <g_78>
    aeec:	48 39 c8             	cmp    %rcx,%rax
    aeef:	0f 94 c0             	sete   %al
    aef2:	21 d0                	and    %edx,%eax
    aef4:	0f b6 c0             	movzbl %al,%eax
    aef7:	be 07 00 00 00       	mov    $0x7,%esi
    aefc:	89 c7                	mov    %eax,%edi
    aefe:	e8 bb ce ff ff       	callq  7dbe <safe_lshift_func_uint16_t_u_s>
    af03:	66 85 c0             	test   %ax,%ax
    af06:	0f 94 c0             	sete   %al
    af09:	0f b6 d0             	movzbl %al,%edx
    af0c:	0f b6 05 33 e1 00 00 	movzbl 0xe133(%rip),%eax        # 19046 <g_8+0x6>
    af13:	66 98                	cbtw   
    af15:	21 d0                	and    %edx,%eax
    af17:	0f b7 c0             	movzwl %ax,%eax
    af1a:	8b b5 94 f6 ff ff    	mov    -0x96c(%rbp),%esi
    af20:	89 c7                	mov    %eax,%edi
    af22:	e8 f8 cd ff ff       	callq  7d1f <safe_sub_func_uint16_t_u_u>
    af27:	48 8b 95 f8 f6 ff ff 	mov    -0x908(%rbp),%rdx
    af2e:	66 89 02             	mov    %ax,(%rdx)
    af31:	48 8b 85 f8 f6 ff ff 	mov    -0x908(%rbp),%rax
    af38:	0f b7 00             	movzwl (%rax),%eax
    af3b:	66 85 c0             	test   %ax,%ax
    af3e:	74 13                	je     af53 <func_36+0x298>
    af40:	0f b7 05 41 e1 00 00 	movzwl 0xe141(%rip),%eax        # 19088 <g_91>
    af47:	66 85 c0             	test   %ax,%ax
    af4a:	74 07                	je     af53 <func_36+0x298>
    af4c:	b8 01 00 00 00       	mov    $0x1,%eax
    af51:	eb 05                	jmp    af58 <func_36+0x29d>
    af53:	b8 00 00 00 00       	mov    $0x0,%eax
    af58:	0f be c0             	movsbl %al,%eax
    af5b:	be 04 00 00 00       	mov    $0x4,%esi
    af60:	89 c7                	mov    %eax,%edi
    af62:	e8 05 c4 ff ff       	callq  736c <safe_rshift_func_int8_t_s_u>
    af67:	66 98                	cbtw   
    af69:	0f b7 c0             	movzwl %ax,%eax
    af6c:	8b b5 98 f6 ff ff    	mov    -0x968(%rbp),%esi
    af72:	89 c7                	mov    %eax,%edi
    af74:	e8 86 cd ff ff       	callq  7cff <safe_add_func_uint16_t_u_u>
    af79:	0f b7 d0             	movzwl %ax,%edx
    af7c:	48 8b 05 5d 0a 01 00 	mov    0x10a5d(%rip),%rax        # 1b9e0 <g_39>
    af83:	8b 00                	mov    (%rax),%eax
    af85:	39 c2                	cmp    %eax,%edx
    af87:	0f 9f c0             	setg   %al
    af8a:	0f b6 c0             	movzbl %al,%eax
    af8d:	39 85 d4 f6 ff ff    	cmp    %eax,-0x92c(%rbp)
    af93:	0f 92 c0             	setb   %al
    af96:	0f b6 c0             	movzbl %al,%eax
    af99:	be 06 00 00 00       	mov    $0x6,%esi
    af9e:	89 c7                	mov    %eax,%edi
    afa0:	e8 c7 c3 ff ff       	callq  736c <safe_rshift_func_int8_t_s_u>
    afa5:	66 98                	cbtw   
    afa7:	0f b7 c0             	movzwl %ax,%eax
    afaa:	89 c6                	mov    %eax,%esi
    afac:	48 8d 3d c1 e0 00 00 	lea    0xe0c1(%rip),%rdi        # 19074 <g_40>
    afb3:	e8 c1 22 00 00       	callq  d279 <func_63>
    afb8:	8b 95 d4 f6 ff ff    	mov    -0x92c(%rbp),%edx
    afbe:	48 39 d0             	cmp    %rdx,%rax
    afc1:	0f 9c c0             	setl   %al
    afc4:	0f b6 c0             	movzbl %al,%eax
    afc7:	39 85 d4 f6 ff ff    	cmp    %eax,-0x92c(%rbp)
    afcd:	0f 97 c0             	seta   %al
    afd0:	0f b6 c0             	movzbl %al,%eax
    afd3:	39 85 d4 f6 ff ff    	cmp    %eax,-0x92c(%rbp)
    afd9:	0f 96 c0             	setbe  %al
    afdc:	0f b6 c0             	movzbl %al,%eax
    afdf:	8b b5 9c f6 ff ff    	mov    -0x964(%rbp),%esi
    afe5:	89 c7                	mov    %eax,%edi
    afe7:	e8 c7 c3 ff ff       	callq  73b3 <safe_add_func_int16_t_s_s>
    afec:	48 0f bf c0          	movswq %ax,%rax
    aff0:	4c 89 fe             	mov    %r15,%rsi
    aff3:	48 89 c7             	mov    %rax,%rdi
    aff6:	e8 b9 c9 ff ff       	callq  79b4 <safe_mod_func_int64_t_s_s>
    affb:	48 8b 95 f8 f6 ff ff 	mov    -0x908(%rbp),%rdx
    b002:	48 8b 85 00 f7 ff ff 	mov    -0x900(%rbp),%rax
    b009:	49 89 d0             	mov    %rdx,%r8
    b00c:	48 89 c1             	mov    %rax,%rcx
    b00f:	4c 89 f2             	mov    %r14,%rdx
    b012:	44 89 ee             	mov    %r13d,%esi
    b015:	bf 01 00 00 00       	mov    $0x1,%edi
    b01a:	e8 c6 11 00 00       	callq  c1e5 <func_53>
    b01f:	44 8b 85 a0 f6 ff ff 	mov    -0x960(%rbp),%r8d
    b026:	44 89 e1             	mov    %r12d,%ecx
    b029:	89 da                	mov    %ebx,%edx
    b02b:	48 8d 35 76 e3 00 00 	lea    0xe376(%rip),%rsi        # 193a8 <g_505>
    b032:	bf 00 00 00 00       	mov    $0x0,%edi
    b037:	e8 5a 0c 00 00       	callq  bc96 <func_47>
    b03c:	48 8d 05 dd 1c 01 00 	lea    0x11cdd(%rip),%rax        # 1cd20 <g_506>
    b043:	48 89 85 18 f7 ff ff 	mov    %rax,-0x8e8(%rbp)
    b04a:	48 8d 05 57 e3 00 00 	lea    0xe357(%rip),%rax        # 193a8 <g_505>
    b051:	48 89 85 20 f7 ff ff 	mov    %rax,-0x8e0(%rbp)
    b058:	48 8d 85 b4 f6 ff ff 	lea    -0x94c(%rbp),%rax
    b05f:	48 89 85 c0 f8 ff ff 	mov    %rax,-0x740(%rbp)
    b066:	48 8d 05 07 e0 00 00 	lea    0xe007(%rip),%rax        # 19074 <g_40>
    b06d:	48 89 85 c8 f8 ff ff 	mov    %rax,-0x738(%rbp)
    b074:	48 8d 85 b4 f6 ff ff 	lea    -0x94c(%rbp),%rax
    b07b:	48 89 85 d0 f8 ff ff 	mov    %rax,-0x730(%rbp)
    b082:	48 8d 85 b4 f6 ff ff 	lea    -0x94c(%rbp),%rax
    b089:	48 89 85 d8 f8 ff ff 	mov    %rax,-0x728(%rbp)
    b090:	48 8d 05 89 1c 01 00 	lea    0x11c89(%rip),%rax        # 1cd20 <g_506>
    b097:	48 89 85 e0 f8 ff ff 	mov    %rax,-0x720(%rbp)
    b09e:	48 c7 85 e8 f8 ff ff 	movq   $0x0,-0x718(%rbp)
    b0a5:	00 00 00 00 
    b0a9:	48 8d 05 70 1c 01 00 	lea    0x11c70(%rip),%rax        # 1cd20 <g_506>
    b0b0:	48 89 85 f0 f8 ff ff 	mov    %rax,-0x710(%rbp)
    b0b7:	48 8d 85 b4 f6 ff ff 	lea    -0x94c(%rbp),%rax
    b0be:	48 89 85 f8 f8 ff ff 	mov    %rax,-0x708(%rbp)
    b0c5:	48 8d 85 b4 f6 ff ff 	lea    -0x94c(%rbp),%rax
    b0cc:	48 89 85 00 f9 ff ff 	mov    %rax,-0x700(%rbp)
    b0d3:	48 8d 05 9a df 00 00 	lea    0xdf9a(%rip),%rax        # 19074 <g_40>
    b0da:	48 89 85 08 f9 ff ff 	mov    %rax,-0x6f8(%rbp)
    b0e1:	48 8d 05 8c df 00 00 	lea    0xdf8c(%rip),%rax        # 19074 <g_40>
    b0e8:	48 89 85 10 f9 ff ff 	mov    %rax,-0x6f0(%rbp)
    b0ef:	48 c7 85 18 f9 ff ff 	movq   $0x0,-0x6e8(%rbp)
    b0f6:	00 00 00 00 
    b0fa:	48 c7 85 20 f9 ff ff 	movq   $0x0,-0x6e0(%rbp)
    b101:	00 00 00 00 
    b105:	48 8d 05 14 1c 01 00 	lea    0x11c14(%rip),%rax        # 1cd20 <g_506>
    b10c:	48 89 85 28 f9 ff ff 	mov    %rax,-0x6d8(%rbp)
    b113:	48 8d 85 b4 f6 ff ff 	lea    -0x94c(%rbp),%rax
    b11a:	48 89 85 30 f9 ff ff 	mov    %rax,-0x6d0(%rbp)
    b121:	48 8d 05 f8 1b 01 00 	lea    0x11bf8(%rip),%rax        # 1cd20 <g_506>
    b128:	48 89 85 38 f9 ff ff 	mov    %rax,-0x6c8(%rbp)
    b12f:	48 8d 05 3e df 00 00 	lea    0xdf3e(%rip),%rax        # 19074 <g_40>
    b136:	48 89 85 40 f9 ff ff 	mov    %rax,-0x6c0(%rbp)
    b13d:	48 8d 05 64 e2 00 00 	lea    0xe264(%rip),%rax        # 193a8 <g_505>
    b144:	48 89 85 48 f9 ff ff 	mov    %rax,-0x6b8(%rbp)
    b14b:	48 8d 05 ce 1b 01 00 	lea    0x11bce(%rip),%rax        # 1cd20 <g_506>
    b152:	48 89 85 50 f9 ff ff 	mov    %rax,-0x6b0(%rbp)
    b159:	48 c7 85 58 f9 ff ff 	movq   $0x0,-0x6a8(%rbp)
    b160:	00 00 00 00 
    b164:	48 c7 85 60 f9 ff ff 	movq   $0x0,-0x6a0(%rbp)
    b16b:	00 00 00 00 
    b16f:	48 8d 85 b4 f6 ff ff 	lea    -0x94c(%rbp),%rax
    b176:	48 89 85 68 f9 ff ff 	mov    %rax,-0x698(%rbp)
    b17d:	48 8d 05 24 e2 00 00 	lea    0xe224(%rip),%rax        # 193a8 <g_505>
    b184:	48 89 85 70 f9 ff ff 	mov    %rax,-0x690(%rbp)
    b18b:	48 c7 85 78 f9 ff ff 	movq   $0x0,-0x688(%rbp)
    b192:	00 00 00 00 
    b196:	48 8d 85 b4 f6 ff ff 	lea    -0x94c(%rbp),%rax
    b19d:	48 89 85 80 f9 ff ff 	mov    %rax,-0x680(%rbp)
    b1a4:	48 8d 05 75 1b 01 00 	lea    0x11b75(%rip),%rax        # 1cd20 <g_506>
    b1ab:	48 89 85 88 f9 ff ff 	mov    %rax,-0x678(%rbp)
    b1b2:	48 c7 85 90 f9 ff ff 	movq   $0x0,-0x670(%rbp)
    b1b9:	00 00 00 00 
    b1bd:	48 c7 85 98 f9 ff ff 	movq   $0x0,-0x668(%rbp)
    b1c4:	00 00 00 00 
    b1c8:	48 8d 85 b4 f6 ff ff 	lea    -0x94c(%rbp),%rax
    b1cf:	48 89 85 a0 f9 ff ff 	mov    %rax,-0x660(%rbp)
    b1d6:	48 8d 85 b4 f6 ff ff 	lea    -0x94c(%rbp),%rax
    b1dd:	48 89 85 a8 f9 ff ff 	mov    %rax,-0x658(%rbp)
    b1e4:	48 8d 05 bd e1 00 00 	lea    0xe1bd(%rip),%rax        # 193a8 <g_505>
    b1eb:	48 89 85 b0 f9 ff ff 	mov    %rax,-0x650(%rbp)
    b1f2:	48 8d 85 b4 f6 ff ff 	lea    -0x94c(%rbp),%rax
    b1f9:	48 89 85 b8 f9 ff ff 	mov    %rax,-0x648(%rbp)
    b200:	48 c7 85 c0 f9 ff ff 	movq   $0x0,-0x640(%rbp)
    b207:	00 00 00 00 
    b20b:	48 c7 85 c8 f9 ff ff 	movq   $0x0,-0x638(%rbp)
    b212:	00 00 00 00 
    b216:	48 8d 05 03 1b 01 00 	lea    0x11b03(%rip),%rax        # 1cd20 <g_506>
    b21d:	48 89 85 d0 f9 ff ff 	mov    %rax,-0x630(%rbp)
    b224:	48 8d 05 f5 1a 01 00 	lea    0x11af5(%rip),%rax        # 1cd20 <g_506>
    b22b:	48 89 85 d8 f9 ff ff 	mov    %rax,-0x628(%rbp)
    b232:	48 8d 05 3b de 00 00 	lea    0xde3b(%rip),%rax        # 19074 <g_40>
    b239:	48 89 85 e0 f9 ff ff 	mov    %rax,-0x620(%rbp)
    b240:	48 8d 05 2d de 00 00 	lea    0xde2d(%rip),%rax        # 19074 <g_40>
    b247:	48 89 85 e8 f9 ff ff 	mov    %rax,-0x618(%rbp)
    b24e:	48 8d 85 b4 f6 ff ff 	lea    -0x94c(%rbp),%rax
    b255:	48 89 85 f0 f9 ff ff 	mov    %rax,-0x610(%rbp)
    b25c:	48 c7 85 f8 f9 ff ff 	movq   $0x0,-0x608(%rbp)
    b263:	00 00 00 00 
    b267:	48 c7 85 00 fa ff ff 	movq   $0x0,-0x600(%rbp)
    b26e:	00 00 00 00 
    b272:	48 c7 85 08 fa ff ff 	movq   $0x0,-0x5f8(%rbp)
    b279:	00 00 00 00 
    b27d:	48 8d 05 f0 dd 00 00 	lea    0xddf0(%rip),%rax        # 19074 <g_40>
    b284:	48 89 85 10 fa ff ff 	mov    %rax,-0x5f0(%rbp)
    b28b:	48 8d 05 8e 1a 01 00 	lea    0x11a8e(%rip),%rax        # 1cd20 <g_506>
    b292:	48 89 85 18 fa ff ff 	mov    %rax,-0x5e8(%rbp)
    b299:	48 8d 85 b4 f6 ff ff 	lea    -0x94c(%rbp),%rax
    b2a0:	48 89 85 20 fa ff ff 	mov    %rax,-0x5e0(%rbp)
    b2a7:	48 8d 85 b4 f6 ff ff 	lea    -0x94c(%rbp),%rax
    b2ae:	48 89 85 28 fa ff ff 	mov    %rax,-0x5d8(%rbp)
    b2b5:	48 8d 05 64 1a 01 00 	lea    0x11a64(%rip),%rax        # 1cd20 <g_506>
    b2bc:	48 89 85 30 fa ff ff 	mov    %rax,-0x5d0(%rbp)
    b2c3:	48 8d 05 aa dd 00 00 	lea    0xddaa(%rip),%rax        # 19074 <g_40>
    b2ca:	48 89 85 38 fa ff ff 	mov    %rax,-0x5c8(%rbp)
    b2d1:	48 8d 05 48 1a 01 00 	lea    0x11a48(%rip),%rax        # 1cd20 <g_506>
    b2d8:	48 89 85 40 fa ff ff 	mov    %rax,-0x5c0(%rbp)
    b2df:	48 8d 85 b4 f6 ff ff 	lea    -0x94c(%rbp),%rax
    b2e6:	48 89 85 48 fa ff ff 	mov    %rax,-0x5b8(%rbp)
    b2ed:	48 8d 85 b4 f6 ff ff 	lea    -0x94c(%rbp),%rax
    b2f4:	48 89 85 50 fa ff ff 	mov    %rax,-0x5b0(%rbp)
    b2fb:	48 8d 05 1e 1a 01 00 	lea    0x11a1e(%rip),%rax        # 1cd20 <g_506>
    b302:	48 89 85 58 fa ff ff 	mov    %rax,-0x5a8(%rbp)
    b309:	48 8d 85 b4 f6 ff ff 	lea    -0x94c(%rbp),%rax
    b310:	48 89 85 60 fa ff ff 	mov    %rax,-0x5a0(%rbp)
    b317:	48 c7 85 68 fa ff ff 	movq   $0x0,-0x598(%rbp)
    b31e:	00 00 00 00 
    b322:	48 8d 85 b4 f6 ff ff 	lea    -0x94c(%rbp),%rax
    b329:	48 89 85 70 fa ff ff 	mov    %rax,-0x590(%rbp)
    b330:	48 c7 85 78 fa ff ff 	movq   $0x0,-0x588(%rbp)
    b337:	00 00 00 00 
    b33b:	48 8d 05 66 e0 00 00 	lea    0xe066(%rip),%rax        # 193a8 <g_505>
    b342:	48 89 85 80 fa ff ff 	mov    %rax,-0x580(%rbp)
    b349:	48 8d 05 24 dd 00 00 	lea    0xdd24(%rip),%rax        # 19074 <g_40>
    b350:	48 89 85 88 fa ff ff 	mov    %rax,-0x578(%rbp)
    b357:	48 8d 05 4a e0 00 00 	lea    0xe04a(%rip),%rax        # 193a8 <g_505>
    b35e:	48 89 85 90 fa ff ff 	mov    %rax,-0x570(%rbp)
    b365:	48 8d 05 b4 19 01 00 	lea    0x119b4(%rip),%rax        # 1cd20 <g_506>
    b36c:	48 89 85 98 fa ff ff 	mov    %rax,-0x568(%rbp)
    b373:	48 8d 05 a6 19 01 00 	lea    0x119a6(%rip),%rax        # 1cd20 <g_506>
    b37a:	48 89 85 a0 fa ff ff 	mov    %rax,-0x560(%rbp)
    b381:	48 c7 85 a8 fa ff ff 	movq   $0x0,-0x558(%rbp)
    b388:	00 00 00 00 
    b38c:	48 8d 05 8d 19 01 00 	lea    0x1198d(%rip),%rax        # 1cd20 <g_506>
    b393:	48 89 85 b0 fa ff ff 	mov    %rax,-0x550(%rbp)
    b39a:	48 8d 85 b4 f6 ff ff 	lea    -0x94c(%rbp),%rax
    b3a1:	48 89 85 b8 fa ff ff 	mov    %rax,-0x548(%rbp)
    b3a8:	48 8d 05 c5 dc 00 00 	lea    0xdcc5(%rip),%rax        # 19074 <g_40>
    b3af:	48 89 85 c0 fa ff ff 	mov    %rax,-0x540(%rbp)
    b3b6:	48 8d 85 b4 f6 ff ff 	lea    -0x94c(%rbp),%rax
    b3bd:	48 89 85 c8 fa ff ff 	mov    %rax,-0x538(%rbp)
    b3c4:	48 8d 05 a9 dc 00 00 	lea    0xdca9(%rip),%rax        # 19074 <g_40>
    b3cb:	48 89 85 d0 fa ff ff 	mov    %rax,-0x530(%rbp)
    b3d2:	48 c7 85 d8 fa ff ff 	movq   $0x0,-0x528(%rbp)
    b3d9:	00 00 00 00 
    b3dd:	48 c7 85 e0 fa ff ff 	movq   $0x0,-0x520(%rbp)
    b3e4:	00 00 00 00 
    b3e8:	48 8d 05 31 19 01 00 	lea    0x11931(%rip),%rax        # 1cd20 <g_506>
    b3ef:	48 89 85 e8 fa ff ff 	mov    %rax,-0x518(%rbp)
    b3f6:	48 8d 05 77 dc 00 00 	lea    0xdc77(%rip),%rax        # 19074 <g_40>
    b3fd:	48 89 85 f0 fa ff ff 	mov    %rax,-0x510(%rbp)
    b404:	48 c7 85 f8 fa ff ff 	movq   $0x0,-0x508(%rbp)
    b40b:	00 00 00 00 
    b40f:	48 8d 05 5e dc 00 00 	lea    0xdc5e(%rip),%rax        # 19074 <g_40>
    b416:	48 89 85 00 fb ff ff 	mov    %rax,-0x500(%rbp)
    b41d:	48 8d 85 b4 f6 ff ff 	lea    -0x94c(%rbp),%rax
    b424:	48 89 85 08 fb ff ff 	mov    %rax,-0x4f8(%rbp)
    b42b:	48 8d 05 ee 18 01 00 	lea    0x118ee(%rip),%rax        # 1cd20 <g_506>
    b432:	48 89 85 10 fb ff ff 	mov    %rax,-0x4f0(%rbp)
    b439:	48 c7 85 18 fb ff ff 	movq   $0x0,-0x4e8(%rbp)
    b440:	00 00 00 00 
    b444:	48 8d 05 d5 18 01 00 	lea    0x118d5(%rip),%rax        # 1cd20 <g_506>
    b44b:	48 89 85 20 fb ff ff 	mov    %rax,-0x4e0(%rbp)
    b452:	48 8d 05 4f df 00 00 	lea    0xdf4f(%rip),%rax        # 193a8 <g_505>
    b459:	48 89 85 28 fb ff ff 	mov    %rax,-0x4d8(%rbp)
    b460:	48 8d 05 41 df 00 00 	lea    0xdf41(%rip),%rax        # 193a8 <g_505>
    b467:	48 89 85 30 fb ff ff 	mov    %rax,-0x4d0(%rbp)
    b46e:	48 8d 05 ab 18 01 00 	lea    0x118ab(%rip),%rax        # 1cd20 <g_506>
    b475:	48 89 85 38 fb ff ff 	mov    %rax,-0x4c8(%rbp)
    b47c:	48 8d 05 25 df 00 00 	lea    0xdf25(%rip),%rax        # 193a8 <g_505>
    b483:	48 89 85 40 fb ff ff 	mov    %rax,-0x4c0(%rbp)
    b48a:	48 8d 05 8f 18 01 00 	lea    0x1188f(%rip),%rax        # 1cd20 <g_506>
    b491:	48 89 85 48 fb ff ff 	mov    %rax,-0x4b8(%rbp)
    b498:	48 8d 85 b4 f6 ff ff 	lea    -0x94c(%rbp),%rax
    b49f:	48 89 85 50 fb ff ff 	mov    %rax,-0x4b0(%rbp)
    b4a6:	48 c7 85 58 fb ff ff 	movq   $0x0,-0x4a8(%rbp)
    b4ad:	00 00 00 00 
    b4b1:	48 8d 85 b4 f6 ff ff 	lea    -0x94c(%rbp),%rax
    b4b8:	48 89 85 60 fb ff ff 	mov    %rax,-0x4a0(%rbp)
    b4bf:	48 8d 05 ae db 00 00 	lea    0xdbae(%rip),%rax        # 19074 <g_40>
    b4c6:	48 89 85 68 fb ff ff 	mov    %rax,-0x498(%rbp)
    b4cd:	48 8d 85 b4 f6 ff ff 	lea    -0x94c(%rbp),%rax
    b4d4:	48 89 85 70 fb ff ff 	mov    %rax,-0x490(%rbp)
    b4db:	48 8d 85 b4 f6 ff ff 	lea    -0x94c(%rbp),%rax
    b4e2:	48 89 85 78 fb ff ff 	mov    %rax,-0x488(%rbp)
    b4e9:	48 8d 05 30 18 01 00 	lea    0x11830(%rip),%rax        # 1cd20 <g_506>
    b4f0:	48 89 85 80 fb ff ff 	mov    %rax,-0x480(%rbp)
    b4f7:	48 c7 85 88 fb ff ff 	movq   $0x0,-0x478(%rbp)
    b4fe:	00 00 00 00 
    b502:	48 8d 05 17 18 01 00 	lea    0x11817(%rip),%rax        # 1cd20 <g_506>
    b509:	48 89 85 90 fb ff ff 	mov    %rax,-0x470(%rbp)
    b510:	48 8d 85 b4 f6 ff ff 	lea    -0x94c(%rbp),%rax
    b517:	48 89 85 98 fb ff ff 	mov    %rax,-0x468(%rbp)
    b51e:	48 c7 85 a0 fb ff ff 	movq   $0x0,-0x460(%rbp)
    b525:	00 00 00 00 
    b529:	48 c7 85 a8 fb ff ff 	movq   $0x0,-0x458(%rbp)
    b530:	00 00 00 00 
    b534:	48 c7 85 b0 fb ff ff 	movq   $0x0,-0x450(%rbp)
    b53b:	00 00 00 00 
    b53f:	48 8d 05 da 17 01 00 	lea    0x117da(%rip),%rax        # 1cd20 <g_506>
    b546:	48 89 85 b8 fb ff ff 	mov    %rax,-0x448(%rbp)
    b54d:	48 8d 05 cc 17 01 00 	lea    0x117cc(%rip),%rax        # 1cd20 <g_506>
    b554:	48 89 85 c0 fb ff ff 	mov    %rax,-0x440(%rbp)
    b55b:	48 8d 05 46 de 00 00 	lea    0xde46(%rip),%rax        # 193a8 <g_505>
    b562:	48 89 85 c8 fb ff ff 	mov    %rax,-0x438(%rbp)
    b569:	48 8d 05 04 db 00 00 	lea    0xdb04(%rip),%rax        # 19074 <g_40>
    b570:	48 89 85 d0 fb ff ff 	mov    %rax,-0x430(%rbp)
    b577:	48 8d 05 2a de 00 00 	lea    0xde2a(%rip),%rax        # 193a8 <g_505>
    b57e:	48 89 85 d8 fb ff ff 	mov    %rax,-0x428(%rbp)
    b585:	48 c7 85 e0 fb ff ff 	movq   $0x0,-0x420(%rbp)
    b58c:	00 00 00 00 
    b590:	48 8d 05 41 e2 00 00 	lea    0xe241(%rip),%rax        # 197d8 <g_1666>
    b597:	48 89 85 e8 fb ff ff 	mov    %rax,-0x418(%rbp)
    b59e:	48 8d 85 b4 f6 ff ff 	lea    -0x94c(%rbp),%rax
    b5a5:	48 89 85 f0 fb ff ff 	mov    %rax,-0x410(%rbp)
    b5ac:	48 8d 85 b4 f6 ff ff 	lea    -0x94c(%rbp),%rax
    b5b3:	48 89 85 f8 fb ff ff 	mov    %rax,-0x408(%rbp)
    b5ba:	48 8d 85 b4 f6 ff ff 	lea    -0x94c(%rbp),%rax
    b5c1:	48 89 85 00 fc ff ff 	mov    %rax,-0x400(%rbp)
    b5c8:	48 c7 85 08 fc ff ff 	movq   $0x0,-0x3f8(%rbp)
    b5cf:	00 00 00 00 
    b5d3:	48 8d 05 fe e1 00 00 	lea    0xe1fe(%rip),%rax        # 197d8 <g_1666>
    b5da:	48 89 85 10 fc ff ff 	mov    %rax,-0x3f0(%rbp)
    b5e1:	48 8d 85 b4 f6 ff ff 	lea    -0x94c(%rbp),%rax
    b5e8:	48 89 85 18 fc ff ff 	mov    %rax,-0x3e8(%rbp)
    b5ef:	48 c7 85 20 fc ff ff 	movq   $0x0,-0x3e0(%rbp)
    b5f6:	00 00 00 00 
    b5fa:	48 8d 05 a7 dd 00 00 	lea    0xdda7(%rip),%rax        # 193a8 <g_505>
    b601:	48 89 85 28 fc ff ff 	mov    %rax,-0x3d8(%rbp)
    b608:	48 8d 05 11 17 01 00 	lea    0x11711(%rip),%rax        # 1cd20 <g_506>
    b60f:	48 89 85 30 fc ff ff 	mov    %rax,-0x3d0(%rbp)
    b616:	48 8d 05 03 17 01 00 	lea    0x11703(%rip),%rax        # 1cd20 <g_506>
    b61d:	48 89 85 38 fc ff ff 	mov    %rax,-0x3c8(%rbp)
    b624:	48 c7 85 40 fc ff ff 	movq   $0x0,-0x3c0(%rbp)
    b62b:	00 00 00 00 
    b62f:	48 c7 85 48 fc ff ff 	movq   $0x0,-0x3b8(%rbp)
    b636:	00 00 00 00 
    b63a:	48 8d 05 97 e1 00 00 	lea    0xe197(%rip),%rax        # 197d8 <g_1666>
    b641:	48 89 85 50 fc ff ff 	mov    %rax,-0x3b0(%rbp)
    b648:	48 8d 05 25 da 00 00 	lea    0xda25(%rip),%rax        # 19074 <g_40>
    b64f:	48 89 85 58 fc ff ff 	mov    %rax,-0x3a8(%rbp)
    b656:	48 8d 85 b4 f6 ff ff 	lea    -0x94c(%rbp),%rax
    b65d:	48 89 85 60 fc ff ff 	mov    %rax,-0x3a0(%rbp)
    b664:	48 8d 05 b5 16 01 00 	lea    0x116b5(%rip),%rax        # 1cd20 <g_506>
    b66b:	48 89 85 68 fc ff ff 	mov    %rax,-0x398(%rbp)
    b672:	48 8d 85 b4 f6 ff ff 	lea    -0x94c(%rbp),%rax
    b679:	48 89 85 70 fc ff ff 	mov    %rax,-0x390(%rbp)
    b680:	48 8d 85 b4 f6 ff ff 	lea    -0x94c(%rbp),%rax
    b687:	48 89 85 78 fc ff ff 	mov    %rax,-0x388(%rbp)
    b68e:	48 c7 85 80 fc ff ff 	movq   $0x0,-0x380(%rbp)
    b695:	00 00 00 00 
    b699:	48 c7 85 88 fc ff ff 	movq   $0x0,-0x378(%rbp)
    b6a0:	00 00 00 00 
    b6a4:	48 8d 05 c9 d9 00 00 	lea    0xd9c9(%rip),%rax        # 19074 <g_40>
    b6ab:	48 89 85 90 fc ff ff 	mov    %rax,-0x370(%rbp)
    b6b2:	48 8d 05 67 16 01 00 	lea    0x11667(%rip),%rax        # 1cd20 <g_506>
    b6b9:	48 89 85 98 fc ff ff 	mov    %rax,-0x368(%rbp)
    b6c0:	48 8d 05 59 16 01 00 	lea    0x11659(%rip),%rax        # 1cd20 <g_506>
    b6c7:	48 89 85 a0 fc ff ff 	mov    %rax,-0x360(%rbp)
    b6ce:	48 8d 85 b4 f6 ff ff 	lea    -0x94c(%rbp),%rax
    b6d5:	48 89 85 a8 fc ff ff 	mov    %rax,-0x358(%rbp)
    b6dc:	48 c7 85 b0 fc ff ff 	movq   $0x0,-0x350(%rbp)
    b6e3:	00 00 00 00 
    b6e7:	48 8d 05 ba dc 00 00 	lea    0xdcba(%rip),%rax        # 193a8 <g_505>
    b6ee:	48 89 85 b8 fc ff ff 	mov    %rax,-0x348(%rbp)
    b6f5:	48 c7 85 c0 fc ff ff 	movq   $0x0,-0x340(%rbp)
    b6fc:	00 00 00 00 
    b700:	48 c7 85 c8 fc ff ff 	movq   $0x0,-0x338(%rbp)
    b707:	00 00 00 00 
    b70b:	48 8d 85 b4 f6 ff ff 	lea    -0x94c(%rbp),%rax
    b712:	48 89 85 d0 fc ff ff 	mov    %rax,-0x330(%rbp)
    b719:	48 c7 85 d8 fc ff ff 	movq   $0x0,-0x328(%rbp)
    b720:	00 00 00 00 
    b724:	48 8d 05 7d dc 00 00 	lea    0xdc7d(%rip),%rax        # 193a8 <g_505>
    b72b:	48 89 85 e0 fc ff ff 	mov    %rax,-0x320(%rbp)
    b732:	48 c7 85 e8 fc ff ff 	movq   $0x0,-0x318(%rbp)
    b739:	00 00 00 00 
    b73d:	48 c7 85 f0 fc ff ff 	movq   $0x0,-0x310(%rbp)
    b744:	00 00 00 00 
    b748:	48 8d 05 59 dc 00 00 	lea    0xdc59(%rip),%rax        # 193a8 <g_505>
    b74f:	48 89 85 f8 fc ff ff 	mov    %rax,-0x308(%rbp)
    b756:	48 c7 85 00 fd ff ff 	movq   $0x0,-0x300(%rbp)
    b75d:	00 00 00 00 
    b761:	48 8d 85 b4 f6 ff ff 	lea    -0x94c(%rbp),%rax
    b768:	48 89 85 08 fd ff ff 	mov    %rax,-0x2f8(%rbp)
    b76f:	48 c7 85 10 fd ff ff 	movq   $0x0,-0x2f0(%rbp)
    b776:	00 00 00 00 
    b77a:	48 8d 05 9f 15 01 00 	lea    0x1159f(%rip),%rax        # 1cd20 <g_506>
    b781:	48 89 85 18 fd ff ff 	mov    %rax,-0x2e8(%rbp)
    b788:	48 8d 05 49 e0 00 00 	lea    0xe049(%rip),%rax        # 197d8 <g_1666>
    b78f:	48 89 85 20 fd ff ff 	mov    %rax,-0x2e0(%rbp)
    b796:	48 c7 85 28 fd ff ff 	movq   $0x0,-0x2d8(%rbp)
    b79d:	00 00 00 00 
    b7a1:	48 8d 05 30 e0 00 00 	lea    0xe030(%rip),%rax        # 197d8 <g_1666>
    b7a8:	48 89 85 30 fd ff ff 	mov    %rax,-0x2d0(%rbp)
    b7af:	48 8d 85 b4 f6 ff ff 	lea    -0x94c(%rbp),%rax
    b7b6:	48 89 85 38 fd ff ff 	mov    %rax,-0x2c8(%rbp)
    b7bd:	48 8d 05 e4 db 00 00 	lea    0xdbe4(%rip),%rax        # 193a8 <g_505>
    b7c4:	48 89 85 40 fd ff ff 	mov    %rax,-0x2c0(%rbp)
    b7cb:	48 8d 05 4e 15 01 00 	lea    0x1154e(%rip),%rax        # 1cd20 <g_506>
    b7d2:	48 89 85 48 fd ff ff 	mov    %rax,-0x2b8(%rbp)
    b7d9:	48 c7 85 50 fd ff ff 	movq   $0x0,-0x2b0(%rbp)
    b7e0:	00 00 00 00 
    b7e4:	48 8d 05 89 d8 00 00 	lea    0xd889(%rip),%rax        # 19074 <g_40>
    b7eb:	48 89 85 58 fd ff ff 	mov    %rax,-0x2a8(%rbp)
    b7f2:	48 c7 85 60 fd ff ff 	movq   $0x0,-0x2a0(%rbp)
    b7f9:	00 00 00 00 
    b7fd:	48 c7 85 68 fd ff ff 	movq   $0x0,-0x298(%rbp)
    b804:	00 00 00 00 
    b808:	48 c7 85 70 fd ff ff 	movq   $0x0,-0x290(%rbp)
    b80f:	00 00 00 00 
    b813:	48 8d 05 06 15 01 00 	lea    0x11506(%rip),%rax        # 1cd20 <g_506>
    b81a:	48 89 85 78 fd ff ff 	mov    %rax,-0x288(%rbp)
    b821:	48 8d 05 f8 14 01 00 	lea    0x114f8(%rip),%rax        # 1cd20 <g_506>
    b828:	48 89 85 80 fd ff ff 	mov    %rax,-0x280(%rbp)
    b82f:	48 8d 05 72 db 00 00 	lea    0xdb72(%rip),%rax        # 193a8 <g_505>
    b836:	48 89 85 88 fd ff ff 	mov    %rax,-0x278(%rbp)
    b83d:	48 c7 85 90 fd ff ff 	movq   $0x0,-0x270(%rbp)
    b844:	00 00 00 00 
    b848:	48 8d 85 b4 f6 ff ff 	lea    -0x94c(%rbp),%rax
    b84f:	48 89 85 98 fd ff ff 	mov    %rax,-0x268(%rbp)
    b856:	48 c7 85 a0 fd ff ff 	movq   $0x0,-0x260(%rbp)
    b85d:	00 00 00 00 
    b861:	48 c7 85 a8 fd ff ff 	movq   $0x0,-0x258(%rbp)
    b868:	00 00 00 00 
    b86c:	48 c7 85 b0 fd ff ff 	movq   $0x0,-0x250(%rbp)
    b873:	00 00 00 00 
    b877:	48 8d 85 b4 f6 ff ff 	lea    -0x94c(%rbp),%rax
    b87e:	48 89 85 b8 fd ff ff 	mov    %rax,-0x248(%rbp)
    b885:	48 8d 05 1c db 00 00 	lea    0xdb1c(%rip),%rax        # 193a8 <g_505>
    b88c:	48 89 85 c0 fd ff ff 	mov    %rax,-0x240(%rbp)
    b893:	48 8d 05 3e df 00 00 	lea    0xdf3e(%rip),%rax        # 197d8 <g_1666>
    b89a:	48 89 85 c8 fd ff ff 	mov    %rax,-0x238(%rbp)
    b8a1:	48 8d 05 30 df 00 00 	lea    0xdf30(%rip),%rax        # 197d8 <g_1666>
    b8a8:	48 89 85 d0 fd ff ff 	mov    %rax,-0x230(%rbp)
    b8af:	48 8d 05 f2 da 00 00 	lea    0xdaf2(%rip),%rax        # 193a8 <g_505>
    b8b6:	48 89 85 d8 fd ff ff 	mov    %rax,-0x228(%rbp)
    b8bd:	48 8d 05 14 df 00 00 	lea    0xdf14(%rip),%rax        # 197d8 <g_1666>
    b8c4:	48 89 85 e0 fd ff ff 	mov    %rax,-0x220(%rbp)
    b8cb:	48 8d 05 d6 da 00 00 	lea    0xdad6(%rip),%rax        # 193a8 <g_505>
    b8d2:	48 89 85 e8 fd ff ff 	mov    %rax,-0x218(%rbp)
    b8d9:	48 c7 85 f0 fd ff ff 	movq   $0x0,-0x210(%rbp)
    b8e0:	00 00 00 00 
    b8e4:	48 8d 05 35 14 01 00 	lea    0x11435(%rip),%rax        # 1cd20 <g_506>
    b8eb:	48 89 85 f8 fd ff ff 	mov    %rax,-0x208(%rbp)
    b8f2:	48 c7 85 00 fe ff ff 	movq   $0x0,-0x200(%rbp)
    b8f9:	00 00 00 00 
    b8fd:	48 c7 85 08 fe ff ff 	movq   $0x0,-0x1f8(%rbp)
    b904:	00 00 00 00 
    b908:	48 c7 85 10 fe ff ff 	movq   $0x0,-0x1f0(%rbp)
    b90f:	00 00 00 00 
    b913:	48 8d 05 5a d7 00 00 	lea    0xd75a(%rip),%rax        # 19074 <g_40>
    b91a:	48 89 85 18 fe ff ff 	mov    %rax,-0x1e8(%rbp)
    b921:	48 8d 05 80 da 00 00 	lea    0xda80(%rip),%rax        # 193a8 <g_505>
    b928:	48 89 85 20 fe ff ff 	mov    %rax,-0x1e0(%rbp)
    b92f:	48 8d 05 ea 13 01 00 	lea    0x113ea(%rip),%rax        # 1cd20 <g_506>
    b936:	48 89 85 28 fe ff ff 	mov    %rax,-0x1d8(%rbp)
    b93d:	48 8d 85 b4 f6 ff ff 	lea    -0x94c(%rbp),%rax
    b944:	48 89 85 30 fe ff ff 	mov    %rax,-0x1d0(%rbp)
    b94b:	48 8d 05 22 d7 00 00 	lea    0xd722(%rip),%rax        # 19074 <g_40>
    b952:	48 89 85 38 fe ff ff 	mov    %rax,-0x1c8(%rbp)
    b959:	48 c7 85 40 fe ff ff 	movq   $0x0,-0x1c0(%rbp)
    b960:	00 00 00 00 
    b964:	48 c7 85 48 fe ff ff 	movq   $0x0,-0x1b8(%rbp)
    b96b:	00 00 00 00 
    b96f:	48 c7 85 50 fe ff ff 	movq   $0x0,-0x1b0(%rbp)
    b976:	00 00 00 00 
    b97a:	48 8d 05 9f 13 01 00 	lea    0x1139f(%rip),%rax        # 1cd20 <g_506>
    b981:	48 89 85 58 fe ff ff 	mov    %rax,-0x1a8(%rbp)
    b988:	48 8d 05 91 13 01 00 	lea    0x11391(%rip),%rax        # 1cd20 <g_506>
    b98f:	48 89 85 60 fe ff ff 	mov    %rax,-0x1a0(%rbp)
    b996:	48 8d 05 0b da 00 00 	lea    0xda0b(%rip),%rax        # 193a8 <g_505>
    b99d:	48 89 85 68 fe ff ff 	mov    %rax,-0x198(%rbp)
    b9a4:	48 8d 05 c9 d6 00 00 	lea    0xd6c9(%rip),%rax        # 19074 <g_40>
    b9ab:	48 89 85 70 fe ff ff 	mov    %rax,-0x190(%rbp)
    b9b2:	48 8d 05 ef d9 00 00 	lea    0xd9ef(%rip),%rax        # 193a8 <g_505>
    b9b9:	48 89 85 78 fe ff ff 	mov    %rax,-0x188(%rbp)
    b9c0:	48 c7 85 80 fe ff ff 	movq   $0x0,-0x180(%rbp)
    b9c7:	00 00 00 00 
    b9cb:	48 8d 05 06 de 00 00 	lea    0xde06(%rip),%rax        # 197d8 <g_1666>
    b9d2:	48 89 85 88 fe ff ff 	mov    %rax,-0x178(%rbp)
    b9d9:	48 8d 85 b4 f6 ff ff 	lea    -0x94c(%rbp),%rax
    b9e0:	48 89 85 90 fe ff ff 	mov    %rax,-0x170(%rbp)
    b9e7:	48 8d 85 b4 f6 ff ff 	lea    -0x94c(%rbp),%rax
    b9ee:	48 89 85 98 fe ff ff 	mov    %rax,-0x168(%rbp)
    b9f5:	48 8d 85 b4 f6 ff ff 	lea    -0x94c(%rbp),%rax
    b9fc:	48 89 85 a0 fe ff ff 	mov    %rax,-0x160(%rbp)
    ba03:	48 c7 85 a8 fe ff ff 	movq   $0x0,-0x158(%rbp)
    ba0a:	00 00 00 00 
    ba0e:	48 8d 05 c3 dd 00 00 	lea    0xddc3(%rip),%rax        # 197d8 <g_1666>
    ba15:	48 89 85 b0 fe ff ff 	mov    %rax,-0x150(%rbp)
    ba1c:	48 8d 85 b4 f6 ff ff 	lea    -0x94c(%rbp),%rax
    ba23:	48 89 85 b8 fe ff ff 	mov    %rax,-0x148(%rbp)
    ba2a:	48 c7 85 c0 fe ff ff 	movq   $0x0,-0x140(%rbp)
    ba31:	00 00 00 00 
    ba35:	48 8d 05 6c d9 00 00 	lea    0xd96c(%rip),%rax        # 193a8 <g_505>
    ba3c:	48 89 85 c8 fe ff ff 	mov    %rax,-0x138(%rbp)
    ba43:	48 8d 05 d6 12 01 00 	lea    0x112d6(%rip),%rax        # 1cd20 <g_506>
    ba4a:	48 89 85 d0 fe ff ff 	mov    %rax,-0x130(%rbp)
    ba51:	48 8d 05 c8 12 01 00 	lea    0x112c8(%rip),%rax        # 1cd20 <g_506>
    ba58:	48 89 85 d8 fe ff ff 	mov    %rax,-0x128(%rbp)
    ba5f:	48 c7 85 e0 fe ff ff 	movq   $0x0,-0x120(%rbp)
    ba66:	00 00 00 00 
    ba6a:	48 c7 85 e8 fe ff ff 	movq   $0x0,-0x118(%rbp)
    ba71:	00 00 00 00 
    ba75:	48 8d 05 5c dd 00 00 	lea    0xdd5c(%rip),%rax        # 197d8 <g_1666>
    ba7c:	48 89 85 f0 fe ff ff 	mov    %rax,-0x110(%rbp)
    ba83:	48 8d 05 ea d5 00 00 	lea    0xd5ea(%rip),%rax        # 19074 <g_40>
    ba8a:	48 89 85 f8 fe ff ff 	mov    %rax,-0x108(%rbp)
    ba91:	48 8d 85 b4 f6 ff ff 	lea    -0x94c(%rbp),%rax
    ba98:	48 89 85 00 ff ff ff 	mov    %rax,-0x100(%rbp)
    ba9f:	48 8d 05 7a 12 01 00 	lea    0x1127a(%rip),%rax        # 1cd20 <g_506>
    baa6:	48 89 85 08 ff ff ff 	mov    %rax,-0xf8(%rbp)
    baad:	48 8d 85 b4 f6 ff ff 	lea    -0x94c(%rbp),%rax
    bab4:	48 89 85 10 ff ff ff 	mov    %rax,-0xf0(%rbp)
    babb:	48 8d 85 b4 f6 ff ff 	lea    -0x94c(%rbp),%rax
    bac2:	48 89 85 18 ff ff ff 	mov    %rax,-0xe8(%rbp)
    bac9:	48 c7 85 20 ff ff ff 	movq   $0x0,-0xe0(%rbp)
    bad0:	00 00 00 00 
    bad4:	48 c7 85 28 ff ff ff 	movq   $0x0,-0xd8(%rbp)
    badb:	00 00 00 00 
    badf:	48 8d 05 8e d5 00 00 	lea    0xd58e(%rip),%rax        # 19074 <g_40>
    bae6:	48 89 85 30 ff ff ff 	mov    %rax,-0xd0(%rbp)
    baed:	48 8d 05 2c 12 01 00 	lea    0x1122c(%rip),%rax        # 1cd20 <g_506>
    baf4:	48 89 85 38 ff ff ff 	mov    %rax,-0xc8(%rbp)
    bafb:	48 8d 05 1e 12 01 00 	lea    0x1121e(%rip),%rax        # 1cd20 <g_506>
    bb02:	48 89 85 40 ff ff ff 	mov    %rax,-0xc0(%rbp)
    bb09:	48 8d 85 b4 f6 ff ff 	lea    -0x94c(%rbp),%rax
    bb10:	48 89 85 48 ff ff ff 	mov    %rax,-0xb8(%rbp)
    bb17:	48 c7 85 50 ff ff ff 	movq   $0x0,-0xb0(%rbp)
    bb1e:	00 00 00 00 
    bb22:	48 8d 05 7f d8 00 00 	lea    0xd87f(%rip),%rax        # 193a8 <g_505>
    bb29:	48 89 85 58 ff ff ff 	mov    %rax,-0xa8(%rbp)
    bb30:	48 c7 85 60 ff ff ff 	movq   $0x0,-0xa0(%rbp)
    bb37:	00 00 00 00 
    bb3b:	48 c7 85 68 ff ff ff 	movq   $0x0,-0x98(%rbp)
    bb42:	00 00 00 00 
    bb46:	48 8d 85 b4 f6 ff ff 	lea    -0x94c(%rbp),%rax
    bb4d:	48 89 85 70 ff ff ff 	mov    %rax,-0x90(%rbp)
    bb54:	48 c7 85 78 ff ff ff 	movq   $0x0,-0x88(%rbp)
    bb5b:	00 00 00 00 
    bb5f:	48 8d 05 42 d8 00 00 	lea    0xd842(%rip),%rax        # 193a8 <g_505>
    bb66:	48 89 45 80          	mov    %rax,-0x80(%rbp)
    bb6a:	48 c7 45 88 00 00 00 	movq   $0x0,-0x78(%rbp)
    bb71:	00 
    bb72:	48 c7 45 90 00 00 00 	movq   $0x0,-0x70(%rbp)
    bb79:	00 
    bb7a:	48 8d 05 27 d8 00 00 	lea    0xd827(%rip),%rax        # 193a8 <g_505>
    bb81:	48 89 45 98          	mov    %rax,-0x68(%rbp)
    bb85:	48 c7 45 a0 00 00 00 	movq   $0x0,-0x60(%rbp)
    bb8c:	00 
    bb8d:	48 8d 85 b4 f6 ff ff 	lea    -0x94c(%rbp),%rax
    bb94:	48 89 45 a8          	mov    %rax,-0x58(%rbp)
    bb98:	48 c7 45 b0 00 00 00 	movq   $0x0,-0x50(%rbp)
    bb9f:	00 
    bba0:	48 8d 05 79 11 01 00 	lea    0x11179(%rip),%rax        # 1cd20 <g_506>
    bba7:	48 89 45 b8          	mov    %rax,-0x48(%rbp)
    bbab:	48 8d 05 de d9 00 00 	lea    0xd9de(%rip),%rax        # 19590 <g_965>
    bbb2:	48 89 85 d8 f6 ff ff 	mov    %rax,-0x928(%rbp)
    bbb9:	48 8d 85 d8 f6 ff ff 	lea    -0x928(%rbp),%rax
    bbc0:	48 89 85 e0 f6 ff ff 	mov    %rax,-0x920(%rbp)
    bbc7:	48 8d 85 e0 f6 ff ff 	lea    -0x920(%rbp),%rax
    bbce:	48 89 85 e8 f6 ff ff 	mov    %rax,-0x918(%rbp)
    bbd5:	48 8d 85 e8 f6 ff ff 	lea    -0x918(%rbp),%rax
    bbdc:	48 89 85 f0 f6 ff ff 	mov    %rax,-0x910(%rbp)
    bbe3:	48 8d 85 f0 f6 ff ff 	lea    -0x910(%rbp),%rax
    bbea:	48 89 85 28 f7 ff ff 	mov    %rax,-0x8d8(%rbp)
    bbf1:	83 85 c8 f6 ff ff 01 	addl   $0x1,-0x938(%rbp)
    bbf8:	66 c7 05 95 d9 00 00 	movw   $0x0,0xd995(%rip)        # 19596 <g_965+0x6>
    bbff:	00 00 
    bc01:	eb 57                	jmp    bc5a <func_36+0xf9f>
    bc03:	48 8b 35 e6 fd 00 00 	mov    0xfde6(%rip),%rsi        # 1b9f0 <g_124>
    bc0a:	48 8b 0d 4f fe 00 00 	mov    0xfe4f(%rip),%rcx        # 1ba60 <g_510>
    bc11:	48 8b 06             	mov    (%rsi),%rax
    bc14:	48 8b 56 08          	mov    0x8(%rsi),%rdx
    bc18:	48 89 01             	mov    %rax,(%rcx)
    bc1b:	48 89 51 08          	mov    %rdx,0x8(%rcx)
    bc1f:	48 8b 46 10          	mov    0x10(%rsi),%rax
    bc23:	48 89 41 10          	mov    %rax,0x10(%rcx)
    bc27:	48 c7 85 28 f7 ff ff 	movq   $0x0,-0x8d8(%rbp)
    bc2e:	00 00 00 00 
    bc32:	48 8b 05 ef fd 00 00 	mov    0xfdef(%rip),%rax        # 1ba28 <g_150>
    bc39:	8b 00                	mov    (%rax),%eax
    bc3b:	85 c0                	test   %eax,%eax
    bc3d:	75 2a                	jne    bc69 <func_36+0xfae>
    bc3f:	0f b7 05 50 d9 00 00 	movzwl 0xd950(%rip),%eax        # 19596 <g_965+0x6>
    bc46:	98                   	cwtl   
    bc47:	be 06 00 00 00       	mov    $0x6,%esi
    bc4c:	89 c7                	mov    %eax,%edi
    bc4e:	e8 b2 b9 ff ff       	callq  7605 <safe_sub_func_int32_t_s_s>
    bc53:	66 89 05 3c d9 00 00 	mov    %ax,0xd93c(%rip)        # 19596 <g_965+0x6>
    bc5a:	0f b7 05 35 d9 00 00 	movzwl 0xd935(%rip),%eax        # 19596 <g_965+0x6>
    bc61:	66 83 f8 f2          	cmp    $0xfff2,%ax
    bc65:	7c 9c                	jl     bc03 <func_36+0xf48>
    bc67:	eb 01                	jmp    bc6a <func_36+0xfaf>
    bc69:	90                   	nop
    bc6a:	8b 85 a4 f6 ff ff    	mov    -0x95c(%rbp),%eax
    bc70:	48 8b 5d c8          	mov    -0x38(%rbp),%rbx
    bc74:	64 48 33 1c 25 28 00 	xor    %fs:0x28,%rbx
    bc7b:	00 00 
    bc7d:	74 05                	je     bc84 <func_36+0xfc9>
    bc7f:	e8 ec b3 ff ff       	callq  7070 <__stack_chk_fail@plt>
    bc84:	48 81 c4 58 09 00 00 	add    $0x958,%rsp
    bc8b:	5b                   	pop    %rbx
    bc8c:	41 5c                	pop    %r12
    bc8e:	41 5d                	pop    %r13
    bc90:	41 5e                	pop    %r14
    bc92:	41 5f                	pop    %r15
    bc94:	5d                   	pop    %rbp
    bc95:	c3                   	retq   

000000000000bc96 <func_47>:
    bc96:	f3 0f 1e fa          	endbr64 
    bc9a:	55                   	push   %rbp
    bc9b:	48 89 e5             	mov    %rsp,%rbp
    bc9e:	41 55                	push   %r13
    bca0:	41 54                	push   %r12
    bca2:	53                   	push   %rbx
    bca3:	48 81 ec d8 0a 00 00 	sub    $0xad8,%rsp
    bcaa:	48 89 bd 28 f5 ff ff 	mov    %rdi,-0xad8(%rbp)
    bcb1:	48 89 b5 20 f5 ff ff 	mov    %rsi,-0xae0(%rbp)
    bcb8:	89 d0                	mov    %edx,%eax
    bcba:	89 8d 18 f5 ff ff    	mov    %ecx,-0xae8(%rbp)
    bcc0:	44 89 85 14 f5 ff ff 	mov    %r8d,-0xaec(%rbp)
    bcc7:	66 89 85 1c f5 ff ff 	mov    %ax,-0xae4(%rbp)
    bcce:	64 48 8b 04 25 28 00 	mov    %fs:0x28,%rax
    bcd5:	00 00 
    bcd7:	48 89 45 d8          	mov    %rax,-0x28(%rbp)
    bcdb:	31 c0                	xor    %eax,%eax
    bcdd:	48 8d 05 24 10 01 00 	lea    0x11024(%rip),%rax        # 1cd08 <g_116>
    bce4:	48 89 85 00 f6 ff ff 	mov    %rax,-0xa00(%rbp)
    bceb:	48 8d 05 16 10 01 00 	lea    0x11016(%rip),%rax        # 1cd08 <g_116>
    bcf2:	48 89 85 08 f6 ff ff 	mov    %rax,-0x9f8(%rbp)
    bcf9:	48 8d 05 08 10 01 00 	lea    0x11008(%rip),%rax        # 1cd08 <g_116>
    bd00:	48 89 85 10 f6 ff ff 	mov    %rax,-0x9f0(%rbp)
    bd07:	48 8d 05 fa 0f 01 00 	lea    0x10ffa(%rip),%rax        # 1cd08 <g_116>
    bd0e:	48 89 85 18 f6 ff ff 	mov    %rax,-0x9e8(%rbp)
    bd15:	48 8d 05 ec 0f 01 00 	lea    0x10fec(%rip),%rax        # 1cd08 <g_116>
    bd1c:	48 89 85 20 f6 ff ff 	mov    %rax,-0x9e0(%rbp)
    bd23:	48 8d 05 de 0f 01 00 	lea    0x10fde(%rip),%rax        # 1cd08 <g_116>
    bd2a:	48 89 85 28 f6 ff ff 	mov    %rax,-0x9d8(%rbp)
    bd31:	48 8d 05 d0 0f 01 00 	lea    0x10fd0(%rip),%rax        # 1cd08 <g_116>
    bd38:	48 89 85 30 f6 ff ff 	mov    %rax,-0x9d0(%rbp)
    bd3f:	48 8d 05 c2 0f 01 00 	lea    0x10fc2(%rip),%rax        # 1cd08 <g_116>
    bd46:	48 89 85 38 f6 ff ff 	mov    %rax,-0x9c8(%rbp)
    bd4d:	48 8d 05 b4 0f 01 00 	lea    0x10fb4(%rip),%rax        # 1cd08 <g_116>
    bd54:	48 89 85 40 f6 ff ff 	mov    %rax,-0x9c0(%rbp)
    bd5b:	48 8d 05 a6 0f 01 00 	lea    0x10fa6(%rip),%rax        # 1cd08 <g_116>
    bd62:	48 89 85 48 f6 ff ff 	mov    %rax,-0x9b8(%rbp)
    bd69:	48 8d 05 98 0f 01 00 	lea    0x10f98(%rip),%rax        # 1cd08 <g_116>
    bd70:	48 89 85 50 f6 ff ff 	mov    %rax,-0x9b0(%rbp)
    bd77:	48 8d 05 8a 0f 01 00 	lea    0x10f8a(%rip),%rax        # 1cd08 <g_116>
    bd7e:	48 89 85 58 f6 ff ff 	mov    %rax,-0x9a8(%rbp)
    bd85:	48 8d 05 7c 0f 01 00 	lea    0x10f7c(%rip),%rax        # 1cd08 <g_116>
    bd8c:	48 89 85 60 f6 ff ff 	mov    %rax,-0x9a0(%rbp)
    bd93:	48 8d 05 6e 0f 01 00 	lea    0x10f6e(%rip),%rax        # 1cd08 <g_116>
    bd9a:	48 89 85 68 f6 ff ff 	mov    %rax,-0x998(%rbp)
    bda1:	48 8d 05 60 0f 01 00 	lea    0x10f60(%rip),%rax        # 1cd08 <g_116>
    bda8:	48 89 85 70 f6 ff ff 	mov    %rax,-0x990(%rbp)
    bdaf:	48 8d 85 00 f6 ff ff 	lea    -0xa00(%rbp),%rax
    bdb6:	48 83 c0 58          	add    $0x58,%rax
    bdba:	48 89 85 78 f5 ff ff 	mov    %rax,-0xa88(%rbp)
    bdc1:	48 8d 85 78 f5 ff ff 	lea    -0xa88(%rbp),%rax
    bdc8:	48 89 85 80 f5 ff ff 	mov    %rax,-0xa80(%rbp)
    bdcf:	48 8d 85 80 f5 ff ff 	lea    -0xa80(%rbp),%rax
    bdd6:	48 89 85 88 f5 ff ff 	mov    %rax,-0xa78(%rbp)
    bddd:	c7 85 44 f5 ff ff 00 	movl   $0x0,-0xabc(%rbp)
    bde4:	00 00 00 
    bde7:	48 8d 05 86 d2 00 00 	lea    0xd286(%rip),%rax        # 19074 <g_40>
    bdee:	48 89 85 90 f5 ff ff 	mov    %rax,-0xa70(%rbp)
    bdf5:	48 8d 85 80 f6 ff ff 	lea    -0x980(%rbp),%rax
    bdfc:	48 8d 15 fd f0 00 00 	lea    0xf0fd(%rip),%rdx        # 1af00 <g_2596+0x11b0>
    be03:	b9 46 00 00 00       	mov    $0x46,%ecx
    be08:	48 89 c7             	mov    %rax,%rdi
    be0b:	48 89 d6             	mov    %rdx,%rsi
    be0e:	f3 48 a5             	rep movsq %ds:(%rsi),%es:(%rdi)
    be11:	48 c7 85 98 f5 ff ff 	movq   $0x6,-0xa68(%rbp)
    be18:	06 00 00 00 
    be1c:	48 c7 85 a0 f5 ff ff 	movq   $0x5,-0xa60(%rbp)
    be23:	05 00 00 00 
    be27:	c7 85 48 f5 ff ff ff 	movl   $0xffffffff,-0xab8(%rbp)
    be2e:	ff ff ff 
    be31:	48 8d 05 10 fc 00 00 	lea    0xfc10(%rip),%rax        # 1ba48 <g_333>
    be38:	48 89 85 a8 f5 ff ff 	mov    %rax,-0xa58(%rbp)
    be3f:	48 8d 85 b0 f8 ff ff 	lea    -0x750(%rbp),%rax
    be46:	48 8d 15 f3 86 00 00 	lea    0x86f3(%rip),%rdx        # 14540 <g_2035+0x1498>
    be4d:	b9 6c 00 00 00       	mov    $0x6c,%ecx
    be52:	48 89 c7             	mov    %rax,%rdi
    be55:	48 89 d6             	mov    %rdx,%rsi
    be58:	f3 48 a5             	rep movsq %ds:(%rsi),%es:(%rdi)
    be5b:	48 b8 a3 9a 44 b2 49 	movabs $0x7edde949b2449aa3,%rax
    be62:	e9 dd 7e 
    be65:	48 89 85 b0 f5 ff ff 	mov    %rax,-0xa50(%rbp)
    be6c:	c7 85 4c f5 ff ff 00 	movl   $0x0,-0xab4(%rbp)
    be73:	00 00 00 
    be76:	48 c7 85 b8 f5 ff ff 	movq   $0x0,-0xa48(%rbp)
    be7d:	00 00 00 00 
    be81:	48 c7 85 c0 f5 ff ff 	movq   $0x0,-0xa40(%rbp)
    be88:	00 00 00 00 
    be8c:	c7 85 3c f5 ff ff 00 	movl   $0x0,-0xac4(%rbp)
    be93:	00 00 00 
    be96:	eb 1a                	jmp    beb2 <func_47+0x21c>
    be98:	8b 85 3c f5 ff ff    	mov    -0xac4(%rbp),%eax
    be9e:	48 98                	cltq   
    bea0:	c7 84 85 e0 f5 ff ff 	movl   $0x2,-0xa20(%rbp,%rax,4)
    bea7:	02 00 00 00 
    beab:	83 85 3c f5 ff ff 01 	addl   $0x1,-0xac4(%rbp)
    beb2:	83 bd 3c f5 ff ff 06 	cmpl   $0x6,-0xac4(%rbp)
    beb9:	7e dd                	jle    be98 <func_47+0x202>
    bebb:	48 8b 95 80 f5 ff ff 	mov    -0xa80(%rbp),%rdx
    bec2:	48 8b 85 88 f5 ff ff 	mov    -0xa78(%rbp),%rax
    bec9:	48 89 10             	mov    %rdx,(%rax)
    becc:	83 ad 44 f5 ff ff 01 	subl   $0x1,-0xabc(%rbp)
    bed3:	48 83 ad 98 f5 ff ff 	subq   $0x1,-0xa68(%rbp)
    beda:	01 
    bedb:	66 c7 05 d2 d6 00 00 	movw   $0x0,0xd6d2(%rip)        # 195b6 <g_1033+0x6>
    bee2:	00 00 
    bee4:	e9 c1 02 00 00       	jmpq   c1aa <func_47+0x514>
    bee9:	c7 85 50 f5 ff ff 0d 	movl   $0x3c353e0d,-0xab0(%rbp)
    bef0:	3e 35 3c 
    bef3:	48 c7 85 c8 f5 ff ff 	movq   $0x0,-0xa38(%rbp)
    befa:	00 00 00 00 
    befe:	c7 85 54 f5 ff ff 04 	movl   $0x4,-0xaac(%rbp)
    bf05:	00 00 00 
    bf08:	c7 85 58 f5 ff ff 00 	movl   $0x0,-0xaa8(%rbp)
    bf0f:	00 00 00 
    bf12:	c7 85 5c f5 ff ff 7f 	movl   $0xd9d8867f,-0xaa4(%rbp)
    bf19:	86 d8 d9 
    bf1c:	c7 85 60 f5 ff ff 00 	movl   $0x0,-0xaa0(%rbp)
    bf23:	00 00 00 
    bf26:	c7 85 64 f5 ff ff 57 	movl   $0x5cece357,-0xa9c(%rbp)
    bf2d:	e3 ec 5c 
    bf30:	c7 85 68 f5 ff ff 5b 	movl   $0x4fce125b,-0xa98(%rbp)
    bf37:	12 ce 4f 
    bf3a:	c7 85 6c f5 ff ff f9 	movl   $0xfffffff9,-0xa94(%rbp)
    bf41:	ff ff ff 
    bf44:	c7 85 70 f5 ff ff f6 	movl   $0xfffffff6,-0xa90(%rbp)
    bf4b:	ff ff ff 
    bf4e:	48 8d 85 10 fc ff ff 	lea    -0x3f0(%rbp),%rax
    bf55:	48 8d 15 44 89 00 00 	lea    0x8944(%rip),%rdx        # 148a0 <g_2035+0x17f8>
    bf5c:	b9 78 00 00 00       	mov    $0x78,%ecx
    bf61:	48 89 c7             	mov    %rax,%rdi
    bf64:	48 89 d6             	mov    %rdx,%rsi
    bf67:	f3 48 a5             	rep movsq %ds:(%rsi),%es:(%rdi)
    bf6a:	48 c7 85 d0 f5 ff ff 	movq   $0x0,-0xa30(%rbp)
    bf71:	00 00 00 00 
    bf75:	66 c7 85 3a f5 ff ff 	movw   $0xc930,-0xac6(%rbp)
    bf7c:	30 c9 
    bf7e:	c7 85 74 f5 ff ff f9 	movl   $0x3f5fc6f9,-0xa8c(%rbp)
    bf85:	c6 5f 3f 
    bf88:	c7 85 40 f5 ff ff 00 	movl   $0x0,-0xac0(%rbp)
    bf8f:	00 00 00 
    bf92:	eb 19                	jmp    bfad <func_47+0x317>
    bf94:	8b 85 40 f5 ff ff    	mov    -0xac0(%rbp),%eax
    bf9a:	48 98                	cltq   
    bf9c:	66 c7 84 45 de f5 ff 	movw   $0x17d4,-0xa22(%rbp,%rax,2)
    bfa3:	ff d4 17 
    bfa6:	83 85 40 f5 ff ff 01 	addl   $0x1,-0xac0(%rbp)
    bfad:	83 bd 40 f5 ff ff 00 	cmpl   $0x0,-0xac0(%rbp)
    bfb4:	7e de                	jle    bf94 <func_47+0x2fe>
    bfb6:	48 8b 15 d3 d7 00 00 	mov    0xd7d3(%rip),%rdx        # 19790 <g_1445+0x10>
    bfbd:	8b 85 50 f5 ff ff    	mov    -0xab0(%rbp),%eax
    bfc3:	48 98                	cltq   
    bfc5:	48 89 d6             	mov    %rdx,%rsi
    bfc8:	48 89 c7             	mov    %rax,%rdi
    bfcb:	e8 27 ba ff ff       	callq  79f7 <safe_div_func_int64_t_s_s>
    bfd0:	48 8b 85 90 f5 ff ff 	mov    -0xa70(%rbp),%rax
    bfd7:	8b 10                	mov    (%rax),%edx
    bfd9:	48 8b 85 20 f5 ff ff 	mov    -0xae0(%rbp),%rax
    bfe0:	8b 00                	mov    (%rax),%eax
    bfe2:	21 c2                	and    %eax,%edx
    bfe4:	48 8b 85 20 f5 ff ff 	mov    -0xae0(%rbp),%rax
    bfeb:	89 10                	mov    %edx,(%rax)
    bfed:	48 8d 85 1c f5 ff ff 	lea    -0xae4(%rbp),%rax
    bff4:	48 39 85 c8 f5 ff ff 	cmp    %rax,-0xa38(%rbp)
    bffb:	0f 95 c0             	setne  %al
    bffe:	44 0f b6 e0          	movzbl %al,%r12d
    c002:	0f b7 85 1c f5 ff ff 	movzwl -0xae4(%rbp),%eax
    c009:	4c 0f bf e8          	movswq %ax,%r13
    c00d:	8b 85 50 f5 ff ff    	mov    -0xab0(%rbp),%eax
    c013:	48 63 d8             	movslq %eax,%rbx
    c016:	48 8b 85 20 f5 ff ff 	mov    -0xae0(%rbp),%rax
    c01d:	8b 00                	mov    (%rax),%eax
    c01f:	8b 95 50 f5 ff ff    	mov    -0xab0(%rbp),%edx
    c025:	89 d6                	mov    %edx,%esi
    c027:	89 c7                	mov    %eax,%edi
    c029:	e8 88 b5 ff ff       	callq  75b6 <safe_add_func_int32_t_s_s>
    c02e:	0f b6 c0             	movzbl %al,%eax
    c031:	8b 95 18 f5 ff ff    	mov    -0xae8(%rbp),%edx
    c037:	89 d6                	mov    %edx,%esi
    c039:	89 c7                	mov    %eax,%edi
    c03b:	e8 c5 bb ff ff       	callq  7c05 <safe_lshift_func_uint8_t_u_s>
    c040:	48 8b 95 90 f5 ff ff 	mov    -0xa70(%rbp),%rdx
    c047:	8b 12                	mov    (%rdx),%edx
    c049:	0f b6 c0             	movzbl %al,%eax
    c04c:	31 c2                	xor    %eax,%edx
    c04e:	48 8b 85 90 f5 ff ff 	mov    -0xa70(%rbp),%rax
    c055:	89 10                	mov    %edx,(%rax)
    c057:	48 8b 85 90 f5 ff ff 	mov    -0xa70(%rbp),%rax
    c05e:	8b 00                	mov    (%rax),%eax
    c060:	89 c2                	mov    %eax,%edx
    c062:	48 8b 05 0f 06 01 00 	mov    0x1060f(%rip),%rax        # 1c678 <g_1566>
    c069:	48 85 c0             	test   %rax,%rax
    c06c:	0f 95 c0             	setne  %al
    c06f:	0f b6 c0             	movzbl %al,%eax
    c072:	89 d6                	mov    %edx,%esi
    c074:	89 c7                	mov    %eax,%edi
    c076:	e8 3d be ff ff       	callq  7eb8 <safe_add_func_uint32_t_u_u>
    c07b:	48 8b 95 20 f5 ff ff 	mov    -0xae0(%rbp),%rdx
    c082:	8b 12                	mov    (%rdx),%edx
    c084:	39 d0                	cmp    %edx,%eax
    c086:	72 07                	jb     c08f <func_47+0x3f9>
    c088:	b8 01 00 00 00       	mov    $0x1,%eax
    c08d:	eb 05                	jmp    c094 <func_47+0x3fe>
    c08f:	b8 00 00 00 00       	mov    $0x0,%eax
    c094:	89 c2                	mov    %eax,%edx
    c096:	48 8b 05 d3 f9 00 00 	mov    0xf9d3(%rip),%rax        # 1ba70 <g_734>
    c09d:	8b 00                	mov    (%rax),%eax
    c09f:	39 c2                	cmp    %eax,%edx
    c0a1:	0f 94 c0             	sete   %al
    c0a4:	0f b6 d0             	movzbl %al,%edx
    c0a7:	8b 85 50 f5 ff ff    	mov    -0xab0(%rbp),%eax
    c0ad:	89 d6                	mov    %edx,%esi
    c0af:	89 c7                	mov    %eax,%edi
    c0b1:	e8 00 b5 ff ff       	callq  75b6 <safe_add_func_int32_t_s_s>
    c0b6:	48 98                	cltq   
    c0b8:	48 89 de             	mov    %rbx,%rsi
    c0bb:	48 89 c7             	mov    %rax,%rdi
    c0be:	e8 e5 b7 ff ff       	callq  78a8 <safe_sub_func_int64_t_s_s>
    c0c3:	89 c7                	mov    %eax,%edi
    c0c5:	e8 cc b4 ff ff       	callq  7596 <safe_unary_minus_func_int32_t_s>
    c0ca:	0f b7 85 1c f5 ff ff 	movzwl -0xae4(%rbp),%eax
    c0d1:	48 0f bf c0          	movswq %ax,%rax
    c0d5:	48 be 4f 70 4d eb 00 	movabs $0x7b261b00eb4d704f,%rsi
    c0dc:	1b 26 7b 
    c0df:	48 89 c7             	mov    %rax,%rdi
    c0e2:	e8 99 bf ff ff       	callq  8080 <safe_mod_func_uint64_t_u_u>
    c0e7:	49 39 c5             	cmp    %rax,%r13
    c0ea:	0f 97 c0             	seta   %al
    c0ed:	0f b6 c0             	movzbl %al,%eax
    c0f0:	89 c7                	mov    %eax,%edi
    c0f2:	e8 a6 b2 ff ff       	callq  739d <safe_unary_minus_func_int16_t_s>
    c0f7:	0f be c0             	movsbl %al,%eax
    c0fa:	be 02 00 00 00       	mov    $0x2,%esi
    c0ff:	89 c7                	mov    %eax,%edi
    c101:	e8 2f b2 ff ff       	callq  7335 <safe_rshift_func_int8_t_s_s>
    c106:	66 98                	cbtw   
    c108:	0f b7 c0             	movzwl %ax,%eax
    c10b:	be 05 00 00 00       	mov    $0x5,%esi
    c110:	89 c7                	mov    %eax,%edi
    c112:	e8 63 bd ff ff       	callq  7e7a <safe_rshift_func_uint16_t_u_u>
    c117:	0f b7 d0             	movzwl %ax,%edx
    c11a:	8b 05 7c d6 00 00    	mov    0xd67c(%rip),%eax        # 1979c <g_1526>
    c120:	39 c2                	cmp    %eax,%edx
    c122:	0f 93 c0             	setae  %al
    c125:	0f b6 d0             	movzbl %al,%edx
    c128:	8b 85 14 f5 ff ff    	mov    -0xaec(%rbp),%eax
    c12e:	48 98                	cltq   
    c130:	48 39 c2             	cmp    %rax,%rdx
    c133:	0f 9c c0             	setl   %al
    c136:	0f b6 c0             	movzbl %al,%eax
    c139:	41 39 c4             	cmp    %eax,%r12d
    c13c:	0f 9f c0             	setg   %al
    c13f:	0f b6 c0             	movzbl %al,%eax
    c142:	48 be cf b1 0b b5 e1 	movabs $0xee79a2e1b50bb1cf,%rsi
    c149:	a2 79 ee 
    c14c:	48 89 c7             	mov    %rax,%rdi
    c14f:	e8 f7 be ff ff       	callq  804b <safe_sub_func_uint64_t_u_u>
    c154:	be 01 00 00 00       	mov    $0x1,%esi
    c159:	89 c7                	mov    %eax,%edi
    c15b:	e8 9f b5 ff ff       	callq  76ff <safe_div_func_int32_t_s_s>
    c160:	85 c0                	test   %eax,%eax
    c162:	74 10                	je     c174 <func_47+0x4de>
    c164:	83 bd 18 f5 ff ff 00 	cmpl   $0x0,-0xae8(%rbp)
    c16b:	74 07                	je     c174 <func_47+0x4de>
    c16d:	b8 01 00 00 00       	mov    $0x1,%eax
    c172:	eb 05                	jmp    c179 <func_47+0x4e3>
    c174:	b8 00 00 00 00       	mov    $0x0,%eax
    c179:	0f b7 c0             	movzwl %ax,%eax
    c17c:	89 c6                	mov    %eax,%esi
    c17e:	bf fd ff 00 00       	mov    $0xfffd,%edi
    c183:	e8 b5 bb ff ff       	callq  7d3d <safe_mul_func_uint16_t_u_u>
    c188:	0f b7 d0             	movzwl %ax,%edx
    c18b:	8b 05 8f 0b 01 00    	mov    0x10b8f(%rip),%eax        # 1cd20 <g_506>
    c191:	21 d0                	and    %edx,%eax
    c193:	89 05 87 0b 01 00    	mov    %eax,0x10b87(%rip)        # 1cd20 <g_506>
    c199:	0f b7 05 16 d4 00 00 	movzwl 0xd416(%rip),%eax        # 195b6 <g_1033+0x6>
    c1a0:	83 c0 01             	add    $0x1,%eax
    c1a3:	66 89 05 0c d4 00 00 	mov    %ax,0xd40c(%rip)        # 195b6 <g_1033+0x6>
    c1aa:	0f b7 05 05 d4 00 00 	movzwl 0xd405(%rip),%eax        # 195b6 <g_1033+0x6>
    c1b1:	66 83 f8 01          	cmp    $0x1,%ax
    c1b5:	0f 8e 2e fd ff ff    	jle    bee9 <func_47+0x253>
    c1bb:	8b 85 e0 f5 ff ff    	mov    -0xa20(%rbp),%eax
    c1c1:	48 98                	cltq   
    c1c3:	48 8b 5d d8          	mov    -0x28(%rbp),%rbx
    c1c7:	64 48 33 1c 25 28 00 	xor    %fs:0x28,%rbx
    c1ce:	00 00 
    c1d0:	74 05                	je     c1d7 <func_47+0x541>
    c1d2:	e8 99 ae ff ff       	callq  7070 <__stack_chk_fail@plt>
    c1d7:	48 81 c4 d8 0a 00 00 	add    $0xad8,%rsp
    c1de:	5b                   	pop    %rbx
    c1df:	41 5c                	pop    %r12
    c1e1:	41 5d                	pop    %r13
    c1e3:	5d                   	pop    %rbp
    c1e4:	c3                   	retq   

000000000000c1e5 <func_53>:
    c1e5:	f3 0f 1e fa          	endbr64 
    c1e9:	55                   	push   %rbp
    c1ea:	48 89 e5             	mov    %rsp,%rbp
    c1ed:	41 57                	push   %r15
    c1ef:	41 56                	push   %r14
    c1f1:	41 55                	push   %r13
    c1f3:	41 54                	push   %r12
    c1f5:	53                   	push   %rbx
    c1f6:	48 81 ec 00 10 00 00 	sub    $0x1000,%rsp
    c1fd:	48 83 0c 24 00       	orq    $0x0,(%rsp)
    c202:	48 81 ec 58 03 00 00 	sub    $0x358,%rsp
    c209:	89 bd 9c ec ff ff    	mov    %edi,-0x1364(%rbp)
    c20f:	89 b5 98 ec ff ff    	mov    %esi,-0x1368(%rbp)
    c215:	48 89 95 90 ec ff ff 	mov    %rdx,-0x1370(%rbp)
    c21c:	48 89 8d 88 ec ff ff 	mov    %rcx,-0x1378(%rbp)
    c223:	4c 89 85 80 ec ff ff 	mov    %r8,-0x1380(%rbp)
    c22a:	64 48 8b 04 25 28 00 	mov    %fs:0x28,%rax
    c231:	00 00 
    c233:	48 89 45 c8          	mov    %rax,-0x38(%rbp)
    c237:	31 c0                	xor    %eax,%eax
    c239:	48 c7 85 50 ed ff ff 	movq   $0x0,-0x12b0(%rbp)
    c240:	00 00 00 00 
    c244:	c7 85 b0 ec ff ff e3 	movl   $0x39222e3,-0x1350(%rbp)
    c24b:	22 92 03 
    c24e:	c7 85 b4 ec ff ff b3 	movl   $0x67c924b3,-0x134c(%rbp)
    c255:	24 c9 67 
    c258:	c7 85 cc ec ff ff 07 	movl   $0x7,-0x1334(%rbp)
    c25f:	00 00 00 
    c262:	c7 85 50 ee ff ff 09 	movl   $0x9,-0x11b0(%rbp)
    c269:	00 00 00 
    c26c:	c7 85 54 ee ff ff 09 	movl   $0x9,-0x11ac(%rbp)
    c273:	00 00 00 
    c276:	c7 85 58 ee ff ff 09 	movl   $0x9,-0x11a8(%rbp)
    c27d:	00 00 00 
    c280:	c7 85 5c ee ff ff 09 	movl   $0x9,-0x11a4(%rbp)
    c287:	00 00 00 
    c28a:	c7 85 60 ee ff ff 09 	movl   $0x9,-0x11a0(%rbp)
    c291:	00 00 00 
    c294:	c7 85 64 ee ff ff 09 	movl   $0x9,-0x119c(%rbp)
    c29b:	00 00 00 
    c29e:	c7 85 68 ee ff ff 09 	movl   $0x9,-0x1198(%rbp)
    c2a5:	00 00 00 
    c2a8:	c7 85 d0 ec ff ff 03 	movl   $0x3,-0x1330(%rbp)
    c2af:	00 00 00 
    c2b2:	48 8d 85 b0 ec ff ff 	lea    -0x1350(%rbp),%rax
    c2b9:	48 89 85 30 ef ff ff 	mov    %rax,-0x10d0(%rbp)
    c2c0:	48 8d 85 b4 ec ff ff 	lea    -0x134c(%rbp),%rax
    c2c7:	48 89 85 38 ef ff ff 	mov    %rax,-0x10c8(%rbp)
    c2ce:	48 8d 85 b0 ec ff ff 	lea    -0x1350(%rbp),%rax
    c2d5:	48 89 85 40 ef ff ff 	mov    %rax,-0x10c0(%rbp)
    c2dc:	48 8d 85 50 ee ff ff 	lea    -0x11b0(%rbp),%rax
    c2e3:	48 83 c0 18          	add    $0x18,%rax
    c2e7:	48 89 85 48 ef ff ff 	mov    %rax,-0x10b8(%rbp)
    c2ee:	48 8d 85 50 ee ff ff 	lea    -0x11b0(%rbp),%rax
    c2f5:	48 83 c0 18          	add    $0x18,%rax
    c2f9:	48 89 85 50 ef ff ff 	mov    %rax,-0x10b0(%rbp)
    c300:	48 8d 85 50 ee ff ff 	lea    -0x11b0(%rbp),%rax
    c307:	48 83 c0 18          	add    $0x18,%rax
    c30b:	48 89 85 58 ef ff ff 	mov    %rax,-0x10a8(%rbp)
    c312:	48 8d 85 b0 ec ff ff 	lea    -0x1350(%rbp),%rax
    c319:	48 89 85 60 ef ff ff 	mov    %rax,-0x10a0(%rbp)
    c320:	48 8d 85 b4 ec ff ff 	lea    -0x134c(%rbp),%rax
    c327:	48 89 85 68 ef ff ff 	mov    %rax,-0x1098(%rbp)
    c32e:	48 8d 85 b0 ec ff ff 	lea    -0x1350(%rbp),%rax
    c335:	48 89 85 70 ef ff ff 	mov    %rax,-0x1090(%rbp)
    c33c:	48 8d 85 50 ee ff ff 	lea    -0x11b0(%rbp),%rax
    c343:	48 83 c0 18          	add    $0x18,%rax
    c347:	48 89 85 78 ef ff ff 	mov    %rax,-0x1088(%rbp)
    c34e:	48 8d 85 50 ee ff ff 	lea    -0x11b0(%rbp),%rax
    c355:	48 83 c0 18          	add    $0x18,%rax
    c359:	48 89 85 80 ef ff ff 	mov    %rax,-0x1080(%rbp)
    c360:	48 8d 85 50 ee ff ff 	lea    -0x11b0(%rbp),%rax
    c367:	48 83 c0 18          	add    $0x18,%rax
    c36b:	48 89 85 88 ef ff ff 	mov    %rax,-0x1078(%rbp)
    c372:	48 8d 05 df 6c 00 00 	lea    0x6cdf(%rip),%rax        # 13058 <g_833>
    c379:	48 89 85 58 ed ff ff 	mov    %rax,-0x12a8(%rbp)
    c380:	48 8d 05 59 f6 00 00 	lea    0xf659(%rip),%rax        # 1b9e0 <g_39>
    c387:	48 89 85 18 ed ff ff 	mov    %rax,-0x12e8(%rbp)
    c38e:	48 8d 85 18 ed ff ff 	lea    -0x12e8(%rbp),%rax
    c395:	48 89 85 48 ed ff ff 	mov    %rax,-0x12b8(%rbp)
    c39c:	48 8d 05 b5 ce 00 00 	lea    0xceb5(%rip),%rax        # 19258 <g_123+0x18>
    c3a3:	48 89 85 20 ed ff ff 	mov    %rax,-0x12e0(%rbp)
    c3aa:	48 8d 85 e0 f1 ff ff 	lea    -0xe20(%rbp),%rax
    c3b1:	48 8d 15 a8 88 00 00 	lea    0x88a8(%rip),%rdx        # 14c60 <g_2035+0x1bb8>
    c3b8:	b9 69 00 00 00       	mov    $0x69,%ecx
    c3bd:	48 89 c7             	mov    %rax,%rdi
    c3c0:	48 89 d6             	mov    %rdx,%rsi
    c3c3:	f3 48 a5             	rep movsq %ds:(%rsi),%es:(%rdi)
    c3c6:	c7 85 70 ee ff ff 44 	movl   $0x21838f44,-0x1190(%rbp)
    c3cd:	8f 83 21 
    c3d0:	c7 85 74 ee ff ff 01 	movl   $0x1,-0x118c(%rbp)
    c3d7:	00 00 00 
    c3da:	c7 85 78 ee ff ff 01 	movl   $0x1,-0x1188(%rbp)
    c3e1:	00 00 00 
    c3e4:	c7 85 7c ee ff ff 44 	movl   $0x21838f44,-0x1184(%rbp)
    c3eb:	8f 83 21 
    c3ee:	c7 85 80 ee ff ff 01 	movl   $0x1,-0x1180(%rbp)
    c3f5:	00 00 00 
    c3f8:	c7 85 84 ee ff ff 01 	movl   $0x1,-0x117c(%rbp)
    c3ff:	00 00 00 
    c402:	c7 85 88 ee ff ff 44 	movl   $0x21838f44,-0x1178(%rbp)
    c409:	8f 83 21 
    c40c:	48 c7 85 60 ed ff ff 	movq   $0x0,-0x12a0(%rbp)
    c413:	00 00 00 00 
    c417:	48 8d 85 20 ed ff ff 	lea    -0x12e0(%rbp),%rax
    c41e:	48 89 85 28 ed ff ff 	mov    %rax,-0x12d8(%rbp)
    c425:	48 8d 85 28 ed ff ff 	lea    -0x12d8(%rbp),%rax
    c42c:	48 89 85 68 ed ff ff 	mov    %rax,-0x1298(%rbp)
    c433:	48 8d 85 30 f5 ff ff 	lea    -0xad0(%rbp),%rax
    c43a:	48 8d 15 7f 8b 00 00 	lea    0x8b7f(%rip),%rdx        # 14fc0 <g_2035+0x1f18>
    c441:	b9 70 00 00 00       	mov    $0x70,%ecx
    c446:	48 89 c7             	mov    %rax,%rdi
    c449:	48 89 d6             	mov    %rdx,%rsi
    c44c:	f3 48 a5             	rep movsq %ds:(%rsi),%es:(%rdi)
    c44f:	48 89 f2             	mov    %rsi,%rdx
    c452:	48 89 f8             	mov    %rdi,%rax
    c455:	8b 0a                	mov    (%rdx),%ecx
    c457:	89 08                	mov    %ecx,(%rax)
    c459:	48 8d 40 04          	lea    0x4(%rax),%rax
    c45d:	48 8d 52 04          	lea    0x4(%rdx),%rdx
    c461:	c7 85 d4 ec ff ff c8 	movl   $0x3e26adc8,-0x132c(%rbp)
    c468:	ad 26 3e 
    c46b:	c6 85 aa ec ff ff ea 	movb   $0xea,-0x1356(%rbp)
    c472:	48 8d 85 30 f0 ff ff 	lea    -0xfd0(%rbp),%rax
    c479:	48 8d 15 e0 8e 00 00 	lea    0x8ee0(%rip),%rdx        # 15360 <g_2035+0x22b8>
    c480:	b9 34 00 00 00       	mov    $0x34,%ecx
    c485:	48 89 c7             	mov    %rax,%rdi
    c488:	48 89 d6             	mov    %rdx,%rsi
    c48b:	f3 48 a5             	rep movsq %ds:(%rsi),%es:(%rdi)
    c48e:	48 89 f2             	mov    %rsi,%rdx
    c491:	48 89 f8             	mov    %rdi,%rax
    c494:	8b 0a                	mov    (%rdx),%ecx
    c496:	89 08                	mov    %ecx,(%rax)
    c498:	48 8d 40 04          	lea    0x4(%rax),%rax
    c49c:	48 8d 52 04          	lea    0x4(%rdx),%rdx
    c4a0:	66 c7 85 44 ee ff ff 	movw   $0xfffa,-0x11bc(%rbp)
    c4a7:	fa ff 
    c4a9:	66 c7 85 46 ee ff ff 	movw   $0xfffa,-0x11ba(%rbp)
    c4b0:	fa ff 
    c4b2:	66 c7 85 48 ee ff ff 	movw   $0xfffa,-0x11b8(%rbp)
    c4b9:	fa ff 
    c4bb:	66 c7 85 4a ee ff ff 	movw   $0xfffa,-0x11b6(%rbp)
    c4c2:	fa ff 
    c4c4:	66 c7 85 4c ee ff ff 	movw   $0xfffa,-0x11b4(%rbp)
    c4cb:	fa ff 
    c4cd:	66 c7 85 4e ee ff ff 	movw   $0xfffa,-0x11b2(%rbp)
    c4d4:	fa ff 
    c4d6:	48 8d 05 db d0 00 00 	lea    0xd0db(%rip),%rax        # 195b8 <g_1033+0x8>
    c4dd:	48 89 85 70 ed ff ff 	mov    %rax,-0x1290(%rbp)
    c4e4:	c7 85 c0 ee ff ff cb 	movl   $0xcbf7fcb,-0x1140(%rbp)
    c4eb:	7f bf 0c 
    c4ee:	c7 85 c4 ee ff ff a9 	movl   $0x51cacfa9,-0x113c(%rbp)
    c4f5:	cf ca 51 
    c4f8:	c7 85 c8 ee ff ff 00 	movl   $0x0,-0x1138(%rbp)
    c4ff:	00 00 00 
    c502:	c7 85 cc ee ff ff a9 	movl   $0x51cacfa9,-0x1134(%rbp)
    c509:	cf ca 51 
    c50c:	c7 85 d0 ee ff ff cb 	movl   $0xcbf7fcb,-0x1130(%rbp)
    c513:	7f bf 0c 
    c516:	c7 85 d4 ee ff ff cb 	movl   $0xcbf7fcb,-0x112c(%rbp)
    c51d:	7f bf 0c 
    c520:	c7 85 d8 ee ff ff a9 	movl   $0x51cacfa9,-0x1128(%rbp)
    c527:	cf ca 51 
    c52a:	c7 85 dc ee ff ff 00 	movl   $0x0,-0x1124(%rbp)
    c531:	00 00 00 
    c534:	c7 85 e0 ee ff ff a9 	movl   $0x51cacfa9,-0x1120(%rbp)
    c53b:	cf ca 51 
    c53e:	c7 85 e4 ee ff ff cb 	movl   $0xcbf7fcb,-0x111c(%rbp)
    c545:	7f bf 0c 
    c548:	48 8d 05 f9 00 01 00 	lea    0x100f9(%rip),%rax        # 1c648 <g_1436>
    c54f:	48 89 85 78 ed ff ff 	mov    %rax,-0x1288(%rbp)
    c556:	c7 85 b8 ec ff ff 00 	movl   $0x0,-0x1348(%rbp)
    c55d:	00 00 00 
    c560:	eb 1a                	jmp    c57c <func_53+0x397>
    c562:	8b 85 b8 ec ff ff    	mov    -0x1348(%rbp),%eax
    c568:	48 98                	cltq   
    c56a:	c7 84 85 2c ee ff ff 	movl   $0x8afa3a7d,-0x11d4(%rbp,%rax,4)
    c571:	7d 3a fa 8a 
    c575:	83 85 b8 ec ff ff 01 	addl   $0x1,-0x1348(%rbp)
    c57c:	83 bd b8 ec ff ff 00 	cmpl   $0x0,-0x1348(%rbp)
    c583:	7e dd                	jle    c562 <func_53+0x37d>
    c585:	c7 85 b8 ec ff ff 00 	movl   $0x0,-0x1348(%rbp)
    c58c:	00 00 00 
    c58f:	eb 1a                	jmp    c5ab <func_53+0x3c6>
    c591:	8b 85 b8 ec ff ff    	mov    -0x1348(%rbp),%eax
    c597:	48 98                	cltq   
    c599:	c7 84 85 90 ee ff ff 	movl   $0x0,-0x1170(%rbp,%rax,4)
    c5a0:	00 00 00 00 
    c5a4:	83 85 b8 ec ff ff 01 	addl   $0x1,-0x1348(%rbp)
    c5ab:	83 bd b8 ec ff ff 08 	cmpl   $0x8,-0x1348(%rbp)
    c5b2:	7e dd                	jle    c591 <func_53+0x3ac>
    c5b4:	66 c7 05 b9 cd 00 00 	movw   $0x2,0xcdb9(%rip)        # 19376 <g_369+0x6>
    c5bb:	02 00 
    c5bd:	e9 d4 09 00 00       	jmpq   cf96 <func_53+0xdb1>
    c5c2:	48 b8 71 a8 de 33 32 	movabs $0xfad2783233dea871,%rax
    c5c9:	78 d2 fa 
    c5cc:	48 89 85 b0 ed ff ff 	mov    %rax,-0x1250(%rbp)
    c5d3:	c7 85 bc ec ff ff 25 	movl   $0x43cecd25,-0x1344(%rbp)
    c5da:	cd ce 43 
    c5dd:	48 c7 85 b8 ed ff ff 	movq   $0x0,-0x1248(%rbp)
    c5e4:	00 00 00 00 
    c5e8:	48 8d 05 31 07 01 00 	lea    0x10731(%rip),%rax        # 1cd20 <g_506>
    c5ef:	48 89 85 c0 ed ff ff 	mov    %rax,-0x1240(%rbp)
    c5f6:	48 8d 05 23 07 01 00 	lea    0x10723(%rip),%rax        # 1cd20 <g_506>
    c5fd:	48 89 85 c8 ed ff ff 	mov    %rax,-0x1238(%rbp)
    c604:	48 8d 05 69 ca 00 00 	lea    0xca69(%rip),%rax        # 19074 <g_40>
    c60b:	48 89 85 d0 ed ff ff 	mov    %rax,-0x1230(%rbp)
    c612:	48 8d 85 3c ee ff ff 	lea    -0x11c4(%rbp),%rax
    c619:	48 83 c0 04          	add    $0x4,%rax
    c61d:	48 89 85 d8 ed ff ff 	mov    %rax,-0x1228(%rbp)
    c624:	48 8d 05 f5 06 01 00 	lea    0x106f5(%rip),%rax        # 1cd20 <g_506>
    c62b:	48 89 85 90 ef ff ff 	mov    %rax,-0x1070(%rbp)
    c632:	48 8d 05 e7 06 01 00 	lea    0x106e7(%rip),%rax        # 1cd20 <g_506>
    c639:	48 89 85 98 ef ff ff 	mov    %rax,-0x1068(%rbp)
    c640:	48 8d 05 d9 06 01 00 	lea    0x106d9(%rip),%rax        # 1cd20 <g_506>
    c647:	48 89 85 a0 ef ff ff 	mov    %rax,-0x1060(%rbp)
    c64e:	48 8d 05 cb 06 01 00 	lea    0x106cb(%rip),%rax        # 1cd20 <g_506>
    c655:	48 89 85 a8 ef ff ff 	mov    %rax,-0x1058(%rbp)
    c65c:	48 8d 05 bd 06 01 00 	lea    0x106bd(%rip),%rax        # 1cd20 <g_506>
    c663:	48 89 85 b0 ef ff ff 	mov    %rax,-0x1050(%rbp)
    c66a:	48 8d 05 af 06 01 00 	lea    0x106af(%rip),%rax        # 1cd20 <g_506>
    c671:	48 89 85 b8 ef ff ff 	mov    %rax,-0x1048(%rbp)
    c678:	48 8d 05 a1 06 01 00 	lea    0x106a1(%rip),%rax        # 1cd20 <g_506>
    c67f:	48 89 85 c0 ef ff ff 	mov    %rax,-0x1040(%rbp)
    c686:	48 8d 05 93 06 01 00 	lea    0x10693(%rip),%rax        # 1cd20 <g_506>
    c68d:	48 89 85 c8 ef ff ff 	mov    %rax,-0x1038(%rbp)
    c694:	48 8d 05 85 06 01 00 	lea    0x10685(%rip),%rax        # 1cd20 <g_506>
    c69b:	48 89 85 d0 ef ff ff 	mov    %rax,-0x1030(%rbp)
    c6a2:	48 8d 05 77 06 01 00 	lea    0x10677(%rip),%rax        # 1cd20 <g_506>
    c6a9:	48 89 85 d8 ef ff ff 	mov    %rax,-0x1028(%rbp)
    c6b0:	48 8d 05 69 06 01 00 	lea    0x10669(%rip),%rax        # 1cd20 <g_506>
    c6b7:	48 89 85 e0 ef ff ff 	mov    %rax,-0x1020(%rbp)
    c6be:	48 8d 05 5b 06 01 00 	lea    0x1065b(%rip),%rax        # 1cd20 <g_506>
    c6c5:	48 89 85 e8 ef ff ff 	mov    %rax,-0x1018(%rbp)
    c6cc:	66 c7 85 ae ec ff ff 	movw   $0xffff,-0x1352(%rbp)
    c6d3:	ff ff 
    c6d5:	c7 85 c0 ec ff ff 00 	movl   $0x0,-0x1340(%rbp)
    c6dc:	00 00 00 
    c6df:	eb 1a                	jmp    c6fb <func_53+0x516>
    c6e1:	8b 85 c0 ec ff ff    	mov    -0x1340(%rbp),%eax
    c6e7:	48 98                	cltq   
    c6e9:	c7 84 85 3c ee ff ff 	movl   $0xfffffffe,-0x11c4(%rbp,%rax,4)
    c6f0:	fe ff ff ff 
    c6f4:	83 85 c0 ec ff ff 01 	addl   $0x1,-0x1340(%rbp)
    c6fb:	83 bd c0 ec ff ff 01 	cmpl   $0x1,-0x1340(%rbp)
    c702:	7e dd                	jle    c6e1 <func_53+0x4fc>
    c704:	66 c7 05 c1 c9 00 00 	movw   $0x2,0xc9c1(%rip)        # 190ce <g_107>
    c70b:	02 00 
    c70d:	90                   	nop
    c70e:	0f b7 05 b9 c9 00 00 	movzwl 0xc9b9(%rip),%eax        # 190ce <g_107>
    c715:	66 85 c0             	test   %ax,%ax
    c718:	0f 88 3e 02 00 00    	js     c95c <func_53+0x777>
    c71e:	c7 85 14 ed ff ff 00 	movl   $0x0,-0x12ec(%rbp)
    c725:	00 00 00 
    c728:	48 c7 85 38 ed ff ff 	movq   $0x0,-0x12c8(%rbp)
    c72f:	00 00 00 00 
    c733:	48 8d 85 38 ed ff ff 	lea    -0x12c8(%rbp),%rax
    c73a:	48 89 85 40 ed ff ff 	mov    %rax,-0x12c0(%rbp)
    c741:	48 8d 85 40 ed ff ff 	lea    -0x12c0(%rbp),%rax
    c748:	48 89 85 10 ee ff ff 	mov    %rax,-0x11f0(%rbp)
    c74f:	48 8d 05 2a c9 00 00 	lea    0xc92a(%rip),%rax        # 19080 <g_88>
    c756:	48 89 85 18 ee ff ff 	mov    %rax,-0x11e8(%rbp)
    c75d:	48 8d 85 c0 f8 ff ff 	lea    -0x740(%rbp),%rax
    c764:	48 8d 15 d5 e9 00 00 	lea    0xe9d5(%rip),%rdx        # 1b140 <g_2596+0x13f0>
    c76b:	b9 30 00 00 00       	mov    $0x30,%ecx
    c770:	48 89 c7             	mov    %rax,%rdi
    c773:	48 89 d6             	mov    %rdx,%rsi
    c776:	f3 48 a5             	rep movsq %ds:(%rsi),%es:(%rdi)
    c779:	48 c7 85 20 ee ff ff 	movq   $0xffffffffffffffff,-0x11e0(%rbp)
    c780:	ff ff ff ff 
    c784:	c7 85 c4 ec ff ff 00 	movl   $0x0,-0x133c(%rbp)
    c78b:	00 00 00 
    c78e:	eb 1b                	jmp    c7ab <func_53+0x5c6>
    c790:	8b 85 c4 ec ff ff    	mov    -0x133c(%rbp),%eax
    c796:	48 98                	cltq   
    c798:	48 c7 84 c5 f0 ee ff 	movq   $0x0,-0x1110(%rbp,%rax,8)
    c79f:	ff 00 00 00 00 
    c7a4:	83 85 c4 ec ff ff 01 	addl   $0x1,-0x133c(%rbp)
    c7ab:	83 bd c4 ec ff ff 07 	cmpl   $0x7,-0x133c(%rbp)
    c7b2:	7e dc                	jle    c790 <func_53+0x5ab>
    c7b4:	c7 85 c4 ec ff ff 00 	movl   $0x0,-0x133c(%rbp)
    c7bb:	00 00 00 
    c7be:	eb 1e                	jmp    c7de <func_53+0x5f9>
    c7c0:	8b 85 c4 ec ff ff    	mov    -0x133c(%rbp),%eax
    c7c6:	48 98                	cltq   
    c7c8:	48 8d 15 69 cb 00 00 	lea    0xcb69(%rip),%rdx        # 19338 <g_170>
    c7cf:	48 89 94 c5 30 ee ff 	mov    %rdx,-0x11d0(%rbp,%rax,8)
    c7d6:	ff 
    c7d7:	83 85 c4 ec ff ff 01 	addl   $0x1,-0x133c(%rbp)
    c7de:	83 bd c4 ec ff ff 00 	cmpl   $0x0,-0x133c(%rbp)
    c7e5:	7e d9                	jle    c7c0 <func_53+0x5db>
    c7e7:	48 8b 85 80 ec ff ff 	mov    -0x1380(%rbp),%rax
    c7ee:	0f b7 00             	movzwl (%rax),%eax
    c7f1:	0f bf d8             	movswl %ax,%ebx
    c7f4:	0f b7 05 7b cb 00 00 	movzwl 0xcb7b(%rip),%eax        # 19376 <g_369+0x6>
    c7fb:	98                   	cwtl   
    c7fc:	48 98                	cltq   
    c7fe:	48 8d 14 00          	lea    (%rax,%rax,1),%rdx
    c802:	48 8d 05 91 cb 00 00 	lea    0xcb91(%rip),%rax        # 1939a <g_487>
    c809:	0f b7 04 02          	movzwl (%rdx,%rax,1),%eax
    c80d:	0f b7 c0             	movzwl %ax,%eax
    c810:	be 08 00 00 00       	mov    $0x8,%esi
    c815:	89 c7                	mov    %eax,%edi
    c817:	e8 5e b6 ff ff       	callq  7e7a <safe_rshift_func_uint16_t_u_u>
    c81c:	0f b7 05 45 cb 00 00 	movzwl 0xcb45(%rip),%eax        # 19368 <g_366>
    c823:	44 0f bf e0          	movswl %ax,%r12d
    c827:	0f b7 05 48 cb 00 00 	movzwl 0xcb48(%rip),%eax        # 19376 <g_369+0x6>
    c82e:	98                   	cwtl   
    c82f:	48 98                	cltq   
    c831:	48 8d 14 00          	lea    (%rax,%rax,1),%rdx
    c835:	48 8d 05 5e cb 00 00 	lea    0xcb5e(%rip),%rax        # 1939a <g_487>
    c83c:	0f b7 04 02          	movzwl (%rdx,%rax,1),%eax
    c840:	44 0f be e8          	movsbl %al,%r13d
    c844:	0f b7 05 4f cb 00 00 	movzwl 0xcb4f(%rip),%eax        # 1939a <g_487>
    c84b:	0f bf d0             	movswl %ax,%edx
    c84e:	48 8b 85 b0 ed ff ff 	mov    -0x1250(%rbp),%rax
    c855:	98                   	cwtl   
    c856:	89 d6                	mov    %edx,%esi
    c858:	89 c7                	mov    %eax,%edi
    c85a:	e8 33 ac ff ff       	callq  7492 <safe_lshift_func_int16_t_s_s>
    c85f:	48 0f bf d0          	movswq %ax,%rdx
    c863:	48 8b 85 18 ee ff ff 	mov    -0x11e8(%rbp),%rax
    c86a:	48 89 10             	mov    %rdx,(%rax)
    c86d:	48 8b 85 18 ee ff ff 	mov    -0x11e8(%rbp),%rax
    c874:	48 8b 10             	mov    (%rax),%rdx
    c877:	0f b7 05 f8 ca 00 00 	movzwl 0xcaf8(%rip),%eax        # 19376 <g_369+0x6>
    c87e:	48 0f bf c0          	movswq %ax,%rax
    c882:	48 39 c2             	cmp    %rax,%rdx
    c885:	0f 9c c0             	setl   %al
    c888:	0f b6 c0             	movzbl %al,%eax
    c88b:	44 89 ee             	mov    %r13d,%esi
    c88e:	89 c7                	mov    %eax,%edi
    c890:	e8 5d a9 ff ff       	callq  71f2 <safe_sub_func_int8_t_s_s>
    c895:	48 0f be c0          	movsbq %al,%rax
    c899:	48 39 85 b0 ed ff ff 	cmp    %rax,-0x1250(%rbp)
    c8a0:	0f 94 c0             	sete   %al
    c8a3:	0f b6 c0             	movzbl %al,%eax
    c8a6:	8b 95 98 ec ff ff    	mov    -0x1368(%rbp),%edx
    c8ac:	89 d6                	mov    %edx,%esi
    c8ae:	89 c7                	mov    %eax,%edi
    c8b0:	e8 b7 aa ff ff       	callq  736c <safe_rshift_func_int8_t_s_u>
    c8b5:	0f b6 d0             	movzbl %al,%edx
    c8b8:	48 8b 85 b0 ed ff ff 	mov    -0x1250(%rbp),%rax
    c8bf:	0f b6 c0             	movzbl %al,%eax
    c8c2:	89 d6                	mov    %edx,%esi
    c8c4:	89 c7                	mov    %eax,%edi
    c8c6:	e8 e3 b2 ff ff       	callq  7bae <safe_mod_func_uint8_t_u_u>
    c8cb:	0f b6 d0             	movzbl %al,%edx
    c8ce:	0f b7 05 a1 ca 00 00 	movzwl 0xcaa1(%rip),%eax        # 19376 <g_369+0x6>
    c8d5:	98                   	cwtl   
    c8d6:	48 98                	cltq   
    c8d8:	48 8d 0c 00          	lea    (%rax,%rax,1),%rcx
    c8dc:	48 8d 05 b7 ca 00 00 	lea    0xcab7(%rip),%rax        # 1939a <g_487>
    c8e3:	0f b7 04 01          	movzwl (%rcx,%rax,1),%eax
    c8e7:	98                   	cwtl   
    c8e8:	89 85 14 ed ff ff    	mov    %eax,-0x12ec(%rbp)
    c8ee:	8b 85 14 ed ff ff    	mov    -0x12ec(%rbp),%eax
    c8f4:	0f b7 c0             	movzwl %ax,%eax
    c8f7:	89 d6                	mov    %edx,%esi
    c8f9:	89 c7                	mov    %eax,%edi
    c8fb:	e8 3d b4 ff ff       	callq  7d3d <safe_mul_func_uint16_t_u_u>
    c900:	0f b7 c0             	movzwl %ax,%eax
    c903:	48 be 98 70 05 ac 90 	movabs $0xc8739c90ac057098,%rsi
    c90a:	9c 73 c8 
    c90d:	48 89 c7             	mov    %rax,%rdi
    c910:	e8 36 b7 ff ff       	callq  804b <safe_sub_func_uint64_t_u_u>
    c915:	98                   	cwtl   
    c916:	44 89 e6             	mov    %r12d,%esi
    c919:	89 c7                	mov    %eax,%edi
    c91b:	e8 b3 aa ff ff       	callq  73d3 <safe_sub_func_int16_t_s_s>
    c920:	89 de                	mov    %ebx,%esi
    c922:	bf 00 00 00 00       	mov    $0x0,%edi
    c927:	e8 c9 aa ff ff       	callq  73f5 <safe_mul_func_int16_t_s_s>
    c92c:	be 00 00 00 00       	mov    $0x0,%esi
    c931:	48 bf 0e eb 7b 70 50 	movabs $0x5d9f1c50707beb0e,%rdi
    c938:	1c 9f 5d 
    c93b:	e8 ee b6 ff ff       	callq  802e <safe_add_func_uint64_t_u_u>
    c940:	48 89 85 50 ed ff ff 	mov    %rax,-0x12b0(%rbp)
    c947:	c7 85 40 ee ff ff 01 	movl   $0x1,-0x11c0(%rbp)
    c94e:	00 00 00 
    c951:	8b 85 bc ec ff ff    	mov    -0x1344(%rbp),%eax
    c957:	e9 f7 08 00 00       	jmpq   d253 <func_53+0x106e>
    c95c:	83 85 d0 ec ff ff 01 	addl   $0x1,-0x1330(%rbp)
    c963:	48 8d 85 50 ee ff ff 	lea    -0x11b0(%rbp),%rax
    c96a:	48 83 c0 0c          	add    $0xc,%rax
    c96e:	48 89 85 30 ef ff ff 	mov    %rax,-0x10d0(%rbp)
    c975:	c7 85 bc ec ff ff 00 	movl   $0x0,-0x1344(%rbp)
    c97c:	00 00 00 
    c97f:	e9 f4 05 00 00       	jmpq   cf78 <func_53+0xd93>
    c984:	c7 85 f0 ec ff ff 06 	movl   $0x6,-0x1310(%rbp)
    c98b:	00 00 00 
    c98e:	48 8d 05 4b f0 00 00 	lea    0xf04b(%rip),%rax        # 1b9e0 <g_39>
    c995:	48 89 85 30 ed ff ff 	mov    %rax,-0x12d0(%rbp)
    c99c:	48 8d 85 30 ed ff ff 	lea    -0x12d0(%rbp),%rax
    c9a3:	48 89 85 e0 ed ff ff 	mov    %rax,-0x1220(%rbp)
    c9aa:	c7 85 9c ec ff ff 00 	movl   $0x0,-0x1364(%rbp)
    c9b1:	00 00 00 
    c9b4:	e9 94 03 00 00       	jmpq   cd4d <func_53+0xb68>
    c9b9:	48 c7 85 38 ed ff ff 	movq   $0x0,-0x12c8(%rbp)
    c9c0:	00 00 00 00 
    c9c4:	c6 85 a9 ec ff ff f8 	movb   $0xf8,-0x1357(%rbp)
    c9cb:	c7 85 c8 ec ff ff 00 	movl   $0x0,-0x1338(%rbp)
    c9d2:	00 00 00 
    c9d5:	eb 1a                	jmp    c9f1 <func_53+0x80c>
    c9d7:	8b 85 c8 ec ff ff    	mov    -0x1338(%rbp),%eax
    c9dd:	48 98                	cltq   
    c9df:	c7 84 85 c0 f8 ff ff 	movl   $0x7,-0x740(%rbp,%rax,4)
    c9e6:	07 00 00 00 
    c9ea:	83 85 c8 ec ff ff 01 	addl   $0x1,-0x1338(%rbp)
    c9f1:	83 bd c8 ec ff ff 06 	cmpl   $0x6,-0x1338(%rbp)
    c9f8:	7e dd                	jle    c9d7 <func_53+0x7f2>
    c9fa:	c6 05 37 c9 00 00 00 	movb   $0x0,0xc937(%rip)        # 19338 <g_170>
    ca01:	e9 31 03 00 00       	jmpq   cd37 <func_53+0xb52>
    ca06:	48 c7 85 40 ed ff ff 	movq   $0x0,-0x12c0(%rbp)
    ca0d:	00 00 00 00 
    ca11:	48 8d 85 38 ed ff ff 	lea    -0x12c8(%rbp),%rax
    ca18:	48 89 85 e8 ed ff ff 	mov    %rax,-0x1218(%rbp)
    ca1f:	48 8d 05 7c c6 00 00 	lea    0xc67c(%rip),%rax        # 190a2 <g_105+0x2>
    ca26:	48 89 85 f0 ed ff ff 	mov    %rax,-0x1210(%rbp)
    ca2d:	c7 85 f8 ec ff ff 08 	movl   $0x8,-0x1308(%rbp)
    ca34:	00 00 00 
    ca37:	c7 85 fc ec ff ff fe 	movl   $0xfffffffe,-0x1304(%rbp)
    ca3e:	ff ff ff 
    ca41:	c7 85 00 ed ff ff e2 	movl   $0xb84229e2,-0x1300(%rbp)
    ca48:	29 42 b8 
    ca4b:	c7 85 04 ed ff ff 9d 	movl   $0x2d02769d,-0x12fc(%rbp)
    ca52:	76 02 2d 
    ca55:	c7 85 08 ed ff ff 01 	movl   $0x1,-0x12f8(%rbp)
    ca5c:	00 00 00 
    ca5f:	8b 05 43 c9 00 00    	mov    0xc943(%rip),%eax        # 193a8 <g_505>
    ca65:	0f bf d8             	movswl %ax,%ebx
    ca68:	48 8b 05 09 c9 00 00 	mov    0xc909(%rip),%rax        # 19378 <g_369+0x8>
    ca6f:	44 0f be e0          	movsbl %al,%r12d
    ca73:	48 8b 05 f6 ef 00 00 	mov    0xeff6(%rip),%rax        # 1ba70 <g_734>
    ca7a:	44 8b 28             	mov    (%rax),%r13d
    ca7d:	48 8b 85 80 ec ff ff 	mov    -0x1380(%rbp),%rax
    ca84:	0f b7 10             	movzwl (%rax),%edx
    ca87:	48 8b 85 80 ec ff ff 	mov    -0x1380(%rbp),%rax
    ca8e:	66 89 10             	mov    %dx,(%rax)
    ca91:	48 8b 95 38 ed ff ff 	mov    -0x12c8(%rbp),%rdx
    ca98:	48 8b 85 e8 ed ff ff 	mov    -0x1218(%rbp),%rax
    ca9f:	48 89 10             	mov    %rdx,(%rax)
    caa2:	48 8b 85 e8 ed ff ff 	mov    -0x1218(%rbp),%rax
    caa9:	48 8b 00             	mov    (%rax),%rax
    caac:	48 89 85 58 ed ff ff 	mov    %rax,-0x12a8(%rbp)
    cab3:	48 83 bd 58 ed ff ff 	cmpq   $0x0,-0x12a8(%rbp)
    caba:	00 
    cabb:	0f 94 c0             	sete   %al
    cabe:	0f b6 d0             	movzbl %al,%edx
    cac1:	48 8b 85 90 ec ff ff 	mov    -0x1370(%rbp),%rax
    cac8:	8b 00                	mov    (%rax),%eax
    caca:	39 c2                	cmp    %eax,%edx
    cacc:	0f 97 c0             	seta   %al
    cacf:	0f b6 d0             	movzbl %al,%edx
    cad2:	48 8b 05 7f ef 00 00 	mov    0xef7f(%rip),%rax        # 1ba58 <g_481>
    cad9:	48 85 c0             	test   %rax,%rax
    cadc:	0f 94 c0             	sete   %al
    cadf:	0f b6 c0             	movzbl %al,%eax
    cae2:	48 89 d6             	mov    %rdx,%rsi
    cae5:	48 89 c7             	mov    %rax,%rdi
    cae8:	e8 41 b5 ff ff       	callq  802e <safe_add_func_uint64_t_u_u>
    caed:	44 89 ee             	mov    %r13d,%esi
    caf0:	89 c7                	mov    %eax,%edi
    caf2:	e8 2e b4 ff ff       	callq  7f25 <safe_div_func_uint32_t_u_u>
    caf7:	3d a8 69 43 1c       	cmp    $0x1c4369a8,%eax
    cafc:	0f 97 c0             	seta   %al
    caff:	0f b6 d0             	movzbl %al,%edx
    cb02:	48 8b 05 3f ca 00 00 	mov    0xca3f(%rip),%rax        # 19548 <g_834>
    cb09:	48 39 c2             	cmp    %rax,%rdx
    cb0c:	0f 9f c0             	setg   %al
    cb0f:	0f b6 c0             	movzbl %al,%eax
    cb12:	be e1 f4 00 00       	mov    $0xf4e1,%esi
    cb17:	89 c7                	mov    %eax,%edi
    cb19:	e8 01 b2 ff ff       	callq  7d1f <safe_sub_func_uint16_t_u_u>
    cb1e:	0f b7 d0             	movzwl %ax,%edx
    cb21:	48 8b 05 78 c8 00 00 	mov    0xc878(%rip),%rax        # 193a0 <g_497>
    cb28:	48 39 c2             	cmp    %rax,%rdx
    cb2b:	0f 94 c0             	sete   %al
    cb2e:	89 c2                	mov    %eax,%edx
    cb30:	48 8b 85 f0 ed ff ff 	mov    -0x1210(%rbp),%rax
    cb37:	88 10                	mov    %dl,(%rax)
    cb39:	48 8b 85 f0 ed ff ff 	mov    -0x1210(%rbp),%rax
    cb40:	0f b6 00             	movzbl (%rax),%eax
    cb43:	0f be c0             	movsbl %al,%eax
    cb46:	44 89 e6             	mov    %r12d,%esi
    cb49:	89 c7                	mov    %eax,%edi
    cb4b:	e8 e1 a6 ff ff       	callq  7231 <safe_mod_func_int8_t_s_s>
    cb50:	0f b6 c0             	movzbl %al,%eax
    cb53:	be be 00 00 00       	mov    $0xbe,%esi
    cb58:	89 c7                	mov    %eax,%edi
    cb5a:	e8 4f b0 ff ff       	callq  7bae <safe_mod_func_uint8_t_u_u>
    cb5f:	0f b6 c0             	movzbl %al,%eax
    cb62:	89 de                	mov    %ebx,%esi
    cb64:	89 c7                	mov    %eax,%edi
    cb66:	e8 8a a8 ff ff       	callq  73f5 <safe_mul_func_int16_t_s_s>
    cb6b:	48 8b 05 0e c8 00 00 	mov    0xc80e(%rip),%rax        # 19380 <g_369+0x10>
    cb72:	48 83 f8 01          	cmp    $0x1,%rax
    cb76:	0f 9e c0             	setle  %al
    cb79:	0f b6 d0             	movzbl %al,%edx
    cb7c:	0f b7 05 e5 c7 00 00 	movzwl 0xc7e5(%rip),%eax        # 19368 <g_366>
    cb83:	0f b7 c0             	movzwl %ax,%eax
    cb86:	89 d6                	mov    %edx,%esi
    cb88:	89 c7                	mov    %eax,%edi
    cb8a:	e8 ae b1 ff ff       	callq  7d3d <safe_mul_func_uint16_t_u_u>
    cb8f:	8b 05 4b c9 00 00    	mov    0xc94b(%rip),%eax        # 194e0 <g_730+0xe0>
    cb95:	0f b6 c0             	movzbl %al,%eax
    cb98:	be 03 00 00 00       	mov    $0x3,%esi
    cb9d:	89 c7                	mov    %eax,%edi
    cb9f:	e8 1a b1 ff ff       	callq  7cbe <safe_rshift_func_uint8_t_u_u>
    cba4:	3c 08                	cmp    $0x8,%al
    cba6:	0f 85 70 01 00 00    	jne    cd1c <func_53+0xb37>
    cbac:	48 c7 85 f8 ed ff ff 	movq   $0x0,-0x1208(%rbp)
    cbb3:	00 00 00 00 
    cbb7:	c7 85 0c ed ff ff fd 	movl   $0xfffffffd,-0x12f4(%rbp)
    cbbe:	ff ff ff 
    cbc1:	48 8d 85 40 ed ff ff 	lea    -0x12c0(%rbp),%rax
    cbc8:	48 89 85 00 ee ff ff 	mov    %rax,-0x1200(%rbp)
    cbcf:	c7 85 10 ed ff ff 02 	movl   $0x2,-0x12f0(%rbp)
    cbd6:	00 00 00 
    cbd9:	48 8d 05 c0 c7 00 00 	lea    0xc7c0(%rip),%rax        # 193a0 <g_497>
    cbe0:	48 89 85 08 ee ff ff 	mov    %rax,-0x11f8(%rbp)
    cbe7:	48 8b 05 5a c9 00 00 	mov    0xc95a(%rip),%rax        # 19548 <g_834>
    cbee:	0f bf d8             	movswl %ax,%ebx
    cbf1:	81 8d 0c ed ff ff b5 	orl    $0x7bb5,-0x12f4(%rbp)
    cbf8:	7b 00 00 
    cbfb:	8b 85 0c ed ff ff    	mov    -0x12f4(%rbp),%eax
    cc01:	0f b7 c0             	movzwl %ax,%eax
    cc04:	be 09 00 00 00       	mov    $0x9,%esi
    cc09:	89 c7                	mov    %eax,%edi
    cc0b:	e8 6a b2 ff ff       	callq  7e7a <safe_rshift_func_uint16_t_u_u>
    cc10:	48 8b 15 99 f6 00 00 	mov    0xf699(%rip),%rdx        # 1c2b0 <g_850+0x10>
    cc17:	48 8b 85 00 ee ff ff 	mov    -0x1200(%rbp),%rax
    cc1e:	48 89 10             	mov    %rdx,(%rax)
    cc21:	8b 85 f8 ec ff ff    	mov    -0x1308(%rbp),%eax
    cc27:	48 98                	cltq   
    cc29:	81 bd 9c ec ff ff 7a 	cmpl   $0x297a,-0x1364(%rbp)
    cc30:	29 00 00 
    cc33:	7f 07                	jg     cc3c <func_53+0xa57>
    cc35:	ba 48 00 00 00       	mov    $0x48,%edx
    cc3a:	eb 05                	jmp    cc41 <func_53+0xa5c>
    cc3c:	ba 49 00 00 00       	mov    $0x49,%edx
    cc41:	48 89 c6             	mov    %rax,%rsi
    cc44:	48 89 d7             	mov    %rdx,%rdi
    cc47:	e8 ff b3 ff ff       	callq  804b <safe_sub_func_uint64_t_u_u>
    cc4c:	be f8 aa ff ff       	mov    $0xffffaaf8,%esi
    cc51:	bf ea 0a 00 00       	mov    $0xaea,%edi
    cc56:	e8 fa a7 ff ff       	callq  7455 <safe_div_func_int16_t_s_s>
    cc5b:	bf a9 69 36 41       	mov    $0x413669a9,%edi
    cc60:	e8 41 b2 ff ff       	callq  7ea6 <safe_unary_minus_func_uint32_t_u>
    cc65:	85 c0                	test   %eax,%eax
    cc67:	75 09                	jne    cc72 <func_53+0xa8d>
    cc69:	83 bd 98 ec ff ff 00 	cmpl   $0x0,-0x1368(%rbp)
    cc70:	74 07                	je     cc79 <func_53+0xa94>
    cc72:	b8 01 00 00 00       	mov    $0x1,%eax
    cc77:	eb 05                	jmp    cc7e <func_53+0xa99>
    cc79:	b8 00 00 00 00       	mov    $0x0,%eax
    cc7e:	98                   	cwtl   
    cc7f:	be 01 00 00 00       	mov    $0x1,%esi
    cc84:	89 c7                	mov    %eax,%edi
    cc86:	e8 6a a7 ff ff       	callq  73f5 <safe_mul_func_int16_t_s_s>
    cc8b:	8b 85 c8 f8 ff ff    	mov    -0x738(%rbp),%eax
    cc91:	23 85 f8 ec ff ff    	and    -0x1308(%rbp),%eax
    cc97:	39 85 f8 ec ff ff    	cmp    %eax,-0x1308(%rbp)
    cc9d:	0f 9c c0             	setl   %al
    cca0:	0f b6 d0             	movzbl %al,%edx
    cca3:	48 8b 85 08 ee ff ff 	mov    -0x11f8(%rbp),%rax
    ccaa:	48 89 10             	mov    %rdx,(%rax)
    ccad:	48 8b 85 08 ee ff ff 	mov    -0x11f8(%rbp),%rax
    ccb4:	48 8b 00             	mov    (%rax),%rax
    ccb7:	48 ba 56 6b 61 e2 e5 	movabs $0x788854e5e2616b56,%rdx
    ccbe:	54 88 78 
    ccc1:	48 39 d0             	cmp    %rdx,%rax
    ccc4:	0f b7 05 ab c6 00 00 	movzwl 0xc6ab(%rip),%eax        # 19376 <g_369+0x6>
    cccb:	98                   	cwtl   
    cccc:	83 c0 02             	add    $0x2,%eax
    cccf:	48 98                	cltq   
    ccd1:	c7 84 85 50 ee ff ff 	movl   $0x1,-0x11b0(%rbp,%rax,4)
    ccd8:	01 00 00 00 
    ccdc:	be 06 00 00 00       	mov    $0x6,%esi
    cce1:	bf ff ff 00 00       	mov    $0xffff,%edi
    cce6:	e8 71 b0 ff ff       	callq  7d5c <safe_mod_func_uint16_t_u_u>
    cceb:	98                   	cwtl   
    ccec:	89 de                	mov    %ebx,%esi
    ccee:	89 c7                	mov    %eax,%edi
    ccf0:	e8 00 a7 ff ff       	callq  73f5 <safe_mul_func_int16_t_s_s>
    ccf5:	48 8b 95 c8 ed ff ff 	mov    -0x1238(%rbp),%rdx
    ccfc:	8b 12                	mov    (%rdx),%edx
    ccfe:	98                   	cwtl   
    ccff:	31 c2                	xor    %eax,%edx
    cd01:	48 8b 85 c8 ed ff ff 	mov    -0x1238(%rbp),%rax
    cd08:	89 10                	mov    %edx,(%rax)
    cd0a:	80 85 a9 ec ff ff 01 	addb   $0x1,-0x1357(%rbp)
    cd11:	83 bd 9c ec ff ff 00 	cmpl   $0x0,-0x1364(%rbp)
    cd18:	74 0d                	je     cd27 <func_53+0xb42>
    cd1a:	eb 2a                	jmp    cd46 <func_53+0xb61>
    cd1c:	8b 85 f0 ec ff ff    	mov    -0x1310(%rbp),%eax
    cd22:	e9 2c 05 00 00       	jmpq   d253 <func_53+0x106e>
    cd27:	0f b6 05 0a c6 00 00 	movzbl 0xc60a(%rip),%eax        # 19338 <g_170>
    cd2e:	83 c0 01             	add    $0x1,%eax
    cd31:	88 05 01 c6 00 00    	mov    %al,0xc601(%rip)        # 19338 <g_170>
    cd37:	0f b6 05 fa c5 00 00 	movzbl 0xc5fa(%rip),%eax        # 19338 <g_170>
    cd3e:	3c 02                	cmp    $0x2,%al
    cd40:	0f 86 c0 fc ff ff    	jbe    ca06 <func_53+0x821>
    cd46:	83 85 9c ec ff ff 01 	addl   $0x1,-0x1364(%rbp)
    cd4d:	83 bd 9c ec ff ff 06 	cmpl   $0x6,-0x1364(%rbp)
    cd54:	0f 8e 5f fc ff ff    	jle    c9b9 <func_53+0x7d4>
    cd5a:	48 8b 15 d7 ec 00 00 	mov    0xecd7(%rip),%rdx        # 1ba38 <g_244>
    cd61:	48 8b 85 30 ed ff ff 	mov    -0x12d0(%rbp),%rax
    cd68:	48 8b 12             	mov    (%rdx),%rdx
    cd6b:	48 89 10             	mov    %rdx,(%rax)
    cd6e:	c6 05 15 c3 00 00 00 	movb   $0x0,0xc315(%rip)        # 1908a <g_98>
    cd75:	eb 45                	jmp    cdbc <func_53+0xbd7>
    cd77:	c7 85 f4 ec ff ff 01 	movl   $0x1,-0x130c(%rbp)
    cd7e:	00 00 00 
    cd81:	48 8b 85 48 ed ff ff 	mov    -0x12b8(%rbp),%rax
    cd88:	48 89 85 e0 ed ff ff 	mov    %rax,-0x1220(%rbp)
    cd8f:	83 bd f4 ec ff ff 00 	cmpl   $0x0,-0x130c(%rbp)
    cd96:	75 13                	jne    cdab <func_53+0xbc6>
    cd98:	48 8b 85 30 ed ff ff 	mov    -0x12d0(%rbp),%rax
    cd9f:	48 8b 95 88 ec ff ff 	mov    -0x1378(%rbp),%rdx
    cda6:	48 89 10             	mov    %rdx,(%rax)
    cda9:	eb 01                	jmp    cdac <func_53+0xbc7>
    cdab:	90                   	nop
    cdac:	0f b6 05 d7 c2 00 00 	movzbl 0xc2d7(%rip),%eax        # 1908a <g_98>
    cdb3:	83 c0 01             	add    $0x1,%eax
    cdb6:	88 05 ce c2 00 00    	mov    %al,0xc2ce(%rip)        # 1908a <g_98>
    cdbc:	0f b6 05 c7 c2 00 00 	movzbl 0xc2c7(%rip),%eax        # 1908a <g_98>
    cdc3:	3c 01                	cmp    $0x1,%al
    cdc5:	7e b0                	jle    cd77 <func_53+0xb92>
    cdc7:	48 c7 85 50 ed ff ff 	movq   $0x0,-0x12b0(%rbp)
    cdce:	00 00 00 00 
    cdd2:	e9 89 01 00 00       	jmpq   cf60 <func_53+0xd7b>
    cdd7:	83 bd 9c ec ff ff 00 	cmpl   $0x0,-0x1364(%rbp)
    cdde:	0f 85 8c 01 00 00    	jne    cf70 <func_53+0xd8b>
    cde4:	44 8b 3d 49 94 00 00 	mov    0x9449(%rip),%r15d        # 16234 <l_874.4727+0x14>
    cdeb:	8b 05 43 94 00 00    	mov    0x9443(%rip),%eax        # 16234 <l_874.4727+0x14>
    cdf1:	98                   	cwtl   
    cdf2:	89 c6                	mov    %eax,%esi
    cdf4:	bf 00 00 00 00       	mov    $0x0,%edi
    cdf9:	e8 f7 a5 ff ff       	callq  73f5 <safe_mul_func_int16_t_s_s>
    cdfe:	66 85 c0             	test   %ax,%ax
    ce01:	0f 85 0f 01 00 00    	jne    cf16 <func_53+0xd31>
    ce07:	48 8b 05 da eb 00 00 	mov    0xebda(%rip),%rax        # 1b9e8 <g_77>
    ce0e:	48 8b 00             	mov    (%rax),%rax
    ce11:	8b 85 9c ec ff ff    	mov    -0x1364(%rbp),%eax
    ce17:	48 63 d0             	movslq %eax,%rdx
    ce1a:	8b 85 98 ec ff ff    	mov    -0x1368(%rbp),%eax
    ce20:	48 89 d6             	mov    %rdx,%rsi
    ce23:	48 89 c7             	mov    %rax,%rdi
    ce26:	e8 7d aa ff ff       	callq  78a8 <safe_sub_func_int64_t_s_s>
    ce2b:	0f b7 d0             	movzwl %ax,%edx
    ce2e:	8b 05 7c c5 00 00    	mov    0xc57c(%rip),%eax        # 193b0 <g_511>
    ce34:	0f b7 c0             	movzwl %ax,%eax
    ce37:	89 d6                	mov    %edx,%esi
    ce39:	89 c7                	mov    %eax,%edi
    ce3b:	e8 bf ae ff ff       	callq  7cff <safe_add_func_uint16_t_u_u>
    ce40:	0f b7 85 ae ec ff ff 	movzwl -0x1352(%rbp),%eax
    ce47:	0f be d8             	movsbl %al,%ebx
    ce4a:	8b 85 9c ec ff ff    	mov    -0x1364(%rbp),%eax
    ce50:	4c 63 e0             	movslq %eax,%r12
    ce53:	8b 85 9c ec ff ff    	mov    -0x1364(%rbp),%eax
    ce59:	44 0f b6 e8          	movzbl %al,%r13d
    ce5d:	8b 05 bd 93 00 00    	mov    0x93bd(%rip),%eax        # 16220 <l_874.4727>
    ce63:	4c 63 f0             	movslq %eax,%r14
    ce66:	48 8b 85 80 ec ff ff 	mov    -0x1380(%rbp),%rax
    ce6d:	0f b7 00             	movzwl (%rax),%eax
    ce70:	98                   	cwtl   
    ce71:	be 3b 14 00 00       	mov    $0x143b,%esi
    ce76:	89 c7                	mov    %eax,%edi
    ce78:	e8 78 a5 ff ff       	callq  73f5 <safe_mul_func_int16_t_s_s>
    ce7d:	0f b7 15 d2 c4 00 00 	movzwl 0xc4d2(%rip),%edx        # 19356 <g_309+0x6>
    ce84:	31 d0                	xor    %edx,%eax
    ce86:	48 0f bf c0          	movswq %ax,%rax
    ce8a:	4c 89 f6             	mov    %r14,%rsi
    ce8d:	48 89 c7             	mov    %rax,%rdi
    ce90:	e8 62 ab ff ff       	callq  79f7 <safe_div_func_int64_t_s_s>
    ce95:	0f b7 15 f0 c3 00 00 	movzwl 0xc3f0(%rip),%edx        # 1928c <g_123+0x4c>
    ce9c:	48 0f bf d2          	movswq %dx,%rdx
    cea0:	48 39 d0             	cmp    %rdx,%rax
    cea3:	7e 10                	jle    ceb5 <func_53+0xcd0>
    cea5:	83 bd 9c ec ff ff 00 	cmpl   $0x0,-0x1364(%rbp)
    ceac:	74 07                	je     ceb5 <func_53+0xcd0>
    ceae:	b8 01 00 00 00       	mov    $0x1,%eax
    ceb3:	eb 05                	jmp    ceba <func_53+0xcd5>
    ceb5:	b8 00 00 00 00       	mov    $0x0,%eax
    ceba:	0f b6 c0             	movzbl %al,%eax
    cebd:	44 89 ee             	mov    %r13d,%esi
    cec0:	89 c7                	mov    %eax,%edi
    cec2:	e8 e7 ac ff ff       	callq  7bae <safe_mod_func_uint8_t_u_u>
    cec7:	0f b6 c0             	movzbl %al,%eax
    ceca:	4c 89 e6             	mov    %r12,%rsi
    cecd:	48 89 c7             	mov    %rax,%rdi
    ced0:	e8 6c a9 ff ff       	callq  7841 <safe_add_func_int64_t_s_s>
    ced5:	0f be c0             	movsbl %al,%eax
    ced8:	89 de                	mov    %ebx,%esi
    ceda:	89 c7                	mov    %eax,%edi
    cedc:	e8 50 a3 ff ff       	callq  7231 <safe_mod_func_int8_t_s_s>
    cee1:	66 98                	cbtw   
    cee3:	0f b7 c0             	movzwl %ax,%eax
    cee6:	be 0b 00 00 00       	mov    $0xb,%esi
    ceeb:	89 c7                	mov    %eax,%edi
    ceed:	e8 88 af ff ff       	callq  7e7a <safe_rshift_func_uint16_t_u_u>
    cef2:	66 85 c0             	test   %ax,%ax
    cef5:	74 16                	je     cf0d <func_53+0xd28>
    cef7:	48 8b 85 80 ec ff ff 	mov    -0x1380(%rbp),%rax
    cefe:	0f b7 00             	movzwl (%rax),%eax
    cf01:	66 85 c0             	test   %ax,%ax
    cf04:	74 07                	je     cf0d <func_53+0xd28>
    cf06:	b8 01 00 00 00       	mov    $0x1,%eax
    cf0b:	eb 05                	jmp    cf12 <func_53+0xd2d>
    cf0d:	b8 00 00 00 00       	mov    $0x0,%eax
    cf12:	85 c0                	test   %eax,%eax
    cf14:	74 07                	je     cf1d <func_53+0xd38>
    cf16:	b8 01 00 00 00       	mov    $0x1,%eax
    cf1b:	eb 05                	jmp    cf22 <func_53+0xd3d>
    cf1d:	b8 00 00 00 00       	mov    $0x0,%eax
    cf22:	44 21 f8             	and    %r15d,%eax
    cf25:	89 c2                	mov    %eax,%edx
    cf27:	8b 05 47 c1 00 00    	mov    0xc147(%rip),%eax        # 19074 <g_40>
    cf2d:	31 d0                	xor    %edx,%eax
    cf2f:	89 05 3f c1 00 00    	mov    %eax,0xc13f(%rip)        # 19074 <g_40>
    cf35:	8b 05 a5 c4 00 00    	mov    0xc4a5(%rip),%eax        # 193e0 <g_676>
    cf3b:	83 f8 02             	cmp    $0x2,%eax
    cf3e:	0f 96 c0             	setbe  %al
    cf41:	0f b6 d0             	movzbl %al,%edx
    cf44:	48 8b 85 d8 ed ff ff 	mov    -0x1228(%rbp),%rax
    cf4b:	8b 00                	mov    (%rax),%eax
    cf4d:	21 c2                	and    %eax,%edx
    cf4f:	48 8b 85 d8 ed ff ff 	mov    -0x1228(%rbp),%rax
    cf56:	89 10                	mov    %edx,(%rax)
    cf58:	48 83 85 50 ed ff ff 	addq   $0x1,-0x12b0(%rbp)
    cf5f:	01 
    cf60:	48 83 bd 50 ed ff ff 	cmpq   $0x2,-0x12b0(%rbp)
    cf67:	02 
    cf68:	0f 8e 69 fe ff ff    	jle    cdd7 <func_53+0xbf2>
    cf6e:	eb 01                	jmp    cf71 <func_53+0xd8c>
    cf70:	90                   	nop
    cf71:	83 85 bc ec ff ff 01 	addl   $0x1,-0x1344(%rbp)
    cf78:	83 bd bc ec ff ff 02 	cmpl   $0x2,-0x1344(%rbp)
    cf7f:	0f 8e ff f9 ff ff    	jle    c984 <func_53+0x79f>
    cf85:	0f b7 05 ea c3 00 00 	movzwl 0xc3ea(%rip),%eax        # 19376 <g_369+0x6>
    cf8c:	83 e8 01             	sub    $0x1,%eax
    cf8f:	66 89 05 e0 c3 00 00 	mov    %ax,0xc3e0(%rip)        # 19376 <g_369+0x6>
    cf96:	0f b7 05 d9 c3 00 00 	movzwl 0xc3d9(%rip),%eax        # 19376 <g_369+0x6>
    cf9d:	66 85 c0             	test   %ax,%ax
    cfa0:	0f 89 1c f6 ff ff    	jns    c5c2 <func_53+0x3dd>
    cfa6:	c7 05 c4 c0 00 00 00 	movl   $0x0,0xc0c4(%rip)        # 19074 <g_40>
    cfad:	00 00 00 
    cfb0:	e9 86 02 00 00       	jmpq   d23b <func_53+0x1056>
    cfb5:	48 c7 85 80 ed ff ff 	movq   $0x0,-0x1280(%rbp)
    cfbc:	00 00 00 00 
    cfc0:	c7 85 90 ef ff ff 4b 	movl   $0x255cdb4b,-0x1070(%rbp)
    cfc7:	db 5c 25 
    cfca:	c7 85 94 ef ff ff 09 	movl   $0x9,-0x106c(%rbp)
    cfd1:	00 00 00 
    cfd4:	c7 85 98 ef ff ff 4b 	movl   $0x255cdb4b,-0x1068(%rbp)
    cfdb:	db 5c 25 
    cfde:	c7 85 9c ef ff ff 09 	movl   $0x9,-0x1064(%rbp)
    cfe5:	00 00 00 
    cfe8:	c7 85 a0 ef ff ff 4b 	movl   $0x255cdb4b,-0x1060(%rbp)
    cfef:	db 5c 25 
    cff2:	c7 85 a4 ef ff ff 09 	movl   $0x9,-0x105c(%rbp)
    cff9:	00 00 00 
    cffc:	c7 85 a8 ef ff ff 4b 	movl   $0x255cdb4b,-0x1058(%rbp)
    d003:	db 5c 25 
    d006:	c7 85 ac ef ff ff 09 	movl   $0x9,-0x1054(%rbp)
    d00d:	00 00 00 
    d010:	c7 85 b0 ef ff ff 4b 	movl   $0x255cdb4b,-0x1050(%rbp)
    d017:	db 5c 25 
    d01a:	c7 85 b4 ef ff ff 09 	movl   $0x9,-0x104c(%rbp)
    d021:	00 00 00 
    d024:	c7 85 b8 ef ff ff 4b 	movl   $0x255cdb4b,-0x1048(%rbp)
    d02b:	db 5c 25 
    d02e:	c7 85 bc ef ff ff 09 	movl   $0x9,-0x1044(%rbp)
    d035:	00 00 00 
    d038:	c7 85 c0 ef ff ff 4b 	movl   $0x255cdb4b,-0x1040(%rbp)
    d03f:	db 5c 25 
    d042:	c7 85 c4 ef ff ff 09 	movl   $0x9,-0x103c(%rbp)
    d049:	00 00 00 
    d04c:	c7 85 c8 ef ff ff 4b 	movl   $0x255cdb4b,-0x1038(%rbp)
    d053:	db 5c 25 
    d056:	c7 85 cc ef ff ff 09 	movl   $0x9,-0x1034(%rbp)
    d05d:	00 00 00 
    d060:	c7 85 d0 ef ff ff 4b 	movl   $0x255cdb4b,-0x1030(%rbp)
    d067:	db 5c 25 
    d06a:	c7 85 d4 ef ff ff 09 	movl   $0x9,-0x102c(%rbp)
    d071:	00 00 00 
    d074:	c7 85 d8 ef ff ff 4b 	movl   $0x255cdb4b,-0x1028(%rbp)
    d07b:	db 5c 25 
    d07e:	c7 85 dc ef ff ff 09 	movl   $0x9,-0x1024(%rbp)
    d085:	00 00 00 
    d088:	c7 85 e0 ef ff ff 4b 	movl   $0x255cdb4b,-0x1020(%rbp)
    d08f:	db 5c 25 
    d092:	c7 85 e4 ef ff ff 09 	movl   $0x9,-0x101c(%rbp)
    d099:	00 00 00 
    d09c:	c7 85 e8 ef ff ff 4b 	movl   $0x255cdb4b,-0x1018(%rbp)
    d0a3:	db 5c 25 
    d0a6:	c7 85 ec ef ff ff 09 	movl   $0x9,-0x1014(%rbp)
    d0ad:	00 00 00 
    d0b0:	c7 85 f0 ef ff ff 4b 	movl   $0x255cdb4b,-0x1010(%rbp)
    d0b7:	db 5c 25 
    d0ba:	c7 85 f4 ef ff ff 09 	movl   $0x9,-0x100c(%rbp)
    d0c1:	00 00 00 
    d0c4:	c7 85 f8 ef ff ff 4b 	movl   $0x255cdb4b,-0x1008(%rbp)
    d0cb:	db 5c 25 
    d0ce:	c7 85 fc ef ff ff 09 	movl   $0x9,-0x1004(%rbp)
    d0d5:	00 00 00 
    d0d8:	c7 85 00 f0 ff ff 4b 	movl   $0x255cdb4b,-0x1000(%rbp)
    d0df:	db 5c 25 
    d0e2:	c7 85 04 f0 ff ff 09 	movl   $0x9,-0xffc(%rbp)
    d0e9:	00 00 00 
    d0ec:	c7 85 08 f0 ff ff 4b 	movl   $0x255cdb4b,-0xff8(%rbp)
    d0f3:	db 5c 25 
    d0f6:	c7 85 0c f0 ff ff 09 	movl   $0x9,-0xff4(%rbp)
    d0fd:	00 00 00 
    d100:	c7 85 10 f0 ff ff 4b 	movl   $0x255cdb4b,-0xff0(%rbp)
    d107:	db 5c 25 
    d10a:	c7 85 14 f0 ff ff 09 	movl   $0x9,-0xfec(%rbp)
    d111:	00 00 00 
    d114:	c7 85 18 f0 ff ff 4b 	movl   $0x255cdb4b,-0xfe8(%rbp)
    d11b:	db 5c 25 
    d11e:	c7 85 1c f0 ff ff 09 	movl   $0x9,-0xfe4(%rbp)
    d125:	00 00 00 
    d128:	c7 85 20 f0 ff ff 4b 	movl   $0x255cdb4b,-0xfe0(%rbp)
    d12f:	db 5c 25 
    d132:	c7 85 24 f0 ff ff 09 	movl   $0x9,-0xfdc(%rbp)
    d139:	00 00 00 
    d13c:	c7 85 28 f0 ff ff 4b 	movl   $0x255cdb4b,-0xfd8(%rbp)
    d143:	db 5c 25 
    d146:	c7 85 2c f0 ff ff 09 	movl   $0x9,-0xfd4(%rbp)
    d14d:	00 00 00 
    d150:	48 8d 05 39 c1 00 00 	lea    0xc139(%rip),%rax        # 19290 <g_123+0x50>
    d157:	48 89 85 88 ed ff ff 	mov    %rax,-0x1278(%rbp)
    d15e:	c7 85 d8 ec ff ff e2 	movl   $0xd09a24e2,-0x1328(%rbp)
    d165:	24 9a d0 
    d168:	48 8d 05 f1 5e 00 00 	lea    0x5ef1(%rip),%rax        # 13060 <g_1225>
    d16f:	48 89 85 90 ed ff ff 	mov    %rax,-0x1270(%rbp)
    d176:	c7 85 dc ec ff ff a2 	movl   $0x8c0733a2,-0x1324(%rbp)
    d17d:	33 07 8c 
    d180:	c7 85 e0 ec ff ff 34 	movl   $0x9e4a9134,-0x1320(%rbp)
    d187:	91 4a 9e 
    d18a:	48 c7 85 98 ed ff ff 	movq   $0x3,-0x1268(%rbp)
    d191:	03 00 00 00 
    d195:	c7 85 e4 ec ff ff f9 	movl   $0x80a5a5f9,-0x131c(%rbp)
    d19c:	a5 a5 80 
    d19f:	c6 85 ab ec ff ff 04 	movb   $0x4,-0x1355(%rbp)
    d1a6:	c7 85 e8 ec ff ff 55 	movl   $0xbd97e855,-0x1318(%rbp)
    d1ad:	e8 97 bd 
    d1b0:	c7 85 ec ec ff ff fe 	movl   $0xfffffffe,-0x1314(%rbp)
    d1b7:	ff ff ff 
    d1ba:	48 8d 85 c0 f8 ff ff 	lea    -0x740(%rbp),%rax
    d1c1:	48 8d 15 f8 e0 00 00 	lea    0xe0f8(%rip),%rdx        # 1b2c0 <g_2596+0x1570>
    d1c8:	b9 e1 00 00 00       	mov    $0xe1,%ecx
    d1cd:	48 89 c7             	mov    %rax,%rdi
    d1d0:	48 89 d6             	mov    %rdx,%rsi
    d1d3:	f3 48 a5             	rep movsq %ds:(%rsi),%es:(%rdi)
    d1d6:	48 8d 85 c0 f8 ff ff 	lea    -0x740(%rbp),%rax
    d1dd:	48 05 b8 04 00 00    	add    $0x4b8,%rax
    d1e3:	48 89 85 38 ed ff ff 	mov    %rax,-0x12c8(%rbp)
    d1ea:	48 8d 85 38 ed ff ff 	lea    -0x12c8(%rbp),%rax
    d1f1:	48 89 85 a0 ed ff ff 	mov    %rax,-0x1260(%rbp)
    d1f8:	48 8d 05 69 c1 00 00 	lea    0xc169(%rip),%rax        # 19368 <g_366>
    d1ff:	48 89 85 40 ed ff ff 	mov    %rax,-0x12c0(%rbp)
    d206:	48 8d 85 40 ed ff ff 	lea    -0x12c0(%rbp),%rax
    d20d:	48 89 85 a8 ed ff ff 	mov    %rax,-0x1258(%rbp)
    d214:	66 c7 85 ac ec ff ff 	movw   $0x0,-0x1354(%rbp)
    d21b:	00 00 
    d21d:	8b 05 51 be 00 00    	mov    0xbe51(%rip),%eax        # 19074 <g_40>
    d223:	0f be c0             	movsbl %al,%eax
    d226:	be 02 00 00 00       	mov    $0x2,%esi
    d22b:	89 c7                	mov    %eax,%edi
    d22d:	e8 c0 9f ff ff       	callq  71f2 <safe_sub_func_int8_t_s_s>
    d232:	0f be c0             	movsbl %al,%eax
    d235:	89 05 39 be 00 00    	mov    %eax,0xbe39(%rip)        # 19074 <g_40>
    d23b:	8b 05 33 be 00 00    	mov    0xbe33(%rip),%eax        # 19074 <g_40>
    d241:	83 f8 fa             	cmp    $0xfffffffa,%eax
    d244:	0f 84 6b fd ff ff    	je     cfb5 <func_53+0xdd0>
    d24a:	48 8b 85 90 ec ff ff 	mov    -0x1370(%rbp),%rax
    d251:	8b 00                	mov    (%rax),%eax
    d253:	48 8b 5d c8          	mov    -0x38(%rbp),%rbx
    d257:	64 48 33 1c 25 28 00 	xor    %fs:0x28,%rbx
    d25e:	00 00 
    d260:	74 05                	je     d267 <func_53+0x1082>
    d262:	e8 09 9e ff ff       	callq  7070 <__stack_chk_fail@plt>
    d267:	48 81 c4 58 13 00 00 	add    $0x1358,%rsp
    d26e:	5b                   	pop    %rbx
    d26f:	41 5c                	pop    %r12
    d271:	41 5d                	pop    %r13
    d273:	41 5e                	pop    %r14
    d275:	41 5f                	pop    %r15
    d277:	5d                   	pop    %rbp
    d278:	c3                   	retq   

000000000000d279 <func_63>:
    d279:	f3 0f 1e fa          	endbr64 
    d27d:	55                   	push   %rbp
    d27e:	48 89 e5             	mov    %rsp,%rbp
    d281:	41 57                	push   %r15
    d283:	41 56                	push   %r14
    d285:	41 55                	push   %r13
    d287:	41 54                	push   %r12
    d289:	53                   	push   %rbx
    d28a:	48 81 ec d8 08 00 00 	sub    $0x8d8,%rsp
    d291:	48 89 bd 18 f7 ff ff 	mov    %rdi,-0x8e8(%rbp)
    d298:	89 f0                	mov    %esi,%eax
    d29a:	66 89 85 14 f7 ff ff 	mov    %ax,-0x8ec(%rbp)
    d2a1:	64 48 8b 04 25 28 00 	mov    %fs:0x28,%rax
    d2a8:	00 00 
    d2aa:	48 89 45 c8          	mov    %rax,-0x38(%rbp)
    d2ae:	31 c0                	xor    %eax,%eax
    d2b0:	48 8d 05 bd bd 00 00 	lea    0xbdbd(%rip),%rax        # 19074 <g_40>
    d2b7:	48 89 85 20 f8 ff ff 	mov    %rax,-0x7e0(%rbp)
    d2be:	48 8d 05 31 be 00 00 	lea    0xbe31(%rip),%rax        # 190f6 <g_119+0x16>
    d2c5:	48 89 85 08 f8 ff ff 	mov    %rax,-0x7f8(%rbp)
    d2cc:	c7 85 c0 fb ff ff ff 	movl   $0xffffffff,-0x440(%rbp)
    d2d3:	ff ff ff 
    d2d6:	c7 85 c4 fb ff ff 07 	movl   $0x7,-0x43c(%rbp)
    d2dd:	00 00 00 
    d2e0:	c7 85 c8 fb ff ff ff 	movl   $0xffffffff,-0x438(%rbp)
    d2e7:	ff ff ff 
    d2ea:	c7 85 cc fb ff ff ff 	movl   $0xffffffff,-0x434(%rbp)
    d2f1:	ff ff ff 
    d2f4:	c7 85 d0 fb ff ff fa 	movl   $0xfffffffa,-0x430(%rbp)
    d2fb:	ff ff ff 
    d2fe:	c7 85 d4 fb ff ff fa 	movl   $0xfffffffa,-0x42c(%rbp)
    d305:	ff ff ff 
    d308:	c7 85 d8 fb ff ff 00 	movl   $0x0,-0x428(%rbp)
    d30f:	00 00 00 
    d312:	c7 85 dc fb ff ff 07 	movl   $0x7,-0x424(%rbp)
    d319:	00 00 00 
    d31c:	c7 85 e0 fb ff ff 07 	movl   $0x7,-0x420(%rbp)
    d323:	00 00 00 
    d326:	c7 85 e4 fb ff ff 00 	movl   $0x0,-0x41c(%rbp)
    d32d:	00 00 00 
    d330:	c7 85 e8 fb ff ff fa 	movl   $0xfffffffa,-0x418(%rbp)
    d337:	ff ff ff 
    d33a:	c7 85 ec fb ff ff ff 	movl   $0xffffffff,-0x414(%rbp)
    d341:	ff ff ff 
    d344:	c7 85 f0 fb ff ff 5d 	movl   $0x34e0b65d,-0x410(%rbp)
    d34b:	b6 e0 34 
    d34e:	c7 85 f4 fb ff ff 07 	movl   $0x7,-0x40c(%rbp)
    d355:	00 00 00 
    d358:	c7 85 f8 fb ff ff fa 	movl   $0xfffffffa,-0x408(%rbp)
    d35f:	ff ff ff 
    d362:	c7 85 fc fb ff ff 5d 	movl   $0x34e0b65d,-0x404(%rbp)
    d369:	b6 e0 34 
    d36c:	c7 85 00 fc ff ff fa 	movl   $0xfffffffa,-0x400(%rbp)
    d373:	ff ff ff 
    d376:	c7 85 04 fc ff ff 07 	movl   $0x7,-0x3fc(%rbp)
    d37d:	00 00 00 
    d380:	c7 85 08 fc ff ff ff 	movl   $0xffffffff,-0x3f8(%rbp)
    d387:	ff ff ff 
    d38a:	c7 85 0c fc ff ff 07 	movl   $0x7,-0x3f4(%rbp)
    d391:	00 00 00 
    d394:	c7 85 10 fc ff ff ff 	movl   $0xffffffff,-0x3f0(%rbp)
    d39b:	ff ff ff 
    d39e:	c7 85 14 fc ff ff ff 	movl   $0xffffffff,-0x3ec(%rbp)
    d3a5:	ff ff ff 
    d3a8:	c7 85 18 fc ff ff fa 	movl   $0xfffffffa,-0x3e8(%rbp)
    d3af:	ff ff ff 
    d3b2:	c7 85 1c fc ff ff fa 	movl   $0xfffffffa,-0x3e4(%rbp)
    d3b9:	ff ff ff 
    d3bc:	c7 85 20 fc ff ff 00 	movl   $0x0,-0x3e0(%rbp)
    d3c3:	00 00 00 
    d3c6:	c7 85 24 fc ff ff 07 	movl   $0x7,-0x3dc(%rbp)
    d3cd:	00 00 00 
    d3d0:	c7 85 28 fc ff ff 07 	movl   $0x7,-0x3d8(%rbp)
    d3d7:	00 00 00 
    d3da:	c7 85 2c fc ff ff 00 	movl   $0x0,-0x3d4(%rbp)
    d3e1:	00 00 00 
    d3e4:	c7 85 30 fc ff ff fa 	movl   $0xfffffffa,-0x3d0(%rbp)
    d3eb:	ff ff ff 
    d3ee:	c7 85 34 fc ff ff ff 	movl   $0xffffffff,-0x3cc(%rbp)
    d3f5:	ff ff ff 
    d3f8:	c7 85 38 fc ff ff 5d 	movl   $0x34e0b65d,-0x3c8(%rbp)
    d3ff:	b6 e0 34 
    d402:	c7 85 3c fc ff ff 07 	movl   $0x7,-0x3c4(%rbp)
    d409:	00 00 00 
    d40c:	c7 85 40 fc ff ff fa 	movl   $0xfffffffa,-0x3c0(%rbp)
    d413:	ff ff ff 
    d416:	c7 85 44 fc ff ff 5d 	movl   $0x34e0b65d,-0x3bc(%rbp)
    d41d:	b6 e0 34 
    d420:	c7 85 48 fc ff ff fa 	movl   $0xfffffffa,-0x3b8(%rbp)
    d427:	ff ff ff 
    d42a:	c7 85 4c fc ff ff 07 	movl   $0x7,-0x3b4(%rbp)
    d431:	00 00 00 
    d434:	c7 85 50 fc ff ff ff 	movl   $0xffffffff,-0x3b0(%rbp)
    d43b:	ff ff ff 
    d43e:	c7 85 54 fc ff ff 07 	movl   $0x7,-0x3ac(%rbp)
    d445:	00 00 00 
    d448:	c7 85 58 fc ff ff ff 	movl   $0xffffffff,-0x3a8(%rbp)
    d44f:	ff ff ff 
    d452:	c7 85 5c fc ff ff ff 	movl   $0xffffffff,-0x3a4(%rbp)
    d459:	ff ff ff 
    d45c:	c7 85 60 fc ff ff fa 	movl   $0xfffffffa,-0x3a0(%rbp)
    d463:	ff ff ff 
    d466:	c7 85 64 fc ff ff fa 	movl   $0xfffffffa,-0x39c(%rbp)
    d46d:	ff ff ff 
    d470:	c7 85 68 fc ff ff 00 	movl   $0x0,-0x398(%rbp)
    d477:	00 00 00 
    d47a:	c7 85 6c fc ff ff 07 	movl   $0x7,-0x394(%rbp)
    d481:	00 00 00 
    d484:	c7 85 70 fc ff ff 07 	movl   $0x7,-0x390(%rbp)
    d48b:	00 00 00 
    d48e:	c7 85 74 fc ff ff 00 	movl   $0x0,-0x38c(%rbp)
    d495:	00 00 00 
    d498:	c7 85 78 fc ff ff fa 	movl   $0xfffffffa,-0x388(%rbp)
    d49f:	ff ff ff 
    d4a2:	c7 85 7c fc ff ff ff 	movl   $0xffffffff,-0x384(%rbp)
    d4a9:	ff ff ff 
    d4ac:	c7 85 80 fc ff ff 5d 	movl   $0x34e0b65d,-0x380(%rbp)
    d4b3:	b6 e0 34 
    d4b6:	c7 85 84 fc ff ff 07 	movl   $0x7,-0x37c(%rbp)
    d4bd:	00 00 00 
    d4c0:	c7 85 88 fc ff ff c2 	movl   $0x9c5f8bc2,-0x378(%rbp)
    d4c7:	8b 5f 9c 
    d4ca:	c7 85 8c fc ff ff ff 	movl   $0xffffffff,-0x374(%rbp)
    d4d1:	ff ff ff 
    d4d4:	c7 85 90 fc ff ff c2 	movl   $0x9c5f8bc2,-0x370(%rbp)
    d4db:	8b 5f 9c 
    d4de:	c7 85 94 fc ff ff d6 	movl   $0x358026d6,-0x36c(%rbp)
    d4e5:	26 80 35 
    d4e8:	48 8d 05 0d be 00 00 	lea    0xbe0d(%rip),%rax        # 192fc <g_164+0x3c>
    d4ef:	48 89 85 28 f8 ff ff 	mov    %rax,-0x7d8(%rbp)
    d4f6:	48 8d 05 83 bb 00 00 	lea    0xbb83(%rip),%rax        # 19080 <g_88>
    d4fd:	48 89 85 30 f8 ff ff 	mov    %rax,-0x7d0(%rbp)
    d504:	c6 85 2f f7 ff ff 5e 	movb   $0x5e,-0x8d1(%rbp)
    d50b:	48 8d 05 76 bd 00 00 	lea    0xbd76(%rip),%rax        # 19288 <g_123+0x48>
    d512:	48 89 85 38 f8 ff ff 	mov    %rax,-0x7c8(%rbp)
    d519:	48 c7 85 10 fa ff ff 	movq   $0x0,-0x5f0(%rbp)
    d520:	00 00 00 00 
    d524:	48 c7 85 18 fa ff ff 	movq   $0x0,-0x5e8(%rbp)
    d52b:	00 00 00 00 
    d52f:	48 c7 85 20 fa ff ff 	movq   $0x0,-0x5e0(%rbp)
    d536:	00 00 00 00 
    d53a:	48 c7 85 28 fa ff ff 	movq   $0x0,-0x5d8(%rbp)
    d541:	00 00 00 00 
    d545:	c7 85 40 f7 ff ff 00 	movl   $0x0,-0x8c0(%rbp)
    d54c:	00 00 00 
    d54f:	48 8d 85 10 fe ff ff 	lea    -0x1f0(%rbp),%rax
    d556:	48 8d 15 c3 7f 00 00 	lea    0x7fc3(%rip),%rdx        # 15520 <g_2035+0x2478>
    d55d:	b9 36 00 00 00       	mov    $0x36,%ecx
    d562:	48 89 c7             	mov    %rax,%rdi
    d565:	48 89 d6             	mov    %rdx,%rsi
    d568:	f3 48 a5             	rep movsq %ds:(%rsi),%es:(%rdi)
    d56b:	c7 85 80 f7 ff ff fe 	movl   $0x9adc42fe,-0x880(%rbp)
    d572:	42 dc 9a 
    d575:	48 c7 85 40 f8 ff ff 	movq   $0x0,-0x7c0(%rbp)
    d57c:	00 00 00 00 
    d580:	c6 85 30 f7 ff ff 08 	movb   $0x8,-0x8d0(%rbp)
    d587:	66 c7 85 36 f7 ff ff 	movw   $0x7747,-0x8ca(%rbp)
    d58e:	47 77 
    d590:	66 c7 85 38 f7 ff ff 	movw   $0x86dd,-0x8c8(%rbp)
    d597:	dd 86 
    d599:	c7 85 50 f7 ff ff c2 	movl   $0x154ae7c2,-0x8b0(%rbp)
    d5a0:	e7 4a 15 
    d5a3:	48 8d 05 76 f7 00 00 	lea    0xf776(%rip),%rax        # 1cd20 <g_506>
    d5aa:	48 89 85 48 f8 ff ff 	mov    %rax,-0x7b8(%rbp)
    d5b1:	c7 85 54 f7 ff ff 00 	movl   $0x0,-0x8ac(%rbp)
    d5b8:	00 00 00 
    d5bb:	eb 14                	jmp    d5d1 <func_63+0x358>
    d5bd:	8b 85 54 f7 ff ff    	mov    -0x8ac(%rbp),%eax
    d5c3:	48 98                	cltq   
    d5c5:	c6 44 05 c0 72       	movb   $0x72,-0x40(%rbp,%rax,1)
    d5ca:	83 85 54 f7 ff ff 01 	addl   $0x1,-0x8ac(%rbp)
    d5d1:	83 bd 54 f7 ff ff 00 	cmpl   $0x0,-0x8ac(%rbp)
    d5d8:	7e e3                	jle    d5bd <func_63+0x344>
    d5da:	48 8b 85 18 f7 ff ff 	mov    -0x8e8(%rbp),%rax
    d5e1:	8b 00                	mov    (%rax),%eax
    d5e3:	85 c0                	test   %eax,%eax
    d5e5:	0f 84 b6 0a 00 00    	je     e0a1 <func_63+0xe28>
    d5eb:	48 c7 85 50 f9 ff ff 	movq   $0x0,-0x6b0(%rbp)
    d5f2:	00 00 00 00 
    d5f6:	48 8d 05 e3 e3 00 00 	lea    0xe3e3(%rip),%rax        # 1b9e0 <g_39>
    d5fd:	48 89 85 58 f9 ff ff 	mov    %rax,-0x6a8(%rbp)
    d604:	48 8d 05 7f ba 00 00 	lea    0xba7f(%rip),%rax        # 1908a <g_98>
    d60b:	48 89 85 60 f9 ff ff 	mov    %rax,-0x6a0(%rbp)
    d612:	48 8d 05 96 ba 00 00 	lea    0xba96(%rip),%rax        # 190af <g_105+0xf>
    d619:	48 89 85 68 f9 ff ff 	mov    %rax,-0x698(%rbp)
    d620:	48 8d 05 a7 ba 00 00 	lea    0xbaa7(%rip),%rax        # 190ce <g_107>
    d627:	48 89 85 70 f9 ff ff 	mov    %rax,-0x690(%rbp)
    d62e:	48 8d 05 d3 f6 00 00 	lea    0xf6d3(%rip),%rax        # 1cd08 <g_116>
    d635:	48 89 85 78 f9 ff ff 	mov    %rax,-0x688(%rbp)
    d63c:	48 c7 85 80 f9 ff ff 	movq   $0x0,-0x680(%rbp)
    d643:	00 00 00 00 
    d647:	48 8d 05 72 bb 00 00 	lea    0xbb72(%rip),%rax        # 191c0 <g_122>
    d64e:	48 89 85 88 f9 ff ff 	mov    %rax,-0x678(%rbp)
    d655:	c7 85 50 fb ff ff b5 	movl   $0xe4350b5,-0x4b0(%rbp)
    d65c:	50 43 0e 
    d65f:	c7 85 54 fb ff ff 10 	movl   $0x9995dd10,-0x4ac(%rbp)
    d666:	dd 95 99 
    d669:	c7 85 58 fb ff ff b5 	movl   $0xe4350b5,-0x4a8(%rbp)
    d670:	50 43 0e 
    d673:	c7 85 5c fb ff ff b5 	movl   $0xe4350b5,-0x4a4(%rbp)
    d67a:	50 43 0e 
    d67d:	c7 85 60 fb ff ff 10 	movl   $0x9995dd10,-0x4a0(%rbp)
    d684:	dd 95 99 
    d687:	c7 85 64 fb ff ff b5 	movl   $0xe4350b5,-0x49c(%rbp)
    d68e:	50 43 0e 
    d691:	c7 85 68 fb ff ff b5 	movl   $0xe4350b5,-0x498(%rbp)
    d698:	50 43 0e 
    d69b:	c7 85 6c fb ff ff 10 	movl   $0x9995dd10,-0x494(%rbp)
    d6a2:	dd 95 99 
    d6a5:	c7 85 70 fb ff ff b5 	movl   $0xe4350b5,-0x490(%rbp)
    d6ac:	50 43 0e 
    d6af:	48 8b 85 58 f9 ff ff 	mov    -0x6a8(%rbp),%rax
    d6b6:	48 8b 95 20 f8 ff ff 	mov    -0x7e0(%rbp),%rdx
    d6bd:	48 89 10             	mov    %rdx,(%rax)
    d6c0:	0f b7 85 14 f7 ff ff 	movzwl -0x8ec(%rbp),%eax
    d6c7:	0f b7 d8             	movzwl %ax,%ebx
    d6ca:	48 8b 05 af b9 00 00 	mov    0xb9af(%rip),%rax        # 19080 <g_88>
    d6d1:	41 89 c5             	mov    %eax,%r13d
    d6d4:	0f b7 05 1b ba 00 00 	movzwl 0xba1b(%rip),%eax        # 190f6 <g_119+0x16>
    d6db:	4c 0f bf e0          	movswq %ax,%r12
    d6df:	0f b7 85 14 f7 ff ff 	movzwl -0x8ec(%rbp),%eax
    d6e6:	0f bf d0             	movswl %ax,%edx
    d6e9:	48 8b 0d 18 f6 00 00 	mov    0xf618(%rip),%rcx        # 1cd08 <g_116>
    d6f0:	48 8b 85 78 f9 ff ff 	mov    -0x688(%rbp),%rax
    d6f7:	48 89 08             	mov    %rcx,(%rax)
    d6fa:	48 8b 85 78 f9 ff ff 	mov    -0x688(%rbp),%rax
    d701:	48 8b 08             	mov    (%rax),%rcx
    d704:	48 8b 85 08 f8 ff ff 	mov    -0x7f8(%rbp),%rax
    d70b:	48 39 c1             	cmp    %rax,%rcx
    d70e:	0f 95 c0             	setne  %al
    d711:	0f b6 c8             	movzbl %al,%ecx
    d714:	48 8b 85 20 f8 ff ff 	mov    -0x7e0(%rbp),%rax
    d71b:	8b 00                	mov    (%rax),%eax
    d71d:	09 c8                	or     %ecx,%eax
    d71f:	98                   	cwtl   
    d720:	89 d6                	mov    %edx,%esi
    d722:	89 c7                	mov    %eax,%edi
    d724:	e8 8a 9c ff ff       	callq  73b3 <safe_add_func_int16_t_s_s>
    d729:	48 8b 85 20 f8 ff ff 	mov    -0x7e0(%rbp),%rax
    d730:	8b 00                	mov    (%rax),%eax
    d732:	48 98                	cltq   
    d734:	4c 89 e6             	mov    %r12,%rsi
    d737:	48 89 c7             	mov    %rax,%rdi
    d73a:	e8 41 a9 ff ff       	callq  8080 <safe_mod_func_uint64_t_u_u>
    d73f:	48 8b 15 3a b9 00 00 	mov    0xb93a(%rip),%rdx        # 19080 <g_88>
    d746:	48 39 d0             	cmp    %rdx,%rax
    d749:	0f 97 c2             	seta   %dl
    d74c:	48 8b 85 08 f8 ff ff 	mov    -0x7f8(%rbp),%rax
    d753:	0f b6 d2             	movzbl %dl,%edx
    d756:	66 89 10             	mov    %dx,(%rax)
    d759:	0f b7 00             	movzwl (%rax),%eax
    d75c:	98                   	cwtl   
    d75d:	44 89 ee             	mov    %r13d,%esi
    d760:	89 c7                	mov    %eax,%edi
    d762:	e8 fc 9d ff ff       	callq  7563 <safe_rshift_func_int16_t_s_u>
    d767:	48 0f bf c0          	movswq %ax,%rax
    d76b:	48 89 de             	mov    %rbx,%rsi
    d76e:	48 89 c7             	mov    %rax,%rdi
    d771:	e8 d5 a8 ff ff       	callq  804b <safe_sub_func_uint64_t_u_u>
    d776:	41 be 08 00 00 00    	mov    $0x8,%r14d
    d77c:	48 8b 05 f5 b8 00 00 	mov    0xb8f5(%rip),%rax        # 19078 <g_78>
    d783:	0f b7 c0             	movzwl %ax,%eax
    d786:	be 01 00 00 00       	mov    $0x1,%esi
    d78b:	89 c7                	mov    %eax,%edi
    d78d:	e8 b6 a6 ff ff       	callq  7e48 <safe_rshift_func_uint16_t_u_s>
    d792:	0f b7 c8             	movzwl %ax,%ecx
    d795:	0f b6 15 ba b8 00 00 	movzbl 0xb8ba(%rip),%edx        # 19056 <g_8+0x16>
    d79c:	48 8b 85 60 f9 ff ff 	mov    -0x6a0(%rbp),%rax
    d7a3:	88 10                	mov    %dl,(%rax)
    d7a5:	48 8b 85 60 f9 ff ff 	mov    -0x6a0(%rbp),%rax
    d7ac:	0f b6 00             	movzbl (%rax),%eax
    d7af:	0f be c0             	movsbl %al,%eax
    d7b2:	09 c1                	or     %eax,%ecx
    d7b4:	41 89 cc             	mov    %ecx,%r12d
    d7b7:	8b 05 b7 b8 00 00    	mov    0xb8b7(%rip),%eax        # 19074 <g_40>
    d7bd:	85 c0                	test   %eax,%eax
    d7bf:	75 0b                	jne    d7cc <func_63+0x553>
    d7c1:	0f b6 05 89 b8 00 00 	movzbl 0xb889(%rip),%eax        # 19051 <g_8+0x11>
    d7c8:	84 c0                	test   %al,%al
    d7ca:	74 08                	je     d7d4 <func_63+0x55b>
    d7cc:	41 bd 01 00 00 00    	mov    $0x1,%r13d
    d7d2:	eb 06                	jmp    d7da <func_63+0x561>
    d7d4:	41 bd 00 00 00 00    	mov    $0x0,%r13d
    d7da:	48 8b 85 20 f8 ff ff 	mov    -0x7e0(%rbp),%rax
    d7e1:	8b 00                	mov    (%rax),%eax
    d7e3:	89 c2                	mov    %eax,%edx
    d7e5:	48 8b 85 70 f9 ff ff 	mov    -0x690(%rbp),%rax
    d7ec:	66 89 10             	mov    %dx,(%rax)
    d7ef:	48 8b 85 70 f9 ff ff 	mov    -0x690(%rbp),%rax
    d7f6:	0f b7 00             	movzwl (%rax),%eax
    d7f9:	0f b7 d8             	movzwl %ax,%ebx
    d7fc:	48 8b 85 58 f9 ff ff 	mov    -0x6a8(%rbp),%rax
    d803:	48 8b 00             	mov    (%rax),%rax
    d806:	8b 00                	mov    (%rax),%eax
    d808:	89 c2                	mov    %eax,%edx
    d80a:	48 8b 85 68 f9 ff ff 	mov    -0x698(%rbp),%rax
    d811:	88 10                	mov    %dl,(%rax)
    d813:	48 8b 85 68 f9 ff ff 	mov    -0x698(%rbp),%rax
    d81a:	0f b6 00             	movzbl (%rax),%eax
    d81d:	0f b6 c0             	movzbl %al,%eax
    d820:	89 c6                	mov    %eax,%esi
    d822:	bf 08 00 00 00       	mov    $0x8,%edi
    d827:	e8 82 a3 ff ff       	callq  7bae <safe_mod_func_uint8_t_u_u>
    d82c:	0f b6 c0             	movzbl %al,%eax
    d82f:	89 de                	mov    %ebx,%esi
    d831:	89 c7                	mov    %eax,%edi
    d833:	e8 05 a5 ff ff       	callq  7d3d <safe_mul_func_uint16_t_u_u>
    d838:	0f b7 c0             	movzwl %ax,%eax
    d83b:	41 39 c5             	cmp    %eax,%r13d
    d83e:	0f 9e c0             	setle  %al
    d841:	0f b6 c0             	movzbl %al,%eax
    d844:	41 39 c4             	cmp    %eax,%r12d
    d847:	0f 9e c0             	setle  %al
    d84a:	0f b6 d0             	movzbl %al,%edx
    d84d:	48 8b 85 88 f9 ff ff 	mov    -0x678(%rbp),%rax
    d854:	8b 00                	mov    (%rax),%eax
    d856:	44 89 f1             	mov    %r14d,%ecx
    d859:	31 c1                	xor    %eax,%ecx
    d85b:	48 8b 85 88 f9 ff ff 	mov    -0x678(%rbp),%rax
    d862:	89 08                	mov    %ecx,(%rax)
    d864:	48 8b 85 88 f9 ff ff 	mov    -0x678(%rbp),%rax
    d86b:	8b 00                	mov    (%rax),%eax
    d86d:	39 c2                	cmp    %eax,%edx
    d86f:	0f 84 c5 02 00 00    	je     db3a <func_63+0x8c1>
    d875:	48 c7 85 10 f8 ff ff 	movq   $0x0,-0x7f0(%rbp)
    d87c:	00 00 00 00 
    d880:	c7 85 fc f7 ff ff ff 	movl   $0xeed364ff,-0x804(%rbp)
    d887:	64 d3 ee 
    d88a:	48 8d 05 1e b8 00 00 	lea    0xb81e(%rip),%rax        # 190af <g_105+0xf>
    d891:	48 89 85 d0 f9 ff ff 	mov    %rax,-0x630(%rbp)
    d898:	48 8b 0d 51 e1 00 00 	mov    0xe151(%rip),%rcx        # 1b9f0 <g_124>
    d89f:	48 8b 05 e2 b9 00 00 	mov    0xb9e2(%rip),%rax        # 19288 <g_123+0x48>
    d8a6:	48 8b 15 e3 b9 00 00 	mov    0xb9e3(%rip),%rdx        # 19290 <g_123+0x50>
    d8ad:	48 89 01             	mov    %rax,(%rcx)
    d8b0:	48 89 51 08          	mov    %rdx,0x8(%rcx)
    d8b4:	48 8b 05 dd b9 00 00 	mov    0xb9dd(%rip),%rax        # 19298 <g_123+0x58>
    d8bb:	48 89 41 10          	mov    %rax,0x10(%rcx)
    d8bf:	48 c7 05 b6 b7 00 00 	movq   $0x0,0xb7b6(%rip)        # 19080 <g_88>
    d8c6:	00 00 00 00 
    d8ca:	e9 f1 01 00 00       	jmpq   dac0 <func_63+0x847>
    d8cf:	48 8d 05 ea b8 00 00 	lea    0xb8ea(%rip),%rax        # 191c0 <g_122>
    d8d6:	48 89 85 d8 f9 ff ff 	mov    %rax,-0x628(%rbp)
    d8dd:	c7 85 00 f8 ff ff e8 	movl   $0x53fea8e8,-0x800(%rbp)
    d8e4:	a8 fe 53 
    d8e7:	c7 85 04 f8 ff ff fc 	movl   $0xfffffffc,-0x7fc(%rbp)
    d8ee:	ff ff ff 
    d8f1:	48 8d 85 50 fb ff ff 	lea    -0x4b0(%rbp),%rax
    d8f8:	48 83 c0 04          	add    $0x4,%rax
    d8fc:	48 89 85 e0 f9 ff ff 	mov    %rax,-0x620(%rbp)
    d903:	48 8b 95 10 f8 ff ff 	mov    -0x7f0(%rbp),%rdx
    d90a:	48 8b 85 78 f9 ff ff 	mov    -0x688(%rbp),%rax
    d911:	48 89 10             	mov    %rdx,(%rax)
    d914:	48 8b 85 78 f9 ff ff 	mov    -0x688(%rbp),%rax
    d91b:	48 8b 00             	mov    (%rax),%rax
    d91e:	48 85 c0             	test   %rax,%rax
    d921:	48 8b 15 f0 e0 00 00 	mov    0xe0f0(%rip),%rdx        # 1ba18 <g_129+0x18>
    d928:	48 8d 85 10 f8 ff ff 	lea    -0x7f0(%rbp),%rax
    d92f:	48 39 c2             	cmp    %rax,%rdx
    d932:	75 60                	jne    d994 <func_63+0x71b>
    d934:	48 8b 05 a5 e0 00 00 	mov    0xe0a5(%rip),%rax        # 1b9e0 <g_39>
    d93b:	8b 00                	mov    (%rax),%eax
    d93d:	89 c1                	mov    %eax,%ecx
    d93f:	8b 05 7b b8 00 00    	mov    0xb87b(%rip),%eax        # 191c0 <g_122>
    d945:	89 c0                	mov    %eax,%eax
    d947:	48 83 c8 f8          	or     $0xfffffffffffffff8,%rax
    d94b:	48 89 c2             	mov    %rax,%rdx
    d94e:	8b 85 fc f7 ff ff    	mov    -0x804(%rbp),%eax
    d954:	48 98                	cltq   
    d956:	48 39 c2             	cmp    %rax,%rdx
    d959:	0f 9f c0             	setg   %al
    d95c:	0f b6 c0             	movzbl %al,%eax
    d95f:	89 ce                	mov    %ecx,%esi
    d961:	89 c7                	mov    %eax,%edi
    d963:	e8 bd a5 ff ff       	callq  7f25 <safe_div_func_uint32_t_u_u>
    d968:	3d a3 7a 00 00       	cmp    $0x7aa3,%eax
    d96d:	76 14                	jbe    d983 <func_63+0x70a>
    d96f:	48 8b 85 20 f8 ff ff 	mov    -0x7e0(%rbp),%rax
    d976:	8b 00                	mov    (%rax),%eax
    d978:	85 c0                	test   %eax,%eax
    d97a:	74 07                	je     d983 <func_63+0x70a>
    d97c:	ba 01 00 00 00       	mov    $0x1,%edx
    d981:	eb 05                	jmp    d988 <func_63+0x70f>
    d983:	ba 00 00 00 00       	mov    $0x0,%edx
    d988:	0f b7 85 14 f7 ff ff 	movzwl -0x8ec(%rbp),%eax
    d98f:	0f b7 c0             	movzwl %ax,%eax
    d992:	39 c2                	cmp    %eax,%edx
    d994:	83 bd 00 f8 ff ff 00 	cmpl   $0x0,-0x800(%rbp)
    d99b:	74 11                	je     d9ae <func_63+0x735>
    d99d:	8b 05 e5 b8 00 00    	mov    0xb8e5(%rip),%eax        # 19288 <g_123+0x48>
    d9a3:	85 c0                	test   %eax,%eax
    d9a5:	74 07                	je     d9ae <func_63+0x735>
    d9a7:	b8 01 00 00 00       	mov    $0x1,%eax
    d9ac:	eb 05                	jmp    d9b3 <func_63+0x73a>
    d9ae:	b8 00 00 00 00       	mov    $0x0,%eax
    d9b3:	89 c2                	mov    %eax,%edx
    d9b5:	8b 05 55 b8 00 00    	mov    0xb855(%rip),%eax        # 19210 <g_122+0x50>
    d9bb:	39 c2                	cmp    %eax,%edx
    d9bd:	0f 92 c2             	setb   %dl
    d9c0:	48 8b 85 58 f9 ff ff 	mov    -0x6a8(%rbp),%rax
    d9c7:	48 8b 00             	mov    (%rax),%rax
    d9ca:	0f b6 d2             	movzbl %dl,%edx
    d9cd:	89 10                	mov    %edx,(%rax)
    d9cf:	8b 00                	mov    (%rax),%eax
    d9d1:	89 85 54 fb ff ff    	mov    %eax,-0x4ac(%rbp)
    d9d7:	8b 85 54 fb ff ff    	mov    -0x4ac(%rbp),%eax
    d9dd:	09 85 04 f8 ff ff    	or     %eax,-0x7fc(%rbp)
    d9e3:	48 8b 05 f6 df 00 00 	mov    0xdff6(%rip),%rax        # 1b9e0 <g_39>
    d9ea:	8b 00                	mov    (%rax),%eax
    d9ec:	85 c0                	test   %eax,%eax
    d9ee:	0f 85 df 00 00 00    	jne    dad3 <func_63+0x85a>
    d9f4:	48 8b 05 f5 df 00 00 	mov    0xdff5(%rip),%rax        # 1b9f0 <g_124>
    d9fb:	48 8b 15 8e b8 00 00 	mov    0xb88e(%rip),%rdx        # 19290 <g_123+0x50>
    da02:	0f b7 05 83 b8 00 00 	movzwl 0xb883(%rip),%eax        # 1928c <g_123+0x4c>
    da09:	66 85 c0             	test   %ax,%ax
    da0c:	74 39                	je     da47 <func_63+0x7ce>
    da0e:	48 8b 85 d0 f9 ff ff 	mov    -0x630(%rbp),%rax
    da15:	48 3b 85 68 f9 ff ff 	cmp    -0x698(%rbp),%rax
    da1c:	0f 95 c0             	setne  %al
    da1f:	0f b6 c8             	movzbl %al,%ecx
    da22:	0f b7 85 14 f7 ff ff 	movzwl -0x8ec(%rbp),%eax
    da29:	0f b7 c0             	movzwl %ax,%eax
    da2c:	39 c1                	cmp    %eax,%ecx
    da2e:	0f 94 c0             	sete   %al
    da31:	0f b6 c8             	movzbl %al,%ecx
    da34:	0f b7 05 51 b8 00 00 	movzwl 0xb851(%rip),%eax        # 1928c <g_123+0x4c>
    da3b:	98                   	cwtl   
    da3c:	39 c1                	cmp    %eax,%ecx
    da3e:	7f 07                	jg     da47 <func_63+0x7ce>
    da40:	b8 01 00 00 00       	mov    $0x1,%eax
    da45:	eb 05                	jmp    da4c <func_63+0x7d3>
    da47:	b8 00 00 00 00       	mov    $0x0,%eax
    da4c:	48 98                	cltq   
    da4e:	48 09 d0             	or     %rdx,%rax
    da51:	48 89 05 38 b8 00 00 	mov    %rax,0xb838(%rip)        # 19290 <g_123+0x50>
    da58:	48 8b 05 31 b8 00 00 	mov    0xb831(%rip),%rax        # 19290 <g_123+0x50>
    da5f:	48 8b 15 1a b6 00 00 	mov    0xb61a(%rip),%rdx        # 19080 <g_88>
    da66:	48 09 d0             	or     %rdx,%rax
    da69:	48 83 f8 f8          	cmp    $0xfffffffffffffff8,%rax
    da6d:	0f 96 c0             	setbe  %al
    da70:	0f b6 c0             	movzbl %al,%eax
    da73:	be 01 00 00 00       	mov    $0x1,%esi
    da78:	89 c7                	mov    %eax,%edi
    da7a:	e8 80 a2 ff ff       	callq  7cff <safe_add_func_uint16_t_u_u>
    da7f:	0f b7 c0             	movzwl %ax,%eax
    da82:	48 c7 c6 ff ff ff ff 	mov    $0xffffffffffffffff,%rsi
    da89:	48 89 c7             	mov    %rax,%rdi
    da8c:	e8 ef a5 ff ff       	callq  8080 <safe_mod_func_uint64_t_u_u>
    da91:	48 8b 05 48 df 00 00 	mov    0xdf48(%rip),%rax        # 1b9e0 <g_39>
    da98:	8b 10                	mov    (%rax),%edx
    da9a:	48 8b 85 e0 f9 ff ff 	mov    -0x620(%rbp),%rax
    daa1:	8b 00                	mov    (%rax),%eax
    daa3:	31 c2                	xor    %eax,%edx
    daa5:	48 8b 85 e0 f9 ff ff 	mov    -0x620(%rbp),%rax
    daac:	89 10                	mov    %edx,(%rax)
    daae:	48 8b 05 cb b5 00 00 	mov    0xb5cb(%rip),%rax        # 19080 <g_88>
    dab5:	48 83 e8 01          	sub    $0x1,%rax
    dab9:	48 89 05 c0 b5 00 00 	mov    %rax,0xb5c0(%rip)        # 19080 <g_88>
    dac0:	48 8b 05 b9 b5 00 00 	mov    0xb5b9(%rip),%rax        # 19080 <g_88>
    dac7:	48 83 f8 ea          	cmp    $0xffffffffffffffea,%rax
    dacb:	0f 85 fe fd ff ff    	jne    d8cf <func_63+0x656>
    dad1:	eb 01                	jmp    dad4 <func_63+0x85b>
    dad3:	90                   	nop
    dad4:	48 c7 05 a1 b5 00 00 	movq   $0x0,0xb5a1(%rip)        # 19080 <g_88>
    dadb:	00 00 00 00 
    dadf:	eb 47                	jmp    db28 <func_63+0x8af>
    dae1:	48 8d 05 b8 b7 00 00 	lea    0xb7b8(%rip),%rax        # 192a0 <g_145>
    dae8:	48 89 85 e8 f9 ff ff 	mov    %rax,-0x618(%rbp)
    daef:	48 8b 8d e8 f9 ff ff 	mov    -0x618(%rbp),%rcx
    daf6:	48 8b 05 a3 b7 00 00 	mov    0xb7a3(%rip),%rax        # 192a0 <g_145>
    dafd:	48 8b 15 a4 b7 00 00 	mov    0xb7a4(%rip),%rdx        # 192a8 <g_145+0x8>
    db04:	48 89 01             	mov    %rax,(%rcx)
    db07:	48 89 51 08          	mov    %rdx,0x8(%rcx)
    db0b:	48 8b 05 9e b7 00 00 	mov    0xb79e(%rip),%rax        # 192b0 <g_145+0x10>
    db12:	48 89 41 10          	mov    %rax,0x10(%rcx)
    db16:	48 8b 05 63 b5 00 00 	mov    0xb563(%rip),%rax        # 19080 <g_88>
    db1d:	48 83 c0 01          	add    $0x1,%rax
    db21:	48 89 05 58 b5 00 00 	mov    %rax,0xb558(%rip)        # 19080 <g_88>
    db28:	48 8b 05 51 b5 00 00 	mov    0xb551(%rip),%rax        # 19080 <g_88>
    db2f:	48 83 f8 05          	cmp    $0x5,%rax
    db33:	74 ac                	je     dae1 <func_63+0x868>
    db35:	e9 9d 25 00 00       	jmpq   100d7 <func_63+0x2e5e>
    db3a:	c6 85 2e f7 ff ff 95 	movb   $0x95,-0x8d2(%rbp)
    db41:	c7 85 f4 f7 ff ff 3a 	movl   $0xbd2af93a,-0x80c(%rbp)
    db48:	f9 2a bd 
    db4b:	66 c7 05 50 b7 00 00 	movw   $0xffe5,0xb750(%rip)        # 192a4 <g_145+0x4>
    db52:	e5 ff 
    db54:	e9 d8 01 00 00       	jmpq   dd31 <func_63+0xab8>
    db59:	c7 85 f8 f7 ff ff 3b 	movl   $0x12706a3b,-0x808(%rbp)
    db60:	6a 70 12 
    db63:	48 c7 85 b8 f9 ff ff 	movq   $0x0,-0x648(%rbp)
    db6a:	00 00 00 00 
    db6e:	48 8d 05 87 b7 00 00 	lea    0xb787(%rip),%rax        # 192fc <g_164+0x3c>
    db75:	48 89 85 c0 f9 ff ff 	mov    %rax,-0x640(%rbp)
    db7c:	48 8d 05 b5 b7 00 00 	lea    0xb7b5(%rip),%rax        # 19338 <g_170>
    db83:	48 89 85 c8 f9 ff ff 	mov    %rax,-0x638(%rbp)
    db8a:	48 8b 05 9f de 00 00 	mov    0xde9f(%rip),%rax        # 1ba30 <g_149>
    db91:	48 8b 95 18 f7 ff ff 	mov    -0x8e8(%rbp),%rdx
    db98:	48 89 10             	mov    %rdx,(%rax)
    db9b:	48 8b 05 8e de 00 00 	mov    0xde8e(%rip),%rax        # 1ba30 <g_149>
    dba2:	48 8b 00             	mov    (%rax),%rax
    dba5:	44 8b 30             	mov    (%rax),%r14d
    dba8:	0f b7 85 14 f7 ff ff 	movzwl -0x8ec(%rbp),%eax
    dbaf:	0f b7 d8             	movzwl %ax,%ebx
    dbb2:	0f b7 05 cf b4 00 00 	movzwl 0xb4cf(%rip),%eax        # 19088 <g_91>
    dbb9:	44 0f b7 e0          	movzwl %ax,%r12d
    dbbd:	0f b7 05 c4 b4 00 00 	movzwl 0xb4c4(%rip),%eax        # 19088 <g_91>
    dbc4:	44 0f be e8          	movsbl %al,%r13d
    dbc8:	48 8b 85 c0 f9 ff ff 	mov    -0x640(%rbp),%rax
    dbcf:	0f b6 00             	movzbl (%rax),%eax
    dbd2:	8d 50 01             	lea    0x1(%rax),%edx
    dbd5:	48 8b 85 c0 f9 ff ff 	mov    -0x640(%rbp),%rax
    dbdc:	88 10                	mov    %dl,(%rax)
    dbde:	0f b7 05 a9 b6 00 00 	movzwl 0xb6a9(%rip),%eax        # 1928e <g_123+0x4e>
    dbe5:	98                   	cwtl   
    dbe6:	39 85 f8 f7 ff ff    	cmp    %eax,-0x808(%rbp)
    dbec:	0f 9c c0             	setl   %al
    dbef:	0f b6 d0             	movzbl %al,%edx
    dbf2:	0f b7 85 14 f7 ff ff 	movzwl -0x8ec(%rbp),%eax
    dbf9:	0f b7 c0             	movzwl %ax,%eax
    dbfc:	39 c2                	cmp    %eax,%edx
    dbfe:	0f 9e c2             	setle  %dl
    dc01:	48 8b 85 08 f8 ff ff 	mov    -0x7f8(%rbp),%rax
    dc08:	0f b6 d2             	movzbl %dl,%edx
    dc0b:	66 89 10             	mov    %dx,(%rax)
    dc0e:	0f b7 00             	movzwl (%rax),%eax
    dc11:	66 85 c0             	test   %ax,%ax
    dc14:	75 0c                	jne    dc22 <func_63+0x9a9>
    dc16:	0f b7 05 83 b5 00 00 	movzwl 0xb583(%rip),%eax        # 191a0 <g_119+0xc0>
    dc1d:	66 85 c0             	test   %ax,%ax
    dc20:	74 07                	je     dc29 <func_63+0x9b0>
    dc22:	b8 01 00 00 00       	mov    $0x1,%eax
    dc27:	eb 05                	jmp    dc2e <func_63+0x9b5>
    dc29:	b8 00 00 00 00       	mov    $0x0,%eax
    dc2e:	0f bf d0             	movswl %ax,%edx
    dc31:	0f b7 85 14 f7 ff ff 	movzwl -0x8ec(%rbp),%eax
    dc38:	98                   	cwtl   
    dc39:	89 d6                	mov    %edx,%esi
    dc3b:	89 c7                	mov    %eax,%edi
    dc3d:	e8 71 97 ff ff       	callq  73b3 <safe_add_func_int16_t_s_s>
    dc42:	48 8b 85 c8 f9 ff ff 	mov    -0x638(%rbp),%rax
    dc49:	c6 00 00             	movb   $0x0,(%rax)
    dc4c:	48 8b 85 20 f8 ff ff 	mov    -0x7e0(%rbp),%rax
    dc53:	8b 00                	mov    (%rax),%eax
    dc55:	89 c2                	mov    %eax,%edx
    dc57:	0f b6 05 f0 b3 00 00 	movzbl 0xb3f0(%rip),%eax        # 1904e <g_8+0xe>
    dc5e:	0f be c0             	movsbl %al,%eax
    dc61:	39 85 f4 f7 ff ff    	cmp    %eax,-0x80c(%rbp)
    dc67:	0f 9e c0             	setle  %al
    dc6a:	31 d0                	xor    %edx,%eax
    dc6c:	0f be c0             	movsbl %al,%eax
    dc6f:	44 89 ee             	mov    %r13d,%esi
    dc72:	89 c7                	mov    %eax,%edi
    dc74:	e8 5b 95 ff ff       	callq  71d4 <safe_add_func_int8_t_s_s>
    dc79:	84 c0                	test   %al,%al
    dc7b:	74 07                	je     dc84 <func_63+0xa0b>
    dc7d:	b8 01 00 00 00       	mov    $0x1,%eax
    dc82:	eb 05                	jmp    dc89 <func_63+0xa10>
    dc84:	b8 00 00 00 00       	mov    $0x0,%eax
    dc89:	0f b7 c0             	movzwl %ax,%eax
    dc8c:	be 00 00 00 00       	mov    $0x0,%esi
    dc91:	89 c7                	mov    %eax,%edi
    dc93:	e8 26 a1 ff ff       	callq  7dbe <safe_lshift_func_uint16_t_u_s>
    dc98:	0f b7 c0             	movzwl %ax,%eax
    dc9b:	44 89 e6             	mov    %r12d,%esi
    dc9e:	89 c7                	mov    %eax,%edi
    dca0:	e8 98 a0 ff ff       	callq  7d3d <safe_mul_func_uint16_t_u_u>
    dca5:	0f b7 d0             	movzwl %ax,%edx
    dca8:	48 8b 85 88 f9 ff ff 	mov    -0x678(%rbp),%rax
    dcaf:	89 10                	mov    %edx,(%rax)
    dcb1:	48 8b 85 88 f9 ff ff 	mov    -0x678(%rbp),%rax
    dcb8:	8b 10                	mov    (%rax),%edx
    dcba:	48 8b 85 58 f9 ff ff 	mov    -0x6a8(%rbp),%rax
    dcc1:	48 8b 00             	mov    (%rax),%rax
    dcc4:	8b 00                	mov    (%rax),%eax
    dcc6:	31 c2                	xor    %eax,%edx
    dcc8:	8b 85 f8 f7 ff ff    	mov    -0x808(%rbp),%eax
    dcce:	89 d6                	mov    %edx,%esi
    dcd0:	89 c7                	mov    %eax,%edi
    dcd2:	e8 26 a2 ff ff       	callq  7efd <safe_mod_func_uint32_t_u_u>
    dcd7:	35 a2 41 00 00       	xor    $0x41a2,%eax
    dcdc:	89 de                	mov    %ebx,%esi
    dcde:	89 c7                	mov    %eax,%edi
    dce0:	e8 d1 98 ff ff       	callq  75b6 <safe_add_func_int32_t_s_s>
    dce5:	44 89 f2             	mov    %r14d,%edx
    dce8:	09 c2                	or     %eax,%edx
    dcea:	48 8b 85 20 f8 ff ff 	mov    -0x7e0(%rbp),%rax
    dcf1:	89 10                	mov    %edx,(%rax)
    dcf3:	c6 85 2e f7 ff ff f0 	movb   $0xf0,-0x8d2(%rbp)
    dcfa:	80 bd 2e f7 ff ff 13 	cmpb   $0x13,-0x8d2(%rbp)
    dd01:	7e 13                	jle    dd16 <func_63+0xa9d>
    dd03:	48 8b 85 58 f9 ff ff 	mov    -0x6a8(%rbp),%rax
    dd0a:	48 8b 00             	mov    (%rax),%rax
    dd0d:	8b 00                	mov    (%rax),%eax
    dd0f:	48 98                	cltq   
    dd11:	e9 cb 23 00 00       	jmpq   100e1 <func_63+0x2e68>
    dd16:	0f b7 05 87 b5 00 00 	movzwl 0xb587(%rip),%eax        # 192a4 <g_145+0x4>
    dd1d:	98                   	cwtl   
    dd1e:	be 07 00 00 00       	mov    $0x7,%esi
    dd23:	89 c7                	mov    %eax,%edi
    dd25:	e8 db 98 ff ff       	callq  7605 <safe_sub_func_int32_t_s_s>
    dd2a:	66 89 05 73 b5 00 00 	mov    %ax,0xb573(%rip)        # 192a4 <g_145+0x4>
    dd31:	0f b7 05 6c b5 00 00 	movzwl 0xb56c(%rip),%eax        # 192a4 <g_145+0x4>
    dd38:	66 83 f8 e4          	cmp    $0xffe4,%ax
    dd3c:	0f 8c 17 fe ff ff    	jl     db59 <func_63+0x8e0>
    dd42:	66 c7 05 3d b3 00 00 	movw   $0x0,0xb33d(%rip)        # 19088 <g_91>
    dd49:	00 00 
    dd4b:	e9 3b 03 00 00       	jmpq   e08b <func_63+0xe12>
    dd50:	48 b8 a2 54 62 1b 1c 	movabs $0xebb8701c1b6254a2,%rax
    dd57:	70 b8 eb 
    dd5a:	48 89 85 18 f8 ff ff 	mov    %rax,-0x7e8(%rbp)
    dd61:	c7 05 09 b3 00 00 00 	movl   $0x0,0xb309(%rip)        # 19074 <g_40>
    dd68:	00 00 00 
    dd6b:	e9 fb 02 00 00       	jmpq   e06b <func_63+0xdf2>
    dd70:	48 83 85 18 f8 ff ff 	addq   $0x1,-0x7e8(%rbp)
    dd77:	01 
    dd78:	48 c7 05 fd b2 00 00 	movq   $0x3,0xb2fd(%rip)        # 19080 <g_88>
    dd7f:	03 00 00 00 
    dd83:	e9 c1 02 00 00       	jmpq   e049 <func_63+0xdd0>
    dd88:	48 b8 b1 99 68 1a da 	movabs $0x4fa59ada1a6899b1,%rax
    dd8f:	9a a5 4f 
    dd92:	48 89 85 90 f9 ff ff 	mov    %rax,-0x670(%rbp)
    dd99:	48 c7 85 98 f9 ff ff 	movq   $0x0,-0x668(%rbp)
    dda0:	00 00 00 00 
    dda4:	48 c7 85 a0 f9 ff ff 	movq   $0x0,-0x660(%rbp)
    ddab:	00 00 00 00 
    ddaf:	48 c7 85 a8 f9 ff ff 	movq   $0x0,-0x658(%rbp)
    ddb6:	00 00 00 00 
    ddba:	48 c7 85 a0 fc ff ff 	movq   $0x0,-0x360(%rbp)
    ddc1:	00 00 00 00 
    ddc5:	48 c7 85 a8 fc ff ff 	movq   $0x0,-0x358(%rbp)
    ddcc:	00 00 00 00 
    ddd0:	48 c7 85 b0 fc ff ff 	movq   $0x0,-0x350(%rbp)
    ddd7:	00 00 00 00 
    dddb:	48 c7 85 b8 fc ff ff 	movq   $0x0,-0x348(%rbp)
    dde2:	00 00 00 00 
    dde6:	48 c7 85 c0 fc ff ff 	movq   $0x0,-0x340(%rbp)
    dded:	00 00 00 00 
    ddf1:	48 c7 85 c8 fc ff ff 	movq   $0x0,-0x338(%rbp)
    ddf8:	00 00 00 00 
    ddfc:	48 c7 85 d0 fc ff ff 	movq   $0x0,-0x330(%rbp)
    de03:	00 00 00 00 
    de07:	48 c7 85 d8 fc ff ff 	movq   $0x0,-0x328(%rbp)
    de0e:	00 00 00 00 
    de12:	48 c7 85 e0 fc ff ff 	movq   $0x0,-0x320(%rbp)
    de19:	00 00 00 00 
    de1d:	48 c7 85 e8 fc ff ff 	movq   $0x0,-0x318(%rbp)
    de24:	00 00 00 00 
    de28:	48 8d 85 50 fb ff ff 	lea    -0x4b0(%rbp),%rax
    de2f:	48 83 c0 04          	add    $0x4,%rax
    de33:	48 89 85 b0 f9 ff ff 	mov    %rax,-0x650(%rbp)
    de3a:	48 8b 05 ef db 00 00 	mov    0xdbef(%rip),%rax        # 1ba30 <g_149>
    de41:	48 8b 00             	mov    (%rax),%rax
    de44:	48 89 85 18 f7 ff ff 	mov    %rax,-0x8e8(%rbp)
    de4b:	48 8b 05 2e b2 00 00 	mov    0xb22e(%rip),%rax        # 19080 <g_88>
    de52:	8b 15 1c b2 00 00    	mov    0xb21c(%rip),%edx        # 19074 <g_40>
    de58:	8d 4a 01             	lea    0x1(%rdx),%ecx
    de5b:	8b 15 13 b2 00 00    	mov    0xb213(%rip),%edx        # 19074 <g_40>
    de61:	48 63 f2             	movslq %edx,%rsi
    de64:	48 63 c9             	movslq %ecx,%rcx
    de67:	48 89 c2             	mov    %rax,%rdx
    de6a:	48 c1 e2 04          	shl    $0x4,%rdx
    de6e:	48 29 c2             	sub    %rax,%rdx
    de71:	48 8d 04 12          	lea    (%rdx,%rdx,1),%rax
    de75:	48 89 c2             	mov    %rax,%rdx
    de78:	48 89 c8             	mov    %rcx,%rax
    de7b:	48 01 c0             	add    %rax,%rax
    de7e:	48 01 c8             	add    %rcx,%rax
    de81:	48 01 c0             	add    %rax,%rax
    de84:	48 01 d0             	add    %rdx,%rax
    de87:	48 8d 14 30          	lea    (%rax,%rsi,1),%rdx
    de8b:	48 8d 05 2e b4 00 00 	lea    0xb42e(%rip),%rax        # 192c0 <g_164>
    de92:	48 01 d0             	add    %rdx,%rax
    de95:	0f b6 00             	movzbl (%rax),%eax
    de98:	84 c0                	test   %al,%al
    de9a:	0f 85 bb 01 00 00    	jne    e05b <func_63+0xde2>
    dea0:	48 8b 85 20 f8 ff ff 	mov    -0x7e0(%rbp),%rax
    dea7:	8b 18                	mov    (%rax),%ebx
    dea9:	0f b7 15 1e b2 00 00 	movzwl 0xb21e(%rip),%edx        # 190ce <g_107>
    deb0:	0f b7 05 d1 b1 00 00 	movzwl 0xb1d1(%rip),%eax        # 19088 <g_91>
    deb7:	0f b7 c8             	movzwl %ax,%ecx
    deba:	8b 05 b4 b1 00 00    	mov    0xb1b4(%rip),%eax        # 19074 <g_40>
    dec0:	44 8d 40 01          	lea    0x1(%rax),%r8d
    dec4:	0f b7 05 bd b1 00 00 	movzwl 0xb1bd(%rip),%eax        # 19088 <g_91>
    decb:	0f b7 f0             	movzwl %ax,%esi
    dece:	41 89 d2             	mov    %edx,%r10d
    ded1:	4c 63 ce             	movslq %esi,%r9
    ded4:	48 63 c1             	movslq %ecx,%rax
    ded7:	49 63 f8             	movslq %r8d,%rdi
    deda:	48 89 c2             	mov    %rax,%rdx
    dedd:	48 c1 e2 04          	shl    $0x4,%rdx
    dee1:	48 29 c2             	sub    %rax,%rdx
    dee4:	48 8d 04 12          	lea    (%rdx,%rdx,1),%rax
    dee8:	48 89 c2             	mov    %rax,%rdx
    deeb:	48 89 f8             	mov    %rdi,%rax
    deee:	48 01 c0             	add    %rax,%rax
    def1:	48 01 f8             	add    %rdi,%rax
    def4:	48 01 c0             	add    %rax,%rax
    def7:	48 01 d0             	add    %rdx,%rax
    defa:	4a 8d 14 08          	lea    (%rax,%r9,1),%rdx
    defe:	48 8d 05 bb b3 00 00 	lea    0xb3bb(%rip),%rax        # 192c0 <g_164>
    df05:	48 01 d0             	add    %rdx,%rax
    df08:	44 88 10             	mov    %r10b,(%rax)
    df0b:	48 63 f6             	movslq %esi,%rsi
    df0e:	48 63 c1             	movslq %ecx,%rax
    df11:	49 63 c8             	movslq %r8d,%rcx
    df14:	48 89 c2             	mov    %rax,%rdx
    df17:	48 c1 e2 04          	shl    $0x4,%rdx
    df1b:	48 29 c2             	sub    %rax,%rdx
    df1e:	48 8d 04 12          	lea    (%rdx,%rdx,1),%rax
    df22:	48 89 c2             	mov    %rax,%rdx
    df25:	48 89 c8             	mov    %rcx,%rax
    df28:	48 01 c0             	add    %rax,%rax
    df2b:	48 01 c8             	add    %rcx,%rax
    df2e:	48 01 c0             	add    %rax,%rax
    df31:	48 01 d0             	add    %rdx,%rax
    df34:	48 8d 14 30          	lea    (%rax,%rsi,1),%rdx
    df38:	48 8d 05 81 b3 00 00 	lea    0xb381(%rip),%rax        # 192c0 <g_164>
    df3f:	48 01 d0             	add    %rdx,%rax
    df42:	0f b6 00             	movzbl (%rax),%eax
    df45:	44 0f be e0          	movsbl %al,%r12d
    df49:	be 01 00 00 00       	mov    $0x1,%esi
    df4e:	bf 01 00 00 00       	mov    $0x1,%edi
    df53:	e8 a7 9d ff ff       	callq  7cff <safe_add_func_uint16_t_u_u>
    df58:	0f b7 d0             	movzwl %ax,%edx
    df5b:	48 8b 05 96 da 00 00 	mov    0xda96(%rip),%rax        # 1b9f8 <g_130>
    df62:	0f b7 00             	movzwl (%rax),%eax
    df65:	98                   	cwtl   
    df66:	39 c2                	cmp    %eax,%edx
    df68:	0f 94 c0             	sete   %al
    df6b:	89 c2                	mov    %eax,%edx
    df6d:	48 8b 05 34 b3 00 00 	mov    0xb334(%rip),%rax        # 192a8 <g_145+0x8>
    df74:	09 d0                	or     %edx,%eax
    df76:	0f be c0             	movsbl %al,%eax
    df79:	44 89 e6             	mov    %r12d,%esi
    df7c:	89 c7                	mov    %eax,%edi
    df7e:	e8 8f 92 ff ff       	callq  7212 <safe_mul_func_int8_t_s_s>
    df83:	48 83 bd 18 f8 ff ff 	cmpq   $0x0,-0x7e8(%rbp)
    df8a:	00 
    df8b:	0f 95 c0             	setne  %al
    df8e:	0f b6 c0             	movzbl %al,%eax
    df91:	48 be fe cd 4c 4b 4c 	movabs $0x48221d4c4b4ccdfe,%rsi
    df98:	1d 22 48 
    df9b:	48 89 c7             	mov    %rax,%rdi
    df9e:	e8 a8 a0 ff ff       	callq  804b <safe_sub_func_uint64_t_u_u>
    dfa3:	48 8b 95 90 f9 ff ff 	mov    -0x670(%rbp),%rdx
    dfaa:	48 21 d0             	and    %rdx,%rax
    dfad:	48 89 85 90 f9 ff ff 	mov    %rax,-0x670(%rbp)
    dfb4:	0f b7 85 14 f7 ff ff 	movzwl -0x8ec(%rbp),%eax
    dfbb:	0f b7 c0             	movzwl %ax,%eax
    dfbe:	48 39 85 90 f9 ff ff 	cmp    %rax,-0x670(%rbp)
    dfc5:	0f 9f c0             	setg   %al
    dfc8:	0f b6 c0             	movzbl %al,%eax
    dfcb:	89 c2                	mov    %eax,%edx
    dfcd:	8b 05 69 b3 00 00    	mov    0xb369(%rip),%eax        # 1933c <g_193>
    dfd3:	21 d0                	and    %edx,%eax
    dfd5:	89 05 61 b3 00 00    	mov    %eax,0xb361(%rip)        # 1933c <g_193>
    dfdb:	8b 05 5b b3 00 00    	mov    0xb35b(%rip),%eax        # 1933c <g_193>
    dfe1:	0f b7 c0             	movzwl %ax,%eax
    dfe4:	89 de                	mov    %ebx,%esi
    dfe6:	89 c7                	mov    %eax,%edi
    dfe8:	e8 d1 9d ff ff       	callq  7dbe <safe_lshift_func_uint16_t_u_s>
    dfed:	ba 01 00 00 00       	mov    $0x1,%edx
    dff2:	48 8b 85 b0 f9 ff ff 	mov    -0x650(%rbp),%rax
    dff9:	8b 00                	mov    (%rax),%eax
    dffb:	21 c2                	and    %eax,%edx
    dffd:	48 8b 85 b0 f9 ff ff 	mov    -0x650(%rbp),%rax
    e004:	89 10                	mov    %edx,(%rax)
    e006:	be 05 00 00 00       	mov    $0x5,%esi
    e00b:	bf 00 00 00 00       	mov    $0x0,%edi
    e010:	e8 33 9e ff ff       	callq  7e48 <safe_rshift_func_uint16_t_u_s>
    e015:	0f b7 d0             	movzwl %ax,%edx
    e018:	48 8b 05 c1 d9 00 00 	mov    0xd9c1(%rip),%rax        # 1b9e0 <g_39>
    e01f:	8b 00                	mov    (%rax),%eax
    e021:	21 d0                	and    %edx,%eax
    e023:	48 63 d0             	movslq %eax,%rdx
    e026:	48 8b 05 13 b3 00 00 	mov    0xb313(%rip),%rax        # 19340 <g_195>
    e02d:	48 21 d0             	and    %rdx,%rax
    e030:	48 89 05 09 b3 00 00 	mov    %rax,0xb309(%rip)        # 19340 <g_195>
    e037:	48 8b 05 42 b0 00 00 	mov    0xb042(%rip),%rax        # 19080 <g_88>
    e03e:	48 83 e8 01          	sub    $0x1,%rax
    e042:	48 89 05 37 b0 00 00 	mov    %rax,0xb037(%rip)        # 19080 <g_88>
    e049:	48 8b 05 30 b0 00 00 	mov    0xb030(%rip),%rax        # 19080 <g_88>
    e050:	48 85 c0             	test   %rax,%rax
    e053:	0f 89 2f fd ff ff    	jns    dd88 <func_63+0xb0f>
    e059:	eb 01                	jmp    e05c <func_63+0xde3>
    e05b:	90                   	nop
    e05c:	8b 05 12 b0 00 00    	mov    0xb012(%rip),%eax        # 19074 <g_40>
    e062:	83 c0 01             	add    $0x1,%eax
    e065:	89 05 09 b0 00 00    	mov    %eax,0xb009(%rip)        # 19074 <g_40>
    e06b:	8b 05 03 b0 00 00    	mov    0xb003(%rip),%eax        # 19074 <g_40>
    e071:	83 f8 03             	cmp    $0x3,%eax
    e074:	0f 8e f6 fc ff ff    	jle    dd70 <func_63+0xaf7>
    e07a:	0f b7 05 07 b0 00 00 	movzwl 0xb007(%rip),%eax        # 19088 <g_91>
    e081:	83 c0 01             	add    $0x1,%eax
    e084:	66 89 05 fd af 00 00 	mov    %ax,0xaffd(%rip)        # 19088 <g_91>
    e08b:	0f b7 05 f6 af 00 00 	movzwl 0xaff6(%rip),%eax        # 19088 <g_91>
    e092:	66 83 f8 03          	cmp    $0x3,%ax
    e096:	0f 86 b4 fc ff ff    	jbe    dd50 <func_63+0xad7>
    e09c:	e9 36 20 00 00       	jmpq   100d7 <func_63+0x2e5e>
    e0a1:	c7 85 58 f7 ff ff 00 	movl   $0x0,-0x8a8(%rbp)
    e0a8:	00 00 00 
    e0ab:	48 8d 05 62 b2 00 00 	lea    0xb262(%rip),%rax        # 19314 <g_164+0x54>
    e0b2:	48 89 85 50 f8 ff ff 	mov    %rax,-0x7b0(%rbp)
    e0b9:	c7 85 44 f7 ff ff e7 	movl   $0xf38842e7,-0x8bc(%rbp)
    e0c0:	42 88 f3 
    e0c3:	48 c7 85 58 f8 ff ff 	movq   $0x0,-0x7a8(%rbp)
    e0ca:	00 00 00 00 
    e0ce:	48 8d 05 2f b1 00 00 	lea    0xb12f(%rip),%rax        # 19204 <g_122+0x44>
    e0d5:	48 89 85 60 f8 ff ff 	mov    %rax,-0x7a0(%rbp)
    e0dc:	66 c7 85 34 f7 ff ff 	movw   $0x393d,-0x8cc(%rbp)
    e0e3:	3d 39 
    e0e5:	c7 85 48 f7 ff ff ff 	movl   $0xffffffff,-0x8b8(%rbp)
    e0ec:	ff ff ff 
    e0ef:	48 b8 83 ad 03 55 18 	movabs $0xea4eb4185503ad83,%rax
    e0f6:	b4 4e ea 
    e0f9:	48 89 85 68 f8 ff ff 	mov    %rax,-0x798(%rbp)
    e100:	c7 45 c1 00 00 00 00 	movl   $0x0,-0x3f(%rbp)
    e107:	66 c7 45 c5 00 00    	movw   $0x0,-0x3b(%rbp)
    e10d:	c6 45 c7 00          	movb   $0x0,-0x39(%rbp)
    e111:	c7 85 5c f7 ff ff 00 	movl   $0x0,-0x8a4(%rbp)
    e118:	00 00 00 
    e11b:	c7 85 4c f7 ff ff 00 	movl   $0x0,-0x8b4(%rbp)
    e122:	00 00 00 
    e125:	c7 85 84 f7 ff ff 32 	movl   $0xb2996332,-0x87c(%rbp)
    e12c:	63 99 b2 
    e12f:	66 c7 85 50 fb ff ff 	movw   $0x248b,-0x4b0(%rbp)
    e136:	8b 24 
    e138:	66 c7 85 52 fb ff ff 	movw   $0x1,-0x4ae(%rbp)
    e13f:	01 00 
    e141:	66 c7 85 54 fb ff ff 	movw   $0x9741,-0x4ac(%rbp)
    e148:	41 97 
    e14a:	66 c7 85 56 fb ff ff 	movw   $0x1,-0x4aa(%rbp)
    e151:	01 00 
    e153:	66 c7 85 58 fb ff ff 	movw   $0x248b,-0x4a8(%rbp)
    e15a:	8b 24 
    e15c:	66 c7 85 5a fb ff ff 	movw   $0x1,-0x4a6(%rbp)
    e163:	01 00 
    e165:	66 c7 85 5c fb ff ff 	movw   $0x9741,-0x4a4(%rbp)
    e16c:	41 97 
    e16e:	66 c7 85 5e fb ff ff 	movw   $0x22a5,-0x4a2(%rbp)
    e175:	a5 22 
    e177:	66 c7 85 60 fb ff ff 	movw   $0xfffe,-0x4a0(%rbp)
    e17e:	fe ff 
    e180:	66 c7 85 62 fb ff ff 	movw   $0x0,-0x49e(%rbp)
    e187:	00 00 
    e189:	66 c7 85 64 fb ff ff 	movw   $0x0,-0x49c(%rbp)
    e190:	00 00 
    e192:	66 c7 85 66 fb ff ff 	movw   $0xfffe,-0x49a(%rbp)
    e199:	fe ff 
    e19b:	66 c7 85 68 fb ff ff 	movw   $0x22a5,-0x498(%rbp)
    e1a2:	a5 22 
    e1a4:	66 c7 85 6a fb ff ff 	movw   $0x1,-0x496(%rbp)
    e1ab:	01 00 
    e1ad:	66 c7 85 6c fb ff ff 	movw   $0xcf92,-0x494(%rbp)
    e1b4:	92 cf 
    e1b6:	66 c7 85 6e fb ff ff 	movw   $0x0,-0x492(%rbp)
    e1bd:	00 00 
    e1bf:	66 c7 85 70 fb ff ff 	movw   $0xcf92,-0x490(%rbp)
    e1c6:	92 cf 
    e1c8:	66 c7 85 72 fb ff ff 	movw   $0x1,-0x48e(%rbp)
    e1cf:	01 00 
    e1d1:	66 c7 85 74 fb ff ff 	movw   $0xcf92,-0x48c(%rbp)
    e1d8:	92 cf 
    e1da:	66 c7 85 76 fb ff ff 	movw   $0x0,-0x48a(%rbp)
    e1e1:	00 00 
    e1e3:	66 c7 85 78 fb ff ff 	movw   $0xcf92,-0x488(%rbp)
    e1ea:	92 cf 
    e1ec:	66 c7 85 7a fb ff ff 	movw   $0x22a5,-0x486(%rbp)
    e1f3:	a5 22 
    e1f5:	66 c7 85 7c fb ff ff 	movw   $0x0,-0x484(%rbp)
    e1fc:	00 00 
    e1fe:	66 c7 85 7e fb ff ff 	movw   $0x1,-0x482(%rbp)
    e205:	01 00 
    e207:	66 c7 85 80 fb ff ff 	movw   $0xfffe,-0x480(%rbp)
    e20e:	fe ff 
    e210:	66 c7 85 82 fb ff ff 	movw   $0xfffe,-0x47e(%rbp)
    e217:	fe ff 
    e219:	66 c7 85 84 fb ff ff 	movw   $0x1,-0x47c(%rbp)
    e220:	01 00 
    e222:	66 c7 85 86 fb ff ff 	movw   $0x0,-0x47a(%rbp)
    e229:	00 00 
    e22b:	66 c7 85 88 fb ff ff 	movw   $0x248b,-0x478(%rbp)
    e232:	8b 24 
    e234:	66 c7 85 8a fb ff ff 	movw   $0x0,-0x476(%rbp)
    e23b:	00 00 
    e23d:	66 c7 85 8c fb ff ff 	movw   $0x9741,-0x474(%rbp)
    e244:	41 97 
    e246:	66 c7 85 8e fb ff ff 	movw   $0x0,-0x472(%rbp)
    e24d:	00 00 
    e24f:	66 c7 85 90 fb ff ff 	movw   $0x248b,-0x470(%rbp)
    e256:	8b 24 
    e258:	66 c7 85 92 fb ff ff 	movw   $0x0,-0x46e(%rbp)
    e25f:	00 00 
    e261:	66 c7 85 94 fb ff ff 	movw   $0x9741,-0x46c(%rbp)
    e268:	41 97 
    e26a:	66 c7 85 96 fb ff ff 	movw   $0xfffe,-0x46a(%rbp)
    e271:	fe ff 
    e273:	66 c7 85 98 fb ff ff 	movw   $0xfffe,-0x468(%rbp)
    e27a:	fe ff 
    e27c:	66 c7 85 9a fb ff ff 	movw   $0x1,-0x466(%rbp)
    e283:	01 00 
    e285:	66 c7 85 9c fb ff ff 	movw   $0x0,-0x464(%rbp)
    e28c:	00 00 
    e28e:	66 c7 85 9e fb ff ff 	movw   $0x22a5,-0x462(%rbp)
    e295:	a5 22 
    e297:	66 c7 85 a0 fb ff ff 	movw   $0x22a5,-0x460(%rbp)
    e29e:	a5 22 
    e2a0:	66 c7 85 a2 fb ff ff 	movw   $0x0,-0x45e(%rbp)
    e2a7:	00 00 
    e2a9:	66 c7 85 a4 fb ff ff 	movw   $0xcf92,-0x45c(%rbp)
    e2b0:	92 cf 
    e2b2:	66 c7 85 a6 fb ff ff 	movw   $0x1,-0x45a(%rbp)
    e2b9:	01 00 
    e2bb:	66 c7 85 a8 fb ff ff 	movw   $0xcf92,-0x458(%rbp)
    e2c2:	92 cf 
    e2c4:	66 c7 85 aa fb ff ff 	movw   $0x0,-0x456(%rbp)
    e2cb:	00 00 
    e2cd:	66 c7 85 ac fb ff ff 	movw   $0xcf92,-0x454(%rbp)
    e2d4:	92 cf 
    e2d6:	66 c7 85 ae fb ff ff 	movw   $0x1,-0x452(%rbp)
    e2dd:	01 00 
    e2df:	66 c7 85 b0 fb ff ff 	movw   $0xcf92,-0x450(%rbp)
    e2e6:	92 cf 
    e2e8:	c6 85 31 f7 ff ff dc 	movb   $0xdc,-0x8cf(%rbp)
    e2ef:	48 c7 85 70 f8 ff ff 	movq   $0x0,-0x790(%rbp)
    e2f6:	00 00 00 00 
    e2fa:	48 c7 85 00 fb ff ff 	movq   $0x0,-0x500(%rbp)
    e301:	00 00 00 00 
    e305:	48 8d 85 c0 fb ff ff 	lea    -0x440(%rbp),%rax
    e30c:	48 83 c0 24          	add    $0x24,%rax
    e310:	48 89 85 08 fb ff ff 	mov    %rax,-0x4f8(%rbp)
    e317:	48 8d 85 c0 fb ff ff 	lea    -0x440(%rbp),%rax
    e31e:	48 83 c0 24          	add    $0x24,%rax
    e322:	48 89 85 10 fb ff ff 	mov    %rax,-0x4f0(%rbp)
    e329:	48 c7 85 18 fb ff ff 	movq   $0x0,-0x4e8(%rbp)
    e330:	00 00 00 00 
    e334:	48 8d 85 c0 fb ff ff 	lea    -0x440(%rbp),%rax
    e33b:	48 83 c0 24          	add    $0x24,%rax
    e33f:	48 89 85 20 fb ff ff 	mov    %rax,-0x4e0(%rbp)
    e346:	48 8d 85 c0 fb ff ff 	lea    -0x440(%rbp),%rax
    e34d:	48 83 c0 24          	add    $0x24,%rax
    e351:	48 89 85 28 fb ff ff 	mov    %rax,-0x4d8(%rbp)
    e358:	48 c7 85 30 fb ff ff 	movq   $0x0,-0x4d0(%rbp)
    e35f:	00 00 00 00 
    e363:	48 8d 85 c0 fb ff ff 	lea    -0x440(%rbp),%rax
    e36a:	48 83 c0 24          	add    $0x24,%rax
    e36e:	48 89 85 38 fb ff ff 	mov    %rax,-0x4c8(%rbp)
    e375:	48 8d 85 c0 fb ff ff 	lea    -0x440(%rbp),%rax
    e37c:	48 83 c0 24          	add    $0x24,%rax
    e380:	48 89 85 40 fb ff ff 	mov    %rax,-0x4c0(%rbp)
    e387:	48 c7 85 48 fb ff ff 	movq   $0x0,-0x4b8(%rbp)
    e38e:	00 00 00 00 
    e392:	48 c7 85 78 f8 ff ff 	movq   $0x0,-0x788(%rbp)
    e399:	00 00 00 00 
    e39d:	48 8d 45 c1          	lea    -0x3f(%rbp),%rax
    e3a1:	48 83 c0 05          	add    $0x5,%rax
    e3a5:	48 89 85 80 f8 ff ff 	mov    %rax,-0x780(%rbp)
    e3ac:	c6 85 32 f7 ff ff 00 	movb   $0x0,-0x8ce(%rbp)
    e3b3:	c7 85 88 f7 ff ff 04 	movl   $0x4,-0x878(%rbp)
    e3ba:	00 00 00 
    e3bd:	c7 85 8c f7 ff ff fa 	movl   $0xfffffffa,-0x874(%rbp)
    e3c4:	ff ff ff 
    e3c7:	c7 85 60 f7 ff ff b4 	movl   $0x4fdcadb4,-0x8a0(%rbp)
    e3ce:	ad dc 4f 
    e3d1:	c7 85 90 f7 ff ff 64 	movl   $0x9a9b5964,-0x870(%rbp)
    e3d8:	59 9b 9a 
    e3db:	c7 85 94 f7 ff ff ff 	movl   $0xffffffff,-0x86c(%rbp)
    e3e2:	ff ff ff 
    e3e5:	c7 85 98 f7 ff ff 16 	movl   $0x2db19616,-0x868(%rbp)
    e3ec:	96 b1 2d 
    e3ef:	c7 85 64 f7 ff ff 00 	movl   $0x0,-0x89c(%rbp)
    e3f6:	00 00 00 
    e3f9:	eb 1e                	jmp    e419 <func_63+0x11a0>
    e3fb:	8b 85 64 f7 ff ff    	mov    -0x89c(%rbp),%eax
    e401:	48 98                	cltq   
    e403:	48 8d 15 aa ac 00 00 	lea    0xacaa(%rip),%rdx        # 190b4 <g_105+0x14>
    e40a:	48 89 94 c5 60 fa ff 	mov    %rdx,-0x5a0(%rbp,%rax,8)
    e411:	ff 
    e412:	83 85 64 f7 ff ff 01 	addl   $0x1,-0x89c(%rbp)
    e419:	83 bd 64 f7 ff ff 08 	cmpl   $0x8,-0x89c(%rbp)
    e420:	7e d9                	jle    e3fb <func_63+0x1182>
    e422:	c7 85 64 f7 ff ff 00 	movl   $0x0,-0x89c(%rbp)
    e429:	00 00 00 
    e42c:	eb 1b                	jmp    e449 <func_63+0x11d0>
    e42e:	8b 85 64 f7 ff ff    	mov    -0x89c(%rbp),%eax
    e434:	48 98                	cltq   
    e436:	48 c7 84 c5 30 fa ff 	movq   $0x0,-0x5d0(%rbp,%rax,8)
    e43d:	ff 00 00 00 00 
    e442:	83 85 64 f7 ff ff 01 	addl   $0x1,-0x89c(%rbp)
    e449:	83 bd 64 f7 ff ff 04 	cmpl   $0x4,-0x89c(%rbp)
    e450:	7e dc                	jle    e42e <func_63+0x11b5>
    e452:	48 8b 85 50 f8 ff ff 	mov    -0x7b0(%rbp),%rax
    e459:	0f b6 00             	movzbl (%rax),%eax
    e45c:	8d 48 ff             	lea    -0x1(%rax),%ecx
    e45f:	48 8b 95 50 f8 ff ff 	mov    -0x7b0(%rbp),%rdx
    e466:	88 0a                	mov    %cl,(%rdx)
    e468:	0f b6 d0             	movzbl %al,%edx
    e46b:	8b 85 44 f7 ff ff    	mov    -0x8bc(%rbp),%eax
    e471:	09 d0                	or     %edx,%eax
    e473:	89 85 44 f7 ff ff    	mov    %eax,-0x8bc(%rbp)
    e479:	8b 85 44 f7 ff ff    	mov    -0x8bc(%rbp),%eax
    e47f:	88 85 10 f7 ff ff    	mov    %al,-0x8f0(%rbp)
    e485:	0f b6 05 ca ab 00 00 	movzbl 0xabca(%rip),%eax        # 19056 <g_8+0x16>
    e48c:	66 98                	cbtw   
    e48e:	0f b7 c0             	movzwl %ax,%eax
    e491:	be cb dc 00 00       	mov    $0xdccb,%esi
    e496:	89 c7                	mov    %eax,%edi
    e498:	e8 f1 98 ff ff       	callq  7d8e <safe_div_func_uint16_t_u_u>
    e49d:	41 89 c6             	mov    %eax,%r14d
    e4a0:	0f b7 85 14 f7 ff ff 	movzwl -0x8ec(%rbp),%eax
    e4a7:	0f b7 d8             	movzwl %ax,%ebx
    e4aa:	48 8b 85 18 f7 ff ff 	mov    -0x8e8(%rbp),%rax
    e4b1:	44 8b 38             	mov    (%rax),%r15d
    e4b4:	0f b7 85 14 f7 ff ff 	movzwl -0x8ec(%rbp),%eax
    e4bb:	44 0f b7 e0          	movzwl %ax,%r12d
    e4bf:	8b 85 58 f7 ff ff    	mov    -0x8a8(%rbp),%eax
    e4c5:	44 0f b6 e8          	movzbl %al,%r13d
    e4c9:	48 8b 85 60 f8 ff ff 	mov    -0x7a0(%rbp),%rax
    e4d0:	c7 00 ff ff ff ff    	movl   $0xffffffff,(%rax)
    e4d6:	48 8b 85 60 f8 ff ff 	mov    -0x7a0(%rbp),%rax
    e4dd:	8b 00                	mov    (%rax),%eax
    e4df:	be 01 00 00 00       	mov    $0x1,%esi
    e4e4:	89 c7                	mov    %eax,%edi
    e4e6:	e8 cd 99 ff ff       	callq  7eb8 <safe_add_func_uint32_t_u_u>
    e4eb:	48 8b 05 8e ab 00 00 	mov    0xab8e(%rip),%rax        # 19080 <g_88>
    e4f2:	0f b6 d0             	movzbl %al,%edx
    e4f5:	48 8b 85 20 f8 ff ff 	mov    -0x7e0(%rbp),%rax
    e4fc:	8b 00                	mov    (%rax),%eax
    e4fe:	0f b6 c0             	movzbl %al,%eax
    e501:	89 d6                	mov    %edx,%esi
    e503:	89 c7                	mov    %eax,%edi
    e505:	e8 50 96 ff ff       	callq  7b5a <safe_add_func_uint8_t_u_u>
    e50a:	0f b6 c0             	movzbl %al,%eax
    e50d:	44 89 ee             	mov    %r13d,%esi
    e510:	89 c7                	mov    %eax,%edi
    e512:	e8 7c 96 ff ff       	callq  7b93 <safe_mul_func_uint8_t_u_u>
    e517:	0f b6 c0             	movzbl %al,%eax
    e51a:	be ce bc 1d be       	mov    $0xbe1dbcce,%esi
    e51f:	89 c7                	mov    %eax,%edi
    e521:	e8 df 90 ff ff       	callq  7605 <safe_sub_func_int32_t_s_s>
    e526:	0f be c0             	movsbl %al,%eax
    e529:	44 89 e6             	mov    %r12d,%esi
    e52c:	89 c7                	mov    %eax,%edi
    e52e:	e8 02 8e ff ff       	callq  7335 <safe_rshift_func_int8_t_s_s>
    e533:	0f be c0             	movsbl %al,%eax
    e536:	41 39 c7             	cmp    %eax,%r15d
    e539:	0f 94 c0             	sete   %al
    e53c:	0f b6 d0             	movzbl %al,%edx
    e53f:	0f b7 05 46 ad 00 00 	movzwl 0xad46(%rip),%eax        # 1928c <g_123+0x4c>
    e546:	98                   	cwtl   
    e547:	31 c2                	xor    %eax,%edx
    e549:	0f b7 05 a6 ab 00 00 	movzwl 0xaba6(%rip),%eax        # 190f6 <g_119+0x16>
    e550:	0f be c0             	movsbl %al,%eax
    e553:	89 d6                	mov    %edx,%esi
    e555:	89 c7                	mov    %eax,%edi
    e557:	e8 45 8d ff ff       	callq  72a1 <safe_lshift_func_int8_t_s_s>
    e55c:	66 98                	cbtw   
    e55e:	0f b7 c0             	movzwl %ax,%eax
    e561:	89 de                	mov    %ebx,%esi
    e563:	89 c7                	mov    %eax,%edi
    e565:	e8 de 98 ff ff       	callq  7e48 <safe_rshift_func_uint16_t_u_s>
    e56a:	66 41 39 c6          	cmp    %ax,%r14w
    e56e:	0f 93 c0             	setae  %al
    e571:	0a 85 10 f7 ff ff    	or     -0x8f0(%rbp),%al
    e577:	0f be d0             	movsbl %al,%edx
    e57a:	0f b6 05 2e ab 00 00 	movzbl 0xab2e(%rip),%eax        # 190af <g_105+0xf>
    e581:	8b 8d 58 f7 ff ff    	mov    -0x8a8(%rbp),%ecx
    e587:	09 c8                	or     %ecx,%eax
    e589:	88 05 20 ab 00 00    	mov    %al,0xab20(%rip)        # 190af <g_105+0xf>
    e58f:	0f b6 05 19 ab 00 00 	movzbl 0xab19(%rip),%eax        # 190af <g_105+0xf>
    e596:	0f be c0             	movsbl %al,%eax
    e599:	89 d6                	mov    %edx,%esi
    e59b:	89 c7                	mov    %eax,%edi
    e59d:	e8 70 8c ff ff       	callq  7212 <safe_mul_func_int8_t_s_s>
    e5a2:	48 0f be c0          	movsbq %al,%rax
    e5a6:	83 e0 01             	and    $0x1,%eax
    e5a9:	48 89 c2             	mov    %rax,%rdx
    e5ac:	0f b7 05 f1 ac 00 00 	movzwl 0xacf1(%rip),%eax        # 192a4 <g_145+0x4>
    e5b3:	48 0f bf c0          	movswq %ax,%rax
    e5b7:	48 39 c2             	cmp    %rax,%rdx
    e5ba:	0f 9d c0             	setge  %al
    e5bd:	0f b6 d0             	movzbl %al,%edx
    e5c0:	48 8b 05 19 d4 00 00 	mov    0xd419(%rip),%rax        # 1b9e0 <g_39>
    e5c7:	8b 00                	mov    (%rax),%eax
    e5c9:	39 c2                	cmp    %eax,%edx
    e5cb:	0f 9e c0             	setle  %al
    e5ce:	0f b6 c0             	movzbl %al,%eax
    e5d1:	be 00 00 00 00       	mov    $0x0,%esi
    e5d6:	89 c7                	mov    %eax,%edi
    e5d8:	e8 b5 8e ff ff       	callq  7492 <safe_lshift_func_int16_t_s_s>
    e5dd:	48 8b 05 fc d3 00 00 	mov    0xd3fc(%rip),%rax        # 1b9e0 <g_39>
    e5e4:	c7 00 01 00 00 00    	movl   $0x1,(%rax)
    e5ea:	8b 10                	mov    (%rax),%edx
    e5ec:	0f b7 05 a7 ab 00 00 	movzwl 0xaba7(%rip),%eax        # 1919a <g_119+0xba>
    e5f3:	98                   	cwtl   
    e5f4:	39 c2                	cmp    %eax,%edx
    e5f6:	48 8b 05 eb d3 00 00 	mov    0xd3eb(%rip),%rax        # 1b9e8 <g_77>
    e5fd:	48 8b 00             	mov    (%rax),%rax
    e600:	0f b7 05 87 ac 00 00 	movzwl 0xac87(%rip),%eax        # 1928e <g_123+0x4e>
    e607:	66 85 c0             	test   %ax,%ax
    e60a:	0f 89 c4 08 00 00    	jns    eed4 <func_63+0x1c5b>
    e610:	c7 85 e4 f7 ff ff 05 	movl   $0x5,-0x81c(%rbp)
    e617:	00 00 00 
    e61a:	48 b8 a8 09 7a 65 3c 	movabs $0x29779f3c657a09a8,%rax
    e621:	9f 77 29 
    e624:	48 89 85 10 f9 ff ff 	mov    %rax,-0x6f0(%rbp)
    e62b:	48 8b 05 0e ad 00 00 	mov    0xad0e(%rip),%rax        # 19340 <g_195>
    e632:	0f b7 d8             	movzwl %ax,%ebx
    e635:	0f b6 05 d1 ac 00 00 	movzbl 0xacd1(%rip),%eax        # 1930d <g_164+0x4d>
    e63c:	44 0f b6 e0          	movzbl %al,%r12d
    e640:	0f b6 05 b5 ac 00 00 	movzbl 0xacb5(%rip),%eax        # 192fc <g_164+0x3c>
    e647:	44 0f b6 e8          	movzbl %al,%r13d
    e64b:	8b 85 58 f7 ff ff    	mov    -0x8a8(%rbp),%eax
    e651:	83 f0 01             	xor    $0x1,%eax
    e654:	89 c2                	mov    %eax,%edx
    e656:	0f b7 85 14 f7 ff ff 	movzwl -0x8ec(%rbp),%eax
    e65d:	0f b7 c0             	movzwl %ax,%eax
    e660:	31 d0                	xor    %edx,%eax
    e662:	48 98                	cltq   
    e664:	48 83 f8 f9          	cmp    $0xfffffffffffffff9,%rax
    e668:	0f 97 c0             	seta   %al
    e66b:	0f b6 c0             	movzbl %al,%eax
    e66e:	48 89 c6             	mov    %rax,%rsi
    e671:	48 c7 c7 ff ff ff ff 	mov    $0xffffffffffffffff,%rdi
    e678:	e8 ce 99 ff ff       	callq  804b <safe_sub_func_uint64_t_u_u>
    e67d:	0f be c0             	movsbl %al,%eax
    e680:	be 04 00 00 00       	mov    $0x4,%esi
    e685:	89 c7                	mov    %eax,%edi
    e687:	e8 15 8c ff ff       	callq  72a1 <safe_lshift_func_int8_t_s_s>
    e68c:	0f be d0             	movsbl %al,%edx
    e68f:	0f b7 85 14 f7 ff ff 	movzwl -0x8ec(%rbp),%eax
    e696:	0f b7 c0             	movzwl %ax,%eax
    e699:	39 c2                	cmp    %eax,%edx
    e69b:	0f 94 c0             	sete   %al
    e69e:	0f b6 c0             	movzbl %al,%eax
    e6a1:	41 39 c5             	cmp    %eax,%r13d
    e6a4:	0f 9d c0             	setge  %al
    e6a7:	0f b6 c0             	movzbl %al,%eax
    e6aa:	44 89 e6             	mov    %r12d,%esi
    e6ad:	89 c7                	mov    %eax,%edi
    e6af:	e8 71 98 ff ff       	callq  7f25 <safe_div_func_uint32_t_u_u>
    e6b4:	0f b7 c0             	movzwl %ax,%eax
    e6b7:	89 de                	mov    %ebx,%esi
    e6b9:	89 c7                	mov    %eax,%edi
    e6bb:	e8 3f 96 ff ff       	callq  7cff <safe_add_func_uint16_t_u_u>
    e6c0:	0f b6 05 8f a9 00 00 	movzbl 0xa98f(%rip),%eax        # 19056 <g_8+0x16>
    e6c7:	66 98                	cbtw   
    e6c9:	8b 95 44 f7 ff ff    	mov    -0x8bc(%rbp),%edx
    e6cf:	21 c2                	and    %eax,%edx
    e6d1:	0f b7 85 14 f7 ff ff 	movzwl -0x8ec(%rbp),%eax
    e6d8:	31 d0                	xor    %edx,%eax
    e6da:	98                   	cwtl   
    e6db:	89 c6                	mov    %eax,%esi
    e6dd:	bf 6f d1 ff ff       	mov    $0xffffd16f,%edi
    e6e2:	e8 0e 8d ff ff       	callq  73f5 <safe_mul_func_int16_t_s_s>
    e6e7:	8b 85 68 fc ff ff    	mov    -0x398(%rbp),%eax
    e6ed:	85 c0                	test   %eax,%eax
    e6ef:	0f 84 2b 02 00 00    	je     e920 <func_63+0x16a7>
    e6f5:	c6 85 33 f7 ff ff 9a 	movb   $0x9a,-0x8cd(%rbp)
    e6fc:	c6 05 35 ac 00 00 00 	movb   $0x0,0xac35(%rip)        # 19338 <g_170>
    e703:	e9 5a 01 00 00       	jmpq   e862 <func_63+0x15e9>
    e708:	c7 85 ec f7 ff ff be 	movl   $0xc5f0cbe,-0x814(%rbp)
    e70f:	0c 5f 0c 
    e712:	c7 85 68 f7 ff ff 00 	movl   $0x0,-0x898(%rbp)
    e719:	00 00 00 
    e71c:	eb 1a                	jmp    e738 <func_63+0x14bf>
    e71e:	8b 85 68 f7 ff ff    	mov    -0x898(%rbp),%eax
    e724:	48 98                	cltq   
    e726:	c7 84 85 a0 fc ff ff 	movl   $0xffffffff,-0x360(%rbp,%rax,4)
    e72d:	ff ff ff ff 
    e731:	83 85 68 f7 ff ff 01 	addl   $0x1,-0x898(%rbp)
    e738:	83 bd 68 f7 ff ff 04 	cmpl   $0x4,-0x898(%rbp)
    e73f:	7e dd                	jle    e71e <func_63+0x14a5>
    e741:	8b 95 a8 fc ff ff    	mov    -0x358(%rbp),%edx
    e747:	48 8b 85 20 f8 ff ff 	mov    -0x7e0(%rbp),%rax
    e74e:	89 10                	mov    %edx,(%rax)
    e750:	48 8b 05 e1 d2 00 00 	mov    0xd2e1(%rip),%rax        # 1ba38 <g_244>
    e757:	48 8b 95 20 f8 ff ff 	mov    -0x7e0(%rbp),%rdx
    e75e:	48 89 10             	mov    %rdx,(%rax)
    e761:	c7 85 44 f7 ff ff 00 	movl   $0x0,-0x8bc(%rbp)
    e768:	00 00 00 
    e76b:	e9 d3 00 00 00       	jmpq   e843 <func_63+0x15ca>
    e770:	0f b7 85 14 f7 ff ff 	movzwl -0x8ec(%rbp),%eax
    e777:	0f b6 d8             	movzbl %al,%ebx
    e77a:	0f b7 85 14 f7 ff ff 	movzwl -0x8ec(%rbp),%eax
    e781:	44 0f bf e0          	movswl %ax,%r12d
    e785:	8b 85 44 f7 ff ff    	mov    -0x8bc(%rbp),%eax
    e78b:	0f bf d0             	movswl %ax,%edx
    e78e:	48 8b 05 9b d2 00 00 	mov    0xd29b(%rip),%rax        # 1ba30 <g_149>
    e795:	48 83 bd 58 f8 ff ff 	cmpq   $0x0,-0x7a8(%rbp)
    e79c:	00 
    e79d:	0f 95 c0             	setne  %al
    e7a0:	0f b6 c0             	movzbl %al,%eax
    e7a3:	89 d6                	mov    %edx,%esi
    e7a5:	89 c7                	mov    %eax,%edi
    e7a7:	e8 49 8c ff ff       	callq  73f5 <safe_mul_func_int16_t_s_s>
    e7ac:	98                   	cwtl   
    e7ad:	44 89 e6             	mov    %r12d,%esi
    e7b0:	89 c7                	mov    %eax,%edi
    e7b2:	e8 9e 8c ff ff       	callq  7455 <safe_div_func_int16_t_s_s>
    e7b7:	48 8b 05 7a d2 00 00 	mov    0xd27a(%rip),%rax        # 1ba38 <g_244>
    e7be:	0f b7 85 14 f7 ff ff 	movzwl -0x8ec(%rbp),%eax
    e7c5:	0f b6 d0             	movzbl %al,%edx
    e7c8:	0f b6 85 33 f7 ff ff 	movzbl -0x8cd(%rbp),%eax
    e7cf:	89 d6                	mov    %edx,%esi
    e7d1:	89 c7                	mov    %eax,%edi
    e7d3:	e8 03 94 ff ff       	callq  7bdb <safe_div_func_uint8_t_u_u>
    e7d8:	89 c2                	mov    %eax,%edx
    e7da:	48 8b 85 08 f8 ff ff 	mov    -0x7f8(%rbp),%rax
    e7e1:	0f b6 d2             	movzbl %dl,%edx
    e7e4:	66 89 10             	mov    %dx,(%rax)
    e7e7:	89 de                	mov    %ebx,%esi
    e7e9:	bf 01 00 00 00       	mov    $0x1,%edi
    e7ee:	e8 bb 93 ff ff       	callq  7bae <safe_mod_func_uint8_t_u_u>
    e7f3:	0f b6 c0             	movzbl %al,%eax
    e7f6:	be 0f 00 00 00       	mov    $0xf,%esi
    e7fb:	89 c7                	mov    %eax,%edi
    e7fd:	e8 28 8d ff ff       	callq  752a <safe_rshift_func_int16_t_s_s>
    e802:	88 05 82 a8 00 00    	mov    %al,0xa882(%rip)        # 1908a <g_98>
    e808:	0f b6 05 7b a8 00 00 	movzbl 0xa87b(%rip),%eax        # 1908a <g_98>
    e80f:	0f be d0             	movsbl %al,%edx
    e812:	8b 85 48 f7 ff ff    	mov    -0x8b8(%rbp),%eax
    e818:	21 d0                	and    %edx,%eax
    e81a:	89 85 48 f7 ff ff    	mov    %eax,-0x8b8(%rbp)
    e820:	8b 85 48 f7 ff ff    	mov    -0x8b8(%rbp),%eax
    e826:	85 c0                	test   %eax,%eax
    e828:	0f 95 c0             	setne  %al
    e82b:	0f b6 c0             	movzbl %al,%eax
    e82e:	89 85 ec f7 ff ff    	mov    %eax,-0x814(%rbp)
    e834:	8b 85 44 f7 ff ff    	mov    -0x8bc(%rbp),%eax
    e83a:	83 c0 01             	add    $0x1,%eax
    e83d:	89 85 44 f7 ff ff    	mov    %eax,-0x8bc(%rbp)
    e843:	8b 85 44 f7 ff ff    	mov    -0x8bc(%rbp),%eax
    e849:	83 f8 03             	cmp    $0x3,%eax
    e84c:	0f 8e 1e ff ff ff    	jle    e770 <func_63+0x14f7>
    e852:	0f b6 05 df aa 00 00 	movzbl 0xaadf(%rip),%eax        # 19338 <g_170>
    e859:	83 c0 01             	add    $0x1,%eax
    e85c:	88 05 d6 aa 00 00    	mov    %al,0xaad6(%rip)        # 19338 <g_170>
    e862:	0f b6 05 cf aa 00 00 	movzbl 0xaacf(%rip),%eax        # 19338 <g_170>
    e869:	3c 03                	cmp    $0x3,%al
    e86b:	0f 86 97 fe ff ff    	jbe    e708 <func_63+0x148f>
    e871:	66 c7 85 14 f7 ff ff 	movw   $0x0,-0x8ec(%rbp)
    e878:	00 00 
    e87a:	e9 8b 00 00 00       	jmpq   e90a <func_63+0x1691>
    e87f:	c7 85 e8 f7 ff ff 93 	movl   $0xdcd95793,-0x818(%rbp)
    e886:	57 d9 dc 
    e889:	c7 85 10 f8 ff ff 1b 	movl   $0x9691121b,-0x7f0(%rbp)
    e890:	12 91 96 
    e893:	48 8d 85 10 f8 ff ff 	lea    -0x7f0(%rbp),%rax
    e89a:	48 89 85 28 f9 ff ff 	mov    %rax,-0x6d8(%rbp)
    e8a1:	8b 85 e8 f7 ff ff    	mov    -0x818(%rbp),%eax
    e8a7:	98                   	cwtl   
    e8a8:	be 08 00 00 00       	mov    $0x8,%esi
    e8ad:	89 c7                	mov    %eax,%edi
    e8af:	e8 af 8c ff ff       	callq  7563 <safe_rshift_func_int16_t_s_u>
    e8b4:	48 8b 85 68 fa ff ff 	mov    -0x598(%rbp),%rax
    e8bb:	48 39 85 28 f8 ff ff 	cmp    %rax,-0x7d8(%rbp)
    e8c2:	0f 94 c2             	sete   %dl
    e8c5:	48 8b 05 14 d1 00 00 	mov    0xd114(%rip),%rax        # 1b9e0 <g_39>
    e8cc:	0f b6 d2             	movzbl %dl,%edx
    e8cf:	89 10                	mov    %edx,(%rax)
    e8d1:	8b 00                	mov    (%rax),%eax
    e8d3:	89 85 10 f8 ff ff    	mov    %eax,-0x7f0(%rbp)
    e8d9:	48 8b 05 58 d1 00 00 	mov    0xd158(%rip),%rax        # 1ba38 <g_244>
    e8e0:	48 8b 00             	mov    (%rax),%rax
    e8e3:	8b 10                	mov    (%rax),%edx
    e8e5:	48 8b 85 28 f9 ff ff 	mov    -0x6d8(%rbp),%rax
    e8ec:	8b 00                	mov    (%rax),%eax
    e8ee:	31 c2                	xor    %eax,%edx
    e8f0:	48 8b 85 28 f9 ff ff 	mov    -0x6d8(%rbp),%rax
    e8f7:	89 10                	mov    %edx,(%rax)
    e8f9:	0f b7 85 14 f7 ff ff 	movzwl -0x8ec(%rbp),%eax
    e900:	83 c0 01             	add    $0x1,%eax
    e903:	66 89 85 14 f7 ff ff 	mov    %ax,-0x8ec(%rbp)
    e90a:	0f b7 85 14 f7 ff ff 	movzwl -0x8ec(%rbp),%eax
    e911:	66 83 f8 1a          	cmp    $0x1a,%ax
    e915:	0f 87 64 ff ff ff    	ja     e87f <func_63+0x1606>
    e91b:	e9 26 01 00 00       	jmpq   ea46 <func_63+0x17cd>
    e920:	48 8d 85 44 f7 ff ff 	lea    -0x8bc(%rbp),%rax
    e927:	48 89 85 18 f9 ff ff 	mov    %rax,-0x6e8(%rbp)
    e92e:	48 8d 85 48 f7 ff ff 	lea    -0x8b8(%rbp),%rax
    e935:	48 89 85 20 f9 ff ff 	mov    %rax,-0x6e0(%rbp)
    e93c:	0f b7 85 14 f7 ff ff 	movzwl -0x8ec(%rbp),%eax
    e943:	0f b7 c8             	movzwl %ax,%ecx
    e946:	48 8b 85 18 f9 ff ff 	mov    -0x6e8(%rbp),%rax
    e94d:	8b 10                	mov    (%rax),%edx
    e94f:	48 8b 85 18 f7 ff ff 	mov    -0x8e8(%rbp),%rax
    e956:	8b 00                	mov    (%rax),%eax
    e958:	09 c2                	or     %eax,%edx
    e95a:	48 8b 85 18 f9 ff ff 	mov    -0x6e8(%rbp),%rax
    e961:	89 10                	mov    %edx,(%rax)
    e963:	48 8b 05 76 d0 00 00 	mov    0xd076(%rip),%rax        # 1b9e0 <g_39>
    e96a:	48 8b 95 18 f9 ff ff 	mov    -0x6e8(%rbp),%rdx
    e971:	8b 12                	mov    (%rdx),%edx
    e973:	89 10                	mov    %edx,(%rax)
    e975:	8b 00                	mov    (%rax),%eax
    e977:	39 c1                	cmp    %eax,%ecx
    e979:	0f 94 c0             	sete   %al
    e97c:	0f b6 d8             	movzbl %al,%ebx
    e97f:	0f b6 05 04 a7 00 00 	movzbl 0xa704(%rip),%eax        # 1908a <g_98>
    e986:	0f be d0             	movsbl %al,%edx
    e989:	0f b7 85 14 f7 ff ff 	movzwl -0x8ec(%rbp),%eax
    e990:	0f b7 c0             	movzwl %ax,%eax
    e993:	39 c2                	cmp    %eax,%edx
    e995:	0f 95 c0             	setne  %al
    e998:	44 0f b6 e0          	movzbl %al,%r12d
    e99c:	0f b7 05 03 a9 00 00 	movzwl 0xa903(%rip),%eax        # 192a6 <g_145+0x6>
    e9a3:	66 85 c0             	test   %ax,%ax
    e9a6:	74 1e                	je     e9c6 <func_63+0x174d>
    e9a8:	0f bf 85 34 f7 ff ff 	movswl -0x8cc(%rbp),%eax
    e9af:	89 c6                	mov    %eax,%esi
    e9b1:	bf cd ff ff ff       	mov    $0xffffffcd,%edi
    e9b6:	e8 7a 89 ff ff       	callq  7335 <safe_rshift_func_int8_t_s_s>
    e9bb:	84 c0                	test   %al,%al
    e9bd:	74 07                	je     e9c6 <func_63+0x174d>
    e9bf:	b8 01 00 00 00       	mov    $0x1,%eax
    e9c4:	eb 05                	jmp    e9cb <func_63+0x1752>
    e9c6:	b8 00 00 00 00       	mov    $0x0,%eax
    e9cb:	89 c2                	mov    %eax,%edx
    e9cd:	0f b7 85 14 f7 ff ff 	movzwl -0x8ec(%rbp),%eax
    e9d4:	21 d0                	and    %edx,%eax
    e9d6:	0f b7 c0             	movzwl %ax,%eax
    e9d9:	89 c6                	mov    %eax,%esi
    e9db:	bf ea 44 00 00       	mov    $0x44ea,%edi
    e9e0:	e8 77 93 ff ff       	callq  7d5c <safe_mod_func_uint16_t_u_u>
    e9e5:	88 05 d2 a6 00 00    	mov    %al,0xa6d2(%rip)        # 190bd <g_105+0x1d>
    e9eb:	0f b6 05 cb a6 00 00 	movzbl 0xa6cb(%rip),%eax        # 190bd <g_105+0x1d>
    e9f2:	0f be c0             	movsbl %al,%eax
    e9f5:	44 21 e0             	and    %r12d,%eax
    e9f8:	21 c3                	and    %eax,%ebx
    e9fa:	89 da                	mov    %ebx,%edx
    e9fc:	48 8b 05 f5 cf 00 00 	mov    0xcff5(%rip),%rax        # 1b9f8 <g_130>
    ea03:	0f b7 00             	movzwl (%rax),%eax
    ea06:	98                   	cwtl   
    ea07:	39 c2                	cmp    %eax,%edx
    ea09:	0f 9e c0             	setle  %al
    ea0c:	0f b6 d0             	movzbl %al,%edx
    ea0f:	0f b7 85 14 f7 ff ff 	movzwl -0x8ec(%rbp),%eax
    ea16:	0f b7 c0             	movzwl %ax,%eax
    ea19:	39 c2                	cmp    %eax,%edx
    ea1b:	0f 95 c0             	setne  %al
    ea1e:	0f b6 d0             	movzbl %al,%edx
    ea21:	48 8b 85 20 f9 ff ff 	mov    -0x6e0(%rbp),%rax
    ea28:	8b 00                	mov    (%rax),%eax
    ea2a:	21 c2                	and    %eax,%edx
    ea2c:	48 8b 85 20 f9 ff ff 	mov    -0x6e0(%rbp),%rax
    ea33:	89 10                	mov    %edx,(%rax)
    ea35:	0f b7 85 14 f7 ff ff 	movzwl -0x8ec(%rbp),%eax
    ea3c:	66 85 c0             	test   %ax,%ax
    ea3f:	74 05                	je     ea46 <func_63+0x17cd>
    ea41:	e9 e5 fb ff ff       	jmpq   e62b <func_63+0x13b2>
    ea46:	66 c7 05 57 a8 00 00 	movw   $0x0,0xa857(%rip)        # 192a6 <g_145+0x6>
    ea4d:	00 00 
    ea4f:	eb 2d                	jmp    ea7e <func_63+0x1805>
    ea51:	48 8d 05 88 cf 00 00 	lea    0xcf88(%rip),%rax        # 1b9e0 <g_39>
    ea58:	48 89 85 48 f9 ff ff 	mov    %rax,-0x6b8(%rbp)
    ea5f:	48 8b 85 48 f9 ff ff 	mov    -0x6b8(%rbp),%rax
    ea66:	48 c7 00 00 00 00 00 	movq   $0x0,(%rax)
    ea6d:	0f b7 05 32 a8 00 00 	movzwl 0xa832(%rip),%eax        # 192a6 <g_145+0x6>
    ea74:	83 c0 01             	add    $0x1,%eax
    ea77:	66 89 05 28 a8 00 00 	mov    %ax,0xa828(%rip)        # 192a6 <g_145+0x6>
    ea7e:	0f b7 05 21 a8 00 00 	movzwl 0xa821(%rip),%eax        # 192a6 <g_145+0x6>
    ea85:	66 83 f8 1b          	cmp    $0x1b,%ax
    ea89:	7f c6                	jg     ea51 <func_63+0x17d8>
    ea8b:	c7 85 58 f7 ff ff 00 	movl   $0x0,-0x8a8(%rbp)
    ea92:	00 00 00 
    ea95:	e9 1d 04 00 00       	jmpq   eeb7 <func_63+0x1c3e>
    ea9a:	48 8d 85 30 fa ff ff 	lea    -0x5d0(%rbp),%rax
    eaa1:	48 89 85 30 f9 ff ff 	mov    %rax,-0x6d0(%rbp)
    eaa8:	c7 85 10 f8 ff ff f7 	movl   $0xfffffff7,-0x7f0(%rbp)
    eaaf:	ff ff ff 
    eab2:	48 8d 05 cf a5 00 00 	lea    0xa5cf(%rip),%rax        # 19088 <g_91>
    eab9:	48 89 85 b0 fa ff ff 	mov    %rax,-0x550(%rbp)
    eac0:	48 8d 05 c1 a5 00 00 	lea    0xa5c1(%rip),%rax        # 19088 <g_91>
    eac7:	48 89 85 b8 fa ff ff 	mov    %rax,-0x548(%rbp)
    eace:	48 8d 05 b3 a5 00 00 	lea    0xa5b3(%rip),%rax        # 19088 <g_91>
    ead5:	48 89 85 c0 fa ff ff 	mov    %rax,-0x540(%rbp)
    eadc:	48 8d 05 a5 a5 00 00 	lea    0xa5a5(%rip),%rax        # 19088 <g_91>
    eae3:	48 89 85 c8 fa ff ff 	mov    %rax,-0x538(%rbp)
    eaea:	48 8d 05 97 a5 00 00 	lea    0xa597(%rip),%rax        # 19088 <g_91>
    eaf1:	48 89 85 d0 fa ff ff 	mov    %rax,-0x530(%rbp)
    eaf8:	48 8d 05 89 a5 00 00 	lea    0xa589(%rip),%rax        # 19088 <g_91>
    eaff:	48 89 85 d8 fa ff ff 	mov    %rax,-0x528(%rbp)
    eb06:	48 8b 95 30 fa ff ff 	mov    -0x5d0(%rbp),%rdx
    eb0d:	48 8b 85 30 f9 ff ff 	mov    -0x6d0(%rbp),%rax
    eb14:	48 89 10             	mov    %rdx,(%rax)
    eb17:	48 8b 05 12 cf 00 00 	mov    0xcf12(%rip),%rax        # 1ba30 <g_149>
    eb1e:	48 8b 00             	mov    (%rax),%rax
    eb21:	8b 00                	mov    (%rax),%eax
    eb23:	85 c0                	test   %eax,%eax
    eb25:	0f 85 9b 03 00 00    	jne    eec6 <func_63+0x1c4d>
    eb2b:	48 8b 05 0e a8 00 00 	mov    0xa80e(%rip),%rax        # 19340 <g_195>
    eb32:	0f b7 d8             	movzwl %ax,%ebx
    eb35:	0f b7 05 68 a7 00 00 	movzwl 0xa768(%rip),%eax        # 192a4 <g_145+0x4>
    eb3c:	44 0f be e0          	movsbl %al,%r12d
    eb40:	8b 05 7a a6 00 00    	mov    0xa67a(%rip),%eax        # 191c0 <g_122>
    eb46:	44 0f be e8          	movsbl %al,%r13d
    eb4a:	48 8b 85 20 f8 ff ff 	mov    -0x7e0(%rbp),%rax
    eb51:	8b 00                	mov    (%rax),%eax
    eb53:	0f b7 c0             	movzwl %ax,%eax
    eb56:	be 06 00 00 00       	mov    $0x6,%esi
    eb5b:	89 c7                	mov    %eax,%edi
    eb5d:	e8 a4 92 ff ff       	callq  7e06 <safe_lshift_func_uint16_t_u_u>
    eb62:	8b 85 10 f8 ff ff    	mov    -0x7f0(%rbp),%eax
    eb68:	89 c2                	mov    %eax,%edx
    eb6a:	48 8b 85 28 f8 ff ff 	mov    -0x7d8(%rbp),%rax
    eb71:	88 10                	mov    %dl,(%rax)
    eb73:	48 8b 85 28 f8 ff ff 	mov    -0x7d8(%rbp),%rax
    eb7a:	0f b6 00             	movzbl (%rax),%eax
    eb7d:	0f b6 c0             	movzbl %al,%eax
    eb80:	39 85 e4 f7 ff ff    	cmp    %eax,-0x81c(%rbp)
    eb86:	0f 9d c0             	setge  %al
    eb89:	0f b6 c0             	movzbl %al,%eax
    eb8c:	39 85 58 f7 ff ff    	cmp    %eax,-0x8a8(%rbp)
    eb92:	0f 9c c0             	setl   %al
    eb95:	0f b6 c0             	movzbl %al,%eax
    eb98:	44 89 ee             	mov    %r13d,%esi
    eb9b:	89 c7                	mov    %eax,%edi
    eb9d:	e8 c8 86 ff ff       	callq  726a <safe_div_func_int8_t_s_s>
    eba2:	0f be c0             	movsbl %al,%eax
    eba5:	89 c6                	mov    %eax,%esi
    eba7:	bf c5 6b 00 00       	mov    $0x6bc5,%edi
    ebac:	e8 65 88 ff ff       	callq  7416 <safe_mod_func_int16_t_s_s>
    ebb1:	0f b7 c0             	movzwl %ax,%eax
    ebb4:	be 04 00 00 00       	mov    $0x4,%esi
    ebb9:	89 c7                	mov    %eax,%edi
    ebbb:	e8 5f 91 ff ff       	callq  7d1f <safe_sub_func_uint16_t_u_u>
    ebc0:	66 85 c0             	test   %ax,%ax
    ebc3:	74 07                	je     ebcc <func_63+0x1953>
    ebc5:	b8 01 00 00 00       	mov    $0x1,%eax
    ebca:	eb 05                	jmp    ebd1 <func_63+0x1958>
    ebcc:	b8 00 00 00 00       	mov    $0x0,%eax
    ebd1:	0f be c0             	movsbl %al,%eax
    ebd4:	44 89 e6             	mov    %r12d,%esi
    ebd7:	89 c7                	mov    %eax,%edi
    ebd9:	e8 53 86 ff ff       	callq  7231 <safe_mod_func_int8_t_s_s>
    ebde:	48 0f be c0          	movsbq %al,%rax
    ebe2:	48 c7 c6 f7 ff ff ff 	mov    $0xfffffffffffffff7,%rsi
    ebe9:	48 89 c7             	mov    %rax,%rdi
    ebec:	e8 b7 8c ff ff       	callq  78a8 <safe_sub_func_int64_t_s_s>
    ebf1:	66 89 85 14 f7 ff ff 	mov    %ax,-0x8ec(%rbp)
    ebf8:	0f b7 85 14 f7 ff ff 	movzwl -0x8ec(%rbp),%eax
    ebff:	0f b7 c0             	movzwl %ax,%eax
    ec02:	89 de                	mov    %ebx,%esi
    ec04:	89 c7                	mov    %eax,%edi
    ec06:	e8 f4 90 ff ff       	callq  7cff <safe_add_func_uint16_t_u_u>
    ec0b:	66 85 c0             	test   %ax,%ax
    ec0e:	74 16                	je     ec26 <func_63+0x19ad>
    ec10:	48 8b 95 30 fa ff ff 	mov    -0x5d0(%rbp),%rdx
    ec17:	48 8b 85 30 f9 ff ff 	mov    -0x6d0(%rbp),%rax
    ec1e:	48 89 10             	mov    %rdx,(%rax)
    ec21:	e9 f9 01 00 00       	jmpq   ee1f <func_63+0x1ba6>
    ec26:	66 c7 85 3e f7 ff ff 	movw   $0x5272,-0x8c2(%rbp)
    ec2d:	72 52 
    ec2f:	66 c7 05 6e a6 00 00 	movw   $0x0,0xa66e(%rip)        # 192a6 <g_145+0x6>
    ec36:	00 00 
    ec38:	e9 41 01 00 00       	jmpq   ed7e <func_63+0x1b05>
    ec3d:	c7 85 f0 f7 ff ff 8e 	movl   $0xf64ed68e,-0x810(%rbp)
    ec44:	d6 4e f6 
    ec47:	48 8d 85 a0 fc ff ff 	lea    -0x360(%rbp),%rax
    ec4e:	48 83 c0 18          	add    $0x18,%rax
    ec52:	48 89 85 38 f9 ff ff 	mov    %rax,-0x6c8(%rbp)
    ec59:	c7 85 6c f7 ff ff 00 	movl   $0x0,-0x894(%rbp)
    ec60:	00 00 00 
    ec63:	eb 49                	jmp    ecae <func_63+0x1a35>
    ec65:	c7 85 70 f7 ff ff 00 	movl   $0x0,-0x890(%rbp)
    ec6c:	00 00 00 
    ec6f:	eb 2d                	jmp    ec9e <func_63+0x1a25>
    ec71:	8b 85 70 f7 ff ff    	mov    -0x890(%rbp),%eax
    ec77:	48 98                	cltq   
    ec79:	8b 95 6c f7 ff ff    	mov    -0x894(%rbp),%edx
    ec7f:	48 63 d2             	movslq %edx,%rdx
    ec82:	48 01 d2             	add    %rdx,%rdx
    ec85:	48 01 d0             	add    %rdx,%rax
    ec88:	48 8d 15 f1 a3 00 00 	lea    0xa3f1(%rip),%rdx        # 19080 <g_88>
    ec8f:	48 89 94 c5 a0 fc ff 	mov    %rdx,-0x360(%rbp,%rax,8)
    ec96:	ff 
    ec97:	83 85 70 f7 ff ff 01 	addl   $0x1,-0x890(%rbp)
    ec9e:	83 bd 70 f7 ff ff 01 	cmpl   $0x1,-0x890(%rbp)
    eca5:	7e ca                	jle    ec71 <func_63+0x19f8>
    eca7:	83 85 6c f7 ff ff 01 	addl   $0x1,-0x894(%rbp)
    ecae:	83 bd 6c f7 ff ff 02 	cmpl   $0x2,-0x894(%rbp)
    ecb5:	7e ae                	jle    ec65 <func_63+0x19ec>
    ecb7:	48 8b 05 da a5 00 00 	mov    0xa5da(%rip),%rax        # 19298 <g_123+0x58>
    ecbe:	41 89 c4             	mov    %eax,%r12d
    ecc1:	0f b7 85 14 f7 ff ff 	movzwl -0x8ec(%rbp),%eax
    ecc8:	0f bf d8             	movswl %ax,%ebx
    eccb:	0f b7 85 14 f7 ff ff 	movzwl -0x8ec(%rbp),%eax
    ecd2:	0f b7 c0             	movzwl %ax,%eax
    ecd5:	48 8b 95 38 f9 ff ff 	mov    -0x6c8(%rbp),%rdx
    ecdc:	48 8d 0d 9d a3 00 00 	lea    0xa39d(%rip),%rcx        # 19080 <g_88>
    ece3:	48 89 0a             	mov    %rcx,(%rdx)
    ece6:	89 c6                	mov    %eax,%esi
    ece8:	bf 01 00 00 00       	mov    $0x1,%edi
    eced:	e8 9c 90 ff ff       	callq  7d8e <safe_div_func_uint16_t_u_u>
    ecf2:	48 8b 85 18 f7 ff ff 	mov    -0x8e8(%rbp),%rax
    ecf9:	8b 00                	mov    (%rax),%eax
    ecfb:	83 f8 fb             	cmp    $0xfffffffb,%eax
    ecfe:	0f 94 c0             	sete   %al
    ed01:	0f b6 c0             	movzbl %al,%eax
    ed04:	89 de                	mov    %ebx,%esi
    ed06:	89 c7                	mov    %eax,%edi
    ed08:	e8 48 87 ff ff       	callq  7455 <safe_div_func_int16_t_s_s>
    ed0d:	0f b7 05 92 a5 00 00 	movzwl 0xa592(%rip),%eax        # 192a6 <g_145+0x6>
    ed14:	98                   	cwtl   
    ed15:	48 63 c8             	movslq %eax,%rcx
    ed18:	8b 85 58 f7 ff ff    	mov    -0x8a8(%rbp),%eax
    ed1e:	48 63 d0             	movslq %eax,%rdx
    ed21:	48 89 d0             	mov    %rdx,%rax
    ed24:	48 01 c0             	add    %rax,%rax
    ed27:	48 01 d0             	add    %rdx,%rax
    ed2a:	48 01 c8             	add    %rcx,%rax
    ed2d:	48 8d 14 85 00 00 00 	lea    0x0(,%rax,4),%rdx
    ed34:	00 
    ed35:	48 8d 05 84 a4 00 00 	lea    0xa484(%rip),%rax        # 191c0 <g_122>
    ed3c:	8b 04 02             	mov    (%rdx,%rax,1),%eax
    ed3f:	f7 d0                	not    %eax
    ed41:	89 85 f0 f7 ff ff    	mov    %eax,-0x810(%rbp)
    ed47:	8b 85 f0 f7 ff ff    	mov    -0x810(%rbp),%eax
    ed4d:	0f b7 c0             	movzwl %ax,%eax
    ed50:	44 89 e6             	mov    %r12d,%esi
    ed53:	89 c7                	mov    %eax,%edi
    ed55:	e8 ac 90 ff ff       	callq  7e06 <safe_lshift_func_uint16_t_u_u>
    ed5a:	0f b7 c0             	movzwl %ax,%eax
    ed5d:	0d a9 26 b2 f0       	or     $0xf0b226a9,%eax
    ed62:	89 c2                	mov    %eax,%edx
    ed64:	48 8b 85 20 f8 ff ff 	mov    -0x7e0(%rbp),%rax
    ed6b:	89 10                	mov    %edx,(%rax)
    ed6d:	0f b7 05 32 a5 00 00 	movzwl 0xa532(%rip),%eax        # 192a6 <g_145+0x6>
    ed74:	83 c0 01             	add    $0x1,%eax
    ed77:	66 89 05 28 a5 00 00 	mov    %ax,0xa528(%rip)        # 192a6 <g_145+0x6>
    ed7e:	0f b7 05 21 a5 00 00 	movzwl 0xa521(%rip),%eax        # 192a6 <g_145+0x6>
    ed85:	66 83 f8 02          	cmp    $0x2,%ax
    ed89:	0f 8e ae fe ff ff    	jle    ec3d <func_63+0x19c4>
    ed8f:	66 c7 85 34 f7 ff ff 	movw   $0x0,-0x8cc(%rbp)
    ed96:	00 00 
    ed98:	eb 77                	jmp    ee11 <func_63+0x1b98>
    ed9a:	48 8b 85 20 f8 ff ff 	mov    -0x7e0(%rbp),%rax
    eda1:	8b 00                	mov    (%rax),%eax
    eda3:	48 8b 95 68 f8 ff ff 	mov    -0x798(%rbp),%rdx
    edaa:	09 c2                	or     %eax,%edx
    edac:	48 8b 85 20 f8 ff ff 	mov    -0x7e0(%rbp),%rax
    edb3:	89 10                	mov    %edx,(%rax)
    edb5:	48 8b 0d 34 cc 00 00 	mov    0xcc34(%rip),%rcx        # 1b9f0 <g_124>
    edbc:	48 8b 05 8d a5 00 00 	mov    0xa58d(%rip),%rax        # 19350 <g_309>
    edc3:	48 8b 15 8e a5 00 00 	mov    0xa58e(%rip),%rdx        # 19358 <g_309+0x8>
    edca:	48 89 01             	mov    %rax,(%rcx)
    edcd:	48 89 51 08          	mov    %rdx,0x8(%rcx)
    edd1:	48 8b 05 88 a5 00 00 	mov    0xa588(%rip),%rax        # 19360 <g_309+0x10>
    edd8:	48 89 41 10          	mov    %rax,0x10(%rcx)
    eddc:	48 8b 85 18 f7 ff ff 	mov    -0x8e8(%rbp),%rax
    ede3:	8b 00                	mov    (%rax),%eax
    ede5:	66 89 85 3e f7 ff ff 	mov    %ax,-0x8c2(%rbp)
    edec:	48 8b 15 45 cc 00 00 	mov    0xcc45(%rip),%rdx        # 1ba38 <g_244>
    edf3:	48 8b 05 46 cc 00 00 	mov    0xcc46(%rip),%rax        # 1ba40 <g_311>
    edfa:	48 8b 12             	mov    (%rdx),%rdx
    edfd:	48 89 10             	mov    %rdx,(%rax)
    ee00:	0f b7 85 34 f7 ff ff 	movzwl -0x8cc(%rbp),%eax
    ee07:	83 c0 01             	add    $0x1,%eax
    ee0a:	66 89 85 34 f7 ff ff 	mov    %ax,-0x8cc(%rbp)
    ee11:	66 83 bd 34 f7 ff ff 	cmpw   $0x3,-0x8cc(%rbp)
    ee18:	03 
    ee19:	0f 8e 7b ff ff ff    	jle    ed9a <func_63+0x1b21>
    ee1f:	0f b7 85 14 f7 ff ff 	movzwl -0x8ec(%rbp),%eax
    ee26:	0f b7 d0             	movzwl %ax,%edx
    ee29:	0f b7 05 74 a4 00 00 	movzwl 0xa474(%rip),%eax        # 192a4 <g_145+0x4>
    ee30:	98                   	cwtl   
    ee31:	39 c2                	cmp    %eax,%edx
    ee33:	0f 9c c0             	setl   %al
    ee36:	0f b6 d8             	movzbl %al,%ebx
    ee39:	8b 85 58 f7 ff ff    	mov    -0x8a8(%rbp),%eax
    ee3f:	0f b6 d0             	movzbl %al,%edx
    ee42:	8b 85 10 f8 ff ff    	mov    -0x7f0(%rbp),%eax
    ee48:	0f b6 c0             	movzbl %al,%eax
    ee4b:	89 d6                	mov    %edx,%esi
    ee4d:	89 c7                	mov    %eax,%edi
    ee4f:	e8 5a 8d ff ff       	callq  7bae <safe_mod_func_uint8_t_u_u>
    ee54:	0f b6 c0             	movzbl %al,%eax
    ee57:	39 c3                	cmp    %eax,%ebx
    ee59:	0f 95 c0             	setne  %al
    ee5c:	0f b6 d0             	movzbl %al,%edx
    ee5f:	48 8b 85 20 f8 ff ff 	mov    -0x7e0(%rbp),%rax
    ee66:	89 10                	mov    %edx,(%rax)
    ee68:	66 c7 05 33 a4 00 00 	movw   $0x1,0xa433(%rip)        # 192a4 <g_145+0x4>
    ee6f:	01 00 
    ee71:	eb 30                	jmp    eea3 <func_63+0x1c2a>
    ee73:	48 8d 85 10 f8 ff ff 	lea    -0x7f0(%rbp),%rax
    ee7a:	48 89 85 40 f9 ff ff 	mov    %rax,-0x6c0(%rbp)
    ee81:	48 8b 05 b0 cb 00 00 	mov    0xcbb0(%rip),%rax        # 1ba38 <g_244>
    ee88:	48 8b 00             	mov    (%rax),%rax
    ee8b:	48 89 85 40 f9 ff ff 	mov    %rax,-0x6c0(%rbp)
    ee92:	0f b7 05 0b a4 00 00 	movzwl 0xa40b(%rip),%eax        # 192a4 <g_145+0x4>
    ee99:	83 c0 01             	add    $0x1,%eax
    ee9c:	66 89 05 01 a4 00 00 	mov    %ax,0xa401(%rip)        # 192a4 <g_145+0x4>
    eea3:	0f b7 05 fa a3 00 00 	movzwl 0xa3fa(%rip),%eax        # 192a4 <g_145+0x4>
    eeaa:	66 83 f8 04          	cmp    $0x4,%ax
    eeae:	7e c3                	jle    ee73 <func_63+0x1bfa>
    eeb0:	83 85 58 f7 ff ff 01 	addl   $0x1,-0x8a8(%rbp)
    eeb7:	83 bd 58 f7 ff ff 08 	cmpl   $0x8,-0x8a8(%rbp)
    eebe:	0f 8e d6 fb ff ff    	jle    ea9a <func_63+0x1821>
    eec4:	eb 01                	jmp    eec7 <func_63+0x1c4e>
    eec6:	90                   	nop
    eec7:	8b 85 58 f7 ff ff    	mov    -0x8a8(%rbp),%eax
    eecd:	48 98                	cltq   
    eecf:	e9 0d 12 00 00       	jmpq   100e1 <func_63+0x2e68>
    eed4:	c7 85 9c f7 ff ff ff 	movl   $0xffffffff,-0x864(%rbp)
    eedb:	ff ff ff 
    eede:	c7 85 a0 f7 ff ff 05 	movl   $0x5,-0x860(%rbp)
    eee5:	00 00 00 
    eee8:	c7 85 a4 f7 ff ff b3 	movl   $0xae4061b3,-0x85c(%rbp)
    eeef:	61 40 ae 
    eef2:	48 8d 45 c1          	lea    -0x3f(%rbp),%rax
    eef6:	48 83 c0 03          	add    $0x3,%rax
    eefa:	48 89 85 88 f8 ff ff 	mov    %rax,-0x778(%rbp)
    ef01:	66 c7 85 3a f7 ff ff 	movw   $0xc58b,-0x8c6(%rbp)
    ef08:	8b c5 
    ef0a:	48 c7 85 90 f8 ff ff 	movq   $0x0,-0x770(%rbp)
    ef11:	00 00 00 00 
    ef15:	0f b7 05 6c a1 00 00 	movzwl 0xa16c(%rip),%eax        # 19088 <g_91>
    ef1c:	8d 50 01             	lea    0x1(%rax),%edx
    ef1f:	66 89 15 62 a1 00 00 	mov    %dx,0xa162(%rip)        # 19088 <g_91>
    ef26:	0f b7 d0             	movzwl %ax,%edx
    ef29:	0f b7 85 14 f7 ff ff 	movzwl -0x8ec(%rbp),%eax
    ef30:	98                   	cwtl   
    ef31:	89 d6                	mov    %edx,%esi
    ef33:	89 c7                	mov    %eax,%edi
    ef35:	e8 29 86 ff ff       	callq  7563 <safe_rshift_func_int16_t_s_u>
    ef3a:	0f bf d0             	movswl %ax,%edx
    ef3d:	48 8b 85 20 f8 ff ff 	mov    -0x7e0(%rbp),%rax
    ef44:	89 10                	mov    %edx,(%rax)
    ef46:	c7 05 ec a3 00 00 00 	movl   $0x0,0xa3ec(%rip)        # 1933c <g_193>
    ef4d:	00 00 00 
    ef50:	e9 d2 00 00 00       	jmpq   f027 <func_63+0x1dae>
    ef55:	48 8d 05 2c a3 00 00 	lea    0xa32c(%rip),%rax        # 19288 <g_123+0x48>
    ef5c:	48 89 85 e8 f8 ff ff 	mov    %rax,-0x718(%rbp)
    ef63:	c7 85 dc f7 ff ff 4b 	movl   $0x34cf7a4b,-0x824(%rbp)
    ef6a:	7a cf 34 
    ef6d:	48 8d 05 14 a1 00 00 	lea    0xa114(%rip),%rax        # 19088 <g_91>
    ef74:	48 89 85 f0 f8 ff ff 	mov    %rax,-0x710(%rbp)
    ef7b:	48 8d 85 c0 fb ff ff 	lea    -0x440(%rbp),%rax
    ef82:	48 05 a8 00 00 00    	add    $0xa8,%rax
    ef88:	48 89 85 f8 f8 ff ff 	mov    %rax,-0x708(%rbp)
    ef8f:	c7 85 e0 f7 ff ff 8d 	movl   $0x818ffb8d,-0x820(%rbp)
    ef96:	fb 8f 81 
    ef99:	48 c7 85 00 f9 ff ff 	movq   $0x0,-0x700(%rbp)
    efa0:	00 00 00 00 
    efa4:	48 8d 05 fd a3 00 00 	lea    0xa3fd(%rip),%rax        # 193a8 <g_505>
    efab:	48 89 85 a0 fc ff ff 	mov    %rax,-0x360(%rbp)
    efb2:	48 8d 05 ef a3 00 00 	lea    0xa3ef(%rip),%rax        # 193a8 <g_505>
    efb9:	48 89 85 a8 fc ff ff 	mov    %rax,-0x358(%rbp)
    efc0:	48 8d 05 e1 a3 00 00 	lea    0xa3e1(%rip),%rax        # 193a8 <g_505>
    efc7:	48 89 85 b0 fc ff ff 	mov    %rax,-0x350(%rbp)
    efce:	48 8d 05 d3 a3 00 00 	lea    0xa3d3(%rip),%rax        # 193a8 <g_505>
    efd5:	48 89 85 b8 fc ff ff 	mov    %rax,-0x348(%rbp)
    efdc:	48 8d 05 c5 a3 00 00 	lea    0xa3c5(%rip),%rax        # 193a8 <g_505>
    efe3:	48 89 85 c0 fc ff ff 	mov    %rax,-0x340(%rbp)
    efea:	48 8d 05 b7 a3 00 00 	lea    0xa3b7(%rip),%rax        # 193a8 <g_505>
    eff1:	48 89 85 c8 fc ff ff 	mov    %rax,-0x338(%rbp)
    eff8:	48 8d 05 a9 a3 00 00 	lea    0xa3a9(%rip),%rax        # 193a8 <g_505>
    efff:	48 89 85 d0 fc ff ff 	mov    %rax,-0x330(%rbp)
    f006:	48 8d 85 a0 fc ff ff 	lea    -0x360(%rbp),%rax
    f00d:	48 83 c0 08          	add    $0x8,%rax
    f011:	48 89 85 08 f9 ff ff 	mov    %rax,-0x6f8(%rbp)
    f018:	8b 05 1e a3 00 00    	mov    0xa31e(%rip),%eax        # 1933c <g_193>
    f01e:	83 c0 01             	add    $0x1,%eax
    f021:	89 05 15 a3 00 00    	mov    %eax,0xa315(%rip)        # 1933c <g_193>
    f027:	8b 05 0f a3 00 00    	mov    0xa30f(%rip),%eax        # 1933c <g_193>
    f02d:	83 f8 08             	cmp    $0x8,%eax
    f030:	0f 86 1f ff ff ff    	jbe    ef55 <func_63+0x1cdc>
    f036:	90                   	nop
    f037:	c6 85 2f f7 ff ff 00 	movb   $0x0,-0x8d1(%rbp)
    f03e:	eb 38                	jmp    f078 <func_63+0x1dff>
    f040:	48 c7 05 45 a3 00 00 	movq   $0x0,0xa345(%rip)        # 19390 <g_417>
    f047:	00 00 00 00 
    f04b:	90                   	nop
    f04c:	48 8b 05 3d a3 00 00 	mov    0xa33d(%rip),%rax        # 19390 <g_417>
    f053:	48 83 f8 08          	cmp    $0x8,%rax
    f057:	77 0f                	ja     f068 <func_63+0x1def>
    f059:	0f b7 85 14 f7 ff ff 	movzwl -0x8ec(%rbp),%eax
    f060:	0f b7 c0             	movzwl %ax,%eax
    f063:	e9 79 10 00 00       	jmpq   100e1 <func_63+0x2e68>
    f068:	0f b6 85 2f f7 ff ff 	movzbl -0x8d1(%rbp),%eax
    f06f:	83 c0 01             	add    $0x1,%eax
    f072:	88 85 2f f7 ff ff    	mov    %al,-0x8d1(%rbp)
    f078:	80 bd 2f f7 ff ff 08 	cmpb   $0x8,-0x8d1(%rbp)
    f07f:	7e bf                	jle    f040 <func_63+0x1dc7>
    f081:	0f b7 85 14 f7 ff ff 	movzwl -0x8ec(%rbp),%eax
    f088:	0f b7 d8             	movzwl %ax,%ebx
    f08b:	8b 05 3b a3 00 00    	mov    0xa33b(%rip),%eax        # 193cc <g_531>
    f091:	48 98                	cltq   
    f093:	8b 15 17 a3 00 00    	mov    0xa317(%rip),%edx        # 193b0 <g_511>
    f099:	89 d2                	mov    %edx,%edx
    f09b:	48 89 c6             	mov    %rax,%rsi
    f09e:	48 89 d7             	mov    %rdx,%rdi
    f0a1:	e8 da 8f ff ff       	callq  8080 <safe_mod_func_uint64_t_u_u>
    f0a6:	48 8b 95 18 f7 ff ff 	mov    -0x8e8(%rbp),%rdx
    f0ad:	8b 12                	mov    (%rdx),%edx
    f0af:	48 63 d2             	movslq %edx,%rdx
    f0b2:	48 39 d0             	cmp    %rdx,%rax
    f0b5:	77 07                	ja     f0be <func_63+0x1e45>
    f0b7:	b8 01 00 00 00       	mov    $0x1,%eax
    f0bc:	eb 05                	jmp    f0c3 <func_63+0x1e4a>
    f0be:	b8 00 00 00 00       	mov    $0x0,%eax
    f0c3:	98                   	cwtl   
    f0c4:	be 0c 00 00 00       	mov    $0xc,%esi
    f0c9:	89 c7                	mov    %eax,%edi
    f0cb:	e8 93 84 ff ff       	callq  7563 <safe_rshift_func_int16_t_s_u>
    f0d0:	98                   	cwtl   
    f0d1:	89 85 10 f7 ff ff    	mov    %eax,-0x8f0(%rbp)
    f0d7:	0f b7 85 14 f7 ff ff 	movzwl -0x8ec(%rbp),%eax
    f0de:	44 0f b7 e0          	movzwl %ax,%r12d
    f0e2:	0f b7 85 14 f7 ff ff 	movzwl -0x8ec(%rbp),%eax
    f0e9:	44 0f b7 e8          	movzwl %ax,%r13d
    f0ed:	8b 85 84 f7 ff ff    	mov    -0x87c(%rbp),%eax
    f0f3:	44 0f b6 f0          	movzbl %al,%r14d
    f0f7:	48 8b 85 20 f8 ff ff 	mov    -0x7e0(%rbp),%rax
    f0fe:	8b 00                	mov    (%rax),%eax
    f100:	44 0f b6 f8          	movzbl %al,%r15d
    f104:	48 8b 05 1d c9 00 00 	mov    0xc91d(%rip),%rax        # 1ba28 <g_150>
    f10b:	8b 38                	mov    (%rax),%edi
    f10d:	89 bd 0c f7 ff ff    	mov    %edi,-0x8f4(%rbp)
    f113:	0f b7 85 14 f7 ff ff 	movzwl -0x8ec(%rbp),%eax
    f11a:	0f b7 d0             	movzwl %ax,%edx
    f11d:	48 89 95 00 f7 ff ff 	mov    %rdx,-0x900(%rbp)
    f124:	48 8b 85 20 f8 ff ff 	mov    -0x7e0(%rbp),%rax
    f12b:	8b 00                	mov    (%rax),%eax
    f12d:	0f be d0             	movsbl %al,%edx
    f130:	48 8b 85 60 f8 ff ff 	mov    -0x7a0(%rbp),%rax
    f137:	8b 00                	mov    (%rax),%eax
    f139:	8d 70 01             	lea    0x1(%rax),%esi
    f13c:	48 8b 8d 60 f8 ff ff 	mov    -0x7a0(%rbp),%rcx
    f143:	89 31                	mov    %esi,(%rcx)
    f145:	89 c1                	mov    %eax,%ecx
    f147:	48 8b 85 18 f7 ff ff 	mov    -0x8e8(%rbp),%rax
    f14e:	8b 00                	mov    (%rax),%eax
    f150:	09 c8                	or     %ecx,%eax
    f152:	0f be c0             	movsbl %al,%eax
    f155:	89 d6                	mov    %edx,%esi
    f157:	89 c7                	mov    %eax,%edi
    f159:	e8 76 80 ff ff       	callq  71d4 <safe_add_func_int8_t_s_s>
    f15e:	48 8b 85 20 f8 ff ff 	mov    -0x7e0(%rbp),%rax
    f165:	8b 00                	mov    (%rax),%eax
    f167:	be 00 00 00 00       	mov    $0x0,%esi
    f16c:	89 c7                	mov    %eax,%edi
    f16e:	e8 8a 8d ff ff       	callq  7efd <safe_mod_func_uint32_t_u_u>
    f173:	0f be 95 31 f7 ff ff 	movsbl -0x8cf(%rbp),%edx
    f17a:	39 d0                	cmp    %edx,%eax
    f17c:	0f 95 c0             	setne  %al
    f17f:	0f b6 c0             	movzbl %al,%eax
    f182:	be 01 00 00 00       	mov    $0x1,%esi
    f187:	89 c7                	mov    %eax,%edi
    f189:	e8 4d 8a ff ff       	callq  7bdb <safe_div_func_uint8_t_u_u>
    f18e:	0f b7 95 14 f7 ff ff 	movzwl -0x8ec(%rbp),%edx
    f195:	21 d0                	and    %edx,%eax
    f197:	88 05 12 9f 00 00    	mov    %al,0x9f12(%rip)        # 190af <g_105+0xf>
    f19d:	c7 85 44 f7 ff ff 00 	movl   $0x0,-0x8bc(%rbp)
    f1a4:	00 00 00 
    f1a7:	8b 85 44 f7 ff ff    	mov    -0x8bc(%rbp),%eax
    f1ad:	be ff ff ff ff       	mov    $0xffffffff,%esi
    f1b2:	89 c7                	mov    %eax,%edi
    f1b4:	e8 ff 8c ff ff       	callq  7eb8 <safe_add_func_uint32_t_u_u>
    f1b9:	0f b7 85 14 f7 ff ff 	movzwl -0x8ec(%rbp),%eax
    f1c0:	0f b7 c0             	movzwl %ax,%eax
    f1c3:	48 8b b5 00 f7 ff ff 	mov    -0x900(%rbp),%rsi
    f1ca:	48 89 c7             	mov    %rax,%rdi
    f1cd:	e8 25 88 ff ff       	callq  79f7 <safe_div_func_int64_t_s_s>
    f1d2:	8b b5 0c f7 ff ff    	mov    -0x8f4(%rbp),%esi
    f1d8:	89 c7                	mov    %eax,%edi
    f1da:	e8 ed 84 ff ff       	callq  76cc <safe_mod_func_int32_t_s_s>
    f1df:	b9 01 00 00 00       	mov    $0x1,%ecx
    f1e4:	48 8b 85 50 f8 ff ff 	mov    -0x7b0(%rbp),%rax
    f1eb:	0f b6 00             	movzbl (%rax),%eax
    f1ee:	89 c2                	mov    %eax,%edx
    f1f0:	89 c8                	mov    %ecx,%eax
    f1f2:	21 d0                	and    %edx,%eax
    f1f4:	89 c2                	mov    %eax,%edx
    f1f6:	48 8b 85 50 f8 ff ff 	mov    -0x7b0(%rbp),%rax
    f1fd:	88 10                	mov    %dl,(%rax)
    f1ff:	48 8b 85 50 f8 ff ff 	mov    -0x7b0(%rbp),%rax
    f206:	0f b6 00             	movzbl (%rax),%eax
    f209:	0f b6 c0             	movzbl %al,%eax
    f20c:	44 89 fe             	mov    %r15d,%esi
    f20f:	89 c7                	mov    %eax,%edi
    f211:	e8 62 89 ff ff       	callq  7b78 <safe_sub_func_uint8_t_u_u>
    f216:	0f b6 c0             	movzbl %al,%eax
    f219:	44 89 f6             	mov    %r14d,%esi
    f21c:	89 c7                	mov    %eax,%edi
    f21e:	e8 70 89 ff ff       	callq  7b93 <safe_mul_func_uint8_t_u_u>
    f223:	44 89 ee             	mov    %r13d,%esi
    f226:	bf 01 00 00 00       	mov    $0x1,%edi
    f22b:	e8 86 83 ff ff       	callq  75b6 <safe_add_func_int32_t_s_s>
    f230:	48 98                	cltq   
    f232:	4c 89 e6             	mov    %r12,%rsi
    f235:	48 89 c7             	mov    %rax,%rdi
    f238:	e8 43 8e ff ff       	callq  8080 <safe_mod_func_uint64_t_u_u>
    f23d:	0f b7 05 56 a1 00 00 	movzwl 0xa156(%rip),%eax        # 1939a <g_487>
    f244:	89 c2                	mov    %eax,%edx
    f246:	48 8b 85 80 f8 ff ff 	mov    -0x780(%rbp),%rax
    f24d:	88 10                	mov    %dl,(%rax)
    f24f:	48 8b 85 80 f8 ff ff 	mov    -0x780(%rbp),%rax
    f256:	0f b6 10             	movzbl (%rax),%edx
    f259:	0f b6 05 38 a1 00 00 	movzbl 0xa138(%rip),%eax        # 19398 <g_441>
    f260:	38 c2                	cmp    %al,%dl
    f262:	0f 94 c0             	sete   %al
    f265:	0f b6 c0             	movzbl %al,%eax
    f268:	39 85 10 f7 ff ff    	cmp    %eax,-0x8f0(%rbp)
    f26e:	7c 07                	jl     f277 <func_63+0x1ffe>
    f270:	b8 01 00 00 00       	mov    $0x1,%eax
    f275:	eb 05                	jmp    f27c <func_63+0x2003>
    f277:	b8 00 00 00 00       	mov    $0x0,%eax
    f27c:	89 de                	mov    %ebx,%esi
    f27e:	89 c7                	mov    %eax,%edi
    f280:	e8 39 8b ff ff       	callq  7dbe <safe_lshift_func_uint16_t_u_s>
    f285:	66 85 c0             	test   %ax,%ax
    f288:	74 13                	je     f29d <func_63+0x2024>
    f28a:	0f b7 85 6a fb ff ff 	movzwl -0x496(%rbp),%eax
    f291:	66 85 c0             	test   %ax,%ax
    f294:	74 07                	je     f29d <func_63+0x2024>
    f296:	b8 01 00 00 00       	mov    $0x1,%eax
    f29b:	eb 05                	jmp    f2a2 <func_63+0x2029>
    f29d:	b8 00 00 00 00       	mov    $0x0,%eax
    f2a2:	be ff ff ff ff       	mov    $0xffffffff,%esi
    f2a7:	89 c7                	mov    %eax,%edi
    f2a9:	e8 57 83 ff ff       	callq  7605 <safe_sub_func_int32_t_s_s>
    f2ae:	85 c0                	test   %eax,%eax
    f2b0:	75 0b                	jne    f2bd <func_63+0x2044>
    f2b2:	0f b6 05 43 a0 00 00 	movzbl 0xa043(%rip),%eax        # 192fc <g_164+0x3c>
    f2b9:	84 c0                	test   %al,%al
    f2bb:	74 13                	je     f2d0 <func_63+0x2057>
    f2bd:	8b 05 b1 9d 00 00    	mov    0x9db1(%rip),%eax        # 19074 <g_40>
    f2c3:	85 c0                	test   %eax,%eax
    f2c5:	0f 84 ff 0d 00 00    	je     100ca <func_63+0x2e51>
    f2cb:	e9 67 fd ff ff       	jmpq   f037 <func_63+0x1dbe>
    f2d0:	48 8d 05 b9 a0 00 00 	lea    0xa0b9(%rip),%rax        # 19390 <g_417>
    f2d7:	48 89 85 98 f8 ff ff 	mov    %rax,-0x768(%rbp)
    f2de:	c7 85 74 f7 ff ff 00 	movl   $0x0,-0x88c(%rbp)
    f2e5:	00 00 00 
    f2e8:	c7 85 a8 f7 ff ff 62 	movl   $0x9da52f62,-0x858(%rbp)
    f2ef:	2f a5 9d 
    f2f2:	c7 85 ac f7 ff ff df 	movl   $0x4e3347df,-0x854(%rbp)
    f2f9:	47 33 4e 
    f2fc:	c7 85 b0 f7 ff ff b9 	movl   $0x51ca1db9,-0x850(%rbp)
    f303:	1d ca 51 
    f306:	c7 85 b4 f7 ff ff 9d 	movl   $0x165ba99d,-0x84c(%rbp)
    f30d:	a9 5b 16 
    f310:	c7 85 b8 f7 ff ff 54 	movl   $0xfef32754,-0x848(%rbp)
    f317:	27 f3 fe 
    f31a:	0f b6 05 db 9f 00 00 	movzbl 0x9fdb(%rip),%eax        # 192fc <g_164+0x3c>
    f321:	0f b6 d8             	movzbl %al,%ebx
    f324:	0f b7 85 14 f7 ff ff 	movzwl -0x8ec(%rbp),%eax
    f32b:	0f b6 c0             	movzbl %al,%eax
    f32e:	89 c6                	mov    %eax,%esi
    f330:	bf 5c 00 00 00       	mov    $0x5c,%edi
    f335:	e8 59 88 ff ff       	callq  7b93 <safe_mul_func_uint8_t_u_u>
    f33a:	0f b7 95 8a fb ff ff 	movzwl -0x476(%rbp),%edx
    f341:	48 8b 05 98 c6 00 00 	mov    0xc698(%rip),%rax        # 1b9e0 <g_39>
    f348:	0f b7 d2             	movzwl %dx,%edx
    f34b:	89 10                	mov    %edx,(%rax)
    f34d:	8b 00                	mov    (%rax),%eax
    f34f:	85 c0                	test   %eax,%eax
    f351:	0f 84 bf 00 00 00    	je     f416 <func_63+0x219d>
    f357:	48 8b 05 e2 c6 00 00 	mov    0xc6e2(%rip),%rax        # 1ba40 <g_311>
    f35e:	48 8b 00             	mov    (%rax),%rax
    f361:	8b 00                	mov    (%rax),%eax
    f363:	41 89 c5             	mov    %eax,%r13d
    f366:	0f b7 85 74 fb ff ff 	movzwl -0x48c(%rbp),%eax
    f36d:	44 0f bf e0          	movswl %ax,%r12d
    f371:	0f b7 85 14 f7 ff ff 	movzwl -0x8ec(%rbp),%eax
    f378:	0f b7 d0             	movzwl %ax,%edx
    f37b:	0f b6 05 d4 9c 00 00 	movzbl 0x9cd4(%rip),%eax        # 19056 <g_8+0x16>
    f382:	48 0f be c0          	movsbq %al,%rax
    f386:	48 89 d6             	mov    %rdx,%rsi
    f389:	48 89 c7             	mov    %rax,%rdi
    f38c:	e8 9d 8c ff ff       	callq  802e <safe_add_func_uint64_t_u_u>
    f391:	89 c2                	mov    %eax,%edx
    f393:	0f b6 05 f0 9c 00 00 	movzbl 0x9cf0(%rip),%eax        # 1908a <g_98>
    f39a:	66 98                	cbtw   
    f39c:	09 d0                	or     %edx,%eax
    f39e:	98                   	cwtl   
    f39f:	44 89 e6             	mov    %r12d,%esi
    f3a2:	89 c7                	mov    %eax,%edi
    f3a4:	e8 0a 80 ff ff       	callq  73b3 <safe_add_func_int16_t_s_s>
    f3a9:	48 0f bf d0          	movswq %ax,%rdx
    f3ad:	48 8b 85 98 f8 ff ff 	mov    -0x768(%rbp),%rax
    f3b4:	48 89 10             	mov    %rdx,(%rax)
    f3b7:	48 8b 85 98 f8 ff ff 	mov    -0x768(%rbp),%rax
    f3be:	48 8b 00             	mov    (%rax),%rax
    f3c1:	83 e0 f7             	and    $0xfffffff7,%eax
    f3c4:	44 89 ee             	mov    %r13d,%esi
    f3c7:	89 c7                	mov    %eax,%edi
    f3c9:	e8 02 8b ff ff       	callq  7ed0 <safe_sub_func_uint32_t_u_u>
    f3ce:	83 f0 01             	xor    $0x1,%eax
    f3d1:	0f be c0             	movsbl %al,%eax
    f3d4:	be 00 00 00 00       	mov    $0x0,%esi
    f3d9:	89 c7                	mov    %eax,%edi
    f3db:	e8 32 7e ff ff       	callq  7212 <safe_mul_func_int8_t_s_s>
    f3e0:	8b 85 5c f7 ff ff    	mov    -0x8a4(%rbp),%eax
    f3e6:	89 c2                	mov    %eax,%edx
    f3e8:	48 8b 85 80 f8 ff ff 	mov    -0x780(%rbp),%rax
    f3ef:	88 10                	mov    %dl,(%rax)
    f3f1:	48 8b 85 80 f8 ff ff 	mov    -0x780(%rbp),%rax
    f3f8:	0f b6 00             	movzbl (%rax),%eax
    f3fb:	0f b6 c0             	movzbl %al,%eax
    f3fe:	be 02 00 00 00       	mov    $0x2,%esi
    f403:	89 c7                	mov    %eax,%edi
    f405:	e8 6e 87 ff ff       	callq  7b78 <safe_sub_func_uint8_t_u_u>
    f40a:	b8 00 00 00 00       	mov    $0x0,%eax
    f40f:	21 85 74 f7 ff ff    	and    %eax,-0x88c(%rbp)
    f415:	90                   	nop
    f416:	0f b7 85 14 f7 ff ff 	movzwl -0x8ec(%rbp),%eax
    f41d:	0f b7 c0             	movzwl %ax,%eax
    f420:	be ff ff 00 00       	mov    $0xffff,%esi
    f425:	89 c7                	mov    %eax,%edi
    f427:	e8 30 89 ff ff       	callq  7d5c <safe_mod_func_uint16_t_u_u>
    f42c:	0f b7 d0             	movzwl %ax,%edx
    f42f:	0f be 85 31 f7 ff ff 	movsbl -0x8cf(%rbp),%eax
    f436:	39 c2                	cmp    %eax,%edx
    f438:	0f 94 c0             	sete   %al
    f43b:	44 0f b6 e0          	movzbl %al,%r12d
    f43f:	48 be 30 7c 0e 27 3d 	movabs $0xa4f7b63d270e7c30,%rsi
    f446:	b6 f7 a4 
    f449:	bf 00 00 00 00       	mov    $0x0,%edi
    f44e:	e8 ee 83 ff ff       	callq  7841 <safe_add_func_int64_t_s_s>
    f453:	0f b6 c0             	movzbl %al,%eax
    f456:	44 89 e6             	mov    %r12d,%esi
    f459:	89 c7                	mov    %eax,%edi
    f45b:	e8 18 87 ff ff       	callq  7b78 <safe_sub_func_uint8_t_u_u>
    f460:	84 c0                	test   %al,%al
    f462:	74 0a                	je     f46e <func_63+0x21f5>
    f464:	48 8b 05 4d 9f 00 00 	mov    0x9f4d(%rip),%rax        # 193b8 <g_511+0x8>
    f46b:	48 85 c0             	test   %rax,%rax
    f46e:	8b 85 4c f7 ff ff    	mov    -0x8b4(%rbp),%eax
    f474:	f7 d0                	not    %eax
    f476:	0f be c0             	movsbl %al,%eax
    f479:	89 de                	mov    %ebx,%esi
    f47b:	89 c7                	mov    %eax,%edi
    f47d:	e8 b3 7e ff ff       	callq  7335 <safe_rshift_func_int8_t_s_s>
    f482:	48 0f be d0          	movsbq %al,%rdx
    f486:	0f b7 85 14 f7 ff ff 	movzwl -0x8ec(%rbp),%eax
    f48d:	0f b7 c0             	movzwl %ax,%eax
    f490:	48 89 d6             	mov    %rdx,%rsi
    f493:	48 89 c7             	mov    %rax,%rdi
    f496:	e8 93 8b ff ff       	callq  802e <safe_add_func_uint64_t_u_u>
    f49b:	48 85 c0             	test   %rax,%rax
    f49e:	74 14                	je     f4b4 <func_63+0x223b>
    f4a0:	0f b6 05 91 9e 00 00 	movzbl 0x9e91(%rip),%eax        # 19338 <g_170>
    f4a7:	84 c0                	test   %al,%al
    f4a9:	0f 84 1b 0c 00 00    	je     100ca <func_63+0x2e51>
    f4af:	e9 83 fb ff ff       	jmpq   f037 <func_63+0x1dbe>
    f4b4:	48 c7 85 a0 fc ff ff 	movq   $0x0,-0x360(%rbp)
    f4bb:	00 00 00 00 
    f4bf:	48 8d 05 e2 9e 00 00 	lea    0x9ee2(%rip),%rax        # 193a8 <g_505>
    f4c6:	48 89 85 a8 fc ff ff 	mov    %rax,-0x358(%rbp)
    f4cd:	48 c7 85 b0 fc ff ff 	movq   $0x0,-0x350(%rbp)
    f4d4:	00 00 00 00 
    f4d8:	48 8d 85 4c f7 ff ff 	lea    -0x8b4(%rbp),%rax
    f4df:	48 89 85 b8 fc ff ff 	mov    %rax,-0x348(%rbp)
    f4e6:	48 c7 85 c0 fc ff ff 	movq   $0x0,-0x340(%rbp)
    f4ed:	00 00 00 00 
    f4f1:	48 c7 85 c8 fc ff ff 	movq   $0x0,-0x338(%rbp)
    f4f8:	00 00 00 00 
    f4fc:	48 8d 85 4c f7 ff ff 	lea    -0x8b4(%rbp),%rax
    f503:	48 89 85 d0 fc ff ff 	mov    %rax,-0x330(%rbp)
    f50a:	48 c7 85 d8 fc ff ff 	movq   $0x0,-0x328(%rbp)
    f511:	00 00 00 00 
    f515:	48 8d 05 8c 9e 00 00 	lea    0x9e8c(%rip),%rax        # 193a8 <g_505>
    f51c:	48 89 85 e0 fc ff ff 	mov    %rax,-0x320(%rbp)
    f523:	48 c7 85 e8 fc ff ff 	movq   $0x0,-0x318(%rbp)
    f52a:	00 00 00 00 
    f52e:	48 c7 85 f0 fc ff ff 	movq   $0x0,-0x310(%rbp)
    f535:	00 00 00 00 
    f539:	48 c7 85 f8 fc ff ff 	movq   $0x0,-0x308(%rbp)
    f540:	00 00 00 00 
    f544:	48 8d 85 40 f7 ff ff 	lea    -0x8c0(%rbp),%rax
    f54b:	48 89 85 00 fd ff ff 	mov    %rax,-0x300(%rbp)
    f552:	48 8d 05 c7 d7 00 00 	lea    0xd7c7(%rip),%rax        # 1cd20 <g_506>
    f559:	48 89 85 08 fd ff ff 	mov    %rax,-0x2f8(%rbp)
    f560:	48 8d 85 44 f7 ff ff 	lea    -0x8bc(%rbp),%rax
    f567:	48 89 85 10 fd ff ff 	mov    %rax,-0x2f0(%rbp)
    f56e:	48 8d 85 4c f7 ff ff 	lea    -0x8b4(%rbp),%rax
    f575:	48 89 85 18 fd ff ff 	mov    %rax,-0x2e8(%rbp)
    f57c:	48 8d 05 9d d7 00 00 	lea    0xd79d(%rip),%rax        # 1cd20 <g_506>
    f583:	48 89 85 20 fd ff ff 	mov    %rax,-0x2e0(%rbp)
    f58a:	48 8d 85 10 fe ff ff 	lea    -0x1f0(%rbp),%rax
    f591:	48 05 98 01 00 00    	add    $0x198,%rax
    f597:	48 89 85 28 fd ff ff 	mov    %rax,-0x2d8(%rbp)
    f59e:	48 8d 85 44 f7 ff ff 	lea    -0x8bc(%rbp),%rax
    f5a5:	48 89 85 30 fd ff ff 	mov    %rax,-0x2d0(%rbp)
    f5ac:	48 c7 85 38 fd ff ff 	movq   $0x0,-0x2c8(%rbp)
    f5b3:	00 00 00 00 
    f5b7:	48 8d 05 62 d7 00 00 	lea    0xd762(%rip),%rax        # 1cd20 <g_506>
    f5be:	48 89 85 40 fd ff ff 	mov    %rax,-0x2c0(%rbp)
    f5c5:	48 8d 05 dc 9d 00 00 	lea    0x9ddc(%rip),%rax        # 193a8 <g_505>
    f5cc:	48 89 85 48 fd ff ff 	mov    %rax,-0x2b8(%rbp)
    f5d3:	48 8d 85 40 f7 ff ff 	lea    -0x8c0(%rbp),%rax
    f5da:	48 89 85 50 fd ff ff 	mov    %rax,-0x2b0(%rbp)
    f5e1:	48 8d 05 c0 9d 00 00 	lea    0x9dc0(%rip),%rax        # 193a8 <g_505>
    f5e8:	48 89 85 58 fd ff ff 	mov    %rax,-0x2a8(%rbp)
    f5ef:	48 8d 05 2a d7 00 00 	lea    0xd72a(%rip),%rax        # 1cd20 <g_506>
    f5f6:	48 89 85 60 fd ff ff 	mov    %rax,-0x2a0(%rbp)
    f5fd:	48 c7 85 68 fd ff ff 	movq   $0x0,-0x298(%rbp)
    f604:	00 00 00 00 
    f608:	48 8d 85 44 f7 ff ff 	lea    -0x8bc(%rbp),%rax
    f60f:	48 89 85 70 fd ff ff 	mov    %rax,-0x290(%rbp)
    f616:	48 8d 05 03 d7 00 00 	lea    0xd703(%rip),%rax        # 1cd20 <g_506>
    f61d:	48 89 85 78 fd ff ff 	mov    %rax,-0x288(%rbp)
    f624:	48 c7 85 80 fd ff ff 	movq   $0x0,-0x280(%rbp)
    f62b:	00 00 00 00 
    f62f:	48 c7 85 88 fd ff ff 	movq   $0x0,-0x278(%rbp)
    f636:	00 00 00 00 
    f63a:	48 8d 85 40 f7 ff ff 	lea    -0x8c0(%rbp),%rax
    f641:	48 89 85 90 fd ff ff 	mov    %rax,-0x270(%rbp)
    f648:	48 8d 85 4c f7 ff ff 	lea    -0x8b4(%rbp),%rax
    f64f:	48 89 85 98 fd ff ff 	mov    %rax,-0x268(%rbp)
    f656:	48 8d 05 4b 9d 00 00 	lea    0x9d4b(%rip),%rax        # 193a8 <g_505>
    f65d:	48 89 85 a0 fd ff ff 	mov    %rax,-0x260(%rbp)
    f664:	48 8d 05 09 9a 00 00 	lea    0x9a09(%rip),%rax        # 19074 <g_40>
    f66b:	48 89 85 a8 fd ff ff 	mov    %rax,-0x258(%rbp)
    f672:	48 c7 85 b0 fd ff ff 	movq   $0x0,-0x250(%rbp)
    f679:	00 00 00 00 
    f67d:	48 c7 85 b8 fd ff ff 	movq   $0x0,-0x248(%rbp)
    f684:	00 00 00 00 
    f688:	48 c7 85 c0 fd ff ff 	movq   $0x0,-0x240(%rbp)
    f68f:	00 00 00 00 
    f693:	48 8d 05 0e 9d 00 00 	lea    0x9d0e(%rip),%rax        # 193a8 <g_505>
    f69a:	48 89 85 c8 fd ff ff 	mov    %rax,-0x238(%rbp)
    f6a1:	48 8d 85 44 f7 ff ff 	lea    -0x8bc(%rbp),%rax
    f6a8:	48 89 85 d0 fd ff ff 	mov    %rax,-0x230(%rbp)
    f6af:	48 c7 85 d8 fd ff ff 	movq   $0x0,-0x228(%rbp)
    f6b6:	00 00 00 00 
    f6ba:	48 c7 85 e0 fd ff ff 	movq   $0x0,-0x220(%rbp)
    f6c1:	00 00 00 00 
    f6c5:	48 8d 85 44 f7 ff ff 	lea    -0x8bc(%rbp),%rax
    f6cc:	48 89 85 e8 fd ff ff 	mov    %rax,-0x218(%rbp)
    f6d3:	48 8d 05 ce 9c 00 00 	lea    0x9cce(%rip),%rax        # 193a8 <g_505>
    f6da:	48 89 85 f0 fd ff ff 	mov    %rax,-0x210(%rbp)
    f6e1:	48 c7 85 f8 fd ff ff 	movq   $0x0,-0x208(%rbp)
    f6e8:	00 00 00 00 
    f6ec:	48 8d 85 40 f7 ff ff 	lea    -0x8c0(%rbp),%rax
    f6f3:	48 89 85 00 fe ff ff 	mov    %rax,-0x200(%rbp)
    f6fa:	c7 85 bc f7 ff ff 1b 	movl   $0x4c1f111b,-0x844(%rbp)
    f701:	11 1f 4c 
    f704:	8b 05 c6 9c 00 00    	mov    0x9cc6(%rip),%eax        # 193d0 <g_605>
    f70a:	83 e8 01             	sub    $0x1,%eax
    f70d:	89 05 bd 9c 00 00    	mov    %eax,0x9cbd(%rip)        # 193d0 <g_605>
    f713:	c7 85 40 f7 ff ff e7 	movl   $0xffffffe7,-0x8c0(%rbp)
    f71a:	ff ff ff 
    f71d:	e9 d6 04 00 00       	jmpq   fbf8 <func_63+0x297f>
    f722:	48 b8 c8 7e ac d1 e3 	movabs $0x567dbce3d1ac7ec8,%rax
    f729:	bc 7d 56 
    f72c:	48 89 85 c8 f8 ff ff 	mov    %rax,-0x738(%rbp)
    f733:	c7 85 d0 f7 ff ff fe 	movl   $0xfffffffe,-0x830(%rbp)
    f73a:	ff ff ff 
    f73d:	48 c7 85 d0 f8 ff ff 	movq   $0x0,-0x730(%rbp)
    f744:	00 00 00 00 
    f748:	48 8d 05 3d 9b 00 00 	lea    0x9b3d(%rip),%rax        # 1928c <g_123+0x4c>
    f74f:	48 89 85 d8 f8 ff ff 	mov    %rax,-0x728(%rbp)
    f756:	c7 85 d4 f7 ff ff 1b 	movl   $0xf2f4cf1b,-0x82c(%rbp)
    f75d:	cf f4 f2 
    f760:	c7 85 78 f7 ff ff 00 	movl   $0x0,-0x888(%rbp)
    f767:	00 00 00 
    f76a:	eb 1e                	jmp    f78a <func_63+0x2511>
    f76c:	8b 85 78 f7 ff ff    	mov    -0x888(%rbp),%eax
    f772:	48 98                	cltq   
    f774:	48 8d 15 ed 9b 00 00 	lea    0x9bed(%rip),%rdx        # 19368 <g_366>
    f77b:	48 89 94 c5 b0 fa ff 	mov    %rdx,-0x550(%rbp,%rax,8)
    f782:	ff 
    f783:	83 85 78 f7 ff ff 01 	addl   $0x1,-0x888(%rbp)
    f78a:	83 bd 78 f7 ff ff 08 	cmpl   $0x8,-0x888(%rbp)
    f791:	7e d9                	jle    f76c <func_63+0x24f3>
    f793:	8b 85 d0 f7 ff ff    	mov    -0x830(%rbp),%eax
    f799:	48 63 d8             	movslq %eax,%rbx
    f79c:	48 8b 85 20 f8 ff ff 	mov    -0x7e0(%rbp),%rax
    f7a3:	8b 00                	mov    (%rax),%eax
    f7a5:	4c 63 e0             	movslq %eax,%r12
    f7a8:	0f b7 85 38 f7 ff ff 	movzwl -0x8c8(%rbp),%eax
    f7af:	44 0f be e8          	movsbl %al,%r13d
    f7b3:	8b 85 d0 f7 ff ff    	mov    -0x830(%rbp),%eax
    f7b9:	44 0f b6 f0          	movzbl %al,%r14d
    f7bd:	be 01 00 00 00       	mov    $0x1,%esi
    f7c2:	bf 01 00 00 00       	mov    $0x1,%edi
    f7c7:	e8 ea 7d ff ff       	callq  75b6 <safe_add_func_int32_t_s_s>
    f7cc:	85 c0                	test   %eax,%eax
    f7ce:	74 07                	je     f7d7 <func_63+0x255e>
    f7d0:	b8 01 00 00 00       	mov    $0x1,%eax
    f7d5:	eb 05                	jmp    f7dc <func_63+0x2563>
    f7d7:	b8 00 00 00 00       	mov    $0x0,%eax
    f7dc:	0f b6 c0             	movzbl %al,%eax
    f7df:	44 89 f6             	mov    %r14d,%esi
    f7e2:	89 c7                	mov    %eax,%edi
    f7e4:	e8 71 83 ff ff       	callq  7b5a <safe_add_func_uint8_t_u_u>
    f7e9:	0f b6 d0             	movzbl %al,%edx
    f7ec:	48 8b 05 6d 9b 00 00 	mov    0x9b6d(%rip),%rax        # 19360 <g_309+0x10>
    f7f3:	0f b6 c0             	movzbl %al,%eax
    f7f6:	89 d6                	mov    %edx,%esi
    f7f8:	89 c7                	mov    %eax,%edi
    f7fa:	e8 94 83 ff ff       	callq  7b93 <safe_mul_func_uint8_t_u_u>
    f7ff:	0f b6 d0             	movzbl %al,%edx
    f802:	0f b7 85 14 f7 ff ff 	movzwl -0x8ec(%rbp),%eax
    f809:	0f b7 c0             	movzwl %ax,%eax
    f80c:	89 d6                	mov    %edx,%esi
    f80e:	89 c7                	mov    %eax,%edi
    f810:	e8 a3 86 ff ff       	callq  7eb8 <safe_add_func_uint32_t_u_u>
    f815:	48 8b 85 d8 f8 ff ff 	mov    -0x728(%rbp),%rax
    f81c:	66 c7 00 f9 ff       	movw   $0xfff9,(%rax)
    f821:	48 8b 85 d8 f8 ff ff 	mov    -0x728(%rbp),%rax
    f828:	0f b7 10             	movzwl (%rax),%edx
    f82b:	0f b7 05 6c 9b 00 00 	movzwl 0x9b6c(%rip),%eax        # 1939e <g_487+0x4>
    f832:	66 39 c2             	cmp    %ax,%dx
    f835:	0f 94 c0             	sete   %al
    f838:	0f b6 d0             	movzbl %al,%edx
    f83b:	0f bf 85 36 f7 ff ff 	movswl -0x8ca(%rbp),%eax
    f842:	39 c2                	cmp    %eax,%edx
    f844:	0f 94 c0             	sete   %al
    f847:	0f b6 c0             	movzbl %al,%eax
    f84a:	44 89 ee             	mov    %r13d,%esi
    f84d:	89 c7                	mov    %eax,%edi
    f84f:	e8 16 7a ff ff       	callq  726a <safe_div_func_int8_t_s_s>
    f854:	48 8b 95 98 f8 ff ff 	mov    -0x768(%rbp),%rdx
    f85b:	48 8b 12             	mov    (%rdx),%rdx
    f85e:	48 0f be c0          	movsbq %al,%rax
    f862:	48 09 c2             	or     %rax,%rdx
    f865:	48 8b 85 98 f8 ff ff 	mov    -0x768(%rbp),%rax
    f86c:	48 89 10             	mov    %rdx,(%rax)
    f86f:	48 8b 85 98 f8 ff ff 	mov    -0x768(%rbp),%rax
    f876:	48 8b 00             	mov    (%rax),%rax
    f879:	4c 89 e6             	mov    %r12,%rsi
    f87c:	48 89 c7             	mov    %rax,%rdi
    f87f:	e8 aa 87 ff ff       	callq  802e <safe_add_func_uint64_t_u_u>
    f884:	0f b6 15 24 98 00 00 	movzbl 0x9824(%rip),%edx        # 190af <g_105+0xf>
    f88b:	21 d0                	and    %edx,%eax
    f88d:	88 05 1c 98 00 00    	mov    %al,0x981c(%rip)        # 190af <g_105+0xf>
    f893:	0f b6 05 15 98 00 00 	movzbl 0x9815(%rip),%eax        # 190af <g_105+0xf>
    f89a:	0f be c0             	movsbl %al,%eax
    f89d:	0b 85 98 f7 ff ff    	or     -0x868(%rbp),%eax
    f8a3:	89 c1                	mov    %eax,%ecx
    f8a5:	48 8b 85 30 f8 ff ff 	mov    -0x7d0(%rbp),%rax
    f8ac:	48 8b 10             	mov    (%rax),%rdx
    f8af:	48 63 c1             	movslq %ecx,%rax
    f8b2:	48 21 c2             	and    %rax,%rdx
    f8b5:	48 8b 85 30 f8 ff ff 	mov    -0x7d0(%rbp),%rax
    f8bc:	48 89 10             	mov    %rdx,(%rax)
    f8bf:	48 89 de             	mov    %rbx,%rsi
    f8c2:	bf 00 00 00 00       	mov    $0x0,%edi
    f8c7:	e8 75 7f ff ff       	callq  7841 <safe_add_func_int64_t_s_s>
    f8cc:	0f b7 c0             	movzwl %ax,%eax
    f8cf:	be c5 0d 00 00       	mov    $0xdc5,%esi
    f8d4:	89 c7                	mov    %eax,%edi
    f8d6:	e8 81 84 ff ff       	callq  7d5c <safe_mod_func_uint16_t_u_u>
    f8db:	66 85 c0             	test   %ax,%ax
    f8de:	74 1a                	je     f8fa <func_63+0x2681>
    f8e0:	48 8b 05 f9 c0 00 00 	mov    0xc0f9(%rip),%rax        # 1b9e0 <g_39>
    f8e7:	8b 10                	mov    (%rax),%edx
    f8e9:	48 8b 05 f0 c0 00 00 	mov    0xc0f0(%rip),%rax        # 1b9e0 <g_39>
    f8f0:	23 95 ac f7 ff ff    	and    -0x854(%rbp),%edx
    f8f6:	89 10                	mov    %edx,(%rax)
    f8f8:	eb 12                	jmp    f90c <func_63+0x2693>
    f8fa:	8b 85 5c f7 ff ff    	mov    -0x8a4(%rbp),%eax
    f900:	23 85 bc f7 ff ff    	and    -0x844(%rbp),%eax
    f906:	89 85 5c f7 ff ff    	mov    %eax,-0x8a4(%rbp)
    f90c:	0f b7 85 14 f7 ff ff 	movzwl -0x8ec(%rbp),%eax
    f913:	0f b7 d8             	movzwl %ax,%ebx
    f916:	48 8b 85 18 f7 ff ff 	mov    -0x8e8(%rbp),%rax
    f91d:	8b 00                	mov    (%rax),%eax
    f91f:	39 85 a8 f7 ff ff    	cmp    %eax,-0x858(%rbp)
    f925:	0f 8e 9c 00 00 00    	jle    f9c7 <func_63+0x274e>
    f92b:	0f b7 85 14 f7 ff ff 	movzwl -0x8ec(%rbp),%eax
    f932:	44 0f be e0          	movsbl %al,%r12d
    f936:	0f b7 85 14 f7 ff ff 	movzwl -0x8ec(%rbp),%eax
    f93d:	44 0f b6 e8          	movzbl %al,%r13d
    f941:	48 8b 85 c8 f8 ff ff 	mov    -0x738(%rbp),%rax
    f948:	0f b7 d0             	movzwl %ax,%edx
    f94b:	48 8b 85 20 f8 ff ff 	mov    -0x7e0(%rbp),%rax
    f952:	c7 00 d2 8c 00 00    	movl   $0x8cd2,(%rax)
    f958:	48 8b 85 20 f8 ff ff 	mov    -0x7e0(%rbp),%rax
    f95f:	8b 00                	mov    (%rax),%eax
    f961:	0f b7 c0             	movzwl %ax,%eax
    f964:	89 d6                	mov    %edx,%esi
    f966:	89 c7                	mov    %eax,%edi
    f968:	e8 d0 83 ff ff       	callq  7d3d <safe_mul_func_uint16_t_u_u>
    f96d:	48 8b 05 b4 c0 00 00 	mov    0xc0b4(%rip),%rax        # 1ba28 <g_150>
    f974:	8b 00                	mov    (%rax),%eax
    f976:	c1 e8 1f             	shr    $0x1f,%eax
    f979:	0f b6 c0             	movzbl %al,%eax
    f97c:	44 89 ee             	mov    %r13d,%esi
    f97f:	89 c7                	mov    %eax,%edi
    f981:	e8 f2 81 ff ff       	callq  7b78 <safe_sub_func_uint8_t_u_u>
    f986:	0f b6 d0             	movzbl %al,%edx
    f989:	0f b7 05 24 9a 00 00 	movzwl 0x9a24(%rip),%eax        # 193b4 <g_511+0x4>
    f990:	0f b7 c0             	movzwl %ax,%eax
    f993:	89 d6                	mov    %edx,%esi
    f995:	89 c7                	mov    %eax,%edi
    f997:	e8 a1 83 ff ff       	callq  7d3d <safe_mul_func_uint16_t_u_u>
    f99c:	0f be d0             	movsbl %al,%edx
    f99f:	8b 85 74 f7 ff ff    	mov    -0x88c(%rbp),%eax
    f9a5:	0f be c0             	movsbl %al,%eax
    f9a8:	89 d6                	mov    %edx,%esi
    f9aa:	89 c7                	mov    %eax,%edi
    f9ac:	e8 61 78 ff ff       	callq  7212 <safe_mul_func_int8_t_s_s>
    f9b1:	44 89 e6             	mov    %r12d,%esi
    f9b4:	bf 00 00 00 00       	mov    $0x0,%edi
    f9b9:	e8 73 78 ff ff       	callq  7231 <safe_mod_func_int8_t_s_s>
    f9be:	83 bd b4 f7 ff ff 00 	cmpl   $0x0,-0x84c(%rbp)
    f9c5:	74 07                	je     f9ce <func_63+0x2755>
    f9c7:	b8 01 00 00 00       	mov    $0x1,%eax
    f9cc:	eb 05                	jmp    f9d3 <func_63+0x275a>
    f9ce:	b8 00 00 00 00       	mov    $0x0,%eax
    f9d3:	21 85 60 f7 ff ff    	and    %eax,-0x8a0(%rbp)
    f9d9:	8b 85 60 f7 ff ff    	mov    -0x8a0(%rbp),%eax
    f9df:	3d f9 00 00 00       	cmp    $0xf9,%eax
    f9e4:	0f 96 c0             	setbe  %al
    f9e7:	0f b6 c0             	movzbl %al,%eax
    f9ea:	be 05 00 00 00       	mov    $0x5,%esi
    f9ef:	89 c7                	mov    %eax,%edi
    f9f1:	e8 3f 79 ff ff       	callq  7335 <safe_rshift_func_int8_t_s_s>
    f9f6:	0f be c0             	movsbl %al,%eax
    f9f9:	89 de                	mov    %ebx,%esi
    f9fb:	89 c7                	mov    %eax,%edi
    f9fd:	e8 23 85 ff ff       	callq  7f25 <safe_div_func_uint32_t_u_u>
    fa02:	0f b7 d0             	movzwl %ax,%edx
    fa05:	8b 05 c9 97 00 00    	mov    0x97c9(%rip),%eax        # 191d4 <g_122+0x14>
    fa0b:	0f b7 c0             	movzwl %ax,%eax
    fa0e:	89 d6                	mov    %edx,%esi
    fa10:	89 c7                	mov    %eax,%edi
    fa12:	e8 77 83 ff ff       	callq  7d8e <safe_div_func_uint16_t_u_u>
    fa17:	66 3d 01 5a          	cmp    $0x5a01,%ax
    fa1b:	0f 95 c0             	setne  %al
    fa1e:	0f b6 c0             	movzbl %al,%eax
    fa21:	89 05 c1 97 00 00    	mov    %eax,0x97c1(%rip)        # 191e8 <g_122+0x28>
    fa27:	be 08 00 00 00       	mov    $0x8,%esi
    fa2c:	bf 00 00 00 00       	mov    $0x0,%edi
    fa31:	e8 9e 77 ff ff       	callq  71d4 <safe_add_func_int8_t_s_s>
    fa36:	0f be c0             	movsbl %al,%eax
    fa39:	89 85 48 f7 ff ff    	mov    %eax,-0x8b8(%rbp)
    fa3f:	8b 85 48 f7 ff ff    	mov    -0x8b8(%rbp),%eax
    fa45:	98                   	cwtl   
    fa46:	89 c6                	mov    %eax,%esi
    fa48:	bf 07 00 00 00       	mov    $0x7,%edi
    fa4d:	e8 a3 79 ff ff       	callq  73f5 <safe_mul_func_int16_t_s_s>
    fa52:	0f bf d0             	movswl %ax,%edx
    fa55:	0f b7 05 2c 96 00 00 	movzwl 0x962c(%rip),%eax        # 19088 <g_91>
    fa5c:	0f b7 c0             	movzwl %ax,%eax
    fa5f:	39 c2                	cmp    %eax,%edx
    fa61:	0f 9f c0             	setg   %al
    fa64:	0f b6 c0             	movzbl %al,%eax
    fa67:	be 01 00 00 00       	mov    $0x1,%esi
    fa6c:	89 c7                	mov    %eax,%edi
    fa6e:	e8 1a 82 ff ff       	callq  7c8d <safe_rshift_func_uint8_t_u_s>
    fa73:	b8 54 f3 97 d8       	mov    $0xd897f354,%eax
    fa78:	21 85 d4 f7 ff ff    	and    %eax,-0x82c(%rbp)
    fa7e:	c7 05 b4 98 00 00 00 	movl   $0x0,0x98b4(%rip)        # 1933c <g_193>
    fa85:	00 00 00 
    fa88:	e9 21 01 00 00       	jmpq   fbae <func_63+0x2935>
    fa8d:	48 8d 85 b0 fa ff ff 	lea    -0x550(%rbp),%rax
    fa94:	48 83 c0 30          	add    $0x30,%rax
    fa98:	48 89 85 e0 f8 ff ff 	mov    %rax,-0x720(%rbp)
    fa9f:	c7 85 d8 f7 ff ff a0 	movl   $0xcf22e3a0,-0x828(%rbp)
    faa6:	e3 22 cf 
    faa9:	0f b7 85 14 f7 ff ff 	movzwl -0x8ec(%rbp),%eax
    fab0:	0f b7 d8             	movzwl %ax,%ebx
    fab3:	8b 85 d8 f7 ff ff    	mov    -0x828(%rbp),%eax
    fab9:	4c 63 e0             	movslq %eax,%r12
    fabc:	48 8b 05 dd 98 00 00 	mov    0x98dd(%rip),%rax        # 193a0 <g_497>
    fac3:	44 0f b7 e8          	movzwl %ax,%r13d
    fac7:	0f b7 85 14 f7 ff ff 	movzwl -0x8ec(%rbp),%eax
    face:	0f b7 d0             	movzwl %ax,%edx
    fad1:	48 8b 85 20 f8 ff ff 	mov    -0x7e0(%rbp),%rax
    fad8:	c7 00 9a 00 00 00    	movl   $0x9a,(%rax)
    fade:	48 8b 85 20 f8 ff ff 	mov    -0x7e0(%rbp),%rax
    fae5:	8b 00                	mov    (%rax),%eax
    fae7:	39 c2                	cmp    %eax,%edx
    fae9:	7e 48                	jle    fb33 <func_63+0x28ba>
    faeb:	0f b7 05 62 98 00 00 	movzwl 0x9862(%rip),%eax        # 19354 <g_309+0x4>
    faf2:	8b 85 d8 f7 ff ff    	mov    -0x828(%rbp),%eax
    faf8:	48 63 d0             	movslq %eax,%rdx
    fafb:	48 8b 85 30 f8 ff ff 	mov    -0x7d0(%rbp),%rax
    fb02:	48 89 10             	mov    %rdx,(%rax)
    fb05:	48 8b 85 30 f8 ff ff 	mov    -0x7d0(%rbp),%rax
    fb0c:	48 8b 00             	mov    (%rax),%rax
    fb0f:	48 89 c1             	mov    %rax,%rcx
    fb12:	48 8b 85 e0 f8 ff ff 	mov    -0x720(%rbp),%rax
    fb19:	48 8d 95 14 f7 ff ff 	lea    -0x8ec(%rbp),%rdx
    fb20:	48 89 10             	mov    %rdx,(%rax)
    fb23:	48 89 ce             	mov    %rcx,%rsi
    fb26:	bf 01 00 00 00       	mov    $0x1,%edi
    fb2b:	e8 50 85 ff ff       	callq  8080 <safe_mod_func_uint64_t_u_u>
    fb30:	48 85 c0             	test   %rax,%rax
    fb33:	0f b7 05 2e 98 00 00 	movzwl 0x982e(%rip),%eax        # 19368 <g_366>
    fb3a:	0f b7 c0             	movzwl %ax,%eax
    fb3d:	44 89 ee             	mov    %r13d,%esi
    fb40:	89 c7                	mov    %eax,%edi
    fb42:	e8 d8 81 ff ff       	callq  7d1f <safe_sub_func_uint16_t_u_u>
    fb47:	0f b7 85 14 f7 ff ff 	movzwl -0x8ec(%rbp),%eax
    fb4e:	66 85 c0             	test   %ax,%ax
    fb51:	4c 89 e6             	mov    %r12,%rsi
    fb54:	bf 00 00 00 00       	mov    $0x0,%edi
    fb59:	e8 4a 7d ff ff       	callq  78a8 <safe_sub_func_int64_t_s_s>
    fb5e:	89 de                	mov    %ebx,%esi
    fb60:	bf 01 00 00 00       	mov    $0x1,%edi
    fb65:	e8 66 83 ff ff       	callq  7ed0 <safe_sub_func_uint32_t_u_u>
    fb6a:	8b 15 50 96 00 00    	mov    0x9650(%rip),%edx        # 191c0 <g_122>
    fb70:	0f b7 85 14 f7 ff ff 	movzwl -0x8ec(%rbp),%eax
    fb77:	0f b7 c8             	movzwl %ax,%ecx
    fb7a:	48 8b 05 f7 94 00 00 	mov    0x94f7(%rip),%rax        # 19078 <g_78>
    fb81:	48 09 c8             	or     %rcx,%rax
    fb84:	48 85 c0             	test   %rax,%rax
    fb87:	0f 9f c0             	setg   %al
    fb8a:	0f b6 c0             	movzbl %al,%eax
    fb8d:	39 c2                	cmp    %eax,%edx
    fb8f:	c7 45 a8 c1 95 e4 63 	movl   $0x63e495c1,-0x58(%rbp)
    fb96:	8b 05 a0 97 00 00    	mov    0x97a0(%rip),%eax        # 1933c <g_193>
    fb9c:	be 06 00 00 00       	mov    $0x6,%esi
    fba1:	89 c7                	mov    %eax,%edi
    fba3:	e8 0e 7a ff ff       	callq  75b6 <safe_add_func_int32_t_s_s>
    fba8:	89 05 8e 97 00 00    	mov    %eax,0x978e(%rip)        # 1933c <g_193>
    fbae:	8b 05 88 97 00 00    	mov    0x9788(%rip),%eax        # 1933c <g_193>
    fbb4:	83 f8 11             	cmp    $0x11,%eax
    fbb7:	0f 86 d0 fe ff ff    	jbe    fa8d <func_63+0x2814>
    fbbd:	c6 05 74 97 00 00 01 	movb   $0x1,0x9774(%rip)        # 19338 <g_170>
    fbc4:	90                   	nop
    fbc5:	0f b6 05 6c 97 00 00 	movzbl 0x976c(%rip),%eax        # 19338 <g_170>
    fbcc:	3c 06                	cmp    $0x6,%al
    fbce:	77 19                	ja     fbe9 <func_63+0x2970>
    fbd0:	0f b6 05 61 97 00 00 	movzbl 0x9761(%rip),%eax        # 19338 <g_170>
    fbd7:	0f b6 c0             	movzbl %al,%eax
    fbda:	48 98                	cltq   
    fbdc:	0f b6 44 05 c1       	movzbl -0x3f(%rbp,%rax,1),%eax
    fbe1:	0f b6 c0             	movzbl %al,%eax
    fbe4:	e9 f8 04 00 00       	jmpq   100e1 <func_63+0x2e68>
    fbe9:	8b 85 40 f7 ff ff    	mov    -0x8c0(%rbp),%eax
    fbef:	83 c0 01             	add    $0x1,%eax
    fbf2:	89 85 40 f7 ff ff    	mov    %eax,-0x8c0(%rbp)
    fbf8:	8b 85 40 f7 ff ff    	mov    -0x8c0(%rbp),%eax
    fbfe:	83 f8 09             	cmp    $0x9,%eax
    fc01:	0f 8f 1b fb ff ff    	jg     f722 <func_63+0x24a9>
    fc07:	48 c7 05 7e 97 00 00 	movq   $0x0,0x977e(%rip)        # 19390 <g_417>
    fc0e:	00 00 00 00 
    fc12:	e9 a2 04 00 00       	jmpq   100b9 <func_63+0x2e40>
    fc17:	48 c7 85 a0 f8 ff ff 	movq   $0x0,-0x760(%rbp)
    fc1e:	00 00 00 00 
    fc22:	c7 85 b0 fa ff ff fc 	movl   $0xfffffffc,-0x550(%rbp)
    fc29:	ff ff ff 
    fc2c:	c7 85 b4 fa ff ff c1 	movl   $0x6bfc1ac1,-0x54c(%rbp)
    fc33:	1a fc 6b 
    fc36:	c7 85 b8 fa ff ff c1 	movl   $0x6bfc1ac1,-0x548(%rbp)
    fc3d:	1a fc 6b 
    fc40:	c7 85 bc fa ff ff fc 	movl   $0xfffffffc,-0x544(%rbp)
    fc47:	ff ff ff 
    fc4a:	c7 85 c0 fa ff ff c1 	movl   $0x6bfc1ac1,-0x540(%rbp)
    fc51:	1a fc 6b 
    fc54:	c7 85 c4 fa ff ff c1 	movl   $0x6bfc1ac1,-0x53c(%rbp)
    fc5b:	1a fc 6b 
    fc5e:	48 8d 05 3b 96 00 00 	lea    0x963b(%rip),%rax        # 192a0 <g_145>
    fc65:	48 89 85 a8 f8 ff ff 	mov    %rax,-0x758(%rbp)
    fc6c:	48 8d 05 15 96 00 00 	lea    0x9615(%rip),%rax        # 19288 <g_123+0x48>
    fc73:	48 89 85 b0 f8 ff ff 	mov    %rax,-0x750(%rbp)
    fc7a:	c7 85 7c f7 ff ff 00 	movl   $0x0,-0x884(%rbp)
    fc81:	00 00 00 
    fc84:	eb 1a                	jmp    fca0 <func_63+0x2a27>
    fc86:	8b 85 7c f7 ff ff    	mov    -0x884(%rbp),%eax
    fc8c:	48 98                	cltq   
    fc8e:	c7 84 85 f0 f9 ff ff 	movl   $0x3,-0x610(%rbp,%rax,4)
    fc95:	03 00 00 00 
    fc99:	83 85 7c f7 ff ff 01 	addl   $0x1,-0x884(%rbp)
    fca0:	83 bd 7c f7 ff ff 04 	cmpl   $0x4,-0x884(%rbp)
    fca7:	7e dd                	jle    fc86 <func_63+0x2a0d>
    fca9:	c7 85 48 f7 ff ff e6 	movl   $0xffffffe6,-0x8b8(%rbp)
    fcb0:	ff ff ff 
    fcb3:	e9 b8 03 00 00       	jmpq   10070 <func_63+0x2df7>
    fcb8:	48 8d 05 49 d0 00 00 	lea    0xd049(%rip),%rax        # 1cd08 <g_116>
    fcbf:	48 89 85 10 f8 ff ff 	mov    %rax,-0x7f0(%rbp)
    fcc6:	48 8d 85 10 f8 ff ff 	lea    -0x7f0(%rbp),%rax
    fccd:	48 89 85 b8 f8 ff ff 	mov    %rax,-0x748(%rbp)
    fcd4:	c7 85 c0 f7 ff ff 07 	movl   $0x7,-0x840(%rbp)
    fcdb:	00 00 00 
    fcde:	48 8d 85 50 fb ff ff 	lea    -0x4b0(%rbp),%rax
    fce5:	48 83 c0 0e          	add    $0xe,%rax
    fce9:	48 89 85 c0 f8 ff ff 	mov    %rax,-0x740(%rbp)
    fcf0:	66 c7 85 3c f7 ff ff 	movw   $0x7be0,-0x8c4(%rbp)
    fcf7:	e0 7b 
    fcf9:	c7 85 c4 f7 ff ff e2 	movl   $0xe998b0e2,-0x83c(%rbp)
    fd00:	b0 98 e9 
    fd03:	c7 85 c8 f7 ff ff 23 	movl   $0x8de30c23,-0x838(%rbp)
    fd0a:	0c e3 8d 
    fd0d:	c7 85 cc f7 ff ff fd 	movl   $0xfffffffd,-0x834(%rbp)
    fd14:	ff ff ff 
    fd17:	8b 9d f0 f9 ff ff    	mov    -0x610(%rbp),%ebx
    fd1d:	44 8b 3d ec 94 00 00 	mov    0x94ec(%rip),%r15d        # 19210 <g_122+0x50>
    fd24:	48 83 bd a0 f8 ff ff 	cmpq   $0x0,-0x760(%rbp)
    fd2b:	00 
    fd2c:	0f 95 c0             	setne  %al
    fd2f:	0f b6 c0             	movzbl %al,%eax
    fd32:	89 85 ac f7 ff ff    	mov    %eax,-0x854(%rbp)
    fd38:	0f b7 85 14 f7 ff ff 	movzwl -0x8ec(%rbp),%eax
    fd3f:	44 0f be e0          	movsbl %al,%r12d
    fd43:	8b 05 83 96 00 00    	mov    0x9683(%rip),%eax        # 193cc <g_531>
    fd49:	89 85 10 f7 ff ff    	mov    %eax,-0x8f0(%rbp)
    fd4f:	0f b6 85 32 f7 ff ff 	movzbl -0x8ce(%rbp),%eax
    fd56:	44 0f b6 e8          	movzbl %al,%r13d
    fd5a:	0f b7 85 14 f7 ff ff 	movzwl -0x8ec(%rbp),%eax
    fd61:	44 0f b7 f0          	movzwl %ax,%r14d
    fd65:	0f b7 85 14 f7 ff ff 	movzwl -0x8ec(%rbp),%eax
    fd6c:	98                   	cwtl   
    fd6d:	48 8d 15 14 95 00 00 	lea    0x9514(%rip),%rdx        # 19288 <g_123+0x48>
    fd74:	48 89 95 a8 f8 ff ff 	mov    %rdx,-0x758(%rbp)
    fd7b:	89 c6                	mov    %eax,%esi
    fd7d:	bf 01 00 00 00       	mov    $0x1,%edi
    fd82:	e8 ce 76 ff ff       	callq  7455 <safe_div_func_int16_t_s_s>
    fd87:	66 3d b8 00          	cmp    $0xb8,%ax
    fd8b:	0f 9f c0             	setg   %al
    fd8e:	0f b6 c0             	movzbl %al,%eax
    fd91:	89 c6                	mov    %eax,%esi
    fd93:	bf fb ff ff ff       	mov    $0xfffffffb,%edi
    fd98:	e8 75 74 ff ff       	callq  7212 <safe_mul_func_int8_t_s_s>
    fd9d:	66 98                	cbtw   
    fd9f:	0f b7 c0             	movzwl %ax,%eax
    fda2:	44 89 f6             	mov    %r14d,%esi
    fda5:	89 c7                	mov    %eax,%edi
    fda7:	e8 5a 80 ff ff       	callq  7e06 <safe_lshift_func_uint16_t_u_u>
    fdac:	0f b6 c0             	movzbl %al,%eax
    fdaf:	44 89 ee             	mov    %r13d,%esi
    fdb2:	89 c7                	mov    %eax,%edi
    fdb4:	e8 bf 7d ff ff       	callq  7b78 <safe_sub_func_uint8_t_u_u>
    fdb9:	89 c2                	mov    %eax,%edx
    fdbb:	83 f2 a6             	xor    $0xffffffa6,%edx
    fdbe:	48 8b 85 18 f7 ff ff 	mov    -0x8e8(%rbp),%rax
    fdc5:	8b 00                	mov    (%rax),%eax
    fdc7:	09 c2                	or     %eax,%edx
    fdc9:	48 8b 05 e0 94 00 00 	mov    0x94e0(%rip),%rax        # 192b0 <g_145+0x10>
    fdd0:	31 d0                	xor    %edx,%eax
    fdd2:	0f b6 c0             	movzbl %al,%eax
    fdd5:	8b b5 10 f7 ff ff    	mov    -0x8f0(%rbp),%esi
    fddb:	89 c7                	mov    %eax,%edi
    fddd:	e8 dc 7e ff ff       	callq  7cbe <safe_rshift_func_uint8_t_u_u>
    fde2:	0f b7 85 14 f7 ff ff 	movzwl -0x8ec(%rbp),%eax
    fde9:	0f b7 c0             	movzwl %ax,%eax
    fdec:	39 85 98 f7 ff ff    	cmp    %eax,-0x868(%rbp)
    fdf2:	0f 9f c0             	setg   %al
    fdf5:	0f b6 d0             	movzbl %al,%edx
    fdf8:	8b 85 c4 fa ff ff    	mov    -0x53c(%rbp),%eax
    fdfe:	89 c6                	mov    %eax,%esi
    fe00:	0f b7 85 14 f7 ff ff 	movzwl -0x8ec(%rbp),%eax
    fe07:	0f b7 c8             	movzwl %ax,%ecx
    fe0a:	8b 05 b0 93 00 00    	mov    0x93b0(%rip),%eax        # 191c0 <g_122>
    fe10:	09 c8                	or     %ecx,%eax
    fe12:	09 f0                	or     %esi,%eax
    fe14:	89 85 c4 fa ff ff    	mov    %eax,-0x53c(%rbp)
    fe1a:	8b 85 c4 fa ff ff    	mov    -0x53c(%rbp),%eax
    fe20:	0f b7 c0             	movzwl %ax,%eax
    fe23:	89 d6                	mov    %edx,%esi
    fe25:	89 c7                	mov    %eax,%edi
    fe27:	e8 d3 7e ff ff       	callq  7cff <safe_add_func_uint16_t_u_u>
    fe2c:	0f b7 95 14 f7 ff ff 	movzwl -0x8ec(%rbp),%edx
    fe33:	66 39 d0             	cmp    %dx,%ax
    fe36:	0f 97 c0             	seta   %al
    fe39:	0f b6 d0             	movzbl %al,%edx
    fe3c:	0f b7 85 14 f7 ff ff 	movzwl -0x8ec(%rbp),%eax
    fe43:	0f b7 c0             	movzwl %ax,%eax
    fe46:	39 c2                	cmp    %eax,%edx
    fe48:	0f 9c c0             	setl   %al
    fe4b:	0f b6 c0             	movzbl %al,%eax
    fe4e:	44 89 e6             	mov    %r12d,%esi
    fe51:	89 c7                	mov    %eax,%edi
    fe53:	e8 7c 73 ff ff       	callq  71d4 <safe_add_func_int8_t_s_s>
    fe58:	be 02 00 00 00       	mov    $0x2,%esi
    fe5d:	bf 00 00 00 00       	mov    $0x0,%edi
    fe62:	e8 d6 7e ff ff       	callq  7d3d <safe_mul_func_uint16_t_u_u>
    fe67:	0f b7 c0             	movzwl %ax,%eax
    fe6a:	39 85 ac f7 ff ff    	cmp    %eax,-0x854(%rbp)
    fe70:	75 0c                	jne    fe7e <func_63+0x2c05>
    fe72:	48 8b 05 07 95 00 00 	mov    0x9507(%rip),%rax        # 19380 <g_369+0x10>
    fe79:	48 85 c0             	test   %rax,%rax
    fe7c:	74 07                	je     fe85 <func_63+0x2c0c>
    fe7e:	b8 01 00 00 00       	mov    $0x1,%eax
    fe83:	eb 05                	jmp    fe8a <func_63+0x2c11>
    fe85:	b8 00 00 00 00       	mov    $0x0,%eax
    fe8a:	41 39 c7             	cmp    %eax,%r15d
    fe8d:	77 0a                	ja     fe99 <func_63+0x2c20>
    fe8f:	8b 05 3b 95 00 00    	mov    0x953b(%rip),%eax        # 193d0 <g_605>
    fe95:	85 c0                	test   %eax,%eax
    fe97:	74 07                	je     fea0 <func_63+0x2c27>
    fe99:	b8 01 00 00 00       	mov    $0x1,%eax
    fe9e:	eb 05                	jmp    fea5 <func_63+0x2c2c>
    fea0:	b8 00 00 00 00       	mov    $0x0,%eax
    fea5:	89 de                	mov    %ebx,%esi
    fea7:	89 c7                	mov    %eax,%edi
    fea9:	e8 08 77 ff ff       	callq  75b6 <safe_add_func_int32_t_s_s>
    feae:	85 c0                	test   %eax,%eax
    feb0:	74 13                	je     fec5 <func_63+0x2c4c>
    feb2:	48 8b 05 bf 91 00 00 	mov    0x91bf(%rip),%rax        # 19078 <g_78>
    feb9:	48 85 c0             	test   %rax,%rax
    febc:	74 07                	je     fec5 <func_63+0x2c4c>
    febe:	b8 01 00 00 00       	mov    $0x1,%eax
    fec3:	eb 05                	jmp    feca <func_63+0x2c51>
    fec5:	b8 00 00 00 00       	mov    $0x0,%eax
    feca:	98                   	cwtl   
    fecb:	be 00 00 00 00       	mov    $0x0,%esi
    fed0:	89 c7                	mov    %eax,%edi
    fed2:	e8 1e 75 ff ff       	callq  73f5 <safe_mul_func_int16_t_s_s>
    fed7:	66 85 c0             	test   %ax,%ax
    feda:	74 11                	je     feed <func_63+0x2c74>
    fedc:	8b 85 c4 fa ff ff    	mov    -0x53c(%rbp),%eax
    fee2:	85 c0                	test   %eax,%eax
    fee4:	74 07                	je     feed <func_63+0x2c74>
    fee6:	b8 01 00 00 00       	mov    $0x1,%eax
    feeb:	eb 05                	jmp    fef2 <func_63+0x2c79>
    feed:	b8 00 00 00 00       	mov    $0x0,%eax
    fef2:	98                   	cwtl   
    fef3:	be 08 00 00 00       	mov    $0x8,%esi
    fef8:	89 c7                	mov    %eax,%edi
    fefa:	e8 64 76 ff ff       	callq  7563 <safe_rshift_func_int16_t_s_u>
    feff:	48 8b 85 20 f8 ff ff 	mov    -0x7e0(%rbp),%rax
    ff06:	8b 00                	mov    (%rax),%eax
    ff08:	85 c0                	test   %eax,%eax
    ff0a:	74 07                	je     ff13 <func_63+0x2c9a>
    ff0c:	b8 01 00 00 00       	mov    $0x1,%eax
    ff11:	eb 05                	jmp    ff18 <func_63+0x2c9f>
    ff13:	b8 00 00 00 00       	mov    $0x0,%eax
    ff18:	48 98                	cltq   
    ff1a:	48 be 74 9a 68 3a b1 	movabs $0x565bafb13a689a74,%rsi
    ff21:	af 5b 56 
    ff24:	48 89 c7             	mov    %rax,%rdi
    ff27:	e8 15 79 ff ff       	callq  7841 <safe_add_func_int64_t_s_s>
    ff2c:	89 c2                	mov    %eax,%edx
    ff2e:	8b 05 ec cd 00 00    	mov    0xcdec(%rip),%eax        # 1cd20 <g_506>
    ff34:	21 d0                	and    %edx,%eax
    ff36:	89 05 e4 cd 00 00    	mov    %eax,0xcde4(%rip)        # 1cd20 <g_506>
    ff3c:	0f b7 85 14 f7 ff ff 	movzwl -0x8ec(%rbp),%eax
    ff43:	0f bf d8             	movswl %ax,%ebx
    ff46:	0f b6 05 3b 94 00 00 	movzbl 0x943b(%rip),%eax        # 19388 <g_416>
    ff4d:	0f be d0             	movsbl %al,%edx
    ff50:	83 bd c0 f7 ff ff 00 	cmpl   $0x0,-0x840(%rbp)
    ff57:	75 0a                	jne    ff63 <func_63+0x2cea>
    ff59:	8b 85 f0 f9 ff ff    	mov    -0x610(%rbp),%eax
    ff5f:	85 c0                	test   %eax,%eax
    ff61:	74 07                	je     ff6a <func_63+0x2cf1>
    ff63:	b8 01 00 00 00       	mov    $0x1,%eax
    ff68:	eb 05                	jmp    ff6f <func_63+0x2cf6>
    ff6a:	b8 00 00 00 00       	mov    $0x0,%eax
    ff6f:	98                   	cwtl   
    ff70:	89 d6                	mov    %edx,%esi
    ff72:	89 c7                	mov    %eax,%edi
    ff74:	e8 dc 74 ff ff       	callq  7455 <safe_div_func_int16_t_s_s>
    ff79:	98                   	cwtl   
    ff7a:	39 85 ac f7 ff ff    	cmp    %eax,-0x854(%rbp)
    ff80:	0f 9e c0             	setle  %al
    ff83:	0f b6 d0             	movzbl %al,%edx
    ff86:	48 8b 85 20 f8 ff ff 	mov    -0x7e0(%rbp),%rax
    ff8d:	89 10                	mov    %edx,(%rax)
    ff8f:	0f b7 85 14 f7 ff ff 	movzwl -0x8ec(%rbp),%eax
    ff96:	44 0f b7 e0          	movzwl %ax,%r12d
    ff9a:	8b 95 c4 fa ff ff    	mov    -0x53c(%rbp),%edx
    ffa0:	8b 85 c0 f7 ff ff    	mov    -0x840(%rbp),%eax
    ffa6:	89 c1                	mov    %eax,%ecx
    ffa8:	48 8b 85 c0 f8 ff ff 	mov    -0x740(%rbp),%rax
    ffaf:	66 89 08             	mov    %cx,(%rax)
    ffb2:	48 8b 85 c0 f8 ff ff 	mov    -0x740(%rbp),%rax
    ffb9:	0f b7 08             	movzwl (%rax),%ecx
    ffbc:	0f b7 85 14 f7 ff ff 	movzwl -0x8ec(%rbp),%eax
    ffc3:	09 c8                	or     %ecx,%eax
    ffc5:	0f b7 c0             	movzwl %ax,%eax
    ffc8:	31 d0                	xor    %edx,%eax
    ffca:	be 36 65 12 bc       	mov    $0xbc126536,%esi
    ffcf:	89 c7                	mov    %eax,%edi
    ffd1:	e8 e0 75 ff ff       	callq  75b6 <safe_add_func_int32_t_s_s>
    ffd6:	41 39 c4             	cmp    %eax,%r12d
    ffd9:	75 0a                	jne    ffe5 <func_63+0x2d6c>
    ffdb:	0f b7 85 14 f7 ff ff 	movzwl -0x8ec(%rbp),%eax
    ffe2:	66 85 c0             	test   %ax,%ax
    ffe5:	89 de                	mov    %ebx,%esi
    ffe7:	bf 00 00 00 00       	mov    $0x0,%edi
    ffec:	e8 04 74 ff ff       	callq  73f5 <safe_mul_func_int16_t_s_s>
    fff1:	48 8b 85 b8 f8 ff ff 	mov    -0x748(%rbp),%rax
    fff8:	48 8d 15 09 cd 00 00 	lea    0xcd09(%rip),%rdx        # 1cd08 <g_116>
    ffff:	48 89 10             	mov    %rdx,(%rax)
   10002:	48 8b 85 b8 f8 ff ff 	mov    -0x748(%rbp),%rax
   10009:	48 8b 00             	mov    (%rax),%rax
   1000c:	48 8d 15 f5 cc 00 00 	lea    0xccf5(%rip),%rdx        # 1cd08 <g_116>
   10013:	48 39 d0             	cmp    %rdx,%rax
   10016:	0f 94 c2             	sete   %dl
   10019:	8b 05 89 93 00 00    	mov    0x9389(%rip),%eax        # 193a8 <g_505>
   1001f:	85 c0                	test   %eax,%eax
   10021:	0f 9f c0             	setg   %al
   10024:	31 d0                	xor    %edx,%eax
   10026:	0f b6 c0             	movzbl %al,%eax
   10029:	be 05 00 00 00       	mov    $0x5,%esi
   1002e:	89 c7                	mov    %eax,%edi
   10030:	e8 d1 7d ff ff       	callq  7e06 <safe_lshift_func_uint16_t_u_u>
   10035:	8b 55 a8             	mov    -0x58(%rbp),%edx
   10038:	0f b7 c0             	movzwl %ax,%eax
   1003b:	31 d0                	xor    %edx,%eax
   1003d:	89 45 a8             	mov    %eax,-0x58(%rbp)
   10040:	83 ad 50 f7 ff ff 01 	subl   $0x1,-0x8b0(%rbp)
   10047:	8b 05 93 94 00 00    	mov    0x9493(%rip),%eax        # 194e0 <g_730+0xe0>
   1004d:	83 c0 01             	add    $0x1,%eax
   10050:	89 05 8a 94 00 00    	mov    %eax,0x948a(%rip)        # 194e0 <g_730+0xe0>
   10056:	8b 85 48 f7 ff ff    	mov    -0x8b8(%rbp),%eax
   1005c:	98                   	cwtl   
   1005d:	be 05 00 00 00       	mov    $0x5,%esi
   10062:	89 c7                	mov    %eax,%edi
   10064:	e8 4a 73 ff ff       	callq  73b3 <safe_add_func_int16_t_s_s>
   10069:	98                   	cwtl   
   1006a:	89 85 48 f7 ff ff    	mov    %eax,-0x8b8(%rbp)
   10070:	8b 85 48 f7 ff ff    	mov    -0x8b8(%rbp),%eax
   10076:	83 f8 f5             	cmp    $0xfffffff5,%eax
   10079:	0f 8d 39 fc ff ff    	jge    fcb8 <func_63+0x2a3f>
   1007f:	48 8b 05 aa b9 00 00 	mov    0xb9aa(%rip),%rax        # 1ba30 <g_149>
   10086:	48 8b 95 18 f7 ff ff 	mov    -0x8e8(%rbp),%rdx
   1008d:	48 89 10             	mov    %rdx,(%rax)
   10090:	48 8d 85 f0 f9 ff ff 	lea    -0x610(%rbp),%rax
   10097:	48 89 85 48 f8 ff ff 	mov    %rax,-0x7b8(%rbp)
   1009e:	48 8b 05 eb 92 00 00 	mov    0x92eb(%rip),%rax        # 19390 <g_417>
   100a5:	be 05 00 00 00       	mov    $0x5,%esi
   100aa:	48 89 c7             	mov    %rax,%rdi
   100ad:	e8 7c 7f ff ff       	callq  802e <safe_add_func_uint64_t_u_u>
   100b2:	48 89 05 d7 92 00 00 	mov    %rax,0x92d7(%rip)        # 19390 <g_417>
   100b9:	48 8b 05 d0 92 00 00 	mov    0x92d0(%rip),%rax        # 19390 <g_417>
   100c0:	48 83 f8 26          	cmp    $0x26,%rax
   100c4:	0f 87 4d fb ff ff    	ja     fc17 <func_63+0x299e>
   100ca:	48 8b 85 20 f8 ff ff 	mov    -0x7e0(%rbp),%rax
   100d1:	8b 00                	mov    (%rax),%eax
   100d3:	48 98                	cltq   
   100d5:	eb 0a                	jmp    100e1 <func_63+0x2e68>
   100d7:	48 8b 05 0a b9 00 00 	mov    0xb90a(%rip),%rax        # 1b9e8 <g_77>
   100de:	48 8b 00             	mov    (%rax),%rax
   100e1:	48 8b 5d c8          	mov    -0x38(%rbp),%rbx
   100e5:	64 48 33 1c 25 28 00 	xor    %fs:0x28,%rbx
   100ec:	00 00 
   100ee:	74 05                	je     100f5 <func_63+0x2e7c>
   100f0:	e8 7b 6f ff ff       	callq  7070 <__stack_chk_fail@plt>
   100f5:	48 81 c4 d8 08 00 00 	add    $0x8d8,%rsp
   100fc:	5b                   	pop    %rbx
   100fd:	41 5c                	pop    %r12
   100ff:	41 5d                	pop    %r13
   10101:	41 5e                	pop    %r14
   10103:	41 5f                	pop    %r15
   10105:	5d                   	pop    %rbp
   10106:	c3                   	retq   

0000000000010107 <main>:
   10107:	f3 0f 1e fa          	endbr64 
   1010b:	55                   	push   %rbp
   1010c:	48 89 e5             	mov    %rsp,%rbp
   1010f:	48 83 ec 20          	sub    $0x20,%rsp
   10113:	89 7d ec             	mov    %edi,-0x14(%rbp)
   10116:	48 89 75 e0          	mov    %rsi,-0x20(%rbp)
   1011a:	c7 45 fc 00 00 00 00 	movl   $0x0,-0x4(%rbp)
   10121:	83 7d ec 02          	cmpl   $0x2,-0x14(%rbp)
   10125:	75 25                	jne    1014c <main+0x45>
   10127:	48 8b 45 e0          	mov    -0x20(%rbp),%rax
   1012b:	48 83 c0 08          	add    $0x8,%rax
   1012f:	48 8b 00             	mov    (%rax),%rax
   10132:	48 8d 35 97 55 00 00 	lea    0x5597(%rip),%rsi        # 156d0 <g_2035+0x2628>
   10139:	48 89 c7             	mov    %rax,%rdi
   1013c:	e8 4f 6f ff ff       	callq  7090 <strcmp@plt>
   10141:	85 c0                	test   %eax,%eax
   10143:	75 07                	jne    1014c <main+0x45>
   10145:	c7 45 fc 01 00 00 00 	movl   $0x1,-0x4(%rbp)
   1014c:	e8 38 70 ff ff       	callq  7189 <platform_main_begin>
   10151:	e8 42 84 ff ff       	callq  8598 <crc32_gentab>
   10156:	e8 5a 86 ff ff       	callq  87b5 <func_1>
   1015b:	c7 45 f0 00 00 00 00 	movl   $0x0,-0x10(%rbp)
   10162:	eb 6b                	jmp    101cf <main+0xc8>
   10164:	c7 45 f4 00 00 00 00 	movl   $0x0,-0xc(%rbp)
   1016b:	eb 58                	jmp    101c5 <main+0xbe>
   1016d:	8b 45 f4             	mov    -0xc(%rbp),%eax
   10170:	48 98                	cltq   
   10172:	8b 55 f0             	mov    -0x10(%rbp),%edx
   10175:	48 63 d2             	movslq %edx,%rdx
   10178:	48 c1 e2 02          	shl    $0x2,%rdx
   1017c:	48 01 c2             	add    %rax,%rdx
   1017f:	48 8d 05 ba 8e 00 00 	lea    0x8eba(%rip),%rax        # 19040 <g_8>
   10186:	48 01 d0             	add    %rdx,%rax
   10189:	0f b6 00             	movzbl (%rax),%eax
   1018c:	48 0f be c0          	movsbq %al,%rax
   10190:	8b 55 fc             	mov    -0x4(%rbp),%edx
   10193:	48 8d 35 38 55 00 00 	lea    0x5538(%rip),%rsi        # 156d2 <g_2035+0x262a>
   1019a:	48 89 c7             	mov    %rax,%rdi
   1019d:	e8 51 85 ff ff       	callq  86f3 <transparent_crc>
   101a2:	83 7d fc 00          	cmpl   $0x0,-0x4(%rbp)
   101a6:	74 19                	je     101c1 <main+0xba>
   101a8:	8b 55 f4             	mov    -0xc(%rbp),%edx
   101ab:	8b 45 f0             	mov    -0x10(%rbp),%eax
   101ae:	89 c6                	mov    %eax,%esi
   101b0:	48 8d 3d 25 55 00 00 	lea    0x5525(%rip),%rdi        # 156dc <g_2035+0x2634>
   101b7:	b8 00 00 00 00       	mov    $0x0,%eax
   101bc:	e8 bf 6e ff ff       	callq  7080 <printf@plt>
   101c1:	83 45 f4 01          	addl   $0x1,-0xc(%rbp)
   101c5:	83 7d f4 03          	cmpl   $0x3,-0xc(%rbp)
   101c9:	7e a2                	jle    1016d <main+0x66>
   101cb:	83 45 f0 01          	addl   $0x1,-0x10(%rbp)
   101cf:	83 7d f0 08          	cmpl   $0x8,-0x10(%rbp)
   101d3:	7e 8f                	jle    10164 <main+0x5d>
   101d5:	0f b7 05 88 8e 00 00 	movzwl 0x8e88(%rip),%eax        # 19064 <g_27>
   101dc:	48 0f bf c0          	movswq %ax,%rax
   101e0:	8b 55 fc             	mov    -0x4(%rbp),%edx
   101e3:	48 8d 35 04 55 00 00 	lea    0x5504(%rip),%rsi        # 156ee <g_2035+0x2646>
   101ea:	48 89 c7             	mov    %rax,%rdi
   101ed:	e8 01 85 ff ff       	callq  86f3 <transparent_crc>
   101f2:	48 8b 05 6f 8e 00 00 	mov    0x8e6f(%rip),%rax        # 19068 <g_32>
   101f9:	48 89 c1             	mov    %rax,%rcx
   101fc:	8b 45 fc             	mov    -0x4(%rbp),%eax
   101ff:	89 c2                	mov    %eax,%edx
   10201:	48 8d 35 eb 54 00 00 	lea    0x54eb(%rip),%rsi        # 156f3 <g_2035+0x264b>
   10208:	48 89 cf             	mov    %rcx,%rdi
   1020b:	e8 e3 84 ff ff       	callq  86f3 <transparent_crc>
   10210:	8b 05 5a 8e 00 00    	mov    0x8e5a(%rip),%eax        # 19070 <g_35>
   10216:	89 c1                	mov    %eax,%ecx
   10218:	8b 45 fc             	mov    -0x4(%rbp),%eax
   1021b:	89 c2                	mov    %eax,%edx
   1021d:	48 8d 35 d4 54 00 00 	lea    0x54d4(%rip),%rsi        # 156f8 <g_2035+0x2650>
   10224:	48 89 cf             	mov    %rcx,%rdi
   10227:	e8 c7 84 ff ff       	callq  86f3 <transparent_crc>
   1022c:	8b 05 42 8e 00 00    	mov    0x8e42(%rip),%eax        # 19074 <g_40>
   10232:	48 98                	cltq   
   10234:	8b 55 fc             	mov    -0x4(%rbp),%edx
   10237:	48 8d 35 bf 54 00 00 	lea    0x54bf(%rip),%rsi        # 156fd <g_2035+0x2655>
   1023e:	48 89 c7             	mov    %rax,%rdi
   10241:	e8 ad 84 ff ff       	callq  86f3 <transparent_crc>
   10246:	48 8b 05 2b 8e 00 00 	mov    0x8e2b(%rip),%rax        # 19078 <g_78>
   1024d:	48 89 c1             	mov    %rax,%rcx
   10250:	8b 45 fc             	mov    -0x4(%rbp),%eax
   10253:	89 c2                	mov    %eax,%edx
   10255:	48 8d 35 a6 54 00 00 	lea    0x54a6(%rip),%rsi        # 15702 <g_2035+0x265a>
   1025c:	48 89 cf             	mov    %rcx,%rdi
   1025f:	e8 8f 84 ff ff       	callq  86f3 <transparent_crc>
   10264:	48 8b 05 15 8e 00 00 	mov    0x8e15(%rip),%rax        # 19080 <g_88>
   1026b:	48 89 c1             	mov    %rax,%rcx
   1026e:	8b 45 fc             	mov    -0x4(%rbp),%eax
   10271:	89 c2                	mov    %eax,%edx
   10273:	48 8d 35 8d 54 00 00 	lea    0x548d(%rip),%rsi        # 15707 <g_2035+0x265f>
   1027a:	48 89 cf             	mov    %rcx,%rdi
   1027d:	e8 71 84 ff ff       	callq  86f3 <transparent_crc>
   10282:	0f b7 05 ff 8d 00 00 	movzwl 0x8dff(%rip),%eax        # 19088 <g_91>
   10289:	0f b7 c0             	movzwl %ax,%eax
   1028c:	8b 55 fc             	mov    -0x4(%rbp),%edx
   1028f:	48 8d 35 76 54 00 00 	lea    0x5476(%rip),%rsi        # 1570c <g_2035+0x2664>
   10296:	48 89 c7             	mov    %rax,%rdi
   10299:	e8 55 84 ff ff       	callq  86f3 <transparent_crc>
   1029e:	0f b6 05 e5 8d 00 00 	movzbl 0x8de5(%rip),%eax        # 1908a <g_98>
   102a5:	48 0f be c0          	movsbq %al,%rax
   102a9:	8b 55 fc             	mov    -0x4(%rbp),%edx
   102ac:	48 8d 35 5e 54 00 00 	lea    0x545e(%rip),%rsi        # 15711 <g_2035+0x2669>
   102b3:	48 89 c7             	mov    %rax,%rdi
   102b6:	e8 38 84 ff ff       	callq  86f3 <transparent_crc>
   102bb:	c7 45 f0 00 00 00 00 	movl   $0x0,-0x10(%rbp)
   102c2:	eb 73                	jmp    10337 <main+0x230>
   102c4:	c7 45 f4 00 00 00 00 	movl   $0x0,-0xc(%rbp)
   102cb:	eb 60                	jmp    1032d <main+0x226>
   102cd:	8b 45 f4             	mov    -0xc(%rbp),%eax
   102d0:	48 63 c8             	movslq %eax,%rcx
   102d3:	8b 45 f0             	mov    -0x10(%rbp),%eax
   102d6:	48 63 d0             	movslq %eax,%rdx
   102d9:	48 89 d0             	mov    %rdx,%rax
   102dc:	48 c1 e0 02          	shl    $0x2,%rax
   102e0:	48 01 d0             	add    %rdx,%rax
   102e3:	48 8d 14 08          	lea    (%rax,%rcx,1),%rdx
   102e7:	48 8d 05 b2 8d 00 00 	lea    0x8db2(%rip),%rax        # 190a0 <g_105>
   102ee:	48 01 d0             	add    %rdx,%rax
   102f1:	0f b6 00             	movzbl (%rax),%eax
   102f4:	48 0f be c0          	movsbq %al,%rax
   102f8:	8b 55 fc             	mov    -0x4(%rbp),%edx
   102fb:	48 8d 35 14 54 00 00 	lea    0x5414(%rip),%rsi        # 15716 <g_2035+0x266e>
   10302:	48 89 c7             	mov    %rax,%rdi
   10305:	e8 e9 83 ff ff       	callq  86f3 <transparent_crc>
   1030a:	83 7d fc 00          	cmpl   $0x0,-0x4(%rbp)
   1030e:	74 19                	je     10329 <main+0x222>
   10310:	8b 55 f4             	mov    -0xc(%rbp),%edx
   10313:	8b 45 f0             	mov    -0x10(%rbp),%eax
   10316:	89 c6                	mov    %eax,%esi
   10318:	48 8d 3d bd 53 00 00 	lea    0x53bd(%rip),%rdi        # 156dc <g_2035+0x2634>
   1031f:	b8 00 00 00 00       	mov    $0x0,%eax
   10324:	e8 57 6d ff ff       	callq  7080 <printf@plt>
   10329:	83 45 f4 01          	addl   $0x1,-0xc(%rbp)
   1032d:	83 7d f4 04          	cmpl   $0x4,-0xc(%rbp)
   10331:	7e 9a                	jle    102cd <main+0x1c6>
   10333:	83 45 f0 01          	addl   $0x1,-0x10(%rbp)
   10337:	83 7d f0 08          	cmpl   $0x8,-0x10(%rbp)
   1033b:	7e 87                	jle    102c4 <main+0x1bd>
   1033d:	0f b7 05 8a 8d 00 00 	movzwl 0x8d8a(%rip),%eax        # 190ce <g_107>
   10344:	48 0f bf c0          	movswq %ax,%rax
   10348:	8b 55 fc             	mov    -0x4(%rbp),%edx
   1034b:	48 8d 35 d0 53 00 00 	lea    0x53d0(%rip),%rsi        # 15722 <g_2035+0x267a>
   10352:	48 89 c7             	mov    %rax,%rdi
   10355:	e8 99 83 ff ff       	callq  86f3 <transparent_crc>
   1035a:	c7 45 f0 00 00 00 00 	movl   $0x0,-0x10(%rbp)
   10361:	e9 9e 00 00 00       	jmpq   10404 <main+0x2fd>
   10366:	c7 45 f4 00 00 00 00 	movl   $0x0,-0xc(%rbp)
   1036d:	e9 84 00 00 00       	jmpq   103f6 <main+0x2ef>
   10372:	c7 45 f8 00 00 00 00 	movl   $0x0,-0x8(%rbp)
   10379:	eb 71                	jmp    103ec <main+0x2e5>
   1037b:	8b 45 f8             	mov    -0x8(%rbp),%eax
   1037e:	48 63 c8             	movslq %eax,%rcx
   10381:	8b 45 f0             	mov    -0x10(%rbp),%eax
   10384:	48 63 d0             	movslq %eax,%rdx
   10387:	8b 45 f4             	mov    -0xc(%rbp),%eax
   1038a:	48 63 f0             	movslq %eax,%rsi
   1038d:	48 89 d0             	mov    %rdx,%rax
   10390:	48 c1 e0 03          	shl    $0x3,%rax
   10394:	48 01 d0             	add    %rdx,%rax
   10397:	48 01 f0             	add    %rsi,%rax
   1039a:	48 c1 e0 02          	shl    $0x2,%rax
   1039e:	48 01 c8             	add    %rcx,%rax
   103a1:	48 8d 14 00          	lea    (%rax,%rax,1),%rdx
   103a5:	48 8d 05 34 8d 00 00 	lea    0x8d34(%rip),%rax        # 190e0 <g_119>
   103ac:	0f b7 04 02          	movzwl (%rdx,%rax,1),%eax
   103b0:	48 0f bf c0          	movswq %ax,%rax
   103b4:	8b 55 fc             	mov    -0x4(%rbp),%edx
   103b7:	48 8d 35 6a 53 00 00 	lea    0x536a(%rip),%rsi        # 15728 <g_2035+0x2680>
   103be:	48 89 c7             	mov    %rax,%rdi
   103c1:	e8 2d 83 ff ff       	callq  86f3 <transparent_crc>
   103c6:	83 7d fc 00          	cmpl   $0x0,-0x4(%rbp)
   103ca:	74 1c                	je     103e8 <main+0x2e1>
   103cc:	8b 4d f8             	mov    -0x8(%rbp),%ecx
   103cf:	8b 55 f4             	mov    -0xc(%rbp),%edx
   103d2:	8b 45 f0             	mov    -0x10(%rbp),%eax
   103d5:	89 c6                	mov    %eax,%esi
   103d7:	48 8d 3d 59 53 00 00 	lea    0x5359(%rip),%rdi        # 15737 <g_2035+0x268f>
   103de:	b8 00 00 00 00       	mov    $0x0,%eax
   103e3:	e8 98 6c ff ff       	callq  7080 <printf@plt>
   103e8:	83 45 f8 01          	addl   $0x1,-0x8(%rbp)
   103ec:	83 7d f8 03          	cmpl   $0x3,-0x8(%rbp)
   103f0:	7e 89                	jle    1037b <main+0x274>
   103f2:	83 45 f4 01          	addl   $0x1,-0xc(%rbp)
   103f6:	83 7d f4 08          	cmpl   $0x8,-0xc(%rbp)
   103fa:	0f 8e 72 ff ff ff    	jle    10372 <main+0x26b>
   10400:	83 45 f0 01          	addl   $0x1,-0x10(%rbp)
   10404:	83 7d f0 02          	cmpl   $0x2,-0x10(%rbp)
   10408:	0f 8e 58 ff ff ff    	jle    10366 <main+0x25f>
   1040e:	c7 45 f0 00 00 00 00 	movl   $0x0,-0x10(%rbp)
   10415:	eb 76                	jmp    1048d <main+0x386>
   10417:	c7 45 f4 00 00 00 00 	movl   $0x0,-0xc(%rbp)
   1041e:	eb 63                	jmp    10483 <main+0x37c>
   10420:	8b 45 f4             	mov    -0xc(%rbp),%eax
   10423:	48 63 c8             	movslq %eax,%rcx
   10426:	8b 45 f0             	mov    -0x10(%rbp),%eax
   10429:	48 63 d0             	movslq %eax,%rdx
   1042c:	48 89 d0             	mov    %rdx,%rax
   1042f:	48 01 c0             	add    %rax,%rax
   10432:	48 01 d0             	add    %rdx,%rax
   10435:	48 01 c8             	add    %rcx,%rax
   10438:	48 8d 14 85 00 00 00 	lea    0x0(,%rax,4),%rdx
   1043f:	00 
   10440:	48 8d 05 79 8d 00 00 	lea    0x8d79(%rip),%rax        # 191c0 <g_122>
   10447:	8b 04 02             	mov    (%rdx,%rax,1),%eax
   1044a:	89 c1                	mov    %eax,%ecx
   1044c:	8b 45 fc             	mov    -0x4(%rbp),%eax
   1044f:	89 c2                	mov    %eax,%edx
   10451:	48 8d 35 f5 52 00 00 	lea    0x52f5(%rip),%rsi        # 1574d <g_2035+0x26a5>
   10458:	48 89 cf             	mov    %rcx,%rdi
   1045b:	e8 93 82 ff ff       	callq  86f3 <transparent_crc>
   10460:	83 7d fc 00          	cmpl   $0x0,-0x4(%rbp)
   10464:	74 19                	je     1047f <main+0x378>
   10466:	8b 55 f4             	mov    -0xc(%rbp),%edx
   10469:	8b 45 f0             	mov    -0x10(%rbp),%eax
   1046c:	89 c6                	mov    %eax,%esi
   1046e:	48 8d 3d 67 52 00 00 	lea    0x5267(%rip),%rdi        # 156dc <g_2035+0x2634>
   10475:	b8 00 00 00 00       	mov    $0x0,%eax
   1047a:	e8 01 6c ff ff       	callq  7080 <printf@plt>
   1047f:	83 45 f4 01          	addl   $0x1,-0xc(%rbp)
   10483:	83 7d f4 02          	cmpl   $0x2,-0xc(%rbp)
   10487:	7e 97                	jle    10420 <main+0x319>
   10489:	83 45 f0 01          	addl   $0x1,-0x10(%rbp)
   1048d:	83 7d f0 09          	cmpl   $0x9,-0x10(%rbp)
   10491:	7e 84                	jle    10417 <main+0x310>
   10493:	c7 45 f0 00 00 00 00 	movl   $0x0,-0x10(%rbp)
   1049a:	e9 d3 01 00 00       	jmpq   10672 <main+0x56b>
   1049f:	c7 45 f4 00 00 00 00 	movl   $0x0,-0xc(%rbp)
   104a6:	e9 b9 01 00 00       	jmpq   10664 <main+0x55d>
   104ab:	8b 45 f4             	mov    -0xc(%rbp),%eax
   104ae:	48 98                	cltq   
   104b0:	8b 55 f0             	mov    -0x10(%rbp),%edx
   104b3:	48 63 ca             	movslq %edx,%rcx
   104b6:	48 89 c2             	mov    %rax,%rdx
   104b9:	48 01 d2             	add    %rdx,%rdx
   104bc:	48 01 c2             	add    %rax,%rdx
   104bf:	48 8d 04 d5 00 00 00 	lea    0x0(,%rdx,8),%rax
   104c6:	00 
   104c7:	48 89 c2             	mov    %rax,%rdx
   104ca:	48 89 c8             	mov    %rcx,%rax
   104cd:	48 01 c0             	add    %rax,%rax
   104d0:	48 01 c8             	add    %rcx,%rax
   104d3:	48 c1 e0 04          	shl    $0x4,%rax
   104d7:	48 01 c2             	add    %rax,%rdx
   104da:	48 8d 05 5f 8d 00 00 	lea    0x8d5f(%rip),%rax        # 19240 <g_123>
   104e1:	48 01 d0             	add    %rdx,%rax
   104e4:	8b 00                	mov    (%rax),%eax
   104e6:	89 c1                	mov    %eax,%ecx
   104e8:	8b 45 fc             	mov    -0x4(%rbp),%eax
   104eb:	89 c2                	mov    %eax,%edx
   104ed:	48 8d 35 65 52 00 00 	lea    0x5265(%rip),%rsi        # 15759 <g_2035+0x26b1>
   104f4:	48 89 cf             	mov    %rcx,%rdi
   104f7:	e8 f7 81 ff ff       	callq  86f3 <transparent_crc>
   104fc:	8b 45 f4             	mov    -0xc(%rbp),%eax
   104ff:	48 98                	cltq   
   10501:	8b 55 f0             	mov    -0x10(%rbp),%edx
   10504:	48 63 ca             	movslq %edx,%rcx
   10507:	48 89 c2             	mov    %rax,%rdx
   1050a:	48 01 d2             	add    %rdx,%rdx
   1050d:	48 01 c2             	add    %rax,%rdx
   10510:	48 8d 04 d5 00 00 00 	lea    0x0(,%rdx,8),%rax
   10517:	00 
   10518:	48 89 c2             	mov    %rax,%rdx
   1051b:	48 89 c8             	mov    %rcx,%rax
   1051e:	48 01 c0             	add    %rax,%rax
   10521:	48 01 c8             	add    %rcx,%rax
   10524:	48 c1 e0 04          	shl    $0x4,%rax
   10528:	48 01 c2             	add    %rax,%rdx
   1052b:	48 8d 05 12 8d 00 00 	lea    0x8d12(%rip),%rax        # 19244 <g_123+0x4>
   10532:	48 01 d0             	add    %rdx,%rax
   10535:	0f b7 00             	movzwl (%rax),%eax
   10538:	48 0f bf c0          	movswq %ax,%rax
   1053c:	8b 55 fc             	mov    -0x4(%rbp),%edx
   1053f:	48 8d 35 22 52 00 00 	lea    0x5222(%rip),%rsi        # 15768 <g_2035+0x26c0>
   10546:	48 89 c7             	mov    %rax,%rdi
   10549:	e8 a5 81 ff ff       	callq  86f3 <transparent_crc>
   1054e:	8b 45 f4             	mov    -0xc(%rbp),%eax
   10551:	48 98                	cltq   
   10553:	8b 55 f0             	mov    -0x10(%rbp),%edx
   10556:	48 63 ca             	movslq %edx,%rcx
   10559:	48 89 c2             	mov    %rax,%rdx
   1055c:	48 01 d2             	add    %rdx,%rdx
   1055f:	48 01 c2             	add    %rax,%rdx
   10562:	48 8d 04 d5 00 00 00 	lea    0x0(,%rdx,8),%rax
   10569:	00 
   1056a:	48 89 c2             	mov    %rax,%rdx
   1056d:	48 89 c8             	mov    %rcx,%rax
   10570:	48 01 c0             	add    %rax,%rax
   10573:	48 01 c8             	add    %rcx,%rax
   10576:	48 c1 e0 04          	shl    $0x4,%rax
   1057a:	48 01 c2             	add    %rax,%rdx
   1057d:	48 8d 05 c2 8c 00 00 	lea    0x8cc2(%rip),%rax        # 19246 <g_123+0x6>
   10584:	48 01 d0             	add    %rdx,%rax
   10587:	0f b7 00             	movzwl (%rax),%eax
   1058a:	48 0f bf c0          	movswq %ax,%rax
   1058e:	8b 55 fc             	mov    -0x4(%rbp),%edx
   10591:	48 8d 35 df 51 00 00 	lea    0x51df(%rip),%rsi        # 15777 <g_2035+0x26cf>
   10598:	48 89 c7             	mov    %rax,%rdi
   1059b:	e8 53 81 ff ff       	callq  86f3 <transparent_crc>
   105a0:	8b 45 f4             	mov    -0xc(%rbp),%eax
   105a3:	48 98                	cltq   
   105a5:	8b 55 f0             	mov    -0x10(%rbp),%edx
   105a8:	48 63 ca             	movslq %edx,%rcx
   105ab:	48 89 c2             	mov    %rax,%rdx
   105ae:	48 01 d2             	add    %rdx,%rdx
   105b1:	48 01 c2             	add    %rax,%rdx
   105b4:	48 8d 04 d5 00 00 00 	lea    0x0(,%rdx,8),%rax
   105bb:	00 
   105bc:	48 89 c2             	mov    %rax,%rdx
   105bf:	48 89 c8             	mov    %rcx,%rax
   105c2:	48 01 c0             	add    %rax,%rax
   105c5:	48 01 c8             	add    %rcx,%rax
   105c8:	48 c1 e0 04          	shl    $0x4,%rax
   105cc:	48 01 c2             	add    %rax,%rdx
   105cf:	48 8d 05 72 8c 00 00 	lea    0x8c72(%rip),%rax        # 19248 <g_123+0x8>
   105d6:	48 01 d0             	add    %rdx,%rax
   105d9:	48 8b 00             	mov    (%rax),%rax
   105dc:	8b 55 fc             	mov    -0x4(%rbp),%edx
   105df:	48 8d 35 a0 51 00 00 	lea    0x51a0(%rip),%rsi        # 15786 <g_2035+0x26de>
   105e6:	48 89 c7             	mov    %rax,%rdi
   105e9:	e8 05 81 ff ff       	callq  86f3 <transparent_crc>
   105ee:	8b 45 f4             	mov    -0xc(%rbp),%eax
   105f1:	48 98                	cltq   
   105f3:	8b 55 f0             	mov    -0x10(%rbp),%edx
   105f6:	48 63 ca             	movslq %edx,%rcx
   105f9:	48 89 c2             	mov    %rax,%rdx
   105fc:	48 01 d2             	add    %rdx,%rdx
   105ff:	48 01 c2             	add    %rax,%rdx
   10602:	48 8d 04 d5 00 00 00 	lea    0x0(,%rdx,8),%rax
   10609:	00 
   1060a:	48 89 c2             	mov    %rax,%rdx
   1060d:	48 89 c8             	mov    %rcx,%rax
   10610:	48 01 c0             	add    %rax,%rax
   10613:	48 01 c8             	add    %rcx,%rax
   10616:	48 c1 e0 04          	shl    $0x4,%rax
   1061a:	48 01 c2             	add    %rax,%rdx
   1061d:	48 8d 05 2c 8c 00 00 	lea    0x8c2c(%rip),%rax        # 19250 <g_123+0x10>
   10624:	48 01 d0             	add    %rdx,%rax
   10627:	48 8b 00             	mov    (%rax),%rax
   1062a:	48 89 c1             	mov    %rax,%rcx
   1062d:	8b 45 fc             	mov    -0x4(%rbp),%eax
   10630:	89 c2                	mov    %eax,%edx
   10632:	48 8d 35 5c 51 00 00 	lea    0x515c(%rip),%rsi        # 15795 <g_2035+0x26ed>
   10639:	48 89 cf             	mov    %rcx,%rdi
   1063c:	e8 b2 80 ff ff       	callq  86f3 <transparent_crc>
   10641:	83 7d fc 00          	cmpl   $0x0,-0x4(%rbp)
   10645:	74 19                	je     10660 <main+0x559>
   10647:	8b 55 f4             	mov    -0xc(%rbp),%edx
   1064a:	8b 45 f0             	mov    -0x10(%rbp),%eax
   1064d:	89 c6                	mov    %eax,%esi
   1064f:	48 8d 3d 86 50 00 00 	lea    0x5086(%rip),%rdi        # 156dc <g_2035+0x2634>
   10656:	b8 00 00 00 00       	mov    $0x0,%eax
   1065b:	e8 20 6a ff ff       	callq  7080 <printf@plt>
   10660:	83 45 f4 01          	addl   $0x1,-0xc(%rbp)
   10664:	83 7d f4 01          	cmpl   $0x1,-0xc(%rbp)
   10668:	0f 8e 3d fe ff ff    	jle    104ab <main+0x3a4>
   1066e:	83 45 f0 01          	addl   $0x1,-0x10(%rbp)
   10672:	83 7d f0 01          	cmpl   $0x1,-0x10(%rbp)
   10676:	0f 8e 23 fe ff ff    	jle    1049f <main+0x398>
   1067c:	8b 05 1e 8c 00 00    	mov    0x8c1e(%rip),%eax        # 192a0 <g_145>
   10682:	89 c1                	mov    %eax,%ecx
   10684:	8b 45 fc             	mov    -0x4(%rbp),%eax
   10687:	89 c2                	mov    %eax,%edx
   10689:	48 8d 35 14 51 00 00 	lea    0x5114(%rip),%rsi        # 157a4 <g_2035+0x26fc>
   10690:	48 89 cf             	mov    %rcx,%rdi
   10693:	e8 5b 80 ff ff       	callq  86f3 <transparent_crc>
   10698:	0f b7 05 05 8c 00 00 	movzwl 0x8c05(%rip),%eax        # 192a4 <g_145+0x4>
   1069f:	48 0f bf c0          	movswq %ax,%rax
   106a3:	8b 55 fc             	mov    -0x4(%rbp),%edx
   106a6:	48 8d 35 00 51 00 00 	lea    0x5100(%rip),%rsi        # 157ad <g_2035+0x2705>
   106ad:	48 89 c7             	mov    %rax,%rdi
   106b0:	e8 3e 80 ff ff       	callq  86f3 <transparent_crc>
   106b5:	0f b7 05 ea 8b 00 00 	movzwl 0x8bea(%rip),%eax        # 192a6 <g_145+0x6>
   106bc:	48 0f bf c0          	movswq %ax,%rax
   106c0:	8b 55 fc             	mov    -0x4(%rbp),%edx
   106c3:	48 8d 35 ec 50 00 00 	lea    0x50ec(%rip),%rsi        # 157b6 <g_2035+0x270e>
   106ca:	48 89 c7             	mov    %rax,%rdi
   106cd:	e8 21 80 ff ff       	callq  86f3 <transparent_crc>
   106d2:	48 8b 05 cf 8b 00 00 	mov    0x8bcf(%rip),%rax        # 192a8 <g_145+0x8>
   106d9:	8b 55 fc             	mov    -0x4(%rbp),%edx
   106dc:	48 8d 35 dc 50 00 00 	lea    0x50dc(%rip),%rsi        # 157bf <g_2035+0x2717>
   106e3:	48 89 c7             	mov    %rax,%rdi
   106e6:	e8 08 80 ff ff       	callq  86f3 <transparent_crc>
   106eb:	48 8b 05 be 8b 00 00 	mov    0x8bbe(%rip),%rax        # 192b0 <g_145+0x10>
   106f2:	48 89 c1             	mov    %rax,%rcx
   106f5:	8b 45 fc             	mov    -0x4(%rbp),%eax
   106f8:	89 c2                	mov    %eax,%edx
   106fa:	48 8d 35 c7 50 00 00 	lea    0x50c7(%rip),%rsi        # 157c8 <g_2035+0x2720>
   10701:	48 89 cf             	mov    %rcx,%rdi
   10704:	e8 ea 7f ff ff       	callq  86f3 <transparent_crc>
   10709:	c7 45 f0 00 00 00 00 	movl   $0x0,-0x10(%rbp)
   10710:	e9 ae 00 00 00       	jmpq   107c3 <main+0x6bc>
   10715:	c7 45 f4 00 00 00 00 	movl   $0x0,-0xc(%rbp)
   1071c:	e9 94 00 00 00       	jmpq   107b5 <main+0x6ae>
   10721:	c7 45 f8 00 00 00 00 	movl   $0x0,-0x8(%rbp)
   10728:	eb 7d                	jmp    107a7 <main+0x6a0>
   1072a:	8b 45 f8             	mov    -0x8(%rbp),%eax
   1072d:	48 63 f0             	movslq %eax,%rsi
   10730:	8b 45 f0             	mov    -0x10(%rbp),%eax
   10733:	48 98                	cltq   
   10735:	8b 55 f4             	mov    -0xc(%rbp),%edx
   10738:	48 63 ca             	movslq %edx,%rcx
   1073b:	48 89 c2             	mov    %rax,%rdx
   1073e:	48 c1 e2 04          	shl    $0x4,%rdx
   10742:	48 29 c2             	sub    %rax,%rdx
   10745:	48 8d 04 12          	lea    (%rdx,%rdx,1),%rax
   10749:	48 89 c2             	mov    %rax,%rdx
   1074c:	48 89 c8             	mov    %rcx,%rax
   1074f:	48 01 c0             	add    %rax,%rax
   10752:	48 01 c8             	add    %rcx,%rax
   10755:	48 01 c0             	add    %rax,%rax
   10758:	48 01 d0             	add    %rdx,%rax
   1075b:	48 8d 14 30          	lea    (%rax,%rsi,1),%rdx
   1075f:	48 8d 05 5a 8b 00 00 	lea    0x8b5a(%rip),%rax        # 192c0 <g_164>
   10766:	48 01 d0             	add    %rdx,%rax
   10769:	0f b6 00             	movzbl (%rax),%eax
   1076c:	0f b6 c0             	movzbl %al,%eax
   1076f:	8b 55 fc             	mov    -0x4(%rbp),%edx
   10772:	48 8d 35 58 50 00 00 	lea    0x5058(%rip),%rsi        # 157d1 <g_2035+0x2729>
   10779:	48 89 c7             	mov    %rax,%rdi
   1077c:	e8 72 7f ff ff       	callq  86f3 <transparent_crc>
   10781:	83 7d fc 00          	cmpl   $0x0,-0x4(%rbp)
   10785:	74 1c                	je     107a3 <main+0x69c>
   10787:	8b 4d f8             	mov    -0x8(%rbp),%ecx
   1078a:	8b 55 f4             	mov    -0xc(%rbp),%edx
   1078d:	8b 45 f0             	mov    -0x10(%rbp),%eax
   10790:	89 c6                	mov    %eax,%esi
   10792:	48 8d 3d 9e 4f 00 00 	lea    0x4f9e(%rip),%rdi        # 15737 <g_2035+0x268f>
   10799:	b8 00 00 00 00       	mov    $0x0,%eax
   1079e:	e8 dd 68 ff ff       	callq  7080 <printf@plt>
   107a3:	83 45 f8 01          	addl   $0x1,-0x8(%rbp)
   107a7:	83 7d f8 05          	cmpl   $0x5,-0x8(%rbp)
   107ab:	0f 8e 79 ff ff ff    	jle    1072a <main+0x623>
   107b1:	83 45 f4 01          	addl   $0x1,-0xc(%rbp)
   107b5:	83 7d f4 04          	cmpl   $0x4,-0xc(%rbp)
   107b9:	0f 8e 62 ff ff ff    	jle    10721 <main+0x61a>
   107bf:	83 45 f0 01          	addl   $0x1,-0x10(%rbp)
   107c3:	83 7d f0 03          	cmpl   $0x3,-0x10(%rbp)
   107c7:	0f 8e 48 ff ff ff    	jle    10715 <main+0x60e>
   107cd:	0f b6 05 64 8b 00 00 	movzbl 0x8b64(%rip),%eax        # 19338 <g_170>
   107d4:	0f b6 c0             	movzbl %al,%eax
   107d7:	8b 55 fc             	mov    -0x4(%rbp),%edx
   107da:	48 8d 35 ff 4f 00 00 	lea    0x4fff(%rip),%rsi        # 157e0 <g_2035+0x2738>
   107e1:	48 89 c7             	mov    %rax,%rdi
   107e4:	e8 0a 7f ff ff       	callq  86f3 <transparent_crc>
   107e9:	8b 05 4d 8b 00 00    	mov    0x8b4d(%rip),%eax        # 1933c <g_193>
   107ef:	89 c1                	mov    %eax,%ecx
   107f1:	8b 45 fc             	mov    -0x4(%rbp),%eax
   107f4:	89 c2                	mov    %eax,%edx
   107f6:	48 8d 35 e9 4f 00 00 	lea    0x4fe9(%rip),%rsi        # 157e6 <g_2035+0x273e>
   107fd:	48 89 cf             	mov    %rcx,%rdi
   10800:	e8 ee 7e ff ff       	callq  86f3 <transparent_crc>
   10805:	48 8b 05 34 8b 00 00 	mov    0x8b34(%rip),%rax        # 19340 <g_195>
   1080c:	8b 55 fc             	mov    -0x4(%rbp),%edx
   1080f:	48 8d 35 d6 4f 00 00 	lea    0x4fd6(%rip),%rsi        # 157ec <g_2035+0x2744>
   10816:	48 89 c7             	mov    %rax,%rdi
   10819:	e8 d5 7e ff ff       	callq  86f3 <transparent_crc>
   1081e:	8b 05 2c 8b 00 00    	mov    0x8b2c(%rip),%eax        # 19350 <g_309>
   10824:	89 c1                	mov    %eax,%ecx
   10826:	8b 45 fc             	mov    -0x4(%rbp),%eax
   10829:	89 c2                	mov    %eax,%edx
   1082b:	48 8d 35 c0 4f 00 00 	lea    0x4fc0(%rip),%rsi        # 157f2 <g_2035+0x274a>
   10832:	48 89 cf             	mov    %rcx,%rdi
   10835:	e8 b9 7e ff ff       	callq  86f3 <transparent_crc>
   1083a:	0f b7 05 13 8b 00 00 	movzwl 0x8b13(%rip),%eax        # 19354 <g_309+0x4>
   10841:	48 0f bf c0          	movswq %ax,%rax
   10845:	8b 55 fc             	mov    -0x4(%rbp),%edx
   10848:	48 8d 35 ac 4f 00 00 	lea    0x4fac(%rip),%rsi        # 157fb <g_2035+0x2753>
   1084f:	48 89 c7             	mov    %rax,%rdi
   10852:	e8 9c 7e ff ff       	callq  86f3 <transparent_crc>
   10857:	0f b7 05 f8 8a 00 00 	movzwl 0x8af8(%rip),%eax        # 19356 <g_309+0x6>
   1085e:	48 0f bf c0          	movswq %ax,%rax
   10862:	8b 55 fc             	mov    -0x4(%rbp),%edx
   10865:	48 8d 35 98 4f 00 00 	lea    0x4f98(%rip),%rsi        # 15804 <g_2035+0x275c>
   1086c:	48 89 c7             	mov    %rax,%rdi
   1086f:	e8 7f 7e ff ff       	callq  86f3 <transparent_crc>
   10874:	48 8b 05 dd 8a 00 00 	mov    0x8add(%rip),%rax        # 19358 <g_309+0x8>
   1087b:	8b 55 fc             	mov    -0x4(%rbp),%edx
   1087e:	48 8d 35 88 4f 00 00 	lea    0x4f88(%rip),%rsi        # 1580d <g_2035+0x2765>
   10885:	48 89 c7             	mov    %rax,%rdi
   10888:	e8 66 7e ff ff       	callq  86f3 <transparent_crc>
   1088d:	48 8b 05 cc 8a 00 00 	mov    0x8acc(%rip),%rax        # 19360 <g_309+0x10>
   10894:	48 89 c1             	mov    %rax,%rcx
   10897:	8b 45 fc             	mov    -0x4(%rbp),%eax
   1089a:	89 c2                	mov    %eax,%edx
   1089c:	48 8d 35 73 4f 00 00 	lea    0x4f73(%rip),%rsi        # 15816 <g_2035+0x276e>
   108a3:	48 89 cf             	mov    %rcx,%rdi
   108a6:	e8 48 7e ff ff       	callq  86f3 <transparent_crc>
   108ab:	0f b7 05 b6 8a 00 00 	movzwl 0x8ab6(%rip),%eax        # 19368 <g_366>
   108b2:	0f b7 c0             	movzwl %ax,%eax
   108b5:	8b 55 fc             	mov    -0x4(%rbp),%edx
   108b8:	48 8d 35 60 4f 00 00 	lea    0x4f60(%rip),%rsi        # 1581f <g_2035+0x2777>
   108bf:	48 89 c7             	mov    %rax,%rdi
   108c2:	e8 2c 7e ff ff       	callq  86f3 <transparent_crc>
   108c7:	8b 05 a3 8a 00 00    	mov    0x8aa3(%rip),%eax        # 19370 <g_369>
   108cd:	89 c1                	mov    %eax,%ecx
   108cf:	8b 45 fc             	mov    -0x4(%rbp),%eax
   108d2:	89 c2                	mov    %eax,%edx
   108d4:	48 8d 35 4a 4f 00 00 	lea    0x4f4a(%rip),%rsi        # 15825 <g_2035+0x277d>
   108db:	48 89 cf             	mov    %rcx,%rdi
   108de:	e8 10 7e ff ff       	callq  86f3 <transparent_crc>
   108e3:	0f b7 05 8a 8a 00 00 	movzwl 0x8a8a(%rip),%eax        # 19374 <g_369+0x4>
   108ea:	48 0f bf c0          	movswq %ax,%rax
   108ee:	8b 55 fc             	mov    -0x4(%rbp),%edx
   108f1:	48 8d 35 36 4f 00 00 	lea    0x4f36(%rip),%rsi        # 1582e <g_2035+0x2786>
   108f8:	48 89 c7             	mov    %rax,%rdi
   108fb:	e8 f3 7d ff ff       	callq  86f3 <transparent_crc>
   10900:	0f b7 05 6f 8a 00 00 	movzwl 0x8a6f(%rip),%eax        # 19376 <g_369+0x6>
   10907:	48 0f bf c0          	movswq %ax,%rax
   1090b:	8b 55 fc             	mov    -0x4(%rbp),%edx
   1090e:	48 8d 35 22 4f 00 00 	lea    0x4f22(%rip),%rsi        # 15837 <g_2035+0x278f>
   10915:	48 89 c7             	mov    %rax,%rdi
   10918:	e8 d6 7d ff ff       	callq  86f3 <transparent_crc>
   1091d:	48 8b 05 54 8a 00 00 	mov    0x8a54(%rip),%rax        # 19378 <g_369+0x8>
   10924:	8b 55 fc             	mov    -0x4(%rbp),%edx
   10927:	48 8d 35 12 4f 00 00 	lea    0x4f12(%rip),%rsi        # 15840 <g_2035+0x2798>
   1092e:	48 89 c7             	mov    %rax,%rdi
   10931:	e8 bd 7d ff ff       	callq  86f3 <transparent_crc>
   10936:	48 8b 05 43 8a 00 00 	mov    0x8a43(%rip),%rax        # 19380 <g_369+0x10>
   1093d:	48 89 c1             	mov    %rax,%rcx
   10940:	8b 45 fc             	mov    -0x4(%rbp),%eax
   10943:	89 c2                	mov    %eax,%edx
   10945:	48 8d 35 fd 4e 00 00 	lea    0x4efd(%rip),%rsi        # 15849 <g_2035+0x27a1>
   1094c:	48 89 cf             	mov    %rcx,%rdi
   1094f:	e8 9f 7d ff ff       	callq  86f3 <transparent_crc>
   10954:	b8 f8 ff ff ff       	mov    $0xfffffff8,%eax
   10959:	0f b7 c0             	movzwl %ax,%eax
   1095c:	8b 55 fc             	mov    -0x4(%rbp),%edx
   1095f:	48 8d 35 ec 4e 00 00 	lea    0x4eec(%rip),%rsi        # 15852 <g_2035+0x27aa>
   10966:	48 89 c7             	mov    %rax,%rdi
   10969:	e8 85 7d ff ff       	callq  86f3 <transparent_crc>
   1096e:	0f b6 05 13 8a 00 00 	movzbl 0x8a13(%rip),%eax        # 19388 <g_416>
   10975:	48 0f be c0          	movsbq %al,%rax
   10979:	8b 55 fc             	mov    -0x4(%rbp),%edx
   1097c:	48 8d 35 d5 4e 00 00 	lea    0x4ed5(%rip),%rsi        # 15858 <g_2035+0x27b0>
   10983:	48 89 c7             	mov    %rax,%rdi
   10986:	e8 68 7d ff ff       	callq  86f3 <transparent_crc>
   1098b:	48 8b 05 fe 89 00 00 	mov    0x89fe(%rip),%rax        # 19390 <g_417>
   10992:	8b 55 fc             	mov    -0x4(%rbp),%edx
   10995:	48 8d 35 c2 4e 00 00 	lea    0x4ec2(%rip),%rsi        # 1585e <g_2035+0x27b6>
   1099c:	48 89 c7             	mov    %rax,%rdi
   1099f:	e8 4f 7d ff ff       	callq  86f3 <transparent_crc>
   109a4:	0f b6 05 ed 89 00 00 	movzbl 0x89ed(%rip),%eax        # 19398 <g_441>
   109ab:	0f b6 c0             	movzbl %al,%eax
   109ae:	8b 55 fc             	mov    -0x4(%rbp),%edx
   109b1:	48 8d 35 ac 4e 00 00 	lea    0x4eac(%rip),%rsi        # 15864 <g_2035+0x27bc>
   109b8:	48 89 c7             	mov    %rax,%rdi
   109bb:	e8 33 7d ff ff       	callq  86f3 <transparent_crc>
   109c0:	c7 45 f0 00 00 00 00 	movl   $0x0,-0x10(%rbp)
   109c7:	eb 4a                	jmp    10a13 <main+0x90c>
   109c9:	8b 45 f0             	mov    -0x10(%rbp),%eax
   109cc:	48 98                	cltq   
   109ce:	48 8d 14 00          	lea    (%rax,%rax,1),%rdx
   109d2:	48 8d 05 c1 89 00 00 	lea    0x89c1(%rip),%rax        # 1939a <g_487>
   109d9:	0f b7 04 02          	movzwl (%rdx,%rax,1),%eax
   109dd:	48 0f bf c0          	movswq %ax,%rax
   109e1:	8b 55 fc             	mov    -0x4(%rbp),%edx
   109e4:	48 8d 35 7f 4e 00 00 	lea    0x4e7f(%rip),%rsi        # 1586a <g_2035+0x27c2>
   109eb:	48 89 c7             	mov    %rax,%rdi
   109ee:	e8 00 7d ff ff       	callq  86f3 <transparent_crc>
   109f3:	83 7d fc 00          	cmpl   $0x0,-0x4(%rbp)
   109f7:	74 16                	je     10a0f <main+0x908>
   109f9:	8b 45 f0             	mov    -0x10(%rbp),%eax
   109fc:	89 c6                	mov    %eax,%esi
   109fe:	48 8d 3d 6e 4e 00 00 	lea    0x4e6e(%rip),%rdi        # 15873 <g_2035+0x27cb>
   10a05:	b8 00 00 00 00       	mov    $0x0,%eax
   10a0a:	e8 71 66 ff ff       	callq  7080 <printf@plt>
   10a0f:	83 45 f0 01          	addl   $0x1,-0x10(%rbp)
   10a13:	83 7d f0 02          	cmpl   $0x2,-0x10(%rbp)
   10a17:	7e b0                	jle    109c9 <main+0x8c2>
   10a19:	48 8b 05 80 89 00 00 	mov    0x8980(%rip),%rax        # 193a0 <g_497>
   10a20:	48 89 c1             	mov    %rax,%rcx
   10a23:	8b 45 fc             	mov    -0x4(%rbp),%eax
   10a26:	89 c2                	mov    %eax,%edx
   10a28:	48 8d 35 52 4e 00 00 	lea    0x4e52(%rip),%rsi        # 15881 <g_2035+0x27d9>
   10a2f:	48 89 cf             	mov    %rcx,%rdi
   10a32:	e8 bc 7c ff ff       	callq  86f3 <transparent_crc>
   10a37:	8b 05 6b 89 00 00    	mov    0x896b(%rip),%eax        # 193a8 <g_505>
   10a3d:	48 98                	cltq   
   10a3f:	8b 55 fc             	mov    -0x4(%rbp),%edx
   10a42:	48 8d 35 3e 4e 00 00 	lea    0x4e3e(%rip),%rsi        # 15887 <g_2035+0x27df>
   10a49:	48 89 c7             	mov    %rax,%rdi
   10a4c:	e8 a2 7c ff ff       	callq  86f3 <transparent_crc>
   10a51:	8b 05 c9 c2 00 00    	mov    0xc2c9(%rip),%eax        # 1cd20 <g_506>
   10a57:	48 98                	cltq   
   10a59:	8b 55 fc             	mov    -0x4(%rbp),%edx
   10a5c:	48 8d 35 2a 4e 00 00 	lea    0x4e2a(%rip),%rsi        # 1588d <g_2035+0x27e5>
   10a63:	48 89 c7             	mov    %rax,%rdi
   10a66:	e8 88 7c ff ff       	callq  86f3 <transparent_crc>
   10a6b:	8b 05 3f 89 00 00    	mov    0x893f(%rip),%eax        # 193b0 <g_511>
   10a71:	89 c1                	mov    %eax,%ecx
   10a73:	8b 45 fc             	mov    -0x4(%rbp),%eax
   10a76:	89 c2                	mov    %eax,%edx
   10a78:	48 8d 35 14 4e 00 00 	lea    0x4e14(%rip),%rsi        # 15893 <g_2035+0x27eb>
   10a7f:	48 89 cf             	mov    %rcx,%rdi
   10a82:	e8 6c 7c ff ff       	callq  86f3 <transparent_crc>
   10a87:	0f b7 05 26 89 00 00 	movzwl 0x8926(%rip),%eax        # 193b4 <g_511+0x4>
   10a8e:	48 0f bf c0          	movswq %ax,%rax
   10a92:	8b 55 fc             	mov    -0x4(%rbp),%edx
   10a95:	48 8d 35 00 4e 00 00 	lea    0x4e00(%rip),%rsi        # 1589c <g_2035+0x27f4>
   10a9c:	48 89 c7             	mov    %rax,%rdi
   10a9f:	e8 4f 7c ff ff       	callq  86f3 <transparent_crc>
   10aa4:	0f b7 05 0b 89 00 00 	movzwl 0x890b(%rip),%eax        # 193b6 <g_511+0x6>
   10aab:	48 0f bf c0          	movswq %ax,%rax
   10aaf:	8b 55 fc             	mov    -0x4(%rbp),%edx
   10ab2:	48 8d 35 ec 4d 00 00 	lea    0x4dec(%rip),%rsi        # 158a5 <g_2035+0x27fd>
   10ab9:	48 89 c7             	mov    %rax,%rdi
   10abc:	e8 32 7c ff ff       	callq  86f3 <transparent_crc>
   10ac1:	48 8b 05 f0 88 00 00 	mov    0x88f0(%rip),%rax        # 193b8 <g_511+0x8>
   10ac8:	8b 55 fc             	mov    -0x4(%rbp),%edx
   10acb:	48 8d 35 dc 4d 00 00 	lea    0x4ddc(%rip),%rsi        # 158ae <g_2035+0x2806>
   10ad2:	48 89 c7             	mov    %rax,%rdi
   10ad5:	e8 19 7c ff ff       	callq  86f3 <transparent_crc>
   10ada:	48 8b 05 df 88 00 00 	mov    0x88df(%rip),%rax        # 193c0 <g_511+0x10>
   10ae1:	48 89 c1             	mov    %rax,%rcx
   10ae4:	8b 45 fc             	mov    -0x4(%rbp),%eax
   10ae7:	89 c2                	mov    %eax,%edx
   10ae9:	48 8d 35 c7 4d 00 00 	lea    0x4dc7(%rip),%rsi        # 158b7 <g_2035+0x280f>
   10af0:	48 89 cf             	mov    %rcx,%rdi
   10af3:	e8 fb 7b ff ff       	callq  86f3 <transparent_crc>
   10af8:	8b 05 ca 88 00 00    	mov    0x88ca(%rip),%eax        # 193c8 <g_526>
   10afe:	48 98                	cltq   
   10b00:	8b 55 fc             	mov    -0x4(%rbp),%edx
   10b03:	48 8d 35 b6 4d 00 00 	lea    0x4db6(%rip),%rsi        # 158c0 <g_2035+0x2818>
   10b0a:	48 89 c7             	mov    %rax,%rdi
   10b0d:	e8 e1 7b ff ff       	callq  86f3 <transparent_crc>
   10b12:	8b 05 b4 88 00 00    	mov    0x88b4(%rip),%eax        # 193cc <g_531>
   10b18:	48 98                	cltq   
   10b1a:	8b 55 fc             	mov    -0x4(%rbp),%edx
   10b1d:	48 8d 35 a2 4d 00 00 	lea    0x4da2(%rip),%rsi        # 158c6 <g_2035+0x281e>
   10b24:	48 89 c7             	mov    %rax,%rdi
   10b27:	e8 c7 7b ff ff       	callq  86f3 <transparent_crc>
   10b2c:	0f b7 05 f1 c1 00 00 	movzwl 0xc1f1(%rip),%eax        # 1cd24 <g_601>
   10b33:	48 0f bf c0          	movswq %ax,%rax
   10b37:	8b 55 fc             	mov    -0x4(%rbp),%edx
   10b3a:	48 8d 35 8b 4d 00 00 	lea    0x4d8b(%rip),%rsi        # 158cc <g_2035+0x2824>
   10b41:	48 89 c7             	mov    %rax,%rdi
   10b44:	e8 aa 7b ff ff       	callq  86f3 <transparent_crc>
   10b49:	8b 05 81 88 00 00    	mov    0x8881(%rip),%eax        # 193d0 <g_605>
   10b4f:	89 c1                	mov    %eax,%ecx
   10b51:	8b 45 fc             	mov    -0x4(%rbp),%eax
   10b54:	89 c2                	mov    %eax,%edx
   10b56:	48 8d 35 75 4d 00 00 	lea    0x4d75(%rip),%rsi        # 158d2 <g_2035+0x282a>
   10b5d:	48 89 cf             	mov    %rcx,%rdi
   10b60:	e8 8e 7b ff ff       	callq  86f3 <transparent_crc>
   10b65:	8b 05 75 88 00 00    	mov    0x8875(%rip),%eax        # 193e0 <g_676>
   10b6b:	89 c1                	mov    %eax,%ecx
   10b6d:	8b 45 fc             	mov    -0x4(%rbp),%eax
   10b70:	89 c2                	mov    %eax,%edx
   10b72:	48 8d 35 5f 4d 00 00 	lea    0x4d5f(%rip),%rsi        # 158d8 <g_2035+0x2830>
   10b79:	48 89 cf             	mov    %rcx,%rdi
   10b7c:	e8 72 7b ff ff       	callq  86f3 <transparent_crc>
   10b81:	0f b7 05 5c 88 00 00 	movzwl 0x885c(%rip),%eax        # 193e4 <g_676+0x4>
   10b88:	48 0f bf c0          	movswq %ax,%rax
   10b8c:	8b 55 fc             	mov    -0x4(%rbp),%edx
   10b8f:	48 8d 35 4b 4d 00 00 	lea    0x4d4b(%rip),%rsi        # 158e1 <g_2035+0x2839>
   10b96:	48 89 c7             	mov    %rax,%rdi
   10b99:	e8 55 7b ff ff       	callq  86f3 <transparent_crc>
   10b9e:	0f b7 05 41 88 00 00 	movzwl 0x8841(%rip),%eax        # 193e6 <g_676+0x6>
   10ba5:	48 0f bf c0          	movswq %ax,%rax
   10ba9:	8b 55 fc             	mov    -0x4(%rbp),%edx
   10bac:	48 8d 35 37 4d 00 00 	lea    0x4d37(%rip),%rsi        # 158ea <g_2035+0x2842>
   10bb3:	48 89 c7             	mov    %rax,%rdi
   10bb6:	e8 38 7b ff ff       	callq  86f3 <transparent_crc>
   10bbb:	48 8b 05 26 88 00 00 	mov    0x8826(%rip),%rax        # 193e8 <g_676+0x8>
   10bc2:	8b 55 fc             	mov    -0x4(%rbp),%edx
   10bc5:	48 8d 35 27 4d 00 00 	lea    0x4d27(%rip),%rsi        # 158f3 <g_2035+0x284b>
   10bcc:	48 89 c7             	mov    %rax,%rdi
   10bcf:	e8 1f 7b ff ff       	callq  86f3 <transparent_crc>
   10bd4:	48 8b 05 15 88 00 00 	mov    0x8815(%rip),%rax        # 193f0 <g_676+0x10>
   10bdb:	48 89 c1             	mov    %rax,%rcx
   10bde:	8b 45 fc             	mov    -0x4(%rbp),%eax
   10be1:	89 c2                	mov    %eax,%edx
   10be3:	48 8d 35 12 4d 00 00 	lea    0x4d12(%rip),%rsi        # 158fc <g_2035+0x2854>
   10bea:	48 89 cf             	mov    %rcx,%rdi
   10bed:	e8 01 7b ff ff       	callq  86f3 <transparent_crc>
   10bf2:	c7 45 f0 00 00 00 00 	movl   $0x0,-0x10(%rbp)
   10bf9:	e9 af 00 00 00       	jmpq   10cad <main+0xba6>
   10bfe:	c7 45 f4 00 00 00 00 	movl   $0x0,-0xc(%rbp)
   10c05:	e9 95 00 00 00       	jmpq   10c9f <main+0xb98>
   10c0a:	c7 45 f8 00 00 00 00 	movl   $0x0,-0x8(%rbp)
   10c11:	eb 7e                	jmp    10c91 <main+0xb8a>
   10c13:	8b 45 f8             	mov    -0x8(%rbp),%eax
   10c16:	48 63 f0             	movslq %eax,%rsi
   10c19:	8b 45 f0             	mov    -0x10(%rbp),%eax
   10c1c:	48 63 d0             	movslq %eax,%rdx
   10c1f:	8b 45 f4             	mov    -0xc(%rbp),%eax
   10c22:	48 63 c8             	movslq %eax,%rcx
   10c25:	48 89 d0             	mov    %rdx,%rax
   10c28:	48 c1 e0 02          	shl    $0x2,%rax
   10c2c:	48 01 d0             	add    %rdx,%rax
   10c2f:	48 c1 e0 02          	shl    $0x2,%rax
   10c33:	48 89 ca             	mov    %rcx,%rdx
   10c36:	48 c1 e2 02          	shl    $0x2,%rdx
   10c3a:	48 01 ca             	add    %rcx,%rdx
   10c3d:	48 01 d0             	add    %rdx,%rax
   10c40:	48 01 f0             	add    %rsi,%rax
   10c43:	48 8d 14 85 00 00 00 	lea    0x0(,%rax,4),%rdx
   10c4a:	00 
   10c4b:	48 8d 05 ae 87 00 00 	lea    0x87ae(%rip),%rax        # 19400 <g_730>
   10c52:	8b 04 02             	mov    (%rdx,%rax,1),%eax
   10c55:	89 c1                	mov    %eax,%ecx
   10c57:	8b 45 fc             	mov    -0x4(%rbp),%eax
   10c5a:	89 c2                	mov    %eax,%edx
   10c5c:	48 8d 35 a2 4c 00 00 	lea    0x4ca2(%rip),%rsi        # 15905 <g_2035+0x285d>
   10c63:	48 89 cf             	mov    %rcx,%rdi
   10c66:	e8 88 7a ff ff       	callq  86f3 <transparent_crc>
   10c6b:	83 7d fc 00          	cmpl   $0x0,-0x4(%rbp)
   10c6f:	74 1c                	je     10c8d <main+0xb86>
   10c71:	8b 4d f8             	mov    -0x8(%rbp),%ecx
   10c74:	8b 55 f4             	mov    -0xc(%rbp),%edx
   10c77:	8b 45 f0             	mov    -0x10(%rbp),%eax
   10c7a:	89 c6                	mov    %eax,%esi
   10c7c:	48 8d 3d b4 4a 00 00 	lea    0x4ab4(%rip),%rdi        # 15737 <g_2035+0x268f>
   10c83:	b8 00 00 00 00       	mov    $0x0,%eax
   10c88:	e8 f3 63 ff ff       	callq  7080 <printf@plt>
   10c8d:	83 45 f8 01          	addl   $0x1,-0x8(%rbp)
   10c91:	83 7d f8 04          	cmpl   $0x4,-0x8(%rbp)
   10c95:	0f 8e 78 ff ff ff    	jle    10c13 <main+0xb0c>
   10c9b:	83 45 f4 01          	addl   $0x1,-0xc(%rbp)
   10c9f:	83 7d f4 03          	cmpl   $0x3,-0xc(%rbp)
   10ca3:	0f 8e 61 ff ff ff    	jle    10c0a <main+0xb03>
   10ca9:	83 45 f0 01          	addl   $0x1,-0x10(%rbp)
   10cad:	83 7d f0 03          	cmpl   $0x3,-0x10(%rbp)
   10cb1:	0f 8e 47 ff ff ff    	jle    10bfe <main+0xaf7>
   10cb7:	8b 05 83 88 00 00    	mov    0x8883(%rip),%eax        # 19540 <g_735>
   10cbd:	89 c1                	mov    %eax,%ecx
   10cbf:	8b 45 fc             	mov    -0x4(%rbp),%eax
   10cc2:	89 c2                	mov    %eax,%edx
   10cc4:	48 8d 35 49 4c 00 00 	lea    0x4c49(%rip),%rsi        # 15914 <g_2035+0x286c>
   10ccb:	48 89 cf             	mov    %rcx,%rdi
   10cce:	e8 20 7a ff ff       	callq  86f3 <transparent_crc>
   10cd3:	b9 00 00 00 00       	mov    $0x0,%ecx
   10cd8:	8b 45 fc             	mov    -0x4(%rbp),%eax
   10cdb:	89 c2                	mov    %eax,%edx
   10cdd:	48 8d 35 36 4c 00 00 	lea    0x4c36(%rip),%rsi        # 1591a <g_2035+0x2872>
   10ce4:	48 89 cf             	mov    %rcx,%rdi
   10ce7:	e8 07 7a ff ff       	callq  86f3 <transparent_crc>
   10cec:	48 8b 05 55 88 00 00 	mov    0x8855(%rip),%rax        # 19548 <g_834>
   10cf3:	48 89 c1             	mov    %rax,%rcx
   10cf6:	8b 45 fc             	mov    -0x4(%rbp),%eax
   10cf9:	89 c2                	mov    %eax,%edx
   10cfb:	48 8d 35 1e 4c 00 00 	lea    0x4c1e(%rip),%rsi        # 15920 <g_2035+0x2878>
   10d02:	48 89 cf             	mov    %rcx,%rdi
   10d05:	e8 e9 79 ff ff       	callq  86f3 <transparent_crc>
   10d0a:	8b 05 40 88 00 00    	mov    0x8840(%rip),%eax        # 19550 <g_898>
   10d10:	89 c1                	mov    %eax,%ecx
   10d12:	8b 45 fc             	mov    -0x4(%rbp),%eax
   10d15:	89 c2                	mov    %eax,%edx
   10d17:	48 8d 35 08 4c 00 00 	lea    0x4c08(%rip),%rsi        # 15926 <g_2035+0x287e>
   10d1e:	48 89 cf             	mov    %rcx,%rdi
   10d21:	e8 cd 79 ff ff       	callq  86f3 <transparent_crc>
   10d26:	0f b7 05 27 88 00 00 	movzwl 0x8827(%rip),%eax        # 19554 <g_898+0x4>
   10d2d:	48 0f bf c0          	movswq %ax,%rax
   10d31:	8b 55 fc             	mov    -0x4(%rbp),%edx
   10d34:	48 8d 35 f4 4b 00 00 	lea    0x4bf4(%rip),%rsi        # 1592f <g_2035+0x2887>
   10d3b:	48 89 c7             	mov    %rax,%rdi
   10d3e:	e8 b0 79 ff ff       	callq  86f3 <transparent_crc>
   10d43:	0f b7 05 0c 88 00 00 	movzwl 0x880c(%rip),%eax        # 19556 <g_898+0x6>
   10d4a:	48 0f bf c0          	movswq %ax,%rax
   10d4e:	8b 55 fc             	mov    -0x4(%rbp),%edx
   10d51:	48 8d 35 e0 4b 00 00 	lea    0x4be0(%rip),%rsi        # 15938 <g_2035+0x2890>
   10d58:	48 89 c7             	mov    %rax,%rdi
   10d5b:	e8 93 79 ff ff       	callq  86f3 <transparent_crc>
   10d60:	48 8b 05 f1 87 00 00 	mov    0x87f1(%rip),%rax        # 19558 <g_898+0x8>
   10d67:	8b 55 fc             	mov    -0x4(%rbp),%edx
   10d6a:	48 8d 35 d0 4b 00 00 	lea    0x4bd0(%rip),%rsi        # 15941 <g_2035+0x2899>
   10d71:	48 89 c7             	mov    %rax,%rdi
   10d74:	e8 7a 79 ff ff       	callq  86f3 <transparent_crc>
   10d79:	48 8b 05 e0 87 00 00 	mov    0x87e0(%rip),%rax        # 19560 <g_898+0x10>
   10d80:	48 89 c1             	mov    %rax,%rcx
   10d83:	8b 45 fc             	mov    -0x4(%rbp),%eax
   10d86:	89 c2                	mov    %eax,%edx
   10d88:	48 8d 35 bb 4b 00 00 	lea    0x4bbb(%rip),%rsi        # 1594a <g_2035+0x28a2>
   10d8f:	48 89 cf             	mov    %rcx,%rdi
   10d92:	e8 5c 79 ff ff       	callq  86f3 <transparent_crc>
   10d97:	8b 05 d3 87 00 00    	mov    0x87d3(%rip),%eax        # 19570 <g_907>
   10d9d:	89 c1                	mov    %eax,%ecx
   10d9f:	8b 45 fc             	mov    -0x4(%rbp),%eax
   10da2:	89 c2                	mov    %eax,%edx
   10da4:	48 8d 35 a8 4b 00 00 	lea    0x4ba8(%rip),%rsi        # 15953 <g_2035+0x28ab>
   10dab:	48 89 cf             	mov    %rcx,%rdi
   10dae:	e8 40 79 ff ff       	callq  86f3 <transparent_crc>
   10db3:	0f b7 05 ba 87 00 00 	movzwl 0x87ba(%rip),%eax        # 19574 <g_907+0x4>
   10dba:	48 0f bf c0          	movswq %ax,%rax
   10dbe:	8b 55 fc             	mov    -0x4(%rbp),%edx
   10dc1:	48 8d 35 94 4b 00 00 	lea    0x4b94(%rip),%rsi        # 1595c <g_2035+0x28b4>
   10dc8:	48 89 c7             	mov    %rax,%rdi
   10dcb:	e8 23 79 ff ff       	callq  86f3 <transparent_crc>
   10dd0:	0f b7 05 9f 87 00 00 	movzwl 0x879f(%rip),%eax        # 19576 <g_907+0x6>
   10dd7:	48 0f bf c0          	movswq %ax,%rax
   10ddb:	8b 55 fc             	mov    -0x4(%rbp),%edx
   10dde:	48 8d 35 80 4b 00 00 	lea    0x4b80(%rip),%rsi        # 15965 <g_2035+0x28bd>
   10de5:	48 89 c7             	mov    %rax,%rdi
   10de8:	e8 06 79 ff ff       	callq  86f3 <transparent_crc>
   10ded:	48 8b 05 84 87 00 00 	mov    0x8784(%rip),%rax        # 19578 <g_907+0x8>
   10df4:	8b 55 fc             	mov    -0x4(%rbp),%edx
   10df7:	48 8d 35 70 4b 00 00 	lea    0x4b70(%rip),%rsi        # 1596e <g_2035+0x28c6>
   10dfe:	48 89 c7             	mov    %rax,%rdi
   10e01:	e8 ed 78 ff ff       	callq  86f3 <transparent_crc>
   10e06:	48 8b 05 73 87 00 00 	mov    0x8773(%rip),%rax        # 19580 <g_907+0x10>
   10e0d:	48 89 c1             	mov    %rax,%rcx
   10e10:	8b 45 fc             	mov    -0x4(%rbp),%eax
   10e13:	89 c2                	mov    %eax,%edx
   10e15:	48 8d 35 5b 4b 00 00 	lea    0x4b5b(%rip),%rsi        # 15977 <g_2035+0x28cf>
   10e1c:	48 89 cf             	mov    %rcx,%rdi
   10e1f:	e8 cf 78 ff ff       	callq  86f3 <transparent_crc>
   10e24:	8b 05 5e 87 00 00    	mov    0x875e(%rip),%eax        # 19588 <g_955>
   10e2a:	89 c1                	mov    %eax,%ecx
   10e2c:	8b 45 fc             	mov    -0x4(%rbp),%eax
   10e2f:	89 c2                	mov    %eax,%edx
   10e31:	48 8d 35 48 4b 00 00 	lea    0x4b48(%rip),%rsi        # 15980 <g_2035+0x28d8>
   10e38:	48 89 cf             	mov    %rcx,%rdi
   10e3b:	e8 b3 78 ff ff       	callq  86f3 <transparent_crc>
   10e40:	8b 05 4a 87 00 00    	mov    0x874a(%rip),%eax        # 19590 <g_965>
   10e46:	89 c1                	mov    %eax,%ecx
   10e48:	8b 45 fc             	mov    -0x4(%rbp),%eax
   10e4b:	89 c2                	mov    %eax,%edx
   10e4d:	48 8d 35 32 4b 00 00 	lea    0x4b32(%rip),%rsi        # 15986 <g_2035+0x28de>
   10e54:	48 89 cf             	mov    %rcx,%rdi
   10e57:	e8 97 78 ff ff       	callq  86f3 <transparent_crc>
   10e5c:	0f b7 05 31 87 00 00 	movzwl 0x8731(%rip),%eax        # 19594 <g_965+0x4>
   10e63:	48 0f bf c0          	movswq %ax,%rax
   10e67:	8b 55 fc             	mov    -0x4(%rbp),%edx
   10e6a:	48 8d 35 1e 4b 00 00 	lea    0x4b1e(%rip),%rsi        # 1598f <g_2035+0x28e7>
   10e71:	48 89 c7             	mov    %rax,%rdi
   10e74:	e8 7a 78 ff ff       	callq  86f3 <transparent_crc>
   10e79:	0f b7 05 16 87 00 00 	movzwl 0x8716(%rip),%eax        # 19596 <g_965+0x6>
   10e80:	48 0f bf c0          	movswq %ax,%rax
   10e84:	8b 55 fc             	mov    -0x4(%rbp),%edx
   10e87:	48 8d 35 0a 4b 00 00 	lea    0x4b0a(%rip),%rsi        # 15998 <g_2035+0x28f0>
   10e8e:	48 89 c7             	mov    %rax,%rdi
   10e91:	e8 5d 78 ff ff       	callq  86f3 <transparent_crc>
   10e96:	48 8b 05 fb 86 00 00 	mov    0x86fb(%rip),%rax        # 19598 <g_965+0x8>
   10e9d:	8b 55 fc             	mov    -0x4(%rbp),%edx
   10ea0:	48 8d 35 fa 4a 00 00 	lea    0x4afa(%rip),%rsi        # 159a1 <g_2035+0x28f9>
   10ea7:	48 89 c7             	mov    %rax,%rdi
   10eaa:	e8 44 78 ff ff       	callq  86f3 <transparent_crc>
   10eaf:	48 8b 05 ea 86 00 00 	mov    0x86ea(%rip),%rax        # 195a0 <g_965+0x10>
   10eb6:	48 89 c1             	mov    %rax,%rcx
   10eb9:	8b 45 fc             	mov    -0x4(%rbp),%eax
   10ebc:	89 c2                	mov    %eax,%edx
   10ebe:	48 8d 35 e5 4a 00 00 	lea    0x4ae5(%rip),%rsi        # 159aa <g_2035+0x2902>
   10ec5:	48 89 cf             	mov    %rcx,%rdi
   10ec8:	e8 26 78 ff ff       	callq  86f3 <transparent_crc>
   10ecd:	8b 05 dd 86 00 00    	mov    0x86dd(%rip),%eax        # 195b0 <g_1033>
   10ed3:	89 c1                	mov    %eax,%ecx
   10ed5:	8b 45 fc             	mov    -0x4(%rbp),%eax
   10ed8:	89 c2                	mov    %eax,%edx
   10eda:	48 8d 35 d2 4a 00 00 	lea    0x4ad2(%rip),%rsi        # 159b3 <g_2035+0x290b>
   10ee1:	48 89 cf             	mov    %rcx,%rdi
   10ee4:	e8 0a 78 ff ff       	callq  86f3 <transparent_crc>
   10ee9:	0f b7 05 c4 86 00 00 	movzwl 0x86c4(%rip),%eax        # 195b4 <g_1033+0x4>
   10ef0:	48 0f bf c0          	movswq %ax,%rax
   10ef4:	8b 55 fc             	mov    -0x4(%rbp),%edx
   10ef7:	48 8d 35 bf 4a 00 00 	lea    0x4abf(%rip),%rsi        # 159bd <g_2035+0x2915>
   10efe:	48 89 c7             	mov    %rax,%rdi
   10f01:	e8 ed 77 ff ff       	callq  86f3 <transparent_crc>
   10f06:	0f b7 05 a9 86 00 00 	movzwl 0x86a9(%rip),%eax        # 195b6 <g_1033+0x6>
   10f0d:	48 0f bf c0          	movswq %ax,%rax
   10f11:	8b 55 fc             	mov    -0x4(%rbp),%edx
   10f14:	48 8d 35 ac 4a 00 00 	lea    0x4aac(%rip),%rsi        # 159c7 <g_2035+0x291f>
   10f1b:	48 89 c7             	mov    %rax,%rdi
   10f1e:	e8 d0 77 ff ff       	callq  86f3 <transparent_crc>
   10f23:	48 8b 05 8e 86 00 00 	mov    0x868e(%rip),%rax        # 195b8 <g_1033+0x8>
   10f2a:	8b 55 fc             	mov    -0x4(%rbp),%edx
   10f2d:	48 8d 35 9d 4a 00 00 	lea    0x4a9d(%rip),%rsi        # 159d1 <g_2035+0x2929>
   10f34:	48 89 c7             	mov    %rax,%rdi
   10f37:	e8 b7 77 ff ff       	callq  86f3 <transparent_crc>
   10f3c:	48 8b 05 7d 86 00 00 	mov    0x867d(%rip),%rax        # 195c0 <g_1033+0x10>
   10f43:	48 89 c1             	mov    %rax,%rcx
   10f46:	8b 45 fc             	mov    -0x4(%rbp),%eax
   10f49:	89 c2                	mov    %eax,%edx
   10f4b:	48 8d 35 89 4a 00 00 	lea    0x4a89(%rip),%rsi        # 159db <g_2035+0x2933>
   10f52:	48 89 cf             	mov    %rcx,%rdi
   10f55:	e8 99 77 ff ff       	callq  86f3 <transparent_crc>
   10f5a:	c7 45 f0 00 00 00 00 	movl   $0x0,-0x10(%rbp)
   10f61:	eb 4d                	jmp    10fb0 <main+0xea9>
   10f63:	8b 45 f0             	mov    -0x10(%rbp),%eax
   10f66:	48 98                	cltq   
   10f68:	48 8d 14 85 00 00 00 	lea    0x0(,%rax,4),%rdx
   10f6f:	00 
   10f70:	48 8d 05 51 86 00 00 	lea    0x8651(%rip),%rax        # 195c8 <g_1062>
   10f77:	8b 04 02             	mov    (%rdx,%rax,1),%eax
   10f7a:	89 c1                	mov    %eax,%ecx
   10f7c:	8b 45 fc             	mov    -0x4(%rbp),%eax
   10f7f:	89 c2                	mov    %eax,%edx
   10f81:	48 8d 35 5d 4a 00 00 	lea    0x4a5d(%rip),%rsi        # 159e5 <g_2035+0x293d>
   10f88:	48 89 cf             	mov    %rcx,%rdi
   10f8b:	e8 63 77 ff ff       	callq  86f3 <transparent_crc>
   10f90:	83 7d fc 00          	cmpl   $0x0,-0x4(%rbp)
   10f94:	74 16                	je     10fac <main+0xea5>
   10f96:	8b 45 f0             	mov    -0x10(%rbp),%eax
   10f99:	89 c6                	mov    %eax,%esi
   10f9b:	48 8d 3d d1 48 00 00 	lea    0x48d1(%rip),%rdi        # 15873 <g_2035+0x27cb>
   10fa2:	b8 00 00 00 00       	mov    $0x0,%eax
   10fa7:	e8 d4 60 ff ff       	callq  7080 <printf@plt>
   10fac:	83 45 f0 01          	addl   $0x1,-0x10(%rbp)
   10fb0:	83 7d f0 00          	cmpl   $0x0,-0x10(%rbp)
   10fb4:	7e ad                	jle    10f63 <main+0xe5c>
   10fb6:	48 8b 05 13 86 00 00 	mov    0x8613(%rip),%rax        # 195d0 <g_1090>
   10fbd:	8b 55 fc             	mov    -0x4(%rbp),%edx
   10fc0:	48 8d 35 28 4a 00 00 	lea    0x4a28(%rip),%rsi        # 159ef <g_2035+0x2947>
   10fc7:	48 89 c7             	mov    %rax,%rdi
   10fca:	e8 24 77 ff ff       	callq  86f3 <transparent_crc>
   10fcf:	c7 45 f0 00 00 00 00 	movl   $0x0,-0x10(%rbp)
   10fd6:	eb 4d                	jmp    11025 <main+0xf1e>
   10fd8:	8b 45 f0             	mov    -0x10(%rbp),%eax
   10fdb:	48 98                	cltq   
   10fdd:	48 8d 14 85 00 00 00 	lea    0x0(,%rax,4),%rdx
   10fe4:	00 
   10fe5:	48 8d 05 ec 85 00 00 	lea    0x85ec(%rip),%rax        # 195d8 <g_1120>
   10fec:	8b 04 02             	mov    (%rdx,%rax,1),%eax
   10fef:	89 c1                	mov    %eax,%ecx
   10ff1:	8b 45 fc             	mov    -0x4(%rbp),%eax
   10ff4:	89 c2                	mov    %eax,%edx
   10ff6:	48 8d 35 f9 49 00 00 	lea    0x49f9(%rip),%rsi        # 159f6 <g_2035+0x294e>
   10ffd:	48 89 cf             	mov    %rcx,%rdi
   11000:	e8 ee 76 ff ff       	callq  86f3 <transparent_crc>
   11005:	83 7d fc 00          	cmpl   $0x0,-0x4(%rbp)
   11009:	74 16                	je     11021 <main+0xf1a>
   1100b:	8b 45 f0             	mov    -0x10(%rbp),%eax
   1100e:	89 c6                	mov    %eax,%esi
   11010:	48 8d 3d 5c 48 00 00 	lea    0x485c(%rip),%rdi        # 15873 <g_2035+0x27cb>
   11017:	b8 00 00 00 00       	mov    $0x0,%eax
   1101c:	e8 5f 60 ff ff       	callq  7080 <printf@plt>
   11021:	83 45 f0 01          	addl   $0x1,-0x10(%rbp)
   11025:	83 7d f0 00          	cmpl   $0x0,-0x10(%rbp)
   11029:	7e ad                	jle    10fd8 <main+0xed1>
   1102b:	b8 00 00 00 00       	mov    $0x0,%eax
   11030:	48 98                	cltq   
   11032:	8b 55 fc             	mov    -0x4(%rbp),%edx
   11035:	48 8d 35 c4 49 00 00 	lea    0x49c4(%rip),%rsi        # 15a00 <g_2035+0x2958>
   1103c:	48 89 c7             	mov    %rax,%rdi
   1103f:	e8 af 76 ff ff       	callq  86f3 <transparent_crc>
   11044:	b8 ff ff ff ff       	mov    $0xffffffff,%eax
   11049:	89 c1                	mov    %eax,%ecx
   1104b:	8b 45 fc             	mov    -0x4(%rbp),%eax
   1104e:	89 c2                	mov    %eax,%edx
   11050:	48 8d 35 b0 49 00 00 	lea    0x49b0(%rip),%rsi        # 15a07 <g_2035+0x295f>
   11057:	48 89 cf             	mov    %rcx,%rdi
   1105a:	e8 94 76 ff ff       	callq  86f3 <transparent_crc>
   1105f:	8b 05 0b 20 00 00    	mov    0x200b(%rip),%eax        # 13070 <g_1248>
   11065:	89 c1                	mov    %eax,%ecx
   11067:	8b 45 fc             	mov    -0x4(%rbp),%eax
   1106a:	89 c2                	mov    %eax,%edx
   1106c:	48 8d 35 9b 49 00 00 	lea    0x499b(%rip),%rsi        # 15a0e <g_2035+0x2966>
   11073:	48 89 cf             	mov    %rcx,%rdi
   11076:	e8 78 76 ff ff       	callq  86f3 <transparent_crc>
   1107b:	b8 6b 07 00 00       	mov    $0x76b,%eax
   11080:	48 0f bf c0          	movswq %ax,%rax
   11084:	8b 55 fc             	mov    -0x4(%rbp),%edx
   11087:	48 8d 35 8a 49 00 00 	lea    0x498a(%rip),%rsi        # 15a18 <g_2035+0x2970>
   1108e:	48 89 c7             	mov    %rax,%rdi
   11091:	e8 5d 76 ff ff       	callq  86f3 <transparent_crc>
   11096:	b8 84 6a 00 00       	mov    $0x6a84,%eax
   1109b:	48 0f bf c0          	movswq %ax,%rax
   1109f:	8b 55 fc             	mov    -0x4(%rbp),%edx
   110a2:	48 8d 35 79 49 00 00 	lea    0x4979(%rip),%rsi        # 15a22 <g_2035+0x297a>
   110a9:	48 89 c7             	mov    %rax,%rdi
   110ac:	e8 42 76 ff ff       	callq  86f3 <transparent_crc>
   110b1:	48 b9 d2 0b 50 3f a2 	movabs $0x483f57a23f500bd2,%rcx
   110b8:	57 3f 48 
   110bb:	8b 45 fc             	mov    -0x4(%rbp),%eax
   110be:	89 c2                	mov    %eax,%edx
   110c0:	48 8d 35 65 49 00 00 	lea    0x4965(%rip),%rsi        # 15a2c <g_2035+0x2984>
   110c7:	48 89 cf             	mov    %rcx,%rdi
   110ca:	e8 24 76 ff ff       	callq  86f3 <transparent_crc>
   110cf:	48 8b 05 aa 1f 00 00 	mov    0x1faa(%rip),%rax        # 13080 <g_1248+0x10>
   110d6:	48 89 c1             	mov    %rax,%rcx
   110d9:	8b 45 fc             	mov    -0x4(%rbp),%eax
   110dc:	89 c2                	mov    %eax,%edx
   110de:	48 8d 35 51 49 00 00 	lea    0x4951(%rip),%rsi        # 15a36 <g_2035+0x298e>
   110e5:	48 89 cf             	mov    %rcx,%rdi
   110e8:	e8 06 76 ff ff       	callq  86f3 <transparent_crc>
   110ed:	48 8b 05 ec 84 00 00 	mov    0x84ec(%rip),%rax        # 195e0 <g_1287>
   110f4:	48 89 c1             	mov    %rax,%rcx
   110f7:	8b 45 fc             	mov    -0x4(%rbp),%eax
   110fa:	89 c2                	mov    %eax,%edx
   110fc:	48 8d 35 3d 49 00 00 	lea    0x493d(%rip),%rsi        # 15a40 <g_2035+0x2998>
   11103:	48 89 cf             	mov    %rcx,%rdi
   11106:	e8 e8 75 ff ff       	callq  86f3 <transparent_crc>
   1110b:	48 8b 05 d6 84 00 00 	mov    0x84d6(%rip),%rax        # 195e8 <g_1288>
   11112:	8b 55 fc             	mov    -0x4(%rbp),%edx
   11115:	48 8d 35 2b 49 00 00 	lea    0x492b(%rip),%rsi        # 15a47 <g_2035+0x299f>
   1111c:	48 89 c7             	mov    %rax,%rdi
   1111f:	e8 cf 75 ff ff       	callq  86f3 <transparent_crc>
   11124:	8b 05 06 bc 00 00    	mov    0xbc06(%rip),%eax        # 1cd30 <g_1292>
   1112a:	48 98                	cltq   
   1112c:	8b 55 fc             	mov    -0x4(%rbp),%edx
   1112f:	48 8d 35 18 49 00 00 	lea    0x4918(%rip),%rsi        # 15a4e <g_2035+0x29a6>
   11136:	48 89 c7             	mov    %rax,%rdi
   11139:	e8 b5 75 ff ff       	callq  86f3 <transparent_crc>
   1113e:	8b 05 ac 84 00 00    	mov    0x84ac(%rip),%eax        # 195f0 <g_1315>
   11144:	89 c1                	mov    %eax,%ecx
   11146:	8b 45 fc             	mov    -0x4(%rbp),%eax
   11149:	89 c2                	mov    %eax,%edx
   1114b:	48 8d 35 03 49 00 00 	lea    0x4903(%rip),%rsi        # 15a55 <g_2035+0x29ad>
   11152:	48 89 cf             	mov    %rcx,%rdi
   11155:	e8 99 75 ff ff       	callq  86f3 <transparent_crc>
   1115a:	0f b7 05 93 84 00 00 	movzwl 0x8493(%rip),%eax        # 195f4 <g_1315+0x4>
   11161:	48 0f bf c0          	movswq %ax,%rax
   11165:	8b 55 fc             	mov    -0x4(%rbp),%edx
   11168:	48 8d 35 f0 48 00 00 	lea    0x48f0(%rip),%rsi        # 15a5f <g_2035+0x29b7>
   1116f:	48 89 c7             	mov    %rax,%rdi
   11172:	e8 7c 75 ff ff       	callq  86f3 <transparent_crc>
   11177:	0f b7 05 78 84 00 00 	movzwl 0x8478(%rip),%eax        # 195f6 <g_1315+0x6>
   1117e:	48 0f bf c0          	movswq %ax,%rax
   11182:	8b 55 fc             	mov    -0x4(%rbp),%edx
   11185:	48 8d 35 dd 48 00 00 	lea    0x48dd(%rip),%rsi        # 15a69 <g_2035+0x29c1>
   1118c:	48 89 c7             	mov    %rax,%rdi
   1118f:	e8 5f 75 ff ff       	callq  86f3 <transparent_crc>
   11194:	48 8b 05 5d 84 00 00 	mov    0x845d(%rip),%rax        # 195f8 <g_1315+0x8>
   1119b:	8b 55 fc             	mov    -0x4(%rbp),%edx
   1119e:	48 8d 35 ce 48 00 00 	lea    0x48ce(%rip),%rsi        # 15a73 <g_2035+0x29cb>
   111a5:	48 89 c7             	mov    %rax,%rdi
   111a8:	e8 46 75 ff ff       	callq  86f3 <transparent_crc>
   111ad:	48 8b 05 4c 84 00 00 	mov    0x844c(%rip),%rax        # 19600 <g_1315+0x10>
   111b4:	48 89 c1             	mov    %rax,%rcx
   111b7:	8b 45 fc             	mov    -0x4(%rbp),%eax
   111ba:	89 c2                	mov    %eax,%edx
   111bc:	48 8d 35 ba 48 00 00 	lea    0x48ba(%rip),%rsi        # 15a7d <g_2035+0x29d5>
   111c3:	48 89 cf             	mov    %rcx,%rdi
   111c6:	e8 28 75 ff ff       	callq  86f3 <transparent_crc>
   111cb:	8b 05 3f 84 00 00    	mov    0x843f(%rip),%eax        # 19610 <g_1334>
   111d1:	89 c1                	mov    %eax,%ecx
   111d3:	8b 45 fc             	mov    -0x4(%rbp),%eax
   111d6:	89 c2                	mov    %eax,%edx
   111d8:	48 8d 35 a8 48 00 00 	lea    0x48a8(%rip),%rsi        # 15a87 <g_2035+0x29df>
   111df:	48 89 cf             	mov    %rcx,%rdi
   111e2:	e8 0c 75 ff ff       	callq  86f3 <transparent_crc>
   111e7:	0f b7 05 26 84 00 00 	movzwl 0x8426(%rip),%eax        # 19614 <g_1334+0x4>
   111ee:	48 0f bf c0          	movswq %ax,%rax
   111f2:	8b 55 fc             	mov    -0x4(%rbp),%edx
   111f5:	48 8d 35 95 48 00 00 	lea    0x4895(%rip),%rsi        # 15a91 <g_2035+0x29e9>
   111fc:	48 89 c7             	mov    %rax,%rdi
   111ff:	e8 ef 74 ff ff       	callq  86f3 <transparent_crc>
   11204:	0f b7 05 0b 84 00 00 	movzwl 0x840b(%rip),%eax        # 19616 <g_1334+0x6>
   1120b:	48 0f bf c0          	movswq %ax,%rax
   1120f:	8b 55 fc             	mov    -0x4(%rbp),%edx
   11212:	48 8d 35 82 48 00 00 	lea    0x4882(%rip),%rsi        # 15a9b <g_2035+0x29f3>
   11219:	48 89 c7             	mov    %rax,%rdi
   1121c:	e8 d2 74 ff ff       	callq  86f3 <transparent_crc>
   11221:	48 8b 05 f0 83 00 00 	mov    0x83f0(%rip),%rax        # 19618 <g_1334+0x8>
   11228:	8b 55 fc             	mov    -0x4(%rbp),%edx
   1122b:	48 8d 35 73 48 00 00 	lea    0x4873(%rip),%rsi        # 15aa5 <g_2035+0x29fd>
   11232:	48 89 c7             	mov    %rax,%rdi
   11235:	e8 b9 74 ff ff       	callq  86f3 <transparent_crc>
   1123a:	48 8b 05 df 83 00 00 	mov    0x83df(%rip),%rax        # 19620 <g_1334+0x10>
   11241:	48 89 c1             	mov    %rax,%rcx
   11244:	8b 45 fc             	mov    -0x4(%rbp),%eax
   11247:	89 c2                	mov    %eax,%edx
   11249:	48 8d 35 5f 48 00 00 	lea    0x485f(%rip),%rsi        # 15aaf <g_2035+0x2a07>
   11250:	48 89 cf             	mov    %rcx,%rdi
   11253:	e8 9b 74 ff ff       	callq  86f3 <transparent_crc>
   11258:	8b 05 d2 83 00 00    	mov    0x83d2(%rip),%eax        # 19630 <g_1399>
   1125e:	89 c1                	mov    %eax,%ecx
   11260:	8b 45 fc             	mov    -0x4(%rbp),%eax
   11263:	89 c2                	mov    %eax,%edx
   11265:	48 8d 35 4d 48 00 00 	lea    0x484d(%rip),%rsi        # 15ab9 <g_2035+0x2a11>
   1126c:	48 89 cf             	mov    %rcx,%rdi
   1126f:	e8 7f 74 ff ff       	callq  86f3 <transparent_crc>
   11274:	0f b7 05 b9 83 00 00 	movzwl 0x83b9(%rip),%eax        # 19634 <g_1399+0x4>
   1127b:	48 0f bf c0          	movswq %ax,%rax
   1127f:	8b 55 fc             	mov    -0x4(%rbp),%edx
   11282:	48 8d 35 3a 48 00 00 	lea    0x483a(%rip),%rsi        # 15ac3 <g_2035+0x2a1b>
   11289:	48 89 c7             	mov    %rax,%rdi
   1128c:	e8 62 74 ff ff       	callq  86f3 <transparent_crc>
   11291:	0f b7 05 9e 83 00 00 	movzwl 0x839e(%rip),%eax        # 19636 <g_1399+0x6>
   11298:	48 0f bf c0          	movswq %ax,%rax
   1129c:	8b 55 fc             	mov    -0x4(%rbp),%edx
   1129f:	48 8d 35 27 48 00 00 	lea    0x4827(%rip),%rsi        # 15acd <g_2035+0x2a25>
   112a6:	48 89 c7             	mov    %rax,%rdi
   112a9:	e8 45 74 ff ff       	callq  86f3 <transparent_crc>
   112ae:	48 8b 05 83 83 00 00 	mov    0x8383(%rip),%rax        # 19638 <g_1399+0x8>
   112b5:	8b 55 fc             	mov    -0x4(%rbp),%edx
   112b8:	48 8d 35 18 48 00 00 	lea    0x4818(%rip),%rsi        # 15ad7 <g_2035+0x2a2f>
   112bf:	48 89 c7             	mov    %rax,%rdi
   112c2:	e8 2c 74 ff ff       	callq  86f3 <transparent_crc>
   112c7:	48 8b 05 72 83 00 00 	mov    0x8372(%rip),%rax        # 19640 <g_1399+0x10>
   112ce:	48 89 c1             	mov    %rax,%rcx
   112d1:	8b 45 fc             	mov    -0x4(%rbp),%eax
   112d4:	89 c2                	mov    %eax,%edx
   112d6:	48 8d 35 04 48 00 00 	lea    0x4804(%rip),%rsi        # 15ae1 <g_2035+0x2a39>
   112dd:	48 89 cf             	mov    %rcx,%rdi
   112e0:	e8 0e 74 ff ff       	callq  86f3 <transparent_crc>
   112e5:	8b 05 65 83 00 00    	mov    0x8365(%rip),%eax        # 19650 <g_1419>
   112eb:	89 c1                	mov    %eax,%ecx
   112ed:	8b 45 fc             	mov    -0x4(%rbp),%eax
   112f0:	89 c2                	mov    %eax,%edx
   112f2:	48 8d 35 f2 47 00 00 	lea    0x47f2(%rip),%rsi        # 15aeb <g_2035+0x2a43>
   112f9:	48 89 cf             	mov    %rcx,%rdi
   112fc:	e8 f2 73 ff ff       	callq  86f3 <transparent_crc>
   11301:	0f b7 05 4c 83 00 00 	movzwl 0x834c(%rip),%eax        # 19654 <g_1419+0x4>
   11308:	48 0f bf c0          	movswq %ax,%rax
   1130c:	8b 55 fc             	mov    -0x4(%rbp),%edx
   1130f:	48 8d 35 df 47 00 00 	lea    0x47df(%rip),%rsi        # 15af5 <g_2035+0x2a4d>
   11316:	48 89 c7             	mov    %rax,%rdi
   11319:	e8 d5 73 ff ff       	callq  86f3 <transparent_crc>
   1131e:	0f b7 05 31 83 00 00 	movzwl 0x8331(%rip),%eax        # 19656 <g_1419+0x6>
   11325:	48 0f bf c0          	movswq %ax,%rax
   11329:	8b 55 fc             	mov    -0x4(%rbp),%edx
   1132c:	48 8d 35 cc 47 00 00 	lea    0x47cc(%rip),%rsi        # 15aff <g_2035+0x2a57>
   11333:	48 89 c7             	mov    %rax,%rdi
   11336:	e8 b8 73 ff ff       	callq  86f3 <transparent_crc>
   1133b:	48 8b 05 16 83 00 00 	mov    0x8316(%rip),%rax        # 19658 <g_1419+0x8>
   11342:	8b 55 fc             	mov    -0x4(%rbp),%edx
   11345:	48 8d 35 bd 47 00 00 	lea    0x47bd(%rip),%rsi        # 15b09 <g_2035+0x2a61>
   1134c:	48 89 c7             	mov    %rax,%rdi
   1134f:	e8 9f 73 ff ff       	callq  86f3 <transparent_crc>
   11354:	48 8b 05 05 83 00 00 	mov    0x8305(%rip),%rax        # 19660 <g_1419+0x10>
   1135b:	48 89 c1             	mov    %rax,%rcx
   1135e:	8b 45 fc             	mov    -0x4(%rbp),%eax
   11361:	89 c2                	mov    %eax,%edx
   11363:	48 8d 35 a9 47 00 00 	lea    0x47a9(%rip),%rsi        # 15b13 <g_2035+0x2a6b>
   1136a:	48 89 cf             	mov    %rcx,%rdi
   1136d:	e8 81 73 ff ff       	callq  86f3 <transparent_crc>
   11372:	8b 05 f8 82 00 00    	mov    0x82f8(%rip),%eax        # 19670 <g_1430>
   11378:	89 c1                	mov    %eax,%ecx
   1137a:	8b 45 fc             	mov    -0x4(%rbp),%eax
   1137d:	89 c2                	mov    %eax,%edx
   1137f:	48 8d 35 97 47 00 00 	lea    0x4797(%rip),%rsi        # 15b1d <g_2035+0x2a75>
   11386:	48 89 cf             	mov    %rcx,%rdi
   11389:	e8 65 73 ff ff       	callq  86f3 <transparent_crc>
   1138e:	0f b7 05 df 82 00 00 	movzwl 0x82df(%rip),%eax        # 19674 <g_1430+0x4>
   11395:	48 0f bf c0          	movswq %ax,%rax
   11399:	8b 55 fc             	mov    -0x4(%rbp),%edx
   1139c:	48 8d 35 84 47 00 00 	lea    0x4784(%rip),%rsi        # 15b27 <g_2035+0x2a7f>
   113a3:	48 89 c7             	mov    %rax,%rdi
   113a6:	e8 48 73 ff ff       	callq  86f3 <transparent_crc>
   113ab:	0f b7 05 c4 82 00 00 	movzwl 0x82c4(%rip),%eax        # 19676 <g_1430+0x6>
   113b2:	48 0f bf c0          	movswq %ax,%rax
   113b6:	8b 55 fc             	mov    -0x4(%rbp),%edx
   113b9:	48 8d 35 71 47 00 00 	lea    0x4771(%rip),%rsi        # 15b31 <g_2035+0x2a89>
   113c0:	48 89 c7             	mov    %rax,%rdi
   113c3:	e8 2b 73 ff ff       	callq  86f3 <transparent_crc>
   113c8:	48 8b 05 a9 82 00 00 	mov    0x82a9(%rip),%rax        # 19678 <g_1430+0x8>
   113cf:	8b 55 fc             	mov    -0x4(%rbp),%edx
   113d2:	48 8d 35 62 47 00 00 	lea    0x4762(%rip),%rsi        # 15b3b <g_2035+0x2a93>
   113d9:	48 89 c7             	mov    %rax,%rdi
   113dc:	e8 12 73 ff ff       	callq  86f3 <transparent_crc>
   113e1:	48 8b 05 98 82 00 00 	mov    0x8298(%rip),%rax        # 19680 <g_1430+0x10>
   113e8:	48 89 c1             	mov    %rax,%rcx
   113eb:	8b 45 fc             	mov    -0x4(%rbp),%eax
   113ee:	89 c2                	mov    %eax,%edx
   113f0:	48 8d 35 4e 47 00 00 	lea    0x474e(%rip),%rsi        # 15b45 <g_2035+0x2a9d>
   113f7:	48 89 cf             	mov    %rcx,%rdi
   113fa:	e8 f4 72 ff ff       	callq  86f3 <transparent_crc>
   113ff:	c7 45 f0 00 00 00 00 	movl   $0x0,-0x10(%rbp)
   11406:	eb 77                	jmp    1147f <main+0x1378>
   11408:	c7 45 f4 00 00 00 00 	movl   $0x0,-0xc(%rbp)
   1140f:	eb 64                	jmp    11475 <main+0x136e>
   11411:	8b 45 f4             	mov    -0xc(%rbp),%eax
   11414:	48 63 c8             	movslq %eax,%rcx
   11417:	8b 45 f0             	mov    -0x10(%rbp),%eax
   1141a:	48 63 d0             	movslq %eax,%rdx
   1141d:	48 89 d0             	mov    %rdx,%rax
   11420:	48 c1 e0 03          	shl    $0x3,%rax
   11424:	48 01 d0             	add    %rdx,%rax
   11427:	48 01 c8             	add    %rcx,%rax
   1142a:	48 8d 14 85 00 00 00 	lea    0x0(,%rax,4),%rdx
   11431:	00 
   11432:	48 8d 05 67 82 00 00 	lea    0x8267(%rip),%rax        # 196a0 <g_1443>
   11439:	8b 04 02             	mov    (%rdx,%rax,1),%eax
   1143c:	89 c1                	mov    %eax,%ecx
   1143e:	8b 45 fc             	mov    -0x4(%rbp),%eax
   11441:	89 c2                	mov    %eax,%edx
   11443:	48 8d 35 05 47 00 00 	lea    0x4705(%rip),%rsi        # 15b4f <g_2035+0x2aa7>
   1144a:	48 89 cf             	mov    %rcx,%rdi
   1144d:	e8 a1 72 ff ff       	callq  86f3 <transparent_crc>
   11452:	83 7d fc 00          	cmpl   $0x0,-0x4(%rbp)
   11456:	74 19                	je     11471 <main+0x136a>
   11458:	8b 55 f4             	mov    -0xc(%rbp),%edx
   1145b:	8b 45 f0             	mov    -0x10(%rbp),%eax
   1145e:	89 c6                	mov    %eax,%esi
   11460:	48 8d 3d 75 42 00 00 	lea    0x4275(%rip),%rdi        # 156dc <g_2035+0x2634>
   11467:	b8 00 00 00 00       	mov    $0x0,%eax
   1146c:	e8 0f 5c ff ff       	callq  7080 <printf@plt>
   11471:	83 45 f4 01          	addl   $0x1,-0xc(%rbp)
   11475:	83 7d f4 08          	cmpl   $0x8,-0xc(%rbp)
   11479:	7e 96                	jle    11411 <main+0x130a>
   1147b:	83 45 f0 01          	addl   $0x1,-0x10(%rbp)
   1147f:	83 7d f0 05          	cmpl   $0x5,-0x10(%rbp)
   11483:	7e 83                	jle    11408 <main+0x1301>
   11485:	8b 05 f5 82 00 00    	mov    0x82f5(%rip),%eax        # 19780 <g_1445>
   1148b:	89 c1                	mov    %eax,%ecx
   1148d:	8b 45 fc             	mov    -0x4(%rbp),%eax
   11490:	89 c2                	mov    %eax,%edx
   11492:	48 8d 35 c3 46 00 00 	lea    0x46c3(%rip),%rsi        # 15b5c <g_2035+0x2ab4>
   11499:	48 89 cf             	mov    %rcx,%rdi
   1149c:	e8 52 72 ff ff       	callq  86f3 <transparent_crc>
   114a1:	0f b7 05 dc 82 00 00 	movzwl 0x82dc(%rip),%eax        # 19784 <g_1445+0x4>
   114a8:	48 0f bf c0          	movswq %ax,%rax
   114ac:	8b 55 fc             	mov    -0x4(%rbp),%edx
   114af:	48 8d 35 b0 46 00 00 	lea    0x46b0(%rip),%rsi        # 15b66 <g_2035+0x2abe>
   114b6:	48 89 c7             	mov    %rax,%rdi
   114b9:	e8 35 72 ff ff       	callq  86f3 <transparent_crc>
   114be:	0f b7 05 c1 82 00 00 	movzwl 0x82c1(%rip),%eax        # 19786 <g_1445+0x6>
   114c5:	48 0f bf c0          	movswq %ax,%rax
   114c9:	8b 55 fc             	mov    -0x4(%rbp),%edx
   114cc:	48 8d 35 9d 46 00 00 	lea    0x469d(%rip),%rsi        # 15b70 <g_2035+0x2ac8>
   114d3:	48 89 c7             	mov    %rax,%rdi
   114d6:	e8 18 72 ff ff       	callq  86f3 <transparent_crc>
   114db:	48 8b 05 a6 82 00 00 	mov    0x82a6(%rip),%rax        # 19788 <g_1445+0x8>
   114e2:	8b 55 fc             	mov    -0x4(%rbp),%edx
   114e5:	48 8d 35 8e 46 00 00 	lea    0x468e(%rip),%rsi        # 15b7a <g_2035+0x2ad2>
   114ec:	48 89 c7             	mov    %rax,%rdi
   114ef:	e8 ff 71 ff ff       	callq  86f3 <transparent_crc>
   114f4:	48 8b 05 95 82 00 00 	mov    0x8295(%rip),%rax        # 19790 <g_1445+0x10>
   114fb:	48 89 c1             	mov    %rax,%rcx
   114fe:	8b 45 fc             	mov    -0x4(%rbp),%eax
   11501:	89 c2                	mov    %eax,%edx
   11503:	48 8d 35 7a 46 00 00 	lea    0x467a(%rip),%rsi        # 15b84 <g_2035+0x2adc>
   1150a:	48 89 cf             	mov    %rcx,%rdi
   1150d:	e8 e1 71 ff ff       	callq  86f3 <transparent_crc>
   11512:	0f b6 05 7f 82 00 00 	movzbl 0x827f(%rip),%eax        # 19798 <g_1489>
   11519:	0f b6 c0             	movzbl %al,%eax
   1151c:	8b 55 fc             	mov    -0x4(%rbp),%edx
   1151f:	48 8d 35 68 46 00 00 	lea    0x4668(%rip),%rsi        # 15b8e <g_2035+0x2ae6>
   11526:	48 89 c7             	mov    %rax,%rdi
   11529:	e8 c5 71 ff ff       	callq  86f3 <transparent_crc>
   1152e:	8b 05 68 82 00 00    	mov    0x8268(%rip),%eax        # 1979c <g_1526>
   11534:	89 c1                	mov    %eax,%ecx
   11536:	8b 45 fc             	mov    -0x4(%rbp),%eax
   11539:	89 c2                	mov    %eax,%edx
   1153b:	48 8d 35 53 46 00 00 	lea    0x4653(%rip),%rsi        # 15b95 <g_2035+0x2aed>
   11542:	48 89 cf             	mov    %rcx,%rdi
   11545:	e8 a9 71 ff ff       	callq  86f3 <transparent_crc>
   1154a:	c7 45 f0 00 00 00 00 	movl   $0x0,-0x10(%rbp)
   11551:	e9 2f 01 00 00       	jmpq   11685 <main+0x157e>
   11556:	8b 45 f0             	mov    -0x10(%rbp),%eax
   11559:	48 63 d0             	movslq %eax,%rdx
   1155c:	48 89 d0             	mov    %rdx,%rax
   1155f:	48 01 c0             	add    %rax,%rax
   11562:	48 01 d0             	add    %rdx,%rax
   11565:	48 c1 e0 03          	shl    $0x3,%rax
   11569:	48 89 c2             	mov    %rax,%rdx
   1156c:	48 8d 05 2d 82 00 00 	lea    0x822d(%rip),%rax        # 197a0 <g_1528>
   11573:	8b 04 02             	mov    (%rdx,%rax,1),%eax
   11576:	89 c1                	mov    %eax,%ecx
   11578:	8b 45 fc             	mov    -0x4(%rbp),%eax
   1157b:	89 c2                	mov    %eax,%edx
   1157d:	48 8d 35 18 46 00 00 	lea    0x4618(%rip),%rsi        # 15b9c <g_2035+0x2af4>
   11584:	48 89 cf             	mov    %rcx,%rdi
   11587:	e8 67 71 ff ff       	callq  86f3 <transparent_crc>
   1158c:	8b 45 f0             	mov    -0x10(%rbp),%eax
   1158f:	48 63 d0             	movslq %eax,%rdx
   11592:	48 89 d0             	mov    %rdx,%rax
   11595:	48 01 c0             	add    %rax,%rax
   11598:	48 01 d0             	add    %rdx,%rax
   1159b:	48 c1 e0 03          	shl    $0x3,%rax
   1159f:	48 89 c2             	mov    %rax,%rdx
   115a2:	48 8d 05 fb 81 00 00 	lea    0x81fb(%rip),%rax        # 197a4 <g_1528+0x4>
   115a9:	0f b7 04 02          	movzwl (%rdx,%rax,1),%eax
   115ad:	48 0f bf c0          	movswq %ax,%rax
   115b1:	8b 55 fc             	mov    -0x4(%rbp),%edx
   115b4:	48 8d 35 ee 45 00 00 	lea    0x45ee(%rip),%rsi        # 15ba9 <g_2035+0x2b01>
   115bb:	48 89 c7             	mov    %rax,%rdi
   115be:	e8 30 71 ff ff       	callq  86f3 <transparent_crc>
   115c3:	8b 45 f0             	mov    -0x10(%rbp),%eax
   115c6:	48 63 d0             	movslq %eax,%rdx
   115c9:	48 89 d0             	mov    %rdx,%rax
   115cc:	48 01 c0             	add    %rax,%rax
   115cf:	48 01 d0             	add    %rdx,%rax
   115d2:	48 c1 e0 03          	shl    $0x3,%rax
   115d6:	48 89 c2             	mov    %rax,%rdx
   115d9:	48 8d 05 c6 81 00 00 	lea    0x81c6(%rip),%rax        # 197a6 <g_1528+0x6>
   115e0:	0f b7 04 02          	movzwl (%rdx,%rax,1),%eax
   115e4:	48 0f bf c0          	movswq %ax,%rax
   115e8:	8b 55 fc             	mov    -0x4(%rbp),%edx
   115eb:	48 8d 35 c4 45 00 00 	lea    0x45c4(%rip),%rsi        # 15bb6 <g_2035+0x2b0e>
   115f2:	48 89 c7             	mov    %rax,%rdi
   115f5:	e8 f9 70 ff ff       	callq  86f3 <transparent_crc>
   115fa:	8b 45 f0             	mov    -0x10(%rbp),%eax
   115fd:	48 63 d0             	movslq %eax,%rdx
   11600:	48 89 d0             	mov    %rdx,%rax
   11603:	48 01 c0             	add    %rax,%rax
   11606:	48 01 d0             	add    %rdx,%rax
   11609:	48 c1 e0 03          	shl    $0x3,%rax
   1160d:	48 89 c2             	mov    %rax,%rdx
   11610:	48 8d 05 91 81 00 00 	lea    0x8191(%rip),%rax        # 197a8 <g_1528+0x8>
   11617:	48 8b 04 02          	mov    (%rdx,%rax,1),%rax
   1161b:	8b 55 fc             	mov    -0x4(%rbp),%edx
   1161e:	48 8d 35 9e 45 00 00 	lea    0x459e(%rip),%rsi        # 15bc3 <g_2035+0x2b1b>
   11625:	48 89 c7             	mov    %rax,%rdi
   11628:	e8 c6 70 ff ff       	callq  86f3 <transparent_crc>
   1162d:	8b 45 f0             	mov    -0x10(%rbp),%eax
   11630:	48 63 d0             	movslq %eax,%rdx
   11633:	48 89 d0             	mov    %rdx,%rax
   11636:	48 01 c0             	add    %rax,%rax
   11639:	48 01 d0             	add    %rdx,%rax
   1163c:	48 c1 e0 03          	shl    $0x3,%rax
   11640:	48 89 c2             	mov    %rax,%rdx
   11643:	48 8d 05 66 81 00 00 	lea    0x8166(%rip),%rax        # 197b0 <g_1528+0x10>
   1164a:	48 8b 04 02          	mov    (%rdx,%rax,1),%rax
   1164e:	48 89 c1             	mov    %rax,%rcx
   11651:	8b 45 fc             	mov    -0x4(%rbp),%eax
   11654:	89 c2                	mov    %eax,%edx
   11656:	48 8d 35 73 45 00 00 	lea    0x4573(%rip),%rsi        # 15bd0 <g_2035+0x2b28>
   1165d:	48 89 cf             	mov    %rcx,%rdi
   11660:	e8 8e 70 ff ff       	callq  86f3 <transparent_crc>
   11665:	83 7d fc 00          	cmpl   $0x0,-0x4(%rbp)
   11669:	74 16                	je     11681 <main+0x157a>
   1166b:	8b 45 f0             	mov    -0x10(%rbp),%eax
   1166e:	89 c6                	mov    %eax,%esi
   11670:	48 8d 3d fc 41 00 00 	lea    0x41fc(%rip),%rdi        # 15873 <g_2035+0x27cb>
   11677:	b8 00 00 00 00       	mov    $0x0,%eax
   1167c:	e8 ff 59 ff ff       	callq  7080 <printf@plt>
   11681:	83 45 f0 01          	addl   $0x1,-0x10(%rbp)
   11685:	83 7d f0 01          	cmpl   $0x1,-0x10(%rbp)
   11689:	0f 8e c7 fe ff ff    	jle    11556 <main+0x144f>
   1168f:	c7 45 f0 00 00 00 00 	movl   $0x0,-0x10(%rbp)
   11696:	eb 46                	jmp    116de <main+0x15d7>
   11698:	8b 45 f0             	mov    -0x10(%rbp),%eax
   1169b:	48 98                	cltq   
   1169d:	48 8d 15 2c 81 00 00 	lea    0x812c(%rip),%rdx        # 197d0 <g_1576>
   116a4:	0f b6 04 10          	movzbl (%rax,%rdx,1),%eax
   116a8:	48 0f be c0          	movsbq %al,%rax
   116ac:	8b 55 fc             	mov    -0x4(%rbp),%edx
   116af:	48 8d 35 27 45 00 00 	lea    0x4527(%rip),%rsi        # 15bdd <g_2035+0x2b35>
   116b6:	48 89 c7             	mov    %rax,%rdi
   116b9:	e8 35 70 ff ff       	callq  86f3 <transparent_crc>
   116be:	83 7d fc 00          	cmpl   $0x0,-0x4(%rbp)
   116c2:	74 16                	je     116da <main+0x15d3>
   116c4:	8b 45 f0             	mov    -0x10(%rbp),%eax
   116c7:	89 c6                	mov    %eax,%esi
   116c9:	48 8d 3d a3 41 00 00 	lea    0x41a3(%rip),%rdi        # 15873 <g_2035+0x27cb>
   116d0:	b8 00 00 00 00       	mov    $0x0,%eax
   116d5:	e8 a6 59 ff ff       	callq  7080 <printf@plt>
   116da:	83 45 f0 01          	addl   $0x1,-0x10(%rbp)
   116de:	83 7d f0 07          	cmpl   $0x7,-0x10(%rbp)
   116e2:	7e b4                	jle    11698 <main+0x1591>
   116e4:	8b 05 ee 80 00 00    	mov    0x80ee(%rip),%eax        # 197d8 <g_1666>
   116ea:	48 98                	cltq   
   116ec:	8b 55 fc             	mov    -0x4(%rbp),%edx
   116ef:	48 8d 35 f1 44 00 00 	lea    0x44f1(%rip),%rsi        # 15be7 <g_2035+0x2b3f>
   116f6:	48 89 c7             	mov    %rax,%rdi
   116f9:	e8 f5 6f ff ff       	callq  86f3 <transparent_crc>
   116fe:	0f b6 05 d7 80 00 00 	movzbl 0x80d7(%rip),%eax        # 197dc <g_1729>
   11705:	48 0f be c0          	movsbq %al,%rax
   11709:	8b 55 fc             	mov    -0x4(%rbp),%edx
   1170c:	48 8d 35 db 44 00 00 	lea    0x44db(%rip),%rsi        # 15bee <g_2035+0x2b46>
   11713:	48 89 c7             	mov    %rax,%rdi
   11716:	e8 d8 6f ff ff       	callq  86f3 <transparent_crc>
   1171b:	c7 45 f0 00 00 00 00 	movl   $0x0,-0x10(%rbp)
   11722:	eb 4d                	jmp    11771 <main+0x166a>
   11724:	8b 45 f0             	mov    -0x10(%rbp),%eax
   11727:	48 98                	cltq   
   11729:	48 8d 14 85 00 00 00 	lea    0x0(,%rax,4),%rdx
   11730:	00 
   11731:	48 8d 05 a8 80 00 00 	lea    0x80a8(%rip),%rax        # 197e0 <g_1765>
   11738:	8b 04 02             	mov    (%rdx,%rax,1),%eax
   1173b:	89 c1                	mov    %eax,%ecx
   1173d:	8b 45 fc             	mov    -0x4(%rbp),%eax
   11740:	89 c2                	mov    %eax,%edx
   11742:	48 8d 35 ac 44 00 00 	lea    0x44ac(%rip),%rsi        # 15bf5 <g_2035+0x2b4d>
   11749:	48 89 cf             	mov    %rcx,%rdi
   1174c:	e8 a2 6f ff ff       	callq  86f3 <transparent_crc>
   11751:	83 7d fc 00          	cmpl   $0x0,-0x4(%rbp)
   11755:	74 16                	je     1176d <main+0x1666>
   11757:	8b 45 f0             	mov    -0x10(%rbp),%eax
   1175a:	89 c6                	mov    %eax,%esi
   1175c:	48 8d 3d 10 41 00 00 	lea    0x4110(%rip),%rdi        # 15873 <g_2035+0x27cb>
   11763:	b8 00 00 00 00       	mov    $0x0,%eax
   11768:	e8 13 59 ff ff       	callq  7080 <printf@plt>
   1176d:	83 45 f0 01          	addl   $0x1,-0x10(%rbp)
   11771:	83 7d f0 00          	cmpl   $0x0,-0x10(%rbp)
   11775:	7e ad                	jle    11724 <main+0x161d>
   11777:	8b 05 73 80 00 00    	mov    0x8073(%rip),%eax        # 197f0 <g_1790>
   1177d:	89 c1                	mov    %eax,%ecx
   1177f:	8b 45 fc             	mov    -0x4(%rbp),%eax
   11782:	89 c2                	mov    %eax,%edx
   11784:	48 8d 35 74 44 00 00 	lea    0x4474(%rip),%rsi        # 15bff <g_2035+0x2b57>
   1178b:	48 89 cf             	mov    %rcx,%rdi
   1178e:	e8 60 6f ff ff       	callq  86f3 <transparent_crc>
   11793:	0f b7 05 5a 80 00 00 	movzwl 0x805a(%rip),%eax        # 197f4 <g_1790+0x4>
   1179a:	48 0f bf c0          	movswq %ax,%rax
   1179e:	8b 55 fc             	mov    -0x4(%rbp),%edx
   117a1:	48 8d 35 61 44 00 00 	lea    0x4461(%rip),%rsi        # 15c09 <g_2035+0x2b61>
   117a8:	48 89 c7             	mov    %rax,%rdi
   117ab:	e8 43 6f ff ff       	callq  86f3 <transparent_crc>
   117b0:	0f b7 05 3f 80 00 00 	movzwl 0x803f(%rip),%eax        # 197f6 <g_1790+0x6>
   117b7:	48 0f bf c0          	movswq %ax,%rax
   117bb:	8b 55 fc             	mov    -0x4(%rbp),%edx
   117be:	48 8d 35 4e 44 00 00 	lea    0x444e(%rip),%rsi        # 15c13 <g_2035+0x2b6b>
   117c5:	48 89 c7             	mov    %rax,%rdi
   117c8:	e8 26 6f ff ff       	callq  86f3 <transparent_crc>
   117cd:	48 8b 05 24 80 00 00 	mov    0x8024(%rip),%rax        # 197f8 <g_1790+0x8>
   117d4:	8b 55 fc             	mov    -0x4(%rbp),%edx
   117d7:	48 8d 35 3f 44 00 00 	lea    0x443f(%rip),%rsi        # 15c1d <g_2035+0x2b75>
   117de:	48 89 c7             	mov    %rax,%rdi
   117e1:	e8 0d 6f ff ff       	callq  86f3 <transparent_crc>
   117e6:	48 8b 05 13 80 00 00 	mov    0x8013(%rip),%rax        # 19800 <g_1790+0x10>
   117ed:	48 89 c1             	mov    %rax,%rcx
   117f0:	8b 45 fc             	mov    -0x4(%rbp),%eax
   117f3:	89 c2                	mov    %eax,%edx
   117f5:	48 8d 35 2b 44 00 00 	lea    0x442b(%rip),%rsi        # 15c27 <g_2035+0x2b7f>
   117fc:	48 89 cf             	mov    %rcx,%rdi
   117ff:	e8 ef 6e ff ff       	callq  86f3 <transparent_crc>
   11804:	c7 45 f0 00 00 00 00 	movl   $0x0,-0x10(%rbp)
   1180b:	eb 4a                	jmp    11857 <main+0x1750>
   1180d:	8b 45 f0             	mov    -0x10(%rbp),%eax
   11810:	48 98                	cltq   
   11812:	48 8d 14 00          	lea    (%rax,%rax,1),%rdx
   11816:	48 8d 05 eb 7f 00 00 	lea    0x7feb(%rip),%rax        # 19808 <g_1816>
   1181d:	0f b7 04 02          	movzwl (%rdx,%rax,1),%eax
   11821:	48 0f bf c0          	movswq %ax,%rax
   11825:	8b 55 fc             	mov    -0x4(%rbp),%edx
   11828:	48 8d 35 02 44 00 00 	lea    0x4402(%rip),%rsi        # 15c31 <g_2035+0x2b89>
   1182f:	48 89 c7             	mov    %rax,%rdi
   11832:	e8 bc 6e ff ff       	callq  86f3 <transparent_crc>
   11837:	83 7d fc 00          	cmpl   $0x0,-0x4(%rbp)
   1183b:	74 16                	je     11853 <main+0x174c>
   1183d:	8b 45 f0             	mov    -0x10(%rbp),%eax
   11840:	89 c6                	mov    %eax,%esi
   11842:	48 8d 3d 2a 40 00 00 	lea    0x402a(%rip),%rdi        # 15873 <g_2035+0x27cb>
   11849:	b8 00 00 00 00       	mov    $0x0,%eax
   1184e:	e8 2d 58 ff ff       	callq  7080 <printf@plt>
   11853:	83 45 f0 01          	addl   $0x1,-0x10(%rbp)
   11857:	83 7d f0 02          	cmpl   $0x2,-0x10(%rbp)
   1185b:	7e b0                	jle    1180d <main+0x1706>
   1185d:	48 8b 05 ac 7f 00 00 	mov    0x7fac(%rip),%rax        # 19810 <g_1838>
   11864:	48 89 c1             	mov    %rax,%rcx
   11867:	8b 45 fc             	mov    -0x4(%rbp),%eax
   1186a:	89 c2                	mov    %eax,%edx
   1186c:	48 8d 35 c8 43 00 00 	lea    0x43c8(%rip),%rsi        # 15c3b <g_2035+0x2b93>
   11873:	48 89 cf             	mov    %rcx,%rdi
   11876:	e8 78 6e ff ff       	callq  86f3 <transparent_crc>
   1187b:	c7 45 f0 00 00 00 00 	movl   $0x0,-0x10(%rbp)
   11882:	e9 d8 01 00 00       	jmpq   11a5f <main+0x1958>
   11887:	c7 45 f4 00 00 00 00 	movl   $0x0,-0xc(%rbp)
   1188e:	e9 be 01 00 00       	jmpq   11a51 <main+0x194a>
   11893:	8b 45 f4             	mov    -0xc(%rbp),%eax
   11896:	48 98                	cltq   
   11898:	8b 55 f0             	mov    -0x10(%rbp),%edx
   1189b:	48 63 ca             	movslq %edx,%rcx
   1189e:	48 89 c2             	mov    %rax,%rdx
   118a1:	48 01 d2             	add    %rdx,%rdx
   118a4:	48 01 c2             	add    %rax,%rdx
   118a7:	48 8d 04 d5 00 00 00 	lea    0x0(,%rdx,8),%rax
   118ae:	00 
   118af:	48 89 c2             	mov    %rax,%rdx
   118b2:	48 89 c8             	mov    %rcx,%rax
   118b5:	48 c1 e0 03          	shl    $0x3,%rax
   118b9:	48 01 c8             	add    %rcx,%rax
   118bc:	48 c1 e0 04          	shl    $0x4,%rax
   118c0:	48 01 c2             	add    %rax,%rdx
   118c3:	48 8d 05 56 7f 00 00 	lea    0x7f56(%rip),%rax        # 19820 <g_1852>
   118ca:	48 01 d0             	add    %rdx,%rax
   118cd:	8b 00                	mov    (%rax),%eax
   118cf:	89 c1                	mov    %eax,%ecx
   118d1:	8b 45 fc             	mov    -0x4(%rbp),%eax
   118d4:	89 c2                	mov    %eax,%edx
   118d6:	48 8d 35 65 43 00 00 	lea    0x4365(%rip),%rsi        # 15c42 <g_2035+0x2b9a>
   118dd:	48 89 cf             	mov    %rcx,%rdi
   118e0:	e8 0e 6e ff ff       	callq  86f3 <transparent_crc>
   118e5:	8b 45 f4             	mov    -0xc(%rbp),%eax
   118e8:	48 98                	cltq   
   118ea:	8b 55 f0             	mov    -0x10(%rbp),%edx
   118ed:	48 63 ca             	movslq %edx,%rcx
   118f0:	48 89 c2             	mov    %rax,%rdx
   118f3:	48 01 d2             	add    %rdx,%rdx
   118f6:	48 01 c2             	add    %rax,%rdx
   118f9:	48 8d 04 d5 00 00 00 	lea    0x0(,%rdx,8),%rax
   11900:	00 
   11901:	48 89 c2             	mov    %rax,%rdx
   11904:	48 89 c8             	mov    %rcx,%rax
   11907:	48 c1 e0 03          	shl    $0x3,%rax
   1190b:	48 01 c8             	add    %rcx,%rax
   1190e:	48 c1 e0 04          	shl    $0x4,%rax
   11912:	48 01 c2             	add    %rax,%rdx
   11915:	48 8d 05 08 7f 00 00 	lea    0x7f08(%rip),%rax        # 19824 <g_1852+0x4>
   1191c:	48 01 d0             	add    %rdx,%rax
   1191f:	0f b7 00             	movzwl (%rax),%eax
   11922:	48 0f bf c0          	movswq %ax,%rax
   11926:	8b 55 fc             	mov    -0x4(%rbp),%edx
   11929:	48 8d 35 22 43 00 00 	lea    0x4322(%rip),%rsi        # 15c52 <g_2035+0x2baa>
   11930:	48 89 c7             	mov    %rax,%rdi
   11933:	e8 bb 6d ff ff       	callq  86f3 <transparent_crc>
   11938:	8b 45 f4             	mov    -0xc(%rbp),%eax
   1193b:	48 98                	cltq   
   1193d:	8b 55 f0             	mov    -0x10(%rbp),%edx
   11940:	48 63 ca             	movslq %edx,%rcx
   11943:	48 89 c2             	mov    %rax,%rdx
   11946:	48 01 d2             	add    %rdx,%rdx
   11949:	48 01 c2             	add    %rax,%rdx
   1194c:	48 8d 04 d5 00 00 00 	lea    0x0(,%rdx,8),%rax
   11953:	00 
   11954:	48 89 c2             	mov    %rax,%rdx
   11957:	48 89 c8             	mov    %rcx,%rax
   1195a:	48 c1 e0 03          	shl    $0x3,%rax
   1195e:	48 01 c8             	add    %rcx,%rax
   11961:	48 c1 e0 04          	shl    $0x4,%rax
   11965:	48 01 c2             	add    %rax,%rdx
   11968:	48 8d 05 b7 7e 00 00 	lea    0x7eb7(%rip),%rax        # 19826 <g_1852+0x6>
   1196f:	48 01 d0             	add    %rdx,%rax
   11972:	0f b7 00             	movzwl (%rax),%eax
   11975:	48 0f bf c0          	movswq %ax,%rax
   11979:	8b 55 fc             	mov    -0x4(%rbp),%edx
   1197c:	48 8d 35 df 42 00 00 	lea    0x42df(%rip),%rsi        # 15c62 <g_2035+0x2bba>
   11983:	48 89 c7             	mov    %rax,%rdi
   11986:	e8 68 6d ff ff       	callq  86f3 <transparent_crc>
   1198b:	8b 45 f4             	mov    -0xc(%rbp),%eax
   1198e:	48 98                	cltq   
   11990:	8b 55 f0             	mov    -0x10(%rbp),%edx
   11993:	48 63 ca             	movslq %edx,%rcx
   11996:	48 89 c2             	mov    %rax,%rdx
   11999:	48 01 d2             	add    %rdx,%rdx
   1199c:	48 01 c2             	add    %rax,%rdx
   1199f:	48 8d 04 d5 00 00 00 	lea    0x0(,%rdx,8),%rax
   119a6:	00 
   119a7:	48 89 c2             	mov    %rax,%rdx
   119aa:	48 89 c8             	mov    %rcx,%rax
   119ad:	48 c1 e0 03          	shl    $0x3,%rax
   119b1:	48 01 c8             	add    %rcx,%rax
   119b4:	48 c1 e0 04          	shl    $0x4,%rax
   119b8:	48 01 c2             	add    %rax,%rdx
   119bb:	48 8d 05 66 7e 00 00 	lea    0x7e66(%rip),%rax        # 19828 <g_1852+0x8>
   119c2:	48 01 d0             	add    %rdx,%rax
   119c5:	48 8b 00             	mov    (%rax),%rax
   119c8:	8b 55 fc             	mov    -0x4(%rbp),%edx
   119cb:	48 8d 35 a0 42 00 00 	lea    0x42a0(%rip),%rsi        # 15c72 <g_2035+0x2bca>
   119d2:	48 89 c7             	mov    %rax,%rdi
   119d5:	e8 19 6d ff ff       	callq  86f3 <transparent_crc>
   119da:	8b 45 f4             	mov    -0xc(%rbp),%eax
   119dd:	48 98                	cltq   
   119df:	8b 55 f0             	mov    -0x10(%rbp),%edx
   119e2:	48 63 ca             	movslq %edx,%rcx
   119e5:	48 89 c2             	mov    %rax,%rdx
   119e8:	48 01 d2             	add    %rdx,%rdx
   119eb:	48 01 c2             	add    %rax,%rdx
   119ee:	48 8d 04 d5 00 00 00 	lea    0x0(,%rdx,8),%rax
   119f5:	00 
   119f6:	48 89 c2             	mov    %rax,%rdx
   119f9:	48 89 c8             	mov    %rcx,%rax
   119fc:	48 c1 e0 03          	shl    $0x3,%rax
   11a00:	48 01 c8             	add    %rcx,%rax
   11a03:	48 c1 e0 04          	shl    $0x4,%rax
   11a07:	48 01 c2             	add    %rax,%rdx
   11a0a:	48 8d 05 1f 7e 00 00 	lea    0x7e1f(%rip),%rax        # 19830 <g_1852+0x10>
   11a11:	48 01 d0             	add    %rdx,%rax
   11a14:	48 8b 00             	mov    (%rax),%rax
   11a17:	48 89 c1             	mov    %rax,%rcx
   11a1a:	8b 45 fc             	mov    -0x4(%rbp),%eax
   11a1d:	89 c2                	mov    %eax,%edx
   11a1f:	48 8d 35 5c 42 00 00 	lea    0x425c(%rip),%rsi        # 15c82 <g_2035+0x2bda>
   11a26:	48 89 cf             	mov    %rcx,%rdi
   11a29:	e8 c5 6c ff ff       	callq  86f3 <transparent_crc>
   11a2e:	83 7d fc 00          	cmpl   $0x0,-0x4(%rbp)
   11a32:	74 19                	je     11a4d <main+0x1946>
   11a34:	8b 55 f4             	mov    -0xc(%rbp),%edx
   11a37:	8b 45 f0             	mov    -0x10(%rbp),%eax
   11a3a:	89 c6                	mov    %eax,%esi
   11a3c:	48 8d 3d 99 3c 00 00 	lea    0x3c99(%rip),%rdi        # 156dc <g_2035+0x2634>
   11a43:	b8 00 00 00 00       	mov    $0x0,%eax
   11a48:	e8 33 56 ff ff       	callq  7080 <printf@plt>
   11a4d:	83 45 f4 01          	addl   $0x1,-0xc(%rbp)
   11a51:	83 7d f4 05          	cmpl   $0x5,-0xc(%rbp)
   11a55:	0f 8e 38 fe ff ff    	jle    11893 <main+0x178c>
   11a5b:	83 45 f0 01          	addl   $0x1,-0x10(%rbp)
   11a5f:	83 7d f0 04          	cmpl   $0x4,-0x10(%rbp)
   11a63:	0f 8e 1e fe ff ff    	jle    11887 <main+0x1780>
   11a69:	8b 05 81 80 00 00    	mov    0x8081(%rip),%eax        # 19af0 <g_1869>
   11a6f:	89 c1                	mov    %eax,%ecx
   11a71:	8b 45 fc             	mov    -0x4(%rbp),%eax
   11a74:	89 c2                	mov    %eax,%edx
   11a76:	48 8d 35 15 42 00 00 	lea    0x4215(%rip),%rsi        # 15c92 <g_2035+0x2bea>
   11a7d:	48 89 cf             	mov    %rcx,%rdi
   11a80:	e8 6e 6c ff ff       	callq  86f3 <transparent_crc>
   11a85:	0f b7 05 68 80 00 00 	movzwl 0x8068(%rip),%eax        # 19af4 <g_1869+0x4>
   11a8c:	48 0f bf c0          	movswq %ax,%rax
   11a90:	8b 55 fc             	mov    -0x4(%rbp),%edx
   11a93:	48 8d 35 02 42 00 00 	lea    0x4202(%rip),%rsi        # 15c9c <g_2035+0x2bf4>
   11a9a:	48 89 c7             	mov    %rax,%rdi
   11a9d:	e8 51 6c ff ff       	callq  86f3 <transparent_crc>
   11aa2:	0f b7 05 4d 80 00 00 	movzwl 0x804d(%rip),%eax        # 19af6 <g_1869+0x6>
   11aa9:	48 0f bf c0          	movswq %ax,%rax
   11aad:	8b 55 fc             	mov    -0x4(%rbp),%edx
   11ab0:	48 8d 35 ef 41 00 00 	lea    0x41ef(%rip),%rsi        # 15ca6 <g_2035+0x2bfe>
   11ab7:	48 89 c7             	mov    %rax,%rdi
   11aba:	e8 34 6c ff ff       	callq  86f3 <transparent_crc>
   11abf:	48 8b 05 32 80 00 00 	mov    0x8032(%rip),%rax        # 19af8 <g_1869+0x8>
   11ac6:	8b 55 fc             	mov    -0x4(%rbp),%edx
   11ac9:	48 8d 35 e0 41 00 00 	lea    0x41e0(%rip),%rsi        # 15cb0 <g_2035+0x2c08>
   11ad0:	48 89 c7             	mov    %rax,%rdi
   11ad3:	e8 1b 6c ff ff       	callq  86f3 <transparent_crc>
   11ad8:	48 8b 05 21 80 00 00 	mov    0x8021(%rip),%rax        # 19b00 <g_1869+0x10>
   11adf:	48 89 c1             	mov    %rax,%rcx
   11ae2:	8b 45 fc             	mov    -0x4(%rbp),%eax
   11ae5:	89 c2                	mov    %eax,%edx
   11ae7:	48 8d 35 cc 41 00 00 	lea    0x41cc(%rip),%rsi        # 15cba <g_2035+0x2c12>
   11aee:	48 89 cf             	mov    %rcx,%rdi
   11af1:	e8 fd 6b ff ff       	callq  86f3 <transparent_crc>
   11af6:	8b 05 14 80 00 00    	mov    0x8014(%rip),%eax        # 19b10 <g_1920>
   11afc:	89 c1                	mov    %eax,%ecx
   11afe:	8b 45 fc             	mov    -0x4(%rbp),%eax
   11b01:	89 c2                	mov    %eax,%edx
   11b03:	48 8d 35 ba 41 00 00 	lea    0x41ba(%rip),%rsi        # 15cc4 <g_2035+0x2c1c>
   11b0a:	48 89 cf             	mov    %rcx,%rdi
   11b0d:	e8 e1 6b ff ff       	callq  86f3 <transparent_crc>
   11b12:	0f b7 05 fb 7f 00 00 	movzwl 0x7ffb(%rip),%eax        # 19b14 <g_1920+0x4>
   11b19:	48 0f bf c0          	movswq %ax,%rax
   11b1d:	8b 55 fc             	mov    -0x4(%rbp),%edx
   11b20:	48 8d 35 a7 41 00 00 	lea    0x41a7(%rip),%rsi        # 15cce <g_2035+0x2c26>
   11b27:	48 89 c7             	mov    %rax,%rdi
   11b2a:	e8 c4 6b ff ff       	callq  86f3 <transparent_crc>
   11b2f:	0f b7 05 e0 7f 00 00 	movzwl 0x7fe0(%rip),%eax        # 19b16 <g_1920+0x6>
   11b36:	48 0f bf c0          	movswq %ax,%rax
   11b3a:	8b 55 fc             	mov    -0x4(%rbp),%edx
   11b3d:	48 8d 35 94 41 00 00 	lea    0x4194(%rip),%rsi        # 15cd8 <g_2035+0x2c30>
   11b44:	48 89 c7             	mov    %rax,%rdi
   11b47:	e8 a7 6b ff ff       	callq  86f3 <transparent_crc>
   11b4c:	48 8b 05 c5 7f 00 00 	mov    0x7fc5(%rip),%rax        # 19b18 <g_1920+0x8>
   11b53:	8b 55 fc             	mov    -0x4(%rbp),%edx
   11b56:	48 8d 35 85 41 00 00 	lea    0x4185(%rip),%rsi        # 15ce2 <g_2035+0x2c3a>
   11b5d:	48 89 c7             	mov    %rax,%rdi
   11b60:	e8 8e 6b ff ff       	callq  86f3 <transparent_crc>
   11b65:	48 8b 05 b4 7f 00 00 	mov    0x7fb4(%rip),%rax        # 19b20 <g_1920+0x10>
   11b6c:	48 89 c1             	mov    %rax,%rcx
   11b6f:	8b 45 fc             	mov    -0x4(%rbp),%eax
   11b72:	89 c2                	mov    %eax,%edx
   11b74:	48 8d 35 71 41 00 00 	lea    0x4171(%rip),%rsi        # 15cec <g_2035+0x2c44>
   11b7b:	48 89 cf             	mov    %rcx,%rdi
   11b7e:	e8 70 6b ff ff       	callq  86f3 <transparent_crc>
   11b83:	8b 05 a7 7f 00 00    	mov    0x7fa7(%rip),%eax        # 19b30 <g_1921>
   11b89:	89 c1                	mov    %eax,%ecx
   11b8b:	8b 45 fc             	mov    -0x4(%rbp),%eax
   11b8e:	89 c2                	mov    %eax,%edx
   11b90:	48 8d 35 5f 41 00 00 	lea    0x415f(%rip),%rsi        # 15cf6 <g_2035+0x2c4e>
   11b97:	48 89 cf             	mov    %rcx,%rdi
   11b9a:	e8 54 6b ff ff       	callq  86f3 <transparent_crc>
   11b9f:	0f b7 05 8e 7f 00 00 	movzwl 0x7f8e(%rip),%eax        # 19b34 <g_1921+0x4>
   11ba6:	48 0f bf c0          	movswq %ax,%rax
   11baa:	8b 55 fc             	mov    -0x4(%rbp),%edx
   11bad:	48 8d 35 4c 41 00 00 	lea    0x414c(%rip),%rsi        # 15d00 <g_2035+0x2c58>
   11bb4:	48 89 c7             	mov    %rax,%rdi
   11bb7:	e8 37 6b ff ff       	callq  86f3 <transparent_crc>
   11bbc:	0f b7 05 73 7f 00 00 	movzwl 0x7f73(%rip),%eax        # 19b36 <g_1921+0x6>
   11bc3:	48 0f bf c0          	movswq %ax,%rax
   11bc7:	8b 55 fc             	mov    -0x4(%rbp),%edx
   11bca:	48 8d 35 39 41 00 00 	lea    0x4139(%rip),%rsi        # 15d0a <g_2035+0x2c62>
   11bd1:	48 89 c7             	mov    %rax,%rdi
   11bd4:	e8 1a 6b ff ff       	callq  86f3 <transparent_crc>
   11bd9:	48 8b 05 58 7f 00 00 	mov    0x7f58(%rip),%rax        # 19b38 <g_1921+0x8>
   11be0:	8b 55 fc             	mov    -0x4(%rbp),%edx
   11be3:	48 8d 35 2a 41 00 00 	lea    0x412a(%rip),%rsi        # 15d14 <g_2035+0x2c6c>
   11bea:	48 89 c7             	mov    %rax,%rdi
   11bed:	e8 01 6b ff ff       	callq  86f3 <transparent_crc>
   11bf2:	48 8b 05 47 7f 00 00 	mov    0x7f47(%rip),%rax        # 19b40 <g_1921+0x10>
   11bf9:	48 89 c1             	mov    %rax,%rcx
   11bfc:	8b 45 fc             	mov    -0x4(%rbp),%eax
   11bff:	89 c2                	mov    %eax,%edx
   11c01:	48 8d 35 16 41 00 00 	lea    0x4116(%rip),%rsi        # 15d1e <g_2035+0x2c76>
   11c08:	48 89 cf             	mov    %rcx,%rdi
   11c0b:	e8 e3 6a ff ff       	callq  86f3 <transparent_crc>
   11c10:	0f b7 05 31 7f 00 00 	movzwl 0x7f31(%rip),%eax        # 19b48 <g_1941>
   11c17:	0f b7 c0             	movzwl %ax,%eax
   11c1a:	8b 55 fc             	mov    -0x4(%rbp),%edx
   11c1d:	48 8d 35 04 41 00 00 	lea    0x4104(%rip),%rsi        # 15d28 <g_2035+0x2c80>
   11c24:	48 89 c7             	mov    %rax,%rdi
   11c27:	e8 c7 6a ff ff       	callq  86f3 <transparent_crc>
   11c2c:	8b 05 5e 14 00 00    	mov    0x145e(%rip),%eax        # 13090 <g_1997>
   11c32:	89 c1                	mov    %eax,%ecx
   11c34:	8b 45 fc             	mov    -0x4(%rbp),%eax
   11c37:	89 c2                	mov    %eax,%edx
   11c39:	48 8d 35 ef 40 00 00 	lea    0x40ef(%rip),%rsi        # 15d2f <g_2035+0x2c87>
   11c40:	48 89 cf             	mov    %rcx,%rdi
   11c43:	e8 ab 6a ff ff       	callq  86f3 <transparent_crc>
   11c48:	b8 47 c5 ff ff       	mov    $0xffffc547,%eax
   11c4d:	48 0f bf c0          	movswq %ax,%rax
   11c51:	8b 55 fc             	mov    -0x4(%rbp),%edx
   11c54:	48 8d 35 de 40 00 00 	lea    0x40de(%rip),%rsi        # 15d39 <g_2035+0x2c91>
   11c5b:	48 89 c7             	mov    %rax,%rdi
   11c5e:	e8 90 6a ff ff       	callq  86f3 <transparent_crc>
   11c63:	b8 05 00 00 00       	mov    $0x5,%eax
   11c68:	48 0f bf c0          	movswq %ax,%rax
   11c6c:	8b 55 fc             	mov    -0x4(%rbp),%edx
   11c6f:	48 8d 35 cd 40 00 00 	lea    0x40cd(%rip),%rsi        # 15d43 <g_2035+0x2c9b>
   11c76:	48 89 c7             	mov    %rax,%rdi
   11c79:	e8 75 6a ff ff       	callq  86f3 <transparent_crc>
   11c7e:	48 b9 01 bd f6 cb 61 	movabs $0xaccd9661cbf6bd01,%rcx
   11c85:	96 cd ac 
   11c88:	8b 45 fc             	mov    -0x4(%rbp),%eax
   11c8b:	89 c2                	mov    %eax,%edx
   11c8d:	48 8d 35 b9 40 00 00 	lea    0x40b9(%rip),%rsi        # 15d4d <g_2035+0x2ca5>
   11c94:	48 89 cf             	mov    %rcx,%rdi
   11c97:	e8 57 6a ff ff       	callq  86f3 <transparent_crc>
   11c9c:	48 8b 05 fd 13 00 00 	mov    0x13fd(%rip),%rax        # 130a0 <g_1997+0x10>
   11ca3:	48 89 c1             	mov    %rax,%rcx
   11ca6:	8b 45 fc             	mov    -0x4(%rbp),%eax
   11ca9:	89 c2                	mov    %eax,%edx
   11cab:	48 8d 35 a5 40 00 00 	lea    0x40a5(%rip),%rsi        # 15d57 <g_2035+0x2caf>
   11cb2:	48 89 cf             	mov    %rcx,%rdi
   11cb5:	e8 39 6a ff ff       	callq  86f3 <transparent_crc>
   11cba:	8b 05 90 7e 00 00    	mov    0x7e90(%rip),%eax        # 19b50 <g_2027>
   11cc0:	89 c1                	mov    %eax,%ecx
   11cc2:	8b 45 fc             	mov    -0x4(%rbp),%eax
   11cc5:	89 c2                	mov    %eax,%edx
   11cc7:	48 8d 35 93 40 00 00 	lea    0x4093(%rip),%rsi        # 15d61 <g_2035+0x2cb9>
   11cce:	48 89 cf             	mov    %rcx,%rdi
   11cd1:	e8 1d 6a ff ff       	callq  86f3 <transparent_crc>
   11cd6:	0f b7 05 77 7e 00 00 	movzwl 0x7e77(%rip),%eax        # 19b54 <g_2027+0x4>
   11cdd:	48 0f bf c0          	movswq %ax,%rax
   11ce1:	8b 55 fc             	mov    -0x4(%rbp),%edx
   11ce4:	48 8d 35 80 40 00 00 	lea    0x4080(%rip),%rsi        # 15d6b <g_2035+0x2cc3>
   11ceb:	48 89 c7             	mov    %rax,%rdi
   11cee:	e8 00 6a ff ff       	callq  86f3 <transparent_crc>
   11cf3:	0f b7 05 5c 7e 00 00 	movzwl 0x7e5c(%rip),%eax        # 19b56 <g_2027+0x6>
   11cfa:	48 0f bf c0          	movswq %ax,%rax
   11cfe:	8b 55 fc             	mov    -0x4(%rbp),%edx
   11d01:	48 8d 35 6d 40 00 00 	lea    0x406d(%rip),%rsi        # 15d75 <g_2035+0x2ccd>
   11d08:	48 89 c7             	mov    %rax,%rdi
   11d0b:	e8 e3 69 ff ff       	callq  86f3 <transparent_crc>
   11d10:	48 8b 05 41 7e 00 00 	mov    0x7e41(%rip),%rax        # 19b58 <g_2027+0x8>
   11d17:	8b 55 fc             	mov    -0x4(%rbp),%edx
   11d1a:	48 8d 35 5e 40 00 00 	lea    0x405e(%rip),%rsi        # 15d7f <g_2035+0x2cd7>
   11d21:	48 89 c7             	mov    %rax,%rdi
   11d24:	e8 ca 69 ff ff       	callq  86f3 <transparent_crc>
   11d29:	48 8b 05 30 7e 00 00 	mov    0x7e30(%rip),%rax        # 19b60 <g_2027+0x10>
   11d30:	48 89 c1             	mov    %rax,%rcx
   11d33:	8b 45 fc             	mov    -0x4(%rbp),%eax
   11d36:	89 c2                	mov    %eax,%edx
   11d38:	48 8d 35 4a 40 00 00 	lea    0x404a(%rip),%rsi        # 15d89 <g_2035+0x2ce1>
   11d3f:	48 89 cf             	mov    %rcx,%rdi
   11d42:	e8 ac 69 ff ff       	callq  86f3 <transparent_crc>
   11d47:	b8 c1 54 95 6f       	mov    $0x6f9554c1,%eax
   11d4c:	48 98                	cltq   
   11d4e:	8b 55 fc             	mov    -0x4(%rbp),%edx
   11d51:	48 8d 35 3b 40 00 00 	lea    0x403b(%rip),%rsi        # 15d93 <g_2035+0x2ceb>
   11d58:	48 89 c7             	mov    %rax,%rdi
   11d5b:	e8 93 69 ff ff       	callq  86f3 <transparent_crc>
   11d60:	8b 05 0a 7e 00 00    	mov    0x7e0a(%rip),%eax        # 19b70 <g_2040>
   11d66:	89 c1                	mov    %eax,%ecx
   11d68:	8b 45 fc             	mov    -0x4(%rbp),%eax
   11d6b:	89 c2                	mov    %eax,%edx
   11d6d:	48 8d 35 26 40 00 00 	lea    0x4026(%rip),%rsi        # 15d9a <g_2035+0x2cf2>
   11d74:	48 89 cf             	mov    %rcx,%rdi
   11d77:	e8 77 69 ff ff       	callq  86f3 <transparent_crc>
   11d7c:	0f b7 05 f1 7d 00 00 	movzwl 0x7df1(%rip),%eax        # 19b74 <g_2040+0x4>
   11d83:	48 0f bf c0          	movswq %ax,%rax
   11d87:	8b 55 fc             	mov    -0x4(%rbp),%edx
   11d8a:	48 8d 35 13 40 00 00 	lea    0x4013(%rip),%rsi        # 15da4 <g_2035+0x2cfc>
   11d91:	48 89 c7             	mov    %rax,%rdi
   11d94:	e8 5a 69 ff ff       	callq  86f3 <transparent_crc>
   11d99:	0f b7 05 d6 7d 00 00 	movzwl 0x7dd6(%rip),%eax        # 19b76 <g_2040+0x6>
   11da0:	48 0f bf c0          	movswq %ax,%rax
   11da4:	8b 55 fc             	mov    -0x4(%rbp),%edx
   11da7:	48 8d 35 00 40 00 00 	lea    0x4000(%rip),%rsi        # 15dae <g_2035+0x2d06>
   11dae:	48 89 c7             	mov    %rax,%rdi
   11db1:	e8 3d 69 ff ff       	callq  86f3 <transparent_crc>
   11db6:	48 8b 05 bb 7d 00 00 	mov    0x7dbb(%rip),%rax        # 19b78 <g_2040+0x8>
   11dbd:	8b 55 fc             	mov    -0x4(%rbp),%edx
   11dc0:	48 8d 35 f1 3f 00 00 	lea    0x3ff1(%rip),%rsi        # 15db8 <g_2035+0x2d10>
   11dc7:	48 89 c7             	mov    %rax,%rdi
   11dca:	e8 24 69 ff ff       	callq  86f3 <transparent_crc>
   11dcf:	48 8b 05 aa 7d 00 00 	mov    0x7daa(%rip),%rax        # 19b80 <g_2040+0x10>
   11dd6:	48 89 c1             	mov    %rax,%rcx
   11dd9:	8b 45 fc             	mov    -0x4(%rbp),%eax
   11ddc:	89 c2                	mov    %eax,%edx
   11dde:	48 8d 35 dd 3f 00 00 	lea    0x3fdd(%rip),%rsi        # 15dc2 <g_2035+0x2d1a>
   11de5:	48 89 cf             	mov    %rcx,%rdi
   11de8:	e8 06 69 ff ff       	callq  86f3 <transparent_crc>
   11ded:	8b 05 9d 7d 00 00    	mov    0x7d9d(%rip),%eax        # 19b90 <g_2057>
   11df3:	89 c1                	mov    %eax,%ecx
   11df5:	8b 45 fc             	mov    -0x4(%rbp),%eax
   11df8:	89 c2                	mov    %eax,%edx
   11dfa:	48 8d 35 cb 3f 00 00 	lea    0x3fcb(%rip),%rsi        # 15dcc <g_2035+0x2d24>
   11e01:	48 89 cf             	mov    %rcx,%rdi
   11e04:	e8 ea 68 ff ff       	callq  86f3 <transparent_crc>
   11e09:	0f b7 05 84 7d 00 00 	movzwl 0x7d84(%rip),%eax        # 19b94 <g_2057+0x4>
   11e10:	48 0f bf c0          	movswq %ax,%rax
   11e14:	8b 55 fc             	mov    -0x4(%rbp),%edx
   11e17:	48 8d 35 b8 3f 00 00 	lea    0x3fb8(%rip),%rsi        # 15dd6 <g_2035+0x2d2e>
   11e1e:	48 89 c7             	mov    %rax,%rdi
   11e21:	e8 cd 68 ff ff       	callq  86f3 <transparent_crc>
   11e26:	0f b7 05 69 7d 00 00 	movzwl 0x7d69(%rip),%eax        # 19b96 <g_2057+0x6>
   11e2d:	48 0f bf c0          	movswq %ax,%rax
   11e31:	8b 55 fc             	mov    -0x4(%rbp),%edx
   11e34:	48 8d 35 a5 3f 00 00 	lea    0x3fa5(%rip),%rsi        # 15de0 <g_2035+0x2d38>
   11e3b:	48 89 c7             	mov    %rax,%rdi
   11e3e:	e8 b0 68 ff ff       	callq  86f3 <transparent_crc>
   11e43:	48 8b 05 4e 7d 00 00 	mov    0x7d4e(%rip),%rax        # 19b98 <g_2057+0x8>
   11e4a:	8b 55 fc             	mov    -0x4(%rbp),%edx
   11e4d:	48 8d 35 96 3f 00 00 	lea    0x3f96(%rip),%rsi        # 15dea <g_2035+0x2d42>
   11e54:	48 89 c7             	mov    %rax,%rdi
   11e57:	e8 97 68 ff ff       	callq  86f3 <transparent_crc>
   11e5c:	48 8b 05 3d 7d 00 00 	mov    0x7d3d(%rip),%rax        # 19ba0 <g_2057+0x10>
   11e63:	48 89 c1             	mov    %rax,%rcx
   11e66:	8b 45 fc             	mov    -0x4(%rbp),%eax
   11e69:	89 c2                	mov    %eax,%edx
   11e6b:	48 8d 35 82 3f 00 00 	lea    0x3f82(%rip),%rsi        # 15df4 <g_2035+0x2d4c>
   11e72:	48 89 cf             	mov    %rcx,%rdi
   11e75:	e8 79 68 ff ff       	callq  86f3 <transparent_crc>
   11e7a:	8b 05 30 7d 00 00    	mov    0x7d30(%rip),%eax        # 19bb0 <g_2082>
   11e80:	89 c1                	mov    %eax,%ecx
   11e82:	8b 45 fc             	mov    -0x4(%rbp),%eax
   11e85:	89 c2                	mov    %eax,%edx
   11e87:	48 8d 35 70 3f 00 00 	lea    0x3f70(%rip),%rsi        # 15dfe <g_2035+0x2d56>
   11e8e:	48 89 cf             	mov    %rcx,%rdi
   11e91:	e8 5d 68 ff ff       	callq  86f3 <transparent_crc>
   11e96:	0f b7 05 17 7d 00 00 	movzwl 0x7d17(%rip),%eax        # 19bb4 <g_2082+0x4>
   11e9d:	48 0f bf c0          	movswq %ax,%rax
   11ea1:	8b 55 fc             	mov    -0x4(%rbp),%edx
   11ea4:	48 8d 35 5d 3f 00 00 	lea    0x3f5d(%rip),%rsi        # 15e08 <g_2035+0x2d60>
   11eab:	48 89 c7             	mov    %rax,%rdi
   11eae:	e8 40 68 ff ff       	callq  86f3 <transparent_crc>
   11eb3:	0f b7 05 fc 7c 00 00 	movzwl 0x7cfc(%rip),%eax        # 19bb6 <g_2082+0x6>
   11eba:	48 0f bf c0          	movswq %ax,%rax
   11ebe:	8b 55 fc             	mov    -0x4(%rbp),%edx
   11ec1:	48 8d 35 4a 3f 00 00 	lea    0x3f4a(%rip),%rsi        # 15e12 <g_2035+0x2d6a>
   11ec8:	48 89 c7             	mov    %rax,%rdi
   11ecb:	e8 23 68 ff ff       	callq  86f3 <transparent_crc>
   11ed0:	48 8b 05 e1 7c 00 00 	mov    0x7ce1(%rip),%rax        # 19bb8 <g_2082+0x8>
   11ed7:	8b 55 fc             	mov    -0x4(%rbp),%edx
   11eda:	48 8d 35 3b 3f 00 00 	lea    0x3f3b(%rip),%rsi        # 15e1c <g_2035+0x2d74>
   11ee1:	48 89 c7             	mov    %rax,%rdi
   11ee4:	e8 0a 68 ff ff       	callq  86f3 <transparent_crc>
   11ee9:	48 8b 05 d0 7c 00 00 	mov    0x7cd0(%rip),%rax        # 19bc0 <g_2082+0x10>
   11ef0:	48 89 c1             	mov    %rax,%rcx
   11ef3:	8b 45 fc             	mov    -0x4(%rbp),%eax
   11ef6:	89 c2                	mov    %eax,%edx
   11ef8:	48 8d 35 27 3f 00 00 	lea    0x3f27(%rip),%rsi        # 15e26 <g_2035+0x2d7e>
   11eff:	48 89 cf             	mov    %rcx,%rdi
   11f02:	e8 ec 67 ff ff       	callq  86f3 <transparent_crc>
   11f07:	8b 05 c3 7c 00 00    	mov    0x7cc3(%rip),%eax        # 19bd0 <g_2115>
   11f0d:	89 c1                	mov    %eax,%ecx
   11f0f:	8b 45 fc             	mov    -0x4(%rbp),%eax
   11f12:	89 c2                	mov    %eax,%edx
   11f14:	48 8d 35 15 3f 00 00 	lea    0x3f15(%rip),%rsi        # 15e30 <g_2035+0x2d88>
   11f1b:	48 89 cf             	mov    %rcx,%rdi
   11f1e:	e8 d0 67 ff ff       	callq  86f3 <transparent_crc>
   11f23:	0f b7 05 aa 7c 00 00 	movzwl 0x7caa(%rip),%eax        # 19bd4 <g_2115+0x4>
   11f2a:	48 0f bf c0          	movswq %ax,%rax
   11f2e:	8b 55 fc             	mov    -0x4(%rbp),%edx
   11f31:	48 8d 35 02 3f 00 00 	lea    0x3f02(%rip),%rsi        # 15e3a <g_2035+0x2d92>
   11f38:	48 89 c7             	mov    %rax,%rdi
   11f3b:	e8 b3 67 ff ff       	callq  86f3 <transparent_crc>
   11f40:	0f b7 05 8f 7c 00 00 	movzwl 0x7c8f(%rip),%eax        # 19bd6 <g_2115+0x6>
   11f47:	48 0f bf c0          	movswq %ax,%rax
   11f4b:	8b 55 fc             	mov    -0x4(%rbp),%edx
   11f4e:	48 8d 35 ef 3e 00 00 	lea    0x3eef(%rip),%rsi        # 15e44 <g_2035+0x2d9c>
   11f55:	48 89 c7             	mov    %rax,%rdi
   11f58:	e8 96 67 ff ff       	callq  86f3 <transparent_crc>
   11f5d:	48 8b 05 74 7c 00 00 	mov    0x7c74(%rip),%rax        # 19bd8 <g_2115+0x8>
   11f64:	8b 55 fc             	mov    -0x4(%rbp),%edx
   11f67:	48 8d 35 e0 3e 00 00 	lea    0x3ee0(%rip),%rsi        # 15e4e <g_2035+0x2da6>
   11f6e:	48 89 c7             	mov    %rax,%rdi
   11f71:	e8 7d 67 ff ff       	callq  86f3 <transparent_crc>
   11f76:	48 8b 05 63 7c 00 00 	mov    0x7c63(%rip),%rax        # 19be0 <g_2115+0x10>
   11f7d:	48 89 c1             	mov    %rax,%rcx
   11f80:	8b 45 fc             	mov    -0x4(%rbp),%eax
   11f83:	89 c2                	mov    %eax,%edx
   11f85:	48 8d 35 cc 3e 00 00 	lea    0x3ecc(%rip),%rsi        # 15e58 <g_2035+0x2db0>
   11f8c:	48 89 cf             	mov    %rcx,%rdi
   11f8f:	e8 5f 67 ff ff       	callq  86f3 <transparent_crc>
   11f94:	c7 45 f0 00 00 00 00 	movl   $0x0,-0x10(%rbp)
   11f9b:	e9 d3 01 00 00       	jmpq   12173 <main+0x206c>
   11fa0:	c7 45 f4 00 00 00 00 	movl   $0x0,-0xc(%rbp)
   11fa7:	e9 b9 01 00 00       	jmpq   12165 <main+0x205e>
   11fac:	8b 45 f4             	mov    -0xc(%rbp),%eax
   11faf:	48 98                	cltq   
   11fb1:	8b 55 f0             	mov    -0x10(%rbp),%edx
   11fb4:	48 63 ca             	movslq %edx,%rcx
   11fb7:	48 89 c2             	mov    %rax,%rdx
   11fba:	48 01 d2             	add    %rdx,%rdx
   11fbd:	48 01 c2             	add    %rax,%rdx
   11fc0:	48 8d 04 d5 00 00 00 	lea    0x0(,%rdx,8),%rax
   11fc7:	00 
   11fc8:	48 89 c2             	mov    %rax,%rdx
   11fcb:	48 89 c8             	mov    %rcx,%rax
   11fce:	48 01 c0             	add    %rax,%rax
   11fd1:	48 01 c8             	add    %rcx,%rax
   11fd4:	48 c1 e0 04          	shl    $0x4,%rax
   11fd8:	48 01 c2             	add    %rax,%rdx
   11fdb:	48 8d 05 1e 7c 00 00 	lea    0x7c1e(%rip),%rax        # 19c00 <g_2169>
   11fe2:	48 01 d0             	add    %rdx,%rax
   11fe5:	8b 00                	mov    (%rax),%eax
   11fe7:	89 c1                	mov    %eax,%ecx
   11fe9:	8b 45 fc             	mov    -0x4(%rbp),%eax
   11fec:	89 c2                	mov    %eax,%edx
   11fee:	48 8d 35 6d 3e 00 00 	lea    0x3e6d(%rip),%rsi        # 15e62 <g_2035+0x2dba>
   11ff5:	48 89 cf             	mov    %rcx,%rdi
   11ff8:	e8 f6 66 ff ff       	callq  86f3 <transparent_crc>
   11ffd:	8b 45 f4             	mov    -0xc(%rbp),%eax
   12000:	48 98                	cltq   
   12002:	8b 55 f0             	mov    -0x10(%rbp),%edx
   12005:	48 63 ca             	movslq %edx,%rcx
   12008:	48 89 c2             	mov    %rax,%rdx
   1200b:	48 01 d2             	add    %rdx,%rdx
   1200e:	48 01 c2             	add    %rax,%rdx
   12011:	48 8d 04 d5 00 00 00 	lea    0x0(,%rdx,8),%rax
   12018:	00 
   12019:	48 89 c2             	mov    %rax,%rdx
   1201c:	48 89 c8             	mov    %rcx,%rax
   1201f:	48 01 c0             	add    %rax,%rax
   12022:	48 01 c8             	add    %rcx,%rax
   12025:	48 c1 e0 04          	shl    $0x4,%rax
   12029:	48 01 c2             	add    %rax,%rdx
   1202c:	48 8d 05 d1 7b 00 00 	lea    0x7bd1(%rip),%rax        # 19c04 <g_2169+0x4>
   12033:	48 01 d0             	add    %rdx,%rax
   12036:	0f b7 00             	movzwl (%rax),%eax
   12039:	48 0f bf c0          	movswq %ax,%rax
   1203d:	8b 55 fc             	mov    -0x4(%rbp),%edx
   12040:	48 8d 35 2b 3e 00 00 	lea    0x3e2b(%rip),%rsi        # 15e72 <g_2035+0x2dca>
   12047:	48 89 c7             	mov    %rax,%rdi
   1204a:	e8 a4 66 ff ff       	callq  86f3 <transparent_crc>
   1204f:	8b 45 f4             	mov    -0xc(%rbp),%eax
   12052:	48 98                	cltq   
   12054:	8b 55 f0             	mov    -0x10(%rbp),%edx
   12057:	48 63 ca             	movslq %edx,%rcx
   1205a:	48 89 c2             	mov    %rax,%rdx
   1205d:	48 01 d2             	add    %rdx,%rdx
   12060:	48 01 c2             	add    %rax,%rdx
   12063:	48 8d 04 d5 00 00 00 	lea    0x0(,%rdx,8),%rax
   1206a:	00 
   1206b:	48 89 c2             	mov    %rax,%rdx
   1206e:	48 89 c8             	mov    %rcx,%rax
   12071:	48 01 c0             	add    %rax,%rax
   12074:	48 01 c8             	add    %rcx,%rax
   12077:	48 c1 e0 04          	shl    $0x4,%rax
   1207b:	48 01 c2             	add    %rax,%rdx
   1207e:	48 8d 05 81 7b 00 00 	lea    0x7b81(%rip),%rax        # 19c06 <g_2169+0x6>
   12085:	48 01 d0             	add    %rdx,%rax
   12088:	0f b7 00             	movzwl (%rax),%eax
   1208b:	48 0f bf c0          	movswq %ax,%rax
   1208f:	8b 55 fc             	mov    -0x4(%rbp),%edx
   12092:	48 8d 35 e9 3d 00 00 	lea    0x3de9(%rip),%rsi        # 15e82 <g_2035+0x2dda>
   12099:	48 89 c7             	mov    %rax,%rdi
   1209c:	e8 52 66 ff ff       	callq  86f3 <transparent_crc>
   120a1:	8b 45 f4             	mov    -0xc(%rbp),%eax
   120a4:	48 98                	cltq   
   120a6:	8b 55 f0             	mov    -0x10(%rbp),%edx
   120a9:	48 63 ca             	movslq %edx,%rcx
   120ac:	48 89 c2             	mov    %rax,%rdx
   120af:	48 01 d2             	add    %rdx,%rdx
   120b2:	48 01 c2             	add    %rax,%rdx
   120b5:	48 8d 04 d5 00 00 00 	lea    0x0(,%rdx,8),%rax
   120bc:	00 
   120bd:	48 89 c2             	mov    %rax,%rdx
   120c0:	48 89 c8             	mov    %rcx,%rax
   120c3:	48 01 c0             	add    %rax,%rax
   120c6:	48 01 c8             	add    %rcx,%rax
   120c9:	48 c1 e0 04          	shl    $0x4,%rax
   120cd:	48 01 c2             	add    %rax,%rdx
   120d0:	48 8d 05 31 7b 00 00 	lea    0x7b31(%rip),%rax        # 19c08 <g_2169+0x8>
   120d7:	48 01 d0             	add    %rdx,%rax
   120da:	48 8b 00             	mov    (%rax),%rax
   120dd:	8b 55 fc             	mov    -0x4(%rbp),%edx
   120e0:	48 8d 35 ab 3d 00 00 	lea    0x3dab(%rip),%rsi        # 15e92 <g_2035+0x2dea>
   120e7:	48 89 c7             	mov    %rax,%rdi
   120ea:	e8 04 66 ff ff       	callq  86f3 <transparent_crc>
   120ef:	8b 45 f4             	mov    -0xc(%rbp),%eax
   120f2:	48 98                	cltq   
   120f4:	8b 55 f0             	mov    -0x10(%rbp),%edx
   120f7:	48 63 ca             	movslq %edx,%rcx
   120fa:	48 89 c2             	mov    %rax,%rdx
   120fd:	48 01 d2             	add    %rdx,%rdx
   12100:	48 01 c2             	add    %rax,%rdx
   12103:	48 8d 04 d5 00 00 00 	lea    0x0(,%rdx,8),%rax
   1210a:	00 
   1210b:	48 89 c2             	mov    %rax,%rdx
   1210e:	48 89 c8             	mov    %rcx,%rax
   12111:	48 01 c0             	add    %rax,%rax
   12114:	48 01 c8             	add    %rcx,%rax
   12117:	48 c1 e0 04          	shl    $0x4,%rax
   1211b:	48 01 c2             	add    %rax,%rdx
   1211e:	48 8d 05 eb 7a 00 00 	lea    0x7aeb(%rip),%rax        # 19c10 <g_2169+0x10>
   12125:	48 01 d0             	add    %rdx,%rax
   12128:	48 8b 00             	mov    (%rax),%rax
   1212b:	48 89 c1             	mov    %rax,%rcx
   1212e:	8b 45 fc             	mov    -0x4(%rbp),%eax
   12131:	89 c2                	mov    %eax,%edx
   12133:	48 8d 35 68 3d 00 00 	lea    0x3d68(%rip),%rsi        # 15ea2 <g_2035+0x2dfa>
   1213a:	48 89 cf             	mov    %rcx,%rdi
   1213d:	e8 b1 65 ff ff       	callq  86f3 <transparent_crc>
   12142:	83 7d fc 00          	cmpl   $0x0,-0x4(%rbp)
   12146:	74 19                	je     12161 <main+0x205a>
   12148:	8b 55 f4             	mov    -0xc(%rbp),%edx
   1214b:	8b 45 f0             	mov    -0x10(%rbp),%eax
   1214e:	89 c6                	mov    %eax,%esi
   12150:	48 8d 3d 85 35 00 00 	lea    0x3585(%rip),%rdi        # 156dc <g_2035+0x2634>
   12157:	b8 00 00 00 00       	mov    $0x0,%eax
   1215c:	e8 1f 4f ff ff       	callq  7080 <printf@plt>
   12161:	83 45 f4 01          	addl   $0x1,-0xc(%rbp)
   12165:	83 7d f4 01          	cmpl   $0x1,-0xc(%rbp)
   12169:	0f 8e 3d fe ff ff    	jle    11fac <main+0x1ea5>
   1216f:	83 45 f0 01          	addl   $0x1,-0x10(%rbp)
   12173:	83 7d f0 00          	cmpl   $0x0,-0x10(%rbp)
   12177:	0f 8e 23 fe ff ff    	jle    11fa0 <main+0x1e99>
   1217d:	8b 05 ad 7a 00 00    	mov    0x7aad(%rip),%eax        # 19c30 <g_2194>
   12183:	89 c1                	mov    %eax,%ecx
   12185:	8b 45 fc             	mov    -0x4(%rbp),%eax
   12188:	89 c2                	mov    %eax,%edx
   1218a:	48 8d 35 21 3d 00 00 	lea    0x3d21(%rip),%rsi        # 15eb2 <g_2035+0x2e0a>
   12191:	48 89 cf             	mov    %rcx,%rdi
   12194:	e8 5a 65 ff ff       	callq  86f3 <transparent_crc>
   12199:	0f b7 05 94 7a 00 00 	movzwl 0x7a94(%rip),%eax        # 19c34 <g_2194+0x4>
   121a0:	48 0f bf c0          	movswq %ax,%rax
   121a4:	8b 55 fc             	mov    -0x4(%rbp),%edx
   121a7:	48 8d 35 0e 3d 00 00 	lea    0x3d0e(%rip),%rsi        # 15ebc <g_2035+0x2e14>
   121ae:	48 89 c7             	mov    %rax,%rdi
   121b1:	e8 3d 65 ff ff       	callq  86f3 <transparent_crc>
   121b6:	0f b7 05 79 7a 00 00 	movzwl 0x7a79(%rip),%eax        # 19c36 <g_2194+0x6>
   121bd:	48 0f bf c0          	movswq %ax,%rax
   121c1:	8b 55 fc             	mov    -0x4(%rbp),%edx
   121c4:	48 8d 35 fb 3c 00 00 	lea    0x3cfb(%rip),%rsi        # 15ec6 <g_2035+0x2e1e>
   121cb:	48 89 c7             	mov    %rax,%rdi
   121ce:	e8 20 65 ff ff       	callq  86f3 <transparent_crc>
   121d3:	48 8b 05 5e 7a 00 00 	mov    0x7a5e(%rip),%rax        # 19c38 <g_2194+0x8>
   121da:	8b 55 fc             	mov    -0x4(%rbp),%edx
   121dd:	48 8d 35 ec 3c 00 00 	lea    0x3cec(%rip),%rsi        # 15ed0 <g_2035+0x2e28>
   121e4:	48 89 c7             	mov    %rax,%rdi
   121e7:	e8 07 65 ff ff       	callq  86f3 <transparent_crc>
   121ec:	48 8b 05 4d 7a 00 00 	mov    0x7a4d(%rip),%rax        # 19c40 <g_2194+0x10>
   121f3:	48 89 c1             	mov    %rax,%rcx
   121f6:	8b 45 fc             	mov    -0x4(%rbp),%eax
   121f9:	89 c2                	mov    %eax,%edx
   121fb:	48 8d 35 d8 3c 00 00 	lea    0x3cd8(%rip),%rsi        # 15eda <g_2035+0x2e32>
   12202:	48 89 cf             	mov    %rcx,%rdi
   12205:	e8 e9 64 ff ff       	callq  86f3 <transparent_crc>
   1220a:	8b 05 40 7a 00 00    	mov    0x7a40(%rip),%eax        # 19c50 <g_2204>
   12210:	89 c1                	mov    %eax,%ecx
   12212:	8b 45 fc             	mov    -0x4(%rbp),%eax
   12215:	89 c2                	mov    %eax,%edx
   12217:	48 8d 35 c6 3c 00 00 	lea    0x3cc6(%rip),%rsi        # 15ee4 <g_2035+0x2e3c>
   1221e:	48 89 cf             	mov    %rcx,%rdi
   12221:	e8 cd 64 ff ff       	callq  86f3 <transparent_crc>
   12226:	0f b7 05 27 7a 00 00 	movzwl 0x7a27(%rip),%eax        # 19c54 <g_2204+0x4>
   1222d:	48 0f bf c0          	movswq %ax,%rax
   12231:	8b 55 fc             	mov    -0x4(%rbp),%edx
   12234:	48 8d 35 b3 3c 00 00 	lea    0x3cb3(%rip),%rsi        # 15eee <g_2035+0x2e46>
   1223b:	48 89 c7             	mov    %rax,%rdi
   1223e:	e8 b0 64 ff ff       	callq  86f3 <transparent_crc>
   12243:	0f b7 05 0c 7a 00 00 	movzwl 0x7a0c(%rip),%eax        # 19c56 <g_2204+0x6>
   1224a:	48 0f bf c0          	movswq %ax,%rax
   1224e:	8b 55 fc             	mov    -0x4(%rbp),%edx
   12251:	48 8d 35 a0 3c 00 00 	lea    0x3ca0(%rip),%rsi        # 15ef8 <g_2035+0x2e50>
   12258:	48 89 c7             	mov    %rax,%rdi
   1225b:	e8 93 64 ff ff       	callq  86f3 <transparent_crc>
   12260:	48 8b 05 f1 79 00 00 	mov    0x79f1(%rip),%rax        # 19c58 <g_2204+0x8>
   12267:	8b 55 fc             	mov    -0x4(%rbp),%edx
   1226a:	48 8d 35 91 3c 00 00 	lea    0x3c91(%rip),%rsi        # 15f02 <g_2035+0x2e5a>
   12271:	48 89 c7             	mov    %rax,%rdi
   12274:	e8 7a 64 ff ff       	callq  86f3 <transparent_crc>
   12279:	48 8b 05 e0 79 00 00 	mov    0x79e0(%rip),%rax        # 19c60 <g_2204+0x10>
   12280:	48 89 c1             	mov    %rax,%rcx
   12283:	8b 45 fc             	mov    -0x4(%rbp),%eax
   12286:	89 c2                	mov    %eax,%edx
   12288:	48 8d 35 7d 3c 00 00 	lea    0x3c7d(%rip),%rsi        # 15f0c <g_2035+0x2e64>
   1228f:	48 89 cf             	mov    %rcx,%rdi
   12292:	e8 5c 64 ff ff       	callq  86f3 <transparent_crc>
   12297:	8b 05 d3 79 00 00    	mov    0x79d3(%rip),%eax        # 19c70 <g_2217>
   1229d:	89 c1                	mov    %eax,%ecx
   1229f:	8b 45 fc             	mov    -0x4(%rbp),%eax
   122a2:	89 c2                	mov    %eax,%edx
   122a4:	48 8d 35 6b 3c 00 00 	lea    0x3c6b(%rip),%rsi        # 15f16 <g_2035+0x2e6e>
   122ab:	48 89 cf             	mov    %rcx,%rdi
   122ae:	e8 40 64 ff ff       	callq  86f3 <transparent_crc>
   122b3:	0f b7 05 ba 79 00 00 	movzwl 0x79ba(%rip),%eax        # 19c74 <g_2217+0x4>
   122ba:	48 0f bf c0          	movswq %ax,%rax
   122be:	8b 55 fc             	mov    -0x4(%rbp),%edx
   122c1:	48 8d 35 58 3c 00 00 	lea    0x3c58(%rip),%rsi        # 15f20 <g_2035+0x2e78>
   122c8:	48 89 c7             	mov    %rax,%rdi
   122cb:	e8 23 64 ff ff       	callq  86f3 <transparent_crc>
   122d0:	0f b7 05 9f 79 00 00 	movzwl 0x799f(%rip),%eax        # 19c76 <g_2217+0x6>
   122d7:	48 0f bf c0          	movswq %ax,%rax
   122db:	8b 55 fc             	mov    -0x4(%rbp),%edx
   122de:	48 8d 35 45 3c 00 00 	lea    0x3c45(%rip),%rsi        # 15f2a <g_2035+0x2e82>
   122e5:	48 89 c7             	mov    %rax,%rdi
   122e8:	e8 06 64 ff ff       	callq  86f3 <transparent_crc>
   122ed:	48 8b 05 84 79 00 00 	mov    0x7984(%rip),%rax        # 19c78 <g_2217+0x8>
   122f4:	8b 55 fc             	mov    -0x4(%rbp),%edx
   122f7:	48 8d 35 36 3c 00 00 	lea    0x3c36(%rip),%rsi        # 15f34 <g_2035+0x2e8c>
   122fe:	48 89 c7             	mov    %rax,%rdi
   12301:	e8 ed 63 ff ff       	callq  86f3 <transparent_crc>
   12306:	48 8b 05 73 79 00 00 	mov    0x7973(%rip),%rax        # 19c80 <g_2217+0x10>
   1230d:	48 89 c1             	mov    %rax,%rcx
   12310:	8b 45 fc             	mov    -0x4(%rbp),%eax
   12313:	89 c2                	mov    %eax,%edx
   12315:	48 8d 35 22 3c 00 00 	lea    0x3c22(%rip),%rsi        # 15f3e <g_2035+0x2e96>
   1231c:	48 89 cf             	mov    %rcx,%rdi
   1231f:	e8 cf 63 ff ff       	callq  86f3 <transparent_crc>
   12324:	8b 05 66 79 00 00    	mov    0x7966(%rip),%eax        # 19c90 <g_2309>
   1232a:	89 c1                	mov    %eax,%ecx
   1232c:	8b 45 fc             	mov    -0x4(%rbp),%eax
   1232f:	89 c2                	mov    %eax,%edx
   12331:	48 8d 35 10 3c 00 00 	lea    0x3c10(%rip),%rsi        # 15f48 <g_2035+0x2ea0>
   12338:	48 89 cf             	mov    %rcx,%rdi
   1233b:	e8 b3 63 ff ff       	callq  86f3 <transparent_crc>
   12340:	0f b7 05 4d 79 00 00 	movzwl 0x794d(%rip),%eax        # 19c94 <g_2309+0x4>
   12347:	48 0f bf c0          	movswq %ax,%rax
   1234b:	8b 55 fc             	mov    -0x4(%rbp),%edx
   1234e:	48 8d 35 fd 3b 00 00 	lea    0x3bfd(%rip),%rsi        # 15f52 <g_2035+0x2eaa>
   12355:	48 89 c7             	mov    %rax,%rdi
   12358:	e8 96 63 ff ff       	callq  86f3 <transparent_crc>
   1235d:	0f b7 05 32 79 00 00 	movzwl 0x7932(%rip),%eax        # 19c96 <g_2309+0x6>
   12364:	48 0f bf c0          	movswq %ax,%rax
   12368:	8b 55 fc             	mov    -0x4(%rbp),%edx
   1236b:	48 8d 35 ea 3b 00 00 	lea    0x3bea(%rip),%rsi        # 15f5c <g_2035+0x2eb4>
   12372:	48 89 c7             	mov    %rax,%rdi
   12375:	e8 79 63 ff ff       	callq  86f3 <transparent_crc>
   1237a:	48 8b 05 17 79 00 00 	mov    0x7917(%rip),%rax        # 19c98 <g_2309+0x8>
   12381:	8b 55 fc             	mov    -0x4(%rbp),%edx
   12384:	48 8d 35 db 3b 00 00 	lea    0x3bdb(%rip),%rsi        # 15f66 <g_2035+0x2ebe>
   1238b:	48 89 c7             	mov    %rax,%rdi
   1238e:	e8 60 63 ff ff       	callq  86f3 <transparent_crc>
   12393:	48 8b 05 06 79 00 00 	mov    0x7906(%rip),%rax        # 19ca0 <g_2309+0x10>
   1239a:	48 89 c1             	mov    %rax,%rcx
   1239d:	8b 45 fc             	mov    -0x4(%rbp),%eax
   123a0:	89 c2                	mov    %eax,%edx
   123a2:	48 8d 35 c7 3b 00 00 	lea    0x3bc7(%rip),%rsi        # 15f70 <g_2035+0x2ec8>
   123a9:	48 89 cf             	mov    %rcx,%rdi
   123ac:	e8 42 63 ff ff       	callq  86f3 <transparent_crc>
   123b1:	8b 05 f9 78 00 00    	mov    0x78f9(%rip),%eax        # 19cb0 <g_2310>
   123b7:	89 c1                	mov    %eax,%ecx
   123b9:	8b 45 fc             	mov    -0x4(%rbp),%eax
   123bc:	89 c2                	mov    %eax,%edx
   123be:	48 8d 35 b5 3b 00 00 	lea    0x3bb5(%rip),%rsi        # 15f7a <g_2035+0x2ed2>
   123c5:	48 89 cf             	mov    %rcx,%rdi
   123c8:	e8 26 63 ff ff       	callq  86f3 <transparent_crc>
   123cd:	0f b7 05 e0 78 00 00 	movzwl 0x78e0(%rip),%eax        # 19cb4 <g_2310+0x4>
   123d4:	48 0f bf c0          	movswq %ax,%rax
   123d8:	8b 55 fc             	mov    -0x4(%rbp),%edx
   123db:	48 8d 35 a2 3b 00 00 	lea    0x3ba2(%rip),%rsi        # 15f84 <g_2035+0x2edc>
   123e2:	48 89 c7             	mov    %rax,%rdi
   123e5:	e8 09 63 ff ff       	callq  86f3 <transparent_crc>
   123ea:	0f b7 05 c5 78 00 00 	movzwl 0x78c5(%rip),%eax        # 19cb6 <g_2310+0x6>
   123f1:	48 0f bf c0          	movswq %ax,%rax
   123f5:	8b 55 fc             	mov    -0x4(%rbp),%edx
   123f8:	48 8d 35 8f 3b 00 00 	lea    0x3b8f(%rip),%rsi        # 15f8e <g_2035+0x2ee6>
   123ff:	48 89 c7             	mov    %rax,%rdi
   12402:	e8 ec 62 ff ff       	callq  86f3 <transparent_crc>
   12407:	48 8b 05 aa 78 00 00 	mov    0x78aa(%rip),%rax        # 19cb8 <g_2310+0x8>
   1240e:	8b 55 fc             	mov    -0x4(%rbp),%edx
   12411:	48 8d 35 80 3b 00 00 	lea    0x3b80(%rip),%rsi        # 15f98 <g_2035+0x2ef0>
   12418:	48 89 c7             	mov    %rax,%rdi
   1241b:	e8 d3 62 ff ff       	callq  86f3 <transparent_crc>
   12420:	48 8b 05 99 78 00 00 	mov    0x7899(%rip),%rax        # 19cc0 <g_2310+0x10>
   12427:	48 89 c1             	mov    %rax,%rcx
   1242a:	8b 45 fc             	mov    -0x4(%rbp),%eax
   1242d:	89 c2                	mov    %eax,%edx
   1242f:	48 8d 35 6c 3b 00 00 	lea    0x3b6c(%rip),%rsi        # 15fa2 <g_2035+0x2efa>
   12436:	48 89 cf             	mov    %rcx,%rdi
   12439:	e8 b5 62 ff ff       	callq  86f3 <transparent_crc>
   1243e:	8b 05 8c 78 00 00    	mov    0x788c(%rip),%eax        # 19cd0 <g_2328>
   12444:	89 c1                	mov    %eax,%ecx
   12446:	8b 45 fc             	mov    -0x4(%rbp),%eax
   12449:	89 c2                	mov    %eax,%edx
   1244b:	48 8d 35 5a 3b 00 00 	lea    0x3b5a(%rip),%rsi        # 15fac <g_2035+0x2f04>
   12452:	48 89 cf             	mov    %rcx,%rdi
   12455:	e8 99 62 ff ff       	callq  86f3 <transparent_crc>
   1245a:	0f b7 05 73 78 00 00 	movzwl 0x7873(%rip),%eax        # 19cd4 <g_2328+0x4>
   12461:	48 0f bf c0          	movswq %ax,%rax
   12465:	8b 55 fc             	mov    -0x4(%rbp),%edx
   12468:	48 8d 35 47 3b 00 00 	lea    0x3b47(%rip),%rsi        # 15fb6 <g_2035+0x2f0e>
   1246f:	48 89 c7             	mov    %rax,%rdi
   12472:	e8 7c 62 ff ff       	callq  86f3 <transparent_crc>
   12477:	0f b7 05 58 78 00 00 	movzwl 0x7858(%rip),%eax        # 19cd6 <g_2328+0x6>
   1247e:	48 0f bf c0          	movswq %ax,%rax
   12482:	8b 55 fc             	mov    -0x4(%rbp),%edx
   12485:	48 8d 35 34 3b 00 00 	lea    0x3b34(%rip),%rsi        # 15fc0 <g_2035+0x2f18>
   1248c:	48 89 c7             	mov    %rax,%rdi
   1248f:	e8 5f 62 ff ff       	callq  86f3 <transparent_crc>
   12494:	48 8b 05 3d 78 00 00 	mov    0x783d(%rip),%rax        # 19cd8 <g_2328+0x8>
   1249b:	8b 55 fc             	mov    -0x4(%rbp),%edx
   1249e:	48 8d 35 25 3b 00 00 	lea    0x3b25(%rip),%rsi        # 15fca <g_2035+0x2f22>
   124a5:	48 89 c7             	mov    %rax,%rdi
   124a8:	e8 46 62 ff ff       	callq  86f3 <transparent_crc>
   124ad:	48 8b 05 2c 78 00 00 	mov    0x782c(%rip),%rax        # 19ce0 <g_2328+0x10>
   124b4:	48 89 c1             	mov    %rax,%rcx
   124b7:	8b 45 fc             	mov    -0x4(%rbp),%eax
   124ba:	89 c2                	mov    %eax,%edx
   124bc:	48 8d 35 11 3b 00 00 	lea    0x3b11(%rip),%rsi        # 15fd4 <g_2035+0x2f2c>
   124c3:	48 89 cf             	mov    %rcx,%rdi
   124c6:	e8 28 62 ff ff       	callq  86f3 <transparent_crc>
   124cb:	48 8b 05 16 78 00 00 	mov    0x7816(%rip),%rax        # 19ce8 <g_2344>
   124d2:	8b 55 fc             	mov    -0x4(%rbp),%edx
   124d5:	48 8d 35 02 3b 00 00 	lea    0x3b02(%rip),%rsi        # 15fde <g_2035+0x2f36>
   124dc:	48 89 c7             	mov    %rax,%rdi
   124df:	e8 0f 62 ff ff       	callq  86f3 <transparent_crc>
   124e4:	8b 05 06 78 00 00    	mov    0x7806(%rip),%eax        # 19cf0 <g_2357>
   124ea:	89 c1                	mov    %eax,%ecx
   124ec:	8b 45 fc             	mov    -0x4(%rbp),%eax
   124ef:	89 c2                	mov    %eax,%edx
   124f1:	48 8d 35 ed 3a 00 00 	lea    0x3aed(%rip),%rsi        # 15fe5 <g_2035+0x2f3d>
   124f8:	48 89 cf             	mov    %rcx,%rdi
   124fb:	e8 f3 61 ff ff       	callq  86f3 <transparent_crc>
   12500:	0f b7 05 ed 77 00 00 	movzwl 0x77ed(%rip),%eax        # 19cf4 <g_2357+0x4>
   12507:	48 0f bf c0          	movswq %ax,%rax
   1250b:	8b 55 fc             	mov    -0x4(%rbp),%edx
   1250e:	48 8d 35 da 3a 00 00 	lea    0x3ada(%rip),%rsi        # 15fef <g_2035+0x2f47>
   12515:	48 89 c7             	mov    %rax,%rdi
   12518:	e8 d6 61 ff ff       	callq  86f3 <transparent_crc>
   1251d:	0f b7 05 d2 77 00 00 	movzwl 0x77d2(%rip),%eax        # 19cf6 <g_2357+0x6>
   12524:	48 0f bf c0          	movswq %ax,%rax
   12528:	8b 55 fc             	mov    -0x4(%rbp),%edx
   1252b:	48 8d 35 c7 3a 00 00 	lea    0x3ac7(%rip),%rsi        # 15ff9 <g_2035+0x2f51>
   12532:	48 89 c7             	mov    %rax,%rdi
   12535:	e8 b9 61 ff ff       	callq  86f3 <transparent_crc>
   1253a:	48 8b 05 b7 77 00 00 	mov    0x77b7(%rip),%rax        # 19cf8 <g_2357+0x8>
   12541:	8b 55 fc             	mov    -0x4(%rbp),%edx
   12544:	48 8d 35 b8 3a 00 00 	lea    0x3ab8(%rip),%rsi        # 16003 <g_2035+0x2f5b>
   1254b:	48 89 c7             	mov    %rax,%rdi
   1254e:	e8 a0 61 ff ff       	callq  86f3 <transparent_crc>
   12553:	48 8b 05 a6 77 00 00 	mov    0x77a6(%rip),%rax        # 19d00 <g_2357+0x10>
   1255a:	48 89 c1             	mov    %rax,%rcx
   1255d:	8b 45 fc             	mov    -0x4(%rbp),%eax
   12560:	89 c2                	mov    %eax,%edx
   12562:	48 8d 35 a4 3a 00 00 	lea    0x3aa4(%rip),%rsi        # 1600d <g_2035+0x2f65>
   12569:	48 89 cf             	mov    %rcx,%rdi
   1256c:	e8 82 61 ff ff       	callq  86f3 <transparent_crc>
   12571:	8b 05 99 77 00 00    	mov    0x7799(%rip),%eax        # 19d10 <g_2401>
   12577:	89 c1                	mov    %eax,%ecx
   12579:	8b 45 fc             	mov    -0x4(%rbp),%eax
   1257c:	89 c2                	mov    %eax,%edx
   1257e:	48 8d 35 92 3a 00 00 	lea    0x3a92(%rip),%rsi        # 16017 <g_2035+0x2f6f>
   12585:	48 89 cf             	mov    %rcx,%rdi
   12588:	e8 66 61 ff ff       	callq  86f3 <transparent_crc>
   1258d:	0f b7 05 80 77 00 00 	movzwl 0x7780(%rip),%eax        # 19d14 <g_2401+0x4>
   12594:	48 0f bf c0          	movswq %ax,%rax
   12598:	8b 55 fc             	mov    -0x4(%rbp),%edx
   1259b:	48 8d 35 7f 3a 00 00 	lea    0x3a7f(%rip),%rsi        # 16021 <g_2035+0x2f79>
   125a2:	48 89 c7             	mov    %rax,%rdi
   125a5:	e8 49 61 ff ff       	callq  86f3 <transparent_crc>
   125aa:	0f b7 05 65 77 00 00 	movzwl 0x7765(%rip),%eax        # 19d16 <g_2401+0x6>
   125b1:	48 0f bf c0          	movswq %ax,%rax
   125b5:	8b 55 fc             	mov    -0x4(%rbp),%edx
   125b8:	48 8d 35 6c 3a 00 00 	lea    0x3a6c(%rip),%rsi        # 1602b <g_2035+0x2f83>
   125bf:	48 89 c7             	mov    %rax,%rdi
   125c2:	e8 2c 61 ff ff       	callq  86f3 <transparent_crc>
   125c7:	48 8b 05 4a 77 00 00 	mov    0x774a(%rip),%rax        # 19d18 <g_2401+0x8>
   125ce:	8b 55 fc             	mov    -0x4(%rbp),%edx
   125d1:	48 8d 35 5d 3a 00 00 	lea    0x3a5d(%rip),%rsi        # 16035 <g_2035+0x2f8d>
   125d8:	48 89 c7             	mov    %rax,%rdi
   125db:	e8 13 61 ff ff       	callq  86f3 <transparent_crc>
   125e0:	48 8b 05 39 77 00 00 	mov    0x7739(%rip),%rax        # 19d20 <g_2401+0x10>
   125e7:	48 89 c1             	mov    %rax,%rcx
   125ea:	8b 45 fc             	mov    -0x4(%rbp),%eax
   125ed:	89 c2                	mov    %eax,%edx
   125ef:	48 8d 35 49 3a 00 00 	lea    0x3a49(%rip),%rsi        # 1603f <g_2035+0x2f97>
   125f6:	48 89 cf             	mov    %rcx,%rdi
   125f9:	e8 f5 60 ff ff       	callq  86f3 <transparent_crc>
   125fe:	8b 05 24 77 00 00    	mov    0x7724(%rip),%eax        # 19d28 <g_2472>
   12604:	48 98                	cltq   
   12606:	8b 55 fc             	mov    -0x4(%rbp),%edx
   12609:	48 8d 35 39 3a 00 00 	lea    0x3a39(%rip),%rsi        # 16049 <g_2035+0x2fa1>
   12610:	48 89 c7             	mov    %rax,%rdi
   12613:	e8 db 60 ff ff       	callq  86f3 <transparent_crc>
   12618:	8b 05 0e 77 00 00    	mov    0x770e(%rip),%eax        # 19d2c <g_2483>
   1261e:	48 98                	cltq   
   12620:	8b 55 fc             	mov    -0x4(%rbp),%edx
   12623:	48 8d 35 26 3a 00 00 	lea    0x3a26(%rip),%rsi        # 16050 <g_2035+0x2fa8>
   1262a:	48 89 c7             	mov    %rax,%rdi
   1262d:	e8 c1 60 ff ff       	callq  86f3 <transparent_crc>
   12632:	8b 05 f8 76 00 00    	mov    0x76f8(%rip),%eax        # 19d30 <g_2531>
   12638:	89 c1                	mov    %eax,%ecx
   1263a:	8b 45 fc             	mov    -0x4(%rbp),%eax
   1263d:	89 c2                	mov    %eax,%edx
   1263f:	48 8d 35 11 3a 00 00 	lea    0x3a11(%rip),%rsi        # 16057 <g_2035+0x2faf>
   12646:	48 89 cf             	mov    %rcx,%rdi
   12649:	e8 a5 60 ff ff       	callq  86f3 <transparent_crc>
   1264e:	0f b7 05 df 76 00 00 	movzwl 0x76df(%rip),%eax        # 19d34 <g_2531+0x4>
   12655:	48 0f bf c0          	movswq %ax,%rax
   12659:	8b 55 fc             	mov    -0x4(%rbp),%edx
   1265c:	48 8d 35 fe 39 00 00 	lea    0x39fe(%rip),%rsi        # 16061 <g_2035+0x2fb9>
   12663:	48 89 c7             	mov    %rax,%rdi
   12666:	e8 88 60 ff ff       	callq  86f3 <transparent_crc>
   1266b:	0f b7 05 c4 76 00 00 	movzwl 0x76c4(%rip),%eax        # 19d36 <g_2531+0x6>
   12672:	48 0f bf c0          	movswq %ax,%rax
   12676:	8b 55 fc             	mov    -0x4(%rbp),%edx
   12679:	48 8d 35 eb 39 00 00 	lea    0x39eb(%rip),%rsi        # 1606b <g_2035+0x2fc3>
   12680:	48 89 c7             	mov    %rax,%rdi
   12683:	e8 6b 60 ff ff       	callq  86f3 <transparent_crc>
   12688:	48 8b 05 a9 76 00 00 	mov    0x76a9(%rip),%rax        # 19d38 <g_2531+0x8>
   1268f:	8b 55 fc             	mov    -0x4(%rbp),%edx
   12692:	48 8d 35 dc 39 00 00 	lea    0x39dc(%rip),%rsi        # 16075 <g_2035+0x2fcd>
   12699:	48 89 c7             	mov    %rax,%rdi
   1269c:	e8 52 60 ff ff       	callq  86f3 <transparent_crc>
   126a1:	48 8b 05 98 76 00 00 	mov    0x7698(%rip),%rax        # 19d40 <g_2531+0x10>
   126a8:	48 89 c1             	mov    %rax,%rcx
   126ab:	8b 45 fc             	mov    -0x4(%rbp),%eax
   126ae:	89 c2                	mov    %eax,%edx
   126b0:	48 8d 35 c8 39 00 00 	lea    0x39c8(%rip),%rsi        # 1607f <g_2035+0x2fd7>
   126b7:	48 89 cf             	mov    %rcx,%rdi
   126ba:	e8 34 60 ff ff       	callq  86f3 <transparent_crc>
   126bf:	0f b6 05 8a 76 00 00 	movzbl 0x768a(%rip),%eax        # 19d50 <g_2596>
   126c6:	0f b6 c0             	movzbl %al,%eax
   126c9:	8b 55 fc             	mov    -0x4(%rbp),%edx
   126cc:	48 8d 35 b6 39 00 00 	lea    0x39b6(%rip),%rsi        # 16089 <g_2035+0x2fe1>
   126d3:	48 89 c7             	mov    %rax,%rdi
   126d6:	e8 18 60 ff ff       	callq  86f3 <transparent_crc>
   126db:	48 8b 05 d6 a6 00 00 	mov    0xa6d6(%rip),%rax        # 1cdb8 <g_2611>
   126e2:	8b 55 fc             	mov    -0x4(%rbp),%edx
   126e5:	48 8d 35 a4 39 00 00 	lea    0x39a4(%rip),%rsi        # 16090 <g_2035+0x2fe8>
   126ec:	48 89 c7             	mov    %rax,%rdi
   126ef:	e8 ff 5f ff ff       	callq  86f3 <transparent_crc>
   126f4:	8b 05 26 69 00 00    	mov    0x6926(%rip),%eax        # 19020 <crc32_context>
   126fa:	f7 d0                	not    %eax
   126fc:	89 c2                	mov    %eax,%edx
   126fe:	8b 45 fc             	mov    -0x4(%rbp),%eax
   12701:	89 c6                	mov    %eax,%esi
   12703:	89 d7                	mov    %edx,%edi
   12705:	e8 8a 4a ff ff       	callq  7194 <platform_main_end>
   1270a:	b8 00 00 00 00       	mov    $0x0,%eax
   1270f:	c9                   	leaveq 
   12710:	c3                   	retq   
   12711:	66 2e 0f 1f 84 00 00 	nopw   %cs:0x0(%rax,%rax,1)
   12718:	00 00 00 
   1271b:	0f 1f 44 00 00       	nopl   0x0(%rax,%rax,1)

0000000000012720 <__libc_csu_init>:
   12720:	f3 0f 1e fa          	endbr64 
   12724:	41 57                	push   %r15
   12726:	4c 8d 3d 6b 66 00 00 	lea    0x666b(%rip),%r15        # 18d98 <__frame_dummy_init_array_entry>
   1272d:	41 56                	push   %r14
   1272f:	49 89 d6             	mov    %rdx,%r14
   12732:	41 55                	push   %r13
   12734:	49 89 f5             	mov    %rsi,%r13
   12737:	41 54                	push   %r12
   12739:	41 89 fc             	mov    %edi,%r12d
   1273c:	55                   	push   %rbp
   1273d:	48 8d 2d 5c 66 00 00 	lea    0x665c(%rip),%rbp        # 18da0 <__do_global_dtors_aux_fini_array_entry>
   12744:	53                   	push   %rbx
   12745:	4c 29 fd             	sub    %r15,%rbp
   12748:	48 83 ec 08          	sub    $0x8,%rsp
   1274c:	e8 af 48 ff ff       	callq  7000 <_init>
   12751:	48 c1 fd 03          	sar    $0x3,%rbp
   12755:	74 1f                	je     12776 <__libc_csu_init+0x56>
   12757:	31 db                	xor    %ebx,%ebx
   12759:	0f 1f 80 00 00 00 00 	nopl   0x0(%rax)
   12760:	4c 89 f2             	mov    %r14,%rdx
   12763:	4c 89 ee             	mov    %r13,%rsi
   12766:	44 89 e7             	mov    %r12d,%edi
   12769:	41 ff 14 df          	callq  *(%r15,%rbx,8)
   1276d:	48 83 c3 01          	add    $0x1,%rbx
   12771:	48 39 dd             	cmp    %rbx,%rbp
   12774:	75 ea                	jne    12760 <__libc_csu_init+0x40>
   12776:	48 83 c4 08          	add    $0x8,%rsp
   1277a:	5b                   	pop    %rbx
   1277b:	5d                   	pop    %rbp
   1277c:	41 5c                	pop    %r12
   1277e:	41 5d                	pop    %r13
   12780:	41 5e                	pop    %r14
   12782:	41 5f                	pop    %r15
   12784:	c3                   	retq   
   12785:	66 66 2e 0f 1f 84 00 	data16 nopw %cs:0x0(%rax,%rax,1)
   1278c:	00 00 00 00 

0000000000012790 <__libc_csu_fini>:
   12790:	f3 0f 1e fa          	endbr64 
   12794:	c3                   	retq   
