


Disassembly of section .text:

00000000000040a0 <_start>:
    40a0:	f3 0f 1e fa          	endbr64 
    40a4:	31 ed                	xor    %ebp,%ebp
    40a6:	49 89 d1             	mov    %rdx,%r9
    40a9:	5e                   	pop    %rsi
    40aa:	48 89 e2             	mov    %rsp,%rdx
    40ad:	48 83 e4 f0          	and    $0xfffffffffffffff0,%rsp
    40b1:	50                   	push   %rax
    40b2:	54                   	push   %rsp
    40b3:	4c 8d 05 06 ce 00 00 	lea    0xce06(%rip),%r8        # 10ec0 <__libc_csu_fini>
    40ba:	48 8d 0d 8f cd 00 00 	lea    0xcd8f(%rip),%rcx        # 10e50 <__libc_csu_init>
    40c1:	48 8d 3d 88 c6 00 00 	lea    0xc688(%rip),%rdi        # 10750 <main>
    40c8:	ff 15 fa 1e 01 00    	callq  *0x11efa(%rip)        # 15fc8 <__libc_start_main@GLIBC_2.2.5>
    40ce:	f4                   	hlt    
    40cf:	90                   	nop

00000000000040d0 <deregister_tm_clones>:
    40d0:	48 8d 3d 21 34 01 00 	lea    0x13421(%rip),%rdi        # 174f8 <__TMC_END__>
    40d7:	48 8d 05 1a 34 01 00 	lea    0x1341a(%rip),%rax        # 174f8 <__TMC_END__>
    40de:	48 39 f8             	cmp    %rdi,%rax
    40e1:	74 15                	je     40f8 <deregister_tm_clones+0x28>
    40e3:	48 8b 05 d6 1e 01 00 	mov    0x11ed6(%rip),%rax        # 15fc0 <_ITM_deregisterTMCloneTable>
    40ea:	48 85 c0             	test   %rax,%rax
    40ed:	74 09                	je     40f8 <deregister_tm_clones+0x28>
    40ef:	ff e0                	jmpq   *%rax
    40f1:	0f 1f 80 00 00 00 00 	nopl   0x0(%rax)
    40f8:	c3                   	retq   
    40f9:	0f 1f 80 00 00 00 00 	nopl   0x0(%rax)

0000000000004100 <register_tm_clones>:
    4100:	48 8d 3d f1 33 01 00 	lea    0x133f1(%rip),%rdi        # 174f8 <__TMC_END__>
    4107:	48 8d 35 ea 33 01 00 	lea    0x133ea(%rip),%rsi        # 174f8 <__TMC_END__>
    410e:	48 29 fe             	sub    %rdi,%rsi
    4111:	48 89 f0             	mov    %rsi,%rax
    4114:	48 c1 ee 3f          	shr    $0x3f,%rsi
    4118:	48 c1 f8 03          	sar    $0x3,%rax
    411c:	48 01 c6             	add    %rax,%rsi
    411f:	48 d1 fe             	sar    %rsi
    4122:	74 14                	je     4138 <register_tm_clones+0x38>
    4124:	48 8b 05 ad 1e 01 00 	mov    0x11ead(%rip),%rax        # 15fd8 <_ITM_registerTMCloneTable>
    412b:	48 85 c0             	test   %rax,%rax
    412e:	74 08                	je     4138 <register_tm_clones+0x38>
    4130:	ff e0                	jmpq   *%rax
    4132:	66 0f 1f 44 00 00    	nopw   0x0(%rax,%rax,1)
    4138:	c3                   	retq   
    4139:	0f 1f 80 00 00 00 00 	nopl   0x0(%rax)

0000000000004140 <__do_global_dtors_aux>:
    4140:	f3 0f 1e fa          	endbr64 
    4144:	80 3d b5 33 01 00 00 	cmpb   $0x0,0x133b5(%rip)        # 17500 <completed.8061>
    414b:	75 2b                	jne    4178 <__do_global_dtors_aux+0x38>
    414d:	55                   	push   %rbp
    414e:	48 83 3d 8a 1e 01 00 	cmpq   $0x0,0x11e8a(%rip)        # 15fe0 <__cxa_finalize@GLIBC_2.2.5>
    4155:	00 
    4156:	48 89 e5             	mov    %rsp,%rbp
    4159:	74 0c                	je     4167 <__do_global_dtors_aux+0x27>
    415b:	48 8b 3d a6 1e 01 00 	mov    0x11ea6(%rip),%rdi        # 16008 <__dso_handle>
    4162:	e8 f9 fe ff ff       	callq  4060 <__cxa_finalize@plt>
    4167:	e8 64 ff ff ff       	callq  40d0 <deregister_tm_clones>
    416c:	c6 05 8d 33 01 00 01 	movb   $0x1,0x1338d(%rip)        # 17500 <completed.8061>
    4173:	5d                   	pop    %rbp
    4174:	c3                   	retq   
    4175:	0f 1f 00             	nopl   (%rax)
    4178:	c3                   	retq   
    4179:	0f 1f 80 00 00 00 00 	nopl   0x0(%rax)

0000000000004180 <frame_dummy>:
    4180:	f3 0f 1e fa          	endbr64 
    4184:	e9 77 ff ff ff       	jmpq   4100 <register_tm_clones>

0000000000004189 <platform_main_begin>:
    4189:	f3 0f 1e fa          	endbr64 
    418d:	55                   	push   %rbp
    418e:	48 89 e5             	mov    %rsp,%rbp
    4191:	90                   	nop
    4192:	5d                   	pop    %rbp
    4193:	c3                   	retq   

0000000000004194 <platform_main_end>:
    4194:	f3 0f 1e fa          	endbr64 
    4198:	55                   	push   %rbp
    4199:	48 89 e5             	mov    %rsp,%rbp
    419c:	48 83 ec 10          	sub    $0x10,%rsp
    41a0:	89 7d fc             	mov    %edi,-0x4(%rbp)
    41a3:	89 75 f8             	mov    %esi,-0x8(%rbp)
    41a6:	8b 45 fc             	mov    -0x4(%rbp),%eax
    41a9:	89 c6                	mov    %eax,%esi
    41ab:	48 8d 3d 6e ce 00 00 	lea    0xce6e(%rip),%rdi        # 11020 <_IO_stdin_used+0x20>
    41b2:	b8 00 00 00 00       	mov    $0x0,%eax
    41b7:	e8 c4 fe ff ff       	callq  4080 <printf@plt>
    41bc:	90                   	nop
    41bd:	c9                   	leaveq 
    41be:	c3                   	retq   

00000000000041bf <safe_unary_minus_func_int8_t_s>:
    41bf:	f3 0f 1e fa          	endbr64 
    41c3:	55                   	push   %rbp
    41c4:	48 89 e5             	mov    %rsp,%rbp
    41c7:	89 f8                	mov    %edi,%eax
    41c9:	88 45 fc             	mov    %al,-0x4(%rbp)
    41cc:	0f b6 45 fc          	movzbl -0x4(%rbp),%eax
    41d0:	f7 d8                	neg    %eax
    41d2:	5d                   	pop    %rbp
    41d3:	c3                   	retq   

00000000000041d4 <safe_add_func_int8_t_s_s>:
    41d4:	f3 0f 1e fa          	endbr64 
    41d8:	55                   	push   %rbp
    41d9:	48 89 e5             	mov    %rsp,%rbp
    41dc:	89 fa                	mov    %edi,%edx
    41de:	89 f0                	mov    %esi,%eax
    41e0:	88 55 fc             	mov    %dl,-0x4(%rbp)
    41e3:	88 45 f8             	mov    %al,-0x8(%rbp)
    41e6:	0f b6 55 fc          	movzbl -0x4(%rbp),%edx
    41ea:	0f b6 45 f8          	movzbl -0x8(%rbp),%eax
    41ee:	01 d0                	add    %edx,%eax
    41f0:	5d                   	pop    %rbp
    41f1:	c3                   	retq   

00000000000041f2 <safe_sub_func_int8_t_s_s>:
    41f2:	f3 0f 1e fa          	endbr64 
    41f6:	55                   	push   %rbp
    41f7:	48 89 e5             	mov    %rsp,%rbp
    41fa:	89 fa                	mov    %edi,%edx
    41fc:	89 f0                	mov    %esi,%eax
    41fe:	88 55 fc             	mov    %dl,-0x4(%rbp)
    4201:	88 45 f8             	mov    %al,-0x8(%rbp)
    4204:	0f b6 55 fc          	movzbl -0x4(%rbp),%edx
    4208:	0f b6 45 f8          	movzbl -0x8(%rbp),%eax
    420c:	29 c2                	sub    %eax,%edx
    420e:	89 d0                	mov    %edx,%eax
    4210:	5d                   	pop    %rbp
    4211:	c3                   	retq   

0000000000004212 <safe_mul_func_int8_t_s_s>:
    4212:	f3 0f 1e fa          	endbr64 
    4216:	55                   	push   %rbp
    4217:	48 89 e5             	mov    %rsp,%rbp
    421a:	89 fa                	mov    %edi,%edx
    421c:	89 f0                	mov    %esi,%eax
    421e:	88 55 fc             	mov    %dl,-0x4(%rbp)
    4221:	88 45 f8             	mov    %al,-0x8(%rbp)
    4224:	0f b6 45 fc          	movzbl -0x4(%rbp),%eax
    4228:	0f b6 55 f8          	movzbl -0x8(%rbp),%edx
    422c:	0f af c2             	imul   %edx,%eax
    422f:	5d                   	pop    %rbp
    4230:	c3                   	retq   

0000000000004231 <safe_mod_func_int8_t_s_s>:
    4231:	f3 0f 1e fa          	endbr64 
    4235:	55                   	push   %rbp
    4236:	48 89 e5             	mov    %rsp,%rbp
    4239:	89 fa                	mov    %edi,%edx
    423b:	89 f0                	mov    %esi,%eax
    423d:	88 55 fc             	mov    %dl,-0x4(%rbp)
    4240:	88 45 f8             	mov    %al,-0x8(%rbp)
    4243:	80 7d f8 00          	cmpb   $0x0,-0x8(%rbp)
    4247:	74 1b                	je     4264 <safe_mod_func_int8_t_s_s+0x33>
    4249:	80 7d fc 80          	cmpb   $0x80,-0x4(%rbp)
    424d:	75 06                	jne    4255 <safe_mod_func_int8_t_s_s+0x24>
    424f:	80 7d f8 ff          	cmpb   $0xff,-0x8(%rbp)
    4253:	74 0f                	je     4264 <safe_mod_func_int8_t_s_s+0x33>
    4255:	0f be 45 fc          	movsbl -0x4(%rbp),%eax
    4259:	0f be 4d f8          	movsbl -0x8(%rbp),%ecx
    425d:	99                   	cltd   
    425e:	f7 f9                	idiv   %ecx
    4260:	89 d0                	mov    %edx,%eax
    4262:	eb 04                	jmp    4268 <safe_mod_func_int8_t_s_s+0x37>
    4264:	0f b6 45 fc          	movzbl -0x4(%rbp),%eax
    4268:	5d                   	pop    %rbp
    4269:	c3                   	retq   

000000000000426a <safe_div_func_int8_t_s_s>:
    426a:	f3 0f 1e fa          	endbr64 
    426e:	55                   	push   %rbp
    426f:	48 89 e5             	mov    %rsp,%rbp
    4272:	89 fa                	mov    %edi,%edx
    4274:	89 f0                	mov    %esi,%eax
    4276:	88 55 fc             	mov    %dl,-0x4(%rbp)
    4279:	88 45 f8             	mov    %al,-0x8(%rbp)
    427c:	80 7d f8 00          	cmpb   $0x0,-0x8(%rbp)
    4280:	74 19                	je     429b <safe_div_func_int8_t_s_s+0x31>
    4282:	80 7d fc 80          	cmpb   $0x80,-0x4(%rbp)
    4286:	75 06                	jne    428e <safe_div_func_int8_t_s_s+0x24>
    4288:	80 7d f8 ff          	cmpb   $0xff,-0x8(%rbp)
    428c:	74 0d                	je     429b <safe_div_func_int8_t_s_s+0x31>
    428e:	0f be 45 fc          	movsbl -0x4(%rbp),%eax
    4292:	0f be 4d f8          	movsbl -0x8(%rbp),%ecx
    4296:	99                   	cltd   
    4297:	f7 f9                	idiv   %ecx
    4299:	eb 04                	jmp    429f <safe_div_func_int8_t_s_s+0x35>
    429b:	0f b6 45 fc          	movzbl -0x4(%rbp),%eax
    429f:	5d                   	pop    %rbp
    42a0:	c3                   	retq   

00000000000042a1 <safe_lshift_func_int8_t_s_s>:
    42a1:	f3 0f 1e fa          	endbr64 
    42a5:	55                   	push   %rbp
    42a6:	48 89 e5             	mov    %rsp,%rbp
    42a9:	89 f8                	mov    %edi,%eax
    42ab:	89 75 f8             	mov    %esi,-0x8(%rbp)
    42ae:	88 45 fc             	mov    %al,-0x4(%rbp)
    42b1:	80 7d fc 00          	cmpb   $0x0,-0x4(%rbp)
    42b5:	78 31                	js     42e8 <safe_lshift_func_int8_t_s_s+0x47>
    42b7:	83 7d f8 00          	cmpl   $0x0,-0x8(%rbp)
    42bb:	78 2b                	js     42e8 <safe_lshift_func_int8_t_s_s+0x47>
    42bd:	83 7d f8 1f          	cmpl   $0x1f,-0x8(%rbp)
    42c1:	7f 25                	jg     42e8 <safe_lshift_func_int8_t_s_s+0x47>
    42c3:	0f be 55 fc          	movsbl -0x4(%rbp),%edx
    42c7:	8b 45 f8             	mov    -0x8(%rbp),%eax
    42ca:	be 7f 00 00 00       	mov    $0x7f,%esi
    42cf:	89 c1                	mov    %eax,%ecx
    42d1:	d3 fe                	sar    %cl,%esi
    42d3:	89 f0                	mov    %esi,%eax
    42d5:	39 c2                	cmp    %eax,%edx
    42d7:	7f 0f                	jg     42e8 <safe_lshift_func_int8_t_s_s+0x47>
    42d9:	0f be 55 fc          	movsbl -0x4(%rbp),%edx
    42dd:	8b 45 f8             	mov    -0x8(%rbp),%eax
    42e0:	89 c1                	mov    %eax,%ecx
    42e2:	d3 e2                	shl    %cl,%edx
    42e4:	89 d0                	mov    %edx,%eax
    42e6:	eb 04                	jmp    42ec <safe_lshift_func_int8_t_s_s+0x4b>
    42e8:	0f b6 45 fc          	movzbl -0x4(%rbp),%eax
    42ec:	5d                   	pop    %rbp
    42ed:	c3                   	retq   

00000000000042ee <safe_lshift_func_int8_t_s_u>:
    42ee:	f3 0f 1e fa          	endbr64 
    42f2:	55                   	push   %rbp
    42f3:	48 89 e5             	mov    %rsp,%rbp
    42f6:	89 f8                	mov    %edi,%eax
    42f8:	89 75 f8             	mov    %esi,-0x8(%rbp)
    42fb:	88 45 fc             	mov    %al,-0x4(%rbp)
    42fe:	80 7d fc 00          	cmpb   $0x0,-0x4(%rbp)
    4302:	78 2b                	js     432f <safe_lshift_func_int8_t_s_u+0x41>
    4304:	83 7d f8 1f          	cmpl   $0x1f,-0x8(%rbp)
    4308:	77 25                	ja     432f <safe_lshift_func_int8_t_s_u+0x41>
    430a:	0f be 55 fc          	movsbl -0x4(%rbp),%edx
    430e:	8b 45 f8             	mov    -0x8(%rbp),%eax
    4311:	be 7f 00 00 00       	mov    $0x7f,%esi
    4316:	89 c1                	mov    %eax,%ecx
    4318:	d3 fe                	sar    %cl,%esi
    431a:	89 f0                	mov    %esi,%eax
    431c:	39 c2                	cmp    %eax,%edx
    431e:	7f 0f                	jg     432f <safe_lshift_func_int8_t_s_u+0x41>
    4320:	0f be 55 fc          	movsbl -0x4(%rbp),%edx
    4324:	8b 45 f8             	mov    -0x8(%rbp),%eax
    4327:	89 c1                	mov    %eax,%ecx
    4329:	d3 e2                	shl    %cl,%edx
    432b:	89 d0                	mov    %edx,%eax
    432d:	eb 04                	jmp    4333 <safe_lshift_func_int8_t_s_u+0x45>
    432f:	0f b6 45 fc          	movzbl -0x4(%rbp),%eax
    4333:	5d                   	pop    %rbp
    4334:	c3                   	retq   

0000000000004335 <safe_rshift_func_int8_t_s_s>:
    4335:	f3 0f 1e fa          	endbr64 
    4339:	55                   	push   %rbp
    433a:	48 89 e5             	mov    %rsp,%rbp
    433d:	89 f8                	mov    %edi,%eax
    433f:	89 75 f8             	mov    %esi,-0x8(%rbp)
    4342:	88 45 fc             	mov    %al,-0x4(%rbp)
    4345:	80 7d fc 00          	cmpb   $0x0,-0x4(%rbp)
    4349:	78 1b                	js     4366 <safe_rshift_func_int8_t_s_s+0x31>
    434b:	83 7d f8 00          	cmpl   $0x0,-0x8(%rbp)
    434f:	78 15                	js     4366 <safe_rshift_func_int8_t_s_s+0x31>
    4351:	83 7d f8 1f          	cmpl   $0x1f,-0x8(%rbp)
    4355:	7f 0f                	jg     4366 <safe_rshift_func_int8_t_s_s+0x31>
    4357:	0f be 55 fc          	movsbl -0x4(%rbp),%edx
    435b:	8b 45 f8             	mov    -0x8(%rbp),%eax
    435e:	89 c1                	mov    %eax,%ecx
    4360:	d3 fa                	sar    %cl,%edx
    4362:	89 d0                	mov    %edx,%eax
    4364:	eb 04                	jmp    436a <safe_rshift_func_int8_t_s_s+0x35>
    4366:	0f b6 45 fc          	movzbl -0x4(%rbp),%eax
    436a:	5d                   	pop    %rbp
    436b:	c3                   	retq   

000000000000436c <safe_rshift_func_int8_t_s_u>:
    436c:	f3 0f 1e fa          	endbr64 
    4370:	55                   	push   %rbp
    4371:	48 89 e5             	mov    %rsp,%rbp
    4374:	89 f8                	mov    %edi,%eax
    4376:	89 75 f8             	mov    %esi,-0x8(%rbp)
    4379:	88 45 fc             	mov    %al,-0x4(%rbp)
    437c:	80 7d fc 00          	cmpb   $0x0,-0x4(%rbp)
    4380:	78 15                	js     4397 <safe_rshift_func_int8_t_s_u+0x2b>
    4382:	83 7d f8 1f          	cmpl   $0x1f,-0x8(%rbp)
    4386:	77 0f                	ja     4397 <safe_rshift_func_int8_t_s_u+0x2b>
    4388:	0f be 55 fc          	movsbl -0x4(%rbp),%edx
    438c:	8b 45 f8             	mov    -0x8(%rbp),%eax
    438f:	89 c1                	mov    %eax,%ecx
    4391:	d3 fa                	sar    %cl,%edx
    4393:	89 d0                	mov    %edx,%eax
    4395:	eb 04                	jmp    439b <safe_rshift_func_int8_t_s_u+0x2f>
    4397:	0f b6 45 fc          	movzbl -0x4(%rbp),%eax
    439b:	5d                   	pop    %rbp
    439c:	c3                   	retq   

000000000000439d <safe_unary_minus_func_int16_t_s>:
    439d:	f3 0f 1e fa          	endbr64 
    43a1:	55                   	push   %rbp
    43a2:	48 89 e5             	mov    %rsp,%rbp
    43a5:	89 f8                	mov    %edi,%eax
    43a7:	66 89 45 fc          	mov    %ax,-0x4(%rbp)
    43ab:	0f b7 45 fc          	movzwl -0x4(%rbp),%eax
    43af:	f7 d8                	neg    %eax
    43b1:	5d                   	pop    %rbp
    43b2:	c3                   	retq   

00000000000043b3 <safe_add_func_int16_t_s_s>:
    43b3:	f3 0f 1e fa          	endbr64 
    43b7:	55                   	push   %rbp
    43b8:	48 89 e5             	mov    %rsp,%rbp
    43bb:	89 fa                	mov    %edi,%edx
    43bd:	89 f0                	mov    %esi,%eax
    43bf:	66 89 55 fc          	mov    %dx,-0x4(%rbp)
    43c3:	66 89 45 f8          	mov    %ax,-0x8(%rbp)
    43c7:	0f b7 55 fc          	movzwl -0x4(%rbp),%edx
    43cb:	0f b7 45 f8          	movzwl -0x8(%rbp),%eax
    43cf:	01 d0                	add    %edx,%eax
    43d1:	5d                   	pop    %rbp
    43d2:	c3                   	retq   

00000000000043d3 <safe_sub_func_int16_t_s_s>:
    43d3:	f3 0f 1e fa          	endbr64 
    43d7:	55                   	push   %rbp
    43d8:	48 89 e5             	mov    %rsp,%rbp
    43db:	89 fa                	mov    %edi,%edx
    43dd:	89 f0                	mov    %esi,%eax
    43df:	66 89 55 fc          	mov    %dx,-0x4(%rbp)
    43e3:	66 89 45 f8          	mov    %ax,-0x8(%rbp)
    43e7:	0f b7 55 fc          	movzwl -0x4(%rbp),%edx
    43eb:	0f b7 45 f8          	movzwl -0x8(%rbp),%eax
    43ef:	29 c2                	sub    %eax,%edx
    43f1:	89 d0                	mov    %edx,%eax
    43f3:	5d                   	pop    %rbp
    43f4:	c3                   	retq   

00000000000043f5 <safe_mul_func_int16_t_s_s>:
    43f5:	f3 0f 1e fa          	endbr64 
    43f9:	55                   	push   %rbp
    43fa:	48 89 e5             	mov    %rsp,%rbp
    43fd:	89 fa                	mov    %edi,%edx
    43ff:	89 f0                	mov    %esi,%eax
    4401:	66 89 55 fc          	mov    %dx,-0x4(%rbp)
    4405:	66 89 45 f8          	mov    %ax,-0x8(%rbp)
    4409:	0f b7 55 fc          	movzwl -0x4(%rbp),%edx
    440d:	0f b7 45 f8          	movzwl -0x8(%rbp),%eax
    4411:	0f af c2             	imul   %edx,%eax
    4414:	5d                   	pop    %rbp
    4415:	c3                   	retq   

0000000000004416 <safe_mod_func_int16_t_s_s>:
    4416:	f3 0f 1e fa          	endbr64 
    441a:	55                   	push   %rbp
    441b:	48 89 e5             	mov    %rsp,%rbp
    441e:	89 fa                	mov    %edi,%edx
    4420:	89 f0                	mov    %esi,%eax
    4422:	66 89 55 fc          	mov    %dx,-0x4(%rbp)
    4426:	66 89 45 f8          	mov    %ax,-0x8(%rbp)
    442a:	66 83 7d f8 00       	cmpw   $0x0,-0x8(%rbp)
    442f:	74 1e                	je     444f <safe_mod_func_int16_t_s_s+0x39>
    4431:	66 81 7d fc 00 80    	cmpw   $0x8000,-0x4(%rbp)
    4437:	75 07                	jne    4440 <safe_mod_func_int16_t_s_s+0x2a>
    4439:	66 83 7d f8 ff       	cmpw   $0xffff,-0x8(%rbp)
    443e:	74 0f                	je     444f <safe_mod_func_int16_t_s_s+0x39>
    4440:	0f bf 45 fc          	movswl -0x4(%rbp),%eax
    4444:	0f bf 4d f8          	movswl -0x8(%rbp),%ecx
    4448:	99                   	cltd   
    4449:	f7 f9                	idiv   %ecx
    444b:	89 d0                	mov    %edx,%eax
    444d:	eb 04                	jmp    4453 <safe_mod_func_int16_t_s_s+0x3d>
    444f:	0f b7 45 fc          	movzwl -0x4(%rbp),%eax
    4453:	5d                   	pop    %rbp
    4454:	c3                   	retq   

0000000000004455 <safe_div_func_int16_t_s_s>:
    4455:	f3 0f 1e fa          	endbr64 
    4459:	55                   	push   %rbp
    445a:	48 89 e5             	mov    %rsp,%rbp
    445d:	89 fa                	mov    %edi,%edx
    445f:	89 f0                	mov    %esi,%eax
    4461:	66 89 55 fc          	mov    %dx,-0x4(%rbp)
    4465:	66 89 45 f8          	mov    %ax,-0x8(%rbp)
    4469:	66 83 7d f8 00       	cmpw   $0x0,-0x8(%rbp)
    446e:	74 1c                	je     448c <safe_div_func_int16_t_s_s+0x37>
    4470:	66 81 7d fc 00 80    	cmpw   $0x8000,-0x4(%rbp)
    4476:	75 07                	jne    447f <safe_div_func_int16_t_s_s+0x2a>
    4478:	66 83 7d f8 ff       	cmpw   $0xffff,-0x8(%rbp)
    447d:	74 0d                	je     448c <safe_div_func_int16_t_s_s+0x37>
    447f:	0f bf 45 fc          	movswl -0x4(%rbp),%eax
    4483:	0f bf 4d f8          	movswl -0x8(%rbp),%ecx
    4487:	99                   	cltd   
    4488:	f7 f9                	idiv   %ecx
    448a:	eb 04                	jmp    4490 <safe_div_func_int16_t_s_s+0x3b>
    448c:	0f b7 45 fc          	movzwl -0x4(%rbp),%eax
    4490:	5d                   	pop    %rbp
    4491:	c3                   	retq   

0000000000004492 <safe_lshift_func_int16_t_s_s>:
    4492:	f3 0f 1e fa          	endbr64 
    4496:	55                   	push   %rbp
    4497:	48 89 e5             	mov    %rsp,%rbp
    449a:	89 f8                	mov    %edi,%eax
    449c:	89 75 f8             	mov    %esi,-0x8(%rbp)
    449f:	66 89 45 fc          	mov    %ax,-0x4(%rbp)
    44a3:	66 83 7d fc 00       	cmpw   $0x0,-0x4(%rbp)
    44a8:	78 31                	js     44db <safe_lshift_func_int16_t_s_s+0x49>
    44aa:	83 7d f8 00          	cmpl   $0x0,-0x8(%rbp)
    44ae:	78 2b                	js     44db <safe_lshift_func_int16_t_s_s+0x49>
    44b0:	83 7d f8 1f          	cmpl   $0x1f,-0x8(%rbp)
    44b4:	7f 25                	jg     44db <safe_lshift_func_int16_t_s_s+0x49>
    44b6:	0f bf 55 fc          	movswl -0x4(%rbp),%edx
    44ba:	8b 45 f8             	mov    -0x8(%rbp),%eax
    44bd:	be ff 7f 00 00       	mov    $0x7fff,%esi
    44c2:	89 c1                	mov    %eax,%ecx
    44c4:	d3 fe                	sar    %cl,%esi
    44c6:	89 f0                	mov    %esi,%eax
    44c8:	39 c2                	cmp    %eax,%edx
    44ca:	7f 0f                	jg     44db <safe_lshift_func_int16_t_s_s+0x49>
    44cc:	0f bf 55 fc          	movswl -0x4(%rbp),%edx
    44d0:	8b 45 f8             	mov    -0x8(%rbp),%eax
    44d3:	89 c1                	mov    %eax,%ecx
    44d5:	d3 e2                	shl    %cl,%edx
    44d7:	89 d0                	mov    %edx,%eax
    44d9:	eb 04                	jmp    44df <safe_lshift_func_int16_t_s_s+0x4d>
    44db:	0f b7 45 fc          	movzwl -0x4(%rbp),%eax
    44df:	5d                   	pop    %rbp
    44e0:	c3                   	retq   

00000000000044e1 <safe_lshift_func_int16_t_s_u>:
    44e1:	f3 0f 1e fa          	endbr64 
    44e5:	55                   	push   %rbp
    44e6:	48 89 e5             	mov    %rsp,%rbp
    44e9:	89 f8                	mov    %edi,%eax
    44eb:	89 75 f8             	mov    %esi,-0x8(%rbp)
    44ee:	66 89 45 fc          	mov    %ax,-0x4(%rbp)
    44f2:	66 83 7d fc 00       	cmpw   $0x0,-0x4(%rbp)
    44f7:	78 2b                	js     4524 <safe_lshift_func_int16_t_s_u+0x43>
    44f9:	83 7d f8 1f          	cmpl   $0x1f,-0x8(%rbp)
    44fd:	77 25                	ja     4524 <safe_lshift_func_int16_t_s_u+0x43>
    44ff:	0f bf 55 fc          	movswl -0x4(%rbp),%edx
    4503:	8b 45 f8             	mov    -0x8(%rbp),%eax
    4506:	be ff 7f 00 00       	mov    $0x7fff,%esi
    450b:	89 c1                	mov    %eax,%ecx
    450d:	d3 fe                	sar    %cl,%esi
    450f:	89 f0                	mov    %esi,%eax
    4511:	39 c2                	cmp    %eax,%edx
    4513:	7f 0f                	jg     4524 <safe_lshift_func_int16_t_s_u+0x43>
    4515:	0f bf 55 fc          	movswl -0x4(%rbp),%edx
    4519:	8b 45 f8             	mov    -0x8(%rbp),%eax
    451c:	89 c1                	mov    %eax,%ecx
    451e:	d3 e2                	shl    %cl,%edx
    4520:	89 d0                	mov    %edx,%eax
    4522:	eb 04                	jmp    4528 <safe_lshift_func_int16_t_s_u+0x47>
    4524:	0f b7 45 fc          	movzwl -0x4(%rbp),%eax
    4528:	5d                   	pop    %rbp
    4529:	c3                   	retq   

000000000000452a <safe_rshift_func_int16_t_s_s>:
    452a:	f3 0f 1e fa          	endbr64 
    452e:	55                   	push   %rbp
    452f:	48 89 e5             	mov    %rsp,%rbp
    4532:	89 f8                	mov    %edi,%eax
    4534:	89 75 f8             	mov    %esi,-0x8(%rbp)
    4537:	66 89 45 fc          	mov    %ax,-0x4(%rbp)
    453b:	66 83 7d fc 00       	cmpw   $0x0,-0x4(%rbp)
    4540:	78 1b                	js     455d <safe_rshift_func_int16_t_s_s+0x33>
    4542:	83 7d f8 00          	cmpl   $0x0,-0x8(%rbp)
    4546:	78 15                	js     455d <safe_rshift_func_int16_t_s_s+0x33>
    4548:	83 7d f8 1f          	cmpl   $0x1f,-0x8(%rbp)
    454c:	7f 0f                	jg     455d <safe_rshift_func_int16_t_s_s+0x33>
    454e:	0f bf 55 fc          	movswl -0x4(%rbp),%edx
    4552:	8b 45 f8             	mov    -0x8(%rbp),%eax
    4555:	89 c1                	mov    %eax,%ecx
    4557:	d3 fa                	sar    %cl,%edx
    4559:	89 d0                	mov    %edx,%eax
    455b:	eb 04                	jmp    4561 <safe_rshift_func_int16_t_s_s+0x37>
    455d:	0f b7 45 fc          	movzwl -0x4(%rbp),%eax
    4561:	5d                   	pop    %rbp
    4562:	c3                   	retq   

0000000000004563 <safe_rshift_func_int16_t_s_u>:
    4563:	f3 0f 1e fa          	endbr64 
    4567:	55                   	push   %rbp
    4568:	48 89 e5             	mov    %rsp,%rbp
    456b:	89 f8                	mov    %edi,%eax
    456d:	89 75 f8             	mov    %esi,-0x8(%rbp)
    4570:	66 89 45 fc          	mov    %ax,-0x4(%rbp)
    4574:	66 83 7d fc 00       	cmpw   $0x0,-0x4(%rbp)
    4579:	78 15                	js     4590 <safe_rshift_func_int16_t_s_u+0x2d>
    457b:	83 7d f8 1f          	cmpl   $0x1f,-0x8(%rbp)
    457f:	77 0f                	ja     4590 <safe_rshift_func_int16_t_s_u+0x2d>
    4581:	0f bf 55 fc          	movswl -0x4(%rbp),%edx
    4585:	8b 45 f8             	mov    -0x8(%rbp),%eax
    4588:	89 c1                	mov    %eax,%ecx
    458a:	d3 fa                	sar    %cl,%edx
    458c:	89 d0                	mov    %edx,%eax
    458e:	eb 04                	jmp    4594 <safe_rshift_func_int16_t_s_u+0x31>
    4590:	0f b7 45 fc          	movzwl -0x4(%rbp),%eax
    4594:	5d                   	pop    %rbp
    4595:	c3                   	retq   

0000000000004596 <safe_unary_minus_func_int32_t_s>:
    4596:	f3 0f 1e fa          	endbr64 
    459a:	55                   	push   %rbp
    459b:	48 89 e5             	mov    %rsp,%rbp
    459e:	89 7d fc             	mov    %edi,-0x4(%rbp)
    45a1:	81 7d fc 00 00 00 80 	cmpl   $0x80000000,-0x4(%rbp)
    45a8:	74 07                	je     45b1 <safe_unary_minus_func_int32_t_s+0x1b>
    45aa:	8b 45 fc             	mov    -0x4(%rbp),%eax
    45ad:	f7 d8                	neg    %eax
    45af:	eb 03                	jmp    45b4 <safe_unary_minus_func_int32_t_s+0x1e>
    45b1:	8b 45 fc             	mov    -0x4(%rbp),%eax
    45b4:	5d                   	pop    %rbp
    45b5:	c3                   	retq   

00000000000045b6 <safe_add_func_int32_t_s_s>:
    45b6:	f3 0f 1e fa          	endbr64 
    45ba:	55                   	push   %rbp
    45bb:	48 89 e5             	mov    %rsp,%rbp
    45be:	89 7d fc             	mov    %edi,-0x4(%rbp)
    45c1:	89 75 f8             	mov    %esi,-0x8(%rbp)
    45c4:	83 7d fc 00          	cmpl   $0x0,-0x4(%rbp)
    45c8:	7e 13                	jle    45dd <safe_add_func_int32_t_s_s+0x27>
    45ca:	83 7d f8 00          	cmpl   $0x0,-0x8(%rbp)
    45ce:	7e 0d                	jle    45dd <safe_add_func_int32_t_s_s+0x27>
    45d0:	b8 ff ff ff 7f       	mov    $0x7fffffff,%eax
    45d5:	2b 45 f8             	sub    -0x8(%rbp),%eax
    45d8:	39 45 fc             	cmp    %eax,-0x4(%rbp)
    45db:	7f 23                	jg     4600 <safe_add_func_int32_t_s_s+0x4a>
    45dd:	83 7d fc 00          	cmpl   $0x0,-0x4(%rbp)
    45e1:	79 13                	jns    45f6 <safe_add_func_int32_t_s_s+0x40>
    45e3:	83 7d f8 00          	cmpl   $0x0,-0x8(%rbp)
    45e7:	79 0d                	jns    45f6 <safe_add_func_int32_t_s_s+0x40>
    45e9:	b8 00 00 00 80       	mov    $0x80000000,%eax
    45ee:	2b 45 f8             	sub    -0x8(%rbp),%eax
    45f1:	39 45 fc             	cmp    %eax,-0x4(%rbp)
    45f4:	7c 0a                	jl     4600 <safe_add_func_int32_t_s_s+0x4a>
    45f6:	8b 55 fc             	mov    -0x4(%rbp),%edx
    45f9:	8b 45 f8             	mov    -0x8(%rbp),%eax
    45fc:	01 d0                	add    %edx,%eax
    45fe:	eb 03                	jmp    4603 <safe_add_func_int32_t_s_s+0x4d>
    4600:	8b 45 fc             	mov    -0x4(%rbp),%eax
    4603:	5d                   	pop    %rbp
    4604:	c3                   	retq   

0000000000004605 <safe_sub_func_int32_t_s_s>:
    4605:	f3 0f 1e fa          	endbr64 
    4609:	55                   	push   %rbp
    460a:	48 89 e5             	mov    %rsp,%rbp
    460d:	89 7d fc             	mov    %edi,-0x4(%rbp)
    4610:	89 75 f8             	mov    %esi,-0x8(%rbp)
    4613:	8b 45 fc             	mov    -0x4(%rbp),%eax
    4616:	33 45 f8             	xor    -0x8(%rbp),%eax
    4619:	89 c2                	mov    %eax,%edx
    461b:	8b 45 fc             	mov    -0x4(%rbp),%eax
    461e:	33 45 f8             	xor    -0x8(%rbp),%eax
    4621:	25 00 00 00 80       	and    $0x80000000,%eax
    4626:	33 45 fc             	xor    -0x4(%rbp),%eax
    4629:	2b 45 f8             	sub    -0x8(%rbp),%eax
    462c:	33 45 f8             	xor    -0x8(%rbp),%eax
    462f:	21 d0                	and    %edx,%eax
    4631:	85 c0                	test   %eax,%eax
    4633:	78 08                	js     463d <safe_sub_func_int32_t_s_s+0x38>
    4635:	8b 45 fc             	mov    -0x4(%rbp),%eax
    4638:	2b 45 f8             	sub    -0x8(%rbp),%eax
    463b:	eb 03                	jmp    4640 <safe_sub_func_int32_t_s_s+0x3b>
    463d:	8b 45 fc             	mov    -0x4(%rbp),%eax
    4640:	5d                   	pop    %rbp
    4641:	c3                   	retq   

0000000000004642 <safe_mul_func_int32_t_s_s>:
    4642:	f3 0f 1e fa          	endbr64 
    4646:	55                   	push   %rbp
    4647:	48 89 e5             	mov    %rsp,%rbp
    464a:	89 7d fc             	mov    %edi,-0x4(%rbp)
    464d:	89 75 f8             	mov    %esi,-0x8(%rbp)
    4650:	83 7d fc 00          	cmpl   $0x0,-0x4(%rbp)
    4654:	7e 14                	jle    466a <safe_mul_func_int32_t_s_s+0x28>
    4656:	83 7d f8 00          	cmpl   $0x0,-0x8(%rbp)
    465a:	7e 0e                	jle    466a <safe_mul_func_int32_t_s_s+0x28>
    465c:	b8 ff ff ff 7f       	mov    $0x7fffffff,%eax
    4661:	99                   	cltd   
    4662:	f7 7d f8             	idivl  -0x8(%rbp)
    4665:	39 45 fc             	cmp    %eax,-0x4(%rbp)
    4668:	7f 5d                	jg     46c7 <safe_mul_func_int32_t_s_s+0x85>
    466a:	83 7d fc 00          	cmpl   $0x0,-0x4(%rbp)
    466e:	7e 14                	jle    4684 <safe_mul_func_int32_t_s_s+0x42>
    4670:	83 7d f8 00          	cmpl   $0x0,-0x8(%rbp)
    4674:	7f 0e                	jg     4684 <safe_mul_func_int32_t_s_s+0x42>
    4676:	b8 00 00 00 80       	mov    $0x80000000,%eax
    467b:	99                   	cltd   
    467c:	f7 7d fc             	idivl  -0x4(%rbp)
    467f:	39 45 f8             	cmp    %eax,-0x8(%rbp)
    4682:	7c 43                	jl     46c7 <safe_mul_func_int32_t_s_s+0x85>
    4684:	83 7d fc 00          	cmpl   $0x0,-0x4(%rbp)
    4688:	7f 14                	jg     469e <safe_mul_func_int32_t_s_s+0x5c>
    468a:	83 7d f8 00          	cmpl   $0x0,-0x8(%rbp)
    468e:	7e 0e                	jle    469e <safe_mul_func_int32_t_s_s+0x5c>
    4690:	b8 00 00 00 80       	mov    $0x80000000,%eax
    4695:	99                   	cltd   
    4696:	f7 7d f8             	idivl  -0x8(%rbp)
    4699:	39 45 fc             	cmp    %eax,-0x4(%rbp)
    469c:	7c 29                	jl     46c7 <safe_mul_func_int32_t_s_s+0x85>
    469e:	83 7d fc 00          	cmpl   $0x0,-0x4(%rbp)
    46a2:	7f 1a                	jg     46be <safe_mul_func_int32_t_s_s+0x7c>
    46a4:	83 7d f8 00          	cmpl   $0x0,-0x8(%rbp)
    46a8:	7f 14                	jg     46be <safe_mul_func_int32_t_s_s+0x7c>
    46aa:	83 7d fc 00          	cmpl   $0x0,-0x4(%rbp)
    46ae:	74 0e                	je     46be <safe_mul_func_int32_t_s_s+0x7c>
    46b0:	b8 ff ff ff 7f       	mov    $0x7fffffff,%eax
    46b5:	99                   	cltd   
    46b6:	f7 7d fc             	idivl  -0x4(%rbp)
    46b9:	39 45 f8             	cmp    %eax,-0x8(%rbp)
    46bc:	7c 09                	jl     46c7 <safe_mul_func_int32_t_s_s+0x85>
    46be:	8b 45 fc             	mov    -0x4(%rbp),%eax
    46c1:	0f af 45 f8          	imul   -0x8(%rbp),%eax
    46c5:	eb 03                	jmp    46ca <safe_mul_func_int32_t_s_s+0x88>
    46c7:	8b 45 fc             	mov    -0x4(%rbp),%eax
    46ca:	5d                   	pop    %rbp
    46cb:	c3                   	retq   

00000000000046cc <safe_mod_func_int32_t_s_s>:
    46cc:	f3 0f 1e fa          	endbr64 
    46d0:	55                   	push   %rbp
    46d1:	48 89 e5             	mov    %rsp,%rbp
    46d4:	89 7d fc             	mov    %edi,-0x4(%rbp)
    46d7:	89 75 f8             	mov    %esi,-0x8(%rbp)
    46da:	83 7d f8 00          	cmpl   $0x0,-0x8(%rbp)
    46de:	74 1a                	je     46fa <safe_mod_func_int32_t_s_s+0x2e>
    46e0:	81 7d fc 00 00 00 80 	cmpl   $0x80000000,-0x4(%rbp)
    46e7:	75 06                	jne    46ef <safe_mod_func_int32_t_s_s+0x23>
    46e9:	83 7d f8 ff          	cmpl   $0xffffffff,-0x8(%rbp)
    46ed:	74 0b                	je     46fa <safe_mod_func_int32_t_s_s+0x2e>
    46ef:	8b 45 fc             	mov    -0x4(%rbp),%eax
    46f2:	99                   	cltd   
    46f3:	f7 7d f8             	idivl  -0x8(%rbp)
    46f6:	89 d0                	mov    %edx,%eax
    46f8:	eb 03                	jmp    46fd <safe_mod_func_int32_t_s_s+0x31>
    46fa:	8b 45 fc             	mov    -0x4(%rbp),%eax
    46fd:	5d                   	pop    %rbp
    46fe:	c3                   	retq   

00000000000046ff <safe_div_func_int32_t_s_s>:
    46ff:	f3 0f 1e fa          	endbr64 
    4703:	55                   	push   %rbp
    4704:	48 89 e5             	mov    %rsp,%rbp
    4707:	89 7d fc             	mov    %edi,-0x4(%rbp)
    470a:	89 75 f8             	mov    %esi,-0x8(%rbp)
    470d:	83 7d f8 00          	cmpl   $0x0,-0x8(%rbp)
    4711:	74 18                	je     472b <safe_div_func_int32_t_s_s+0x2c>
    4713:	81 7d fc 00 00 00 80 	cmpl   $0x80000000,-0x4(%rbp)
    471a:	75 06                	jne    4722 <safe_div_func_int32_t_s_s+0x23>
    471c:	83 7d f8 ff          	cmpl   $0xffffffff,-0x8(%rbp)
    4720:	74 09                	je     472b <safe_div_func_int32_t_s_s+0x2c>
    4722:	8b 45 fc             	mov    -0x4(%rbp),%eax
    4725:	99                   	cltd   
    4726:	f7 7d f8             	idivl  -0x8(%rbp)
    4729:	eb 03                	jmp    472e <safe_div_func_int32_t_s_s+0x2f>
    472b:	8b 45 fc             	mov    -0x4(%rbp),%eax
    472e:	5d                   	pop    %rbp
    472f:	c3                   	retq   

0000000000004730 <safe_lshift_func_int32_t_s_s>:
    4730:	f3 0f 1e fa          	endbr64 
    4734:	55                   	push   %rbp
    4735:	48 89 e5             	mov    %rsp,%rbp
    4738:	89 7d fc             	mov    %edi,-0x4(%rbp)
    473b:	89 75 f8             	mov    %esi,-0x8(%rbp)
    473e:	83 7d fc 00          	cmpl   $0x0,-0x4(%rbp)
    4742:	78 2d                	js     4771 <safe_lshift_func_int32_t_s_s+0x41>
    4744:	83 7d f8 00          	cmpl   $0x0,-0x8(%rbp)
    4748:	78 27                	js     4771 <safe_lshift_func_int32_t_s_s+0x41>
    474a:	83 7d f8 1f          	cmpl   $0x1f,-0x8(%rbp)
    474e:	7f 21                	jg     4771 <safe_lshift_func_int32_t_s_s+0x41>
    4750:	8b 45 f8             	mov    -0x8(%rbp),%eax
    4753:	ba ff ff ff 7f       	mov    $0x7fffffff,%edx
    4758:	89 c1                	mov    %eax,%ecx
    475a:	d3 fa                	sar    %cl,%edx
    475c:	89 d0                	mov    %edx,%eax
    475e:	39 45 fc             	cmp    %eax,-0x4(%rbp)
    4761:	7f 0e                	jg     4771 <safe_lshift_func_int32_t_s_s+0x41>
    4763:	8b 45 f8             	mov    -0x8(%rbp),%eax
    4766:	8b 55 fc             	mov    -0x4(%rbp),%edx
    4769:	89 c1                	mov    %eax,%ecx
    476b:	d3 e2                	shl    %cl,%edx
    476d:	89 d0                	mov    %edx,%eax
    476f:	eb 03                	jmp    4774 <safe_lshift_func_int32_t_s_s+0x44>
    4771:	8b 45 fc             	mov    -0x4(%rbp),%eax
    4774:	5d                   	pop    %rbp
    4775:	c3                   	retq   

0000000000004776 <safe_lshift_func_int32_t_s_u>:
    4776:	f3 0f 1e fa          	endbr64 
    477a:	55                   	push   %rbp
    477b:	48 89 e5             	mov    %rsp,%rbp
    477e:	89 7d fc             	mov    %edi,-0x4(%rbp)
    4781:	89 75 f8             	mov    %esi,-0x8(%rbp)
    4784:	83 7d fc 00          	cmpl   $0x0,-0x4(%rbp)
    4788:	78 27                	js     47b1 <safe_lshift_func_int32_t_s_u+0x3b>
    478a:	83 7d f8 1f          	cmpl   $0x1f,-0x8(%rbp)
    478e:	77 21                	ja     47b1 <safe_lshift_func_int32_t_s_u+0x3b>
    4790:	8b 45 f8             	mov    -0x8(%rbp),%eax
    4793:	ba ff ff ff 7f       	mov    $0x7fffffff,%edx
    4798:	89 c1                	mov    %eax,%ecx
    479a:	d3 fa                	sar    %cl,%edx
    479c:	89 d0                	mov    %edx,%eax
    479e:	39 45 fc             	cmp    %eax,-0x4(%rbp)
    47a1:	7f 0e                	jg     47b1 <safe_lshift_func_int32_t_s_u+0x3b>
    47a3:	8b 45 f8             	mov    -0x8(%rbp),%eax
    47a6:	8b 55 fc             	mov    -0x4(%rbp),%edx
    47a9:	89 c1                	mov    %eax,%ecx
    47ab:	d3 e2                	shl    %cl,%edx
    47ad:	89 d0                	mov    %edx,%eax
    47af:	eb 03                	jmp    47b4 <safe_lshift_func_int32_t_s_u+0x3e>
    47b1:	8b 45 fc             	mov    -0x4(%rbp),%eax
    47b4:	5d                   	pop    %rbp
    47b5:	c3                   	retq   

00000000000047b6 <safe_rshift_func_int32_t_s_s>:
    47b6:	f3 0f 1e fa          	endbr64 
    47ba:	55                   	push   %rbp
    47bb:	48 89 e5             	mov    %rsp,%rbp
    47be:	89 7d fc             	mov    %edi,-0x4(%rbp)
    47c1:	89 75 f8             	mov    %esi,-0x8(%rbp)
    47c4:	83 7d fc 00          	cmpl   $0x0,-0x4(%rbp)
    47c8:	78 1a                	js     47e4 <safe_rshift_func_int32_t_s_s+0x2e>
    47ca:	83 7d f8 00          	cmpl   $0x0,-0x8(%rbp)
    47ce:	78 14                	js     47e4 <safe_rshift_func_int32_t_s_s+0x2e>
    47d0:	83 7d f8 1f          	cmpl   $0x1f,-0x8(%rbp)
    47d4:	7f 0e                	jg     47e4 <safe_rshift_func_int32_t_s_s+0x2e>
    47d6:	8b 45 f8             	mov    -0x8(%rbp),%eax
    47d9:	8b 55 fc             	mov    -0x4(%rbp),%edx
    47dc:	89 c1                	mov    %eax,%ecx
    47de:	d3 fa                	sar    %cl,%edx
    47e0:	89 d0                	mov    %edx,%eax
    47e2:	eb 03                	jmp    47e7 <safe_rshift_func_int32_t_s_s+0x31>
    47e4:	8b 45 fc             	mov    -0x4(%rbp),%eax
    47e7:	5d                   	pop    %rbp
    47e8:	c3                   	retq   

00000000000047e9 <safe_rshift_func_int32_t_s_u>:
    47e9:	f3 0f 1e fa          	endbr64 
    47ed:	55                   	push   %rbp
    47ee:	48 89 e5             	mov    %rsp,%rbp
    47f1:	89 7d fc             	mov    %edi,-0x4(%rbp)
    47f4:	89 75 f8             	mov    %esi,-0x8(%rbp)
    47f7:	83 7d fc 00          	cmpl   $0x0,-0x4(%rbp)
    47fb:	78 14                	js     4811 <safe_rshift_func_int32_t_s_u+0x28>
    47fd:	83 7d f8 1f          	cmpl   $0x1f,-0x8(%rbp)
    4801:	77 0e                	ja     4811 <safe_rshift_func_int32_t_s_u+0x28>
    4803:	8b 45 f8             	mov    -0x8(%rbp),%eax
    4806:	8b 55 fc             	mov    -0x4(%rbp),%edx
    4809:	89 c1                	mov    %eax,%ecx
    480b:	d3 fa                	sar    %cl,%edx
    480d:	89 d0                	mov    %edx,%eax
    480f:	eb 03                	jmp    4814 <safe_rshift_func_int32_t_s_u+0x2b>
    4811:	8b 45 fc             	mov    -0x4(%rbp),%eax
    4814:	5d                   	pop    %rbp
    4815:	c3                   	retq   

0000000000004816 <safe_unary_minus_func_int64_t_s>:
    4816:	f3 0f 1e fa          	endbr64 
    481a:	55                   	push   %rbp
    481b:	48 89 e5             	mov    %rsp,%rbp
    481e:	48 89 7d f8          	mov    %rdi,-0x8(%rbp)
    4822:	48 b8 00 00 00 00 00 	movabs $0x8000000000000000,%rax
    4829:	00 00 80 
    482c:	48 39 45 f8          	cmp    %rax,-0x8(%rbp)
    4830:	74 09                	je     483b <safe_unary_minus_func_int64_t_s+0x25>
    4832:	48 8b 45 f8          	mov    -0x8(%rbp),%rax
    4836:	48 f7 d8             	neg    %rax
    4839:	eb 04                	jmp    483f <safe_unary_minus_func_int64_t_s+0x29>
    483b:	48 8b 45 f8          	mov    -0x8(%rbp),%rax
    483f:	5d                   	pop    %rbp
    4840:	c3                   	retq   

0000000000004841 <safe_add_func_int64_t_s_s>:
    4841:	f3 0f 1e fa          	endbr64 
    4845:	55                   	push   %rbp
    4846:	48 89 e5             	mov    %rsp,%rbp
    4849:	48 89 7d f8          	mov    %rdi,-0x8(%rbp)
    484d:	48 89 75 f0          	mov    %rsi,-0x10(%rbp)
    4851:	48 83 7d f8 00       	cmpq   $0x0,-0x8(%rbp)
    4856:	7e 1b                	jle    4873 <safe_add_func_int64_t_s_s+0x32>
    4858:	48 83 7d f0 00       	cmpq   $0x0,-0x10(%rbp)
    485d:	7e 14                	jle    4873 <safe_add_func_int64_t_s_s+0x32>
    485f:	48 b8 ff ff ff ff ff 	movabs $0x7fffffffffffffff,%rax
    4866:	ff ff 7f 
    4869:	48 2b 45 f0          	sub    -0x10(%rbp),%rax
    486d:	48 39 45 f8          	cmp    %rax,-0x8(%rbp)
    4871:	7f 2f                	jg     48a2 <safe_add_func_int64_t_s_s+0x61>
    4873:	48 83 7d f8 00       	cmpq   $0x0,-0x8(%rbp)
    4878:	79 1b                	jns    4895 <safe_add_func_int64_t_s_s+0x54>
    487a:	48 83 7d f0 00       	cmpq   $0x0,-0x10(%rbp)
    487f:	79 14                	jns    4895 <safe_add_func_int64_t_s_s+0x54>
    4881:	48 b8 00 00 00 00 00 	movabs $0x8000000000000000,%rax
    4888:	00 00 80 
    488b:	48 2b 45 f0          	sub    -0x10(%rbp),%rax
    488f:	48 39 45 f8          	cmp    %rax,-0x8(%rbp)
    4893:	7c 0d                	jl     48a2 <safe_add_func_int64_t_s_s+0x61>
    4895:	48 8b 55 f8          	mov    -0x8(%rbp),%rdx
    4899:	48 8b 45 f0          	mov    -0x10(%rbp),%rax
    489d:	48 01 d0             	add    %rdx,%rax
    48a0:	eb 04                	jmp    48a6 <safe_add_func_int64_t_s_s+0x65>
    48a2:	48 8b 45 f8          	mov    -0x8(%rbp),%rax
    48a6:	5d                   	pop    %rbp
    48a7:	c3                   	retq   

00000000000048a8 <safe_sub_func_int64_t_s_s>:
    48a8:	f3 0f 1e fa          	endbr64 
    48ac:	55                   	push   %rbp
    48ad:	48 89 e5             	mov    %rsp,%rbp
    48b0:	48 89 7d f8          	mov    %rdi,-0x8(%rbp)
    48b4:	48 89 75 f0          	mov    %rsi,-0x10(%rbp)
    48b8:	48 8b 45 f8          	mov    -0x8(%rbp),%rax
    48bc:	48 33 45 f0          	xor    -0x10(%rbp),%rax
    48c0:	48 89 c2             	mov    %rax,%rdx
    48c3:	48 8b 45 f8          	mov    -0x8(%rbp),%rax
    48c7:	48 33 45 f0          	xor    -0x10(%rbp),%rax
    48cb:	48 b9 00 00 00 00 00 	movabs $0x8000000000000000,%rcx
    48d2:	00 00 80 
    48d5:	48 21 c8             	and    %rcx,%rax
    48d8:	48 33 45 f8          	xor    -0x8(%rbp),%rax
    48dc:	48 2b 45 f0          	sub    -0x10(%rbp),%rax
    48e0:	48 33 45 f0          	xor    -0x10(%rbp),%rax
    48e4:	48 21 d0             	and    %rdx,%rax
    48e7:	48 85 c0             	test   %rax,%rax
    48ea:	78 0a                	js     48f6 <safe_sub_func_int64_t_s_s+0x4e>
    48ec:	48 8b 45 f8          	mov    -0x8(%rbp),%rax
    48f0:	48 2b 45 f0          	sub    -0x10(%rbp),%rax
    48f4:	eb 04                	jmp    48fa <safe_sub_func_int64_t_s_s+0x52>
    48f6:	48 8b 45 f8          	mov    -0x8(%rbp),%rax
    48fa:	5d                   	pop    %rbp
    48fb:	c3                   	retq   

00000000000048fc <safe_mul_func_int64_t_s_s>:
    48fc:	f3 0f 1e fa          	endbr64 
    4900:	55                   	push   %rbp
    4901:	48 89 e5             	mov    %rsp,%rbp
    4904:	48 89 7d f8          	mov    %rdi,-0x8(%rbp)
    4908:	48 89 75 f0          	mov    %rsi,-0x10(%rbp)
    490c:	48 83 7d f8 00       	cmpq   $0x0,-0x8(%rbp)
    4911:	7e 1d                	jle    4930 <safe_mul_func_int64_t_s_s+0x34>
    4913:	48 83 7d f0 00       	cmpq   $0x0,-0x10(%rbp)
    4918:	7e 16                	jle    4930 <safe_mul_func_int64_t_s_s+0x34>
    491a:	48 b8 ff ff ff ff ff 	movabs $0x7fffffffffffffff,%rax
    4921:	ff ff 7f 
    4924:	48 99                	cqto   
    4926:	48 f7 7d f0          	idivq  -0x10(%rbp)
    492a:	48 39 45 f8          	cmp    %rax,-0x8(%rbp)
    492e:	7f 7e                	jg     49ae <safe_mul_func_int64_t_s_s+0xb2>
    4930:	48 83 7d f8 00       	cmpq   $0x0,-0x8(%rbp)
    4935:	7e 1d                	jle    4954 <safe_mul_func_int64_t_s_s+0x58>
    4937:	48 83 7d f0 00       	cmpq   $0x0,-0x10(%rbp)
    493c:	7f 16                	jg     4954 <safe_mul_func_int64_t_s_s+0x58>
    493e:	48 b8 00 00 00 00 00 	movabs $0x8000000000000000,%rax
    4945:	00 00 80 
    4948:	48 99                	cqto   
    494a:	48 f7 7d f8          	idivq  -0x8(%rbp)
    494e:	48 39 45 f0          	cmp    %rax,-0x10(%rbp)
    4952:	7c 5a                	jl     49ae <safe_mul_func_int64_t_s_s+0xb2>
    4954:	48 83 7d f8 00       	cmpq   $0x0,-0x8(%rbp)
    4959:	7f 1d                	jg     4978 <safe_mul_func_int64_t_s_s+0x7c>
    495b:	48 83 7d f0 00       	cmpq   $0x0,-0x10(%rbp)
    4960:	7e 16                	jle    4978 <safe_mul_func_int64_t_s_s+0x7c>
    4962:	48 b8 00 00 00 00 00 	movabs $0x8000000000000000,%rax
    4969:	00 00 80 
    496c:	48 99                	cqto   
    496e:	48 f7 7d f0          	idivq  -0x10(%rbp)
    4972:	48 39 45 f8          	cmp    %rax,-0x8(%rbp)
    4976:	7c 36                	jl     49ae <safe_mul_func_int64_t_s_s+0xb2>
    4978:	48 83 7d f8 00       	cmpq   $0x0,-0x8(%rbp)
    497d:	7f 24                	jg     49a3 <safe_mul_func_int64_t_s_s+0xa7>
    497f:	48 83 7d f0 00       	cmpq   $0x0,-0x10(%rbp)
    4984:	7f 1d                	jg     49a3 <safe_mul_func_int64_t_s_s+0xa7>
    4986:	48 83 7d f8 00       	cmpq   $0x0,-0x8(%rbp)
    498b:	74 16                	je     49a3 <safe_mul_func_int64_t_s_s+0xa7>
    498d:	48 b8 ff ff ff ff ff 	movabs $0x7fffffffffffffff,%rax
    4994:	ff ff 7f 
    4997:	48 99                	cqto   
    4999:	48 f7 7d f8          	idivq  -0x8(%rbp)
    499d:	48 39 45 f0          	cmp    %rax,-0x10(%rbp)
    49a1:	7c 0b                	jl     49ae <safe_mul_func_int64_t_s_s+0xb2>
    49a3:	48 8b 45 f8          	mov    -0x8(%rbp),%rax
    49a7:	48 0f af 45 f0       	imul   -0x10(%rbp),%rax
    49ac:	eb 04                	jmp    49b2 <safe_mul_func_int64_t_s_s+0xb6>
    49ae:	48 8b 45 f8          	mov    -0x8(%rbp),%rax
    49b2:	5d                   	pop    %rbp
    49b3:	c3                   	retq   

00000000000049b4 <safe_mod_func_int64_t_s_s>:
    49b4:	f3 0f 1e fa          	endbr64 
    49b8:	55                   	push   %rbp
    49b9:	48 89 e5             	mov    %rsp,%rbp
    49bc:	48 89 7d f8          	mov    %rdi,-0x8(%rbp)
    49c0:	48 89 75 f0          	mov    %rsi,-0x10(%rbp)
    49c4:	48 83 7d f0 00       	cmpq   $0x0,-0x10(%rbp)
    49c9:	74 26                	je     49f1 <safe_mod_func_int64_t_s_s+0x3d>
    49cb:	48 b8 00 00 00 00 00 	movabs $0x8000000000000000,%rax
    49d2:	00 00 80 
    49d5:	48 39 45 f8          	cmp    %rax,-0x8(%rbp)
    49d9:	75 07                	jne    49e2 <safe_mod_func_int64_t_s_s+0x2e>
    49db:	48 83 7d f0 ff       	cmpq   $0xffffffffffffffff,-0x10(%rbp)
    49e0:	74 0f                	je     49f1 <safe_mod_func_int64_t_s_s+0x3d>
    49e2:	48 8b 45 f8          	mov    -0x8(%rbp),%rax
    49e6:	48 99                	cqto   
    49e8:	48 f7 7d f0          	idivq  -0x10(%rbp)
    49ec:	48 89 d0             	mov    %rdx,%rax
    49ef:	eb 04                	jmp    49f5 <safe_mod_func_int64_t_s_s+0x41>
    49f1:	48 8b 45 f8          	mov    -0x8(%rbp),%rax
    49f5:	5d                   	pop    %rbp
    49f6:	c3                   	retq   

00000000000049f7 <safe_div_func_int64_t_s_s>:
    49f7:	f3 0f 1e fa          	endbr64 
    49fb:	55                   	push   %rbp
    49fc:	48 89 e5             	mov    %rsp,%rbp
    49ff:	48 89 7d f8          	mov    %rdi,-0x8(%rbp)
    4a03:	48 89 75 f0          	mov    %rsi,-0x10(%rbp)
    4a07:	48 83 7d f0 00       	cmpq   $0x0,-0x10(%rbp)
    4a0c:	74 23                	je     4a31 <safe_div_func_int64_t_s_s+0x3a>
    4a0e:	48 b8 00 00 00 00 00 	movabs $0x8000000000000000,%rax
    4a15:	00 00 80 
    4a18:	48 39 45 f8          	cmp    %rax,-0x8(%rbp)
    4a1c:	75 07                	jne    4a25 <safe_div_func_int64_t_s_s+0x2e>
    4a1e:	48 83 7d f0 ff       	cmpq   $0xffffffffffffffff,-0x10(%rbp)
    4a23:	74 0c                	je     4a31 <safe_div_func_int64_t_s_s+0x3a>
    4a25:	48 8b 45 f8          	mov    -0x8(%rbp),%rax
    4a29:	48 99                	cqto   
    4a2b:	48 f7 7d f0          	idivq  -0x10(%rbp)
    4a2f:	eb 04                	jmp    4a35 <safe_div_func_int64_t_s_s+0x3e>
    4a31:	48 8b 45 f8          	mov    -0x8(%rbp),%rax
    4a35:	5d                   	pop    %rbp
    4a36:	c3                   	retq   

0000000000004a37 <safe_lshift_func_int64_t_s_s>:
    4a37:	f3 0f 1e fa          	endbr64 
    4a3b:	55                   	push   %rbp
    4a3c:	48 89 e5             	mov    %rsp,%rbp
    4a3f:	48 89 7d f8          	mov    %rdi,-0x8(%rbp)
    4a43:	89 75 f4             	mov    %esi,-0xc(%rbp)
    4a46:	48 83 7d f8 00       	cmpq   $0x0,-0x8(%rbp)
    4a4b:	78 38                	js     4a85 <safe_lshift_func_int64_t_s_s+0x4e>
    4a4d:	83 7d f4 00          	cmpl   $0x0,-0xc(%rbp)
    4a51:	78 32                	js     4a85 <safe_lshift_func_int64_t_s_s+0x4e>
    4a53:	83 7d f4 1f          	cmpl   $0x1f,-0xc(%rbp)
    4a57:	7f 2c                	jg     4a85 <safe_lshift_func_int64_t_s_s+0x4e>
    4a59:	8b 45 f4             	mov    -0xc(%rbp),%eax
    4a5c:	48 ba ff ff ff ff ff 	movabs $0x7fffffffffffffff,%rdx
    4a63:	ff ff 7f 
    4a66:	89 c1                	mov    %eax,%ecx
    4a68:	48 d3 fa             	sar    %cl,%rdx
    4a6b:	48 89 d0             	mov    %rdx,%rax
    4a6e:	48 39 45 f8          	cmp    %rax,-0x8(%rbp)
    4a72:	7f 11                	jg     4a85 <safe_lshift_func_int64_t_s_s+0x4e>
    4a74:	8b 45 f4             	mov    -0xc(%rbp),%eax
    4a77:	48 8b 55 f8          	mov    -0x8(%rbp),%rdx
    4a7b:	89 c1                	mov    %eax,%ecx
    4a7d:	48 d3 e2             	shl    %cl,%rdx
    4a80:	48 89 d0             	mov    %rdx,%rax
    4a83:	eb 04                	jmp    4a89 <safe_lshift_func_int64_t_s_s+0x52>
    4a85:	48 8b 45 f8          	mov    -0x8(%rbp),%rax
    4a89:	5d                   	pop    %rbp
    4a8a:	c3                   	retq   

0000000000004a8b <safe_lshift_func_int64_t_s_u>:
    4a8b:	f3 0f 1e fa          	endbr64 
    4a8f:	55                   	push   %rbp
    4a90:	48 89 e5             	mov    %rsp,%rbp
    4a93:	48 89 7d f8          	mov    %rdi,-0x8(%rbp)
    4a97:	89 75 f4             	mov    %esi,-0xc(%rbp)
    4a9a:	48 83 7d f8 00       	cmpq   $0x0,-0x8(%rbp)
    4a9f:	78 32                	js     4ad3 <safe_lshift_func_int64_t_s_u+0x48>
    4aa1:	83 7d f4 1f          	cmpl   $0x1f,-0xc(%rbp)
    4aa5:	77 2c                	ja     4ad3 <safe_lshift_func_int64_t_s_u+0x48>
    4aa7:	8b 45 f4             	mov    -0xc(%rbp),%eax
    4aaa:	48 ba ff ff ff ff ff 	movabs $0x7fffffffffffffff,%rdx
    4ab1:	ff ff 7f 
    4ab4:	89 c1                	mov    %eax,%ecx
    4ab6:	48 d3 fa             	sar    %cl,%rdx
    4ab9:	48 89 d0             	mov    %rdx,%rax
    4abc:	48 39 45 f8          	cmp    %rax,-0x8(%rbp)
    4ac0:	7f 11                	jg     4ad3 <safe_lshift_func_int64_t_s_u+0x48>
    4ac2:	8b 45 f4             	mov    -0xc(%rbp),%eax
    4ac5:	48 8b 55 f8          	mov    -0x8(%rbp),%rdx
    4ac9:	89 c1                	mov    %eax,%ecx
    4acb:	48 d3 e2             	shl    %cl,%rdx
    4ace:	48 89 d0             	mov    %rdx,%rax
    4ad1:	eb 04                	jmp    4ad7 <safe_lshift_func_int64_t_s_u+0x4c>
    4ad3:	48 8b 45 f8          	mov    -0x8(%rbp),%rax
    4ad7:	5d                   	pop    %rbp
    4ad8:	c3                   	retq   

0000000000004ad9 <safe_rshift_func_int64_t_s_s>:
    4ad9:	f3 0f 1e fa          	endbr64 
    4add:	55                   	push   %rbp
    4ade:	48 89 e5             	mov    %rsp,%rbp
    4ae1:	48 89 7d f8          	mov    %rdi,-0x8(%rbp)
    4ae5:	89 75 f4             	mov    %esi,-0xc(%rbp)
    4ae8:	48 83 7d f8 00       	cmpq   $0x0,-0x8(%rbp)
    4aed:	78 1d                	js     4b0c <safe_rshift_func_int64_t_s_s+0x33>
    4aef:	83 7d f4 00          	cmpl   $0x0,-0xc(%rbp)
    4af3:	78 17                	js     4b0c <safe_rshift_func_int64_t_s_s+0x33>
    4af5:	83 7d f4 1f          	cmpl   $0x1f,-0xc(%rbp)
    4af9:	7f 11                	jg     4b0c <safe_rshift_func_int64_t_s_s+0x33>
    4afb:	8b 45 f4             	mov    -0xc(%rbp),%eax
    4afe:	48 8b 55 f8          	mov    -0x8(%rbp),%rdx
    4b02:	89 c1                	mov    %eax,%ecx
    4b04:	48 d3 fa             	sar    %cl,%rdx
    4b07:	48 89 d0             	mov    %rdx,%rax
    4b0a:	eb 04                	jmp    4b10 <safe_rshift_func_int64_t_s_s+0x37>
    4b0c:	48 8b 45 f8          	mov    -0x8(%rbp),%rax
    4b10:	5d                   	pop    %rbp
    4b11:	c3                   	retq   

0000000000004b12 <safe_rshift_func_int64_t_s_u>:
    4b12:	f3 0f 1e fa          	endbr64 
    4b16:	55                   	push   %rbp
    4b17:	48 89 e5             	mov    %rsp,%rbp
    4b1a:	48 89 7d f8          	mov    %rdi,-0x8(%rbp)
    4b1e:	89 75 f4             	mov    %esi,-0xc(%rbp)
    4b21:	48 83 7d f8 00       	cmpq   $0x0,-0x8(%rbp)
    4b26:	78 17                	js     4b3f <safe_rshift_func_int64_t_s_u+0x2d>
    4b28:	83 7d f4 1f          	cmpl   $0x1f,-0xc(%rbp)
    4b2c:	77 11                	ja     4b3f <safe_rshift_func_int64_t_s_u+0x2d>
    4b2e:	8b 45 f4             	mov    -0xc(%rbp),%eax
    4b31:	48 8b 55 f8          	mov    -0x8(%rbp),%rdx
    4b35:	89 c1                	mov    %eax,%ecx
    4b37:	48 d3 fa             	sar    %cl,%rdx
    4b3a:	48 89 d0             	mov    %rdx,%rax
    4b3d:	eb 04                	jmp    4b43 <safe_rshift_func_int64_t_s_u+0x31>
    4b3f:	48 8b 45 f8          	mov    -0x8(%rbp),%rax
    4b43:	5d                   	pop    %rbp
    4b44:	c3                   	retq   

0000000000004b45 <safe_unary_minus_func_uint8_t_u>:
    4b45:	f3 0f 1e fa          	endbr64 
    4b49:	55                   	push   %rbp
    4b4a:	48 89 e5             	mov    %rsp,%rbp
    4b4d:	89 f8                	mov    %edi,%eax
    4b4f:	88 45 fc             	mov    %al,-0x4(%rbp)
    4b52:	0f b6 45 fc          	movzbl -0x4(%rbp),%eax
    4b56:	f7 d8                	neg    %eax
    4b58:	5d                   	pop    %rbp
    4b59:	c3                   	retq   

0000000000004b5a <safe_add_func_uint8_t_u_u>:
    4b5a:	f3 0f 1e fa          	endbr64 
    4b5e:	55                   	push   %rbp
    4b5f:	48 89 e5             	mov    %rsp,%rbp
    4b62:	89 fa                	mov    %edi,%edx
    4b64:	89 f0                	mov    %esi,%eax
    4b66:	88 55 fc             	mov    %dl,-0x4(%rbp)
    4b69:	88 45 f8             	mov    %al,-0x8(%rbp)
    4b6c:	0f b6 55 fc          	movzbl -0x4(%rbp),%edx
    4b70:	0f b6 45 f8          	movzbl -0x8(%rbp),%eax
    4b74:	01 d0                	add    %edx,%eax
    4b76:	5d                   	pop    %rbp
    4b77:	c3                   	retq   

0000000000004b78 <safe_sub_func_uint8_t_u_u>:
    4b78:	f3 0f 1e fa          	endbr64 
    4b7c:	55                   	push   %rbp
    4b7d:	48 89 e5             	mov    %rsp,%rbp
    4b80:	89 fa                	mov    %edi,%edx
    4b82:	89 f0                	mov    %esi,%eax
    4b84:	88 55 fc             	mov    %dl,-0x4(%rbp)
    4b87:	88 45 f8             	mov    %al,-0x8(%rbp)
    4b8a:	0f b6 45 fc          	movzbl -0x4(%rbp),%eax
    4b8e:	2a 45 f8             	sub    -0x8(%rbp),%al
    4b91:	5d                   	pop    %rbp
    4b92:	c3                   	retq   

0000000000004b93 <safe_mul_func_uint8_t_u_u>:
    4b93:	f3 0f 1e fa          	endbr64 
    4b97:	55                   	push   %rbp
    4b98:	48 89 e5             	mov    %rsp,%rbp
    4b9b:	89 fa                	mov    %edi,%edx
    4b9d:	89 f0                	mov    %esi,%eax
    4b9f:	88 55 fc             	mov    %dl,-0x4(%rbp)
    4ba2:	88 45 f8             	mov    %al,-0x8(%rbp)
    4ba5:	0f b6 45 fc          	movzbl -0x4(%rbp),%eax
    4ba9:	f6 65 f8             	mulb   -0x8(%rbp)
    4bac:	5d                   	pop    %rbp
    4bad:	c3                   	retq   

0000000000004bae <safe_mod_func_uint8_t_u_u>:
    4bae:	f3 0f 1e fa          	endbr64 
    4bb2:	55                   	push   %rbp
    4bb3:	48 89 e5             	mov    %rsp,%rbp
    4bb6:	89 fa                	mov    %edi,%edx
    4bb8:	89 f0                	mov    %esi,%eax
    4bba:	88 55 fc             	mov    %dl,-0x4(%rbp)
    4bbd:	88 45 f8             	mov    %al,-0x8(%rbp)
    4bc0:	80 7d f8 00          	cmpb   $0x0,-0x8(%rbp)
    4bc4:	74 0f                	je     4bd5 <safe_mod_func_uint8_t_u_u+0x27>
    4bc6:	0f b6 45 fc          	movzbl -0x4(%rbp),%eax
    4bca:	0f b6 c0             	movzbl %al,%eax
    4bcd:	f6 75 f8             	divb   -0x8(%rbp)
    4bd0:	0f b6 c4             	movzbl %ah,%eax
    4bd3:	eb 04                	jmp    4bd9 <safe_mod_func_uint8_t_u_u+0x2b>
    4bd5:	0f b6 45 fc          	movzbl -0x4(%rbp),%eax
    4bd9:	5d                   	pop    %rbp
    4bda:	c3                   	retq   

0000000000004bdb <safe_div_func_uint8_t_u_u>:
    4bdb:	f3 0f 1e fa          	endbr64 
    4bdf:	55                   	push   %rbp
    4be0:	48 89 e5             	mov    %rsp,%rbp
    4be3:	89 fa                	mov    %edi,%edx
    4be5:	89 f0                	mov    %esi,%eax
    4be7:	88 55 fc             	mov    %dl,-0x4(%rbp)
    4bea:	88 45 f8             	mov    %al,-0x8(%rbp)
    4bed:	80 7d f8 00          	cmpb   $0x0,-0x8(%rbp)
    4bf1:	74 0c                	je     4bff <safe_div_func_uint8_t_u_u+0x24>
    4bf3:	0f b6 45 fc          	movzbl -0x4(%rbp),%eax
    4bf7:	0f b6 c0             	movzbl %al,%eax
    4bfa:	f6 75 f8             	divb   -0x8(%rbp)
    4bfd:	eb 04                	jmp    4c03 <safe_div_func_uint8_t_u_u+0x28>
    4bff:	0f b6 45 fc          	movzbl -0x4(%rbp),%eax
    4c03:	5d                   	pop    %rbp
    4c04:	c3                   	retq   

0000000000004c05 <safe_lshift_func_uint8_t_u_s>:
    4c05:	f3 0f 1e fa          	endbr64 
    4c09:	55                   	push   %rbp
    4c0a:	48 89 e5             	mov    %rsp,%rbp
    4c0d:	89 f8                	mov    %edi,%eax
    4c0f:	89 75 f8             	mov    %esi,-0x8(%rbp)
    4c12:	88 45 fc             	mov    %al,-0x4(%rbp)
    4c15:	83 7d f8 00          	cmpl   $0x0,-0x8(%rbp)
    4c19:	78 2b                	js     4c46 <safe_lshift_func_uint8_t_u_s+0x41>
    4c1b:	83 7d f8 1f          	cmpl   $0x1f,-0x8(%rbp)
    4c1f:	7f 25                	jg     4c46 <safe_lshift_func_uint8_t_u_s+0x41>
    4c21:	0f b6 55 fc          	movzbl -0x4(%rbp),%edx
    4c25:	8b 45 f8             	mov    -0x8(%rbp),%eax
    4c28:	be ff 00 00 00       	mov    $0xff,%esi
    4c2d:	89 c1                	mov    %eax,%ecx
    4c2f:	d3 fe                	sar    %cl,%esi
    4c31:	89 f0                	mov    %esi,%eax
    4c33:	39 c2                	cmp    %eax,%edx
    4c35:	7f 0f                	jg     4c46 <safe_lshift_func_uint8_t_u_s+0x41>
    4c37:	0f b6 55 fc          	movzbl -0x4(%rbp),%edx
    4c3b:	8b 45 f8             	mov    -0x8(%rbp),%eax
    4c3e:	89 c1                	mov    %eax,%ecx
    4c40:	d3 e2                	shl    %cl,%edx
    4c42:	89 d0                	mov    %edx,%eax
    4c44:	eb 04                	jmp    4c4a <safe_lshift_func_uint8_t_u_s+0x45>
    4c46:	0f b6 45 fc          	movzbl -0x4(%rbp),%eax
    4c4a:	5d                   	pop    %rbp
    4c4b:	c3                   	retq   

0000000000004c4c <safe_lshift_func_uint8_t_u_u>:
    4c4c:	f3 0f 1e fa          	endbr64 
    4c50:	55                   	push   %rbp
    4c51:	48 89 e5             	mov    %rsp,%rbp
    4c54:	89 f8                	mov    %edi,%eax
    4c56:	89 75 f8             	mov    %esi,-0x8(%rbp)
    4c59:	88 45 fc             	mov    %al,-0x4(%rbp)
    4c5c:	83 7d f8 1f          	cmpl   $0x1f,-0x8(%rbp)
    4c60:	77 25                	ja     4c87 <safe_lshift_func_uint8_t_u_u+0x3b>
    4c62:	0f b6 55 fc          	movzbl -0x4(%rbp),%edx
    4c66:	8b 45 f8             	mov    -0x8(%rbp),%eax
    4c69:	be ff 00 00 00       	mov    $0xff,%esi
    4c6e:	89 c1                	mov    %eax,%ecx
    4c70:	d3 fe                	sar    %cl,%esi
    4c72:	89 f0                	mov    %esi,%eax
    4c74:	39 c2                	cmp    %eax,%edx
    4c76:	7f 0f                	jg     4c87 <safe_lshift_func_uint8_t_u_u+0x3b>
    4c78:	0f b6 55 fc          	movzbl -0x4(%rbp),%edx
    4c7c:	8b 45 f8             	mov    -0x8(%rbp),%eax
    4c7f:	89 c1                	mov    %eax,%ecx
    4c81:	d3 e2                	shl    %cl,%edx
    4c83:	89 d0                	mov    %edx,%eax
    4c85:	eb 04                	jmp    4c8b <safe_lshift_func_uint8_t_u_u+0x3f>
    4c87:	0f b6 45 fc          	movzbl -0x4(%rbp),%eax
    4c8b:	5d                   	pop    %rbp
    4c8c:	c3                   	retq   

0000000000004c8d <safe_rshift_func_uint8_t_u_s>:
    4c8d:	f3 0f 1e fa          	endbr64 
    4c91:	55                   	push   %rbp
    4c92:	48 89 e5             	mov    %rsp,%rbp
    4c95:	89 f8                	mov    %edi,%eax
    4c97:	89 75 f8             	mov    %esi,-0x8(%rbp)
    4c9a:	88 45 fc             	mov    %al,-0x4(%rbp)
    4c9d:	83 7d f8 00          	cmpl   $0x0,-0x8(%rbp)
    4ca1:	78 15                	js     4cb8 <safe_rshift_func_uint8_t_u_s+0x2b>
    4ca3:	83 7d f8 1f          	cmpl   $0x1f,-0x8(%rbp)
    4ca7:	7f 0f                	jg     4cb8 <safe_rshift_func_uint8_t_u_s+0x2b>
    4ca9:	0f b6 55 fc          	movzbl -0x4(%rbp),%edx
    4cad:	8b 45 f8             	mov    -0x8(%rbp),%eax
    4cb0:	89 c1                	mov    %eax,%ecx
    4cb2:	d3 fa                	sar    %cl,%edx
    4cb4:	89 d0                	mov    %edx,%eax
    4cb6:	eb 04                	jmp    4cbc <safe_rshift_func_uint8_t_u_s+0x2f>
    4cb8:	0f b6 45 fc          	movzbl -0x4(%rbp),%eax
    4cbc:	5d                   	pop    %rbp
    4cbd:	c3                   	retq   

0000000000004cbe <safe_rshift_func_uint8_t_u_u>:
    4cbe:	f3 0f 1e fa          	endbr64 
    4cc2:	55                   	push   %rbp
    4cc3:	48 89 e5             	mov    %rsp,%rbp
    4cc6:	89 f8                	mov    %edi,%eax
    4cc8:	89 75 f8             	mov    %esi,-0x8(%rbp)
    4ccb:	88 45 fc             	mov    %al,-0x4(%rbp)
    4cce:	83 7d f8 1f          	cmpl   $0x1f,-0x8(%rbp)
    4cd2:	77 0f                	ja     4ce3 <safe_rshift_func_uint8_t_u_u+0x25>
    4cd4:	0f b6 55 fc          	movzbl -0x4(%rbp),%edx
    4cd8:	8b 45 f8             	mov    -0x8(%rbp),%eax
    4cdb:	89 c1                	mov    %eax,%ecx
    4cdd:	d3 fa                	sar    %cl,%edx
    4cdf:	89 d0                	mov    %edx,%eax
    4ce1:	eb 04                	jmp    4ce7 <safe_rshift_func_uint8_t_u_u+0x29>
    4ce3:	0f b6 45 fc          	movzbl -0x4(%rbp),%eax
    4ce7:	5d                   	pop    %rbp
    4ce8:	c3                   	retq   

0000000000004ce9 <safe_unary_minus_func_uint16_t_u>:
    4ce9:	f3 0f 1e fa          	endbr64 
    4ced:	55                   	push   %rbp
    4cee:	48 89 e5             	mov    %rsp,%rbp
    4cf1:	89 f8                	mov    %edi,%eax
    4cf3:	66 89 45 fc          	mov    %ax,-0x4(%rbp)
    4cf7:	0f b7 45 fc          	movzwl -0x4(%rbp),%eax
    4cfb:	f7 d8                	neg    %eax
    4cfd:	5d                   	pop    %rbp
    4cfe:	c3                   	retq   

0000000000004cff <safe_add_func_uint16_t_u_u>:
    4cff:	f3 0f 1e fa          	endbr64 
    4d03:	55                   	push   %rbp
    4d04:	48 89 e5             	mov    %rsp,%rbp
    4d07:	89 fa                	mov    %edi,%edx
    4d09:	89 f0                	mov    %esi,%eax
    4d0b:	66 89 55 fc          	mov    %dx,-0x4(%rbp)
    4d0f:	66 89 45 f8          	mov    %ax,-0x8(%rbp)
    4d13:	0f b7 55 fc          	movzwl -0x4(%rbp),%edx
    4d17:	0f b7 45 f8          	movzwl -0x8(%rbp),%eax
    4d1b:	01 d0                	add    %edx,%eax
    4d1d:	5d                   	pop    %rbp
    4d1e:	c3                   	retq   

0000000000004d1f <safe_sub_func_uint16_t_u_u>:
    4d1f:	f3 0f 1e fa          	endbr64 
    4d23:	55                   	push   %rbp
    4d24:	48 89 e5             	mov    %rsp,%rbp
    4d27:	89 fa                	mov    %edi,%edx
    4d29:	89 f0                	mov    %esi,%eax
    4d2b:	66 89 55 fc          	mov    %dx,-0x4(%rbp)
    4d2f:	66 89 45 f8          	mov    %ax,-0x8(%rbp)
    4d33:	0f b7 45 fc          	movzwl -0x4(%rbp),%eax
    4d37:	66 2b 45 f8          	sub    -0x8(%rbp),%ax
    4d3b:	5d                   	pop    %rbp
    4d3c:	c3                   	retq   

0000000000004d3d <safe_mul_func_uint16_t_u_u>:
    4d3d:	f3 0f 1e fa          	endbr64 
    4d41:	55                   	push   %rbp
    4d42:	48 89 e5             	mov    %rsp,%rbp
    4d45:	89 fa                	mov    %edi,%edx
    4d47:	89 f0                	mov    %esi,%eax
    4d49:	66 89 55 fc          	mov    %dx,-0x4(%rbp)
    4d4d:	66 89 45 f8          	mov    %ax,-0x8(%rbp)
    4d51:	0f b7 45 fc          	movzwl -0x4(%rbp),%eax
    4d55:	66 0f af 45 f8       	imul   -0x8(%rbp),%ax
    4d5a:	5d                   	pop    %rbp
    4d5b:	c3                   	retq   

0000000000004d5c <safe_mod_func_uint16_t_u_u>:
    4d5c:	f3 0f 1e fa          	endbr64 
    4d60:	55                   	push   %rbp
    4d61:	48 89 e5             	mov    %rsp,%rbp
    4d64:	89 fa                	mov    %edi,%edx
    4d66:	89 f0                	mov    %esi,%eax
    4d68:	66 89 55 fc          	mov    %dx,-0x4(%rbp)
    4d6c:	66 89 45 f8          	mov    %ax,-0x8(%rbp)
    4d70:	66 83 7d f8 00       	cmpw   $0x0,-0x8(%rbp)
    4d75:	74 11                	je     4d88 <safe_mod_func_uint16_t_u_u+0x2c>
    4d77:	0f b7 45 fc          	movzwl -0x4(%rbp),%eax
    4d7b:	ba 00 00 00 00       	mov    $0x0,%edx
    4d80:	66 f7 75 f8          	divw   -0x8(%rbp)
    4d84:	89 d0                	mov    %edx,%eax
    4d86:	eb 04                	jmp    4d8c <safe_mod_func_uint16_t_u_u+0x30>
    4d88:	0f b7 45 fc          	movzwl -0x4(%rbp),%eax
    4d8c:	5d                   	pop    %rbp
    4d8d:	c3                   	retq   

0000000000004d8e <safe_div_func_uint16_t_u_u>:
    4d8e:	f3 0f 1e fa          	endbr64 
    4d92:	55                   	push   %rbp
    4d93:	48 89 e5             	mov    %rsp,%rbp
    4d96:	89 fa                	mov    %edi,%edx
    4d98:	89 f0                	mov    %esi,%eax
    4d9a:	66 89 55 fc          	mov    %dx,-0x4(%rbp)
    4d9e:	66 89 45 f8          	mov    %ax,-0x8(%rbp)
    4da2:	66 83 7d f8 00       	cmpw   $0x0,-0x8(%rbp)
    4da7:	74 0f                	je     4db8 <safe_div_func_uint16_t_u_u+0x2a>
    4da9:	0f b7 45 fc          	movzwl -0x4(%rbp),%eax
    4dad:	ba 00 00 00 00       	mov    $0x0,%edx
    4db2:	66 f7 75 f8          	divw   -0x8(%rbp)
    4db6:	eb 04                	jmp    4dbc <safe_div_func_uint16_t_u_u+0x2e>
    4db8:	0f b7 45 fc          	movzwl -0x4(%rbp),%eax
    4dbc:	5d                   	pop    %rbp
    4dbd:	c3                   	retq   

0000000000004dbe <safe_lshift_func_uint16_t_u_s>:
    4dbe:	f3 0f 1e fa          	endbr64 
    4dc2:	55                   	push   %rbp
    4dc3:	48 89 e5             	mov    %rsp,%rbp
    4dc6:	89 f8                	mov    %edi,%eax
    4dc8:	89 75 f8             	mov    %esi,-0x8(%rbp)
    4dcb:	66 89 45 fc          	mov    %ax,-0x4(%rbp)
    4dcf:	83 7d f8 00          	cmpl   $0x0,-0x8(%rbp)
    4dd3:	78 2b                	js     4e00 <safe_lshift_func_uint16_t_u_s+0x42>
    4dd5:	83 7d f8 1f          	cmpl   $0x1f,-0x8(%rbp)
    4dd9:	7f 25                	jg     4e00 <safe_lshift_func_uint16_t_u_s+0x42>
    4ddb:	0f b7 55 fc          	movzwl -0x4(%rbp),%edx
    4ddf:	8b 45 f8             	mov    -0x8(%rbp),%eax
    4de2:	be ff ff 00 00       	mov    $0xffff,%esi
    4de7:	89 c1                	mov    %eax,%ecx
    4de9:	d3 fe                	sar    %cl,%esi
    4deb:	89 f0                	mov    %esi,%eax
    4ded:	39 c2                	cmp    %eax,%edx
    4def:	7f 0f                	jg     4e00 <safe_lshift_func_uint16_t_u_s+0x42>
    4df1:	0f b7 55 fc          	movzwl -0x4(%rbp),%edx
    4df5:	8b 45 f8             	mov    -0x8(%rbp),%eax
    4df8:	89 c1                	mov    %eax,%ecx
    4dfa:	d3 e2                	shl    %cl,%edx
    4dfc:	89 d0                	mov    %edx,%eax
    4dfe:	eb 04                	jmp    4e04 <safe_lshift_func_uint16_t_u_s+0x46>
    4e00:	0f b7 45 fc          	movzwl -0x4(%rbp),%eax
    4e04:	5d                   	pop    %rbp
    4e05:	c3                   	retq   

0000000000004e06 <safe_lshift_func_uint16_t_u_u>:
    4e06:	f3 0f 1e fa          	endbr64 
    4e0a:	55                   	push   %rbp
    4e0b:	48 89 e5             	mov    %rsp,%rbp
    4e0e:	89 f8                	mov    %edi,%eax
    4e10:	89 75 f8             	mov    %esi,-0x8(%rbp)
    4e13:	66 89 45 fc          	mov    %ax,-0x4(%rbp)
    4e17:	83 7d f8 1f          	cmpl   $0x1f,-0x8(%rbp)
    4e1b:	77 25                	ja     4e42 <safe_lshift_func_uint16_t_u_u+0x3c>
    4e1d:	0f b7 55 fc          	movzwl -0x4(%rbp),%edx
    4e21:	8b 45 f8             	mov    -0x8(%rbp),%eax
    4e24:	be ff ff 00 00       	mov    $0xffff,%esi
    4e29:	89 c1                	mov    %eax,%ecx
    4e2b:	d3 fe                	sar    %cl,%esi
    4e2d:	89 f0                	mov    %esi,%eax
    4e2f:	39 c2                	cmp    %eax,%edx
    4e31:	7f 0f                	jg     4e42 <safe_lshift_func_uint16_t_u_u+0x3c>
    4e33:	0f b7 55 fc          	movzwl -0x4(%rbp),%edx
    4e37:	8b 45 f8             	mov    -0x8(%rbp),%eax
    4e3a:	89 c1                	mov    %eax,%ecx
    4e3c:	d3 e2                	shl    %cl,%edx
    4e3e:	89 d0                	mov    %edx,%eax
    4e40:	eb 04                	jmp    4e46 <safe_lshift_func_uint16_t_u_u+0x40>
    4e42:	0f b7 45 fc          	movzwl -0x4(%rbp),%eax
    4e46:	5d                   	pop    %rbp
    4e47:	c3                   	retq   

0000000000004e48 <safe_rshift_func_uint16_t_u_s>:
    4e48:	f3 0f 1e fa          	endbr64 
    4e4c:	55                   	push   %rbp
    4e4d:	48 89 e5             	mov    %rsp,%rbp
    4e50:	89 f8                	mov    %edi,%eax
    4e52:	89 75 f8             	mov    %esi,-0x8(%rbp)
    4e55:	66 89 45 fc          	mov    %ax,-0x4(%rbp)
    4e59:	83 7d f8 00          	cmpl   $0x0,-0x8(%rbp)
    4e5d:	78 15                	js     4e74 <safe_rshift_func_uint16_t_u_s+0x2c>
    4e5f:	83 7d f8 1f          	cmpl   $0x1f,-0x8(%rbp)
    4e63:	7f 0f                	jg     4e74 <safe_rshift_func_uint16_t_u_s+0x2c>
    4e65:	0f b7 55 fc          	movzwl -0x4(%rbp),%edx
    4e69:	8b 45 f8             	mov    -0x8(%rbp),%eax
    4e6c:	89 c1                	mov    %eax,%ecx
    4e6e:	d3 fa                	sar    %cl,%edx
    4e70:	89 d0                	mov    %edx,%eax
    4e72:	eb 04                	jmp    4e78 <safe_rshift_func_uint16_t_u_s+0x30>
    4e74:	0f b7 45 fc          	movzwl -0x4(%rbp),%eax
    4e78:	5d                   	pop    %rbp
    4e79:	c3                   	retq   

0000000000004e7a <safe_rshift_func_uint16_t_u_u>:
    4e7a:	f3 0f 1e fa          	endbr64 
    4e7e:	55                   	push   %rbp
    4e7f:	48 89 e5             	mov    %rsp,%rbp
    4e82:	89 f8                	mov    %edi,%eax
    4e84:	89 75 f8             	mov    %esi,-0x8(%rbp)
    4e87:	66 89 45 fc          	mov    %ax,-0x4(%rbp)
    4e8b:	83 7d f8 1f          	cmpl   $0x1f,-0x8(%rbp)
    4e8f:	77 0f                	ja     4ea0 <safe_rshift_func_uint16_t_u_u+0x26>
    4e91:	0f b7 55 fc          	movzwl -0x4(%rbp),%edx
    4e95:	8b 45 f8             	mov    -0x8(%rbp),%eax
    4e98:	89 c1                	mov    %eax,%ecx
    4e9a:	d3 fa                	sar    %cl,%edx
    4e9c:	89 d0                	mov    %edx,%eax
    4e9e:	eb 04                	jmp    4ea4 <safe_rshift_func_uint16_t_u_u+0x2a>
    4ea0:	0f b7 45 fc          	movzwl -0x4(%rbp),%eax
    4ea4:	5d                   	pop    %rbp
    4ea5:	c3                   	retq   

0000000000004ea6 <safe_unary_minus_func_uint32_t_u>:
    4ea6:	f3 0f 1e fa          	endbr64 
    4eaa:	55                   	push   %rbp
    4eab:	48 89 e5             	mov    %rsp,%rbp
    4eae:	89 7d fc             	mov    %edi,-0x4(%rbp)
    4eb1:	8b 45 fc             	mov    -0x4(%rbp),%eax
    4eb4:	f7 d8                	neg    %eax
    4eb6:	5d                   	pop    %rbp
    4eb7:	c3                   	retq   

0000000000004eb8 <safe_add_func_uint32_t_u_u>:
    4eb8:	f3 0f 1e fa          	endbr64 
    4ebc:	55                   	push   %rbp
    4ebd:	48 89 e5             	mov    %rsp,%rbp
    4ec0:	89 7d fc             	mov    %edi,-0x4(%rbp)
    4ec3:	89 75 f8             	mov    %esi,-0x8(%rbp)
    4ec6:	8b 55 fc             	mov    -0x4(%rbp),%edx
    4ec9:	8b 45 f8             	mov    -0x8(%rbp),%eax
    4ecc:	01 d0                	add    %edx,%eax
    4ece:	5d                   	pop    %rbp
    4ecf:	c3                   	retq   

0000000000004ed0 <safe_sub_func_uint32_t_u_u>:
    4ed0:	f3 0f 1e fa          	endbr64 
    4ed4:	55                   	push   %rbp
    4ed5:	48 89 e5             	mov    %rsp,%rbp
    4ed8:	89 7d fc             	mov    %edi,-0x4(%rbp)
    4edb:	89 75 f8             	mov    %esi,-0x8(%rbp)
    4ede:	8b 45 fc             	mov    -0x4(%rbp),%eax
    4ee1:	2b 45 f8             	sub    -0x8(%rbp),%eax
    4ee4:	5d                   	pop    %rbp
    4ee5:	c3                   	retq   

0000000000004ee6 <safe_mul_func_uint32_t_u_u>:
    4ee6:	f3 0f 1e fa          	endbr64 
    4eea:	55                   	push   %rbp
    4eeb:	48 89 e5             	mov    %rsp,%rbp
    4eee:	89 7d fc             	mov    %edi,-0x4(%rbp)
    4ef1:	89 75 f8             	mov    %esi,-0x8(%rbp)
    4ef4:	8b 45 fc             	mov    -0x4(%rbp),%eax
    4ef7:	0f af 45 f8          	imul   -0x8(%rbp),%eax
    4efb:	5d                   	pop    %rbp
    4efc:	c3                   	retq   

0000000000004efd <safe_mod_func_uint32_t_u_u>:
    4efd:	f3 0f 1e fa          	endbr64 
    4f01:	55                   	push   %rbp
    4f02:	48 89 e5             	mov    %rsp,%rbp
    4f05:	89 7d fc             	mov    %edi,-0x4(%rbp)
    4f08:	89 75 f8             	mov    %esi,-0x8(%rbp)
    4f0b:	83 7d f8 00          	cmpl   $0x0,-0x8(%rbp)
    4f0f:	74 0f                	je     4f20 <safe_mod_func_uint32_t_u_u+0x23>
    4f11:	8b 45 fc             	mov    -0x4(%rbp),%eax
    4f14:	ba 00 00 00 00       	mov    $0x0,%edx
    4f19:	f7 75 f8             	divl   -0x8(%rbp)
    4f1c:	89 d0                	mov    %edx,%eax
    4f1e:	eb 03                	jmp    4f23 <safe_mod_func_uint32_t_u_u+0x26>
    4f20:	8b 45 fc             	mov    -0x4(%rbp),%eax
    4f23:	5d                   	pop    %rbp
    4f24:	c3                   	retq   

0000000000004f25 <safe_div_func_uint32_t_u_u>:
    4f25:	f3 0f 1e fa          	endbr64 
    4f29:	55                   	push   %rbp
    4f2a:	48 89 e5             	mov    %rsp,%rbp
    4f2d:	89 7d fc             	mov    %edi,-0x4(%rbp)
    4f30:	89 75 f8             	mov    %esi,-0x8(%rbp)
    4f33:	83 7d f8 00          	cmpl   $0x0,-0x8(%rbp)
    4f37:	74 0d                	je     4f46 <safe_div_func_uint32_t_u_u+0x21>
    4f39:	8b 45 fc             	mov    -0x4(%rbp),%eax
    4f3c:	ba 00 00 00 00       	mov    $0x0,%edx
    4f41:	f7 75 f8             	divl   -0x8(%rbp)
    4f44:	eb 03                	jmp    4f49 <safe_div_func_uint32_t_u_u+0x24>
    4f46:	8b 45 fc             	mov    -0x4(%rbp),%eax
    4f49:	5d                   	pop    %rbp
    4f4a:	c3                   	retq   

0000000000004f4b <safe_lshift_func_uint32_t_u_s>:
    4f4b:	f3 0f 1e fa          	endbr64 
    4f4f:	55                   	push   %rbp
    4f50:	48 89 e5             	mov    %rsp,%rbp
    4f53:	89 7d fc             	mov    %edi,-0x4(%rbp)
    4f56:	89 75 f8             	mov    %esi,-0x8(%rbp)
    4f59:	83 7d f8 00          	cmpl   $0x0,-0x8(%rbp)
    4f5d:	78 27                	js     4f86 <safe_lshift_func_uint32_t_u_s+0x3b>
    4f5f:	83 7d f8 1f          	cmpl   $0x1f,-0x8(%rbp)
    4f63:	7f 21                	jg     4f86 <safe_lshift_func_uint32_t_u_s+0x3b>
    4f65:	8b 45 f8             	mov    -0x8(%rbp),%eax
    4f68:	ba ff ff ff ff       	mov    $0xffffffff,%edx
    4f6d:	89 c1                	mov    %eax,%ecx
    4f6f:	d3 ea                	shr    %cl,%edx
    4f71:	89 d0                	mov    %edx,%eax
    4f73:	39 45 fc             	cmp    %eax,-0x4(%rbp)
    4f76:	77 0e                	ja     4f86 <safe_lshift_func_uint32_t_u_s+0x3b>
    4f78:	8b 45 f8             	mov    -0x8(%rbp),%eax
    4f7b:	8b 55 fc             	mov    -0x4(%rbp),%edx
    4f7e:	89 c1                	mov    %eax,%ecx
    4f80:	d3 e2                	shl    %cl,%edx
    4f82:	89 d0                	mov    %edx,%eax
    4f84:	eb 03                	jmp    4f89 <safe_lshift_func_uint32_t_u_s+0x3e>
    4f86:	8b 45 fc             	mov    -0x4(%rbp),%eax
    4f89:	5d                   	pop    %rbp
    4f8a:	c3                   	retq   

0000000000004f8b <safe_lshift_func_uint32_t_u_u>:
    4f8b:	f3 0f 1e fa          	endbr64 
    4f8f:	55                   	push   %rbp
    4f90:	48 89 e5             	mov    %rsp,%rbp
    4f93:	89 7d fc             	mov    %edi,-0x4(%rbp)
    4f96:	89 75 f8             	mov    %esi,-0x8(%rbp)
    4f99:	83 7d f8 1f          	cmpl   $0x1f,-0x8(%rbp)
    4f9d:	77 21                	ja     4fc0 <safe_lshift_func_uint32_t_u_u+0x35>
    4f9f:	8b 45 f8             	mov    -0x8(%rbp),%eax
    4fa2:	ba ff ff ff ff       	mov    $0xffffffff,%edx
    4fa7:	89 c1                	mov    %eax,%ecx
    4fa9:	d3 ea                	shr    %cl,%edx
    4fab:	89 d0                	mov    %edx,%eax
    4fad:	39 45 fc             	cmp    %eax,-0x4(%rbp)
    4fb0:	77 0e                	ja     4fc0 <safe_lshift_func_uint32_t_u_u+0x35>
    4fb2:	8b 45 f8             	mov    -0x8(%rbp),%eax
    4fb5:	8b 55 fc             	mov    -0x4(%rbp),%edx
    4fb8:	89 c1                	mov    %eax,%ecx
    4fba:	d3 e2                	shl    %cl,%edx
    4fbc:	89 d0                	mov    %edx,%eax
    4fbe:	eb 03                	jmp    4fc3 <safe_lshift_func_uint32_t_u_u+0x38>
    4fc0:	8b 45 fc             	mov    -0x4(%rbp),%eax
    4fc3:	5d                   	pop    %rbp
    4fc4:	c3                   	retq   

0000000000004fc5 <safe_rshift_func_uint32_t_u_s>:
    4fc5:	f3 0f 1e fa          	endbr64 
    4fc9:	55                   	push   %rbp
    4fca:	48 89 e5             	mov    %rsp,%rbp
    4fcd:	89 7d fc             	mov    %edi,-0x4(%rbp)
    4fd0:	89 75 f8             	mov    %esi,-0x8(%rbp)
    4fd3:	83 7d f8 00          	cmpl   $0x0,-0x8(%rbp)
    4fd7:	78 14                	js     4fed <safe_rshift_func_uint32_t_u_s+0x28>
    4fd9:	83 7d f8 1f          	cmpl   $0x1f,-0x8(%rbp)
    4fdd:	7f 0e                	jg     4fed <safe_rshift_func_uint32_t_u_s+0x28>
    4fdf:	8b 45 f8             	mov    -0x8(%rbp),%eax
    4fe2:	8b 55 fc             	mov    -0x4(%rbp),%edx
    4fe5:	89 c1                	mov    %eax,%ecx
    4fe7:	d3 ea                	shr    %cl,%edx
    4fe9:	89 d0                	mov    %edx,%eax
    4feb:	eb 03                	jmp    4ff0 <safe_rshift_func_uint32_t_u_s+0x2b>
    4fed:	8b 45 fc             	mov    -0x4(%rbp),%eax
    4ff0:	5d                   	pop    %rbp
    4ff1:	c3                   	retq   

0000000000004ff2 <safe_rshift_func_uint32_t_u_u>:
    4ff2:	f3 0f 1e fa          	endbr64 
    4ff6:	55                   	push   %rbp
    4ff7:	48 89 e5             	mov    %rsp,%rbp
    4ffa:	89 7d fc             	mov    %edi,-0x4(%rbp)
    4ffd:	89 75 f8             	mov    %esi,-0x8(%rbp)
    5000:	83 7d f8 1f          	cmpl   $0x1f,-0x8(%rbp)
    5004:	77 0e                	ja     5014 <safe_rshift_func_uint32_t_u_u+0x22>
    5006:	8b 45 f8             	mov    -0x8(%rbp),%eax
    5009:	8b 55 fc             	mov    -0x4(%rbp),%edx
    500c:	89 c1                	mov    %eax,%ecx
    500e:	d3 ea                	shr    %cl,%edx
    5010:	89 d0                	mov    %edx,%eax
    5012:	eb 03                	jmp    5017 <safe_rshift_func_uint32_t_u_u+0x25>
    5014:	8b 45 fc             	mov    -0x4(%rbp),%eax
    5017:	5d                   	pop    %rbp
    5018:	c3                   	retq   

0000000000005019 <safe_unary_minus_func_uint64_t_u>:
    5019:	f3 0f 1e fa          	endbr64 
    501d:	55                   	push   %rbp
    501e:	48 89 e5             	mov    %rsp,%rbp
    5021:	48 89 7d f8          	mov    %rdi,-0x8(%rbp)
    5025:	48 8b 45 f8          	mov    -0x8(%rbp),%rax
    5029:	48 f7 d8             	neg    %rax
    502c:	5d                   	pop    %rbp
    502d:	c3                   	retq   

000000000000502e <safe_add_func_uint64_t_u_u>:
    502e:	f3 0f 1e fa          	endbr64 
    5032:	55                   	push   %rbp
    5033:	48 89 e5             	mov    %rsp,%rbp
    5036:	48 89 7d f8          	mov    %rdi,-0x8(%rbp)
    503a:	48 89 75 f0          	mov    %rsi,-0x10(%rbp)
    503e:	48 8b 55 f8          	mov    -0x8(%rbp),%rdx
    5042:	48 8b 45 f0          	mov    -0x10(%rbp),%rax
    5046:	48 01 d0             	add    %rdx,%rax
    5049:	5d                   	pop    %rbp
    504a:	c3                   	retq   

000000000000504b <safe_sub_func_uint64_t_u_u>:
    504b:	f3 0f 1e fa          	endbr64 
    504f:	55                   	push   %rbp
    5050:	48 89 e5             	mov    %rsp,%rbp
    5053:	48 89 7d f8          	mov    %rdi,-0x8(%rbp)
    5057:	48 89 75 f0          	mov    %rsi,-0x10(%rbp)
    505b:	48 8b 45 f8          	mov    -0x8(%rbp),%rax
    505f:	48 2b 45 f0          	sub    -0x10(%rbp),%rax
    5063:	5d                   	pop    %rbp
    5064:	c3                   	retq   

0000000000005065 <safe_mul_func_uint64_t_u_u>:
    5065:	f3 0f 1e fa          	endbr64 
    5069:	55                   	push   %rbp
    506a:	48 89 e5             	mov    %rsp,%rbp
    506d:	48 89 7d f8          	mov    %rdi,-0x8(%rbp)
    5071:	48 89 75 f0          	mov    %rsi,-0x10(%rbp)
    5075:	48 8b 45 f8          	mov    -0x8(%rbp),%rax
    5079:	48 0f af 45 f0       	imul   -0x10(%rbp),%rax
    507e:	5d                   	pop    %rbp
    507f:	c3                   	retq   

0000000000005080 <safe_mod_func_uint64_t_u_u>:
    5080:	f3 0f 1e fa          	endbr64 
    5084:	55                   	push   %rbp
    5085:	48 89 e5             	mov    %rsp,%rbp
    5088:	48 89 7d f8          	mov    %rdi,-0x8(%rbp)
    508c:	48 89 75 f0          	mov    %rsi,-0x10(%rbp)
    5090:	48 83 7d f0 00       	cmpq   $0x0,-0x10(%rbp)
    5095:	74 12                	je     50a9 <safe_mod_func_uint64_t_u_u+0x29>
    5097:	48 8b 45 f8          	mov    -0x8(%rbp),%rax
    509b:	ba 00 00 00 00       	mov    $0x0,%edx
    50a0:	48 f7 75 f0          	divq   -0x10(%rbp)
    50a4:	48 89 d0             	mov    %rdx,%rax
    50a7:	eb 04                	jmp    50ad <safe_mod_func_uint64_t_u_u+0x2d>
    50a9:	48 8b 45 f8          	mov    -0x8(%rbp),%rax
    50ad:	5d                   	pop    %rbp
    50ae:	c3                   	retq   

00000000000050af <safe_div_func_uint64_t_u_u>:
    50af:	f3 0f 1e fa          	endbr64 
    50b3:	55                   	push   %rbp
    50b4:	48 89 e5             	mov    %rsp,%rbp
    50b7:	48 89 7d f8          	mov    %rdi,-0x8(%rbp)
    50bb:	48 89 75 f0          	mov    %rsi,-0x10(%rbp)
    50bf:	48 83 7d f0 00       	cmpq   $0x0,-0x10(%rbp)
    50c4:	74 0f                	je     50d5 <safe_div_func_uint64_t_u_u+0x26>
    50c6:	48 8b 45 f8          	mov    -0x8(%rbp),%rax
    50ca:	ba 00 00 00 00       	mov    $0x0,%edx
    50cf:	48 f7 75 f0          	divq   -0x10(%rbp)
    50d3:	eb 04                	jmp    50d9 <safe_div_func_uint64_t_u_u+0x2a>
    50d5:	48 8b 45 f8          	mov    -0x8(%rbp),%rax
    50d9:	5d                   	pop    %rbp
    50da:	c3                   	retq   

00000000000050db <safe_lshift_func_uint64_t_u_s>:
    50db:	f3 0f 1e fa          	endbr64 
    50df:	55                   	push   %rbp
    50e0:	48 89 e5             	mov    %rsp,%rbp
    50e3:	48 89 7d f8          	mov    %rdi,-0x8(%rbp)
    50e7:	89 75 f4             	mov    %esi,-0xc(%rbp)
    50ea:	83 7d f4 00          	cmpl   $0x0,-0xc(%rbp)
    50ee:	78 2f                	js     511f <safe_lshift_func_uint64_t_u_s+0x44>
    50f0:	83 7d f4 1f          	cmpl   $0x1f,-0xc(%rbp)
    50f4:	7f 29                	jg     511f <safe_lshift_func_uint64_t_u_s+0x44>
    50f6:	8b 45 f4             	mov    -0xc(%rbp),%eax
    50f9:	48 c7 c2 ff ff ff ff 	mov    $0xffffffffffffffff,%rdx
    5100:	89 c1                	mov    %eax,%ecx
    5102:	48 d3 ea             	shr    %cl,%rdx
    5105:	48 89 d0             	mov    %rdx,%rax
    5108:	48 39 45 f8          	cmp    %rax,-0x8(%rbp)
    510c:	77 11                	ja     511f <safe_lshift_func_uint64_t_u_s+0x44>
    510e:	8b 45 f4             	mov    -0xc(%rbp),%eax
    5111:	48 8b 55 f8          	mov    -0x8(%rbp),%rdx
    5115:	89 c1                	mov    %eax,%ecx
    5117:	48 d3 e2             	shl    %cl,%rdx
    511a:	48 89 d0             	mov    %rdx,%rax
    511d:	eb 04                	jmp    5123 <safe_lshift_func_uint64_t_u_s+0x48>
    511f:	48 8b 45 f8          	mov    -0x8(%rbp),%rax
    5123:	5d                   	pop    %rbp
    5124:	c3                   	retq   

0000000000005125 <safe_lshift_func_uint64_t_u_u>:
    5125:	f3 0f 1e fa          	endbr64 
    5129:	55                   	push   %rbp
    512a:	48 89 e5             	mov    %rsp,%rbp
    512d:	48 89 7d f8          	mov    %rdi,-0x8(%rbp)
    5131:	89 75 f4             	mov    %esi,-0xc(%rbp)
    5134:	83 7d f4 1f          	cmpl   $0x1f,-0xc(%rbp)
    5138:	77 29                	ja     5163 <safe_lshift_func_uint64_t_u_u+0x3e>
    513a:	8b 45 f4             	mov    -0xc(%rbp),%eax
    513d:	48 c7 c2 ff ff ff ff 	mov    $0xffffffffffffffff,%rdx
    5144:	89 c1                	mov    %eax,%ecx
    5146:	48 d3 ea             	shr    %cl,%rdx
    5149:	48 89 d0             	mov    %rdx,%rax
    514c:	48 39 45 f8          	cmp    %rax,-0x8(%rbp)
    5150:	77 11                	ja     5163 <safe_lshift_func_uint64_t_u_u+0x3e>
    5152:	8b 45 f4             	mov    -0xc(%rbp),%eax
    5155:	48 8b 55 f8          	mov    -0x8(%rbp),%rdx
    5159:	89 c1                	mov    %eax,%ecx
    515b:	48 d3 e2             	shl    %cl,%rdx
    515e:	48 89 d0             	mov    %rdx,%rax
    5161:	eb 04                	jmp    5167 <safe_lshift_func_uint64_t_u_u+0x42>
    5163:	48 8b 45 f8          	mov    -0x8(%rbp),%rax
    5167:	5d                   	pop    %rbp
    5168:	c3                   	retq   

0000000000005169 <safe_rshift_func_uint64_t_u_s>:
    5169:	f3 0f 1e fa          	endbr64 
    516d:	55                   	push   %rbp
    516e:	48 89 e5             	mov    %rsp,%rbp
    5171:	48 89 7d f8          	mov    %rdi,-0x8(%rbp)
    5175:	89 75 f4             	mov    %esi,-0xc(%rbp)
    5178:	83 7d f4 00          	cmpl   $0x0,-0xc(%rbp)
    517c:	78 17                	js     5195 <safe_rshift_func_uint64_t_u_s+0x2c>
    517e:	83 7d f4 1f          	cmpl   $0x1f,-0xc(%rbp)
    5182:	7f 11                	jg     5195 <safe_rshift_func_uint64_t_u_s+0x2c>
    5184:	8b 45 f4             	mov    -0xc(%rbp),%eax
    5187:	48 8b 55 f8          	mov    -0x8(%rbp),%rdx
    518b:	89 c1                	mov    %eax,%ecx
    518d:	48 d3 ea             	shr    %cl,%rdx
    5190:	48 89 d0             	mov    %rdx,%rax
    5193:	eb 04                	jmp    5199 <safe_rshift_func_uint64_t_u_s+0x30>
    5195:	48 8b 45 f8          	mov    -0x8(%rbp),%rax
    5199:	5d                   	pop    %rbp
    519a:	c3                   	retq   

000000000000519b <safe_rshift_func_uint64_t_u_u>:
    519b:	f3 0f 1e fa          	endbr64 
    519f:	55                   	push   %rbp
    51a0:	48 89 e5             	mov    %rsp,%rbp
    51a3:	48 89 7d f8          	mov    %rdi,-0x8(%rbp)
    51a7:	89 75 f4             	mov    %esi,-0xc(%rbp)
    51aa:	83 7d f4 1f          	cmpl   $0x1f,-0xc(%rbp)
    51ae:	77 11                	ja     51c1 <safe_rshift_func_uint64_t_u_u+0x26>
    51b0:	8b 45 f4             	mov    -0xc(%rbp),%eax
    51b3:	48 8b 55 f8          	mov    -0x8(%rbp),%rdx
    51b7:	89 c1                	mov    %eax,%ecx
    51b9:	48 d3 ea             	shr    %cl,%rdx
    51bc:	48 89 d0             	mov    %rdx,%rax
    51bf:	eb 04                	jmp    51c5 <safe_rshift_func_uint64_t_u_u+0x2a>
    51c1:	48 8b 45 f8          	mov    -0x8(%rbp),%rax
    51c5:	5d                   	pop    %rbp
    51c6:	c3                   	retq   

00000000000051c7 <safe_add_func_float_f_f>:
    51c7:	f3 0f 1e fa          	endbr64 
    51cb:	55                   	push   %rbp
    51cc:	48 89 e5             	mov    %rsp,%rbp
    51cf:	f3 0f 11 45 fc       	movss  %xmm0,-0x4(%rbp)
    51d4:	f3 0f 11 4d f8       	movss  %xmm1,-0x8(%rbp)
    51d9:	f3 0f 10 4d fc       	movss  -0x4(%rbp),%xmm1
    51de:	f3 0f 10 05 fa da 00 	movss  0xdafa(%rip),%xmm0        # 12ce0 <l_845.4414+0x700>
    51e5:	00 
    51e6:	f3 0f 59 c8          	mulss  %xmm0,%xmm1
    51ea:	f3 0f 10 55 f8       	movss  -0x8(%rbp),%xmm2
    51ef:	f3 0f 10 05 e9 da 00 	movss  0xdae9(%rip),%xmm0        # 12ce0 <l_845.4414+0x700>
    51f6:	00 
    51f7:	f3 0f 59 c2          	mulss  %xmm2,%xmm0
    51fb:	f3 0f 58 c1          	addss  %xmm1,%xmm0
    51ff:	f3 0f 10 0d e9 da 00 	movss  0xdae9(%rip),%xmm1        # 12cf0 <l_845.4414+0x710>
    5206:	00 
    5207:	0f 54 c1             	andps  %xmm1,%xmm0
    520a:	0f 2f 05 ef da 00 00 	comiss 0xdaef(%rip),%xmm0        # 12d00 <l_845.4414+0x720>
    5211:	76 07                	jbe    521a <safe_add_func_float_f_f+0x53>
    5213:	f3 0f 10 45 fc       	movss  -0x4(%rbp),%xmm0
    5218:	eb 0a                	jmp    5224 <safe_add_func_float_f_f+0x5d>
    521a:	f3 0f 10 45 fc       	movss  -0x4(%rbp),%xmm0
    521f:	f3 0f 58 45 f8       	addss  -0x8(%rbp),%xmm0
    5224:	5d                   	pop    %rbp
    5225:	c3                   	retq   

0000000000005226 <safe_sub_func_float_f_f>:
    5226:	f3 0f 1e fa          	endbr64 
    522a:	55                   	push   %rbp
    522b:	48 89 e5             	mov    %rsp,%rbp
    522e:	f3 0f 11 45 fc       	movss  %xmm0,-0x4(%rbp)
    5233:	f3 0f 11 4d f8       	movss  %xmm1,-0x8(%rbp)
    5238:	f3 0f 10 4d fc       	movss  -0x4(%rbp),%xmm1
    523d:	f3 0f 10 05 9b da 00 	movss  0xda9b(%rip),%xmm0        # 12ce0 <l_845.4414+0x700>
    5244:	00 
    5245:	f3 0f 59 c1          	mulss  %xmm1,%xmm0
    5249:	f3 0f 10 55 f8       	movss  -0x8(%rbp),%xmm2
    524e:	f3 0f 10 0d 8a da 00 	movss  0xda8a(%rip),%xmm1        # 12ce0 <l_845.4414+0x700>
    5255:	00 
    5256:	f3 0f 59 ca          	mulss  %xmm2,%xmm1
    525a:	f3 0f 5c c1          	subss  %xmm1,%xmm0
    525e:	f3 0f 10 0d 8a da 00 	movss  0xda8a(%rip),%xmm1        # 12cf0 <l_845.4414+0x710>
    5265:	00 
    5266:	0f 54 c1             	andps  %xmm1,%xmm0
    5269:	0f 2f 05 90 da 00 00 	comiss 0xda90(%rip),%xmm0        # 12d00 <l_845.4414+0x720>
    5270:	76 07                	jbe    5279 <safe_sub_func_float_f_f+0x53>
    5272:	f3 0f 10 45 fc       	movss  -0x4(%rbp),%xmm0
    5277:	eb 0a                	jmp    5283 <safe_sub_func_float_f_f+0x5d>
    5279:	f3 0f 10 45 fc       	movss  -0x4(%rbp),%xmm0
    527e:	f3 0f 5c 45 f8       	subss  -0x8(%rbp),%xmm0
    5283:	5d                   	pop    %rbp
    5284:	c3                   	retq   

0000000000005285 <safe_mul_func_float_f_f>:
    5285:	f3 0f 1e fa          	endbr64 
    5289:	55                   	push   %rbp
    528a:	48 89 e5             	mov    %rsp,%rbp
    528d:	f3 0f 11 45 fc       	movss  %xmm0,-0x4(%rbp)
    5292:	f3 0f 11 4d f8       	movss  %xmm1,-0x8(%rbp)
    5297:	f3 0f 10 4d fc       	movss  -0x4(%rbp),%xmm1
    529c:	f3 0f 10 05 60 da 00 	movss  0xda60(%rip),%xmm0        # 12d04 <l_845.4414+0x724>
    52a3:	00 
    52a4:	f3 0f 59 c8          	mulss  %xmm0,%xmm1
    52a8:	f3 0f 10 55 f8       	movss  -0x8(%rbp),%xmm2
    52ad:	f3 0f 10 05 53 da 00 	movss  0xda53(%rip),%xmm0        # 12d08 <l_845.4414+0x728>
    52b4:	00 
    52b5:	f3 0f 59 c2          	mulss  %xmm2,%xmm0
    52b9:	f3 0f 59 c1          	mulss  %xmm1,%xmm0
    52bd:	f3 0f 10 0d 2b da 00 	movss  0xda2b(%rip),%xmm1        # 12cf0 <l_845.4414+0x710>
    52c4:	00 
    52c5:	0f 54 c1             	andps  %xmm1,%xmm0
    52c8:	0f 2f 05 3d da 00 00 	comiss 0xda3d(%rip),%xmm0        # 12d0c <l_845.4414+0x72c>
    52cf:	76 07                	jbe    52d8 <safe_mul_func_float_f_f+0x53>
    52d1:	f3 0f 10 45 fc       	movss  -0x4(%rbp),%xmm0
    52d6:	eb 0a                	jmp    52e2 <safe_mul_func_float_f_f+0x5d>
    52d8:	f3 0f 10 45 fc       	movss  -0x4(%rbp),%xmm0
    52dd:	f3 0f 59 45 f8       	mulss  -0x8(%rbp),%xmm0
    52e2:	5d                   	pop    %rbp
    52e3:	c3                   	retq   

00000000000052e4 <safe_div_func_float_f_f>:
    52e4:	f3 0f 1e fa          	endbr64 
    52e8:	55                   	push   %rbp
    52e9:	48 89 e5             	mov    %rsp,%rbp
    52ec:	f3 0f 11 45 fc       	movss  %xmm0,-0x4(%rbp)
    52f1:	f3 0f 11 4d f8       	movss  %xmm1,-0x8(%rbp)
    52f6:	f3 0f 10 45 f8       	movss  -0x8(%rbp),%xmm0
    52fb:	f3 0f 10 0d ed d9 00 	movss  0xd9ed(%rip),%xmm1        # 12cf0 <l_845.4414+0x710>
    5302:	00 
    5303:	0f 54 c8             	andps  %xmm0,%xmm1
    5306:	f3 0f 10 05 02 da 00 	movss  0xda02(%rip),%xmm0        # 12d10 <l_845.4414+0x730>
    530d:	00 
    530e:	0f 2f c1             	comiss %xmm1,%xmm0
    5311:	0f 97 c0             	seta   %al
    5314:	83 f0 01             	xor    $0x1,%eax
    5317:	84 c0                	test   %al,%al
    5319:	75 56                	jne    5371 <safe_div_func_float_f_f+0x8d>
    531b:	66 0f ef c0          	pxor   %xmm0,%xmm0
    531f:	0f 2e 45 f8          	ucomiss -0x8(%rbp),%xmm0
    5323:	7a 0a                	jp     532f <safe_div_func_float_f_f+0x4b>
    5325:	66 0f ef c0          	pxor   %xmm0,%xmm0
    5329:	0f 2e 45 f8          	ucomiss -0x8(%rbp),%xmm0
    532d:	74 4e                	je     537d <safe_div_func_float_f_f+0x99>
    532f:	f3 0f 10 4d fc       	movss  -0x4(%rbp),%xmm1
    5334:	f3 0f 10 05 d8 d9 00 	movss  0xd9d8(%rip),%xmm0        # 12d14 <l_845.4414+0x734>
    533b:	00 
    533c:	f3 0f 59 c1          	mulss  %xmm1,%xmm0
    5340:	f3 0f 10 55 f8       	movss  -0x8(%rbp),%xmm2
    5345:	f3 0f 10 0d cb d9 00 	movss  0xd9cb(%rip),%xmm1        # 12d18 <l_845.4414+0x738>
    534c:	00 
    534d:	f3 0f 59 ca          	mulss  %xmm2,%xmm1
    5351:	f3 0f 5e c1          	divss  %xmm1,%xmm0
    5355:	f3 0f 10 0d 93 d9 00 	movss  0xd993(%rip),%xmm1        # 12cf0 <l_845.4414+0x710>
    535c:	00 
    535d:	0f 54 c1             	andps  %xmm1,%xmm0
    5360:	0f 2f 05 b5 d9 00 00 	comiss 0xd9b5(%rip),%xmm0        # 12d1c <l_845.4414+0x73c>
    5367:	0f 97 c0             	seta   %al
    536a:	83 f0 01             	xor    $0x1,%eax
    536d:	84 c0                	test   %al,%al
    536f:	74 0c                	je     537d <safe_div_func_float_f_f+0x99>
    5371:	f3 0f 10 45 fc       	movss  -0x4(%rbp),%xmm0
    5376:	f3 0f 5e 45 f8       	divss  -0x8(%rbp),%xmm0
    537b:	eb 05                	jmp    5382 <safe_div_func_float_f_f+0x9e>
    537d:	f3 0f 10 45 fc       	movss  -0x4(%rbp),%xmm0
    5382:	5d                   	pop    %rbp
    5383:	c3                   	retq   

0000000000005384 <safe_add_func_double_f_f>:
    5384:	f3 0f 1e fa          	endbr64 
    5388:	55                   	push   %rbp
    5389:	48 89 e5             	mov    %rsp,%rbp
    538c:	f2 0f 11 45 f8       	movsd  %xmm0,-0x8(%rbp)
    5391:	f2 0f 11 4d f0       	movsd  %xmm1,-0x10(%rbp)
    5396:	f2 0f 10 4d f8       	movsd  -0x8(%rbp),%xmm1
    539b:	f2 0f 10 05 7d d9 00 	movsd  0xd97d(%rip),%xmm0        # 12d20 <l_845.4414+0x740>
    53a2:	00 
    53a3:	f2 0f 59 c8          	mulsd  %xmm0,%xmm1
    53a7:	f2 0f 10 55 f0       	movsd  -0x10(%rbp),%xmm2
    53ac:	f2 0f 10 05 6c d9 00 	movsd  0xd96c(%rip),%xmm0        # 12d20 <l_845.4414+0x740>
    53b3:	00 
    53b4:	f2 0f 59 c2          	mulsd  %xmm2,%xmm0
    53b8:	f2 0f 58 c1          	addsd  %xmm1,%xmm0
    53bc:	f3 0f 7e 0d 6c d9 00 	movq   0xd96c(%rip),%xmm1        # 12d30 <l_845.4414+0x750>
    53c3:	00 
    53c4:	66 0f 54 c1          	andpd  %xmm1,%xmm0
    53c8:	66 0f 2f 05 70 d9 00 	comisd 0xd970(%rip),%xmm0        # 12d40 <l_845.4414+0x760>
    53cf:	00 
    53d0:	76 07                	jbe    53d9 <safe_add_func_double_f_f+0x55>
    53d2:	f2 0f 10 45 f8       	movsd  -0x8(%rbp),%xmm0
    53d7:	eb 0a                	jmp    53e3 <safe_add_func_double_f_f+0x5f>
    53d9:	f2 0f 10 45 f8       	movsd  -0x8(%rbp),%xmm0
    53de:	f2 0f 58 45 f0       	addsd  -0x10(%rbp),%xmm0
    53e3:	5d                   	pop    %rbp
    53e4:	c3                   	retq   

00000000000053e5 <safe_sub_func_double_f_f>:
    53e5:	f3 0f 1e fa          	endbr64 
    53e9:	55                   	push   %rbp
    53ea:	48 89 e5             	mov    %rsp,%rbp
    53ed:	f2 0f 11 45 f8       	movsd  %xmm0,-0x8(%rbp)
    53f2:	f2 0f 11 4d f0       	movsd  %xmm1,-0x10(%rbp)
    53f7:	f2 0f 10 4d f8       	movsd  -0x8(%rbp),%xmm1
    53fc:	f2 0f 10 05 1c d9 00 	movsd  0xd91c(%rip),%xmm0        # 12d20 <l_845.4414+0x740>
    5403:	00 
    5404:	f2 0f 59 c1          	mulsd  %xmm1,%xmm0
    5408:	f2 0f 10 55 f0       	movsd  -0x10(%rbp),%xmm2
    540d:	f2 0f 10 0d 0b d9 00 	movsd  0xd90b(%rip),%xmm1        # 12d20 <l_845.4414+0x740>
    5414:	00 
    5415:	f2 0f 59 ca          	mulsd  %xmm2,%xmm1
    5419:	f2 0f 5c c1          	subsd  %xmm1,%xmm0
    541d:	f3 0f 7e 0d 0b d9 00 	movq   0xd90b(%rip),%xmm1        # 12d30 <l_845.4414+0x750>
    5424:	00 
    5425:	66 0f 54 c1          	andpd  %xmm1,%xmm0
    5429:	66 0f 2f 05 0f d9 00 	comisd 0xd90f(%rip),%xmm0        # 12d40 <l_845.4414+0x760>
    5430:	00 
    5431:	76 07                	jbe    543a <safe_sub_func_double_f_f+0x55>
    5433:	f2 0f 10 45 f8       	movsd  -0x8(%rbp),%xmm0
    5438:	eb 0a                	jmp    5444 <safe_sub_func_double_f_f+0x5f>
    543a:	f2 0f 10 45 f8       	movsd  -0x8(%rbp),%xmm0
    543f:	f2 0f 5c 45 f0       	subsd  -0x10(%rbp),%xmm0
    5444:	5d                   	pop    %rbp
    5445:	c3                   	retq   

0000000000005446 <safe_mul_func_double_f_f>:
    5446:	f3 0f 1e fa          	endbr64 
    544a:	55                   	push   %rbp
    544b:	48 89 e5             	mov    %rsp,%rbp
    544e:	f2 0f 11 45 f8       	movsd  %xmm0,-0x8(%rbp)
    5453:	f2 0f 11 4d f0       	movsd  %xmm1,-0x10(%rbp)
    5458:	f2 0f 10 4d f8       	movsd  -0x8(%rbp),%xmm1
    545d:	f2 0f 10 05 e3 d8 00 	movsd  0xd8e3(%rip),%xmm0        # 12d48 <l_845.4414+0x768>
    5464:	00 
    5465:	f2 0f 59 c8          	mulsd  %xmm0,%xmm1
    5469:	f2 0f 10 55 f0       	movsd  -0x10(%rbp),%xmm2
    546e:	f2 0f 10 05 da d8 00 	movsd  0xd8da(%rip),%xmm0        # 12d50 <l_845.4414+0x770>
    5475:	00 
    5476:	f2 0f 59 c2          	mulsd  %xmm2,%xmm0
    547a:	f2 0f 59 c1          	mulsd  %xmm1,%xmm0
    547e:	f3 0f 7e 0d aa d8 00 	movq   0xd8aa(%rip),%xmm1        # 12d30 <l_845.4414+0x750>
    5485:	00 
    5486:	66 0f 54 c1          	andpd  %xmm1,%xmm0
    548a:	66 0f 2f 05 c6 d8 00 	comisd 0xd8c6(%rip),%xmm0        # 12d58 <l_845.4414+0x778>
    5491:	00 
    5492:	76 07                	jbe    549b <safe_mul_func_double_f_f+0x55>
    5494:	f2 0f 10 45 f8       	movsd  -0x8(%rbp),%xmm0
    5499:	eb 0a                	jmp    54a5 <safe_mul_func_double_f_f+0x5f>
    549b:	f2 0f 10 45 f8       	movsd  -0x8(%rbp),%xmm0
    54a0:	f2 0f 59 45 f0       	mulsd  -0x10(%rbp),%xmm0
    54a5:	5d                   	pop    %rbp
    54a6:	c3                   	retq   

00000000000054a7 <safe_div_func_double_f_f>:
    54a7:	f3 0f 1e fa          	endbr64 
    54ab:	55                   	push   %rbp
    54ac:	48 89 e5             	mov    %rsp,%rbp
    54af:	f2 0f 11 45 f8       	movsd  %xmm0,-0x8(%rbp)
    54b4:	f2 0f 11 4d f0       	movsd  %xmm1,-0x10(%rbp)
    54b9:	f2 0f 10 45 f0       	movsd  -0x10(%rbp),%xmm0
    54be:	f3 0f 7e 0d 6a d8 00 	movq   0xd86a(%rip),%xmm1        # 12d30 <l_845.4414+0x750>
    54c5:	00 
    54c6:	66 0f 54 c8          	andpd  %xmm0,%xmm1
    54ca:	f2 0f 10 05 8e d8 00 	movsd  0xd88e(%rip),%xmm0        # 12d60 <l_845.4414+0x780>
    54d1:	00 
    54d2:	66 0f 2f c1          	comisd %xmm1,%xmm0
    54d6:	0f 97 c0             	seta   %al
    54d9:	83 f0 01             	xor    $0x1,%eax
    54dc:	84 c0                	test   %al,%al
    54de:	75 5a                	jne    553a <safe_div_func_double_f_f+0x93>
    54e0:	66 0f ef c0          	pxor   %xmm0,%xmm0
    54e4:	66 0f 2e 45 f0       	ucomisd -0x10(%rbp),%xmm0
    54e9:	7a 0b                	jp     54f6 <safe_div_func_double_f_f+0x4f>
    54eb:	66 0f ef c0          	pxor   %xmm0,%xmm0
    54ef:	66 0f 2e 45 f0       	ucomisd -0x10(%rbp),%xmm0
    54f4:	74 50                	je     5546 <safe_div_func_double_f_f+0x9f>
    54f6:	f2 0f 10 4d f8       	movsd  -0x8(%rbp),%xmm1
    54fb:	f2 0f 10 05 65 d8 00 	movsd  0xd865(%rip),%xmm0        # 12d68 <l_845.4414+0x788>
    5502:	00 
    5503:	f2 0f 59 c1          	mulsd  %xmm1,%xmm0
    5507:	f2 0f 10 55 f0       	movsd  -0x10(%rbp),%xmm2
    550c:	f2 0f 10 0d 5c d8 00 	movsd  0xd85c(%rip),%xmm1        # 12d70 <l_845.4414+0x790>
    5513:	00 
    5514:	f2 0f 59 ca          	mulsd  %xmm2,%xmm1
    5518:	f2 0f 5e c1          	divsd  %xmm1,%xmm0
    551c:	f3 0f 7e 0d 0c d8 00 	movq   0xd80c(%rip),%xmm1        # 12d30 <l_845.4414+0x750>
    5523:	00 
    5524:	66 0f 54 c1          	andpd  %xmm1,%xmm0
    5528:	66 0f 2f 05 48 d8 00 	comisd 0xd848(%rip),%xmm0        # 12d78 <l_845.4414+0x798>
    552f:	00 
    5530:	0f 97 c0             	seta   %al
    5533:	83 f0 01             	xor    $0x1,%eax
    5536:	84 c0                	test   %al,%al
    5538:	74 0c                	je     5546 <safe_div_func_double_f_f+0x9f>
    553a:	f2 0f 10 45 f8       	movsd  -0x8(%rbp),%xmm0
    553f:	f2 0f 5e 45 f0       	divsd  -0x10(%rbp),%xmm0
    5544:	eb 05                	jmp    554b <safe_div_func_double_f_f+0xa4>
    5546:	f2 0f 10 45 f8       	movsd  -0x8(%rbp),%xmm0
    554b:	5d                   	pop    %rbp
    554c:	c3                   	retq   

000000000000554d <safe_convert_func_float_to_int32_t>:
    554d:	f3 0f 1e fa          	endbr64 
    5551:	55                   	push   %rbp
    5552:	48 89 e5             	mov    %rsp,%rbp
    5555:	f3 0f 11 45 fc       	movss  %xmm0,-0x4(%rbp)
    555a:	f3 0f 10 05 1e d8 00 	movss  0xd81e(%rip),%xmm0        # 12d80 <l_845.4414+0x7a0>
    5561:	00 
    5562:	0f 2f 45 fc          	comiss -0x4(%rbp),%xmm0
    5566:	0f 93 c0             	setae  %al
    5569:	83 f0 01             	xor    $0x1,%eax
    556c:	84 c0                	test   %al,%al
    556e:	74 21                	je     5591 <safe_convert_func_float_to_int32_t+0x44>
    5570:	f3 0f 10 45 fc       	movss  -0x4(%rbp),%xmm0
    5575:	0f 2f 05 08 d8 00 00 	comiss 0xd808(%rip),%xmm0        # 12d84 <l_845.4414+0x7a4>
    557c:	0f 93 c0             	setae  %al
    557f:	83 f0 01             	xor    $0x1,%eax
    5582:	84 c0                	test   %al,%al
    5584:	74 0b                	je     5591 <safe_convert_func_float_to_int32_t+0x44>
    5586:	f3 0f 10 45 fc       	movss  -0x4(%rbp),%xmm0
    558b:	f3 0f 2c c0          	cvttss2si %xmm0,%eax
    558f:	eb 05                	jmp    5596 <safe_convert_func_float_to_int32_t+0x49>
    5591:	b8 ff ff ff 7f       	mov    $0x7fffffff,%eax
    5596:	5d                   	pop    %rbp
    5597:	c3                   	retq   

0000000000005598 <crc32_gentab>:
    5598:	f3 0f 1e fa          	endbr64 
    559c:	55                   	push   %rbp
    559d:	48 89 e5             	mov    %rsp,%rbp
    55a0:	c7 45 fc 20 83 b8 ed 	movl   $0xedb88320,-0x4(%rbp)
    55a7:	c7 45 f4 00 00 00 00 	movl   $0x0,-0xc(%rbp)
    55ae:	eb 51                	jmp    5601 <crc32_gentab+0x69>
    55b0:	8b 45 f4             	mov    -0xc(%rbp),%eax
    55b3:	89 45 f0             	mov    %eax,-0x10(%rbp)
    55b6:	c7 45 f8 08 00 00 00 	movl   $0x8,-0x8(%rbp)
    55bd:	eb 1e                	jmp    55dd <crc32_gentab+0x45>
    55bf:	8b 45 f0             	mov    -0x10(%rbp),%eax
    55c2:	83 e0 01             	and    $0x1,%eax
    55c5:	85 c0                	test   %eax,%eax
    55c7:	74 0d                	je     55d6 <crc32_gentab+0x3e>
    55c9:	8b 45 f0             	mov    -0x10(%rbp),%eax
    55cc:	d1 e8                	shr    %eax
    55ce:	33 45 fc             	xor    -0x4(%rbp),%eax
    55d1:	89 45 f0             	mov    %eax,-0x10(%rbp)
    55d4:	eb 03                	jmp    55d9 <crc32_gentab+0x41>
    55d6:	d1 6d f0             	shrl   -0x10(%rbp)
    55d9:	83 6d f8 01          	subl   $0x1,-0x8(%rbp)
    55dd:	83 7d f8 00          	cmpl   $0x0,-0x8(%rbp)
    55e1:	7f dc                	jg     55bf <crc32_gentab+0x27>
    55e3:	8b 45 f4             	mov    -0xc(%rbp),%eax
    55e6:	48 98                	cltq   
    55e8:	48 8d 0c 85 00 00 00 	lea    0x0(,%rax,4),%rcx
    55ef:	00 
    55f0:	48 8d 15 29 1f 01 00 	lea    0x11f29(%rip),%rdx        # 17520 <crc32_tab>
    55f7:	8b 45 f0             	mov    -0x10(%rbp),%eax
    55fa:	89 04 11             	mov    %eax,(%rcx,%rdx,1)
    55fd:	83 45 f4 01          	addl   $0x1,-0xc(%rbp)
    5601:	81 7d f4 ff 00 00 00 	cmpl   $0xff,-0xc(%rbp)
    5608:	7e a6                	jle    55b0 <crc32_gentab+0x18>
    560a:	90                   	nop
    560b:	90                   	nop
    560c:	5d                   	pop    %rbp
    560d:	c3                   	retq   

000000000000560e <crc32_byte>:
    560e:	f3 0f 1e fa          	endbr64 
    5612:	55                   	push   %rbp
    5613:	48 89 e5             	mov    %rsp,%rbp
    5616:	89 f8                	mov    %edi,%eax
    5618:	88 45 fc             	mov    %al,-0x4(%rbp)
    561b:	8b 05 ff 09 01 00    	mov    0x109ff(%rip),%eax        # 16020 <crc32_context>
    5621:	c1 e8 08             	shr    $0x8,%eax
    5624:	89 c1                	mov    %eax,%ecx
    5626:	0f b6 55 fc          	movzbl -0x4(%rbp),%edx
    562a:	8b 05 f0 09 01 00    	mov    0x109f0(%rip),%eax        # 16020 <crc32_context>
    5630:	31 d0                	xor    %edx,%eax
    5632:	0f b6 c0             	movzbl %al,%eax
    5635:	89 c0                	mov    %eax,%eax
    5637:	48 8d 14 85 00 00 00 	lea    0x0(,%rax,4),%rdx
    563e:	00 
    563f:	48 8d 05 da 1e 01 00 	lea    0x11eda(%rip),%rax        # 17520 <crc32_tab>
    5646:	8b 04 02             	mov    (%rdx,%rax,1),%eax
    5649:	31 c8                	xor    %ecx,%eax
    564b:	89 05 cf 09 01 00    	mov    %eax,0x109cf(%rip)        # 16020 <crc32_context>
    5651:	90                   	nop
    5652:	5d                   	pop    %rbp
    5653:	c3                   	retq   

0000000000005654 <crc32_8bytes>:
    5654:	f3 0f 1e fa          	endbr64 
    5658:	55                   	push   %rbp
    5659:	48 89 e5             	mov    %rsp,%rbp
    565c:	48 83 ec 08          	sub    $0x8,%rsp
    5660:	48 89 7d f8          	mov    %rdi,-0x8(%rbp)
    5664:	48 8b 45 f8          	mov    -0x8(%rbp),%rax
    5668:	0f b6 c0             	movzbl %al,%eax
    566b:	89 c7                	mov    %eax,%edi
    566d:	e8 9c ff ff ff       	callq  560e <crc32_byte>
    5672:	48 8b 45 f8          	mov    -0x8(%rbp),%rax
    5676:	48 c1 e8 08          	shr    $0x8,%rax
    567a:	0f b6 c0             	movzbl %al,%eax
    567d:	89 c7                	mov    %eax,%edi
    567f:	e8 8a ff ff ff       	callq  560e <crc32_byte>
    5684:	48 8b 45 f8          	mov    -0x8(%rbp),%rax
    5688:	48 c1 e8 10          	shr    $0x10,%rax
    568c:	0f b6 c0             	movzbl %al,%eax
    568f:	89 c7                	mov    %eax,%edi
    5691:	e8 78 ff ff ff       	callq  560e <crc32_byte>
    5696:	48 8b 45 f8          	mov    -0x8(%rbp),%rax
    569a:	48 c1 e8 18          	shr    $0x18,%rax
    569e:	0f b6 c0             	movzbl %al,%eax
    56a1:	89 c7                	mov    %eax,%edi
    56a3:	e8 66 ff ff ff       	callq  560e <crc32_byte>
    56a8:	48 8b 45 f8          	mov    -0x8(%rbp),%rax
    56ac:	48 c1 e8 20          	shr    $0x20,%rax
    56b0:	0f b6 c0             	movzbl %al,%eax
    56b3:	89 c7                	mov    %eax,%edi
    56b5:	e8 54 ff ff ff       	callq  560e <crc32_byte>
    56ba:	48 8b 45 f8          	mov    -0x8(%rbp),%rax
    56be:	48 c1 e8 28          	shr    $0x28,%rax
    56c2:	0f b6 c0             	movzbl %al,%eax
    56c5:	89 c7                	mov    %eax,%edi
    56c7:	e8 42 ff ff ff       	callq  560e <crc32_byte>
    56cc:	48 8b 45 f8          	mov    -0x8(%rbp),%rax
    56d0:	48 c1 e8 30          	shr    $0x30,%rax
    56d4:	0f b6 c0             	movzbl %al,%eax
    56d7:	89 c7                	mov    %eax,%edi
    56d9:	e8 30 ff ff ff       	callq  560e <crc32_byte>
    56de:	48 8b 45 f8          	mov    -0x8(%rbp),%rax
    56e2:	48 c1 e8 38          	shr    $0x38,%rax
    56e6:	0f b6 c0             	movzbl %al,%eax
    56e9:	89 c7                	mov    %eax,%edi
    56eb:	e8 1e ff ff ff       	callq  560e <crc32_byte>
    56f0:	90                   	nop
    56f1:	c9                   	leaveq 
    56f2:	c3                   	retq   

00000000000056f3 <transparent_crc>:
    56f3:	f3 0f 1e fa          	endbr64 
    56f7:	55                   	push   %rbp
    56f8:	48 89 e5             	mov    %rsp,%rbp
    56fb:	48 83 ec 20          	sub    $0x20,%rsp
    56ff:	48 89 7d f8          	mov    %rdi,-0x8(%rbp)
    5703:	48 89 75 f0          	mov    %rsi,-0x10(%rbp)
    5707:	89 55 ec             	mov    %edx,-0x14(%rbp)
    570a:	48 8b 45 f8          	mov    -0x8(%rbp),%rax
    570e:	48 89 c7             	mov    %rax,%rdi
    5711:	e8 3e ff ff ff       	callq  5654 <crc32_8bytes>
    5716:	83 7d ec 00          	cmpl   $0x0,-0x14(%rbp)
    571a:	74 22                	je     573e <transparent_crc+0x4b>
    571c:	8b 05 fe 08 01 00    	mov    0x108fe(%rip),%eax        # 16020 <crc32_context>
    5722:	f7 d0                	not    %eax
    5724:	89 c2                	mov    %eax,%edx
    5726:	48 8b 45 f0          	mov    -0x10(%rbp),%rax
    572a:	48 89 c6             	mov    %rax,%rsi
    572d:	48 8d 3d fc b8 00 00 	lea    0xb8fc(%rip),%rdi        # 11030 <_IO_stdin_used+0x30>
    5734:	b8 00 00 00 00       	mov    $0x0,%eax
    5739:	e8 42 e9 ff ff       	callq  4080 <printf@plt>
    573e:	90                   	nop
    573f:	c9                   	leaveq 
    5740:	c3                   	retq   

0000000000005741 <transparent_crc_bytes>:
    5741:	f3 0f 1e fa          	endbr64 
    5745:	55                   	push   %rbp
    5746:	48 89 e5             	mov    %rsp,%rbp
    5749:	48 83 ec 30          	sub    $0x30,%rsp
    574d:	48 89 7d e8          	mov    %rdi,-0x18(%rbp)
    5751:	89 75 e4             	mov    %esi,-0x1c(%rbp)
    5754:	48 89 55 d8          	mov    %rdx,-0x28(%rbp)
    5758:	89 4d e0             	mov    %ecx,-0x20(%rbp)
    575b:	c7 45 fc 00 00 00 00 	movl   $0x0,-0x4(%rbp)
    5762:	eb 1e                	jmp    5782 <transparent_crc_bytes+0x41>
    5764:	8b 45 fc             	mov    -0x4(%rbp),%eax
    5767:	48 63 d0             	movslq %eax,%rdx
    576a:	48 8b 45 e8          	mov    -0x18(%rbp),%rax
    576e:	48 01 d0             	add    %rdx,%rax
    5771:	0f b6 00             	movzbl (%rax),%eax
    5774:	0f b6 c0             	movzbl %al,%eax
    5777:	89 c7                	mov    %eax,%edi
    5779:	e8 90 fe ff ff       	callq  560e <crc32_byte>
    577e:	83 45 fc 01          	addl   $0x1,-0x4(%rbp)
    5782:	8b 45 fc             	mov    -0x4(%rbp),%eax
    5785:	3b 45 e4             	cmp    -0x1c(%rbp),%eax
    5788:	7c da                	jl     5764 <transparent_crc_bytes+0x23>
    578a:	83 7d e0 00          	cmpl   $0x0,-0x20(%rbp)
    578e:	74 22                	je     57b2 <transparent_crc_bytes+0x71>
    5790:	8b 05 8a 08 01 00    	mov    0x1088a(%rip),%eax        # 16020 <crc32_context>
    5796:	f7 d0                	not    %eax
    5798:	89 c2                	mov    %eax,%edx
    579a:	48 8b 45 d8          	mov    -0x28(%rbp),%rax
    579e:	48 89 c6             	mov    %rax,%rsi
    57a1:	48 8d 3d 88 b8 00 00 	lea    0xb888(%rip),%rdi        # 11030 <_IO_stdin_used+0x30>
    57a8:	b8 00 00 00 00       	mov    $0x0,%eax
    57ad:	e8 ce e8 ff ff       	callq  4080 <printf@plt>
    57b2:	90                   	nop
    57b3:	c9                   	leaveq 
    57b4:	c3                   	retq   

00000000000057b5 <func_1>:
    57b5:	f3 0f 1e fa          	endbr64 
    57b9:	55                   	push   %rbp
    57ba:	48 89 e5             	mov    %rsp,%rbp
    57bd:	41 56                	push   %r14
    57bf:	41 55                	push   %r13
    57c1:	41 54                	push   %r12
    57c3:	53                   	push   %rbx
    57c4:	48 81 ec a0 00 00 00 	sub    $0xa0,%rsp
    57cb:	64 48 8b 04 25 28 00 	mov    %fs:0x28,%rax
    57d2:	00 00 
    57d4:	48 89 45 d8          	mov    %rax,-0x28(%rbp)
    57d8:	31 c0                	xor    %eax,%eax
    57da:	c6 85 41 ff ff ff d7 	movb   $0xd7,-0xbf(%rbp)
    57e1:	48 c7 85 48 ff ff ff 	movq   $0x0,-0xb8(%rbp)
    57e8:	00 00 00 00 
    57ec:	48 8d 05 e9 08 01 00 	lea    0x108e9(%rip),%rax        # 160dc <g_81>
    57f3:	48 89 85 50 ff ff ff 	mov    %rax,-0xb0(%rbp)
    57fa:	48 8d 05 ef 08 01 00 	lea    0x108ef(%rip),%rax        # 160f0 <g_107>
    5801:	48 89 85 58 ff ff ff 	mov    %rax,-0xa8(%rbp)
    5808:	48 8d 05 cd 08 01 00 	lea    0x108cd(%rip),%rax        # 160dc <g_81>
    580f:	48 89 85 60 ff ff ff 	mov    %rax,-0xa0(%rbp)
    5816:	48 8d 05 ab 0a 01 00 	lea    0x10aab(%rip),%rax        # 162c8 <g_1456>
    581d:	48 89 85 68 ff ff ff 	mov    %rax,-0x98(%rbp)
    5824:	48 8d 05 99 0a 01 00 	lea    0x10a99(%rip),%rax        # 162c4 <g_1359>
    582b:	48 89 85 70 ff ff ff 	mov    %rax,-0x90(%rbp)
    5832:	48 8d 05 b7 08 01 00 	lea    0x108b7(%rip),%rax        # 160f0 <g_107>
    5839:	48 89 85 78 ff ff ff 	mov    %rax,-0x88(%rbp)
    5840:	48 8d 05 e9 09 01 00 	lea    0x109e9(%rip),%rax        # 16230 <g_667>
    5847:	48 89 45 80          	mov    %rax,-0x80(%rbp)
    584b:	c7 45 b0 6c a6 29 6f 	movl   $0x6f29a66c,-0x50(%rbp)
    5852:	c7 45 b4 6c a6 29 6f 	movl   $0x6f29a66c,-0x4c(%rbp)
    5859:	c7 45 b8 2c 6c ed 58 	movl   $0x58ed6c2c,-0x48(%rbp)
    5860:	c7 45 bc 6c a6 29 6f 	movl   $0x6f29a66c,-0x44(%rbp)
    5867:	c7 45 c0 6c a6 29 6f 	movl   $0x6f29a66c,-0x40(%rbp)
    586e:	c7 45 c4 2c 6c ed 58 	movl   $0x58ed6c2c,-0x3c(%rbp)
    5875:	c7 45 c8 6c a6 29 6f 	movl   $0x6f29a66c,-0x38(%rbp)
    587c:	c7 45 cc 6c a6 29 6f 	movl   $0x6f29a66c,-0x34(%rbp)
    5883:	c7 45 d0 2c 6c ed 58 	movl   $0x58ed6c2c,-0x30(%rbp)
    588a:	48 8d 05 37 0a 01 00 	lea    0x10a37(%rip),%rax        # 162c8 <g_1456>
    5891:	48 89 45 88          	mov    %rax,-0x78(%rbp)
    5895:	66 c7 85 42 ff ff ff 	movw   $0xfffb,-0xbe(%rbp)
    589c:	fb ff 
    589e:	c7 85 44 ff ff ff 00 	movl   $0x0,-0xbc(%rbp)
    58a5:	00 00 00 
    58a8:	eb 1b                	jmp    58c5 <func_1+0x110>
    58aa:	8b 85 44 ff ff ff    	mov    -0xbc(%rbp),%eax
    58b0:	48 98                	cltq   
    58b2:	48 8d 15 77 09 01 00 	lea    0x10977(%rip),%rdx        # 16230 <g_667>
    58b9:	48 89 54 c5 90       	mov    %rdx,-0x70(%rbp,%rax,8)
    58be:	83 85 44 ff ff ff 01 	addl   $0x1,-0xbc(%rbp)
    58c5:	83 bd 44 ff ff ff 02 	cmpl   $0x2,-0xbc(%rbp)
    58cc:	7e dc                	jle    58aa <func_1+0xf5>
    58ce:	48 8b 1d 53 20 01 00 	mov    0x12053(%rip),%rbx        # 17928 <g_10>
    58d5:	4c 0f be ad 41 ff ff 	movsbq -0xbf(%rbp),%r13
    58dc:	ff 
    58dd:	b8 db 64 f3 1c       	mov    $0x1cf364db,%eax
    58e2:	4c 63 e0             	movslq %eax,%r12
    58e5:	41 be db 64 f3 1c    	mov    $0x1cf364db,%r14d
    58eb:	0f be 95 41 ff ff ff 	movsbl -0xbf(%rbp),%edx
    58f2:	0f be 85 41 ff ff ff 	movsbl -0xbf(%rbp),%eax
    58f9:	b9 db 64 f3 1c       	mov    $0x1cf364db,%ecx
    58fe:	39 c8                	cmp    %ecx,%eax
    5900:	0f 9f c0             	setg   %al
    5903:	0f b6 c0             	movzbl %al,%eax
    5906:	89 d6                	mov    %edx,%esi
    5908:	89 c7                	mov    %eax,%edi
    590a:	e8 03 e9 ff ff       	callq  4212 <safe_mul_func_int8_t_s_s>
    590f:	0f be c0             	movsbl %al,%eax
    5912:	ba db 64 f3 1c       	mov    $0x1cf364db,%edx
    5917:	39 d0                	cmp    %edx,%eax
    5919:	0f be 85 41 ff ff ff 	movsbl -0xbf(%rbp),%eax
    5920:	83 f8 04             	cmp    $0x4,%eax
    5923:	0f 97 c0             	seta   %al
    5926:	0f b6 c0             	movzbl %al,%eax
    5929:	44 89 f6             	mov    %r14d,%esi
    592c:	89 c7                	mov    %eax,%edi
    592e:	e8 d2 f2 ff ff       	callq  4c05 <safe_lshift_func_uint8_t_u_s>
    5933:	4c 89 e6             	mov    %r12,%rsi
    5936:	bf 00 00 00 00       	mov    $0x0,%edi
    593b:	e8 74 f0 ff ff       	callq  49b4 <safe_mod_func_int64_t_s_s>
    5940:	49 39 c5             	cmp    %rax,%r13
    5943:	0f 95 c0             	setne  %al
    5946:	44 0f b6 e0          	movzbl %al,%r12d
    594a:	0f be 85 41 ff ff ff 	movsbl -0xbf(%rbp),%eax
    5951:	89 c7                	mov    %eax,%edi
    5953:	e8 72 5f 00 00       	callq  b8ca <func_11>
    5958:	48 89 c2             	mov    %rax,%rdx
    595b:	48 8b 35 c6 1f 01 00 	mov    0x11fc6(%rip),%rsi        # 17928 <g_10>
    5962:	48 8b 05 bf 1f 01 00 	mov    0x11fbf(%rip),%rax        # 17928 <g_10>
    5969:	4c 89 e1             	mov    %r12,%rcx
    596c:	48 89 c7             	mov    %rax,%rdi
    596f:	e8 2b 34 00 00       	callq  8d9f <func_5>
    5974:	48 89 de             	mov    %rbx,%rsi
    5977:	48 89 c7             	mov    %rax,%rdi
    597a:	e8 5c 00 00 00       	callq  59db <func_2>
    597f:	48 89 85 48 ff ff ff 	mov    %rax,-0xb8(%rbp)
    5986:	0f b7 05 5b 09 01 00 	movzwl 0x1095b(%rip),%eax        # 162e8 <g_1524>
    598d:	83 c0 01             	add    $0x1,%eax
    5990:	66 89 05 51 09 01 00 	mov    %ax,0x10951(%rip)        # 162e8 <g_1524>
    5997:	48 8b 05 2a 10 01 00 	mov    0x1102a(%rip),%rax        # 169c8 <g_105>
    599e:	48 8d 55 b0          	lea    -0x50(%rbp),%rdx
    59a2:	48 83 c2 20          	add    $0x20,%rdx
    59a6:	48 89 10             	mov    %rdx,(%rax)
    59a9:	66 83 85 42 ff ff ff 	addw   $0x1,-0xbe(%rbp)
    59b0:	01 
    59b1:	48 8b 45 88          	mov    -0x78(%rbp),%rax
    59b5:	8b 00                	mov    (%rax),%eax
    59b7:	48 8b 5d d8          	mov    -0x28(%rbp),%rbx
    59bb:	64 48 33 1c 25 28 00 	xor    %fs:0x28,%rbx
    59c2:	00 00 
    59c4:	74 05                	je     59cb <func_1+0x216>
    59c6:	e8 a5 e6 ff ff       	callq  4070 <__stack_chk_fail@plt>
    59cb:	48 81 c4 a0 00 00 00 	add    $0xa0,%rsp
    59d2:	5b                   	pop    %rbx
    59d3:	41 5c                	pop    %r12
    59d5:	41 5d                	pop    %r13
    59d7:	41 5e                	pop    %r14
    59d9:	5d                   	pop    %rbp
    59da:	c3                   	retq   

00000000000059db <func_2>:
    59db:	f3 0f 1e fa          	endbr64 
    59df:	55                   	push   %rbp
    59e0:	48 89 e5             	mov    %rsp,%rbp
    59e3:	41 57                	push   %r15
    59e5:	41 56                	push   %r14
    59e7:	41 55                	push   %r13
    59e9:	41 54                	push   %r12
    59eb:	53                   	push   %rbx
    59ec:	48 81 ec 00 10 00 00 	sub    $0x1000,%rsp
    59f3:	48 83 0c 24 00       	orq    $0x0,(%rsp)
    59f8:	48 81 ec d8 04 00 00 	sub    $0x4d8,%rsp
    59ff:	48 89 bd 28 eb ff ff 	mov    %rdi,-0x14d8(%rbp)
    5a06:	48 89 b5 20 eb ff ff 	mov    %rsi,-0x14e0(%rbp)
    5a0d:	64 48 8b 04 25 28 00 	mov    %fs:0x28,%rax
    5a14:	00 00 
    5a16:	48 89 45 c8          	mov    %rax,-0x38(%rbp)
    5a1a:	31 c0                	xor    %eax,%eax
    5a1c:	48 8d 05 8d 06 01 00 	lea    0x1068d(%rip),%rax        # 160b0 <g_46>
    5a23:	48 89 85 78 ec ff ff 	mov    %rax,-0x1388(%rbp)
    5a2a:	48 8d 05 0d 08 01 00 	lea    0x1080d(%rip),%rax        # 1623e <g_895+0x6>
    5a31:	48 89 85 80 ec ff ff 	mov    %rax,-0x1380(%rbp)
    5a38:	c7 85 9c eb ff ff ed 	movl   $0xb96c49ed,-0x1464(%rbp)
    5a3f:	49 6c b9 
    5a42:	c7 85 a0 eb ff ff ff 	movl   $0xffffffff,-0x1460(%rbp)
    5a49:	ff ff ff 
    5a4c:	c7 85 a4 eb ff ff 5d 	movl   $0x1080475d,-0x145c(%rbp)
    5a53:	47 80 10 
    5a56:	c7 85 a8 eb ff ff 01 	movl   $0x1,-0x1458(%rbp)
    5a5d:	00 00 00 
    5a60:	c7 85 ac eb ff ff 71 	movl   $0xbf89bb71,-0x1454(%rbp)
    5a67:	bb 89 bf 
    5a6a:	c7 85 98 eb ff ff ff 	movl   $0xffffffff,-0x1468(%rbp)
    5a71:	ff ff ff 
    5a74:	c7 85 94 eb ff ff 98 	movl   $0x4d98d798,-0x146c(%rbp)
    5a7b:	d7 98 4d 
    5a7e:	c7 85 84 eb ff ff 01 	movl   $0x1,-0x147c(%rbp)
    5a85:	00 00 00 
    5a88:	c7 85 88 eb ff ff 64 	movl   $0xa3ecd864,-0x1478(%rbp)
    5a8f:	d8 ec a3 
    5a92:	c7 85 8c eb ff ff cd 	movl   $0x215626cd,-0x1474(%rbp)
    5a99:	26 56 21 
    5a9c:	c7 85 90 eb ff ff fe 	movl   $0xfffffffe,-0x1470(%rbp)
    5aa3:	ff ff ff 
    5aa6:	66 c7 85 38 eb ff ff 	movw   $0x7,-0x14c8(%rbp)
    5aad:	07 00 
    5aaf:	c6 85 34 eb ff ff 48 	movb   $0x48,-0x14cc(%rbp)
    5ab6:	48 8d 05 73 1e 01 00 	lea    0x11e73(%rip),%rax        # 17930 <g_365>
    5abd:	48 89 85 70 ec ff ff 	mov    %rax,-0x1390(%rbp)
    5ac4:	c6 85 35 eb ff ff cc 	movb   $0xcc,-0x14cb(%rbp)
    5acb:	48 8b 85 78 ec ff ff 	mov    -0x1388(%rbp),%rax
    5ad2:	c7 00 08 17 14 ea    	movl   $0xea141708,(%rax)
    5ad8:	c6 05 b1 1e 01 00 03 	movb   $0x3,0x11eb1(%rip)        # 17990 <g_897>
    5adf:	e9 7f 32 00 00       	jmpq   8d63 <func_2+0x3388>
    5ae4:	c7 85 44 eb ff ff 01 	movl   $0x1,-0x14bc(%rbp)
    5aeb:	00 00 00 
    5aee:	48 8d 05 eb 05 01 00 	lea    0x105eb(%rip),%rax        # 160e0 <g_88>
    5af5:	48 89 85 e0 eb ff ff 	mov    %rax,-0x1420(%rbp)
    5afc:	48 8d 85 e0 eb ff ff 	lea    -0x1420(%rbp),%rax
    5b03:	48 89 85 e8 eb ff ff 	mov    %rax,-0x1418(%rbp)
    5b0a:	c7 85 74 eb ff ff b3 	movl   $0x884e21b3,-0x148c(%rbp)
    5b11:	21 4e 88 
    5b14:	c7 85 78 eb ff ff ca 	movl   $0xf69386ca,-0x1488(%rbp)
    5b1b:	86 93 f6 
    5b1e:	c7 85 7c eb ff ff 01 	movl   $0x1,-0x1484(%rbp)
    5b25:	00 00 00 
    5b28:	c7 85 80 eb ff ff ca 	movl   $0x5c0fd2ca,-0x1480(%rbp)
    5b2f:	d2 0f 5c 
    5b32:	c7 85 4c eb ff ff ff 	movl   $0xffffffff,-0x14b4(%rbp)
    5b39:	ff ff ff 
    5b3c:	c7 85 50 eb ff ff ff 	movl   $0xffffffff,-0x14b0(%rbp)
    5b43:	ff ff ff 
    5b46:	66 c7 85 3a eb ff ff 	movw   $0x98d8,-0x14c6(%rbp)
    5b4d:	d8 98 
    5b4f:	c7 85 54 eb ff ff 23 	movl   $0x8cbc9e23,-0x14ac(%rbp)
    5b56:	9e bc 8c 
    5b59:	c7 85 58 eb ff ff d2 	movl   $0xcd5187d2,-0x14a8(%rbp)
    5b60:	87 51 cd 
    5b63:	c7 85 5c eb ff ff 05 	movl   $0x5,-0x14a4(%rbp)
    5b6a:	00 00 00 
    5b6d:	c7 85 60 eb ff ff fc 	movl   $0xfffffffc,-0x14a0(%rbp)
    5b74:	ff ff ff 
    5b77:	c7 85 64 eb ff ff fe 	movl   $0xfffffffe,-0x149c(%rbp)
    5b7e:	ff ff ff 
    5b81:	c7 85 68 eb ff ff 99 	movl   $0xec86399,-0x1498(%rbp)
    5b88:	63 c8 0e 
    5b8b:	c7 85 6c eb ff ff f1 	movl   $0xb02ba1f1,-0x1494(%rbp)
    5b92:	a1 2b b0 
    5b95:	c7 85 70 eb ff ff 00 	movl   $0x0,-0x1490(%rbp)
    5b9c:	00 00 00 
    5b9f:	eb 1e                	jmp    5bbf <func_2+0x1e4>
    5ba1:	8b 85 70 eb ff ff    	mov    -0x1490(%rbp),%eax
    5ba7:	48 98                	cltq   
    5ba9:	48 8d 15 f8 10 01 00 	lea    0x110f8(%rip),%rdx        # 16ca8 <g_1326>
    5bb0:	48 89 94 c5 80 ed ff 	mov    %rdx,-0x1280(%rbp,%rax,8)
    5bb7:	ff 
    5bb8:	83 85 70 eb ff ff 01 	addl   $0x1,-0x1490(%rbp)
    5bbf:	83 bd 70 eb ff ff 03 	cmpl   $0x3,-0x1490(%rbp)
    5bc6:	7e d9                	jle    5ba1 <func_2+0x1c6>
    5bc8:	48 8b 85 78 ec ff ff 	mov    -0x1388(%rbp),%rax
    5bcf:	8b 00                	mov    (%rax),%eax
    5bd1:	85 c0                	test   %eax,%eax
    5bd3:	0f 84 65 31 00 00    	je     8d3e <func_2+0x3363>
    5bd9:	48 c7 85 68 ec ff ff 	movq   $0x0,-0x1398(%rbp)
    5be0:	00 00 00 00 
    5be4:	48 8d 05 2d 06 01 00 	lea    0x1062d(%rip),%rax        # 16218 <g_237>
    5beb:	48 89 85 60 ec ff ff 	mov    %rax,-0x13a0(%rbp)
    5bf2:	c7 85 48 eb ff ff 09 	movl   $0x9,-0x14b8(%rbp)
    5bf9:	00 00 00 
    5bfc:	48 8d 05 d5 0d 01 00 	lea    0x10dd5(%rip),%rax        # 169d8 <g_280>
    5c03:	48 89 85 48 ec ff ff 	mov    %rax,-0x13b8(%rbp)
    5c0a:	48 c7 85 50 ec ff ff 	movq   $0x0,-0x13b0(%rbp)
    5c11:	00 00 00 00 
    5c15:	48 8d 05 c0 04 01 00 	lea    0x104c0(%rip),%rax        # 160dc <g_81>
    5c1c:	48 89 85 58 ec ff ff 	mov    %rax,-0x13a8(%rbp)
    5c23:	48 8d 05 c6 04 01 00 	lea    0x104c6(%rip),%rax        # 160f0 <g_107>
    5c2a:	48 89 85 08 ec ff ff 	mov    %rax,-0x13f8(%rbp)
    5c31:	48 8d 05 a4 04 01 00 	lea    0x104a4(%rip),%rax        # 160dc <g_81>
    5c38:	48 89 85 10 ec ff ff 	mov    %rax,-0x13f0(%rbp)
    5c3f:	48 8d 85 48 eb ff ff 	lea    -0x14b8(%rbp),%rax
    5c46:	48 89 85 18 ec ff ff 	mov    %rax,-0x13e8(%rbp)
    5c4d:	48 8d 85 48 eb ff ff 	lea    -0x14b8(%rbp),%rax
    5c54:	48 89 85 20 ec ff ff 	mov    %rax,-0x13e0(%rbp)
    5c5b:	48 8d 05 7a 04 01 00 	lea    0x1047a(%rip),%rax        # 160dc <g_81>
    5c62:	48 89 85 28 ec ff ff 	mov    %rax,-0x13d8(%rbp)
    5c69:	48 8d 85 48 eb ff ff 	lea    -0x14b8(%rbp),%rax
    5c70:	48 89 85 30 ec ff ff 	mov    %rax,-0x13d0(%rbp)
    5c77:	48 c7 85 38 ec ff ff 	movq   $0x0,-0x13c8(%rbp)
    5c7e:	00 00 00 00 
    5c82:	48 8d 05 53 04 01 00 	lea    0x10453(%rip),%rax        # 160dc <g_81>
    5c89:	48 89 85 40 ec ff ff 	mov    %rax,-0x13c0(%rbp)
    5c90:	48 8d 05 45 04 01 00 	lea    0x10445(%rip),%rax        # 160dc <g_81>
    5c97:	48 89 85 00 f0 ff ff 	mov    %rax,-0x1000(%rbp)
    5c9e:	48 8d 05 8b 05 01 00 	lea    0x1058b(%rip),%rax        # 16230 <g_667>
    5ca5:	48 89 85 08 f0 ff ff 	mov    %rax,-0xff8(%rbp)
    5cac:	48 8d 05 fd 03 01 00 	lea    0x103fd(%rip),%rax        # 160b0 <g_46>
    5cb3:	48 89 85 10 f0 ff ff 	mov    %rax,-0xff0(%rbp)
    5cba:	48 8d 05 ef 03 01 00 	lea    0x103ef(%rip),%rax        # 160b0 <g_46>
    5cc1:	48 89 85 18 f0 ff ff 	mov    %rax,-0xfe8(%rbp)
    5cc8:	48 8d 85 48 eb ff ff 	lea    -0x14b8(%rbp),%rax
    5ccf:	48 89 85 20 f0 ff ff 	mov    %rax,-0xfe0(%rbp)
    5cd6:	48 8d 05 ff 03 01 00 	lea    0x103ff(%rip),%rax        # 160dc <g_81>
    5cdd:	48 89 85 28 f0 ff ff 	mov    %rax,-0xfd8(%rbp)
    5ce4:	48 c7 85 30 f0 ff ff 	movq   $0x0,-0xfd0(%rbp)
    5ceb:	00 00 00 00 
    5cef:	48 8d 05 ba 03 01 00 	lea    0x103ba(%rip),%rax        # 160b0 <g_46>
    5cf6:	48 89 85 38 f0 ff ff 	mov    %rax,-0xfc8(%rbp)
    5cfd:	48 c7 85 40 f0 ff ff 	movq   $0x0,-0xfc0(%rbp)
    5d04:	00 00 00 00 
    5d08:	48 8d 05 21 05 01 00 	lea    0x10521(%rip),%rax        # 16230 <g_667>
    5d0f:	48 89 85 48 f0 ff ff 	mov    %rax,-0xfb8(%rbp)
    5d16:	48 8d 05 13 05 01 00 	lea    0x10513(%rip),%rax        # 16230 <g_667>
    5d1d:	48 89 85 50 f0 ff ff 	mov    %rax,-0xfb0(%rbp)
    5d24:	48 8d 05 b1 03 01 00 	lea    0x103b1(%rip),%rax        # 160dc <g_81>
    5d2b:	48 89 85 58 f0 ff ff 	mov    %rax,-0xfa8(%rbp)
    5d32:	48 8d 05 a3 03 01 00 	lea    0x103a3(%rip),%rax        # 160dc <g_81>
    5d39:	48 89 85 60 f0 ff ff 	mov    %rax,-0xfa0(%rbp)
    5d40:	48 8d 05 69 03 01 00 	lea    0x10369(%rip),%rax        # 160b0 <g_46>
    5d47:	48 89 85 68 f0 ff ff 	mov    %rax,-0xf98(%rbp)
    5d4e:	48 8d 05 9b 03 01 00 	lea    0x1039b(%rip),%rax        # 160f0 <g_107>
    5d55:	48 89 85 70 f0 ff ff 	mov    %rax,-0xf90(%rbp)
    5d5c:	48 c7 85 78 f0 ff ff 	movq   $0x0,-0xf88(%rbp)
    5d63:	00 00 00 00 
    5d67:	48 c7 85 80 f0 ff ff 	movq   $0x0,-0xf80(%rbp)
    5d6e:	00 00 00 00 
    5d72:	48 c7 85 88 f0 ff ff 	movq   $0x0,-0xf78(%rbp)
    5d79:	00 00 00 00 
    5d7d:	48 8d 05 58 03 01 00 	lea    0x10358(%rip),%rax        # 160dc <g_81>
    5d84:	48 89 85 90 f0 ff ff 	mov    %rax,-0xf70(%rbp)
    5d8b:	48 8d 05 9e 04 01 00 	lea    0x1049e(%rip),%rax        # 16230 <g_667>
    5d92:	48 89 85 98 f0 ff ff 	mov    %rax,-0xf68(%rbp)
    5d99:	48 8d 85 48 eb ff ff 	lea    -0x14b8(%rbp),%rax
    5da0:	48 89 85 a0 f0 ff ff 	mov    %rax,-0xf60(%rbp)
    5da7:	48 8d 05 42 03 01 00 	lea    0x10342(%rip),%rax        # 160f0 <g_107>
    5dae:	48 89 85 a8 f0 ff ff 	mov    %rax,-0xf58(%rbp)
    5db5:	48 8d 05 74 04 01 00 	lea    0x10474(%rip),%rax        # 16230 <g_667>
    5dbc:	48 89 85 b0 f0 ff ff 	mov    %rax,-0xf50(%rbp)
    5dc3:	48 c7 85 b8 f0 ff ff 	movq   $0x0,-0xf48(%rbp)
    5dca:	00 00 00 00 
    5dce:	48 8d 05 db 02 01 00 	lea    0x102db(%rip),%rax        # 160b0 <g_46>
    5dd5:	48 89 85 c0 f0 ff ff 	mov    %rax,-0xf40(%rbp)
    5ddc:	48 8d 85 48 eb ff ff 	lea    -0x14b8(%rbp),%rax
    5de3:	48 89 85 c8 f0 ff ff 	mov    %rax,-0xf38(%rbp)
    5dea:	48 8d 05 eb 02 01 00 	lea    0x102eb(%rip),%rax        # 160dc <g_81>
    5df1:	48 89 85 d0 f0 ff ff 	mov    %rax,-0xf30(%rbp)
    5df8:	48 8d 85 48 eb ff ff 	lea    -0x14b8(%rbp),%rax
    5dff:	48 89 85 d8 f0 ff ff 	mov    %rax,-0xf28(%rbp)
    5e06:	48 c7 85 e0 f0 ff ff 	movq   $0x0,-0xf20(%rbp)
    5e0d:	00 00 00 00 
    5e11:	48 8d 05 d8 02 01 00 	lea    0x102d8(%rip),%rax        # 160f0 <g_107>
    5e18:	48 89 85 e8 f0 ff ff 	mov    %rax,-0xf18(%rbp)
    5e1f:	48 8d 05 b6 02 01 00 	lea    0x102b6(%rip),%rax        # 160dc <g_81>
    5e26:	48 89 85 f0 f0 ff ff 	mov    %rax,-0xf10(%rbp)
    5e2d:	48 8d 05 a8 02 01 00 	lea    0x102a8(%rip),%rax        # 160dc <g_81>
    5e34:	48 89 85 f8 f0 ff ff 	mov    %rax,-0xf08(%rbp)
    5e3b:	48 8d 05 ae 02 01 00 	lea    0x102ae(%rip),%rax        # 160f0 <g_107>
    5e42:	48 89 85 00 f1 ff ff 	mov    %rax,-0xf00(%rbp)
    5e49:	48 8d 05 60 02 01 00 	lea    0x10260(%rip),%rax        # 160b0 <g_46>
    5e50:	48 89 85 08 f1 ff ff 	mov    %rax,-0xef8(%rbp)
    5e57:	48 8d 05 d2 03 01 00 	lea    0x103d2(%rip),%rax        # 16230 <g_667>
    5e5e:	48 89 85 10 f1 ff ff 	mov    %rax,-0xef0(%rbp)
    5e65:	48 8d 05 70 02 01 00 	lea    0x10270(%rip),%rax        # 160dc <g_81>
    5e6c:	48 89 85 18 f1 ff ff 	mov    %rax,-0xee8(%rbp)
    5e73:	48 8d 05 b6 03 01 00 	lea    0x103b6(%rip),%rax        # 16230 <g_667>
    5e7a:	48 89 85 20 f1 ff ff 	mov    %rax,-0xee0(%rbp)
    5e81:	48 8d 05 54 02 01 00 	lea    0x10254(%rip),%rax        # 160dc <g_81>
    5e88:	48 89 85 28 f1 ff ff 	mov    %rax,-0xed8(%rbp)
    5e8f:	48 8d 05 46 02 01 00 	lea    0x10246(%rip),%rax        # 160dc <g_81>
    5e96:	48 89 85 30 f1 ff ff 	mov    %rax,-0xed0(%rbp)
    5e9d:	48 c7 85 38 f1 ff ff 	movq   $0x0,-0xec8(%rbp)
    5ea4:	00 00 00 00 
    5ea8:	48 8d 05 2d 02 01 00 	lea    0x1022d(%rip),%rax        # 160dc <g_81>
    5eaf:	48 89 85 40 f1 ff ff 	mov    %rax,-0xec0(%rbp)
    5eb6:	48 8d 05 73 03 01 00 	lea    0x10373(%rip),%rax        # 16230 <g_667>
    5ebd:	48 89 85 48 f1 ff ff 	mov    %rax,-0xeb8(%rbp)
    5ec4:	48 8d 05 25 02 01 00 	lea    0x10225(%rip),%rax        # 160f0 <g_107>
    5ecb:	48 89 85 50 f1 ff ff 	mov    %rax,-0xeb0(%rbp)
    5ed2:	48 8d 05 03 02 01 00 	lea    0x10203(%rip),%rax        # 160dc <g_81>
    5ed9:	48 89 85 58 f1 ff ff 	mov    %rax,-0xea8(%rbp)
    5ee0:	48 c7 85 60 f1 ff ff 	movq   $0x0,-0xea0(%rbp)
    5ee7:	00 00 00 00 
    5eeb:	48 8d 05 3e 03 01 00 	lea    0x1033e(%rip),%rax        # 16230 <g_667>
    5ef2:	48 89 85 68 f1 ff ff 	mov    %rax,-0xe98(%rbp)
    5ef9:	48 8d 05 dc 01 01 00 	lea    0x101dc(%rip),%rax        # 160dc <g_81>
    5f00:	48 89 85 70 f1 ff ff 	mov    %rax,-0xe90(%rbp)
    5f07:	48 8d 05 22 03 01 00 	lea    0x10322(%rip),%rax        # 16230 <g_667>
    5f0e:	48 89 85 78 f1 ff ff 	mov    %rax,-0xe88(%rbp)
    5f15:	48 c7 85 80 f1 ff ff 	movq   $0x0,-0xe80(%rbp)
    5f1c:	00 00 00 00 
    5f20:	48 8d 05 b5 01 01 00 	lea    0x101b5(%rip),%rax        # 160dc <g_81>
    5f27:	48 89 85 88 f1 ff ff 	mov    %rax,-0xe78(%rbp)
    5f2e:	48 8d 05 fb 02 01 00 	lea    0x102fb(%rip),%rax        # 16230 <g_667>
    5f35:	48 89 85 90 f1 ff ff 	mov    %rax,-0xe70(%rbp)
    5f3c:	48 8d 05 99 01 01 00 	lea    0x10199(%rip),%rax        # 160dc <g_81>
    5f43:	48 89 85 98 f1 ff ff 	mov    %rax,-0xe68(%rbp)
    5f4a:	48 c7 85 a0 f1 ff ff 	movq   $0x0,-0xe60(%rbp)
    5f51:	00 00 00 00 
    5f55:	48 8d 05 94 01 01 00 	lea    0x10194(%rip),%rax        # 160f0 <g_107>
    5f5c:	48 89 85 a8 f1 ff ff 	mov    %rax,-0xe58(%rbp)
    5f63:	48 8d 05 72 01 01 00 	lea    0x10172(%rip),%rax        # 160dc <g_81>
    5f6a:	48 89 85 b0 f1 ff ff 	mov    %rax,-0xe50(%rbp)
    5f71:	48 8d 05 78 01 01 00 	lea    0x10178(%rip),%rax        # 160f0 <g_107>
    5f78:	48 89 85 b8 f1 ff ff 	mov    %rax,-0xe48(%rbp)
    5f7f:	48 8d 05 aa 02 01 00 	lea    0x102aa(%rip),%rax        # 16230 <g_667>
    5f86:	48 89 85 c0 f1 ff ff 	mov    %rax,-0xe40(%rbp)
    5f8d:	48 8d 05 1c 01 01 00 	lea    0x1011c(%rip),%rax        # 160b0 <g_46>
    5f94:	48 89 85 c8 f1 ff ff 	mov    %rax,-0xe38(%rbp)
    5f9b:	48 8d 05 8e 02 01 00 	lea    0x1028e(%rip),%rax        # 16230 <g_667>
    5fa2:	48 89 85 d0 f1 ff ff 	mov    %rax,-0xe30(%rbp)
    5fa9:	48 8d 05 00 01 01 00 	lea    0x10100(%rip),%rax        # 160b0 <g_46>
    5fb0:	48 89 85 d8 f1 ff ff 	mov    %rax,-0xe28(%rbp)
    5fb7:	48 8d 05 32 01 01 00 	lea    0x10132(%rip),%rax        # 160f0 <g_107>
    5fbe:	48 89 85 e0 f1 ff ff 	mov    %rax,-0xe20(%rbp)
    5fc5:	48 8d 05 64 02 01 00 	lea    0x10264(%rip),%rax        # 16230 <g_667>
    5fcc:	48 89 85 e8 f1 ff ff 	mov    %rax,-0xe18(%rbp)
    5fd3:	48 8d 05 16 01 01 00 	lea    0x10116(%rip),%rax        # 160f0 <g_107>
    5fda:	48 89 85 f0 f1 ff ff 	mov    %rax,-0xe10(%rbp)
    5fe1:	48 8d 05 08 01 01 00 	lea    0x10108(%rip),%rax        # 160f0 <g_107>
    5fe8:	48 89 85 f8 f1 ff ff 	mov    %rax,-0xe08(%rbp)
    5fef:	48 8d 85 48 eb ff ff 	lea    -0x14b8(%rbp),%rax
    5ff6:	48 89 85 00 f2 ff ff 	mov    %rax,-0xe00(%rbp)
    5ffd:	48 8d 05 2c 02 01 00 	lea    0x1022c(%rip),%rax        # 16230 <g_667>
    6004:	48 89 85 08 f2 ff ff 	mov    %rax,-0xdf8(%rbp)
    600b:	48 c7 85 10 f2 ff ff 	movq   $0x0,-0xdf0(%rbp)
    6012:	00 00 00 00 
    6016:	48 8d 05 13 02 01 00 	lea    0x10213(%rip),%rax        # 16230 <g_667>
    601d:	48 89 85 18 f2 ff ff 	mov    %rax,-0xde8(%rbp)
    6024:	48 8d 05 b1 00 01 00 	lea    0x100b1(%rip),%rax        # 160dc <g_81>
    602b:	48 89 85 20 f2 ff ff 	mov    %rax,-0xde0(%rbp)
    6032:	48 c7 85 28 f2 ff ff 	movq   $0x0,-0xdd8(%rbp)
    6039:	00 00 00 00 
    603d:	48 8d 85 48 eb ff ff 	lea    -0x14b8(%rbp),%rax
    6044:	48 89 85 30 f2 ff ff 	mov    %rax,-0xdd0(%rbp)
    604b:	48 8d 05 de 01 01 00 	lea    0x101de(%rip),%rax        # 16230 <g_667>
    6052:	48 89 85 38 f2 ff ff 	mov    %rax,-0xdc8(%rbp)
    6059:	48 8d 05 7c 00 01 00 	lea    0x1007c(%rip),%rax        # 160dc <g_81>
    6060:	48 89 85 40 f2 ff ff 	mov    %rax,-0xdc0(%rbp)
    6067:	48 8d 05 82 00 01 00 	lea    0x10082(%rip),%rax        # 160f0 <g_107>
    606e:	48 89 85 48 f2 ff ff 	mov    %rax,-0xdb8(%rbp)
    6075:	48 8d 05 60 00 01 00 	lea    0x10060(%rip),%rax        # 160dc <g_81>
    607c:	48 89 85 50 f2 ff ff 	mov    %rax,-0xdb0(%rbp)
    6083:	48 c7 85 58 f2 ff ff 	movq   $0x0,-0xda8(%rbp)
    608a:	00 00 00 00 
    608e:	48 8d 05 1b 00 01 00 	lea    0x1001b(%rip),%rax        # 160b0 <g_46>
    6095:	48 89 85 60 f2 ff ff 	mov    %rax,-0xda0(%rbp)
    609c:	48 8d 05 4d 00 01 00 	lea    0x1004d(%rip),%rax        # 160f0 <g_107>
    60a3:	48 89 85 68 f2 ff ff 	mov    %rax,-0xd98(%rbp)
    60aa:	48 c7 85 70 f2 ff ff 	movq   $0x0,-0xd90(%rbp)
    60b1:	00 00 00 00 
    60b5:	48 8d 05 34 00 01 00 	lea    0x10034(%rip),%rax        # 160f0 <g_107>
    60bc:	48 89 85 78 f2 ff ff 	mov    %rax,-0xd88(%rbp)
    60c3:	48 8d 05 12 00 01 00 	lea    0x10012(%rip),%rax        # 160dc <g_81>
    60ca:	48 89 85 80 f2 ff ff 	mov    %rax,-0xd80(%rbp)
    60d1:	48 8d 05 18 00 01 00 	lea    0x10018(%rip),%rax        # 160f0 <g_107>
    60d8:	48 89 85 88 f2 ff ff 	mov    %rax,-0xd78(%rbp)
    60df:	48 8d 05 4a 01 01 00 	lea    0x1014a(%rip),%rax        # 16230 <g_667>
    60e6:	48 89 85 90 f2 ff ff 	mov    %rax,-0xd70(%rbp)
    60ed:	48 8d 05 fc ff 00 00 	lea    0xfffc(%rip),%rax        # 160f0 <g_107>
    60f4:	48 89 85 98 f2 ff ff 	mov    %rax,-0xd68(%rbp)
    60fb:	48 8d 05 ee ff 00 00 	lea    0xffee(%rip),%rax        # 160f0 <g_107>
    6102:	48 89 85 a0 f2 ff ff 	mov    %rax,-0xd60(%rbp)
    6109:	48 8d 85 48 eb ff ff 	lea    -0x14b8(%rbp),%rax
    6110:	48 89 85 a8 f2 ff ff 	mov    %rax,-0xd58(%rbp)
    6117:	48 c7 85 b0 f2 ff ff 	movq   $0x0,-0xd50(%rbp)
    611e:	00 00 00 00 
    6122:	48 8d 05 87 ff 00 00 	lea    0xff87(%rip),%rax        # 160b0 <g_46>
    6129:	48 89 85 b8 f2 ff ff 	mov    %rax,-0xd48(%rbp)
    6130:	48 8d 05 b9 ff 00 00 	lea    0xffb9(%rip),%rax        # 160f0 <g_107>
    6137:	48 89 85 c0 f2 ff ff 	mov    %rax,-0xd40(%rbp)
    613e:	48 8d 05 eb 00 01 00 	lea    0x100eb(%rip),%rax        # 16230 <g_667>
    6145:	48 89 85 c8 f2 ff ff 	mov    %rax,-0xd38(%rbp)
    614c:	48 8d 05 89 ff 00 00 	lea    0xff89(%rip),%rax        # 160dc <g_81>
    6153:	48 89 85 d0 f2 ff ff 	mov    %rax,-0xd30(%rbp)
    615a:	48 8d 05 7b ff 00 00 	lea    0xff7b(%rip),%rax        # 160dc <g_81>
    6161:	48 89 85 d8 f2 ff ff 	mov    %rax,-0xd28(%rbp)
    6168:	48 8d 05 41 ff 00 00 	lea    0xff41(%rip),%rax        # 160b0 <g_46>
    616f:	48 89 85 e0 f2 ff ff 	mov    %rax,-0xd20(%rbp)
    6176:	48 8d 05 5f ff 00 00 	lea    0xff5f(%rip),%rax        # 160dc <g_81>
    617d:	48 89 85 e8 f2 ff ff 	mov    %rax,-0xd18(%rbp)
    6184:	48 8d 05 a5 00 01 00 	lea    0x100a5(%rip),%rax        # 16230 <g_667>
    618b:	48 89 85 f0 f2 ff ff 	mov    %rax,-0xd10(%rbp)
    6192:	48 c7 85 f8 f2 ff ff 	movq   $0x0,-0xd08(%rbp)
    6199:	00 00 00 00 
    619d:	48 c7 85 00 f3 ff ff 	movq   $0x0,-0xd00(%rbp)
    61a4:	00 00 00 00 
    61a8:	48 8d 05 41 ff 00 00 	lea    0xff41(%rip),%rax        # 160f0 <g_107>
    61af:	48 89 85 08 f3 ff ff 	mov    %rax,-0xcf8(%rbp)
    61b6:	48 c7 85 10 f3 ff ff 	movq   $0x0,-0xcf0(%rbp)
    61bd:	00 00 00 00 
    61c1:	48 8d 05 68 00 01 00 	lea    0x10068(%rip),%rax        # 16230 <g_667>
    61c8:	48 89 85 18 f3 ff ff 	mov    %rax,-0xce8(%rbp)
    61cf:	48 8d 05 06 ff 00 00 	lea    0xff06(%rip),%rax        # 160dc <g_81>
    61d6:	48 89 85 20 f3 ff ff 	mov    %rax,-0xce0(%rbp)
    61dd:	48 8d 05 0c ff 00 00 	lea    0xff0c(%rip),%rax        # 160f0 <g_107>
    61e4:	48 89 85 28 f3 ff ff 	mov    %rax,-0xcd8(%rbp)
    61eb:	48 8d 05 fe fe 00 00 	lea    0xfefe(%rip),%rax        # 160f0 <g_107>
    61f2:	48 89 85 30 f3 ff ff 	mov    %rax,-0xcd0(%rbp)
    61f9:	48 8d 05 f0 fe 00 00 	lea    0xfef0(%rip),%rax        # 160f0 <g_107>
    6200:	48 89 85 38 f3 ff ff 	mov    %rax,-0xcc8(%rbp)
    6207:	48 8d 85 48 eb ff ff 	lea    -0x14b8(%rbp),%rax
    620e:	48 89 85 40 f3 ff ff 	mov    %rax,-0xcc0(%rbp)
    6215:	48 c7 85 48 f3 ff ff 	movq   $0x0,-0xcb8(%rbp)
    621c:	00 00 00 00 
    6220:	48 8d 05 09 00 01 00 	lea    0x10009(%rip),%rax        # 16230 <g_667>
    6227:	48 89 85 50 f3 ff ff 	mov    %rax,-0xcb0(%rbp)
    622e:	48 8d 05 bb fe 00 00 	lea    0xfebb(%rip),%rax        # 160f0 <g_107>
    6235:	48 89 85 58 f3 ff ff 	mov    %rax,-0xca8(%rbp)
    623c:	48 8d 05 ed ff 00 00 	lea    0xffed(%rip),%rax        # 16230 <g_667>
    6243:	48 89 85 60 f3 ff ff 	mov    %rax,-0xca0(%rbp)
    624a:	48 8d 05 8b fe 00 00 	lea    0xfe8b(%rip),%rax        # 160dc <g_81>
    6251:	48 89 85 68 f3 ff ff 	mov    %rax,-0xc98(%rbp)
    6258:	48 8d 85 48 eb ff ff 	lea    -0x14b8(%rbp),%rax
    625f:	48 89 85 70 f3 ff ff 	mov    %rax,-0xc90(%rbp)
    6266:	48 8d 05 43 fe 00 00 	lea    0xfe43(%rip),%rax        # 160b0 <g_46>
    626d:	48 89 85 78 f3 ff ff 	mov    %rax,-0xc88(%rbp)
    6274:	48 c7 85 80 f3 ff ff 	movq   $0x0,-0xc80(%rbp)
    627b:	00 00 00 00 
    627f:	48 8d 05 2a fe 00 00 	lea    0xfe2a(%rip),%rax        # 160b0 <g_46>
    6286:	48 89 85 88 f3 ff ff 	mov    %rax,-0xc78(%rbp)
    628d:	48 8d 05 48 fe 00 00 	lea    0xfe48(%rip),%rax        # 160dc <g_81>
    6294:	48 89 85 90 f3 ff ff 	mov    %rax,-0xc70(%rbp)
    629b:	48 c7 85 98 f3 ff ff 	movq   $0x0,-0xc68(%rbp)
    62a2:	00 00 00 00 
    62a6:	48 8d 05 43 fe 00 00 	lea    0xfe43(%rip),%rax        # 160f0 <g_107>
    62ad:	48 89 85 a0 f3 ff ff 	mov    %rax,-0xc60(%rbp)
    62b4:	48 8d 85 48 eb ff ff 	lea    -0x14b8(%rbp),%rax
    62bb:	48 89 85 a8 f3 ff ff 	mov    %rax,-0xc58(%rbp)
    62c2:	48 8d 05 67 ff 00 00 	lea    0xff67(%rip),%rax        # 16230 <g_667>
    62c9:	48 89 85 b0 f3 ff ff 	mov    %rax,-0xc50(%rbp)
    62d0:	48 8d 05 05 fe 00 00 	lea    0xfe05(%rip),%rax        # 160dc <g_81>
    62d7:	48 89 85 b8 f3 ff ff 	mov    %rax,-0xc48(%rbp)
    62de:	48 8d 05 cb fd 00 00 	lea    0xfdcb(%rip),%rax        # 160b0 <g_46>
    62e5:	48 89 85 c0 f3 ff ff 	mov    %rax,-0xc40(%rbp)
    62ec:	48 8d 05 3d ff 00 00 	lea    0xff3d(%rip),%rax        # 16230 <g_667>
    62f3:	48 89 85 c8 f3 ff ff 	mov    %rax,-0xc38(%rbp)
    62fa:	48 8d 05 2f ff 00 00 	lea    0xff2f(%rip),%rax        # 16230 <g_667>
    6301:	48 89 85 d0 f3 ff ff 	mov    %rax,-0xc30(%rbp)
    6308:	48 8d 05 e1 fd 00 00 	lea    0xfde1(%rip),%rax        # 160f0 <g_107>
    630f:	48 89 85 d8 f3 ff ff 	mov    %rax,-0xc28(%rbp)
    6316:	48 8d 05 d3 fd 00 00 	lea    0xfdd3(%rip),%rax        # 160f0 <g_107>
    631d:	48 89 85 e0 f3 ff ff 	mov    %rax,-0xc20(%rbp)
    6324:	48 8d 05 85 fd 00 00 	lea    0xfd85(%rip),%rax        # 160b0 <g_46>
    632b:	48 89 85 e8 f3 ff ff 	mov    %rax,-0xc18(%rbp)
    6332:	48 8d 05 a3 fd 00 00 	lea    0xfda3(%rip),%rax        # 160dc <g_81>
    6339:	48 89 85 f0 f3 ff ff 	mov    %rax,-0xc10(%rbp)
    6340:	48 8d 05 95 fd 00 00 	lea    0xfd95(%rip),%rax        # 160dc <g_81>
    6347:	48 89 85 f8 f3 ff ff 	mov    %rax,-0xc08(%rbp)
    634e:	48 8d 05 87 fd 00 00 	lea    0xfd87(%rip),%rax        # 160dc <g_81>
    6355:	48 89 85 00 f4 ff ff 	mov    %rax,-0xc00(%rbp)
    635c:	48 c7 85 08 f4 ff ff 	movq   $0x0,-0xbf8(%rbp)
    6363:	00 00 00 00 
    6367:	48 8d 05 6e fd 00 00 	lea    0xfd6e(%rip),%rax        # 160dc <g_81>
    636e:	48 89 85 10 f4 ff ff 	mov    %rax,-0xbf0(%rbp)
    6375:	48 8d 05 60 fd 00 00 	lea    0xfd60(%rip),%rax        # 160dc <g_81>
    637c:	48 89 85 18 f4 ff ff 	mov    %rax,-0xbe8(%rbp)
    6383:	48 8d 05 52 fd 00 00 	lea    0xfd52(%rip),%rax        # 160dc <g_81>
    638a:	48 89 85 20 f4 ff ff 	mov    %rax,-0xbe0(%rbp)
    6391:	48 8d 05 98 fe 00 00 	lea    0xfe98(%rip),%rax        # 16230 <g_667>
    6398:	48 89 85 28 f4 ff ff 	mov    %rax,-0xbd8(%rbp)
    639f:	48 8d 05 4a fd 00 00 	lea    0xfd4a(%rip),%rax        # 160f0 <g_107>
    63a6:	48 89 85 30 f4 ff ff 	mov    %rax,-0xbd0(%rbp)
    63ad:	48 8d 05 7c fe 00 00 	lea    0xfe7c(%rip),%rax        # 16230 <g_667>
    63b4:	48 89 85 38 f4 ff ff 	mov    %rax,-0xbc8(%rbp)
    63bb:	48 8d 05 1a fd 00 00 	lea    0xfd1a(%rip),%rax        # 160dc <g_81>
    63c2:	48 89 85 40 f4 ff ff 	mov    %rax,-0xbc0(%rbp)
    63c9:	48 8d 05 e0 fc 00 00 	lea    0xfce0(%rip),%rax        # 160b0 <g_46>
    63d0:	48 89 85 48 f4 ff ff 	mov    %rax,-0xbb8(%rbp)
    63d7:	48 c7 85 50 f4 ff ff 	movq   $0x0,-0xbb0(%rbp)
    63de:	00 00 00 00 
    63e2:	48 8d 05 f3 fc 00 00 	lea    0xfcf3(%rip),%rax        # 160dc <g_81>
    63e9:	48 89 85 58 f4 ff ff 	mov    %rax,-0xba8(%rbp)
    63f0:	48 8d 05 f9 fc 00 00 	lea    0xfcf9(%rip),%rax        # 160f0 <g_107>
    63f7:	48 89 85 60 f4 ff ff 	mov    %rax,-0xba0(%rbp)
    63fe:	48 8d 05 ab fc 00 00 	lea    0xfcab(%rip),%rax        # 160b0 <g_46>
    6405:	48 89 85 68 f4 ff ff 	mov    %rax,-0xb98(%rbp)
    640c:	48 8d 05 9d fc 00 00 	lea    0xfc9d(%rip),%rax        # 160b0 <g_46>
    6413:	48 89 85 70 f4 ff ff 	mov    %rax,-0xb90(%rbp)
    641a:	48 8d 05 cf fc 00 00 	lea    0xfccf(%rip),%rax        # 160f0 <g_107>
    6421:	48 89 85 78 f4 ff ff 	mov    %rax,-0xb88(%rbp)
    6428:	48 c7 85 80 f4 ff ff 	movq   $0x0,-0xb80(%rbp)
    642f:	00 00 00 00 
    6433:	48 c7 85 88 f4 ff ff 	movq   $0x0,-0xb78(%rbp)
    643a:	00 00 00 00 
    643e:	48 8d 05 97 fc 00 00 	lea    0xfc97(%rip),%rax        # 160dc <g_81>
    6445:	48 89 85 90 f4 ff ff 	mov    %rax,-0xb70(%rbp)
    644c:	48 c7 85 98 f4 ff ff 	movq   $0x0,-0xb68(%rbp)
    6453:	00 00 00 00 
    6457:	48 8d 05 7e fc 00 00 	lea    0xfc7e(%rip),%rax        # 160dc <g_81>
    645e:	48 89 85 a0 f4 ff ff 	mov    %rax,-0xb60(%rbp)
    6465:	48 8d 05 70 fc 00 00 	lea    0xfc70(%rip),%rax        # 160dc <g_81>
    646c:	48 89 85 a8 f4 ff ff 	mov    %rax,-0xb58(%rbp)
    6473:	48 8d 05 62 fc 00 00 	lea    0xfc62(%rip),%rax        # 160dc <g_81>
    647a:	48 89 85 b0 f4 ff ff 	mov    %rax,-0xb50(%rbp)
    6481:	48 8d 05 a8 fd 00 00 	lea    0xfda8(%rip),%rax        # 16230 <g_667>
    6488:	48 89 85 b8 f4 ff ff 	mov    %rax,-0xb48(%rbp)
    648f:	48 8d 05 9a fd 00 00 	lea    0xfd9a(%rip),%rax        # 16230 <g_667>
    6496:	48 89 85 c0 f4 ff ff 	mov    %rax,-0xb40(%rbp)
    649d:	48 c7 85 c8 f4 ff ff 	movq   $0x0,-0xb38(%rbp)
    64a4:	00 00 00 00 
    64a8:	48 8d 05 41 fc 00 00 	lea    0xfc41(%rip),%rax        # 160f0 <g_107>
    64af:	48 89 85 d0 f4 ff ff 	mov    %rax,-0xb30(%rbp)
    64b6:	48 8d 05 1f fc 00 00 	lea    0xfc1f(%rip),%rax        # 160dc <g_81>
    64bd:	48 89 85 d8 f4 ff ff 	mov    %rax,-0xb28(%rbp)
    64c4:	48 8d 05 65 fd 00 00 	lea    0xfd65(%rip),%rax        # 16230 <g_667>
    64cb:	48 89 85 e0 f4 ff ff 	mov    %rax,-0xb20(%rbp)
    64d2:	48 8d 05 03 fc 00 00 	lea    0xfc03(%rip),%rax        # 160dc <g_81>
    64d9:	48 89 85 e8 f4 ff ff 	mov    %rax,-0xb18(%rbp)
    64e0:	48 8d 05 49 fd 00 00 	lea    0xfd49(%rip),%rax        # 16230 <g_667>
    64e7:	48 89 85 f0 f4 ff ff 	mov    %rax,-0xb10(%rbp)
    64ee:	48 8d 05 3b fd 00 00 	lea    0xfd3b(%rip),%rax        # 16230 <g_667>
    64f5:	48 89 85 f8 f4 ff ff 	mov    %rax,-0xb08(%rbp)
    64fc:	48 c7 85 00 f5 ff ff 	movq   $0x0,-0xb00(%rbp)
    6503:	00 00 00 00 
    6507:	48 8d 05 ce fb 00 00 	lea    0xfbce(%rip),%rax        # 160dc <g_81>
    650e:	48 89 85 08 f5 ff ff 	mov    %rax,-0xaf8(%rbp)
    6515:	48 c7 85 10 f5 ff ff 	movq   $0x0,-0xaf0(%rbp)
    651c:	00 00 00 00 
    6520:	48 8d 05 09 fd 00 00 	lea    0xfd09(%rip),%rax        # 16230 <g_667>
    6527:	48 89 85 18 f5 ff ff 	mov    %rax,-0xae8(%rbp)
    652e:	48 8d 05 a7 fb 00 00 	lea    0xfba7(%rip),%rax        # 160dc <g_81>
    6535:	48 89 85 20 f5 ff ff 	mov    %rax,-0xae0(%rbp)
    653c:	48 8d 85 48 eb ff ff 	lea    -0x14b8(%rbp),%rax
    6543:	48 89 85 28 f5 ff ff 	mov    %rax,-0xad8(%rbp)
    654a:	48 8d 05 8b fb 00 00 	lea    0xfb8b(%rip),%rax        # 160dc <g_81>
    6551:	48 89 85 30 f5 ff ff 	mov    %rax,-0xad0(%rbp)
    6558:	48 8d 05 7d fb 00 00 	lea    0xfb7d(%rip),%rax        # 160dc <g_81>
    655f:	48 89 85 38 f5 ff ff 	mov    %rax,-0xac8(%rbp)
    6566:	48 8d 85 48 eb ff ff 	lea    -0x14b8(%rbp),%rax
    656d:	48 89 85 40 f5 ff ff 	mov    %rax,-0xac0(%rbp)
    6574:	48 8d 05 61 fb 00 00 	lea    0xfb61(%rip),%rax        # 160dc <g_81>
    657b:	48 89 85 48 f5 ff ff 	mov    %rax,-0xab8(%rbp)
    6582:	48 8d 05 53 fb 00 00 	lea    0xfb53(%rip),%rax        # 160dc <g_81>
    6589:	48 89 85 50 f5 ff ff 	mov    %rax,-0xab0(%rbp)
    6590:	48 8d 05 99 fc 00 00 	lea    0xfc99(%rip),%rax        # 16230 <g_667>
    6597:	48 89 85 58 f5 ff ff 	mov    %rax,-0xaa8(%rbp)
    659e:	48 8d 05 8b fc 00 00 	lea    0xfc8b(%rip),%rax        # 16230 <g_667>
    65a5:	48 89 85 60 f5 ff ff 	mov    %rax,-0xaa0(%rbp)
    65ac:	48 c7 85 68 f5 ff ff 	movq   $0x0,-0xa98(%rbp)
    65b3:	00 00 00 00 
    65b7:	48 8d 05 f2 fa 00 00 	lea    0xfaf2(%rip),%rax        # 160b0 <g_46>
    65be:	48 89 85 70 f5 ff ff 	mov    %rax,-0xa90(%rbp)
    65c5:	48 8d 05 10 fb 00 00 	lea    0xfb10(%rip),%rax        # 160dc <g_81>
    65cc:	48 89 85 78 f5 ff ff 	mov    %rax,-0xa88(%rbp)
    65d3:	48 c7 85 80 f5 ff ff 	movq   $0x0,-0xa80(%rbp)
    65da:	00 00 00 00 
    65de:	48 8d 05 0b fb 00 00 	lea    0xfb0b(%rip),%rax        # 160f0 <g_107>
    65e5:	48 89 85 88 f5 ff ff 	mov    %rax,-0xa78(%rbp)
    65ec:	48 8d 05 e9 fa 00 00 	lea    0xfae9(%rip),%rax        # 160dc <g_81>
    65f3:	48 89 85 90 f5 ff ff 	mov    %rax,-0xa70(%rbp)
    65fa:	48 8d 05 2f fc 00 00 	lea    0xfc2f(%rip),%rax        # 16230 <g_667>
    6601:	48 89 85 98 f5 ff ff 	mov    %rax,-0xa68(%rbp)
    6608:	48 8d 05 cd fa 00 00 	lea    0xfacd(%rip),%rax        # 160dc <g_81>
    660f:	48 89 85 a0 f5 ff ff 	mov    %rax,-0xa60(%rbp)
    6616:	48 8d 05 13 fc 00 00 	lea    0xfc13(%rip),%rax        # 16230 <g_667>
    661d:	48 89 85 a8 f5 ff ff 	mov    %rax,-0xa58(%rbp)
    6624:	48 8d 05 b1 fa 00 00 	lea    0xfab1(%rip),%rax        # 160dc <g_81>
    662b:	48 89 85 b0 f5 ff ff 	mov    %rax,-0xa50(%rbp)
    6632:	48 8d 05 77 fa 00 00 	lea    0xfa77(%rip),%rax        # 160b0 <g_46>
    6639:	48 89 85 b8 f5 ff ff 	mov    %rax,-0xa48(%rbp)
    6640:	48 8d 05 e9 fb 00 00 	lea    0xfbe9(%rip),%rax        # 16230 <g_667>
    6647:	48 89 85 c0 f5 ff ff 	mov    %rax,-0xa40(%rbp)
    664e:	48 8d 05 5b fa 00 00 	lea    0xfa5b(%rip),%rax        # 160b0 <g_46>
    6655:	48 89 85 c8 f5 ff ff 	mov    %rax,-0xa38(%rbp)
    665c:	48 8d 05 cd fb 00 00 	lea    0xfbcd(%rip),%rax        # 16230 <g_667>
    6663:	48 89 85 d0 f5 ff ff 	mov    %rax,-0xa30(%rbp)
    666a:	48 c7 85 d8 f5 ff ff 	movq   $0x0,-0xa28(%rbp)
    6671:	00 00 00 00 
    6675:	48 8d 05 60 fa 00 00 	lea    0xfa60(%rip),%rax        # 160dc <g_81>
    667c:	48 89 85 e0 f5 ff ff 	mov    %rax,-0xa20(%rbp)
    6683:	48 8d 05 66 fa 00 00 	lea    0xfa66(%rip),%rax        # 160f0 <g_107>
    668a:	48 89 85 e8 f5 ff ff 	mov    %rax,-0xa18(%rbp)
    6691:	48 8d 05 98 fb 00 00 	lea    0xfb98(%rip),%rax        # 16230 <g_667>
    6698:	48 89 85 f0 f5 ff ff 	mov    %rax,-0xa10(%rbp)
    669f:	48 8d 05 0a fa 00 00 	lea    0xfa0a(%rip),%rax        # 160b0 <g_46>
    66a6:	48 89 85 f8 f5 ff ff 	mov    %rax,-0xa08(%rbp)
    66ad:	48 8d 05 fc f9 00 00 	lea    0xf9fc(%rip),%rax        # 160b0 <g_46>
    66b4:	48 89 85 00 f6 ff ff 	mov    %rax,-0xa00(%rbp)
    66bb:	48 8d 05 1a fa 00 00 	lea    0xfa1a(%rip),%rax        # 160dc <g_81>
    66c2:	48 89 85 08 f6 ff ff 	mov    %rax,-0x9f8(%rbp)
    66c9:	48 8d 85 48 eb ff ff 	lea    -0x14b8(%rbp),%rax
    66d0:	48 89 85 10 f6 ff ff 	mov    %rax,-0x9f0(%rbp)
    66d7:	48 8d 05 52 fb 00 00 	lea    0xfb52(%rip),%rax        # 16230 <g_667>
    66de:	48 89 85 18 f6 ff ff 	mov    %rax,-0x9e8(%rbp)
    66e5:	48 c7 85 20 f6 ff ff 	movq   $0x0,-0x9e0(%rbp)
    66ec:	00 00 00 00 
    66f0:	48 8d 05 f9 f9 00 00 	lea    0xf9f9(%rip),%rax        # 160f0 <g_107>
    66f7:	48 89 85 28 f6 ff ff 	mov    %rax,-0x9d8(%rbp)
    66fe:	48 8d 05 ab f9 00 00 	lea    0xf9ab(%rip),%rax        # 160b0 <g_46>
    6705:	48 89 85 30 f6 ff ff 	mov    %rax,-0x9d0(%rbp)
    670c:	48 8d 05 1d fb 00 00 	lea    0xfb1d(%rip),%rax        # 16230 <g_667>
    6713:	48 89 85 38 f6 ff ff 	mov    %rax,-0x9c8(%rbp)
    671a:	48 8d 05 bb f9 00 00 	lea    0xf9bb(%rip),%rax        # 160dc <g_81>
    6721:	48 89 85 40 f6 ff ff 	mov    %rax,-0x9c0(%rbp)
    6728:	48 8d 05 ad f9 00 00 	lea    0xf9ad(%rip),%rax        # 160dc <g_81>
    672f:	48 89 85 48 f6 ff ff 	mov    %rax,-0x9b8(%rbp)
    6736:	48 8d 05 b3 f9 00 00 	lea    0xf9b3(%rip),%rax        # 160f0 <g_107>
    673d:	48 89 85 50 f6 ff ff 	mov    %rax,-0x9b0(%rbp)
    6744:	48 8d 05 91 f9 00 00 	lea    0xf991(%rip),%rax        # 160dc <g_81>
    674b:	48 89 85 58 f6 ff ff 	mov    %rax,-0x9a8(%rbp)
    6752:	48 8d 05 83 f9 00 00 	lea    0xf983(%rip),%rax        # 160dc <g_81>
    6759:	48 89 85 60 f6 ff ff 	mov    %rax,-0x9a0(%rbp)
    6760:	48 8d 05 75 f9 00 00 	lea    0xf975(%rip),%rax        # 160dc <g_81>
    6767:	48 89 85 68 f6 ff ff 	mov    %rax,-0x998(%rbp)
    676e:	48 c7 85 70 f6 ff ff 	movq   $0x0,-0x990(%rbp)
    6775:	00 00 00 00 
    6779:	48 c7 85 78 f6 ff ff 	movq   $0x0,-0x988(%rbp)
    6780:	00 00 00 00 
    6784:	48 8d 05 65 f9 00 00 	lea    0xf965(%rip),%rax        # 160f0 <g_107>
    678b:	48 89 85 80 f6 ff ff 	mov    %rax,-0x980(%rbp)
    6792:	48 8d 05 97 fa 00 00 	lea    0xfa97(%rip),%rax        # 16230 <g_667>
    6799:	48 89 85 88 f6 ff ff 	mov    %rax,-0x978(%rbp)
    67a0:	48 8d 05 89 fa 00 00 	lea    0xfa89(%rip),%rax        # 16230 <g_667>
    67a7:	48 89 85 90 f6 ff ff 	mov    %rax,-0x970(%rbp)
    67ae:	48 8d 85 48 eb ff ff 	lea    -0x14b8(%rbp),%rax
    67b5:	48 89 85 98 f6 ff ff 	mov    %rax,-0x968(%rbp)
    67bc:	48 8d 05 19 f9 00 00 	lea    0xf919(%rip),%rax        # 160dc <g_81>
    67c3:	48 89 85 a0 f6 ff ff 	mov    %rax,-0x960(%rbp)
    67ca:	48 c7 85 a8 f6 ff ff 	movq   $0x0,-0x958(%rbp)
    67d1:	00 00 00 00 
    67d5:	48 8d 05 14 f9 00 00 	lea    0xf914(%rip),%rax        # 160f0 <g_107>
    67dc:	48 89 85 b0 f6 ff ff 	mov    %rax,-0x950(%rbp)
    67e3:	48 c7 85 b8 f6 ff ff 	movq   $0x0,-0x948(%rbp)
    67ea:	00 00 00 00 
    67ee:	48 8d 05 e7 f8 00 00 	lea    0xf8e7(%rip),%rax        # 160dc <g_81>
    67f5:	48 89 85 c0 f6 ff ff 	mov    %rax,-0x940(%rbp)
    67fc:	48 8d 05 ed f8 00 00 	lea    0xf8ed(%rip),%rax        # 160f0 <g_107>
    6803:	48 89 85 c8 f6 ff ff 	mov    %rax,-0x938(%rbp)
    680a:	48 8d 05 9f f8 00 00 	lea    0xf89f(%rip),%rax        # 160b0 <g_46>
    6811:	48 89 85 d0 f6 ff ff 	mov    %rax,-0x930(%rbp)
    6818:	48 8d 05 bd f8 00 00 	lea    0xf8bd(%rip),%rax        # 160dc <g_81>
    681f:	48 89 85 d8 f6 ff ff 	mov    %rax,-0x928(%rbp)
    6826:	48 8d 05 af f8 00 00 	lea    0xf8af(%rip),%rax        # 160dc <g_81>
    682d:	48 89 85 e0 f6 ff ff 	mov    %rax,-0x920(%rbp)
    6834:	48 8d 05 b5 f8 00 00 	lea    0xf8b5(%rip),%rax        # 160f0 <g_107>
    683b:	48 89 85 e8 f6 ff ff 	mov    %rax,-0x918(%rbp)
    6842:	48 8d 05 67 f8 00 00 	lea    0xf867(%rip),%rax        # 160b0 <g_46>
    6849:	48 89 85 f0 f6 ff ff 	mov    %rax,-0x910(%rbp)
    6850:	48 8d 05 d9 f9 00 00 	lea    0xf9d9(%rip),%rax        # 16230 <g_667>
    6857:	48 89 85 f8 f6 ff ff 	mov    %rax,-0x908(%rbp)
    685e:	48 8d 05 8b f8 00 00 	lea    0xf88b(%rip),%rax        # 160f0 <g_107>
    6865:	48 89 85 00 f7 ff ff 	mov    %rax,-0x900(%rbp)
    686c:	48 c7 85 08 f7 ff ff 	movq   $0x0,-0x8f8(%rbp)
    6873:	00 00 00 00 
    6877:	48 8d 05 72 f8 00 00 	lea    0xf872(%rip),%rax        # 160f0 <g_107>
    687e:	48 89 85 10 f7 ff ff 	mov    %rax,-0x8f0(%rbp)
    6885:	48 8d 05 a4 f9 00 00 	lea    0xf9a4(%rip),%rax        # 16230 <g_667>
    688c:	48 89 85 18 f7 ff ff 	mov    %rax,-0x8e8(%rbp)
    6893:	48 8d 05 96 f9 00 00 	lea    0xf996(%rip),%rax        # 16230 <g_667>
    689a:	48 89 85 20 f7 ff ff 	mov    %rax,-0x8e0(%rbp)
    68a1:	48 8d 05 34 f8 00 00 	lea    0xf834(%rip),%rax        # 160dc <g_81>
    68a8:	48 89 85 28 f7 ff ff 	mov    %rax,-0x8d8(%rbp)
    68af:	48 8d 05 26 f8 00 00 	lea    0xf826(%rip),%rax        # 160dc <g_81>
    68b6:	48 89 85 30 f7 ff ff 	mov    %rax,-0x8d0(%rbp)
    68bd:	48 8d 05 18 f8 00 00 	lea    0xf818(%rip),%rax        # 160dc <g_81>
    68c4:	48 89 85 38 f7 ff ff 	mov    %rax,-0x8c8(%rbp)
    68cb:	48 c7 85 40 f7 ff ff 	movq   $0x0,-0x8c0(%rbp)
    68d2:	00 00 00 00 
    68d6:	48 c7 85 48 f7 ff ff 	movq   $0x0,-0x8b8(%rbp)
    68dd:	00 00 00 00 
    68e1:	48 8d 05 08 f8 00 00 	lea    0xf808(%rip),%rax        # 160f0 <g_107>
    68e8:	48 89 85 50 f7 ff ff 	mov    %rax,-0x8b0(%rbp)
    68ef:	48 c7 85 58 f7 ff ff 	movq   $0x0,-0x8a8(%rbp)
    68f6:	00 00 00 00 
    68fa:	48 8d 05 2f f9 00 00 	lea    0xf92f(%rip),%rax        # 16230 <g_667>
    6901:	48 89 85 60 f7 ff ff 	mov    %rax,-0x8a0(%rbp)
    6908:	48 c7 85 68 f7 ff ff 	movq   $0x0,-0x898(%rbp)
    690f:	00 00 00 00 
    6913:	48 8d 85 48 eb ff ff 	lea    -0x14b8(%rbp),%rax
    691a:	48 89 85 70 f7 ff ff 	mov    %rax,-0x890(%rbp)
    6921:	48 8d 05 b4 f7 00 00 	lea    0xf7b4(%rip),%rax        # 160dc <g_81>
    6928:	48 89 85 78 f7 ff ff 	mov    %rax,-0x888(%rbp)
    692f:	48 8d 05 a6 f7 00 00 	lea    0xf7a6(%rip),%rax        # 160dc <g_81>
    6936:	48 89 85 80 f7 ff ff 	mov    %rax,-0x880(%rbp)
    693d:	48 c7 85 88 f7 ff ff 	movq   $0x0,-0x878(%rbp)
    6944:	00 00 00 00 
    6948:	48 c7 85 90 f7 ff ff 	movq   $0x0,-0x870(%rbp)
    694f:	00 00 00 00 
    6953:	48 8d 85 48 eb ff ff 	lea    -0x14b8(%rbp),%rax
    695a:	48 89 85 98 f7 ff ff 	mov    %rax,-0x868(%rbp)
    6961:	48 c7 85 a0 f7 ff ff 	movq   $0x0,-0x860(%rbp)
    6968:	00 00 00 00 
    696c:	48 8d 05 7d f7 00 00 	lea    0xf77d(%rip),%rax        # 160f0 <g_107>
    6973:	48 89 85 a8 f7 ff ff 	mov    %rax,-0x858(%rbp)
    697a:	48 8d 05 6f f7 00 00 	lea    0xf76f(%rip),%rax        # 160f0 <g_107>
    6981:	48 89 85 b0 f7 ff ff 	mov    %rax,-0x850(%rbp)
    6988:	48 8d 05 4d f7 00 00 	lea    0xf74d(%rip),%rax        # 160dc <g_81>
    698f:	48 89 85 b8 f7 ff ff 	mov    %rax,-0x848(%rbp)
    6996:	48 8d 05 53 f7 00 00 	lea    0xf753(%rip),%rax        # 160f0 <g_107>
    699d:	48 89 85 c0 f7 ff ff 	mov    %rax,-0x840(%rbp)
    69a4:	48 8d 05 85 f8 00 00 	lea    0xf885(%rip),%rax        # 16230 <g_667>
    69ab:	48 89 85 c8 f7 ff ff 	mov    %rax,-0x838(%rbp)
    69b2:	48 8d 05 37 f7 00 00 	lea    0xf737(%rip),%rax        # 160f0 <g_107>
    69b9:	48 89 85 d0 f7 ff ff 	mov    %rax,-0x830(%rbp)
    69c0:	48 8d 05 69 f8 00 00 	lea    0xf869(%rip),%rax        # 16230 <g_667>
    69c7:	48 89 85 d8 f7 ff ff 	mov    %rax,-0x828(%rbp)
    69ce:	48 8d 05 0b f8 00 00 	lea    0xf80b(%rip),%rax        # 161e0 <g_198+0xe0>
    69d5:	48 89 85 f0 eb ff ff 	mov    %rax,-0x1410(%rbp)
    69dc:	48 8d 05 65 f8 00 00 	lea    0xf865(%rip),%rax        # 16248 <g_1230>
    69e3:	48 89 85 f8 eb ff ff 	mov    %rax,-0x1408(%rbp)
    69ea:	66 c7 85 72 ed ff ff 	movw   $0xfffb,-0x128e(%rbp)
    69f1:	fb ff 
    69f3:	66 c7 85 74 ed ff ff 	movw   $0xfffb,-0x128c(%rbp)
    69fa:	fb ff 
    69fc:	66 c7 85 76 ed ff ff 	movw   $0xfffb,-0x128a(%rbp)
    6a03:	fb ff 
    6a05:	66 c7 85 78 ed ff ff 	movw   $0xfffb,-0x1288(%rbp)
    6a0c:	fb ff 
    6a0e:	66 c7 85 7a ed ff ff 	movw   $0xfffb,-0x1286(%rbp)
    6a15:	fb ff 
    6a17:	66 c7 85 7c ed ff ff 	movw   $0xfffb,-0x1284(%rbp)
    6a1e:	fb ff 
    6a20:	66 c7 85 7e ed ff ff 	movw   $0xfffb,-0x1282(%rbp)
    6a27:	fb ff 
    6a29:	48 8d 05 28 0f 01 00 	lea    0x10f28(%rip),%rax        # 17958 <g_596+0x18>
    6a30:	48 89 85 88 ec ff ff 	mov    %rax,-0x1378(%rbp)
    6a37:	48 8d 05 4a 0f 01 00 	lea    0x10f4a(%rip),%rax        # 17988 <g_653>
    6a3e:	48 89 85 90 ec ff ff 	mov    %rax,-0x1370(%rbp)
    6a45:	66 c7 85 3c eb ff ff 	movw   $0x39b3,-0x14c4(%rbp)
    6a4c:	b3 39 
    6a4e:	c7 85 c0 eb ff ff 09 	movl   $0x9,-0x1440(%rbp)
    6a55:	00 00 00 
    6a58:	c7 05 8e f6 00 00 06 	movl   $0x6,0xf68e(%rip)        # 160f0 <g_107>
    6a5f:	00 00 00 
    6a62:	e9 35 05 00 00       	jmpq   6f9c <func_2+0x15c1>
    6a67:	48 c7 85 20 ee ff ff 	movq   $0x0,-0x11e0(%rbp)
    6a6e:	00 00 00 00 
    6a72:	48 c7 85 28 ee ff ff 	movq   $0x0,-0x11d8(%rbp)
    6a79:	00 00 00 00 
    6a7d:	48 c7 85 30 ee ff ff 	movq   $0x0,-0x11d0(%rbp)
    6a84:	00 00 00 00 
    6a88:	48 c7 85 38 ee ff ff 	movq   $0x0,-0x11c8(%rbp)
    6a8f:	00 00 00 00 
    6a93:	48 c7 85 40 ee ff ff 	movq   $0x0,-0x11c0(%rbp)
    6a9a:	00 00 00 00 
    6a9e:	48 c7 85 48 ee ff ff 	movq   $0x0,-0x11b8(%rbp)
    6aa5:	00 00 00 00 
    6aa9:	48 c7 85 50 ee ff ff 	movq   $0x0,-0x11b0(%rbp)
    6ab0:	00 00 00 00 
    6ab4:	48 c7 85 58 ee ff ff 	movq   $0x0,-0x11a8(%rbp)
    6abb:	00 00 00 00 
    6abf:	48 c7 85 60 ee ff ff 	movq   $0x0,-0x11a0(%rbp)
    6ac6:	00 00 00 00 
    6aca:	48 c7 85 68 ee ff ff 	movq   $0x0,-0x1198(%rbp)
    6ad1:	00 00 00 00 
    6ad5:	48 c7 85 10 ed ff ff 	movq   $0x0,-0x12f0(%rbp)
    6adc:	00 00 00 00 
    6ae0:	c7 85 d8 eb ff ff 5d 	movl   $0xe7635e5d,-0x1428(%rbp)
    6ae7:	5e 63 e7 
    6aea:	48 c7 05 2b f7 00 00 	movq   $0xfffffffffffffff5,0xf72b(%rip)        # 16220 <g_294>
    6af1:	f5 ff ff ff 
    6af5:	e9 82 04 00 00       	jmpq   6f7c <func_2+0x15a1>
    6afa:	c7 85 dc eb ff ff 01 	movl   $0x1,-0x1424(%rbp)
    6b01:	00 00 00 
    6b04:	48 8d 05 8d 01 01 00 	lea    0x1018d(%rip),%rax        # 16c98 <g_1133>
    6b0b:	48 89 85 d0 ed ff ff 	mov    %rax,-0x1230(%rbp)
    6b12:	48 8d 05 7f 01 01 00 	lea    0x1017f(%rip),%rax        # 16c98 <g_1133>
    6b19:	48 89 85 d8 ed ff ff 	mov    %rax,-0x1228(%rbp)
    6b20:	48 8d 05 71 01 01 00 	lea    0x10171(%rip),%rax        # 16c98 <g_1133>
    6b27:	48 89 85 e0 ed ff ff 	mov    %rax,-0x1220(%rbp)
    6b2e:	48 8d 05 63 01 01 00 	lea    0x10163(%rip),%rax        # 16c98 <g_1133>
    6b35:	48 89 85 e8 ed ff ff 	mov    %rax,-0x1218(%rbp)
    6b3c:	48 8d 05 55 01 01 00 	lea    0x10155(%rip),%rax        # 16c98 <g_1133>
    6b43:	48 89 85 f0 ed ff ff 	mov    %rax,-0x1210(%rbp)
    6b4a:	48 8d 05 47 01 01 00 	lea    0x10147(%rip),%rax        # 16c98 <g_1133>
    6b51:	48 89 85 f8 ed ff ff 	mov    %rax,-0x1208(%rbp)
    6b58:	48 8d 05 39 01 01 00 	lea    0x10139(%rip),%rax        # 16c98 <g_1133>
    6b5f:	48 89 85 00 ee ff ff 	mov    %rax,-0x1200(%rbp)
    6b66:	48 8d 05 2b 01 01 00 	lea    0x1012b(%rip),%rax        # 16c98 <g_1133>
    6b6d:	48 89 85 08 ee ff ff 	mov    %rax,-0x11f8(%rbp)
    6b74:	48 8d 05 1d 01 01 00 	lea    0x1011d(%rip),%rax        # 16c98 <g_1133>
    6b7b:	48 89 85 10 ee ff ff 	mov    %rax,-0x11f0(%rbp)
    6b82:	48 b8 91 4b 88 97 ac 	movabs $0x8eb91dac97884b91,%rax
    6b89:	1d b9 8e 
    6b8c:	48 89 85 18 ed ff ff 	mov    %rax,-0x12e8(%rbp)
    6b93:	48 c7 85 20 ed ff ff 	movq   $0x1,-0x12e0(%rbp)
    6b9a:	01 00 00 00 
    6b9e:	c7 85 b0 eb ff ff 00 	movl   $0x0,-0x1450(%rbp)
    6ba5:	00 00 00 
    6ba8:	eb 47                	jmp    6bf1 <func_2+0x1216>
    6baa:	c7 85 b4 eb ff ff 00 	movl   $0x0,-0x144c(%rbp)
    6bb1:	00 00 00 
    6bb4:	eb 2b                	jmp    6be1 <func_2+0x1206>
    6bb6:	8b 85 b4 eb ff ff    	mov    -0x144c(%rbp),%eax
    6bbc:	48 98                	cltq   
    6bbe:	8b 95 b0 eb ff ff    	mov    -0x1450(%rbp),%edx
    6bc4:	48 63 d2             	movslq %edx,%rdx
    6bc7:	48 c1 e2 02          	shl    $0x2,%rdx
    6bcb:	48 01 d0             	add    %rdx,%rax
    6bce:	48 c7 84 c5 e0 f7 ff 	movq   $0x0,-0x820(%rbp,%rax,8)
    6bd5:	ff 00 00 00 00 
    6bda:	83 85 b4 eb ff ff 01 	addl   $0x1,-0x144c(%rbp)
    6be1:	83 bd b4 eb ff ff 03 	cmpl   $0x3,-0x144c(%rbp)
    6be8:	7e cc                	jle    6bb6 <func_2+0x11db>
    6bea:	83 85 b0 eb ff ff 01 	addl   $0x1,-0x1450(%rbp)
    6bf1:	83 bd b0 eb ff ff 08 	cmpl   $0x8,-0x1450(%rbp)
    6bf8:	7e b0                	jle    6baa <func_2+0x11cf>
    6bfa:	66 c7 05 29 f6 00 00 	movw   $0x1c,0xf629(%rip)        # 1622c <g_549>
    6c01:	1c 00 
    6c03:	eb 52                	jmp    6c57 <func_2+0x127c>
    6c05:	48 8d 05 32 f6 00 00 	lea    0xf632(%rip),%rax        # 1623e <g_895+0x6>
    6c0c:	48 89 85 68 ed ff ff 	mov    %rax,-0x1298(%rbp)
    6c13:	8b 85 44 eb ff ff    	mov    -0x14bc(%rbp),%eax
    6c19:	83 e8 01             	sub    $0x1,%eax
    6c1c:	89 85 44 eb ff ff    	mov    %eax,-0x14bc(%rbp)
    6c22:	48 83 bd 68 ed ff ff 	cmpq   $0x0,-0x1298(%rbp)
    6c29:	00 
    6c2a:	0f 95 c0             	setne  %al
    6c2d:	0f b6 d0             	movzbl %al,%edx
    6c30:	48 8b 85 78 ec ff ff 	mov    -0x1388(%rbp),%rax
    6c37:	89 10                	mov    %edx,(%rax)
    6c39:	0f b7 05 ec f5 00 00 	movzwl 0xf5ec(%rip),%eax        # 1622c <g_549>
    6c40:	0f b7 c0             	movzwl %ax,%eax
    6c43:	be 01 00 00 00       	mov    $0x1,%esi
    6c48:	48 89 c7             	mov    %rax,%rdi
    6c4b:	e8 fb e3 ff ff       	callq  504b <safe_sub_func_uint64_t_u_u>
    6c50:	66 89 05 d5 f5 00 00 	mov    %ax,0xf5d5(%rip)        # 1622c <g_549>
    6c57:	0f b7 05 ce f5 00 00 	movzwl 0xf5ce(%rip),%eax        # 1622c <g_549>
    6c5e:	66 83 f8 17          	cmp    $0x17,%ax
    6c62:	77 a1                	ja     6c05 <func_2+0x122a>
    6c64:	48 8d 05 c5 0c 01 00 	lea    0x10cc5(%rip),%rax        # 17930 <g_365>
    6c6b:	48 c7 00 00 00 00 00 	movq   $0x0,(%rax)
    6c72:	48 8b 05 1f 00 01 00 	mov    0x1001f(%rip),%rax        # 16c98 <g_1133>
    6c79:	48 89 85 68 ec ff ff 	mov    %rax,-0x1398(%rbp)
    6c80:	48 8b 05 49 fd 00 00 	mov    0xfd49(%rip),%rax        # 169d0 <g_104>
    6c87:	48 8b 00             	mov    (%rax),%rax
    6c8a:	48 8b 95 20 eb ff ff 	mov    -0x14e0(%rbp),%rdx
    6c91:	48 89 10             	mov    %rdx,(%rax)
    6c94:	48 8b 05 3d fd 00 00 	mov    0xfd3d(%rip),%rax        # 169d8 <g_280>
    6c9b:	c6 00 01             	movb   $0x1,(%rax)
    6c9e:	48 8b 05 f3 ff 00 00 	mov    0xfff3(%rip),%rax        # 16c98 <g_1133>
    6ca5:	48 8b 00             	mov    (%rax),%rax
    6ca8:	48 39 85 80 ec ff ff 	cmp    %rax,-0x1380(%rbp)
    6caf:	0f 85 47 01 00 00    	jne    6dfc <func_2+0x1421>
    6cb5:	c7 85 a0 ed ff ff 05 	movl   $0x5,-0x1260(%rbp)
    6cbc:	00 00 00 
    6cbf:	c7 85 a4 ed ff ff 05 	movl   $0x5,-0x125c(%rbp)
    6cc6:	00 00 00 
    6cc9:	c7 85 a8 ed ff ff 4b 	movl   $0xa0a4ac4b,-0x1258(%rbp)
    6cd0:	ac a4 a0 
    6cd3:	c7 85 ac ed ff ff 05 	movl   $0x5,-0x1254(%rbp)
    6cda:	00 00 00 
    6cdd:	c7 85 b0 ed ff ff 05 	movl   $0x5,-0x1250(%rbp)
    6ce4:	00 00 00 
    6ce7:	c7 85 b4 ed ff ff 4b 	movl   $0xa0a4ac4b,-0x124c(%rbp)
    6cee:	ac a4 a0 
    6cf1:	c7 85 b8 ed ff ff 05 	movl   $0x5,-0x1248(%rbp)
    6cf8:	00 00 00 
    6cfb:	c7 85 bc ed ff ff 05 	movl   $0x5,-0x1244(%rbp)
    6d02:	00 00 00 
    6d05:	c7 85 c0 ed ff ff 4b 	movl   $0xa0a4ac4b,-0x1240(%rbp)
    6d0c:	ac a4 a0 
    6d0f:	c7 85 c4 ed ff ff 05 	movl   $0x5,-0x123c(%rbp)
    6d16:	00 00 00 
    6d19:	48 8d 15 10 0c 01 00 	lea    0x10c10(%rip),%rdx        # 17930 <g_365>
    6d20:	48 8b 85 28 eb ff ff 	mov    -0x14d8(%rbp),%rax
    6d27:	48 89 02             	mov    %rax,(%rdx)
    6d2a:	48 8d 05 ff 0b 01 00 	lea    0x10bff(%rip),%rax        # 17930 <g_365>
    6d31:	48 c7 00 00 00 00 00 	movq   $0x0,(%rax)
    6d38:	8b 15 62 0c 01 00    	mov    0x10c62(%rip),%edx        # 179a0 <g_1143>
    6d3e:	48 8b 85 78 ec ff ff 	mov    -0x1388(%rbp),%rax
    6d45:	89 10                	mov    %edx,(%rax)
    6d47:	48 8b 85 78 ec ff ff 	mov    -0x1388(%rbp),%rax
    6d4e:	8b 00                	mov    (%rax),%eax
    6d50:	3d 7b 4b 00 00       	cmp    $0x4b7b,%eax
    6d55:	48 8b 85 e8 eb ff ff 	mov    -0x1418(%rbp),%rax
    6d5c:	48 8d 15 1d ff 00 00 	lea    0xff1d(%rip),%rdx        # 16c80 <g_965>
    6d63:	48 39 d0             	cmp    %rdx,%rax
    6d66:	8b 95 a4 ed ff ff    	mov    -0x125c(%rbp),%edx
    6d6c:	48 8b 85 40 ee ff ff 	mov    -0x11c0(%rbp),%rax
    6d73:	48 39 85 60 ec ff ff 	cmp    %rax,-0x13a0(%rbp)
    6d7a:	0f 95 c0             	setne  %al
    6d7d:	0f b6 c8             	movzbl %al,%ecx
    6d80:	48 8b 85 78 ec ff ff 	mov    -0x1388(%rbp),%rax
    6d87:	8b 00                	mov    (%rax),%eax
    6d89:	39 c1                	cmp    %eax,%ecx
    6d8b:	0f 9d c0             	setge  %al
    6d8e:	0f b6 c0             	movzbl %al,%eax
    6d91:	39 c2                	cmp    %eax,%edx
    6d93:	0f 9f c2             	setg   %dl
    6d96:	48 8b 05 3b fc 00 00 	mov    0xfc3b(%rip),%rax        # 169d8 <g_280>
    6d9d:	88 10                	mov    %dl,(%rax)
    6d9f:	0f b6 00             	movzbl (%rax),%eax
    6da2:	0f b6 c0             	movzbl %al,%eax
    6da5:	8b 95 44 eb ff ff    	mov    -0x14bc(%rbp),%edx
    6dab:	09 d0                	or     %edx,%eax
    6dad:	98                   	cwtl   
    6dae:	be 0c 00 00 00       	mov    $0xc,%esi
    6db3:	89 c7                	mov    %eax,%edi
    6db5:	e8 d8 d6 ff ff       	callq  4492 <safe_lshift_func_int16_t_s_s>
    6dba:	89 c1                	mov    %eax,%ecx
    6dbc:	8b 85 dc eb ff ff    	mov    -0x1424(%rbp),%eax
    6dc2:	89 c2                	mov    %eax,%edx
    6dc4:	48 8b 05 cd fe 00 00 	mov    0xfecd(%rip),%rax        # 16c98 <g_1133>
    6dcb:	48 8b 00             	mov    (%rax),%rax
    6dce:	31 ca                	xor    %ecx,%edx
    6dd0:	88 10                	mov    %dl,(%rax)
    6dd2:	0f b6 00             	movzbl (%rax),%eax
    6dd5:	0f be d0             	movsbl %al,%edx
    6dd8:	8b 85 c0 ed ff ff    	mov    -0x1240(%rbp),%eax
    6dde:	21 d0                	and    %edx,%eax
    6de0:	83 f8 08             	cmp    $0x8,%eax
    6de3:	0f 95 c0             	setne  %al
    6de6:	0f b6 d0             	movzbl %al,%edx
    6de9:	8b 85 48 eb ff ff    	mov    -0x14b8(%rbp),%eax
    6def:	09 d0                	or     %edx,%eax
    6df1:	89 85 48 eb ff ff    	mov    %eax,-0x14b8(%rbp)
    6df7:	e9 60 01 00 00       	jmpq   6f5c <func_2+0x1581>
    6dfc:	48 8d 05 dd fb 00 00 	lea    0xfbdd(%rip),%rax        # 169e0 <g_279>
    6e03:	48 89 85 28 ed ff ff 	mov    %rax,-0x12d8(%rbp)
    6e0a:	48 8d 05 cf fb 00 00 	lea    0xfbcf(%rip),%rax        # 169e0 <g_279>
    6e11:	48 89 85 30 ed ff ff 	mov    %rax,-0x12d0(%rbp)
    6e18:	48 8d 05 c1 fb 00 00 	lea    0xfbc1(%rip),%rax        # 169e0 <g_279>
    6e1f:	48 89 85 38 ed ff ff 	mov    %rax,-0x12c8(%rbp)
    6e26:	48 8d 05 b3 fb 00 00 	lea    0xfbb3(%rip),%rax        # 169e0 <g_279>
    6e2d:	48 89 85 40 ed ff ff 	mov    %rax,-0x12c0(%rbp)
    6e34:	48 8d 05 a5 fb 00 00 	lea    0xfba5(%rip),%rax        # 169e0 <g_279>
    6e3b:	48 89 85 48 ed ff ff 	mov    %rax,-0x12b8(%rbp)
    6e42:	48 c7 85 50 ed ff ff 	movq   $0x0,-0x12b0(%rbp)
    6e49:	00 00 00 00 
    6e4d:	48 8d 05 8c fb 00 00 	lea    0xfb8c(%rip),%rax        # 169e0 <g_279>
    6e54:	48 89 85 58 ed ff ff 	mov    %rax,-0x12a8(%rbp)
    6e5b:	48 8d 05 76 fb 00 00 	lea    0xfb76(%rip),%rax        # 169d8 <g_280>
    6e62:	48 89 85 60 ed ff ff 	mov    %rax,-0x12a0(%rbp)
    6e69:	8b 05 41 f2 00 00    	mov    0xf241(%rip),%eax        # 160b0 <g_46>
    6e6f:	41 89 c5             	mov    %eax,%r13d
    6e72:	48 8d 05 5f fb 00 00 	lea    0xfb5f(%rip),%rax        # 169d8 <g_280>
    6e79:	48 89 85 60 ed ff ff 	mov    %rax,-0x12a0(%rbp)
    6e80:	48 8b 85 60 ed ff ff 	mov    -0x12a0(%rbp),%rax
    6e87:	48 3b 85 48 ec ff ff 	cmp    -0x13b8(%rbp),%rax
    6e8e:	0f 95 c0             	setne  %al
    6e91:	0f b6 d8             	movzbl %al,%ebx
    6e94:	48 8b 85 18 ed ff ff 	mov    -0x12e8(%rbp),%rax
    6e9b:	98                   	cwtl   
    6e9c:	89 c6                	mov    %eax,%esi
    6e9e:	bf 01 00 00 00       	mov    $0x1,%edi
    6ea3:	e8 0b d5 ff ff       	callq  43b3 <safe_add_func_int16_t_s_s>
    6ea8:	44 0f bf e0          	movswl %ax,%r12d
    6eac:	be 0b 00 00 00       	mov    $0xb,%esi
    6eb1:	bf 01 00 00 00       	mov    $0x1,%edi
    6eb6:	e8 26 d6 ff ff       	callq  44e1 <safe_lshift_func_int16_t_s_u>
    6ebb:	0f bf d0             	movswl %ax,%edx
    6ebe:	8b 85 48 eb ff ff    	mov    -0x14b8(%rbp),%eax
    6ec4:	39 c2                	cmp    %eax,%edx
    6ec6:	0f 95 c0             	setne  %al
    6ec9:	0f b6 c0             	movzbl %al,%eax
    6ecc:	41 39 c4             	cmp    %eax,%r12d
    6ecf:	0f 9c c0             	setl   %al
    6ed2:	0f b6 c0             	movzbl %al,%eax
    6ed5:	33 85 d8 eb ff ff    	xor    -0x1428(%rbp),%eax
    6edb:	39 c3                	cmp    %eax,%ebx
    6edd:	0f 95 c0             	setne  %al
    6ee0:	0f b6 d0             	movzbl %al,%edx
    6ee3:	8b 85 44 eb ff ff    	mov    -0x14bc(%rbp),%eax
    6ee9:	09 c2                	or     %eax,%edx
    6eeb:	48 8b 05 e6 fa 00 00 	mov    0xfae6(%rip),%rax        # 169d8 <g_280>
    6ef2:	0f b6 00             	movzbl (%rax),%eax
    6ef5:	0f b6 c0             	movzbl %al,%eax
    6ef8:	39 c2                	cmp    %eax,%edx
    6efa:	0f 95 c0             	setne  %al
    6efd:	0f b6 c0             	movzbl %al,%eax
    6f00:	be 31 00 00 00       	mov    $0x31,%esi
    6f05:	89 c7                	mov    %eax,%edi
    6f07:	e8 6c dc ff ff       	callq  4b78 <safe_sub_func_uint8_t_u_u>
    6f0c:	0f b6 c0             	movzbl %al,%eax
    6f0f:	66 35 2f d5          	xor    $0xd52f,%ax
    6f13:	89 c2                	mov    %eax,%edx
    6f15:	48 8b 85 20 ed ff ff 	mov    -0x12e0(%rbp),%rax
    6f1c:	31 d0                	xor    %edx,%eax
    6f1e:	98                   	cwtl   
    6f1f:	44 89 ee             	mov    %r13d,%esi
    6f22:	89 c7                	mov    %eax,%edi
    6f24:	e8 b8 d5 ff ff       	callq  44e1 <safe_lshift_func_int16_t_s_u>
    6f29:	0f b7 d0             	movzwl %ax,%edx
    6f2c:	0f b7 05 f9 f2 00 00 	movzwl 0xf2f9(%rip),%eax        # 1622c <g_549>
    6f33:	83 c0 01             	add    $0x1,%eax
    6f36:	66 89 05 ef f2 00 00 	mov    %ax,0xf2ef(%rip)        # 1622c <g_549>
    6f3d:	0f b7 05 e8 f2 00 00 	movzwl 0xf2e8(%rip),%eax        # 1622c <g_549>
    6f44:	0f b7 c0             	movzwl %ax,%eax
    6f47:	89 d6                	mov    %edx,%esi
    6f49:	89 c7                	mov    %eax,%edi
    6f4b:	e8 cf dd ff ff       	callq  4d1f <safe_sub_func_uint16_t_u_u>
    6f50:	0f b7 d0             	movzwl %ax,%edx
    6f53:	48 8b 85 78 ec ff ff 	mov    -0x1388(%rbp),%rax
    6f5a:	89 10                	mov    %edx,(%rax)
    6f5c:	48 8b 05 bd f2 00 00 	mov    0xf2bd(%rip),%rax        # 16220 <g_294>
    6f63:	0f b6 c0             	movzbl %al,%eax
    6f66:	be 06 00 00 00       	mov    $0x6,%esi
    6f6b:	89 c7                	mov    %eax,%edi
    6f6d:	e8 06 dc ff ff       	callq  4b78 <safe_sub_func_uint8_t_u_u>
    6f72:	0f b6 c0             	movzbl %al,%eax
    6f75:	48 89 05 a4 f2 00 00 	mov    %rax,0xf2a4(%rip)        # 16220 <g_294>
    6f7c:	48 8b 05 9d f2 00 00 	mov    0xf29d(%rip),%rax        # 16220 <g_294>
    6f83:	48 83 f8 ef          	cmp    $0xffffffffffffffef,%rax
    6f87:	0f 8c 6d fb ff ff    	jl     6afa <func_2+0x111f>
    6f8d:	8b 05 5d f1 00 00    	mov    0xf15d(%rip),%eax        # 160f0 <g_107>
    6f93:	83 e8 01             	sub    $0x1,%eax
    6f96:	89 05 54 f1 00 00    	mov    %eax,0xf154(%rip)        # 160f0 <g_107>
    6f9c:	8b 05 4e f1 00 00    	mov    0xf14e(%rip),%eax        # 160f0 <g_107>
    6fa2:	83 f8 e9             	cmp    $0xffffffe9,%eax
    6fa5:	0f 8c bc fa ff ff    	jl     6a67 <func_2+0x108c>
    6fab:	48 8b 85 78 ec ff ff 	mov    -0x1388(%rbp),%rax
    6fb2:	c7 00 01 00 00 00    	movl   $0x1,(%rax)
    6fb8:	66 83 ad 3a eb ff ff 	subw   $0x1,-0x14c6(%rbp)
    6fbf:	01 
    6fc0:	48 8b 85 08 ec ff ff 	mov    -0x13f8(%rbp),%rax
    6fc7:	8b 00                	mov    (%rax),%eax
    6fc9:	0f be d8             	movsbl %al,%ebx
    6fcc:	0f b7 85 72 ed ff ff 	movzwl -0x128e(%rbp),%eax
    6fd3:	44 0f bf e0          	movswl %ax,%r12d
    6fd7:	8b 05 c3 09 01 00    	mov    0x109c3(%rip),%eax        # 179a0 <g_1143>
    6fdd:	4c 63 e8             	movslq %eax,%r13
    6fe0:	48 8b 85 20 ec ff ff 	mov    -0x13e0(%rbp),%rax
    6fe7:	8b 10                	mov    (%rax),%edx
    6fe9:	48 8b 85 f0 eb ff ff 	mov    -0x1410(%rbp),%rax
    6ff0:	66 89 10             	mov    %dx,(%rax)
    6ff3:	0f b7 00             	movzwl (%rax),%eax
    6ff6:	66 85 c0             	test   %ax,%ax
    6ff9:	75 3a                	jne    7035 <func_2+0x165a>
    6ffb:	8b 85 44 eb ff ff    	mov    -0x14bc(%rbp),%eax
    7001:	89 c2                	mov    %eax,%edx
    7003:	8b 05 e7 f0 00 00    	mov    0xf0e7(%rip),%eax        # 160f0 <g_107>
    7009:	85 c0                	test   %eax,%eax
    700b:	0f 95 c0             	setne  %al
    700e:	0f b6 c0             	movzbl %al,%eax
    7011:	89 d6                	mov    %edx,%esi
    7013:	89 c7                	mov    %eax,%edi
    7015:	e8 78 d4 ff ff       	callq  4492 <safe_lshift_func_int16_t_s_s>
    701a:	48 0f bf d0          	movswq %ax,%rdx
    701e:	48 8b 05 23 09 01 00 	mov    0x10923(%rip),%rax        # 17948 <g_596+0x8>
    7025:	48 09 c2             	or     %rax,%rdx
    7028:	8b 85 4c eb ff ff    	mov    -0x14b4(%rbp),%eax
    702e:	48 98                	cltq   
    7030:	48 39 c2             	cmp    %rax,%rdx
    7033:	7c 07                	jl     703c <func_2+0x1661>
    7035:	b9 01 00 00 00       	mov    $0x1,%ecx
    703a:	eb 05                	jmp    7041 <func_2+0x1666>
    703c:	b9 00 00 00 00       	mov    $0x0,%ecx
    7041:	48 8b 85 78 ec ff ff 	mov    -0x1388(%rbp),%rax
    7048:	8b 10                	mov    (%rax),%edx
    704a:	48 8b 85 78 ec ff ff 	mov    -0x1388(%rbp),%rax
    7051:	89 10                	mov    %edx,(%rax)
    7053:	48 8b 85 78 ec ff ff 	mov    -0x1388(%rbp),%rax
    705a:	8b 00                	mov    (%rax),%eax
    705c:	89 ce                	mov    %ecx,%esi
    705e:	89 c7                	mov    %eax,%edi
    7060:	e8 a0 d5 ff ff       	callq  4605 <safe_sub_func_int32_t_s_s>
    7065:	83 f8 76             	cmp    $0x76,%eax
    7068:	0f 95 c0             	setne  %al
    706b:	0f b6 d0             	movzbl %al,%edx
    706e:	48 8d 05 3f f0 00 00 	lea    0xf03f(%rip),%rax        # 160b4 <g_53>
    7075:	0f b6 00             	movzbl (%rax),%eax
    7078:	0f b6 c0             	movzbl %al,%eax
    707b:	39 c2                	cmp    %eax,%edx
    707d:	7d 07                	jge    7086 <func_2+0x16ab>
    707f:	ba 01 00 00 00       	mov    $0x1,%edx
    7084:	eb 05                	jmp    708b <func_2+0x16b0>
    7086:	ba 00 00 00 00       	mov    $0x0,%edx
    708b:	48 8b 85 40 ec ff ff 	mov    -0x13c0(%rbp),%rax
    7092:	8b 00                	mov    (%rax),%eax
    7094:	98                   	cwtl   
    7095:	89 d6                	mov    %edx,%esi
    7097:	89 c7                	mov    %eax,%edi
    7099:	e8 57 d3 ff ff       	callq  43f5 <safe_mul_func_int16_t_s_s>
    709e:	48 0f bf c0          	movswq %ax,%rax
    70a2:	4c 89 ee             	mov    %r13,%rsi
    70a5:	48 89 c7             	mov    %rax,%rdi
    70a8:	e8 fb d7 ff ff       	callq  48a8 <safe_sub_func_int64_t_s_s>
    70ad:	0c db                	or     $0xdb,%al
    70af:	48 89 c1             	mov    %rax,%rcx
    70b2:	48 8b 85 f8 eb ff ff 	mov    -0x1408(%rbp),%rax
    70b9:	0f b7 10             	movzwl (%rax),%edx
    70bc:	48 8b 85 f8 eb ff ff 	mov    -0x1408(%rbp),%rax
    70c3:	21 ca                	and    %ecx,%edx
    70c5:	66 89 10             	mov    %dx,(%rax)
    70c8:	0f b7 00             	movzwl (%rax),%eax
    70cb:	0f b7 c0             	movzwl %ax,%eax
    70ce:	44 89 e6             	mov    %r12d,%esi
    70d1:	89 c7                	mov    %eax,%edi
    70d3:	e8 70 dd ff ff       	callq  4e48 <safe_rshift_func_uint16_t_u_s>
    70d8:	0f b7 d0             	movzwl %ax,%edx
    70db:	48 8b 85 58 ec ff ff 	mov    -0x13a8(%rbp),%rax
    70e2:	89 10                	mov    %edx,(%rax)
    70e4:	48 8b 85 58 ec ff ff 	mov    -0x13a8(%rbp),%rax
    70eb:	8b 00                	mov    (%rax),%eax
    70ed:	0f be c0             	movsbl %al,%eax
    70f0:	89 de                	mov    %ebx,%esi
    70f2:	89 c7                	mov    %eax,%edi
    70f4:	e8 f9 d0 ff ff       	callq  41f2 <safe_sub_func_int8_t_s_s>
    70f9:	48 8b 05 98 fb 00 00 	mov    0xfb98(%rip),%rax        # 16c98 <g_1133>
    7100:	48 8b 00             	mov    (%rax),%rax
    7103:	0f b6 10             	movzbl (%rax),%edx
    7106:	48 8b 85 80 ec ff ff 	mov    -0x1380(%rbp),%rax
    710d:	88 10                	mov    %dl,(%rax)
    710f:	48 8b 85 80 ec ff ff 	mov    -0x1380(%rbp),%rax
    7116:	0f b6 00             	movzbl (%rax),%eax
    7119:	3c 01                	cmp    $0x1,%al
    711b:	0f 95 c0             	setne  %al
    711e:	0f b6 c0             	movzbl %al,%eax
    7121:	31 85 50 eb ff ff    	xor    %eax,-0x14b0(%rbp)
    7127:	83 bd 50 eb ff ff 00 	cmpl   $0x0,-0x14b0(%rbp)
    712e:	74 0b                	je     713b <func_2+0x1760>
    7130:	48 8b 85 78 ec ff ff 	mov    -0x1388(%rbp),%rax
    7137:	8b 00                	mov    (%rax),%eax
    7139:	85 c0                	test   %eax,%eax
    713b:	48 8d 85 e0 eb ff ff 	lea    -0x1420(%rbp),%rax
    7142:	48 89 85 98 ec ff ff 	mov    %rax,-0x1368(%rbp)
    7149:	c7 85 b8 eb ff ff 58 	movl   $0x87321058,-0x1448(%rbp)
    7150:	10 32 87 
    7153:	c7 85 d0 ed ff ff ff 	movl   $0xffffffff,-0x1230(%rbp)
    715a:	ff ff ff 
    715d:	c7 85 d4 ed ff ff 97 	movl   $0xd0308997,-0x122c(%rbp)
    7164:	89 30 d0 
    7167:	c7 85 d8 ed ff ff ff 	movl   $0xffffffff,-0x1228(%rbp)
    716e:	ff ff ff 
    7171:	c7 85 dc ed ff ff 97 	movl   $0xd0308997,-0x1224(%rbp)
    7178:	89 30 d0 
    717b:	c7 85 e0 ed ff ff ff 	movl   $0xffffffff,-0x1220(%rbp)
    7182:	ff ff ff 
    7185:	c7 85 e4 ed ff ff 97 	movl   $0xd0308997,-0x121c(%rbp)
    718c:	89 30 d0 
    718f:	c7 85 e8 ed ff ff ff 	movl   $0xffffffff,-0x1218(%rbp)
    7196:	ff ff ff 
    7199:	c7 85 ec ed ff ff 97 	movl   $0xd0308997,-0x1214(%rbp)
    71a0:	89 30 d0 
    71a3:	48 c7 85 e0 f7 ff ff 	movq   $0x0,-0x820(%rbp)
    71aa:	00 00 00 00 
    71ae:	48 c7 85 e8 f7 ff ff 	movq   $0x0,-0x818(%rbp)
    71b5:	00 00 00 00 
    71b9:	48 8d 85 f8 eb ff ff 	lea    -0x1408(%rbp),%rax
    71c0:	48 89 85 f0 f7 ff ff 	mov    %rax,-0x810(%rbp)
    71c7:	48 8d 05 92 02 01 00 	lea    0x10292(%rip),%rax        # 17460 <g_1353>
    71ce:	48 89 85 f8 f7 ff ff 	mov    %rax,-0x808(%rbp)
    71d5:	48 8d 05 84 02 01 00 	lea    0x10284(%rip),%rax        # 17460 <g_1353>
    71dc:	48 89 85 00 f8 ff ff 	mov    %rax,-0x800(%rbp)
    71e3:	48 8d 05 76 02 01 00 	lea    0x10276(%rip),%rax        # 17460 <g_1353>
    71ea:	48 89 85 08 f8 ff ff 	mov    %rax,-0x7f8(%rbp)
    71f1:	48 8d 85 f8 eb ff ff 	lea    -0x1408(%rbp),%rax
    71f8:	48 89 85 10 f8 ff ff 	mov    %rax,-0x7f0(%rbp)
    71ff:	48 8d 05 5a 02 01 00 	lea    0x1025a(%rip),%rax        # 17460 <g_1353>
    7206:	48 89 85 18 f8 ff ff 	mov    %rax,-0x7e8(%rbp)
    720d:	48 8d 85 f8 eb ff ff 	lea    -0x1408(%rbp),%rax
    7214:	48 89 85 20 f8 ff ff 	mov    %rax,-0x7e0(%rbp)
    721b:	48 8d 05 3e 02 01 00 	lea    0x1023e(%rip),%rax        # 17460 <g_1353>
    7222:	48 89 85 28 f8 ff ff 	mov    %rax,-0x7d8(%rbp)
    7229:	48 8d 85 f8 eb ff ff 	lea    -0x1408(%rbp),%rax
    7230:	48 89 85 30 f8 ff ff 	mov    %rax,-0x7d0(%rbp)
    7237:	48 c7 85 38 f8 ff ff 	movq   $0x0,-0x7c8(%rbp)
    723e:	00 00 00 00 
    7242:	48 8d 85 f8 eb ff ff 	lea    -0x1408(%rbp),%rax
    7249:	48 89 85 40 f8 ff ff 	mov    %rax,-0x7c0(%rbp)
    7250:	48 8d 05 09 02 01 00 	lea    0x10209(%rip),%rax        # 17460 <g_1353>
    7257:	48 89 85 48 f8 ff ff 	mov    %rax,-0x7b8(%rbp)
    725e:	48 8d 05 fb 01 01 00 	lea    0x101fb(%rip),%rax        # 17460 <g_1353>
    7265:	48 89 85 50 f8 ff ff 	mov    %rax,-0x7b0(%rbp)
    726c:	48 8d 85 f8 eb ff ff 	lea    -0x1408(%rbp),%rax
    7273:	48 89 85 58 f8 ff ff 	mov    %rax,-0x7a8(%rbp)
    727a:	48 8d 05 df 01 01 00 	lea    0x101df(%rip),%rax        # 17460 <g_1353>
    7281:	48 89 85 60 f8 ff ff 	mov    %rax,-0x7a0(%rbp)
    7288:	48 8d 85 f0 eb ff ff 	lea    -0x1410(%rbp),%rax
    728f:	48 89 85 68 f8 ff ff 	mov    %rax,-0x798(%rbp)
    7296:	48 8d 85 f0 eb ff ff 	lea    -0x1410(%rbp),%rax
    729d:	48 89 85 70 f8 ff ff 	mov    %rax,-0x790(%rbp)
    72a4:	48 8d 85 f0 eb ff ff 	lea    -0x1410(%rbp),%rax
    72ab:	48 89 85 78 f8 ff ff 	mov    %rax,-0x788(%rbp)
    72b2:	48 8d 85 f0 eb ff ff 	lea    -0x1410(%rbp),%rax
    72b9:	48 89 85 80 f8 ff ff 	mov    %rax,-0x780(%rbp)
    72c0:	48 8d 85 f0 eb ff ff 	lea    -0x1410(%rbp),%rax
    72c7:	48 89 85 88 f8 ff ff 	mov    %rax,-0x778(%rbp)
    72ce:	48 c7 85 90 f8 ff ff 	movq   $0x0,-0x770(%rbp)
    72d5:	00 00 00 00 
    72d9:	48 8d 05 80 01 01 00 	lea    0x10180(%rip),%rax        # 17460 <g_1353>
    72e0:	48 89 85 98 f8 ff ff 	mov    %rax,-0x768(%rbp)
    72e7:	48 8d 85 f0 eb ff ff 	lea    -0x1410(%rbp),%rax
    72ee:	48 89 85 a0 f8 ff ff 	mov    %rax,-0x760(%rbp)
    72f5:	48 8d 85 f8 eb ff ff 	lea    -0x1408(%rbp),%rax
    72fc:	48 89 85 a8 f8 ff ff 	mov    %rax,-0x758(%rbp)
    7303:	48 8d 85 f8 eb ff ff 	lea    -0x1408(%rbp),%rax
    730a:	48 89 85 b0 f8 ff ff 	mov    %rax,-0x750(%rbp)
    7311:	48 c7 85 b8 f8 ff ff 	movq   $0x0,-0x748(%rbp)
    7318:	00 00 00 00 
    731c:	48 8d 85 f8 eb ff ff 	lea    -0x1408(%rbp),%rax
    7323:	48 89 85 c0 f8 ff ff 	mov    %rax,-0x740(%rbp)
    732a:	48 c7 85 c8 f8 ff ff 	movq   $0x0,-0x738(%rbp)
    7331:	00 00 00 00 
    7335:	48 c7 85 d0 f8 ff ff 	movq   $0x0,-0x730(%rbp)
    733c:	00 00 00 00 
    7340:	48 8d 05 19 01 01 00 	lea    0x10119(%rip),%rax        # 17460 <g_1353>
    7347:	48 89 85 d8 f8 ff ff 	mov    %rax,-0x728(%rbp)
    734e:	48 8d 85 f8 eb ff ff 	lea    -0x1408(%rbp),%rax
    7355:	48 89 85 e0 f8 ff ff 	mov    %rax,-0x720(%rbp)
    735c:	48 8d 05 fd 00 01 00 	lea    0x100fd(%rip),%rax        # 17460 <g_1353>
    7363:	48 89 85 e8 f8 ff ff 	mov    %rax,-0x718(%rbp)
    736a:	48 c7 85 f0 f8 ff ff 	movq   $0x0,-0x710(%rbp)
    7371:	00 00 00 00 
    7375:	48 8d 85 f0 eb ff ff 	lea    -0x1410(%rbp),%rax
    737c:	48 89 85 f8 f8 ff ff 	mov    %rax,-0x708(%rbp)
    7383:	48 8d 85 f0 eb ff ff 	lea    -0x1410(%rbp),%rax
    738a:	48 89 85 00 f9 ff ff 	mov    %rax,-0x700(%rbp)
    7391:	48 8d 85 f8 eb ff ff 	lea    -0x1408(%rbp),%rax
    7398:	48 89 85 08 f9 ff ff 	mov    %rax,-0x6f8(%rbp)
    739f:	48 8d 85 f8 eb ff ff 	lea    -0x1408(%rbp),%rax
    73a6:	48 89 85 10 f9 ff ff 	mov    %rax,-0x6f0(%rbp)
    73ad:	48 8d 05 ac 00 01 00 	lea    0x100ac(%rip),%rax        # 17460 <g_1353>
    73b4:	48 89 85 18 f9 ff ff 	mov    %rax,-0x6e8(%rbp)
    73bb:	48 c7 85 20 f9 ff ff 	movq   $0x0,-0x6e0(%rbp)
    73c2:	00 00 00 00 
    73c6:	48 8d 85 f8 eb ff ff 	lea    -0x1408(%rbp),%rax
    73cd:	48 89 85 28 f9 ff ff 	mov    %rax,-0x6d8(%rbp)
    73d4:	48 8d 05 85 00 01 00 	lea    0x10085(%rip),%rax        # 17460 <g_1353>
    73db:	48 89 85 30 f9 ff ff 	mov    %rax,-0x6d0(%rbp)
    73e2:	48 c7 85 38 f9 ff ff 	movq   $0x0,-0x6c8(%rbp)
    73e9:	00 00 00 00 
    73ed:	48 8d 85 f8 eb ff ff 	lea    -0x1408(%rbp),%rax
    73f4:	48 89 85 40 f9 ff ff 	mov    %rax,-0x6c0(%rbp)
    73fb:	48 8d 05 5e 00 01 00 	lea    0x1005e(%rip),%rax        # 17460 <g_1353>
    7402:	48 89 85 48 f9 ff ff 	mov    %rax,-0x6b8(%rbp)
    7409:	48 8d 05 50 00 01 00 	lea    0x10050(%rip),%rax        # 17460 <g_1353>
    7410:	48 89 85 50 f9 ff ff 	mov    %rax,-0x6b0(%rbp)
    7417:	48 c7 85 58 f9 ff ff 	movq   $0x0,-0x6a8(%rbp)
    741e:	00 00 00 00 
    7422:	48 8d 05 37 00 01 00 	lea    0x10037(%rip),%rax        # 17460 <g_1353>
    7429:	48 89 85 60 f9 ff ff 	mov    %rax,-0x6a0(%rbp)
    7430:	48 8d 85 f8 eb ff ff 	lea    -0x1408(%rbp),%rax
    7437:	48 89 85 68 f9 ff ff 	mov    %rax,-0x698(%rbp)
    743e:	48 8d 85 f8 eb ff ff 	lea    -0x1408(%rbp),%rax
    7445:	48 89 85 70 f9 ff ff 	mov    %rax,-0x690(%rbp)
    744c:	48 8d 85 f0 eb ff ff 	lea    -0x1410(%rbp),%rax
    7453:	48 89 85 78 f9 ff ff 	mov    %rax,-0x688(%rbp)
    745a:	48 8d 05 ff ff 00 00 	lea    0xffff(%rip),%rax        # 17460 <g_1353>
    7461:	48 89 85 80 f9 ff ff 	mov    %rax,-0x680(%rbp)
    7468:	48 8d 05 f1 ff 00 00 	lea    0xfff1(%rip),%rax        # 17460 <g_1353>
    746f:	48 89 85 88 f9 ff ff 	mov    %rax,-0x678(%rbp)
    7476:	48 c7 85 90 f9 ff ff 	movq   $0x0,-0x670(%rbp)
    747d:	00 00 00 00 
    7481:	48 c7 85 98 f9 ff ff 	movq   $0x0,-0x668(%rbp)
    7488:	00 00 00 00 
    748c:	48 8d 85 f8 eb ff ff 	lea    -0x1408(%rbp),%rax
    7493:	48 89 85 a0 f9 ff ff 	mov    %rax,-0x660(%rbp)
    749a:	48 c7 85 a8 f9 ff ff 	movq   $0x0,-0x658(%rbp)
    74a1:	00 00 00 00 
    74a5:	48 c7 85 b0 f9 ff ff 	movq   $0x0,-0x650(%rbp)
    74ac:	00 00 00 00 
    74b0:	48 8d 85 f8 eb ff ff 	lea    -0x1408(%rbp),%rax
    74b7:	48 89 85 b8 f9 ff ff 	mov    %rax,-0x648(%rbp)
    74be:	48 8d 05 9b ff 00 00 	lea    0xff9b(%rip),%rax        # 17460 <g_1353>
    74c5:	48 89 85 c0 f9 ff ff 	mov    %rax,-0x640(%rbp)
    74cc:	48 8d 85 f8 eb ff ff 	lea    -0x1408(%rbp),%rax
    74d3:	48 89 85 c8 f9 ff ff 	mov    %rax,-0x638(%rbp)
    74da:	48 8d 05 7f ff 00 00 	lea    0xff7f(%rip),%rax        # 17460 <g_1353>
    74e1:	48 89 85 d0 f9 ff ff 	mov    %rax,-0x630(%rbp)
    74e8:	48 c7 85 d8 f9 ff ff 	movq   $0x0,-0x628(%rbp)
    74ef:	00 00 00 00 
    74f3:	48 8d 85 f0 eb ff ff 	lea    -0x1410(%rbp),%rax
    74fa:	48 89 85 e0 f9 ff ff 	mov    %rax,-0x620(%rbp)
    7501:	48 8d 05 58 ff 00 00 	lea    0xff58(%rip),%rax        # 17460 <g_1353>
    7508:	48 89 85 e8 f9 ff ff 	mov    %rax,-0x618(%rbp)
    750f:	48 8d 05 4a ff 00 00 	lea    0xff4a(%rip),%rax        # 17460 <g_1353>
    7516:	48 89 85 f0 f9 ff ff 	mov    %rax,-0x610(%rbp)
    751d:	48 8d 05 3c ff 00 00 	lea    0xff3c(%rip),%rax        # 17460 <g_1353>
    7524:	48 89 85 f8 f9 ff ff 	mov    %rax,-0x608(%rbp)
    752b:	48 c7 85 00 fa ff ff 	movq   $0x0,-0x600(%rbp)
    7532:	00 00 00 00 
    7536:	48 8d 85 f8 eb ff ff 	lea    -0x1408(%rbp),%rax
    753d:	48 89 85 08 fa ff ff 	mov    %rax,-0x5f8(%rbp)
    7544:	48 8d 85 f0 eb ff ff 	lea    -0x1410(%rbp),%rax
    754b:	48 89 85 10 fa ff ff 	mov    %rax,-0x5f0(%rbp)
    7552:	48 8d 85 f8 eb ff ff 	lea    -0x1408(%rbp),%rax
    7559:	48 89 85 18 fa ff ff 	mov    %rax,-0x5e8(%rbp)
    7560:	48 c7 85 20 fa ff ff 	movq   $0x0,-0x5e0(%rbp)
    7567:	00 00 00 00 
    756b:	48 8d 85 f0 eb ff ff 	lea    -0x1410(%rbp),%rax
    7572:	48 89 85 28 fa ff ff 	mov    %rax,-0x5d8(%rbp)
    7579:	48 8d 85 f0 eb ff ff 	lea    -0x1410(%rbp),%rax
    7580:	48 89 85 30 fa ff ff 	mov    %rax,-0x5d0(%rbp)
    7587:	48 8d 85 f0 eb ff ff 	lea    -0x1410(%rbp),%rax
    758e:	48 89 85 38 fa ff ff 	mov    %rax,-0x5c8(%rbp)
    7595:	48 8d 85 f0 eb ff ff 	lea    -0x1410(%rbp),%rax
    759c:	48 89 85 40 fa ff ff 	mov    %rax,-0x5c0(%rbp)
    75a3:	48 8d 85 f8 eb ff ff 	lea    -0x1408(%rbp),%rax
    75aa:	48 89 85 48 fa ff ff 	mov    %rax,-0x5b8(%rbp)
    75b1:	48 8d 05 a8 fe 00 00 	lea    0xfea8(%rip),%rax        # 17460 <g_1353>
    75b8:	48 89 85 50 fa ff ff 	mov    %rax,-0x5b0(%rbp)
    75bf:	48 c7 85 58 fa ff ff 	movq   $0x0,-0x5a8(%rbp)
    75c6:	00 00 00 00 
    75ca:	48 8d 85 f0 eb ff ff 	lea    -0x1410(%rbp),%rax
    75d1:	48 89 85 60 fa ff ff 	mov    %rax,-0x5a0(%rbp)
    75d8:	48 8d 05 81 fe 00 00 	lea    0xfe81(%rip),%rax        # 17460 <g_1353>
    75df:	48 89 85 68 fa ff ff 	mov    %rax,-0x598(%rbp)
    75e6:	48 8d 85 f0 eb ff ff 	lea    -0x1410(%rbp),%rax
    75ed:	48 89 85 70 fa ff ff 	mov    %rax,-0x590(%rbp)
    75f4:	48 8d 05 65 fe 00 00 	lea    0xfe65(%rip),%rax        # 17460 <g_1353>
    75fb:	48 89 85 78 fa ff ff 	mov    %rax,-0x588(%rbp)
    7602:	48 8d 85 f8 eb ff ff 	lea    -0x1408(%rbp),%rax
    7609:	48 89 85 80 fa ff ff 	mov    %rax,-0x580(%rbp)
    7610:	48 8d 85 f0 eb ff ff 	lea    -0x1410(%rbp),%rax
    7617:	48 89 85 88 fa ff ff 	mov    %rax,-0x578(%rbp)
    761e:	48 c7 85 90 fa ff ff 	movq   $0x0,-0x570(%rbp)
    7625:	00 00 00 00 
    7629:	48 8d 85 f8 eb ff ff 	lea    -0x1408(%rbp),%rax
    7630:	48 89 85 98 fa ff ff 	mov    %rax,-0x568(%rbp)
    7637:	48 8d 05 22 fe 00 00 	lea    0xfe22(%rip),%rax        # 17460 <g_1353>
    763e:	48 89 85 a0 fa ff ff 	mov    %rax,-0x560(%rbp)
    7645:	48 8d 85 f0 eb ff ff 	lea    -0x1410(%rbp),%rax
    764c:	48 89 85 a8 fa ff ff 	mov    %rax,-0x558(%rbp)
    7653:	48 8d 05 06 fe 00 00 	lea    0xfe06(%rip),%rax        # 17460 <g_1353>
    765a:	48 89 85 b0 fa ff ff 	mov    %rax,-0x550(%rbp)
    7661:	48 8d 85 f0 eb ff ff 	lea    -0x1410(%rbp),%rax
    7668:	48 89 85 b8 fa ff ff 	mov    %rax,-0x548(%rbp)
    766f:	48 8d 05 ea fd 00 00 	lea    0xfdea(%rip),%rax        # 17460 <g_1353>
    7676:	48 89 85 c0 fa ff ff 	mov    %rax,-0x540(%rbp)
    767d:	48 8d 85 f8 eb ff ff 	lea    -0x1408(%rbp),%rax
    7684:	48 89 85 c8 fa ff ff 	mov    %rax,-0x538(%rbp)
    768b:	48 8d 05 ce fd 00 00 	lea    0xfdce(%rip),%rax        # 17460 <g_1353>
    7692:	48 89 85 d0 fa ff ff 	mov    %rax,-0x530(%rbp)
    7699:	48 c7 85 d8 fa ff ff 	movq   $0x0,-0x528(%rbp)
    76a0:	00 00 00 00 
    76a4:	48 8d 85 f0 eb ff ff 	lea    -0x1410(%rbp),%rax
    76ab:	48 89 85 e0 fa ff ff 	mov    %rax,-0x520(%rbp)
    76b2:	48 8d 05 a7 fd 00 00 	lea    0xfda7(%rip),%rax        # 17460 <g_1353>
    76b9:	48 89 85 e8 fa ff ff 	mov    %rax,-0x518(%rbp)
    76c0:	48 c7 85 f0 fa ff ff 	movq   $0x0,-0x510(%rbp)
    76c7:	00 00 00 00 
    76cb:	48 8d 05 8e fd 00 00 	lea    0xfd8e(%rip),%rax        # 17460 <g_1353>
    76d2:	48 89 85 f8 fa ff ff 	mov    %rax,-0x508(%rbp)
    76d9:	48 8d 85 f0 eb ff ff 	lea    -0x1410(%rbp),%rax
    76e0:	48 89 85 00 fb ff ff 	mov    %rax,-0x500(%rbp)
    76e7:	48 8d 85 f0 eb ff ff 	lea    -0x1410(%rbp),%rax
    76ee:	48 89 85 08 fb ff ff 	mov    %rax,-0x4f8(%rbp)
    76f5:	48 8d 85 f0 eb ff ff 	lea    -0x1410(%rbp),%rax
    76fc:	48 89 85 10 fb ff ff 	mov    %rax,-0x4f0(%rbp)
    7703:	48 8d 85 f0 eb ff ff 	lea    -0x1410(%rbp),%rax
    770a:	48 89 85 18 fb ff ff 	mov    %rax,-0x4e8(%rbp)
    7711:	48 8d 05 48 fd 00 00 	lea    0xfd48(%rip),%rax        # 17460 <g_1353>
    7718:	48 89 85 20 fb ff ff 	mov    %rax,-0x4e0(%rbp)
    771f:	48 8d 85 f8 eb ff ff 	lea    -0x1408(%rbp),%rax
    7726:	48 89 85 28 fb ff ff 	mov    %rax,-0x4d8(%rbp)
    772d:	48 8d 05 2c fd 00 00 	lea    0xfd2c(%rip),%rax        # 17460 <g_1353>
    7734:	48 89 85 30 fb ff ff 	mov    %rax,-0x4d0(%rbp)
    773b:	48 8d 85 f0 eb ff ff 	lea    -0x1410(%rbp),%rax
    7742:	48 89 85 38 fb ff ff 	mov    %rax,-0x4c8(%rbp)
    7749:	48 8d 85 f0 eb ff ff 	lea    -0x1410(%rbp),%rax
    7750:	48 89 85 40 fb ff ff 	mov    %rax,-0x4c0(%rbp)
    7757:	48 8d 85 f8 eb ff ff 	lea    -0x1408(%rbp),%rax
    775e:	48 89 85 48 fb ff ff 	mov    %rax,-0x4b8(%rbp)
    7765:	48 c7 85 50 fb ff ff 	movq   $0x0,-0x4b0(%rbp)
    776c:	00 00 00 00 
    7770:	48 c7 85 58 fb ff ff 	movq   $0x0,-0x4a8(%rbp)
    7777:	00 00 00 00 
    777b:	48 8d 85 f8 eb ff ff 	lea    -0x1408(%rbp),%rax
    7782:	48 89 85 60 fb ff ff 	mov    %rax,-0x4a0(%rbp)
    7789:	48 8d 85 f8 eb ff ff 	lea    -0x1408(%rbp),%rax
    7790:	48 89 85 68 fb ff ff 	mov    %rax,-0x498(%rbp)
    7797:	48 8d 85 f8 eb ff ff 	lea    -0x1408(%rbp),%rax
    779e:	48 89 85 70 fb ff ff 	mov    %rax,-0x490(%rbp)
    77a5:	48 8d 85 f0 eb ff ff 	lea    -0x1410(%rbp),%rax
    77ac:	48 89 85 78 fb ff ff 	mov    %rax,-0x488(%rbp)
    77b3:	48 8d 85 f8 eb ff ff 	lea    -0x1408(%rbp),%rax
    77ba:	48 89 85 80 fb ff ff 	mov    %rax,-0x480(%rbp)
    77c1:	48 8d 05 98 fc 00 00 	lea    0xfc98(%rip),%rax        # 17460 <g_1353>
    77c8:	48 89 85 88 fb ff ff 	mov    %rax,-0x478(%rbp)
    77cf:	48 8d 05 8a fc 00 00 	lea    0xfc8a(%rip),%rax        # 17460 <g_1353>
    77d6:	48 89 85 90 fb ff ff 	mov    %rax,-0x470(%rbp)
    77dd:	48 8d 05 7c fc 00 00 	lea    0xfc7c(%rip),%rax        # 17460 <g_1353>
    77e4:	48 89 85 98 fb ff ff 	mov    %rax,-0x468(%rbp)
    77eb:	48 8d 85 f8 eb ff ff 	lea    -0x1408(%rbp),%rax
    77f2:	48 89 85 a0 fb ff ff 	mov    %rax,-0x460(%rbp)
    77f9:	48 8d 85 f8 eb ff ff 	lea    -0x1408(%rbp),%rax
    7800:	48 89 85 a8 fb ff ff 	mov    %rax,-0x458(%rbp)
    7807:	48 8d 85 f0 eb ff ff 	lea    -0x1410(%rbp),%rax
    780e:	48 89 85 b0 fb ff ff 	mov    %rax,-0x450(%rbp)
    7815:	48 8d 05 44 fc 00 00 	lea    0xfc44(%rip),%rax        # 17460 <g_1353>
    781c:	48 89 85 b8 fb ff ff 	mov    %rax,-0x448(%rbp)
    7823:	48 c7 85 c0 fb ff ff 	movq   $0x0,-0x440(%rbp)
    782a:	00 00 00 00 
    782e:	48 8d 85 f0 eb ff ff 	lea    -0x1410(%rbp),%rax
    7835:	48 89 85 c8 fb ff ff 	mov    %rax,-0x438(%rbp)
    783c:	48 8d 85 f0 eb ff ff 	lea    -0x1410(%rbp),%rax
    7843:	48 89 85 d0 fb ff ff 	mov    %rax,-0x430(%rbp)
    784a:	48 8d 05 0f fc 00 00 	lea    0xfc0f(%rip),%rax        # 17460 <g_1353>
    7851:	48 89 85 d8 fb ff ff 	mov    %rax,-0x428(%rbp)
    7858:	48 8d 85 f0 eb ff ff 	lea    -0x1410(%rbp),%rax
    785f:	48 89 85 e0 fb ff ff 	mov    %rax,-0x420(%rbp)
    7866:	48 8d 85 f0 eb ff ff 	lea    -0x1410(%rbp),%rax
    786d:	48 89 85 e8 fb ff ff 	mov    %rax,-0x418(%rbp)
    7874:	48 8d 85 f8 eb ff ff 	lea    -0x1408(%rbp),%rax
    787b:	48 89 85 f0 fb ff ff 	mov    %rax,-0x410(%rbp)
    7882:	48 8d 05 d7 fb 00 00 	lea    0xfbd7(%rip),%rax        # 17460 <g_1353>
    7889:	48 89 85 f8 fb ff ff 	mov    %rax,-0x408(%rbp)
    7890:	48 8d 85 f8 eb ff ff 	lea    -0x1408(%rbp),%rax
    7897:	48 89 85 00 fc ff ff 	mov    %rax,-0x400(%rbp)
    789e:	48 8d 85 f8 eb ff ff 	lea    -0x1408(%rbp),%rax
    78a5:	48 89 85 08 fc ff ff 	mov    %rax,-0x3f8(%rbp)
    78ac:	48 8d 85 f8 eb ff ff 	lea    -0x1408(%rbp),%rax
    78b3:	48 89 85 10 fc ff ff 	mov    %rax,-0x3f0(%rbp)
    78ba:	48 c7 85 18 fc ff ff 	movq   $0x0,-0x3e8(%rbp)
    78c1:	00 00 00 00 
    78c5:	48 8d 05 94 fb 00 00 	lea    0xfb94(%rip),%rax        # 17460 <g_1353>
    78cc:	48 89 85 20 fc ff ff 	mov    %rax,-0x3e0(%rbp)
    78d3:	48 8d 85 f8 eb ff ff 	lea    -0x1408(%rbp),%rax
    78da:	48 89 85 28 fc ff ff 	mov    %rax,-0x3d8(%rbp)
    78e1:	48 8d 05 78 fb 00 00 	lea    0xfb78(%rip),%rax        # 17460 <g_1353>
    78e8:	48 89 85 30 fc ff ff 	mov    %rax,-0x3d0(%rbp)
    78ef:	48 8d 85 f0 eb ff ff 	lea    -0x1410(%rbp),%rax
    78f6:	48 89 85 38 fc ff ff 	mov    %rax,-0x3c8(%rbp)
    78fd:	48 c7 85 40 fc ff ff 	movq   $0x0,-0x3c0(%rbp)
    7904:	00 00 00 00 
    7908:	48 8d 05 51 fb 00 00 	lea    0xfb51(%rip),%rax        # 17460 <g_1353>
    790f:	48 89 85 48 fc ff ff 	mov    %rax,-0x3b8(%rbp)
    7916:	48 8d 85 f8 eb ff ff 	lea    -0x1408(%rbp),%rax
    791d:	48 89 85 50 fc ff ff 	mov    %rax,-0x3b0(%rbp)
    7924:	48 8d 85 f8 eb ff ff 	lea    -0x1408(%rbp),%rax
    792b:	48 89 85 58 fc ff ff 	mov    %rax,-0x3a8(%rbp)
    7932:	48 c7 85 60 fc ff ff 	movq   $0x0,-0x3a0(%rbp)
    7939:	00 00 00 00 
    793d:	48 8d 85 f0 eb ff ff 	lea    -0x1410(%rbp),%rax
    7944:	48 89 85 68 fc ff ff 	mov    %rax,-0x398(%rbp)
    794b:	48 c7 85 70 fc ff ff 	movq   $0x0,-0x390(%rbp)
    7952:	00 00 00 00 
    7956:	48 8d 85 f0 eb ff ff 	lea    -0x1410(%rbp),%rax
    795d:	48 89 85 78 fc ff ff 	mov    %rax,-0x388(%rbp)
    7964:	48 8d 85 f0 eb ff ff 	lea    -0x1410(%rbp),%rax
    796b:	48 89 85 80 fc ff ff 	mov    %rax,-0x380(%rbp)
    7972:	48 8d 05 e7 fa 00 00 	lea    0xfae7(%rip),%rax        # 17460 <g_1353>
    7979:	48 89 85 88 fc ff ff 	mov    %rax,-0x378(%rbp)
    7980:	48 8d 85 f0 eb ff ff 	lea    -0x1410(%rbp),%rax
    7987:	48 89 85 90 fc ff ff 	mov    %rax,-0x370(%rbp)
    798e:	48 c7 85 98 fc ff ff 	movq   $0x0,-0x368(%rbp)
    7995:	00 00 00 00 
    7999:	48 8d 85 f8 eb ff ff 	lea    -0x1408(%rbp),%rax
    79a0:	48 89 85 a0 fc ff ff 	mov    %rax,-0x360(%rbp)
    79a7:	48 c7 85 a8 fc ff ff 	movq   $0x0,-0x358(%rbp)
    79ae:	00 00 00 00 
    79b2:	48 8d 85 f0 eb ff ff 	lea    -0x1410(%rbp),%rax
    79b9:	48 89 85 b0 fc ff ff 	mov    %rax,-0x350(%rbp)
    79c0:	48 c7 85 b8 fc ff ff 	movq   $0x0,-0x348(%rbp)
    79c7:	00 00 00 00 
    79cb:	48 8d 85 f0 eb ff ff 	lea    -0x1410(%rbp),%rax
    79d2:	48 89 85 c0 fc ff ff 	mov    %rax,-0x340(%rbp)
    79d9:	48 8d 85 f0 eb ff ff 	lea    -0x1410(%rbp),%rax
    79e0:	48 89 85 c8 fc ff ff 	mov    %rax,-0x338(%rbp)
    79e7:	48 c7 85 d0 fc ff ff 	movq   $0x0,-0x330(%rbp)
    79ee:	00 00 00 00 
    79f2:	48 8d 05 67 fa 00 00 	lea    0xfa67(%rip),%rax        # 17460 <g_1353>
    79f9:	48 89 85 d8 fc ff ff 	mov    %rax,-0x328(%rbp)
    7a00:	48 8d 85 f0 eb ff ff 	lea    -0x1410(%rbp),%rax
    7a07:	48 89 85 e0 fc ff ff 	mov    %rax,-0x320(%rbp)
    7a0e:	48 8d 85 f8 eb ff ff 	lea    -0x1408(%rbp),%rax
    7a15:	48 89 85 e8 fc ff ff 	mov    %rax,-0x318(%rbp)
    7a1c:	48 8d 05 3d fa 00 00 	lea    0xfa3d(%rip),%rax        # 17460 <g_1353>
    7a23:	48 89 85 f0 fc ff ff 	mov    %rax,-0x310(%rbp)
    7a2a:	48 8d 85 f0 eb ff ff 	lea    -0x1410(%rbp),%rax
    7a31:	48 89 85 f8 fc ff ff 	mov    %rax,-0x308(%rbp)
    7a38:	48 8d 05 21 fa 00 00 	lea    0xfa21(%rip),%rax        # 17460 <g_1353>
    7a3f:	48 89 85 00 fd ff ff 	mov    %rax,-0x300(%rbp)
    7a46:	48 8d 85 f8 eb ff ff 	lea    -0x1408(%rbp),%rax
    7a4d:	48 89 85 08 fd ff ff 	mov    %rax,-0x2f8(%rbp)
    7a54:	48 c7 85 10 fd ff ff 	movq   $0x0,-0x2f0(%rbp)
    7a5b:	00 00 00 00 
    7a5f:	48 8d 85 f8 eb ff ff 	lea    -0x1408(%rbp),%rax
    7a66:	48 89 85 18 fd ff ff 	mov    %rax,-0x2e8(%rbp)
    7a6d:	48 8d 85 f0 eb ff ff 	lea    -0x1410(%rbp),%rax
    7a74:	48 89 85 20 fd ff ff 	mov    %rax,-0x2e0(%rbp)
    7a7b:	48 8d 85 f0 eb ff ff 	lea    -0x1410(%rbp),%rax
    7a82:	48 89 85 28 fd ff ff 	mov    %rax,-0x2d8(%rbp)
    7a89:	48 8d 05 d0 f9 00 00 	lea    0xf9d0(%rip),%rax        # 17460 <g_1353>
    7a90:	48 89 85 30 fd ff ff 	mov    %rax,-0x2d0(%rbp)
    7a97:	48 8d 85 f8 eb ff ff 	lea    -0x1408(%rbp),%rax
    7a9e:	48 89 85 38 fd ff ff 	mov    %rax,-0x2c8(%rbp)
    7aa5:	48 8d 05 b4 f9 00 00 	lea    0xf9b4(%rip),%rax        # 17460 <g_1353>
    7aac:	48 89 85 40 fd ff ff 	mov    %rax,-0x2c0(%rbp)
    7ab3:	48 8d 85 f0 eb ff ff 	lea    -0x1410(%rbp),%rax
    7aba:	48 89 85 48 fd ff ff 	mov    %rax,-0x2b8(%rbp)
    7ac1:	48 8d 85 f0 eb ff ff 	lea    -0x1410(%rbp),%rax
    7ac8:	48 89 85 50 fd ff ff 	mov    %rax,-0x2b0(%rbp)
    7acf:	48 c7 85 58 fd ff ff 	movq   $0x0,-0x2a8(%rbp)
    7ad6:	00 00 00 00 
    7ada:	48 8d 05 7f f9 00 00 	lea    0xf97f(%rip),%rax        # 17460 <g_1353>
    7ae1:	48 89 85 60 fd ff ff 	mov    %rax,-0x2a0(%rbp)
    7ae8:	48 8d 85 f0 eb ff ff 	lea    -0x1410(%rbp),%rax
    7aef:	48 89 85 68 fd ff ff 	mov    %rax,-0x298(%rbp)
    7af6:	48 8d 05 63 f9 00 00 	lea    0xf963(%rip),%rax        # 17460 <g_1353>
    7afd:	48 89 85 70 fd ff ff 	mov    %rax,-0x290(%rbp)
    7b04:	48 8d 85 f0 eb ff ff 	lea    -0x1410(%rbp),%rax
    7b0b:	48 89 85 78 fd ff ff 	mov    %rax,-0x288(%rbp)
    7b12:	48 8d 85 f0 eb ff ff 	lea    -0x1410(%rbp),%rax
    7b19:	48 89 85 80 fd ff ff 	mov    %rax,-0x280(%rbp)
    7b20:	48 8d 05 39 f9 00 00 	lea    0xf939(%rip),%rax        # 17460 <g_1353>
    7b27:	48 89 85 88 fd ff ff 	mov    %rax,-0x278(%rbp)
    7b2e:	48 c7 85 90 fd ff ff 	movq   $0x0,-0x270(%rbp)
    7b35:	00 00 00 00 
    7b39:	48 8d 05 20 f9 00 00 	lea    0xf920(%rip),%rax        # 17460 <g_1353>
    7b40:	48 89 85 98 fd ff ff 	mov    %rax,-0x268(%rbp)
    7b47:	48 8d 05 12 f9 00 00 	lea    0xf912(%rip),%rax        # 17460 <g_1353>
    7b4e:	48 89 85 a0 fd ff ff 	mov    %rax,-0x260(%rbp)
    7b55:	48 8d 05 04 f9 00 00 	lea    0xf904(%rip),%rax        # 17460 <g_1353>
    7b5c:	48 89 85 a8 fd ff ff 	mov    %rax,-0x258(%rbp)
    7b63:	48 8d 85 f8 eb ff ff 	lea    -0x1408(%rbp),%rax
    7b6a:	48 89 85 b0 fd ff ff 	mov    %rax,-0x250(%rbp)
    7b71:	48 8d 85 f0 eb ff ff 	lea    -0x1410(%rbp),%rax
    7b78:	48 89 85 b8 fd ff ff 	mov    %rax,-0x248(%rbp)
    7b7f:	48 c7 85 c0 fd ff ff 	movq   $0x0,-0x240(%rbp)
    7b86:	00 00 00 00 
    7b8a:	48 8d 85 f8 eb ff ff 	lea    -0x1408(%rbp),%rax
    7b91:	48 89 85 c8 fd ff ff 	mov    %rax,-0x238(%rbp)
    7b98:	48 c7 85 d0 fd ff ff 	movq   $0x0,-0x230(%rbp)
    7b9f:	00 00 00 00 
    7ba3:	48 8d 85 f0 eb ff ff 	lea    -0x1410(%rbp),%rax
    7baa:	48 89 85 d8 fd ff ff 	mov    %rax,-0x228(%rbp)
    7bb1:	48 8d 85 f8 eb ff ff 	lea    -0x1408(%rbp),%rax
    7bb8:	48 89 85 e0 fd ff ff 	mov    %rax,-0x220(%rbp)
    7bbf:	48 8d 85 f0 eb ff ff 	lea    -0x1410(%rbp),%rax
    7bc6:	48 89 85 e8 fd ff ff 	mov    %rax,-0x218(%rbp)
    7bcd:	48 8d 85 f0 eb ff ff 	lea    -0x1410(%rbp),%rax
    7bd4:	48 89 85 f0 fd ff ff 	mov    %rax,-0x210(%rbp)
    7bdb:	48 8d 05 7e f8 00 00 	lea    0xf87e(%rip),%rax        # 17460 <g_1353>
    7be2:	48 89 85 f8 fd ff ff 	mov    %rax,-0x208(%rbp)
    7be9:	48 8d 85 f0 eb ff ff 	lea    -0x1410(%rbp),%rax
    7bf0:	48 89 85 00 fe ff ff 	mov    %rax,-0x200(%rbp)
    7bf7:	48 8d 85 f0 eb ff ff 	lea    -0x1410(%rbp),%rax
    7bfe:	48 89 85 08 fe ff ff 	mov    %rax,-0x1f8(%rbp)
    7c05:	48 8d 05 54 f8 00 00 	lea    0xf854(%rip),%rax        # 17460 <g_1353>
    7c0c:	48 89 85 10 fe ff ff 	mov    %rax,-0x1f0(%rbp)
    7c13:	48 8d 85 f0 eb ff ff 	lea    -0x1410(%rbp),%rax
    7c1a:	48 89 85 18 fe ff ff 	mov    %rax,-0x1e8(%rbp)
    7c21:	48 8d 05 38 f8 00 00 	lea    0xf838(%rip),%rax        # 17460 <g_1353>
    7c28:	48 89 85 20 fe ff ff 	mov    %rax,-0x1e0(%rbp)
    7c2f:	48 8d 85 f0 eb ff ff 	lea    -0x1410(%rbp),%rax
    7c36:	48 89 85 28 fe ff ff 	mov    %rax,-0x1d8(%rbp)
    7c3d:	48 8d 05 1c f8 00 00 	lea    0xf81c(%rip),%rax        # 17460 <g_1353>
    7c44:	48 89 85 30 fe ff ff 	mov    %rax,-0x1d0(%rbp)
    7c4b:	48 8d 05 0e f8 00 00 	lea    0xf80e(%rip),%rax        # 17460 <g_1353>
    7c52:	48 89 85 38 fe ff ff 	mov    %rax,-0x1c8(%rbp)
    7c59:	48 8d 05 00 f8 00 00 	lea    0xf800(%rip),%rax        # 17460 <g_1353>
    7c60:	48 89 85 40 fe ff ff 	mov    %rax,-0x1c0(%rbp)
    7c67:	48 8d 85 f0 eb ff ff 	lea    -0x1410(%rbp),%rax
    7c6e:	48 89 85 48 fe ff ff 	mov    %rax,-0x1b8(%rbp)
    7c75:	48 8d 05 e4 f7 00 00 	lea    0xf7e4(%rip),%rax        # 17460 <g_1353>
    7c7c:	48 89 85 50 fe ff ff 	mov    %rax,-0x1b0(%rbp)
    7c83:	48 c7 85 58 fe ff ff 	movq   $0x0,-0x1a8(%rbp)
    7c8a:	00 00 00 00 
    7c8e:	48 8d 85 f8 eb ff ff 	lea    -0x1408(%rbp),%rax
    7c95:	48 89 85 60 fe ff ff 	mov    %rax,-0x1a0(%rbp)
    7c9c:	48 8d 05 bd f7 00 00 	lea    0xf7bd(%rip),%rax        # 17460 <g_1353>
    7ca3:	48 89 85 68 fe ff ff 	mov    %rax,-0x198(%rbp)
    7caa:	48 8d 05 af f7 00 00 	lea    0xf7af(%rip),%rax        # 17460 <g_1353>
    7cb1:	48 89 85 70 fe ff ff 	mov    %rax,-0x190(%rbp)
    7cb8:	48 8d 05 a1 f7 00 00 	lea    0xf7a1(%rip),%rax        # 17460 <g_1353>
    7cbf:	48 89 85 78 fe ff ff 	mov    %rax,-0x188(%rbp)
    7cc6:	48 8d 85 f0 eb ff ff 	lea    -0x1410(%rbp),%rax
    7ccd:	48 89 85 80 fe ff ff 	mov    %rax,-0x180(%rbp)
    7cd4:	48 c7 85 88 fe ff ff 	movq   $0x0,-0x178(%rbp)
    7cdb:	00 00 00 00 
    7cdf:	48 c7 85 90 fe ff ff 	movq   $0x0,-0x170(%rbp)
    7ce6:	00 00 00 00 
    7cea:	48 c7 85 98 fe ff ff 	movq   $0x0,-0x168(%rbp)
    7cf1:	00 00 00 00 
    7cf5:	48 8d 05 64 f7 00 00 	lea    0xf764(%rip),%rax        # 17460 <g_1353>
    7cfc:	48 89 85 a0 fe ff ff 	mov    %rax,-0x160(%rbp)
    7d03:	48 8d 05 56 f7 00 00 	lea    0xf756(%rip),%rax        # 17460 <g_1353>
    7d0a:	48 89 85 a8 fe ff ff 	mov    %rax,-0x158(%rbp)
    7d11:	48 c7 85 b0 fe ff ff 	movq   $0x0,-0x150(%rbp)
    7d18:	00 00 00 00 
    7d1c:	48 8d 05 3d f7 00 00 	lea    0xf73d(%rip),%rax        # 17460 <g_1353>
    7d23:	48 89 85 b8 fe ff ff 	mov    %rax,-0x148(%rbp)
    7d2a:	48 8d 05 2f f7 00 00 	lea    0xf72f(%rip),%rax        # 17460 <g_1353>
    7d31:	48 89 85 c0 fe ff ff 	mov    %rax,-0x140(%rbp)
    7d38:	48 8d 05 21 f7 00 00 	lea    0xf721(%rip),%rax        # 17460 <g_1353>
    7d3f:	48 89 85 c8 fe ff ff 	mov    %rax,-0x138(%rbp)
    7d46:	48 c7 85 d0 fe ff ff 	movq   $0x0,-0x130(%rbp)
    7d4d:	00 00 00 00 
    7d51:	48 8d 85 f0 eb ff ff 	lea    -0x1410(%rbp),%rax
    7d58:	48 89 85 d8 fe ff ff 	mov    %rax,-0x128(%rbp)
    7d5f:	48 c7 85 e0 fe ff ff 	movq   $0x0,-0x120(%rbp)
    7d66:	00 00 00 00 
    7d6a:	48 c7 85 e8 fe ff ff 	movq   $0x0,-0x118(%rbp)
    7d71:	00 00 00 00 
    7d75:	48 8d 85 f8 eb ff ff 	lea    -0x1408(%rbp),%rax
    7d7c:	48 89 85 f0 fe ff ff 	mov    %rax,-0x110(%rbp)
    7d83:	48 8d 05 d6 f6 00 00 	lea    0xf6d6(%rip),%rax        # 17460 <g_1353>
    7d8a:	48 89 85 f8 fe ff ff 	mov    %rax,-0x108(%rbp)
    7d91:	48 8d 85 f0 eb ff ff 	lea    -0x1410(%rbp),%rax
    7d98:	48 89 85 00 ff ff ff 	mov    %rax,-0x100(%rbp)
    7d9f:	48 8d 05 ba f6 00 00 	lea    0xf6ba(%rip),%rax        # 17460 <g_1353>
    7da6:	48 89 85 08 ff ff ff 	mov    %rax,-0xf8(%rbp)
    7dad:	48 8d 85 f0 eb ff ff 	lea    -0x1410(%rbp),%rax
    7db4:	48 89 85 10 ff ff ff 	mov    %rax,-0xf0(%rbp)
    7dbb:	48 c7 85 18 ff ff ff 	movq   $0x0,-0xe8(%rbp)
    7dc2:	00 00 00 00 
    7dc6:	48 8d 85 f0 eb ff ff 	lea    -0x1410(%rbp),%rax
    7dcd:	48 89 85 20 ff ff ff 	mov    %rax,-0xe0(%rbp)
    7dd4:	48 8d 85 f0 eb ff ff 	lea    -0x1410(%rbp),%rax
    7ddb:	48 89 85 28 ff ff ff 	mov    %rax,-0xd8(%rbp)
    7de2:	48 8d 05 77 f6 00 00 	lea    0xf677(%rip),%rax        # 17460 <g_1353>
    7de9:	48 89 85 30 ff ff ff 	mov    %rax,-0xd0(%rbp)
    7df0:	48 8d 05 69 f6 00 00 	lea    0xf669(%rip),%rax        # 17460 <g_1353>
    7df7:	48 89 85 38 ff ff ff 	mov    %rax,-0xc8(%rbp)
    7dfe:	48 8d 85 f8 eb ff ff 	lea    -0x1408(%rbp),%rax
    7e05:	48 89 85 40 ff ff ff 	mov    %rax,-0xc0(%rbp)
    7e0c:	48 8d 85 f8 eb ff ff 	lea    -0x1408(%rbp),%rax
    7e13:	48 89 85 48 ff ff ff 	mov    %rax,-0xb8(%rbp)
    7e1a:	48 c7 85 50 ff ff ff 	movq   $0x0,-0xb0(%rbp)
    7e21:	00 00 00 00 
    7e25:	48 8d 85 f0 eb ff ff 	lea    -0x1410(%rbp),%rax
    7e2c:	48 89 85 58 ff ff ff 	mov    %rax,-0xa8(%rbp)
    7e33:	48 8d 05 26 f6 00 00 	lea    0xf626(%rip),%rax        # 17460 <g_1353>
    7e3a:	48 89 85 60 ff ff ff 	mov    %rax,-0xa0(%rbp)
    7e41:	48 8d 05 18 f6 00 00 	lea    0xf618(%rip),%rax        # 17460 <g_1353>
    7e48:	48 89 85 68 ff ff ff 	mov    %rax,-0x98(%rbp)
    7e4f:	48 8d 85 f0 eb ff ff 	lea    -0x1410(%rbp),%rax
    7e56:	48 89 85 70 ff ff ff 	mov    %rax,-0x90(%rbp)
    7e5d:	48 c7 85 78 ff ff ff 	movq   $0x0,-0x88(%rbp)
    7e64:	00 00 00 00 
    7e68:	48 8d 85 f0 eb ff ff 	lea    -0x1410(%rbp),%rax
    7e6f:	48 89 45 80          	mov    %rax,-0x80(%rbp)
    7e73:	48 8d 85 f0 eb ff ff 	lea    -0x1410(%rbp),%rax
    7e7a:	48 89 45 88          	mov    %rax,-0x78(%rbp)
    7e7e:	48 c7 45 90 00 00 00 	movq   $0x0,-0x70(%rbp)
    7e85:	00 
    7e86:	48 8d 05 d3 f5 00 00 	lea    0xf5d3(%rip),%rax        # 17460 <g_1353>
    7e8d:	48 89 45 98          	mov    %rax,-0x68(%rbp)
    7e91:	48 8d 05 c8 f5 00 00 	lea    0xf5c8(%rip),%rax        # 17460 <g_1353>
    7e98:	48 89 45 a0          	mov    %rax,-0x60(%rbp)
    7e9c:	48 8d 05 bd f5 00 00 	lea    0xf5bd(%rip),%rax        # 17460 <g_1353>
    7ea3:	48 89 45 a8          	mov    %rax,-0x58(%rbp)
    7ea7:	48 8d 05 b2 f5 00 00 	lea    0xf5b2(%rip),%rax        # 17460 <g_1353>
    7eae:	48 89 45 b0          	mov    %rax,-0x50(%rbp)
    7eb2:	48 8d 05 a7 f5 00 00 	lea    0xf5a7(%rip),%rax        # 17460 <g_1353>
    7eb9:	48 89 45 b8          	mov    %rax,-0x48(%rbp)
    7ebd:	48 8d 05 5c e3 00 00 	lea    0xe35c(%rip),%rax        # 16220 <g_294>
    7ec4:	48 89 85 a0 ec ff ff 	mov    %rax,-0x1360(%rbp)
    7ecb:	48 c7 85 a8 ec ff ff 	movq   $0x5,-0x1358(%rbp)
    7ed2:	05 00 00 00 
    7ed6:	c6 85 36 eb ff ff fe 	movb   $0xfe,-0x14ca(%rbp)
    7edd:	c7 05 c9 e1 00 00 f9 	movl   $0xfffffff9,0xe1c9(%rip)        # 160b0 <g_46>
    7ee4:	ff ff ff 
    7ee7:	e9 90 05 00 00       	jmpq   847c <func_2+0x2aa1>
    7eec:	48 c7 85 00 ec ff ff 	movq   $0x0,-0x1400(%rbp)
    7ef3:	00 00 00 00 
    7ef7:	48 8d 85 00 ec ff ff 	lea    -0x1400(%rbp),%rax
    7efe:	48 89 85 e0 ec ff ff 	mov    %rax,-0x1320(%rbp)
    7f05:	48 8d 05 8c e3 00 00 	lea    0xe38c(%rip),%rax        # 16298 <g_1283+0x38>
    7f0c:	48 89 85 e8 ec ff ff 	mov    %rax,-0x1318(%rbp)
    7f13:	66 c7 85 40 eb ff ff 	movw   $0x1,-0x14c0(%rbp)
    7f1a:	01 00 
    7f1c:	48 c7 85 f0 ec ff ff 	movq   $0x0,-0x1310(%rbp)
    7f23:	00 00 00 00 
    7f27:	66 c7 85 38 eb ff ff 	movw   $0x18,-0x14c8(%rbp)
    7f2e:	18 00 
    7f30:	e9 9d 00 00 00       	jmpq   7fd2 <func_2+0x25f7>
    7f35:	c7 85 cc eb ff ff 05 	movl   $0x5,-0x1434(%rbp)
    7f3c:	00 00 00 
    7f3f:	48 8d 85 20 ee ff ff 	lea    -0x11e0(%rbp),%rax
    7f46:	48 83 c0 30          	add    $0x30,%rax
    7f4a:	48 89 85 f8 ec ff ff 	mov    %rax,-0x1308(%rbp)
    7f51:	c7 85 bc eb ff ff 00 	movl   $0x0,-0x1444(%rbp)
    7f58:	00 00 00 
    7f5b:	eb 1b                	jmp    7f78 <func_2+0x259d>
    7f5d:	8b 85 bc eb ff ff    	mov    -0x1444(%rbp),%eax
    7f63:	48 98                	cltq   
    7f65:	48 c7 84 c5 20 ee ff 	movq   $0x0,-0x11e0(%rbp,%rax,8)
    7f6c:	ff 00 00 00 00 
    7f71:	83 85 bc eb ff ff 01 	addl   $0x1,-0x1444(%rbp)
    7f78:	83 bd bc eb ff ff 07 	cmpl   $0x7,-0x1444(%rbp)
    7f7f:	7e dc                	jle    7f5d <func_2+0x2582>
    7f81:	48 8b 85 30 ec ff ff 	mov    -0x13d0(%rbp),%rax
    7f88:	8b 00                	mov    (%rax),%eax
    7f8a:	85 c0                	test   %eax,%eax
    7f8c:	75 57                	jne    7fe5 <func_2+0x260a>
    7f8e:	83 85 cc eb ff ff 01 	addl   $0x1,-0x1434(%rbp)
    7f95:	8b 05 59 e1 00 00    	mov    0xe159(%rip),%eax        # 160f4 <g_124>
    7f9b:	85 c0                	test   %eax,%eax
    7f9d:	74 05                	je     7fa4 <func_2+0x25c9>
    7f9f:	e9 27 db ff ff       	jmpq   5acb <func_2+0xf0>
    7fa4:	48 8b 05 05 ed 00 00 	mov    0xed05(%rip),%rax        # 16cb0 <g_1325>
    7fab:	48 8b 95 f8 ec ff ff 	mov    -0x1308(%rbp),%rdx
    7fb2:	48 89 10             	mov    %rdx,(%rax)
    7fb5:	0f b7 85 38 eb ff ff 	movzwl -0x14c8(%rbp),%eax
    7fbc:	0f b7 c0             	movzwl %ax,%eax
    7fbf:	be 02 00 00 00       	mov    $0x2,%esi
    7fc4:	89 c7                	mov    %eax,%edi
    7fc6:	e8 eb c5 ff ff       	callq  45b6 <safe_add_func_int32_t_s_s>
    7fcb:	66 89 85 38 eb ff ff 	mov    %ax,-0x14c8(%rbp)
    7fd2:	0f b7 85 38 eb ff ff 	movzwl -0x14c8(%rbp),%eax
    7fd9:	66 83 f8 1d          	cmp    $0x1d,%ax
    7fdd:	0f 85 52 ff ff ff    	jne    7f35 <func_2+0x255a>
    7fe3:	eb 01                	jmp    7fe6 <func_2+0x260b>
    7fe5:	90                   	nop
    7fe6:	48 8b 85 28 ec ff ff 	mov    -0x13d8(%rbp),%rax
    7fed:	8b 10                	mov    (%rax),%edx
    7fef:	48 8b 85 e0 ec ff ff 	mov    -0x1320(%rbp),%rax
    7ff6:	48 c7 00 00 00 00 00 	movq   $0x0,(%rax)
    7ffd:	48 8b 85 e0 ec ff ff 	mov    -0x1320(%rbp),%rax
    8004:	48 8b 00             	mov    (%rax),%rax
    8007:	48 39 85 98 ec ff ff 	cmp    %rax,-0x1368(%rbp)
    800e:	0f 95 c0             	setne  %al
    8011:	0f b6 c0             	movzbl %al,%eax
    8014:	89 d6                	mov    %edx,%esi
    8016:	89 c7                	mov    %eax,%edi
    8018:	e8 0d c5 ff ff       	callq  452a <safe_rshift_func_int16_t_s_s>
    801d:	98                   	cwtl   
    801e:	21 85 b8 eb ff ff    	and    %eax,-0x1448(%rbp)
    8024:	8b 85 b8 eb ff ff    	mov    -0x1448(%rbp),%eax
    802a:	48 98                	cltq   
    802c:	83 e0 01             	and    $0x1,%eax
    802f:	48 89 c3             	mov    %rax,%rbx
    8032:	8b 95 e8 ed ff ff    	mov    -0x1218(%rbp),%edx
    8038:	48 8b 05 19 f4 00 00 	mov    0xf419(%rip),%rax        # 17458 <g_1337>
    803f:	48 85 c0             	test   %rax,%rax
    8042:	0f 95 c0             	setne  %al
    8045:	0f b6 c0             	movzbl %al,%eax
    8048:	39 c2                	cmp    %eax,%edx
    804a:	0f 9e c0             	setle  %al
    804d:	0f b6 c0             	movzbl %al,%eax
    8050:	be 06 00 00 00       	mov    $0x6,%esi
    8055:	89 c7                	mov    %eax,%edi
    8057:	e8 d9 c2 ff ff       	callq  4335 <safe_rshift_func_int8_t_s_s>
    805c:	48 0f be d0          	movsbq %al,%rdx
    8060:	48 8b 05 21 ec 00 00 	mov    0xec21(%rip),%rax        # 16c88 <g_964>
    8067:	48 8b 00             	mov    (%rax),%rax
    806a:	48 8b 08             	mov    (%rax),%rcx
    806d:	48 83 c9 08          	or     $0x8,%rcx
    8071:	48 89 08             	mov    %rcx,(%rax)
    8074:	48 8b 00             	mov    (%rax),%rax
    8077:	48 39 c2             	cmp    %rax,%rdx
    807a:	74 07                	je     8083 <func_2+0x26a8>
    807c:	b8 01 00 00 00       	mov    $0x1,%eax
    8081:	eb 05                	jmp    8088 <func_2+0x26ad>
    8083:	b8 00 00 00 00       	mov    $0x0,%eax
    8088:	48 63 d0             	movslq %eax,%rdx
    808b:	48 8b 85 e8 ec ff ff 	mov    -0x1318(%rbp),%rax
    8092:	48 89 10             	mov    %rdx,(%rax)
    8095:	48 8b 85 e8 ec ff ff 	mov    -0x1318(%rbp),%rax
    809c:	48 8b 10             	mov    (%rax),%rdx
    809f:	0f b7 85 40 eb ff ff 	movzwl -0x14c0(%rbp),%eax
    80a6:	48 09 c2             	or     %rax,%rdx
    80a9:	8b 85 5c eb ff ff    	mov    -0x14a4(%rbp),%eax
    80af:	48 98                	cltq   
    80b1:	48 21 d0             	and    %rdx,%rax
    80b4:	48 09 d8             	or     %rbx,%rax
    80b7:	48 85 c0             	test   %rax,%rax
    80ba:	0f 84 71 02 00 00    	je     8331 <func_2+0x2956>
    80c0:	66 c7 85 42 eb ff ff 	movw   $0x2796,-0x14be(%rbp)
    80c7:	96 27 
    80c9:	48 8d 05 98 f3 00 00 	lea    0xf398(%rip),%rax        # 17468 <g_1352>
    80d0:	48 89 85 00 ed ff ff 	mov    %rax,-0x1300(%rbp)
    80d7:	48 8d 05 ca f3 00 00 	lea    0xf3ca(%rip),%rax        # 174a8 <g_1356+0x28>
    80de:	48 89 85 08 ed ff ff 	mov    %rax,-0x12f8(%rbp)
    80e5:	c7 85 d0 eb ff ff 06 	movl   $0x6,-0x1430(%rbp)
    80ec:	00 00 00 
    80ef:	c7 85 d4 eb ff ff 37 	movl   $0x9b571e37,-0x142c(%rbp)
    80f6:	1e 57 9b 
    80f9:	48 8d 85 20 ee ff ff 	lea    -0x11e0(%rbp),%rax
    8100:	48 8d 15 59 8f 00 00 	lea    0x8f59(%rip),%rdx        # 11060 <g_362+0xc>
    8107:	b9 3c 00 00 00       	mov    $0x3c,%ecx
    810c:	48 89 c7             	mov    %rax,%rdi
    810f:	48 89 d6             	mov    %rdx,%rsi
    8112:	f3 48 a5             	rep movsq %ds:(%rsi),%es:(%rdi)
    8115:	8b 85 d8 ed ff ff    	mov    -0x1228(%rbp),%eax
    811b:	48 63 d8             	movslq %eax,%rbx
    811e:	8b 05 20 e1 00 00    	mov    0xe120(%rip),%eax        # 16244 <g_910>
    8124:	41 89 c4             	mov    %eax,%r12d
    8127:	8b 85 7c eb ff ff    	mov    -0x1484(%rbp),%eax
    812d:	0f b7 c0             	movzwl %ax,%eax
    8130:	be ff ff 00 00       	mov    $0xffff,%esi
    8135:	89 c7                	mov    %eax,%edi
    8137:	e8 20 cc ff ff       	callq  4d5c <safe_mod_func_uint16_t_u_u>
    813c:	0f b7 c8             	movzwl %ax,%ecx
    813f:	0f bf b5 42 eb ff ff 	movswl -0x14be(%rbp),%esi
    8146:	48 8b 15 1b f3 00 00 	mov    0xf31b(%rip),%rdx        # 17468 <g_1352>
    814d:	48 8b 85 00 ed ff ff 	mov    -0x1300(%rbp),%rax
    8154:	48 89 10             	mov    %rdx,(%rax)
    8157:	48 8b 85 00 ed ff ff 	mov    -0x1300(%rbp),%rax
    815e:	48 8b 10             	mov    (%rax),%rdx
    8161:	48 8b 85 58 f9 ff ff 	mov    -0x6a8(%rbp),%rax
    8168:	48 39 c2             	cmp    %rax,%rdx
    816b:	0f 95 c0             	setne  %al
    816e:	0f b6 c0             	movzbl %al,%eax
    8171:	39 c6                	cmp    %eax,%esi
    8173:	0f 9e c0             	setle  %al
    8176:	0f b6 c0             	movzbl %al,%eax
    8179:	39 c1                	cmp    %eax,%ecx
    817b:	0f 9d c0             	setge  %al
    817e:	0f b6 c8             	movzbl %al,%ecx
    8181:	48 8b 15 38 f3 00 00 	mov    0xf338(%rip),%rdx        # 174c0 <g_1356+0x40>
    8188:	48 8b 85 08 ed ff ff 	mov    -0x12f8(%rbp),%rax
    818f:	48 89 10             	mov    %rdx,(%rax)
    8192:	48 8b 85 08 ed ff ff 	mov    -0x12f8(%rbp),%rax
    8199:	48 8b 00             	mov    (%rax),%rax
    819c:	48 8d 15 85 e8 00 00 	lea    0xe885(%rip),%rdx        # 16a28 <g_288+0x28>
    81a3:	48 39 d0             	cmp    %rdx,%rax
    81a6:	0f 95 c0             	setne  %al
    81a9:	0f b6 c0             	movzbl %al,%eax
    81ac:	39 c1                	cmp    %eax,%ecx
    81ae:	0f 9f c0             	setg   %al
    81b1:	0f b6 d0             	movzbl %al,%edx
    81b4:	0f b6 05 fa de 00 00 	movzbl 0xdefa(%rip),%eax        # 160b5 <g_63>
    81bb:	0f be c0             	movsbl %al,%eax
    81be:	39 c2                	cmp    %eax,%edx
    81c0:	48 8b 05 11 e8 00 00 	mov    0xe811(%rip),%rax        # 169d8 <g_280>
    81c7:	c6 00 90             	movb   $0x90,(%rax)
    81ca:	0f b6 00             	movzbl (%rax),%eax
    81cd:	0f b6 c0             	movzbl %al,%eax
    81d0:	89 c6                	mov    %eax,%esi
    81d2:	bf 00 00 00 00       	mov    $0x0,%edi
    81d7:	e8 70 ca ff ff       	callq  4c4c <safe_lshift_func_uint8_t_u_u>
    81dc:	0f b6 c0             	movzbl %al,%eax
    81df:	4c 89 e6             	mov    %r12,%rsi
    81e2:	48 89 c7             	mov    %rax,%rdi
    81e5:	e8 57 c6 ff ff       	callq  4841 <safe_add_func_int64_t_s_s>
    81ea:	48 8b 85 78 ec ff ff 	mov    -0x1388(%rbp),%rax
    81f1:	8b 00                	mov    (%rax),%eax
    81f3:	48 63 d0             	movslq %eax,%rdx
    81f6:	48 8b 05 8b ea 00 00 	mov    0xea8b(%rip),%rax        # 16c88 <g_964>
    81fd:	48 8b 08             	mov    (%rax),%rcx
    8200:	48 8b 85 98 ec ff ff 	mov    -0x1368(%rbp),%rax
    8207:	48 8b 00             	mov    (%rax),%rax
    820a:	48 8b 09             	mov    (%rcx),%rcx
    820d:	48 89 08             	mov    %rcx,(%rax)
    8210:	48 8b 00             	mov    (%rax),%rax
    8213:	48 89 d6             	mov    %rdx,%rsi
    8216:	48 89 c7             	mov    %rax,%rdi
    8219:	e8 62 ce ff ff       	callq  5080 <safe_mod_func_uint64_t_u_u>
    821e:	48 39 c3             	cmp    %rax,%rbx
    8221:	0f 96 c0             	setbe  %al
    8224:	0f b6 d0             	movzbl %al,%edx
    8227:	48 8b 85 58 ec ff ff 	mov    -0x13a8(%rbp),%rax
    822e:	89 10                	mov    %edx,(%rax)
    8230:	48 8b 85 78 ec ff ff 	mov    -0x1388(%rbp),%rax
    8237:	8b 10                	mov    (%rax),%edx
    8239:	48 8b 85 08 ec ff ff 	mov    -0x13f8(%rbp),%rax
    8240:	89 10                	mov    %edx,(%rax)
    8242:	48 8b 15 7f e7 00 00 	mov    0xe77f(%rip),%rdx        # 169c8 <g_105>
    8249:	48 8b 05 78 e7 00 00 	mov    0xe778(%rip),%rax        # 169c8 <g_105>
    8250:	48 8b 12             	mov    (%rdx),%rdx
    8253:	48 89 10             	mov    %rdx,(%rax)
    8256:	48 8d 85 28 eb ff ff 	lea    -0x14d8(%rbp),%rax
    825d:	48 39 85 70 ec ff ff 	cmp    %rax,-0x1390(%rbp)
    8264:	0f 95 c0             	setne  %al
    8267:	0f b6 d8             	movzbl %al,%ebx
    826a:	8b 85 e8 ed ff ff    	mov    -0x1218(%rbp),%eax
    8270:	be 01 00 00 00       	mov    $0x1,%esi
    8275:	89 c7                	mov    %eax,%edi
    8277:	e8 89 c3 ff ff       	callq  4605 <safe_sub_func_int32_t_s_s>
    827c:	48 98                	cltq   
    827e:	48 89 de             	mov    %rbx,%rsi
    8281:	48 89 c7             	mov    %rax,%rdi
    8284:	e8 1f c6 ff ff       	callq  48a8 <safe_sub_func_int64_t_s_s>
    8289:	8b 9d d0 eb ff ff    	mov    -0x1430(%rbp),%ebx
    828f:	48 8d 05 1e de 00 00 	lea    0xde1e(%rip),%rax        # 160b4 <g_53>
    8296:	0f b6 00             	movzbl (%rax),%eax
    8299:	44 0f be e0          	movsbl %al,%r12d
    829d:	8b 85 5c eb ff ff    	mov    -0x14a4(%rbp),%eax
    82a3:	98                   	cwtl   
    82a4:	be ff ff ff ff       	mov    $0xffffffff,%esi
    82a9:	89 c7                	mov    %eax,%edi
    82ab:	e8 a5 c1 ff ff       	callq  4455 <safe_div_func_int16_t_s_s>
    82b0:	48 8b 15 e9 e9 00 00 	mov    0xe9e9(%rip),%rdx        # 16ca0 <g_1327>
    82b7:	48 8b 12             	mov    (%rdx),%rdx
    82ba:	48 8b 12             	mov    (%rdx),%rdx
    82bd:	0f b6 12             	movzbl (%rdx),%edx
    82c0:	66 0f be d2          	movsbw %dl,%dx
    82c4:	66 39 d0             	cmp    %dx,%ax
    82c7:	0f 95 c0             	setne  %al
    82ca:	0f b6 c0             	movzbl %al,%eax
    82cd:	44 89 e6             	mov    %r12d,%esi
    82d0:	89 c7                	mov    %eax,%edi
    82d2:	e8 3b bf ff ff       	callq  4212 <safe_mul_func_int8_t_s_s>
    82d7:	0f be c0             	movsbl %al,%eax
    82da:	89 de                	mov    %ebx,%esi
    82dc:	89 c7                	mov    %eax,%edi
    82de:	e8 0b c0 ff ff       	callq  42ee <safe_lshift_func_int8_t_s_u>
    82e3:	8b 85 e8 ed ff ff    	mov    -0x1218(%rbp),%eax
    82e9:	83 c8 7f             	or     $0x7f,%eax
    82ec:	0f be c0             	movsbl %al,%eax
    82ef:	8b 95 b8 eb ff ff    	mov    -0x1448(%rbp),%edx
    82f5:	89 d6                	mov    %edx,%esi
    82f7:	89 c7                	mov    %eax,%edi
    82f9:	e8 37 c0 ff ff       	callq  4335 <safe_rshift_func_int8_t_s_s>
    82fe:	0f be c0             	movsbl %al,%eax
    8301:	39 85 80 eb ff ff    	cmp    %eax,-0x1480(%rbp)
    8307:	7c 10                	jl     8319 <func_2+0x293e>
    8309:	83 bd d4 eb ff ff 00 	cmpl   $0x0,-0x142c(%rbp)
    8310:	74 07                	je     8319 <func_2+0x293e>
    8312:	ba 01 00 00 00       	mov    $0x1,%edx
    8317:	eb 05                	jmp    831e <func_2+0x2943>
    8319:	ba 00 00 00 00       	mov    $0x0,%edx
    831e:	8b 85 48 ee ff ff    	mov    -0x11b8(%rbp),%eax
    8324:	09 d0                	or     %edx,%eax
    8326:	89 85 48 ee ff ff    	mov    %eax,-0x11b8(%rbp)
    832c:	e9 fc 00 00 00       	jmpq   842d <func_2+0x2a52>
    8331:	c6 85 37 eb ff ff 00 	movb   $0x0,-0x14c9(%rbp)
    8338:	48 8b 85 48 ec ff ff 	mov    -0x13b8(%rbp),%rax
    833f:	48 8b 00             	mov    (%rax),%rax
    8342:	8b 95 54 eb ff ff    	mov    -0x14ac(%rbp),%edx
    8348:	88 10                	mov    %dl,(%rax)
    834a:	0f b6 85 37 eb ff ff 	movzbl -0x14c9(%rbp),%eax
    8351:	0f b6 d8             	movzbl %al,%ebx
    8354:	48 8b 85 78 ec ff ff 	mov    -0x1388(%rbp),%rax
    835b:	44 8b 20             	mov    (%rax),%r12d
    835e:	83 bd 4c eb ff ff ff 	cmpl   $0xffffffff,-0x14b4(%rbp)
    8365:	0f 94 c0             	sete   %al
    8368:	89 c1                	mov    %eax,%ecx
    836a:	8b 85 b8 eb ff ff    	mov    -0x1448(%rbp),%eax
    8370:	83 e0 6d             	and    $0x6d,%eax
    8373:	89 c2                	mov    %eax,%edx
    8375:	48 8b 05 1c e9 00 00 	mov    0xe91c(%rip),%rax        # 16c98 <g_1133>
    837c:	48 8b 00             	mov    (%rax),%rax
    837f:	31 ca                	xor    %ecx,%edx
    8381:	88 10                	mov    %dl,(%rax)
    8383:	0f b6 00             	movzbl (%rax),%eax
    8386:	0f be c0             	movsbl %al,%eax
    8389:	be 01 00 00 00       	mov    $0x1,%esi
    838e:	89 c7                	mov    %eax,%edi
    8390:	e8 3f be ff ff       	callq  41d4 <safe_add_func_int8_t_s_s>
    8395:	84 c0                	test   %al,%al
    8397:	74 07                	je     83a0 <func_2+0x29c5>
    8399:	b8 01 00 00 00       	mov    $0x1,%eax
    839e:	eb 05                	jmp    83a5 <func_2+0x29ca>
    83a0:	b8 00 00 00 00       	mov    $0x0,%eax
    83a5:	0f be c0             	movsbl %al,%eax
    83a8:	be 2a 00 00 00       	mov    $0x2a,%esi
    83ad:	89 c7                	mov    %eax,%edi
    83af:	e8 b6 be ff ff       	callq  426a <safe_div_func_int8_t_s_s>
    83b4:	89 c2                	mov    %eax,%edx
    83b6:	48 8b 05 1b e6 00 00 	mov    0xe61b(%rip),%rax        # 169d8 <g_280>
    83bd:	88 10                	mov    %dl,(%rax)
    83bf:	0f b6 00             	movzbl (%rax),%eax
    83c2:	0f b6 d0             	movzbl %al,%edx
    83c5:	48 8b 85 78 ec ff ff 	mov    -0x1388(%rbp),%rax
    83cc:	8b 00                	mov    (%rax),%eax
    83ce:	39 c2                	cmp    %eax,%edx
    83d0:	0f 9c c0             	setl   %al
    83d3:	0f b6 c0             	movzbl %al,%eax
    83d6:	41 39 c4             	cmp    %eax,%r12d
    83d9:	0f 9e c0             	setle  %al
    83dc:	0f b6 c0             	movzbl %al,%eax
    83df:	89 de                	mov    %ebx,%esi
    83e1:	89 c7                	mov    %eax,%edi
    83e3:	e8 f3 c7 ff ff       	callq  4bdb <safe_div_func_uint8_t_u_u>
    83e8:	0f b6 c0             	movzbl %al,%eax
    83eb:	89 c6                	mov    %eax,%esi
    83ed:	bf ff ff ff ff       	mov    $0xffffffff,%edi
    83f2:	e8 fe bf ff ff       	callq  43f5 <safe_mul_func_int16_t_s_s>
    83f7:	8b 85 e8 ed ff ff    	mov    -0x1218(%rbp),%eax
    83fd:	89 c2                	mov    %eax,%edx
    83ff:	48 8b 85 10 ec ff ff 	mov    -0x13f0(%rbp),%rax
    8406:	8b 00                	mov    (%rax),%eax
    8408:	0f b7 c0             	movzwl %ax,%eax
    840b:	89 d6                	mov    %edx,%esi
    840d:	89 c7                	mov    %eax,%edi
    840f:	e8 f2 c9 ff ff       	callq  4e06 <safe_lshift_func_uint16_t_u_u>
    8414:	66 83 f8 f8          	cmp    $0xfff8,%ax
    8418:	0f 95 c0             	setne  %al
    841b:	0f b6 c0             	movzbl %al,%eax
    841e:	21 85 88 eb ff ff    	and    %eax,-0x1478(%rbp)
    8424:	83 bd b8 eb ff ff 00 	cmpl   $0x0,-0x1448(%rbp)
    842b:	75 34                	jne    8461 <func_2+0x2a86>
    842d:	48 8b 85 78 ec ff ff 	mov    -0x1388(%rbp),%rax
    8434:	8b 10                	mov    (%rax),%edx
    8436:	48 8b 05 2b f0 00 00 	mov    0xf02b(%rip),%rax        # 17468 <g_1352>
    843d:	48 8b 00             	mov    (%rax),%rax
    8440:	66 89 10             	mov    %dx,(%rax)
    8443:	0f b7 00             	movzwl (%rax),%eax
    8446:	98                   	cwtl   
    8447:	be 05 00 00 00       	mov    $0x5,%esi
    844c:	89 c7                	mov    %eax,%edi
    844e:	e8 3f c0 ff ff       	callq  4492 <safe_lshift_func_int16_t_s_s>
    8453:	0f bf d0             	movswl %ax,%edx
    8456:	48 8b 85 40 ec ff ff 	mov    -0x13c0(%rbp),%rax
    845d:	89 10                	mov    %edx,(%rax)
    845f:	eb 01                	jmp    8462 <func_2+0x2a87>
    8461:	90                   	nop
    8462:	8b 05 48 dc 00 00    	mov    0xdc48(%rip),%eax        # 160b0 <g_46>
    8468:	98                   	cwtl   
    8469:	be 04 00 00 00       	mov    $0x4,%esi
    846e:	89 c7                	mov    %eax,%edi
    8470:	e8 5e bf ff ff       	callq  43d3 <safe_sub_func_int16_t_s_s>
    8475:	98                   	cwtl   
    8476:	89 05 34 dc 00 00    	mov    %eax,0xdc34(%rip)        # 160b0 <g_46>
    847c:	8b 05 2e dc 00 00    	mov    0xdc2e(%rip),%eax        # 160b0 <g_46>
    8482:	83 f8 f7             	cmp    $0xfffffff7,%eax
    8485:	0f 8d 61 fa ff ff    	jge    7eec <func_2+0x2511>
    848b:	8b 85 c0 eb ff ff    	mov    -0x1440(%rbp),%eax
    8491:	4c 63 e8             	movslq %eax,%r13
    8494:	48 8b 85 78 ec ff ff 	mov    -0x1388(%rbp),%rax
    849b:	8b 00                	mov    (%rax),%eax
    849d:	85 c0                	test   %eax,%eax
    849f:	0f 85 b9 00 00 00    	jne    855e <func_2+0x2b83>
    84a5:	8b 85 b8 eb ff ff    	mov    -0x1448(%rbp),%eax
    84ab:	98                   	cwtl   
    84ac:	be 08 00 00 00       	mov    $0x8,%esi
    84b1:	89 c7                	mov    %eax,%edi
    84b3:	e8 29 c0 ff ff       	callq  44e1 <safe_lshift_func_int16_t_s_u>
    84b8:	48 8b 85 18 ec ff ff 	mov    -0x13e8(%rbp),%rax
    84bf:	44 8b 30             	mov    (%rax),%r14d
    84c2:	48 8b 85 40 ec ff ff 	mov    -0x13c0(%rbp),%rax
    84c9:	8b 18                	mov    (%rax),%ebx
    84cb:	48 8b 85 10 ec ff ff 	mov    -0x13f0(%rbp),%rax
    84d2:	8b 00                	mov    (%rax),%eax
    84d4:	44 0f bf e0          	movswl %ax,%r12d
    84d8:	48 8b 85 78 ec ff ff 	mov    -0x1388(%rbp),%rax
    84df:	8b 00                	mov    (%rax),%eax
    84e1:	98                   	cwtl   
    84e2:	be 06 00 00 00       	mov    $0x6,%esi
    84e7:	89 c7                	mov    %eax,%edi
    84e9:	e8 75 c0 ff ff       	callq  4563 <safe_rshift_func_int16_t_s_u>
    84ee:	48 8b 05 8b e7 00 00 	mov    0xe78b(%rip),%rax        # 16c80 <g_965>
    84f5:	8b 05 35 dd 00 00    	mov    0xdd35(%rip),%eax        # 16230 <g_667>
    84fb:	83 f0 01             	xor    $0x1,%eax
    84fe:	98                   	cwtl   
    84ff:	44 89 e6             	mov    %r12d,%esi
    8502:	89 c7                	mov    %eax,%edi
    8504:	e8 4c bf ff ff       	callq  4455 <safe_div_func_int16_t_s_s>
    8509:	98                   	cwtl   
    850a:	89 de                	mov    %ebx,%esi
    850c:	89 c7                	mov    %eax,%edi
    850e:	e8 f2 c0 ff ff       	callq  4605 <safe_sub_func_int32_t_s_s>
    8513:	0f be c0             	movsbl %al,%eax
    8516:	be 07 00 00 00       	mov    $0x7,%esi
    851b:	89 c7                	mov    %eax,%edi
    851d:	e8 f0 bc ff ff       	callq  4212 <safe_mul_func_int8_t_s_s>
    8522:	0f be c0             	movsbl %al,%eax
    8525:	be e1 ff ff ff       	mov    $0xffffffe1,%esi
    852a:	89 c7                	mov    %eax,%edi
    852c:	e8 39 bd ff ff       	callq  426a <safe_div_func_int8_t_s_s>
    8531:	0f be d0             	movsbl %al,%edx
    8534:	48 8b 85 08 ec ff ff 	mov    -0x13f8(%rbp),%rax
    853b:	8b 00                	mov    (%rax),%eax
    853d:	31 d0                	xor    %edx,%eax
    853f:	41 39 c6             	cmp    %eax,%r14d
    8542:	0f 9f c0             	setg   %al
    8545:	0f b6 d0             	movzbl %al,%edx
    8548:	8b 85 54 eb ff ff    	mov    -0x14ac(%rbp),%eax
    854e:	0f be c0             	movsbl %al,%eax
    8551:	89 d6                	mov    %edx,%esi
    8553:	89 c7                	mov    %eax,%edi
    8555:	e8 b8 bc ff ff       	callq  4212 <safe_mul_func_int8_t_s_s>
    855a:	84 c0                	test   %al,%al
    855c:	74 07                	je     8565 <func_2+0x2b8a>
    855e:	ba 01 00 00 00       	mov    $0x1,%edx
    8563:	eb 05                	jmp    856a <func_2+0x2b8f>
    8565:	ba 00 00 00 00       	mov    $0x0,%edx
    856a:	48 8b 85 e0 eb ff ff 	mov    -0x1420(%rbp),%rax
    8571:	48 63 d2             	movslq %edx,%rdx
    8574:	48 89 10             	mov    %rdx,(%rax)
    8577:	48 8b 00             	mov    (%rax),%rax
    857a:	49 39 c5             	cmp    %rax,%r13
    857d:	0f 83 41 04 00 00    	jae    89c4 <func_2+0x2fe9>
    8583:	48 8d 05 be f3 00 00 	lea    0xf3be(%rip),%rax        # 17948 <g_596+0x8>
    858a:	48 89 85 c0 ec ff ff 	mov    %rax,-0x1340(%rbp)
    8591:	48 8d 05 30 db 00 00 	lea    0xdb30(%rip),%rax        # 160c8 <g_64+0x8>
    8598:	48 89 85 c8 ec ff ff 	mov    %rax,-0x1338(%rbp)
    859f:	c7 85 c8 eb ff ff 01 	movl   $0x1,-0x1438(%rbp)
    85a6:	00 00 00 
    85a9:	48 c7 85 d0 ec ff ff 	movq   $0x0,-0x1330(%rbp)
    85b0:	00 00 00 00 
    85b4:	48 8d 85 38 eb ff ff 	lea    -0x14c8(%rbp),%rax
    85bb:	48 89 85 d8 ec ff ff 	mov    %rax,-0x1328(%rbp)
    85c2:	48 8b 85 78 ec ff ff 	mov    -0x1388(%rbp),%rax
    85c9:	8b 00                	mov    (%rax),%eax
    85cb:	85 c0                	test   %eax,%eax
    85cd:	0f 85 31 01 00 00    	jne    8704 <func_2+0x2d29>
    85d3:	48 8b 05 c6 e6 00 00 	mov    0xe6c6(%rip),%rax        # 16ca0 <g_1327>
    85da:	48 8b 00             	mov    (%rax),%rax
    85dd:	48 8b 00             	mov    (%rax),%rax
    85e0:	c6 00 3f             	movb   $0x3f,(%rax)
    85e3:	8b 85 58 eb ff ff    	mov    -0x14a8(%rbp),%eax
    85e9:	0f be c0             	movsbl %al,%eax
    85ec:	be 3f 00 00 00       	mov    $0x3f,%esi
    85f1:	89 c7                	mov    %eax,%edi
    85f3:	e8 dc bb ff ff       	callq  41d4 <safe_add_func_int8_t_s_s>
    85f8:	44 0f be e0          	movsbl %al,%r12d
    85fc:	8b 85 c8 eb ff ff    	mov    -0x1438(%rbp),%eax
    8602:	0f b6 d8             	movzbl %al,%ebx
    8605:	8b 85 44 eb ff ff    	mov    -0x14bc(%rbp),%eax
    860b:	83 c8 01             	or     $0x1,%eax
    860e:	89 c2                	mov    %eax,%edx
    8610:	8b 85 7c eb ff ff    	mov    -0x1484(%rbp),%eax
    8616:	89 c6                	mov    %eax,%esi
    8618:	89 d7                	mov    %edx,%edi
    861a:	e8 ad c0 ff ff       	callq  46cc <safe_mod_func_int32_t_s_s>
    861f:	48 8b 85 c0 ec ff ff 	mov    -0x1340(%rbp),%rax
    8626:	48 89 85 a0 ec ff ff 	mov    %rax,-0x1360(%rbp)
    862d:	48 83 bd a0 ec ff ff 	cmpq   $0x0,-0x1360(%rbp)
    8634:	00 
    8635:	0f 95 c0             	setne  %al
    8638:	0f b6 c0             	movzbl %al,%eax
    863b:	21 85 4c eb ff ff    	and    %eax,-0x14b4(%rbp)
    8641:	8b 85 4c eb ff ff    	mov    -0x14b4(%rbp),%eax
    8647:	0f be d0             	movsbl %al,%edx
    864a:	48 8b 85 78 ec ff ff 	mov    -0x1388(%rbp),%rax
    8651:	8b 00                	mov    (%rax),%eax
    8653:	0f be c0             	movsbl %al,%eax
    8656:	89 d6                	mov    %edx,%esi
    8658:	89 c7                	mov    %eax,%edi
    865a:	e8 b3 bb ff ff       	callq  4212 <safe_mul_func_int8_t_s_s>
    865f:	0f be c8             	movsbl %al,%ecx
    8662:	48 8d 85 44 eb ff ff 	lea    -0x14bc(%rbp),%rax
    8669:	48 39 85 c8 ec ff ff 	cmp    %rax,-0x1338(%rbp)
    8670:	0f 95 c0             	setne  %al
    8673:	0f b6 d0             	movzbl %al,%edx
    8676:	48 8b 85 58 ec ff ff 	mov    -0x13a8(%rbp),%rax
    867d:	89 10                	mov    %edx,(%rax)
    867f:	48 8b 85 58 ec ff ff 	mov    -0x13a8(%rbp),%rax
    8686:	8b 10                	mov    (%rax),%edx
    8688:	48 8b 85 20 ec ff ff 	mov    -0x13e0(%rbp),%rax
    868f:	89 10                	mov    %edx,(%rax)
    8691:	48 8b 85 20 ec ff ff 	mov    -0x13e0(%rbp),%rax
    8698:	8b 10                	mov    (%rax),%edx
    869a:	81 bd 80 eb ff ff 91 	cmpl   $0x4e16b191,-0x1480(%rbp)
    86a1:	b1 16 4e 
    86a4:	0f 9f c0             	setg   %al
    86a7:	0f b6 c0             	movzbl %al,%eax
    86aa:	39 c2                	cmp    %eax,%edx
    86ac:	0f 9c c0             	setl   %al
    86af:	0f b6 c0             	movzbl %al,%eax
    86b2:	39 c1                	cmp    %eax,%ecx
    86b4:	0f 9f c0             	setg   %al
    86b7:	0f b6 c0             	movzbl %al,%eax
    86ba:	be 00 00 00 00       	mov    $0x0,%esi
    86bf:	89 c7                	mov    %eax,%edi
    86c1:	e8 4c bb ff ff       	callq  4212 <safe_mul_func_int8_t_s_s>
    86c6:	be 00 6b 44 18       	mov    $0x18446b00,%esi
    86cb:	bf 00 00 00 00       	mov    $0x0,%edi
    86d0:	e8 e1 be ff ff       	callq  45b6 <safe_add_func_int32_t_s_s>
    86d5:	85 c0                	test   %eax,%eax
    86d7:	0f 94 c0             	sete   %al
    86da:	0f b6 c0             	movzbl %al,%eax
    86dd:	39 85 c8 eb ff ff    	cmp    %eax,-0x1438(%rbp)
    86e3:	0f 9f c0             	setg   %al
    86e6:	0f b6 c0             	movzbl %al,%eax
    86e9:	89 de                	mov    %ebx,%esi
    86eb:	89 c7                	mov    %eax,%edi
    86ed:	e8 a1 c4 ff ff       	callq  4b93 <safe_mul_func_uint8_t_u_u>
    86f2:	0f b6 c0             	movzbl %al,%eax
    86f5:	44 89 e2             	mov    %r12d,%edx
    86f8:	09 c2                	or     %eax,%edx
    86fa:	8b 85 e8 ed ff ff    	mov    -0x1218(%rbp),%eax
    8700:	39 c2                	cmp    %eax,%edx
    8702:	74 07                	je     870b <func_2+0x2d30>
    8704:	b8 01 00 00 00       	mov    $0x1,%eax
    8709:	eb 05                	jmp    8710 <func_2+0x2d35>
    870b:	b8 00 00 00 00       	mov    $0x0,%eax
    8710:	0f be c0             	movsbl %al,%eax
    8713:	be c3 ff ff ff       	mov    $0xffffffc3,%esi
    8718:	89 c7                	mov    %eax,%edi
    871a:	e8 4b bb ff ff       	callq  426a <safe_div_func_int8_t_s_s>
    871f:	0f be d0             	movsbl %al,%edx
    8722:	8b 85 e8 ed ff ff    	mov    -0x1218(%rbp),%eax
    8728:	39 c2                	cmp    %eax,%edx
    872a:	0f 9f c0             	setg   %al
    872d:	0f b6 d0             	movzbl %al,%edx
    8730:	48 8b 85 08 ec ff ff 	mov    -0x13f8(%rbp),%rax
    8737:	8b 00                	mov    (%rax),%eax
    8739:	09 c2                	or     %eax,%edx
    873b:	48 8b 85 08 ec ff ff 	mov    -0x13f8(%rbp),%rax
    8742:	89 10                	mov    %edx,(%rax)
    8744:	8b 05 7e db 00 00    	mov    0xdb7e(%rip),%eax        # 162c8 <g_1456>
    874a:	89 85 1c eb ff ff    	mov    %eax,-0x14e4(%rbp)
    8750:	8b 85 c8 eb ff ff    	mov    -0x1438(%rbp),%eax
    8756:	0f b7 d0             	movzwl %ax,%edx
    8759:	48 8b 85 78 ec ff ff 	mov    -0x1388(%rbp),%rax
    8760:	8b 00                	mov    (%rax),%eax
    8762:	0f b7 c0             	movzwl %ax,%eax
    8765:	89 d6                	mov    %edx,%esi
    8767:	89 c7                	mov    %eax,%edi
    8769:	e8 cf c5 ff ff       	callq  4d3d <safe_mul_func_uint16_t_u_u>
    876e:	66 85 c0             	test   %ax,%ax
    8771:	74 10                	je     8783 <func_2+0x2da8>
    8773:	48 8b 05 ee ec 00 00 	mov    0xecee(%rip),%rax        # 17468 <g_1352>
    877a:	48 8b 00             	mov    (%rax),%rax
    877d:	0f b7 00             	movzwl (%rax),%eax
    8780:	66 85 c0             	test   %ax,%ax
    8783:	8b 85 ec ed ff ff    	mov    -0x1214(%rbp),%eax
    8789:	0f be d8             	movsbl %al,%ebx
    878c:	48 8b 85 78 ec ff ff 	mov    -0x1388(%rbp),%rax
    8793:	44 8b 20             	mov    (%rax),%r12d
    8796:	8b 85 c8 eb ff ff    	mov    -0x1438(%rbp),%eax
    879c:	44 0f b7 e8          	movzwl %ax,%r13d
    87a0:	48 8b 85 78 ec ff ff 	mov    -0x1388(%rbp),%rax
    87a7:	8b 00                	mov    (%rax),%eax
    87a9:	89 85 18 eb ff ff    	mov    %eax,-0x14e8(%rbp)
    87af:	48 8b 85 78 ec ff ff 	mov    -0x1388(%rbp),%rax
    87b6:	8b 00                	mov    (%rax),%eax
    87b8:	44 0f be f0          	movsbl %al,%r14d
    87bc:	48 8b 85 78 ec ff ff 	mov    -0x1388(%rbp),%rax
    87c3:	8b 00                	mov    (%rax),%eax
    87c5:	89 85 14 eb ff ff    	mov    %eax,-0x14ec(%rbp)
    87cb:	48 8b 05 8e ec 00 00 	mov    0xec8e(%rip),%rax        # 17460 <g_1353>
    87d2:	0f b7 00             	movzwl (%rax),%eax
    87d5:	44 0f bf f8          	movswl %ax,%r15d
    87d9:	8b 85 6c eb ff ff    	mov    -0x1494(%rbp),%eax
    87df:	0f b6 f8             	movzbl %al,%edi
    87e2:	89 bd 10 eb ff ff    	mov    %edi,-0x14f0(%rbp)
    87e8:	48 8b 85 78 ec ff ff 	mov    -0x1388(%rbp),%rax
    87ef:	8b 00                	mov    (%rax),%eax
    87f1:	0f bf d0             	movswl %ax,%edx
    87f4:	89 95 0c eb ff ff    	mov    %edx,-0x14f4(%rbp)
    87fa:	83 bd 6c eb ff ff 00 	cmpl   $0x0,-0x1494(%rbp)
    8801:	0f 9f c0             	setg   %al
    8804:	0f b6 c0             	movzbl %al,%eax
    8807:	be b2 ff ff ff       	mov    $0xffffffb2,%esi
    880c:	89 c7                	mov    %eax,%edi
    880e:	e8 c1 b9 ff ff       	callq  41d4 <safe_add_func_int8_t_s_s>
    8813:	0f be c0             	movsbl %al,%eax
    8816:	8b b5 0c eb ff ff    	mov    -0x14f4(%rbp),%esi
    881c:	89 c7                	mov    %eax,%edi
    881e:	e8 90 bb ff ff       	callq  43b3 <safe_add_func_int16_t_s_s>
    8823:	0f b6 c0             	movzbl %al,%eax
    8826:	8b b5 10 eb ff ff    	mov    -0x14f0(%rbp),%esi
    882c:	89 c7                	mov    %eax,%edi
    882e:	e8 45 c3 ff ff       	callq  4b78 <safe_sub_func_uint8_t_u_u>
    8833:	8b 85 6c eb ff ff    	mov    -0x1494(%rbp),%eax
    8839:	48 98                	cltq   
    883b:	48 83 f8 08          	cmp    $0x8,%rax
    883f:	0f 96 c0             	setbe  %al
    8842:	0f b6 d0             	movzbl %al,%edx
    8845:	48 8b 85 60 ec ff ff 	mov    -0x13a0(%rbp),%rax
    884c:	66 89 10             	mov    %dx,(%rax)
    884f:	48 8b 85 60 ec ff ff 	mov    -0x13a0(%rbp),%rax
    8856:	0f b7 00             	movzwl (%rax),%eax
    8859:	0f b7 c0             	movzwl %ax,%eax
    885c:	44 89 fe             	mov    %r15d,%esi
    885f:	89 c7                	mov    %eax,%edi
    8861:	e8 58 c5 ff ff       	callq  4dbe <safe_lshift_func_uint16_t_u_s>
    8866:	66 83 f8 fd          	cmp    $0xfffd,%ax
    886a:	0f 95 c2             	setne  %dl
    886d:	48 8d 05 40 d8 00 00 	lea    0xd840(%rip),%rax        # 160b4 <g_53>
    8874:	88 10                	mov    %dl,(%rax)
    8876:	0f b6 00             	movzbl (%rax),%eax
    8879:	0f b6 c0             	movzbl %al,%eax
    887c:	be 04 00 00 00       	mov    $0x4,%esi
    8881:	89 c7                	mov    %eax,%edi
    8883:	e8 c4 c3 ff ff       	callq  4c4c <safe_lshift_func_uint8_t_u_u>
    8888:	0f b6 c0             	movzbl %al,%eax
    888b:	8b b5 14 eb ff ff    	mov    -0x14ec(%rbp),%esi
    8891:	89 c7                	mov    %eax,%edi
    8893:	e8 8d c6 ff ff       	callq  4f25 <safe_div_func_uint32_t_u_u>
    8898:	be 06 00 00 00       	mov    $0x6,%esi
    889d:	bf 01 00 00 00       	mov    $0x1,%edi
    88a2:	e8 2c bb ff ff       	callq  43d3 <safe_sub_func_int16_t_s_s>
    88a7:	48 0f bf d0          	movswq %ax,%rdx
    88ab:	48 8b 05 d6 e3 00 00 	mov    0xe3d6(%rip),%rax        # 16c88 <g_964>
    88b2:	48 8b 00             	mov    (%rax),%rax
    88b5:	48 8b 00             	mov    (%rax),%rax
    88b8:	48 39 c2             	cmp    %rax,%rdx
    88bb:	0f 95 c0             	setne  %al
    88be:	0f b6 c0             	movzbl %al,%eax
    88c1:	44 89 f6             	mov    %r14d,%esi
    88c4:	89 c7                	mov    %eax,%edi
    88c6:	e8 27 b9 ff ff       	callq  41f2 <safe_sub_func_int8_t_s_s>
    88cb:	0f be c0             	movsbl %al,%eax
    88ce:	0b 85 18 eb ff ff    	or     -0x14e8(%rbp),%eax
    88d4:	85 c0                	test   %eax,%eax
    88d6:	75 0d                	jne    88e5 <func_2+0x2f0a>
    88d8:	48 8b 85 78 ec ff ff 	mov    -0x1388(%rbp),%rax
    88df:	8b 00                	mov    (%rax),%eax
    88e1:	85 c0                	test   %eax,%eax
    88e3:	74 07                	je     88ec <func_2+0x2f11>
    88e5:	b8 01 00 00 00       	mov    $0x1,%eax
    88ea:	eb 05                	jmp    88f1 <func_2+0x2f16>
    88ec:	b8 00 00 00 00       	mov    $0x0,%eax
    88f1:	0f b7 c0             	movzwl %ax,%eax
    88f4:	44 89 ee             	mov    %r13d,%esi
    88f7:	89 c7                	mov    %eax,%edi
    88f9:	e8 5e c4 ff ff       	callq  4d5c <safe_mod_func_uint16_t_u_u>
    88fe:	0f b7 d0             	movzwl %ax,%edx
    8901:	48 8b 85 30 ec ff ff 	mov    -0x13d0(%rbp),%rax
    8908:	89 10                	mov    %edx,(%rax)
    890a:	48 8b 85 30 ec ff ff 	mov    -0x13d0(%rbp),%rax
    8911:	8b 00                	mov    (%rax),%eax
    8913:	44 89 e6             	mov    %r12d,%esi
    8916:	89 c7                	mov    %eax,%edi
    8918:	e8 e2 bd ff ff       	callq  46ff <safe_div_func_int32_t_s_s>
    891d:	0f b6 15 91 d7 00 00 	movzbl 0xd791(%rip),%edx        # 160b5 <g_63>
    8924:	0f be d2             	movsbl %dl,%edx
    8927:	39 d0                	cmp    %edx,%eax
    8929:	0f 9f c0             	setg   %al
    892c:	0f b6 d0             	movzbl %al,%edx
    892f:	8b 05 bf d7 00 00    	mov    0xd7bf(%rip),%eax        # 160f4 <g_124>
    8935:	39 c2                	cmp    %eax,%edx
    8937:	0f 96 c0             	setbe  %al
    893a:	0f b6 d0             	movzbl %al,%edx
    893d:	48 8b 85 d8 ec ff ff 	mov    -0x1328(%rbp),%rax
    8944:	66 89 10             	mov    %dx,(%rax)
    8947:	8b 05 63 d7 00 00    	mov    0xd763(%rip),%eax        # 160b0 <g_46>
    894d:	39 85 c8 eb ff ff    	cmp    %eax,-0x1438(%rbp)
    8953:	74 07                	je     895c <func_2+0x2f81>
    8955:	b8 01 00 00 00       	mov    $0x1,%eax
    895a:	eb 05                	jmp    8961 <func_2+0x2f86>
    895c:	b8 00 00 00 00       	mov    $0x0,%eax
    8961:	0f be c0             	movsbl %al,%eax
    8964:	be 00 00 00 00       	mov    $0x0,%esi
    8969:	89 c7                	mov    %eax,%edi
    896b:	e8 fc b9 ff ff       	callq  436c <safe_rshift_func_int8_t_s_u>
    8970:	89 c2                	mov    %eax,%edx
    8972:	48 8b 05 e7 ea 00 00 	mov    0xeae7(%rip),%rax        # 17460 <g_1353>
    8979:	0f b7 00             	movzwl (%rax),%eax
    897c:	31 d0                	xor    %edx,%eax
    897e:	0f be c0             	movsbl %al,%eax
    8981:	89 de                	mov    %ebx,%esi
    8983:	89 c7                	mov    %eax,%edi
    8985:	e8 88 b8 ff ff       	callq  4212 <safe_mul_func_int8_t_s_s>
    898a:	48 8b 85 08 ec ff ff 	mov    -0x13f8(%rbp),%rax
    8991:	8b 00                	mov    (%rax),%eax
    8993:	39 85 c8 eb ff ff    	cmp    %eax,-0x1438(%rbp)
    8999:	0f 95 c0             	setne  %al
    899c:	0f b6 c0             	movzbl %al,%eax
    899f:	39 85 c8 eb ff ff    	cmp    %eax,-0x1438(%rbp)
    89a5:	0f 95 c0             	setne  %al
    89a8:	0f b6 c0             	movzbl %al,%eax
    89ab:	8b b5 1c eb ff ff    	mov    -0x14e4(%rbp),%esi
    89b1:	89 c7                	mov    %eax,%edi
    89b3:	e8 94 c2 ff ff       	callq  4c4c <safe_lshift_func_uint8_t_u_u>
    89b8:	48 8b 85 28 eb ff ff 	mov    -0x14d8(%rbp),%rax
    89bf:	e9 b5 03 00 00       	jmpq   8d79 <func_2+0x339e>
    89c4:	66 c7 85 3e eb ff ff 	movw   $0x1bfc,-0x14c2(%rbp)
    89cb:	fc 1b 
    89cd:	c7 85 c4 eb ff ff 08 	movl   $0x8,-0x143c(%rbp)
    89d4:	00 00 00 
    89d7:	c7 85 90 eb ff ff 1c 	movl   $0x1c,-0x1470(%rbp)
    89de:	00 00 00 
    89e1:	e9 a7 01 00 00       	jmpq   8b8d <func_2+0x31b2>
    89e6:	48 b8 7e 38 70 5c 8f 	movabs $0x7752488f5c70387e,%rax
    89ed:	48 52 77 
    89f0:	48 89 85 b8 ec ff ff 	mov    %rax,-0x1348(%rbp)
    89f7:	48 8b 85 f0 eb ff ff 	mov    -0x1410(%rbp),%rax
    89fe:	0f b7 08             	movzwl (%rax),%ecx
    8a01:	48 8b 05 58 ea 00 00 	mov    0xea58(%rip),%rax        # 17460 <g_1353>
    8a08:	0f b7 10             	movzwl (%rax),%edx
    8a0b:	48 8b 85 f0 eb ff ff 	mov    -0x1410(%rbp),%rax
    8a12:	21 ca                	and    %ecx,%edx
    8a14:	66 89 10             	mov    %dx,(%rax)
    8a17:	0f b7 00             	movzwl (%rax),%eax
    8a1a:	66 39 85 3e eb ff ff 	cmp    %ax,-0x14c2(%rbp)
    8a21:	0f 95 c0             	setne  %al
    8a24:	0f b6 d0             	movzbl %al,%edx
    8a27:	48 8b 85 08 ec ff ff 	mov    -0x13f8(%rbp),%rax
    8a2e:	8b 00                	mov    (%rax),%eax
    8a30:	31 c2                	xor    %eax,%edx
    8a32:	48 8b 85 08 ec ff ff 	mov    -0x13f8(%rbp),%rax
    8a39:	89 10                	mov    %edx,(%rax)
    8a3b:	48 8b 85 b8 ec ff ff 	mov    -0x1348(%rbp),%rax
    8a42:	0f b6 d8             	movzbl %al,%ebx
    8a45:	0f b6 05 80 d8 00 00 	movzbl 0xd880(%rip),%eax        # 162cc <g_1484>
    8a4c:	0f be d0             	movsbl %al,%edx
    8a4f:	0f b7 85 3a eb ff ff 	movzwl -0x14c6(%rbp),%eax
    8a56:	39 c2                	cmp    %eax,%edx
    8a58:	0f 9f c0             	setg   %al
    8a5b:	44 0f b6 e0          	movzbl %al,%r12d
    8a5f:	48 8b 85 b8 ec ff ff 	mov    -0x1348(%rbp),%rax
    8a66:	41 89 c5             	mov    %eax,%r13d
    8a69:	83 bd 50 eb ff ff 00 	cmpl   $0x0,-0x14b0(%rbp)
    8a70:	74 10                	je     8a82 <func_2+0x30a7>
    8a72:	83 bd b8 eb ff ff 01 	cmpl   $0x1,-0x1448(%rbp)
    8a79:	74 07                	je     8a82 <func_2+0x30a7>
    8a7b:	b8 01 00 00 00       	mov    $0x1,%eax
    8a80:	eb 05                	jmp    8a87 <func_2+0x30ac>
    8a82:	b8 00 00 00 00       	mov    $0x0,%eax
    8a87:	98                   	cwtl   
    8a88:	be 0f 00 00 00       	mov    $0xf,%esi
    8a8d:	89 c7                	mov    %eax,%edi
    8a8f:	e8 96 ba ff ff       	callq  452a <safe_rshift_func_int16_t_s_s>
    8a94:	66 83 f8 06          	cmp    $0x6,%ax
    8a98:	0f 95 c0             	setne  %al
    8a9b:	0f b6 c0             	movzbl %al,%eax
    8a9e:	be 06 00 00 00       	mov    $0x6,%esi
    8aa3:	89 c7                	mov    %eax,%edi
    8aa5:	e8 8b b8 ff ff       	callq  4335 <safe_rshift_func_int8_t_s_s>
    8aaa:	3c 07                	cmp    $0x7,%al
    8aac:	0f 9f c0             	setg   %al
    8aaf:	0f b6 c0             	movzbl %al,%eax
    8ab2:	48 39 85 b8 ec ff ff 	cmp    %rax,-0x1348(%rbp)
    8ab9:	72 07                	jb     8ac2 <func_2+0x30e7>
    8abb:	ba 14 00 00 00       	mov    $0x14,%edx
    8ac0:	eb 05                	jmp    8ac7 <func_2+0x30ec>
    8ac2:	ba 15 00 00 00       	mov    $0x15,%edx
    8ac7:	8b 85 b8 eb ff ff    	mov    -0x1448(%rbp),%eax
    8acd:	89 d6                	mov    %edx,%esi
    8acf:	89 c7                	mov    %eax,%edi
    8ad1:	e8 f6 bb ff ff       	callq  46cc <safe_mod_func_int32_t_s_s>
    8ad6:	85 c0                	test   %eax,%eax
    8ad8:	74 07                	je     8ae1 <func_2+0x3106>
    8ada:	b8 01 00 00 00       	mov    $0x1,%eax
    8adf:	eb 05                	jmp    8ae6 <func_2+0x310b>
    8ae1:	b8 00 00 00 00       	mov    $0x0,%eax
    8ae6:	0f b6 c0             	movzbl %al,%eax
    8ae9:	44 89 ee             	mov    %r13d,%esi
    8aec:	89 c7                	mov    %eax,%edi
    8aee:	e8 cb c1 ff ff       	callq  4cbe <safe_rshift_func_uint8_t_u_u>
    8af3:	0f b6 d0             	movzbl %al,%edx
    8af6:	48 8b 05 63 e9 00 00 	mov    0xe963(%rip),%rax        # 17460 <g_1353>
    8afd:	0f b7 00             	movzwl (%rax),%eax
    8b00:	98                   	cwtl   
    8b01:	89 d6                	mov    %edx,%esi
    8b03:	89 c7                	mov    %eax,%edi
    8b05:	e8 88 b9 ff ff       	callq  4492 <safe_lshift_func_int16_t_s_s>
    8b0a:	98                   	cwtl   
    8b0b:	41 39 c4             	cmp    %eax,%r12d
    8b0e:	7c 07                	jl     8b17 <func_2+0x313c>
    8b10:	ba 1d 00 00 00       	mov    $0x1d,%edx
    8b15:	eb 05                	jmp    8b1c <func_2+0x3141>
    8b17:	ba 1c 00 00 00       	mov    $0x1c,%edx
    8b1c:	8b 85 c4 eb ff ff    	mov    -0x143c(%rbp),%eax
    8b22:	0f b6 c0             	movzbl %al,%eax
    8b25:	89 d6                	mov    %edx,%esi
    8b27:	89 c7                	mov    %eax,%edi
    8b29:	e8 65 c0 ff ff       	callq  4b93 <safe_mul_func_uint8_t_u_u>
    8b2e:	0f b7 85 3e eb ff ff 	movzwl -0x14c2(%rbp),%eax
    8b35:	66 c1 e8 0f          	shr    $0xf,%ax
    8b39:	0f b6 c0             	movzbl %al,%eax
    8b3c:	89 de                	mov    %ebx,%esi
    8b3e:	89 c7                	mov    %eax,%edi
    8b40:	e8 15 c0 ff ff       	callq  4b5a <safe_add_func_uint8_t_u_u>
    8b45:	48 8b 85 28 ec ff ff 	mov    -0x13d8(%rbp),%rax
    8b4c:	c7 00 00 00 00 00    	movl   $0x0,(%rax)
    8b52:	48 8b 85 28 ec ff ff 	mov    -0x13d8(%rbp),%rax
    8b59:	8b 10                	mov    (%rax),%edx
    8b5b:	48 8b 85 20 ec ff ff 	mov    -0x13e0(%rbp),%rax
    8b62:	8b 00                	mov    (%rax),%eax
    8b64:	09 c2                	or     %eax,%edx
    8b66:	48 8b 85 20 ec ff ff 	mov    -0x13e0(%rbp),%rax
    8b6d:	89 10                	mov    %edx,(%rax)
    8b6f:	8b 85 90 eb ff ff    	mov    -0x1470(%rbp),%eax
    8b75:	0f b6 c0             	movzbl %al,%eax
    8b78:	be 05 00 00 00       	mov    $0x5,%esi
    8b7d:	89 c7                	mov    %eax,%edi
    8b7f:	e8 f4 bf ff ff       	callq  4b78 <safe_sub_func_uint8_t_u_u>
    8b84:	0f b6 c0             	movzbl %al,%eax
    8b87:	89 85 90 eb ff ff    	mov    %eax,-0x1470(%rbp)
    8b8d:	83 bd 90 eb ff ff 06 	cmpl   $0x6,-0x1470(%rbp)
    8b94:	0f 8e 4c fe ff ff    	jle    89e6 <func_2+0x300b>
    8b9a:	48 8b 05 27 de 00 00 	mov    0xde27(%rip),%rax        # 169c8 <g_105>
    8ba1:	48 8b 95 20 eb ff ff 	mov    -0x14e0(%rbp),%rdx
    8ba8:	48 89 10             	mov    %rdx,(%rax)
    8bab:	c7 05 73 d6 00 00 0b 	movl   $0xb,0xd673(%rip)        # 16228 <g_449>
    8bb2:	00 00 00 
    8bb5:	eb 3e                	jmp    8bf5 <func_2+0x321a>
    8bb7:	48 c7 85 b0 ec ff ff 	movq   $0x1,-0x1350(%rbp)
    8bbe:	01 00 00 00 
    8bc2:	48 8b 85 70 ec ff ff 	mov    -0x1390(%rbp),%rax
    8bc9:	48 8b 95 20 eb ff ff 	mov    -0x14e0(%rbp),%rdx
    8bd0:	48 89 10             	mov    %rdx,(%rax)
    8bd3:	48 83 bd b0 ec ff ff 	cmpq   $0x0,-0x1350(%rbp)
    8bda:	00 
    8bdb:	8b 05 47 d6 00 00    	mov    0xd647(%rip),%eax        # 16228 <g_449>
    8be1:	98                   	cwtl   
    8be2:	be 09 00 00 00       	mov    $0x9,%esi
    8be7:	89 c7                	mov    %eax,%edi
    8be9:	e8 c5 b7 ff ff       	callq  43b3 <safe_add_func_int16_t_s_s>
    8bee:	98                   	cwtl   
    8bef:	89 05 33 d6 00 00    	mov    %eax,0xd633(%rip)        # 16228 <g_449>
    8bf5:	8b 05 2d d6 00 00    	mov    0xd62d(%rip),%eax        # 16228 <g_449>
    8bfb:	83 f8 26             	cmp    $0x26,%eax
    8bfe:	75 b7                	jne    8bb7 <func_2+0x31dc>
    8c00:	8b 85 80 eb ff ff    	mov    -0x1480(%rbp),%eax
    8c06:	0f b7 d8             	movzwl %ax,%ebx
    8c09:	48 83 bd 20 eb ff ff 	cmpq   $0x0,-0x14e0(%rbp)
    8c10:	00 
    8c11:	74 2a                	je     8c3d <func_2+0x3262>
    8c13:	48 8b 85 78 ec ff ff 	mov    -0x1388(%rbp),%rax
    8c1a:	c7 00 c0 00 00 00    	movl   $0xc0,(%rax)
    8c20:	48 c7 c6 ff ff ff ff 	mov    $0xffffffffffffffff,%rsi
    8c27:	bf 01 00 00 00       	mov    $0x1,%edi
    8c2c:	e8 77 bc ff ff       	callq  48a8 <safe_sub_func_int64_t_s_s>
    8c31:	48 85 c0             	test   %rax,%rax
    8c34:	74 07                	je     8c3d <func_2+0x3262>
    8c36:	b8 01 00 00 00       	mov    $0x1,%eax
    8c3b:	eb 05                	jmp    8c42 <func_2+0x3267>
    8c3d:	b8 00 00 00 00       	mov    $0x0,%eax
    8c42:	3b 85 74 eb ff ff    	cmp    -0x148c(%rbp),%eax
    8c48:	0f 9c c0             	setl   %al
    8c4b:	0f b6 c8             	movzbl %al,%ecx
    8c4e:	48 8b 85 f0 eb ff ff 	mov    -0x1410(%rbp),%rax
    8c55:	0f b7 10             	movzwl (%rax),%edx
    8c58:	48 8b 85 f0 eb ff ff 	mov    -0x1410(%rbp),%rax
    8c5f:	31 ca                	xor    %ecx,%edx
    8c61:	66 89 10             	mov    %dx,(%rax)
    8c64:	0f b7 00             	movzwl (%rax),%eax
    8c67:	98                   	cwtl   
    8c68:	89 85 b8 eb ff ff    	mov    %eax,-0x1448(%rbp)
    8c6e:	8b 85 b8 eb ff ff    	mov    -0x1448(%rbp),%eax
    8c74:	0f bf d0             	movswl %ax,%edx
    8c77:	48 8b 05 e2 e7 00 00 	mov    0xe7e2(%rip),%rax        # 17460 <g_1353>
    8c7e:	0f b7 08             	movzwl (%rax),%ecx
    8c81:	8b 85 64 eb ff ff    	mov    -0x149c(%rbp),%eax
    8c87:	66 35 3b cf          	xor    $0xcf3b,%ax
    8c8b:	89 c6                	mov    %eax,%esi
    8c8d:	48 8b 05 cc e7 00 00 	mov    0xe7cc(%rip),%rax        # 17460 <g_1353>
    8c94:	21 f1                	and    %esi,%ecx
    8c96:	66 89 08             	mov    %cx,(%rax)
    8c99:	0f b7 00             	movzwl (%rax),%eax
    8c9c:	98                   	cwtl   
    8c9d:	89 d6                	mov    %edx,%esi
    8c9f:	89 c7                	mov    %eax,%edi
    8ca1:	e8 0d b7 ff ff       	callq  43b3 <safe_add_func_int16_t_s_s>
    8ca6:	89 c2                	mov    %eax,%edx
    8ca8:	48 8b 85 60 ec ff ff 	mov    -0x13a0(%rbp),%rax
    8caf:	66 89 10             	mov    %dx,(%rax)
    8cb2:	48 8b 85 60 ec ff ff 	mov    -0x13a0(%rbp),%rax
    8cb9:	0f b7 00             	movzwl (%rax),%eax
    8cbc:	0f b7 d0             	movzwl %ax,%edx
    8cbf:	0f be 85 36 eb ff ff 	movsbl -0x14ca(%rbp),%eax
    8cc6:	39 c2                	cmp    %eax,%edx
    8cc8:	0f 95 c0             	setne  %al
    8ccb:	0f b6 c0             	movzbl %al,%eax
    8cce:	48 39 85 a8 ec ff ff 	cmp    %rax,-0x1358(%rbp)
    8cd5:	0f 95 c0             	setne  %al
    8cd8:	0f b6 c0             	movzbl %al,%eax
    8cdb:	89 de                	mov    %ebx,%esi
    8cdd:	89 c7                	mov    %eax,%edi
    8cdf:	e8 3b c0 ff ff       	callq  4d1f <safe_sub_func_uint16_t_u_u>
    8ce4:	0f b7 c0             	movzwl %ax,%eax
    8ce7:	89 85 d4 ed ff ff    	mov    %eax,-0x122c(%rbp)
    8ced:	8b 85 d4 ed ff ff    	mov    -0x122c(%rbp),%eax
    8cf3:	48 98                	cltq   
    8cf5:	48 89 05 d4 d5 00 00 	mov    %rax,0xd5d4(%rip)        # 162d0 <g_1512>
    8cfc:	48 8b 05 cd d5 00 00 	mov    0xd5cd(%rip),%rax        # 162d0 <g_1512>
    8d03:	8b 95 44 eb ff ff    	mov    -0x14bc(%rbp),%edx
    8d09:	89 d2                	mov    %edx,%edx
    8d0b:	48 39 d0             	cmp    %rdx,%rax
    8d0e:	0f 95 c2             	setne  %dl
    8d11:	48 8b 05 80 df 00 00 	mov    0xdf80(%rip),%rax        # 16c98 <g_1133>
    8d18:	48 8b 00             	mov    (%rax),%rax
    8d1b:	88 10                	mov    %dl,(%rax)
    8d1d:	0f b6 00             	movzbl (%rax),%eax
    8d20:	3c 0b                	cmp    $0xb,%al
    8d22:	0f 95 c0             	setne  %al
    8d25:	0f b6 d0             	movzbl %al,%edx
    8d28:	48 8b 85 08 ec ff ff 	mov    -0x13f8(%rbp),%rax
    8d2f:	89 10                	mov    %edx,(%rax)
    8d31:	48 8b 85 08 ec ff ff 	mov    -0x13f8(%rbp),%rax
    8d38:	8b 00                	mov    (%rax),%eax
    8d3a:	85 c0                	test   %eax,%eax
    8d3c:	eb 09                	jmp    8d47 <func_2+0x336c>
    8d3e:	48 8b 85 28 eb ff ff 	mov    -0x14d8(%rbp),%rax
    8d45:	eb 32                	jmp    8d79 <func_2+0x339e>
    8d47:	0f b6 05 42 ec 00 00 	movzbl 0xec42(%rip),%eax        # 17990 <g_897>
    8d4e:	0f b6 c0             	movzbl %al,%eax
    8d51:	be 05 00 00 00       	mov    $0x5,%esi
    8d56:	89 c7                	mov    %eax,%edi
    8d58:	e8 56 b6 ff ff       	callq  43b3 <safe_add_func_int16_t_s_s>
    8d5d:	88 05 2d ec 00 00    	mov    %al,0xec2d(%rip)        # 17990 <g_897>
    8d63:	0f b6 05 26 ec 00 00 	movzbl 0xec26(%rip),%eax        # 17990 <g_897>
    8d6a:	3c 03                	cmp    $0x3,%al
    8d6c:	0f 85 72 cd ff ff    	jne    5ae4 <func_2+0x109>
    8d72:	48 8b 85 28 eb ff ff 	mov    -0x14d8(%rbp),%rax
    8d79:	48 8b 5d c8          	mov    -0x38(%rbp),%rbx
    8d7d:	64 48 33 1c 25 28 00 	xor    %fs:0x28,%rbx
    8d84:	00 00 
    8d86:	74 05                	je     8d8d <func_2+0x33b2>
    8d88:	e8 e3 b2 ff ff       	callq  4070 <__stack_chk_fail@plt>
    8d8d:	48 81 c4 d8 14 00 00 	add    $0x14d8,%rsp
    8d94:	5b                   	pop    %rbx
    8d95:	41 5c                	pop    %r12
    8d97:	41 5d                	pop    %r13
    8d99:	41 5e                	pop    %r14
    8d9b:	41 5f                	pop    %r15
    8d9d:	5d                   	pop    %rbp
    8d9e:	c3                   	retq   

0000000000008d9f <func_5>:
    8d9f:	f3 0f 1e fa          	endbr64 
    8da3:	55                   	push   %rbp
    8da4:	48 89 e5             	mov    %rsp,%rbp
    8da7:	41 57                	push   %r15
    8da9:	41 56                	push   %r14
    8dab:	41 55                	push   %r13
    8dad:	41 54                	push   %r12
    8daf:	53                   	push   %rbx
    8db0:	48 81 ec 88 0b 00 00 	sub    $0xb88,%rsp
    8db7:	48 89 bd 88 f4 ff ff 	mov    %rdi,-0xb78(%rbp)
    8dbe:	48 89 b5 80 f4 ff ff 	mov    %rsi,-0xb80(%rbp)
    8dc5:	48 89 95 78 f4 ff ff 	mov    %rdx,-0xb88(%rbp)
    8dcc:	48 89 8d 70 f4 ff ff 	mov    %rcx,-0xb90(%rbp)
    8dd3:	64 48 8b 04 25 28 00 	mov    %fs:0x28,%rax
    8dda:	00 00 
    8ddc:	48 89 45 c8          	mov    %rax,-0x38(%rbp)
    8de0:	31 c0                	xor    %eax,%eax
    8de2:	48 c7 85 40 f5 ff ff 	movq   $0x7,-0xac0(%rbp)
    8de9:	07 00 00 00 
    8ded:	c7 85 cc f4 ff ff 6a 	movl   $0x5b9f1b6a,-0xb34(%rbp)
    8df4:	1b 9f 5b 
    8df7:	c7 85 d0 f4 ff ff cf 	movl   $0xcc8ea6cf,-0xb30(%rbp)
    8dfe:	a6 8e cc 
    8e01:	c7 85 a4 f4 ff ff 00 	movl   $0x0,-0xb5c(%rbp)
    8e08:	00 00 00 
    8e0b:	c7 85 a8 f4 ff ff 05 	movl   $0x5,-0xb58(%rbp)
    8e12:	00 00 00 
    8e15:	c7 85 c0 f7 ff ff 94 	movl   $0x87f78494,-0x840(%rbp)
    8e1c:	84 f7 87 
    8e1f:	c7 85 c4 f7 ff ff 45 	movl   $0x7a6cc45,-0x83c(%rbp)
    8e26:	cc a6 07 
    8e29:	c7 85 c8 f7 ff ff 94 	movl   $0x87f78494,-0x838(%rbp)
    8e30:	84 f7 87 
    8e33:	c7 85 cc f7 ff ff 45 	movl   $0x7a6cc45,-0x834(%rbp)
    8e3a:	cc a6 07 
    8e3d:	c7 85 d0 f7 ff ff 94 	movl   $0x87f78494,-0x830(%rbp)
    8e44:	84 f7 87 
    8e47:	c7 85 d4 f7 ff ff 45 	movl   $0x7a6cc45,-0x82c(%rbp)
    8e4e:	cc a6 07 
    8e51:	c7 85 d8 f7 ff ff 94 	movl   $0x87f78494,-0x828(%rbp)
    8e58:	84 f7 87 
    8e5b:	c7 85 dc f7 ff ff d9 	movl   $0x537ed9,-0x824(%rbp)
    8e62:	7e 53 00 
    8e65:	c7 85 e0 f7 ff ff d9 	movl   $0x537ed9,-0x820(%rbp)
    8e6c:	7e 53 00 
    8e6f:	c7 85 e4 f7 ff ff d9 	movl   $0x537ed9,-0x81c(%rbp)
    8e76:	7e 53 00 
    8e79:	c7 85 e8 f7 ff ff d9 	movl   $0x537ed9,-0x818(%rbp)
    8e80:	7e 53 00 
    8e83:	c7 85 ec f7 ff ff d9 	movl   $0x537ed9,-0x814(%rbp)
    8e8a:	7e 53 00 
    8e8d:	c7 85 f0 f7 ff ff d9 	movl   $0x537ed9,-0x810(%rbp)
    8e94:	7e 53 00 
    8e97:	c7 85 f4 f7 ff ff d9 	movl   $0x537ed9,-0x80c(%rbp)
    8e9e:	7e 53 00 
    8ea1:	48 8d 05 96 d3 00 00 	lea    0xd396(%rip),%rax        # 1623e <g_895+0x6>
    8ea8:	48 89 85 48 f5 ff ff 	mov    %rax,-0xab8(%rbp)
    8eaf:	48 8d 85 48 f5 ff ff 	lea    -0xab8(%rbp),%rax
    8eb6:	48 89 85 a8 f5 ff ff 	mov    %rax,-0xa58(%rbp)
    8ebd:	c7 85 40 f8 ff ff 08 	movl   $0xde0808,-0x7c0(%rbp)
    8ec4:	08 de 00 
    8ec7:	66 c7 85 44 f8 ff ff 	movw   $0x8174,-0x7bc(%rbp)
    8ece:	74 81 
    8ed0:	c7 85 46 f8 ff ff 00 	movl   $0xffffff00,-0x7ba(%rbp)
    8ed7:	ff ff ff 
    8eda:	66 c7 85 4a f8 ff ff 	movw   $0x10b,-0x7b6(%rbp)
    8ee1:	0b 01 
    8ee3:	c7 85 4c f8 ff ff d1 	movl   $0xb808ffd1,-0x7b4(%rbp)
    8eea:	ff 08 b8 
    8eed:	66 c7 85 50 f8 ff ff 	movw   $0x66,-0x7b0(%rbp)
    8ef4:	66 00 
    8ef6:	c7 85 52 f8 ff ff 74 	movl   $0x6fff0874,-0x7ae(%rbp)
    8efd:	08 ff 6f 
    8f00:	66 c7 85 56 f8 ff ff 	movw   $0x8ff,-0x7aa(%rbp)
    8f07:	ff 08 
    8f09:	c7 85 58 f8 ff ff f9 	movl   $0x74fff9,-0x7a8(%rbp)
    8f10:	ff 74 00 
    8f13:	66 c7 85 5c f8 ff ff 	movw   $0x2e2,-0x7a4(%rbp)
    8f1a:	e2 02 
    8f1c:	c7 85 5e f8 ff ff 6f 	movl   $0xf8ff136f,-0x7a2(%rbp)
    8f23:	13 ff f8 
    8f26:	66 c7 85 62 f8 ff ff 	movw   $0x100,-0x79e(%rbp)
    8f2d:	00 01 
    8f2f:	c7 85 64 f8 ff ff 81 	movl   $0xf7b81381,-0x79c(%rbp)
    8f36:	13 b8 f7 
    8f39:	66 c7 85 68 f8 ff ff 	movw   $0xf9e2,-0x798(%rbp)
    8f40:	e2 f9 
    8f42:	c7 85 6a f8 ff ff 08 	movl   $0x14f8ff08,-0x796(%rbp)
    8f49:	ff f8 14 
    8f4c:	66 c7 85 6e f8 ff ff 	movw   $0x1ff,-0x792(%rbp)
    8f53:	ff 01 
    8f55:	c7 85 70 f8 ff ff ff 	movl   $0x18108ff,-0x790(%rbp)
    8f5c:	08 81 01 
    8f5f:	66 c7 85 74 f8 ff ff 	movw   $0x1466,-0x78c(%rbp)
    8f66:	66 14 
    8f68:	c7 85 76 f8 ff ff 13 	movl   $0xbffff13,-0x78a(%rbp)
    8f6f:	ff ff 0b 
    8f72:	66 c7 85 7a f8 ff ff 	movw   $0xff0b,-0x786(%rbp)
    8f79:	0b ff 
    8f7b:	c7 85 7c f8 ff ff ff 	movl   $0x66ffff,-0x784(%rbp)
    8f82:	ff 66 00 
    8f85:	66 c7 85 80 f8 ff ff 	movw   $0x6674,-0x780(%rbp)
    8f8c:	74 66 
    8f8e:	c7 85 82 f8 ff ff 01 	movl   $0xc46f0801,-0x77e(%rbp)
    8f95:	08 6f c4 
    8f98:	66 c7 85 86 f8 ff ff 	movw   $0x66b8,-0x77a(%rbp)
    8f9f:	b8 66 
    8fa1:	c7 85 88 f8 ff ff 01 	movl   $0xff6f0101,-0x778(%rbp)
    8fa8:	01 6f ff 
    8fab:	66 c7 85 8c f8 ff ff 	movw   $0x66ff,-0x774(%rbp)
    8fb2:	ff 66 
    8fb4:	c7 85 8e f8 ff ff 01 	movl   $0xe266ff01,-0x772(%rbp)
    8fbb:	ff 66 e2 
    8fbe:	66 c7 85 92 f8 ff ff 	movw   $0xffde,-0x76e(%rbp)
    8fc5:	de ff 
    8fc7:	c7 85 94 f8 ff ff e2 	movl   $0xfbffdee2,-0x76c(%rbp)
    8fce:	de ff fb 
    8fd1:	66 c7 85 98 f8 ff ff 	movw   $0x1401,-0x768(%rbp)
    8fd8:	01 14 
    8fda:	c7 85 9a f8 ff ff ff 	movl   $0x18166ff,-0x766(%rbp)
    8fe1:	66 81 01 
    8fe4:	66 c7 85 9e f8 ff ff 	movw   $0x1f8,-0x762(%rbp)
    8feb:	f8 01 
    8fed:	c7 85 a0 f8 ff ff f8 	movl   $0x2f800f8,-0x760(%rbp)
    8ff4:	00 f8 02 
    8ff7:	66 c7 85 a4 f8 ff ff 	movw   $0xf901,-0x75c(%rbp)
    8ffe:	01 f9 
    9000:	c7 85 a6 f8 ff ff c4 	movl   $0x81b808c4,-0x75a(%rbp)
    9007:	08 b8 81 
    900a:	66 c7 85 aa f8 ff ff 	movw   $0x1f9,-0x756(%rbp)
    9011:	f9 01 
    9013:	48 8d 05 6e e9 00 00 	lea    0xe96e(%rip),%rax        # 17988 <g_653>
    901a:	48 89 85 b0 f5 ff ff 	mov    %rax,-0xa50(%rbp)
    9021:	48 8d 05 26 d1 00 00 	lea    0xd126(%rip),%rax        # 1614e <g_198+0x4e>
    9028:	48 89 85 50 f5 ff ff 	mov    %rax,-0xab0(%rbp)
    902f:	48 8d 85 50 f5 ff ff 	lea    -0xab0(%rbp),%rax
    9036:	48 89 85 10 f7 ff ff 	mov    %rax,-0x8f0(%rbp)
    903d:	48 8d 85 50 f5 ff ff 	lea    -0xab0(%rbp),%rax
    9044:	48 89 85 18 f7 ff ff 	mov    %rax,-0x8e8(%rbp)
    904b:	c7 85 ac f4 ff ff 00 	movl   $0x0,-0xb54(%rbp)
    9052:	00 00 00 
    9055:	eb 1e                	jmp    9075 <func_5+0x2d6>
    9057:	8b 85 ac f4 ff ff    	mov    -0xb54(%rbp),%eax
    905d:	48 98                	cltq   
    905f:	48 8d 15 b2 d1 00 00 	lea    0xd1b2(%rip),%rdx        # 16218 <g_237>
    9066:	48 89 94 c5 50 f7 ff 	mov    %rdx,-0x8b0(%rbp,%rax,8)
    906d:	ff 
    906e:	83 85 ac f4 ff ff 01 	addl   $0x1,-0xb54(%rbp)
    9075:	83 bd ac f4 ff ff 02 	cmpl   $0x2,-0xb54(%rbp)
    907c:	7e d9                	jle    9057 <func_5+0x2b8>
    907e:	c6 05 2f d0 00 00 00 	movb   $0x0,0xd02f(%rip)        # 160b4 <g_53>
    9085:	e9 04 28 00 00       	jmpq   b88e <func_5+0x2aef>
    908a:	48 b8 c2 65 67 1c 57 	movabs $0xebb403571c6765c2,%rax
    9091:	03 b4 eb 
    9094:	48 89 85 00 f8 ff ff 	mov    %rax,-0x800(%rbp)
    909b:	48 89 85 08 f8 ff ff 	mov    %rax,-0x7f8(%rbp)
    90a2:	48 89 85 10 f8 ff ff 	mov    %rax,-0x7f0(%rbp)
    90a9:	48 89 85 18 f8 ff ff 	mov    %rax,-0x7e8(%rbp)
    90b0:	48 89 85 20 f8 ff ff 	mov    %rax,-0x7e0(%rbp)
    90b7:	48 89 85 28 f8 ff ff 	mov    %rax,-0x7d8(%rbp)
    90be:	48 89 85 30 f8 ff ff 	mov    %rax,-0x7d0(%rbp)
    90c5:	c7 85 d4 f4 ff ff 25 	movl   $0x6b9ae525,-0xb2c(%rbp)
    90cc:	e5 9a 6b 
    90cf:	c7 85 d8 f4 ff ff eb 	movl   $0xe51a3eb,-0xb28(%rbp)
    90d6:	a3 51 0e 
    90d9:	c7 85 b0 f4 ff ff 98 	movl   $0x4ac0e398,-0xb50(%rbp)
    90e0:	e3 c0 4a 
    90e3:	c7 85 dc f4 ff ff a4 	movl   $0x7ed509a4,-0xb24(%rbp)
    90ea:	09 d5 7e 
    90ed:	48 8d 85 90 fa ff ff 	lea    -0x570(%rbp),%rax
    90f4:	48 8d 15 45 81 00 00 	lea    0x8145(%rip),%rdx        # 11240 <g_362+0x1ec>
    90fb:	b9 2d 00 00 00       	mov    $0x2d,%ecx
    9100:	48 89 c7             	mov    %rax,%rdi
    9103:	48 89 d6             	mov    %rdx,%rsi
    9106:	f3 48 a5             	rep movsq %ds:(%rsi),%es:(%rdi)
    9109:	c7 85 e0 f4 ff ff 00 	movl   $0x0,-0xb20(%rbp)
    9110:	00 00 00 
    9113:	48 8d 05 c6 d8 00 00 	lea    0xd8c6(%rip),%rax        # 169e0 <g_279>
    911a:	48 89 85 b8 f5 ff ff 	mov    %rax,-0xa48(%rbp)
    9121:	c7 85 e4 f4 ff ff 04 	movl   $0x4,-0xb1c(%rbp)
    9128:	00 00 00 
    912b:	48 c7 85 c0 f5 ff ff 	movq   $0x0,-0xa40(%rbp)
    9132:	00 00 00 00 
    9136:	48 c7 85 c8 f5 ff ff 	movq   $0x0,-0xa38(%rbp)
    913d:	00 00 00 00 
    9141:	48 8d 05 ac cf 00 00 	lea    0xcfac(%rip),%rax        # 160f4 <g_124>
    9148:	48 89 85 58 f5 ff ff 	mov    %rax,-0xaa8(%rbp)
    914f:	48 8d 05 5f cf 00 00 	lea    0xcf5f(%rip),%rax        # 160b5 <g_63>
    9156:	48 89 85 d0 f5 ff ff 	mov    %rax,-0xa30(%rbp)
    915d:	48 8d 05 c4 d0 00 00 	lea    0xd0c4(%rip),%rax        # 16228 <g_449>
    9164:	48 89 85 d8 f5 ff ff 	mov    %rax,-0xa28(%rbp)
    916b:	48 8d 05 1e e8 00 00 	lea    0xe81e(%rip),%rax        # 17990 <g_897>
    9172:	48 89 85 e0 f5 ff ff 	mov    %rax,-0xa20(%rbp)
    9179:	48 c7 85 e8 f5 ff ff 	movq   $0x0,-0xa18(%rbp)
    9180:	00 00 00 00 
    9184:	48 8d 05 29 cf 00 00 	lea    0xcf29(%rip),%rax        # 160b4 <g_53>
    918b:	48 89 85 60 f5 ff ff 	mov    %rax,-0xaa0(%rbp)
    9192:	48 8d 05 b5 cf 00 00 	lea    0xcfb5(%rip),%rax        # 1614e <g_198+0x4e>
    9199:	48 89 85 f0 f5 ff ff 	mov    %rax,-0xa10(%rbp)
    91a0:	48 b8 75 2d 31 8b 0b 	movabs $0x6242ed0b8b312d75,%rax
    91a7:	ed 42 62 
    91aa:	48 89 85 68 f5 ff ff 	mov    %rax,-0xa98(%rbp)
    91b1:	48 c7 85 70 f5 ff ff 	movq   $0x0,-0xa90(%rbp)
    91b8:	00 00 00 00 
    91bc:	48 8d 85 70 f5 ff ff 	lea    -0xa90(%rbp),%rax
    91c3:	48 89 85 f8 f5 ff ff 	mov    %rax,-0xa08(%rbp)
    91ca:	66 c7 05 45 d0 00 00 	movw   $0x0,0xd045(%rip)        # 16218 <g_237>
    91d1:	00 00 
    91d3:	e9 9f 0d 00 00       	jmpq   9f77 <func_5+0x11d8>
    91d8:	c7 85 b4 f4 ff ff 01 	movl   $0x1,-0xb4c(%rbp)
    91df:	00 00 00 
    91e2:	c7 85 90 f7 ff ff f7 	movl   $0xfffffff7,-0x870(%rbp)
    91e9:	ff ff ff 
    91ec:	c7 85 94 f7 ff ff f7 	movl   $0xfffffff7,-0x86c(%rbp)
    91f3:	ff ff ff 
    91f6:	c7 85 98 f7 ff ff a0 	movl   $0x472524a0,-0x868(%rbp)
    91fd:	24 25 47 
    9200:	c7 85 9c f7 ff ff f7 	movl   $0xfffffff7,-0x864(%rbp)
    9207:	ff ff ff 
    920a:	c7 85 a0 f7 ff ff f7 	movl   $0xfffffff7,-0x860(%rbp)
    9211:	ff ff ff 
    9214:	c7 85 a4 f7 ff ff a0 	movl   $0x472524a0,-0x85c(%rbp)
    921b:	24 25 47 
    921e:	c7 85 a8 f7 ff ff f7 	movl   $0xfffffff7,-0x858(%rbp)
    9225:	ff ff ff 
    9228:	c7 85 ac f7 ff ff f7 	movl   $0xfffffff7,-0x854(%rbp)
    922f:	ff ff ff 
    9232:	c7 85 b0 f7 ff ff a0 	movl   $0x472524a0,-0x850(%rbp)
    9239:	24 25 47 
    923c:	c7 85 b4 f7 ff ff f7 	movl   $0xfffffff7,-0x84c(%rbp)
    9243:	ff ff ff 
    9246:	c7 85 b8 f7 ff ff f7 	movl   $0xfffffff7,-0x848(%rbp)
    924d:	ff ff ff 
    9250:	c7 85 bc f7 ff ff a0 	movl   $0x472524a0,-0x844(%rbp)
    9257:	24 25 47 
    925a:	48 c7 85 b8 f6 ff ff 	movq   $0x0,-0x948(%rbp)
    9261:	00 00 00 00 
    9265:	66 c7 85 a0 f4 ff ff 	movw   $0x6,-0xb60(%rbp)
    926c:	06 00 
    926e:	48 8b 85 20 f8 ff ff 	mov    -0x7e0(%rbp),%rax
    9275:	48 89 85 40 f5 ff ff 	mov    %rax,-0xac0(%rbp)
    927c:	c7 05 6e ce 00 00 00 	movl   $0x0,0xce6e(%rip)        # 160f4 <g_124>
    9283:	00 00 00 
    9286:	e9 cd 0c 00 00       	jmpq   9f58 <func_5+0x11b9>
    928b:	c7 85 b0 f8 ff ff 65 	movl   $0x581ee165,-0x750(%rbp)
    9292:	e1 1e 58 
    9295:	c7 85 b4 f8 ff ff 65 	movl   $0x581ee165,-0x74c(%rbp)
    929c:	e1 1e 58 
    929f:	c7 85 b8 f8 ff ff 34 	movl   $0xf9320634,-0x748(%rbp)
    92a6:	06 32 f9 
    92a9:	c7 85 bc f8 ff ff 2b 	movl   $0x9a88812b,-0x744(%rbp)
    92b0:	81 88 9a 
    92b3:	c7 85 c0 f8 ff ff a8 	movl   $0xbb8b4ea8,-0x740(%rbp)
    92ba:	4e 8b bb 
    92bd:	c7 85 c4 f8 ff ff 34 	movl   $0xf9320634,-0x73c(%rbp)
    92c4:	06 32 f9 
    92c7:	c7 85 c8 f8 ff ff a8 	movl   $0xbb8b4ea8,-0x738(%rbp)
    92ce:	4e 8b bb 
    92d1:	c7 85 cc f8 ff ff 2b 	movl   $0x9a88812b,-0x734(%rbp)
    92d8:	81 88 9a 
    92db:	c7 85 d0 f8 ff ff 34 	movl   $0xf9320634,-0x730(%rbp)
    92e2:	06 32 f9 
    92e5:	c7 85 d4 f8 ff ff 65 	movl   $0x581ee165,-0x72c(%rbp)
    92ec:	e1 1e 58 
    92ef:	c7 85 d8 f8 ff ff 65 	movl   $0x581ee165,-0x728(%rbp)
    92f6:	e1 1e 58 
    92f9:	c7 85 dc f8 ff ff 34 	movl   $0xf9320634,-0x724(%rbp)
    9300:	06 32 f9 
    9303:	c7 85 e0 f8 ff ff 2b 	movl   $0x9a88812b,-0x720(%rbp)
    930a:	81 88 9a 
    930d:	c7 85 e4 f8 ff ff a8 	movl   $0xbb8b4ea8,-0x71c(%rbp)
    9314:	4e 8b bb 
    9317:	c7 85 e8 f8 ff ff 34 	movl   $0xf9320634,-0x718(%rbp)
    931e:	06 32 f9 
    9321:	c7 85 ec f8 ff ff a8 	movl   $0xbb8b4ea8,-0x714(%rbp)
    9328:	4e 8b bb 
    932b:	c7 85 f0 f8 ff ff 2b 	movl   $0x9a88812b,-0x710(%rbp)
    9332:	81 88 9a 
    9335:	c7 85 f4 f8 ff ff 34 	movl   $0xf9320634,-0x70c(%rbp)
    933c:	06 32 f9 
    933f:	c7 85 f8 f8 ff ff 65 	movl   $0x581ee165,-0x708(%rbp)
    9346:	e1 1e 58 
    9349:	c7 85 fc f8 ff ff 65 	movl   $0x581ee165,-0x704(%rbp)
    9350:	e1 1e 58 
    9353:	c7 85 00 f9 ff ff 34 	movl   $0xf9320634,-0x700(%rbp)
    935a:	06 32 f9 
    935d:	c7 85 04 f9 ff ff 2b 	movl   $0x9a88812b,-0x6fc(%rbp)
    9364:	81 88 9a 
    9367:	c7 85 08 f9 ff ff a8 	movl   $0xbb8b4ea8,-0x6f8(%rbp)
    936e:	4e 8b bb 
    9371:	c7 85 0c f9 ff ff 34 	movl   $0xf9320634,-0x6f4(%rbp)
    9378:	06 32 f9 
    937b:	c7 85 10 f9 ff ff a8 	movl   $0xbb8b4ea8,-0x6f0(%rbp)
    9382:	4e 8b bb 
    9385:	c7 85 14 f9 ff ff 2b 	movl   $0x9a88812b,-0x6ec(%rbp)
    938c:	81 88 9a 
    938f:	c7 85 18 f9 ff ff 34 	movl   $0xf9320634,-0x6e8(%rbp)
    9396:	06 32 f9 
    9399:	c7 85 1c f9 ff ff 65 	movl   $0x581ee165,-0x6e4(%rbp)
    93a0:	e1 1e 58 
    93a3:	c7 85 20 f9 ff ff 65 	movl   $0x581ee165,-0x6e0(%rbp)
    93aa:	e1 1e 58 
    93ad:	c7 85 24 f9 ff ff 34 	movl   $0xf9320634,-0x6dc(%rbp)
    93b4:	06 32 f9 
    93b7:	c7 85 28 f9 ff ff 2b 	movl   $0x9a88812b,-0x6d8(%rbp)
    93be:	81 88 9a 
    93c1:	c7 85 2c f9 ff ff a8 	movl   $0xbb8b4ea8,-0x6d4(%rbp)
    93c8:	4e 8b bb 
    93cb:	c7 85 30 f9 ff ff 34 	movl   $0xf9320634,-0x6d0(%rbp)
    93d2:	06 32 f9 
    93d5:	c7 85 34 f9 ff ff a8 	movl   $0xbb8b4ea8,-0x6cc(%rbp)
    93dc:	4e 8b bb 
    93df:	c7 85 38 f9 ff ff 2b 	movl   $0x9a88812b,-0x6c8(%rbp)
    93e6:	81 88 9a 
    93e9:	c7 85 3c f9 ff ff 34 	movl   $0xf9320634,-0x6c4(%rbp)
    93f0:	06 32 f9 
    93f3:	c7 85 40 f9 ff ff 65 	movl   $0x581ee165,-0x6c0(%rbp)
    93fa:	e1 1e 58 
    93fd:	c7 85 44 f9 ff ff 65 	movl   $0x581ee165,-0x6bc(%rbp)
    9404:	e1 1e 58 
    9407:	c7 85 48 f9 ff ff 34 	movl   $0xf9320634,-0x6b8(%rbp)
    940e:	06 32 f9 
    9411:	c7 85 4c f9 ff ff 2b 	movl   $0x9a88812b,-0x6b4(%rbp)
    9418:	81 88 9a 
    941b:	c7 85 50 f9 ff ff a8 	movl   $0xbb8b4ea8,-0x6b0(%rbp)
    9422:	4e 8b bb 
    9425:	c7 85 54 f9 ff ff 34 	movl   $0xf9320634,-0x6ac(%rbp)
    942c:	06 32 f9 
    942f:	c7 85 58 f9 ff ff a8 	movl   $0xbb8b4ea8,-0x6a8(%rbp)
    9436:	4e 8b bb 
    9439:	c7 85 5c f9 ff ff 2b 	movl   $0x9a88812b,-0x6a4(%rbp)
    9440:	81 88 9a 
    9443:	c7 85 60 f9 ff ff 34 	movl   $0xf9320634,-0x6a0(%rbp)
    944a:	06 32 f9 
    944d:	48 c7 85 c0 f6 ff ff 	movq   $0x0,-0x940(%rbp)
    9454:	00 00 00 00 
    9458:	48 8d 05 7d cc 00 00 	lea    0xcc7d(%rip),%rax        # 160dc <g_81>
    945f:	48 89 85 c8 f6 ff ff 	mov    %rax,-0x938(%rbp)
    9466:	48 8d 05 83 cc 00 00 	lea    0xcc83(%rip),%rax        # 160f0 <g_107>
    946d:	48 89 85 d0 f6 ff ff 	mov    %rax,-0x930(%rbp)
    9474:	48 8d 05 61 cc 00 00 	lea    0xcc61(%rip),%rax        # 160dc <g_81>
    947b:	48 89 85 d8 f6 ff ff 	mov    %rax,-0x928(%rbp)
    9482:	48 8d 05 a7 cd 00 00 	lea    0xcda7(%rip),%rax        # 16230 <g_667>
    9489:	48 89 85 e0 f6 ff ff 	mov    %rax,-0x920(%rbp)
    9490:	48 c7 85 e8 f6 ff ff 	movq   $0x0,-0x918(%rbp)
    9497:	00 00 00 00 
    949b:	48 8d 85 30 f7 ff ff 	lea    -0x8d0(%rbp),%rax
    94a2:	48 83 c0 04          	add    $0x4,%rax
    94a6:	48 89 85 f0 f6 ff ff 	mov    %rax,-0x910(%rbp)
    94ad:	48 8d 05 7c cd 00 00 	lea    0xcd7c(%rip),%rax        # 16230 <g_667>
    94b4:	48 89 85 f8 f6 ff ff 	mov    %rax,-0x908(%rbp)
    94bb:	48 8d 05 ee cb 00 00 	lea    0xcbee(%rip),%rax        # 160b0 <g_46>
    94c2:	48 89 85 00 fc ff ff 	mov    %rax,-0x400(%rbp)
    94c9:	48 c7 85 08 fc ff ff 	movq   $0x0,-0x3f8(%rbp)
    94d0:	00 00 00 00 
    94d4:	48 c7 85 10 fc ff ff 	movq   $0x0,-0x3f0(%rbp)
    94db:	00 00 00 00 
    94df:	48 8d 05 ca cb 00 00 	lea    0xcbca(%rip),%rax        # 160b0 <g_46>
    94e6:	48 89 85 18 fc ff ff 	mov    %rax,-0x3e8(%rbp)
    94ed:	48 8d 05 3c cd 00 00 	lea    0xcd3c(%rip),%rax        # 16230 <g_667>
    94f4:	48 89 85 20 fc ff ff 	mov    %rax,-0x3e0(%rbp)
    94fb:	48 8d 05 ae cb 00 00 	lea    0xcbae(%rip),%rax        # 160b0 <g_46>
    9502:	48 89 85 28 fc ff ff 	mov    %rax,-0x3d8(%rbp)
    9509:	48 c7 85 30 fc ff ff 	movq   $0x0,-0x3d0(%rbp)
    9510:	00 00 00 00 
    9514:	48 c7 85 38 fc ff ff 	movq   $0x0,-0x3c8(%rbp)
    951b:	00 00 00 00 
    951f:	48 8d 05 8a cb 00 00 	lea    0xcb8a(%rip),%rax        # 160b0 <g_46>
    9526:	48 89 85 40 fc ff ff 	mov    %rax,-0x3c0(%rbp)
    952d:	48 8d 05 fc cc 00 00 	lea    0xccfc(%rip),%rax        # 16230 <g_667>
    9534:	48 89 85 48 fc ff ff 	mov    %rax,-0x3b8(%rbp)
    953b:	48 8d 05 6e cb 00 00 	lea    0xcb6e(%rip),%rax        # 160b0 <g_46>
    9542:	48 89 85 50 fc ff ff 	mov    %rax,-0x3b0(%rbp)
    9549:	48 c7 85 58 fc ff ff 	movq   $0x0,-0x3a8(%rbp)
    9550:	00 00 00 00 
    9554:	48 c7 85 60 fc ff ff 	movq   $0x0,-0x3a0(%rbp)
    955b:	00 00 00 00 
    955f:	48 8d 05 4a cb 00 00 	lea    0xcb4a(%rip),%rax        # 160b0 <g_46>
    9566:	48 89 85 68 fc ff ff 	mov    %rax,-0x398(%rbp)
    956d:	48 8d 05 bc cc 00 00 	lea    0xccbc(%rip),%rax        # 16230 <g_667>
    9574:	48 89 85 70 fc ff ff 	mov    %rax,-0x390(%rbp)
    957b:	48 8d 05 2e cb 00 00 	lea    0xcb2e(%rip),%rax        # 160b0 <g_46>
    9582:	48 89 85 78 fc ff ff 	mov    %rax,-0x388(%rbp)
    9589:	48 c7 85 80 fc ff ff 	movq   $0x0,-0x380(%rbp)
    9590:	00 00 00 00 
    9594:	48 c7 85 88 fc ff ff 	movq   $0x0,-0x378(%rbp)
    959b:	00 00 00 00 
    959f:	48 8d 05 0a cb 00 00 	lea    0xcb0a(%rip),%rax        # 160b0 <g_46>
    95a6:	48 89 85 90 fc ff ff 	mov    %rax,-0x370(%rbp)
    95ad:	48 8d 05 7c cc 00 00 	lea    0xcc7c(%rip),%rax        # 16230 <g_667>
    95b4:	48 89 85 98 fc ff ff 	mov    %rax,-0x368(%rbp)
    95bb:	48 8d 05 ee ca 00 00 	lea    0xcaee(%rip),%rax        # 160b0 <g_46>
    95c2:	48 89 85 a0 fc ff ff 	mov    %rax,-0x360(%rbp)
    95c9:	48 c7 85 a8 fc ff ff 	movq   $0x0,-0x358(%rbp)
    95d0:	00 00 00 00 
    95d4:	48 c7 85 b0 fc ff ff 	movq   $0x0,-0x350(%rbp)
    95db:	00 00 00 00 
    95df:	48 8d 05 ca ca 00 00 	lea    0xcaca(%rip),%rax        # 160b0 <g_46>
    95e6:	48 89 85 b8 fc ff ff 	mov    %rax,-0x348(%rbp)
    95ed:	48 8d 05 3c cc 00 00 	lea    0xcc3c(%rip),%rax        # 16230 <g_667>
    95f4:	48 89 85 c0 fc ff ff 	mov    %rax,-0x340(%rbp)
    95fb:	48 8d 05 ae ca 00 00 	lea    0xcaae(%rip),%rax        # 160b0 <g_46>
    9602:	48 89 85 c8 fc ff ff 	mov    %rax,-0x338(%rbp)
    9609:	48 c7 85 d0 fc ff ff 	movq   $0x0,-0x330(%rbp)
    9610:	00 00 00 00 
    9614:	48 c7 85 d8 fc ff ff 	movq   $0x0,-0x328(%rbp)
    961b:	00 00 00 00 
    961f:	48 8d 05 8a ca 00 00 	lea    0xca8a(%rip),%rax        # 160b0 <g_46>
    9626:	48 89 85 e0 fc ff ff 	mov    %rax,-0x320(%rbp)
    962d:	48 8d 05 fc cb 00 00 	lea    0xcbfc(%rip),%rax        # 16230 <g_667>
    9634:	48 89 85 e8 fc ff ff 	mov    %rax,-0x318(%rbp)
    963b:	48 8d 05 6e ca 00 00 	lea    0xca6e(%rip),%rax        # 160b0 <g_46>
    9642:	48 89 85 f0 fc ff ff 	mov    %rax,-0x310(%rbp)
    9649:	48 c7 85 f8 fc ff ff 	movq   $0x0,-0x308(%rbp)
    9650:	00 00 00 00 
    9654:	48 c7 85 00 fd ff ff 	movq   $0x0,-0x300(%rbp)
    965b:	00 00 00 00 
    965f:	48 8d 05 4a ca 00 00 	lea    0xca4a(%rip),%rax        # 160b0 <g_46>
    9666:	48 89 85 08 fd ff ff 	mov    %rax,-0x2f8(%rbp)
    966d:	48 8d 05 bc cb 00 00 	lea    0xcbbc(%rip),%rax        # 16230 <g_667>
    9674:	48 89 85 10 fd ff ff 	mov    %rax,-0x2f0(%rbp)
    967b:	48 8d 05 2e ca 00 00 	lea    0xca2e(%rip),%rax        # 160b0 <g_46>
    9682:	48 89 85 18 fd ff ff 	mov    %rax,-0x2e8(%rbp)
    9689:	48 c7 85 20 fd ff ff 	movq   $0x0,-0x2e0(%rbp)
    9690:	00 00 00 00 
    9694:	48 c7 85 28 fd ff ff 	movq   $0x0,-0x2d8(%rbp)
    969b:	00 00 00 00 
    969f:	48 8d 05 0a ca 00 00 	lea    0xca0a(%rip),%rax        # 160b0 <g_46>
    96a6:	48 89 85 30 fd ff ff 	mov    %rax,-0x2d0(%rbp)
    96ad:	48 8d 05 7c cb 00 00 	lea    0xcb7c(%rip),%rax        # 16230 <g_667>
    96b4:	48 89 85 38 fd ff ff 	mov    %rax,-0x2c8(%rbp)
    96bb:	48 8d 05 ee c9 00 00 	lea    0xc9ee(%rip),%rax        # 160b0 <g_46>
    96c2:	48 89 85 40 fd ff ff 	mov    %rax,-0x2c0(%rbp)
    96c9:	48 c7 85 48 fd ff ff 	movq   $0x0,-0x2b8(%rbp)
    96d0:	00 00 00 00 
    96d4:	48 c7 85 50 fd ff ff 	movq   $0x0,-0x2b0(%rbp)
    96db:	00 00 00 00 
    96df:	48 8d 05 ca c9 00 00 	lea    0xc9ca(%rip),%rax        # 160b0 <g_46>
    96e6:	48 89 85 58 fd ff ff 	mov    %rax,-0x2a8(%rbp)
    96ed:	48 8d 05 3c cb 00 00 	lea    0xcb3c(%rip),%rax        # 16230 <g_667>
    96f4:	48 89 85 60 fd ff ff 	mov    %rax,-0x2a0(%rbp)
    96fb:	48 8d 05 ae c9 00 00 	lea    0xc9ae(%rip),%rax        # 160b0 <g_46>
    9702:	48 89 85 68 fd ff ff 	mov    %rax,-0x298(%rbp)
    9709:	48 c7 85 70 fd ff ff 	movq   $0x0,-0x290(%rbp)
    9710:	00 00 00 00 
    9714:	48 c7 85 78 fd ff ff 	movq   $0x0,-0x288(%rbp)
    971b:	00 00 00 00 
    971f:	48 8d 05 8a c9 00 00 	lea    0xc98a(%rip),%rax        # 160b0 <g_46>
    9726:	48 89 85 80 fd ff ff 	mov    %rax,-0x280(%rbp)
    972d:	48 8d 05 fc ca 00 00 	lea    0xcafc(%rip),%rax        # 16230 <g_667>
    9734:	48 89 85 88 fd ff ff 	mov    %rax,-0x278(%rbp)
    973b:	48 8d 05 6e c9 00 00 	lea    0xc96e(%rip),%rax        # 160b0 <g_46>
    9742:	48 89 85 90 fd ff ff 	mov    %rax,-0x270(%rbp)
    9749:	48 c7 85 98 fd ff ff 	movq   $0x0,-0x268(%rbp)
    9750:	00 00 00 00 
    9754:	48 c7 85 a0 fd ff ff 	movq   $0x0,-0x260(%rbp)
    975b:	00 00 00 00 
    975f:	48 8d 05 4a c9 00 00 	lea    0xc94a(%rip),%rax        # 160b0 <g_46>
    9766:	48 89 85 a8 fd ff ff 	mov    %rax,-0x258(%rbp)
    976d:	48 8d 05 bc ca 00 00 	lea    0xcabc(%rip),%rax        # 16230 <g_667>
    9774:	48 89 85 b0 fd ff ff 	mov    %rax,-0x250(%rbp)
    977b:	48 8d 05 2e c9 00 00 	lea    0xc92e(%rip),%rax        # 160b0 <g_46>
    9782:	48 89 85 b8 fd ff ff 	mov    %rax,-0x248(%rbp)
    9789:	48 c7 85 c0 fd ff ff 	movq   $0x0,-0x240(%rbp)
    9790:	00 00 00 00 
    9794:	48 c7 85 c8 fd ff ff 	movq   $0x0,-0x238(%rbp)
    979b:	00 00 00 00 
    979f:	48 8d 05 0a c9 00 00 	lea    0xc90a(%rip),%rax        # 160b0 <g_46>
    97a6:	48 89 85 d0 fd ff ff 	mov    %rax,-0x230(%rbp)
    97ad:	48 8d 05 7c ca 00 00 	lea    0xca7c(%rip),%rax        # 16230 <g_667>
    97b4:	48 89 85 d8 fd ff ff 	mov    %rax,-0x228(%rbp)
    97bb:	48 8d 05 ee c8 00 00 	lea    0xc8ee(%rip),%rax        # 160b0 <g_46>
    97c2:	48 89 85 e0 fd ff ff 	mov    %rax,-0x220(%rbp)
    97c9:	48 c7 85 e8 fd ff ff 	movq   $0x0,-0x218(%rbp)
    97d0:	00 00 00 00 
    97d4:	48 c7 85 f0 fd ff ff 	movq   $0x0,-0x210(%rbp)
    97db:	00 00 00 00 
    97df:	48 8d 05 ca c8 00 00 	lea    0xc8ca(%rip),%rax        # 160b0 <g_46>
    97e6:	48 89 85 f8 fd ff ff 	mov    %rax,-0x208(%rbp)
    97ed:	48 8d 05 3c ca 00 00 	lea    0xca3c(%rip),%rax        # 16230 <g_667>
    97f4:	48 89 85 00 fe ff ff 	mov    %rax,-0x200(%rbp)
    97fb:	48 8d 05 ae c8 00 00 	lea    0xc8ae(%rip),%rax        # 160b0 <g_46>
    9802:	48 89 85 08 fe ff ff 	mov    %rax,-0x1f8(%rbp)
    9809:	48 c7 85 10 fe ff ff 	movq   $0x0,-0x1f0(%rbp)
    9810:	00 00 00 00 
    9814:	48 c7 85 18 fe ff ff 	movq   $0x0,-0x1e8(%rbp)
    981b:	00 00 00 00 
    981f:	48 8d 05 8a c8 00 00 	lea    0xc88a(%rip),%rax        # 160b0 <g_46>
    9826:	48 89 85 20 fe ff ff 	mov    %rax,-0x1e0(%rbp)
    982d:	48 8d 05 fc c9 00 00 	lea    0xc9fc(%rip),%rax        # 16230 <g_667>
    9834:	48 89 85 28 fe ff ff 	mov    %rax,-0x1d8(%rbp)
    983b:	48 8d 05 6e c8 00 00 	lea    0xc86e(%rip),%rax        # 160b0 <g_46>
    9842:	48 89 85 30 fe ff ff 	mov    %rax,-0x1d0(%rbp)
    9849:	48 c7 85 38 fe ff ff 	movq   $0x0,-0x1c8(%rbp)
    9850:	00 00 00 00 
    9854:	48 c7 85 40 fe ff ff 	movq   $0x0,-0x1c0(%rbp)
    985b:	00 00 00 00 
    985f:	48 8d 05 4a c8 00 00 	lea    0xc84a(%rip),%rax        # 160b0 <g_46>
    9866:	48 89 85 48 fe ff ff 	mov    %rax,-0x1b8(%rbp)
    986d:	48 8d 05 bc c9 00 00 	lea    0xc9bc(%rip),%rax        # 16230 <g_667>
    9874:	48 89 85 50 fe ff ff 	mov    %rax,-0x1b0(%rbp)
    987b:	48 8d 05 2e c8 00 00 	lea    0xc82e(%rip),%rax        # 160b0 <g_46>
    9882:	48 89 85 58 fe ff ff 	mov    %rax,-0x1a8(%rbp)
    9889:	48 c7 85 60 fe ff ff 	movq   $0x0,-0x1a0(%rbp)
    9890:	00 00 00 00 
    9894:	48 c7 85 68 fe ff ff 	movq   $0x0,-0x198(%rbp)
    989b:	00 00 00 00 
    989f:	48 8d 05 0a c8 00 00 	lea    0xc80a(%rip),%rax        # 160b0 <g_46>
    98a6:	48 89 85 70 fe ff ff 	mov    %rax,-0x190(%rbp)
    98ad:	48 8d 05 7c c9 00 00 	lea    0xc97c(%rip),%rax        # 16230 <g_667>
    98b4:	48 89 85 78 fe ff ff 	mov    %rax,-0x188(%rbp)
    98bb:	48 8d 05 ee c7 00 00 	lea    0xc7ee(%rip),%rax        # 160b0 <g_46>
    98c2:	48 89 85 80 fe ff ff 	mov    %rax,-0x180(%rbp)
    98c9:	48 c7 85 88 fe ff ff 	movq   $0x0,-0x178(%rbp)
    98d0:	00 00 00 00 
    98d4:	48 c7 85 90 fe ff ff 	movq   $0x0,-0x170(%rbp)
    98db:	00 00 00 00 
    98df:	48 8d 05 ca c7 00 00 	lea    0xc7ca(%rip),%rax        # 160b0 <g_46>
    98e6:	48 89 85 98 fe ff ff 	mov    %rax,-0x168(%rbp)
    98ed:	48 8d 05 3c c9 00 00 	lea    0xc93c(%rip),%rax        # 16230 <g_667>
    98f4:	48 89 85 a0 fe ff ff 	mov    %rax,-0x160(%rbp)
    98fb:	48 8d 05 ae c7 00 00 	lea    0xc7ae(%rip),%rax        # 160b0 <g_46>
    9902:	48 89 85 a8 fe ff ff 	mov    %rax,-0x158(%rbp)
    9909:	48 c7 85 b0 fe ff ff 	movq   $0x0,-0x150(%rbp)
    9910:	00 00 00 00 
    9914:	48 c7 85 b8 fe ff ff 	movq   $0x0,-0x148(%rbp)
    991b:	00 00 00 00 
    991f:	48 8d 05 8a c7 00 00 	lea    0xc78a(%rip),%rax        # 160b0 <g_46>
    9926:	48 89 85 c0 fe ff ff 	mov    %rax,-0x140(%rbp)
    992d:	48 8d 05 fc c8 00 00 	lea    0xc8fc(%rip),%rax        # 16230 <g_667>
    9934:	48 89 85 c8 fe ff ff 	mov    %rax,-0x138(%rbp)
    993b:	48 8d 05 6e c7 00 00 	lea    0xc76e(%rip),%rax        # 160b0 <g_46>
    9942:	48 89 85 d0 fe ff ff 	mov    %rax,-0x130(%rbp)
    9949:	48 c7 85 d8 fe ff ff 	movq   $0x0,-0x128(%rbp)
    9950:	00 00 00 00 
    9954:	48 c7 85 e0 fe ff ff 	movq   $0x0,-0x120(%rbp)
    995b:	00 00 00 00 
    995f:	48 8d 05 4a c7 00 00 	lea    0xc74a(%rip),%rax        # 160b0 <g_46>
    9966:	48 89 85 e8 fe ff ff 	mov    %rax,-0x118(%rbp)
    996d:	48 8d 05 bc c8 00 00 	lea    0xc8bc(%rip),%rax        # 16230 <g_667>
    9974:	48 89 85 f0 fe ff ff 	mov    %rax,-0x110(%rbp)
    997b:	48 8d 05 2e c7 00 00 	lea    0xc72e(%rip),%rax        # 160b0 <g_46>
    9982:	48 89 85 f8 fe ff ff 	mov    %rax,-0x108(%rbp)
    9989:	48 c7 85 00 ff ff ff 	movq   $0x0,-0x100(%rbp)
    9990:	00 00 00 00 
    9994:	48 c7 85 08 ff ff ff 	movq   $0x0,-0xf8(%rbp)
    999b:	00 00 00 00 
    999f:	48 8d 05 0a c7 00 00 	lea    0xc70a(%rip),%rax        # 160b0 <g_46>
    99a6:	48 89 85 10 ff ff ff 	mov    %rax,-0xf0(%rbp)
    99ad:	48 8d 05 7c c8 00 00 	lea    0xc87c(%rip),%rax        # 16230 <g_667>
    99b4:	48 89 85 18 ff ff ff 	mov    %rax,-0xe8(%rbp)
    99bb:	48 8d 05 ee c6 00 00 	lea    0xc6ee(%rip),%rax        # 160b0 <g_46>
    99c2:	48 89 85 20 ff ff ff 	mov    %rax,-0xe0(%rbp)
    99c9:	48 c7 85 28 ff ff ff 	movq   $0x0,-0xd8(%rbp)
    99d0:	00 00 00 00 
    99d4:	48 c7 85 30 ff ff ff 	movq   $0x0,-0xd0(%rbp)
    99db:	00 00 00 00 
    99df:	48 8d 05 ca c6 00 00 	lea    0xc6ca(%rip),%rax        # 160b0 <g_46>
    99e6:	48 89 85 38 ff ff ff 	mov    %rax,-0xc8(%rbp)
    99ed:	48 8d 05 3c c8 00 00 	lea    0xc83c(%rip),%rax        # 16230 <g_667>
    99f4:	48 89 85 40 ff ff ff 	mov    %rax,-0xc0(%rbp)
    99fb:	48 8d 05 da c6 00 00 	lea    0xc6da(%rip),%rax        # 160dc <g_81>
    9a02:	48 89 85 48 ff ff ff 	mov    %rax,-0xb8(%rbp)
    9a09:	48 8d 05 a0 c6 00 00 	lea    0xc6a0(%rip),%rax        # 160b0 <g_46>
    9a10:	48 89 85 50 ff ff ff 	mov    %rax,-0xb0(%rbp)
    9a17:	48 8d 05 92 c6 00 00 	lea    0xc692(%rip),%rax        # 160b0 <g_46>
    9a1e:	48 89 85 58 ff ff ff 	mov    %rax,-0xa8(%rbp)
    9a25:	48 8d 05 b0 c6 00 00 	lea    0xc6b0(%rip),%rax        # 160dc <g_81>
    9a2c:	48 89 85 60 ff ff ff 	mov    %rax,-0xa0(%rbp)
    9a33:	48 8d 85 30 f7 ff ff 	lea    -0x8d0(%rbp),%rax
    9a3a:	48 89 85 68 ff ff ff 	mov    %rax,-0x98(%rbp)
    9a41:	48 8d 05 94 c6 00 00 	lea    0xc694(%rip),%rax        # 160dc <g_81>
    9a48:	48 89 85 70 ff ff ff 	mov    %rax,-0x90(%rbp)
    9a4f:	48 8d 05 5a c6 00 00 	lea    0xc65a(%rip),%rax        # 160b0 <g_46>
    9a56:	48 89 85 78 ff ff ff 	mov    %rax,-0x88(%rbp)
    9a5d:	48 8d 05 4c c6 00 00 	lea    0xc64c(%rip),%rax        # 160b0 <g_46>
    9a64:	48 89 45 80          	mov    %rax,-0x80(%rbp)
    9a68:	48 8d 05 6d c6 00 00 	lea    0xc66d(%rip),%rax        # 160dc <g_81>
    9a6f:	48 89 45 88          	mov    %rax,-0x78(%rbp)
    9a73:	48 8d 85 30 f7 ff ff 	lea    -0x8d0(%rbp),%rax
    9a7a:	48 89 45 90          	mov    %rax,-0x70(%rbp)
    9a7e:	48 8d 05 57 c6 00 00 	lea    0xc657(%rip),%rax        # 160dc <g_81>
    9a85:	48 89 45 98          	mov    %rax,-0x68(%rbp)
    9a89:	48 8d 05 20 c6 00 00 	lea    0xc620(%rip),%rax        # 160b0 <g_46>
    9a90:	48 89 45 a0          	mov    %rax,-0x60(%rbp)
    9a94:	48 8d 05 15 c6 00 00 	lea    0xc615(%rip),%rax        # 160b0 <g_46>
    9a9b:	48 89 45 a8          	mov    %rax,-0x58(%rbp)
    9a9f:	48 8d 05 36 c6 00 00 	lea    0xc636(%rip),%rax        # 160dc <g_81>
    9aa6:	48 89 45 b0          	mov    %rax,-0x50(%rbp)
    9aaa:	48 8d 85 30 f7 ff ff 	lea    -0x8d0(%rbp),%rax
    9ab1:	48 89 45 b8          	mov    %rax,-0x48(%rbp)
    9ab5:	c7 85 14 f5 ff ff 8f 	movl   $0x23f8d8f,-0xaec(%rbp)
    9abc:	8d 3f 02 
    9abf:	c7 85 18 f5 ff ff 7d 	movl   $0xa6c7127d,-0xae8(%rbp)
    9ac6:	12 c7 a6 
    9ac9:	c7 85 1c f5 ff ff fa 	movl   $0xfffffffa,-0xae4(%rbp)
    9ad0:	ff ff ff 
    9ad3:	c7 85 b8 f4 ff ff 00 	movl   $0x0,-0xb48(%rbp)
    9ada:	00 00 00 
    9add:	eb 1a                	jmp    9af9 <func_5+0xd5a>
    9adf:	8b 85 b8 f4 ff ff    	mov    -0xb48(%rbp),%eax
    9ae5:	48 98                	cltq   
    9ae7:	c7 84 85 30 f7 ff ff 	movl   $0xffffffff,-0x8d0(%rbp,%rax,4)
    9aee:	ff ff ff ff 
    9af2:	83 85 b8 f4 ff ff 01 	addl   $0x1,-0xb48(%rbp)
    9af9:	83 bd b8 f4 ff ff 04 	cmpl   $0x4,-0xb48(%rbp)
    9b00:	7e dd                	jle    9adf <func_5+0xd40>
    9b02:	c7 85 b8 f4 ff ff 00 	movl   $0x0,-0xb48(%rbp)
    9b09:	00 00 00 
    9b0c:	eb 1e                	jmp    9b2c <func_5+0xd8d>
    9b0e:	8b 85 b8 f4 ff ff    	mov    -0xb48(%rbp),%eax
    9b14:	48 98                	cltq   
    9b16:	48 8d 15 c3 c5 00 00 	lea    0xc5c3(%rip),%rdx        # 160e0 <g_88>
    9b1d:	48 89 94 c5 20 f7 ff 	mov    %rdx,-0x8e0(%rbp,%rax,8)
    9b24:	ff 
    9b25:	83 85 b8 f4 ff ff 01 	addl   $0x1,-0xb48(%rbp)
    9b2c:	83 bd b8 f4 ff ff 01 	cmpl   $0x1,-0xb48(%rbp)
    9b33:	7e d9                	jle    9b0e <func_5+0xd6f>
    9b35:	c7 85 b8 f4 ff ff 00 	movl   $0x0,-0xb48(%rbp)
    9b3c:	00 00 00 
    9b3f:	eb 1a                	jmp    9b5b <func_5+0xdbc>
    9b41:	8b 85 b8 f4 ff ff    	mov    -0xb48(%rbp),%eax
    9b47:	48 98                	cltq   
    9b49:	c7 84 85 04 f7 ff ff 	movl   $0x0,-0x8fc(%rbp,%rax,4)
    9b50:	00 00 00 00 
    9b54:	83 85 b8 f4 ff ff 01 	addl   $0x1,-0xb48(%rbp)
    9b5b:	83 bd b8 f4 ff ff 02 	cmpl   $0x2,-0xb48(%rbp)
    9b62:	7e dd                	jle    9b41 <func_5+0xda2>
    9b64:	83 ad 1c f5 ff ff 01 	subl   $0x1,-0xae4(%rbp)
    9b6b:	83 bd dc f4 ff ff 00 	cmpl   $0x0,-0xb24(%rbp)
    9b72:	0f 85 d0 03 00 00    	jne    9f48 <func_5+0x11a9>
    9b78:	48 8b 85 70 f4 ff ff 	mov    -0xb90(%rbp),%rax
    9b7f:	0f be d8             	movsbl %al,%ebx
    9b82:	be 04 00 00 00       	mov    $0x4,%esi
    9b87:	bf 03 00 00 00       	mov    $0x3,%edi
    9b8c:	e8 bb b0 ff ff       	callq  4c4c <safe_lshift_func_uint8_t_u_u>
    9b91:	48 8b 05 28 ce 00 00 	mov    0xce28(%rip),%rax        # 169c0 <g_103>
    9b98:	8b 00                	mov    (%rax),%eax
    9b9a:	85 c0                	test   %eax,%eax
    9b9c:	75 0a                	jne    9ba8 <func_5+0xe09>
    9b9e:	48 83 bd 70 f4 ff ff 	cmpq   $0x0,-0xb90(%rbp)
    9ba5:	00 
    9ba6:	74 07                	je     9baf <func_5+0xe10>
    9ba8:	b8 01 00 00 00       	mov    $0x1,%eax
    9bad:	eb 05                	jmp    9bb4 <func_5+0xe15>
    9baf:	b8 00 00 00 00       	mov    $0x0,%eax
    9bb4:	83 e0 01             	and    $0x1,%eax
    9bb7:	8b 95 d4 f4 ff ff    	mov    -0xb2c(%rbp),%edx
    9bbd:	48 63 ca             	movslq %edx,%rcx
    9bc0:	48 8b 95 70 f4 ff ff 	mov    -0xb90(%rbp),%rdx
    9bc7:	48 31 ca             	xor    %rcx,%rdx
    9bca:	48 81 fa 06 ff ff ff 	cmp    $0xffffffffffffff06,%rdx
    9bd1:	0f 95 c2             	setne  %dl
    9bd4:	09 d0                	or     %edx,%eax
    9bd6:	0f b6 c0             	movzbl %al,%eax
    9bd9:	be 06 00 00 00       	mov    $0x6,%esi
    9bde:	89 c7                	mov    %eax,%edi
    9be0:	e8 09 a7 ff ff       	callq  42ee <safe_lshift_func_int8_t_s_u>
    9be5:	be bb 47 86 b7       	mov    $0xb78647bb,%esi
    9bea:	bf 01 00 00 00       	mov    $0x1,%edi
    9bef:	e8 c2 a9 ff ff       	callq  45b6 <safe_add_func_int32_t_s_s>
    9bf4:	3d 1d c3 00 00       	cmp    $0xc31d,%eax
    9bf9:	0f 9f c0             	setg   %al
    9bfc:	0f b6 c0             	movzbl %al,%eax
    9bff:	89 de                	mov    %ebx,%esi
    9c01:	89 c7                	mov    %eax,%edi
    9c03:	e8 ea a5 ff ff       	callq  41f2 <safe_sub_func_int8_t_s_s>
    9c08:	0f be c0             	movsbl %al,%eax
    9c0b:	35 81 ea bc cf       	xor    $0xcfbcea81,%eax
    9c10:	89 c2                	mov    %eax,%edx
    9c12:	8b 85 cc f4 ff ff    	mov    -0xb34(%rbp),%eax
    9c18:	89 c6                	mov    %eax,%esi
    9c1a:	89 d7                	mov    %edx,%edi
    9c1c:	e8 95 a9 ff ff       	callq  45b6 <safe_add_func_int32_t_s_s>
    9c21:	48 8b 85 f0 f6 ff ff 	mov    -0x910(%rbp),%rax
    9c28:	8b 00                	mov    (%rax),%eax
    9c2a:	83 f0 fd             	xor    $0xfffffffd,%eax
    9c2d:	89 c2                	mov    %eax,%edx
    9c2f:	48 8b 85 f0 f6 ff ff 	mov    -0x910(%rbp),%rax
    9c36:	89 10                	mov    %edx,(%rax)
    9c38:	48 c7 c6 ff ff ff ff 	mov    $0xffffffffffffffff,%rsi
    9c3f:	bf 01 00 00 00       	mov    $0x1,%edi
    9c44:	e8 f8 ab ff ff       	callq  4841 <safe_add_func_int64_t_s_s>
    9c49:	48 8b 05 90 c4 00 00 	mov    0xc490(%rip),%rax        # 160e0 <g_88>
    9c50:	48 83 e8 01          	sub    $0x1,%rax
    9c54:	48 89 05 85 c4 00 00 	mov    %rax,0xc485(%rip)        # 160e0 <g_88>
    9c5b:	0f b6 05 02 c4 00 00 	movzbl 0xc402(%rip),%eax        # 16064 <g_19+0x24>
    9c62:	3c 0d                	cmp    $0xd,%al
    9c64:	48 8d 05 1d dd 00 00 	lea    0xdd1d(%rip),%rax        # 17988 <g_653>
    9c6b:	48 89 85 b8 f6 ff ff 	mov    %rax,-0x948(%rbp)
    9c72:	48 8d 05 0f dd 00 00 	lea    0xdd0f(%rip),%rax        # 17988 <g_653>
    9c79:	48 39 85 b8 f6 ff ff 	cmp    %rax,-0x948(%rbp)
    9c80:	0f 84 bd 00 00 00    	je     9d43 <func_5+0xfa4>
    9c86:	c7 85 a4 f4 ff ff 02 	movl   $0x2,-0xb5c(%rbp)
    9c8d:	00 00 00 
    9c90:	e9 8b 00 00 00       	jmpq   9d20 <func_5+0xf81>
    9c95:	c7 85 38 f5 ff ff fc 	movl   $0xfffffffc,-0xac8(%rbp)
    9c9c:	ff ff ff 
    9c9f:	c7 85 3c f5 ff ff fe 	movl   $0xf974c0fe,-0xac4(%rbp)
    9ca6:	c0 74 f9 
    9ca9:	8b 05 45 c4 00 00    	mov    0xc445(%rip),%eax        # 160f4 <g_124>
    9caf:	8d 50 01             	lea    0x1(%rax),%edx
    9cb2:	8b 05 3c c4 00 00    	mov    0xc43c(%rip),%eax        # 160f4 <g_124>
    9cb8:	89 c1                	mov    %eax,%ecx
    9cba:	89 d2                	mov    %edx,%edx
    9cbc:	48 89 d0             	mov    %rdx,%rax
    9cbf:	48 01 c0             	add    %rax,%rax
    9cc2:	48 01 d0             	add    %rdx,%rax
    9cc5:	48 01 c8             	add    %rcx,%rax
    9cc8:	8b 84 85 90 f7 ff ff 	mov    -0x870(%rbp,%rax,4),%eax
    9ccf:	8b 15 1f c4 00 00    	mov    0xc41f(%rip),%edx        # 160f4 <g_124>
    9cd5:	8d 7a 01             	lea    0x1(%rdx),%edi
    9cd8:	8b 0d 16 c4 00 00    	mov    0xc416(%rip),%ecx        # 160f4 <g_124>
    9cde:	35 f0 14 c1 f3       	xor    $0xf3c114f0,%eax
    9ce3:	89 c2                	mov    %eax,%edx
    9ce5:	89 ce                	mov    %ecx,%esi
    9ce7:	89 f9                	mov    %edi,%ecx
    9ce9:	48 89 c8             	mov    %rcx,%rax
    9cec:	48 01 c0             	add    %rax,%rax
    9cef:	48 01 c8             	add    %rcx,%rax
    9cf2:	48 01 f0             	add    %rsi,%rax
    9cf5:	89 94 85 90 f7 ff ff 	mov    %edx,-0x870(%rbp,%rax,4)
    9cfc:	48 8d 05 dd cc 00 00 	lea    0xccdd(%rip),%rax        # 169e0 <g_279>
    9d03:	48 89 85 b8 f5 ff ff 	mov    %rax,-0xa48(%rbp)
    9d0a:	8b 85 0c f7 ff ff    	mov    -0x8f4(%rbp),%eax
    9d10:	83 e8 01             	sub    $0x1,%eax
    9d13:	89 85 0c f7 ff ff    	mov    %eax,-0x8f4(%rbp)
    9d19:	83 ad a4 f4 ff ff 01 	subl   $0x1,-0xb5c(%rbp)
    9d20:	83 bd a4 f4 ff ff 00 	cmpl   $0x0,-0xb5c(%rbp)
    9d27:	0f 89 68 ff ff ff    	jns    9c95 <func_5+0xef6>
    9d2d:	48 8b 85 e0 f6 ff ff 	mov    -0x920(%rbp),%rax
    9d34:	8b 00                	mov    (%rax),%eax
    9d36:	85 c0                	test   %eax,%eax
    9d38:	0f 84 0b 02 00 00    	je     9f49 <func_5+0x11aa>
    9d3e:	e9 23 02 00 00       	jmpq   9f66 <func_5+0x11c7>
    9d43:	48 8d 85 70 f9 ff ff 	lea    -0x690(%rbp),%rax
    9d4a:	48 8d 15 af c5 00 00 	lea    0xc5af(%rip),%rdx        # 16300 <g_1524+0x18>
    9d51:	b9 24 00 00 00       	mov    $0x24,%ecx
    9d56:	48 89 c7             	mov    %rax,%rdi
    9d59:	48 89 d6             	mov    %rdx,%rsi
    9d5c:	f3 48 a5             	rep movsq %ds:(%rsi),%es:(%rdi)
    9d5f:	c7 85 bc f4 ff ff 3d 	movl   $0xd5322d3d,-0xb44(%rbp)
    9d66:	2d 32 d5 
    9d69:	c7 85 20 f5 ff ff 4b 	movl   $0xae40094b,-0xae0(%rbp)
    9d70:	09 40 ae 
    9d73:	c7 85 24 f5 ff ff 87 	movl   $0x81c16387,-0xadc(%rbp)
    9d7a:	63 c1 81 
    9d7d:	c7 85 28 f5 ff ff 77 	movl   $0xf1498977,-0xad8(%rbp)
    9d84:	89 49 f1 
    9d87:	c7 85 2c f5 ff ff 8e 	movl   $0xbb7fc58e,-0xad4(%rbp)
    9d8e:	c5 7f bb 
    9d91:	c7 85 30 f5 ff ff 36 	movl   $0x84f8f536,-0xad0(%rbp)
    9d98:	f5 f8 84 
    9d9b:	c7 85 34 f5 ff ff ff 	movl   $0xffffffff,-0xacc(%rbp)
    9da2:	ff ff ff 
    9da5:	48 8b 85 d8 f6 ff ff 	mov    -0x928(%rbp),%rax
    9dac:	8b 00                	mov    (%rax),%eax
    9dae:	25 42 7b fc 88       	and    $0x88fc7b42,%eax
    9db3:	89 c2                	mov    %eax,%edx
    9db5:	48 8b 85 d8 f6 ff ff 	mov    -0x928(%rbp),%rax
    9dbc:	89 10                	mov    %edx,(%rax)
    9dbe:	48 c7 85 70 f4 ff ff 	movq   $0x6,-0xb90(%rbp)
    9dc5:	06 00 00 00 
    9dc9:	e9 23 01 00 00       	jmpq   9ef1 <func_5+0x1152>
    9dce:	66 c7 85 a2 f4 ff ff 	movw   $0x5,-0xb5e(%rbp)
    9dd5:	05 00 
    9dd7:	c7 85 c0 f4 ff ff 00 	movl   $0x0,-0xb40(%rbp)
    9dde:	00 00 00 
    9de1:	eb 1b                	jmp    9dfe <func_5+0x105f>
    9de3:	8b 85 c0 f4 ff ff    	mov    -0xb40(%rbp),%eax
    9de9:	48 98                	cltq   
    9deb:	48 c7 84 c5 70 f7 ff 	movq   $0x0,-0x890(%rbp,%rax,8)
    9df2:	ff 00 00 00 00 
    9df7:	83 85 c0 f4 ff ff 01 	addl   $0x1,-0xb40(%rbp)
    9dfe:	83 bd c0 f4 ff ff 02 	cmpl   $0x2,-0xb40(%rbp)
    9e05:	7e dc                	jle    9de3 <func_5+0x1044>
    9e07:	48 8b 05 32 8e 00 00 	mov    0x8e32(%rip),%rax        # 12c40 <l_845.4414+0x660>
    9e0e:	89 c2                	mov    %eax,%edx
    9e10:	8b 85 f0 f7 ff ff    	mov    -0x810(%rbp),%eax
    9e16:	89 d6                	mov    %edx,%esi
    9e18:	89 c7                	mov    %eax,%edi
    9e1a:	e8 ad a8 ff ff       	callq  46cc <safe_mod_func_int32_t_s_s>
    9e1f:	48 8b 15 c2 88 00 00 	mov    0x88c2(%rip),%rdx        # 126e8 <l_845.4414+0x108>
    9e26:	09 85 a8 f4 ff ff    	or     %eax,-0xb58(%rbp)
    9e2c:	8b 85 a8 f4 ff ff    	mov    -0xb58(%rbp),%eax
    9e32:	48 98                	cltq   
    9e34:	48 39 c2             	cmp    %rax,%rdx
    9e37:	0f 95 c0             	setne  %al
    9e3a:	0f b6 d8             	movzbl %al,%ebx
    9e3d:	48 8b 15 a4 c2 00 00 	mov    0xc2a4(%rip),%rdx        # 160e8 <g_91>
    9e44:	48 83 bd 70 f4 ff ff 	cmpq   $0xffffffffffffffff,-0xb90(%rbp)
    9e4b:	ff 
    9e4c:	0f 95 c0             	setne  %al
    9e4f:	0f b6 c0             	movzbl %al,%eax
    9e52:	48 89 d6             	mov    %rdx,%rsi
    9e55:	48 89 c7             	mov    %rax,%rdi
    9e58:	e8 52 b2 ff ff       	callq  50af <safe_div_func_uint64_t_u_u>
    9e5d:	b8 00 00 00 00       	mov    $0x0,%eax
    9e62:	48 98                	cltq   
    9e64:	48 89 c6             	mov    %rax,%rsi
    9e67:	bf 00 00 00 00       	mov    $0x0,%edi
    9e6c:	e8 bd b1 ff ff       	callq  502e <safe_add_func_uint64_t_u_u>
    9e71:	48 39 c3             	cmp    %rax,%rbx
    9e74:	0f 93 c0             	setae  %al
    9e77:	0f b6 d0             	movzbl %al,%edx
    9e7a:	8b 05 74 c2 00 00    	mov    0xc274(%rip),%eax        # 160f4 <g_124>
    9e80:	83 c0 04             	add    $0x4,%eax
    9e83:	89 c0                	mov    %eax,%eax
    9e85:	48 8d 0c 85 00 00 00 	lea    0x0(,%rax,4),%rcx
    9e8c:	00 
    9e8d:	48 8d 05 2c c2 00 00 	lea    0xc22c(%rip),%rax        # 160c0 <g_64>
    9e94:	8b 04 01             	mov    (%rcx,%rax,1),%eax
    9e97:	98                   	cwtl   
    9e98:	89 d6                	mov    %edx,%esi
    9e9a:	89 c7                	mov    %eax,%edi
    9e9c:	e8 40 a6 ff ff       	callq  44e1 <safe_lshift_func_int16_t_s_u>
    9ea1:	66 85 c0             	test   %ax,%ax
    9ea4:	0f 95 c0             	setne  %al
    9ea7:	0f b6 c0             	movzbl %al,%eax
    9eaa:	48 39 85 70 f4 ff ff 	cmp    %rax,-0xb90(%rbp)
    9eb1:	0f 95 c0             	setne  %al
    9eb4:	0f b6 c0             	movzbl %al,%eax
    9eb7:	09 85 bc f4 ff ff    	or     %eax,-0xb44(%rbp)
    9ebd:	48 0f bf 85 a2 f4 ff 	movswq -0xb5e(%rbp),%rax
    9ec4:	ff 
    9ec5:	ba f7 ff ff ff       	mov    $0xfffffff7,%edx
    9eca:	48 39 d0             	cmp    %rdx,%rax
    9ecd:	0f 97 c0             	seta   %al
    9ed0:	0f b6 c0             	movzbl %al,%eax
    9ed3:	48 8b 95 70 f4 ff ff 	mov    -0xb90(%rbp),%rdx
    9eda:	31 d0                	xor    %edx,%eax
    9edc:	f7 d0                	not    %eax
    9ede:	89 c2                	mov    %eax,%edx
    9ee0:	48 8b 85 d8 f6 ff ff 	mov    -0x928(%rbp),%rax
    9ee7:	89 10                	mov    %edx,(%rax)
    9ee9:	48 83 ad 70 f4 ff ff 	subq   $0x1,-0xb90(%rbp)
    9ef0:	01 
    9ef1:	48 83 bd 70 f4 ff ff 	cmpq   $0x0,-0xb90(%rbp)
    9ef8:	00 
    9ef9:	0f 89 cf fe ff ff    	jns    9dce <func_5+0x102f>
    9eff:	c7 85 b4 f4 ff ff 00 	movl   $0x0,-0xb4c(%rbp)
    9f06:	00 00 00 
    9f09:	eb 15                	jmp    9f20 <func_5+0x1181>
    9f0b:	c6 85 99 f4 ff ff 04 	movb   $0x4,-0xb67(%rbp)
    9f12:	80 ad 99 f4 ff ff 01 	subb   $0x1,-0xb67(%rbp)
    9f19:	83 85 b4 f4 ff ff 01 	addl   $0x1,-0xb4c(%rbp)
    9f20:	83 bd b4 f4 ff ff 01 	cmpl   $0x1,-0xb4c(%rbp)
    9f27:	7e e2                	jle    9f0b <func_5+0x116c>
    9f29:	c7 85 30 f5 ff ff 1c 	movl   $0x1c,-0xad0(%rbp)
    9f30:	00 00 00 
    9f33:	83 bd 30 f5 ff ff 03 	cmpl   $0x3,-0xad0(%rbp)
    9f3a:	7e 0d                	jle    9f49 <func_5+0x11aa>
    9f3c:	48 8b 85 88 f4 ff ff 	mov    -0xb78(%rbp),%rax
    9f43:	e9 5c 19 00 00       	jmpq   b8a4 <func_5+0x2b05>
    9f48:	90                   	nop
    9f49:	8b 05 a5 c1 00 00    	mov    0xc1a5(%rip),%eax        # 160f4 <g_124>
    9f4f:	83 c0 01             	add    $0x1,%eax
    9f52:	89 05 9c c1 00 00    	mov    %eax,0xc19c(%rip)        # 160f4 <g_124>
    9f58:	8b 05 96 c1 00 00    	mov    0xc196(%rip),%eax        # 160f4 <g_124>
    9f5e:	85 c0                	test   %eax,%eax
    9f60:	0f 84 25 f3 ff ff    	je     928b <func_5+0x4ec>
    9f66:	0f b7 05 ab c2 00 00 	movzwl 0xc2ab(%rip),%eax        # 16218 <g_237>
    9f6d:	83 c0 01             	add    $0x1,%eax
    9f70:	66 89 05 a1 c2 00 00 	mov    %ax,0xc2a1(%rip)        # 16218 <g_237>
    9f77:	0f b7 05 9a c2 00 00 	movzwl 0xc29a(%rip),%eax        # 16218 <g_237>
    9f7e:	66 85 c0             	test   %ax,%ax
    9f81:	0f 84 51 f2 ff ff    	je     91d8 <func_5+0x439>
    9f87:	48 8b 85 d8 f5 ff ff 	mov    -0xa28(%rbp),%rax
    9f8e:	8b 00                	mov    (%rax),%eax
    9f90:	8d 50 ff             	lea    -0x1(%rax),%edx
    9f93:	48 8b 85 d8 f5 ff ff 	mov    -0xa28(%rbp),%rax
    9f9a:	89 10                	mov    %edx,(%rax)
    9f9c:	48 8b 85 d8 f5 ff ff 	mov    -0xa28(%rbp),%rax
    9fa3:	8b 00                	mov    (%rax),%eax
    9fa5:	89 c2                	mov    %eax,%edx
    9fa7:	8b 85 d4 f4 ff ff    	mov    -0xb2c(%rbp),%eax
    9fad:	89 d6                	mov    %edx,%esi
    9faf:	89 c7                	mov    %eax,%edi
    9fb1:	e8 4f a6 ff ff       	callq  4605 <safe_sub_func_int32_t_s_s>
    9fb6:	0f b6 15 c3 c0 00 00 	movzbl 0xc0c3(%rip),%edx        # 16080 <g_19+0x40>
    9fbd:	31 d0                	xor    %edx,%eax
    9fbf:	88 05 bb c0 00 00    	mov    %al,0xc0bb(%rip)        # 16080 <g_19+0x40>
    9fc5:	0f b6 05 b4 c0 00 00 	movzbl 0xc0b4(%rip),%eax        # 16080 <g_19+0x40>
    9fcc:	84 c0                	test   %al,%al
    9fce:	75 08                	jne    9fd8 <func_5+0x1239>
    9fd0:	48 83 bd a8 f5 ff ff 	cmpq   $0x0,-0xa58(%rbp)
    9fd7:	00 
    9fd8:	b9 20 40 00 00       	mov    $0x4020,%ecx
    9fdd:	48 8b 85 e0 f5 ff ff 	mov    -0xa20(%rbp),%rax
    9fe4:	0f b6 00             	movzbl (%rax),%eax
    9fe7:	89 c2                	mov    %eax,%edx
    9fe9:	89 c8                	mov    %ecx,%eax
    9feb:	21 d0                	and    %edx,%eax
    9fed:	89 c2                	mov    %eax,%edx
    9fef:	48 8b 85 e0 f5 ff ff 	mov    -0xa20(%rbp),%rax
    9ff6:	88 10                	mov    %dl,(%rax)
    9ff8:	48 8b 85 e0 f5 ff ff 	mov    -0xa20(%rbp),%rax
    9fff:	0f b6 00             	movzbl (%rax),%eax
    a002:	0f b6 c0             	movzbl %al,%eax
    a005:	be f7 00 00 00       	mov    $0xf7,%esi
    a00a:	89 c7                	mov    %eax,%edi
    a00c:	e8 82 ab ff ff       	callq  4b93 <safe_mul_func_uint8_t_u_u>
    a011:	0f b7 05 00 c2 00 00 	movzwl 0xc200(%rip),%eax        # 16218 <g_237>
    a018:	89 c2                	mov    %eax,%edx
    a01a:	48 8b 85 d0 f5 ff ff 	mov    -0xa30(%rbp),%rax
    a021:	88 10                	mov    %dl,(%rax)
    a023:	48 8b 85 d0 f5 ff ff 	mov    -0xa30(%rbp),%rax
    a02a:	0f b6 00             	movzbl (%rax),%eax
    a02d:	66 98                	cbtw   
    a02f:	48 8b 95 70 f4 ff ff 	mov    -0xb90(%rbp),%rdx
    a036:	31 d0                	xor    %edx,%eax
    a038:	0f b7 d0             	movzwl %ax,%edx
    a03b:	48 8b 85 58 f5 ff ff 	mov    -0xaa8(%rbp),%rax
    a042:	8b 08                	mov    (%rax),%ecx
    a044:	83 e9 01             	sub    $0x1,%ecx
    a047:	89 08                	mov    %ecx,(%rax)
    a049:	89 d6                	mov    %edx,%esi
    a04b:	bf 01 00 00 00       	mov    $0x1,%edi
    a050:	e8 aa ac ff ff       	callq  4cff <safe_add_func_uint16_t_u_u>
    a055:	0f b7 d0             	movzwl %ax,%edx
    a058:	8b 05 66 c0 00 00    	mov    0xc066(%rip),%eax        # 160c4 <g_64+0x4>
    a05e:	09 d0                	or     %edx,%eax
    a060:	89 c2                	mov    %eax,%edx
    a062:	8b 85 d8 f4 ff ff    	mov    -0xb28(%rbp),%eax
    a068:	89 d6                	mov    %edx,%esi
    a06a:	89 c7                	mov    %eax,%edi
    a06c:	e8 5b a6 ff ff       	callq  46cc <safe_mod_func_int32_t_s_s>
    a071:	85 c0                	test   %eax,%eax
    a073:	0f 84 51 13 00 00    	je     b3ca <func_5+0x262b>
    a079:	48 8d 05 a8 d8 00 00 	lea    0xd8a8(%rip),%rax        # 17928 <g_10>
    a080:	48 89 85 78 f5 ff ff 	mov    %rax,-0xa88(%rbp)
    a087:	48 8d 85 78 f5 ff ff 	lea    -0xa88(%rbp),%rax
    a08e:	48 89 85 80 f5 ff ff 	mov    %rax,-0xa80(%rbp)
    a095:	48 8d 85 80 f5 ff ff 	lea    -0xa80(%rbp),%rax
    a09c:	48 89 85 00 fc ff ff 	mov    %rax,-0x400(%rbp)
    a0a3:	48 c7 85 08 fc ff ff 	movq   $0x0,-0x3f8(%rbp)
    a0aa:	00 00 00 00 
    a0ae:	48 8d 85 80 f5 ff ff 	lea    -0xa80(%rbp),%rax
    a0b5:	48 89 85 10 fc ff ff 	mov    %rax,-0x3f0(%rbp)
    a0bc:	48 8d 85 80 f5 ff ff 	lea    -0xa80(%rbp),%rax
    a0c3:	48 89 85 18 fc ff ff 	mov    %rax,-0x3e8(%rbp)
    a0ca:	48 8d 85 80 f5 ff ff 	lea    -0xa80(%rbp),%rax
    a0d1:	48 89 85 20 fc ff ff 	mov    %rax,-0x3e0(%rbp)
    a0d8:	48 8d 85 80 f5 ff ff 	lea    -0xa80(%rbp),%rax
    a0df:	48 89 85 28 fc ff ff 	mov    %rax,-0x3d8(%rbp)
    a0e6:	48 c7 85 30 fc ff ff 	movq   $0x0,-0x3d0(%rbp)
    a0ed:	00 00 00 00 
    a0f1:	48 8d 85 80 f5 ff ff 	lea    -0xa80(%rbp),%rax
    a0f8:	48 89 85 38 fc ff ff 	mov    %rax,-0x3c8(%rbp)
    a0ff:	48 8d 85 80 f5 ff ff 	lea    -0xa80(%rbp),%rax
    a106:	48 89 85 40 fc ff ff 	mov    %rax,-0x3c0(%rbp)
    a10d:	48 8d 85 80 f5 ff ff 	lea    -0xa80(%rbp),%rax
    a114:	48 89 85 48 fc ff ff 	mov    %rax,-0x3b8(%rbp)
    a11b:	48 8d 85 80 f5 ff ff 	lea    -0xa80(%rbp),%rax
    a122:	48 89 85 50 fc ff ff 	mov    %rax,-0x3b0(%rbp)
    a129:	48 8d 85 80 f5 ff ff 	lea    -0xa80(%rbp),%rax
    a130:	48 89 85 58 fc ff ff 	mov    %rax,-0x3a8(%rbp)
    a137:	48 8d 85 80 f5 ff ff 	lea    -0xa80(%rbp),%rax
    a13e:	48 89 85 60 fc ff ff 	mov    %rax,-0x3a0(%rbp)
    a145:	48 8d 85 80 f5 ff ff 	lea    -0xa80(%rbp),%rax
    a14c:	48 89 85 68 fc ff ff 	mov    %rax,-0x398(%rbp)
    a153:	48 8d 85 80 f5 ff ff 	lea    -0xa80(%rbp),%rax
    a15a:	48 89 85 70 fc ff ff 	mov    %rax,-0x390(%rbp)
    a161:	48 8d 85 80 f5 ff ff 	lea    -0xa80(%rbp),%rax
    a168:	48 89 85 78 fc ff ff 	mov    %rax,-0x388(%rbp)
    a16f:	48 8d 85 80 f5 ff ff 	lea    -0xa80(%rbp),%rax
    a176:	48 89 85 80 fc ff ff 	mov    %rax,-0x380(%rbp)
    a17d:	48 8d 85 80 f5 ff ff 	lea    -0xa80(%rbp),%rax
    a184:	48 89 85 88 fc ff ff 	mov    %rax,-0x378(%rbp)
    a18b:	48 8d 85 80 f5 ff ff 	lea    -0xa80(%rbp),%rax
    a192:	48 89 85 90 fc ff ff 	mov    %rax,-0x370(%rbp)
    a199:	48 8d 85 80 f5 ff ff 	lea    -0xa80(%rbp),%rax
    a1a0:	48 89 85 98 fc ff ff 	mov    %rax,-0x368(%rbp)
    a1a7:	48 8d 85 80 f5 ff ff 	lea    -0xa80(%rbp),%rax
    a1ae:	48 89 85 a0 fc ff ff 	mov    %rax,-0x360(%rbp)
    a1b5:	48 8d 85 80 f5 ff ff 	lea    -0xa80(%rbp),%rax
    a1bc:	48 89 85 a8 fc ff ff 	mov    %rax,-0x358(%rbp)
    a1c3:	48 8d 85 80 f5 ff ff 	lea    -0xa80(%rbp),%rax
    a1ca:	48 89 85 b0 fc ff ff 	mov    %rax,-0x350(%rbp)
    a1d1:	48 8d 85 80 f5 ff ff 	lea    -0xa80(%rbp),%rax
    a1d8:	48 89 85 b8 fc ff ff 	mov    %rax,-0x348(%rbp)
    a1df:	48 8d 85 80 f5 ff ff 	lea    -0xa80(%rbp),%rax
    a1e6:	48 89 85 c0 fc ff ff 	mov    %rax,-0x340(%rbp)
    a1ed:	48 8d 85 80 f5 ff ff 	lea    -0xa80(%rbp),%rax
    a1f4:	48 89 85 c8 fc ff ff 	mov    %rax,-0x338(%rbp)
    a1fb:	48 8d 85 80 f5 ff ff 	lea    -0xa80(%rbp),%rax
    a202:	48 89 85 d0 fc ff ff 	mov    %rax,-0x330(%rbp)
    a209:	48 8d 85 80 f5 ff ff 	lea    -0xa80(%rbp),%rax
    a210:	48 89 85 d8 fc ff ff 	mov    %rax,-0x328(%rbp)
    a217:	48 c7 85 e0 fc ff ff 	movq   $0x0,-0x320(%rbp)
    a21e:	00 00 00 00 
    a222:	48 8d 85 80 f5 ff ff 	lea    -0xa80(%rbp),%rax
    a229:	48 89 85 e8 fc ff ff 	mov    %rax,-0x318(%rbp)
    a230:	48 8d 85 80 f5 ff ff 	lea    -0xa80(%rbp),%rax
    a237:	48 89 85 f0 fc ff ff 	mov    %rax,-0x310(%rbp)
    a23e:	48 8d 85 80 f5 ff ff 	lea    -0xa80(%rbp),%rax
    a245:	48 89 85 f8 fc ff ff 	mov    %rax,-0x308(%rbp)
    a24c:	48 8d 85 80 f5 ff ff 	lea    -0xa80(%rbp),%rax
    a253:	48 89 85 00 fd ff ff 	mov    %rax,-0x300(%rbp)
    a25a:	48 8d 85 80 f5 ff ff 	lea    -0xa80(%rbp),%rax
    a261:	48 89 85 08 fd ff ff 	mov    %rax,-0x2f8(%rbp)
    a268:	48 8d 85 80 f5 ff ff 	lea    -0xa80(%rbp),%rax
    a26f:	48 89 85 10 fd ff ff 	mov    %rax,-0x2f0(%rbp)
    a276:	48 c7 85 18 fd ff ff 	movq   $0x0,-0x2e8(%rbp)
    a27d:	00 00 00 00 
    a281:	48 c7 85 20 fd ff ff 	movq   $0x0,-0x2e0(%rbp)
    a288:	00 00 00 00 
    a28c:	48 8d 85 80 f5 ff ff 	lea    -0xa80(%rbp),%rax
    a293:	48 89 85 28 fd ff ff 	mov    %rax,-0x2d8(%rbp)
    a29a:	48 8d 85 80 f5 ff ff 	lea    -0xa80(%rbp),%rax
    a2a1:	48 89 85 30 fd ff ff 	mov    %rax,-0x2d0(%rbp)
    a2a8:	48 8d 85 80 f5 ff ff 	lea    -0xa80(%rbp),%rax
    a2af:	48 89 85 38 fd ff ff 	mov    %rax,-0x2c8(%rbp)
    a2b6:	48 8d 85 80 f5 ff ff 	lea    -0xa80(%rbp),%rax
    a2bd:	48 89 85 40 fd ff ff 	mov    %rax,-0x2c0(%rbp)
    a2c4:	48 8d 85 80 f5 ff ff 	lea    -0xa80(%rbp),%rax
    a2cb:	48 89 85 48 fd ff ff 	mov    %rax,-0x2b8(%rbp)
    a2d2:	48 8d 85 80 f5 ff ff 	lea    -0xa80(%rbp),%rax
    a2d9:	48 89 85 50 fd ff ff 	mov    %rax,-0x2b0(%rbp)
    a2e0:	48 8d 85 80 f5 ff ff 	lea    -0xa80(%rbp),%rax
    a2e7:	48 89 85 58 fd ff ff 	mov    %rax,-0x2a8(%rbp)
    a2ee:	48 8d 85 80 f5 ff ff 	lea    -0xa80(%rbp),%rax
    a2f5:	48 89 85 60 fd ff ff 	mov    %rax,-0x2a0(%rbp)
    a2fc:	48 c7 85 68 fd ff ff 	movq   $0x0,-0x298(%rbp)
    a303:	00 00 00 00 
    a307:	48 8d 85 80 f5 ff ff 	lea    -0xa80(%rbp),%rax
    a30e:	48 89 85 70 fd ff ff 	mov    %rax,-0x290(%rbp)
    a315:	48 8d 85 80 f5 ff ff 	lea    -0xa80(%rbp),%rax
    a31c:	48 89 85 78 fd ff ff 	mov    %rax,-0x288(%rbp)
    a323:	48 8d 85 80 f5 ff ff 	lea    -0xa80(%rbp),%rax
    a32a:	48 89 85 80 fd ff ff 	mov    %rax,-0x280(%rbp)
    a331:	48 8d 85 80 f5 ff ff 	lea    -0xa80(%rbp),%rax
    a338:	48 89 85 88 fd ff ff 	mov    %rax,-0x278(%rbp)
    a33f:	48 8d 85 80 f5 ff ff 	lea    -0xa80(%rbp),%rax
    a346:	48 89 85 90 fd ff ff 	mov    %rax,-0x270(%rbp)
    a34d:	48 8d 85 80 f5 ff ff 	lea    -0xa80(%rbp),%rax
    a354:	48 89 85 98 fd ff ff 	mov    %rax,-0x268(%rbp)
    a35b:	48 8d 85 80 f5 ff ff 	lea    -0xa80(%rbp),%rax
    a362:	48 89 85 a0 fd ff ff 	mov    %rax,-0x260(%rbp)
    a369:	48 c7 85 a8 fd ff ff 	movq   $0x0,-0x258(%rbp)
    a370:	00 00 00 00 
    a374:	48 8d 85 80 f5 ff ff 	lea    -0xa80(%rbp),%rax
    a37b:	48 89 85 b0 fd ff ff 	mov    %rax,-0x250(%rbp)
    a382:	48 c7 85 b8 fd ff ff 	movq   $0x0,-0x248(%rbp)
    a389:	00 00 00 00 
    a38d:	48 8d 85 80 f5 ff ff 	lea    -0xa80(%rbp),%rax
    a394:	48 89 85 c0 fd ff ff 	mov    %rax,-0x240(%rbp)
    a39b:	48 8d 85 80 f5 ff ff 	lea    -0xa80(%rbp),%rax
    a3a2:	48 89 85 c8 fd ff ff 	mov    %rax,-0x238(%rbp)
    a3a9:	48 8d 85 80 f5 ff ff 	lea    -0xa80(%rbp),%rax
    a3b0:	48 89 85 d0 fd ff ff 	mov    %rax,-0x230(%rbp)
    a3b7:	48 8d 85 80 f5 ff ff 	lea    -0xa80(%rbp),%rax
    a3be:	48 89 85 d8 fd ff ff 	mov    %rax,-0x228(%rbp)
    a3c5:	48 8d 85 80 f5 ff ff 	lea    -0xa80(%rbp),%rax
    a3cc:	48 89 85 e0 fd ff ff 	mov    %rax,-0x220(%rbp)
    a3d3:	48 8d 85 80 f5 ff ff 	lea    -0xa80(%rbp),%rax
    a3da:	48 89 85 e8 fd ff ff 	mov    %rax,-0x218(%rbp)
    a3e1:	48 8d 85 80 f5 ff ff 	lea    -0xa80(%rbp),%rax
    a3e8:	48 89 85 f0 fd ff ff 	mov    %rax,-0x210(%rbp)
    a3ef:	48 8d 85 80 f5 ff ff 	lea    -0xa80(%rbp),%rax
    a3f6:	48 89 85 f8 fd ff ff 	mov    %rax,-0x208(%rbp)
    a3fd:	48 8d 85 80 f5 ff ff 	lea    -0xa80(%rbp),%rax
    a404:	48 89 85 00 fe ff ff 	mov    %rax,-0x200(%rbp)
    a40b:	48 8d 85 80 f5 ff ff 	lea    -0xa80(%rbp),%rax
    a412:	48 89 85 08 fe ff ff 	mov    %rax,-0x1f8(%rbp)
    a419:	48 c7 85 10 fe ff ff 	movq   $0x0,-0x1f0(%rbp)
    a420:	00 00 00 00 
    a424:	48 8d 85 80 f5 ff ff 	lea    -0xa80(%rbp),%rax
    a42b:	48 89 85 18 fe ff ff 	mov    %rax,-0x1e8(%rbp)
    a432:	48 8d 85 80 f5 ff ff 	lea    -0xa80(%rbp),%rax
    a439:	48 89 85 20 fe ff ff 	mov    %rax,-0x1e0(%rbp)
    a440:	48 c7 85 28 fe ff ff 	movq   $0x0,-0x1d8(%rbp)
    a447:	00 00 00 00 
    a44b:	48 8d 85 80 f5 ff ff 	lea    -0xa80(%rbp),%rax
    a452:	48 89 85 30 fe ff ff 	mov    %rax,-0x1d0(%rbp)
    a459:	48 8d 85 80 f5 ff ff 	lea    -0xa80(%rbp),%rax
    a460:	48 89 85 38 fe ff ff 	mov    %rax,-0x1c8(%rbp)
    a467:	48 8d 85 80 f5 ff ff 	lea    -0xa80(%rbp),%rax
    a46e:	48 89 85 40 fe ff ff 	mov    %rax,-0x1c0(%rbp)
    a475:	48 8d 85 80 f5 ff ff 	lea    -0xa80(%rbp),%rax
    a47c:	48 89 85 48 fe ff ff 	mov    %rax,-0x1b8(%rbp)
    a483:	48 8d 85 80 f5 ff ff 	lea    -0xa80(%rbp),%rax
    a48a:	48 89 85 50 fe ff ff 	mov    %rax,-0x1b0(%rbp)
    a491:	48 8d 85 80 f5 ff ff 	lea    -0xa80(%rbp),%rax
    a498:	48 89 85 58 fe ff ff 	mov    %rax,-0x1a8(%rbp)
    a49f:	48 8d 85 80 f5 ff ff 	lea    -0xa80(%rbp),%rax
    a4a6:	48 89 85 60 fe ff ff 	mov    %rax,-0x1a0(%rbp)
    a4ad:	48 8d 85 80 f5 ff ff 	lea    -0xa80(%rbp),%rax
    a4b4:	48 89 85 68 fe ff ff 	mov    %rax,-0x198(%rbp)
    a4bb:	48 8d 85 80 f5 ff ff 	lea    -0xa80(%rbp),%rax
    a4c2:	48 89 85 70 fe ff ff 	mov    %rax,-0x190(%rbp)
    a4c9:	48 c7 85 78 fe ff ff 	movq   $0x0,-0x188(%rbp)
    a4d0:	00 00 00 00 
    a4d4:	48 c7 85 80 fe ff ff 	movq   $0x0,-0x180(%rbp)
    a4db:	00 00 00 00 
    a4df:	48 8d 85 80 f5 ff ff 	lea    -0xa80(%rbp),%rax
    a4e6:	48 89 85 88 fe ff ff 	mov    %rax,-0x178(%rbp)
    a4ed:	48 8d 85 80 f5 ff ff 	lea    -0xa80(%rbp),%rax
    a4f4:	48 89 85 90 fe ff ff 	mov    %rax,-0x170(%rbp)
    a4fb:	48 c7 85 98 fe ff ff 	movq   $0x0,-0x168(%rbp)
    a502:	00 00 00 00 
    a506:	48 8d 85 80 f5 ff ff 	lea    -0xa80(%rbp),%rax
    a50d:	48 89 85 a0 fe ff ff 	mov    %rax,-0x160(%rbp)
    a514:	48 8d 85 80 f5 ff ff 	lea    -0xa80(%rbp),%rax
    a51b:	48 89 85 a8 fe ff ff 	mov    %rax,-0x158(%rbp)
    a522:	48 8d 85 80 f5 ff ff 	lea    -0xa80(%rbp),%rax
    a529:	48 89 85 b0 fe ff ff 	mov    %rax,-0x150(%rbp)
    a530:	48 8d 85 80 f5 ff ff 	lea    -0xa80(%rbp),%rax
    a537:	48 89 85 b8 fe ff ff 	mov    %rax,-0x148(%rbp)
    a53e:	48 8d 85 80 f5 ff ff 	lea    -0xa80(%rbp),%rax
    a545:	48 89 85 c0 fe ff ff 	mov    %rax,-0x140(%rbp)
    a54c:	48 c7 85 c8 fe ff ff 	movq   $0x0,-0x138(%rbp)
    a553:	00 00 00 00 
    a557:	48 c7 85 d0 fe ff ff 	movq   $0x0,-0x130(%rbp)
    a55e:	00 00 00 00 
    a562:	48 8d 85 80 f5 ff ff 	lea    -0xa80(%rbp),%rax
    a569:	48 89 85 d8 fe ff ff 	mov    %rax,-0x128(%rbp)
    a570:	48 c7 85 e0 fe ff ff 	movq   $0x0,-0x120(%rbp)
    a577:	00 00 00 00 
    a57b:	48 8d 85 80 f5 ff ff 	lea    -0xa80(%rbp),%rax
    a582:	48 89 85 e8 fe ff ff 	mov    %rax,-0x118(%rbp)
    a589:	48 c7 85 f0 fe ff ff 	movq   $0x0,-0x110(%rbp)
    a590:	00 00 00 00 
    a594:	48 8d 85 80 f5 ff ff 	lea    -0xa80(%rbp),%rax
    a59b:	48 89 85 f8 fe ff ff 	mov    %rax,-0x108(%rbp)
    a5a2:	48 c7 85 00 ff ff ff 	movq   $0x0,-0x100(%rbp)
    a5a9:	00 00 00 00 
    a5ad:	48 8d 85 80 f5 ff ff 	lea    -0xa80(%rbp),%rax
    a5b4:	48 89 85 08 ff ff ff 	mov    %rax,-0xf8(%rbp)
    a5bb:	48 8d 85 80 f5 ff ff 	lea    -0xa80(%rbp),%rax
    a5c2:	48 89 85 10 ff ff ff 	mov    %rax,-0xf0(%rbp)
    a5c9:	48 8d 85 80 f5 ff ff 	lea    -0xa80(%rbp),%rax
    a5d0:	48 89 85 18 ff ff ff 	mov    %rax,-0xe8(%rbp)
    a5d7:	48 c7 85 88 f5 ff ff 	movq   $0x0,-0xa78(%rbp)
    a5de:	00 00 00 00 
    a5e2:	66 c7 85 30 f7 ff ff 	movw   $0x3,-0x8d0(%rbp)
    a5e9:	03 00 
    a5eb:	66 c7 85 32 f7 ff ff 	movw   $0x3,-0x8ce(%rbp)
    a5f2:	03 00 
    a5f4:	66 c7 85 34 f7 ff ff 	movw   $0x3,-0x8cc(%rbp)
    a5fb:	03 00 
    a5fd:	66 c7 85 36 f7 ff ff 	movw   $0x3,-0x8ca(%rbp)
    a604:	03 00 
    a606:	66 c7 85 38 f7 ff ff 	movw   $0x3,-0x8c8(%rbp)
    a60d:	03 00 
    a60f:	66 c7 85 3a f7 ff ff 	movw   $0x3,-0x8c6(%rbp)
    a616:	03 00 
    a618:	c7 85 f8 f4 ff ff 05 	movl   $0x5,-0xb08(%rbp)
    a61f:	00 00 00 
    a622:	48 8d 85 60 f5 ff ff 	lea    -0xaa0(%rbp),%rax
    a629:	48 89 85 48 f6 ff ff 	mov    %rax,-0x9b8(%rbp)
    a630:	48 b8 de 8e 56 0a 08 	movabs $0x1a7f9e080a568ede,%rax
    a637:	9e 7f 1a 
    a63a:	48 89 85 b0 f8 ff ff 	mov    %rax,-0x750(%rbp)
    a641:	48 89 85 b8 f8 ff ff 	mov    %rax,-0x748(%rbp)
    a648:	48 89 85 c0 f8 ff ff 	mov    %rax,-0x740(%rbp)
    a64f:	48 89 85 c8 f8 ff ff 	mov    %rax,-0x738(%rbp)
    a656:	48 89 85 d0 f8 ff ff 	mov    %rax,-0x730(%rbp)
    a65d:	48 89 85 d8 f8 ff ff 	mov    %rax,-0x728(%rbp)
    a664:	48 89 85 e0 f8 ff ff 	mov    %rax,-0x720(%rbp)
    a66b:	48 89 85 e8 f8 ff ff 	mov    %rax,-0x718(%rbp)
    a672:	c7 85 a4 f4 ff ff 03 	movl   $0x3,-0xb5c(%rbp)
    a679:	00 00 00 
    a67c:	e9 ed 0c 00 00       	jmpq   b36e <func_5+0x25cf>
    a681:	48 c7 85 50 f6 ff ff 	movq   $0x0,-0x9b0(%rbp)
    a688:	00 00 00 00 
    a68c:	48 8d 85 00 fc ff ff 	lea    -0x400(%rbp),%rax
    a693:	48 05 90 01 00 00    	add    $0x190,%rax
    a699:	48 89 85 58 f6 ff ff 	mov    %rax,-0x9a8(%rbp)
    a6a0:	c7 85 fc f4 ff ff 07 	movl   $0x7,-0xb04(%rbp)
    a6a7:	00 00 00 
    a6aa:	48 8d 05 9d ba 00 00 	lea    0xba9d(%rip),%rax        # 1614e <g_198+0x4e>
    a6b1:	48 89 85 70 f9 ff ff 	mov    %rax,-0x690(%rbp)
    a6b8:	48 c7 85 78 f9 ff ff 	movq   $0x0,-0x688(%rbp)
    a6bf:	00 00 00 00 
    a6c3:	48 8d 05 84 ba 00 00 	lea    0xba84(%rip),%rax        # 1614e <g_198+0x4e>
    a6ca:	48 89 85 80 f9 ff ff 	mov    %rax,-0x680(%rbp)
    a6d1:	48 c7 85 88 f9 ff ff 	movq   $0x0,-0x678(%rbp)
    a6d8:	00 00 00 00 
    a6dc:	48 8d 05 6b ba 00 00 	lea    0xba6b(%rip),%rax        # 1614e <g_198+0x4e>
    a6e3:	48 89 85 90 f9 ff ff 	mov    %rax,-0x670(%rbp)
    a6ea:	48 8d 05 5d ba 00 00 	lea    0xba5d(%rip),%rax        # 1614e <g_198+0x4e>
    a6f1:	48 89 85 98 f9 ff ff 	mov    %rax,-0x668(%rbp)
    a6f8:	48 c7 85 a0 f9 ff ff 	movq   $0x0,-0x660(%rbp)
    a6ff:	00 00 00 00 
    a703:	48 8d 05 44 ba 00 00 	lea    0xba44(%rip),%rax        # 1614e <g_198+0x4e>
    a70a:	48 89 85 a8 f9 ff ff 	mov    %rax,-0x658(%rbp)
    a711:	48 c7 85 b0 f9 ff ff 	movq   $0x0,-0x650(%rbp)
    a718:	00 00 00 00 
    a71c:	48 8d 05 2b ba 00 00 	lea    0xba2b(%rip),%rax        # 1614e <g_198+0x4e>
    a723:	48 89 85 b8 f9 ff ff 	mov    %rax,-0x648(%rbp)
    a72a:	48 c7 85 60 f6 ff ff 	movq   $0x0,-0x9a0(%rbp)
    a731:	00 00 00 00 
    a735:	48 8d 85 40 f5 ff ff 	lea    -0xac0(%rbp),%rax
    a73c:	48 89 85 68 f6 ff ff 	mov    %rax,-0x998(%rbp)
    a743:	48 c7 85 70 f6 ff ff 	movq   $0x0,-0x990(%rbp)
    a74a:	00 00 00 00 
    a74e:	48 8d 85 00 f8 ff ff 	lea    -0x800(%rbp),%rax
    a755:	48 83 c0 10          	add    $0x10,%rax
    a759:	48 89 85 78 f6 ff ff 	mov    %rax,-0x988(%rbp)
    a760:	66 c7 85 9a f4 ff ff 	movw   $0x1,-0xb66(%rbp)
    a767:	01 00 
    a769:	48 8b 85 70 f4 ff ff 	mov    -0xb90(%rbp),%rax
    a770:	44 0f be f8          	movsbl %al,%r15d
    a774:	48 8b 9d 60 f5 ff ff 	mov    -0xaa0(%rbp),%rbx
    a77b:	48 8b 85 70 f4 ff ff 	mov    -0xb90(%rbp),%rax
    a782:	89 85 68 f4 ff ff    	mov    %eax,-0xb98(%rbp)
    a788:	48 8b 85 70 f4 ff ff 	mov    -0xb90(%rbp),%rax
    a78f:	89 85 64 f4 ff ff    	mov    %eax,-0xb9c(%rbp)
    a795:	4c 8b ad 88 f5 ff ff 	mov    -0xa78(%rbp),%r13
    a79c:	48 8b 85 70 f4 ff ff 	mov    -0xb90(%rbp),%rax
    a7a3:	44 0f be e0          	movsbl %al,%r12d
    a7a7:	8b 85 48 fb ff ff    	mov    -0x4b8(%rbp),%eax
    a7ad:	0f be c0             	movsbl %al,%eax
    a7b0:	89 85 60 f4 ff ff    	mov    %eax,-0xba0(%rbp)
    a7b6:	4c 8b b5 48 f5 ff ff 	mov    -0xab8(%rbp),%r14
    a7bd:	8b 05 05 b9 00 00    	mov    0xb905(%rip),%eax        # 160c8 <g_64+0x8>
    a7c3:	89 85 5c f4 ff ff    	mov    %eax,-0xba4(%rbp)
    a7c9:	48 8b 85 70 f4 ff ff 	mov    -0xb90(%rbp),%rax
    a7d0:	89 85 58 f4 ff ff    	mov    %eax,-0xba8(%rbp)
    a7d6:	8b 85 fc f4 ff ff    	mov    -0xb04(%rbp),%eax
    a7dc:	89 05 62 ba 00 00    	mov    %eax,0xba62(%rip)        # 16244 <g_910>
    a7e2:	8b 15 5c ba 00 00    	mov    0xba5c(%rip),%edx        # 16244 <g_910>
    a7e8:	48 83 bd 70 f4 ff ff 	cmpq   $0x36,-0xb90(%rbp)
    a7ef:	36 
    a7f0:	0f 9e c0             	setle  %al
    a7f3:	0f b6 c0             	movzbl %al,%eax
    a7f6:	21 d0                	and    %edx,%eax
    a7f8:	85 c0                	test   %eax,%eax
    a7fa:	75 0a                	jne    a806 <func_5+0x1a67>
    a7fc:	8b 85 24 fb ff ff    	mov    -0x4dc(%rbp),%eax
    a802:	85 c0                	test   %eax,%eax
    a804:	74 0c                	je     a812 <func_5+0x1a73>
    a806:	c7 85 6c f4 ff ff 01 	movl   $0x1,-0xb94(%rbp)
    a80d:	00 00 00 
    a810:	eb 0a                	jmp    a81c <func_5+0x1a7d>
    a812:	c7 85 6c f4 ff ff 00 	movl   $0x0,-0xb94(%rbp)
    a819:	00 00 00 
    a81c:	48 8b 05 b5 c1 00 00 	mov    0xc1b5(%rip),%rax        # 169d8 <g_280>
    a823:	0f b6 00             	movzbl (%rax),%eax
    a826:	0f b6 c0             	movzbl %al,%eax
    a829:	89 c6                	mov    %eax,%esi
    a82b:	bf ef 00 00 00       	mov    $0xef,%edi
    a830:	e8 a6 a3 ff ff       	callq  4bdb <safe_div_func_uint8_t_u_u>
    a835:	48 8b 95 80 fe ff ff 	mov    -0x180(%rbp),%rdx
    a83c:	48 8b 85 58 f6 ff ff 	mov    -0x9a8(%rbp),%rax
    a843:	48 89 10             	mov    %rdx,(%rax)
    a846:	48 8b 85 58 f6 ff ff 	mov    -0x9a8(%rbp),%rax
    a84d:	48 8b 00             	mov    (%rax),%rax
    a850:	48 8d 15 69 c2 00 00 	lea    0xc269(%rip),%rdx        # 16ac0 <g_363+0x40>
    a857:	48 39 d0             	cmp    %rdx,%rax
    a85a:	0f 95 c0             	setne  %al
    a85d:	0f b6 d0             	movzbl %al,%edx
    a860:	48 8b 85 d0 f5 ff ff 	mov    -0xa30(%rbp),%rax
    a867:	0f b6 00             	movzbl (%rax),%eax
    a86a:	0f b6 8d 6c f4 ff ff 	movzbl -0xb94(%rbp),%ecx
    a871:	09 c1                	or     %eax,%ecx
    a873:	48 8b 85 d0 f5 ff ff 	mov    -0xa30(%rbp),%rax
    a87a:	88 08                	mov    %cl,(%rax)
    a87c:	48 8b 85 d0 f5 ff ff 	mov    -0xa30(%rbp),%rax
    a883:	0f b6 00             	movzbl (%rax),%eax
    a886:	0f be c0             	movsbl %al,%eax
    a889:	39 c2                	cmp    %eax,%edx
    a88b:	0f b7 05 bc b8 00 00 	movzwl 0xb8bc(%rip),%eax        # 1614e <g_198+0x4e>
    a892:	66 85 c0             	test   %ax,%ax
    a895:	8b b5 58 f4 ff ff    	mov    -0xba8(%rbp),%esi
    a89b:	bf ff ff ff ff       	mov    $0xffffffff,%edi
    a8a0:	e8 2b a6 ff ff       	callq  4ed0 <safe_sub_func_uint32_t_u_u>
    a8a5:	89 85 d4 f4 ff ff    	mov    %eax,-0xb2c(%rbp)
    a8ab:	be 07 00 00 00       	mov    $0x7,%esi
    a8b0:	bf 01 00 00 00       	mov    $0x1,%edi
    a8b5:	e8 4b a3 ff ff       	callq  4c05 <safe_lshift_func_uint8_t_u_s>
    a8ba:	48 8b 85 70 f4 ff ff 	mov    -0xb90(%rbp),%rax
    a8c1:	0f b6 c0             	movzbl %al,%eax
    a8c4:	83 e0 01             	and    $0x1,%eax
    a8c7:	89 c7                	mov    %eax,%edi
    a8c9:	48 8b 85 60 f6 ff ff 	mov    -0x9a0(%rbp),%rax
    a8d0:	44 8b 85 60 f4 ff ff 	mov    -0xba0(%rbp),%r8d
    a8d7:	4c 89 f1             	mov    %r14,%rcx
    a8da:	8b 95 5c f4 ff ff    	mov    -0xba4(%rbp),%edx
    a8e0:	48 89 c6             	mov    %rax,%rsi
    a8e3:	e8 a6 3d 00 00       	callq  e68e <func_39>
    a8e8:	48 89 c7             	mov    %rax,%rdi
    a8eb:	48 8b 85 e8 f5 ff ff 	mov    -0xa18(%rbp),%rax
    a8f2:	44 8b 85 64 f4 ff ff 	mov    -0xb9c(%rbp),%r8d
    a8f9:	4c 89 e9             	mov    %r13,%rcx
    a8fc:	44 89 e2             	mov    %r12d,%edx
    a8ff:	48 89 c6             	mov    %rax,%rsi
    a902:	e8 64 3d 00 00       	callq  e66b <func_33>
    a907:	48 89 c6             	mov    %rax,%rsi
    a90a:	48 8b 85 70 f4 ff ff 	mov    -0xb90(%rbp),%rax
    a911:	0f b6 c0             	movzbl %al,%eax
    a914:	4c 8b 25 ad c0 00 00 	mov    0xc0ad(%rip),%r12        # 169c8 <g_105>
    a91b:	45 89 f8             	mov    %r15d,%r8d
    a91e:	48 89 d9             	mov    %rbx,%rcx
    a921:	8b 95 68 f4 ff ff    	mov    -0xb98(%rbp),%edx
    a927:	89 c7                	mov    %eax,%edi
    a929:	e8 60 3d 00 00       	callq  e68e <func_39>
    a92e:	49 89 04 24          	mov    %rax,(%r12)
    a932:	8b 05 f0 b8 00 00    	mov    0xb8f0(%rip),%eax        # 16228 <g_449>
    a938:	0f be d0             	movsbl %al,%edx
    a93b:	8b 85 a8 f4 ff ff    	mov    -0xb58(%rbp),%eax
    a941:	0f be c0             	movsbl %al,%eax
    a944:	89 d6                	mov    %edx,%esi
    a946:	89 c7                	mov    %eax,%edi
    a948:	e8 c5 98 ff ff       	callq  4212 <safe_mul_func_int8_t_s_s>
    a94d:	48 0f be d0          	movsbq %al,%rdx
    a951:	48 8b 85 68 f6 ff ff 	mov    -0x998(%rbp),%rax
    a958:	48 89 10             	mov    %rdx,(%rax)
    a95b:	48 8b 85 68 f6 ff ff 	mov    -0x998(%rbp),%rax
    a962:	48 8b 10             	mov    (%rax),%rdx
    a965:	48 8b 85 78 f6 ff ff 	mov    -0x988(%rbp),%rax
    a96c:	48 89 10             	mov    %rdx,(%rax)
    a96f:	48 8b 85 78 f6 ff ff 	mov    -0x988(%rbp),%rax
    a976:	48 8b 00             	mov    (%rax),%rax
    a979:	48 85 c0             	test   %rax,%rax
    a97c:	75 3d                	jne    a9bb <func_5+0x1c1c>
    a97e:	8b 05 6c b7 00 00    	mov    0xb76c(%rip),%eax        # 160f0 <g_107>
    a984:	89 c3                	mov    %eax,%ebx
    a986:	be 09 00 00 00       	mov    $0x9,%esi
    a98b:	bf 01 00 00 00       	mov    $0x1,%edi
    a990:	e8 23 a5 ff ff       	callq  4eb8 <safe_add_func_uint32_t_u_u>
    a995:	0f b7 c0             	movzwl %ax,%eax
    a998:	89 de                	mov    %ebx,%esi
    a99a:	89 c7                	mov    %eax,%edi
    a99c:	e8 d9 a4 ff ff       	callq  4e7a <safe_rshift_func_uint16_t_u_u>
    a9a1:	0f b7 c0             	movzwl %ax,%eax
    a9a4:	48 8b 95 70 f4 ff ff 	mov    -0xb90(%rbp),%rdx
    a9ab:	48 89 d6             	mov    %rdx,%rsi
    a9ae:	48 89 c7             	mov    %rax,%rdi
    a9b1:	e8 8b 9e ff ff       	callq  4841 <safe_add_func_int64_t_s_s>
    a9b6:	48 85 c0             	test   %rax,%rax
    a9b9:	74 07                	je     a9c2 <func_5+0x1c23>
    a9bb:	b8 01 00 00 00       	mov    $0x1,%eax
    a9c0:	eb 05                	jmp    a9c7 <func_5+0x1c28>
    a9c2:	b8 00 00 00 00       	mov    $0x0,%eax
    a9c7:	83 f8 fb             	cmp    $0xfffffffb,%eax
    a9ca:	0f 9d c0             	setge  %al
    a9cd:	0f b6 d0             	movzbl %al,%edx
    a9d0:	48 83 bd 70 f4 ff ff 	cmpq   $0x0,-0xb90(%rbp)
    a9d7:	00 
    a9d8:	0f 94 c0             	sete   %al
    a9db:	0f b6 c0             	movzbl %al,%eax
    a9de:	48 89 d6             	mov    %rdx,%rsi
    a9e1:	48 89 c7             	mov    %rax,%rdi
    a9e4:	e8 58 9e ff ff       	callq  4841 <safe_add_func_int64_t_s_s>
    a9e9:	48 85 c0             	test   %rax,%rax
    a9ec:	0f 84 db 01 00 00    	je     abcd <func_5+0x1e2e>
    a9f2:	48 8d 85 70 f9 ff ff 	lea    -0x690(%rbp),%rax
    a9f9:	48 83 c0 18          	add    $0x18,%rax
    a9fd:	48 89 85 a0 f6 ff ff 	mov    %rax,-0x960(%rbp)
    aa04:	c7 85 0c f5 ff ff fd 	movl   $0xfffffffd,-0xaf4(%rbp)
    aa0b:	ff ff ff 
    aa0e:	48 8b 85 70 f4 ff ff 	mov    -0xb90(%rbp),%rax
    aa15:	41 89 c6             	mov    %eax,%r14d
    aa18:	48 8b 85 70 f4 ff ff 	mov    -0xb90(%rbp),%rax
    aa1f:	41 89 c7             	mov    %eax,%r15d
    aa22:	8b 85 a4 f4 ff ff    	mov    -0xb5c(%rbp),%eax
    aa28:	0f bf d8             	movswl %ax,%ebx
    aa2b:	48 8b 85 70 f4 ff ff 	mov    -0xb90(%rbp),%rax
    aa32:	0f b6 c0             	movzbl %al,%eax
    aa35:	89 c6                	mov    %eax,%esi
    aa37:	bf 2a 00 00 00       	mov    $0x2a,%edi
    aa3c:	e8 19 a1 ff ff       	callq  4b5a <safe_add_func_uint8_t_u_u>
    aa41:	44 0f b6 e8          	movzbl %al,%r13d
    aa45:	8b 85 d0 f4 ff ff    	mov    -0xb30(%rbp),%eax
    aa4b:	44 0f b6 e0          	movzbl %al,%r12d
    aa4f:	8b 85 cc f4 ff ff    	mov    -0xb34(%rbp),%eax
    aa55:	0f b6 d0             	movzbl %al,%edx
    aa58:	48 8b 05 c1 b7 00 00 	mov    0xb7c1(%rip),%rax        # 16220 <g_294>
    aa5f:	48 83 f8 ff          	cmp    $0xffffffffffffffff,%rax
    aa63:	0f 95 c0             	setne  %al
    aa66:	0f b6 c0             	movzbl %al,%eax
    aa69:	89 d6                	mov    %edx,%esi
    aa6b:	89 c7                	mov    %eax,%edi
    aa6d:	e8 e8 a0 ff ff       	callq  4b5a <safe_add_func_uint8_t_u_u>
    aa72:	0f b6 c0             	movzbl %al,%eax
    aa75:	be bb 00 00 00       	mov    $0xbb,%esi
    aa7a:	89 c7                	mov    %eax,%edi
    aa7c:	e8 2d a1 ff ff       	callq  4bae <safe_mod_func_uint8_t_u_u>
    aa81:	83 c8 7c             	or     $0x7c,%eax
    aa84:	0f b6 c0             	movzbl %al,%eax
    aa87:	be fc ff 00 00       	mov    $0xfffc,%esi
    aa8c:	89 c7                	mov    %eax,%edi
    aa8e:	e8 8c a2 ff ff       	callq  4d1f <safe_sub_func_uint16_t_u_u>
    aa93:	0f b6 c0             	movzbl %al,%eax
    aa96:	44 89 e6             	mov    %r12d,%esi
    aa99:	89 c7                	mov    %eax,%edi
    aa9b:	e8 ba a0 ff ff       	callq  4b5a <safe_add_func_uint8_t_u_u>
    aaa0:	48 8b 85 a0 f6 ff ff 	mov    -0x960(%rbp),%rax
    aaa7:	48 8b 95 f0 f5 ff ff 	mov    -0xa10(%rbp),%rdx
    aaae:	48 89 10             	mov    %rdx,(%rax)
    aab1:	83 bd 0c f5 ff ff 00 	cmpl   $0x0,-0xaf4(%rbp)
    aab8:	75 0a                	jne    aac4 <func_5+0x1d25>
    aaba:	48 83 bd 70 f4 ff ff 	cmpq   $0x0,-0xb90(%rbp)
    aac1:	00 
    aac2:	74 07                	je     aacb <func_5+0x1d2c>
    aac4:	b8 01 00 00 00       	mov    $0x1,%eax
    aac9:	eb 05                	jmp    aad0 <func_5+0x1d31>
    aacb:	b8 00 00 00 00       	mov    $0x0,%eax
    aad0:	48 98                	cltq   
    aad2:	be 01 00 00 00       	mov    $0x1,%esi
    aad7:	48 89 c7             	mov    %rax,%rdi
    aada:	e8 d5 9e ff ff       	callq  49b4 <safe_mod_func_int64_t_s_s>
    aadf:	48 ba 10 cc 99 b2 cd 	movabs $0xdf7f2fcdb299cc10,%rdx
    aae6:	2f 7f df 
    aae9:	48 39 d0             	cmp    %rdx,%rax
    aaec:	0f 95 c0             	setne  %al
    aaef:	0f b6 c0             	movzbl %al,%eax
    aaf2:	be 85 dd e3 e7       	mov    $0xe7e3dd85,%esi
    aaf7:	89 c7                	mov    %eax,%edi
    aaf9:	e8 ce 9b ff ff       	callq  46cc <safe_mod_func_int32_t_s_s>
    aafe:	48 8b 85 78 f6 ff ff 	mov    -0x988(%rbp),%rax
    ab05:	48 c7 00 01 00 00 00 	movq   $0x1,(%rax)
    ab0c:	48 8b 85 78 f6 ff ff 	mov    -0x988(%rbp),%rax
    ab13:	48 8b 00             	mov    (%rax),%rax
    ab16:	49 39 c5             	cmp    %rax,%r13
    ab19:	0f 93 c0             	setae  %al
    ab1c:	0f b6 c0             	movzbl %al,%eax
    ab1f:	89 de                	mov    %ebx,%esi
    ab21:	89 c7                	mov    %eax,%edi
    ab23:	e8 8b 98 ff ff       	callq  43b3 <safe_add_func_int16_t_s_s>
    ab28:	b9 01 00 00 00       	mov    $0x1,%ecx
    ab2d:	48 8b 85 a8 f5 ff ff 	mov    -0xa58(%rbp),%rax
    ab34:	48 8b 00             	mov    (%rax),%rax
    ab37:	0f b6 10             	movzbl (%rax),%edx
    ab3a:	48 8b 85 a8 f5 ff ff 	mov    -0xa58(%rbp),%rax
    ab41:	48 8b 00             	mov    (%rax),%rax
    ab44:	21 ca                	and    %ecx,%edx
    ab46:	88 10                	mov    %dl,(%rax)
    ab48:	0f b6 00             	movzbl (%rax),%eax
    ab4b:	0f be c0             	movsbl %al,%eax
    ab4e:	44 89 fe             	mov    %r15d,%esi
    ab51:	89 c7                	mov    %eax,%edi
    ab53:	e8 96 97 ff ff       	callq  42ee <safe_lshift_func_int8_t_s_u>
    ab58:	0f be d0             	movsbl %al,%edx
    ab5b:	8b 05 e3 b6 00 00    	mov    0xb6e3(%rip),%eax        # 16244 <g_910>
    ab61:	39 c2                	cmp    %eax,%edx
    ab63:	44 89 f6             	mov    %r14d,%esi
    ab66:	bf 4f 00 00 00       	mov    $0x4f,%edi
    ab6b:	e8 95 a0 ff ff       	callq  4c05 <safe_lshift_func_uint8_t_u_s>
    ab70:	0f be c0             	movsbl %al,%eax
    ab73:	be 00 00 00 00       	mov    $0x0,%esi
    ab78:	89 c7                	mov    %eax,%edi
    ab7a:	e8 b6 97 ff ff       	callq  4335 <safe_rshift_func_int8_t_s_s>
    ab7f:	84 c0                	test   %al,%al
    ab81:	74 3e                	je     abc1 <func_5+0x1e22>
    ab83:	0f b6 95 5a f8 ff ff 	movzbl -0x7a6(%rbp),%edx
    ab8a:	48 8b 05 3f be 00 00 	mov    0xbe3f(%rip),%rax        # 169d0 <g_104>
    ab91:	48 8b 00             	mov    (%rax),%rax
    ab94:	48 8b 00             	mov    (%rax),%rax
    ab97:	0f b6 d2             	movzbl %dl,%edx
    ab9a:	89 10                	mov    %edx,(%rax)
    ab9c:	c7 85 1c fb ff ff 01 	movl   $0x1,-0x4e4(%rbp)
    aba3:	00 00 00 
    aba6:	8b 8d 1c fb ff ff    	mov    -0x4e4(%rbp),%ecx
    abac:	48 8b 05 15 be 00 00 	mov    0xbe15(%rip),%rax        # 169c8 <g_105>
    abb3:	48 8b 00             	mov    (%rax),%rax
    abb6:	8b 10                	mov    (%rax),%edx
    abb8:	31 ca                	xor    %ecx,%edx
    abba:	89 10                	mov    %edx,(%rax)
    abbc:	e9 1a 05 00 00       	jmpq   b0db <func_5+0x233c>
    abc1:	48 8d 05 68 b6 00 00 	lea    0xb668(%rip),%rax        # 16230 <g_667>
    abc8:	e9 d7 0c 00 00       	jmpq   b8a4 <func_5+0x2b05>
    abcd:	48 8d 05 0c b5 00 00 	lea    0xb50c(%rip),%rax        # 160e0 <g_88>
    abd4:	48 89 85 90 f5 ff ff 	mov    %rax,-0xa70(%rbp)
    abdb:	48 8d 85 90 f5 ff ff 	lea    -0xa70(%rbp),%rax
    abe2:	48 89 85 98 f5 ff ff 	mov    %rax,-0xa68(%rbp)
    abe9:	48 8d 85 98 f5 ff ff 	lea    -0xa68(%rbp),%rax
    abf0:	48 89 85 80 f6 ff ff 	mov    %rax,-0x980(%rbp)
    abf7:	c7 85 00 f5 ff ff fc 	movl   $0xfffffffc,-0xb00(%rbp)
    abfe:	ff ff ff 
    ac01:	66 c7 85 9c f4 ff ff 	movw   $0xc2b4,-0xb64(%rbp)
    ac08:	b4 c2 
    ac0a:	c7 85 04 f5 ff ff 61 	movl   $0x2913f661,-0xafc(%rbp)
    ac11:	f6 13 29 
    ac14:	48 c7 85 88 f6 ff ff 	movq   $0x0,-0x978(%rbp)
    ac1b:	00 00 00 00 
    ac1f:	66 c7 85 9e f4 ff ff 	movw   $0x41bc,-0xb62(%rbp)
    ac26:	bc 41 
    ac28:	48 8d 05 29 cd 00 00 	lea    0xcd29(%rip),%rax        # 17958 <g_596+0x18>
    ac2f:	48 89 85 70 f7 ff ff 	mov    %rax,-0x890(%rbp)
    ac36:	48 8d 05 1b cd 00 00 	lea    0xcd1b(%rip),%rax        # 17958 <g_596+0x18>
    ac3d:	48 89 85 78 f7 ff ff 	mov    %rax,-0x888(%rbp)
    ac44:	48 8d 05 0d cd 00 00 	lea    0xcd0d(%rip),%rax        # 17958 <g_596+0x18>
    ac4b:	48 89 85 80 f7 ff ff 	mov    %rax,-0x880(%rbp)
    ac52:	48 8d 05 ff cc 00 00 	lea    0xccff(%rip),%rax        # 17958 <g_596+0x18>
    ac59:	48 89 85 88 f7 ff ff 	mov    %rax,-0x878(%rbp)
    ac60:	c6 85 98 f4 ff ff cd 	movb   $0xcd,-0xb68(%rbp)
    ac67:	48 8b 95 98 f5 ff ff 	mov    -0xa68(%rbp),%rdx
    ac6e:	48 8b 85 80 f6 ff ff 	mov    -0x980(%rbp),%rax
    ac75:	48 89 10             	mov    %rdx,(%rax)
    ac78:	48 8b 85 80 f6 ff ff 	mov    -0x980(%rbp),%rax
    ac7f:	48 8b 10             	mov    (%rax),%rdx
    ac82:	48 8b 05 ff bf 00 00 	mov    0xbfff(%rip),%rax        # 16c88 <g_964>
    ac89:	48 39 c2             	cmp    %rax,%rdx
    ac8c:	0f 95 c0             	setne  %al
    ac8f:	44 0f b6 f0          	movzbl %al,%r14d
    ac93:	48 8b 85 70 f4 ff ff 	mov    -0xb90(%rbp),%rax
    ac9a:	41 89 c7             	mov    %eax,%r15d
    ac9d:	48 8b 85 70 f4 ff ff 	mov    -0xb90(%rbp),%rax
    aca4:	0f b6 d8             	movzbl %al,%ebx
    aca7:	8b 05 1b b4 00 00    	mov    0xb41b(%rip),%eax        # 160c8 <g_64+0x8>
    acad:	89 85 6c f4 ff ff    	mov    %eax,-0xb94(%rbp)
    acb3:	44 8b a5 f8 f4 ff ff 	mov    -0xb08(%rbp),%r12d
    acba:	0f b6 85 5a f8 ff ff 	movzbl -0x7a6(%rbp),%eax
    acc1:	44 0f be e8          	movsbl %al,%r13d
    acc5:	8b 85 00 f5 ff ff    	mov    -0xb00(%rbp),%eax
    accb:	48 98                	cltq   
    accd:	48 39 85 70 f4 ff ff 	cmp    %rax,-0xb90(%rbp)
    acd4:	0f 9c c0             	setl   %al
    acd7:	0f b6 c0             	movzbl %al,%eax
    acda:	be ff ff 00 00       	mov    $0xffff,%esi
    acdf:	89 c7                	mov    %eax,%edi
    ace1:	e8 a8 a0 ff ff       	callq  4d8e <safe_div_func_uint16_t_u_u>
    ace6:	0f b7 d0             	movzwl %ax,%edx
    ace9:	48 8b 05 f8 b3 00 00 	mov    0xb3f8(%rip),%rax        # 160e8 <g_91>
    acf0:	48 39 c2             	cmp    %rax,%rdx
    acf3:	0f 95 c0             	setne  %al
    acf6:	0f b6 c0             	movzbl %al,%eax
    acf9:	48 39 85 70 f4 ff ff 	cmp    %rax,-0xb90(%rbp)
    ad00:	75 0a                	jne    ad0c <func_5+0x1f6d>
    ad02:	48 83 bd 70 f4 ff ff 	cmpq   $0x0,-0xb90(%rbp)
    ad09:	00 
    ad0a:	74 07                	je     ad13 <func_5+0x1f74>
    ad0c:	b8 01 00 00 00       	mov    $0x1,%eax
    ad11:	eb 05                	jmp    ad18 <func_5+0x1f79>
    ad13:	b8 00 00 00 00       	mov    $0x0,%eax
    ad18:	0f be c0             	movsbl %al,%eax
    ad1b:	44 89 ee             	mov    %r13d,%esi
    ad1e:	89 c7                	mov    %eax,%edi
    ad20:	e8 0c 95 ff ff       	callq  4231 <safe_mod_func_int8_t_s_s>
    ad25:	0f be c0             	movsbl %al,%eax
    ad28:	44 89 e6             	mov    %r12d,%esi
    ad2b:	89 c7                	mov    %eax,%edi
    ad2d:	e8 3a 96 ff ff       	callq  436c <safe_rshift_func_int8_t_s_u>
    ad32:	48 0f be d0          	movsbq %al,%rdx
    ad36:	48 8b 85 68 f5 ff ff 	mov    -0xa98(%rbp),%rax
    ad3d:	48 39 c2             	cmp    %rax,%rdx
    ad40:	0f 9e c0             	setle  %al
    ad43:	0f b6 d0             	movzbl %al,%edx
    ad46:	0f b7 05 01 b4 00 00 	movzwl 0xb401(%rip),%eax        # 1614e <g_198+0x4e>
    ad4d:	98                   	cwtl   
    ad4e:	39 c2                	cmp    %eax,%edx
    ad50:	0f 9f c0             	setg   %al
    ad53:	0f b6 c0             	movzbl %al,%eax
    ad56:	8b b5 6c f4 ff ff    	mov    -0xb94(%rbp),%esi
    ad5c:	89 c7                	mov    %eax,%edi
    ad5e:	e8 5b a0 ff ff       	callq  4dbe <safe_lshift_func_uint16_t_u_s>
    ad63:	0f b6 d0             	movzbl %al,%edx
    ad66:	0f b7 85 36 f7 ff ff 	movzwl -0x8ca(%rbp),%eax
    ad6d:	89 c1                	mov    %eax,%ecx
    ad6f:	48 8b 85 e0 f5 ff ff 	mov    -0xa20(%rbp),%rax
    ad76:	88 08                	mov    %cl,(%rax)
    ad78:	48 8b 85 e0 f5 ff ff 	mov    -0xa20(%rbp),%rax
    ad7f:	0f b6 00             	movzbl (%rax),%eax
    ad82:	0f b6 c0             	movzbl %al,%eax
    ad85:	89 d6                	mov    %edx,%esi
    ad87:	89 c7                	mov    %eax,%edi
    ad89:	e8 05 9e ff ff       	callq  4b93 <safe_mul_func_uint8_t_u_u>
    ad8e:	0f b6 c0             	movzbl %al,%eax
    ad91:	89 de                	mov    %ebx,%esi
    ad93:	89 c7                	mov    %eax,%edi
    ad95:	e8 14 9e ff ff       	callq  4bae <safe_mod_func_uint8_t_u_u>
    ad9a:	44 89 fe             	mov    %r15d,%esi
    ad9d:	bf 00 00 00 00       	mov    $0x0,%edi
    ada2:	e8 3a 97 ff ff       	callq  44e1 <safe_lshift_func_int16_t_s_u>
    ada7:	66 85 c0             	test   %ax,%ax
    adaa:	74 07                	je     adb3 <func_5+0x2014>
    adac:	b8 01 00 00 00       	mov    $0x1,%eax
    adb1:	eb 05                	jmp    adb8 <func_5+0x2019>
    adb3:	b8 00 00 00 00       	mov    $0x0,%eax
    adb8:	98                   	cwtl   
    adb9:	89 c6                	mov    %eax,%esi
    adbb:	bf f1 02 00 00       	mov    $0x2f1,%edi
    adc0:	e8 ee 95 ff ff       	callq  43b3 <safe_add_func_int16_t_s_s>
    adc5:	98                   	cwtl   
    adc6:	48 8b 95 70 f4 ff ff 	mov    -0xb90(%rbp),%rdx
    adcd:	89 c6                	mov    %eax,%esi
    adcf:	89 d7                	mov    %edx,%edi
    add1:	e8 e2 a0 ff ff       	callq  4eb8 <safe_add_func_uint32_t_u_u>
    add6:	8b 85 04 f5 ff ff    	mov    -0xafc(%rbp),%eax
    addc:	48 98                	cltq   
    adde:	48 39 85 70 f4 ff ff 	cmp    %rax,-0xb90(%rbp)
    ade5:	0f 9d c0             	setge  %al
    ade8:	0f b6 c0             	movzbl %al,%eax
    adeb:	be 04 00 00 00       	mov    $0x4,%esi
    adf0:	89 c7                	mov    %eax,%edi
    adf2:	e8 ea 96 ff ff       	callq  44e1 <safe_lshift_func_int16_t_s_u>
    adf7:	98                   	cwtl   
    adf8:	8b 95 d4 f7 ff ff    	mov    -0x82c(%rbp),%edx
    adfe:	89 c6                	mov    %eax,%esi
    ae00:	89 d7                	mov    %edx,%edi
    ae02:	e8 f6 a0 ff ff       	callq  4efd <safe_mod_func_uint32_t_u_u>
    ae07:	48 8b 85 70 f4 ff ff 	mov    -0xb90(%rbp),%rax
    ae0e:	48 89 c6             	mov    %rax,%rsi
    ae11:	48 c7 c7 ff ff ff ff 	mov    $0xffffffffffffffff,%rdi
    ae18:	e8 8b 9a ff ff       	callq  48a8 <safe_sub_func_int64_t_s_s>
    ae1d:	49 39 c6             	cmp    %rax,%r14
    ae20:	0f 9e c0             	setle  %al
    ae23:	0f b6 d0             	movzbl %al,%edx
    ae26:	0f b7 05 eb b3 00 00 	movzwl 0xb3eb(%rip),%eax        # 16218 <g_237>
    ae2d:	0f b7 c0             	movzwl %ax,%eax
    ae30:	09 d0                	or     %edx,%eax
    ae32:	85 c0                	test   %eax,%eax
    ae34:	74 16                	je     ae4c <func_5+0x20ad>
    ae36:	48 8b 05 83 bb 00 00 	mov    0xbb83(%rip),%rax        # 169c0 <g_103>
    ae3d:	8b 10                	mov    (%rax),%edx
    ae3f:	23 95 a8 f4 ff ff    	and    -0xb58(%rbp),%edx
    ae45:	89 10                	mov    %edx,(%rax)
    ae47:	e9 c7 01 00 00       	jmpq   b013 <func_5+0x2274>
    ae4c:	48 c7 85 90 f6 ff ff 	movq   $0x0,-0x970(%rbp)
    ae53:	00 00 00 00 
    ae57:	c7 85 08 f5 ff ff 6b 	movl   $0xc927496b,-0xaf8(%rbp)
    ae5e:	49 27 c9 
    ae61:	48 8d 85 78 f5 ff ff 	lea    -0xa88(%rbp),%rax
    ae68:	48 89 85 98 f6 ff ff 	mov    %rax,-0x968(%rbp)
    ae6f:	c7 85 c4 f4 ff ff 00 	movl   $0x0,-0xb3c(%rbp)
    ae76:	00 00 00 
    ae79:	eb 22                	jmp    ae9d <func_5+0x20fe>
    ae7b:	8b 85 c4 f4 ff ff    	mov    -0xb3c(%rbp),%eax
    ae81:	48 98                	cltq   
    ae83:	48 8d 95 30 f7 ff ff 	lea    -0x8d0(%rbp),%rdx
    ae8a:	48 83 c2 04          	add    $0x4,%rdx
    ae8e:	48 89 94 c5 90 f7 ff 	mov    %rdx,-0x870(%rbp,%rax,8)
    ae95:	ff 
    ae96:	83 85 c4 f4 ff ff 01 	addl   $0x1,-0xb3c(%rbp)
    ae9d:	83 bd c4 f4 ff ff 03 	cmpl   $0x3,-0xb3c(%rbp)
    aea4:	7e d5                	jle    ae7b <func_5+0x20dc>
    aea6:	48 8b 05 1b bb 00 00 	mov    0xbb1b(%rip),%rax        # 169c8 <g_105>
    aead:	48 8b 00             	mov    (%rax),%rax
    aeb0:	8b 10                	mov    (%rax),%edx
    aeb2:	23 95 e4 f4 ff ff    	and    -0xb1c(%rbp),%edx
    aeb8:	89 10                	mov    %edx,(%rax)
    aeba:	48 8b 05 0f bb 00 00 	mov    0xbb0f(%rip),%rax        # 169d0 <g_104>
    aec1:	48 8b 00             	mov    (%rax),%rax
    aec4:	48 8b 00             	mov    (%rax),%rax
    aec7:	8b 18                	mov    (%rax),%ebx
    aec9:	8b 05 e1 b1 00 00    	mov    0xb1e1(%rip),%eax        # 160b0 <g_46>
    aecf:	4c 63 e0             	movslq %eax,%r12
    aed2:	48 83 bd 90 f6 ff ff 	cmpq   $0x0,-0x970(%rbp)
    aed9:	00 
    aeda:	0f 85 b7 00 00 00    	jne    af97 <func_5+0x21f8>
    aee0:	8b 15 f6 b1 00 00    	mov    0xb1f6(%rip),%edx        # 160dc <g_81>
    aee6:	48 8b 85 48 f5 ff ff 	mov    -0xab8(%rbp),%rax
    aeed:	88 10                	mov    %dl,(%rax)
    aeef:	48 8b 05 e2 ba 00 00 	mov    0xbae2(%rip),%rax        # 169d8 <g_280>
    aef6:	0f b6 00             	movzbl (%rax),%eax
    aef9:	0f b6 d0             	movzbl %al,%edx
    aefc:	48 83 bd 90 f6 ff ff 	cmpq   $0xfffffffffffffff9,-0x970(%rbp)
    af03:	f9 
    af04:	0f 9c c0             	setl   %al
    af07:	0f b6 c0             	movzbl %al,%eax
    af0a:	89 d6                	mov    %edx,%esi
    af0c:	89 c7                	mov    %eax,%edi
    af0e:	e8 47 9c ff ff       	callq  4b5a <safe_add_func_uint8_t_u_u>
    af13:	48 8b 85 70 f4 ff ff 	mov    -0xb90(%rbp),%rax
    af1a:	34 ef                	xor    $0xef,%al
    af1c:	48 89 c2             	mov    %rax,%rdx
    af1f:	48 8b 85 d0 f5 ff ff 	mov    -0xa30(%rbp),%rax
    af26:	0f b6 00             	movzbl (%rax),%eax
    af29:	31 c2                	xor    %eax,%edx
    af2b:	48 8b 85 d0 f5 ff ff 	mov    -0xa30(%rbp),%rax
    af32:	88 10                	mov    %dl,(%rax)
    af34:	8b 05 ba b1 00 00    	mov    0xb1ba(%rip),%eax        # 160f4 <g_124>
    af3a:	89 c0                	mov    %eax,%eax
    af3c:	48 39 85 70 f4 ff ff 	cmp    %rax,-0xb90(%rbp)
    af43:	0f 9f c0             	setg   %al
    af46:	0f b6 c0             	movzbl %al,%eax
    af49:	89 85 08 f5 ff ff    	mov    %eax,-0xaf8(%rbp)
    af4f:	8b 95 08 f5 ff ff    	mov    -0xaf8(%rbp),%edx
    af55:	48 8b 85 88 f6 ff ff 	mov    -0x978(%rbp),%rax
    af5c:	48 89 05 35 ca 00 00 	mov    %rax,0xca35(%rip)        # 17998 <g_1018>
    af63:	48 8b 05 2e ca 00 00 	mov    0xca2e(%rip),%rax        # 17998 <g_1018>
    af6a:	48 39 85 b0 f5 ff ff 	cmp    %rax,-0xa50(%rbp)
    af71:	0f 95 c0             	setne  %al
    af74:	0f b6 c0             	movzbl %al,%eax
    af77:	48 39 85 70 f4 ff ff 	cmp    %rax,-0xb90(%rbp)
    af7e:	0f 9c c0             	setl   %al
    af81:	0f b6 c0             	movzbl %al,%eax
    af84:	89 d6                	mov    %edx,%esi
    af86:	89 c7                	mov    %eax,%edi
    af88:	e8 79 9e ff ff       	callq  4e06 <safe_lshift_func_uint16_t_u_u>
    af8d:	48 83 bd 70 f4 ff ff 	cmpq   $0x0,-0xb90(%rbp)
    af94:	00 
    af95:	74 07                	je     af9e <func_5+0x21ff>
    af97:	b8 01 00 00 00       	mov    $0x1,%eax
    af9c:	eb 05                	jmp    afa3 <func_5+0x2204>
    af9e:	b8 00 00 00 00       	mov    $0x0,%eax
    afa3:	48 98                	cltq   
    afa5:	4c 89 e6             	mov    %r12,%rsi
    afa8:	48 89 c7             	mov    %rax,%rdi
    afab:	e8 7e a0 ff ff       	callq  502e <safe_add_func_uint64_t_u_u>
    afb0:	98                   	cwtl   
    afb1:	be fb ff ff ff       	mov    $0xfffffffb,%esi
    afb6:	89 c7                	mov    %eax,%edi
    afb8:	e8 16 94 ff ff       	callq  43d3 <safe_sub_func_int16_t_s_s>
    afbd:	98                   	cwtl   
    afbe:	be 00 00 00 00       	mov    $0x0,%esi
    afc3:	89 c7                	mov    %eax,%edi
    afc5:	e8 ec 95 ff ff       	callq  45b6 <safe_add_func_int32_t_s_s>
    afca:	48 8b 85 90 f6 ff ff 	mov    -0x970(%rbp),%rax
    afd1:	89 de                	mov    %ebx,%esi
    afd3:	89 c7                	mov    %eax,%edi
    afd5:	e8 25 97 ff ff       	callq  46ff <safe_div_func_int32_t_s_s>
    afda:	48 98                	cltq   
    afdc:	48 be 6b 49 7c c5 1a 	movabs $0xeeaf021ac57c496b,%rsi
    afe3:	02 af ee 
    afe6:	48 89 c7             	mov    %rax,%rdi
    afe9:	e8 09 9a ff ff       	callq  49f7 <safe_div_func_int64_t_s_s>
    afee:	0f b6 c0             	movzbl %al,%eax
    aff1:	be 06 00 00 00       	mov    $0x6,%esi
    aff6:	89 c7                	mov    %eax,%edi
    aff8:	e8 08 9c ff ff       	callq  4c05 <safe_lshift_func_uint8_t_u_s>
    affd:	0f b6 c0             	movzbl %al,%eax
    b000:	48 39 85 90 f6 ff ff 	cmp    %rax,-0x970(%rbp)
    b007:	0f 9e c0             	setle  %al
    b00a:	0f b6 c0             	movzbl %al,%eax
    b00d:	31 85 b0 f4 ff ff    	xor    %eax,-0xb50(%rbp)
    b013:	48 8b 05 be b9 00 00 	mov    0xb9be(%rip),%rax        # 169d8 <g_280>
    b01a:	0f b6 00             	movzbl (%rax),%eax
    b01d:	44 0f b6 e0          	movzbl %al,%r12d
    b021:	48 8b 85 70 f4 ff ff 	mov    -0xb90(%rbp),%rax
    b028:	41 89 c5             	mov    %eax,%r13d
    b02b:	0f b6 9d 98 f4 ff ff 	movzbl -0xb68(%rbp),%ebx
    b032:	48 c7 05 e3 b1 00 00 	movq   $0xffffffffffffffff,0xb1e3(%rip)        # 16220 <g_294>
    b039:	ff ff ff ff 
    b03d:	48 8b 15 dc b1 00 00 	mov    0xb1dc(%rip),%rdx        # 16220 <g_294>
    b044:	8b 85 24 fb ff ff    	mov    -0x4dc(%rbp),%eax
    b04a:	48 98                	cltq   
    b04c:	48 89 d6             	mov    %rdx,%rsi
    b04f:	48 89 c7             	mov    %rax,%rdi
    b052:	e8 5d 99 ff ff       	callq  49b4 <safe_mod_func_int64_t_s_s>
    b057:	89 c2                	mov    %eax,%edx
    b059:	48 8b 85 d8 f5 ff ff 	mov    -0xa28(%rbp),%rax
    b060:	89 10                	mov    %edx,(%rax)
    b062:	48 8b 85 d8 f5 ff ff 	mov    -0xa28(%rbp),%rax
    b069:	8b 00                	mov    (%rax),%eax
    b06b:	89 de                	mov    %ebx,%esi
    b06d:	89 c7                	mov    %eax,%edi
    b06f:	e8 89 9e ff ff       	callq  4efd <safe_mod_func_uint32_t_u_u>
    b074:	0f be c0             	movsbl %al,%eax
    b077:	89 c6                	mov    %eax,%esi
    b079:	bf 0b 00 00 00       	mov    $0xb,%edi
    b07e:	e8 51 91 ff ff       	callq  41d4 <safe_add_func_int8_t_s_s>
    b083:	0f be c0             	movsbl %al,%eax
    b086:	44 89 ee             	mov    %r13d,%esi
    b089:	89 c7                	mov    %eax,%edi
    b08b:	e8 5e 92 ff ff       	callq  42ee <safe_lshift_func_int8_t_s_u>
    b090:	0f be c0             	movsbl %al,%eax
    b093:	44 09 e0             	or     %r12d,%eax
    b096:	89 c6                	mov    %eax,%esi
    b098:	bf 01 00 00 00       	mov    $0x1,%edi
    b09d:	e8 14 95 ff ff       	callq  45b6 <safe_add_func_int32_t_s_s>
    b0a2:	0f bf d0             	movswl %ax,%edx
    b0a5:	0f bf 85 9e f4 ff ff 	movswl -0xb62(%rbp),%eax
    b0ac:	89 d6                	mov    %edx,%esi
    b0ae:	89 c7                	mov    %eax,%edi
    b0b0:	e8 40 93 ff ff       	callq  43f5 <safe_mul_func_int16_t_s_s>
    b0b5:	66 83 f8 04          	cmp    $0x4,%ax
    b0b9:	0f 9f c0             	setg   %al
    b0bc:	0f b6 c0             	movzbl %al,%eax
    b0bf:	48 39 85 70 f4 ff ff 	cmp    %rax,-0xb90(%rbp)
    b0c6:	b9 01 00 00 00       	mov    $0x1,%ecx
    b0cb:	48 8b 05 f6 b8 00 00 	mov    0xb8f6(%rip),%rax        # 169c8 <g_105>
    b0d2:	48 8b 00             	mov    (%rax),%rax
    b0d5:	8b 10                	mov    (%rax),%edx
    b0d7:	21 ca                	and    %ecx,%edx
    b0d9:	89 10                	mov    %edx,(%rax)
    b0db:	c7 05 0b b0 00 00 00 	movl   $0x0,0xb00b(%rip)        # 160f0 <g_107>
    b0e2:	00 00 00 
    b0e5:	e9 6e 02 00 00       	jmpq   b358 <func_5+0x25b9>
    b0ea:	c7 85 10 f5 ff ff 00 	movl   $0x0,-0xaf0(%rbp)
    b0f1:	00 00 00 
    b0f4:	48 8d 05 1d b1 00 00 	lea    0xb11d(%rip),%rax        # 16218 <g_237>
    b0fb:	48 89 85 a8 f6 ff ff 	mov    %rax,-0x958(%rbp)
    b102:	48 8d 85 50 f7 ff ff 	lea    -0x8b0(%rbp),%rax
    b109:	48 83 c0 08          	add    $0x8,%rax
    b10d:	48 89 85 b0 f6 ff ff 	mov    %rax,-0x950(%rbp)
    b114:	48 8b 05 ad b8 00 00 	mov    0xb8ad(%rip),%rax        # 169c8 <g_105>
    b11b:	48 8b 00             	mov    (%rax),%rax
    b11e:	8b 08                	mov    (%rax),%ecx
    b120:	0f b6 15 8d af 00 00 	movzbl 0xaf8d(%rip),%edx        # 160b4 <g_53>
    b127:	0f b6 d2             	movzbl %dl,%edx
    b12a:	8d 7a 06             	lea    0x6(%rdx),%edi
    b12d:	8b 35 bd af 00 00    	mov    0xafbd(%rip),%esi        # 160f0 <g_107>
    b133:	8b 15 b7 af 00 00    	mov    0xafb7(%rip),%edx        # 160f0 <g_107>
    b139:	83 c2 06             	add    $0x6,%edx
    b13c:	48 63 d2             	movslq %edx,%rdx
    b13f:	48 63 ff             	movslq %edi,%rdi
    b142:	48 63 f6             	movslq %esi,%rsi
    b145:	48 01 ff             	add    %rdi,%rdi
    b148:	48 01 fe             	add    %rdi,%rsi
    b14b:	48 c1 e6 03          	shl    $0x3,%rsi
    b14f:	48 01 d6             	add    %rdx,%rsi
    b152:	48 8d 15 e7 ae 00 00 	lea    0xaee7(%rip),%rdx        # 16040 <g_19>
    b159:	48 01 f2             	add    %rsi,%rdx
    b15c:	0f b6 12             	movzbl (%rdx),%edx
    b15f:	0f b6 d2             	movzbl %dl,%edx
    b162:	21 ca                	and    %ecx,%edx
    b164:	89 10                	mov    %edx,(%rax)
    b166:	8b 00                	mov    (%rax),%eax
    b168:	89 85 10 f5 ff ff    	mov    %eax,-0xaf0(%rbp)
    b16e:	48 8b 85 70 f4 ff ff 	mov    -0xb90(%rbp),%rax
    b175:	44 0f be f0          	movsbl %al,%r14d
    b179:	0f b6 05 34 af 00 00 	movzbl 0xaf34(%rip),%eax        # 160b4 <g_53>
    b180:	0f b6 c0             	movzbl %al,%eax
    b183:	8d 48 06             	lea    0x6(%rax),%ecx
    b186:	8b 15 64 af 00 00    	mov    0xaf64(%rip),%edx        # 160f0 <g_107>
    b18c:	8b 05 5e af 00 00    	mov    0xaf5e(%rip),%eax        # 160f0 <g_107>
    b192:	83 c0 06             	add    $0x6,%eax
    b195:	48 98                	cltq   
    b197:	48 63 c9             	movslq %ecx,%rcx
    b19a:	48 01 c9             	add    %rcx,%rcx
    b19d:	48 63 d2             	movslq %edx,%rdx
    b1a0:	48 01 ca             	add    %rcx,%rdx
    b1a3:	48 c1 e2 03          	shl    $0x3,%rdx
    b1a7:	48 01 c2             	add    %rax,%rdx
    b1aa:	48 8d 05 8f ae 00 00 	lea    0xae8f(%rip),%rax        # 16040 <g_19>
    b1b1:	4c 8d 2c 02          	lea    (%rdx,%rax,1),%r13
    b1b5:	48 8b 05 64 b0 00 00 	mov    0xb064(%rip),%rax        # 16220 <g_294>
    b1bc:	41 89 c7             	mov    %eax,%r15d
    b1bf:	48 8b 85 70 f4 ff ff 	mov    -0xb90(%rbp),%rax
    b1c6:	0f bf d8             	movswl %ax,%ebx
    b1c9:	48 8d 85 88 f5 ff ff 	lea    -0xa78(%rbp),%rax
    b1d0:	48 89 85 48 f6 ff ff 	mov    %rax,-0x9b8(%rbp)
    b1d7:	48 8b 85 18 f7 ff ff 	mov    -0x8e8(%rbp),%rax
    b1de:	48 85 c0             	test   %rax,%rax
    b1e1:	0f 95 85 6c f4 ff ff 	setne  -0xb94(%rbp)
    b1e8:	48 8b 85 70 f4 ff ff 	mov    -0xb90(%rbp),%rax
    b1ef:	44 0f be e0          	movsbl %al,%r12d
    b1f3:	48 8b 85 70 f4 ff ff 	mov    -0xb90(%rbp),%rax
    b1fa:	48 89 c6             	mov    %rax,%rsi
    b1fd:	bf 00 00 00 00       	mov    $0x0,%edi
    b202:	e8 f0 97 ff ff       	callq  49f7 <safe_div_func_int64_t_s_s>
    b207:	0f be c0             	movsbl %al,%eax
    b20a:	44 89 e6             	mov    %r12d,%esi
    b20d:	89 c7                	mov    %eax,%edi
    b20f:	e8 56 90 ff ff       	callq  426a <safe_div_func_int8_t_s_s>
    b214:	84 c0                	test   %al,%al
    b216:	74 13                	je     b22b <func_5+0x248c>
    b218:	48 8b 05 39 c7 00 00 	mov    0xc739(%rip),%rax        # 17958 <g_596+0x18>
    b21f:	48 85 c0             	test   %rax,%rax
    b222:	74 07                	je     b22b <func_5+0x248c>
    b224:	b8 01 00 00 00       	mov    $0x1,%eax
    b229:	eb 05                	jmp    b230 <func_5+0x2491>
    b22b:	b8 00 00 00 00       	mov    $0x0,%eax
    b230:	83 e0 01             	and    $0x1,%eax
    b233:	32 85 6c f4 ff ff    	xor    -0xb94(%rbp),%al
    b239:	0f b6 c0             	movzbl %al,%eax
    b23c:	48 8b 95 70 f4 ff ff 	mov    -0xb90(%rbp),%rdx
    b243:	48 89 d6             	mov    %rdx,%rsi
    b246:	48 89 c7             	mov    %rax,%rdi
    b249:	e8 66 97 ff ff       	callq  49b4 <safe_mod_func_int64_t_s_s>
    b24e:	48 89 c2             	mov    %rax,%rdx
    b251:	48 8b 05 70 b7 00 00 	mov    0xb770(%rip),%rax        # 169c8 <g_105>
    b258:	48 8b 00             	mov    (%rax),%rax
    b25b:	89 10                	mov    %edx,(%rax)
    b25d:	8b 00                	mov    (%rax),%eax
    b25f:	98                   	cwtl   
    b260:	83 e0 08             	and    $0x8,%eax
    b263:	89 de                	mov    %ebx,%esi
    b265:	89 c7                	mov    %eax,%edi
    b267:	e8 89 91 ff ff       	callq  43f5 <safe_mul_func_int16_t_s_s>
    b26c:	48 0f bf c0          	movswq %ax,%rax
    b270:	48 39 85 70 f4 ff ff 	cmp    %rax,-0xb90(%rbp)
    b277:	48 8b 85 70 f4 ff ff 	mov    -0xb90(%rbp),%rax
    b27e:	0f bf d0             	movswl %ax,%edx
    b281:	48 8b 8d 60 f7 ff ff 	mov    -0x8a0(%rbp),%rcx
    b288:	48 8b 85 b0 f6 ff ff 	mov    -0x950(%rbp),%rax
    b28f:	48 89 08             	mov    %rcx,(%rax)
    b292:	48 8b 85 b0 f6 ff ff 	mov    -0x950(%rbp),%rax
    b299:	48 8b 00             	mov    (%rax),%rax
    b29c:	48 39 85 a8 f6 ff ff 	cmp    %rax,-0x958(%rbp)
    b2a3:	0f 95 c0             	setne  %al
    b2a6:	0f b6 c0             	movzbl %al,%eax
    b2a9:	89 d6                	mov    %edx,%esi
    b2ab:	89 c7                	mov    %eax,%edi
    b2ad:	e8 64 91 ff ff       	callq  4416 <safe_mod_func_int16_t_s_s>
    b2b2:	48 0f bf c0          	movswq %ax,%rax
    b2b6:	48 39 85 70 f4 ff ff 	cmp    %rax,-0xb90(%rbp)
    b2bd:	0f 95 c0             	setne  %al
    b2c0:	0f b6 c0             	movzbl %al,%eax
    b2c3:	44 89 fe             	mov    %r15d,%esi
    b2c6:	89 c7                	mov    %eax,%edi
    b2c8:	e8 96 92 ff ff       	callq  4563 <safe_rshift_func_int16_t_s_u>
    b2cd:	0f bf d0             	movswl %ax,%edx
    b2d0:	48 8b b5 88 f5 ff ff 	mov    -0xa78(%rbp),%rsi
    b2d7:	48 8b 05 fa b6 00 00 	mov    0xb6fa(%rip),%rax        # 169d8 <g_280>
    b2de:	0f b6 08             	movzbl (%rax),%ecx
    b2e1:	48 8b 85 e0 f5 ff ff 	mov    -0xa20(%rbp),%rax
    b2e8:	88 08                	mov    %cl,(%rax)
    b2ea:	48 8b 85 e0 f5 ff ff 	mov    -0xa20(%rbp),%rax
    b2f1:	0f b6 00             	movzbl (%rax),%eax
    b2f4:	0f b6 c0             	movzbl %al,%eax
    b2f7:	48 8d 1d 32 c6 00 00 	lea    0xc632(%rip),%rbx        # 17930 <g_365>
    b2fe:	45 89 f0             	mov    %r14d,%r8d
    b301:	4c 89 e9             	mov    %r13,%rcx
    b304:	89 c7                	mov    %eax,%edi
    b306:	e8 83 33 00 00       	callq  e68e <func_39>
    b30b:	48 89 03             	mov    %rax,(%rbx)
    b30e:	c6 05 a0 ad 00 00 00 	movb   $0x0,0xada0(%rip)        # 160b5 <g_63>
    b315:	90                   	nop
    b316:	0f b6 05 98 ad 00 00 	movzbl 0xad98(%rip),%eax        # 160b5 <g_63>
    b31d:	3c 03                	cmp    $0x3,%al
    b31f:	7f 28                	jg     b349 <func_5+0x25aa>
    b321:	48 8b 05 98 b6 00 00 	mov    0xb698(%rip),%rax        # 169c0 <g_103>
    b328:	8b 00                	mov    (%rax),%eax
    b32a:	85 c0                	test   %eax,%eax
    b32c:	75 1a                	jne    b348 <func_5+0x25a9>
    b32e:	48 8b 05 93 b6 00 00 	mov    0xb693(%rip),%rax        # 169c8 <g_105>
    b335:	48 c7 00 00 00 00 00 	movq   $0x0,(%rax)
    b33c:	48 8b 85 88 f4 ff ff 	mov    -0xb78(%rbp),%rax
    b343:	e9 5c 05 00 00       	jmpq   b8a4 <func_5+0x2b05>
    b348:	90                   	nop
    b349:	8b 05 a1 ad 00 00    	mov    0xada1(%rip),%eax        # 160f0 <g_107>
    b34f:	83 c0 01             	add    $0x1,%eax
    b352:	89 05 98 ad 00 00    	mov    %eax,0xad98(%rip)        # 160f0 <g_107>
    b358:	8b 05 92 ad 00 00    	mov    0xad92(%rip),%eax        # 160f0 <g_107>
    b35e:	83 f8 01             	cmp    $0x1,%eax
    b361:	0f 8e 83 fd ff ff    	jle    b0ea <func_5+0x234b>
    b367:	83 ad a4 f4 ff ff 01 	subl   $0x1,-0xb5c(%rbp)
    b36e:	83 bd a4 f4 ff ff 00 	cmpl   $0x0,-0xb5c(%rbp)
    b375:	0f 89 06 f3 ff ff    	jns    a681 <func_5+0x18e2>
    b37b:	8b 05 4b ad 00 00    	mov    0xad4b(%rip),%eax        # 160cc <g_64+0xc>
    b381:	89 c2                	mov    %eax,%edx
    b383:	48 8b 85 d0 f5 ff ff 	mov    -0xa30(%rbp),%rax
    b38a:	88 10                	mov    %dl,(%rax)
    b38c:	48 8b 85 d0 f5 ff ff 	mov    -0xa30(%rbp),%rax
    b393:	0f b6 00             	movzbl (%rax),%eax
    b396:	0f be d0             	movsbl %al,%edx
    b399:	b8 db 64 f3 1c       	mov    $0x1cf364db,%eax
    b39e:	83 f8 01             	cmp    $0x1,%eax
    b3a1:	0f 95 c0             	setne  %al
    b3a4:	0f b6 c0             	movzbl %al,%eax
    b3a7:	39 c2                	cmp    %eax,%edx
    b3a9:	0f 9e c0             	setle  %al
    b3ac:	0f b6 c0             	movzbl %al,%eax
    b3af:	89 85 a4 f4 ff ff    	mov    %eax,-0xb5c(%rbp)
    b3b5:	48 8b 85 d0 f8 ff ff 	mov    -0x730(%rbp),%rax
    b3bc:	48 85 c0             	test   %rax,%rax
    b3bf:	0f 84 b9 04 00 00    	je     b87e <func_5+0x2adf>
    b3c5:	e9 d3 04 00 00       	jmpq   b89d <func_5+0x2afe>
    b3ca:	48 8d 05 23 ad 00 00 	lea    0xad23(%rip),%rax        # 160f4 <g_124>
    b3d1:	48 89 85 a0 f5 ff ff 	mov    %rax,-0xa60(%rbp)
    b3d8:	c7 85 e8 f4 ff ff 2d 	movl   $0xebe0682d,-0xb18(%rbp)
    b3df:	68 e0 eb 
    b3e2:	c6 05 a7 c5 00 00 0b 	movb   $0xb,0xc5a7(%rip)        # 17990 <g_897>
    b3e9:	e9 7a 04 00 00       	jmpq   b868 <func_5+0x2ac9>
    b3ee:	48 c7 85 00 f6 ff ff 	movq   $0x0,-0xa00(%rbp)
    b3f5:	00 00 00 00 
    b3f9:	48 8d 05 44 ae 00 00 	lea    0xae44(%rip),%rax        # 16244 <g_910>
    b400:	48 89 85 08 f6 ff ff 	mov    %rax,-0x9f8(%rbp)
    b407:	48 8d 05 42 b6 00 00 	lea    0xb642(%rip),%rax        # 16a50 <g_288+0x50>
    b40e:	48 89 85 10 f6 ff ff 	mov    %rax,-0x9f0(%rbp)
    b415:	48 c7 85 18 f6 ff ff 	movq   $0x0,-0x9e8(%rbp)
    b41c:	00 00 00 00 
    b420:	48 c7 85 70 f9 ff ff 	movq   $0x0,-0x690(%rbp)
    b427:	00 00 00 00 
    b42b:	48 8d 85 58 f5 ff ff 	lea    -0xaa8(%rbp),%rax
    b432:	48 89 85 78 f9 ff ff 	mov    %rax,-0x688(%rbp)
    b439:	48 c7 85 80 f9 ff ff 	movq   $0x0,-0x680(%rbp)
    b440:	00 00 00 00 
    b444:	48 c7 85 88 f9 ff ff 	movq   $0x0,-0x678(%rbp)
    b44b:	00 00 00 00 
    b44f:	48 8d 85 58 f5 ff ff 	lea    -0xaa8(%rbp),%rax
    b456:	48 89 85 90 f9 ff ff 	mov    %rax,-0x670(%rbp)
    b45d:	48 c7 85 98 f9 ff ff 	movq   $0x0,-0x668(%rbp)
    b464:	00 00 00 00 
    b468:	48 c7 85 a0 f9 ff ff 	movq   $0x0,-0x660(%rbp)
    b46f:	00 00 00 00 
    b473:	c7 85 ec f4 ff ff ed 	movl   $0xb2b411ed,-0xb14(%rbp)
    b47a:	11 b4 b2 
    b47d:	bf 00 00 00 00       	mov    $0x0,%edi
    b482:	e8 8f 93 ff ff       	callq  4816 <safe_unary_minus_func_int64_t_s>
    b487:	48 89 c3             	mov    %rax,%rbx
    b48a:	bf ff ff ff ff       	mov    $0xffffffff,%edi
    b48f:	e8 12 9a ff ff       	callq  4ea6 <safe_unary_minus_func_uint32_t_u>
    b494:	89 c0                	mov    %eax,%eax
    b496:	48 39 c3             	cmp    %rax,%rbx
    b499:	0f 9f c0             	setg   %al
    b49c:	0f b6 c0             	movzbl %al,%eax
    b49f:	be 0f 00 00 00       	mov    $0xf,%esi
    b4a4:	89 c7                	mov    %eax,%edi
    b4a6:	e8 36 90 ff ff       	callq  44e1 <safe_lshift_func_int16_t_s_u>
    b4ab:	8b 9d e8 f4 ff ff    	mov    -0xb18(%rbp),%ebx
    b4b1:	48 83 bd 70 f4 ff ff 	cmpq   $0x0,-0xb90(%rbp)
    b4b8:	00 
    b4b9:	74 6c                	je     b527 <func_5+0x2788>
    b4bb:	48 83 bd 00 f6 ff ff 	cmpq   $0x0,-0xa00(%rbp)
    b4c2:	00 
    b4c3:	75 41                	jne    b506 <func_5+0x2767>
    b4c5:	48 8b 85 08 f6 ff ff 	mov    -0x9f8(%rbp),%rax
    b4cc:	48 89 85 a0 f5 ff ff 	mov    %rax,-0xa60(%rbp)
    b4d3:	48 8b 85 a0 f5 ff ff 	mov    -0xa60(%rbp),%rax
    b4da:	48 3b 85 80 f4 ff ff 	cmp    -0xb80(%rbp),%rax
    b4e1:	0f 95 c0             	setne  %al
    b4e4:	0f b6 c0             	movzbl %al,%eax
    b4e7:	be 06 00 00 00       	mov    $0x6,%esi
    b4ec:	89 c7                	mov    %eax,%edi
    b4ee:	e8 ae 8d ff ff       	callq  42a1 <safe_lshift_func_int8_t_s_s>
    b4f3:	0f b6 c0             	movzbl %al,%eax
    b4f6:	be 04 00 00 00       	mov    $0x4,%esi
    b4fb:	89 c7                	mov    %eax,%edi
    b4fd:	e8 03 97 ff ff       	callq  4c05 <safe_lshift_func_uint8_t_u_s>
    b502:	84 c0                	test   %al,%al
    b504:	74 07                	je     b50d <func_5+0x276e>
    b506:	ba 01 00 00 00       	mov    $0x1,%edx
    b50b:	eb 05                	jmp    b512 <func_5+0x2773>
    b50d:	ba 00 00 00 00       	mov    $0x0,%edx
    b512:	0f b6 05 49 ab 00 00 	movzbl 0xab49(%rip),%eax        # 16062 <g_19+0x22>
    b519:	0f b6 c0             	movzbl %al,%eax
    b51c:	39 c2                	cmp    %eax,%edx
    b51e:	7f 07                	jg     b527 <func_5+0x2788>
    b520:	b8 01 00 00 00       	mov    $0x1,%eax
    b525:	eb 05                	jmp    b52c <func_5+0x278d>
    b527:	b8 00 00 00 00       	mov    $0x0,%eax
    b52c:	89 de                	mov    %ebx,%esi
    b52e:	89 c7                	mov    %eax,%edi
    b530:	e8 c8 99 ff ff       	callq  4efd <safe_mod_func_uint32_t_u_u>
    b535:	0f be c0             	movsbl %al,%eax
    b538:	be 01 00 00 00       	mov    $0x1,%esi
    b53d:	89 c7                	mov    %eax,%edi
    b53f:	e8 ae 8c ff ff       	callq  41f2 <safe_sub_func_int8_t_s_s>
    b544:	89 c2                	mov    %eax,%edx
    b546:	48 8b 05 7b b4 00 00 	mov    0xb47b(%rip),%rax        # 169c8 <g_105>
    b54d:	48 8b 00             	mov    (%rax),%rax
    b550:	8b 08                	mov    (%rax),%ecx
    b552:	0f be d2             	movsbl %dl,%edx
    b555:	09 ca                	or     %ecx,%edx
    b557:	89 10                	mov    %edx,(%rax)
    b559:	66 c7 05 b6 ac 00 00 	movw   $0x6504,0xacb6(%rip)        # 16218 <g_237>
    b560:	04 65 
    b562:	48 8b 85 70 f4 ff ff 	mov    -0xb90(%rbp),%rax
    b569:	be 00 00 00 00       	mov    $0x0,%esi
    b56e:	89 c7                	mov    %eax,%edi
    b570:	e8 43 99 ff ff       	callq  4eb8 <safe_add_func_uint32_t_u_u>
    b575:	89 c2                	mov    %eax,%edx
    b577:	48 8b 05 4a b4 00 00 	mov    0xb44a(%rip),%rax        # 169c8 <g_105>
    b57e:	48 8b 00             	mov    (%rax),%rax
    b581:	8b 08                	mov    (%rax),%ecx
    b583:	21 ca                	and    %ecx,%edx
    b585:	89 10                	mov    %edx,(%rax)
    b587:	c7 85 e0 f4 ff ff 0d 	movl   $0xd,-0xb20(%rbp)
    b58e:	00 00 00 
    b591:	83 bd e0 f4 ff ff 01 	cmpl   $0x1,-0xb20(%rbp)
    b598:	0f 84 ba 02 00 00    	je     b858 <func_5+0x2ab9>
    b59e:	c7 85 f0 f4 ff ff fa 	movl   $0xfffffffa,-0xb10(%rbp)
    b5a5:	ff ff ff 
    b5a8:	48 8d 85 70 f5 ff ff 	lea    -0xa90(%rbp),%rax
    b5af:	48 89 85 98 f5 ff ff 	mov    %rax,-0xa68(%rbp)
    b5b6:	48 8d 85 98 f5 ff ff 	lea    -0xa68(%rbp),%rax
    b5bd:	48 89 85 20 f6 ff ff 	mov    %rax,-0x9e0(%rbp)
    b5c4:	48 8b 05 fd b3 00 00 	mov    0xb3fd(%rip),%rax        # 169c8 <g_105>
    b5cb:	48 8b 00             	mov    (%rax),%rax
    b5ce:	be 0e 00 00 00       	mov    $0xe,%esi
    b5d3:	bf bc 1c 00 00       	mov    $0x1cbc,%edi
    b5d8:	e8 29 98 ff ff       	callq  4e06 <safe_lshift_func_uint16_t_u_u>
    b5dd:	0f b7 c0             	movzwl %ax,%eax
    b5e0:	89 85 f0 f4 ff ff    	mov    %eax,-0xb10(%rbp)
    b5e6:	48 8b 85 b0 f5 ff ff 	mov    -0xa50(%rbp),%rax
    b5ed:	48 8d 95 70 f5 ff ff 	lea    -0xa90(%rbp),%rdx
    b5f4:	48 89 10             	mov    %rdx,(%rax)
    b5f7:	48 8b 85 b0 f5 ff ff 	mov    -0xa50(%rbp),%rax
    b5fe:	48 8b 10             	mov    (%rax),%rdx
    b601:	48 8b 85 20 f6 ff ff 	mov    -0x9e0(%rbp),%rax
    b608:	48 89 10             	mov    %rdx,(%rax)
    b60b:	48 8b 85 20 f6 ff ff 	mov    -0x9e0(%rbp),%rax
    b612:	48 8b 00             	mov    (%rax),%rax
    b615:	48 39 85 f8 f5 ff ff 	cmp    %rax,-0xa08(%rbp)
    b61c:	0f 95 c0             	setne  %al
    b61f:	0f b6 d0             	movzbl %al,%edx
    b622:	8b 05 cc aa 00 00    	mov    0xaacc(%rip),%eax        # 160f4 <g_124>
    b628:	89 c0                	mov    %eax,%eax
    b62a:	48 39 85 70 f4 ff ff 	cmp    %rax,-0xb90(%rbp)
    b631:	0f 95 c0             	setne  %al
    b634:	0f b6 c0             	movzbl %al,%eax
    b637:	48 89 d6             	mov    %rdx,%rsi
    b63a:	48 89 c7             	mov    %rax,%rdi
    b63d:	e8 ec 99 ff ff       	callq  502e <safe_add_func_uint64_t_u_u>
    b642:	48 85 c0             	test   %rax,%rax
    b645:	0f 84 04 02 00 00    	je     b84f <func_5+0x2ab0>
    b64b:	48 8d 05 f3 a9 00 00 	lea    0xa9f3(%rip),%rax        # 16045 <g_19+0x5>
    b652:	48 89 85 28 f6 ff ff 	mov    %rax,-0x9d8(%rbp)
    b659:	c7 85 f4 f4 ff ff f8 	movl   $0xfffffff8,-0xb0c(%rbp)
    b660:	ff ff ff 
    b663:	48 c7 85 30 f6 ff ff 	movq   $0x0,-0x9d0(%rbp)
    b66a:	00 00 00 00 
    b66e:	48 8d 85 68 f5 ff ff 	lea    -0xa98(%rbp),%rax
    b675:	48 89 85 38 f6 ff ff 	mov    %rax,-0x9c8(%rbp)
    b67c:	48 8d 85 c0 f7 ff ff 	lea    -0x840(%rbp),%rax
    b683:	48 83 c0 30          	add    $0x30,%rax
    b687:	48 89 85 40 f6 ff ff 	mov    %rax,-0x9c0(%rbp)
    b68e:	c7 85 c8 f4 ff ff 00 	movl   $0x0,-0xb38(%rbp)
    b695:	00 00 00 
    b698:	eb 21                	jmp    b6bb <func_5+0x291c>
    b69a:	8b 85 c8 f4 ff ff    	mov    -0xb38(%rbp),%eax
    b6a0:	48 98                	cltq   
    b6a2:	48 bb 8c 95 c6 0f 87 	movabs $0x5997f3870fc6958c,%rbx
    b6a9:	f3 97 59 
    b6ac:	48 89 9c c5 00 fc ff 	mov    %rbx,-0x400(%rbp,%rax,8)
    b6b3:	ff 
    b6b4:	83 85 c8 f4 ff ff 01 	addl   $0x1,-0xb38(%rbp)
    b6bb:	83 bd c8 f4 ff ff 06 	cmpl   $0x6,-0xb38(%rbp)
    b6c2:	7e d6                	jle    b69a <func_5+0x28fb>
    b6c4:	48 8b 85 20 fc ff ff 	mov    -0x3e0(%rbp),%rax
    b6cb:	48 85 c0             	test   %rax,%rax
    b6ce:	0f 85 84 01 00 00    	jne    b858 <func_5+0x2ab9>
    b6d4:	48 8b 05 e5 b2 00 00 	mov    0xb2e5(%rip),%rax        # 169c0 <g_103>
    b6db:	48 8b 85 70 f4 ff ff 	mov    -0xb90(%rbp),%rax
    b6e2:	41 89 c4             	mov    %eax,%r12d
    b6e5:	48 8b 85 20 fc ff ff 	mov    -0x3e0(%rbp),%rax
    b6ec:	0f b7 d8             	movzwl %ax,%ebx
    b6ef:	48 8b 95 70 f4 ff ff 	mov    -0xb90(%rbp),%rdx
    b6f6:	8b 05 e0 a9 00 00    	mov    0xa9e0(%rip),%eax        # 160dc <g_81>
    b6fc:	83 f8 05             	cmp    $0x5,%eax
    b6ff:	0f 95 c0             	setne  %al
    b702:	0f b6 c0             	movzbl %al,%eax
    b705:	48 89 d6             	mov    %rdx,%rsi
    b708:	48 89 c7             	mov    %rax,%rdi
    b70b:	e8 3b 99 ff ff       	callq  504b <safe_sub_func_uint64_t_u_u>
    b710:	48 83 f8 06          	cmp    $0x6,%rax
    b714:	0f 97 c0             	seta   %al
    b717:	0f b6 c0             	movzbl %al,%eax
    b71a:	48 c7 c6 ff ff ff ff 	mov    $0xffffffffffffffff,%rsi
    b721:	48 89 c7             	mov    %rax,%rdi
    b724:	e8 18 91 ff ff       	callq  4841 <safe_add_func_int64_t_s_s>
    b729:	0f b7 c0             	movzwl %ax,%eax
    b72c:	89 de                	mov    %ebx,%esi
    b72e:	89 c7                	mov    %eax,%edi
    b730:	e8 08 96 ff ff       	callq  4d3d <safe_mul_func_uint16_t_u_u>
    b735:	66 85 c0             	test   %ax,%ax
    b738:	0f 94 c0             	sete   %al
    b73b:	0f b6 c0             	movzbl %al,%eax
    b73e:	39 85 e8 f4 ff ff    	cmp    %eax,-0xb18(%rbp)
    b744:	0f 9d c0             	setge  %al
    b747:	89 c2                	mov    %eax,%edx
    b749:	48 8b 85 28 f6 ff ff 	mov    -0x9d8(%rbp),%rax
    b750:	88 10                	mov    %dl,(%rax)
    b752:	48 8b 85 70 f4 ff ff 	mov    -0xb90(%rbp),%rax
    b759:	83 e0 01             	and    $0x1,%eax
    b75c:	44 89 e6             	mov    %r12d,%esi
    b75f:	89 c7                	mov    %eax,%edi
    b761:	e8 9f 8e ff ff       	callq  4605 <safe_sub_func_int32_t_s_s>
    b766:	89 c3                	mov    %eax,%ebx
    b768:	8b 05 86 a9 00 00    	mov    0xa986(%rip),%eax        # 160f4 <g_124>
    b76e:	89 c6                	mov    %eax,%esi
    b770:	bf 00 00 00 00       	mov    $0x0,%edi
    b775:	e8 8c 96 ff ff       	callq  4e06 <safe_lshift_func_uint16_t_u_u>
    b77a:	0f b7 c0             	movzwl %ax,%eax
    b77d:	23 85 ec f4 ff ff    	and    -0xb14(%rbp),%eax
    b783:	89 c2                	mov    %eax,%edx
    b785:	48 8b 85 a0 f5 ff ff 	mov    -0xa60(%rbp),%rax
    b78c:	89 10                	mov    %edx,(%rax)
    b78e:	48 8b 85 a0 f5 ff ff 	mov    -0xa60(%rbp),%rax
    b795:	8b 10                	mov    (%rax),%edx
    b797:	48 8b 85 d8 f5 ff ff 	mov    -0xa28(%rbp),%rax
    b79e:	8b 00                	mov    (%rax),%eax
    b7a0:	89 d9                	mov    %ebx,%ecx
    b7a2:	31 c1                	xor    %eax,%ecx
    b7a4:	48 8b 85 d8 f5 ff ff 	mov    -0xa28(%rbp),%rax
    b7ab:	89 08                	mov    %ecx,(%rax)
    b7ad:	48 8b 85 d8 f5 ff ff 	mov    -0xa28(%rbp),%rax
    b7b4:	8b 00                	mov    (%rax),%eax
    b7b6:	39 c2                	cmp    %eax,%edx
    b7b8:	0f 96 c0             	setbe  %al
    b7bb:	0f b6 c0             	movzbl %al,%eax
    b7be:	89 85 f4 f4 ff ff    	mov    %eax,-0xb0c(%rbp)
    b7c4:	8b 85 f4 f4 ff ff    	mov    -0xb0c(%rbp),%eax
    b7ca:	83 f0 01             	xor    $0x1,%eax
    b7cd:	48 63 d0             	movslq %eax,%rdx
    b7d0:	48 8b 85 38 f6 ff ff 	mov    -0x9c8(%rbp),%rax
    b7d7:	48 89 10             	mov    %rdx,(%rax)
    b7da:	48 8b 85 38 f6 ff ff 	mov    -0x9c8(%rbp),%rax
    b7e1:	48 8b 10             	mov    (%rax),%rdx
    b7e4:	8b 05 f2 a8 00 00    	mov    0xa8f2(%rip),%eax        # 160dc <g_81>
    b7ea:	48 98                	cltq   
    b7ec:	48 39 c2             	cmp    %rax,%rdx
    b7ef:	7c 08                	jl     b7f9 <func_5+0x2a5a>
    b7f1:	48 83 bd 70 f4 ff ff 	cmpq   $0x0,-0xb90(%rbp)
    b7f8:	00 
    b7f9:	48 8b 85 20 fc ff ff 	mov    -0x3e0(%rbp),%rax
    b800:	98                   	cwtl   
    b801:	be fb ff ff ff       	mov    $0xfffffffb,%esi
    b806:	89 c7                	mov    %eax,%edi
    b808:	e8 a6 8b ff ff       	callq  43b3 <safe_add_func_int16_t_s_s>
    b80d:	0f b6 c0             	movzbl %al,%eax
    b810:	be 01 00 00 00       	mov    $0x1,%esi
    b815:	89 c7                	mov    %eax,%edi
    b817:	e8 77 93 ff ff       	callq  4b93 <safe_mul_func_uint8_t_u_u>
    b81c:	89 c2                	mov    %eax,%edx
    b81e:	48 8b 05 ab b1 00 00 	mov    0xb1ab(%rip),%rax        # 169d0 <g_104>
    b825:	48 8b 00             	mov    (%rax),%rax
    b828:	48 8b 00             	mov    (%rax),%rax
    b82b:	0f b6 d2             	movzbl %dl,%edx
    b82e:	89 10                	mov    %edx,(%rax)
    b830:	8b 10                	mov    (%rax),%edx
    b832:	48 8b 85 40 f6 ff ff 	mov    -0x9c0(%rbp),%rax
    b839:	8b 00                	mov    (%rax),%eax
    b83b:	21 c2                	and    %eax,%edx
    b83d:	48 8b 85 40 f6 ff ff 	mov    -0x9c0(%rbp),%rax
    b844:	89 10                	mov    %edx,(%rax)
    b846:	48 8d 05 8f a8 00 00 	lea    0xa88f(%rip),%rax        # 160dc <g_81>
    b84d:	eb 55                	jmp    b8a4 <func_5+0x2b05>
    b84f:	48 8b 85 88 f4 ff ff 	mov    -0xb78(%rbp),%rax
    b856:	eb 4c                	jmp    b8a4 <func_5+0x2b05>
    b858:	0f b6 05 31 c1 00 00 	movzbl 0xc131(%rip),%eax        # 17990 <g_897>
    b85f:	83 c0 01             	add    $0x1,%eax
    b862:	88 05 28 c1 00 00    	mov    %al,0xc128(%rip)        # 17990 <g_897>
    b868:	0f b6 05 21 c1 00 00 	movzbl 0xc121(%rip),%eax        # 17990 <g_897>
    b86f:	3c 27                	cmp    $0x27,%al
    b871:	0f 87 77 fb ff ff    	ja     b3ee <func_5+0x264f>
    b877:	83 bd e8 f4 ff ff 00 	cmpl   $0x0,-0xb18(%rbp)
    b87e:	0f b6 05 2f a8 00 00 	movzbl 0xa82f(%rip),%eax        # 160b4 <g_53>
    b885:	83 c0 01             	add    $0x1,%eax
    b888:	88 05 26 a8 00 00    	mov    %al,0xa826(%rip)        # 160b4 <g_53>
    b88e:	0f b6 05 1f a8 00 00 	movzbl 0xa81f(%rip),%eax        # 160b4 <g_53>
    b895:	84 c0                	test   %al,%al
    b897:	0f 84 ed d7 ff ff    	je     908a <func_5+0x2eb>
    b89d:	48 8b 85 88 f4 ff ff 	mov    -0xb78(%rbp),%rax
    b8a4:	48 8b 5d c8          	mov    -0x38(%rbp),%rbx
    b8a8:	64 48 33 1c 25 28 00 	xor    %fs:0x28,%rbx
    b8af:	00 00 
    b8b1:	74 05                	je     b8b8 <func_5+0x2b19>
    b8b3:	e8 b8 87 ff ff       	callq  4070 <__stack_chk_fail@plt>
    b8b8:	48 81 c4 88 0b 00 00 	add    $0xb88,%rsp
    b8bf:	5b                   	pop    %rbx
    b8c0:	41 5c                	pop    %r12
    b8c2:	41 5d                	pop    %r13
    b8c4:	41 5e                	pop    %r14
    b8c6:	41 5f                	pop    %r15
    b8c8:	5d                   	pop    %rbp
    b8c9:	c3                   	retq   

000000000000b8ca <func_11>:
    b8ca:	f3 0f 1e fa          	endbr64 
    b8ce:	55                   	push   %rbp
    b8cf:	48 89 e5             	mov    %rsp,%rbp
    b8d2:	41 57                	push   %r15
    b8d4:	41 56                	push   %r14
    b8d6:	41 55                	push   %r13
    b8d8:	41 54                	push   %r12
    b8da:	53                   	push   %rbx
    b8db:	48 81 ec 18 0d 00 00 	sub    $0xd18,%rsp
    b8e2:	89 bd ec f2 ff ff    	mov    %edi,-0xd14(%rbp)
    b8e8:	64 48 8b 04 25 28 00 	mov    %fs:0x28,%rax
    b8ef:	00 00 
    b8f1:	48 89 45 c8          	mov    %rax,-0x38(%rbp)
    b8f5:	31 c0                	xor    %eax,%eax
    b8f7:	48 8d 05 64 a7 00 00 	lea    0xa764(%rip),%rax        # 16062 <g_19+0x22>
    b8fe:	48 89 85 60 f3 ff ff 	mov    %rax,-0xca0(%rbp)
    b905:	48 8d 05 a4 a7 00 00 	lea    0xa7a4(%rip),%rax        # 160b0 <g_46>
    b90c:	48 89 85 a8 f3 ff ff 	mov    %rax,-0xc58(%rbp)
    b913:	48 c7 85 b0 f3 ff ff 	movq   $0x0,-0xc50(%rbp)
    b91a:	00 00 00 00 
    b91e:	48 8d 05 8f a7 00 00 	lea    0xa78f(%rip),%rax        # 160b4 <g_53>
    b925:	48 89 85 68 f3 ff ff 	mov    %rax,-0xc98(%rbp)
    b92c:	48 8d 85 68 f3 ff ff 	lea    -0xc98(%rbp),%rax
    b933:	48 89 85 b8 f3 ff ff 	mov    %rax,-0xc48(%rbp)
    b93a:	48 8d 05 74 a7 00 00 	lea    0xa774(%rip),%rax        # 160b5 <g_63>
    b941:	48 89 85 70 f3 ff ff 	mov    %rax,-0xc90(%rbp)
    b948:	c7 85 00 f3 ff ff ff 	movl   $0xffffffff,-0xd00(%rbp)
    b94f:	ff ff ff 
    b952:	c7 85 1c f3 ff ff b9 	movl   $0x2fd334b9,-0xce4(%rbp)
    b959:	34 d3 2f 
    b95c:	48 c7 85 c0 f3 ff ff 	movq   $0x0,-0xc40(%rbp)
    b963:	00 00 00 00 
    b967:	48 8d 05 6e a7 00 00 	lea    0xa76e(%rip),%rax        # 160dc <g_81>
    b96e:	48 89 85 20 f5 ff ff 	mov    %rax,-0xae0(%rbp)
    b975:	48 8d 05 60 a7 00 00 	lea    0xa760(%rip),%rax        # 160dc <g_81>
    b97c:	48 89 85 28 f5 ff ff 	mov    %rax,-0xad8(%rbp)
    b983:	48 8d 05 52 a7 00 00 	lea    0xa752(%rip),%rax        # 160dc <g_81>
    b98a:	48 89 85 30 f5 ff ff 	mov    %rax,-0xad0(%rbp)
    b991:	48 8d 05 44 a7 00 00 	lea    0xa744(%rip),%rax        # 160dc <g_81>
    b998:	48 89 85 38 f5 ff ff 	mov    %rax,-0xac8(%rbp)
    b99f:	48 8d 05 36 a7 00 00 	lea    0xa736(%rip),%rax        # 160dc <g_81>
    b9a6:	48 89 85 40 f5 ff ff 	mov    %rax,-0xac0(%rbp)
    b9ad:	48 8d 05 28 a7 00 00 	lea    0xa728(%rip),%rax        # 160dc <g_81>
    b9b4:	48 89 85 48 f5 ff ff 	mov    %rax,-0xab8(%rbp)
    b9bb:	48 8d 85 20 f5 ff ff 	lea    -0xae0(%rbp),%rax
    b9c2:	48 83 c0 18          	add    $0x18,%rax
    b9c6:	48 89 85 78 f3 ff ff 	mov    %rax,-0xc88(%rbp)
    b9cd:	48 8d 05 1c a7 00 00 	lea    0xa71c(%rip),%rax        # 160f0 <g_107>
    b9d4:	48 89 85 c8 f3 ff ff 	mov    %rax,-0xc38(%rbp)
    b9db:	c6 85 f6 f2 ff ff 02 	movb   $0x2,-0xd0a(%rbp)
    b9e2:	48 8d 05 37 a8 00 00 	lea    0xa837(%rip),%rax        # 16220 <g_294>
    b9e9:	48 89 85 d0 f3 ff ff 	mov    %rax,-0xc30(%rbp)
    b9f0:	48 8d 85 78 f3 ff ff 	lea    -0xc88(%rbp),%rax
    b9f7:	48 89 85 80 f3 ff ff 	mov    %rax,-0xc80(%rbp)
    b9fe:	48 8d 85 80 f3 ff ff 	lea    -0xc80(%rbp),%rax
    ba05:	48 89 85 60 fa ff ff 	mov    %rax,-0x5a0(%rbp)
    ba0c:	48 8d 85 80 f3 ff ff 	lea    -0xc80(%rbp),%rax
    ba13:	48 89 85 68 fa ff ff 	mov    %rax,-0x598(%rbp)
    ba1a:	48 8d 85 80 f3 ff ff 	lea    -0xc80(%rbp),%rax
    ba21:	48 89 85 70 fa ff ff 	mov    %rax,-0x590(%rbp)
    ba28:	48 8d 85 80 f3 ff ff 	lea    -0xc80(%rbp),%rax
    ba2f:	48 89 85 78 fa ff ff 	mov    %rax,-0x588(%rbp)
    ba36:	48 8d 85 80 f3 ff ff 	lea    -0xc80(%rbp),%rax
    ba3d:	48 89 85 80 fa ff ff 	mov    %rax,-0x580(%rbp)
    ba44:	48 8d 85 80 f3 ff ff 	lea    -0xc80(%rbp),%rax
    ba4b:	48 89 85 88 fa ff ff 	mov    %rax,-0x578(%rbp)
    ba52:	48 8d 85 80 f3 ff ff 	lea    -0xc80(%rbp),%rax
    ba59:	48 89 85 90 fa ff ff 	mov    %rax,-0x570(%rbp)
    ba60:	48 8d 85 80 f3 ff ff 	lea    -0xc80(%rbp),%rax
    ba67:	48 89 85 98 fa ff ff 	mov    %rax,-0x568(%rbp)
    ba6e:	48 8d 85 80 f3 ff ff 	lea    -0xc80(%rbp),%rax
    ba75:	48 89 85 a0 fa ff ff 	mov    %rax,-0x560(%rbp)
    ba7c:	48 8d 85 80 f3 ff ff 	lea    -0xc80(%rbp),%rax
    ba83:	48 89 85 a8 fa ff ff 	mov    %rax,-0x558(%rbp)
    ba8a:	48 8d 85 80 f3 ff ff 	lea    -0xc80(%rbp),%rax
    ba91:	48 89 85 b0 fa ff ff 	mov    %rax,-0x550(%rbp)
    ba98:	48 8d 85 80 f3 ff ff 	lea    -0xc80(%rbp),%rax
    ba9f:	48 89 85 b8 fa ff ff 	mov    %rax,-0x548(%rbp)
    baa6:	48 8d 85 80 f3 ff ff 	lea    -0xc80(%rbp),%rax
    baad:	48 89 85 c0 fa ff ff 	mov    %rax,-0x540(%rbp)
    bab4:	48 8d 85 80 f3 ff ff 	lea    -0xc80(%rbp),%rax
    babb:	48 89 85 c8 fa ff ff 	mov    %rax,-0x538(%rbp)
    bac2:	48 8d 85 80 f3 ff ff 	lea    -0xc80(%rbp),%rax
    bac9:	48 89 85 d0 fa ff ff 	mov    %rax,-0x530(%rbp)
    bad0:	48 8d 85 80 f3 ff ff 	lea    -0xc80(%rbp),%rax
    bad7:	48 89 85 d8 fa ff ff 	mov    %rax,-0x528(%rbp)
    bade:	48 8d 85 80 f3 ff ff 	lea    -0xc80(%rbp),%rax
    bae5:	48 89 85 e0 fa ff ff 	mov    %rax,-0x520(%rbp)
    baec:	48 8d 85 80 f3 ff ff 	lea    -0xc80(%rbp),%rax
    baf3:	48 89 85 e8 fa ff ff 	mov    %rax,-0x518(%rbp)
    bafa:	48 8d 85 80 f3 ff ff 	lea    -0xc80(%rbp),%rax
    bb01:	48 89 85 f0 fa ff ff 	mov    %rax,-0x510(%rbp)
    bb08:	48 8d 85 80 f3 ff ff 	lea    -0xc80(%rbp),%rax
    bb0f:	48 89 85 f8 fa ff ff 	mov    %rax,-0x508(%rbp)
    bb16:	48 8d 85 80 f3 ff ff 	lea    -0xc80(%rbp),%rax
    bb1d:	48 89 85 00 fb ff ff 	mov    %rax,-0x500(%rbp)
    bb24:	48 8d 85 80 f3 ff ff 	lea    -0xc80(%rbp),%rax
    bb2b:	48 89 85 08 fb ff ff 	mov    %rax,-0x4f8(%rbp)
    bb32:	48 8d 85 80 f3 ff ff 	lea    -0xc80(%rbp),%rax
    bb39:	48 89 85 10 fb ff ff 	mov    %rax,-0x4f0(%rbp)
    bb40:	48 8d 85 80 f3 ff ff 	lea    -0xc80(%rbp),%rax
    bb47:	48 89 85 18 fb ff ff 	mov    %rax,-0x4e8(%rbp)
    bb4e:	48 8d 85 80 f3 ff ff 	lea    -0xc80(%rbp),%rax
    bb55:	48 89 85 20 fb ff ff 	mov    %rax,-0x4e0(%rbp)
    bb5c:	48 8d 85 80 f3 ff ff 	lea    -0xc80(%rbp),%rax
    bb63:	48 89 85 28 fb ff ff 	mov    %rax,-0x4d8(%rbp)
    bb6a:	48 8d 85 80 f3 ff ff 	lea    -0xc80(%rbp),%rax
    bb71:	48 89 85 30 fb ff ff 	mov    %rax,-0x4d0(%rbp)
    bb78:	48 8d 85 80 f3 ff ff 	lea    -0xc80(%rbp),%rax
    bb7f:	48 89 85 38 fb ff ff 	mov    %rax,-0x4c8(%rbp)
    bb86:	48 8d 85 80 f3 ff ff 	lea    -0xc80(%rbp),%rax
    bb8d:	48 89 85 40 fb ff ff 	mov    %rax,-0x4c0(%rbp)
    bb94:	48 8d 85 80 f3 ff ff 	lea    -0xc80(%rbp),%rax
    bb9b:	48 89 85 48 fb ff ff 	mov    %rax,-0x4b8(%rbp)
    bba2:	48 8d 85 80 f3 ff ff 	lea    -0xc80(%rbp),%rax
    bba9:	48 89 85 50 fb ff ff 	mov    %rax,-0x4b0(%rbp)
    bbb0:	48 8d 85 80 f3 ff ff 	lea    -0xc80(%rbp),%rax
    bbb7:	48 89 85 58 fb ff ff 	mov    %rax,-0x4a8(%rbp)
    bbbe:	48 8d 85 80 f3 ff ff 	lea    -0xc80(%rbp),%rax
    bbc5:	48 89 85 60 fb ff ff 	mov    %rax,-0x4a0(%rbp)
    bbcc:	48 8d 85 80 f3 ff ff 	lea    -0xc80(%rbp),%rax
    bbd3:	48 89 85 68 fb ff ff 	mov    %rax,-0x498(%rbp)
    bbda:	48 8d 85 80 f3 ff ff 	lea    -0xc80(%rbp),%rax
    bbe1:	48 89 85 70 fb ff ff 	mov    %rax,-0x490(%rbp)
    bbe8:	48 8d 85 80 f3 ff ff 	lea    -0xc80(%rbp),%rax
    bbef:	48 89 85 78 fb ff ff 	mov    %rax,-0x488(%rbp)
    bbf6:	48 8d 85 80 f3 ff ff 	lea    -0xc80(%rbp),%rax
    bbfd:	48 89 85 80 fb ff ff 	mov    %rax,-0x480(%rbp)
    bc04:	48 8d 85 80 f3 ff ff 	lea    -0xc80(%rbp),%rax
    bc0b:	48 89 85 88 fb ff ff 	mov    %rax,-0x478(%rbp)
    bc12:	48 8d 85 80 f3 ff ff 	lea    -0xc80(%rbp),%rax
    bc19:	48 89 85 90 fb ff ff 	mov    %rax,-0x470(%rbp)
    bc20:	48 8d 85 80 f3 ff ff 	lea    -0xc80(%rbp),%rax
    bc27:	48 89 85 98 fb ff ff 	mov    %rax,-0x468(%rbp)
    bc2e:	48 8d 85 80 f3 ff ff 	lea    -0xc80(%rbp),%rax
    bc35:	48 89 85 a0 fb ff ff 	mov    %rax,-0x460(%rbp)
    bc3c:	48 8d 85 80 f3 ff ff 	lea    -0xc80(%rbp),%rax
    bc43:	48 89 85 a8 fb ff ff 	mov    %rax,-0x458(%rbp)
    bc4a:	48 8d 85 80 f3 ff ff 	lea    -0xc80(%rbp),%rax
    bc51:	48 89 85 b0 fb ff ff 	mov    %rax,-0x450(%rbp)
    bc58:	48 8d 85 80 f3 ff ff 	lea    -0xc80(%rbp),%rax
    bc5f:	48 89 85 b8 fb ff ff 	mov    %rax,-0x448(%rbp)
    bc66:	48 8d 85 80 f3 ff ff 	lea    -0xc80(%rbp),%rax
    bc6d:	48 89 85 c0 fb ff ff 	mov    %rax,-0x440(%rbp)
    bc74:	48 8d 85 80 f3 ff ff 	lea    -0xc80(%rbp),%rax
    bc7b:	48 89 85 c8 fb ff ff 	mov    %rax,-0x438(%rbp)
    bc82:	48 8d 85 80 f3 ff ff 	lea    -0xc80(%rbp),%rax
    bc89:	48 89 85 d0 fb ff ff 	mov    %rax,-0x430(%rbp)
    bc90:	48 8d 85 80 f3 ff ff 	lea    -0xc80(%rbp),%rax
    bc97:	48 89 85 d8 fb ff ff 	mov    %rax,-0x428(%rbp)
    bc9e:	48 8d 85 80 f3 ff ff 	lea    -0xc80(%rbp),%rax
    bca5:	48 89 85 e0 fb ff ff 	mov    %rax,-0x420(%rbp)
    bcac:	48 8d 85 80 f3 ff ff 	lea    -0xc80(%rbp),%rax
    bcb3:	48 89 85 e8 fb ff ff 	mov    %rax,-0x418(%rbp)
    bcba:	48 8d 85 80 f3 ff ff 	lea    -0xc80(%rbp),%rax
    bcc1:	48 89 85 f0 fb ff ff 	mov    %rax,-0x410(%rbp)
    bcc8:	48 8d 85 80 f3 ff ff 	lea    -0xc80(%rbp),%rax
    bccf:	48 89 85 f8 fb ff ff 	mov    %rax,-0x408(%rbp)
    bcd6:	48 8d 85 80 f3 ff ff 	lea    -0xc80(%rbp),%rax
    bcdd:	48 89 85 00 fc ff ff 	mov    %rax,-0x400(%rbp)
    bce4:	48 8d 85 80 f3 ff ff 	lea    -0xc80(%rbp),%rax
    bceb:	48 89 85 08 fc ff ff 	mov    %rax,-0x3f8(%rbp)
    bcf2:	48 8d 85 80 f3 ff ff 	lea    -0xc80(%rbp),%rax
    bcf9:	48 89 85 10 fc ff ff 	mov    %rax,-0x3f0(%rbp)
    bd00:	48 8d 85 80 f3 ff ff 	lea    -0xc80(%rbp),%rax
    bd07:	48 89 85 18 fc ff ff 	mov    %rax,-0x3e8(%rbp)
    bd0e:	48 8d 85 80 f3 ff ff 	lea    -0xc80(%rbp),%rax
    bd15:	48 89 85 20 fc ff ff 	mov    %rax,-0x3e0(%rbp)
    bd1c:	48 8d 85 80 f3 ff ff 	lea    -0xc80(%rbp),%rax
    bd23:	48 89 85 28 fc ff ff 	mov    %rax,-0x3d8(%rbp)
    bd2a:	48 8d 85 80 f3 ff ff 	lea    -0xc80(%rbp),%rax
    bd31:	48 89 85 30 fc ff ff 	mov    %rax,-0x3d0(%rbp)
    bd38:	48 8d 85 80 f3 ff ff 	lea    -0xc80(%rbp),%rax
    bd3f:	48 89 85 38 fc ff ff 	mov    %rax,-0x3c8(%rbp)
    bd46:	c7 85 20 f3 ff ff 07 	movl   $0x7,-0xce0(%rbp)
    bd4d:	00 00 00 
    bd50:	66 c7 85 f0 f6 ff ff 	movw   $0x1,-0x910(%rbp)
    bd57:	01 00 
    bd59:	66 c7 85 f2 f6 ff ff 	movw   $0x1,-0x90e(%rbp)
    bd60:	01 00 
    bd62:	66 c7 85 f4 f6 ff ff 	movw   $0x1,-0x90c(%rbp)
    bd69:	01 00 
    bd6b:	66 c7 85 f6 f6 ff ff 	movw   $0x1,-0x90a(%rbp)
    bd72:	01 00 
    bd74:	66 c7 85 f8 f6 ff ff 	movw   $0x1,-0x908(%rbp)
    bd7b:	01 00 
    bd7d:	66 c7 85 fa f6 ff ff 	movw   $0x1,-0x906(%rbp)
    bd84:	01 00 
    bd86:	66 c7 85 fc f6 ff ff 	movw   $0x1,-0x904(%rbp)
    bd8d:	01 00 
    bd8f:	66 c7 85 fe f6 ff ff 	movw   $0xd8fb,-0x902(%rbp)
    bd96:	fb d8 
    bd98:	66 c7 85 00 f7 ff ff 	movw   $0xfff7,-0x900(%rbp)
    bd9f:	f7 ff 
    bda1:	66 c7 85 02 f7 ff ff 	movw   $0xd8fb,-0x8fe(%rbp)
    bda8:	fb d8 
    bdaa:	66 c7 85 04 f7 ff ff 	movw   $0xfff7,-0x8fc(%rbp)
    bdb1:	f7 ff 
    bdb3:	66 c7 85 06 f7 ff ff 	movw   $0xd8fb,-0x8fa(%rbp)
    bdba:	fb d8 
    bdbc:	66 c7 85 08 f7 ff ff 	movw   $0xfff7,-0x8f8(%rbp)
    bdc3:	f7 ff 
    bdc5:	66 c7 85 0a f7 ff ff 	movw   $0xd8fb,-0x8f6(%rbp)
    bdcc:	fb d8 
    bdce:	66 c7 85 0c f7 ff ff 	movw   $0x1,-0x8f4(%rbp)
    bdd5:	01 00 
    bdd7:	66 c7 85 0e f7 ff ff 	movw   $0x1,-0x8f2(%rbp)
    bdde:	01 00 
    bde0:	66 c7 85 10 f7 ff ff 	movw   $0x1,-0x8f0(%rbp)
    bde7:	01 00 
    bde9:	66 c7 85 12 f7 ff ff 	movw   $0x1,-0x8ee(%rbp)
    bdf0:	01 00 
    bdf2:	66 c7 85 14 f7 ff ff 	movw   $0x1,-0x8ec(%rbp)
    bdf9:	01 00 
    bdfb:	66 c7 85 16 f7 ff ff 	movw   $0x1,-0x8ea(%rbp)
    be02:	01 00 
    be04:	66 c7 85 18 f7 ff ff 	movw   $0x1,-0x8e8(%rbp)
    be0b:	01 00 
    be0d:	66 c7 85 1a f7 ff ff 	movw   $0xd8fb,-0x8e6(%rbp)
    be14:	fb d8 
    be16:	66 c7 85 1c f7 ff ff 	movw   $0xfff7,-0x8e4(%rbp)
    be1d:	f7 ff 
    be1f:	66 c7 85 1e f7 ff ff 	movw   $0xd8fb,-0x8e2(%rbp)
    be26:	fb d8 
    be28:	66 c7 85 20 f7 ff ff 	movw   $0xfff7,-0x8e0(%rbp)
    be2f:	f7 ff 
    be31:	66 c7 85 22 f7 ff ff 	movw   $0xd8fb,-0x8de(%rbp)
    be38:	fb d8 
    be3a:	66 c7 85 24 f7 ff ff 	movw   $0xfff7,-0x8dc(%rbp)
    be41:	f7 ff 
    be43:	66 c7 85 26 f7 ff ff 	movw   $0xd8fb,-0x8da(%rbp)
    be4a:	fb d8 
    be4c:	66 c7 85 28 f7 ff ff 	movw   $0x1,-0x8d8(%rbp)
    be53:	01 00 
    be55:	66 c7 85 2a f7 ff ff 	movw   $0x1,-0x8d6(%rbp)
    be5c:	01 00 
    be5e:	66 c7 85 2c f7 ff ff 	movw   $0x1,-0x8d4(%rbp)
    be65:	01 00 
    be67:	66 c7 85 2e f7 ff ff 	movw   $0x1,-0x8d2(%rbp)
    be6e:	01 00 
    be70:	66 c7 85 30 f7 ff ff 	movw   $0x1,-0x8d0(%rbp)
    be77:	01 00 
    be79:	66 c7 85 32 f7 ff ff 	movw   $0x1,-0x8ce(%rbp)
    be80:	01 00 
    be82:	66 c7 85 34 f7 ff ff 	movw   $0x1,-0x8cc(%rbp)
    be89:	01 00 
    be8b:	66 c7 85 36 f7 ff ff 	movw   $0xd8fb,-0x8ca(%rbp)
    be92:	fb d8 
    be94:	66 c7 85 38 f7 ff ff 	movw   $0xfff7,-0x8c8(%rbp)
    be9b:	f7 ff 
    be9d:	66 c7 85 3a f7 ff ff 	movw   $0xd8fb,-0x8c6(%rbp)
    bea4:	fb d8 
    bea6:	66 c7 85 3c f7 ff ff 	movw   $0xfff7,-0x8c4(%rbp)
    bead:	f7 ff 
    beaf:	66 c7 85 3e f7 ff ff 	movw   $0xd8fb,-0x8c2(%rbp)
    beb6:	fb d8 
    beb8:	66 c7 85 40 f7 ff ff 	movw   $0xfff7,-0x8c0(%rbp)
    bebf:	f7 ff 
    bec1:	66 c7 85 42 f7 ff ff 	movw   $0xd8fb,-0x8be(%rbp)
    bec8:	fb d8 
    beca:	66 c7 85 44 f7 ff ff 	movw   $0x1,-0x8bc(%rbp)
    bed1:	01 00 
    bed3:	66 c7 85 46 f7 ff ff 	movw   $0x1,-0x8ba(%rbp)
    beda:	01 00 
    bedc:	66 c7 85 48 f7 ff ff 	movw   $0x1,-0x8b8(%rbp)
    bee3:	01 00 
    bee5:	66 c7 85 4a f7 ff ff 	movw   $0x1,-0x8b6(%rbp)
    beec:	01 00 
    beee:	66 c7 85 4c f7 ff ff 	movw   $0x1,-0x8b4(%rbp)
    bef5:	01 00 
    bef7:	66 c7 85 4e f7 ff ff 	movw   $0x1,-0x8b2(%rbp)
    befe:	01 00 
    bf00:	66 c7 85 50 f7 ff ff 	movw   $0x1,-0x8b0(%rbp)
    bf07:	01 00 
    bf09:	66 c7 85 52 f7 ff ff 	movw   $0xd8fb,-0x8ae(%rbp)
    bf10:	fb d8 
    bf12:	66 c7 85 54 f7 ff ff 	movw   $0xfff7,-0x8ac(%rbp)
    bf19:	f7 ff 
    bf1b:	66 c7 85 56 f7 ff ff 	movw   $0xd8fb,-0x8aa(%rbp)
    bf22:	fb d8 
    bf24:	66 c7 85 58 f7 ff ff 	movw   $0xfff7,-0x8a8(%rbp)
    bf2b:	f7 ff 
    bf2d:	66 c7 85 5a f7 ff ff 	movw   $0xd8fb,-0x8a6(%rbp)
    bf34:	fb d8 
    bf36:	66 c7 85 5c f7 ff ff 	movw   $0xfff7,-0x8a4(%rbp)
    bf3d:	f7 ff 
    bf3f:	66 c7 85 5e f7 ff ff 	movw   $0xd8fb,-0x8a2(%rbp)
    bf46:	fb d8 
    bf48:	66 c7 85 60 f7 ff ff 	movw   $0x1,-0x8a0(%rbp)
    bf4f:	01 00 
    bf51:	66 c7 85 62 f7 ff ff 	movw   $0x1,-0x89e(%rbp)
    bf58:	01 00 
    bf5a:	66 c7 85 64 f7 ff ff 	movw   $0x1,-0x89c(%rbp)
    bf61:	01 00 
    bf63:	66 c7 85 66 f7 ff ff 	movw   $0x1,-0x89a(%rbp)
    bf6a:	01 00 
    bf6c:	66 c7 85 68 f7 ff ff 	movw   $0x1,-0x898(%rbp)
    bf73:	01 00 
    bf75:	66 c7 85 6a f7 ff ff 	movw   $0x1,-0x896(%rbp)
    bf7c:	01 00 
    bf7e:	66 c7 85 6c f7 ff ff 	movw   $0x1,-0x894(%rbp)
    bf85:	01 00 
    bf87:	48 8d 85 e0 f8 ff ff 	lea    -0x720(%rbp),%rax
    bf8e:	48 8d 15 2b 54 00 00 	lea    0x542b(%rip),%rdx        # 113c0 <g_362+0x36c>
    bf95:	b9 30 00 00 00       	mov    $0x30,%ecx
    bf9a:	48 89 c7             	mov    %rax,%rdi
    bf9d:	48 89 d6             	mov    %rdx,%rsi
    bfa0:	f3 48 a5             	rep movsq %ds:(%rsi),%es:(%rdi)
    bfa3:	c7 85 70 f7 ff ff 01 	movl   $0x1,-0x890(%rbp)
    bfaa:	00 00 00 
    bfad:	c7 85 74 f7 ff ff 01 	movl   $0x1,-0x88c(%rbp)
    bfb4:	00 00 00 
    bfb7:	c7 85 78 f7 ff ff 01 	movl   $0x1,-0x888(%rbp)
    bfbe:	00 00 00 
    bfc1:	c7 85 7c f7 ff ff 01 	movl   $0x1,-0x884(%rbp)
    bfc8:	00 00 00 
    bfcb:	c7 85 80 f7 ff ff 01 	movl   $0x1,-0x880(%rbp)
    bfd2:	00 00 00 
    bfd5:	c7 85 84 f7 ff ff c7 	movl   $0x4f2f8ac7,-0x87c(%rbp)
    bfdc:	8a 2f 4f 
    bfdf:	c7 85 88 f7 ff ff 01 	movl   $0x1,-0x878(%rbp)
    bfe6:	00 00 00 
    bfe9:	c7 85 8c f7 ff ff 01 	movl   $0x1,-0x874(%rbp)
    bff0:	00 00 00 
    bff3:	c7 85 90 f7 ff ff 01 	movl   $0x1,-0x870(%rbp)
    bffa:	00 00 00 
    bffd:	c7 85 94 f7 ff ff 01 	movl   $0x1,-0x86c(%rbp)
    c004:	00 00 00 
    c007:	c7 85 98 f7 ff ff 01 	movl   $0x1,-0x868(%rbp)
    c00e:	00 00 00 
    c011:	c7 85 9c f7 ff ff 01 	movl   $0x1,-0x864(%rbp)
    c018:	00 00 00 
    c01b:	c7 85 a0 f7 ff ff ff 	movl   $0xffffffff,-0x860(%rbp)
    c022:	ff ff ff 
    c025:	c7 85 a4 f7 ff ff c7 	movl   $0x4f2f8ac7,-0x85c(%rbp)
    c02c:	8a 2f 4f 
    c02f:	c7 85 a8 f7 ff ff ff 	movl   $0xffffffff,-0x858(%rbp)
    c036:	ff ff ff 
    c039:	c7 85 ac f7 ff ff 01 	movl   $0x1,-0x854(%rbp)
    c040:	00 00 00 
    c043:	c7 85 b0 f7 ff ff ff 	movl   $0xffffffff,-0x850(%rbp)
    c04a:	ff ff ff 
    c04d:	c7 85 b4 f7 ff ff 01 	movl   $0x1,-0x84c(%rbp)
    c054:	00 00 00 
    c057:	c7 85 b8 f7 ff ff 01 	movl   $0x1,-0x848(%rbp)
    c05e:	00 00 00 
    c061:	c7 85 bc f7 ff ff ff 	movl   $0xffffffff,-0x844(%rbp)
    c068:	ff ff ff 
    c06b:	c7 85 c0 f7 ff ff 01 	movl   $0x1,-0x840(%rbp)
    c072:	00 00 00 
    c075:	c7 85 c4 f7 ff ff 01 	movl   $0x1,-0x83c(%rbp)
    c07c:	00 00 00 
    c07f:	c7 85 c8 f7 ff ff 01 	movl   $0x1,-0x838(%rbp)
    c086:	00 00 00 
    c089:	c7 85 cc f7 ff ff 01 	movl   $0x1,-0x834(%rbp)
    c090:	00 00 00 
    c093:	c7 85 d0 f7 ff ff 01 	movl   $0x1,-0x830(%rbp)
    c09a:	00 00 00 
    c09d:	c7 85 d4 f7 ff ff c7 	movl   $0x4f2f8ac7,-0x82c(%rbp)
    c0a4:	8a 2f 4f 
    c0a7:	c7 85 d8 f7 ff ff 01 	movl   $0x1,-0x828(%rbp)
    c0ae:	00 00 00 
    c0b1:	c7 85 dc f7 ff ff 01 	movl   $0x1,-0x824(%rbp)
    c0b8:	00 00 00 
    c0bb:	c7 85 e0 f7 ff ff 01 	movl   $0x1,-0x820(%rbp)
    c0c2:	00 00 00 
    c0c5:	c7 85 e4 f7 ff ff 01 	movl   $0x1,-0x81c(%rbp)
    c0cc:	00 00 00 
    c0cf:	c7 85 e8 f7 ff ff 01 	movl   $0x1,-0x818(%rbp)
    c0d6:	00 00 00 
    c0d9:	c7 85 ec f7 ff ff 01 	movl   $0x1,-0x814(%rbp)
    c0e0:	00 00 00 
    c0e3:	c7 85 f0 f7 ff ff ff 	movl   $0xffffffff,-0x810(%rbp)
    c0ea:	ff ff ff 
    c0ed:	c7 85 f4 f7 ff ff c7 	movl   $0x4f2f8ac7,-0x80c(%rbp)
    c0f4:	8a 2f 4f 
    c0f7:	c7 85 f8 f7 ff ff ff 	movl   $0xffffffff,-0x808(%rbp)
    c0fe:	ff ff ff 
    c101:	c7 85 fc f7 ff ff 01 	movl   $0x1,-0x804(%rbp)
    c108:	00 00 00 
    c10b:	c7 85 00 f5 ff ff ff 	movl   $0xffffffff,-0xb00(%rbp)
    c112:	ff ff ff 
    c115:	c7 85 04 f5 ff ff ff 	movl   $0xffffffff,-0xafc(%rbp)
    c11c:	ff ff ff 
    c11f:	c7 85 08 f5 ff ff ff 	movl   $0xffffffff,-0xaf8(%rbp)
    c126:	ff ff ff 
    c129:	c7 85 0c f5 ff ff ff 	movl   $0xffffffff,-0xaf4(%rbp)
    c130:	ff ff ff 
    c133:	c7 85 10 f5 ff ff ff 	movl   $0xffffffff,-0xaf0(%rbp)
    c13a:	ff ff ff 
    c13d:	c7 85 14 f5 ff ff ff 	movl   $0xffffffff,-0xaec(%rbp)
    c144:	ff ff ff 
    c147:	c6 85 f8 f2 ff ff 98 	movb   $0x98,-0xd08(%rbp)
    c14e:	48 8d 85 f6 f2 ff ff 	lea    -0xd0a(%rbp),%rax
    c155:	48 89 85 50 f5 ff ff 	mov    %rax,-0xab0(%rbp)
    c15c:	48 8d 85 f6 f2 ff ff 	lea    -0xd0a(%rbp),%rax
    c163:	48 89 85 58 f5 ff ff 	mov    %rax,-0xaa8(%rbp)
    c16a:	48 8d 05 44 9f 00 00 	lea    0x9f44(%rip),%rax        # 160b5 <g_63>
    c171:	48 89 85 60 f5 ff ff 	mov    %rax,-0xaa0(%rbp)
    c178:	48 8d 85 f6 f2 ff ff 	lea    -0xd0a(%rbp),%rax
    c17f:	48 89 85 68 f5 ff ff 	mov    %rax,-0xa98(%rbp)
    c186:	48 8d 85 f6 f2 ff ff 	lea    -0xd0a(%rbp),%rax
    c18d:	48 89 85 70 f5 ff ff 	mov    %rax,-0xa90(%rbp)
    c194:	48 8d 05 1a 9f 00 00 	lea    0x9f1a(%rip),%rax        # 160b5 <g_63>
    c19b:	48 89 85 78 f5 ff ff 	mov    %rax,-0xa88(%rbp)
    c1a2:	48 8d 05 af b7 00 00 	lea    0xb7af(%rip),%rax        # 17958 <g_596+0x18>
    c1a9:	48 89 85 d8 f3 ff ff 	mov    %rax,-0xc28(%rbp)
    c1b0:	48 8d 05 9d 4e 00 00 	lea    0x4e9d(%rip),%rax        # 11054 <g_362>
    c1b7:	48 89 85 e0 f3 ff ff 	mov    %rax,-0xc20(%rbp)
    c1be:	c7 85 18 f3 ff ff 00 	movl   $0x0,-0xce8(%rbp)
    c1c5:	00 00 00 
    c1c8:	eb 1e                	jmp    c1e8 <func_11+0x91e>
    c1ca:	8b 85 18 f3 ff ff    	mov    -0xce8(%rbp),%eax
    c1d0:	48 98                	cltq   
    c1d2:	48 8d 15 4f a8 00 00 	lea    0xa84f(%rip),%rdx        # 16a28 <g_288+0x28>
    c1d9:	48 89 94 c5 e0 f4 ff 	mov    %rdx,-0xb20(%rbp,%rax,8)
    c1e0:	ff 
    c1e1:	83 85 18 f3 ff ff 01 	addl   $0x1,-0xce8(%rbp)
    c1e8:	83 bd 18 f3 ff ff 01 	cmpl   $0x1,-0xce8(%rbp)
    c1ef:	7e d9                	jle    c1ca <func_11+0x900>
    c1f1:	c7 85 18 f3 ff ff 00 	movl   $0x0,-0xce8(%rbp)
    c1f8:	00 00 00 
    c1fb:	eb 1e                	jmp    c21b <func_11+0x951>
    c1fd:	8b 85 18 f3 ff ff    	mov    -0xce8(%rbp),%eax
    c203:	48 98                	cltq   
    c205:	48 8d 15 0c a0 00 00 	lea    0xa00c(%rip),%rdx        # 16218 <g_237>
    c20c:	48 89 94 c5 f0 f4 ff 	mov    %rdx,-0xb10(%rbp,%rax,8)
    c213:	ff 
    c214:	83 85 18 f3 ff ff 01 	addl   $0x1,-0xce8(%rbp)
    c21b:	83 bd 18 f3 ff ff 01 	cmpl   $0x1,-0xce8(%rbp)
    c222:	7e d9                	jle    c1fd <func_11+0x933>
    c224:	90                   	nop
    c225:	8b 85 1c f3 ff ff    	mov    -0xce4(%rbp),%eax
    c22b:	44 0f bf e0          	movswl %ax,%r12d
    c22f:	8b 85 00 f3 ff ff    	mov    -0xd00(%rbp),%eax
    c235:	0f b7 d8             	movzwl %ax,%ebx
    c238:	4c 8b 35 99 a7 00 00 	mov    0xa799(%rip),%r14        # 169d8 <g_280>
    c23f:	4c 8b 2d 92 a7 00 00 	mov    0xa792(%rip),%r13        # 169d8 <g_280>
    c246:	b8 db 64 f3 1c       	mov    $0x1cf364db,%eax
    c24b:	89 85 e8 f2 ff ff    	mov    %eax,-0xd18(%rbp)
    c251:	48 8b 05 80 a7 00 00 	mov    0xa780(%rip),%rax        # 169d8 <g_280>
    c258:	48 89 85 e0 f2 ff ff 	mov    %rax,-0xd20(%rbp)
    c25f:	8b 85 ec f2 ff ff    	mov    -0xd14(%rbp),%eax
    c265:	44 0f be f8          	movsbl %al,%r15d
    c269:	8b 85 ec f2 ff ff    	mov    -0xd14(%rbp),%eax
    c26f:	0f be c0             	movsbl %al,%eax
    c272:	89 85 d8 f2 ff ff    	mov    %eax,-0xd28(%rbp)
    c278:	48 8b 05 59 a7 00 00 	mov    0xa759(%rip),%rax        # 169d8 <g_280>
    c27f:	48 89 85 d0 f2 ff ff 	mov    %rax,-0xd30(%rbp)
    c286:	8b 85 ec f2 ff ff    	mov    -0xd14(%rbp),%eax
    c28c:	89 85 cc f2 ff ff    	mov    %eax,-0xd34(%rbp)
    c292:	8b 85 ec f2 ff ff    	mov    -0xd14(%rbp),%eax
    c298:	0f b6 c0             	movzbl %al,%eax
    c29b:	89 85 c8 f2 ff ff    	mov    %eax,-0xd38(%rbp)
    c2a1:	8b 85 00 f3 ff ff    	mov    -0xd00(%rbp),%eax
    c2a7:	89 85 c4 f2 ff ff    	mov    %eax,-0xd3c(%rbp)
    c2ad:	8b 05 fd 9d 00 00    	mov    0x9dfd(%rip),%eax        # 160b0 <g_46>
    c2b3:	0f b7 c8             	movzwl %ax,%ecx
    c2b6:	8b 15 f4 9d 00 00    	mov    0x9df4(%rip),%edx        # 160b0 <g_46>
    c2bc:	48 8b 85 70 f3 ff ff 	mov    -0xc90(%rbp),%rax
    c2c3:	88 10                	mov    %dl,(%rax)
    c2c5:	0f b6 00             	movzbl (%rax),%eax
    c2c8:	84 c0                	test   %al,%al
    c2ca:	75 07                	jne    c2d3 <func_11+0xa09>
    c2cc:	b8 00 00 00 00       	mov    $0x0,%eax
    c2d1:	eb 05                	jmp    c2d8 <func_11+0xa0e>
    c2d3:	b8 01 00 00 00       	mov    $0x1,%eax
    c2d8:	48 98                	cltq   
    c2da:	48 83 c8 fa          	or     $0xfffffffffffffffa,%rax
    c2de:	48 89 c2             	mov    %rax,%rdx
    c2e1:	8b 85 ec f2 ff ff    	mov    -0xd14(%rbp),%eax
    c2e7:	48 21 d0             	and    %rdx,%rax
    c2ea:	48 85 c0             	test   %rax,%rax
    c2ed:	74 07                	je     c2f6 <func_11+0xa2c>
    c2ef:	b8 01 00 00 00       	mov    $0x1,%eax
    c2f4:	eb 05                	jmp    c2fb <func_11+0xa31>
    c2f6:	b8 00 00 00 00       	mov    $0x0,%eax
    c2fb:	39 85 ec f2 ff ff    	cmp    %eax,-0xd14(%rbp)
    c301:	0f 97 c0             	seta   %al
    c304:	0f b6 d0             	movzbl %al,%edx
    c307:	48 8b 85 a8 f3 ff ff 	mov    -0xc58(%rbp),%rax
    c30e:	8b 00                	mov    (%rax),%eax
    c310:	09 d0                	or     %edx,%eax
    c312:	3d f6 00 00 00       	cmp    $0xf6,%eax
    c317:	0f 9e c0             	setle  %al
    c31a:	0f b6 c0             	movzbl %al,%eax
    c31d:	89 ce                	mov    %ecx,%esi
    c31f:	89 c7                	mov    %eax,%edi
    c321:	e8 36 8a ff ff       	callq  4d5c <safe_mod_func_uint16_t_u_u>
    c326:	0f b7 d0             	movzwl %ax,%edx
    c329:	8b 05 81 9d 00 00    	mov    0x9d81(%rip),%eax        # 160b0 <g_46>
    c32f:	09 d0                	or     %edx,%eax
    c331:	23 85 ec f2 ff ff    	and    -0xd14(%rbp),%eax
    c337:	8b 15 73 9d 00 00    	mov    0x9d73(%rip),%edx        # 160b0 <g_46>
    c33d:	39 d0                	cmp    %edx,%eax
    c33f:	72 11                	jb     c352 <func_11+0xa88>
    c341:	8b 05 69 9d 00 00    	mov    0x9d69(%rip),%eax        # 160b0 <g_46>
    c347:	85 c0                	test   %eax,%eax
    c349:	74 07                	je     c352 <func_11+0xa88>
    c34b:	ba 01 00 00 00       	mov    $0x1,%edx
    c350:	eb 05                	jmp    c357 <func_11+0xa8d>
    c352:	ba 00 00 00 00       	mov    $0x0,%edx
    c357:	8b 05 6b 9d 00 00    	mov    0x9d6b(%rip),%eax        # 160c8 <g_64+0x8>
    c35d:	21 d0                	and    %edx,%eax
    c35f:	89 05 63 9d 00 00    	mov    %eax,0x9d63(%rip)        # 160c8 <g_64+0x8>
    c365:	48 8b 85 a8 f3 ff ff 	mov    -0xc58(%rbp),%rax
    c36c:	c7 00 01 00 00 00    	movl   $0x1,(%rax)
    c372:	48 8b 85 a8 f3 ff ff 	mov    -0xc58(%rbp),%rax
    c379:	8b 00                	mov    (%rax),%eax
    c37b:	8b b5 c4 f2 ff ff    	mov    -0xd3c(%rbp),%esi
    c381:	89 c7                	mov    %eax,%edi
    c383:	e8 7d 82 ff ff       	callq  4605 <safe_sub_func_int32_t_s_s>
    c388:	48 8d 15 25 9d 00 00 	lea    0x9d25(%rip),%rdx        # 160b4 <g_53>
    c38f:	48 8b 85 b8 f3 ff ff 	mov    -0xc48(%rbp),%rax
    c396:	48 89 10             	mov    %rdx,(%rax)
    c399:	48 8b 85 b8 f3 ff ff 	mov    -0xc48(%rbp),%rax
    c3a0:	48 8b 00             	mov    (%rax),%rax
    c3a3:	48 8d b5 00 f3 ff ff 	lea    -0xd00(%rbp),%rsi
    c3aa:	8b 8d c8 f2 ff ff    	mov    -0xd38(%rbp),%ecx
    c3b0:	48 8d 15 fd 9c 00 00 	lea    0x9cfd(%rip),%rdx        # 160b4 <g_53>
    c3b7:	48 89 c7             	mov    %rax,%rdi
    c3ba:	e8 00 23 00 00       	callq  e6bf <func_47>
    c3bf:	48 8b 95 b8 f3 ff ff 	mov    -0xc48(%rbp),%rdx
    c3c6:	48 89 02             	mov    %rax,(%rdx)
    c3c9:	48 8b 85 b8 f3 ff ff 	mov    -0xc48(%rbp),%rax
    c3d0:	48 8b 30             	mov    (%rax),%rsi
    c3d3:	48 83 bd a8 f3 ff ff 	cmpq   $0x0,-0xc58(%rbp)
    c3da:	00 
    c3db:	0f 95 c0             	setne  %al
    c3de:	0f b6 c0             	movzbl %al,%eax
    c3e1:	44 8b 85 d8 f2 ff ff 	mov    -0xd28(%rbp),%r8d
    c3e8:	48 8b 8d d0 f2 ff ff 	mov    -0xd30(%rbp),%rcx
    c3ef:	8b 95 cc f2 ff ff    	mov    -0xd34(%rbp),%edx
    c3f5:	89 c7                	mov    %eax,%edi
    c3f7:	e8 92 22 00 00       	callq  e68e <func_39>
    c3fc:	44 8b 85 e8 f2 ff ff 	mov    -0xd18(%rbp),%r8d
    c403:	48 8b 8d e0 f2 ff ff 	mov    -0xd20(%rbp),%rcx
    c40a:	44 89 fa             	mov    %r15d,%edx
    c40d:	48 8d 35 dc 9c 00 00 	lea    0x9cdc(%rip),%rsi        # 160f0 <g_107>
    c414:	48 89 c7             	mov    %rax,%rdi
    c417:	e8 4f 22 00 00       	callq  e66b <func_33>
    c41c:	48 89 c7             	mov    %rax,%rdi
    c41f:	8b 85 ec f2 ff ff    	mov    -0xd14(%rbp),%eax
    c425:	4c 89 f1             	mov    %r14,%rcx
    c428:	89 c2                	mov    %eax,%edx
    c42a:	4c 89 ee             	mov    %r13,%rsi
    c42d:	e8 2d 20 00 00       	callq  e45f <func_28>
    c432:	0f b7 c0             	movzwl %ax,%eax
    c435:	48 8d 95 00 f3 ff ff 	lea    -0xd00(%rbp),%rdx
    c43c:	4c 8d 05 ad 9c 00 00 	lea    0x9cad(%rip),%r8        # 160f0 <g_107>
    c443:	44 89 e1             	mov    %r12d,%ecx
    c446:	89 de                	mov    %ebx,%esi
    c448:	89 c7                	mov    %eax,%edi
    c44a:	e8 a5 1f 00 00       	callq  e3f4 <func_22>
    c44f:	0f b6 d0             	movzbl %al,%edx
    c452:	48 8b 85 60 f3 ff ff 	mov    -0xca0(%rbp),%rax
    c459:	0f b6 08             	movzbl (%rax),%ecx
    c45c:	83 c1 01             	add    $0x1,%ecx
    c45f:	88 08                	mov    %cl,(%rax)
    c461:	0f b6 00             	movzbl (%rax),%eax
    c464:	0f b6 c0             	movzbl %al,%eax
    c467:	89 d6                	mov    %edx,%esi
    c469:	89 c7                	mov    %eax,%edi
    c46b:	e8 23 87 ff ff       	callq  4b93 <safe_mul_func_uint8_t_u_u>
    c470:	0f b6 d0             	movzbl %al,%edx
    c473:	48 8b 85 a8 f3 ff ff 	mov    -0xc58(%rbp),%rax
    c47a:	89 10                	mov    %edx,(%rax)
    c47c:	48 8b 85 a8 f3 ff ff 	mov    -0xc58(%rbp),%rax
    c483:	8b 00                	mov    (%rax),%eax
    c485:	48 8b 9d 78 f3 ff ff 	mov    -0xc88(%rbp),%rbx
    c48c:	89 c7                	mov    %eax,%edi
    c48e:	e8 32 1f 00 00       	callq  e3c5 <func_14>
    c493:	48 89 03             	mov    %rax,(%rbx)
    c496:	48 8b 03             	mov    (%rbx),%rax
    c499:	48 89 85 c8 f3 ff ff 	mov    %rax,-0xc38(%rbp)
    c4a0:	c7 05 4a 9c 00 00 ee 	movl   $0xffffffee,0x9c4a(%rip)        # 160f4 <g_124>
    c4a7:	ff ff ff 
    c4aa:	e9 7a 1d 00 00       	jmpq   e229 <func_11+0x295f>
    c4af:	c7 85 08 f3 ff ff ff 	movl   $0xffffffff,-0xcf8(%rbp)
    c4b6:	ff ff ff 
    c4b9:	48 8d 05 68 9d 00 00 	lea    0x9d68(%rip),%rax        # 16228 <g_449>
    c4c0:	48 89 85 e8 f3 ff ff 	mov    %rax,-0xc18(%rbp)
    c4c7:	48 8d 05 52 9d 00 00 	lea    0x9d52(%rip),%rax        # 16220 <g_294>
    c4ce:	48 89 85 f0 f3 ff ff 	mov    %rax,-0xc10(%rbp)
    c4d5:	c7 85 0c f3 ff ff 09 	movl   $0x9,-0xcf4(%rbp)
    c4dc:	00 00 00 
    c4df:	48 c7 85 88 f3 ff ff 	movq   $0x0,-0xc78(%rbp)
    c4e6:	00 00 00 00 
    c4ea:	48 8d 85 88 f3 ff ff 	lea    -0xc78(%rbp),%rax
    c4f1:	48 89 85 90 f3 ff ff 	mov    %rax,-0xc70(%rbp)
    c4f8:	48 8d 85 90 f3 ff ff 	lea    -0xc70(%rbp),%rax
    c4ff:	48 89 85 f8 f3 ff ff 	mov    %rax,-0xc08(%rbp)
    c506:	48 8d 05 0b 9d 00 00 	lea    0x9d0b(%rip),%rax        # 16218 <g_237>
    c50d:	48 89 85 00 f4 ff ff 	mov    %rax,-0xc00(%rbp)
    c514:	c7 85 04 f3 ff ff f5 	movl   $0x730d04f5,-0xcfc(%rbp)
    c51b:	04 0d 73 
    c51e:	c7 85 24 f3 ff ff ff 	movl   $0xffffffff,-0xcdc(%rbp)
    c525:	ff ff ff 
    c528:	c7 85 28 f3 ff ff 00 	movl   $0x0,-0xcd8(%rbp)
    c52f:	00 00 00 
    c532:	c7 85 2c f3 ff ff 00 	movl   $0x0,-0xcd4(%rbp)
    c539:	00 00 00 
    c53c:	c7 85 30 f3 ff ff 01 	movl   $0x1,-0xcd0(%rbp)
    c543:	00 00 00 
    c546:	66 c7 85 fa f2 ff ff 	movw   $0x9718,-0xd06(%rbp)
    c54d:	18 97 
    c54f:	48 b8 7d 37 b6 56 31 	movabs $0xa8a5053156b6377d,%rax
    c556:	05 a5 a8 
    c559:	48 89 85 08 f4 ff ff 	mov    %rax,-0xbf8(%rbp)
    c560:	c6 85 f7 f2 ff ff d8 	movb   $0xd8,-0xd09(%rbp)
    c567:	48 8d 05 1a b4 00 00 	lea    0xb41a(%rip),%rax        # 17988 <g_653>
    c56e:	48 89 85 10 f4 ff ff 	mov    %rax,-0xbf0(%rbp)
    c575:	48 8b 85 78 f3 ff ff 	mov    -0xc88(%rbp),%rax
    c57c:	48 8b 00             	mov    (%rax),%rax
    c57f:	8b 00                	mov    (%rax),%eax
    c581:	85 c0                	test   %eax,%eax
    c583:	0f 85 b1 1c 00 00    	jne    e23a <func_11+0x2970>
    c589:	8b 05 61 9b 00 00    	mov    0x9b61(%rip),%eax        # 160f0 <g_107>
    c58f:	85 c0                	test   %eax,%eax
    c591:	0f 84 82 01 00 00    	je     c719 <func_11+0xe4f>
    c597:	8b 9d 0c f3 ff ff    	mov    -0xcf4(%rbp),%ebx
    c59d:	83 bd 08 f3 ff ff 00 	cmpl   $0x0,-0xcf8(%rbp)
    c5a4:	0f 84 0c 01 00 00    	je     c6b6 <func_11+0xdec>
    c5aa:	44 8b a5 08 f3 ff ff 	mov    -0xcf8(%rbp),%r12d
    c5b1:	8b 85 ec f2 ff ff    	mov    -0xd14(%rbp),%eax
    c5b7:	0f b6 c0             	movzbl %al,%eax
    c5ba:	be 01 00 00 00       	mov    $0x1,%esi
    c5bf:	89 c7                	mov    %eax,%edi
    c5c1:	e8 c7 86 ff ff       	callq  4c8d <safe_rshift_func_uint8_t_u_s>
    c5c6:	44 0f b6 e8          	movzbl %al,%r13d
    c5ca:	8b 95 08 f3 ff ff    	mov    -0xcf8(%rbp),%edx
    c5d0:	48 8b 85 e8 f3 ff ff 	mov    -0xc18(%rbp),%rax
    c5d7:	8b 00                	mov    (%rax),%eax
    c5d9:	8d 70 ff             	lea    -0x1(%rax),%esi
    c5dc:	48 8b 8d e8 f3 ff ff 	mov    -0xc18(%rbp),%rcx
    c5e3:	89 31                	mov    %esi,(%rcx)
    c5e5:	85 c0                	test   %eax,%eax
    c5e7:	75 09                	jne    c5f2 <func_11+0xd28>
    c5e9:	83 bd ec f2 ff ff 00 	cmpl   $0x0,-0xd14(%rbp)
    c5f0:	74 07                	je     c5f9 <func_11+0xd2f>
    c5f2:	b8 01 00 00 00       	mov    $0x1,%eax
    c5f7:	eb 05                	jmp    c5fe <func_11+0xd34>
    c5f9:	b8 00 00 00 00       	mov    $0x0,%eax
    c5fe:	48 98                	cltq   
    c600:	48 89 d6             	mov    %rdx,%rsi
    c603:	48 89 c7             	mov    %rax,%rdi
    c606:	e8 75 8a ff ff       	callq  5080 <safe_mod_func_uint64_t_u_u>
    c60b:	83 bd 08 f3 ff ff 01 	cmpl   $0x1,-0xcf8(%rbp)
    c612:	0f 96 c0             	setbe  %al
    c615:	0f b6 c0             	movzbl %al,%eax
    c618:	39 85 ec f2 ff ff    	cmp    %eax,-0xd14(%rbp)
    c61e:	0f 95 c0             	setne  %al
    c621:	0f b6 c0             	movzbl %al,%eax
    c624:	be ff ff ff ff       	mov    $0xffffffff,%esi
    c629:	89 c7                	mov    %eax,%edi
    c62b:	e8 25 7e ff ff       	callq  4455 <safe_div_func_int16_t_s_s>
    c630:	98                   	cwtl   
    c631:	23 85 08 f3 ff ff    	and    -0xcf8(%rbp),%eax
    c637:	41 39 c5             	cmp    %eax,%r13d
    c63a:	0f 93 c0             	setae  %al
    c63d:	0f b6 d0             	movzbl %al,%edx
    c640:	48 8b 85 f0 f3 ff ff 	mov    -0xc10(%rbp),%rax
    c647:	48 89 10             	mov    %rdx,(%rax)
    c64a:	48 8b 85 f0 f3 ff ff 	mov    -0xc10(%rbp),%rax
    c651:	48 8b 00             	mov    (%rax),%rax
    c654:	48 ba 06 3f d8 c6 18 	movabs $0x4a789218c6d83f06,%rdx
    c65b:	92 78 4a 
    c65e:	48 39 d0             	cmp    %rdx,%rax
    c661:	0f 9e c0             	setle  %al
    c664:	0f b6 d0             	movzbl %al,%edx
    c667:	48 8b 85 60 f3 ff ff 	mov    -0xca0(%rbp),%rax
    c66e:	0f b6 00             	movzbl (%rax),%eax
    c671:	89 c1                	mov    %eax,%ecx
    c673:	89 d0                	mov    %edx,%eax
    c675:	21 c1                	and    %eax,%ecx
    c677:	89 ca                	mov    %ecx,%edx
    c679:	48 8b 85 60 f3 ff ff 	mov    -0xca0(%rbp),%rax
    c680:	88 10                	mov    %dl,(%rax)
    c682:	8b 85 ec f2 ff ff    	mov    -0xd14(%rbp),%eax
    c688:	98                   	cwtl   
    c689:	89 c7                	mov    %eax,%edi
    c68b:	e8 0d 7d ff ff       	callq  439d <safe_unary_minus_func_int16_t_s>
    c690:	48 0f bf c0          	movswq %ax,%rax
    c694:	4c 89 e6             	mov    %r12,%rsi
    c697:	48 89 c7             	mov    %rax,%rdi
    c69a:	e8 09 82 ff ff       	callq  48a8 <safe_sub_func_int64_t_s_s>
    c69f:	8b 85 ec f2 ff ff    	mov    -0xd14(%rbp),%eax
    c6a5:	0f b6 c0             	movzbl %al,%eax
    c6a8:	be 06 00 00 00       	mov    $0x6,%esi
    c6ad:	89 c7                	mov    %eax,%edi
    c6af:	e8 df 84 ff ff       	callq  4b93 <safe_mul_func_uint8_t_u_u>
    c6b4:	84 c0                	test   %al,%al
    c6b6:	8b 85 08 f3 ff ff    	mov    -0xcf8(%rbp),%eax
    c6bc:	83 f0 01             	xor    $0x1,%eax
    c6bf:	0f be c0             	movsbl %al,%eax
    c6c2:	89 de                	mov    %ebx,%esi
    c6c4:	89 c7                	mov    %eax,%edi
    c6c6:	e8 a1 7c ff ff       	callq  436c <safe_rshift_func_int8_t_s_u>
    c6cb:	48 c7 85 c8 fb ff ff 	movq   $0x0,-0x438(%rbp)
    c6d2:	00 00 00 00 
    c6d6:	48 8b 85 c8 fb ff ff 	mov    -0x438(%rbp),%rax
    c6dd:	48 8d 15 7c a5 00 00 	lea    0xa57c(%rip),%rdx        # 16c60 <g_363+0x1e0>
    c6e4:	48 39 d0             	cmp    %rdx,%rax
    c6e7:	0f 95 c0             	setne  %al
    c6ea:	0f b6 c0             	movzbl %al,%eax
    c6ed:	be 0c 52 d2 3e       	mov    $0x3ed2520c,%esi
    c6f2:	89 c7                	mov    %eax,%edi
    c6f4:	e8 06 80 ff ff       	callq  46ff <safe_div_func_int32_t_s_s>
    c6f9:	98                   	cwtl   
    c6fa:	8b 95 20 f3 ff ff    	mov    -0xce0(%rbp),%edx
    c700:	89 d6                	mov    %edx,%esi
    c702:	89 c7                	mov    %eax,%edi
    c704:	e8 21 7e ff ff       	callq  452a <safe_rshift_func_int16_t_s_s>
    c709:	98                   	cwtl   
    c70a:	39 85 ec f2 ff ff    	cmp    %eax,-0xd14(%rbp)
    c710:	76 07                	jbe    c719 <func_11+0xe4f>
    c712:	b8 01 00 00 00       	mov    $0x1,%eax
    c717:	eb 05                	jmp    c71e <func_11+0xe54>
    c719:	b8 00 00 00 00       	mov    $0x0,%eax
    c71e:	0f be c0             	movsbl %al,%eax
    c721:	8b 95 ec f2 ff ff    	mov    -0xd14(%rbp),%edx
    c727:	89 d6                	mov    %edx,%esi
    c729:	89 c7                	mov    %eax,%edi
    c72b:	e8 3c 7c ff ff       	callq  436c <safe_rshift_func_int8_t_s_u>
    c730:	8b 85 0c f3 ff ff    	mov    -0xcf4(%rbp),%eax
    c736:	0f b6 c0             	movzbl %al,%eax
    c739:	be ff 00 00 00       	mov    $0xff,%esi
    c73e:	89 c7                	mov    %eax,%edi
    c740:	e8 4e 84 ff ff       	callq  4b93 <safe_mul_func_uint8_t_u_u>
    c745:	48 8b 85 80 f3 ff ff 	mov    -0xc80(%rbp),%rax
    c74c:	48 8b 00             	mov    (%rax),%rax
    c74f:	48 8b 00             	mov    (%rax),%rax
    c752:	8b 00                	mov    (%rax),%eax
    c754:	48 98                	cltq   
    c756:	48 be 12 a4 76 d5 37 	movabs $0x102f4e37d576a412,%rsi
    c75d:	4e 2f 10 
    c760:	48 89 c7             	mov    %rax,%rdi
    c763:	e8 40 81 ff ff       	callq  48a8 <safe_sub_func_int64_t_s_s>
    c768:	48 85 c0             	test   %rax,%rax
    c76b:	0f 84 22 19 00 00    	je     e093 <func_11+0x27c9>
    c771:	48 b8 8c 9f 16 81 ca 	movabs $0xbd60c2ca81169f8c,%rax
    c778:	c2 60 bd 
    c77b:	48 89 85 a0 f3 ff ff 	mov    %rax,-0xc60(%rbp)
    c782:	48 c7 85 28 f4 ff ff 	movq   $0x0,-0xbd8(%rbp)
    c789:	00 00 00 00 
    c78d:	48 8d 85 40 fc ff ff 	lea    -0x3c0(%rbp),%rax
    c794:	48 8d 15 a5 4d 00 00 	lea    0x4da5(%rip),%rdx        # 11540 <g_362+0x4ec>
    c79b:	b9 70 00 00 00       	mov    $0x70,%ecx
    c7a0:	48 89 c7             	mov    %rax,%rdi
    c7a3:	48 89 d6             	mov    %rdx,%rsi
    c7a6:	f3 48 a5             	rep movsq %ds:(%rsi),%es:(%rdi)
    c7a9:	48 89 f2             	mov    %rsi,%rdx
    c7ac:	48 89 f8             	mov    %rdi,%rax
    c7af:	8b 0a                	mov    (%rdx),%ecx
    c7b1:	89 08                	mov    %ecx,(%rax)
    c7b3:	48 8d 05 26 99 00 00 	lea    0x9926(%rip),%rax        # 160e0 <g_88>
    c7ba:	48 89 85 98 f3 ff ff 	mov    %rax,-0xc68(%rbp)
    c7c1:	48 8d 85 98 f3 ff ff 	lea    -0xc68(%rbp),%rax
    c7c8:	48 89 85 80 f5 ff ff 	mov    %rax,-0xa80(%rbp)
    c7cf:	48 8d 85 98 f3 ff ff 	lea    -0xc68(%rbp),%rax
    c7d6:	48 89 85 88 f5 ff ff 	mov    %rax,-0xa78(%rbp)
    c7dd:	48 8d 85 98 f3 ff ff 	lea    -0xc68(%rbp),%rax
    c7e4:	48 89 85 90 f5 ff ff 	mov    %rax,-0xa70(%rbp)
    c7eb:	48 8d 85 98 f3 ff ff 	lea    -0xc68(%rbp),%rax
    c7f2:	48 89 85 98 f5 ff ff 	mov    %rax,-0xa68(%rbp)
    c7f9:	48 8d 85 98 f3 ff ff 	lea    -0xc68(%rbp),%rax
    c800:	48 89 85 a0 f5 ff ff 	mov    %rax,-0xa60(%rbp)
    c807:	48 8d 85 98 f3 ff ff 	lea    -0xc68(%rbp),%rax
    c80e:	48 89 85 a8 f5 ff ff 	mov    %rax,-0xa58(%rbp)
    c815:	48 8d 05 fc 99 00 00 	lea    0x99fc(%rip),%rax        # 16218 <g_237>
    c81c:	48 89 85 b0 f5 ff ff 	mov    %rax,-0xa50(%rbp)
    c823:	48 8d 05 ee 99 00 00 	lea    0x99ee(%rip),%rax        # 16218 <g_237>
    c82a:	48 89 85 b8 f5 ff ff 	mov    %rax,-0xa48(%rbp)
    c831:	48 8d 05 e0 99 00 00 	lea    0x99e0(%rip),%rax        # 16218 <g_237>
    c838:	48 89 85 c0 f5 ff ff 	mov    %rax,-0xa40(%rbp)
    c83f:	48 8d 05 d2 99 00 00 	lea    0x99d2(%rip),%rax        # 16218 <g_237>
    c846:	48 89 85 c8 f5 ff ff 	mov    %rax,-0xa38(%rbp)
    c84d:	48 8d 05 c4 99 00 00 	lea    0x99c4(%rip),%rax        # 16218 <g_237>
    c854:	48 89 85 d0 f5 ff ff 	mov    %rax,-0xa30(%rbp)
    c85b:	48 8d 05 b6 99 00 00 	lea    0x99b6(%rip),%rax        # 16218 <g_237>
    c862:	48 89 85 d8 f5 ff ff 	mov    %rax,-0xa28(%rbp)
    c869:	c7 85 3c f3 ff ff 01 	movl   $0x1,-0xcc4(%rbp)
    c870:	00 00 00 
    c873:	48 c7 85 30 f4 ff ff 	movq   $0x1,-0xbd0(%rbp)
    c87a:	01 00 00 00 
    c87e:	48 8d 05 2f 98 00 00 	lea    0x982f(%rip),%rax        # 160b4 <g_53>
    c885:	48 89 85 38 f4 ff ff 	mov    %rax,-0xbc8(%rbp)
    c88c:	48 c7 85 40 f4 ff ff 	movq   $0x0,-0xbc0(%rbp)
    c893:	00 00 00 00 
    c897:	48 8d 85 f0 f6 ff ff 	lea    -0x910(%rbp),%rax
    c89e:	48 83 c0 74          	add    $0x74,%rax
    c8a2:	48 89 85 48 f4 ff ff 	mov    %rax,-0xbb8(%rbp)
    c8a9:	c7 85 10 f3 ff ff 00 	movl   $0x0,-0xcf0(%rbp)
    c8b0:	00 00 00 
    c8b3:	eb 4c                	jmp    c901 <func_11+0x1037>
    c8b5:	c7 85 14 f3 ff ff 00 	movl   $0x0,-0xcec(%rbp)
    c8bc:	00 00 00 
    c8bf:	eb 30                	jmp    c8f1 <func_11+0x1027>
    c8c1:	8b 85 14 f3 ff ff    	mov    -0xcec(%rbp),%eax
    c8c7:	48 63 c8             	movslq %eax,%rcx
    c8ca:	8b 85 10 f3 ff ff    	mov    -0xcf0(%rbp),%eax
    c8d0:	48 63 d0             	movslq %eax,%rdx
    c8d3:	48 89 d0             	mov    %rdx,%rax
    c8d6:	48 01 c0             	add    %rax,%rax
    c8d9:	48 01 d0             	add    %rdx,%rax
    c8dc:	48 01 c8             	add    %rcx,%rax
    c8df:	c7 84 85 90 f6 ff ff 	movl   $0xffffffff,-0x970(%rbp,%rax,4)
    c8e6:	ff ff ff ff 
    c8ea:	83 85 14 f3 ff ff 01 	addl   $0x1,-0xcec(%rbp)
    c8f1:	83 bd 14 f3 ff ff 02 	cmpl   $0x2,-0xcec(%rbp)
    c8f8:	7e c7                	jle    c8c1 <func_11+0xff7>
    c8fa:	83 85 10 f3 ff ff 01 	addl   $0x1,-0xcf0(%rbp)
    c901:	83 bd 10 f3 ff ff 06 	cmpl   $0x6,-0xcf0(%rbp)
    c908:	7e ab                	jle    c8b5 <func_11+0xfeb>
    c90a:	c7 85 0c f3 ff ff 00 	movl   $0x0,-0xcf4(%rbp)
    c911:	00 00 00 
    c914:	e9 2f 0f 00 00       	jmpq   d848 <func_11+0x1f7e>
    c919:	48 8d 05 f8 98 00 00 	lea    0x98f8(%rip),%rax        # 16218 <g_237>
    c920:	48 89 85 50 f4 ff ff 	mov    %rax,-0xbb0(%rbp)
    c927:	48 8d 85 90 f3 ff ff 	lea    -0xc70(%rbp),%rax
    c92e:	48 89 85 58 f4 ff ff 	mov    %rax,-0xba8(%rbp)
    c935:	48 8d 85 60 fa ff ff 	lea    -0x5a0(%rbp),%rax
    c93c:	48 05 38 01 00 00    	add    $0x138,%rax
    c942:	48 89 85 60 f4 ff ff 	mov    %rax,-0xba0(%rbp)
    c949:	c7 85 40 f3 ff ff 47 	movl   $0x685fc347,-0xcc0(%rbp)
    c950:	c3 5f 68 
    c953:	c7 85 44 f3 ff ff bc 	movl   $0x11cf35bc,-0xcbc(%rbp)
    c95a:	35 cf 11 
    c95d:	48 8d 05 84 97 00 00 	lea    0x9784(%rip),%rax        # 160e8 <g_91>
    c964:	48 89 85 68 f4 ff ff 	mov    %rax,-0xb98(%rbp)
    c96b:	c7 85 48 f3 ff ff 08 	movl   $0x8,-0xcb8(%rbp)
    c972:	00 00 00 
    c975:	48 83 bd a0 f3 ff ff 	cmpq   $0x0,-0xc60(%rbp)
    c97c:	00 
    c97d:	0f 85 d4 0e 00 00    	jne    d857 <func_11+0x1f8d>
    c983:	8b 85 ec f2 ff ff    	mov    -0xd14(%rbp),%eax
    c989:	0f b7 d8             	movzwl %ax,%ebx
    c98c:	44 8b a5 ec f2 ff ff 	mov    -0xd14(%rbp),%r12d
    c993:	48 8b 85 50 f4 ff ff 	mov    -0xbb0(%rbp),%rax
    c99a:	0f b7 00             	movzwl (%rax),%eax
    c99d:	8d 50 ff             	lea    -0x1(%rax),%edx
    c9a0:	48 8b 85 50 f4 ff ff 	mov    -0xbb0(%rbp),%rax
    c9a7:	66 89 10             	mov    %dx,(%rax)
    c9aa:	48 8b 85 50 f4 ff ff 	mov    -0xbb0(%rbp),%rax
    c9b1:	0f b7 00             	movzwl (%rax),%eax
    c9b4:	0f b7 c0             	movzwl %ax,%eax
    c9b7:	89 c6                	mov    %eax,%esi
    c9b9:	bf 01 00 00 00       	mov    $0x1,%edi
    c9be:	e8 5c 83 ff ff       	callq  4d1f <safe_sub_func_uint16_t_u_u>
    c9c3:	0f b6 c0             	movzbl %al,%eax
    c9c6:	89 c6                	mov    %eax,%esi
    c9c8:	bf ff 00 00 00       	mov    $0xff,%edi
    c9cd:	e8 09 82 ff ff       	callq  4bdb <safe_div_func_uint8_t_u_u>
    c9d2:	0f b6 c0             	movzbl %al,%eax
    c9d5:	89 c6                	mov    %eax,%esi
    c9d7:	bf a3 0f 00 00       	mov    $0xfa3,%edi
    c9dc:	e8 7b 83 ff ff       	callq  4d5c <safe_mod_func_uint16_t_u_u>
    c9e1:	89 c2                	mov    %eax,%edx
    c9e3:	48 8b 85 f8 f3 ff ff 	mov    -0xc08(%rbp),%rax
    c9ea:	48 89 85 58 f4 ff ff 	mov    %rax,-0xba8(%rbp)
    c9f1:	48 8b 85 60 f4 ff ff 	mov    -0xba0(%rbp),%rax
    c9f8:	48 89 85 28 f4 ff ff 	mov    %rax,-0xbd8(%rbp)
    c9ff:	48 8b 85 70 f3 ff ff 	mov    -0xc90(%rbp),%rax
    ca06:	0f b6 08             	movzbl (%rax),%ecx
    ca09:	48 8b 85 70 f3 ff ff 	mov    -0xc90(%rbp),%rax
    ca10:	09 ca                	or     %ecx,%edx
    ca12:	88 10                	mov    %dl,(%rax)
    ca14:	0f b6 00             	movzbl (%rax),%eax
    ca17:	0f be d0             	movsbl %al,%edx
    ca1a:	8b 05 bc 96 00 00    	mov    0x96bc(%rip),%eax        # 160dc <g_81>
    ca20:	83 f8 01             	cmp    $0x1,%eax
    ca23:	0f 94 c0             	sete   %al
    ca26:	0f b6 c0             	movzbl %al,%eax
    ca29:	39 c2                	cmp    %eax,%edx
    ca2b:	0f 9f c0             	setg   %al
    ca2e:	0f b6 c0             	movzbl %al,%eax
    ca31:	8b 95 ec f2 ff ff    	mov    -0xd14(%rbp),%edx
    ca37:	89 d6                	mov    %edx,%esi
    ca39:	89 c7                	mov    %eax,%edi
    ca3b:	e8 bd 84 ff ff       	callq  4efd <safe_mod_func_uint32_t_u_u>
    ca40:	48 8b 05 81 9f 00 00 	mov    0x9f81(%rip),%rax        # 169c8 <g_105>
    ca47:	48 8b 00             	mov    (%rax),%rax
    ca4a:	8b 00                	mov    (%rax),%eax
    ca4c:	3d 27 6a 4c 19       	cmp    $0x194c6a27,%eax
    ca51:	0f 9f c0             	setg   %al
    ca54:	0f b6 c0             	movzbl %al,%eax
    ca57:	be 03 00 00 00       	mov    $0x3,%esi
    ca5c:	89 c7                	mov    %eax,%edi
    ca5e:	e8 2a 82 ff ff       	callq  4c8d <safe_rshift_func_uint8_t_u_s>
    ca63:	0f b6 c0             	movzbl %al,%eax
    ca66:	44 89 e6             	mov    %r12d,%esi
    ca69:	89 c7                	mov    %eax,%edi
    ca6b:	e8 ba 7a ff ff       	callq  452a <safe_rshift_func_int16_t_s_s>
    ca70:	0f b7 c0             	movzwl %ax,%eax
    ca73:	89 de                	mov    %ebx,%esi
    ca75:	89 c7                	mov    %eax,%edi
    ca77:	e8 c1 82 ff ff       	callq  4d3d <safe_mul_func_uint16_t_u_u>
    ca7c:	0f b7 d0             	movzwl %ax,%edx
    ca7f:	48 8b 85 e8 f3 ff ff 	mov    -0xc18(%rbp),%rax
    ca86:	89 10                	mov    %edx,(%rax)
    ca88:	48 8b 85 e8 f3 ff ff 	mov    -0xc18(%rbp),%rax
    ca8f:	8b 00                	mov    (%rax),%eax
    ca91:	89 c0                	mov    %eax,%eax
    ca93:	48 0b 85 a0 f3 ff ff 	or     -0xc60(%rbp),%rax
    ca9a:	48 85 c0             	test   %rax,%rax
    ca9d:	0f 84 6b 06 00 00    	je     d10e <func_11+0x1844>
    caa3:	48 8d 05 3e 96 00 00 	lea    0x963e(%rip),%rax        # 160e8 <g_91>
    caaa:	48 89 85 a8 f4 ff ff 	mov    %rax,-0xb58(%rbp)
    cab1:	c7 85 4c f3 ff ff 72 	movl   $0x472bf872,-0xcb4(%rbp)
    cab8:	f8 2b 47 
    cabb:	c6 85 f9 f2 ff ff 01 	movb   $0x1,-0xd07(%rbp)
    cac2:	c7 85 50 f3 ff ff 09 	movl   $0x9,-0xcb0(%rbp)
    cac9:	00 00 00 
    cacc:	48 c7 05 09 96 00 00 	movq   $0x0,0x9609(%rip)        # 160e0 <g_88>
    cad3:	00 00 00 00 
    cad7:	90                   	nop
    cad8:	48 8b 05 01 96 00 00 	mov    0x9601(%rip),%rax        # 160e0 <g_88>
    cadf:	48 83 f8 1b          	cmp    $0x1b,%rax
    cae3:	77 2d                	ja     cb12 <func_11+0x1248>
    cae5:	48 8b 05 e4 9e 00 00 	mov    0x9ee4(%rip),%rax        # 169d0 <g_104>
    caec:	48 8b 00             	mov    (%rax),%rax
    caef:	48 8b 00             	mov    (%rax),%rax
    caf2:	8b 08                	mov    (%rax),%ecx
    caf4:	48 83 bd 28 f4 ff ff 	cmpq   $0x0,-0xbd8(%rbp)
    cafb:	00 
    cafc:	0f 95 c2             	setne  %dl
    caff:	0f b6 d2             	movzbl %dl,%edx
    cb02:	21 ca                	and    %ecx,%edx
    cb04:	89 10                	mov    %edx,(%rax)
    cb06:	48 8b 85 e8 f3 ff ff 	mov    -0xc18(%rbp),%rax
    cb0d:	e9 8d 18 00 00       	jmpq   e39f <func_11+0x2ad5>
    cb12:	48 c7 05 c3 95 00 00 	movq   $0x0,0x95c3(%rip)        # 160e0 <g_88>
    cb19:	00 00 00 00 
    cb1d:	90                   	nop
    cb1e:	48 8b 05 bb 95 00 00 	mov    0x95bb(%rip),%rax        # 160e0 <g_88>
    cb25:	48 83 f8 14          	cmp    $0x14,%rax
    cb29:	0f 87 ad 05 00 00    	ja     d0dc <func_11+0x1812>
    cb2f:	48 8d 05 aa 95 00 00 	lea    0x95aa(%rip),%rax        # 160e0 <g_88>
    cb36:	48 89 85 b0 f4 ff ff 	mov    %rax,-0xb50(%rbp)
    cb3d:	66 c7 85 fc f2 ff ff 	movw   $0x4,-0xd04(%rbp)
    cb44:	04 00 
    cb46:	c7 85 54 f3 ff ff fe 	movl   $0xfffffffe,-0xcac(%rbp)
    cb4d:	ff ff ff 
    cb50:	48 8d 05 91 96 00 00 	lea    0x9691(%rip),%rax        # 161e8 <g_198+0xe8>
    cb57:	48 89 85 00 f8 ff ff 	mov    %rax,-0x800(%rbp)
    cb5e:	48 8d 05 e9 95 00 00 	lea    0x95e9(%rip),%rax        # 1614e <g_198+0x4e>
    cb65:	48 89 85 08 f8 ff ff 	mov    %rax,-0x7f8(%rbp)
    cb6c:	48 8d 05 db 95 00 00 	lea    0x95db(%rip),%rax        # 1614e <g_198+0x4e>
    cb73:	48 89 85 10 f8 ff ff 	mov    %rax,-0x7f0(%rbp)
    cb7a:	48 8d 85 fc f2 ff ff 	lea    -0xd04(%rbp),%rax
    cb81:	48 89 85 18 f8 ff ff 	mov    %rax,-0x7e8(%rbp)
    cb88:	48 8d 05 bf 95 00 00 	lea    0x95bf(%rip),%rax        # 1614e <g_198+0x4e>
    cb8f:	48 89 85 20 f8 ff ff 	mov    %rax,-0x7e0(%rbp)
    cb96:	48 8d 85 fc f2 ff ff 	lea    -0xd04(%rbp),%rax
    cb9d:	48 89 85 28 f8 ff ff 	mov    %rax,-0x7d8(%rbp)
    cba4:	48 8d 85 fc f2 ff ff 	lea    -0xd04(%rbp),%rax
    cbab:	48 89 85 30 f8 ff ff 	mov    %rax,-0x7d0(%rbp)
    cbb2:	48 8d 05 2f 96 00 00 	lea    0x962f(%rip),%rax        # 161e8 <g_198+0xe8>
    cbb9:	48 89 85 38 f8 ff ff 	mov    %rax,-0x7c8(%rbp)
    cbc0:	48 8d 05 87 95 00 00 	lea    0x9587(%rip),%rax        # 1614e <g_198+0x4e>
    cbc7:	48 89 85 40 f8 ff ff 	mov    %rax,-0x7c0(%rbp)
    cbce:	48 8d 05 13 96 00 00 	lea    0x9613(%rip),%rax        # 161e8 <g_198+0xe8>
    cbd5:	48 89 85 48 f8 ff ff 	mov    %rax,-0x7b8(%rbp)
    cbdc:	48 8d 85 fc f2 ff ff 	lea    -0xd04(%rbp),%rax
    cbe3:	48 89 85 50 f8 ff ff 	mov    %rax,-0x7b0(%rbp)
    cbea:	48 8d 85 fc f2 ff ff 	lea    -0xd04(%rbp),%rax
    cbf1:	48 89 85 58 f8 ff ff 	mov    %rax,-0x7a8(%rbp)
    cbf8:	48 8d 05 4f 95 00 00 	lea    0x954f(%rip),%rax        # 1614e <g_198+0x4e>
    cbff:	48 89 85 60 f8 ff ff 	mov    %rax,-0x7a0(%rbp)
    cc06:	48 8d 85 fc f2 ff ff 	lea    -0xd04(%rbp),%rax
    cc0d:	48 89 85 68 f8 ff ff 	mov    %rax,-0x798(%rbp)
    cc14:	48 8d 05 33 95 00 00 	lea    0x9533(%rip),%rax        # 1614e <g_198+0x4e>
    cc1b:	48 89 85 70 f8 ff ff 	mov    %rax,-0x790(%rbp)
    cc22:	48 8d 05 25 95 00 00 	lea    0x9525(%rip),%rax        # 1614e <g_198+0x4e>
    cc29:	48 89 85 78 f8 ff ff 	mov    %rax,-0x788(%rbp)
    cc30:	48 8d 05 b1 95 00 00 	lea    0x95b1(%rip),%rax        # 161e8 <g_198+0xe8>
    cc37:	48 89 85 80 f8 ff ff 	mov    %rax,-0x780(%rbp)
    cc3e:	48 8d 05 d5 94 00 00 	lea    0x94d5(%rip),%rax        # 1611a <g_198+0x1a>
    cc45:	48 89 85 88 f8 ff ff 	mov    %rax,-0x778(%rbp)
    cc4c:	48 8d 05 fb 94 00 00 	lea    0x94fb(%rip),%rax        # 1614e <g_198+0x4e>
    cc53:	48 89 85 90 f8 ff ff 	mov    %rax,-0x770(%rbp)
    cc5a:	48 8d 05 ed 94 00 00 	lea    0x94ed(%rip),%rax        # 1614e <g_198+0x4e>
    cc61:	48 89 85 98 f8 ff ff 	mov    %rax,-0x768(%rbp)
    cc68:	48 8d 05 ab 94 00 00 	lea    0x94ab(%rip),%rax        # 1611a <g_198+0x1a>
    cc6f:	48 89 85 a0 f8 ff ff 	mov    %rax,-0x760(%rbp)
    cc76:	48 8d 05 6b 95 00 00 	lea    0x956b(%rip),%rax        # 161e8 <g_198+0xe8>
    cc7d:	48 89 85 a8 f8 ff ff 	mov    %rax,-0x758(%rbp)
    cc84:	48 8d 05 c3 94 00 00 	lea    0x94c3(%rip),%rax        # 1614e <g_198+0x4e>
    cc8b:	48 89 85 b0 f8 ff ff 	mov    %rax,-0x750(%rbp)
    cc92:	48 8d 05 b5 94 00 00 	lea    0x94b5(%rip),%rax        # 1614e <g_198+0x4e>
    cc99:	48 89 85 b8 f8 ff ff 	mov    %rax,-0x748(%rbp)
    cca0:	48 8d 85 fc f2 ff ff 	lea    -0xd04(%rbp),%rax
    cca7:	48 89 85 c0 f8 ff ff 	mov    %rax,-0x740(%rbp)
    ccae:	48 8d 05 99 94 00 00 	lea    0x9499(%rip),%rax        # 1614e <g_198+0x4e>
    ccb5:	48 89 85 c8 f8 ff ff 	mov    %rax,-0x738(%rbp)
    ccbc:	48 8d 85 fc f2 ff ff 	lea    -0xd04(%rbp),%rax
    ccc3:	48 89 85 d0 f8 ff ff 	mov    %rax,-0x730(%rbp)
    ccca:	48 8d 05 5b 95 00 00 	lea    0x955b(%rip),%rax        # 1622c <g_549>
    ccd1:	48 89 85 b8 f4 ff ff 	mov    %rax,-0xb48(%rbp)
    ccd8:	0f b7 05 6f 94 00 00 	movzwl 0x946f(%rip),%eax        # 1614e <g_198+0x4e>
    ccdf:	98                   	cwtl   
    cce0:	89 c6                	mov    %eax,%esi
    cce2:	bf f7 ff ff ff       	mov    $0xfffffff7,%edi
    cce7:	e8 c7 76 ff ff       	callq  43b3 <safe_add_func_int16_t_s_s>
    ccec:	0f bf d0             	movswl %ax,%edx
    ccef:	48 8b 85 78 f3 ff ff 	mov    -0xc88(%rbp),%rax
    ccf6:	48 8b 00             	mov    (%rax),%rax
    ccf9:	f7 d2                	not    %edx
    ccfb:	89 10                	mov    %edx,(%rax)
    ccfd:	0f b7 05 cc 94 00 00 	movzwl 0x94cc(%rip),%eax        # 161d0 <g_198+0xd0>
    cd04:	0f bf d8             	movswl %ax,%ebx
    cd07:	0f b6 05 a6 93 00 00 	movzbl 0x93a6(%rip),%eax        # 160b4 <g_53>
    cd0e:	44 0f be e0          	movsbl %al,%r12d
    cd12:	48 8d 05 ff 94 00 00 	lea    0x94ff(%rip),%rax        # 16218 <g_237>
    cd19:	48 39 85 00 f4 ff ff 	cmp    %rax,-0xc00(%rbp)
    cd20:	74 10                	je     cd32 <func_11+0x1468>
    cd22:	83 bd ec f2 ff ff 00 	cmpl   $0x0,-0xd14(%rbp)
    cd29:	74 07                	je     cd32 <func_11+0x1468>
    cd2b:	b8 01 00 00 00       	mov    $0x1,%eax
    cd30:	eb 05                	jmp    cd37 <func_11+0x146d>
    cd32:	b8 00 00 00 00       	mov    $0x0,%eax
    cd37:	48 63 d0             	movslq %eax,%rdx
    cd3a:	48 8b 85 f0 f3 ff ff 	mov    -0xc10(%rbp),%rax
    cd41:	48 89 10             	mov    %rdx,(%rax)
    cd44:	48 8b 85 f0 f3 ff ff 	mov    -0xc10(%rbp),%rax
    cd4b:	48 8b 00             	mov    (%rax),%rax
    cd4e:	8b 15 a0 93 00 00    	mov    0x93a0(%rip),%edx        # 160f4 <g_124>
    cd54:	89 d2                	mov    %edx,%edx
    cd56:	48 39 d0             	cmp    %rdx,%rax
    cd59:	0f 95 c0             	setne  %al
    cd5c:	0f b6 d0             	movzbl %al,%edx
    cd5f:	b8 db 64 f3 1c       	mov    $0x1cf364db,%eax
    cd64:	0f be c0             	movsbl %al,%eax
    cd67:	89 d6                	mov    %edx,%esi
    cd69:	89 c7                	mov    %eax,%edi
    cd6b:	e8 a2 74 ff ff       	callq  4212 <safe_mul_func_int8_t_s_s>
    cd70:	0f be c0             	movsbl %al,%eax
    cd73:	44 89 e6             	mov    %r12d,%esi
    cd76:	89 c7                	mov    %eax,%edi
    cd78:	e8 75 74 ff ff       	callq  41f2 <safe_sub_func_int8_t_s_s>
    cd7d:	66 98                	cbtw   
    cd7f:	0f b7 c0             	movzwl %ax,%eax
    cd82:	89 de                	mov    %ebx,%esi
    cd84:	89 c7                	mov    %eax,%edi
    cd86:	e8 33 80 ff ff       	callq  4dbe <safe_lshift_func_uint16_t_u_s>
    cd8b:	0f b6 d0             	movzbl %al,%edx
    cd8e:	48 8d 05 1f 93 00 00 	lea    0x931f(%rip),%rax        # 160b4 <g_53>
    cd95:	0f b6 00             	movzbl (%rax),%eax
    cd98:	0f b6 c0             	movzbl %al,%eax
    cd9b:	89 d6                	mov    %edx,%esi
    cd9d:	89 c7                	mov    %eax,%edi
    cd9f:	e8 0a 7e ff ff       	callq  4bae <safe_mod_func_uint8_t_u_u>
    cda4:	0f b6 c0             	movzbl %al,%eax
    cda7:	89 85 4c f3 ff ff    	mov    %eax,-0xcb4(%rbp)
    cdad:	8b 95 4c f3 ff ff    	mov    -0xcb4(%rbp),%edx
    cdb3:	48 8b 85 a8 f3 ff ff 	mov    -0xc58(%rbp),%rax
    cdba:	8b 00                	mov    (%rax),%eax
    cdbc:	31 c2                	xor    %eax,%edx
    cdbe:	48 8b 85 a8 f3 ff ff 	mov    -0xc58(%rbp),%rax
    cdc5:	89 10                	mov    %edx,(%rax)
    cdc7:	48 8b 85 a8 f3 ff ff 	mov    -0xc58(%rbp),%rax
    cdce:	8b 00                	mov    (%rax),%eax
    cdd0:	be 7e 6e 78 c2       	mov    $0xc2786e7e,%esi
    cdd5:	89 c7                	mov    %eax,%edi
    cdd7:	e8 f0 78 ff ff       	callq  46cc <safe_mod_func_int32_t_s_s>
    cddc:	39 85 ec f2 ff ff    	cmp    %eax,-0xd14(%rbp)
    cde2:	0f 95 c0             	setne  %al
    cde5:	0f b6 d0             	movzbl %al,%edx
    cde8:	0f b6 05 c5 92 00 00 	movzbl 0x92c5(%rip),%eax        # 160b4 <g_53>
    cdef:	0f b6 c0             	movzbl %al,%eax
    cdf2:	39 c2                	cmp    %eax,%edx
    cdf4:	66 c7 85 fc f2 ff ff 	movw   $0xffff,-0xd04(%rbp)
    cdfb:	ff ff 
    cdfd:	bf 01 00 00 00       	mov    $0x1,%edi
    ce02:	e8 12 82 ff ff       	callq  5019 <safe_unary_minus_func_uint64_t_u>
    ce07:	48 89 c6             	mov    %rax,%rsi
    ce0a:	48 c7 c7 ff ff ff ff 	mov    $0xffffffffffffffff,%rdi
    ce11:	e8 35 82 ff ff       	callq  504b <safe_sub_func_uint64_t_u_u>
    ce16:	89 85 40 f3 ff ff    	mov    %eax,-0xcc0(%rbp)
    ce1c:	48 8b 05 b5 9b 00 00 	mov    0x9bb5(%rip),%rax        # 169d8 <g_280>
    ce23:	0f b6 00             	movzbl (%rax),%eax
    ce26:	0f be d8             	movsbl %al,%ebx
    ce29:	8b 85 ec f2 ff ff    	mov    -0xd14(%rbp),%eax
    ce2f:	44 0f bf e0          	movswl %ax,%r12d
    ce33:	8b 85 38 f9 ff ff    	mov    -0x6c8(%rbp),%eax
    ce39:	89 85 e8 f2 ff ff    	mov    %eax,-0xd18(%rbp)
    ce3f:	8b 85 ec f2 ff ff    	mov    -0xd14(%rbp),%eax
    ce45:	44 0f b7 e8          	movzwl %ax,%r13d
    ce49:	8b 85 ec f2 ff ff    	mov    -0xd14(%rbp),%eax
    ce4f:	89 c2                	mov    %eax,%edx
    ce51:	48 8b 85 00 f4 ff ff 	mov    -0xc00(%rbp),%rax
    ce58:	66 89 10             	mov    %dx,(%rax)
    ce5b:	48 8b 85 00 f4 ff ff 	mov    -0xc00(%rbp),%rax
    ce62:	0f b7 00             	movzwl (%rax),%eax
    ce65:	0f b7 d0             	movzwl %ax,%edx
    ce68:	48 8b 85 e8 f4 ff ff 	mov    -0xb18(%rbp),%rax
    ce6f:	48 85 c0             	test   %rax,%rax
    ce72:	0f 95 c0             	setne  %al
    ce75:	0f b6 c0             	movzbl %al,%eax
    ce78:	66 89 05 8d 93 00 00 	mov    %ax,0x938d(%rip)        # 1620c <g_198+0x10c>
    ce7f:	0f b7 05 86 93 00 00 	movzwl 0x9386(%rip),%eax        # 1620c <g_198+0x10c>
    ce86:	98                   	cwtl   
    ce87:	39 c2                	cmp    %eax,%edx
    ce89:	74 07                	je     ce92 <func_11+0x15c8>
    ce8b:	b8 01 00 00 00       	mov    $0x1,%eax
    ce90:	eb 05                	jmp    ce97 <func_11+0x15cd>
    ce92:	b8 00 00 00 00       	mov    $0x0,%eax
    ce97:	21 85 54 f3 ff ff    	and    %eax,-0xcac(%rbp)
    ce9d:	44 8b b5 ec f2 ff ff 	mov    -0xd14(%rbp),%r14d
    cea4:	44 0f b6 bd f9 f2 ff 	movzbl -0xd07(%rbp),%r15d
    ceab:	ff 
    ceac:	8b 85 ec f2 ff ff    	mov    -0xd14(%rbp),%eax
    ceb2:	0f be c0             	movsbl %al,%eax
    ceb5:	89 85 e0 f2 ff ff    	mov    %eax,-0xd20(%rbp)
    cebb:	8b 05 2f 92 00 00    	mov    0x922f(%rip),%eax        # 160f0 <g_107>
    cec1:	48 63 c8             	movslq %eax,%rcx
    cec4:	48 89 8d d8 f2 ff ff 	mov    %rcx,-0xd28(%rbp)
    cecb:	8b 85 ec f2 ff ff    	mov    -0xd14(%rbp),%eax
    ced1:	0f bf f8             	movswl %ax,%edi
    ced4:	89 bd d0 f2 ff ff    	mov    %edi,-0xd30(%rbp)
    ceda:	0f b7 85 fc f2 ff ff 	movzwl -0xd04(%rbp),%eax
    cee1:	98                   	cwtl   
    cee2:	48 8b 15 df 9a 00 00 	mov    0x9adf(%rip),%rdx        # 169c8 <g_105>
    cee9:	48 8b 12             	mov    (%rdx),%rdx
    ceec:	8b 12                	mov    (%rdx),%edx
    ceee:	33 95 ec f2 ff ff    	xor    -0xd14(%rbp),%edx
    cef4:	89 c6                	mov    %eax,%esi
    cef6:	89 d7                	mov    %edx,%edi
    cef8:	e8 08 77 ff ff       	callq  4605 <safe_sub_func_int32_t_s_s>
    cefd:	0f b6 15 b0 91 00 00 	movzbl 0x91b0(%rip),%edx        # 160b4 <g_53>
    cf04:	0f b6 d2             	movzbl %dl,%edx
    cf07:	39 d0                	cmp    %edx,%eax
    cf09:	0f 95 c2             	setne  %dl
    cf0c:	48 8b 85 80 f3 ff ff 	mov    -0xc80(%rbp),%rax
    cf13:	48 8b 00             	mov    (%rax),%rax
    cf16:	48 8b 00             	mov    (%rax),%rax
    cf19:	0f b6 d2             	movzbl %dl,%edx
    cf1c:	89 10                	mov    %edx,(%rax)
    cf1e:	8b 00                	mov    (%rax),%eax
    cf20:	39 85 ec f2 ff ff    	cmp    %eax,-0xd14(%rbp)
    cf26:	0f 92 c0             	setb   %al
    cf29:	0f b6 c0             	movzbl %al,%eax
    cf2c:	f7 d0                	not    %eax
    cf2e:	89 c2                	mov    %eax,%edx
    cf30:	48 8b 85 e8 f3 ff ff 	mov    -0xc18(%rbp),%rax
    cf37:	89 10                	mov    %edx,(%rax)
    cf39:	48 8b 85 e8 f3 ff ff 	mov    -0xc18(%rbp),%rax
    cf40:	8b 00                	mov    (%rax),%eax
    cf42:	89 c2                	mov    %eax,%edx
    cf44:	8b 85 ec f2 ff ff    	mov    -0xd14(%rbp),%eax
    cf4a:	09 d0                	or     %edx,%eax
    cf4c:	98                   	cwtl   
    cf4d:	8b b5 d0 f2 ff ff    	mov    -0xd30(%rbp),%esi
    cf53:	89 c7                	mov    %eax,%edi
    cf55:	e8 fb 74 ff ff       	callq  4455 <safe_div_func_int16_t_s_s>
    cf5a:	48 0f bf c0          	movswq %ax,%rax
    cf5e:	48 be 70 03 3f ec 1c 	movabs $0x4fe9231cec3f0370,%rsi
    cf65:	23 e9 4f 
    cf68:	48 89 c7             	mov    %rax,%rdi
    cf6b:	e8 44 7a ff ff       	callq  49b4 <safe_mod_func_int64_t_s_s>
    cf70:	48 39 85 d8 f2 ff ff 	cmp    %rax,-0xd28(%rbp)
    cf77:	0f 9c c0             	setl   %al
    cf7a:	0f b6 c0             	movzbl %al,%eax
    cf7d:	8b b5 e0 f2 ff ff    	mov    -0xd20(%rbp),%esi
    cf83:	89 c7                	mov    %eax,%edi
    cf85:	e8 a7 72 ff ff       	callq  4231 <safe_mod_func_int8_t_s_s>
    cf8a:	0f be c0             	movsbl %al,%eax
    cf8d:	39 85 ec f2 ff ff    	cmp    %eax,-0xd14(%rbp)
    cf93:	0f 97 c0             	seta   %al
    cf96:	0f b6 c0             	movzbl %al,%eax
    cf99:	be f6 ff ff ff       	mov    $0xfffffff6,%esi
    cf9e:	89 c7                	mov    %eax,%edi
    cfa0:	e8 2f 72 ff ff       	callq  41d4 <safe_add_func_int8_t_s_s>
    cfa5:	0f be d0             	movsbl %al,%edx
    cfa8:	48 8b 85 a8 f3 ff ff 	mov    -0xc58(%rbp),%rax
    cfaf:	89 10                	mov    %edx,(%rax)
    cfb1:	8b 95 ec f2 ff ff    	mov    -0xd14(%rbp),%edx
    cfb7:	48 8b 85 f0 f3 ff ff 	mov    -0xc10(%rbp),%rax
    cfbe:	48 89 10             	mov    %rdx,(%rax)
    cfc1:	48 8b 85 f0 f3 ff ff 	mov    -0xc10(%rbp),%rax
    cfc8:	48 8b 00             	mov    (%rax),%rax
    cfcb:	89 c2                	mov    %eax,%edx
    cfcd:	8b 05 fd 90 00 00    	mov    0x90fd(%rip),%eax        # 160d0 <g_64+0x10>
    cfd3:	09 d0                	or     %edx,%eax
    cfd5:	89 c2                	mov    %eax,%edx
    cfd7:	48 8b 85 b8 f4 ff ff 	mov    -0xb48(%rbp),%rax
    cfde:	66 89 10             	mov    %dx,(%rax)
    cfe1:	48 8b 85 b8 f4 ff ff 	mov    -0xb48(%rbp),%rax
    cfe8:	0f b7 00             	movzwl (%rax),%eax
    cfeb:	0f b7 d0             	movzwl %ax,%edx
    cfee:	0f b6 05 a0 90 00 00 	movzbl 0x90a0(%rip),%eax        # 16095 <g_19+0x55>
    cff5:	0f b6 c0             	movzbl %al,%eax
    cff8:	09 d0                	or     %edx,%eax
    cffa:	48 63 d0             	movslq %eax,%rdx
    cffd:	48 8b 05 dc 90 00 00 	mov    0x90dc(%rip),%rax        # 160e0 <g_88>
    d004:	48 39 c2             	cmp    %rax,%rdx
    d007:	0f 95 c0             	setne  %al
    d00a:	0f b6 c0             	movzbl %al,%eax
    d00d:	be 07 00 00 00       	mov    $0x7,%esi
    d012:	89 c7                	mov    %eax,%edi
    d014:	e8 53 73 ff ff       	callq  436c <safe_rshift_func_int8_t_s_u>
    d019:	0f be c0             	movsbl %al,%eax
    d01c:	39 85 ec f2 ff ff    	cmp    %eax,-0xd14(%rbp)
    d022:	0f 92 c0             	setb   %al
    d025:	0f b6 c0             	movzbl %al,%eax
    d028:	39 85 ec f2 ff ff    	cmp    %eax,-0xd14(%rbp)
    d02e:	0f 92 c0             	setb   %al
    d031:	0f b6 c0             	movzbl %al,%eax
    d034:	44 89 fe             	mov    %r15d,%esi
    d037:	89 c7                	mov    %eax,%edi
    d039:	e8 92 7e ff ff       	callq  4ed0 <safe_sub_func_uint32_t_u_u>
    d03e:	44 89 f6             	mov    %r14d,%esi
    d041:	89 c7                	mov    %eax,%edi
    d043:	e8 bd 75 ff ff       	callq  4605 <safe_sub_func_int32_t_s_s>
    d048:	66 89 85 f4 f6 ff ff 	mov    %ax,-0x90c(%rbp)
    d04f:	44 89 ee             	mov    %r13d,%esi
    d052:	bf 09 00 00 00       	mov    $0x9,%edi
    d057:	e8 32 7d ff ff       	callq  4d8e <safe_div_func_uint16_t_u_u>
    d05c:	0f b7 c0             	movzwl %ax,%eax
    d05f:	be 09 00 00 00       	mov    $0x9,%esi
    d064:	89 c7                	mov    %eax,%edi
    d066:	e8 65 7e ff ff       	callq  4ed0 <safe_sub_func_uint32_t_u_u>
    d06b:	8b b5 e8 f2 ff ff    	mov    -0xd18(%rbp),%esi
    d071:	bf f4 ef 00 00       	mov    $0xeff4,%edi
    d076:	e8 ff 7d ff ff       	callq  4e7a <safe_rshift_func_uint16_t_u_u>
    d07b:	44 89 e6             	mov    %r12d,%esi
    d07e:	bf 00 00 00 00       	mov    $0x0,%edi
    d083:	e8 6d 73 ff ff       	callq  43f5 <safe_mul_func_int16_t_s_s>
    d088:	98                   	cwtl   
    d089:	39 85 ec f2 ff ff    	cmp    %eax,-0xd14(%rbp)
    d08f:	77 0c                	ja     d09d <func_11+0x17d3>
    d091:	48 8d 05 1c 90 00 00 	lea    0x901c(%rip),%rax        # 160b4 <g_53>
    d098:	0f b6 00             	movzbl (%rax),%eax
    d09b:	84 c0                	test   %al,%al
    d09d:	48 8b 85 d0 f3 ff ff 	mov    -0xc30(%rbp),%rax
    d0a4:	48 3b 85 f0 f3 ff ff 	cmp    -0xc10(%rbp),%rax
    d0ab:	0f 95 c0             	setne  %al
    d0ae:	0f b6 c0             	movzbl %al,%eax
    d0b1:	89 de                	mov    %ebx,%esi
    d0b3:	89 c7                	mov    %eax,%edi
    d0b5:	e8 58 71 ff ff       	callq  4212 <safe_mul_func_int8_t_s_s>
    d0ba:	0f be c0             	movsbl %al,%eax
    d0bd:	09 85 40 f3 ff ff    	or     %eax,-0xcc0(%rbp)
    d0c3:	83 bd ec f2 ff ff 00 	cmpl   $0x0,-0xd14(%rbp)
    d0ca:	75 0f                	jne    d0db <func_11+0x1811>
    d0cc:	48 8d 05 5d a8 00 00 	lea    0xa85d(%rip),%rax        # 17930 <g_365>
    d0d3:	48 8b 00             	mov    (%rax),%rax
    d0d6:	e9 c4 12 00 00       	jmpq   e39f <func_11+0x2ad5>
    d0db:	90                   	nop
    d0dc:	c7 85 08 f3 ff ff 00 	movl   $0x0,-0xcf8(%rbp)
    d0e3:	00 00 00 
    d0e6:	eb 18                	jmp    d100 <func_11+0x1836>
    d0e8:	c7 85 58 f3 ff ff f9 	movl   $0xfffffff9,-0xca8(%rbp)
    d0ef:	ff ff ff 
    d0f2:	83 85 58 f3 ff ff 01 	addl   $0x1,-0xca8(%rbp)
    d0f9:	83 85 08 f3 ff ff 01 	addl   $0x1,-0xcf8(%rbp)
    d100:	83 bd 08 f3 ff ff 2c 	cmpl   $0x2c,-0xcf8(%rbp)
    d107:	77 df                	ja     d0e8 <func_11+0x181e>
    d109:	e9 27 07 00 00       	jmpq   d835 <func_11+0x1f6b>
    d10e:	c7 85 00 f8 ff ff 00 	movl   $0xab0100,-0x800(%rbp)
    d115:	01 ab 00 
    d118:	c7 85 04 f8 ff ff c5 	movl   $0x72b98dc5,-0x7fc(%rbp)
    d11f:	8d b9 72 
    d122:	c7 85 08 f8 ff ff 00 	movl   $0x156b900,-0x7f8(%rbp)
    d129:	b9 56 01 
    d12c:	c7 85 0c f8 ff ff 00 	movl   $0x73b90000,-0x7f4(%rbp)
    d133:	00 b9 73 
    d136:	c7 85 10 f8 ff ff c5 	movl   $0xc50101c5,-0x7f0(%rbp)
    d13d:	01 01 c5 
    d140:	c7 85 14 f8 ff ff 66 	movl   $0x33c5ff66,-0x7ec(%rbp)
    d147:	ff c5 33 
    d14a:	c7 85 18 f8 ff ff 56 	movl   $0xb747356,-0x7e8(%rbp)
    d151:	73 74 0b 
    d154:	c7 85 1c f8 ff ff 00 	movl   $0xbd87200,-0x7e4(%rbp)
    d15b:	72 d8 0b 
    d15e:	c7 85 20 f8 ff ff ff 	movl   $0x335973ff,-0x7e0(%rbp)
    d165:	73 59 33 
    d168:	c7 85 24 f8 ff ff 00 	movl   $0xc500ff00,-0x7dc(%rbp)
    d16f:	ff 00 c5 
    d172:	c7 85 28 f8 ff ff d8 	movl   $0x730001d8,-0x7d8(%rbp)
    d179:	01 00 73 
    d17c:	c7 85 2c f8 ff ff 0b 	movl   $0x133000b,-0x7d4(%rbp)
    d183:	00 33 01 
    d186:	c7 85 30 f8 ff ff ab 	movl   $0x7233b9ab,-0x7d0(%rbp)
    d18d:	b9 33 72 
    d190:	c7 85 34 f8 ff ff 0b 	movl   $0x8d0b,-0x7cc(%rbp)
    d197:	8d 00 00 
    d19a:	c7 85 38 f8 ff ff d8 	movl   $0xab00d8d8,-0x7c8(%rbp)
    d1a1:	d8 00 ab 
    d1a4:	c7 85 3c f8 ff ff 00 	movl   $0xff59ab00,-0x7c4(%rbp)
    d1ab:	ab 59 ff 
    d1ae:	c7 85 40 f8 ff ff ff 	movl   $0x59d856ff,-0x7c0(%rbp)
    d1b5:	56 d8 59 
    d1b8:	c7 85 44 f8 ff ff 00 	movl   $0xff745600,-0x7bc(%rbp)
    d1bf:	56 74 ff 
    d1c2:	c7 85 48 f8 ff ff 56 	movl   $0xabc5ab56,-0x7b8(%rbp)
    d1c9:	ab c5 ab 
    d1cc:	c7 85 4c f8 ff ff 66 	movl   $0x1d866,-0x7b4(%rbp)
    d1d3:	d8 01 00 
    d1d6:	c7 85 50 f8 ff ff c5 	movl   $0x72b98dc5,-0x7b0(%rbp)
    d1dd:	8d b9 72 
    d1e0:	c7 85 54 f8 ff ff 00 	movl   $0x156b900,-0x7ac(%rbp)
    d1e7:	b9 56 01 
    d1ea:	c7 85 58 f8 ff ff 00 	movl   $0x73b90000,-0x7a8(%rbp)
    d1f1:	00 b9 73 
    d1f4:	c7 85 5c f8 ff ff c5 	movl   $0xc50101c5,-0x7a4(%rbp)
    d1fb:	01 01 c5 
    d1fe:	48 8d 85 00 f8 ff ff 	lea    -0x800(%rbp),%rax
    d205:	48 83 c0 0a          	add    $0xa,%rax
    d209:	48 89 85 e0 f5 ff ff 	mov    %rax,-0xa20(%rbp)
    d210:	48 8d 85 00 f8 ff ff 	lea    -0x800(%rbp),%rax
    d217:	48 83 c0 0a          	add    $0xa,%rax
    d21b:	48 89 85 e8 f5 ff ff 	mov    %rax,-0xa18(%rbp)
    d222:	48 8d 85 00 f8 ff ff 	lea    -0x800(%rbp),%rax
    d229:	48 83 c0 0a          	add    $0xa,%rax
    d22d:	48 89 85 f0 f5 ff ff 	mov    %rax,-0xa10(%rbp)
    d234:	48 8d 85 00 f8 ff ff 	lea    -0x800(%rbp),%rax
    d23b:	48 83 c0 0a          	add    $0xa,%rax
    d23f:	48 89 85 f8 f5 ff ff 	mov    %rax,-0xa08(%rbp)
    d246:	48 8d 85 00 f8 ff ff 	lea    -0x800(%rbp),%rax
    d24d:	48 83 c0 0a          	add    $0xa,%rax
    d251:	48 89 85 00 f6 ff ff 	mov    %rax,-0xa00(%rbp)
    d258:	48 8d 85 00 f8 ff ff 	lea    -0x800(%rbp),%rax
    d25f:	48 83 c0 0a          	add    $0xa,%rax
    d263:	48 89 85 08 f6 ff ff 	mov    %rax,-0x9f8(%rbp)
    d26a:	48 c7 85 70 f4 ff ff 	movq   $0x0,-0xb90(%rbp)
    d271:	00 00 00 00 
    d275:	81 bd ec f2 ff ff f8 	cmpl   $0xf8,-0xd14(%rbp)
    d27c:	00 00 00 
    d27f:	0f 97 c0             	seta   %al
    d282:	0f b6 c0             	movzbl %al,%eax
    d285:	89 85 e8 f2 ff ff    	mov    %eax,-0xd18(%rbp)
    d28b:	48 8b 05 4e 8e 00 00 	mov    0x8e4e(%rip),%rax        # 160e0 <g_88>
    d292:	48 89 85 e0 f2 ff ff 	mov    %rax,-0xd20(%rbp)
    d299:	0f b6 05 14 8e 00 00 	movzbl 0x8e14(%rip),%eax        # 160b4 <g_53>
    d2a0:	0f b6 d8             	movzbl %al,%ebx
    d2a3:	8b 85 ec f2 ff ff    	mov    -0xd14(%rbp),%eax
    d2a9:	44 0f be e0          	movsbl %al,%r12d
    d2ad:	83 bd ec f2 ff ff 00 	cmpl   $0x0,-0xd14(%rbp)
    d2b4:	0f 84 e1 00 00 00    	je     d39b <func_11+0x1ad1>
    d2ba:	0f b6 85 0a f8 ff ff 	movzbl -0x7f6(%rbp),%eax
    d2c1:	44 0f b6 e8          	movzbl %al,%r13d
    d2c5:	48 8b 85 78 f3 ff ff 	mov    -0xc88(%rbp),%rax
    d2cc:	48 8b 00             	mov    (%rax),%rax
    d2cf:	8b 00                	mov    (%rax),%eax
    d2d1:	44 0f bf f0          	movswl %ax,%r14d
    d2d5:	0f b7 05 72 8e 00 00 	movzwl 0x8e72(%rip),%eax        # 1614e <g_198+0x4e>
    d2dc:	44 0f bf f8          	movswl %ax,%r15d
    d2e0:	8b 85 ec f2 ff ff    	mov    -0xd14(%rbp),%eax
    d2e6:	0f b6 c0             	movzbl %al,%eax
    d2e9:	89 85 d8 f2 ff ff    	mov    %eax,-0xd28(%rbp)
    d2ef:	8b 85 ec f2 ff ff    	mov    -0xd14(%rbp),%eax
    d2f5:	0f b7 c0             	movzwl %ax,%eax
    d2f8:	be 06 00 00 00       	mov    $0x6,%esi
    d2fd:	89 c7                	mov    %eax,%edi
    d2ff:	e8 ba 7a ff ff       	callq  4dbe <safe_lshift_func_uint16_t_u_s>
    d304:	89 c2                	mov    %eax,%edx
    d306:	48 8b 85 60 f3 ff ff 	mov    -0xca0(%rbp),%rax
    d30d:	88 10                	mov    %dl,(%rax)
    d30f:	0f b6 00             	movzbl (%rax),%eax
    d312:	0f b6 c0             	movzbl %al,%eax
    d315:	be d6 00 00 00       	mov    $0xd6,%esi
    d31a:	89 c7                	mov    %eax,%edi
    d31c:	e8 72 78 ff ff       	callq  4b93 <safe_mul_func_uint8_t_u_u>
    d321:	48 8b 05 b0 96 00 00 	mov    0x96b0(%rip),%rax        # 169d8 <g_280>
    d328:	48 85 c0             	test   %rax,%rax
    d32b:	0f 95 c0             	setne  %al
    d32e:	0f b6 c0             	movzbl %al,%eax
    d331:	8b b5 d8 f2 ff ff    	mov    -0xd28(%rbp),%esi
    d337:	89 c7                	mov    %eax,%edi
    d339:	e8 70 78 ff ff       	callq  4bae <safe_mod_func_uint8_t_u_u>
    d33e:	48 8d 15 6f 8d 00 00 	lea    0x8d6f(%rip),%rdx        # 160b4 <g_53>
    d345:	0f b6 12             	movzbl (%rdx),%edx
    d348:	38 d0                	cmp    %dl,%al
    d34a:	0f 95 c0             	setne  %al
    d34d:	0f b6 c0             	movzbl %al,%eax
    d350:	44 89 fe             	mov    %r15d,%esi
    d353:	89 c7                	mov    %eax,%edi
    d355:	e8 ac 7a ff ff       	callq  4e06 <safe_lshift_func_uint16_t_u_u>
    d35a:	66 85 c0             	test   %ax,%ax
    d35d:	74 12                	je     d371 <func_11+0x1aa7>
    d35f:	0f b6 05 fc 8c 00 00 	movzbl 0x8cfc(%rip),%eax        # 16062 <g_19+0x22>
    d366:	84 c0                	test   %al,%al
    d368:	74 07                	je     d371 <func_11+0x1aa7>
    d36a:	b8 01 00 00 00       	mov    $0x1,%eax
    d36f:	eb 05                	jmp    d376 <func_11+0x1aac>
    d371:	b8 00 00 00 00       	mov    $0x0,%eax
    d376:	98                   	cwtl   
    d377:	44 89 f6             	mov    %r14d,%esi
    d37a:	89 c7                	mov    %eax,%edi
    d37c:	e8 74 70 ff ff       	callq  43f5 <safe_mul_func_int16_t_s_s>
    d381:	98                   	cwtl   
    d382:	be f9 ff ff ff       	mov    $0xfffffff9,%esi
    d387:	89 c7                	mov    %eax,%edi
    d389:	e8 67 70 ff ff       	callq  43f5 <safe_mul_func_int16_t_s_s>
    d38e:	44 89 ee             	mov    %r13d,%esi
    d391:	bf 9b 00 00 00       	mov    $0x9b,%edi
    d396:	e8 40 78 ff ff       	callq  4bdb <safe_div_func_uint8_t_u_u>
    d39b:	b8 00 00 00 00       	mov    $0x0,%eax
    d3a0:	48 8b 15 b1 a5 00 00 	mov    0xa5b1(%rip),%rdx        # 17958 <g_596+0x18>
    d3a7:	48 98                	cltq   
    d3a9:	48 31 d0             	xor    %rdx,%rax
    d3ac:	48 89 05 a5 a5 00 00 	mov    %rax,0xa5a5(%rip)        # 17958 <g_596+0x18>
    d3b3:	48 8b 05 9e a5 00 00 	mov    0xa59e(%rip),%rax        # 17958 <g_596+0x18>
    d3ba:	0f be c0             	movsbl %al,%eax
    d3bd:	48 8b 95 70 f3 ff ff 	mov    -0xc90(%rbp),%rdx
    d3c4:	c6 02 e2             	movb   $0xe2,(%rdx)
    d3c7:	89 c6                	mov    %eax,%esi
    d3c9:	bf e2 ff ff ff       	mov    $0xffffffe2,%edi
    d3ce:	e8 3f 6e ff ff       	callq  4212 <safe_mul_func_int8_t_s_s>
    d3d3:	44 89 e6             	mov    %r12d,%esi
    d3d6:	bf 01 00 00 00       	mov    $0x1,%edi
    d3db:	e8 12 6e ff ff       	callq  41f2 <safe_sub_func_int8_t_s_s>
    d3e0:	66 98                	cbtw   
    d3e2:	0f b7 c0             	movzwl %ax,%eax
    d3e5:	89 de                	mov    %ebx,%esi
    d3e7:	89 c7                	mov    %eax,%edi
    d3e9:	e8 8c 7a ff ff       	callq  4e7a <safe_rshift_func_uint16_t_u_u>
    d3ee:	66 83 f8 05          	cmp    $0x5,%ax
    d3f2:	0f 96 c0             	setbe  %al
    d3f5:	0f b6 c0             	movzbl %al,%eax
    d3f8:	48 8b b5 e0 f2 ff ff 	mov    -0xd20(%rbp),%rsi
    d3ff:	48 89 c7             	mov    %rax,%rdi
    d402:	e8 a1 74 ff ff       	callq  48a8 <safe_sub_func_int64_t_s_s>
    d407:	48 85 c0             	test   %rax,%rax
    d40a:	74 10                	je     d41c <func_11+0x1b52>
    d40c:	83 bd ec f2 ff ff 00 	cmpl   $0x0,-0xd14(%rbp)
    d413:	74 07                	je     d41c <func_11+0x1b52>
    d415:	b8 01 00 00 00       	mov    $0x1,%eax
    d41a:	eb 05                	jmp    d421 <func_11+0x1b57>
    d41c:	b8 00 00 00 00       	mov    $0x0,%eax
    d421:	83 f8 5d             	cmp    $0x5d,%eax
    d424:	0f 9f c0             	setg   %al
    d427:	0f b6 d0             	movzbl %al,%edx
    d42a:	8b 05 98 8c 00 00    	mov    0x8c98(%rip),%eax        # 160c8 <g_64+0x8>
    d430:	39 c2                	cmp    %eax,%edx
    d432:	0f 92 c0             	setb   %al
    d435:	0f b6 d0             	movzbl %al,%edx
    d438:	48 8b 85 00 f4 ff ff 	mov    -0xc00(%rbp),%rax
    d43f:	66 89 10             	mov    %dx,(%rax)
    d442:	48 8b 85 00 f4 ff ff 	mov    -0xc00(%rbp),%rax
    d449:	0f b7 00             	movzwl (%rax),%eax
    d44c:	66 85 c0             	test   %ax,%ax
    d44f:	75 0c                	jne    d45d <func_11+0x1b93>
    d451:	0f b7 85 fa f2 ff ff 	movzwl -0xd06(%rbp),%eax
    d458:	66 85 c0             	test   %ax,%ax
    d45b:	74 07                	je     d464 <func_11+0x1b9a>
    d45d:	b8 01 00 00 00       	mov    $0x1,%eax
    d462:	eb 05                	jmp    d469 <func_11+0x1b9f>
    d464:	b8 00 00 00 00       	mov    $0x0,%eax
    d469:	89 c2                	mov    %eax,%edx
    d46b:	48 8b 05 66 95 00 00 	mov    0x9566(%rip),%rax        # 169d8 <g_280>
    d472:	0f b6 00             	movzbl (%rax),%eax
    d475:	0f b6 c0             	movzbl %al,%eax
    d478:	89 d6                	mov    %edx,%esi
    d47a:	89 c7                	mov    %eax,%edi
    d47c:	e8 cb 77 ff ff       	callq  4c4c <safe_lshift_func_uint8_t_u_u>
    d481:	0f b6 c0             	movzbl %al,%eax
    d484:	39 85 e8 f2 ff ff    	cmp    %eax,-0xd18(%rbp)
    d48a:	0f 9f c0             	setg   %al
    d48d:	0f b6 d0             	movzbl %al,%edx
    d490:	0f b6 05 1d 8c 00 00 	movzbl 0x8c1d(%rip),%eax        # 160b4 <g_53>
    d497:	0f b6 c0             	movzbl %al,%eax
    d49a:	39 c2                	cmp    %eax,%edx
    d49c:	0f 8c c5 01 00 00    	jl     d667 <func_11+0x1d9d>
    d4a2:	48 8d 05 7f 95 00 00 	lea    0x957f(%rip),%rax        # 16a28 <g_288+0x28>
    d4a9:	48 89 85 78 f4 ff ff 	mov    %rax,-0xb88(%rbp)
    d4b0:	48 c7 85 80 f4 ff ff 	movq   $0x0,-0xb80(%rbp)
    d4b7:	00 00 00 00 
    d4bb:	48 8d 05 9e 95 00 00 	lea    0x959e(%rip),%rax        # 16a60 <g_290>
    d4c2:	48 89 85 88 f4 ff ff 	mov    %rax,-0xb78(%rbp)
    d4c9:	48 c7 85 90 f4 ff ff 	movq   $0x0,-0xb70(%rbp)
    d4d0:	00 00 00 00 
    d4d4:	48 8d 05 75 95 00 00 	lea    0x9575(%rip),%rax        # 16a50 <g_288+0x50>
    d4db:	48 89 85 98 f4 ff ff 	mov    %rax,-0xb68(%rbp)
    d4e2:	48 c7 85 a0 f4 ff ff 	movq   $0x0,-0xb60(%rbp)
    d4e9:	00 00 00 00 
    d4ed:	48 8d 05 6c 95 00 00 	lea    0x956c(%rip),%rax        # 16a60 <g_290>
    d4f4:	48 89 85 50 f6 ff ff 	mov    %rax,-0x9b0(%rbp)
    d4fb:	48 8d 05 5e 95 00 00 	lea    0x955e(%rip),%rax        # 16a60 <g_290>
    d502:	48 89 85 58 f6 ff ff 	mov    %rax,-0x9a8(%rbp)
    d509:	48 8d 05 50 95 00 00 	lea    0x9550(%rip),%rax        # 16a60 <g_290>
    d510:	48 89 85 60 f6 ff ff 	mov    %rax,-0x9a0(%rbp)
    d517:	48 8d 05 42 95 00 00 	lea    0x9542(%rip),%rax        # 16a60 <g_290>
    d51e:	48 89 85 68 f6 ff ff 	mov    %rax,-0x998(%rbp)
    d525:	48 8d 05 34 95 00 00 	lea    0x9534(%rip),%rax        # 16a60 <g_290>
    d52c:	48 89 85 70 f6 ff ff 	mov    %rax,-0x990(%rbp)
    d533:	48 8d 05 26 95 00 00 	lea    0x9526(%rip),%rax        # 16a60 <g_290>
    d53a:	48 89 85 78 f6 ff ff 	mov    %rax,-0x988(%rbp)
    d541:	48 8d 05 18 95 00 00 	lea    0x9518(%rip),%rax        # 16a60 <g_290>
    d548:	48 89 85 80 f6 ff ff 	mov    %rax,-0x980(%rbp)
    d54f:	48 8d 05 0a 95 00 00 	lea    0x950a(%rip),%rax        # 16a60 <g_290>
    d556:	48 89 85 88 f6 ff ff 	mov    %rax,-0x978(%rbp)
    d55d:	c7 85 10 f6 ff ff 08 	movl   $0x8,-0x9f0(%rbp)
    d564:	00 00 00 
    d567:	c7 85 14 f6 ff ff 02 	movl   $0x2,-0x9ec(%rbp)
    d56e:	00 00 00 
    d571:	c7 85 18 f6 ff ff 08 	movl   $0x8,-0x9e8(%rbp)
    d578:	00 00 00 
    d57b:	c7 85 1c f6 ff ff 02 	movl   $0x2,-0x9e4(%rbp)
    d582:	00 00 00 
    d585:	c7 85 20 f6 ff ff 08 	movl   $0x8,-0x9e0(%rbp)
    d58c:	00 00 00 
    d58f:	c7 85 24 f6 ff ff 02 	movl   $0x2,-0x9dc(%rbp)
    d596:	00 00 00 
    d599:	c7 85 28 f6 ff ff 08 	movl   $0x8,-0x9d8(%rbp)
    d5a0:	00 00 00 
    d5a3:	c7 85 2c f6 ff ff 02 	movl   $0x2,-0x9d4(%rbp)
    d5aa:	00 00 00 
    d5ad:	c7 85 30 f6 ff ff 08 	movl   $0x8,-0x9d0(%rbp)
    d5b4:	00 00 00 
    d5b7:	c7 85 34 f6 ff ff 02 	movl   $0x2,-0x9cc(%rbp)
    d5be:	00 00 00 
    d5c1:	c7 85 38 f6 ff ff 08 	movl   $0x8,-0x9c8(%rbp)
    d5c8:	00 00 00 
    d5cb:	c7 85 3c f6 ff ff 02 	movl   $0x2,-0x9c4(%rbp)
    d5d2:	00 00 00 
    d5d5:	c7 85 40 f6 ff ff 08 	movl   $0x8,-0x9c0(%rbp)
    d5dc:	00 00 00 
    d5df:	c7 85 44 f6 ff ff 02 	movl   $0x2,-0x9bc(%rbp)
    d5e6:	00 00 00 
    d5e9:	48 8b 85 78 f3 ff ff 	mov    -0xc88(%rbp),%rax
    d5f0:	48 8b 00             	mov    (%rax),%rax
    d5f3:	c7 00 c7 f3 fe 7a    	movl   $0x7afef3c7,(%rax)
    d5f9:	48 8d 05 28 8c 00 00 	lea    0x8c28(%rip),%rax        # 16228 <g_449>
    d600:	48 89 85 70 f4 ff ff 	mov    %rax,-0xb90(%rbp)
    d607:	be a4 00 00 00       	mov    $0xa4,%esi
    d60c:	bf 01 00 00 00       	mov    $0x1,%edi
    d611:	e8 7d 75 ff ff       	callq  4b93 <safe_mul_func_uint8_t_u_u>
    d616:	89 c2                	mov    %eax,%edx
    d618:	48 8b 05 a9 93 00 00 	mov    0x93a9(%rip),%rax        # 169c8 <g_105>
    d61f:	48 8b 00             	mov    (%rax),%rax
    d622:	8b 08                	mov    (%rax),%ecx
    d624:	0f b6 d2             	movzbl %dl,%edx
    d627:	09 ca                	or     %ecx,%edx
    d629:	89 10                	mov    %edx,(%rax)
    d62b:	48 8b 05 9e 93 00 00 	mov    0x939e(%rip),%rax        # 169d0 <g_104>
    d632:	48 8b 00             	mov    (%rax),%rax
    d635:	48 8b 00             	mov    (%rax),%rax
    d638:	8b 10                	mov    (%rax),%edx
    d63a:	8b 85 44 f6 ff ff    	mov    -0x9bc(%rbp),%eax
    d640:	21 d0                	and    %edx,%eax
    d642:	89 85 44 f6 ff ff    	mov    %eax,-0x9bc(%rbp)
    d648:	48 8b 05 71 93 00 00 	mov    0x9371(%rip),%rax        # 169c0 <g_103>
    d64f:	8b 10                	mov    (%rax),%edx
    d651:	48 8b 85 a8 f3 ff ff 	mov    -0xc58(%rbp),%rax
    d658:	8b 00                	mov    (%rax),%eax
    d65a:	21 c2                	and    %eax,%edx
    d65c:	48 8b 85 a8 f3 ff ff 	mov    -0xc58(%rbp),%rax
    d663:	89 10                	mov    %edx,(%rax)
    d665:	eb 1a                	jmp    d681 <func_11+0x1db7>
    d667:	83 bd ec f2 ff ff 00 	cmpl   $0x0,-0xd14(%rbp)
    d66e:	0f 85 e6 01 00 00    	jne    d85a <func_11+0x1f90>
    d674:	83 bd ec f2 ff ff 00 	cmpl   $0x0,-0xd14(%rbp)
    d67b:	0f 85 bf 01 00 00    	jne    d840 <func_11+0x1f76>
    d681:	48 c7 85 a0 f5 ff ff 	movq   $0x0,-0xa60(%rbp)
    d688:	00 00 00 00 
    d68c:	8b 9d ec f2 ff ff    	mov    -0xd14(%rbp),%ebx
    d692:	be 07 00 00 00       	mov    $0x7,%esi
    d697:	bf f7 ff ff ff       	mov    $0xfffffff7,%edi
    d69c:	e8 40 6e ff ff       	callq  44e1 <safe_lshift_func_int16_t_s_u>
    d6a1:	8b 05 35 8a 00 00    	mov    0x8a35(%rip),%eax        # 160dc <g_81>
    d6a7:	44 0f be e0          	movsbl %al,%r12d
    d6ab:	8b 05 2b 8a 00 00    	mov    0x8a2b(%rip),%eax        # 160dc <g_81>
    d6b1:	44 0f b7 e8          	movzwl %ax,%r13d
    d6b5:	8b 05 f5 89 00 00    	mov    0x89f5(%rip),%eax        # 160b0 <g_46>
    d6bb:	44 0f b6 f0          	movzbl %al,%r14d
    d6bf:	8b 85 ec f2 ff ff    	mov    -0xd14(%rbp),%eax
    d6c5:	25 e2 00 00 00       	and    $0xe2,%eax
    d6ca:	85 c0                	test   %eax,%eax
    d6cc:	74 13                	je     d6e1 <func_11+0x1e17>
    d6ce:	48 8b 05 0b 8a 00 00 	mov    0x8a0b(%rip),%rax        # 160e0 <g_88>
    d6d5:	48 85 c0             	test   %rax,%rax
    d6d8:	74 07                	je     d6e1 <func_11+0x1e17>
    d6da:	b8 01 00 00 00       	mov    $0x1,%eax
    d6df:	eb 05                	jmp    d6e6 <func_11+0x1e1c>
    d6e1:	b8 00 00 00 00       	mov    $0x0,%eax
    d6e6:	be 03 00 00 00       	mov    $0x3,%esi
    d6eb:	89 c7                	mov    %eax,%edi
    d6ed:	e8 0d 70 ff ff       	callq  46ff <safe_div_func_int32_t_s_s>
    d6f2:	0f b6 c0             	movzbl %al,%eax
    d6f5:	44 89 f6             	mov    %r14d,%esi
    d6f8:	89 c7                	mov    %eax,%edi
    d6fa:	e8 94 74 ff ff       	callq  4b93 <safe_mul_func_uint8_t_u_u>
    d6ff:	0f b6 c0             	movzbl %al,%eax
    d702:	44 89 ee             	mov    %r13d,%esi
    d705:	89 c7                	mov    %eax,%edi
    d707:	e8 13 76 ff ff       	callq  4d1f <safe_sub_func_uint16_t_u_u>
    d70c:	0f b7 c0             	movzwl %ax,%eax
    d70f:	39 85 40 f3 ff ff    	cmp    %eax,-0xcc0(%rbp)
    d715:	7d 07                	jge    d71e <func_11+0x1e54>
    d717:	83 bd ec f2 ff ff 00 	cmpl   $0x0,-0xd14(%rbp)
    d71e:	8b 85 ec f2 ff ff    	mov    -0xd14(%rbp),%eax
    d724:	be 1a 37 a4 34       	mov    $0x34a4371a,%esi
    d729:	89 c7                	mov    %eax,%edi
    d72b:	e8 86 6e ff ff       	callq  45b6 <safe_add_func_int32_t_s_s>
    d730:	0f b6 c0             	movzbl %al,%eax
    d733:	89 c6                	mov    %eax,%esi
    d735:	bf 01 00 00 00       	mov    $0x1,%edi
    d73a:	e8 39 74 ff ff       	callq  4b78 <safe_sub_func_uint8_t_u_u>
    d73f:	0f b6 c0             	movzbl %al,%eax
    d742:	be 81 2f c4 c2       	mov    $0xc2c42f81,%esi
    d747:	89 c7                	mov    %eax,%edi
    d749:	e8 7e 6f ff ff       	callq  46cc <safe_mod_func_int32_t_s_s>
    d74e:	0f be c0             	movsbl %al,%eax
    d751:	44 89 e6             	mov    %r12d,%esi
    d754:	89 c7                	mov    %eax,%edi
    d756:	e8 b7 6a ff ff       	callq  4212 <safe_mul_func_int8_t_s_s>
    d75b:	0f be c0             	movsbl %al,%eax
    d75e:	39 85 ec f2 ff ff    	cmp    %eax,-0xd14(%rbp)
    d764:	77 07                	ja     d76d <func_11+0x1ea3>
    d766:	ba f9 ff ff ff       	mov    $0xfffffff9,%edx
    d76b:	eb 05                	jmp    d772 <func_11+0x1ea8>
    d76d:	ba f8 ff ff ff       	mov    $0xfffffff8,%edx
    d772:	48 8b 85 e8 f3 ff ff 	mov    -0xc18(%rbp),%rax
    d779:	89 10                	mov    %edx,(%rax)
    d77b:	b8 01 00 00 00       	mov    $0x1,%eax
    d780:	48 98                	cltq   
    d782:	48 89 de             	mov    %rbx,%rsi
    d785:	48 89 c7             	mov    %rax,%rdi
    d788:	e8 be 78 ff ff       	callq  504b <safe_sub_func_uint64_t_u_u>
    d78d:	0f b7 c0             	movzwl %ax,%eax
    d790:	be 0d 00 00 00       	mov    $0xd,%esi
    d795:	89 c7                	mov    %eax,%edi
    d797:	e8 ac 76 ff ff       	callq  4e48 <safe_rshift_func_uint16_t_u_s>
    d79c:	0f b6 95 0a f8 ff ff 	movzbl -0x7f6(%rbp),%edx
    d7a3:	48 8b 05 1e 92 00 00 	mov    0x921e(%rip),%rax        # 169c8 <g_105>
    d7aa:	48 8b 00             	mov    (%rax),%rax
    d7ad:	0f be d2             	movsbl %dl,%edx
    d7b0:	89 10                	mov    %edx,(%rax)
    d7b2:	48 83 bd 68 f4 ff ff 	cmpq   $0x0,-0xb98(%rbp)
    d7b9:	00 
    d7ba:	74 62                	je     d81e <func_11+0x1f54>
    d7bc:	8b 05 02 89 00 00    	mov    0x8902(%rip),%eax        # 160c4 <g_64+0x4>
    d7c2:	0f bf d8             	movswl %ax,%ebx
    d7c5:	8b 85 ec f2 ff ff    	mov    -0xd14(%rbp),%eax
    d7cb:	0f be c0             	movsbl %al,%eax
    d7ce:	be 7a 00 00 00       	mov    $0x7a,%esi
    d7d3:	89 c7                	mov    %eax,%edi
    d7d5:	e8 18 6a ff ff       	callq  41f2 <safe_sub_func_int8_t_s_s>
    d7da:	0f be c0             	movsbl %al,%eax
    d7dd:	89 de                	mov    %ebx,%esi
    d7df:	89 c7                	mov    %eax,%edi
    d7e1:	e8 0f 6c ff ff       	callq  43f5 <safe_mul_func_int16_t_s_s>
    d7e6:	0f b7 d0             	movzwl %ax,%edx
    d7e9:	8b 05 d1 88 00 00    	mov    0x88d1(%rip),%eax        # 160c0 <g_64>
    d7ef:	0f b7 c0             	movzwl %ax,%eax
    d7f2:	89 d6                	mov    %edx,%esi
    d7f4:	89 c7                	mov    %eax,%edi
    d7f6:	e8 93 75 ff ff       	callq  4d8e <safe_div_func_uint16_t_u_u>
    d7fb:	89 c2                	mov    %eax,%edx
    d7fd:	48 8b 05 cc 91 00 00 	mov    0x91cc(%rip),%rax        # 169d0 <g_104>
    d804:	48 8b 00             	mov    (%rax),%rax
    d807:	48 8b 00             	mov    (%rax),%rax
    d80a:	0f b7 d2             	movzwl %dx,%edx
    d80d:	89 10                	mov    %edx,(%rax)
    d80f:	8b 05 13 8a 00 00    	mov    0x8a13(%rip),%eax        # 16228 <g_449>
    d815:	85 c0                	test   %eax,%eax
    d817:	74 1c                	je     d835 <func_11+0x1f6b>
    d819:	e9 07 ea ff ff       	jmpq   c225 <func_11+0x95b>
    d81e:	48 8b 1d a3 91 00 00 	mov    0x91a3(%rip),%rbx        # 169c8 <g_105>
    d825:	8b 85 48 f3 ff ff    	mov    -0xcb8(%rbp),%eax
    d82b:	89 c7                	mov    %eax,%edi
    d82d:	e8 93 0b 00 00       	callq  e3c5 <func_14>
    d832:	48 89 03             	mov    %rax,(%rbx)
    d835:	83 bd ec f2 ff ff 00 	cmpl   $0x0,-0xd14(%rbp)
    d83c:	75 1f                	jne    d85d <func_11+0x1f93>
    d83e:	eb 01                	jmp    d841 <func_11+0x1f77>
    d840:	90                   	nop
    d841:	83 ad 0c f3 ff ff 01 	subl   $0x1,-0xcf4(%rbp)
    d848:	83 bd 0c f3 ff ff f9 	cmpl   $0xfffffff9,-0xcf4(%rbp)
    d84f:	0f 85 c4 f0 ff ff    	jne    c919 <func_11+0x104f>
    d855:	eb 07                	jmp    d85e <func_11+0x1f94>
    d857:	90                   	nop
    d858:	eb 04                	jmp    d85e <func_11+0x1f94>
    d85a:	90                   	nop
    d85b:	eb 01                	jmp    d85e <func_11+0x1f94>
    d85d:	90                   	nop
    d85e:	48 8b 85 80 f3 ff ff 	mov    -0xc80(%rbp),%rax
    d865:	48 8b 00             	mov    (%rax),%rax
    d868:	48 8b 10             	mov    (%rax),%rdx
    d86b:	48 8b 05 4e 91 00 00 	mov    0x914e(%rip),%rax        # 169c0 <g_103>
    d872:	8b 12                	mov    (%rdx),%edx
    d874:	89 10                	mov    %edx,(%rax)
    d876:	48 83 bd 08 f4 ff ff 	cmpq   $0x0,-0xbf8(%rbp)
    d87d:	00 
    d87e:	0f 94 c0             	sete   %al
    d881:	0f b6 c0             	movzbl %al,%eax
    d884:	48 89 c6             	mov    %rax,%rsi
    d887:	bf 00 00 00 00       	mov    $0x0,%edi
    d88c:	e8 d4 77 ff ff       	callq  5065 <safe_mul_func_uint64_t_u_u>
    d891:	83 bd ec f2 ff ff 00 	cmpl   $0x0,-0xd14(%rbp)
    d898:	75 0b                	jne    d8a5 <func_11+0x1fdb>
    d89a:	0f b6 85 f7 f2 ff ff 	movzbl -0xd09(%rbp),%eax
    d8a1:	84 c0                	test   %al,%al
    d8a3:	74 07                	je     d8ac <func_11+0x1fe2>
    d8a5:	bb 01 00 00 00       	mov    $0x1,%ebx
    d8aa:	eb 05                	jmp    d8b1 <func_11+0x1fe7>
    d8ac:	bb 00 00 00 00       	mov    $0x0,%ebx
    d8b1:	48 8b 95 60 f3 ff ff 	mov    -0xca0(%rbp),%rdx
    d8b8:	48 8b 85 60 f3 ff ff 	mov    -0xca0(%rbp),%rax
    d8bf:	0f b6 12             	movzbl (%rdx),%edx
    d8c2:	88 10                	mov    %dl,(%rax)
    d8c4:	0f b6 00             	movzbl (%rax),%eax
    d8c7:	89 c2                	mov    %eax,%edx
    d8c9:	48 8b 85 c8 f5 ff ff 	mov    -0xa38(%rbp),%rax
    d8d0:	48 85 c0             	test   %rax,%rax
    d8d3:	0f 95 c0             	setne  %al
    d8d6:	09 d0                	or     %edx,%eax
    d8d8:	0f b6 d0             	movzbl %al,%edx
    d8db:	48 8d 05 d2 87 00 00 	lea    0x87d2(%rip),%rax        # 160b4 <g_53>
    d8e2:	0f b6 00             	movzbl (%rax),%eax
    d8e5:	0f b6 c0             	movzbl %al,%eax
    d8e8:	89 d6                	mov    %edx,%esi
    d8ea:	89 c7                	mov    %eax,%edi
    d8ec:	e8 bd 72 ff ff       	callq  4bae <safe_mod_func_uint8_t_u_u>
    d8f1:	0f b6 c0             	movzbl %al,%eax
    d8f4:	39 c3                	cmp    %eax,%ebx
    d8f6:	83 bd ec f2 ff ff 01 	cmpl   $0x1,-0xd14(%rbp)
    d8fd:	0f 84 d6 02 00 00    	je     dbd9 <func_11+0x230f>
    d903:	48 8d 85 04 f3 ff ff 	lea    -0xcfc(%rbp),%rax
    d90a:	48 89 85 00 f8 ff ff 	mov    %rax,-0x800(%rbp)
    d911:	48 c7 85 08 f8 ff ff 	movq   $0x0,-0x7f8(%rbp)
    d918:	00 00 00 00 
    d91c:	48 8d 85 04 f3 ff ff 	lea    -0xcfc(%rbp),%rax
    d923:	48 89 85 10 f8 ff ff 	mov    %rax,-0x7f0(%rbp)
    d92a:	48 c7 85 18 f8 ff ff 	movq   $0x0,-0x7e8(%rbp)
    d931:	00 00 00 00 
    d935:	48 c7 85 20 f8 ff ff 	movq   $0x0,-0x7e0(%rbp)
    d93c:	00 00 00 00 
    d940:	48 c7 85 28 f8 ff ff 	movq   $0x0,-0x7d8(%rbp)
    d947:	00 00 00 00 
    d94b:	48 8d 85 04 f3 ff ff 	lea    -0xcfc(%rbp),%rax
    d952:	48 89 85 30 f8 ff ff 	mov    %rax,-0x7d0(%rbp)
    d959:	48 c7 85 38 f8 ff ff 	movq   $0x0,-0x7c8(%rbp)
    d960:	00 00 00 00 
    d964:	48 8d 85 04 f3 ff ff 	lea    -0xcfc(%rbp),%rax
    d96b:	48 89 85 40 f8 ff ff 	mov    %rax,-0x7c0(%rbp)
    d972:	48 c7 85 48 f8 ff ff 	movq   $0x0,-0x7b8(%rbp)
    d979:	00 00 00 00 
    d97d:	48 c7 85 50 f8 ff ff 	movq   $0x0,-0x7b0(%rbp)
    d984:	00 00 00 00 
    d988:	48 c7 85 58 f8 ff ff 	movq   $0x0,-0x7a8(%rbp)
    d98f:	00 00 00 00 
    d993:	48 8d 85 04 f3 ff ff 	lea    -0xcfc(%rbp),%rax
    d99a:	48 89 85 60 f8 ff ff 	mov    %rax,-0x7a0(%rbp)
    d9a1:	48 c7 85 68 f8 ff ff 	movq   $0x0,-0x798(%rbp)
    d9a8:	00 00 00 00 
    d9ac:	48 8d 85 04 f3 ff ff 	lea    -0xcfc(%rbp),%rax
    d9b3:	48 89 85 70 f8 ff ff 	mov    %rax,-0x790(%rbp)
    d9ba:	48 c7 85 78 f8 ff ff 	movq   $0x0,-0x788(%rbp)
    d9c1:	00 00 00 00 
    d9c5:	48 c7 85 80 f8 ff ff 	movq   $0x0,-0x780(%rbp)
    d9cc:	00 00 00 00 
    d9d0:	48 c7 85 88 f8 ff ff 	movq   $0x0,-0x778(%rbp)
    d9d7:	00 00 00 00 
    d9db:	48 8d 85 f0 f6 ff ff 	lea    -0x910(%rbp),%rax
    d9e2:	48 83 c0 04          	add    $0x4,%rax
    d9e6:	48 89 85 d0 f4 ff ff 	mov    %rax,-0xb30(%rbp)
    d9ed:	48 8b 85 80 f3 ff ff 	mov    -0xc80(%rbp),%rax
    d9f4:	48 8b 10             	mov    (%rax),%rdx
    d9f7:	48 8b 85 78 f3 ff ff 	mov    -0xc88(%rbp),%rax
    d9fe:	48 8b 12             	mov    (%rdx),%rdx
    da01:	48 89 10             	mov    %rdx,(%rax)
    da04:	c6 85 f6 f2 ff ff 00 	movb   $0x0,-0xd0a(%rbp)
    da0b:	eb 65                	jmp    da72 <func_11+0x21a8>
    da0d:	8b 95 ec f2 ff ff    	mov    -0xd14(%rbp),%edx
    da13:	48 c7 05 6a 9f 00 00 	movq   $0x0,0x9f6a(%rip)        # 17988 <g_653>
    da1a:	00 00 00 00 
    da1e:	48 8b 05 63 9f 00 00 	mov    0x9f63(%rip),%rax        # 17988 <g_653>
    da25:	48 85 c0             	test   %rax,%rax
    da28:	0f 95 c0             	setne  %al
    da2b:	0f b6 c0             	movzbl %al,%eax
    da2e:	39 85 ec f2 ff ff    	cmp    %eax,-0xd14(%rbp)
    da34:	0f 93 c0             	setae  %al
    da37:	0f b6 c0             	movzbl %al,%eax
    da3a:	48 89 d6             	mov    %rdx,%rsi
    da3d:	48 89 c7             	mov    %rax,%rdi
    da40:	e8 e9 75 ff ff       	callq  502e <safe_add_func_uint64_t_u_u>
    da45:	48 89 c2             	mov    %rax,%rdx
    da48:	48 8b 85 78 f3 ff ff 	mov    -0xc88(%rbp),%rax
    da4f:	48 8b 00             	mov    (%rax),%rax
    da52:	89 10                	mov    %edx,(%rax)
    da54:	0f b6 85 f6 f2 ff ff 	movzbl -0xd0a(%rbp),%eax
    da5b:	48 0f be c0          	movsbq %al,%rax
    da5f:	be 09 00 00 00       	mov    $0x9,%esi
    da64:	48 89 c7             	mov    %rax,%rdi
    da67:	e8 c2 75 ff ff       	callq  502e <safe_add_func_uint64_t_u_u>
    da6c:	88 85 f6 f2 ff ff    	mov    %al,-0xd0a(%rbp)
    da72:	0f b6 85 f6 f2 ff ff 	movzbl -0xd0a(%rbp),%eax
    da79:	3c 12                	cmp    $0x12,%al
    da7b:	7e 90                	jle    da0d <func_11+0x2143>
    da7d:	c6 05 30 86 00 00 00 	movb   $0x0,0x8630(%rip)        # 160b4 <g_53>
    da84:	eb 4c                	jmp    dad2 <func_11+0x2208>
    da86:	48 8d 85 60 fa ff ff 	lea    -0x5a0(%rbp),%rax
    da8d:	48 05 50 01 00 00    	add    $0x150,%rax
    da93:	48 89 85 d8 f4 ff ff 	mov    %rax,-0xb28(%rbp)
    da9a:	48 8d 05 e7 9e 00 00 	lea    0x9ee7(%rip),%rax        # 17988 <g_653>
    daa1:	48 89 85 10 f4 ff ff 	mov    %rax,-0xbf0(%rbp)
    daa8:	48 8b 85 10 f4 ff ff 	mov    -0xbf0(%rbp),%rax
    daaf:	48 89 85 d8 f4 ff ff 	mov    %rax,-0xb28(%rbp)
    dab6:	0f b6 05 f7 85 00 00 	movzbl 0x85f7(%rip),%eax        # 160b4 <g_53>
    dabd:	0f b6 c0             	movzbl %al,%eax
    dac0:	be 04 00 00 00       	mov    $0x4,%esi
    dac5:	89 c7                	mov    %eax,%edi
    dac7:	e8 33 72 ff ff       	callq  4cff <safe_add_func_uint16_t_u_u>
    dacc:	88 05 e2 85 00 00    	mov    %al,0x85e2(%rip)        # 160b4 <g_53>
    dad2:	0f b6 05 db 85 00 00 	movzbl 0x85db(%rip),%eax        # 160b4 <g_53>
    dad9:	3c 32                	cmp    $0x32,%al
    dadb:	75 a9                	jne    da86 <func_11+0x21bc>
    dadd:	48 8b 85 18 f8 ff ff 	mov    -0x7e8(%rbp),%rax
    dae4:	48 85 c0             	test   %rax,%rax
    dae7:	0f 95 c0             	setne  %al
    daea:	0f b6 d8             	movzbl %al,%ebx
    daed:	8b 85 ec f2 ff ff    	mov    -0xd14(%rbp),%eax
    daf3:	83 e0 05             	and    $0x5,%eax
    daf6:	48 85 c0             	test   %rax,%rax
    daf9:	0f 95 c0             	setne  %al
    dafc:	0f b6 c0             	movzbl %al,%eax
    daff:	89 c7                	mov    %eax,%edi
    db01:	e8 3f 70 ff ff       	callq  4b45 <safe_unary_minus_func_uint8_t_u>
    db06:	0f be d0             	movsbl %al,%edx
    db09:	0f b6 05 a5 85 00 00 	movzbl 0x85a5(%rip),%eax        # 160b5 <g_63>
    db10:	0f be c0             	movsbl %al,%eax
    db13:	89 d6                	mov    %edx,%esi
    db15:	89 c7                	mov    %eax,%edi
    db17:	e8 f6 66 ff ff       	callq  4212 <safe_mul_func_int8_t_s_s>
    db1c:	0f be c0             	movsbl %al,%eax
    db1f:	8b 95 ec f2 ff ff    	mov    -0xd14(%rbp),%edx
    db25:	89 d6                	mov    %edx,%esi
    db27:	89 c7                	mov    %eax,%edi
    db29:	e8 f7 73 ff ff       	callq  4f25 <safe_div_func_uint32_t_u_u>
    db2e:	3d c7 00 00 00       	cmp    $0xc7,%eax
    db33:	0f 95 c0             	setne  %al
    db36:	0f b6 d0             	movzbl %al,%edx
    db39:	48 8b 85 d0 f4 ff ff 	mov    -0xb30(%rbp),%rax
    db40:	66 89 10             	mov    %dx,(%rax)
    db43:	48 8b 85 d0 f4 ff ff 	mov    -0xb30(%rbp),%rax
    db4a:	0f b7 00             	movzwl (%rax),%eax
    db4d:	98                   	cwtl   
    db4e:	39 85 ec f2 ff ff    	cmp    %eax,-0xd14(%rbp)
    db54:	0f 92 c0             	setb   %al
    db57:	0f b6 d0             	movzbl %al,%edx
    db5a:	0f b7 05 b7 86 00 00 	movzwl 0x86b7(%rip),%eax        # 16218 <g_237>
    db61:	0f b7 c0             	movzwl %ax,%eax
    db64:	39 c2                	cmp    %eax,%edx
    db66:	0f 9c c0             	setl   %al
    db69:	0f b6 c0             	movzbl %al,%eax
    db6c:	be 01 00 00 00       	mov    $0x1,%esi
    db71:	89 c7                	mov    %eax,%edi
    db73:	e8 f4 67 ff ff       	callq  436c <safe_rshift_func_int8_t_s_u>
    db78:	48 8d 05 35 85 00 00 	lea    0x8535(%rip),%rax        # 160b4 <g_53>
    db7f:	0f b6 00             	movzbl (%rax),%eax
    db82:	0f b6 c0             	movzbl %al,%eax
    db85:	48 f7 d0             	not    %rax
    db88:	48 89 c2             	mov    %rax,%rdx
    db8b:	8b 85 ec f2 ff ff    	mov    -0xd14(%rbp),%eax
    db91:	48 39 c2             	cmp    %rax,%rdx
    db94:	0f 9d c2             	setge  %dl
    db97:	48 8b 85 70 f3 ff ff 	mov    -0xc90(%rbp),%rax
    db9e:	88 10                	mov    %dl,(%rax)
    dba0:	0f b6 00             	movzbl (%rax),%eax
    dba3:	0f be c0             	movsbl %al,%eax
    dba6:	89 05 84 86 00 00    	mov    %eax,0x8684(%rip)        # 16230 <g_667>
    dbac:	8b 05 7e 86 00 00    	mov    0x867e(%rip),%eax        # 16230 <g_667>
    dbb2:	39 c3                	cmp    %eax,%ebx
    dbb4:	0f 95 c0             	setne  %al
    dbb7:	0f b6 c8             	movzbl %al,%ecx
    dbba:	48 8b 85 78 f3 ff ff 	mov    -0xc88(%rbp),%rax
    dbc1:	48 8b 00             	mov    (%rax),%rax
    dbc4:	8b 10                	mov    (%rax),%edx
    dbc6:	48 8b 85 78 f3 ff ff 	mov    -0xc88(%rbp),%rax
    dbcd:	48 8b 00             	mov    (%rax),%rax
    dbd0:	09 ca                	or     %ecx,%edx
    dbd2:	89 10                	mov    %edx,(%rax)
    dbd4:	e9 72 03 00 00       	jmpq   df4b <func_11+0x2681>
    dbd9:	66 c7 85 00 f8 ff ff 	movw   $0xfffb,-0x800(%rbp)
    dbe0:	fb ff 
    dbe2:	66 c7 85 02 f8 ff ff 	movw   $0x2e64,-0x7fe(%rbp)
    dbe9:	64 2e 
    dbeb:	66 c7 85 04 f8 ff ff 	movw   $0xfffa,-0x7fc(%rbp)
    dbf2:	fa ff 
    dbf4:	66 c7 85 06 f8 ff ff 	movw   $0xffff,-0x7fa(%rbp)
    dbfb:	ff ff 
    dbfd:	66 c7 85 08 f8 ff ff 	movw   $0x2e64,-0x7f8(%rbp)
    dc04:	64 2e 
    dc06:	66 c7 85 0a f8 ff ff 	movw   $0xffff,-0x7f6(%rbp)
    dc0d:	ff ff 
    dc0f:	66 c7 85 0c f8 ff ff 	movw   $0x557c,-0x7f4(%rbp)
    dc16:	7c 55 
    dc18:	66 c7 85 0e f8 ff ff 	movw   $0xfffb,-0x7f2(%rbp)
    dc1f:	fb ff 
    dc21:	66 c7 85 10 f8 ff ff 	movw   $0xfffa,-0x7f0(%rbp)
    dc28:	fa ff 
    dc2a:	66 c7 85 12 f8 ff ff 	movw   $0x557c,-0x7ee(%rbp)
    dc31:	7c 55 
    dc33:	66 c7 85 14 f8 ff ff 	movw   $0x557c,-0x7ec(%rbp)
    dc3a:	7c 55 
    dc3c:	66 c7 85 16 f8 ff ff 	movw   $0xfffb,-0x7ea(%rbp)
    dc43:	fb ff 
    dc45:	66 c7 85 18 f8 ff ff 	movw   $0xffff,-0x7e8(%rbp)
    dc4c:	ff ff 
    dc4e:	66 c7 85 1a f8 ff ff 	movw   $0xfffb,-0x7e6(%rbp)
    dc55:	fb ff 
    dc57:	66 c7 85 1c f8 ff ff 	movw   $0xfffb,-0x7e4(%rbp)
    dc5e:	fb ff 
    dc60:	66 c7 85 1e f8 ff ff 	movw   $0xfffb,-0x7e2(%rbp)
    dc67:	fb ff 
    dc69:	66 c7 85 20 f8 ff ff 	movw   $0x2e64,-0x7e0(%rbp)
    dc70:	64 2e 
    dc72:	66 c7 85 22 f8 ff ff 	movw   $0xfffa,-0x7de(%rbp)
    dc79:	fa ff 
    dc7b:	66 c7 85 24 f8 ff ff 	movw   $0xffff,-0x7dc(%rbp)
    dc82:	ff ff 
    dc84:	66 c7 85 26 f8 ff ff 	movw   $0x2e64,-0x7da(%rbp)
    dc8b:	64 2e 
    dc8d:	66 c7 85 28 f8 ff ff 	movw   $0xffff,-0x7d8(%rbp)
    dc94:	ff ff 
    dc96:	66 c7 85 2a f8 ff ff 	movw   $0x557c,-0x7d6(%rbp)
    dc9d:	7c 55 
    dc9f:	66 c7 85 2c f8 ff ff 	movw   $0xfffb,-0x7d4(%rbp)
    dca6:	fb ff 
    dca8:	66 c7 85 2e f8 ff ff 	movw   $0xfffa,-0x7d2(%rbp)
    dcaf:	fa ff 
    dcb1:	c7 85 5c f3 ff ff ae 	movl   $0x6801d9ae,-0xca4(%rbp)
    dcb8:	d9 01 68 
    dcbb:	8b 85 3c f3 ff ff    	mov    -0xcc4(%rbp),%eax
    dcc1:	39 85 ec f2 ff ff    	cmp    %eax,-0xd14(%rbp)
    dcc7:	0f 95 c2             	setne  %dl
    dcca:	48 8b 05 f7 8c 00 00 	mov    0x8cf7(%rip),%rax        # 169c8 <g_105>
    dcd1:	48 8b 00             	mov    (%rax),%rax
    dcd4:	0f b6 d2             	movzbl %dl,%edx
    dcd7:	89 10                	mov    %edx,(%rax)
    dcd9:	48 c7 85 a0 f3 ff ff 	movq   $0x7,-0xc60(%rbp)
    dce0:	07 00 00 00 
    dce4:	e9 54 02 00 00       	jmpq   df3d <func_11+0x2673>
    dce9:	48 8d 05 64 33 00 00 	lea    0x3364(%rip),%rax        # 11054 <g_362>
    dcf0:	48 89 85 c0 f4 ff ff 	mov    %rax,-0xb40(%rbp)
    dcf7:	8b 85 ec f2 ff ff    	mov    -0xd14(%rbp),%eax
    dcfd:	0f b6 d8             	movzbl %al,%ebx
    dd00:	0f b6 05 ad 83 00 00 	movzbl 0x83ad(%rip),%eax        # 160b4 <g_53>
    dd07:	44 0f b6 e0          	movzbl %al,%r12d
    dd0b:	8b 85 5c f3 ff ff    	mov    -0xca4(%rbp),%eax
    dd11:	44 0f be e8          	movsbl %al,%r13d
    dd15:	48 8b 85 c0 f4 ff ff 	mov    -0xb40(%rbp),%rax
    dd1c:	8b 00                	mov    (%rax),%eax
    dd1e:	4c 63 f0             	movslq %eax,%r14
    dd21:	0f b6 05 8d 83 00 00 	movzbl 0x838d(%rip),%eax        # 160b5 <g_63>
    dd28:	44 0f b6 f8          	movzbl %al,%r15d
    dd2c:	48 8b 85 78 f3 ff ff 	mov    -0xc88(%rbp),%rax
    dd33:	48 8b 00             	mov    (%rax),%rax
    dd36:	8b 00                	mov    (%rax),%eax
    dd38:	98                   	cwtl   
    dd39:	89 85 e8 f2 ff ff    	mov    %eax,-0xd18(%rbp)
    dd3f:	8b 85 ec f2 ff ff    	mov    -0xd14(%rbp),%eax
    dd45:	0f be c0             	movsbl %al,%eax
    dd48:	be 06 00 00 00       	mov    $0x6,%esi
    dd4d:	89 c7                	mov    %eax,%edi
    dd4f:	e8 9a 65 ff ff       	callq  42ee <safe_lshift_func_int8_t_s_u>
    dd54:	48 8d 15 d5 9b 00 00 	lea    0x9bd5(%rip),%rdx        # 17930 <g_365>
    dd5b:	48 8b 85 c0 f4 ff ff 	mov    -0xb40(%rbp),%rax
    dd62:	48 89 02             	mov    %rax,(%rdx)
    dd65:	b8 01 00 00 00       	mov    $0x1,%eax
    dd6a:	98                   	cwtl   
    dd6b:	be 0c 00 00 00       	mov    $0xc,%esi
    dd70:	89 c7                	mov    %eax,%edi
    dd72:	e8 ec 67 ff ff       	callq  4563 <safe_rshift_func_int16_t_s_u>
    dd77:	98                   	cwtl   
    dd78:	8b b5 e8 f2 ff ff    	mov    -0xd18(%rbp),%esi
    dd7e:	89 c7                	mov    %eax,%edi
    dd80:	e8 2e 66 ff ff       	callq  43b3 <safe_add_func_int16_t_s_s>
    dd85:	0f b7 c0             	movzwl %ax,%eax
    dd88:	be fc 5d 00 00       	mov    $0x5dfc,%esi
    dd8d:	89 c7                	mov    %eax,%edi
    dd8f:	e8 fa 6f ff ff       	callq  4d8e <safe_div_func_uint16_t_u_u>
    dd94:	0f b6 c0             	movzbl %al,%eax
    dd97:	44 89 fe             	mov    %r15d,%esi
    dd9a:	89 c7                	mov    %eax,%edi
    dd9c:	e8 f2 6d ff ff       	callq  4b93 <safe_mul_func_uint8_t_u_u>
    dda1:	0f b6 c0             	movzbl %al,%eax
    dda4:	4c 89 f6             	mov    %r14,%rsi
    dda7:	48 89 c7             	mov    %rax,%rdi
    ddaa:	e8 48 6c ff ff       	callq  49f7 <safe_div_func_int64_t_s_s>
    ddaf:	48 8b 85 c0 f4 ff ff 	mov    -0xb40(%rbp),%rax
    ddb6:	8b 00                	mov    (%rax),%eax
    ddb8:	0f b7 d0             	movzwl %ax,%edx
    ddbb:	48 8b 05 1e 83 00 00 	mov    0x831e(%rip),%rax        # 160e0 <g_88>
    ddc2:	0f b7 c0             	movzwl %ax,%eax
    ddc5:	89 d6                	mov    %edx,%esi
    ddc7:	89 c7                	mov    %eax,%edi
    ddc9:	e8 6f 6f ff ff       	callq  4d3d <safe_mul_func_uint16_t_u_u>
    ddce:	0f b7 c0             	movzwl %ax,%eax
    ddd1:	ba db 64 f3 1c       	mov    $0x1cf364db,%edx
    ddd6:	39 d0                	cmp    %edx,%eax
    ddd8:	0f 95 c0             	setne  %al
    dddb:	0f b6 c0             	movzbl %al,%eax
    ddde:	44 89 ee             	mov    %r13d,%esi
    dde1:	89 c7                	mov    %eax,%edi
    dde3:	e8 0a 64 ff ff       	callq  41f2 <safe_sub_func_int8_t_s_s>
    dde8:	66 98                	cbtw   
    ddea:	8b 95 ec f2 ff ff    	mov    -0xd14(%rbp),%edx
    ddf0:	09 d0                	or     %edx,%eax
    ddf2:	0f b7 c0             	movzwl %ax,%eax
    ddf5:	44 89 e6             	mov    %r12d,%esi
    ddf8:	89 c7                	mov    %eax,%edi
    ddfa:	e8 20 6f ff ff       	callq  4d1f <safe_sub_func_uint16_t_u_u>
    ddff:	8b 85 ec f2 ff ff    	mov    -0xd14(%rbp),%eax
    de05:	0f b6 c0             	movzbl %al,%eax
    de08:	89 de                	mov    %ebx,%esi
    de0a:	89 c7                	mov    %eax,%edi
    de0c:	e8 82 6d ff ff       	callq  4b93 <safe_mul_func_uint8_t_u_u>
    de11:	0f b7 85 1a f8 ff ff 	movzwl -0x7e6(%rbp),%eax
    de18:	89 c2                	mov    %eax,%edx
    de1a:	48 8b 85 78 f3 ff ff 	mov    -0xc88(%rbp),%rax
    de21:	48 8b 00             	mov    (%rax),%rax
    de24:	8b 00                	mov    (%rax),%eax
    de26:	09 d0                	or     %edx,%eax
    de28:	0f b6 d0             	movzbl %al,%edx
    de2b:	0f b7 85 1a f8 ff ff 	movzwl -0x7e6(%rbp),%eax
    de32:	0f b6 c0             	movzbl %al,%eax
    de35:	89 d6                	mov    %edx,%esi
    de37:	89 c7                	mov    %eax,%edi
    de39:	e8 55 6d ff ff       	callq  4b93 <safe_mul_func_uint8_t_u_u>
    de3e:	48 8d 85 fa f2 ff ff 	lea    -0xd06(%rbp),%rax
    de45:	48 89 85 c8 f4 ff ff 	mov    %rax,-0xb38(%rbp)
    de4c:	c7 85 50 f6 ff ff 05 	movl   $0x5,-0x9b0(%rbp)
    de53:	00 00 00 
    de56:	c7 85 54 f6 ff ff ff 	movl   $0xffffffff,-0x9ac(%rbp)
    de5d:	ff ff ff 
    de60:	c7 85 58 f6 ff ff 05 	movl   $0x5,-0x9a8(%rbp)
    de67:	00 00 00 
    de6a:	c7 85 5c f6 ff ff ff 	movl   $0xffffffff,-0x9a4(%rbp)
    de71:	ff ff ff 
    de74:	c7 85 60 f6 ff ff 05 	movl   $0x5,-0x9a0(%rbp)
    de7b:	00 00 00 
    de7e:	c7 85 64 f6 ff ff ff 	movl   $0xffffffff,-0x99c(%rbp)
    de85:	ff ff ff 
    de88:	c7 85 68 f6 ff ff 05 	movl   $0x5,-0x998(%rbp)
    de8f:	00 00 00 
    de92:	c7 85 6c f6 ff ff ff 	movl   $0xffffffff,-0x994(%rbp)
    de99:	ff ff ff 
    de9c:	0f b6 95 f8 f2 ff ff 	movzbl -0xd08(%rbp),%edx
    dea3:	8b 85 ec f2 ff ff    	mov    -0xd14(%rbp),%eax
    dea9:	89 d6                	mov    %edx,%esi
    deab:	89 c7                	mov    %eax,%edi
    dead:	e8 53 67 ff ff       	callq  4605 <safe_sub_func_int32_t_s_s>
    deb2:	8b 05 78 83 00 00    	mov    0x8378(%rip),%eax        # 16230 <g_667>
    deb8:	0f b6 d8             	movzbl %al,%ebx
    debb:	be 01 00 00 00       	mov    $0x1,%esi
    dec0:	bf 01 00 00 00       	mov    $0x1,%edi
    dec5:	e8 f4 6d ff ff       	callq  4cbe <safe_rshift_func_uint8_t_u_u>
    deca:	0f b6 c0             	movzbl %al,%eax
    decd:	89 de                	mov    %ebx,%esi
    decf:	89 c7                	mov    %eax,%edi
    ded1:	e8 84 6c ff ff       	callq  4b5a <safe_add_func_uint8_t_u_u>
    ded6:	0f b6 d0             	movzbl %al,%edx
    ded9:	48 8b 85 c8 f4 ff ff 	mov    -0xb38(%rbp),%rax
    dee0:	66 89 10             	mov    %dx,(%rax)
    dee3:	48 8b 85 c8 f4 ff ff 	mov    -0xb38(%rbp),%rax
    deea:	0f b7 00             	movzwl (%rax),%eax
    deed:	0f bf d0             	movswl %ax,%edx
    def0:	8b 8d ec f2 ff ff    	mov    -0xd14(%rbp),%ecx
    def6:	48 8b 05 e3 81 00 00 	mov    0x81e3(%rip),%rax        # 160e0 <g_88>
    defd:	48 39 c1             	cmp    %rax,%rcx
    df00:	0f 96 c0             	setbe  %al
    df03:	0f b6 c0             	movzbl %al,%eax
    df06:	89 d6                	mov    %edx,%esi
    df08:	89 c7                	mov    %eax,%edi
    df0a:	e8 e6 64 ff ff       	callq  43f5 <safe_mul_func_int16_t_s_s>
    df0f:	ba 00 00 00 00       	mov    $0x0,%edx
    df14:	8b 85 54 f6 ff ff    	mov    -0x9ac(%rbp),%eax
    df1a:	09 d0                	or     %edx,%eax
    df1c:	89 85 54 f6 ff ff    	mov    %eax,-0x9ac(%rbp)
    df22:	48 8b 85 a0 f3 ff ff 	mov    -0xc60(%rbp),%rax
    df29:	be 07 00 00 00       	mov    $0x7,%esi
    df2e:	48 89 c7             	mov    %rax,%rdi
    df31:	e8 72 69 ff ff       	callq  48a8 <safe_sub_func_int64_t_s_s>
    df36:	48 89 85 a0 f3 ff ff 	mov    %rax,-0xc60(%rbp)
    df3d:	48 83 bd a0 f3 ff ff 	cmpq   $0xfffffffffffffffb,-0xc60(%rbp)
    df44:	fb 
    df45:	0f 8c 9e fd ff ff    	jl     dce9 <func_11+0x241f>
    df4b:	48 8b 05 7e 8a 00 00 	mov    0x8a7e(%rip),%rax        # 169d0 <g_104>
    df52:	48 8b 05 7f 8a 00 00 	mov    0x8a7f(%rip),%rax        # 169d8 <g_280>
    df59:	0f b6 00             	movzbl (%rax),%eax
    df5c:	44 0f b6 e8          	movzbl %al,%r13d
    df60:	8b 05 8a 81 00 00    	mov    0x818a(%rip),%eax        # 160f0 <g_107>
    df66:	48 63 d8             	movslq %eax,%rbx
    df69:	44 8b a5 ec f2 ff ff 	mov    -0xd14(%rbp),%r12d
    df70:	48 8b 05 59 8a 00 00 	mov    0x8a59(%rip),%rax        # 169d0 <g_104>
    df77:	48 8b 00             	mov    (%rax),%rax
    df7a:	4c 8b 30             	mov    (%rax),%r14
    df7d:	8b 85 ec f2 ff ff    	mov    -0xd14(%rbp),%eax
    df83:	0f be c8             	movsbl %al,%ecx
    df86:	8b 05 3c 81 00 00    	mov    0x813c(%rip),%eax        # 160c8 <g_64+0x8>
    df8c:	89 c7                	mov    %eax,%edi
    df8e:	8b 85 a4 f6 ff ff    	mov    -0x95c(%rbp),%eax
    df94:	0f b6 c0             	movzbl %al,%eax
    df97:	48 8b 95 38 f4 ff ff 	mov    -0xbc8(%rbp),%rdx
    df9e:	48 8d b5 f7 f2 ff ff 	lea    -0xd09(%rbp),%rsi
    dfa5:	41 89 c8             	mov    %ecx,%r8d
    dfa8:	48 89 d1             	mov    %rdx,%rcx
    dfab:	89 fa                	mov    %edi,%edx
    dfad:	89 c7                	mov    %eax,%edi
    dfaf:	e8 da 06 00 00       	callq  e68e <func_39>
    dfb4:	49 39 c6             	cmp    %rax,%r14
    dfb7:	75 0c                	jne    dfc5 <func_11+0x26fb>
    dfb9:	0f b7 05 8e 81 00 00 	movzwl 0x818e(%rip),%eax        # 1614e <g_198+0x4e>
    dfc0:	66 85 c0             	test   %ax,%ax
    dfc3:	74 07                	je     dfcc <func_11+0x2702>
    dfc5:	b8 01 00 00 00       	mov    $0x1,%eax
    dfca:	eb 05                	jmp    dfd1 <func_11+0x2707>
    dfcc:	b8 00 00 00 00       	mov    $0x0,%eax
    dfd1:	0f b7 c0             	movzwl %ax,%eax
    dfd4:	44 89 e6             	mov    %r12d,%esi
    dfd7:	89 c7                	mov    %eax,%edi
    dfd9:	e8 e0 6d ff ff       	callq  4dbe <safe_lshift_func_uint16_t_u_s>
    dfde:	0f b7 d0             	movzwl %ax,%edx
    dfe1:	48 8b 85 c8 f3 ff ff 	mov    -0xc38(%rbp),%rax
    dfe8:	89 10                	mov    %edx,(%rax)
    dfea:	48 8b 85 98 f3 ff ff 	mov    -0xc68(%rbp),%rax
    dff1:	48 c7 00 01 00 00 00 	movq   $0x1,(%rax)
    dff8:	48 89 de             	mov    %rbx,%rsi
    dffb:	bf 01 00 00 00       	mov    $0x1,%edi
    e000:	e8 f2 69 ff ff       	callq  49f7 <safe_div_func_int64_t_s_s>
    e005:	49 39 c5             	cmp    %rax,%r13
    e008:	0f 9d c0             	setge  %al
    e00b:	0f b6 d0             	movzbl %al,%edx
    e00e:	8b 05 14 82 00 00    	mov    0x8214(%rip),%eax        # 16228 <g_449>
    e014:	09 d0                	or     %edx,%eax
    e016:	3d 4f 01 00 00       	cmp    $0x14f,%eax
    e01b:	0f 96 c0             	setbe  %al
    e01e:	0f b6 c0             	movzbl %al,%eax
    e021:	be 77 f4 00 00       	mov    $0xf477,%esi
    e026:	89 c7                	mov    %eax,%edi
    e028:	e8 d2 6c ff ff       	callq  4cff <safe_add_func_uint16_t_u_u>
    e02d:	0f b7 c0             	movzwl %ax,%eax
    e030:	39 85 ec f2 ff ff    	cmp    %eax,-0xd14(%rbp)
    e036:	0f 92 c0             	setb   %al
    e039:	0f b6 c0             	movzbl %al,%eax
    e03c:	8b 95 ec f2 ff ff    	mov    -0xd14(%rbp),%edx
    e042:	89 d6                	mov    %edx,%esi
    e044:	89 c7                	mov    %eax,%edi
    e046:	e8 85 6e ff ff       	callq  4ed0 <safe_sub_func_uint32_t_u_u>
    e04b:	89 c2                	mov    %eax,%edx
    e04d:	48 8b 85 48 f4 ff ff 	mov    -0xbb8(%rbp),%rax
    e054:	66 89 10             	mov    %dx,(%rax)
    e057:	48 8b 85 48 f4 ff ff 	mov    -0xbb8(%rbp),%rax
    e05e:	0f b7 00             	movzwl (%rax),%eax
    e061:	66 83 f8 03          	cmp    $0x3,%ax
    e065:	0f 96 c0             	setbe  %al
    e068:	0f b6 c0             	movzbl %al,%eax
    e06b:	be 01 00 00 00       	mov    $0x1,%esi
    e070:	89 c7                	mov    %eax,%edi
    e072:	e8 37 6b ff ff       	callq  4bae <safe_mod_func_uint8_t_u_u>
    e077:	48 8b 95 a8 f3 ff ff 	mov    -0xc58(%rbp),%rdx
    e07e:	8b 12                	mov    (%rdx),%edx
    e080:	0f b6 c0             	movzbl %al,%eax
    e083:	09 c2                	or     %eax,%edx
    e085:	48 8b 85 a8 f3 ff ff 	mov    -0xc58(%rbp),%rax
    e08c:	89 10                	mov    %edx,(%rax)
    e08e:	e9 73 01 00 00       	jmpq   e206 <func_11+0x293c>
    e093:	66 c7 85 fe f2 ff ff 	movw   $0xfffe,-0xd02(%rbp)
    e09a:	fe ff 
    e09c:	c7 85 34 f3 ff ff 37 	movl   $0x2f404c37,-0xccc(%rbp)
    e0a3:	4c 40 2f 
    e0a6:	66 83 bd fe f2 ff ff 	cmpw   $0x0,-0xd02(%rbp)
    e0ad:	00 
    e0ae:	0f 85 89 01 00 00    	jne    e23d <func_11+0x2973>
    e0b4:	c6 85 f6 f2 ff ff 00 	movb   $0x0,-0xd0a(%rbp)
    e0bb:	e9 37 01 00 00       	jmpq   e1f7 <func_11+0x292d>
    e0c0:	48 8d 05 87 80 00 00 	lea    0x8087(%rip),%rax        # 1614e <g_198+0x4e>
    e0c7:	48 89 85 18 f4 ff ff 	mov    %rax,-0xbe8(%rbp)
    e0ce:	c7 85 38 f3 ff ff 07 	movl   $0x7,-0xcc8(%rbp)
    e0d5:	00 00 00 
    e0d8:	48 8d 05 4d 81 00 00 	lea    0x814d(%rip),%rax        # 1622c <g_549>
    e0df:	48 89 85 20 f4 ff ff 	mov    %rax,-0xbe0(%rbp)
    e0e6:	66 c7 05 29 81 00 00 	movw   $0x3,0x8129(%rip)        # 16218 <g_237>
    e0ed:	03 00 
    e0ef:	90                   	nop
    e0f0:	0f b7 05 21 81 00 00 	movzwl 0x8121(%rip),%eax        # 16218 <g_237>
    e0f7:	66 83 f8 22          	cmp    $0x22,%ax
    e0fb:	76 0f                	jbe    e10c <func_11+0x2842>
    e0fd:	48 8d 05 2c 98 00 00 	lea    0x982c(%rip),%rax        # 17930 <g_365>
    e104:	48 8b 00             	mov    (%rax),%rax
    e107:	e9 93 02 00 00       	jmpq   e39f <func_11+0x2ad5>
    e10c:	8b 95 ec f2 ff ff    	mov    -0xd14(%rbp),%edx
    e112:	48 8b 85 a8 f3 ff ff 	mov    -0xc58(%rbp),%rax
    e119:	89 10                	mov    %edx,(%rax)
    e11b:	8b 05 a7 7f 00 00    	mov    0x7fa7(%rip),%eax        # 160c8 <g_64+0x8>
    e121:	89 c0                	mov    %eax,%eax
    e123:	48 89 c6             	mov    %rax,%rsi
    e126:	48 bf a1 7a ec e8 1d 	movabs $0x38d9cf1de8ec7aa1,%rdi
    e12d:	cf d9 38 
    e130:	e8 c2 68 ff ff       	callq  49f7 <safe_div_func_int64_t_s_s>
    e135:	48 85 c0             	test   %rax,%rax
    e138:	75 6e                	jne    e1a8 <func_11+0x28de>
    e13a:	8b 85 38 f3 ff ff    	mov    -0xcc8(%rbp),%eax
    e140:	0f bf d8             	movswl %ax,%ebx
    e143:	48 8b 85 18 f4 ff ff 	mov    -0xbe8(%rbp),%rax
    e14a:	66 c7 00 00 00       	movw   $0x0,(%rax)
    e14f:	0f b6 05 5e 7f 00 00 	movzbl 0x7f5e(%rip),%eax        # 160b4 <g_53>
    e156:	44 0f b6 e0          	movzbl %al,%r12d
    e15a:	8b 85 ec f2 ff ff    	mov    -0xd14(%rbp),%eax
    e160:	0f be c0             	movsbl %al,%eax
    e163:	be 01 00 00 00       	mov    $0x1,%esi
    e168:	89 c7                	mov    %eax,%edi
    e16a:	e8 83 60 ff ff       	callq  41f2 <safe_sub_func_int8_t_s_s>
    e16f:	48 0f be c0          	movsbq %al,%rax
    e173:	be 01 00 00 00       	mov    $0x1,%esi
    e178:	48 89 c7             	mov    %rax,%rdi
    e17b:	e8 ae 6e ff ff       	callq  502e <safe_add_func_uint64_t_u_u>
    e180:	0f b7 c0             	movzwl %ax,%eax
    e183:	44 89 e6             	mov    %r12d,%esi
    e186:	89 c7                	mov    %eax,%edi
    e188:	e8 b0 6b ff ff       	callq  4d3d <safe_mul_func_uint16_t_u_u>
    e18d:	98                   	cwtl   
    e18e:	89 de                	mov    %ebx,%esi
    e190:	89 c7                	mov    %eax,%edi
    e192:	e8 3c 62 ff ff       	callq  43d3 <safe_sub_func_int16_t_s_s>
    e197:	0f b6 c0             	movzbl %al,%eax
    e19a:	be 04 00 00 00       	mov    $0x4,%esi
    e19f:	89 c7                	mov    %eax,%edi
    e1a1:	e8 35 6a ff ff       	callq  4bdb <safe_div_func_uint8_t_u_u>
    e1a6:	84 c0                	test   %al,%al
    e1a8:	48 8b 85 00 f4 ff ff 	mov    -0xc00(%rbp),%rax
    e1af:	0f b7 00             	movzwl (%rax),%eax
    e1b2:	66 35 62 85          	xor    $0x8562,%ax
    e1b6:	89 c2                	mov    %eax,%edx
    e1b8:	48 8b 85 00 f4 ff ff 	mov    -0xc00(%rbp),%rax
    e1bf:	66 89 10             	mov    %dx,(%rax)
    e1c2:	48 8b 85 a8 f3 ff ff 	mov    -0xc58(%rbp),%rax
    e1c9:	c7 00 01 00 00 00    	movl   $0x1,(%rax)
    e1cf:	48 8b 85 80 f3 ff ff 	mov    -0xc80(%rbp),%rax
    e1d6:	48 8b 00             	mov    (%rax),%rax
    e1d9:	48 8b 00             	mov    (%rax),%rax
    e1dc:	48 8b 95 a8 f3 ff ff 	mov    -0xc58(%rbp),%rdx
    e1e3:	8b 12                	mov    (%rdx),%edx
    e1e5:	89 10                	mov    %edx,(%rax)
    e1e7:	0f b6 85 f6 f2 ff ff 	movzbl -0xd0a(%rbp),%eax
    e1ee:	83 e8 01             	sub    $0x1,%eax
    e1f1:	88 85 f6 f2 ff ff    	mov    %al,-0xd0a(%rbp)
    e1f7:	0f b6 85 f6 f2 ff ff 	movzbl -0xd0a(%rbp),%eax
    e1fe:	3c e2                	cmp    $0xe2,%al
    e200:	0f 85 ba fe ff ff    	jne    e0c0 <func_11+0x27f6>
    e206:	48 8b 05 bb 87 00 00 	mov    0x87bb(%rip),%rax        # 169c8 <g_105>
    e20d:	48 8b 00             	mov    (%rax),%rax
    e210:	8b 10                	mov    (%rax),%edx
    e212:	81 e2 fc a1 9a 98    	and    $0x989aa1fc,%edx
    e218:	89 10                	mov    %edx,(%rax)
    e21a:	8b 05 d4 7e 00 00    	mov    0x7ed4(%rip),%eax        # 160f4 <g_124>
    e220:	83 c0 01             	add    $0x1,%eax
    e223:	89 05 cb 7e 00 00    	mov    %eax,0x7ecb(%rip)        # 160f4 <g_124>
    e229:	8b 05 c5 7e 00 00    	mov    0x7ec5(%rip),%eax        # 160f4 <g_124>
    e22f:	83 f8 23             	cmp    $0x23,%eax
    e232:	0f 87 77 e2 ff ff    	ja     c4af <func_11+0xbe5>
    e238:	eb 04                	jmp    e23e <func_11+0x2974>
    e23a:	90                   	nop
    e23b:	eb 01                	jmp    e23e <func_11+0x2974>
    e23d:	90                   	nop
    e23e:	8b 05 98 7e 00 00    	mov    0x7e98(%rip),%eax        # 160dc <g_81>
    e244:	0f bf d8             	movswl %ax,%ebx
    e247:	8b 85 ec f2 ff ff    	mov    -0xd14(%rbp),%eax
    e24d:	44 0f bf e0          	movswl %ax,%r12d
    e251:	48 8b 85 78 f3 ff ff 	mov    -0xc88(%rbp),%rax
    e258:	48 8b 00             	mov    (%rax),%rax
    e25b:	8b 00                	mov    (%rax),%eax
    e25d:	83 f8 fe             	cmp    $0xfffffffe,%eax
    e260:	0f 95 c0             	setne  %al
    e263:	0f b6 c0             	movzbl %al,%eax
    e266:	8b 15 bc 7f 00 00    	mov    0x7fbc(%rip),%edx        # 16228 <g_449>
    e26c:	31 d0                	xor    %edx,%eax
    e26e:	41 89 c5             	mov    %eax,%r13d
    e271:	0f b7 05 d2 7e 00 00 	movzwl 0x7ed2(%rip),%eax        # 1614a <g_198+0x4a>
    e278:	48 0f bf c0          	movswq %ax,%rax
    e27c:	be 00 00 00 00       	mov    $0x0,%esi
    e281:	48 89 c7             	mov    %rax,%rdi
    e284:	e8 a5 6d ff ff       	callq  502e <safe_add_func_uint64_t_u_u>
    e289:	98                   	cwtl   
    e28a:	be 0b 00 00 00       	mov    $0xb,%esi
    e28f:	89 c7                	mov    %eax,%edi
    e291:	e8 fc 61 ff ff       	callq  4492 <safe_lshift_func_int16_t_s_s>
    e296:	f7 d0                	not    %eax
    e298:	66 c1 e8 0f          	shr    $0xf,%ax
    e29c:	0f b6 c0             	movzbl %al,%eax
    e29f:	66 89 05 72 7f 00 00 	mov    %ax,0x7f72(%rip)        # 16218 <g_237>
    e2a6:	0f b7 05 6b 7f 00 00 	movzwl 0x7f6b(%rip),%eax        # 16218 <g_237>
    e2ad:	44 21 e8             	and    %r13d,%eax
    e2b0:	98                   	cwtl   
    e2b1:	44 89 e6             	mov    %r12d,%esi
    e2b4:	89 c7                	mov    %eax,%edi
    e2b6:	e8 3a 61 ff ff       	callq  43f5 <safe_mul_func_int16_t_s_s>
    e2bb:	66 89 05 6a 7f 00 00 	mov    %ax,0x7f6a(%rip)        # 1622c <g_549>
    e2c2:	0f b7 05 63 7f 00 00 	movzwl 0x7f63(%rip),%eax        # 1622c <g_549>
    e2c9:	98                   	cwtl   
    e2ca:	89 c6                	mov    %eax,%esi
    e2cc:	bf 01 00 00 00       	mov    $0x1,%edi
    e2d1:	e8 dd 60 ff ff       	callq  43b3 <safe_add_func_int16_t_s_s>
    e2d6:	b9 00 00 00 00       	mov    $0x0,%ecx
    e2db:	48 8b 85 d0 f3 ff ff 	mov    -0xc30(%rbp),%rax
    e2e2:	48 8b 10             	mov    (%rax),%rdx
    e2e5:	48 63 c1             	movslq %ecx,%rax
    e2e8:	48 09 c2             	or     %rax,%rdx
    e2eb:	48 8b 85 d0 f3 ff ff 	mov    -0xc30(%rbp),%rax
    e2f2:	48 89 10             	mov    %rdx,(%rax)
    e2f5:	8b 85 ec f2 ff ff    	mov    -0xd14(%rbp),%eax
    e2fb:	89 c6                	mov    %eax,%esi
    e2fd:	bf 1b ef 5a 0a       	mov    $0xa5aef1b,%edi
    e302:	e8 c9 6b ff ff       	callq  4ed0 <safe_sub_func_uint32_t_u_u>
    e307:	85 c0                	test   %eax,%eax
    e309:	75 09                	jne    e314 <func_11+0x2a4a>
    e30b:	83 bd ec f2 ff ff 00 	cmpl   $0x0,-0xd14(%rbp)
    e312:	74 07                	je     e31b <func_11+0x2a51>
    e314:	b8 01 00 00 00       	mov    $0x1,%eax
    e319:	eb 05                	jmp    e320 <func_11+0x2a56>
    e31b:	b8 00 00 00 00       	mov    $0x0,%eax
    e320:	98                   	cwtl   
    e321:	89 de                	mov    %ebx,%esi
    e323:	89 c7                	mov    %eax,%edi
    e325:	e8 ec 60 ff ff       	callq  4416 <safe_mod_func_int16_t_s_s>
    e32a:	48 0f bf c0          	movswq %ax,%rax
    e32e:	48 be b6 89 be 8c aa 	movabs $0xd3b4c1aa8cbe89b6,%rsi
    e335:	c1 b4 d3 
    e338:	48 89 c7             	mov    %rax,%rdi
    e33b:	e8 68 65 ff ff       	callq  48a8 <safe_sub_func_int64_t_s_s>
    e340:	89 c2                	mov    %eax,%edx
    e342:	8b 85 ec f2 ff ff    	mov    -0xd14(%rbp),%eax
    e348:	0f b6 c0             	movzbl %al,%eax
    e34b:	89 d6                	mov    %edx,%esi
    e34d:	89 c7                	mov    %eax,%edi
    e34f:	e8 b1 68 ff ff       	callq  4c05 <safe_lshift_func_uint8_t_u_s>
    e354:	b9 01 00 00 00       	mov    $0x1,%ecx
    e359:	48 8b 85 d8 f3 ff ff 	mov    -0xc28(%rbp),%rax
    e360:	48 8b 10             	mov    (%rax),%rdx
    e363:	48 63 c1             	movslq %ecx,%rax
    e366:	48 09 c2             	or     %rax,%rdx
    e369:	48 8b 85 d8 f3 ff ff 	mov    -0xc28(%rbp),%rax
    e370:	48 89 10             	mov    %rdx,(%rax)
    e373:	48 8b 85 d8 f3 ff ff 	mov    -0xc28(%rbp),%rax
    e37a:	48 8b 10             	mov    (%rax),%rdx
    e37d:	8b 85 ec f2 ff ff    	mov    -0xd14(%rbp),%eax
    e383:	48 39 c2             	cmp    %rax,%rdx
    e386:	0f 9e c2             	setle  %dl
    e389:	48 8b 05 38 86 00 00 	mov    0x8638(%rip),%rax        # 169c8 <g_105>
    e390:	48 8b 00             	mov    (%rax),%rax
    e393:	0f b6 d2             	movzbl %dl,%edx
    e396:	89 10                	mov    %edx,(%rax)
    e398:	48 8b 85 e0 f3 ff ff 	mov    -0xc20(%rbp),%rax
    e39f:	48 8b 5d c8          	mov    -0x38(%rbp),%rbx
    e3a3:	64 48 33 1c 25 28 00 	xor    %fs:0x28,%rbx
    e3aa:	00 00 
    e3ac:	74 05                	je     e3b3 <func_11+0x2ae9>
    e3ae:	e8 bd 5c ff ff       	callq  4070 <__stack_chk_fail@plt>
    e3b3:	48 81 c4 18 0d 00 00 	add    $0xd18,%rsp
    e3ba:	5b                   	pop    %rbx
    e3bb:	41 5c                	pop    %r12
    e3bd:	41 5d                	pop    %r13
    e3bf:	41 5e                	pop    %r14
    e3c1:	41 5f                	pop    %r15
    e3c3:	5d                   	pop    %rbp
    e3c4:	c3                   	retq   

000000000000e3c5 <func_14>:
    e3c5:	f3 0f 1e fa          	endbr64 
    e3c9:	55                   	push   %rbp
    e3ca:	48 89 e5             	mov    %rsp,%rbp
    e3cd:	89 7d fc             	mov    %edi,-0x4(%rbp)
    e3d0:	48 8b 05 f9 85 00 00 	mov    0x85f9(%rip),%rax        # 169d0 <g_104>
    e3d7:	48 8b 00             	mov    (%rax),%rax
    e3da:	48 8b 10             	mov    (%rax),%rdx
    e3dd:	48 8b 05 e4 85 00 00 	mov    0x85e4(%rip),%rax        # 169c8 <g_105>
    e3e4:	48 8b 00             	mov    (%rax),%rax
    e3e7:	8b 12                	mov    (%rdx),%edx
    e3e9:	89 10                	mov    %edx,(%rax)
    e3eb:	48 8d 05 ea 7c 00 00 	lea    0x7cea(%rip),%rax        # 160dc <g_81>
    e3f2:	5d                   	pop    %rbp
    e3f3:	c3                   	retq   

000000000000e3f4 <func_22>:
    e3f4:	f3 0f 1e fa          	endbr64 
    e3f8:	55                   	push   %rbp
    e3f9:	48 89 e5             	mov    %rsp,%rbp
    e3fc:	48 89 55 e0          	mov    %rdx,-0x20(%rbp)
    e400:	89 c8                	mov    %ecx,%eax
    e402:	4c 89 45 d0          	mov    %r8,-0x30(%rbp)
    e406:	89 fa                	mov    %edi,%edx
    e408:	66 89 55 ec          	mov    %dx,-0x14(%rbp)
    e40c:	89 f2                	mov    %esi,%edx
    e40e:	66 89 55 e8          	mov    %dx,-0x18(%rbp)
    e412:	66 89 45 dc          	mov    %ax,-0x24(%rbp)
    e416:	48 c7 45 f8 00 00 00 	movq   $0x0,-0x8(%rbp)
    e41d:	00 
    e41e:	48 8d 05 8f 7c 00 00 	lea    0x7c8f(%rip),%rax        # 160b4 <g_53>
    e425:	0f b7 55 e8          	movzwl -0x18(%rbp),%edx
    e429:	88 10                	mov    %dl,(%rax)
    e42b:	0f b6 00             	movzbl (%rax),%eax
    e42e:	84 c0                	test   %al,%al
    e430:	75 07                	jne    e439 <func_22+0x45>
    e432:	48 83 7d f8 00       	cmpq   $0x0,-0x8(%rbp)
    e437:	74 07                	je     e440 <func_22+0x4c>
    e439:	ba 01 00 00 00       	mov    $0x1,%edx
    e43e:	eb 05                	jmp    e445 <func_22+0x51>
    e440:	ba 00 00 00 00       	mov    $0x0,%edx
    e445:	48 8b 05 7c 85 00 00 	mov    0x857c(%rip),%rax        # 169c8 <g_105>
    e44c:	48 8b 00             	mov    (%rax),%rax
    e44f:	8b 00                	mov    (%rax),%eax
    e451:	09 c2                	or     %eax,%edx
    e453:	48 8b 45 d0          	mov    -0x30(%rbp),%rax
    e457:	89 10                	mov    %edx,(%rax)
    e459:	0f b7 45 e8          	movzwl -0x18(%rbp),%eax
    e45d:	5d                   	pop    %rbp
    e45e:	c3                   	retq   

000000000000e45f <func_28>:
    e45f:	f3 0f 1e fa          	endbr64 
    e463:	55                   	push   %rbp
    e464:	48 89 e5             	mov    %rsp,%rbp
    e467:	41 54                	push   %r12
    e469:	53                   	push   %rbx
    e46a:	48 81 ec 00 06 00 00 	sub    $0x600,%rsp
    e471:	48 89 bd 08 fa ff ff 	mov    %rdi,-0x5f8(%rbp)
    e478:	48 89 b5 00 fa ff ff 	mov    %rsi,-0x600(%rbp)
    e47f:	89 95 fc f9 ff ff    	mov    %edx,-0x604(%rbp)
    e485:	48 89 8d f0 f9 ff ff 	mov    %rcx,-0x610(%rbp)
    e48c:	64 48 8b 04 25 28 00 	mov    %fs:0x28,%rax
    e493:	00 00 
    e495:	48 89 45 e8          	mov    %rax,-0x18(%rbp)
    e499:	31 c0                	xor    %eax,%eax
    e49b:	48 8d 05 86 94 00 00 	lea    0x9486(%rip),%rax        # 17928 <g_10>
    e4a2:	48 89 85 18 fa ff ff 	mov    %rax,-0x5e8(%rbp)
    e4a9:	48 8d 05 78 94 00 00 	lea    0x9478(%rip),%rax        # 17928 <g_10>
    e4b0:	48 89 85 20 fa ff ff 	mov    %rax,-0x5e0(%rbp)
    e4b7:	48 8d 85 20 fa ff ff 	lea    -0x5e0(%rbp),%rax
    e4be:	48 89 85 28 fa ff ff 	mov    %rax,-0x5d8(%rbp)
    e4c5:	66 c7 85 32 fa ff ff 	movw   $0xffff,-0x5ce(%rbp)
    e4cc:	ff ff 
    e4ce:	66 c7 85 34 fa ff ff 	movw   $0xffff,-0x5cc(%rbp)
    e4d5:	ff ff 
    e4d7:	66 c7 85 36 fa ff ff 	movw   $0x1093,-0x5ca(%rbp)
    e4de:	93 10 
    e4e0:	66 c7 85 38 fa ff ff 	movw   $0xffff,-0x5c8(%rbp)
    e4e7:	ff ff 
    e4e9:	66 c7 85 3a fa ff ff 	movw   $0xffff,-0x5c6(%rbp)
    e4f0:	ff ff 
    e4f2:	66 c7 85 3c fa ff ff 	movw   $0x1093,-0x5c4(%rbp)
    e4f9:	93 10 
    e4fb:	66 c7 85 3e fa ff ff 	movw   $0xffff,-0x5c2(%rbp)
    e502:	ff ff 
    e504:	0f b7 05 6b 7c 00 00 	movzwl 0x7c6b(%rip),%eax        # 16176 <g_198+0x76>
    e50b:	48 0f bf d0          	movswq %ax,%rdx
    e50f:	48 8b 05 d2 7b 00 00 	mov    0x7bd2(%rip),%rax        # 160e8 <g_91>
    e516:	48 39 c2             	cmp    %rax,%rdx
    e519:	0f 95 c0             	setne  %al
    e51c:	0f b6 d0             	movzbl %al,%edx
    e51f:	8b 05 cf 7b 00 00    	mov    0x7bcf(%rip),%eax        # 160f4 <g_124>
    e525:	39 c2                	cmp    %eax,%edx
    e527:	0f 96 c0             	setbe  %al
    e52a:	0f b6 d8             	movzbl %al,%ebx
    e52d:	8b 05 99 7b 00 00    	mov    0x7b99(%rip),%eax        # 160cc <g_64+0xc>
    e533:	0f bf d0             	movswl %ax,%edx
    e536:	48 8b 85 18 fa ff ff 	mov    -0x5e8(%rbp),%rax
    e53d:	48 85 c0             	test   %rax,%rax
    e540:	0f 95 c0             	setne  %al
    e543:	0f b6 c0             	movzbl %al,%eax
    e546:	89 d6                	mov    %edx,%esi
    e548:	89 c7                	mov    %eax,%edi
    e54a:	e8 c7 5e ff ff       	callq  4416 <safe_mod_func_int16_t_s_s>
    e54f:	44 0f bf e0          	movswl %ax,%r12d
    e553:	48 8d 85 18 fa ff ff 	lea    -0x5e8(%rbp),%rax
    e55a:	48 89 85 28 fa ff ff 	mov    %rax,-0x5d8(%rbp)
    e561:	48 8d 85 20 fa ff ff 	lea    -0x5e0(%rbp),%rax
    e568:	48 39 85 28 fa ff ff 	cmp    %rax,-0x5d8(%rbp)
    e56f:	0f 95 c0             	setne  %al
    e572:	0f b6 c0             	movzbl %al,%eax
    e575:	89 c7                	mov    %eax,%edi
    e577:	e8 6d 67 ff ff       	callq  4ce9 <safe_unary_minus_func_uint16_t_u>
    e57c:	48 8b 95 00 fa ff ff 	mov    -0x600(%rbp),%rdx
    e583:	0f b6 12             	movzbl (%rdx),%edx
    e586:	0f b6 d2             	movzbl %dl,%edx
    e589:	66 39 d0             	cmp    %dx,%ax
    e58c:	0f 95 c0             	setne  %al
    e58f:	0f b6 c0             	movzbl %al,%eax
    e592:	be 01 00 00 00       	mov    $0x1,%esi
    e597:	89 c7                	mov    %eax,%edi
    e599:	e8 f5 65 ff ff       	callq  4b93 <safe_mul_func_uint8_t_u_u>
    e59e:	84 c0                	test   %al,%al
    e5a0:	75 09                	jne    e5ab <func_28+0x14c>
    e5a2:	83 bd fc f9 ff ff 00 	cmpl   $0x0,-0x604(%rbp)
    e5a9:	74 07                	je     e5b2 <func_28+0x153>
    e5ab:	b8 01 00 00 00       	mov    $0x1,%eax
    e5b0:	eb 05                	jmp    e5b7 <func_28+0x158>
    e5b2:	b8 00 00 00 00       	mov    $0x0,%eax
    e5b7:	3d 3e e4 08 35       	cmp    $0x3508e43e,%eax
    e5bc:	0f 95 c0             	setne  %al
    e5bf:	0f b6 c0             	movzbl %al,%eax
    e5c2:	44 21 e0             	and    %r12d,%eax
    e5c5:	21 c3                	and    %eax,%ebx
    e5c7:	89 d9                	mov    %ebx,%ecx
    e5c9:	48 8b 05 f8 83 00 00 	mov    0x83f8(%rip),%rax        # 169c8 <g_105>
    e5d0:	48 8b 00             	mov    (%rax),%rax
    e5d3:	8b 10                	mov    (%rax),%edx
    e5d5:	21 ca                	and    %ecx,%edx
    e5d7:	89 10                	mov    %edx,(%rax)
    e5d9:	48 c7 05 3c 7c 00 00 	movq   $0xffffffffffffffee,0x7c3c(%rip)        # 16220 <g_294>
    e5e0:	ee ff ff ff 
    e5e4:	eb 51                	jmp    e637 <func_28+0x1d8>
    e5e6:	48 8d 85 40 fa ff ff 	lea    -0x5c0(%rbp),%rax
    e5ed:	48 8d 15 2c 7e 00 00 	lea    0x7e2c(%rip),%rdx        # 16420 <g_1524+0x138>
    e5f4:	b9 b4 00 00 00       	mov    $0xb4,%ecx
    e5f9:	48 89 c7             	mov    %rax,%rdi
    e5fc:	48 89 d6             	mov    %rdx,%rsi
    e5ff:	f3 48 a5             	rep movsq %ds:(%rsi),%es:(%rdi)
    e602:	0f b7 85 3c fa ff ff 	movzwl -0x5c4(%rbp),%eax
    e609:	83 c0 01             	add    $0x1,%eax
    e60c:	66 89 85 3c fa ff ff 	mov    %ax,-0x5c4(%rbp)
    e613:	48 8b 05 ae 83 00 00 	mov    0x83ae(%rip),%rax        # 169c8 <g_105>
    e61a:	48 8b 00             	mov    (%rax),%rax
    e61d:	8b 95 fc f9 ff ff    	mov    -0x604(%rbp),%edx
    e623:	89 10                	mov    %edx,(%rax)
    e625:	48 8b 05 f4 7b 00 00 	mov    0x7bf4(%rip),%rax        # 16220 <g_294>
    e62c:	48 83 c0 01          	add    $0x1,%rax
    e630:	48 89 05 e9 7b 00 00 	mov    %rax,0x7be9(%rip)        # 16220 <g_294>
    e637:	48 8b 05 e2 7b 00 00 	mov    0x7be2(%rip),%rax        # 16220 <g_294>
    e63e:	48 83 f8 14          	cmp    $0x14,%rax
    e642:	7f a2                	jg     e5e6 <func_28+0x187>
    e644:	0f b7 05 cd 7b 00 00 	movzwl 0x7bcd(%rip),%eax        # 16218 <g_237>
    e64b:	48 8b 4d e8          	mov    -0x18(%rbp),%rcx
    e64f:	64 48 33 0c 25 28 00 	xor    %fs:0x28,%rcx
    e656:	00 00 
    e658:	74 05                	je     e65f <func_28+0x200>
    e65a:	e8 11 5a ff ff       	callq  4070 <__stack_chk_fail@plt>
    e65f:	48 81 c4 00 06 00 00 	add    $0x600,%rsp
    e666:	5b                   	pop    %rbx
    e667:	41 5c                	pop    %r12
    e669:	5d                   	pop    %rbp
    e66a:	c3                   	retq   

000000000000e66b <func_33>:
    e66b:	f3 0f 1e fa          	endbr64 
    e66f:	55                   	push   %rbp
    e670:	48 89 e5             	mov    %rsp,%rbp
    e673:	48 89 7d f8          	mov    %rdi,-0x8(%rbp)
    e677:	48 89 75 f0          	mov    %rsi,-0x10(%rbp)
    e67b:	89 d0                	mov    %edx,%eax
    e67d:	48 89 4d e0          	mov    %rcx,-0x20(%rbp)
    e681:	44 89 45 e8          	mov    %r8d,-0x18(%rbp)
    e685:	88 45 ec             	mov    %al,-0x14(%rbp)
    e688:	48 8b 45 e0          	mov    -0x20(%rbp),%rax
    e68c:	5d                   	pop    %rbp
    e68d:	c3                   	retq   

000000000000e68e <func_39>:
    e68e:	f3 0f 1e fa          	endbr64 
    e692:	55                   	push   %rbp
    e693:	48 89 e5             	mov    %rsp,%rbp
    e696:	89 f8                	mov    %edi,%eax
    e698:	48 89 75 e0          	mov    %rsi,-0x20(%rbp)
    e69c:	89 55 e8             	mov    %edx,-0x18(%rbp)
    e69f:	48 89 4d d8          	mov    %rcx,-0x28(%rbp)
    e6a3:	44 89 c2             	mov    %r8d,%edx
    e6a6:	88 45 ec             	mov    %al,-0x14(%rbp)
    e6a9:	89 d0                	mov    %edx,%eax
    e6ab:	88 45 d4             	mov    %al,-0x2c(%rbp)
    e6ae:	48 8d 05 27 7a 00 00 	lea    0x7a27(%rip),%rax        # 160dc <g_81>
    e6b5:	48 89 45 f8          	mov    %rax,-0x8(%rbp)
    e6b9:	48 8b 45 f8          	mov    -0x8(%rbp),%rax
    e6bd:	5d                   	pop    %rbp
    e6be:	c3                   	retq   

000000000000e6bf <func_47>:
    e6bf:	f3 0f 1e fa          	endbr64 
    e6c3:	55                   	push   %rbp
    e6c4:	48 89 e5             	mov    %rsp,%rbp
    e6c7:	41 57                	push   %r15
    e6c9:	41 56                	push   %r14
    e6cb:	41 55                	push   %r13
    e6cd:	41 54                	push   %r12
    e6cf:	53                   	push   %rbx
    e6d0:	48 81 ec 00 10 00 00 	sub    $0x1000,%rsp
    e6d7:	48 83 0c 24 00       	orq    $0x0,(%rsp)
    e6dc:	48 81 ec 68 01 00 00 	sub    $0x168,%rsp
    e6e3:	48 89 bd 98 ee ff ff 	mov    %rdi,-0x1168(%rbp)
    e6ea:	48 89 b5 90 ee ff ff 	mov    %rsi,-0x1170(%rbp)
    e6f1:	48 89 95 88 ee ff ff 	mov    %rdx,-0x1178(%rbp)
    e6f8:	89 c8                	mov    %ecx,%eax
    e6fa:	88 85 84 ee ff ff    	mov    %al,-0x117c(%rbp)
    e700:	64 48 8b 04 25 28 00 	mov    %fs:0x28,%rax
    e707:	00 00 
    e709:	48 89 45 c8          	mov    %rax,-0x38(%rbp)
    e70d:	31 c0                	xor    %eax,%eax
    e70f:	c6 85 ae ee ff ff ee 	movb   $0xee,-0x1152(%rbp)
    e716:	c7 85 b8 ee ff ff 02 	movl   $0x2,-0x1148(%rbp)
    e71d:	00 00 00 
    e720:	c7 85 e4 ee ff ff fb 	movl   $0xfffffffb,-0x111c(%rbp)
    e727:	ff ff ff 
    e72a:	c7 85 e8 ee ff ff cd 	movl   $0x99034fcd,-0x1118(%rbp)
    e731:	4f 03 99 
    e734:	48 8d 85 00 fc ff ff 	lea    -0x400(%rbp),%rax
    e73b:	48 8d 15 9e 31 00 00 	lea    0x319e(%rip),%rdx        # 118e0 <g_362+0x88c>
    e742:	b9 78 00 00 00       	mov    $0x78,%ecx
    e747:	48 89 c7             	mov    %rax,%rdi
    e74a:	48 89 d6             	mov    %rdx,%rsi
    e74d:	f3 48 a5             	rep movsq %ds:(%rsi),%es:(%rdi)
    e750:	c7 85 ec ee ff ff ad 	movl   $0x2df9e6ad,-0x1114(%rbp)
    e757:	e6 f9 2d 
    e75a:	48 c7 85 90 ef ff ff 	movq   $0x0,-0x1070(%rbp)
    e761:	00 00 00 00 
    e765:	66 c7 85 e0 f1 ff ff 	movw   $0x5404,-0xe20(%rbp)
    e76c:	04 54 
    e76e:	66 c7 85 e2 f1 ff ff 	movw   $0xffff,-0xe1e(%rbp)
    e775:	ff ff 
    e777:	66 c7 85 e4 f1 ff ff 	movw   $0xfffd,-0xe1c(%rbp)
    e77e:	fd ff 
    e780:	66 c7 85 e6 f1 ff ff 	movw   $0xfffd,-0xe1a(%rbp)
    e787:	fd ff 
    e789:	66 c7 85 e8 f1 ff ff 	movw   $0xffff,-0xe18(%rbp)
    e790:	ff ff 
    e792:	66 c7 85 ea f1 ff ff 	movw   $0x5404,-0xe16(%rbp)
    e799:	04 54 
    e79b:	66 c7 85 ec f1 ff ff 	movw   $0xfffc,-0xe14(%rbp)
    e7a2:	fc ff 
    e7a4:	66 c7 85 ee f1 ff ff 	movw   $0xfffc,-0xe12(%rbp)
    e7ab:	fc ff 
    e7ad:	66 c7 85 f0 f1 ff ff 	movw   $0x5404,-0xe10(%rbp)
    e7b4:	04 54 
    e7b6:	66 c7 85 f2 f1 ff ff 	movw   $0x494b,-0xe0e(%rbp)
    e7bd:	4b 49 
    e7bf:	66 c7 85 f4 f1 ff ff 	movw   $0x7335,-0xe0c(%rbp)
    e7c6:	35 73 
    e7c8:	66 c7 85 f6 f1 ff ff 	movw   $0x9,-0xe0a(%rbp)
    e7cf:	09 00 
    e7d1:	66 c7 85 f8 f1 ff ff 	movw   $0x7335,-0xe08(%rbp)
    e7d8:	35 73 
    e7da:	66 c7 85 fa f1 ff ff 	movw   $0x494b,-0xe06(%rbp)
    e7e1:	4b 49 
    e7e3:	66 c7 85 fc f1 ff ff 	movw   $0x7335,-0xe04(%rbp)
    e7ea:	35 73 
    e7ec:	66 c7 85 fe f1 ff ff 	movw   $0x9,-0xe02(%rbp)
    e7f3:	09 00 
    e7f5:	66 c7 85 00 f2 ff ff 	movw   $0x7335,-0xe00(%rbp)
    e7fc:	35 73 
    e7fe:	66 c7 85 02 f2 ff ff 	movw   $0x494b,-0xdfe(%rbp)
    e805:	4b 49 
    e807:	66 c7 85 04 f2 ff ff 	movw   $0xffff,-0xdfc(%rbp)
    e80e:	ff ff 
    e810:	66 c7 85 06 f2 ff ff 	movw   $0xfffd,-0xdfa(%rbp)
    e817:	fd ff 
    e819:	66 c7 85 08 f2 ff ff 	movw   $0xfffd,-0xdf8(%rbp)
    e820:	fd ff 
    e822:	66 c7 85 0a f2 ff ff 	movw   $0xffff,-0xdf6(%rbp)
    e829:	ff ff 
    e82b:	66 c7 85 0c f2 ff ff 	movw   $0x5404,-0xdf4(%rbp)
    e832:	04 54 
    e834:	66 c7 85 0e f2 ff ff 	movw   $0xfffc,-0xdf2(%rbp)
    e83b:	fc ff 
    e83d:	66 c7 85 10 f2 ff ff 	movw   $0xfffc,-0xdf0(%rbp)
    e844:	fc ff 
    e846:	66 c7 85 12 f2 ff ff 	movw   $0x5404,-0xdee(%rbp)
    e84d:	04 54 
    e84f:	66 c7 85 14 f2 ff ff 	movw   $0xffff,-0xdec(%rbp)
    e856:	ff ff 
    e858:	66 c7 85 16 f2 ff ff 	movw   $0x9,-0xdea(%rbp)
    e85f:	09 00 
    e861:	66 c7 85 18 f2 ff ff 	movw   $0x7335,-0xde8(%rbp)
    e868:	35 73 
    e86a:	66 c7 85 1a f2 ff ff 	movw   $0x9,-0xde6(%rbp)
    e871:	09 00 
    e873:	66 c7 85 1c f2 ff ff 	movw   $0xffff,-0xde4(%rbp)
    e87a:	ff ff 
    e87c:	66 c7 85 1e f2 ff ff 	movw   $0x9,-0xde2(%rbp)
    e883:	09 00 
    e885:	66 c7 85 20 f2 ff ff 	movw   $0x7335,-0xde0(%rbp)
    e88c:	35 73 
    e88e:	66 c7 85 22 f2 ff ff 	movw   $0x9,-0xdde(%rbp)
    e895:	09 00 
    e897:	66 c7 85 24 f2 ff ff 	movw   $0xffff,-0xddc(%rbp)
    e89e:	ff ff 
    e8a0:	66 c7 85 26 f2 ff ff 	movw   $0x9,-0xdda(%rbp)
    e8a7:	09 00 
    e8a9:	66 c7 85 28 f2 ff ff 	movw   $0xffff,-0xdd8(%rbp)
    e8b0:	ff ff 
    e8b2:	66 c7 85 2a f2 ff ff 	movw   $0xffff,-0xdd6(%rbp)
    e8b9:	ff ff 
    e8bb:	66 c7 85 2c f2 ff ff 	movw   $0xfffc,-0xdd4(%rbp)
    e8c2:	fc ff 
    e8c4:	66 c7 85 2e f2 ff ff 	movw   $0xfffd,-0xdd2(%rbp)
    e8cb:	fd ff 
    e8cd:	66 c7 85 30 f2 ff ff 	movw   $0x5404,-0xdd0(%rbp)
    e8d4:	04 54 
    e8d6:	66 c7 85 32 f2 ff ff 	movw   $0x5404,-0xdce(%rbp)
    e8dd:	04 54 
    e8df:	66 c7 85 34 f2 ff ff 	movw   $0xfffd,-0xdcc(%rbp)
    e8e6:	fd ff 
    e8e8:	66 c7 85 36 f2 ff ff 	movw   $0xfffc,-0xdca(%rbp)
    e8ef:	fc ff 
    e8f1:	66 c7 85 38 f2 ff ff 	movw   $0xffff,-0xdc8(%rbp)
    e8f8:	ff ff 
    e8fa:	66 c7 85 3a f2 ff ff 	movw   $0x494b,-0xdc6(%rbp)
    e901:	4b 49 
    e903:	66 c7 85 3c f2 ff ff 	movw   $0xffff,-0xdc4(%rbp)
    e90a:	ff ff 
    e90c:	66 c7 85 3e f2 ff ff 	movw   $0x9,-0xdc2(%rbp)
    e913:	09 00 
    e915:	66 c7 85 40 f2 ff ff 	movw   $0xffff,-0xdc0(%rbp)
    e91c:	ff ff 
    e91e:	66 c7 85 42 f2 ff ff 	movw   $0x494b,-0xdbe(%rbp)
    e925:	4b 49 
    e927:	66 c7 85 44 f2 ff ff 	movw   $0xffff,-0xdbc(%rbp)
    e92e:	ff ff 
    e930:	66 c7 85 46 f2 ff ff 	movw   $0x9,-0xdba(%rbp)
    e937:	09 00 
    e939:	66 c7 85 48 f2 ff ff 	movw   $0xffff,-0xdb8(%rbp)
    e940:	ff ff 
    e942:	66 c7 85 4a f2 ff ff 	movw   $0x494b,-0xdb6(%rbp)
    e949:	4b 49 
    e94b:	48 8d 05 de 8f 00 00 	lea    0x8fde(%rip),%rax        # 17930 <g_365>
    e952:	48 89 85 28 ef ff ff 	mov    %rax,-0x10d8(%rbp)
    e959:	48 8d 05 54 77 00 00 	lea    0x7754(%rip),%rax        # 160b4 <g_53>
    e960:	48 89 85 30 f1 ff ff 	mov    %rax,-0xed0(%rbp)
    e967:	48 8d 05 46 77 00 00 	lea    0x7746(%rip),%rax        # 160b4 <g_53>
    e96e:	48 89 85 38 f1 ff ff 	mov    %rax,-0xec8(%rbp)
    e975:	48 8d 05 38 77 00 00 	lea    0x7738(%rip),%rax        # 160b4 <g_53>
    e97c:	48 89 85 40 f1 ff ff 	mov    %rax,-0xec0(%rbp)
    e983:	48 8d 05 2a 77 00 00 	lea    0x772a(%rip),%rax        # 160b4 <g_53>
    e98a:	48 89 85 48 f1 ff ff 	mov    %rax,-0xeb8(%rbp)
    e991:	48 8d 05 1c 77 00 00 	lea    0x771c(%rip),%rax        # 160b4 <g_53>
    e998:	48 89 85 50 f1 ff ff 	mov    %rax,-0xeb0(%rbp)
    e99f:	48 8d 05 0e 77 00 00 	lea    0x770e(%rip),%rax        # 160b4 <g_53>
    e9a6:	48 89 85 58 f1 ff ff 	mov    %rax,-0xea8(%rbp)
    e9ad:	48 8d 05 00 77 00 00 	lea    0x7700(%rip),%rax        # 160b4 <g_53>
    e9b4:	48 89 85 60 f1 ff ff 	mov    %rax,-0xea0(%rbp)
    e9bb:	48 8d 05 f2 76 00 00 	lea    0x76f2(%rip),%rax        # 160b4 <g_53>
    e9c2:	48 89 85 68 f1 ff ff 	mov    %rax,-0xe98(%rbp)
    e9c9:	48 8d 05 e4 76 00 00 	lea    0x76e4(%rip),%rax        # 160b4 <g_53>
    e9d0:	48 89 85 70 f1 ff ff 	mov    %rax,-0xe90(%rbp)
    e9d7:	c7 05 cf 76 00 00 00 	movl   $0x0,0x76cf(%rip)        # 160b0 <g_46>
    e9de:	00 00 00 
    e9e1:	e9 25 1d 00 00       	jmpq   1070b <func_47+0x204c>
    e9e6:	48 8d 05 fb 76 00 00 	lea    0x76fb(%rip),%rax        # 160e8 <g_91>
    e9ed:	48 89 85 98 ef ff ff 	mov    %rax,-0x1068(%rbp)
    e9f4:	c7 85 bc ee ff ff 05 	movl   $0x5,-0x1144(%rbp)
    e9fb:	00 00 00 
    e9fe:	48 8d 85 e0 f5 ff ff 	lea    -0xa20(%rbp),%rax
    ea05:	48 8d 15 94 32 00 00 	lea    0x3294(%rip),%rdx        # 11ca0 <g_362+0xc4c>
    ea0c:	b9 60 00 00 00       	mov    $0x60,%ecx
    ea11:	48 89 c7             	mov    %rax,%rdi
    ea14:	48 89 d6             	mov    %rdx,%rsi
    ea17:	f3 48 a5             	rep movsq %ds:(%rsi),%es:(%rdi)
    ea1a:	66 c7 85 b0 ee ff ff 	movw   $0xfffd,-0x1150(%rbp)
    ea21:	fd ff 
    ea23:	48 8d 05 fe 8e 00 00 	lea    0x8efe(%rip),%rax        # 17928 <g_10>
    ea2a:	48 89 85 80 f1 ff ff 	mov    %rax,-0xe80(%rbp)
    ea31:	48 8d 05 f0 8e 00 00 	lea    0x8ef0(%rip),%rax        # 17928 <g_10>
    ea38:	48 89 85 88 f1 ff ff 	mov    %rax,-0xe78(%rbp)
    ea3f:	48 8d 05 e2 8e 00 00 	lea    0x8ee2(%rip),%rax        # 17928 <g_10>
    ea46:	48 89 85 90 f1 ff ff 	mov    %rax,-0xe70(%rbp)
    ea4d:	48 8d 05 d4 8e 00 00 	lea    0x8ed4(%rip),%rax        # 17928 <g_10>
    ea54:	48 89 85 98 f1 ff ff 	mov    %rax,-0xe68(%rbp)
    ea5b:	48 8d 05 c6 8e 00 00 	lea    0x8ec6(%rip),%rax        # 17928 <g_10>
    ea62:	48 89 85 a0 f1 ff ff 	mov    %rax,-0xe60(%rbp)
    ea69:	48 8d 05 b8 8e 00 00 	lea    0x8eb8(%rip),%rax        # 17928 <g_10>
    ea70:	48 89 85 a8 f1 ff ff 	mov    %rax,-0xe58(%rbp)
    ea77:	48 8d 05 aa 8e 00 00 	lea    0x8eaa(%rip),%rax        # 17928 <g_10>
    ea7e:	48 89 85 b0 f1 ff ff 	mov    %rax,-0xe50(%rbp)
    ea85:	48 8d 05 9c 8e 00 00 	lea    0x8e9c(%rip),%rax        # 17928 <g_10>
    ea8c:	48 89 85 b8 f1 ff ff 	mov    %rax,-0xe48(%rbp)
    ea93:	48 8d 05 8e 8e 00 00 	lea    0x8e8e(%rip),%rax        # 17928 <g_10>
    ea9a:	48 89 85 c0 f1 ff ff 	mov    %rax,-0xe40(%rbp)
    eaa1:	48 8d 05 80 8e 00 00 	lea    0x8e80(%rip),%rax        # 17928 <g_10>
    eaa8:	48 89 85 c8 f1 ff ff 	mov    %rax,-0xe38(%rbp)
    eaaf:	48 8d 05 72 8e 00 00 	lea    0x8e72(%rip),%rax        # 17928 <g_10>
    eab6:	48 89 85 d0 f1 ff ff 	mov    %rax,-0xe30(%rbp)
    eabd:	48 8d 05 64 8e 00 00 	lea    0x8e64(%rip),%rax        # 17928 <g_10>
    eac4:	48 89 85 d8 f1 ff ff 	mov    %rax,-0xe28(%rbp)
    eacb:	48 8d 85 80 f1 ff ff 	lea    -0xe80(%rbp),%rax
    ead2:	48 83 c0 10          	add    $0x10,%rax
    ead6:	48 89 85 a0 ef ff ff 	mov    %rax,-0x1060(%rbp)
    eadd:	48 8d 05 d0 75 00 00 	lea    0x75d0(%rip),%rax        # 160b4 <g_53>
    eae4:	48 89 85 30 ef ff ff 	mov    %rax,-0x10d0(%rbp)
    eaeb:	48 8d 05 ea 75 00 00 	lea    0x75ea(%rip),%rax        # 160dc <g_81>
    eaf2:	48 89 85 a8 ef ff ff 	mov    %rax,-0x1058(%rbp)
    eaf9:	c7 85 f0 ee ff ff 00 	movl   $0x0,-0x1110(%rbp)
    eb00:	00 00 00 
    eb03:	c7 85 f4 ee ff ff 75 	movl   $0xcf343a75,-0x110c(%rbp)
    eb0a:	3a 34 cf 
    eb0d:	be 05 00 00 00       	mov    $0x5,%esi
    eb12:	bf 1a 4b 00 00       	mov    $0x4b1a,%edi
    eb17:	e8 c5 59 ff ff       	callq  44e1 <safe_lshift_func_int16_t_s_u>
    eb1c:	0f b6 d8             	movzbl %al,%ebx
    eb1f:	0f b6 85 84 ee ff ff 	movzbl -0x117c(%rbp),%eax
    eb26:	0f b6 d0             	movzbl %al,%edx
    eb29:	0f b6 85 ae ee ff ff 	movzbl -0x1152(%rbp),%eax
    eb30:	48 89 d6             	mov    %rdx,%rsi
    eb33:	48 89 c7             	mov    %rax,%rdi
    eb36:	e8 10 65 ff ff       	callq  504b <safe_sub_func_uint64_t_u_u>
    eb3b:	89 de                	mov    %ebx,%esi
    eb3d:	bf 01 00 00 00       	mov    $0x1,%edi
    eb42:	e8 94 60 ff ff       	callq  4bdb <safe_div_func_uint8_t_u_u>
    eb47:	0f b6 d0             	movzbl %al,%edx
    eb4a:	0f b6 05 64 75 00 00 	movzbl 0x7564(%rip),%eax        # 160b5 <g_63>
    eb51:	3c 03                	cmp    $0x3,%al
    eb53:	0f 95 c0             	setne  %al
    eb56:	0f b6 c0             	movzbl %al,%eax
    eb59:	39 c2                	cmp    %eax,%edx
    eb5b:	74 60                	je     ebbd <func_47+0x4fe>
    eb5d:	48 8d 05 78 75 00 00 	lea    0x7578(%rip),%rax        # 160dc <g_81>
    eb64:	48 89 85 b8 ef ff ff 	mov    %rax,-0x1048(%rbp)
    eb6b:	c6 05 42 75 00 00 f5 	movb   $0xf5,0x7542(%rip)        # 160b4 <g_53>
    eb72:	eb 2f                	jmp    eba3 <func_47+0x4e4>
    eb74:	c6 05 3a 75 00 00 00 	movb   $0x0,0x753a(%rip)        # 160b5 <g_63>
    eb7b:	90                   	nop
    eb7c:	0f b6 05 32 75 00 00 	movzbl 0x7532(%rip),%eax        # 160b5 <g_63>
    eb83:	3c 06                	cmp    $0x6,%al
    eb85:	7f 0c                	jg     eb93 <func_47+0x4d4>
    eb87:	48 8d 05 26 75 00 00 	lea    0x7526(%rip),%rax        # 160b4 <g_53>
    eb8e:	e9 97 1b 00 00       	jmpq   1072a <func_47+0x206b>
    eb93:	0f b6 05 1a 75 00 00 	movzbl 0x751a(%rip),%eax        # 160b4 <g_53>
    eb9a:	83 c0 01             	add    $0x1,%eax
    eb9d:	88 05 11 75 00 00    	mov    %al,0x7511(%rip)        # 160b4 <g_53>
    eba3:	0f b6 05 0a 75 00 00 	movzbl 0x750a(%rip),%eax        # 160b4 <g_53>
    ebaa:	3c 02                	cmp    $0x2,%al
    ebac:	76 c6                	jbe    eb74 <func_47+0x4b5>
    ebae:	48 8b 85 b8 ef ff ff 	mov    -0x1048(%rbp),%rax
    ebb5:	c7 00 00 00 00 00    	movl   $0x0,(%rax)
    ebbb:	eb 34                	jmp    ebf1 <func_47+0x532>
    ebbd:	48 8d 05 18 75 00 00 	lea    0x7518(%rip),%rax        # 160dc <g_81>
    ebc4:	48 89 85 b0 ef ff ff 	mov    %rax,-0x1050(%rbp)
    ebcb:	0f b6 05 e2 74 00 00 	movzbl 0x74e2(%rip),%eax        # 160b4 <g_53>
    ebd2:	84 c0                	test   %al,%al
    ebd4:	0f 85 42 1b 00 00    	jne    1071c <func_47+0x205d>
    ebda:	48 8b 85 b0 ef ff ff 	mov    -0x1050(%rbp),%rax
    ebe1:	8b 00                	mov    (%rax),%eax
    ebe3:	83 c8 02             	or     $0x2,%eax
    ebe6:	89 c2                	mov    %eax,%edx
    ebe8:	48 8b 85 b0 ef ff ff 	mov    -0x1050(%rbp),%rax
    ebef:	89 10                	mov    %edx,(%rax)
    ebf1:	48 8b 85 90 ee ff ff 	mov    -0x1170(%rbp),%rax
    ebf8:	8b 00                	mov    (%rax),%eax
    ebfa:	85 c0                	test   %eax,%eax
    ebfc:	74 0c                	je     ec0a <func_47+0x54b>
    ebfe:	48 8d 05 af 74 00 00 	lea    0x74af(%rip),%rax        # 160b4 <g_53>
    ec05:	e9 20 1b 00 00       	jmpq   1072a <func_47+0x206b>
    ec0a:	48 8d 05 cf 74 00 00 	lea    0x74cf(%rip),%rax        # 160e0 <g_88>
    ec11:	48 89 85 c0 ef ff ff 	mov    %rax,-0x1040(%rbp)
    ec18:	48 8d 05 c9 74 00 00 	lea    0x74c9(%rip),%rax        # 160e8 <g_91>
    ec1f:	48 89 85 38 ef ff ff 	mov    %rax,-0x10c8(%rbp)
    ec26:	48 8d 85 38 ef ff ff 	lea    -0x10c8(%rbp),%rax
    ec2d:	48 89 85 c8 ef ff ff 	mov    %rax,-0x1038(%rbp)
    ec34:	c7 85 f8 ee ff ff 31 	movl   $0xb34ff331,-0x1108(%rbp)
    ec3b:	f3 4f b3 
    ec3e:	c7 85 c0 ee ff ff 0a 	movl   $0x3d6f3b0a,-0x1140(%rbp)
    ec45:	3b 6f 3d 
    ec48:	c7 85 c4 ee ff ff de 	movl   $0x6f28a7de,-0x113c(%rbp)
    ec4f:	a7 28 6f 
    ec52:	c7 85 c8 ee ff ff 96 	movl   $0xace3e596,-0x1138(%rbp)
    ec59:	e5 e3 ac 
    ec5c:	c7 85 cc ee ff ff ff 	movl   $0xffffffff,-0x1134(%rbp)
    ec63:	ff ff ff 
    ec66:	c6 85 af ee ff ff 35 	movb   $0x35,-0x1151(%rbp)
    ec6d:	48 c7 85 40 ef ff ff 	movq   $0x0,-0x10c0(%rbp)
    ec74:	00 00 00 00 
    ec78:	48 8d 85 40 ef ff ff 	lea    -0x10c0(%rbp),%rax
    ec7f:	48 89 85 48 ef ff ff 	mov    %rax,-0x10b8(%rbp)
    ec86:	66 c7 85 b2 ee ff ff 	movw   $0x0,-0x114e(%rbp)
    ec8d:	00 00 
    ec8f:	c7 85 fc ee ff ff 9f 	movl   $0x5a76cd9f,-0x1104(%rbp)
    ec96:	cd 76 5a 
    ec99:	66 c7 85 b4 ee ff ff 	movw   $0x1926,-0x114c(%rbp)
    eca0:	26 19 
    eca2:	c7 85 00 ef ff ff e0 	movl   $0x60922de0,-0x1100(%rbp)
    eca9:	2d 92 60 
    ecac:	48 8d 85 e0 f8 ff ff 	lea    -0x720(%rbp),%rax
    ecb3:	48 8d 15 e6 32 00 00 	lea    0x32e6(%rip),%rdx        # 11fa0 <g_362+0xf4c>
    ecba:	b9 64 00 00 00       	mov    $0x64,%ecx
    ecbf:	48 89 c7             	mov    %rax,%rdi
    ecc2:	48 89 d6             	mov    %rdx,%rsi
    ecc5:	f3 48 a5             	rep movsq %ds:(%rsi),%es:(%rdi)
    ecc8:	48 8d 85 30 ef ff ff 	lea    -0x10d0(%rbp),%rax
    eccf:	48 89 85 d0 ef ff ff 	mov    %rax,-0x1030(%rbp)
    ecd6:	c7 85 04 ef ff ff 01 	movl   $0x1,-0x10fc(%rbp)
    ecdd:	00 00 00 
    ece0:	48 b8 a9 4b 81 64 e5 	movabs $0x418b19e564814ba9,%rax
    ece7:	19 8b 41 
    ecea:	48 89 85 d8 ef ff ff 	mov    %rax,-0x1028(%rbp)
    ecf1:	48 8d 05 5c 23 00 00 	lea    0x235c(%rip),%rax        # 11054 <g_362>
    ecf8:	48 89 85 50 ef ff ff 	mov    %rax,-0x10b0(%rbp)
    ecff:	48 8d 85 50 ef ff ff 	lea    -0x10b0(%rbp),%rax
    ed06:	48 89 85 58 ef ff ff 	mov    %rax,-0x10a8(%rbp)
    ed0d:	48 8d 85 58 ef ff ff 	lea    -0x10a8(%rbp),%rax
    ed14:	48 89 85 e0 ef ff ff 	mov    %rax,-0x1020(%rbp)
    ed1b:	c7 85 08 ef ff ff fe 	movl   $0xfffffffe,-0x10f8(%rbp)
    ed22:	ff ff ff 
    ed25:	c7 85 0c ef ff ff 05 	movl   $0x5,-0x10f4(%rbp)
    ed2c:	00 00 00 
    ed2f:	c7 85 d8 ee ff ff 00 	movl   $0x0,-0x1128(%rbp)
    ed36:	00 00 00 
    ed39:	eb 1e                	jmp    ed59 <func_47+0x69a>
    ed3b:	8b 85 d8 ee ff ff    	mov    -0x1128(%rbp),%eax
    ed41:	48 98                	cltq   
    ed43:	48 8d 15 aa 73 00 00 	lea    0x73aa(%rip),%rdx        # 160f4 <g_124>
    ed4a:	48 89 94 c5 90 f0 ff 	mov    %rdx,-0xf70(%rbp,%rax,8)
    ed51:	ff 
    ed52:	83 85 d8 ee ff ff 01 	addl   $0x1,-0x1128(%rbp)
    ed59:	83 bd d8 ee ff ff 02 	cmpl   $0x2,-0x1128(%rbp)
    ed60:	7e d9                	jle    ed3b <func_47+0x67c>
    ed62:	c7 85 d8 ee ff ff 00 	movl   $0x0,-0x1128(%rbp)
    ed69:	00 00 00 
    ed6c:	eb 1a                	jmp    ed88 <func_47+0x6c9>
    ed6e:	8b 85 d8 ee ff ff    	mov    -0x1128(%rbp),%eax
    ed74:	48 98                	cltq   
    ed76:	c7 84 85 70 f0 ff ff 	movl   $0x669fe5e3,-0xf90(%rbp,%rax,4)
    ed7d:	e3 e5 9f 66 
    ed81:	83 85 d8 ee ff ff 01 	addl   $0x1,-0x1128(%rbp)
    ed88:	83 bd d8 ee ff ff 03 	cmpl   $0x3,-0x1128(%rbp)
    ed8f:	7e dd                	jle    ed6e <func_47+0x6af>
    ed91:	0f b6 95 ae ee ff ff 	movzbl -0x1152(%rbp),%edx
    ed98:	48 8b 85 c0 ef ff ff 	mov    -0x1040(%rbp),%rax
    ed9f:	48 89 10             	mov    %rdx,(%rax)
    eda2:	48 8b 85 c8 ef ff ff 	mov    -0x1038(%rbp),%rax
    eda9:	48 8b 95 c0 ef ff ff 	mov    -0x1040(%rbp),%rdx
    edb0:	48 89 10             	mov    %rdx,(%rax)
    edb3:	48 8b 85 c8 ef ff ff 	mov    -0x1038(%rbp),%rax
    edba:	48 8b 00             	mov    (%rax),%rax
    edbd:	48 39 85 98 ef ff ff 	cmp    %rax,-0x1068(%rbp)
    edc4:	8b 05 12 73 00 00    	mov    0x7312(%rip),%eax        # 160dc <g_81>
    edca:	0f b7 c0             	movzwl %ax,%eax
    edcd:	be 01 00 00 00       	mov    $0x1,%esi
    edd2:	89 c7                	mov    %eax,%edi
    edd4:	e8 64 5f ff ff       	callq  4d3d <safe_mul_func_uint16_t_u_u>
    edd9:	98                   	cwtl   
    edda:	be 03 00 00 00       	mov    $0x3,%esi
    eddf:	89 c7                	mov    %eax,%edi
    ede1:	e8 7d 57 ff ff       	callq  4563 <safe_rshift_func_int16_t_s_u>
    ede6:	66 c7 85 b6 ee ff ff 	movw   $0x2cbe,-0x114a(%rbp)
    eded:	be 2c 
    edef:	c7 85 dc ee ff ff 00 	movl   $0x0,-0x1124(%rbp)
    edf6:	00 00 00 
    edf9:	eb 1e                	jmp    ee19 <func_47+0x75a>
    edfb:	8b 85 dc ee ff ff    	mov    -0x1124(%rbp),%eax
    ee01:	48 98                	cltq   
    ee03:	48 8d 15 e6 72 00 00 	lea    0x72e6(%rip),%rdx        # 160f0 <g_107>
    ee0a:	48 89 94 c5 e0 f3 ff 	mov    %rdx,-0xc20(%rbp,%rax,8)
    ee11:	ff 
    ee12:	83 85 dc ee ff ff 01 	addl   $0x1,-0x1124(%rbp)
    ee19:	83 bd dc ee ff ff 00 	cmpl   $0x0,-0x1124(%rbp)
    ee20:	7e d9                	jle    edfb <func_47+0x73c>
    ee22:	c6 05 8b 72 00 00 e7 	movb   $0xe7,0x728b(%rip)        # 160b4 <g_53>
    ee29:	e9 9c 00 00 00       	jmpq   eeca <func_47+0x80b>
    ee2e:	48 c7 05 af 72 00 00 	movq   $0x0,0x72af(%rip)        # 160e8 <g_91>
    ee35:	00 00 00 00 
    ee39:	eb 72                	jmp    eead <func_47+0x7ee>
    ee3b:	48 0f bf 9d b6 ee ff 	movswq -0x114a(%rbp),%rbx
    ee42:	ff 
    ee43:	48 8b 85 98 ee ff ff 	mov    -0x1168(%rbp),%rax
    ee4a:	0f b6 00             	movzbl (%rax),%eax
    ee4d:	0f b6 c0             	movzbl %al,%eax
    ee50:	be 07 00 00 00       	mov    $0x7,%esi
    ee55:	89 c7                	mov    %eax,%edi
    ee57:	e8 f0 5d ff ff       	callq  4c4c <safe_lshift_func_uint8_t_u_u>
    ee5c:	0f b6 c0             	movzbl %al,%eax
    ee5f:	48 89 de             	mov    %rbx,%rsi
    ee62:	48 89 c7             	mov    %rax,%rdi
    ee65:	e8 8d 5b ff ff       	callq  49f7 <safe_div_func_int64_t_s_s>
    ee6a:	b9 01 00 00 00       	mov    $0x1,%ecx
    ee6f:	48 8b 05 4a 7b 00 00 	mov    0x7b4a(%rip),%rax        # 169c0 <g_103>
    ee76:	8b 10                	mov    (%rax),%edx
    ee78:	09 ca                	or     %ecx,%edx
    ee7a:	89 10                	mov    %edx,(%rax)
    ee7c:	48 8b 05 4d 7b 00 00 	mov    0x7b4d(%rip),%rax        # 169d0 <g_104>
    ee83:	48 8d 15 36 7b 00 00 	lea    0x7b36(%rip),%rdx        # 169c0 <g_103>
    ee8a:	48 89 10             	mov    %rdx,(%rax)
    ee8d:	48 8b 05 54 72 00 00 	mov    0x7254(%rip),%rax        # 160e8 <g_91>
    ee94:	0f b6 c0             	movzbl %al,%eax
    ee97:	be 04 00 00 00       	mov    $0x4,%esi
    ee9c:	89 c7                	mov    %eax,%edi
    ee9e:	e8 b7 5c ff ff       	callq  4b5a <safe_add_func_uint8_t_u_u>
    eea3:	0f b6 c0             	movzbl %al,%eax
    eea6:	48 89 05 3b 72 00 00 	mov    %rax,0x723b(%rip)        # 160e8 <g_91>
    eead:	48 8b 05 34 72 00 00 	mov    0x7234(%rip),%rax        # 160e8 <g_91>
    eeb4:	48 83 f8 14          	cmp    $0x14,%rax
    eeb8:	75 81                	jne    ee3b <func_47+0x77c>
    eeba:	0f b6 05 f3 71 00 00 	movzbl 0x71f3(%rip),%eax        # 160b4 <g_53>
    eec1:	83 c0 01             	add    $0x1,%eax
    eec4:	88 05 ea 71 00 00    	mov    %al,0x71ea(%rip)        # 160b4 <g_53>
    eeca:	0f b6 05 e3 71 00 00 	movzbl 0x71e3(%rip),%eax        # 160b4 <g_53>
    eed1:	3c 3a                	cmp    $0x3a,%al
    eed3:	0f 86 55 ff ff ff    	jbe    ee2e <func_47+0x76f>
    eed9:	48 8b 05 f0 7a 00 00 	mov    0x7af0(%rip),%rax        # 169d0 <g_104>
    eee0:	48 8b 00             	mov    (%rax),%rax
    eee3:	48 8b 10             	mov    (%rax),%rdx
    eee6:	48 8b 05 db 7a 00 00 	mov    0x7adb(%rip),%rax        # 169c8 <g_105>
    eeed:	48 8b 00             	mov    (%rax),%rax
    eef0:	8b 12                	mov    (%rdx),%edx
    eef2:	89 10                	mov    %edx,(%rax)
    eef4:	8b 00                	mov    (%rax),%eax
    eef6:	89 85 f8 ee ff ff    	mov    %eax,-0x1108(%rbp)
    eefc:	8b 05 f2 71 00 00    	mov    0x71f2(%rip),%eax        # 160f4 <g_124>
    ef02:	8d 50 ff             	lea    -0x1(%rax),%edx
    ef05:	89 15 e9 71 00 00    	mov    %edx,0x71e9(%rip)        # 160f4 <g_124>
    ef0b:	8b 95 b8 ee ff ff    	mov    -0x1148(%rbp),%edx
    ef11:	21 d0                	and    %edx,%eax
    ef13:	85 c0                	test   %eax,%eax
    ef15:	0f 84 ba 17 00 00    	je     106d5 <func_47+0x2016>
    ef1b:	48 8d 85 bc ee ff ff 	lea    -0x1144(%rbp),%rax
    ef22:	48 89 85 e8 ef ff ff 	mov    %rax,-0x1018(%rbp)
    ef29:	48 8d 85 b8 ee ff ff 	lea    -0x1148(%rbp),%rax
    ef30:	48 89 85 f0 ef ff ff 	mov    %rax,-0x1010(%rbp)
    ef37:	48 8d 85 c0 ee ff ff 	lea    -0x1140(%rbp),%rax
    ef3e:	48 89 85 f8 ef ff ff 	mov    %rax,-0x1008(%rbp)
    ef45:	48 8d 85 e0 f5 ff ff 	lea    -0xa20(%rbp),%rax
    ef4c:	48 05 18 02 00 00    	add    $0x218,%rax
    ef52:	48 89 85 00 f0 ff ff 	mov    %rax,-0x1000(%rbp)
    ef59:	c7 85 b0 f0 ff ff 5d 	movl   $0xb9823f5d,-0xf50(%rbp)
    ef60:	3f 82 b9 
    ef63:	c7 85 b4 f0 ff ff ce 	movl   $0x60c5c9ce,-0xf4c(%rbp)
    ef6a:	c9 c5 60 
    ef6d:	c7 85 b8 f0 ff ff 5d 	movl   $0xb9823f5d,-0xf48(%rbp)
    ef74:	3f 82 b9 
    ef77:	c7 85 bc f0 ff ff ce 	movl   $0x60c5c9ce,-0xf44(%rbp)
    ef7e:	c9 c5 60 
    ef81:	c7 85 c0 f0 ff ff 5d 	movl   $0xb9823f5d,-0xf40(%rbp)
    ef88:	3f 82 b9 
    ef8b:	c7 85 c4 f0 ff ff ce 	movl   $0x60c5c9ce,-0xf3c(%rbp)
    ef92:	c9 c5 60 
    ef95:	48 8d 85 bc ee ff ff 	lea    -0x1144(%rbp),%rax
    ef9c:	48 89 85 50 f2 ff ff 	mov    %rax,-0xdb0(%rbp)
    efa3:	48 8d 05 32 71 00 00 	lea    0x7132(%rip),%rax        # 160dc <g_81>
    efaa:	48 89 85 58 f2 ff ff 	mov    %rax,-0xda8(%rbp)
    efb1:	48 c7 85 60 f2 ff ff 	movq   $0x0,-0xda0(%rbp)
    efb8:	00 00 00 00 
    efbc:	48 8d 05 19 71 00 00 	lea    0x7119(%rip),%rax        # 160dc <g_81>
    efc3:	48 89 85 68 f2 ff ff 	mov    %rax,-0xd98(%rbp)
    efca:	48 8d 85 bc ee ff ff 	lea    -0x1144(%rbp),%rax
    efd1:	48 89 85 70 f2 ff ff 	mov    %rax,-0xd90(%rbp)
    efd8:	48 8d 85 e0 f5 ff ff 	lea    -0xa20(%rbp),%rax
    efdf:	48 05 18 02 00 00    	add    $0x218,%rax
    efe5:	48 89 85 78 f2 ff ff 	mov    %rax,-0xd88(%rbp)
    efec:	48 c7 85 80 f2 ff ff 	movq   $0x0,-0xd80(%rbp)
    eff3:	00 00 00 00 
    eff7:	48 c7 85 88 f2 ff ff 	movq   $0x0,-0xd78(%rbp)
    effe:	00 00 00 00 
    f002:	48 8d 85 c4 ee ff ff 	lea    -0x113c(%rbp),%rax
    f009:	48 89 85 90 f2 ff ff 	mov    %rax,-0xd70(%rbp)
    f010:	48 c7 85 98 f2 ff ff 	movq   $0x0,-0xd68(%rbp)
    f017:	00 00 00 00 
    f01b:	48 8d 85 c0 ee ff ff 	lea    -0x1140(%rbp),%rax
    f022:	48 89 85 a0 f2 ff ff 	mov    %rax,-0xd60(%rbp)
    f029:	48 8d 85 c0 ee ff ff 	lea    -0x1140(%rbp),%rax
    f030:	48 89 85 a8 f2 ff ff 	mov    %rax,-0xd58(%rbp)
    f037:	48 c7 85 b0 f2 ff ff 	movq   $0x0,-0xd50(%rbp)
    f03e:	00 00 00 00 
    f042:	48 8d 85 c4 ee ff ff 	lea    -0x113c(%rbp),%rax
    f049:	48 89 85 b8 f2 ff ff 	mov    %rax,-0xd48(%rbp)
    f050:	48 c7 85 c0 f2 ff ff 	movq   $0x0,-0xd40(%rbp)
    f057:	00 00 00 00 
    f05b:	48 c7 85 c8 f2 ff ff 	movq   $0x0,-0xd38(%rbp)
    f062:	00 00 00 00 
    f066:	48 c7 85 d0 f2 ff ff 	movq   $0x0,-0xd30(%rbp)
    f06d:	00 00 00 00 
    f071:	48 8d 85 b0 f0 ff ff 	lea    -0xf50(%rbp),%rax
    f078:	48 83 c0 0c          	add    $0xc,%rax
    f07c:	48 89 85 d8 f2 ff ff 	mov    %rax,-0xd28(%rbp)
    f083:	48 8d 85 cc ee ff ff 	lea    -0x1134(%rbp),%rax
    f08a:	48 89 85 e0 f2 ff ff 	mov    %rax,-0xd20(%rbp)
    f091:	48 8d 05 44 70 00 00 	lea    0x7044(%rip),%rax        # 160dc <g_81>
    f098:	48 89 85 e8 f2 ff ff 	mov    %rax,-0xd18(%rbp)
    f09f:	48 8d 85 cc ee ff ff 	lea    -0x1134(%rbp),%rax
    f0a6:	48 89 85 f0 f2 ff ff 	mov    %rax,-0xd10(%rbp)
    f0ad:	48 c7 85 f8 f2 ff ff 	movq   $0x0,-0xd08(%rbp)
    f0b4:	00 00 00 00 
    f0b8:	48 8d 85 c0 ee ff ff 	lea    -0x1140(%rbp),%rax
    f0bf:	48 89 85 00 f3 ff ff 	mov    %rax,-0xd00(%rbp)
    f0c6:	48 8d 85 c0 ee ff ff 	lea    -0x1140(%rbp),%rax
    f0cd:	48 89 85 08 f3 ff ff 	mov    %rax,-0xcf8(%rbp)
    f0d4:	48 c7 85 10 f3 ff ff 	movq   $0x0,-0xcf0(%rbp)
    f0db:	00 00 00 00 
    f0df:	48 8d 85 c4 ee ff ff 	lea    -0x113c(%rbp),%rax
    f0e6:	48 89 85 18 f3 ff ff 	mov    %rax,-0xce8(%rbp)
    f0ed:	48 c7 85 20 f3 ff ff 	movq   $0x0,-0xce0(%rbp)
    f0f4:	00 00 00 00 
    f0f8:	48 8d 85 c0 ee ff ff 	lea    -0x1140(%rbp),%rax
    f0ff:	48 89 85 28 f3 ff ff 	mov    %rax,-0xcd8(%rbp)
    f106:	48 8d 85 bc ee ff ff 	lea    -0x1144(%rbp),%rax
    f10d:	48 89 85 30 f3 ff ff 	mov    %rax,-0xcd0(%rbp)
    f114:	48 8d 85 e0 f5 ff ff 	lea    -0xa20(%rbp),%rax
    f11b:	48 05 18 02 00 00    	add    $0x218,%rax
    f121:	48 89 85 38 f3 ff ff 	mov    %rax,-0xcc8(%rbp)
    f128:	48 c7 85 40 f3 ff ff 	movq   $0x0,-0xcc0(%rbp)
    f12f:	00 00 00 00 
    f133:	48 8d 85 b0 f0 ff ff 	lea    -0xf50(%rbp),%rax
    f13a:	48 83 c0 0c          	add    $0xc,%rax
    f13e:	48 89 85 48 f3 ff ff 	mov    %rax,-0xcb8(%rbp)
    f145:	48 c7 85 50 f3 ff ff 	movq   $0x0,-0xcb0(%rbp)
    f14c:	00 00 00 00 
    f150:	48 8d 85 e0 f5 ff ff 	lea    -0xa20(%rbp),%rax
    f157:	48 05 18 02 00 00    	add    $0x218,%rax
    f15d:	48 89 85 58 f3 ff ff 	mov    %rax,-0xca8(%rbp)
    f164:	48 8d 85 bc ee ff ff 	lea    -0x1144(%rbp),%rax
    f16b:	48 89 85 60 f3 ff ff 	mov    %rax,-0xca0(%rbp)
    f172:	48 8d 85 c8 ee ff ff 	lea    -0x1138(%rbp),%rax
    f179:	48 89 85 68 f3 ff ff 	mov    %rax,-0xc98(%rbp)
    f180:	48 8d 85 c0 ee ff ff 	lea    -0x1140(%rbp),%rax
    f187:	48 89 85 70 f3 ff ff 	mov    %rax,-0xc90(%rbp)
    f18e:	48 8d 85 e0 f5 ff ff 	lea    -0xa20(%rbp),%rax
    f195:	48 05 18 02 00 00    	add    $0x218,%rax
    f19b:	48 89 85 78 f3 ff ff 	mov    %rax,-0xc88(%rbp)
    f1a2:	48 8d 85 c0 ee ff ff 	lea    -0x1140(%rbp),%rax
    f1a9:	48 89 85 80 f3 ff ff 	mov    %rax,-0xc80(%rbp)
    f1b0:	48 8d 85 c8 ee ff ff 	lea    -0x1138(%rbp),%rax
    f1b7:	48 89 85 88 f3 ff ff 	mov    %rax,-0xc78(%rbp)
    f1be:	48 8d 85 c8 ee ff ff 	lea    -0x1138(%rbp),%rax
    f1c5:	48 89 85 90 f3 ff ff 	mov    %rax,-0xc70(%rbp)
    f1cc:	48 8d 85 c0 ee ff ff 	lea    -0x1140(%rbp),%rax
    f1d3:	48 89 85 98 f3 ff ff 	mov    %rax,-0xc68(%rbp)
    f1da:	48 c7 85 a0 f3 ff ff 	movq   $0x0,-0xc60(%rbp)
    f1e1:	00 00 00 00 
    f1e5:	48 c7 85 a8 f3 ff ff 	movq   $0x0,-0xc58(%rbp)
    f1ec:	00 00 00 00 
    f1f0:	48 c7 85 b0 f3 ff ff 	movq   $0x0,-0xc50(%rbp)
    f1f7:	00 00 00 00 
    f1fb:	48 8d 05 da 6e 00 00 	lea    0x6eda(%rip),%rax        # 160dc <g_81>
    f202:	48 89 85 b8 f3 ff ff 	mov    %rax,-0xc48(%rbp)
    f209:	48 c7 85 c0 f3 ff ff 	movq   $0x0,-0xc40(%rbp)
    f210:	00 00 00 00 
    f214:	48 c7 85 c8 f3 ff ff 	movq   $0x0,-0xc38(%rbp)
    f21b:	00 00 00 00 
    f21f:	48 8d 85 cc ee ff ff 	lea    -0x1134(%rbp),%rax
    f226:	48 89 85 d0 f3 ff ff 	mov    %rax,-0xc30(%rbp)
    f22d:	48 8d 85 e0 f5 ff ff 	lea    -0xa20(%rbp),%rax
    f234:	48 05 1c 02 00 00    	add    $0x21c,%rax
    f23a:	48 89 85 60 ef ff ff 	mov    %rax,-0x10a0(%rbp)
    f241:	48 8d 85 60 ef ff ff 	lea    -0x10a0(%rbp),%rax
    f248:	48 89 85 80 f0 ff ff 	mov    %rax,-0xf80(%rbp)
    f24f:	48 8d 85 60 ef ff ff 	lea    -0x10a0(%rbp),%rax
    f256:	48 89 85 88 f0 ff ff 	mov    %rax,-0xf78(%rbp)
    f25d:	48 8d 85 80 f0 ff ff 	lea    -0xf80(%rbp),%rax
    f264:	48 89 85 68 ef ff ff 	mov    %rax,-0x1098(%rbp)
    f26b:	48 8d 85 68 ef ff ff 	lea    -0x1098(%rbp),%rax
    f272:	48 89 85 08 f0 ff ff 	mov    %rax,-0xff8(%rbp)
    f279:	48 8d 05 74 6e 00 00 	lea    0x6e74(%rip),%rax        # 160f4 <g_124>
    f280:	48 89 85 10 f0 ff ff 	mov    %rax,-0xff0(%rbp)
    f287:	c7 85 10 ef ff ff 00 	movl   $0x0,-0x10f0(%rbp)
    f28e:	00 00 00 
    f291:	80 85 af ee ff ff 01 	addb   $0x1,-0x1151(%rbp)
    f298:	8b 9d e4 ee ff ff    	mov    -0x111c(%rbp),%ebx
    f29e:	48 8b 05 1b 77 00 00 	mov    0x771b(%rip),%rax        # 169c0 <g_103>
    f2a5:	44 8b 20             	mov    (%rax),%r12d
    f2a8:	0f b6 85 84 ee ff ff 	movzbl -0x117c(%rbp),%eax
    f2af:	44 0f b6 e8          	movzbl %al,%r13d
    f2b3:	0f b6 85 84 ee ff ff 	movzbl -0x117c(%rbp),%eax
    f2ba:	44 0f b6 f0          	movzbl %al,%r14d
    f2be:	48 8d 05 ef 6d 00 00 	lea    0x6def(%rip),%rax        # 160b4 <g_53>
    f2c5:	0f b6 00             	movzbl (%rax),%eax
    f2c8:	44 0f b6 f8          	movzbl %al,%r15d
    f2cc:	48 8b 85 88 ee ff ff 	mov    -0x1178(%rbp),%rax
    f2d3:	0f b6 00             	movzbl (%rax),%eax
    f2d6:	0f b6 c0             	movzbl %al,%eax
    f2d9:	89 85 80 ee ff ff    	mov    %eax,-0x1180(%rbp)
    f2df:	0f b6 85 84 ee ff ff 	movzbl -0x117c(%rbp),%eax
    f2e6:	0f b6 c0             	movzbl %al,%eax
    f2e9:	89 c6                	mov    %eax,%esi
    f2eb:	bf f9 ff 00 00       	mov    $0xfff9,%edi
    f2f0:	e8 0a 5a ff ff       	callq  4cff <safe_add_func_uint16_t_u_u>
    f2f5:	0f b7 d0             	movzwl %ax,%edx
    f2f8:	8b 85 f8 f7 ff ff    	mov    -0x808(%rbp),%eax
    f2fe:	39 c2                	cmp    %eax,%edx
    f300:	0f 95 c0             	setne  %al
    f303:	0f b6 d0             	movzbl %al,%edx
    f306:	48 8b 85 90 ee ff ff 	mov    -0x1170(%rbp),%rax
    f30d:	8b 00                	mov    (%rax),%eax
    f30f:	39 c2                	cmp    %eax,%edx
    f311:	0f 9d c0             	setge  %al
    f314:	0f b6 c0             	movzbl %al,%eax
    f317:	8b 95 e4 ee ff ff    	mov    -0x111c(%rbp),%edx
    f31d:	89 d6                	mov    %edx,%esi
    f31f:	89 c7                	mov    %eax,%edi
    f321:	e8 04 52 ff ff       	callq  452a <safe_rshift_func_int16_t_s_s>
    f326:	48 0f bf c8          	movswq %ax,%rcx
    f32a:	48 89 8d 78 ee ff ff 	mov    %rcx,-0x1188(%rbp)
    f331:	be 06 00 00 00       	mov    $0x6,%esi
    f336:	bf a3 00 00 00       	mov    $0xa3,%edi
    f33b:	e8 0c 59 ff ff       	callq  4c4c <safe_lshift_func_uint8_t_u_u>
    f340:	0f b6 c0             	movzbl %al,%eax
    f343:	89 c7                	mov    %eax,%edi
    f345:	e8 5c 5b ff ff       	callq  4ea6 <safe_unary_minus_func_uint32_t_u>
    f34a:	89 c0                	mov    %eax,%eax
    f34c:	48 8b b5 78 ee ff ff 	mov    -0x1188(%rbp),%rsi
    f353:	48 89 c7             	mov    %rax,%rdi
    f356:	e8 4d 55 ff ff       	callq  48a8 <safe_sub_func_int64_t_s_s>
    f35b:	0f be c0             	movsbl %al,%eax
    f35e:	8b b5 80 ee ff ff    	mov    -0x1180(%rbp),%esi
    f364:	89 c7                	mov    %eax,%edi
    f366:	e8 83 4f ff ff       	callq  42ee <safe_lshift_func_int8_t_s_u>
    f36b:	48 8b 85 08 f0 ff ff 	mov    -0xff8(%rbp),%rax
    f372:	48 c7 00 00 00 00 00 	movq   $0x0,(%rax)
    f379:	48 8b 85 08 f0 ff ff 	mov    -0xff8(%rbp),%rax
    f380:	48 8b 10             	mov    (%rax),%rdx
    f383:	48 8d 85 40 ef ff ff 	lea    -0x10c0(%rbp),%rax
    f38a:	48 39 c2             	cmp    %rax,%rdx
    f38d:	0f 95 c0             	setne  %al
    f390:	0f b6 c0             	movzbl %al,%eax
    f393:	44 89 fe             	mov    %r15d,%esi
    f396:	89 c7                	mov    %eax,%edi
    f398:	e8 cf 4f ff ff       	callq  436c <safe_rshift_func_int8_t_s_u>
    f39d:	48 0f be c0          	movsbq %al,%rax
    f3a1:	48 8b 95 c8 ef ff ff 	mov    -0x1038(%rbp),%rdx
    f3a8:	4c 8b 3a             	mov    (%rdx),%r15
    f3ab:	48 be 58 ed 7d 80 25 	movabs $0x48a1d825807ded58,%rsi
    f3b2:	d8 a1 48 
    f3b5:	48 89 c7             	mov    %rax,%rdi
    f3b8:	e8 c3 5c ff ff       	callq  5080 <safe_mod_func_uint64_t_u_u>
    f3bd:	49 89 07             	mov    %rax,(%r15)
    f3c0:	48 8b 85 48 ef ff ff 	mov    -0x10b8(%rbp),%rax
    f3c7:	48 39 85 a0 ef ff ff 	cmp    %rax,-0x1060(%rbp)
    f3ce:	0f 95 c0             	setne  %al
    f3d1:	0f b6 c0             	movzbl %al,%eax
    f3d4:	44 89 f6             	mov    %r14d,%esi
    f3d7:	89 c7                	mov    %eax,%edi
    f3d9:	e8 af 58 ff ff       	callq  4c8d <safe_rshift_func_uint8_t_u_s>
    f3de:	0f b6 95 84 ee ff ff 	movzbl -0x117c(%rbp),%edx
    f3e5:	38 d0                	cmp    %dl,%al
    f3e7:	75 0b                	jne    f3f4 <func_47+0xd35>
    f3e9:	0f b6 85 84 ee ff ff 	movzbl -0x117c(%rbp),%eax
    f3f0:	84 c0                	test   %al,%al
    f3f2:	74 07                	je     f3fb <func_47+0xd3c>
    f3f4:	ba 01 00 00 00       	mov    $0x1,%edx
    f3f9:	eb 05                	jmp    f400 <func_47+0xd41>
    f3fb:	ba 00 00 00 00       	mov    $0x0,%edx
    f400:	8b 05 aa 6c 00 00    	mov    0x6caa(%rip),%eax        # 160b0 <g_46>
    f406:	39 c2                	cmp    %eax,%edx
    f408:	48 8b 05 d1 6c 00 00 	mov    0x6cd1(%rip),%rax        # 160e0 <g_88>
    f40f:	0f b7 c0             	movzwl %ax,%eax
    f412:	44 89 ee             	mov    %r13d,%esi
    f415:	89 c7                	mov    %eax,%edi
    f417:	e8 03 59 ff ff       	callq  4d1f <safe_sub_func_uint16_t_u_u>
    f41c:	44 89 e6             	mov    %r12d,%esi
    f41f:	bf 00 00 00 00       	mov    $0x0,%edi
    f424:	e8 dc 51 ff ff       	callq  4605 <safe_sub_func_int32_t_s_s>
    f429:	4c 63 e0             	movslq %eax,%r12
    f42c:	48 8b 85 88 ee ff ff 	mov    -0x1178(%rbp),%rax
    f433:	0f b6 00             	movzbl (%rax),%eax
    f436:	0f be d0             	movsbl %al,%edx
    f439:	0f b6 85 ae ee ff ff 	movzbl -0x1152(%rbp),%eax
    f440:	0f be c0             	movsbl %al,%eax
    f443:	89 d6                	mov    %edx,%esi
    f445:	89 c7                	mov    %eax,%edi
    f447:	e8 c6 4d ff ff       	callq  4212 <safe_mul_func_int8_t_s_s>
    f44c:	48 0f be c0          	movsbq %al,%rax
    f450:	4c 89 e6             	mov    %r12,%rsi
    f453:	48 89 c7             	mov    %rax,%rdi
    f456:	e8 9c 55 ff ff       	callq  49f7 <safe_div_func_int64_t_s_s>
    f45b:	48 8d 05 52 6c 00 00 	lea    0x6c52(%rip),%rax        # 160b4 <g_53>
    f462:	0f b6 00             	movzbl (%rax),%eax
    f465:	0f b6 d0             	movzbl %al,%edx
    f468:	0f b7 85 b0 ee ff ff 	movzwl -0x1150(%rbp),%eax
    f46f:	66 39 c2             	cmp    %ax,%dx
    f472:	0f 96 c0             	setbe  %al
    f475:	0f b6 c0             	movzbl %al,%eax
    f478:	89 de                	mov    %ebx,%esi
    f47a:	89 c7                	mov    %eax,%edi
    f47c:	e8 3d 58 ff ff       	callq  4cbe <safe_rshift_func_uint8_t_u_u>
    f481:	84 c0                	test   %al,%al
    f483:	0f 84 85 01 00 00    	je     f60e <func_47+0xf4f>
    f489:	48 c7 85 18 f0 ff ff 	movq   $0xfffffffffffffff8,-0xfe8(%rbp)
    f490:	f8 ff ff ff 
    f494:	c7 85 14 ef ff ff ff 	movl   $0xffffffff,-0x10ec(%rbp)
    f49b:	ff ff ff 
    f49e:	c7 85 e0 ee ff ff 00 	movl   $0x0,-0x1120(%rbp)
    f4a5:	00 00 00 
    f4a8:	eb 1b                	jmp    f4c5 <func_47+0xe06>
    f4aa:	8b 85 e0 ee ff ff    	mov    -0x1120(%rbp),%eax
    f4b0:	48 98                	cltq   
    f4b2:	48 c7 84 c5 00 f1 ff 	movq   $0x0,-0xf00(%rbp,%rax,8)
    f4b9:	ff 00 00 00 00 
    f4be:	83 85 e0 ee ff ff 01 	addl   $0x1,-0x1120(%rbp)
    f4c5:	83 bd e0 ee ff ff 04 	cmpl   $0x4,-0x1120(%rbp)
    f4cc:	7e dc                	jle    f4aa <func_47+0xdeb>
    f4ce:	0f b7 85 b2 ee ff ff 	movzwl -0x114e(%rbp),%eax
    f4d5:	66 83 f8 01          	cmp    $0x1,%ax
    f4d9:	0f 96 c0             	setbe  %al
    f4dc:	0f b6 d0             	movzbl %al,%edx
    f4df:	48 8b 85 00 f0 ff ff 	mov    -0x1000(%rbp),%rax
    f4e6:	89 10                	mov    %edx,(%rax)
    f4e8:	83 ad fc ee ff ff 01 	subl   $0x1,-0x1104(%rbp)
    f4ef:	c6 85 84 ee ff ff 00 	movb   $0x0,-0x117c(%rbp)
    f4f6:	90                   	nop
    f4f7:	0f b6 85 84 ee ff ff 	movzbl -0x117c(%rbp),%eax
    f4fe:	3c 2c                	cmp    $0x2c,%al
    f500:	0f 87 32 01 00 00    	ja     f638 <func_47+0xf79>
    f506:	48 8d 85 b2 ee ff ff 	lea    -0x114e(%rbp),%rax
    f50d:	48 89 85 e0 f3 ff ff 	mov    %rax,-0xc20(%rbp)
    f514:	48 8d 85 b2 ee ff ff 	lea    -0x114e(%rbp),%rax
    f51b:	48 89 85 e8 f3 ff ff 	mov    %rax,-0xc18(%rbp)
    f522:	48 8d 85 b2 ee ff ff 	lea    -0x114e(%rbp),%rax
    f529:	48 89 85 f0 f3 ff ff 	mov    %rax,-0xc10(%rbp)
    f530:	48 8d 85 b2 ee ff ff 	lea    -0x114e(%rbp),%rax
    f537:	48 89 85 f8 f3 ff ff 	mov    %rax,-0xc08(%rbp)
    f53e:	48 8d 85 b2 ee ff ff 	lea    -0x114e(%rbp),%rax
    f545:	48 89 85 00 f4 ff ff 	mov    %rax,-0xc00(%rbp)
    f54c:	48 8d 85 b2 ee ff ff 	lea    -0x114e(%rbp),%rax
    f553:	48 89 85 08 f4 ff ff 	mov    %rax,-0xbf8(%rbp)
    f55a:	48 8d 85 b2 ee ff ff 	lea    -0x114e(%rbp),%rax
    f561:	48 89 85 10 f4 ff ff 	mov    %rax,-0xbf0(%rbp)
    f568:	48 8d 85 b2 ee ff ff 	lea    -0x114e(%rbp),%rax
    f56f:	48 89 85 18 f4 ff ff 	mov    %rax,-0xbe8(%rbp)
    f576:	48 8d 85 b2 ee ff ff 	lea    -0x114e(%rbp),%rax
    f57d:	48 89 85 20 f4 ff ff 	mov    %rax,-0xbe0(%rbp)
    f584:	48 8b 85 98 ee ff ff 	mov    -0x1168(%rbp),%rax
    f58b:	0f b6 00             	movzbl (%rax),%eax
    f58e:	8d 50 01             	lea    0x1(%rax),%edx
    f591:	48 8b 85 98 ee ff ff 	mov    -0x1168(%rbp),%rax
    f598:	88 10                	mov    %dl,(%rax)
    f59a:	48 8b 85 90 ee ff ff 	mov    -0x1170(%rbp),%rax
    f5a1:	8b 00                	mov    (%rax),%eax
    f5a3:	85 c0                	test   %eax,%eax
    f5a5:	66 c7 05 a0 6b 00 00 	movw   $0x7930,0x6ba0(%rip)        # 1614e <g_198+0x4e>
    f5ac:	30 79 
    f5ae:	be 09 00 00 00       	mov    $0x9,%esi
    f5b3:	bf 02 00 00 00       	mov    $0x2,%edi
    f5b8:	e8 49 58 ff ff       	callq  4e06 <safe_lshift_func_uint16_t_u_u>
    f5bd:	66 85 c0             	test   %ax,%ax
    f5c0:	75 09                	jne    f5cb <func_47+0xf0c>
    f5c2:	0f b6 85 84 ee ff ff 	movzbl -0x117c(%rbp),%eax
    f5c9:	84 c0                	test   %al,%al
    f5cb:	48 8b 85 90 ee ff ff 	mov    -0x1170(%rbp),%rax
    f5d2:	8b 00                	mov    (%rax),%eax
    f5d4:	85 c0                	test   %eax,%eax
    f5d6:	0f 95 c2             	setne  %dl
    f5d9:	48 8b 85 38 ef ff ff 	mov    -0x10c8(%rbp),%rax
    f5e0:	0f b6 d2             	movzbl %dl,%edx
    f5e3:	48 89 10             	mov    %rdx,(%rax)
    f5e6:	48 8b 00             	mov    (%rax),%rax
    f5e9:	89 c2                	mov    %eax,%edx
    f5eb:	0f b6 85 84 ee ff ff 	movzbl -0x117c(%rbp),%eax
    f5f2:	0f b6 c0             	movzbl %al,%eax
    f5f5:	09 d0                	or     %edx,%eax
    f5f7:	89 c2                	mov    %eax,%edx
    f5f9:	48 8b 85 f8 ef ff ff 	mov    -0x1008(%rbp),%rax
    f600:	89 10                	mov    %edx,(%rax)
    f602:	48 8b 85 30 ef ff ff 	mov    -0x10d0(%rbp),%rax
    f609:	e9 1c 11 00 00       	jmpq   1072a <func_47+0x206b>
    f60e:	48 8b 05 ab 73 00 00 	mov    0x73ab(%rip),%rax        # 169c0 <g_103>
    f615:	8b 00                	mov    (%rax),%eax
    f617:	85 c0                	test   %eax,%eax
    f619:	0f 85 00 11 00 00    	jne    1071f <func_47+0x2060>
    f61f:	83 bd e4 ee ff ff 00 	cmpl   $0x0,-0x111c(%rbp)
    f626:	0f 85 c6 10 00 00    	jne    106f2 <func_47+0x2033>
    f62c:	48 8b 85 30 ef ff ff 	mov    -0x10d0(%rbp),%rax
    f633:	e9 f2 10 00 00       	jmpq   1072a <func_47+0x206b>
    f638:	48 8d 05 75 6a 00 00 	lea    0x6a75(%rip),%rax        # 160b4 <g_53>
    f63f:	0f b6 00             	movzbl (%rax),%eax
    f642:	44 0f b6 e0          	movzbl %al,%r12d
    f646:	48 8b 85 98 ee ff ff 	mov    -0x1168(%rbp),%rax
    f64d:	0f b6 00             	movzbl (%rax),%eax
    f650:	0f b6 d8             	movzbl %al,%ebx
    f653:	0f b6 85 84 ee ff ff 	movzbl -0x117c(%rbp),%eax
    f65a:	0f be c0             	movsbl %al,%eax
    f65d:	be 03 00 00 00       	mov    $0x3,%esi
    f662:	89 c7                	mov    %eax,%edi
    f664:	e8 85 4c ff ff       	callq  42ee <safe_lshift_func_int8_t_s_u>
    f669:	0f b6 85 84 ee ff ff 	movzbl -0x117c(%rbp),%eax
    f670:	0f b6 d0             	movzbl %al,%edx
    f673:	48 8b 85 90 ee ff ff 	mov    -0x1170(%rbp),%rax
    f67a:	8b 00                	mov    (%rax),%eax
    f67c:	89 d6                	mov    %edx,%esi
    f67e:	89 c7                	mov    %eax,%edi
    f680:	e8 80 4f ff ff       	callq  4605 <safe_sub_func_int32_t_s_s>
    f685:	0f b6 15 29 6a 00 00 	movzbl 0x6a29(%rip),%edx        # 160b5 <g_63>
    f68c:	0f be d2             	movsbl %dl,%edx
    f68f:	39 d0                	cmp    %edx,%eax
    f691:	be 05 00 00 00       	mov    $0x5,%esi
    f696:	bf 01 00 00 00       	mov    $0x1,%edi
    f69b:	e8 95 4c ff ff       	callq  4335 <safe_rshift_func_int8_t_s_s>
    f6a0:	f7 d0                	not    %eax
    f6a2:	c0 e8 07             	shr    $0x7,%al
    f6a5:	0f b6 c0             	movzbl %al,%eax
    f6a8:	be f1 63 ef 04       	mov    $0x4ef63f1,%esi
    f6ad:	89 c7                	mov    %eax,%edi
    f6af:	e8 4b 50 ff ff       	callq  46ff <safe_div_func_int32_t_s_s>
    f6b4:	be 01 00 00 00       	mov    $0x1,%esi
    f6b9:	89 c7                	mov    %eax,%edi
    f6bb:	e8 3d 58 ff ff       	callq  4efd <safe_mod_func_uint32_t_u_u>
    f6c0:	48 8b 05 09 73 00 00 	mov    0x7309(%rip),%rax        # 169d0 <g_104>
    f6c7:	48 8b 00             	mov    (%rax),%rax
    f6ca:	48 85 c0             	test   %rax,%rax
    f6cd:	0f 95 c0             	setne  %al
    f6d0:	0f b6 c0             	movzbl %al,%eax
    f6d3:	89 de                	mov    %ebx,%esi
    f6d5:	89 c7                	mov    %eax,%edi
    f6d7:	e8 ff 54 ff ff       	callq  4bdb <safe_div_func_uint8_t_u_u>
    f6dc:	89 c2                	mov    %eax,%edx
    f6de:	48 8b 85 88 ee ff ff 	mov    -0x1178(%rbp),%rax
    f6e5:	0f b6 00             	movzbl (%rax),%eax
    f6e8:	31 c2                	xor    %eax,%edx
    f6ea:	0f b6 85 84 ee ff ff 	movzbl -0x117c(%rbp),%eax
    f6f1:	38 c2                	cmp    %al,%dl
    f6f3:	0f 96 c0             	setbe  %al
    f6f6:	0f b6 c0             	movzbl %al,%eax
    f6f9:	41 39 c4             	cmp    %eax,%r12d
    f6fc:	0f 84 5f 03 00 00    	je     fa61 <func_47+0x13a2>
    f702:	48 8d 85 b2 ee ff ff 	lea    -0x114e(%rbp),%rax
    f709:	48 89 85 50 f0 ff ff 	mov    %rax,-0xfb0(%rbp)
    f710:	48 8d 85 b0 ee ff ff 	lea    -0x1150(%rbp),%rax
    f717:	48 89 85 58 f0 ff ff 	mov    %rax,-0xfa8(%rbp)
    f71e:	c7 85 88 ef ff ff 01 	movl   $0x1,-0x1078(%rbp)
    f725:	00 00 00 
    f728:	c7 85 24 ef ff ff 4c 	movl   $0xcc31644c,-0x10dc(%rbp)
    f72f:	64 31 cc 
    f732:	48 8d 85 e0 f3 ff ff 	lea    -0xc20(%rbp),%rax
    f739:	48 8d 15 80 2b 00 00 	lea    0x2b80(%rip),%rdx        # 122c0 <g_362+0x126c>
    f740:	b9 40 00 00 00       	mov    $0x40,%ecx
    f745:	48 89 c7             	mov    %rax,%rdi
    f748:	48 89 d6             	mov    %rdx,%rsi
    f74b:	f3 48 a5             	rep movsq %ds:(%rsi),%es:(%rdi)
    f74e:	8b 05 88 69 00 00    	mov    0x6988(%rip),%eax        # 160dc <g_81>
    f754:	89 c2                	mov    %eax,%edx
    f756:	48 8b 85 c8 ef ff ff 	mov    -0x1038(%rbp),%rax
    f75d:	48 8b 00             	mov    (%rax),%rax
    f760:	48 39 85 98 ef ff ff 	cmp    %rax,-0x1068(%rbp)
    f767:	0f 95 c1             	setne  %cl
    f76a:	8b 05 40 69 00 00    	mov    0x6940(%rip),%eax        # 160b0 <g_46>
    f770:	89 05 7e 69 00 00    	mov    %eax,0x697e(%rip)        # 160f4 <g_124>
    f776:	8b 05 78 69 00 00    	mov    0x6978(%rip),%eax        # 160f4 <g_124>
    f77c:	83 f8 01             	cmp    $0x1,%eax
    f77f:	0f 95 c0             	setne  %al
    f782:	09 c8                	or     %ecx,%eax
    f784:	0f b6 c0             	movzbl %al,%eax
    f787:	31 d0                	xor    %edx,%eax
    f789:	89 c2                	mov    %eax,%edx
    f78b:	48 8b 85 50 f0 ff ff 	mov    -0xfb0(%rbp),%rax
    f792:	66 89 10             	mov    %dx,(%rax)
    f795:	48 8b 85 50 f0 ff ff 	mov    -0xfb0(%rbp),%rax
    f79c:	0f b7 10             	movzwl (%rax),%edx
    f79f:	48 8b 85 58 f0 ff ff 	mov    -0xfa8(%rbp),%rax
    f7a6:	66 89 10             	mov    %dx,(%rax)
    f7a9:	8b 05 41 69 00 00    	mov    0x6941(%rip),%eax        # 160f0 <g_107>
    f7af:	85 c0                	test   %eax,%eax
    f7b1:	0f 84 96 00 00 00    	je     f84d <func_47+0x118e>
    f7b7:	0f b6 85 84 ee ff ff 	movzbl -0x117c(%rbp),%eax
    f7be:	0f b6 d8             	movzbl %al,%ebx
    f7c1:	48 8b 05 20 69 00 00 	mov    0x6920(%rip),%rax        # 160e8 <g_91>
    f7c8:	44 0f b7 e0          	movzwl %ax,%r12d
    f7cc:	0f b7 05 7b 69 00 00 	movzwl 0x697b(%rip),%eax        # 1614e <g_198+0x4e>
    f7d3:	48 0f bf d0          	movswq %ax,%rdx
    f7d7:	48 8b 05 0a 69 00 00 	mov    0x690a(%rip),%rax        # 160e8 <g_91>
    f7de:	48 39 c2             	cmp    %rax,%rdx
    f7e1:	0f 95 c0             	setne  %al
    f7e4:	0f b6 c0             	movzbl %al,%eax
    f7e7:	be 53 16 00 00       	mov    $0x1653,%esi
    f7ec:	89 c7                	mov    %eax,%edi
    f7ee:	e8 4a 55 ff ff       	callq  4d3d <safe_mul_func_uint16_t_u_u>
    f7f3:	83 c8 01             	or     $0x1,%eax
    f7f6:	0f b6 d0             	movzbl %al,%edx
    f7f9:	48 8d 05 b4 68 00 00 	lea    0x68b4(%rip),%rax        # 160b4 <g_53>
    f800:	0f b6 00             	movzbl (%rax),%eax
    f803:	0f b6 c0             	movzbl %al,%eax
    f806:	89 d6                	mov    %edx,%esi
    f808:	89 c7                	mov    %eax,%edi
    f80a:	e8 4b 53 ff ff       	callq  4b5a <safe_add_func_uint8_t_u_u>
    f80f:	0f b7 15 ba 69 00 00 	movzwl 0x69ba(%rip),%edx        # 161d0 <g_198+0xd0>
    f816:	48 8b 85 90 ee ff ff 	mov    -0x1170(%rbp),%rax
    f81d:	8b 00                	mov    (%rax),%eax
    f81f:	21 d0                	and    %edx,%eax
    f821:	0f b7 c0             	movzwl %ax,%eax
    f824:	44 89 e6             	mov    %r12d,%esi
    f827:	89 c7                	mov    %eax,%edi
    f829:	e8 d1 54 ff ff       	callq  4cff <safe_add_func_uint16_t_u_u>
    f82e:	0f b6 c0             	movzbl %al,%eax
    f831:	89 de                	mov    %ebx,%esi
    f833:	89 c7                	mov    %eax,%edi
    f835:	e8 59 53 ff ff       	callq  4b93 <safe_mul_func_uint8_t_u_u>
    f83a:	48 8b 05 a7 68 00 00 	mov    0x68a7(%rip),%rax        # 160e8 <g_91>
    f841:	48 85 c0             	test   %rax,%rax
    f844:	74 07                	je     f84d <func_47+0x118e>
    f846:	ba 01 00 00 00       	mov    $0x1,%edx
    f84b:	eb 05                	jmp    f852 <func_47+0x1193>
    f84d:	ba 00 00 00 00       	mov    $0x0,%edx
    f852:	48 8b 85 f8 ef ff ff 	mov    -0x1008(%rbp),%rax
    f859:	89 10                	mov    %edx,(%rax)
    f85b:	c7 85 d0 ee ff ff 00 	movl   $0x0,-0x1130(%rbp)
    f862:	00 00 00 
    f865:	eb 19                	jmp    f880 <func_47+0x11c1>
    f867:	8b 85 d0 ee ff ff    	mov    -0x1130(%rbp),%eax
    f86d:	48 98                	cltq   
    f86f:	66 c7 84 45 00 f1 ff 	movw   $0x6718,-0xf00(%rbp,%rax,2)
    f876:	ff 18 67 
    f879:	83 85 d0 ee ff ff 01 	addl   $0x1,-0x1130(%rbp)
    f880:	83 bd d0 ee ff ff 01 	cmpl   $0x1,-0x1130(%rbp)
    f887:	7e de                	jle    f867 <func_47+0x11a8>
    f889:	c7 85 88 ef ff ff 00 	movl   $0x0,-0x1078(%rbp)
    f890:	00 00 00 
    f893:	48 8b 05 36 71 00 00 	mov    0x7136(%rip),%rax        # 169d0 <g_104>
    f89a:	48 8b 10             	mov    (%rax),%rdx
    f89d:	48 8b 05 24 71 00 00 	mov    0x7124(%rip),%rax        # 169c8 <g_105>
    f8a4:	48 8b 12             	mov    (%rdx),%rdx
    f8a7:	48 89 10             	mov    %rdx,(%rax)
    f8aa:	0f b7 85 02 f1 ff ff 	movzwl -0xefe(%rbp),%eax
    f8b1:	83 c0 01             	add    $0x1,%eax
    f8b4:	66 89 85 02 f1 ff ff 	mov    %ax,-0xefe(%rbp)
    f8bb:	66 83 bd b4 ee ff ff 	cmpw   $0x0,-0x114c(%rbp)
    f8c2:	00 
    f8c3:	0f 85 59 0e 00 00    	jne    10722 <func_47+0x2063>
    f8c9:	0f b7 05 48 69 00 00 	movzwl 0x6948(%rip),%eax        # 16218 <g_237>
    f8d0:	83 e8 01             	sub    $0x1,%eax
    f8d3:	66 89 05 3e 69 00 00 	mov    %ax,0x693e(%rip)        # 16218 <g_237>
    f8da:	0f b6 85 84 ee ff ff 	movzbl -0x117c(%rbp),%eax
    f8e1:	0f b6 d8             	movzbl %al,%ebx
    f8e4:	48 8b 85 00 f0 ff ff 	mov    -0x1000(%rbp),%rax
    f8eb:	8b 00                	mov    (%rax),%eax
    f8ed:	44 0f be e0          	movsbl %al,%r12d
    f8f1:	83 bd ec ee ff ff 00 	cmpl   $0x0,-0x1114(%rbp)
    f8f8:	0f 84 c7 00 00 00    	je     f9c5 <func_47+0x1306>
    f8fe:	8b 05 ec 67 00 00    	mov    0x67ec(%rip),%eax        # 160f0 <g_107>
    f904:	0f b6 d0             	movzbl %al,%edx
    f907:	48 8b 85 c8 ef ff ff 	mov    -0x1038(%rbp),%rax
    f90e:	48 8b 00             	mov    (%rax),%rax
    f911:	48 85 c0             	test   %rax,%rax
    f914:	0f 95 c0             	setne  %al
    f917:	0f b6 c0             	movzbl %al,%eax
    f91a:	89 d6                	mov    %edx,%esi
    f91c:	89 c7                	mov    %eax,%edi
    f91e:	e8 70 52 ff ff       	callq  4b93 <safe_mul_func_uint8_t_u_u>
    f923:	0f b6 d0             	movzbl %al,%edx
    f926:	8b 05 ac 67 00 00    	mov    0x67ac(%rip),%eax        # 160d8 <g_64+0x18>
    f92c:	39 c2                	cmp    %eax,%edx
    f92e:	0f 92 c0             	setb   %al
    f931:	0f b6 d0             	movzbl %al,%edx
    f934:	8b 05 8e 67 00 00    	mov    0x678e(%rip),%eax        # 160c8 <g_64+0x8>
    f93a:	09 d0                	or     %edx,%eax
    f93c:	41 89 c6             	mov    %eax,%r14d
    f93f:	0f b6 85 84 ee ff ff 	movzbl -0x117c(%rbp),%eax
    f946:	44 0f b6 e8          	movzbl %al,%r13d
    f94a:	0f b6 85 84 ee ff ff 	movzbl -0x117c(%rbp),%eax
    f951:	0f b6 d0             	movzbl %al,%edx
    f954:	48 8b 05 75 70 00 00 	mov    0x7075(%rip),%rax        # 169d0 <g_104>
    f95b:	48 8b 00             	mov    (%rax),%rax
    f95e:	48 8b 00             	mov    (%rax),%rax
    f961:	8b 00                	mov    (%rax),%eax
    f963:	0d 88 8e b6 1e       	or     $0x1eb68e88,%eax
    f968:	48 98                	cltq   
    f96a:	48 89 d6             	mov    %rdx,%rsi
    f96d:	48 89 c7             	mov    %rax,%rdi
    f970:	e8 b9 56 ff ff       	callq  502e <safe_add_func_uint64_t_u_u>
    f975:	49 39 c5             	cmp    %rax,%r13
    f978:	0f 95 c0             	setne  %al
    f97b:	0f b6 c0             	movzbl %al,%eax
    f97e:	44 89 f6             	mov    %r14d,%esi
    f981:	89 c7                	mov    %eax,%edi
    f983:	e8 77 4d ff ff       	callq  46ff <safe_div_func_int32_t_s_s>
    f988:	44 0f be e8          	movsbl %al,%r13d
    f98c:	8b 05 62 67 00 00    	mov    0x6762(%rip),%eax        # 160f4 <g_124>
    f992:	0f be c0             	movsbl %al,%eax
    f995:	be 06 00 00 00       	mov    $0x6,%esi
    f99a:	89 c7                	mov    %eax,%edi
    f99c:	e8 cb 49 ff ff       	callq  436c <safe_rshift_func_int8_t_s_u>
    f9a1:	84 c0                	test   %al,%al
    f9a3:	0f 95 c0             	setne  %al
    f9a6:	0f b6 c0             	movzbl %al,%eax
    f9a9:	44 89 ee             	mov    %r13d,%esi
    f9ac:	89 c7                	mov    %eax,%edi
    f9ae:	e8 5f 48 ff ff       	callq  4212 <safe_mul_func_int8_t_s_s>
    f9b3:	0f be d0             	movsbl %al,%edx
    f9b6:	48 8d 05 f7 66 00 00 	lea    0x66f7(%rip),%rax        # 160b4 <g_53>
    f9bd:	0f b6 00             	movzbl (%rax),%eax
    f9c0:	0f b6 c0             	movzbl %al,%eax
    f9c3:	39 c2                	cmp    %eax,%edx
    f9c5:	8b 05 29 67 00 00    	mov    0x6729(%rip),%eax        # 160f4 <g_124>
    f9cb:	89 c0                	mov    %eax,%eax
    f9cd:	48 be 08 c3 4d 7a 6a 	movabs $0xc73eff6a7a4dc308,%rsi
    f9d4:	ff 3e c7 
    f9d7:	48 89 c7             	mov    %rax,%rdi
    f9da:	e8 18 50 ff ff       	callq  49f7 <safe_div_func_int64_t_s_s>
    f9df:	48 85 c0             	test   %rax,%rax
    f9e2:	74 1a                	je     f9fe <func_47+0x133f>
    f9e4:	48 8b 05 e5 6f 00 00 	mov    0x6fe5(%rip),%rax        # 169d0 <g_104>
    f9eb:	48 8b 00             	mov    (%rax),%rax
    f9ee:	48 8b 00             	mov    (%rax),%rax
    f9f1:	8b 00                	mov    (%rax),%eax
    f9f3:	85 c0                	test   %eax,%eax
    f9f5:	74 07                	je     f9fe <func_47+0x133f>
    f9f7:	b8 01 00 00 00       	mov    $0x1,%eax
    f9fc:	eb 05                	jmp    fa03 <func_47+0x1344>
    f9fe:	b8 00 00 00 00       	mov    $0x0,%eax
    fa03:	89 05 eb 66 00 00    	mov    %eax,0x66eb(%rip)        # 160f4 <g_124>
    fa09:	0f b6 85 84 ee ff ff 	movzbl -0x117c(%rbp),%eax
    fa10:	0f b6 d0             	movzbl %al,%edx
    fa13:	8b 05 d7 66 00 00    	mov    0x66d7(%rip),%eax        # 160f0 <g_107>
    fa19:	39 c2                	cmp    %eax,%edx
    fa1b:	0f 9f c2             	setg   %dl
    fa1e:	48 8b 85 c8 ef ff ff 	mov    -0x1038(%rbp),%rax
    fa25:	48 8b 00             	mov    (%rax),%rax
    fa28:	0f b6 d2             	movzbl %dl,%edx
    fa2b:	48 89 10             	mov    %rdx,(%rax)
    fa2e:	0f b6 05 7f 66 00 00 	movzbl 0x667f(%rip),%eax        # 160b4 <g_53>
    fa35:	0f be c0             	movsbl %al,%eax
    fa38:	44 89 e6             	mov    %r12d,%esi
    fa3b:	89 c7                	mov    %eax,%edi
    fa3d:	e8 28 48 ff ff       	callq  426a <safe_div_func_int8_t_s_s>
    fa42:	48 0f be c0          	movsbq %al,%rax
    fa46:	48 89 de             	mov    %rbx,%rsi
    fa49:	48 89 c7             	mov    %rax,%rdi
    fa4c:	e8 63 4f ff ff       	callq  49b4 <safe_mod_func_int64_t_s_s>
    fa51:	89 c2                	mov    %eax,%edx
    fa53:	48 8b 85 f8 ef ff ff 	mov    -0x1008(%rbp),%rax
    fa5a:	89 10                	mov    %edx,(%rax)
    fa5c:	e9 92 0c 00 00       	jmpq   106f3 <func_47+0x2034>
    fa61:	c7 85 18 ef ff ff d4 	movl   $0x4aa76bd4,-0x10e8(%rbp)
    fa68:	6b a7 4a 
    fa6b:	c7 85 d0 f0 ff ff ff 	movl   $0xffffffff,-0xf30(%rbp)
    fa72:	ff ff ff 
    fa75:	c7 85 d4 f0 ff ff ff 	movl   $0xffffffff,-0xf2c(%rbp)
    fa7c:	ff ff ff 
    fa7f:	c7 85 d8 f0 ff ff ff 	movl   $0xffffffff,-0xf28(%rbp)
    fa86:	ff ff ff 
    fa89:	c7 85 dc f0 ff ff ff 	movl   $0xffffffff,-0xf24(%rbp)
    fa90:	ff ff ff 
    fa93:	c7 85 e0 f0 ff ff 02 	movl   $0x2,-0xf20(%rbp)
    fa9a:	00 00 00 
    fa9d:	c7 85 e4 f0 ff ff ff 	movl   $0xffffffff,-0xf1c(%rbp)
    faa4:	ff ff ff 
    faa7:	c7 85 e8 f0 ff ff ff 	movl   $0xffffffff,-0xf18(%rbp)
    faae:	ff ff ff 
    fab1:	c7 85 ec f0 ff ff ff 	movl   $0xffffffff,-0xf14(%rbp)
    fab8:	ff ff ff 
    fabb:	c7 85 f0 f0 ff ff ff 	movl   $0xffffffff,-0xf10(%rbp)
    fac2:	ff ff ff 
    fac5:	c7 85 f4 f0 ff ff 02 	movl   $0x2,-0xf0c(%rbp)
    facc:	00 00 00 
    facf:	c7 85 1c ef ff ff cb 	movl   $0x749569cb,-0x10e4(%rbp)
    fad6:	69 95 74 
    fad9:	48 8d 85 48 ef ff ff 	lea    -0x10b8(%rbp),%rax
    fae0:	48 89 85 70 ef ff ff 	mov    %rax,-0x1090(%rbp)
    fae7:	c7 85 d4 ee ff ff 00 	movl   $0x0,-0x112c(%rbp)
    faee:	00 00 00 
    faf1:	eb 1e                	jmp    fb11 <func_47+0x1452>
    faf3:	8b 85 d4 ee ff ff    	mov    -0x112c(%rbp),%eax
    faf9:	48 98                	cltq   
    fafb:	48 8d 15 4c 66 00 00 	lea    0x664c(%rip),%rdx        # 1614e <g_198+0x4e>
    fb02:	48 89 94 c5 60 f0 ff 	mov    %rdx,-0xfa0(%rbp,%rax,8)
    fb09:	ff 
    fb0a:	83 85 d4 ee ff ff 01 	addl   $0x1,-0x112c(%rbp)
    fb11:	83 bd d4 ee ff ff 00 	cmpl   $0x0,-0x112c(%rbp)
    fb18:	7e d9                	jle    faf3 <func_47+0x1434>
    fb1a:	c7 85 d4 ee ff ff 00 	movl   $0x0,-0x112c(%rbp)
    fb21:	00 00 00 
    fb24:	eb 1e                	jmp    fb44 <func_47+0x1485>
    fb26:	8b 85 d4 ee ff ff    	mov    -0x112c(%rbp),%eax
    fb2c:	48 98                	cltq   
    fb2e:	48 8d 95 70 ef ff ff 	lea    -0x1090(%rbp),%rdx
    fb35:	48 89 94 c5 68 f0 ff 	mov    %rdx,-0xf98(%rbp,%rax,8)
    fb3c:	ff 
    fb3d:	83 85 d4 ee ff ff 01 	addl   $0x1,-0x112c(%rbp)
    fb44:	83 bd d4 ee ff ff 00 	cmpl   $0x0,-0x112c(%rbp)
    fb4b:	7e d9                	jle    fb26 <func_47+0x1467>
    fb4d:	48 8b 05 7c 6e 00 00 	mov    0x6e7c(%rip),%rax        # 169d0 <g_104>
    fb54:	48 8b 10             	mov    (%rax),%rdx
    fb57:	48 8b 05 6a 6e 00 00 	mov    0x6e6a(%rip),%rax        # 169c8 <g_105>
    fb5e:	48 8b 12             	mov    (%rdx),%rdx
    fb61:	48 89 10             	mov    %rdx,(%rax)
    fb64:	0f b6 85 84 ee ff ff 	movzbl -0x117c(%rbp),%eax
    fb6b:	0f b6 c0             	movzbl %al,%eax
    fb6e:	89 85 18 ef ff ff    	mov    %eax,-0x10e8(%rbp)
    fb74:	8b 85 18 ef ff ff    	mov    -0x10e8(%rbp),%eax
    fb7a:	4c 63 e0             	movslq %eax,%r12
    fb7d:	8b 05 59 65 00 00    	mov    0x6559(%rip),%eax        # 160dc <g_81>
    fb83:	48 63 d8             	movslq %eax,%rbx
    fb86:	8b 85 d8 f0 ff ff    	mov    -0xf28(%rbp),%eax
    fb8c:	41 89 c5             	mov    %eax,%r13d
    fb8f:	0f b6 85 84 ee ff ff 	movzbl -0x117c(%rbp),%eax
    fb96:	0f b6 c0             	movzbl %al,%eax
    fb99:	89 c6                	mov    %eax,%esi
    fb9b:	bf 19 f8 ff ff       	mov    $0xfffff819,%edi
    fba0:	e8 50 48 ff ff       	callq  43f5 <safe_mul_func_int16_t_s_s>
    fba5:	98                   	cwtl   
    fba6:	44 89 ee             	mov    %r13d,%esi
    fba9:	89 c7                	mov    %eax,%edi
    fbab:	e8 75 53 ff ff       	callq  4f25 <safe_div_func_uint32_t_u_u>
    fbb0:	0d 09 a9 00 00       	or     $0xa909,%eax
    fbb5:	89 c2                	mov    %eax,%edx
    fbb7:	8b 85 1c ef ff ff    	mov    -0x10e4(%rbp),%eax
    fbbd:	48 98                	cltq   
    fbbf:	48 39 c2             	cmp    %rax,%rdx
    fbc2:	0f 9f c0             	setg   %al
    fbc5:	0f b6 c0             	movzbl %al,%eax
    fbc8:	be 07 00 00 00       	mov    $0x7,%esi
    fbcd:	89 c7                	mov    %eax,%edi
    fbcf:	e8 a4 4f ff ff       	callq  4b78 <safe_sub_func_uint8_t_u_u>
    fbd4:	0f b6 c0             	movzbl %al,%eax
    fbd7:	48 89 de             	mov    %rbx,%rsi
    fbda:	48 89 c7             	mov    %rax,%rdi
    fbdd:	e8 4c 54 ff ff       	callq  502e <safe_add_func_uint64_t_u_u>
    fbe2:	4c 89 e2             	mov    %r12,%rdx
    fbe5:	48 21 c2             	and    %rax,%rdx
    fbe8:	8b 85 ec ee ff ff    	mov    -0x1114(%rbp),%eax
    fbee:	48 98                	cltq   
    fbf0:	48 31 c2             	xor    %rax,%rdx
    fbf3:	48 8b 85 98 ee ff ff 	mov    -0x1168(%rbp),%rax
    fbfa:	0f b6 00             	movzbl (%rax),%eax
    fbfd:	21 c2                	and    %eax,%edx
    fbff:	48 8b 85 98 ee ff ff 	mov    -0x1168(%rbp),%rax
    fc06:	88 10                	mov    %dl,(%rax)
    fc08:	ba 00 00 00 00       	mov    $0x0,%edx
    fc0d:	48 8b 05 bc 6d 00 00 	mov    0x6dbc(%rip),%rax        # 169d0 <g_104>
    fc14:	48 8b 00             	mov    (%rax),%rax
    fc17:	48 8b 00             	mov    (%rax),%rax
    fc1a:	89 10                	mov    %edx,(%rax)
    fc1c:	48 8b 85 f0 ef ff ff 	mov    -0x1010(%rbp),%rax
    fc23:	8b 00                	mov    (%rax),%eax
    fc25:	85 c0                	test   %eax,%eax
    fc27:	0f 84 3c 07 00 00    	je     10369 <func_47+0x1caa>
    fc2d:	48 c7 85 40 f0 ff ff 	movq   $0x0,-0xfc0(%rbp)
    fc34:	00 00 00 00 
    fc38:	48 8d 05 76 64 00 00 	lea    0x6476(%rip),%rax        # 160b5 <g_63>
    fc3f:	48 89 85 88 ef ff ff 	mov    %rax,-0x1078(%rbp)
    fc46:	48 8d 85 90 f0 ff ff 	lea    -0xf70(%rbp),%rax
    fc4d:	48 83 c0 08          	add    $0x8,%rax
    fc51:	48 89 85 e0 f3 ff ff 	mov    %rax,-0xc20(%rbp)
    fc58:	48 8d 85 90 f0 ff ff 	lea    -0xf70(%rbp),%rax
    fc5f:	48 83 c0 10          	add    $0x10,%rax
    fc63:	48 89 85 e8 f3 ff ff 	mov    %rax,-0xc18(%rbp)
    fc6a:	48 8d 85 90 f0 ff ff 	lea    -0xf70(%rbp),%rax
    fc71:	48 89 85 f0 f3 ff ff 	mov    %rax,-0xc10(%rbp)
    fc78:	48 8d 85 90 f0 ff ff 	lea    -0xf70(%rbp),%rax
    fc7f:	48 89 85 f8 f3 ff ff 	mov    %rax,-0xc08(%rbp)
    fc86:	48 8d 85 90 f0 ff ff 	lea    -0xf70(%rbp),%rax
    fc8d:	48 83 c0 08          	add    $0x8,%rax
    fc91:	48 89 85 00 f4 ff ff 	mov    %rax,-0xc00(%rbp)
    fc98:	48 8d 85 90 f0 ff ff 	lea    -0xf70(%rbp),%rax
    fc9f:	48 89 85 08 f4 ff ff 	mov    %rax,-0xbf8(%rbp)
    fca6:	48 8d 85 90 f0 ff ff 	lea    -0xf70(%rbp),%rax
    fcad:	48 89 85 10 f4 ff ff 	mov    %rax,-0xbf0(%rbp)
    fcb4:	48 8d 85 90 f0 ff ff 	lea    -0xf70(%rbp),%rax
    fcbb:	48 83 c0 10          	add    $0x10,%rax
    fcbf:	48 89 85 18 f4 ff ff 	mov    %rax,-0xbe8(%rbp)
    fcc6:	48 8d 85 90 f0 ff ff 	lea    -0xf70(%rbp),%rax
    fccd:	48 89 85 20 f4 ff ff 	mov    %rax,-0xbe0(%rbp)
    fcd4:	48 8d 85 90 f0 ff ff 	lea    -0xf70(%rbp),%rax
    fcdb:	48 83 c0 08          	add    $0x8,%rax
    fcdf:	48 89 85 28 f4 ff ff 	mov    %rax,-0xbd8(%rbp)
    fce6:	48 8d 85 90 f0 ff ff 	lea    -0xf70(%rbp),%rax
    fced:	48 89 85 30 f4 ff ff 	mov    %rax,-0xbd0(%rbp)
    fcf4:	48 8d 85 90 f0 ff ff 	lea    -0xf70(%rbp),%rax
    fcfb:	48 89 85 38 f4 ff ff 	mov    %rax,-0xbc8(%rbp)
    fd02:	48 8d 85 90 f0 ff ff 	lea    -0xf70(%rbp),%rax
    fd09:	48 89 85 40 f4 ff ff 	mov    %rax,-0xbc0(%rbp)
    fd10:	48 8d 85 90 f0 ff ff 	lea    -0xf70(%rbp),%rax
    fd17:	48 89 85 48 f4 ff ff 	mov    %rax,-0xbb8(%rbp)
    fd1e:	48 8d 85 90 f0 ff ff 	lea    -0xf70(%rbp),%rax
    fd25:	48 89 85 50 f4 ff ff 	mov    %rax,-0xbb0(%rbp)
    fd2c:	48 8d 85 90 f0 ff ff 	lea    -0xf70(%rbp),%rax
    fd33:	48 89 85 58 f4 ff ff 	mov    %rax,-0xba8(%rbp)
    fd3a:	48 8d 85 90 f0 ff ff 	lea    -0xf70(%rbp),%rax
    fd41:	48 83 c0 08          	add    $0x8,%rax
    fd45:	48 89 85 60 f4 ff ff 	mov    %rax,-0xba0(%rbp)
    fd4c:	48 8d 85 90 f0 ff ff 	lea    -0xf70(%rbp),%rax
    fd53:	48 89 85 68 f4 ff ff 	mov    %rax,-0xb98(%rbp)
    fd5a:	48 8d 85 90 f0 ff ff 	lea    -0xf70(%rbp),%rax
    fd61:	48 89 85 70 f4 ff ff 	mov    %rax,-0xb90(%rbp)
    fd68:	48 8d 85 90 f0 ff ff 	lea    -0xf70(%rbp),%rax
    fd6f:	48 89 85 78 f4 ff ff 	mov    %rax,-0xb88(%rbp)
    fd76:	48 8d 85 90 f0 ff ff 	lea    -0xf70(%rbp),%rax
    fd7d:	48 83 c0 08          	add    $0x8,%rax
    fd81:	48 89 85 80 f4 ff ff 	mov    %rax,-0xb80(%rbp)
    fd88:	48 c7 85 88 f4 ff ff 	movq   $0x0,-0xb78(%rbp)
    fd8f:	00 00 00 00 
    fd93:	48 8d 85 90 f0 ff ff 	lea    -0xf70(%rbp),%rax
    fd9a:	48 89 85 90 f4 ff ff 	mov    %rax,-0xb70(%rbp)
    fda1:	48 8d 85 90 f0 ff ff 	lea    -0xf70(%rbp),%rax
    fda8:	48 89 85 98 f4 ff ff 	mov    %rax,-0xb68(%rbp)
    fdaf:	48 8d 85 90 f0 ff ff 	lea    -0xf70(%rbp),%rax
    fdb6:	48 89 85 a0 f4 ff ff 	mov    %rax,-0xb60(%rbp)
    fdbd:	48 c7 85 a8 f4 ff ff 	movq   $0x0,-0xb58(%rbp)
    fdc4:	00 00 00 00 
    fdc8:	48 8d 85 90 f0 ff ff 	lea    -0xf70(%rbp),%rax
    fdcf:	48 89 85 b0 f4 ff ff 	mov    %rax,-0xb50(%rbp)
    fdd6:	48 8d 85 90 f0 ff ff 	lea    -0xf70(%rbp),%rax
    fddd:	48 89 85 b8 f4 ff ff 	mov    %rax,-0xb48(%rbp)
    fde4:	48 c7 85 c0 f4 ff ff 	movq   $0x0,-0xb40(%rbp)
    fdeb:	00 00 00 00 
    fdef:	48 8d 85 90 f0 ff ff 	lea    -0xf70(%rbp),%rax
    fdf6:	48 89 85 c8 f4 ff ff 	mov    %rax,-0xb38(%rbp)
    fdfd:	48 8d 85 90 f0 ff ff 	lea    -0xf70(%rbp),%rax
    fe04:	48 89 85 d0 f4 ff ff 	mov    %rax,-0xb30(%rbp)
    fe0b:	48 8d 85 90 f0 ff ff 	lea    -0xf70(%rbp),%rax
    fe12:	48 89 85 d8 f4 ff ff 	mov    %rax,-0xb28(%rbp)
    fe19:	48 8d 85 90 f0 ff ff 	lea    -0xf70(%rbp),%rax
    fe20:	48 89 85 e0 f4 ff ff 	mov    %rax,-0xb20(%rbp)
    fe27:	48 8d 85 90 f0 ff ff 	lea    -0xf70(%rbp),%rax
    fe2e:	48 89 85 e8 f4 ff ff 	mov    %rax,-0xb18(%rbp)
    fe35:	48 8d 85 90 f0 ff ff 	lea    -0xf70(%rbp),%rax
    fe3c:	48 83 c0 08          	add    $0x8,%rax
    fe40:	48 89 85 f0 f4 ff ff 	mov    %rax,-0xb10(%rbp)
    fe47:	48 8d 85 90 f0 ff ff 	lea    -0xf70(%rbp),%rax
    fe4e:	48 89 85 f8 f4 ff ff 	mov    %rax,-0xb08(%rbp)
    fe55:	48 8d 85 90 f0 ff ff 	lea    -0xf70(%rbp),%rax
    fe5c:	48 83 c0 10          	add    $0x10,%rax
    fe60:	48 89 85 00 f5 ff ff 	mov    %rax,-0xb00(%rbp)
    fe67:	48 8d 85 90 f0 ff ff 	lea    -0xf70(%rbp),%rax
    fe6e:	48 83 c0 08          	add    $0x8,%rax
    fe72:	48 89 85 08 f5 ff ff 	mov    %rax,-0xaf8(%rbp)
    fe79:	48 8d 85 90 f0 ff ff 	lea    -0xf70(%rbp),%rax
    fe80:	48 83 c0 08          	add    $0x8,%rax
    fe84:	48 89 85 10 f5 ff ff 	mov    %rax,-0xaf0(%rbp)
    fe8b:	48 8d 85 90 f0 ff ff 	lea    -0xf70(%rbp),%rax
    fe92:	48 83 c0 10          	add    $0x10,%rax
    fe96:	48 89 85 18 f5 ff ff 	mov    %rax,-0xae8(%rbp)
    fe9d:	48 8d 85 90 f0 ff ff 	lea    -0xf70(%rbp),%rax
    fea4:	48 89 85 20 f5 ff ff 	mov    %rax,-0xae0(%rbp)
    feab:	48 8d 85 90 f0 ff ff 	lea    -0xf70(%rbp),%rax
    feb2:	48 89 85 28 f5 ff ff 	mov    %rax,-0xad8(%rbp)
    feb9:	48 8d 85 90 f0 ff ff 	lea    -0xf70(%rbp),%rax
    fec0:	48 89 85 30 f5 ff ff 	mov    %rax,-0xad0(%rbp)
    fec7:	48 8d 85 90 f0 ff ff 	lea    -0xf70(%rbp),%rax
    fece:	48 89 85 38 f5 ff ff 	mov    %rax,-0xac8(%rbp)
    fed5:	48 c7 85 40 f5 ff ff 	movq   $0x0,-0xac0(%rbp)
    fedc:	00 00 00 00 
    fee0:	48 8d 85 90 f0 ff ff 	lea    -0xf70(%rbp),%rax
    fee7:	48 83 c0 10          	add    $0x10,%rax
    feeb:	48 89 85 48 f5 ff ff 	mov    %rax,-0xab8(%rbp)
    fef2:	48 8d 85 90 f0 ff ff 	lea    -0xf70(%rbp),%rax
    fef9:	48 89 85 50 f5 ff ff 	mov    %rax,-0xab0(%rbp)
    ff00:	48 8d 85 90 f0 ff ff 	lea    -0xf70(%rbp),%rax
    ff07:	48 89 85 58 f5 ff ff 	mov    %rax,-0xaa8(%rbp)
    ff0e:	48 c7 85 00 f1 ff ff 	movq   $0x0,-0xf00(%rbp)
    ff15:	00 00 00 00 
    ff19:	48 c7 85 08 f1 ff ff 	movq   $0x0,-0xef8(%rbp)
    ff20:	00 00 00 00 
    ff24:	48 c7 85 10 f1 ff ff 	movq   $0x0,-0xef0(%rbp)
    ff2b:	00 00 00 00 
    ff2f:	48 c7 85 18 f1 ff ff 	movq   $0x0,-0xee8(%rbp)
    ff36:	00 00 00 00 
    ff3a:	48 c7 85 20 f1 ff ff 	movq   $0x0,-0xee0(%rbp)
    ff41:	00 00 00 00 
    ff45:	c7 85 20 ef ff ff 00 	movl   $0x0,-0x10e0(%rbp)
    ff4c:	00 00 00 
    ff4f:	48 8d 85 88 ef ff ff 	lea    -0x1078(%rbp),%rax
    ff56:	48 89 85 48 f0 ff ff 	mov    %rax,-0xfb8(%rbp)
    ff5d:	0f b6 85 84 ee ff ff 	movzbl -0x117c(%rbp),%eax
    ff64:	0f b6 d0             	movzbl %al,%edx
    ff67:	48 8b 85 c8 ef ff ff 	mov    -0x1038(%rbp),%rax
    ff6e:	48 8b 00             	mov    (%rax),%rax
    ff71:	48 8b 08             	mov    (%rax),%rcx
    ff74:	48 83 c1 01          	add    $0x1,%rcx
    ff78:	48 89 08             	mov    %rcx,(%rax)
    ff7b:	48 8b 00             	mov    (%rax),%rax
    ff7e:	48 39 c2             	cmp    %rax,%rdx
    ff81:	0f 93 c0             	setae  %al
    ff84:	44 0f b6 e0          	movzbl %al,%r12d
    ff88:	0f b6 05 25 61 00 00 	movzbl 0x6125(%rip),%eax        # 160b4 <g_53>
    ff8f:	0f b6 d8             	movzbl %al,%ebx
    ff92:	48 8b 85 d0 ef ff ff 	mov    -0x1030(%rbp),%rax
    ff99:	48 89 05 40 6a 00 00 	mov    %rax,0x6a40(%rip)        # 169e0 <g_279>
    ffa0:	48 8b 05 39 6a 00 00 	mov    0x6a39(%rip),%rax        # 169e0 <g_279>
    ffa7:	48 39 85 d0 ef ff ff 	cmp    %rax,-0x1030(%rbp)
    ffae:	75 6e                	jne    1001e <func_47+0x195f>
    ffb0:	8b 05 16 61 00 00    	mov    0x6116(%rip),%eax        # 160cc <g_64+0xc>
    ffb6:	0f be c0             	movsbl %al,%eax
    ffb9:	48 8b 95 88 ef ff ff 	mov    -0x1078(%rbp),%rdx
    ffc0:	c6 02 c8             	movb   $0xc8,(%rdx)
    ffc3:	48 8b 95 b0 f2 ff ff 	mov    -0xd50(%rbp),%rdx
    ffca:	48 89 15 57 6a 00 00 	mov    %rdx,0x6a57(%rip)        # 16a28 <g_288+0x28>
    ffd1:	48 8b 15 50 6a 00 00 	mov    0x6a50(%rip),%rdx        # 16a28 <g_288+0x28>
    ffd8:	48 89 95 10 f0 ff ff 	mov    %rdx,-0xff0(%rbp)
    ffdf:	48 8b 95 10 f0 ff ff 	mov    -0xff0(%rbp),%rdx
    ffe6:	48 89 15 73 6a 00 00 	mov    %rdx,0x6a73(%rip)        # 16a60 <g_290>
    ffed:	89 c6                	mov    %eax,%esi
    ffef:	bf 00 00 00 00       	mov    $0x0,%edi
    fff4:	e8 71 42 ff ff       	callq  426a <safe_div_func_int8_t_s_s>
    fff9:	0f be d0             	movsbl %al,%edx
    fffc:	8b 85 ac fc ff ff    	mov    -0x354(%rbp),%eax
   10002:	0f be c0             	movsbl %al,%eax
   10005:	89 d6                	mov    %edx,%esi
   10007:	89 c7                	mov    %eax,%edi
   10009:	e8 5c 42 ff ff       	callq  426a <safe_div_func_int8_t_s_s>
   1000e:	8b 05 b4 60 00 00    	mov    0x60b4(%rip),%eax        # 160c8 <g_64+0x8>
   10014:	83 c8 01             	or     $0x1,%eax
   10017:	3d 49 37 47 71       	cmp    $0x71473749,%eax
   1001c:	76 07                	jbe    10025 <func_47+0x1966>
   1001e:	b8 01 00 00 00       	mov    $0x1,%eax
   10023:	eb 05                	jmp    1002a <func_47+0x196b>
   10025:	b8 00 00 00 00       	mov    $0x0,%eax
   1002a:	0f b7 c0             	movzwl %ax,%eax
   1002d:	89 de                	mov    %ebx,%esi
   1002f:	89 c7                	mov    %eax,%edi
   10031:	e8 d0 4d ff ff       	callq  4e06 <safe_lshift_func_uint16_t_u_u>
   10036:	0f b7 c0             	movzwl %ax,%eax
   10039:	41 39 c4             	cmp    %eax,%r12d
   1003c:	0f 9e c0             	setle  %al
   1003f:	0f b6 d0             	movzbl %al,%edx
   10042:	48 8b 85 f0 ef ff ff 	mov    -0x1010(%rbp),%rax
   10049:	8b 00                	mov    (%rax),%eax
   1004b:	21 c2                	and    %eax,%edx
   1004d:	48 8b 85 f0 ef ff ff 	mov    -0x1010(%rbp),%rax
   10054:	89 10                	mov    %edx,(%rax)
   10056:	be 0d 00 00 00       	mov    $0xd,%esi
   1005b:	bf b1 c3 00 00       	mov    $0xc3b1,%edi
   10060:	e8 e3 4d ff ff       	callq  4e48 <safe_rshift_func_uint16_t_u_s>
   10065:	c7 85 20 ef ff ff e2 	movl   $0xc7156e2,-0x10e0(%rbp)
   1006c:	56 71 0c 
   1006f:	48 8b 85 90 ef ff ff 	mov    -0x1070(%rbp),%rax
   10076:	48 89 05 6b 60 00 00 	mov    %rax,0x606b(%rip)        # 160e8 <g_91>
   1007d:	48 8b 05 64 60 00 00 	mov    0x6064(%rip),%rax        # 160e8 <g_91>
   10084:	48 85 c0             	test   %rax,%rax
   10087:	75 5e                	jne    100e7 <func_47+0x1a28>
   10089:	0f b7 05 a0 60 00 00 	movzwl 0x60a0(%rip),%eax        # 16130 <g_198+0x30>
   10090:	0f be d0             	movsbl %al,%edx
   10093:	0f b6 85 84 ee ff ff 	movzbl -0x117c(%rbp),%eax
   1009a:	0f b6 c0             	movzbl %al,%eax
   1009d:	39 85 04 ef ff ff    	cmp    %eax,-0x10fc(%rbp)
   100a3:	0f 9e c0             	setle  %al
   100a6:	0f b6 c0             	movzbl %al,%eax
   100a9:	89 d6                	mov    %edx,%esi
   100ab:	89 c7                	mov    %eax,%edi
   100ad:	e8 b8 41 ff ff       	callq  426a <safe_div_func_int8_t_s_s>
   100b2:	0f be d0             	movsbl %al,%edx
   100b5:	8b 85 e0 f0 ff ff    	mov    -0xf20(%rbp),%eax
   100bb:	0f be c0             	movsbl %al,%eax
   100be:	89 d6                	mov    %edx,%esi
   100c0:	89 c7                	mov    %eax,%edi
   100c2:	e8 a5 42 ff ff       	callq  436c <safe_rshift_func_int8_t_s_u>
   100c7:	48 8b 85 a0 f0 ff ff 	mov    -0xf60(%rbp),%rax
   100ce:	48 85 c0             	test   %rax,%rax
   100d1:	74 07                	je     100da <func_47+0x1a1b>
   100d3:	b8 01 00 00 00       	mov    $0x1,%eax
   100d8:	eb 05                	jmp    100df <func_47+0x1a20>
   100da:	b8 00 00 00 00       	mov    $0x0,%eax
   100df:	3b 85 18 ef ff ff    	cmp    -0x10e8(%rbp),%eax
   100e5:	7e 07                	jle    100ee <func_47+0x1a2f>
   100e7:	ba 01 00 00 00       	mov    $0x1,%edx
   100ec:	eb 05                	jmp    100f3 <func_47+0x1a34>
   100ee:	ba 00 00 00 00       	mov    $0x0,%edx
   100f3:	48 8b 85 a8 ef ff ff 	mov    -0x1058(%rbp),%rax
   100fa:	8b 00                	mov    (%rax),%eax
   100fc:	09 c2                	or     %eax,%edx
   100fe:	48 8b 85 a8 ef ff ff 	mov    -0x1058(%rbp),%rax
   10105:	89 10                	mov    %edx,(%rax)
   10107:	0f b6 85 84 ee ff ff 	movzbl -0x117c(%rbp),%eax
   1010e:	0f b6 d8             	movzbl %al,%ebx
   10111:	0f b6 85 84 ee ff ff 	movzbl -0x117c(%rbp),%eax
   10118:	44 0f b6 e0          	movzbl %al,%r12d
   1011c:	0f b7 85 fe f1 ff ff 	movzwl -0xe02(%rbp),%eax
   10123:	44 0f b6 e8          	movzbl %al,%r13d
   10127:	be 01 00 00 00       	mov    $0x1,%esi
   1012c:	bf 01 00 00 00       	mov    $0x1,%edi
   10131:	e8 57 4b ff ff       	callq  4c8d <safe_rshift_func_uint8_t_u_s>
   10136:	44 0f b6 f0          	movzbl %al,%r14d
   1013a:	0f b6 85 84 ee ff ff 	movzbl -0x117c(%rbp),%eax
   10141:	0f b6 d0             	movzbl %al,%edx
   10144:	0f b6 85 ae ee ff ff 	movzbl -0x1152(%rbp),%eax
   1014b:	89 d6                	mov    %edx,%esi
   1014d:	89 c7                	mov    %eax,%edi
   1014f:	e8 e9 4b ff ff       	callq  4d3d <safe_mul_func_uint16_t_u_u>
   10154:	48 8b 95 88 ee ff ff 	mov    -0x1178(%rbp),%rdx
   1015b:	48 8b 85 48 f0 ff ff 	mov    -0xfb8(%rbp),%rax
   10162:	48 89 10             	mov    %rdx,(%rax)
   10165:	ba 01 00 00 00       	mov    $0x1,%edx
   1016a:	48 8b 85 38 ef ff ff 	mov    -0x10c8(%rbp),%rax
   10171:	48 8b 08             	mov    (%rax),%rcx
   10174:	48 63 d2             	movslq %edx,%rdx
   10177:	48 8b 85 38 ef ff ff 	mov    -0x10c8(%rbp),%rax
   1017e:	48 09 ca             	or     %rcx,%rdx
   10181:	48 89 10             	mov    %rdx,(%rax)
   10184:	48 8b 00             	mov    (%rax),%rax
   10187:	48 89 c2             	mov    %rax,%rdx
   1018a:	48 8b 85 d8 ef ff ff 	mov    -0x1028(%rbp),%rax
   10191:	48 89 d6             	mov    %rdx,%rsi
   10194:	48 89 c7             	mov    %rax,%rdi
   10197:	e8 a5 46 ff ff       	callq  4841 <safe_add_func_int64_t_s_s>
   1019c:	8b 95 ec f0 ff ff    	mov    -0xf14(%rbp),%edx
   101a2:	48 8b 05 2f 68 00 00 	mov    0x682f(%rip),%rax        # 169d8 <g_280>
   101a9:	0f b6 00             	movzbl (%rax),%eax
   101ac:	0f b6 c0             	movzbl %al,%eax
   101af:	39 c2                	cmp    %eax,%edx
   101b1:	0f 95 c0             	setne  %al
   101b4:	0f b6 c0             	movzbl %al,%eax
   101b7:	89 c7                	mov    %eax,%edi
   101b9:	e8 e8 4c ff ff       	callq  4ea6 <safe_unary_minus_func_uint32_t_u>
   101be:	89 c0                	mov    %eax,%eax
   101c0:	48 be 7e f8 b8 11 84 	movabs $0xeaa4838411b8f87e,%rsi
   101c7:	83 a4 ea 
   101ca:	48 89 c7             	mov    %rax,%rdi
   101cd:	e8 dd 4e ff ff       	callq  50af <safe_div_func_uint64_t_u_u>
   101d2:	48 8b 15 e7 67 00 00 	mov    0x67e7(%rip),%rdx        # 169c0 <g_103>
   101d9:	8b 12                	mov    (%rdx),%edx
   101db:	48 63 d2             	movslq %edx,%rdx
   101de:	48 39 d0             	cmp    %rdx,%rax
   101e1:	0f 95 c0             	setne  %al
   101e4:	0f b6 c0             	movzbl %al,%eax
   101e7:	41 39 c6             	cmp    %eax,%r14d
   101ea:	0f 9e c0             	setle  %al
   101ed:	0f b6 c0             	movzbl %al,%eax
   101f0:	be 0b 00 00 00       	mov    $0xb,%esi
   101f5:	89 c7                	mov    %eax,%edi
   101f7:	e8 c2 4b ff ff       	callq  4dbe <safe_lshift_func_uint16_t_u_s>
   101fc:	be 02 00 00 00       	mov    $0x2,%esi
   10201:	bf 00 00 00 00       	mov    $0x0,%edi
   10206:	e8 82 4a ff ff       	callq  4c8d <safe_rshift_func_uint8_t_u_s>
   1020b:	be dc ff ff ff       	mov    $0xffffffdc,%esi
   10210:	bf f2 ff ff ff       	mov    $0xfffffff2,%edi
   10215:	e8 17 40 ff ff       	callq  4231 <safe_mod_func_int8_t_s_s>
   1021a:	48 8b 05 bf 67 00 00 	mov    0x67bf(%rip),%rax        # 169e0 <g_279>
   10221:	48 8b 10             	mov    (%rax),%rdx
   10224:	48 8b 85 30 ef ff ff 	mov    -0x10d0(%rbp),%rax
   1022b:	0f b6 12             	movzbl (%rdx),%edx
   1022e:	88 10                	mov    %dl,(%rax)
   10230:	0f b6 00             	movzbl (%rax),%eax
   10233:	0f b6 c0             	movzbl %al,%eax
   10236:	44 89 ee             	mov    %r13d,%esi
   10239:	89 c7                	mov    %eax,%edi
   1023b:	e8 6e 49 ff ff       	callq  4bae <safe_mod_func_uint8_t_u_u>
   10240:	0f b6 c0             	movzbl %al,%eax
   10243:	be fe 31 cb ae       	mov    $0xaecb31fe,%esi
   10248:	89 c7                	mov    %eax,%edi
   1024a:	e8 d6 4c ff ff       	callq  4f25 <safe_div_func_uint32_t_u_u>
   1024f:	89 c2                	mov    %eax,%edx
   10251:	8b 05 9d 5e 00 00    	mov    0x5e9d(%rip),%eax        # 160f4 <g_124>
   10257:	0f b7 c0             	movzwl %ax,%eax
   1025a:	89 d6                	mov    %edx,%esi
   1025c:	89 c7                	mov    %eax,%edi
   1025e:	e8 e5 4b ff ff       	callq  4e48 <safe_rshift_func_uint16_t_u_s>
   10263:	66 85 c0             	test   %ax,%ax
   10266:	74 11                	je     10279 <func_47+0x1bba>
   10268:	8b 85 ac fc ff ff    	mov    -0x354(%rbp),%eax
   1026e:	85 c0                	test   %eax,%eax
   10270:	74 07                	je     10279 <func_47+0x1bba>
   10272:	b8 01 00 00 00       	mov    $0x1,%eax
   10277:	eb 05                	jmp    1027e <func_47+0x1bbf>
   10279:	b8 00 00 00 00       	mov    $0x0,%eax
   1027e:	89 c2                	mov    %eax,%edx
   10280:	48 8b 85 f8 ef ff ff 	mov    -0x1008(%rbp),%rax
   10287:	8b 00                	mov    (%rax),%eax
   10289:	09 d0                	or     %edx,%eax
   1028b:	98                   	cwtl   
   1028c:	44 89 e6             	mov    %r12d,%esi
   1028f:	89 c7                	mov    %eax,%edi
   10291:	e8 94 42 ff ff       	callq  452a <safe_rshift_func_int16_t_s_s>
   10296:	0f b7 c0             	movzwl %ax,%eax
   10299:	be 0e 00 00 00       	mov    $0xe,%esi
   1029e:	89 c7                	mov    %eax,%edi
   102a0:	e8 61 4b ff ff       	callq  4e06 <safe_lshift_func_uint16_t_u_u>
   102a5:	48 8b 05 74 5f 00 00 	mov    0x5f74(%rip),%rax        # 16220 <g_294>
   102ac:	48 89 de             	mov    %rbx,%rsi
   102af:	48 89 c7             	mov    %rax,%rdi
   102b2:	e8 fd 46 ff ff       	callq  49b4 <safe_mod_func_int64_t_s_s>
   102b7:	48 8b 95 98 ef ff ff 	mov    -0x1068(%rbp),%rdx
   102be:	48 8b 12             	mov    (%rdx),%rdx
   102c1:	48 09 c2             	or     %rax,%rdx
   102c4:	48 8b 85 98 ef ff ff 	mov    -0x1068(%rbp),%rax
   102cb:	48 89 10             	mov    %rdx,(%rax)
   102ce:	48 8b 85 98 ef ff ff 	mov    -0x1068(%rbp),%rax
   102d5:	48 8b 00             	mov    (%rax),%rax
   102d8:	48 be 2c 0f d2 ba d9 	movabs $0xbc6a5ad9bad20f2c,%rsi
   102df:	5a 6a bc 
   102e2:	48 89 c7             	mov    %rax,%rdi
   102e5:	e8 c5 4d ff ff       	callq  50af <safe_div_func_uint64_t_u_u>
   102ea:	48 85 c0             	test   %rax,%rax
   102ed:	74 10                	je     102ff <func_47+0x1c40>
   102ef:	83 bd 10 ef ff ff 00 	cmpl   $0x0,-0x10f0(%rbp)
   102f6:	74 07                	je     102ff <func_47+0x1c40>
   102f8:	b8 01 00 00 00       	mov    $0x1,%eax
   102fd:	eb 05                	jmp    10304 <func_47+0x1c45>
   102ff:	b8 00 00 00 00       	mov    $0x0,%eax
   10304:	0f b6 c0             	movzbl %al,%eax
   10307:	be 35 00 00 00       	mov    $0x35,%esi
   1030c:	89 c7                	mov    %eax,%edi
   1030e:	e8 65 48 ff ff       	callq  4b78 <safe_sub_func_uint8_t_u_u>
   10313:	0f b6 c0             	movzbl %al,%eax
   10316:	48 be 4c f4 46 54 6c 	movabs $0xb63b4b6c5446f44c,%rsi
   1031d:	4b 3b b6 
   10320:	48 89 c7             	mov    %rax,%rdi
   10323:	e8 58 4d ff ff       	callq  5080 <safe_mod_func_uint64_t_u_u>
   10328:	48 8b 05 a9 66 00 00 	mov    0x66a9(%rip),%rax        # 169d8 <g_280>
   1032f:	0f b6 10             	movzbl (%rax),%edx
   10332:	0f b6 85 84 ee ff ff 	movzbl -0x117c(%rbp),%eax
   10339:	38 c2                	cmp    %al,%dl
   1033b:	0f 92 c0             	setb   %al
   1033e:	0f b6 c0             	movzbl %al,%eax
   10341:	be 01 00 00 00       	mov    $0x1,%esi
   10346:	89 c7                	mov    %eax,%edi
   10348:	e8 a8 40 ff ff       	callq  43f5 <safe_mul_func_int16_t_s_s>
   1034d:	48 8b 95 60 ef ff ff 	mov    -0x10a0(%rbp),%rdx
   10354:	8b 0a                	mov    (%rdx),%ecx
   10356:	0f bf d0             	movswl %ax,%edx
   10359:	48 8b 85 60 ef ff ff 	mov    -0x10a0(%rbp),%rax
   10360:	09 ca                	or     %ecx,%edx
   10362:	89 10                	mov    %edx,(%rax)
   10364:	e9 63 03 00 00       	jmpq   106cc <func_47+0x200d>
   10369:	48 b8 37 f3 73 e5 37 	movabs $0xe411da37e573f337,%rax
   10370:	da 11 e4 
   10373:	48 89 85 20 f0 ff ff 	mov    %rax,-0xfe0(%rbp)
   1037a:	48 8d 05 d3 0c 00 00 	lea    0xcd3(%rip),%rax        # 11054 <g_362>
   10381:	48 89 85 78 ef ff ff 	mov    %rax,-0x1088(%rbp)
   10388:	48 8d 85 78 ef ff ff 	lea    -0x1088(%rbp),%rax
   1038f:	48 89 85 80 ef ff ff 	mov    %rax,-0x1080(%rbp)
   10396:	48 8d 85 80 ef ff ff 	lea    -0x1080(%rbp),%rax
   1039d:	48 89 85 88 ef ff ff 	mov    %rax,-0x1078(%rbp)
   103a4:	48 c7 85 e0 f3 ff ff 	movq   $0x0,-0xc20(%rbp)
   103ab:	00 00 00 00 
   103af:	48 c7 85 e8 f3 ff ff 	movq   $0x0,-0xc18(%rbp)
   103b6:	00 00 00 00 
   103ba:	48 c7 85 f0 f3 ff ff 	movq   $0x0,-0xc10(%rbp)
   103c1:	00 00 00 00 
   103c5:	48 8d 85 88 ef ff ff 	lea    -0x1078(%rbp),%rax
   103cc:	48 89 85 f8 f3 ff ff 	mov    %rax,-0xc08(%rbp)
   103d3:	48 c7 85 00 f4 ff ff 	movq   $0x0,-0xc00(%rbp)
   103da:	00 00 00 00 
   103de:	48 c7 85 08 f4 ff ff 	movq   $0x0,-0xbf8(%rbp)
   103e5:	00 00 00 00 
   103e9:	48 8d 85 88 ef ff ff 	lea    -0x1078(%rbp),%rax
   103f0:	48 89 85 10 f4 ff ff 	mov    %rax,-0xbf0(%rbp)
   103f7:	48 c7 85 18 f4 ff ff 	movq   $0x0,-0xbe8(%rbp)
   103fe:	00 00 00 00 
   10402:	48 c7 85 20 f4 ff ff 	movq   $0x0,-0xbe0(%rbp)
   10409:	00 00 00 00 
   1040d:	48 8d 85 88 ef ff ff 	lea    -0x1078(%rbp),%rax
   10414:	48 89 85 28 f4 ff ff 	mov    %rax,-0xbd8(%rbp)
   1041b:	48 c7 85 30 f4 ff ff 	movq   $0x0,-0xbd0(%rbp)
   10422:	00 00 00 00 
   10426:	48 c7 85 38 f4 ff ff 	movq   $0x0,-0xbc8(%rbp)
   1042d:	00 00 00 00 
   10431:	48 8d 85 88 ef ff ff 	lea    -0x1078(%rbp),%rax
   10438:	48 89 85 40 f4 ff ff 	mov    %rax,-0xbc0(%rbp)
   1043f:	48 c7 85 48 f4 ff ff 	movq   $0x0,-0xbb8(%rbp)
   10446:	00 00 00 00 
   1044a:	48 c7 85 50 f4 ff ff 	movq   $0x0,-0xbb0(%rbp)
   10451:	00 00 00 00 
   10455:	48 8d 85 88 ef ff ff 	lea    -0x1078(%rbp),%rax
   1045c:	48 89 85 58 f4 ff ff 	mov    %rax,-0xba8(%rbp)
   10463:	48 c7 85 60 f4 ff ff 	movq   $0x0,-0xba0(%rbp)
   1046a:	00 00 00 00 
   1046e:	48 c7 85 68 f4 ff ff 	movq   $0x0,-0xb98(%rbp)
   10475:	00 00 00 00 
   10479:	48 b8 62 87 79 d0 be 	movabs $0x741943bed0798762,%rax
   10480:	43 19 74 
   10483:	48 89 85 28 f0 ff ff 	mov    %rax,-0xfd8(%rbp)
   1048a:	48 8d 85 28 ef ff ff 	lea    -0x10d8(%rbp),%rax
   10491:	48 89 85 30 f0 ff ff 	mov    %rax,-0xfd0(%rbp)
   10498:	48 b8 12 83 52 a8 57 	movabs $0x1e90b857a8528312,%rax
   1049f:	b8 90 1e 
   104a2:	48 89 85 38 f0 ff ff 	mov    %rax,-0xfc8(%rbp)
   104a9:	48 83 ad 20 f0 ff ff 	subq   $0x1,-0xfe0(%rbp)
   104b0:	01 
   104b1:	0f b6 85 84 ee ff ff 	movzbl -0x117c(%rbp),%eax
   104b8:	0f b6 d8             	movzbl %al,%ebx
   104bb:	48 8d 05 f2 5b 00 00 	lea    0x5bf2(%rip),%rax        # 160b4 <g_53>
   104c2:	0f b6 00             	movzbl (%rax),%eax
   104c5:	44 0f b6 e0          	movzbl %al,%r12d
   104c9:	8b 05 fd 5b 00 00    	mov    0x5bfd(%rip),%eax        # 160cc <g_64+0xc>
   104cf:	44 0f b7 e8          	movzwl %ax,%r13d
   104d3:	0f b6 85 84 ee ff ff 	movzbl -0x117c(%rbp),%eax
   104da:	0f b6 c0             	movzbl %al,%eax
   104dd:	89 c7                	mov    %eax,%edi
   104df:	e8 b9 3e ff ff       	callq  439d <safe_unary_minus_func_int16_t_s>
   104e4:	48 c7 85 28 f0 ff ff 	movq   $0x1,-0xfd8(%rbp)
   104eb:	01 00 00 00 
   104ef:	bf 01 00 00 00       	mov    $0x1,%edi
   104f4:	e8 1d 43 ff ff       	callq  4816 <safe_unary_minus_func_int64_t_s>
   104f9:	48 c7 05 bc 65 00 00 	movq   $0x0,0x65bc(%rip)        # 16ac0 <g_363+0x40>
   10500:	00 00 00 00 
   10504:	48 8b 05 b5 65 00 00 	mov    0x65b5(%rip),%rax        # 16ac0 <g_363+0x40>
   1050b:	48 89 85 e0 ef ff ff 	mov    %rax,-0x1020(%rbp)
   10512:	48 8d 05 af 64 00 00 	lea    0x64af(%rip),%rax        # 169c8 <g_105>
   10519:	48 39 85 e0 ef ff ff 	cmp    %rax,-0x1020(%rbp)
   10520:	0f 95 c0             	setne  %al
   10523:	0f b6 c0             	movzbl %al,%eax
   10526:	be 06 00 00 00       	mov    $0x6,%esi
   1052b:	89 c7                	mov    %eax,%edi
   1052d:	e8 60 3f ff ff       	callq  4492 <safe_lshift_func_int16_t_s_s>
   10532:	0f b7 c0             	movzwl %ax,%eax
   10535:	44 89 ee             	mov    %r13d,%esi
   10538:	89 c7                	mov    %eax,%edi
   1053a:	e8 fe 47 ff ff       	callq  4d3d <safe_mul_func_uint16_t_u_u>
   1053f:	44 89 e6             	mov    %r12d,%esi
   10542:	bf 03 00 00 00       	mov    $0x3,%edi
   10547:	e8 62 46 ff ff       	callq  4bae <safe_mod_func_uint8_t_u_u>
   1054c:	38 85 ae ee ff ff    	cmp    %al,-0x1152(%rbp)
   10552:	0f 95 c0             	setne  %al
   10555:	0f b6 c0             	movzbl %al,%eax
   10558:	66 89 05 b9 5b 00 00 	mov    %ax,0x5bb9(%rip)        # 16118 <g_198+0x18>
   1055f:	0f b7 05 b2 5b 00 00 	movzwl 0x5bb2(%rip),%eax        # 16118 <g_198+0x18>
   10566:	66 85 c0             	test   %ax,%ax
   10569:	0f 94 c0             	sete   %al
   1056c:	0f b6 d0             	movzbl %al,%edx
   1056f:	8b 05 53 5b 00 00    	mov    0x5b53(%rip),%eax        # 160c8 <g_64+0x8>
   10575:	85 c0                	test   %eax,%eax
   10577:	0f 95 c0             	setne  %al
   1057a:	0f b6 c0             	movzbl %al,%eax
   1057d:	89 d6                	mov    %edx,%esi
   1057f:	89 c7                	mov    %eax,%edi
   10581:	e8 6f 3e ff ff       	callq  43f5 <safe_mul_func_int16_t_s_s>
   10586:	be 04 00 00 00       	mov    $0x4,%esi
   1058b:	bf 7e 83 ff ff       	mov    $0xffff837e,%edi
   10590:	e8 ce 3f ff ff       	callq  4563 <safe_rshift_func_int16_t_s_u>
   10595:	48 8b 85 60 ef ff ff 	mov    -0x10a0(%rbp),%rax
   1059c:	48 8d 15 51 5b 00 00 	lea    0x5b51(%rip),%rdx        # 160f4 <g_124>
   105a3:	48 39 d0             	cmp    %rdx,%rax
   105a6:	74 12                	je     105ba <func_47+0x1efb>
   105a8:	0f b6 85 84 ee ff ff 	movzbl -0x117c(%rbp),%eax
   105af:	84 c0                	test   %al,%al
   105b1:	74 07                	je     105ba <func_47+0x1efb>
   105b3:	b8 01 00 00 00       	mov    $0x1,%eax
   105b8:	eb 05                	jmp    105bf <func_47+0x1f00>
   105ba:	b8 00 00 00 00       	mov    $0x0,%eax
   105bf:	48 98                	cltq   
   105c1:	48 89 de             	mov    %rbx,%rsi
   105c4:	48 89 c7             	mov    %rax,%rdi
   105c7:	e8 7f 4a ff ff       	callq  504b <safe_sub_func_uint64_t_u_u>
   105cc:	48 8b 95 28 ef ff ff 	mov    -0x10d8(%rbp),%rdx
   105d3:	48 8b 85 30 f0 ff ff 	mov    -0xfd0(%rbp),%rax
   105da:	48 89 10             	mov    %rdx,(%rax)
   105dd:	48 8b 85 68 f0 ff ff 	mov    -0xf98(%rbp),%rax
   105e4:	48 89 05 4d 73 00 00 	mov    %rax,0x734d(%rip)        # 17938 <g_376>
   105eb:	0f b6 85 84 ee ff ff 	movzbl -0x117c(%rbp),%eax
   105f2:	44 0f b6 e0          	movzbl %al,%r12d
   105f6:	41 bd db 64 f3 1c    	mov    $0x1cf364db,%r13d
   105fc:	0f b6 85 84 ee ff ff 	movzbl -0x117c(%rbp),%eax
   10603:	0f b6 d8             	movzbl %al,%ebx
   10606:	0f b6 85 84 ee ff ff 	movzbl -0x117c(%rbp),%eax
   1060d:	0f b6 d0             	movzbl %al,%edx
   10610:	8b 05 c6 5a 00 00    	mov    0x5ac6(%rip),%eax        # 160dc <g_81>
   10616:	0f b7 c0             	movzwl %ax,%eax
   10619:	89 d6                	mov    %edx,%esi
   1061b:	89 c7                	mov    %eax,%edi
   1061d:	e8 fd 46 ff ff       	callq  4d1f <safe_sub_func_uint16_t_u_u>
   10622:	66 85 c0             	test   %ax,%ax
   10625:	75 5c                	jne    10683 <func_47+0x1fc4>
   10627:	48 8b 85 88 ef ff ff 	mov    -0x1078(%rbp),%rax
   1062e:	48 8b 00             	mov    (%rax),%rax
   10631:	48 8b 00             	mov    (%rax),%rax
   10634:	8b 00                	mov    (%rax),%eax
   10636:	41 89 c6             	mov    %eax,%r14d
   10639:	be 01 00 00 00       	mov    $0x1,%esi
   1063e:	bf 01 00 00 00       	mov    $0x1,%edi
   10643:	e8 6b 3d ff ff       	callq  43b3 <safe_add_func_int16_t_s_s>
   10648:	0f bf d0             	movswl %ax,%edx
   1064b:	0f b6 85 84 ee ff ff 	movzbl -0x117c(%rbp),%eax
   10652:	0f b6 c0             	movzbl %al,%eax
   10655:	21 d0                	and    %edx,%eax
   10657:	44 89 f6             	mov    %r14d,%esi
   1065a:	89 c7                	mov    %eax,%edi
   1065c:	e8 c4 48 ff ff       	callq  4f25 <safe_div_func_uint32_t_u_u>
   10661:	b8 00 00 00 00       	mov    $0x0,%eax
   10666:	48 98                	cltq   
   10668:	48 09 85 38 f0 ff ff 	or     %rax,-0xfc8(%rbp)
   1066f:	48 8b 85 38 f0 ff ff 	mov    -0xfc8(%rbp),%rax
   10676:	98                   	cwtl   
   10677:	be 07 00 00 00       	mov    $0x7,%esi
   1067c:	89 c7                	mov    %eax,%edi
   1067e:	e8 0f 3e ff ff       	callq  4492 <safe_lshift_func_int16_t_s_s>
   10683:	b8 01 00 00 00       	mov    $0x1,%eax
   10688:	98                   	cwtl   
   10689:	89 de                	mov    %ebx,%esi
   1068b:	89 c7                	mov    %eax,%edi
   1068d:	e8 c3 3d ff ff       	callq  4455 <safe_div_func_int16_t_s_s>
   10692:	0f bf d0             	movswl %ax,%edx
   10695:	0f b6 85 84 ee ff ff 	movzbl -0x117c(%rbp),%eax
   1069c:	0f b6 c0             	movzbl %al,%eax
   1069f:	39 c2                	cmp    %eax,%edx
   106a1:	7c 09                	jl     106ac <func_47+0x1fed>
   106a3:	0f b6 85 84 ee ff ff 	movzbl -0x117c(%rbp),%eax
   106aa:	84 c0                	test   %al,%al
   106ac:	44 89 ee             	mov    %r13d,%esi
   106af:	bf 01 00 00 00       	mov    $0x1,%edi
   106b4:	e8 71 3e ff ff       	callq  452a <safe_rshift_func_int16_t_s_s>
   106b9:	98                   	cwtl   
   106ba:	41 39 c4             	cmp    %eax,%r12d
   106bd:	0f 9f c2             	setg   %dl
   106c0:	48 8b 05 f9 62 00 00 	mov    0x62f9(%rip),%rax        # 169c0 <g_103>
   106c7:	0f b6 d2             	movzbl %dl,%edx
   106ca:	89 10                	mov    %edx,(%rax)
   106cc:	83 ad 08 ef ff ff 01 	subl   $0x1,-0x10f8(%rbp)
   106d3:	eb 1e                	jmp    106f3 <func_47+0x2034>
   106d5:	48 8b 85 e0 ef ff ff 	mov    -0x1020(%rbp),%rax
   106dc:	48 8b 00             	mov    (%rax),%rax
   106df:	48 8b 95 90 ee ff ff 	mov    -0x1170(%rbp),%rdx
   106e6:	48 89 10             	mov    %rdx,(%rax)
   106e9:	83 bd 0c ef ff ff 00 	cmpl   $0x0,-0x10f4(%rbp)
   106f0:	eb 01                	jmp    106f3 <func_47+0x2034>
   106f2:	90                   	nop
   106f3:	8b 05 b7 59 00 00    	mov    0x59b7(%rip),%eax        # 160b0 <g_46>
   106f9:	be 04 00 00 00       	mov    $0x4,%esi
   106fe:	89 c7                	mov    %eax,%edi
   10700:	e8 00 3f ff ff       	callq  4605 <safe_sub_func_int32_t_s_s>
   10705:	89 05 a5 59 00 00    	mov    %eax,0x59a5(%rip)        # 160b0 <g_46>
   1070b:	8b 05 9f 59 00 00    	mov    0x599f(%rip),%eax        # 160b0 <g_46>
   10711:	83 f8 f6             	cmp    $0xfffffff6,%eax
   10714:	0f 8d cc e2 ff ff    	jge    e9e6 <func_47+0x327>
   1071a:	eb 07                	jmp    10723 <func_47+0x2064>
   1071c:	90                   	nop
   1071d:	eb 04                	jmp    10723 <func_47+0x2064>
   1071f:	90                   	nop
   10720:	eb 01                	jmp    10723 <func_47+0x2064>
   10722:	90                   	nop
   10723:	48 8b 85 70 f1 ff ff 	mov    -0xe90(%rbp),%rax
   1072a:	48 8b 5d c8          	mov    -0x38(%rbp),%rbx
   1072e:	64 48 33 1c 25 28 00 	xor    %fs:0x28,%rbx
   10735:	00 00 
   10737:	74 05                	je     1073e <func_47+0x207f>
   10739:	e8 32 39 ff ff       	callq  4070 <__stack_chk_fail@plt>
   1073e:	48 81 c4 68 11 00 00 	add    $0x1168,%rsp
   10745:	5b                   	pop    %rbx
   10746:	41 5c                	pop    %r12
   10748:	41 5d                	pop    %r13
   1074a:	41 5e                	pop    %r14
   1074c:	41 5f                	pop    %r15
   1074e:	5d                   	pop    %rbp
   1074f:	c3                   	retq   

0000000000010750 <main>:
   10750:	f3 0f 1e fa          	endbr64 
   10754:	55                   	push   %rbp
   10755:	48 89 e5             	mov    %rsp,%rbp
   10758:	48 83 ec 20          	sub    $0x20,%rsp
   1075c:	89 7d ec             	mov    %edi,-0x14(%rbp)
   1075f:	48 89 75 e0          	mov    %rsi,-0x20(%rbp)
   10763:	c7 45 fc 00 00 00 00 	movl   $0x0,-0x4(%rbp)
   1076a:	83 7d ec 02          	cmpl   $0x2,-0x14(%rbp)
   1076e:	74 25                	je     10795 <main+0x45>
   10770:	48 8b 45 e0          	mov    -0x20(%rbp),%rax
   10774:	48 83 c0 08          	add    $0x8,%rax
   10778:	48 8b 00             	mov    (%rax),%rax
   1077b:	48 8d 35 3e 1d 00 00 	lea    0x1d3e(%rip),%rsi        # 124c0 <g_362+0x146c>
   10782:	48 89 c7             	mov    %rax,%rdi
   10785:	e8 06 39 ff ff       	callq  4090 <strcmp@plt>
   1078a:	85 c0                	test   %eax,%eax
   1078c:	74 07                	je     10795 <main+0x45>
   1078e:	c7 45 fc 01 00 00 00 	movl   $0x1,-0x4(%rbp)
   10795:	e8 ef 39 ff ff       	callq  4189 <platform_main_begin>
   1079a:	e8 f9 4d ff ff       	callq  5598 <crc32_gentab>
   1079f:	e8 11 50 ff ff       	callq  57b5 <func_1>
   107a4:	c7 45 f0 00 00 00 00 	movl   $0x0,-0x10(%rbp)
   107ab:	e9 8c 00 00 00       	jmpq   1083c <main+0xec>
   107b0:	c7 45 f4 00 00 00 00 	movl   $0x0,-0xc(%rbp)
   107b7:	eb 79                	jmp    10832 <main+0xe2>
   107b9:	c7 45 f8 00 00 00 00 	movl   $0x0,-0x8(%rbp)
   107c0:	eb 66                	jmp    10828 <main+0xd8>
   107c2:	8b 45 f8             	mov    -0x8(%rbp),%eax
   107c5:	48 98                	cltq   
   107c7:	8b 55 f0             	mov    -0x10(%rbp),%edx
   107ca:	48 63 ca             	movslq %edx,%rcx
   107cd:	8b 55 f4             	mov    -0xc(%rbp),%edx
   107d0:	48 63 d2             	movslq %edx,%rdx
   107d3:	48 01 c9             	add    %rcx,%rcx
   107d6:	48 01 ca             	add    %rcx,%rdx
   107d9:	48 c1 e2 03          	shl    $0x3,%rdx
   107dd:	48 01 c2             	add    %rax,%rdx
   107e0:	48 8d 05 59 58 00 00 	lea    0x5859(%rip),%rax        # 16040 <g_19>
   107e7:	48 01 d0             	add    %rdx,%rax
   107ea:	0f b6 00             	movzbl (%rax),%eax
   107ed:	0f b6 c0             	movzbl %al,%eax
   107f0:	8b 55 fc             	mov    -0x4(%rbp),%edx
   107f3:	48 8d 35 c8 1c 00 00 	lea    0x1cc8(%rip),%rsi        # 124c2 <g_362+0x146e>
   107fa:	48 89 c7             	mov    %rax,%rdi
   107fd:	e8 f1 4e ff ff       	callq  56f3 <transparent_crc>
   10802:	83 7d fc 00          	cmpl   $0x0,-0x4(%rbp)
   10806:	74 1c                	je     10824 <main+0xd4>
   10808:	8b 4d f8             	mov    -0x8(%rbp),%ecx
   1080b:	8b 55 f4             	mov    -0xc(%rbp),%edx
   1080e:	8b 45 f0             	mov    -0x10(%rbp),%eax
   10811:	89 c6                	mov    %eax,%esi
   10813:	48 8d 3d b6 1c 00 00 	lea    0x1cb6(%rip),%rdi        # 124d0 <g_362+0x147c>
   1081a:	b8 00 00 00 00       	mov    $0x0,%eax
   1081f:	e8 5c 38 ff ff       	callq  4080 <printf@plt>
   10824:	83 45 f8 01          	addl   $0x1,-0x8(%rbp)
   10828:	83 7d f8 07          	cmpl   $0x7,-0x8(%rbp)
   1082c:	7e 94                	jle    107c2 <main+0x72>
   1082e:	83 45 f4 01          	addl   $0x1,-0xc(%rbp)
   10832:	83 7d f4 01          	cmpl   $0x1,-0xc(%rbp)
   10836:	7e 81                	jle    107b9 <main+0x69>
   10838:	83 45 f0 01          	addl   $0x1,-0x10(%rbp)
   1083c:	83 7d f0 06          	cmpl   $0x6,-0x10(%rbp)
   10840:	0f 8e 6a ff ff ff    	jle    107b0 <main+0x60>
   10846:	8b 05 64 58 00 00    	mov    0x5864(%rip),%eax        # 160b0 <g_46>
   1084c:	48 98                	cltq   
   1084e:	8b 55 fc             	mov    -0x4(%rbp),%edx
   10851:	48 8d 35 8e 1c 00 00 	lea    0x1c8e(%rip),%rsi        # 124e6 <g_362+0x1492>
   10858:	48 89 c7             	mov    %rax,%rdi
   1085b:	e8 93 4e ff ff       	callq  56f3 <transparent_crc>
   10860:	0f b6 05 4d 58 00 00 	movzbl 0x584d(%rip),%eax        # 160b4 <g_53>
   10867:	0f b6 c0             	movzbl %al,%eax
   1086a:	8b 55 fc             	mov    -0x4(%rbp),%edx
   1086d:	48 8d 35 77 1c 00 00 	lea    0x1c77(%rip),%rsi        # 124eb <g_362+0x1497>
   10874:	48 89 c7             	mov    %rax,%rdi
   10877:	e8 77 4e ff ff       	callq  56f3 <transparent_crc>
   1087c:	0f b6 05 32 58 00 00 	movzbl 0x5832(%rip),%eax        # 160b5 <g_63>
   10883:	48 0f be c0          	movsbq %al,%rax
   10887:	8b 55 fc             	mov    -0x4(%rbp),%edx
   1088a:	48 8d 35 5f 1c 00 00 	lea    0x1c5f(%rip),%rsi        # 124f0 <g_362+0x149c>
   10891:	48 89 c7             	mov    %rax,%rdi
   10894:	e8 5a 4e ff ff       	callq  56f3 <transparent_crc>
   10899:	c7 45 f0 00 00 00 00 	movl   $0x0,-0x10(%rbp)
   108a0:	eb 4d                	jmp    108ef <main+0x19f>
   108a2:	8b 45 f0             	mov    -0x10(%rbp),%eax
   108a5:	48 98                	cltq   
   108a7:	48 8d 14 85 00 00 00 	lea    0x0(,%rax,4),%rdx
   108ae:	00 
   108af:	48 8d 05 0a 58 00 00 	lea    0x580a(%rip),%rax        # 160c0 <g_64>
   108b6:	8b 04 02             	mov    (%rdx,%rax,1),%eax
   108b9:	89 c1                	mov    %eax,%ecx
   108bb:	8b 45 fc             	mov    -0x4(%rbp),%eax
   108be:	89 c2                	mov    %eax,%edx
   108c0:	48 8d 35 2e 1c 00 00 	lea    0x1c2e(%rip),%rsi        # 124f5 <g_362+0x14a1>
   108c7:	48 89 cf             	mov    %rcx,%rdi
   108ca:	e8 24 4e ff ff       	callq  56f3 <transparent_crc>
   108cf:	83 7d fc 00          	cmpl   $0x0,-0x4(%rbp)
   108d3:	74 16                	je     108eb <main+0x19b>
   108d5:	8b 45 f0             	mov    -0x10(%rbp),%eax
   108d8:	89 c6                	mov    %eax,%esi
   108da:	48 8d 3d 1c 1c 00 00 	lea    0x1c1c(%rip),%rdi        # 124fd <g_362+0x14a9>
   108e1:	b8 00 00 00 00       	mov    $0x0,%eax
   108e6:	e8 95 37 ff ff       	callq  4080 <printf@plt>
   108eb:	83 45 f0 01          	addl   $0x1,-0x10(%rbp)
   108ef:	83 7d f0 06          	cmpl   $0x6,-0x10(%rbp)
   108f3:	7e ad                	jle    108a2 <main+0x152>
   108f5:	c7 45 f0 00 00 00 00 	movl   $0x0,-0x10(%rbp)
   108fc:	eb 4b                	jmp    10949 <main+0x1f9>
   108fe:	8b 45 f0             	mov    -0x10(%rbp),%eax
   10901:	48 98                	cltq   
   10903:	48 8d 14 85 00 00 00 	lea    0x0(,%rax,4),%rdx
   1090a:	00 
   1090b:	48 8d 05 ca 57 00 00 	lea    0x57ca(%rip),%rax        # 160dc <g_81>
   10912:	8b 04 02             	mov    (%rdx,%rax,1),%eax
   10915:	48 98                	cltq   
   10917:	8b 55 fc             	mov    -0x4(%rbp),%edx
   1091a:	48 8d 35 ea 1b 00 00 	lea    0x1bea(%rip),%rsi        # 1250b <g_362+0x14b7>
   10921:	48 89 c7             	mov    %rax,%rdi
   10924:	e8 ca 4d ff ff       	callq  56f3 <transparent_crc>
   10929:	83 7d fc 00          	cmpl   $0x0,-0x4(%rbp)
   1092d:	74 16                	je     10945 <main+0x1f5>
   1092f:	8b 45 f0             	mov    -0x10(%rbp),%eax
   10932:	89 c6                	mov    %eax,%esi
   10934:	48 8d 3d c2 1b 00 00 	lea    0x1bc2(%rip),%rdi        # 124fd <g_362+0x14a9>
   1093b:	b8 00 00 00 00       	mov    $0x0,%eax
   10940:	e8 3b 37 ff ff       	callq  4080 <printf@plt>
   10945:	83 45 f0 01          	addl   $0x1,-0x10(%rbp)
   10949:	83 7d f0 00          	cmpl   $0x0,-0x10(%rbp)
   1094d:	7e af                	jle    108fe <main+0x1ae>
   1094f:	48 8b 05 8a 57 00 00 	mov    0x578a(%rip),%rax        # 160e0 <g_88>
   10956:	8b 55 fc             	mov    -0x4(%rbp),%edx
   10959:	48 8d 35 b3 1b 00 00 	lea    0x1bb3(%rip),%rsi        # 12513 <g_362+0x14bf>
   10960:	48 89 c7             	mov    %rax,%rdi
   10963:	e8 8b 4d ff ff       	callq  56f3 <transparent_crc>
   10968:	48 8b 05 79 57 00 00 	mov    0x5779(%rip),%rax        # 160e8 <g_91>
   1096f:	8b 55 fc             	mov    -0x4(%rbp),%edx
   10972:	48 8d 35 9f 1b 00 00 	lea    0x1b9f(%rip),%rsi        # 12518 <g_362+0x14c4>
   10979:	48 89 c7             	mov    %rax,%rdi
   1097c:	e8 72 4d ff ff       	callq  56f3 <transparent_crc>
   10981:	8b 05 69 57 00 00    	mov    0x5769(%rip),%eax        # 160f0 <g_107>
   10987:	48 98                	cltq   
   10989:	8b 55 fc             	mov    -0x4(%rbp),%edx
   1098c:	48 8d 35 8a 1b 00 00 	lea    0x1b8a(%rip),%rsi        # 1251d <g_362+0x14c9>
   10993:	48 89 c7             	mov    %rax,%rdi
   10996:	e8 58 4d ff ff       	callq  56f3 <transparent_crc>
   1099b:	8b 05 53 57 00 00    	mov    0x5753(%rip),%eax        # 160f4 <g_124>
   109a1:	89 c1                	mov    %eax,%ecx
   109a3:	8b 45 fc             	mov    -0x4(%rbp),%eax
   109a6:	89 c2                	mov    %eax,%edx
   109a8:	48 8d 35 74 1b 00 00 	lea    0x1b74(%rip),%rsi        # 12523 <g_362+0x14cf>
   109af:	48 89 cf             	mov    %rcx,%rdi
   109b2:	e8 3c 4d ff ff       	callq  56f3 <transparent_crc>
   109b7:	c7 45 f0 00 00 00 00 	movl   $0x0,-0x10(%rbp)
   109be:	e9 af 00 00 00       	jmpq   10a72 <main+0x322>
   109c3:	c7 45 f4 00 00 00 00 	movl   $0x0,-0xc(%rbp)
   109ca:	e9 95 00 00 00       	jmpq   10a64 <main+0x314>
   109cf:	c7 45 f8 00 00 00 00 	movl   $0x0,-0x8(%rbp)
   109d6:	eb 7e                	jmp    10a56 <main+0x306>
   109d8:	8b 45 f8             	mov    -0x8(%rbp),%eax
   109db:	48 63 f0             	movslq %eax,%rsi
   109de:	8b 45 f0             	mov    -0x10(%rbp),%eax
   109e1:	48 63 d0             	movslq %eax,%rdx
   109e4:	8b 45 f4             	mov    -0xc(%rbp),%eax
   109e7:	48 63 c8             	movslq %eax,%rcx
   109ea:	48 89 d0             	mov    %rdx,%rax
   109ed:	48 c1 e0 03          	shl    $0x3,%rax
   109f1:	48 01 d0             	add    %rdx,%rax
   109f4:	48 c1 e0 02          	shl    $0x2,%rax
   109f8:	48 29 d0             	sub    %rdx,%rax
   109fb:	48 89 ca             	mov    %rcx,%rdx
   109fe:	48 c1 e2 03          	shl    $0x3,%rdx
   10a02:	48 29 ca             	sub    %rcx,%rdx
   10a05:	48 01 d0             	add    %rdx,%rax
   10a08:	48 01 f0             	add    %rsi,%rax
   10a0b:	48 8d 14 00          	lea    (%rax,%rax,1),%rdx
   10a0f:	48 8d 05 ea 56 00 00 	lea    0x56ea(%rip),%rax        # 16100 <g_198>
   10a16:	0f b7 04 02          	movzwl (%rdx,%rax,1),%eax
   10a1a:	48 0f bf c0          	movswq %ax,%rax
   10a1e:	8b 55 fc             	mov    -0x4(%rbp),%edx
   10a21:	48 8d 35 01 1b 00 00 	lea    0x1b01(%rip),%rsi        # 12529 <g_362+0x14d5>
   10a28:	48 89 c7             	mov    %rax,%rdi
   10a2b:	e8 c3 4c ff ff       	callq  56f3 <transparent_crc>
   10a30:	83 7d fc 00          	cmpl   $0x0,-0x4(%rbp)
   10a34:	74 1c                	je     10a52 <main+0x302>
   10a36:	8b 4d f8             	mov    -0x8(%rbp),%ecx
   10a39:	8b 55 f4             	mov    -0xc(%rbp),%edx
   10a3c:	8b 45 f0             	mov    -0x10(%rbp),%eax
   10a3f:	89 c6                	mov    %eax,%esi
   10a41:	48 8d 3d 88 1a 00 00 	lea    0x1a88(%rip),%rdi        # 124d0 <g_362+0x147c>
   10a48:	b8 00 00 00 00       	mov    $0x0,%eax
   10a4d:	e8 2e 36 ff ff       	callq  4080 <printf@plt>
   10a52:	83 45 f8 01          	addl   $0x1,-0x8(%rbp)
   10a56:	83 7d f8 06          	cmpl   $0x6,-0x8(%rbp)
   10a5a:	0f 8e 78 ff ff ff    	jle    109d8 <main+0x288>
   10a60:	83 45 f4 01          	addl   $0x1,-0xc(%rbp)
   10a64:	83 7d f4 04          	cmpl   $0x4,-0xc(%rbp)
   10a68:	0f 8e 61 ff ff ff    	jle    109cf <main+0x27f>
   10a6e:	83 45 f0 01          	addl   $0x1,-0x10(%rbp)
   10a72:	83 7d f0 03          	cmpl   $0x3,-0x10(%rbp)
   10a76:	0f 8e 47 ff ff ff    	jle    109c3 <main+0x273>
   10a7c:	0f b7 05 95 57 00 00 	movzwl 0x5795(%rip),%eax        # 16218 <g_237>
   10a83:	0f b7 c0             	movzwl %ax,%eax
   10a86:	8b 55 fc             	mov    -0x4(%rbp),%edx
   10a89:	48 8d 35 a8 1a 00 00 	lea    0x1aa8(%rip),%rsi        # 12538 <g_362+0x14e4>
   10a90:	48 89 c7             	mov    %rax,%rdi
   10a93:	e8 5b 4c ff ff       	callq  56f3 <transparent_crc>
   10a98:	48 8b 05 81 57 00 00 	mov    0x5781(%rip),%rax        # 16220 <g_294>
   10a9f:	48 89 c1             	mov    %rax,%rcx
   10aa2:	8b 45 fc             	mov    -0x4(%rbp),%eax
   10aa5:	89 c2                	mov    %eax,%edx
   10aa7:	48 8d 35 90 1a 00 00 	lea    0x1a90(%rip),%rsi        # 1253e <g_362+0x14ea>
   10aae:	48 89 cf             	mov    %rcx,%rdi
   10ab1:	e8 3d 4c ff ff       	callq  56f3 <transparent_crc>
   10ab6:	b8 db 64 f3 1c       	mov    $0x1cf364db,%eax
   10abb:	48 98                	cltq   
   10abd:	8b 55 fc             	mov    -0x4(%rbp),%edx
   10ac0:	48 8d 35 7d 1a 00 00 	lea    0x1a7d(%rip),%rsi        # 12544 <g_362+0x14f0>
   10ac7:	48 89 c7             	mov    %rax,%rdi
   10aca:	e8 24 4c ff ff       	callq  56f3 <transparent_crc>
   10acf:	8b 05 53 57 00 00    	mov    0x5753(%rip),%eax        # 16228 <g_449>
   10ad5:	89 c1                	mov    %eax,%ecx
   10ad7:	8b 45 fc             	mov    -0x4(%rbp),%eax
   10ada:	89 c2                	mov    %eax,%edx
   10adc:	48 8d 35 67 1a 00 00 	lea    0x1a67(%rip),%rsi        # 1254a <g_362+0x14f6>
   10ae3:	48 89 cf             	mov    %rcx,%rdi
   10ae6:	e8 08 4c ff ff       	callq  56f3 <transparent_crc>
   10aeb:	0f b7 05 3a 57 00 00 	movzwl 0x573a(%rip),%eax        # 1622c <g_549>
   10af2:	0f b7 c0             	movzwl %ax,%eax
   10af5:	8b 55 fc             	mov    -0x4(%rbp),%edx
   10af8:	48 8d 35 51 1a 00 00 	lea    0x1a51(%rip),%rsi        # 12550 <g_362+0x14fc>
   10aff:	48 89 c7             	mov    %rax,%rdi
   10b02:	e8 ec 4b ff ff       	callq  56f3 <transparent_crc>
   10b07:	c7 45 f0 00 00 00 00 	movl   $0x0,-0x10(%rbp)
   10b0e:	eb 79                	jmp    10b89 <main+0x439>
   10b10:	c7 45 f4 00 00 00 00 	movl   $0x0,-0xc(%rbp)
   10b17:	eb 66                	jmp    10b7f <main+0x42f>
   10b19:	8b 45 f4             	mov    -0xc(%rbp),%eax
   10b1c:	48 63 c8             	movslq %eax,%rcx
   10b1f:	8b 45 f0             	mov    -0x10(%rbp),%eax
   10b22:	48 63 d0             	movslq %eax,%rdx
   10b25:	48 89 d0             	mov    %rdx,%rax
   10b28:	48 c1 e0 03          	shl    $0x3,%rax
   10b2c:	48 01 d0             	add    %rdx,%rax
   10b2f:	48 01 c8             	add    %rcx,%rax
   10b32:	48 8d 14 c5 00 00 00 	lea    0x0(,%rax,8),%rdx
   10b39:	00 
   10b3a:	48 8d 05 ff 6d 00 00 	lea    0x6dff(%rip),%rax        # 17940 <g_596>
   10b41:	48 8b 04 02          	mov    (%rdx,%rax,1),%rax
   10b45:	48 89 c1             	mov    %rax,%rcx
   10b48:	8b 45 fc             	mov    -0x4(%rbp),%eax
   10b4b:	89 c2                	mov    %eax,%edx
   10b4d:	48 8d 35 02 1a 00 00 	lea    0x1a02(%rip),%rsi        # 12556 <g_362+0x1502>
   10b54:	48 89 cf             	mov    %rcx,%rdi
   10b57:	e8 97 4b ff ff       	callq  56f3 <transparent_crc>
   10b5c:	83 7d fc 00          	cmpl   $0x0,-0x4(%rbp)
   10b60:	74 19                	je     10b7b <main+0x42b>
   10b62:	8b 55 f4             	mov    -0xc(%rbp),%edx
   10b65:	8b 45 f0             	mov    -0x10(%rbp),%eax
   10b68:	89 c6                	mov    %eax,%esi
   10b6a:	48 8d 3d f1 19 00 00 	lea    0x19f1(%rip),%rdi        # 12562 <g_362+0x150e>
   10b71:	b8 00 00 00 00       	mov    $0x0,%eax
   10b76:	e8 05 35 ff ff       	callq  4080 <printf@plt>
   10b7b:	83 45 f4 01          	addl   $0x1,-0xc(%rbp)
   10b7f:	83 7d f4 08          	cmpl   $0x8,-0xc(%rbp)
   10b83:	7e 94                	jle    10b19 <main+0x3c9>
   10b85:	83 45 f0 01          	addl   $0x1,-0x10(%rbp)
   10b89:	83 7d f0 00          	cmpl   $0x0,-0x10(%rbp)
   10b8d:	7e 81                	jle    10b10 <main+0x3c0>
   10b8f:	8b 05 9b 56 00 00    	mov    0x569b(%rip),%eax        # 16230 <g_667>
   10b95:	48 98                	cltq   
   10b97:	8b 55 fc             	mov    -0x4(%rbp),%edx
   10b9a:	48 8d 35 d3 19 00 00 	lea    0x19d3(%rip),%rsi        # 12574 <g_362+0x1520>
   10ba1:	48 89 c7             	mov    %rax,%rdi
   10ba4:	e8 4a 4b ff ff       	callq  56f3 <transparent_crc>
   10ba9:	c7 45 f0 00 00 00 00 	movl   $0x0,-0x10(%rbp)
   10bb0:	eb 73                	jmp    10c25 <main+0x4d5>
   10bb2:	c7 45 f4 00 00 00 00 	movl   $0x0,-0xc(%rbp)
   10bb9:	eb 60                	jmp    10c1b <main+0x4cb>
   10bbb:	8b 45 f4             	mov    -0xc(%rbp),%eax
   10bbe:	48 63 c8             	movslq %eax,%rcx
   10bc1:	8b 45 f0             	mov    -0x10(%rbp),%eax
   10bc4:	48 63 d0             	movslq %eax,%rdx
   10bc7:	48 89 d0             	mov    %rdx,%rax
   10bca:	48 c1 e0 03          	shl    $0x3,%rax
   10bce:	48 01 d0             	add    %rdx,%rax
   10bd1:	48 8d 14 08          	lea    (%rax,%rcx,1),%rdx
   10bd5:	48 8d 05 5c 56 00 00 	lea    0x565c(%rip),%rax        # 16238 <g_895>
   10bdc:	48 01 d0             	add    %rdx,%rax
   10bdf:	0f b6 00             	movzbl (%rax),%eax
   10be2:	48 0f be c0          	movsbq %al,%rax
   10be6:	8b 55 fc             	mov    -0x4(%rbp),%edx
   10be9:	48 8d 35 8a 19 00 00 	lea    0x198a(%rip),%rsi        # 1257a <g_362+0x1526>
   10bf0:	48 89 c7             	mov    %rax,%rdi
   10bf3:	e8 fb 4a ff ff       	callq  56f3 <transparent_crc>
   10bf8:	83 7d fc 00          	cmpl   $0x0,-0x4(%rbp)
   10bfc:	74 19                	je     10c17 <main+0x4c7>
   10bfe:	8b 55 f4             	mov    -0xc(%rbp),%edx
   10c01:	8b 45 f0             	mov    -0x10(%rbp),%eax
   10c04:	89 c6                	mov    %eax,%esi
   10c06:	48 8d 3d 55 19 00 00 	lea    0x1955(%rip),%rdi        # 12562 <g_362+0x150e>
   10c0d:	b8 00 00 00 00       	mov    $0x0,%eax
   10c12:	e8 69 34 ff ff       	callq  4080 <printf@plt>
   10c17:	83 45 f4 01          	addl   $0x1,-0xc(%rbp)
   10c1b:	83 7d f4 08          	cmpl   $0x8,-0xc(%rbp)
   10c1f:	7e 9a                	jle    10bbb <main+0x46b>
   10c21:	83 45 f0 01          	addl   $0x1,-0x10(%rbp)
   10c25:	83 7d f0 00          	cmpl   $0x0,-0x10(%rbp)
   10c29:	7e 87                	jle    10bb2 <main+0x462>
   10c2b:	0f b6 05 5e 6d 00 00 	movzbl 0x6d5e(%rip),%eax        # 17990 <g_897>
   10c32:	0f b6 c0             	movzbl %al,%eax
   10c35:	8b 55 fc             	mov    -0x4(%rbp),%edx
   10c38:	48 8d 35 47 19 00 00 	lea    0x1947(%rip),%rsi        # 12586 <g_362+0x1532>
   10c3f:	48 89 c7             	mov    %rax,%rdi
   10c42:	e8 ac 4a ff ff       	callq  56f3 <transparent_crc>
   10c47:	8b 05 f7 55 00 00    	mov    0x55f7(%rip),%eax        # 16244 <g_910>
   10c4d:	89 c1                	mov    %eax,%ecx
   10c4f:	8b 45 fc             	mov    -0x4(%rbp),%eax
   10c52:	89 c2                	mov    %eax,%edx
   10c54:	48 8d 35 31 19 00 00 	lea    0x1931(%rip),%rsi        # 1258c <g_362+0x1538>
   10c5b:	48 89 cf             	mov    %rcx,%rdi
   10c5e:	e8 90 4a ff ff       	callq  56f3 <transparent_crc>
   10c63:	8b 05 37 6d 00 00    	mov    0x6d37(%rip),%eax        # 179a0 <g_1143>
   10c69:	48 98                	cltq   
   10c6b:	8b 55 fc             	mov    -0x4(%rbp),%edx
   10c6e:	48 8d 35 1d 19 00 00 	lea    0x191d(%rip),%rsi        # 12592 <g_362+0x153e>
   10c75:	48 89 c7             	mov    %rax,%rdi
   10c78:	e8 76 4a ff ff       	callq  56f3 <transparent_crc>
   10c7d:	0f b7 05 c4 55 00 00 	movzwl 0x55c4(%rip),%eax        # 16248 <g_1230>
   10c84:	48 0f bf c0          	movswq %ax,%rax
   10c88:	8b 55 fc             	mov    -0x4(%rbp),%edx
   10c8b:	48 8d 35 07 19 00 00 	lea    0x1907(%rip),%rsi        # 12599 <g_362+0x1545>
   10c92:	48 89 c7             	mov    %rax,%rdi
   10c95:	e8 59 4a ff ff       	callq  56f3 <transparent_crc>
   10c9a:	c7 45 f0 00 00 00 00 	movl   $0x0,-0x10(%rbp)
   10ca1:	e9 9c 00 00 00       	jmpq   10d42 <main+0x5f2>
   10ca6:	c7 45 f4 00 00 00 00 	movl   $0x0,-0xc(%rbp)
   10cad:	e9 82 00 00 00       	jmpq   10d34 <main+0x5e4>
   10cb2:	c7 45 f8 00 00 00 00 	movl   $0x0,-0x8(%rbp)
   10cb9:	eb 6f                	jmp    10d2a <main+0x5da>
   10cbb:	8b 45 f8             	mov    -0x8(%rbp),%eax
   10cbe:	48 63 f0             	movslq %eax,%rsi
   10cc1:	8b 45 f4             	mov    -0xc(%rbp),%eax
   10cc4:	48 63 c8             	movslq %eax,%rcx
   10cc7:	8b 45 f0             	mov    -0x10(%rbp),%eax
   10cca:	48 63 d0             	movslq %eax,%rdx
   10ccd:	48 89 d0             	mov    %rdx,%rax
   10cd0:	48 01 c0             	add    %rax,%rax
   10cd3:	48 01 d0             	add    %rdx,%rax
   10cd6:	48 01 c0             	add    %rax,%rax
   10cd9:	48 01 f0             	add    %rsi,%rax
   10cdc:	48 01 c8             	add    %rcx,%rax
   10cdf:	48 8d 14 c5 00 00 00 	lea    0x0(,%rax,8),%rdx
   10ce6:	00 
   10ce7:	48 8d 05 72 55 00 00 	lea    0x5572(%rip),%rax        # 16260 <g_1283>
   10cee:	48 8b 04 02          	mov    (%rdx,%rax,1),%rax
   10cf2:	8b 55 fc             	mov    -0x4(%rbp),%edx
   10cf5:	48 8d 35 a4 18 00 00 	lea    0x18a4(%rip),%rsi        # 125a0 <g_362+0x154c>
   10cfc:	48 89 c7             	mov    %rax,%rdi
   10cff:	e8 ef 49 ff ff       	callq  56f3 <transparent_crc>
   10d04:	83 7d fc 00          	cmpl   $0x0,-0x4(%rbp)
   10d08:	74 1c                	je     10d26 <main+0x5d6>
   10d0a:	8b 4d f8             	mov    -0x8(%rbp),%ecx
   10d0d:	8b 55 f4             	mov    -0xc(%rbp),%edx
   10d10:	8b 45 f0             	mov    -0x10(%rbp),%eax
   10d13:	89 c6                	mov    %eax,%esi
   10d15:	48 8d 3d b4 17 00 00 	lea    0x17b4(%rip),%rdi        # 124d0 <g_362+0x147c>
   10d1c:	b8 00 00 00 00       	mov    $0x0,%eax
   10d21:	e8 5a 33 ff ff       	callq  4080 <printf@plt>
   10d26:	83 45 f8 01          	addl   $0x1,-0x8(%rbp)
   10d2a:	83 7d f8 00          	cmpl   $0x0,-0x8(%rbp)
   10d2e:	7e 8b                	jle    10cbb <main+0x56b>
   10d30:	83 45 f4 01          	addl   $0x1,-0xc(%rbp)
   10d34:	83 7d f4 05          	cmpl   $0x5,-0xc(%rbp)
   10d38:	0f 8e 74 ff ff ff    	jle    10cb2 <main+0x562>
   10d3e:	83 45 f0 01          	addl   $0x1,-0x10(%rbp)
   10d42:	83 7d f0 01          	cmpl   $0x1,-0x10(%rbp)
   10d46:	0f 8e 5a ff ff ff    	jle    10ca6 <main+0x556>
   10d4c:	0f b7 05 6d 55 00 00 	movzwl 0x556d(%rip),%eax        # 162c0 <g_1339>
   10d53:	0f b7 c0             	movzwl %ax,%eax
   10d56:	8b 55 fc             	mov    -0x4(%rbp),%edx
   10d59:	48 8d 35 50 18 00 00 	lea    0x1850(%rip),%rsi        # 125b0 <g_362+0x155c>
   10d60:	48 89 c7             	mov    %rax,%rdi
   10d63:	e8 8b 49 ff ff       	callq  56f3 <transparent_crc>
   10d68:	8b 05 56 55 00 00    	mov    0x5556(%rip),%eax        # 162c4 <g_1359>
   10d6e:	48 98                	cltq   
   10d70:	8b 55 fc             	mov    -0x4(%rbp),%edx
   10d73:	48 8d 35 3d 18 00 00 	lea    0x183d(%rip),%rsi        # 125b7 <g_362+0x1563>
   10d7a:	48 89 c7             	mov    %rax,%rdi
   10d7d:	e8 71 49 ff ff       	callq  56f3 <transparent_crc>
   10d82:	8b 05 40 55 00 00    	mov    0x5540(%rip),%eax        # 162c8 <g_1456>
   10d88:	48 98                	cltq   
   10d8a:	8b 55 fc             	mov    -0x4(%rbp),%edx
   10d8d:	48 8d 35 2a 18 00 00 	lea    0x182a(%rip),%rsi        # 125be <g_362+0x156a>
   10d94:	48 89 c7             	mov    %rax,%rdi
   10d97:	e8 57 49 ff ff       	callq  56f3 <transparent_crc>
   10d9c:	0f b6 05 29 55 00 00 	movzbl 0x5529(%rip),%eax        # 162cc <g_1484>
   10da3:	48 0f be c0          	movsbq %al,%rax
   10da7:	8b 55 fc             	mov    -0x4(%rbp),%edx
   10daa:	48 8d 35 14 18 00 00 	lea    0x1814(%rip),%rsi        # 125c5 <g_362+0x1571>
   10db1:	48 89 c7             	mov    %rax,%rdi
   10db4:	e8 3a 49 ff ff       	callq  56f3 <transparent_crc>
   10db9:	c7 45 f0 00 00 00 00 	movl   $0x0,-0x10(%rbp)
   10dc0:	eb 4f                	jmp    10e11 <main+0x6c1>
   10dc2:	8b 45 f0             	mov    -0x10(%rbp),%eax
   10dc5:	48 98                	cltq   
   10dc7:	48 8d 14 c5 00 00 00 	lea    0x0(,%rax,8),%rdx
   10dce:	00 
   10dcf:	48 8d 05 fa 54 00 00 	lea    0x54fa(%rip),%rax        # 162d0 <g_1512>
   10dd6:	48 8b 04 02          	mov    (%rdx,%rax,1),%rax
   10dda:	48 89 c1             	mov    %rax,%rcx
   10ddd:	8b 45 fc             	mov    -0x4(%rbp),%eax
   10de0:	89 c2                	mov    %eax,%edx
   10de2:	48 8d 35 e3 17 00 00 	lea    0x17e3(%rip),%rsi        # 125cc <g_362+0x1578>
   10de9:	48 89 cf             	mov    %rcx,%rdi
   10dec:	e8 02 49 ff ff       	callq  56f3 <transparent_crc>
   10df1:	83 7d fc 00          	cmpl   $0x0,-0x4(%rbp)
   10df5:	74 16                	je     10e0d <main+0x6bd>
   10df7:	8b 45 f0             	mov    -0x10(%rbp),%eax
   10dfa:	89 c6                	mov    %eax,%esi
   10dfc:	48 8d 3d fa 16 00 00 	lea    0x16fa(%rip),%rdi        # 124fd <g_362+0x14a9>
   10e03:	b8 00 00 00 00       	mov    $0x0,%eax
   10e08:	e8 73 32 ff ff       	callq  4080 <printf@plt>
   10e0d:	83 45 f0 01          	addl   $0x1,-0x10(%rbp)
   10e11:	83 7d f0 02          	cmpl   $0x2,-0x10(%rbp)
   10e15:	7e ab                	jle    10dc2 <main+0x672>
   10e17:	0f b7 05 ca 54 00 00 	movzwl 0x54ca(%rip),%eax        # 162e8 <g_1524>
   10e1e:	0f b7 c0             	movzwl %ax,%eax
   10e21:	8b 55 fc             	mov    -0x4(%rbp),%edx
   10e24:	48 8d 35 ab 17 00 00 	lea    0x17ab(%rip),%rsi        # 125d6 <g_362+0x1582>
   10e2b:	48 89 c7             	mov    %rax,%rdi
   10e2e:	e8 c0 48 ff ff       	callq  56f3 <transparent_crc>
   10e33:	8b 05 e7 51 00 00    	mov    0x51e7(%rip),%eax        # 16020 <crc32_context>
   10e39:	f7 d0                	not    %eax
   10e3b:	89 c2                	mov    %eax,%edx
   10e3d:	8b 45 fc             	mov    -0x4(%rbp),%eax
   10e40:	89 c6                	mov    %eax,%esi
   10e42:	89 d7                	mov    %edx,%edi
   10e44:	e8 4b 33 ff ff       	callq  4194 <platform_main_end>
   10e49:	b8 00 00 00 00       	mov    $0x0,%eax
   10e4e:	c9                   	leaveq 
   10e4f:	c3                   	retq   

0000000000010e50 <__libc_csu_init>:
   10e50:	f3 0f 1e fa          	endbr64 
   10e54:	41 57                	push   %r15
   10e56:	4c 8d 3d d3 4d 00 00 	lea    0x4dd3(%rip),%r15        # 15c30 <__frame_dummy_init_array_entry>
   10e5d:	41 56                	push   %r14
   10e5f:	49 89 d6             	mov    %rdx,%r14
   10e62:	41 55                	push   %r13
   10e64:	49 89 f5             	mov    %rsi,%r13
   10e67:	41 54                	push   %r12
   10e69:	41 89 fc             	mov    %edi,%r12d
   10e6c:	55                   	push   %rbp
   10e6d:	48 8d 2d c4 4d 00 00 	lea    0x4dc4(%rip),%rbp        # 15c38 <__do_global_dtors_aux_fini_array_entry>
   10e74:	53                   	push   %rbx
   10e75:	4c 29 fd             	sub    %r15,%rbp
   10e78:	48 83 ec 08          	sub    $0x8,%rsp
   10e7c:	e8 7f 31 ff ff       	callq  4000 <_init>
   10e81:	48 c1 fd 03          	sar    $0x3,%rbp
   10e85:	74 1f                	je     10ea6 <__libc_csu_init+0x56>
   10e87:	31 db                	xor    %ebx,%ebx
   10e89:	0f 1f 80 00 00 00 00 	nopl   0x0(%rax)
   10e90:	4c 89 f2             	mov    %r14,%rdx
   10e93:	4c 89 ee             	mov    %r13,%rsi
   10e96:	44 89 e7             	mov    %r12d,%edi
   10e99:	41 ff 14 df          	callq  *(%r15,%rbx,8)
   10e9d:	48 83 c3 01          	add    $0x1,%rbx
   10ea1:	48 39 dd             	cmp    %rbx,%rbp
   10ea4:	75 ea                	jne    10e90 <__libc_csu_init+0x40>
   10ea6:	48 83 c4 08          	add    $0x8,%rsp
   10eaa:	5b                   	pop    %rbx
   10eab:	5d                   	pop    %rbp
   10eac:	41 5c                	pop    %r12
   10eae:	41 5d                	pop    %r13
   10eb0:	41 5e                	pop    %r14
   10eb2:	41 5f                	pop    %r15
   10eb4:	c3                   	retq   
   10eb5:	66 66 2e 0f 1f 84 00 	data16 nopw %cs:0x0(%rax,%rax,1)
   10ebc:	00 00 00 00 

0000000000010ec0 <__libc_csu_fini>:
   10ec0:	f3 0f 1e fa          	endbr64 
   10ec4:	c3                   	retq   
