


Disassembly of section .text:

00000000000050a0 <_start>:
    50a0:	f3 0f 1e fa          	endbr64 
    50a4:	31 ed                	xor    %ebp,%ebp
    50a6:	49 89 d1             	mov    %rdx,%r9
    50a9:	5e                   	pop    %rsi
    50aa:	48 89 e2             	mov    %rsp,%rdx
    50ad:	48 83 e4 f0          	and    $0xfffffffffffffff0,%rsp
    50b1:	50                   	push   %rax
    50b2:	54                   	push   %rsp
    50b3:	4c 8d 05 86 9a 00 00 	lea    0x9a86(%rip),%r8        # eb40 <__libc_csu_fini>
    50ba:	48 8d 0d 0f 9a 00 00 	lea    0x9a0f(%rip),%rcx        # ead0 <__libc_csu_init>
    50c1:	48 8d 3d 78 8f 00 00 	lea    0x8f78(%rip),%rdi        # e040 <main>
    50c8:	ff 15 02 df 00 00    	callq  *0xdf02(%rip)        # 12fd0 <__libc_start_main@GLIBC_2.2.5>
    50ce:	f4                   	hlt    
    50cf:	90                   	nop

00000000000050d0 <deregister_tm_clones>:
    50d0:	48 8d 3d e9 02 01 00 	lea    0x102e9(%rip),%rdi        # 153c0 <__TMC_END__>
    50d7:	48 8d 05 e2 02 01 00 	lea    0x102e2(%rip),%rax        # 153c0 <__TMC_END__>
    50de:	48 39 f8             	cmp    %rdi,%rax
    50e1:	74 15                	je     50f8 <deregister_tm_clones+0x28>
    50e3:	48 8b 05 de de 00 00 	mov    0xdede(%rip),%rax        # 12fc8 <_ITM_deregisterTMCloneTable>
    50ea:	48 85 c0             	test   %rax,%rax
    50ed:	74 09                	je     50f8 <deregister_tm_clones+0x28>
    50ef:	ff e0                	jmpq   *%rax
    50f1:	0f 1f 80 00 00 00 00 	nopl   0x0(%rax)
    50f8:	c3                   	retq   
    50f9:	0f 1f 80 00 00 00 00 	nopl   0x0(%rax)

0000000000005100 <register_tm_clones>:
    5100:	48 8d 3d b9 02 01 00 	lea    0x102b9(%rip),%rdi        # 153c0 <__TMC_END__>
    5107:	48 8d 35 b2 02 01 00 	lea    0x102b2(%rip),%rsi        # 153c0 <__TMC_END__>
    510e:	48 29 fe             	sub    %rdi,%rsi
    5111:	48 89 f0             	mov    %rsi,%rax
    5114:	48 c1 ee 3f          	shr    $0x3f,%rsi
    5118:	48 c1 f8 03          	sar    $0x3,%rax
    511c:	48 01 c6             	add    %rax,%rsi
    511f:	48 d1 fe             	sar    %rsi
    5122:	74 14                	je     5138 <register_tm_clones+0x38>
    5124:	48 8b 05 b5 de 00 00 	mov    0xdeb5(%rip),%rax        # 12fe0 <_ITM_registerTMCloneTable>
    512b:	48 85 c0             	test   %rax,%rax
    512e:	74 08                	je     5138 <register_tm_clones+0x38>
    5130:	ff e0                	jmpq   *%rax
    5132:	66 0f 1f 44 00 00    	nopw   0x0(%rax,%rax,1)
    5138:	c3                   	retq   
    5139:	0f 1f 80 00 00 00 00 	nopl   0x0(%rax)

0000000000005140 <__do_global_dtors_aux>:
    5140:	f3 0f 1e fa          	endbr64 
    5144:	80 3d 75 02 01 00 00 	cmpb   $0x0,0x10275(%rip)        # 153c0 <__TMC_END__>
    514b:	75 2b                	jne    5178 <__do_global_dtors_aux+0x38>
    514d:	55                   	push   %rbp
    514e:	48 83 3d 92 de 00 00 	cmpq   $0x0,0xde92(%rip)        # 12fe8 <__cxa_finalize@GLIBC_2.2.5>
    5155:	00 
    5156:	48 89 e5             	mov    %rsp,%rbp
    5159:	74 0c                	je     5167 <__do_global_dtors_aux+0x27>
    515b:	48 8b 3d a6 de 00 00 	mov    0xdea6(%rip),%rdi        # 13008 <__dso_handle>
    5162:	e8 f9 fe ff ff       	callq  5060 <__cxa_finalize@plt>
    5167:	e8 64 ff ff ff       	callq  50d0 <deregister_tm_clones>
    516c:	c6 05 4d 02 01 00 01 	movb   $0x1,0x1024d(%rip)        # 153c0 <__TMC_END__>
    5173:	5d                   	pop    %rbp
    5174:	c3                   	retq   
    5175:	0f 1f 00             	nopl   (%rax)
    5178:	c3                   	retq   
    5179:	0f 1f 80 00 00 00 00 	nopl   0x0(%rax)

0000000000005180 <frame_dummy>:
    5180:	f3 0f 1e fa          	endbr64 
    5184:	e9 77 ff ff ff       	jmpq   5100 <register_tm_clones>

0000000000005189 <platform_main_begin>:
    5189:	f3 0f 1e fa          	endbr64 
    518d:	55                   	push   %rbp
    518e:	48 89 e5             	mov    %rsp,%rbp
    5191:	90                   	nop
    5192:	5d                   	pop    %rbp
    5193:	c3                   	retq   

0000000000005194 <platform_main_end>:
    5194:	f3 0f 1e fa          	endbr64 
    5198:	55                   	push   %rbp
    5199:	48 89 e5             	mov    %rsp,%rbp
    519c:	48 83 ec 10          	sub    $0x10,%rsp
    51a0:	89 7d fc             	mov    %edi,-0x4(%rbp)
    51a3:	89 75 f8             	mov    %esi,-0x8(%rbp)
    51a6:	8b 45 fc             	mov    -0x4(%rbp),%eax
    51a9:	89 c6                	mov    %eax,%esi
    51ab:	48 8d 3d 6e 9e 00 00 	lea    0x9e6e(%rip),%rdi        # f020 <_IO_stdin_used+0x20>
    51b2:	b8 00 00 00 00       	mov    $0x0,%eax
    51b7:	e8 c4 fe ff ff       	callq  5080 <printf@plt>
    51bc:	90                   	nop
    51bd:	c9                   	leaveq 
    51be:	c3                   	retq   

00000000000051bf <safe_unary_minus_func_int8_t_s>:
    51bf:	f3 0f 1e fa          	endbr64 
    51c3:	55                   	push   %rbp
    51c4:	48 89 e5             	mov    %rsp,%rbp
    51c7:	89 f8                	mov    %edi,%eax
    51c9:	88 45 fc             	mov    %al,-0x4(%rbp)
    51cc:	0f b6 45 fc          	movzbl -0x4(%rbp),%eax
    51d0:	f7 d8                	neg    %eax
    51d2:	5d                   	pop    %rbp
    51d3:	c3                   	retq   

00000000000051d4 <safe_add_func_int8_t_s_s>:
    51d4:	f3 0f 1e fa          	endbr64 
    51d8:	55                   	push   %rbp
    51d9:	48 89 e5             	mov    %rsp,%rbp
    51dc:	89 fa                	mov    %edi,%edx
    51de:	89 f0                	mov    %esi,%eax
    51e0:	88 55 fc             	mov    %dl,-0x4(%rbp)
    51e3:	88 45 f8             	mov    %al,-0x8(%rbp)
    51e6:	0f b6 55 fc          	movzbl -0x4(%rbp),%edx
    51ea:	0f b6 45 f8          	movzbl -0x8(%rbp),%eax
    51ee:	01 d0                	add    %edx,%eax
    51f0:	5d                   	pop    %rbp
    51f1:	c3                   	retq   

00000000000051f2 <safe_sub_func_int8_t_s_s>:
    51f2:	f3 0f 1e fa          	endbr64 
    51f6:	55                   	push   %rbp
    51f7:	48 89 e5             	mov    %rsp,%rbp
    51fa:	89 fa                	mov    %edi,%edx
    51fc:	89 f0                	mov    %esi,%eax
    51fe:	88 55 fc             	mov    %dl,-0x4(%rbp)
    5201:	88 45 f8             	mov    %al,-0x8(%rbp)
    5204:	0f b6 55 fc          	movzbl -0x4(%rbp),%edx
    5208:	0f b6 45 f8          	movzbl -0x8(%rbp),%eax
    520c:	29 c2                	sub    %eax,%edx
    520e:	89 d0                	mov    %edx,%eax
    5210:	5d                   	pop    %rbp
    5211:	c3                   	retq   

0000000000005212 <safe_mul_func_int8_t_s_s>:
    5212:	f3 0f 1e fa          	endbr64 
    5216:	55                   	push   %rbp
    5217:	48 89 e5             	mov    %rsp,%rbp
    521a:	89 fa                	mov    %edi,%edx
    521c:	89 f0                	mov    %esi,%eax
    521e:	88 55 fc             	mov    %dl,-0x4(%rbp)
    5221:	88 45 f8             	mov    %al,-0x8(%rbp)
    5224:	0f b6 45 fc          	movzbl -0x4(%rbp),%eax
    5228:	0f b6 55 f8          	movzbl -0x8(%rbp),%edx
    522c:	0f af c2             	imul   %edx,%eax
    522f:	5d                   	pop    %rbp
    5230:	c3                   	retq   

0000000000005231 <safe_mod_func_int8_t_s_s>:
    5231:	f3 0f 1e fa          	endbr64 
    5235:	55                   	push   %rbp
    5236:	48 89 e5             	mov    %rsp,%rbp
    5239:	89 fa                	mov    %edi,%edx
    523b:	89 f0                	mov    %esi,%eax
    523d:	88 55 fc             	mov    %dl,-0x4(%rbp)
    5240:	88 45 f8             	mov    %al,-0x8(%rbp)
    5243:	80 7d f8 00          	cmpb   $0x0,-0x8(%rbp)
    5247:	74 1b                	je     5264 <safe_mod_func_int8_t_s_s+0x33>
    5249:	80 7d fc 80          	cmpb   $0x80,-0x4(%rbp)
    524d:	75 06                	jne    5255 <safe_mod_func_int8_t_s_s+0x24>
    524f:	80 7d f8 ff          	cmpb   $0xff,-0x8(%rbp)
    5253:	74 0f                	je     5264 <safe_mod_func_int8_t_s_s+0x33>
    5255:	0f be 45 fc          	movsbl -0x4(%rbp),%eax
    5259:	0f be 4d f8          	movsbl -0x8(%rbp),%ecx
    525d:	99                   	cltd   
    525e:	f7 f9                	idiv   %ecx
    5260:	89 d0                	mov    %edx,%eax
    5262:	eb 04                	jmp    5268 <safe_mod_func_int8_t_s_s+0x37>
    5264:	0f b6 45 fc          	movzbl -0x4(%rbp),%eax
    5268:	5d                   	pop    %rbp
    5269:	c3                   	retq   

000000000000526a <safe_div_func_int8_t_s_s>:
    526a:	f3 0f 1e fa          	endbr64 
    526e:	55                   	push   %rbp
    526f:	48 89 e5             	mov    %rsp,%rbp
    5272:	89 fa                	mov    %edi,%edx
    5274:	89 f0                	mov    %esi,%eax
    5276:	88 55 fc             	mov    %dl,-0x4(%rbp)
    5279:	88 45 f8             	mov    %al,-0x8(%rbp)
    527c:	80 7d f8 00          	cmpb   $0x0,-0x8(%rbp)
    5280:	74 19                	je     529b <safe_div_func_int8_t_s_s+0x31>
    5282:	80 7d fc 80          	cmpb   $0x80,-0x4(%rbp)
    5286:	75 06                	jne    528e <safe_div_func_int8_t_s_s+0x24>
    5288:	80 7d f8 ff          	cmpb   $0xff,-0x8(%rbp)
    528c:	74 0d                	je     529b <safe_div_func_int8_t_s_s+0x31>
    528e:	0f be 45 fc          	movsbl -0x4(%rbp),%eax
    5292:	0f be 4d f8          	movsbl -0x8(%rbp),%ecx
    5296:	99                   	cltd   
    5297:	f7 f9                	idiv   %ecx
    5299:	eb 04                	jmp    529f <safe_div_func_int8_t_s_s+0x35>
    529b:	0f b6 45 fc          	movzbl -0x4(%rbp),%eax
    529f:	5d                   	pop    %rbp
    52a0:	c3                   	retq   

00000000000052a1 <safe_lshift_func_int8_t_s_s>:
    52a1:	f3 0f 1e fa          	endbr64 
    52a5:	55                   	push   %rbp
    52a6:	48 89 e5             	mov    %rsp,%rbp
    52a9:	89 f8                	mov    %edi,%eax
    52ab:	89 75 f8             	mov    %esi,-0x8(%rbp)
    52ae:	88 45 fc             	mov    %al,-0x4(%rbp)
    52b1:	80 7d fc 00          	cmpb   $0x0,-0x4(%rbp)
    52b5:	78 31                	js     52e8 <safe_lshift_func_int8_t_s_s+0x47>
    52b7:	83 7d f8 00          	cmpl   $0x0,-0x8(%rbp)
    52bb:	78 2b                	js     52e8 <safe_lshift_func_int8_t_s_s+0x47>
    52bd:	83 7d f8 1f          	cmpl   $0x1f,-0x8(%rbp)
    52c1:	7f 25                	jg     52e8 <safe_lshift_func_int8_t_s_s+0x47>
    52c3:	0f be 55 fc          	movsbl -0x4(%rbp),%edx
    52c7:	8b 45 f8             	mov    -0x8(%rbp),%eax
    52ca:	be 7f 00 00 00       	mov    $0x7f,%esi
    52cf:	89 c1                	mov    %eax,%ecx
    52d1:	d3 fe                	sar    %cl,%esi
    52d3:	89 f0                	mov    %esi,%eax
    52d5:	39 c2                	cmp    %eax,%edx
    52d7:	7f 0f                	jg     52e8 <safe_lshift_func_int8_t_s_s+0x47>
    52d9:	0f be 55 fc          	movsbl -0x4(%rbp),%edx
    52dd:	8b 45 f8             	mov    -0x8(%rbp),%eax
    52e0:	89 c1                	mov    %eax,%ecx
    52e2:	d3 e2                	shl    %cl,%edx
    52e4:	89 d0                	mov    %edx,%eax
    52e6:	eb 04                	jmp    52ec <safe_lshift_func_int8_t_s_s+0x4b>
    52e8:	0f b6 45 fc          	movzbl -0x4(%rbp),%eax
    52ec:	5d                   	pop    %rbp
    52ed:	c3                   	retq   

00000000000052ee <safe_lshift_func_int8_t_s_u>:
    52ee:	f3 0f 1e fa          	endbr64 
    52f2:	55                   	push   %rbp
    52f3:	48 89 e5             	mov    %rsp,%rbp
    52f6:	89 f8                	mov    %edi,%eax
    52f8:	89 75 f8             	mov    %esi,-0x8(%rbp)
    52fb:	88 45 fc             	mov    %al,-0x4(%rbp)
    52fe:	80 7d fc 00          	cmpb   $0x0,-0x4(%rbp)
    5302:	78 2b                	js     532f <safe_lshift_func_int8_t_s_u+0x41>
    5304:	83 7d f8 1f          	cmpl   $0x1f,-0x8(%rbp)
    5308:	77 25                	ja     532f <safe_lshift_func_int8_t_s_u+0x41>
    530a:	0f be 55 fc          	movsbl -0x4(%rbp),%edx
    530e:	8b 45 f8             	mov    -0x8(%rbp),%eax
    5311:	be 7f 00 00 00       	mov    $0x7f,%esi
    5316:	89 c1                	mov    %eax,%ecx
    5318:	d3 fe                	sar    %cl,%esi
    531a:	89 f0                	mov    %esi,%eax
    531c:	39 c2                	cmp    %eax,%edx
    531e:	7f 0f                	jg     532f <safe_lshift_func_int8_t_s_u+0x41>
    5320:	0f be 55 fc          	movsbl -0x4(%rbp),%edx
    5324:	8b 45 f8             	mov    -0x8(%rbp),%eax
    5327:	89 c1                	mov    %eax,%ecx
    5329:	d3 e2                	shl    %cl,%edx
    532b:	89 d0                	mov    %edx,%eax
    532d:	eb 04                	jmp    5333 <safe_lshift_func_int8_t_s_u+0x45>
    532f:	0f b6 45 fc          	movzbl -0x4(%rbp),%eax
    5333:	5d                   	pop    %rbp
    5334:	c3                   	retq   

0000000000005335 <safe_rshift_func_int8_t_s_s>:
    5335:	f3 0f 1e fa          	endbr64 
    5339:	55                   	push   %rbp
    533a:	48 89 e5             	mov    %rsp,%rbp
    533d:	89 f8                	mov    %edi,%eax
    533f:	89 75 f8             	mov    %esi,-0x8(%rbp)
    5342:	88 45 fc             	mov    %al,-0x4(%rbp)
    5345:	80 7d fc 00          	cmpb   $0x0,-0x4(%rbp)
    5349:	78 1b                	js     5366 <safe_rshift_func_int8_t_s_s+0x31>
    534b:	83 7d f8 00          	cmpl   $0x0,-0x8(%rbp)
    534f:	78 15                	js     5366 <safe_rshift_func_int8_t_s_s+0x31>
    5351:	83 7d f8 1f          	cmpl   $0x1f,-0x8(%rbp)
    5355:	7f 0f                	jg     5366 <safe_rshift_func_int8_t_s_s+0x31>
    5357:	0f be 55 fc          	movsbl -0x4(%rbp),%edx
    535b:	8b 45 f8             	mov    -0x8(%rbp),%eax
    535e:	89 c1                	mov    %eax,%ecx
    5360:	d3 fa                	sar    %cl,%edx
    5362:	89 d0                	mov    %edx,%eax
    5364:	eb 04                	jmp    536a <safe_rshift_func_int8_t_s_s+0x35>
    5366:	0f b6 45 fc          	movzbl -0x4(%rbp),%eax
    536a:	5d                   	pop    %rbp
    536b:	c3                   	retq   

000000000000536c <safe_rshift_func_int8_t_s_u>:
    536c:	f3 0f 1e fa          	endbr64 
    5370:	55                   	push   %rbp
    5371:	48 89 e5             	mov    %rsp,%rbp
    5374:	89 f8                	mov    %edi,%eax
    5376:	89 75 f8             	mov    %esi,-0x8(%rbp)
    5379:	88 45 fc             	mov    %al,-0x4(%rbp)
    537c:	80 7d fc 00          	cmpb   $0x0,-0x4(%rbp)
    5380:	78 15                	js     5397 <safe_rshift_func_int8_t_s_u+0x2b>
    5382:	83 7d f8 1f          	cmpl   $0x1f,-0x8(%rbp)
    5386:	77 0f                	ja     5397 <safe_rshift_func_int8_t_s_u+0x2b>
    5388:	0f be 55 fc          	movsbl -0x4(%rbp),%edx
    538c:	8b 45 f8             	mov    -0x8(%rbp),%eax
    538f:	89 c1                	mov    %eax,%ecx
    5391:	d3 fa                	sar    %cl,%edx
    5393:	89 d0                	mov    %edx,%eax
    5395:	eb 04                	jmp    539b <safe_rshift_func_int8_t_s_u+0x2f>
    5397:	0f b6 45 fc          	movzbl -0x4(%rbp),%eax
    539b:	5d                   	pop    %rbp
    539c:	c3                   	retq   

000000000000539d <safe_unary_minus_func_int16_t_s>:
    539d:	f3 0f 1e fa          	endbr64 
    53a1:	55                   	push   %rbp
    53a2:	48 89 e5             	mov    %rsp,%rbp
    53a5:	89 f8                	mov    %edi,%eax
    53a7:	66 89 45 fc          	mov    %ax,-0x4(%rbp)
    53ab:	0f b7 45 fc          	movzwl -0x4(%rbp),%eax
    53af:	f7 d8                	neg    %eax
    53b1:	5d                   	pop    %rbp
    53b2:	c3                   	retq   

00000000000053b3 <safe_add_func_int16_t_s_s>:
    53b3:	f3 0f 1e fa          	endbr64 
    53b7:	55                   	push   %rbp
    53b8:	48 89 e5             	mov    %rsp,%rbp
    53bb:	89 fa                	mov    %edi,%edx
    53bd:	89 f0                	mov    %esi,%eax
    53bf:	66 89 55 fc          	mov    %dx,-0x4(%rbp)
    53c3:	66 89 45 f8          	mov    %ax,-0x8(%rbp)
    53c7:	0f b7 55 fc          	movzwl -0x4(%rbp),%edx
    53cb:	0f b7 45 f8          	movzwl -0x8(%rbp),%eax
    53cf:	01 d0                	add    %edx,%eax
    53d1:	5d                   	pop    %rbp
    53d2:	c3                   	retq   

00000000000053d3 <safe_sub_func_int16_t_s_s>:
    53d3:	f3 0f 1e fa          	endbr64 
    53d7:	55                   	push   %rbp
    53d8:	48 89 e5             	mov    %rsp,%rbp
    53db:	89 fa                	mov    %edi,%edx
    53dd:	89 f0                	mov    %esi,%eax
    53df:	66 89 55 fc          	mov    %dx,-0x4(%rbp)
    53e3:	66 89 45 f8          	mov    %ax,-0x8(%rbp)
    53e7:	0f b7 55 fc          	movzwl -0x4(%rbp),%edx
    53eb:	0f b7 45 f8          	movzwl -0x8(%rbp),%eax
    53ef:	29 c2                	sub    %eax,%edx
    53f1:	89 d0                	mov    %edx,%eax
    53f3:	5d                   	pop    %rbp
    53f4:	c3                   	retq   

00000000000053f5 <safe_mul_func_int16_t_s_s>:
    53f5:	f3 0f 1e fa          	endbr64 
    53f9:	55                   	push   %rbp
    53fa:	48 89 e5             	mov    %rsp,%rbp
    53fd:	89 fa                	mov    %edi,%edx
    53ff:	89 f0                	mov    %esi,%eax
    5401:	66 89 55 fc          	mov    %dx,-0x4(%rbp)
    5405:	66 89 45 f8          	mov    %ax,-0x8(%rbp)
    5409:	0f b7 55 fc          	movzwl -0x4(%rbp),%edx
    540d:	0f b7 45 f8          	movzwl -0x8(%rbp),%eax
    5411:	0f af c2             	imul   %edx,%eax
    5414:	5d                   	pop    %rbp
    5415:	c3                   	retq   

0000000000005416 <safe_mod_func_int16_t_s_s>:
    5416:	f3 0f 1e fa          	endbr64 
    541a:	55                   	push   %rbp
    541b:	48 89 e5             	mov    %rsp,%rbp
    541e:	89 fa                	mov    %edi,%edx
    5420:	89 f0                	mov    %esi,%eax
    5422:	66 89 55 fc          	mov    %dx,-0x4(%rbp)
    5426:	66 89 45 f8          	mov    %ax,-0x8(%rbp)
    542a:	66 83 7d f8 00       	cmpw   $0x0,-0x8(%rbp)
    542f:	74 1e                	je     544f <safe_mod_func_int16_t_s_s+0x39>
    5431:	66 81 7d fc 00 80    	cmpw   $0x8000,-0x4(%rbp)
    5437:	75 07                	jne    5440 <safe_mod_func_int16_t_s_s+0x2a>
    5439:	66 83 7d f8 ff       	cmpw   $0xffff,-0x8(%rbp)
    543e:	74 0f                	je     544f <safe_mod_func_int16_t_s_s+0x39>
    5440:	0f bf 45 fc          	movswl -0x4(%rbp),%eax
    5444:	0f bf 4d f8          	movswl -0x8(%rbp),%ecx
    5448:	99                   	cltd   
    5449:	f7 f9                	idiv   %ecx
    544b:	89 d0                	mov    %edx,%eax
    544d:	eb 04                	jmp    5453 <safe_mod_func_int16_t_s_s+0x3d>
    544f:	0f b7 45 fc          	movzwl -0x4(%rbp),%eax
    5453:	5d                   	pop    %rbp
    5454:	c3                   	retq   

0000000000005455 <safe_div_func_int16_t_s_s>:
    5455:	f3 0f 1e fa          	endbr64 
    5459:	55                   	push   %rbp
    545a:	48 89 e5             	mov    %rsp,%rbp
    545d:	89 fa                	mov    %edi,%edx
    545f:	89 f0                	mov    %esi,%eax
    5461:	66 89 55 fc          	mov    %dx,-0x4(%rbp)
    5465:	66 89 45 f8          	mov    %ax,-0x8(%rbp)
    5469:	66 83 7d f8 00       	cmpw   $0x0,-0x8(%rbp)
    546e:	74 1c                	je     548c <safe_div_func_int16_t_s_s+0x37>
    5470:	66 81 7d fc 00 80    	cmpw   $0x8000,-0x4(%rbp)
    5476:	75 07                	jne    547f <safe_div_func_int16_t_s_s+0x2a>
    5478:	66 83 7d f8 ff       	cmpw   $0xffff,-0x8(%rbp)
    547d:	74 0d                	je     548c <safe_div_func_int16_t_s_s+0x37>
    547f:	0f bf 45 fc          	movswl -0x4(%rbp),%eax
    5483:	0f bf 4d f8          	movswl -0x8(%rbp),%ecx
    5487:	99                   	cltd   
    5488:	f7 f9                	idiv   %ecx
    548a:	eb 04                	jmp    5490 <safe_div_func_int16_t_s_s+0x3b>
    548c:	0f b7 45 fc          	movzwl -0x4(%rbp),%eax
    5490:	5d                   	pop    %rbp
    5491:	c3                   	retq   

0000000000005492 <safe_lshift_func_int16_t_s_s>:
    5492:	f3 0f 1e fa          	endbr64 
    5496:	55                   	push   %rbp
    5497:	48 89 e5             	mov    %rsp,%rbp
    549a:	89 f8                	mov    %edi,%eax
    549c:	89 75 f8             	mov    %esi,-0x8(%rbp)
    549f:	66 89 45 fc          	mov    %ax,-0x4(%rbp)
    54a3:	66 83 7d fc 00       	cmpw   $0x0,-0x4(%rbp)
    54a8:	78 31                	js     54db <safe_lshift_func_int16_t_s_s+0x49>
    54aa:	83 7d f8 00          	cmpl   $0x0,-0x8(%rbp)
    54ae:	78 2b                	js     54db <safe_lshift_func_int16_t_s_s+0x49>
    54b0:	83 7d f8 1f          	cmpl   $0x1f,-0x8(%rbp)
    54b4:	7f 25                	jg     54db <safe_lshift_func_int16_t_s_s+0x49>
    54b6:	0f bf 55 fc          	movswl -0x4(%rbp),%edx
    54ba:	8b 45 f8             	mov    -0x8(%rbp),%eax
    54bd:	be ff 7f 00 00       	mov    $0x7fff,%esi
    54c2:	89 c1                	mov    %eax,%ecx
    54c4:	d3 fe                	sar    %cl,%esi
    54c6:	89 f0                	mov    %esi,%eax
    54c8:	39 c2                	cmp    %eax,%edx
    54ca:	7f 0f                	jg     54db <safe_lshift_func_int16_t_s_s+0x49>
    54cc:	0f bf 55 fc          	movswl -0x4(%rbp),%edx
    54d0:	8b 45 f8             	mov    -0x8(%rbp),%eax
    54d3:	89 c1                	mov    %eax,%ecx
    54d5:	d3 e2                	shl    %cl,%edx
    54d7:	89 d0                	mov    %edx,%eax
    54d9:	eb 04                	jmp    54df <safe_lshift_func_int16_t_s_s+0x4d>
    54db:	0f b7 45 fc          	movzwl -0x4(%rbp),%eax
    54df:	5d                   	pop    %rbp
    54e0:	c3                   	retq   

00000000000054e1 <safe_lshift_func_int16_t_s_u>:
    54e1:	f3 0f 1e fa          	endbr64 
    54e5:	55                   	push   %rbp
    54e6:	48 89 e5             	mov    %rsp,%rbp
    54e9:	89 f8                	mov    %edi,%eax
    54eb:	89 75 f8             	mov    %esi,-0x8(%rbp)
    54ee:	66 89 45 fc          	mov    %ax,-0x4(%rbp)
    54f2:	66 83 7d fc 00       	cmpw   $0x0,-0x4(%rbp)
    54f7:	78 2b                	js     5524 <safe_lshift_func_int16_t_s_u+0x43>
    54f9:	83 7d f8 1f          	cmpl   $0x1f,-0x8(%rbp)
    54fd:	77 25                	ja     5524 <safe_lshift_func_int16_t_s_u+0x43>
    54ff:	0f bf 55 fc          	movswl -0x4(%rbp),%edx
    5503:	8b 45 f8             	mov    -0x8(%rbp),%eax
    5506:	be ff 7f 00 00       	mov    $0x7fff,%esi
    550b:	89 c1                	mov    %eax,%ecx
    550d:	d3 fe                	sar    %cl,%esi
    550f:	89 f0                	mov    %esi,%eax
    5511:	39 c2                	cmp    %eax,%edx
    5513:	7f 0f                	jg     5524 <safe_lshift_func_int16_t_s_u+0x43>
    5515:	0f bf 55 fc          	movswl -0x4(%rbp),%edx
    5519:	8b 45 f8             	mov    -0x8(%rbp),%eax
    551c:	89 c1                	mov    %eax,%ecx
    551e:	d3 e2                	shl    %cl,%edx
    5520:	89 d0                	mov    %edx,%eax
    5522:	eb 04                	jmp    5528 <safe_lshift_func_int16_t_s_u+0x47>
    5524:	0f b7 45 fc          	movzwl -0x4(%rbp),%eax
    5528:	5d                   	pop    %rbp
    5529:	c3                   	retq   

000000000000552a <safe_rshift_func_int16_t_s_s>:
    552a:	f3 0f 1e fa          	endbr64 
    552e:	55                   	push   %rbp
    552f:	48 89 e5             	mov    %rsp,%rbp
    5532:	89 f8                	mov    %edi,%eax
    5534:	89 75 f8             	mov    %esi,-0x8(%rbp)
    5537:	66 89 45 fc          	mov    %ax,-0x4(%rbp)
    553b:	66 83 7d fc 00       	cmpw   $0x0,-0x4(%rbp)
    5540:	78 1b                	js     555d <safe_rshift_func_int16_t_s_s+0x33>
    5542:	83 7d f8 00          	cmpl   $0x0,-0x8(%rbp)
    5546:	78 15                	js     555d <safe_rshift_func_int16_t_s_s+0x33>
    5548:	83 7d f8 1f          	cmpl   $0x1f,-0x8(%rbp)
    554c:	7f 0f                	jg     555d <safe_rshift_func_int16_t_s_s+0x33>
    554e:	0f bf 55 fc          	movswl -0x4(%rbp),%edx
    5552:	8b 45 f8             	mov    -0x8(%rbp),%eax
    5555:	89 c1                	mov    %eax,%ecx
    5557:	d3 fa                	sar    %cl,%edx
    5559:	89 d0                	mov    %edx,%eax
    555b:	eb 04                	jmp    5561 <safe_rshift_func_int16_t_s_s+0x37>
    555d:	0f b7 45 fc          	movzwl -0x4(%rbp),%eax
    5561:	5d                   	pop    %rbp
    5562:	c3                   	retq   

0000000000005563 <safe_rshift_func_int16_t_s_u>:
    5563:	f3 0f 1e fa          	endbr64 
    5567:	55                   	push   %rbp
    5568:	48 89 e5             	mov    %rsp,%rbp
    556b:	89 f8                	mov    %edi,%eax
    556d:	89 75 f8             	mov    %esi,-0x8(%rbp)
    5570:	66 89 45 fc          	mov    %ax,-0x4(%rbp)
    5574:	66 83 7d fc 00       	cmpw   $0x0,-0x4(%rbp)
    5579:	78 15                	js     5590 <safe_rshift_func_int16_t_s_u+0x2d>
    557b:	83 7d f8 1f          	cmpl   $0x1f,-0x8(%rbp)
    557f:	77 0f                	ja     5590 <safe_rshift_func_int16_t_s_u+0x2d>
    5581:	0f bf 55 fc          	movswl -0x4(%rbp),%edx
    5585:	8b 45 f8             	mov    -0x8(%rbp),%eax
    5588:	89 c1                	mov    %eax,%ecx
    558a:	d3 fa                	sar    %cl,%edx
    558c:	89 d0                	mov    %edx,%eax
    558e:	eb 04                	jmp    5594 <safe_rshift_func_int16_t_s_u+0x31>
    5590:	0f b7 45 fc          	movzwl -0x4(%rbp),%eax
    5594:	5d                   	pop    %rbp
    5595:	c3                   	retq   

0000000000005596 <safe_unary_minus_func_int32_t_s>:
    5596:	f3 0f 1e fa          	endbr64 
    559a:	55                   	push   %rbp
    559b:	48 89 e5             	mov    %rsp,%rbp
    559e:	89 7d fc             	mov    %edi,-0x4(%rbp)
    55a1:	81 7d fc 00 00 00 80 	cmpl   $0x80000000,-0x4(%rbp)
    55a8:	74 07                	je     55b1 <safe_unary_minus_func_int32_t_s+0x1b>
    55aa:	8b 45 fc             	mov    -0x4(%rbp),%eax
    55ad:	f7 d8                	neg    %eax
    55af:	eb 03                	jmp    55b4 <safe_unary_minus_func_int32_t_s+0x1e>
    55b1:	8b 45 fc             	mov    -0x4(%rbp),%eax
    55b4:	5d                   	pop    %rbp
    55b5:	c3                   	retq   

00000000000055b6 <safe_add_func_int32_t_s_s>:
    55b6:	f3 0f 1e fa          	endbr64 
    55ba:	55                   	push   %rbp
    55bb:	48 89 e5             	mov    %rsp,%rbp
    55be:	89 7d fc             	mov    %edi,-0x4(%rbp)
    55c1:	89 75 f8             	mov    %esi,-0x8(%rbp)
    55c4:	83 7d fc 00          	cmpl   $0x0,-0x4(%rbp)
    55c8:	7e 13                	jle    55dd <safe_add_func_int32_t_s_s+0x27>
    55ca:	83 7d f8 00          	cmpl   $0x0,-0x8(%rbp)
    55ce:	7e 0d                	jle    55dd <safe_add_func_int32_t_s_s+0x27>
    55d0:	b8 ff ff ff 7f       	mov    $0x7fffffff,%eax
    55d5:	2b 45 f8             	sub    -0x8(%rbp),%eax
    55d8:	39 45 fc             	cmp    %eax,-0x4(%rbp)
    55db:	7f 23                	jg     5600 <safe_add_func_int32_t_s_s+0x4a>
    55dd:	83 7d fc 00          	cmpl   $0x0,-0x4(%rbp)
    55e1:	79 13                	jns    55f6 <safe_add_func_int32_t_s_s+0x40>
    55e3:	83 7d f8 00          	cmpl   $0x0,-0x8(%rbp)
    55e7:	79 0d                	jns    55f6 <safe_add_func_int32_t_s_s+0x40>
    55e9:	b8 00 00 00 80       	mov    $0x80000000,%eax
    55ee:	2b 45 f8             	sub    -0x8(%rbp),%eax
    55f1:	39 45 fc             	cmp    %eax,-0x4(%rbp)
    55f4:	7c 0a                	jl     5600 <safe_add_func_int32_t_s_s+0x4a>
    55f6:	8b 55 fc             	mov    -0x4(%rbp),%edx
    55f9:	8b 45 f8             	mov    -0x8(%rbp),%eax
    55fc:	01 d0                	add    %edx,%eax
    55fe:	eb 03                	jmp    5603 <safe_add_func_int32_t_s_s+0x4d>
    5600:	8b 45 fc             	mov    -0x4(%rbp),%eax
    5603:	5d                   	pop    %rbp
    5604:	c3                   	retq   

0000000000005605 <safe_sub_func_int32_t_s_s>:
    5605:	f3 0f 1e fa          	endbr64 
    5609:	55                   	push   %rbp
    560a:	48 89 e5             	mov    %rsp,%rbp
    560d:	89 7d fc             	mov    %edi,-0x4(%rbp)
    5610:	89 75 f8             	mov    %esi,-0x8(%rbp)
    5613:	8b 45 fc             	mov    -0x4(%rbp),%eax
    5616:	33 45 f8             	xor    -0x8(%rbp),%eax
    5619:	89 c2                	mov    %eax,%edx
    561b:	8b 45 fc             	mov    -0x4(%rbp),%eax
    561e:	33 45 f8             	xor    -0x8(%rbp),%eax
    5621:	25 00 00 00 80       	and    $0x80000000,%eax
    5626:	33 45 fc             	xor    -0x4(%rbp),%eax
    5629:	2b 45 f8             	sub    -0x8(%rbp),%eax
    562c:	33 45 f8             	xor    -0x8(%rbp),%eax
    562f:	21 d0                	and    %edx,%eax
    5631:	85 c0                	test   %eax,%eax
    5633:	78 08                	js     563d <safe_sub_func_int32_t_s_s+0x38>
    5635:	8b 45 fc             	mov    -0x4(%rbp),%eax
    5638:	2b 45 f8             	sub    -0x8(%rbp),%eax
    563b:	eb 03                	jmp    5640 <safe_sub_func_int32_t_s_s+0x3b>
    563d:	8b 45 fc             	mov    -0x4(%rbp),%eax
    5640:	5d                   	pop    %rbp
    5641:	c3                   	retq   

0000000000005642 <safe_mul_func_int32_t_s_s>:
    5642:	f3 0f 1e fa          	endbr64 
    5646:	55                   	push   %rbp
    5647:	48 89 e5             	mov    %rsp,%rbp
    564a:	89 7d fc             	mov    %edi,-0x4(%rbp)
    564d:	89 75 f8             	mov    %esi,-0x8(%rbp)
    5650:	83 7d fc 00          	cmpl   $0x0,-0x4(%rbp)
    5654:	7e 14                	jle    566a <safe_mul_func_int32_t_s_s+0x28>
    5656:	83 7d f8 00          	cmpl   $0x0,-0x8(%rbp)
    565a:	7e 0e                	jle    566a <safe_mul_func_int32_t_s_s+0x28>
    565c:	b8 ff ff ff 7f       	mov    $0x7fffffff,%eax
    5661:	99                   	cltd   
    5662:	f7 7d f8             	idivl  -0x8(%rbp)
    5665:	39 45 fc             	cmp    %eax,-0x4(%rbp)
    5668:	7f 5d                	jg     56c7 <safe_mul_func_int32_t_s_s+0x85>
    566a:	83 7d fc 00          	cmpl   $0x0,-0x4(%rbp)
    566e:	7e 14                	jle    5684 <safe_mul_func_int32_t_s_s+0x42>
    5670:	83 7d f8 00          	cmpl   $0x0,-0x8(%rbp)
    5674:	7f 0e                	jg     5684 <safe_mul_func_int32_t_s_s+0x42>
    5676:	b8 00 00 00 80       	mov    $0x80000000,%eax
    567b:	99                   	cltd   
    567c:	f7 7d fc             	idivl  -0x4(%rbp)
    567f:	39 45 f8             	cmp    %eax,-0x8(%rbp)
    5682:	7c 43                	jl     56c7 <safe_mul_func_int32_t_s_s+0x85>
    5684:	83 7d fc 00          	cmpl   $0x0,-0x4(%rbp)
    5688:	7f 14                	jg     569e <safe_mul_func_int32_t_s_s+0x5c>
    568a:	83 7d f8 00          	cmpl   $0x0,-0x8(%rbp)
    568e:	7e 0e                	jle    569e <safe_mul_func_int32_t_s_s+0x5c>
    5690:	b8 00 00 00 80       	mov    $0x80000000,%eax
    5695:	99                   	cltd   
    5696:	f7 7d f8             	idivl  -0x8(%rbp)
    5699:	39 45 fc             	cmp    %eax,-0x4(%rbp)
    569c:	7c 29                	jl     56c7 <safe_mul_func_int32_t_s_s+0x85>
    569e:	83 7d fc 00          	cmpl   $0x0,-0x4(%rbp)
    56a2:	7f 1a                	jg     56be <safe_mul_func_int32_t_s_s+0x7c>
    56a4:	83 7d f8 00          	cmpl   $0x0,-0x8(%rbp)
    56a8:	7f 14                	jg     56be <safe_mul_func_int32_t_s_s+0x7c>
    56aa:	83 7d fc 00          	cmpl   $0x0,-0x4(%rbp)
    56ae:	74 0e                	je     56be <safe_mul_func_int32_t_s_s+0x7c>
    56b0:	b8 ff ff ff 7f       	mov    $0x7fffffff,%eax
    56b5:	99                   	cltd   
    56b6:	f7 7d fc             	idivl  -0x4(%rbp)
    56b9:	39 45 f8             	cmp    %eax,-0x8(%rbp)
    56bc:	7c 09                	jl     56c7 <safe_mul_func_int32_t_s_s+0x85>
    56be:	8b 45 fc             	mov    -0x4(%rbp),%eax
    56c1:	0f af 45 f8          	imul   -0x8(%rbp),%eax
    56c5:	eb 03                	jmp    56ca <safe_mul_func_int32_t_s_s+0x88>
    56c7:	8b 45 fc             	mov    -0x4(%rbp),%eax
    56ca:	5d                   	pop    %rbp
    56cb:	c3                   	retq   

00000000000056cc <safe_mod_func_int32_t_s_s>:
    56cc:	f3 0f 1e fa          	endbr64 
    56d0:	55                   	push   %rbp
    56d1:	48 89 e5             	mov    %rsp,%rbp
    56d4:	89 7d fc             	mov    %edi,-0x4(%rbp)
    56d7:	89 75 f8             	mov    %esi,-0x8(%rbp)
    56da:	83 7d f8 00          	cmpl   $0x0,-0x8(%rbp)
    56de:	74 1a                	je     56fa <safe_mod_func_int32_t_s_s+0x2e>
    56e0:	81 7d fc 00 00 00 80 	cmpl   $0x80000000,-0x4(%rbp)
    56e7:	75 06                	jne    56ef <safe_mod_func_int32_t_s_s+0x23>
    56e9:	83 7d f8 ff          	cmpl   $0xffffffff,-0x8(%rbp)
    56ed:	74 0b                	je     56fa <safe_mod_func_int32_t_s_s+0x2e>
    56ef:	8b 45 fc             	mov    -0x4(%rbp),%eax
    56f2:	99                   	cltd   
    56f3:	f7 7d f8             	idivl  -0x8(%rbp)
    56f6:	89 d0                	mov    %edx,%eax
    56f8:	eb 03                	jmp    56fd <safe_mod_func_int32_t_s_s+0x31>
    56fa:	8b 45 fc             	mov    -0x4(%rbp),%eax
    56fd:	5d                   	pop    %rbp
    56fe:	c3                   	retq   

00000000000056ff <safe_div_func_int32_t_s_s>:
    56ff:	f3 0f 1e fa          	endbr64 
    5703:	55                   	push   %rbp
    5704:	48 89 e5             	mov    %rsp,%rbp
    5707:	89 7d fc             	mov    %edi,-0x4(%rbp)
    570a:	89 75 f8             	mov    %esi,-0x8(%rbp)
    570d:	83 7d f8 00          	cmpl   $0x0,-0x8(%rbp)
    5711:	74 18                	je     572b <safe_div_func_int32_t_s_s+0x2c>
    5713:	81 7d fc 00 00 00 80 	cmpl   $0x80000000,-0x4(%rbp)
    571a:	75 06                	jne    5722 <safe_div_func_int32_t_s_s+0x23>
    571c:	83 7d f8 ff          	cmpl   $0xffffffff,-0x8(%rbp)
    5720:	74 09                	je     572b <safe_div_func_int32_t_s_s+0x2c>
    5722:	8b 45 fc             	mov    -0x4(%rbp),%eax
    5725:	99                   	cltd   
    5726:	f7 7d f8             	idivl  -0x8(%rbp)
    5729:	eb 03                	jmp    572e <safe_div_func_int32_t_s_s+0x2f>
    572b:	8b 45 fc             	mov    -0x4(%rbp),%eax
    572e:	5d                   	pop    %rbp
    572f:	c3                   	retq   

0000000000005730 <safe_lshift_func_int32_t_s_s>:
    5730:	f3 0f 1e fa          	endbr64 
    5734:	55                   	push   %rbp
    5735:	48 89 e5             	mov    %rsp,%rbp
    5738:	89 7d fc             	mov    %edi,-0x4(%rbp)
    573b:	89 75 f8             	mov    %esi,-0x8(%rbp)
    573e:	83 7d fc 00          	cmpl   $0x0,-0x4(%rbp)
    5742:	78 2d                	js     5771 <safe_lshift_func_int32_t_s_s+0x41>
    5744:	83 7d f8 00          	cmpl   $0x0,-0x8(%rbp)
    5748:	78 27                	js     5771 <safe_lshift_func_int32_t_s_s+0x41>
    574a:	83 7d f8 1f          	cmpl   $0x1f,-0x8(%rbp)
    574e:	7f 21                	jg     5771 <safe_lshift_func_int32_t_s_s+0x41>
    5750:	8b 45 f8             	mov    -0x8(%rbp),%eax
    5753:	ba ff ff ff 7f       	mov    $0x7fffffff,%edx
    5758:	89 c1                	mov    %eax,%ecx
    575a:	d3 fa                	sar    %cl,%edx
    575c:	89 d0                	mov    %edx,%eax
    575e:	39 45 fc             	cmp    %eax,-0x4(%rbp)
    5761:	7f 0e                	jg     5771 <safe_lshift_func_int32_t_s_s+0x41>
    5763:	8b 45 f8             	mov    -0x8(%rbp),%eax
    5766:	8b 55 fc             	mov    -0x4(%rbp),%edx
    5769:	89 c1                	mov    %eax,%ecx
    576b:	d3 e2                	shl    %cl,%edx
    576d:	89 d0                	mov    %edx,%eax
    576f:	eb 03                	jmp    5774 <safe_lshift_func_int32_t_s_s+0x44>
    5771:	8b 45 fc             	mov    -0x4(%rbp),%eax
    5774:	5d                   	pop    %rbp
    5775:	c3                   	retq   

0000000000005776 <safe_lshift_func_int32_t_s_u>:
    5776:	f3 0f 1e fa          	endbr64 
    577a:	55                   	push   %rbp
    577b:	48 89 e5             	mov    %rsp,%rbp
    577e:	89 7d fc             	mov    %edi,-0x4(%rbp)
    5781:	89 75 f8             	mov    %esi,-0x8(%rbp)
    5784:	83 7d fc 00          	cmpl   $0x0,-0x4(%rbp)
    5788:	78 27                	js     57b1 <safe_lshift_func_int32_t_s_u+0x3b>
    578a:	83 7d f8 1f          	cmpl   $0x1f,-0x8(%rbp)
    578e:	77 21                	ja     57b1 <safe_lshift_func_int32_t_s_u+0x3b>
    5790:	8b 45 f8             	mov    -0x8(%rbp),%eax
    5793:	ba ff ff ff 7f       	mov    $0x7fffffff,%edx
    5798:	89 c1                	mov    %eax,%ecx
    579a:	d3 fa                	sar    %cl,%edx
    579c:	89 d0                	mov    %edx,%eax
    579e:	39 45 fc             	cmp    %eax,-0x4(%rbp)
    57a1:	7f 0e                	jg     57b1 <safe_lshift_func_int32_t_s_u+0x3b>
    57a3:	8b 45 f8             	mov    -0x8(%rbp),%eax
    57a6:	8b 55 fc             	mov    -0x4(%rbp),%edx
    57a9:	89 c1                	mov    %eax,%ecx
    57ab:	d3 e2                	shl    %cl,%edx
    57ad:	89 d0                	mov    %edx,%eax
    57af:	eb 03                	jmp    57b4 <safe_lshift_func_int32_t_s_u+0x3e>
    57b1:	8b 45 fc             	mov    -0x4(%rbp),%eax
    57b4:	5d                   	pop    %rbp
    57b5:	c3                   	retq   

00000000000057b6 <safe_rshift_func_int32_t_s_s>:
    57b6:	f3 0f 1e fa          	endbr64 
    57ba:	55                   	push   %rbp
    57bb:	48 89 e5             	mov    %rsp,%rbp
    57be:	89 7d fc             	mov    %edi,-0x4(%rbp)
    57c1:	89 75 f8             	mov    %esi,-0x8(%rbp)
    57c4:	83 7d fc 00          	cmpl   $0x0,-0x4(%rbp)
    57c8:	78 1a                	js     57e4 <safe_rshift_func_int32_t_s_s+0x2e>
    57ca:	83 7d f8 00          	cmpl   $0x0,-0x8(%rbp)
    57ce:	78 14                	js     57e4 <safe_rshift_func_int32_t_s_s+0x2e>
    57d0:	83 7d f8 1f          	cmpl   $0x1f,-0x8(%rbp)
    57d4:	7f 0e                	jg     57e4 <safe_rshift_func_int32_t_s_s+0x2e>
    57d6:	8b 45 f8             	mov    -0x8(%rbp),%eax
    57d9:	8b 55 fc             	mov    -0x4(%rbp),%edx
    57dc:	89 c1                	mov    %eax,%ecx
    57de:	d3 fa                	sar    %cl,%edx
    57e0:	89 d0                	mov    %edx,%eax
    57e2:	eb 03                	jmp    57e7 <safe_rshift_func_int32_t_s_s+0x31>
    57e4:	8b 45 fc             	mov    -0x4(%rbp),%eax
    57e7:	5d                   	pop    %rbp
    57e8:	c3                   	retq   

00000000000057e9 <safe_rshift_func_int32_t_s_u>:
    57e9:	f3 0f 1e fa          	endbr64 
    57ed:	55                   	push   %rbp
    57ee:	48 89 e5             	mov    %rsp,%rbp
    57f1:	89 7d fc             	mov    %edi,-0x4(%rbp)
    57f4:	89 75 f8             	mov    %esi,-0x8(%rbp)
    57f7:	83 7d fc 00          	cmpl   $0x0,-0x4(%rbp)
    57fb:	78 14                	js     5811 <safe_rshift_func_int32_t_s_u+0x28>
    57fd:	83 7d f8 1f          	cmpl   $0x1f,-0x8(%rbp)
    5801:	77 0e                	ja     5811 <safe_rshift_func_int32_t_s_u+0x28>
    5803:	8b 45 f8             	mov    -0x8(%rbp),%eax
    5806:	8b 55 fc             	mov    -0x4(%rbp),%edx
    5809:	89 c1                	mov    %eax,%ecx
    580b:	d3 fa                	sar    %cl,%edx
    580d:	89 d0                	mov    %edx,%eax
    580f:	eb 03                	jmp    5814 <safe_rshift_func_int32_t_s_u+0x2b>
    5811:	8b 45 fc             	mov    -0x4(%rbp),%eax
    5814:	5d                   	pop    %rbp
    5815:	c3                   	retq   

0000000000005816 <safe_unary_minus_func_int64_t_s>:
    5816:	f3 0f 1e fa          	endbr64 
    581a:	55                   	push   %rbp
    581b:	48 89 e5             	mov    %rsp,%rbp
    581e:	48 89 7d f8          	mov    %rdi,-0x8(%rbp)
    5822:	48 b8 00 00 00 00 00 	movabs $0x8000000000000000,%rax
    5829:	00 00 80 
    582c:	48 39 45 f8          	cmp    %rax,-0x8(%rbp)
    5830:	74 09                	je     583b <safe_unary_minus_func_int64_t_s+0x25>
    5832:	48 8b 45 f8          	mov    -0x8(%rbp),%rax
    5836:	48 f7 d8             	neg    %rax
    5839:	eb 04                	jmp    583f <safe_unary_minus_func_int64_t_s+0x29>
    583b:	48 8b 45 f8          	mov    -0x8(%rbp),%rax
    583f:	5d                   	pop    %rbp
    5840:	c3                   	retq   

0000000000005841 <safe_add_func_int64_t_s_s>:
    5841:	f3 0f 1e fa          	endbr64 
    5845:	55                   	push   %rbp
    5846:	48 89 e5             	mov    %rsp,%rbp
    5849:	48 89 7d f8          	mov    %rdi,-0x8(%rbp)
    584d:	48 89 75 f0          	mov    %rsi,-0x10(%rbp)
    5851:	48 83 7d f8 00       	cmpq   $0x0,-0x8(%rbp)
    5856:	7e 1b                	jle    5873 <safe_add_func_int64_t_s_s+0x32>
    5858:	48 83 7d f0 00       	cmpq   $0x0,-0x10(%rbp)
    585d:	7e 14                	jle    5873 <safe_add_func_int64_t_s_s+0x32>
    585f:	48 b8 ff ff ff ff ff 	movabs $0x7fffffffffffffff,%rax
    5866:	ff ff 7f 
    5869:	48 2b 45 f0          	sub    -0x10(%rbp),%rax
    586d:	48 39 45 f8          	cmp    %rax,-0x8(%rbp)
    5871:	7f 2f                	jg     58a2 <safe_add_func_int64_t_s_s+0x61>
    5873:	48 83 7d f8 00       	cmpq   $0x0,-0x8(%rbp)
    5878:	79 1b                	jns    5895 <safe_add_func_int64_t_s_s+0x54>
    587a:	48 83 7d f0 00       	cmpq   $0x0,-0x10(%rbp)
    587f:	79 14                	jns    5895 <safe_add_func_int64_t_s_s+0x54>
    5881:	48 b8 00 00 00 00 00 	movabs $0x8000000000000000,%rax
    5888:	00 00 80 
    588b:	48 2b 45 f0          	sub    -0x10(%rbp),%rax
    588f:	48 39 45 f8          	cmp    %rax,-0x8(%rbp)
    5893:	7c 0d                	jl     58a2 <safe_add_func_int64_t_s_s+0x61>
    5895:	48 8b 55 f8          	mov    -0x8(%rbp),%rdx
    5899:	48 8b 45 f0          	mov    -0x10(%rbp),%rax
    589d:	48 01 d0             	add    %rdx,%rax
    58a0:	eb 04                	jmp    58a6 <safe_add_func_int64_t_s_s+0x65>
    58a2:	48 8b 45 f8          	mov    -0x8(%rbp),%rax
    58a6:	5d                   	pop    %rbp
    58a7:	c3                   	retq   

00000000000058a8 <safe_sub_func_int64_t_s_s>:
    58a8:	f3 0f 1e fa          	endbr64 
    58ac:	55                   	push   %rbp
    58ad:	48 89 e5             	mov    %rsp,%rbp
    58b0:	48 89 7d f8          	mov    %rdi,-0x8(%rbp)
    58b4:	48 89 75 f0          	mov    %rsi,-0x10(%rbp)
    58b8:	48 8b 45 f8          	mov    -0x8(%rbp),%rax
    58bc:	48 33 45 f0          	xor    -0x10(%rbp),%rax
    58c0:	48 89 c2             	mov    %rax,%rdx
    58c3:	48 8b 45 f8          	mov    -0x8(%rbp),%rax
    58c7:	48 33 45 f0          	xor    -0x10(%rbp),%rax
    58cb:	48 b9 00 00 00 00 00 	movabs $0x8000000000000000,%rcx
    58d2:	00 00 80 
    58d5:	48 21 c8             	and    %rcx,%rax
    58d8:	48 33 45 f8          	xor    -0x8(%rbp),%rax
    58dc:	48 2b 45 f0          	sub    -0x10(%rbp),%rax
    58e0:	48 33 45 f0          	xor    -0x10(%rbp),%rax
    58e4:	48 21 d0             	and    %rdx,%rax
    58e7:	48 85 c0             	test   %rax,%rax
    58ea:	78 0a                	js     58f6 <safe_sub_func_int64_t_s_s+0x4e>
    58ec:	48 8b 45 f8          	mov    -0x8(%rbp),%rax
    58f0:	48 2b 45 f0          	sub    -0x10(%rbp),%rax
    58f4:	eb 04                	jmp    58fa <safe_sub_func_int64_t_s_s+0x52>
    58f6:	48 8b 45 f8          	mov    -0x8(%rbp),%rax
    58fa:	5d                   	pop    %rbp
    58fb:	c3                   	retq   

00000000000058fc <safe_mul_func_int64_t_s_s>:
    58fc:	f3 0f 1e fa          	endbr64 
    5900:	55                   	push   %rbp
    5901:	48 89 e5             	mov    %rsp,%rbp
    5904:	48 89 7d f8          	mov    %rdi,-0x8(%rbp)
    5908:	48 89 75 f0          	mov    %rsi,-0x10(%rbp)
    590c:	48 83 7d f8 00       	cmpq   $0x0,-0x8(%rbp)
    5911:	7e 1d                	jle    5930 <safe_mul_func_int64_t_s_s+0x34>
    5913:	48 83 7d f0 00       	cmpq   $0x0,-0x10(%rbp)
    5918:	7e 16                	jle    5930 <safe_mul_func_int64_t_s_s+0x34>
    591a:	48 b8 ff ff ff ff ff 	movabs $0x7fffffffffffffff,%rax
    5921:	ff ff 7f 
    5924:	48 99                	cqto   
    5926:	48 f7 7d f0          	idivq  -0x10(%rbp)
    592a:	48 39 45 f8          	cmp    %rax,-0x8(%rbp)
    592e:	7f 7e                	jg     59ae <safe_mul_func_int64_t_s_s+0xb2>
    5930:	48 83 7d f8 00       	cmpq   $0x0,-0x8(%rbp)
    5935:	7e 1d                	jle    5954 <safe_mul_func_int64_t_s_s+0x58>
    5937:	48 83 7d f0 00       	cmpq   $0x0,-0x10(%rbp)
    593c:	7f 16                	jg     5954 <safe_mul_func_int64_t_s_s+0x58>
    593e:	48 b8 00 00 00 00 00 	movabs $0x8000000000000000,%rax
    5945:	00 00 80 
    5948:	48 99                	cqto   
    594a:	48 f7 7d f8          	idivq  -0x8(%rbp)
    594e:	48 39 45 f0          	cmp    %rax,-0x10(%rbp)
    5952:	7c 5a                	jl     59ae <safe_mul_func_int64_t_s_s+0xb2>
    5954:	48 83 7d f8 00       	cmpq   $0x0,-0x8(%rbp)
    5959:	7f 1d                	jg     5978 <safe_mul_func_int64_t_s_s+0x7c>
    595b:	48 83 7d f0 00       	cmpq   $0x0,-0x10(%rbp)
    5960:	7e 16                	jle    5978 <safe_mul_func_int64_t_s_s+0x7c>
    5962:	48 b8 00 00 00 00 00 	movabs $0x8000000000000000,%rax
    5969:	00 00 80 
    596c:	48 99                	cqto   
    596e:	48 f7 7d f0          	idivq  -0x10(%rbp)
    5972:	48 39 45 f8          	cmp    %rax,-0x8(%rbp)
    5976:	7c 36                	jl     59ae <safe_mul_func_int64_t_s_s+0xb2>
    5978:	48 83 7d f8 00       	cmpq   $0x0,-0x8(%rbp)
    597d:	7f 24                	jg     59a3 <safe_mul_func_int64_t_s_s+0xa7>
    597f:	48 83 7d f0 00       	cmpq   $0x0,-0x10(%rbp)
    5984:	7f 1d                	jg     59a3 <safe_mul_func_int64_t_s_s+0xa7>
    5986:	48 83 7d f8 00       	cmpq   $0x0,-0x8(%rbp)
    598b:	74 16                	je     59a3 <safe_mul_func_int64_t_s_s+0xa7>
    598d:	48 b8 ff ff ff ff ff 	movabs $0x7fffffffffffffff,%rax
    5994:	ff ff 7f 
    5997:	48 99                	cqto   
    5999:	48 f7 7d f8          	idivq  -0x8(%rbp)
    599d:	48 39 45 f0          	cmp    %rax,-0x10(%rbp)
    59a1:	7c 0b                	jl     59ae <safe_mul_func_int64_t_s_s+0xb2>
    59a3:	48 8b 45 f8          	mov    -0x8(%rbp),%rax
    59a7:	48 0f af 45 f0       	imul   -0x10(%rbp),%rax
    59ac:	eb 04                	jmp    59b2 <safe_mul_func_int64_t_s_s+0xb6>
    59ae:	48 8b 45 f8          	mov    -0x8(%rbp),%rax
    59b2:	5d                   	pop    %rbp
    59b3:	c3                   	retq   

00000000000059b4 <safe_mod_func_int64_t_s_s>:
    59b4:	f3 0f 1e fa          	endbr64 
    59b8:	55                   	push   %rbp
    59b9:	48 89 e5             	mov    %rsp,%rbp
    59bc:	48 89 7d f8          	mov    %rdi,-0x8(%rbp)
    59c0:	48 89 75 f0          	mov    %rsi,-0x10(%rbp)
    59c4:	48 83 7d f0 00       	cmpq   $0x0,-0x10(%rbp)
    59c9:	74 26                	je     59f1 <safe_mod_func_int64_t_s_s+0x3d>
    59cb:	48 b8 00 00 00 00 00 	movabs $0x8000000000000000,%rax
    59d2:	00 00 80 
    59d5:	48 39 45 f8          	cmp    %rax,-0x8(%rbp)
    59d9:	75 07                	jne    59e2 <safe_mod_func_int64_t_s_s+0x2e>
    59db:	48 83 7d f0 ff       	cmpq   $0xffffffffffffffff,-0x10(%rbp)
    59e0:	74 0f                	je     59f1 <safe_mod_func_int64_t_s_s+0x3d>
    59e2:	48 8b 45 f8          	mov    -0x8(%rbp),%rax
    59e6:	48 99                	cqto   
    59e8:	48 f7 7d f0          	idivq  -0x10(%rbp)
    59ec:	48 89 d0             	mov    %rdx,%rax
    59ef:	eb 04                	jmp    59f5 <safe_mod_func_int64_t_s_s+0x41>
    59f1:	48 8b 45 f8          	mov    -0x8(%rbp),%rax
    59f5:	5d                   	pop    %rbp
    59f6:	c3                   	retq   

00000000000059f7 <safe_div_func_int64_t_s_s>:
    59f7:	f3 0f 1e fa          	endbr64 
    59fb:	55                   	push   %rbp
    59fc:	48 89 e5             	mov    %rsp,%rbp
    59ff:	48 89 7d f8          	mov    %rdi,-0x8(%rbp)
    5a03:	48 89 75 f0          	mov    %rsi,-0x10(%rbp)
    5a07:	48 83 7d f0 00       	cmpq   $0x0,-0x10(%rbp)
    5a0c:	74 23                	je     5a31 <safe_div_func_int64_t_s_s+0x3a>
    5a0e:	48 b8 00 00 00 00 00 	movabs $0x8000000000000000,%rax
    5a15:	00 00 80 
    5a18:	48 39 45 f8          	cmp    %rax,-0x8(%rbp)
    5a1c:	75 07                	jne    5a25 <safe_div_func_int64_t_s_s+0x2e>
    5a1e:	48 83 7d f0 ff       	cmpq   $0xffffffffffffffff,-0x10(%rbp)
    5a23:	74 0c                	je     5a31 <safe_div_func_int64_t_s_s+0x3a>
    5a25:	48 8b 45 f8          	mov    -0x8(%rbp),%rax
    5a29:	48 99                	cqto   
    5a2b:	48 f7 7d f0          	idivq  -0x10(%rbp)
    5a2f:	eb 04                	jmp    5a35 <safe_div_func_int64_t_s_s+0x3e>
    5a31:	48 8b 45 f8          	mov    -0x8(%rbp),%rax
    5a35:	5d                   	pop    %rbp
    5a36:	c3                   	retq   

0000000000005a37 <safe_lshift_func_int64_t_s_s>:
    5a37:	f3 0f 1e fa          	endbr64 
    5a3b:	55                   	push   %rbp
    5a3c:	48 89 e5             	mov    %rsp,%rbp
    5a3f:	48 89 7d f8          	mov    %rdi,-0x8(%rbp)
    5a43:	89 75 f4             	mov    %esi,-0xc(%rbp)
    5a46:	48 83 7d f8 00       	cmpq   $0x0,-0x8(%rbp)
    5a4b:	78 38                	js     5a85 <safe_lshift_func_int64_t_s_s+0x4e>
    5a4d:	83 7d f4 00          	cmpl   $0x0,-0xc(%rbp)
    5a51:	78 32                	js     5a85 <safe_lshift_func_int64_t_s_s+0x4e>
    5a53:	83 7d f4 1f          	cmpl   $0x1f,-0xc(%rbp)
    5a57:	7f 2c                	jg     5a85 <safe_lshift_func_int64_t_s_s+0x4e>
    5a59:	8b 45 f4             	mov    -0xc(%rbp),%eax
    5a5c:	48 ba ff ff ff ff ff 	movabs $0x7fffffffffffffff,%rdx
    5a63:	ff ff 7f 
    5a66:	89 c1                	mov    %eax,%ecx
    5a68:	48 d3 fa             	sar    %cl,%rdx
    5a6b:	48 89 d0             	mov    %rdx,%rax
    5a6e:	48 39 45 f8          	cmp    %rax,-0x8(%rbp)
    5a72:	7f 11                	jg     5a85 <safe_lshift_func_int64_t_s_s+0x4e>
    5a74:	8b 45 f4             	mov    -0xc(%rbp),%eax
    5a77:	48 8b 55 f8          	mov    -0x8(%rbp),%rdx
    5a7b:	89 c1                	mov    %eax,%ecx
    5a7d:	48 d3 e2             	shl    %cl,%rdx
    5a80:	48 89 d0             	mov    %rdx,%rax
    5a83:	eb 04                	jmp    5a89 <safe_lshift_func_int64_t_s_s+0x52>
    5a85:	48 8b 45 f8          	mov    -0x8(%rbp),%rax
    5a89:	5d                   	pop    %rbp
    5a8a:	c3                   	retq   

0000000000005a8b <safe_lshift_func_int64_t_s_u>:
    5a8b:	f3 0f 1e fa          	endbr64 
    5a8f:	55                   	push   %rbp
    5a90:	48 89 e5             	mov    %rsp,%rbp
    5a93:	48 89 7d f8          	mov    %rdi,-0x8(%rbp)
    5a97:	89 75 f4             	mov    %esi,-0xc(%rbp)
    5a9a:	48 83 7d f8 00       	cmpq   $0x0,-0x8(%rbp)
    5a9f:	78 32                	js     5ad3 <safe_lshift_func_int64_t_s_u+0x48>
    5aa1:	83 7d f4 1f          	cmpl   $0x1f,-0xc(%rbp)
    5aa5:	77 2c                	ja     5ad3 <safe_lshift_func_int64_t_s_u+0x48>
    5aa7:	8b 45 f4             	mov    -0xc(%rbp),%eax
    5aaa:	48 ba ff ff ff ff ff 	movabs $0x7fffffffffffffff,%rdx
    5ab1:	ff ff 7f 
    5ab4:	89 c1                	mov    %eax,%ecx
    5ab6:	48 d3 fa             	sar    %cl,%rdx
    5ab9:	48 89 d0             	mov    %rdx,%rax
    5abc:	48 39 45 f8          	cmp    %rax,-0x8(%rbp)
    5ac0:	7f 11                	jg     5ad3 <safe_lshift_func_int64_t_s_u+0x48>
    5ac2:	8b 45 f4             	mov    -0xc(%rbp),%eax
    5ac5:	48 8b 55 f8          	mov    -0x8(%rbp),%rdx
    5ac9:	89 c1                	mov    %eax,%ecx
    5acb:	48 d3 e2             	shl    %cl,%rdx
    5ace:	48 89 d0             	mov    %rdx,%rax
    5ad1:	eb 04                	jmp    5ad7 <safe_lshift_func_int64_t_s_u+0x4c>
    5ad3:	48 8b 45 f8          	mov    -0x8(%rbp),%rax
    5ad7:	5d                   	pop    %rbp
    5ad8:	c3                   	retq   

0000000000005ad9 <safe_rshift_func_int64_t_s_s>:
    5ad9:	f3 0f 1e fa          	endbr64 
    5add:	55                   	push   %rbp
    5ade:	48 89 e5             	mov    %rsp,%rbp
    5ae1:	48 89 7d f8          	mov    %rdi,-0x8(%rbp)
    5ae5:	89 75 f4             	mov    %esi,-0xc(%rbp)
    5ae8:	48 83 7d f8 00       	cmpq   $0x0,-0x8(%rbp)
    5aed:	78 1d                	js     5b0c <safe_rshift_func_int64_t_s_s+0x33>
    5aef:	83 7d f4 00          	cmpl   $0x0,-0xc(%rbp)
    5af3:	78 17                	js     5b0c <safe_rshift_func_int64_t_s_s+0x33>
    5af5:	83 7d f4 1f          	cmpl   $0x1f,-0xc(%rbp)
    5af9:	7f 11                	jg     5b0c <safe_rshift_func_int64_t_s_s+0x33>
    5afb:	8b 45 f4             	mov    -0xc(%rbp),%eax
    5afe:	48 8b 55 f8          	mov    -0x8(%rbp),%rdx
    5b02:	89 c1                	mov    %eax,%ecx
    5b04:	48 d3 fa             	sar    %cl,%rdx
    5b07:	48 89 d0             	mov    %rdx,%rax
    5b0a:	eb 04                	jmp    5b10 <safe_rshift_func_int64_t_s_s+0x37>
    5b0c:	48 8b 45 f8          	mov    -0x8(%rbp),%rax
    5b10:	5d                   	pop    %rbp
    5b11:	c3                   	retq   

0000000000005b12 <safe_rshift_func_int64_t_s_u>:
    5b12:	f3 0f 1e fa          	endbr64 
    5b16:	55                   	push   %rbp
    5b17:	48 89 e5             	mov    %rsp,%rbp
    5b1a:	48 89 7d f8          	mov    %rdi,-0x8(%rbp)
    5b1e:	89 75 f4             	mov    %esi,-0xc(%rbp)
    5b21:	48 83 7d f8 00       	cmpq   $0x0,-0x8(%rbp)
    5b26:	78 17                	js     5b3f <safe_rshift_func_int64_t_s_u+0x2d>
    5b28:	83 7d f4 1f          	cmpl   $0x1f,-0xc(%rbp)
    5b2c:	77 11                	ja     5b3f <safe_rshift_func_int64_t_s_u+0x2d>
    5b2e:	8b 45 f4             	mov    -0xc(%rbp),%eax
    5b31:	48 8b 55 f8          	mov    -0x8(%rbp),%rdx
    5b35:	89 c1                	mov    %eax,%ecx
    5b37:	48 d3 fa             	sar    %cl,%rdx
    5b3a:	48 89 d0             	mov    %rdx,%rax
    5b3d:	eb 04                	jmp    5b43 <safe_rshift_func_int64_t_s_u+0x31>
    5b3f:	48 8b 45 f8          	mov    -0x8(%rbp),%rax
    5b43:	5d                   	pop    %rbp
    5b44:	c3                   	retq   

0000000000005b45 <safe_unary_minus_func_uint8_t_u>:
    5b45:	f3 0f 1e fa          	endbr64 
    5b49:	55                   	push   %rbp
    5b4a:	48 89 e5             	mov    %rsp,%rbp
    5b4d:	89 f8                	mov    %edi,%eax
    5b4f:	88 45 fc             	mov    %al,-0x4(%rbp)
    5b52:	0f b6 45 fc          	movzbl -0x4(%rbp),%eax
    5b56:	f7 d8                	neg    %eax
    5b58:	5d                   	pop    %rbp
    5b59:	c3                   	retq   

0000000000005b5a <safe_add_func_uint8_t_u_u>:
    5b5a:	f3 0f 1e fa          	endbr64 
    5b5e:	55                   	push   %rbp
    5b5f:	48 89 e5             	mov    %rsp,%rbp
    5b62:	89 fa                	mov    %edi,%edx
    5b64:	89 f0                	mov    %esi,%eax
    5b66:	88 55 fc             	mov    %dl,-0x4(%rbp)
    5b69:	88 45 f8             	mov    %al,-0x8(%rbp)
    5b6c:	0f b6 55 fc          	movzbl -0x4(%rbp),%edx
    5b70:	0f b6 45 f8          	movzbl -0x8(%rbp),%eax
    5b74:	01 d0                	add    %edx,%eax
    5b76:	5d                   	pop    %rbp
    5b77:	c3                   	retq   

0000000000005b78 <safe_sub_func_uint8_t_u_u>:
    5b78:	f3 0f 1e fa          	endbr64 
    5b7c:	55                   	push   %rbp
    5b7d:	48 89 e5             	mov    %rsp,%rbp
    5b80:	89 fa                	mov    %edi,%edx
    5b82:	89 f0                	mov    %esi,%eax
    5b84:	88 55 fc             	mov    %dl,-0x4(%rbp)
    5b87:	88 45 f8             	mov    %al,-0x8(%rbp)
    5b8a:	0f b6 45 fc          	movzbl -0x4(%rbp),%eax
    5b8e:	2a 45 f8             	sub    -0x8(%rbp),%al
    5b91:	5d                   	pop    %rbp
    5b92:	c3                   	retq   

0000000000005b93 <safe_mul_func_uint8_t_u_u>:
    5b93:	f3 0f 1e fa          	endbr64 
    5b97:	55                   	push   %rbp
    5b98:	48 89 e5             	mov    %rsp,%rbp
    5b9b:	89 fa                	mov    %edi,%edx
    5b9d:	89 f0                	mov    %esi,%eax
    5b9f:	88 55 fc             	mov    %dl,-0x4(%rbp)
    5ba2:	88 45 f8             	mov    %al,-0x8(%rbp)
    5ba5:	0f b6 45 fc          	movzbl -0x4(%rbp),%eax
    5ba9:	f6 65 f8             	mulb   -0x8(%rbp)
    5bac:	5d                   	pop    %rbp
    5bad:	c3                   	retq   

0000000000005bae <safe_mod_func_uint8_t_u_u>:
    5bae:	f3 0f 1e fa          	endbr64 
    5bb2:	55                   	push   %rbp
    5bb3:	48 89 e5             	mov    %rsp,%rbp
    5bb6:	89 fa                	mov    %edi,%edx
    5bb8:	89 f0                	mov    %esi,%eax
    5bba:	88 55 fc             	mov    %dl,-0x4(%rbp)
    5bbd:	88 45 f8             	mov    %al,-0x8(%rbp)
    5bc0:	80 7d f8 00          	cmpb   $0x0,-0x8(%rbp)
    5bc4:	74 0f                	je     5bd5 <safe_mod_func_uint8_t_u_u+0x27>
    5bc6:	0f b6 45 fc          	movzbl -0x4(%rbp),%eax
    5bca:	0f b6 c0             	movzbl %al,%eax
    5bcd:	f6 75 f8             	divb   -0x8(%rbp)
    5bd0:	0f b6 c4             	movzbl %ah,%eax
    5bd3:	eb 04                	jmp    5bd9 <safe_mod_func_uint8_t_u_u+0x2b>
    5bd5:	0f b6 45 fc          	movzbl -0x4(%rbp),%eax
    5bd9:	5d                   	pop    %rbp
    5bda:	c3                   	retq   

0000000000005bdb <safe_div_func_uint8_t_u_u>:
    5bdb:	f3 0f 1e fa          	endbr64 
    5bdf:	55                   	push   %rbp
    5be0:	48 89 e5             	mov    %rsp,%rbp
    5be3:	89 fa                	mov    %edi,%edx
    5be5:	89 f0                	mov    %esi,%eax
    5be7:	88 55 fc             	mov    %dl,-0x4(%rbp)
    5bea:	88 45 f8             	mov    %al,-0x8(%rbp)
    5bed:	80 7d f8 00          	cmpb   $0x0,-0x8(%rbp)
    5bf1:	74 0c                	je     5bff <safe_div_func_uint8_t_u_u+0x24>
    5bf3:	0f b6 45 fc          	movzbl -0x4(%rbp),%eax
    5bf7:	0f b6 c0             	movzbl %al,%eax
    5bfa:	f6 75 f8             	divb   -0x8(%rbp)
    5bfd:	eb 04                	jmp    5c03 <safe_div_func_uint8_t_u_u+0x28>
    5bff:	0f b6 45 fc          	movzbl -0x4(%rbp),%eax
    5c03:	5d                   	pop    %rbp
    5c04:	c3                   	retq   

0000000000005c05 <safe_lshift_func_uint8_t_u_s>:
    5c05:	f3 0f 1e fa          	endbr64 
    5c09:	55                   	push   %rbp
    5c0a:	48 89 e5             	mov    %rsp,%rbp
    5c0d:	89 f8                	mov    %edi,%eax
    5c0f:	89 75 f8             	mov    %esi,-0x8(%rbp)
    5c12:	88 45 fc             	mov    %al,-0x4(%rbp)
    5c15:	83 7d f8 00          	cmpl   $0x0,-0x8(%rbp)
    5c19:	78 2b                	js     5c46 <safe_lshift_func_uint8_t_u_s+0x41>
    5c1b:	83 7d f8 1f          	cmpl   $0x1f,-0x8(%rbp)
    5c1f:	7f 25                	jg     5c46 <safe_lshift_func_uint8_t_u_s+0x41>
    5c21:	0f b6 55 fc          	movzbl -0x4(%rbp),%edx
    5c25:	8b 45 f8             	mov    -0x8(%rbp),%eax
    5c28:	be ff 00 00 00       	mov    $0xff,%esi
    5c2d:	89 c1                	mov    %eax,%ecx
    5c2f:	d3 fe                	sar    %cl,%esi
    5c31:	89 f0                	mov    %esi,%eax
    5c33:	39 c2                	cmp    %eax,%edx
    5c35:	7f 0f                	jg     5c46 <safe_lshift_func_uint8_t_u_s+0x41>
    5c37:	0f b6 55 fc          	movzbl -0x4(%rbp),%edx
    5c3b:	8b 45 f8             	mov    -0x8(%rbp),%eax
    5c3e:	89 c1                	mov    %eax,%ecx
    5c40:	d3 e2                	shl    %cl,%edx
    5c42:	89 d0                	mov    %edx,%eax
    5c44:	eb 04                	jmp    5c4a <safe_lshift_func_uint8_t_u_s+0x45>
    5c46:	0f b6 45 fc          	movzbl -0x4(%rbp),%eax
    5c4a:	5d                   	pop    %rbp
    5c4b:	c3                   	retq   

0000000000005c4c <safe_lshift_func_uint8_t_u_u>:
    5c4c:	f3 0f 1e fa          	endbr64 
    5c50:	55                   	push   %rbp
    5c51:	48 89 e5             	mov    %rsp,%rbp
    5c54:	89 f8                	mov    %edi,%eax
    5c56:	89 75 f8             	mov    %esi,-0x8(%rbp)
    5c59:	88 45 fc             	mov    %al,-0x4(%rbp)
    5c5c:	83 7d f8 1f          	cmpl   $0x1f,-0x8(%rbp)
    5c60:	77 25                	ja     5c87 <safe_lshift_func_uint8_t_u_u+0x3b>
    5c62:	0f b6 55 fc          	movzbl -0x4(%rbp),%edx
    5c66:	8b 45 f8             	mov    -0x8(%rbp),%eax
    5c69:	be ff 00 00 00       	mov    $0xff,%esi
    5c6e:	89 c1                	mov    %eax,%ecx
    5c70:	d3 fe                	sar    %cl,%esi
    5c72:	89 f0                	mov    %esi,%eax
    5c74:	39 c2                	cmp    %eax,%edx
    5c76:	7f 0f                	jg     5c87 <safe_lshift_func_uint8_t_u_u+0x3b>
    5c78:	0f b6 55 fc          	movzbl -0x4(%rbp),%edx
    5c7c:	8b 45 f8             	mov    -0x8(%rbp),%eax
    5c7f:	89 c1                	mov    %eax,%ecx
    5c81:	d3 e2                	shl    %cl,%edx
    5c83:	89 d0                	mov    %edx,%eax
    5c85:	eb 04                	jmp    5c8b <safe_lshift_func_uint8_t_u_u+0x3f>
    5c87:	0f b6 45 fc          	movzbl -0x4(%rbp),%eax
    5c8b:	5d                   	pop    %rbp
    5c8c:	c3                   	retq   

0000000000005c8d <safe_rshift_func_uint8_t_u_s>:
    5c8d:	f3 0f 1e fa          	endbr64 
    5c91:	55                   	push   %rbp
    5c92:	48 89 e5             	mov    %rsp,%rbp
    5c95:	89 f8                	mov    %edi,%eax
    5c97:	89 75 f8             	mov    %esi,-0x8(%rbp)
    5c9a:	88 45 fc             	mov    %al,-0x4(%rbp)
    5c9d:	83 7d f8 00          	cmpl   $0x0,-0x8(%rbp)
    5ca1:	78 15                	js     5cb8 <safe_rshift_func_uint8_t_u_s+0x2b>
    5ca3:	83 7d f8 1f          	cmpl   $0x1f,-0x8(%rbp)
    5ca7:	7f 0f                	jg     5cb8 <safe_rshift_func_uint8_t_u_s+0x2b>
    5ca9:	0f b6 55 fc          	movzbl -0x4(%rbp),%edx
    5cad:	8b 45 f8             	mov    -0x8(%rbp),%eax
    5cb0:	89 c1                	mov    %eax,%ecx
    5cb2:	d3 fa                	sar    %cl,%edx
    5cb4:	89 d0                	mov    %edx,%eax
    5cb6:	eb 04                	jmp    5cbc <safe_rshift_func_uint8_t_u_s+0x2f>
    5cb8:	0f b6 45 fc          	movzbl -0x4(%rbp),%eax
    5cbc:	5d                   	pop    %rbp
    5cbd:	c3                   	retq   

0000000000005cbe <safe_rshift_func_uint8_t_u_u>:
    5cbe:	f3 0f 1e fa          	endbr64 
    5cc2:	55                   	push   %rbp
    5cc3:	48 89 e5             	mov    %rsp,%rbp
    5cc6:	89 f8                	mov    %edi,%eax
    5cc8:	89 75 f8             	mov    %esi,-0x8(%rbp)
    5ccb:	88 45 fc             	mov    %al,-0x4(%rbp)
    5cce:	83 7d f8 1f          	cmpl   $0x1f,-0x8(%rbp)
    5cd2:	77 0f                	ja     5ce3 <safe_rshift_func_uint8_t_u_u+0x25>
    5cd4:	0f b6 55 fc          	movzbl -0x4(%rbp),%edx
    5cd8:	8b 45 f8             	mov    -0x8(%rbp),%eax
    5cdb:	89 c1                	mov    %eax,%ecx
    5cdd:	d3 fa                	sar    %cl,%edx
    5cdf:	89 d0                	mov    %edx,%eax
    5ce1:	eb 04                	jmp    5ce7 <safe_rshift_func_uint8_t_u_u+0x29>
    5ce3:	0f b6 45 fc          	movzbl -0x4(%rbp),%eax
    5ce7:	5d                   	pop    %rbp
    5ce8:	c3                   	retq   

0000000000005ce9 <safe_unary_minus_func_uint16_t_u>:
    5ce9:	f3 0f 1e fa          	endbr64 
    5ced:	55                   	push   %rbp
    5cee:	48 89 e5             	mov    %rsp,%rbp
    5cf1:	89 f8                	mov    %edi,%eax
    5cf3:	66 89 45 fc          	mov    %ax,-0x4(%rbp)
    5cf7:	0f b7 45 fc          	movzwl -0x4(%rbp),%eax
    5cfb:	f7 d8                	neg    %eax
    5cfd:	5d                   	pop    %rbp
    5cfe:	c3                   	retq   

0000000000005cff <safe_add_func_uint16_t_u_u>:
    5cff:	f3 0f 1e fa          	endbr64 
    5d03:	55                   	push   %rbp
    5d04:	48 89 e5             	mov    %rsp,%rbp
    5d07:	89 fa                	mov    %edi,%edx
    5d09:	89 f0                	mov    %esi,%eax
    5d0b:	66 89 55 fc          	mov    %dx,-0x4(%rbp)
    5d0f:	66 89 45 f8          	mov    %ax,-0x8(%rbp)
    5d13:	0f b7 55 fc          	movzwl -0x4(%rbp),%edx
    5d17:	0f b7 45 f8          	movzwl -0x8(%rbp),%eax
    5d1b:	01 d0                	add    %edx,%eax
    5d1d:	5d                   	pop    %rbp
    5d1e:	c3                   	retq   

0000000000005d1f <safe_sub_func_uint16_t_u_u>:
    5d1f:	f3 0f 1e fa          	endbr64 
    5d23:	55                   	push   %rbp
    5d24:	48 89 e5             	mov    %rsp,%rbp
    5d27:	89 fa                	mov    %edi,%edx
    5d29:	89 f0                	mov    %esi,%eax
    5d2b:	66 89 55 fc          	mov    %dx,-0x4(%rbp)
    5d2f:	66 89 45 f8          	mov    %ax,-0x8(%rbp)
    5d33:	0f b7 45 fc          	movzwl -0x4(%rbp),%eax
    5d37:	66 2b 45 f8          	sub    -0x8(%rbp),%ax
    5d3b:	5d                   	pop    %rbp
    5d3c:	c3                   	retq   

0000000000005d3d <safe_mul_func_uint16_t_u_u>:
    5d3d:	f3 0f 1e fa          	endbr64 
    5d41:	55                   	push   %rbp
    5d42:	48 89 e5             	mov    %rsp,%rbp
    5d45:	89 fa                	mov    %edi,%edx
    5d47:	89 f0                	mov    %esi,%eax
    5d49:	66 89 55 fc          	mov    %dx,-0x4(%rbp)
    5d4d:	66 89 45 f8          	mov    %ax,-0x8(%rbp)
    5d51:	0f b7 45 fc          	movzwl -0x4(%rbp),%eax
    5d55:	66 0f af 45 f8       	imul   -0x8(%rbp),%ax
    5d5a:	5d                   	pop    %rbp
    5d5b:	c3                   	retq   

0000000000005d5c <safe_mod_func_uint16_t_u_u>:
    5d5c:	f3 0f 1e fa          	endbr64 
    5d60:	55                   	push   %rbp
    5d61:	48 89 e5             	mov    %rsp,%rbp
    5d64:	89 fa                	mov    %edi,%edx
    5d66:	89 f0                	mov    %esi,%eax
    5d68:	66 89 55 fc          	mov    %dx,-0x4(%rbp)
    5d6c:	66 89 45 f8          	mov    %ax,-0x8(%rbp)
    5d70:	66 83 7d f8 00       	cmpw   $0x0,-0x8(%rbp)
    5d75:	74 11                	je     5d88 <safe_mod_func_uint16_t_u_u+0x2c>
    5d77:	0f b7 45 fc          	movzwl -0x4(%rbp),%eax
    5d7b:	ba 00 00 00 00       	mov    $0x0,%edx
    5d80:	66 f7 75 f8          	divw   -0x8(%rbp)
    5d84:	89 d0                	mov    %edx,%eax
    5d86:	eb 04                	jmp    5d8c <safe_mod_func_uint16_t_u_u+0x30>
    5d88:	0f b7 45 fc          	movzwl -0x4(%rbp),%eax
    5d8c:	5d                   	pop    %rbp
    5d8d:	c3                   	retq   

0000000000005d8e <safe_div_func_uint16_t_u_u>:
    5d8e:	f3 0f 1e fa          	endbr64 
    5d92:	55                   	push   %rbp
    5d93:	48 89 e5             	mov    %rsp,%rbp
    5d96:	89 fa                	mov    %edi,%edx
    5d98:	89 f0                	mov    %esi,%eax
    5d9a:	66 89 55 fc          	mov    %dx,-0x4(%rbp)
    5d9e:	66 89 45 f8          	mov    %ax,-0x8(%rbp)
    5da2:	66 83 7d f8 00       	cmpw   $0x0,-0x8(%rbp)
    5da7:	74 0f                	je     5db8 <safe_div_func_uint16_t_u_u+0x2a>
    5da9:	0f b7 45 fc          	movzwl -0x4(%rbp),%eax
    5dad:	ba 00 00 00 00       	mov    $0x0,%edx
    5db2:	66 f7 75 f8          	divw   -0x8(%rbp)
    5db6:	eb 04                	jmp    5dbc <safe_div_func_uint16_t_u_u+0x2e>
    5db8:	0f b7 45 fc          	movzwl -0x4(%rbp),%eax
    5dbc:	5d                   	pop    %rbp
    5dbd:	c3                   	retq   

0000000000005dbe <safe_lshift_func_uint16_t_u_s>:
    5dbe:	f3 0f 1e fa          	endbr64 
    5dc2:	55                   	push   %rbp
    5dc3:	48 89 e5             	mov    %rsp,%rbp
    5dc6:	89 f8                	mov    %edi,%eax
    5dc8:	89 75 f8             	mov    %esi,-0x8(%rbp)
    5dcb:	66 89 45 fc          	mov    %ax,-0x4(%rbp)
    5dcf:	83 7d f8 00          	cmpl   $0x0,-0x8(%rbp)
    5dd3:	78 2b                	js     5e00 <safe_lshift_func_uint16_t_u_s+0x42>
    5dd5:	83 7d f8 1f          	cmpl   $0x1f,-0x8(%rbp)
    5dd9:	7f 25                	jg     5e00 <safe_lshift_func_uint16_t_u_s+0x42>
    5ddb:	0f b7 55 fc          	movzwl -0x4(%rbp),%edx
    5ddf:	8b 45 f8             	mov    -0x8(%rbp),%eax
    5de2:	be ff ff 00 00       	mov    $0xffff,%esi
    5de7:	89 c1                	mov    %eax,%ecx
    5de9:	d3 fe                	sar    %cl,%esi
    5deb:	89 f0                	mov    %esi,%eax
    5ded:	39 c2                	cmp    %eax,%edx
    5def:	7f 0f                	jg     5e00 <safe_lshift_func_uint16_t_u_s+0x42>
    5df1:	0f b7 55 fc          	movzwl -0x4(%rbp),%edx
    5df5:	8b 45 f8             	mov    -0x8(%rbp),%eax
    5df8:	89 c1                	mov    %eax,%ecx
    5dfa:	d3 e2                	shl    %cl,%edx
    5dfc:	89 d0                	mov    %edx,%eax
    5dfe:	eb 04                	jmp    5e04 <safe_lshift_func_uint16_t_u_s+0x46>
    5e00:	0f b7 45 fc          	movzwl -0x4(%rbp),%eax
    5e04:	5d                   	pop    %rbp
    5e05:	c3                   	retq   

0000000000005e06 <safe_lshift_func_uint16_t_u_u>:
    5e06:	f3 0f 1e fa          	endbr64 
    5e0a:	55                   	push   %rbp
    5e0b:	48 89 e5             	mov    %rsp,%rbp
    5e0e:	89 f8                	mov    %edi,%eax
    5e10:	89 75 f8             	mov    %esi,-0x8(%rbp)
    5e13:	66 89 45 fc          	mov    %ax,-0x4(%rbp)
    5e17:	83 7d f8 1f          	cmpl   $0x1f,-0x8(%rbp)
    5e1b:	77 25                	ja     5e42 <safe_lshift_func_uint16_t_u_u+0x3c>
    5e1d:	0f b7 55 fc          	movzwl -0x4(%rbp),%edx
    5e21:	8b 45 f8             	mov    -0x8(%rbp),%eax
    5e24:	be ff ff 00 00       	mov    $0xffff,%esi
    5e29:	89 c1                	mov    %eax,%ecx
    5e2b:	d3 fe                	sar    %cl,%esi
    5e2d:	89 f0                	mov    %esi,%eax
    5e2f:	39 c2                	cmp    %eax,%edx
    5e31:	7f 0f                	jg     5e42 <safe_lshift_func_uint16_t_u_u+0x3c>
    5e33:	0f b7 55 fc          	movzwl -0x4(%rbp),%edx
    5e37:	8b 45 f8             	mov    -0x8(%rbp),%eax
    5e3a:	89 c1                	mov    %eax,%ecx
    5e3c:	d3 e2                	shl    %cl,%edx
    5e3e:	89 d0                	mov    %edx,%eax
    5e40:	eb 04                	jmp    5e46 <safe_lshift_func_uint16_t_u_u+0x40>
    5e42:	0f b7 45 fc          	movzwl -0x4(%rbp),%eax
    5e46:	5d                   	pop    %rbp
    5e47:	c3                   	retq   

0000000000005e48 <safe_rshift_func_uint16_t_u_s>:
    5e48:	f3 0f 1e fa          	endbr64 
    5e4c:	55                   	push   %rbp
    5e4d:	48 89 e5             	mov    %rsp,%rbp
    5e50:	89 f8                	mov    %edi,%eax
    5e52:	89 75 f8             	mov    %esi,-0x8(%rbp)
    5e55:	66 89 45 fc          	mov    %ax,-0x4(%rbp)
    5e59:	83 7d f8 00          	cmpl   $0x0,-0x8(%rbp)
    5e5d:	78 15                	js     5e74 <safe_rshift_func_uint16_t_u_s+0x2c>
    5e5f:	83 7d f8 1f          	cmpl   $0x1f,-0x8(%rbp)
    5e63:	7f 0f                	jg     5e74 <safe_rshift_func_uint16_t_u_s+0x2c>
    5e65:	0f b7 55 fc          	movzwl -0x4(%rbp),%edx
    5e69:	8b 45 f8             	mov    -0x8(%rbp),%eax
    5e6c:	89 c1                	mov    %eax,%ecx
    5e6e:	d3 fa                	sar    %cl,%edx
    5e70:	89 d0                	mov    %edx,%eax
    5e72:	eb 04                	jmp    5e78 <safe_rshift_func_uint16_t_u_s+0x30>
    5e74:	0f b7 45 fc          	movzwl -0x4(%rbp),%eax
    5e78:	5d                   	pop    %rbp
    5e79:	c3                   	retq   

0000000000005e7a <safe_rshift_func_uint16_t_u_u>:
    5e7a:	f3 0f 1e fa          	endbr64 
    5e7e:	55                   	push   %rbp
    5e7f:	48 89 e5             	mov    %rsp,%rbp
    5e82:	89 f8                	mov    %edi,%eax
    5e84:	89 75 f8             	mov    %esi,-0x8(%rbp)
    5e87:	66 89 45 fc          	mov    %ax,-0x4(%rbp)
    5e8b:	83 7d f8 1f          	cmpl   $0x1f,-0x8(%rbp)
    5e8f:	77 0f                	ja     5ea0 <safe_rshift_func_uint16_t_u_u+0x26>
    5e91:	0f b7 55 fc          	movzwl -0x4(%rbp),%edx
    5e95:	8b 45 f8             	mov    -0x8(%rbp),%eax
    5e98:	89 c1                	mov    %eax,%ecx
    5e9a:	d3 fa                	sar    %cl,%edx
    5e9c:	89 d0                	mov    %edx,%eax
    5e9e:	eb 04                	jmp    5ea4 <safe_rshift_func_uint16_t_u_u+0x2a>
    5ea0:	0f b7 45 fc          	movzwl -0x4(%rbp),%eax
    5ea4:	5d                   	pop    %rbp
    5ea5:	c3                   	retq   

0000000000005ea6 <safe_unary_minus_func_uint32_t_u>:
    5ea6:	f3 0f 1e fa          	endbr64 
    5eaa:	55                   	push   %rbp
    5eab:	48 89 e5             	mov    %rsp,%rbp
    5eae:	89 7d fc             	mov    %edi,-0x4(%rbp)
    5eb1:	8b 45 fc             	mov    -0x4(%rbp),%eax
    5eb4:	f7 d8                	neg    %eax
    5eb6:	5d                   	pop    %rbp
    5eb7:	c3                   	retq   

0000000000005eb8 <safe_add_func_uint32_t_u_u>:
    5eb8:	f3 0f 1e fa          	endbr64 
    5ebc:	55                   	push   %rbp
    5ebd:	48 89 e5             	mov    %rsp,%rbp
    5ec0:	89 7d fc             	mov    %edi,-0x4(%rbp)
    5ec3:	89 75 f8             	mov    %esi,-0x8(%rbp)
    5ec6:	8b 55 fc             	mov    -0x4(%rbp),%edx
    5ec9:	8b 45 f8             	mov    -0x8(%rbp),%eax
    5ecc:	01 d0                	add    %edx,%eax
    5ece:	5d                   	pop    %rbp
    5ecf:	c3                   	retq   

0000000000005ed0 <safe_sub_func_uint32_t_u_u>:
    5ed0:	f3 0f 1e fa          	endbr64 
    5ed4:	55                   	push   %rbp
    5ed5:	48 89 e5             	mov    %rsp,%rbp
    5ed8:	89 7d fc             	mov    %edi,-0x4(%rbp)
    5edb:	89 75 f8             	mov    %esi,-0x8(%rbp)
    5ede:	8b 45 fc             	mov    -0x4(%rbp),%eax
    5ee1:	2b 45 f8             	sub    -0x8(%rbp),%eax
    5ee4:	5d                   	pop    %rbp
    5ee5:	c3                   	retq   

0000000000005ee6 <safe_mul_func_uint32_t_u_u>:
    5ee6:	f3 0f 1e fa          	endbr64 
    5eea:	55                   	push   %rbp
    5eeb:	48 89 e5             	mov    %rsp,%rbp
    5eee:	89 7d fc             	mov    %edi,-0x4(%rbp)
    5ef1:	89 75 f8             	mov    %esi,-0x8(%rbp)
    5ef4:	8b 45 fc             	mov    -0x4(%rbp),%eax
    5ef7:	0f af 45 f8          	imul   -0x8(%rbp),%eax
    5efb:	5d                   	pop    %rbp
    5efc:	c3                   	retq   

0000000000005efd <safe_mod_func_uint32_t_u_u>:
    5efd:	f3 0f 1e fa          	endbr64 
    5f01:	55                   	push   %rbp
    5f02:	48 89 e5             	mov    %rsp,%rbp
    5f05:	89 7d fc             	mov    %edi,-0x4(%rbp)
    5f08:	89 75 f8             	mov    %esi,-0x8(%rbp)
    5f0b:	83 7d f8 00          	cmpl   $0x0,-0x8(%rbp)
    5f0f:	74 0f                	je     5f20 <safe_mod_func_uint32_t_u_u+0x23>
    5f11:	8b 45 fc             	mov    -0x4(%rbp),%eax
    5f14:	ba 00 00 00 00       	mov    $0x0,%edx
    5f19:	f7 75 f8             	divl   -0x8(%rbp)
    5f1c:	89 d0                	mov    %edx,%eax
    5f1e:	eb 03                	jmp    5f23 <safe_mod_func_uint32_t_u_u+0x26>
    5f20:	8b 45 fc             	mov    -0x4(%rbp),%eax
    5f23:	5d                   	pop    %rbp
    5f24:	c3                   	retq   

0000000000005f25 <safe_div_func_uint32_t_u_u>:
    5f25:	f3 0f 1e fa          	endbr64 
    5f29:	55                   	push   %rbp
    5f2a:	48 89 e5             	mov    %rsp,%rbp
    5f2d:	89 7d fc             	mov    %edi,-0x4(%rbp)
    5f30:	89 75 f8             	mov    %esi,-0x8(%rbp)
    5f33:	83 7d f8 00          	cmpl   $0x0,-0x8(%rbp)
    5f37:	74 0d                	je     5f46 <safe_div_func_uint32_t_u_u+0x21>
    5f39:	8b 45 fc             	mov    -0x4(%rbp),%eax
    5f3c:	ba 00 00 00 00       	mov    $0x0,%edx
    5f41:	f7 75 f8             	divl   -0x8(%rbp)
    5f44:	eb 03                	jmp    5f49 <safe_div_func_uint32_t_u_u+0x24>
    5f46:	8b 45 fc             	mov    -0x4(%rbp),%eax
    5f49:	5d                   	pop    %rbp
    5f4a:	c3                   	retq   

0000000000005f4b <safe_lshift_func_uint32_t_u_s>:
    5f4b:	f3 0f 1e fa          	endbr64 
    5f4f:	55                   	push   %rbp
    5f50:	48 89 e5             	mov    %rsp,%rbp
    5f53:	89 7d fc             	mov    %edi,-0x4(%rbp)
    5f56:	89 75 f8             	mov    %esi,-0x8(%rbp)
    5f59:	83 7d f8 00          	cmpl   $0x0,-0x8(%rbp)
    5f5d:	78 27                	js     5f86 <safe_lshift_func_uint32_t_u_s+0x3b>
    5f5f:	83 7d f8 1f          	cmpl   $0x1f,-0x8(%rbp)
    5f63:	7f 21                	jg     5f86 <safe_lshift_func_uint32_t_u_s+0x3b>
    5f65:	8b 45 f8             	mov    -0x8(%rbp),%eax
    5f68:	ba ff ff ff ff       	mov    $0xffffffff,%edx
    5f6d:	89 c1                	mov    %eax,%ecx
    5f6f:	d3 ea                	shr    %cl,%edx
    5f71:	89 d0                	mov    %edx,%eax
    5f73:	39 45 fc             	cmp    %eax,-0x4(%rbp)
    5f76:	77 0e                	ja     5f86 <safe_lshift_func_uint32_t_u_s+0x3b>
    5f78:	8b 45 f8             	mov    -0x8(%rbp),%eax
    5f7b:	8b 55 fc             	mov    -0x4(%rbp),%edx
    5f7e:	89 c1                	mov    %eax,%ecx
    5f80:	d3 e2                	shl    %cl,%edx
    5f82:	89 d0                	mov    %edx,%eax
    5f84:	eb 03                	jmp    5f89 <safe_lshift_func_uint32_t_u_s+0x3e>
    5f86:	8b 45 fc             	mov    -0x4(%rbp),%eax
    5f89:	5d                   	pop    %rbp
    5f8a:	c3                   	retq   

0000000000005f8b <safe_lshift_func_uint32_t_u_u>:
    5f8b:	f3 0f 1e fa          	endbr64 
    5f8f:	55                   	push   %rbp
    5f90:	48 89 e5             	mov    %rsp,%rbp
    5f93:	89 7d fc             	mov    %edi,-0x4(%rbp)
    5f96:	89 75 f8             	mov    %esi,-0x8(%rbp)
    5f99:	83 7d f8 1f          	cmpl   $0x1f,-0x8(%rbp)
    5f9d:	77 21                	ja     5fc0 <safe_lshift_func_uint32_t_u_u+0x35>
    5f9f:	8b 45 f8             	mov    -0x8(%rbp),%eax
    5fa2:	ba ff ff ff ff       	mov    $0xffffffff,%edx
    5fa7:	89 c1                	mov    %eax,%ecx
    5fa9:	d3 ea                	shr    %cl,%edx
    5fab:	89 d0                	mov    %edx,%eax
    5fad:	39 45 fc             	cmp    %eax,-0x4(%rbp)
    5fb0:	77 0e                	ja     5fc0 <safe_lshift_func_uint32_t_u_u+0x35>
    5fb2:	8b 45 f8             	mov    -0x8(%rbp),%eax
    5fb5:	8b 55 fc             	mov    -0x4(%rbp),%edx
    5fb8:	89 c1                	mov    %eax,%ecx
    5fba:	d3 e2                	shl    %cl,%edx
    5fbc:	89 d0                	mov    %edx,%eax
    5fbe:	eb 03                	jmp    5fc3 <safe_lshift_func_uint32_t_u_u+0x38>
    5fc0:	8b 45 fc             	mov    -0x4(%rbp),%eax
    5fc3:	5d                   	pop    %rbp
    5fc4:	c3                   	retq   

0000000000005fc5 <safe_rshift_func_uint32_t_u_s>:
    5fc5:	f3 0f 1e fa          	endbr64 
    5fc9:	55                   	push   %rbp
    5fca:	48 89 e5             	mov    %rsp,%rbp
    5fcd:	89 7d fc             	mov    %edi,-0x4(%rbp)
    5fd0:	89 75 f8             	mov    %esi,-0x8(%rbp)
    5fd3:	83 7d f8 00          	cmpl   $0x0,-0x8(%rbp)
    5fd7:	78 14                	js     5fed <safe_rshift_func_uint32_t_u_s+0x28>
    5fd9:	83 7d f8 1f          	cmpl   $0x1f,-0x8(%rbp)
    5fdd:	7f 0e                	jg     5fed <safe_rshift_func_uint32_t_u_s+0x28>
    5fdf:	8b 45 f8             	mov    -0x8(%rbp),%eax
    5fe2:	8b 55 fc             	mov    -0x4(%rbp),%edx
    5fe5:	89 c1                	mov    %eax,%ecx
    5fe7:	d3 ea                	shr    %cl,%edx
    5fe9:	89 d0                	mov    %edx,%eax
    5feb:	eb 03                	jmp    5ff0 <safe_rshift_func_uint32_t_u_s+0x2b>
    5fed:	8b 45 fc             	mov    -0x4(%rbp),%eax
    5ff0:	5d                   	pop    %rbp
    5ff1:	c3                   	retq   

0000000000005ff2 <safe_rshift_func_uint32_t_u_u>:
    5ff2:	f3 0f 1e fa          	endbr64 
    5ff6:	55                   	push   %rbp
    5ff7:	48 89 e5             	mov    %rsp,%rbp
    5ffa:	89 7d fc             	mov    %edi,-0x4(%rbp)
    5ffd:	89 75 f8             	mov    %esi,-0x8(%rbp)
    6000:	83 7d f8 1f          	cmpl   $0x1f,-0x8(%rbp)
    6004:	77 0e                	ja     6014 <safe_rshift_func_uint32_t_u_u+0x22>
    6006:	8b 45 f8             	mov    -0x8(%rbp),%eax
    6009:	8b 55 fc             	mov    -0x4(%rbp),%edx
    600c:	89 c1                	mov    %eax,%ecx
    600e:	d3 ea                	shr    %cl,%edx
    6010:	89 d0                	mov    %edx,%eax
    6012:	eb 03                	jmp    6017 <safe_rshift_func_uint32_t_u_u+0x25>
    6014:	8b 45 fc             	mov    -0x4(%rbp),%eax
    6017:	5d                   	pop    %rbp
    6018:	c3                   	retq   

0000000000006019 <safe_unary_minus_func_uint64_t_u>:
    6019:	f3 0f 1e fa          	endbr64 
    601d:	55                   	push   %rbp
    601e:	48 89 e5             	mov    %rsp,%rbp
    6021:	48 89 7d f8          	mov    %rdi,-0x8(%rbp)
    6025:	48 8b 45 f8          	mov    -0x8(%rbp),%rax
    6029:	48 f7 d8             	neg    %rax
    602c:	5d                   	pop    %rbp
    602d:	c3                   	retq   

000000000000602e <safe_add_func_uint64_t_u_u>:
    602e:	f3 0f 1e fa          	endbr64 
    6032:	55                   	push   %rbp
    6033:	48 89 e5             	mov    %rsp,%rbp
    6036:	48 89 7d f8          	mov    %rdi,-0x8(%rbp)
    603a:	48 89 75 f0          	mov    %rsi,-0x10(%rbp)
    603e:	48 8b 55 f8          	mov    -0x8(%rbp),%rdx
    6042:	48 8b 45 f0          	mov    -0x10(%rbp),%rax
    6046:	48 01 d0             	add    %rdx,%rax
    6049:	5d                   	pop    %rbp
    604a:	c3                   	retq   

000000000000604b <safe_sub_func_uint64_t_u_u>:
    604b:	f3 0f 1e fa          	endbr64 
    604f:	55                   	push   %rbp
    6050:	48 89 e5             	mov    %rsp,%rbp
    6053:	48 89 7d f8          	mov    %rdi,-0x8(%rbp)
    6057:	48 89 75 f0          	mov    %rsi,-0x10(%rbp)
    605b:	48 8b 45 f8          	mov    -0x8(%rbp),%rax
    605f:	48 2b 45 f0          	sub    -0x10(%rbp),%rax
    6063:	5d                   	pop    %rbp
    6064:	c3                   	retq   

0000000000006065 <safe_mul_func_uint64_t_u_u>:
    6065:	f3 0f 1e fa          	endbr64 
    6069:	55                   	push   %rbp
    606a:	48 89 e5             	mov    %rsp,%rbp
    606d:	48 89 7d f8          	mov    %rdi,-0x8(%rbp)
    6071:	48 89 75 f0          	mov    %rsi,-0x10(%rbp)
    6075:	48 8b 45 f8          	mov    -0x8(%rbp),%rax
    6079:	48 0f af 45 f0       	imul   -0x10(%rbp),%rax
    607e:	5d                   	pop    %rbp
    607f:	c3                   	retq   

0000000000006080 <safe_mod_func_uint64_t_u_u>:
    6080:	f3 0f 1e fa          	endbr64 
    6084:	55                   	push   %rbp
    6085:	48 89 e5             	mov    %rsp,%rbp
    6088:	48 89 7d f8          	mov    %rdi,-0x8(%rbp)
    608c:	48 89 75 f0          	mov    %rsi,-0x10(%rbp)
    6090:	48 83 7d f0 00       	cmpq   $0x0,-0x10(%rbp)
    6095:	74 12                	je     60a9 <safe_mod_func_uint64_t_u_u+0x29>
    6097:	48 8b 45 f8          	mov    -0x8(%rbp),%rax
    609b:	ba 00 00 00 00       	mov    $0x0,%edx
    60a0:	48 f7 75 f0          	divq   -0x10(%rbp)
    60a4:	48 89 d0             	mov    %rdx,%rax
    60a7:	eb 04                	jmp    60ad <safe_mod_func_uint64_t_u_u+0x2d>
    60a9:	48 8b 45 f8          	mov    -0x8(%rbp),%rax
    60ad:	5d                   	pop    %rbp
    60ae:	c3                   	retq   

00000000000060af <safe_div_func_uint64_t_u_u>:
    60af:	f3 0f 1e fa          	endbr64 
    60b3:	55                   	push   %rbp
    60b4:	48 89 e5             	mov    %rsp,%rbp
    60b7:	48 89 7d f8          	mov    %rdi,-0x8(%rbp)
    60bb:	48 89 75 f0          	mov    %rsi,-0x10(%rbp)
    60bf:	48 83 7d f0 00       	cmpq   $0x0,-0x10(%rbp)
    60c4:	74 0f                	je     60d5 <safe_div_func_uint64_t_u_u+0x26>
    60c6:	48 8b 45 f8          	mov    -0x8(%rbp),%rax
    60ca:	ba 00 00 00 00       	mov    $0x0,%edx
    60cf:	48 f7 75 f0          	divq   -0x10(%rbp)
    60d3:	eb 04                	jmp    60d9 <safe_div_func_uint64_t_u_u+0x2a>
    60d5:	48 8b 45 f8          	mov    -0x8(%rbp),%rax
    60d9:	5d                   	pop    %rbp
    60da:	c3                   	retq   

00000000000060db <safe_lshift_func_uint64_t_u_s>:
    60db:	f3 0f 1e fa          	endbr64 
    60df:	55                   	push   %rbp
    60e0:	48 89 e5             	mov    %rsp,%rbp
    60e3:	48 89 7d f8          	mov    %rdi,-0x8(%rbp)
    60e7:	89 75 f4             	mov    %esi,-0xc(%rbp)
    60ea:	83 7d f4 00          	cmpl   $0x0,-0xc(%rbp)
    60ee:	78 2f                	js     611f <safe_lshift_func_uint64_t_u_s+0x44>
    60f0:	83 7d f4 1f          	cmpl   $0x1f,-0xc(%rbp)
    60f4:	7f 29                	jg     611f <safe_lshift_func_uint64_t_u_s+0x44>
    60f6:	8b 45 f4             	mov    -0xc(%rbp),%eax
    60f9:	48 c7 c2 ff ff ff ff 	mov    $0xffffffffffffffff,%rdx
    6100:	89 c1                	mov    %eax,%ecx
    6102:	48 d3 ea             	shr    %cl,%rdx
    6105:	48 89 d0             	mov    %rdx,%rax
    6108:	48 39 45 f8          	cmp    %rax,-0x8(%rbp)
    610c:	77 11                	ja     611f <safe_lshift_func_uint64_t_u_s+0x44>
    610e:	8b 45 f4             	mov    -0xc(%rbp),%eax
    6111:	48 8b 55 f8          	mov    -0x8(%rbp),%rdx
    6115:	89 c1                	mov    %eax,%ecx
    6117:	48 d3 e2             	shl    %cl,%rdx
    611a:	48 89 d0             	mov    %rdx,%rax
    611d:	eb 04                	jmp    6123 <safe_lshift_func_uint64_t_u_s+0x48>
    611f:	48 8b 45 f8          	mov    -0x8(%rbp),%rax
    6123:	5d                   	pop    %rbp
    6124:	c3                   	retq   

0000000000006125 <safe_lshift_func_uint64_t_u_u>:
    6125:	f3 0f 1e fa          	endbr64 
    6129:	55                   	push   %rbp
    612a:	48 89 e5             	mov    %rsp,%rbp
    612d:	48 89 7d f8          	mov    %rdi,-0x8(%rbp)
    6131:	89 75 f4             	mov    %esi,-0xc(%rbp)
    6134:	83 7d f4 1f          	cmpl   $0x1f,-0xc(%rbp)
    6138:	77 29                	ja     6163 <safe_lshift_func_uint64_t_u_u+0x3e>
    613a:	8b 45 f4             	mov    -0xc(%rbp),%eax
    613d:	48 c7 c2 ff ff ff ff 	mov    $0xffffffffffffffff,%rdx
    6144:	89 c1                	mov    %eax,%ecx
    6146:	48 d3 ea             	shr    %cl,%rdx
    6149:	48 89 d0             	mov    %rdx,%rax
    614c:	48 39 45 f8          	cmp    %rax,-0x8(%rbp)
    6150:	77 11                	ja     6163 <safe_lshift_func_uint64_t_u_u+0x3e>
    6152:	8b 45 f4             	mov    -0xc(%rbp),%eax
    6155:	48 8b 55 f8          	mov    -0x8(%rbp),%rdx
    6159:	89 c1                	mov    %eax,%ecx
    615b:	48 d3 e2             	shl    %cl,%rdx
    615e:	48 89 d0             	mov    %rdx,%rax
    6161:	eb 04                	jmp    6167 <safe_lshift_func_uint64_t_u_u+0x42>
    6163:	48 8b 45 f8          	mov    -0x8(%rbp),%rax
    6167:	5d                   	pop    %rbp
    6168:	c3                   	retq   

0000000000006169 <safe_rshift_func_uint64_t_u_s>:
    6169:	f3 0f 1e fa          	endbr64 
    616d:	55                   	push   %rbp
    616e:	48 89 e5             	mov    %rsp,%rbp
    6171:	48 89 7d f8          	mov    %rdi,-0x8(%rbp)
    6175:	89 75 f4             	mov    %esi,-0xc(%rbp)
    6178:	83 7d f4 00          	cmpl   $0x0,-0xc(%rbp)
    617c:	78 17                	js     6195 <safe_rshift_func_uint64_t_u_s+0x2c>
    617e:	83 7d f4 1f          	cmpl   $0x1f,-0xc(%rbp)
    6182:	7f 11                	jg     6195 <safe_rshift_func_uint64_t_u_s+0x2c>
    6184:	8b 45 f4             	mov    -0xc(%rbp),%eax
    6187:	48 8b 55 f8          	mov    -0x8(%rbp),%rdx
    618b:	89 c1                	mov    %eax,%ecx
    618d:	48 d3 ea             	shr    %cl,%rdx
    6190:	48 89 d0             	mov    %rdx,%rax
    6193:	eb 04                	jmp    6199 <safe_rshift_func_uint64_t_u_s+0x30>
    6195:	48 8b 45 f8          	mov    -0x8(%rbp),%rax
    6199:	5d                   	pop    %rbp
    619a:	c3                   	retq   

000000000000619b <safe_rshift_func_uint64_t_u_u>:
    619b:	f3 0f 1e fa          	endbr64 
    619f:	55                   	push   %rbp
    61a0:	48 89 e5             	mov    %rsp,%rbp
    61a3:	48 89 7d f8          	mov    %rdi,-0x8(%rbp)
    61a7:	89 75 f4             	mov    %esi,-0xc(%rbp)
    61aa:	83 7d f4 1f          	cmpl   $0x1f,-0xc(%rbp)
    61ae:	77 11                	ja     61c1 <safe_rshift_func_uint64_t_u_u+0x26>
    61b0:	8b 45 f4             	mov    -0xc(%rbp),%eax
    61b3:	48 8b 55 f8          	mov    -0x8(%rbp),%rdx
    61b7:	89 c1                	mov    %eax,%ecx
    61b9:	48 d3 ea             	shr    %cl,%rdx
    61bc:	48 89 d0             	mov    %rdx,%rax
    61bf:	eb 04                	jmp    61c5 <safe_rshift_func_uint64_t_u_u+0x2a>
    61c1:	48 8b 45 f8          	mov    -0x8(%rbp),%rax
    61c5:	5d                   	pop    %rbp
    61c6:	c3                   	retq   

00000000000061c7 <safe_add_func_float_f_f>:
    61c7:	f3 0f 1e fa          	endbr64 
    61cb:	55                   	push   %rbp
    61cc:	48 89 e5             	mov    %rsp,%rbp
    61cf:	f3 0f 11 45 fc       	movss  %xmm0,-0x4(%rbp)
    61d4:	f3 0f 11 4d f8       	movss  %xmm1,-0x8(%rbp)
    61d9:	f3 0f 10 4d fc       	movss  -0x4(%rbp),%xmm1
    61de:	f3 0f 10 05 ce 98 00 	movss  0x98ce(%rip),%xmm0        # fab4 <l_1706.4494+0xc>
    61e5:	00 
    61e6:	f3 0f 59 c8          	mulss  %xmm0,%xmm1
    61ea:	f3 0f 10 55 f8       	movss  -0x8(%rbp),%xmm2
    61ef:	f3 0f 10 05 bd 98 00 	movss  0x98bd(%rip),%xmm0        # fab4 <l_1706.4494+0xc>
    61f6:	00 
    61f7:	f3 0f 59 c2          	mulss  %xmm2,%xmm0
    61fb:	f3 0f 58 c1          	addss  %xmm1,%xmm0
    61ff:	f3 0f 10 0d b9 98 00 	movss  0x98b9(%rip),%xmm1        # fac0 <l_1706.4494+0x18>
    6206:	00 
    6207:	0f 54 c1             	andps  %xmm1,%xmm0
    620a:	0f 2f 05 bf 98 00 00 	comiss 0x98bf(%rip),%xmm0        # fad0 <l_1706.4494+0x28>
    6211:	76 07                	jbe    621a <safe_add_func_float_f_f+0x53>
    6213:	f3 0f 10 45 fc       	movss  -0x4(%rbp),%xmm0
    6218:	eb 0a                	jmp    6224 <safe_add_func_float_f_f+0x5d>
    621a:	f3 0f 10 45 fc       	movss  -0x4(%rbp),%xmm0
    621f:	f3 0f 58 45 f8       	addss  -0x8(%rbp),%xmm0
    6224:	5d                   	pop    %rbp
    6225:	c3                   	retq   

0000000000006226 <safe_sub_func_float_f_f>:
    6226:	f3 0f 1e fa          	endbr64 
    622a:	55                   	push   %rbp
    622b:	48 89 e5             	mov    %rsp,%rbp
    622e:	f3 0f 11 45 fc       	movss  %xmm0,-0x4(%rbp)
    6233:	f3 0f 11 4d f8       	movss  %xmm1,-0x8(%rbp)
    6238:	f3 0f 10 4d fc       	movss  -0x4(%rbp),%xmm1
    623d:	f3 0f 10 05 6f 98 00 	movss  0x986f(%rip),%xmm0        # fab4 <l_1706.4494+0xc>
    6244:	00 
    6245:	f3 0f 59 c1          	mulss  %xmm1,%xmm0
    6249:	f3 0f 10 55 f8       	movss  -0x8(%rbp),%xmm2
    624e:	f3 0f 10 0d 5e 98 00 	movss  0x985e(%rip),%xmm1        # fab4 <l_1706.4494+0xc>
    6255:	00 
    6256:	f3 0f 59 ca          	mulss  %xmm2,%xmm1
    625a:	f3 0f 5c c1          	subss  %xmm1,%xmm0
    625e:	f3 0f 10 0d 5a 98 00 	movss  0x985a(%rip),%xmm1        # fac0 <l_1706.4494+0x18>
    6265:	00 
    6266:	0f 54 c1             	andps  %xmm1,%xmm0
    6269:	0f 2f 05 60 98 00 00 	comiss 0x9860(%rip),%xmm0        # fad0 <l_1706.4494+0x28>
    6270:	76 07                	jbe    6279 <safe_sub_func_float_f_f+0x53>
    6272:	f3 0f 10 45 fc       	movss  -0x4(%rbp),%xmm0
    6277:	eb 0a                	jmp    6283 <safe_sub_func_float_f_f+0x5d>
    6279:	f3 0f 10 45 fc       	movss  -0x4(%rbp),%xmm0
    627e:	f3 0f 5c 45 f8       	subss  -0x8(%rbp),%xmm0
    6283:	5d                   	pop    %rbp
    6284:	c3                   	retq   

0000000000006285 <safe_mul_func_float_f_f>:
    6285:	f3 0f 1e fa          	endbr64 
    6289:	55                   	push   %rbp
    628a:	48 89 e5             	mov    %rsp,%rbp
    628d:	f3 0f 11 45 fc       	movss  %xmm0,-0x4(%rbp)
    6292:	f3 0f 11 4d f8       	movss  %xmm1,-0x8(%rbp)
    6297:	f3 0f 10 4d fc       	movss  -0x4(%rbp),%xmm1
    629c:	f3 0f 10 05 30 98 00 	movss  0x9830(%rip),%xmm0        # fad4 <l_1706.4494+0x2c>
    62a3:	00 
    62a4:	f3 0f 59 c8          	mulss  %xmm0,%xmm1
    62a8:	f3 0f 10 55 f8       	movss  -0x8(%rbp),%xmm2
    62ad:	f3 0f 10 05 23 98 00 	movss  0x9823(%rip),%xmm0        # fad8 <l_1706.4494+0x30>
    62b4:	00 
    62b5:	f3 0f 59 c2          	mulss  %xmm2,%xmm0
    62b9:	f3 0f 59 c1          	mulss  %xmm1,%xmm0
    62bd:	f3 0f 10 0d fb 97 00 	movss  0x97fb(%rip),%xmm1        # fac0 <l_1706.4494+0x18>
    62c4:	00 
    62c5:	0f 54 c1             	andps  %xmm1,%xmm0
    62c8:	0f 2f 05 0d 98 00 00 	comiss 0x980d(%rip),%xmm0        # fadc <l_1706.4494+0x34>
    62cf:	76 07                	jbe    62d8 <safe_mul_func_float_f_f+0x53>
    62d1:	f3 0f 10 45 fc       	movss  -0x4(%rbp),%xmm0
    62d6:	eb 0a                	jmp    62e2 <safe_mul_func_float_f_f+0x5d>
    62d8:	f3 0f 10 45 fc       	movss  -0x4(%rbp),%xmm0
    62dd:	f3 0f 59 45 f8       	mulss  -0x8(%rbp),%xmm0
    62e2:	5d                   	pop    %rbp
    62e3:	c3                   	retq   

00000000000062e4 <safe_div_func_float_f_f>:
    62e4:	f3 0f 1e fa          	endbr64 
    62e8:	55                   	push   %rbp
    62e9:	48 89 e5             	mov    %rsp,%rbp
    62ec:	f3 0f 11 45 fc       	movss  %xmm0,-0x4(%rbp)
    62f1:	f3 0f 11 4d f8       	movss  %xmm1,-0x8(%rbp)
    62f6:	f3 0f 10 45 f8       	movss  -0x8(%rbp),%xmm0
    62fb:	f3 0f 10 0d bd 97 00 	movss  0x97bd(%rip),%xmm1        # fac0 <l_1706.4494+0x18>
    6302:	00 
    6303:	0f 54 c8             	andps  %xmm0,%xmm1
    6306:	f3 0f 10 05 d2 97 00 	movss  0x97d2(%rip),%xmm0        # fae0 <l_1706.4494+0x38>
    630d:	00 
    630e:	0f 2f c1             	comiss %xmm1,%xmm0
    6311:	0f 97 c0             	seta   %al
    6314:	83 f0 01             	xor    $0x1,%eax
    6317:	84 c0                	test   %al,%al
    6319:	75 56                	jne    6371 <safe_div_func_float_f_f+0x8d>
    631b:	66 0f ef c0          	pxor   %xmm0,%xmm0
    631f:	0f 2e 45 f8          	ucomiss -0x8(%rbp),%xmm0
    6323:	7a 0a                	jp     632f <safe_div_func_float_f_f+0x4b>
    6325:	66 0f ef c0          	pxor   %xmm0,%xmm0
    6329:	0f 2e 45 f8          	ucomiss -0x8(%rbp),%xmm0
    632d:	74 4e                	je     637d <safe_div_func_float_f_f+0x99>
    632f:	f3 0f 10 4d fc       	movss  -0x4(%rbp),%xmm1
    6334:	f3 0f 10 05 a8 97 00 	movss  0x97a8(%rip),%xmm0        # fae4 <l_1706.4494+0x3c>
    633b:	00 
    633c:	f3 0f 59 c1          	mulss  %xmm1,%xmm0
    6340:	f3 0f 10 55 f8       	movss  -0x8(%rbp),%xmm2
    6345:	f3 0f 10 0d 9b 97 00 	movss  0x979b(%rip),%xmm1        # fae8 <l_1706.4494+0x40>
    634c:	00 
    634d:	f3 0f 59 ca          	mulss  %xmm2,%xmm1
    6351:	f3 0f 5e c1          	divss  %xmm1,%xmm0
    6355:	f3 0f 10 0d 63 97 00 	movss  0x9763(%rip),%xmm1        # fac0 <l_1706.4494+0x18>
    635c:	00 
    635d:	0f 54 c1             	andps  %xmm1,%xmm0
    6360:	0f 2f 05 85 97 00 00 	comiss 0x9785(%rip),%xmm0        # faec <l_1706.4494+0x44>
    6367:	0f 97 c0             	seta   %al
    636a:	83 f0 01             	xor    $0x1,%eax
    636d:	84 c0                	test   %al,%al
    636f:	74 0c                	je     637d <safe_div_func_float_f_f+0x99>
    6371:	f3 0f 10 45 fc       	movss  -0x4(%rbp),%xmm0
    6376:	f3 0f 5e 45 f8       	divss  -0x8(%rbp),%xmm0
    637b:	eb 05                	jmp    6382 <safe_div_func_float_f_f+0x9e>
    637d:	f3 0f 10 45 fc       	movss  -0x4(%rbp),%xmm0
    6382:	5d                   	pop    %rbp
    6383:	c3                   	retq   

0000000000006384 <safe_add_func_double_f_f>:
    6384:	f3 0f 1e fa          	endbr64 
    6388:	55                   	push   %rbp
    6389:	48 89 e5             	mov    %rsp,%rbp
    638c:	f2 0f 11 45 f8       	movsd  %xmm0,-0x8(%rbp)
    6391:	f2 0f 11 4d f0       	movsd  %xmm1,-0x10(%rbp)
    6396:	f2 0f 10 4d f8       	movsd  -0x8(%rbp),%xmm1
    639b:	f2 0f 10 05 4d 97 00 	movsd  0x974d(%rip),%xmm0        # faf0 <l_1706.4494+0x48>
    63a2:	00 
    63a3:	f2 0f 59 c8          	mulsd  %xmm0,%xmm1
    63a7:	f2 0f 10 55 f0       	movsd  -0x10(%rbp),%xmm2
    63ac:	f2 0f 10 05 3c 97 00 	movsd  0x973c(%rip),%xmm0        # faf0 <l_1706.4494+0x48>
    63b3:	00 
    63b4:	f2 0f 59 c2          	mulsd  %xmm2,%xmm0
    63b8:	f2 0f 58 c1          	addsd  %xmm1,%xmm0
    63bc:	f3 0f 7e 0d 3c 97 00 	movq   0x973c(%rip),%xmm1        # fb00 <l_1706.4494+0x58>
    63c3:	00 
    63c4:	66 0f 54 c1          	andpd  %xmm1,%xmm0
    63c8:	66 0f 2f 05 40 97 00 	comisd 0x9740(%rip),%xmm0        # fb10 <l_1706.4494+0x68>
    63cf:	00 
    63d0:	76 07                	jbe    63d9 <safe_add_func_double_f_f+0x55>
    63d2:	f2 0f 10 45 f8       	movsd  -0x8(%rbp),%xmm0
    63d7:	eb 0a                	jmp    63e3 <safe_add_func_double_f_f+0x5f>
    63d9:	f2 0f 10 45 f8       	movsd  -0x8(%rbp),%xmm0
    63de:	f2 0f 58 45 f0       	addsd  -0x10(%rbp),%xmm0
    63e3:	5d                   	pop    %rbp
    63e4:	c3                   	retq   

00000000000063e5 <safe_sub_func_double_f_f>:
    63e5:	f3 0f 1e fa          	endbr64 
    63e9:	55                   	push   %rbp
    63ea:	48 89 e5             	mov    %rsp,%rbp
    63ed:	f2 0f 11 45 f8       	movsd  %xmm0,-0x8(%rbp)
    63f2:	f2 0f 11 4d f0       	movsd  %xmm1,-0x10(%rbp)
    63f7:	f2 0f 10 4d f8       	movsd  -0x8(%rbp),%xmm1
    63fc:	f2 0f 10 05 ec 96 00 	movsd  0x96ec(%rip),%xmm0        # faf0 <l_1706.4494+0x48>
    6403:	00 
    6404:	f2 0f 59 c1          	mulsd  %xmm1,%xmm0
    6408:	f2 0f 10 55 f0       	movsd  -0x10(%rbp),%xmm2
    640d:	f2 0f 10 0d db 96 00 	movsd  0x96db(%rip),%xmm1        # faf0 <l_1706.4494+0x48>
    6414:	00 
    6415:	f2 0f 59 ca          	mulsd  %xmm2,%xmm1
    6419:	f2 0f 5c c1          	subsd  %xmm1,%xmm0
    641d:	f3 0f 7e 0d db 96 00 	movq   0x96db(%rip),%xmm1        # fb00 <l_1706.4494+0x58>
    6424:	00 
    6425:	66 0f 54 c1          	andpd  %xmm1,%xmm0
    6429:	66 0f 2f 05 df 96 00 	comisd 0x96df(%rip),%xmm0        # fb10 <l_1706.4494+0x68>
    6430:	00 
    6431:	76 07                	jbe    643a <safe_sub_func_double_f_f+0x55>
    6433:	f2 0f 10 45 f8       	movsd  -0x8(%rbp),%xmm0
    6438:	eb 0a                	jmp    6444 <safe_sub_func_double_f_f+0x5f>
    643a:	f2 0f 10 45 f8       	movsd  -0x8(%rbp),%xmm0
    643f:	f2 0f 5c 45 f0       	subsd  -0x10(%rbp),%xmm0
    6444:	5d                   	pop    %rbp
    6445:	c3                   	retq   

0000000000006446 <safe_mul_func_double_f_f>:
    6446:	f3 0f 1e fa          	endbr64 
    644a:	55                   	push   %rbp
    644b:	48 89 e5             	mov    %rsp,%rbp
    644e:	f2 0f 11 45 f8       	movsd  %xmm0,-0x8(%rbp)
    6453:	f2 0f 11 4d f0       	movsd  %xmm1,-0x10(%rbp)
    6458:	f2 0f 10 4d f8       	movsd  -0x8(%rbp),%xmm1
    645d:	f2 0f 10 05 b3 96 00 	movsd  0x96b3(%rip),%xmm0        # fb18 <l_1706.4494+0x70>
    6464:	00 
    6465:	f2 0f 59 c8          	mulsd  %xmm0,%xmm1
    6469:	f2 0f 10 55 f0       	movsd  -0x10(%rbp),%xmm2
    646e:	f2 0f 10 05 aa 96 00 	movsd  0x96aa(%rip),%xmm0        # fb20 <l_1706.4494+0x78>
    6475:	00 
    6476:	f2 0f 59 c2          	mulsd  %xmm2,%xmm0
    647a:	f2 0f 59 c1          	mulsd  %xmm1,%xmm0
    647e:	f3 0f 7e 0d 7a 96 00 	movq   0x967a(%rip),%xmm1        # fb00 <l_1706.4494+0x58>
    6485:	00 
    6486:	66 0f 54 c1          	andpd  %xmm1,%xmm0
    648a:	66 0f 2f 05 96 96 00 	comisd 0x9696(%rip),%xmm0        # fb28 <l_1706.4494+0x80>
    6491:	00 
    6492:	76 07                	jbe    649b <safe_mul_func_double_f_f+0x55>
    6494:	f2 0f 10 45 f8       	movsd  -0x8(%rbp),%xmm0
    6499:	eb 0a                	jmp    64a5 <safe_mul_func_double_f_f+0x5f>
    649b:	f2 0f 10 45 f8       	movsd  -0x8(%rbp),%xmm0
    64a0:	f2 0f 59 45 f0       	mulsd  -0x10(%rbp),%xmm0
    64a5:	5d                   	pop    %rbp
    64a6:	c3                   	retq   

00000000000064a7 <safe_div_func_double_f_f>:
    64a7:	f3 0f 1e fa          	endbr64 
    64ab:	55                   	push   %rbp
    64ac:	48 89 e5             	mov    %rsp,%rbp
    64af:	f2 0f 11 45 f8       	movsd  %xmm0,-0x8(%rbp)
    64b4:	f2 0f 11 4d f0       	movsd  %xmm1,-0x10(%rbp)
    64b9:	f2 0f 10 45 f0       	movsd  -0x10(%rbp),%xmm0
    64be:	f3 0f 7e 0d 3a 96 00 	movq   0x963a(%rip),%xmm1        # fb00 <l_1706.4494+0x58>
    64c5:	00 
    64c6:	66 0f 54 c8          	andpd  %xmm0,%xmm1
    64ca:	f2 0f 10 05 5e 96 00 	movsd  0x965e(%rip),%xmm0        # fb30 <l_1706.4494+0x88>
    64d1:	00 
    64d2:	66 0f 2f c1          	comisd %xmm1,%xmm0
    64d6:	0f 97 c0             	seta   %al
    64d9:	83 f0 01             	xor    $0x1,%eax
    64dc:	84 c0                	test   %al,%al
    64de:	75 5a                	jne    653a <safe_div_func_double_f_f+0x93>
    64e0:	66 0f ef c0          	pxor   %xmm0,%xmm0
    64e4:	66 0f 2e 45 f0       	ucomisd -0x10(%rbp),%xmm0
    64e9:	7a 0b                	jp     64f6 <safe_div_func_double_f_f+0x4f>
    64eb:	66 0f ef c0          	pxor   %xmm0,%xmm0
    64ef:	66 0f 2e 45 f0       	ucomisd -0x10(%rbp),%xmm0
    64f4:	74 50                	je     6546 <safe_div_func_double_f_f+0x9f>
    64f6:	f2 0f 10 4d f8       	movsd  -0x8(%rbp),%xmm1
    64fb:	f2 0f 10 05 35 96 00 	movsd  0x9635(%rip),%xmm0        # fb38 <l_1706.4494+0x90>
    6502:	00 
    6503:	f2 0f 59 c1          	mulsd  %xmm1,%xmm0
    6507:	f2 0f 10 55 f0       	movsd  -0x10(%rbp),%xmm2
    650c:	f2 0f 10 0d 2c 96 00 	movsd  0x962c(%rip),%xmm1        # fb40 <l_1706.4494+0x98>
    6513:	00 
    6514:	f2 0f 59 ca          	mulsd  %xmm2,%xmm1
    6518:	f2 0f 5e c1          	divsd  %xmm1,%xmm0
    651c:	f3 0f 7e 0d dc 95 00 	movq   0x95dc(%rip),%xmm1        # fb00 <l_1706.4494+0x58>
    6523:	00 
    6524:	66 0f 54 c1          	andpd  %xmm1,%xmm0
    6528:	66 0f 2f 05 18 96 00 	comisd 0x9618(%rip),%xmm0        # fb48 <l_1706.4494+0xa0>
    652f:	00 
    6530:	0f 97 c0             	seta   %al
    6533:	83 f0 01             	xor    $0x1,%eax
    6536:	84 c0                	test   %al,%al
    6538:	74 0c                	je     6546 <safe_div_func_double_f_f+0x9f>
    653a:	f2 0f 10 45 f8       	movsd  -0x8(%rbp),%xmm0
    653f:	f2 0f 5e 45 f0       	divsd  -0x10(%rbp),%xmm0
    6544:	eb 05                	jmp    654b <safe_div_func_double_f_f+0xa4>
    6546:	f2 0f 10 45 f8       	movsd  -0x8(%rbp),%xmm0
    654b:	5d                   	pop    %rbp
    654c:	c3                   	retq   

000000000000654d <safe_convert_func_float_to_int32_t>:
    654d:	f3 0f 1e fa          	endbr64 
    6551:	55                   	push   %rbp
    6552:	48 89 e5             	mov    %rsp,%rbp
    6555:	f3 0f 11 45 fc       	movss  %xmm0,-0x4(%rbp)
    655a:	f3 0f 10 05 ee 95 00 	movss  0x95ee(%rip),%xmm0        # fb50 <l_1706.4494+0xa8>
    6561:	00 
    6562:	0f 2f 45 fc          	comiss -0x4(%rbp),%xmm0
    6566:	0f 93 c0             	setae  %al
    6569:	83 f0 01             	xor    $0x1,%eax
    656c:	84 c0                	test   %al,%al
    656e:	74 21                	je     6591 <safe_convert_func_float_to_int32_t+0x44>
    6570:	f3 0f 10 45 fc       	movss  -0x4(%rbp),%xmm0
    6575:	0f 2f 05 d8 95 00 00 	comiss 0x95d8(%rip),%xmm0        # fb54 <l_1706.4494+0xac>
    657c:	0f 93 c0             	setae  %al
    657f:	83 f0 01             	xor    $0x1,%eax
    6582:	84 c0                	test   %al,%al
    6584:	74 0b                	je     6591 <safe_convert_func_float_to_int32_t+0x44>
    6586:	f3 0f 10 45 fc       	movss  -0x4(%rbp),%xmm0
    658b:	f3 0f 2c c0          	cvttss2si %xmm0,%eax
    658f:	eb 05                	jmp    6596 <safe_convert_func_float_to_int32_t+0x49>
    6591:	b8 ff ff ff 7f       	mov    $0x7fffffff,%eax
    6596:	5d                   	pop    %rbp
    6597:	c3                   	retq   

0000000000006598 <crc32_gentab>:
    6598:	f3 0f 1e fa          	endbr64 
    659c:	55                   	push   %rbp
    659d:	48 89 e5             	mov    %rsp,%rbp
    65a0:	c7 45 fc 20 83 b8 ed 	movl   $0xedb88320,-0x4(%rbp)
    65a7:	c7 45 f4 00 00 00 00 	movl   $0x0,-0xc(%rbp)
    65ae:	eb 51                	jmp    6601 <crc32_gentab+0x69>
    65b0:	8b 45 f4             	mov    -0xc(%rbp),%eax
    65b3:	89 45 f0             	mov    %eax,-0x10(%rbp)
    65b6:	c7 45 f8 08 00 00 00 	movl   $0x8,-0x8(%rbp)
    65bd:	eb 1e                	jmp    65dd <crc32_gentab+0x45>
    65bf:	8b 45 f0             	mov    -0x10(%rbp),%eax
    65c2:	83 e0 01             	and    $0x1,%eax
    65c5:	85 c0                	test   %eax,%eax
    65c7:	74 0d                	je     65d6 <crc32_gentab+0x3e>
    65c9:	8b 45 f0             	mov    -0x10(%rbp),%eax
    65cc:	d1 e8                	shr    %eax
    65ce:	33 45 fc             	xor    -0x4(%rbp),%eax
    65d1:	89 45 f0             	mov    %eax,-0x10(%rbp)
    65d4:	eb 03                	jmp    65d9 <crc32_gentab+0x41>
    65d6:	d1 6d f0             	shrl   -0x10(%rbp)
    65d9:	83 6d f8 01          	subl   $0x1,-0x8(%rbp)
    65dd:	83 7d f8 00          	cmpl   $0x0,-0x8(%rbp)
    65e1:	7f dc                	jg     65bf <crc32_gentab+0x27>
    65e3:	8b 45 f4             	mov    -0xc(%rbp),%eax
    65e6:	48 98                	cltq   
    65e8:	48 8d 0c 85 00 00 00 	lea    0x0(,%rax,4),%rcx
    65ef:	00 
    65f0:	48 8d 15 e9 ed 00 00 	lea    0xede9(%rip),%rdx        # 153e0 <crc32_tab>
    65f7:	8b 45 f0             	mov    -0x10(%rbp),%eax
    65fa:	89 04 11             	mov    %eax,(%rcx,%rdx,1)
    65fd:	83 45 f4 01          	addl   $0x1,-0xc(%rbp)
    6601:	81 7d f4 ff 00 00 00 	cmpl   $0xff,-0xc(%rbp)
    6608:	7e a6                	jle    65b0 <crc32_gentab+0x18>
    660a:	90                   	nop
    660b:	90                   	nop
    660c:	5d                   	pop    %rbp
    660d:	c3                   	retq   

000000000000660e <crc32_byte>:
    660e:	f3 0f 1e fa          	endbr64 
    6612:	55                   	push   %rbp
    6613:	48 89 e5             	mov    %rsp,%rbp
    6616:	89 f8                	mov    %edi,%eax
    6618:	88 45 fc             	mov    %al,-0x4(%rbp)
    661b:	8b 05 ff c9 00 00    	mov    0xc9ff(%rip),%eax        # 13020 <crc32_context>
    6621:	c1 e8 08             	shr    $0x8,%eax
    6624:	89 c1                	mov    %eax,%ecx
    6626:	0f b6 55 fc          	movzbl -0x4(%rbp),%edx
    662a:	8b 05 f0 c9 00 00    	mov    0xc9f0(%rip),%eax        # 13020 <crc32_context>
    6630:	31 d0                	xor    %edx,%eax
    6632:	0f b6 c0             	movzbl %al,%eax
    6635:	89 c0                	mov    %eax,%eax
    6637:	48 8d 14 85 00 00 00 	lea    0x0(,%rax,4),%rdx
    663e:	00 
    663f:	48 8d 05 9a ed 00 00 	lea    0xed9a(%rip),%rax        # 153e0 <crc32_tab>
    6646:	8b 04 02             	mov    (%rdx,%rax,1),%eax
    6649:	31 c8                	xor    %ecx,%eax
    664b:	89 05 cf c9 00 00    	mov    %eax,0xc9cf(%rip)        # 13020 <crc32_context>
    6651:	90                   	nop
    6652:	5d                   	pop    %rbp
    6653:	c3                   	retq   

0000000000006654 <crc32_8bytes>:
    6654:	f3 0f 1e fa          	endbr64 
    6658:	55                   	push   %rbp
    6659:	48 89 e5             	mov    %rsp,%rbp
    665c:	48 83 ec 08          	sub    $0x8,%rsp
    6660:	48 89 7d f8          	mov    %rdi,-0x8(%rbp)
    6664:	48 8b 45 f8          	mov    -0x8(%rbp),%rax
    6668:	0f b6 c0             	movzbl %al,%eax
    666b:	89 c7                	mov    %eax,%edi
    666d:	e8 9c ff ff ff       	callq  660e <crc32_byte>
    6672:	48 8b 45 f8          	mov    -0x8(%rbp),%rax
    6676:	48 c1 e8 08          	shr    $0x8,%rax
    667a:	0f b6 c0             	movzbl %al,%eax
    667d:	89 c7                	mov    %eax,%edi
    667f:	e8 8a ff ff ff       	callq  660e <crc32_byte>
    6684:	48 8b 45 f8          	mov    -0x8(%rbp),%rax
    6688:	48 c1 e8 10          	shr    $0x10,%rax
    668c:	0f b6 c0             	movzbl %al,%eax
    668f:	89 c7                	mov    %eax,%edi
    6691:	e8 78 ff ff ff       	callq  660e <crc32_byte>
    6696:	48 8b 45 f8          	mov    -0x8(%rbp),%rax
    669a:	48 c1 e8 18          	shr    $0x18,%rax
    669e:	0f b6 c0             	movzbl %al,%eax
    66a1:	89 c7                	mov    %eax,%edi
    66a3:	e8 66 ff ff ff       	callq  660e <crc32_byte>
    66a8:	48 8b 45 f8          	mov    -0x8(%rbp),%rax
    66ac:	48 c1 e8 20          	shr    $0x20,%rax
    66b0:	0f b6 c0             	movzbl %al,%eax
    66b3:	89 c7                	mov    %eax,%edi
    66b5:	e8 54 ff ff ff       	callq  660e <crc32_byte>
    66ba:	48 8b 45 f8          	mov    -0x8(%rbp),%rax
    66be:	48 c1 e8 28          	shr    $0x28,%rax
    66c2:	0f b6 c0             	movzbl %al,%eax
    66c5:	89 c7                	mov    %eax,%edi
    66c7:	e8 42 ff ff ff       	callq  660e <crc32_byte>
    66cc:	48 8b 45 f8          	mov    -0x8(%rbp),%rax
    66d0:	48 c1 e8 30          	shr    $0x30,%rax
    66d4:	0f b6 c0             	movzbl %al,%eax
    66d7:	89 c7                	mov    %eax,%edi
    66d9:	e8 30 ff ff ff       	callq  660e <crc32_byte>
    66de:	48 8b 45 f8          	mov    -0x8(%rbp),%rax
    66e2:	48 c1 e8 38          	shr    $0x38,%rax
    66e6:	0f b6 c0             	movzbl %al,%eax
    66e9:	89 c7                	mov    %eax,%edi
    66eb:	e8 1e ff ff ff       	callq  660e <crc32_byte>
    66f0:	90                   	nop
    66f1:	c9                   	leaveq 
    66f2:	c3                   	retq   

00000000000066f3 <transparent_crc>:
    66f3:	f3 0f 1e fa          	endbr64 
    66f7:	55                   	push   %rbp
    66f8:	48 89 e5             	mov    %rsp,%rbp
    66fb:	48 83 ec 20          	sub    $0x20,%rsp
    66ff:	48 89 7d f8          	mov    %rdi,-0x8(%rbp)
    6703:	48 89 75 f0          	mov    %rsi,-0x10(%rbp)
    6707:	89 55 ec             	mov    %edx,-0x14(%rbp)
    670a:	48 8b 45 f8          	mov    -0x8(%rbp),%rax
    670e:	48 89 c7             	mov    %rax,%rdi
    6711:	e8 3e ff ff ff       	callq  6654 <crc32_8bytes>
    6716:	83 7d ec 00          	cmpl   $0x0,-0x14(%rbp)
    671a:	74 22                	je     673e <transparent_crc+0x4b>
    671c:	8b 05 fe c8 00 00    	mov    0xc8fe(%rip),%eax        # 13020 <crc32_context>
    6722:	f7 d0                	not    %eax
    6724:	89 c2                	mov    %eax,%edx
    6726:	48 8b 45 f0          	mov    -0x10(%rbp),%rax
    672a:	48 89 c6             	mov    %rax,%rsi
    672d:	48 8d 3d fc 88 00 00 	lea    0x88fc(%rip),%rdi        # f030 <_IO_stdin_used+0x30>
    6734:	b8 00 00 00 00       	mov    $0x0,%eax
    6739:	e8 42 e9 ff ff       	callq  5080 <printf@plt>
    673e:	90                   	nop
    673f:	c9                   	leaveq 
    6740:	c3                   	retq   

0000000000006741 <transparent_crc_bytes>:
    6741:	f3 0f 1e fa          	endbr64 
    6745:	55                   	push   %rbp
    6746:	48 89 e5             	mov    %rsp,%rbp
    6749:	48 83 ec 30          	sub    $0x30,%rsp
    674d:	48 89 7d e8          	mov    %rdi,-0x18(%rbp)
    6751:	89 75 e4             	mov    %esi,-0x1c(%rbp)
    6754:	48 89 55 d8          	mov    %rdx,-0x28(%rbp)
    6758:	89 4d e0             	mov    %ecx,-0x20(%rbp)
    675b:	c7 45 fc 00 00 00 00 	movl   $0x0,-0x4(%rbp)
    6762:	eb 1e                	jmp    6782 <transparent_crc_bytes+0x41>
    6764:	8b 45 fc             	mov    -0x4(%rbp),%eax
    6767:	48 63 d0             	movslq %eax,%rdx
    676a:	48 8b 45 e8          	mov    -0x18(%rbp),%rax
    676e:	48 01 d0             	add    %rdx,%rax
    6771:	0f b6 00             	movzbl (%rax),%eax
    6774:	0f b6 c0             	movzbl %al,%eax
    6777:	89 c7                	mov    %eax,%edi
    6779:	e8 90 fe ff ff       	callq  660e <crc32_byte>
    677e:	83 45 fc 01          	addl   $0x1,-0x4(%rbp)
    6782:	8b 45 fc             	mov    -0x4(%rbp),%eax
    6785:	3b 45 e4             	cmp    -0x1c(%rbp),%eax
    6788:	7c da                	jl     6764 <transparent_crc_bytes+0x23>
    678a:	83 7d e0 00          	cmpl   $0x0,-0x20(%rbp)
    678e:	74 22                	je     67b2 <transparent_crc_bytes+0x71>
    6790:	8b 05 8a c8 00 00    	mov    0xc88a(%rip),%eax        # 13020 <crc32_context>
    6796:	f7 d0                	not    %eax
    6798:	89 c2                	mov    %eax,%edx
    679a:	48 8b 45 d8          	mov    -0x28(%rbp),%rax
    679e:	48 89 c6             	mov    %rax,%rsi
    67a1:	48 8d 3d 88 88 00 00 	lea    0x8888(%rip),%rdi        # f030 <_IO_stdin_used+0x30>
    67a8:	b8 00 00 00 00       	mov    $0x0,%eax
    67ad:	e8 ce e8 ff ff       	callq  5080 <printf@plt>
    67b2:	90                   	nop
    67b3:	c9                   	leaveq 
    67b4:	c3                   	retq   

00000000000067b5 <func_1>:
    67b5:	f3 0f 1e fa          	endbr64 
    67b9:	55                   	push   %rbp
    67ba:	48 89 e5             	mov    %rsp,%rbp
    67bd:	41 57                	push   %r15
    67bf:	41 56                	push   %r14
    67c1:	41 55                	push   %r13
    67c3:	41 54                	push   %r12
    67c5:	53                   	push   %rbx
    67c6:	48 81 ec 48 01 00 00 	sub    $0x148,%rsp
    67cd:	64 48 8b 04 25 28 00 	mov    %fs:0x28,%rax
    67d4:	00 00 
    67d6:	48 89 45 c8          	mov    %rax,-0x38(%rbp)
    67da:	31 c0                	xor    %eax,%eax
    67dc:	48 8d 05 41 c8 00 00 	lea    0xc841(%rip),%rax        # 13024 <g_21>
    67e3:	48 89 85 b8 fe ff ff 	mov    %rax,-0x148(%rbp)
    67ea:	c7 85 50 ff ff ff c1 	movl   $0x56b11bc1,-0xb0(%rbp)
    67f1:	1b b1 56 
    67f4:	c7 85 54 ff ff ff 01 	movl   $0x1,-0xac(%rbp)
    67fb:	00 00 00 
    67fe:	c7 85 58 ff ff ff c1 	movl   $0x56b11bc1,-0xa8(%rbp)
    6805:	1b b1 56 
    6808:	c7 85 5c ff ff ff c1 	movl   $0x56b11bc1,-0xa4(%rbp)
    680f:	1b b1 56 
    6812:	c7 85 60 ff ff ff 01 	movl   $0x1,-0xa0(%rbp)
    6819:	00 00 00 
    681c:	c7 85 64 ff ff ff c1 	movl   $0x56b11bc1,-0x9c(%rbp)
    6823:	1b b1 56 
    6826:	c7 85 68 ff ff ff c1 	movl   $0x56b11bc1,-0x98(%rbp)
    682d:	1b b1 56 
    6830:	c7 85 6c ff ff ff 01 	movl   $0x1,-0x94(%rbp)
    6837:	00 00 00 
    683a:	c7 85 70 ff ff ff c1 	movl   $0x56b11bc1,-0x90(%rbp)
    6841:	1b b1 56 
    6844:	c7 85 a8 fe ff ff 9e 	movl   $0x1b9c869e,-0x158(%rbp)
    684b:	86 9c 1b 
    684e:	48 8d 05 7d d3 00 00 	lea    0xd37d(%rip),%rax        # 13bd2 <g_1831+0x72>
    6855:	48 89 85 c0 fe ff ff 	mov    %rax,-0x140(%rbp)
    685c:	48 8d 05 dd d4 00 00 	lea    0xd4dd(%rip),%rax        # 13d40 <g_1833>
    6863:	48 89 85 c8 fe ff ff 	mov    %rax,-0x138(%rbp)
    686a:	48 8d 05 77 d2 00 00 	lea    0xd277(%rip),%rax        # 13ae8 <g_1324>
    6871:	48 89 85 d0 fe ff ff 	mov    %rax,-0x130(%rbp)
    6878:	48 8d 05 99 ef 00 00 	lea    0xef99(%rip),%rax        # 15818 <g_376>
    687f:	48 89 85 d8 fe ff ff 	mov    %rax,-0x128(%rbp)
    6886:	48 8d 05 d7 d4 00 00 	lea    0xd4d7(%rip),%rax        # 13d64 <g_1837+0x4>
    688d:	48 89 85 e0 fe ff ff 	mov    %rax,-0x120(%rbp)
    6894:	48 8d 05 9d ef 00 00 	lea    0xef9d(%rip),%rax        # 15838 <g_1839>
    689b:	48 89 85 e8 fe ff ff 	mov    %rax,-0x118(%rbp)
    68a2:	c7 85 40 ff ff ff 1a 	movl   $0x7baeef1a,-0xc0(%rbp)
    68a9:	ef ae 7b 
    68ac:	c7 85 44 ff ff ff 87 	movl   $0xcdd29d87,-0xbc(%rbp)
    68b3:	9d d2 cd 
    68b6:	c7 85 48 ff ff ff 1a 	movl   $0x7baeef1a,-0xb8(%rbp)
    68bd:	ef ae 7b 
    68c0:	c7 85 4c ff ff ff 87 	movl   $0xcdd29d87,-0xb4(%rbp)
    68c7:	9d d2 cd 
    68ca:	48 c7 85 f0 fe ff ff 	movq   $0x0,-0x110(%rbp)
    68d1:	00 00 00 00 
    68d5:	48 8d 05 e4 e3 00 00 	lea    0xe3e4(%rip),%rax        # 14cc0 <g_138>
    68dc:	48 89 85 f8 fe ff ff 	mov    %rax,-0x108(%rbp)
    68e3:	48 8d 05 d6 e3 00 00 	lea    0xe3d6(%rip),%rax        # 14cc0 <g_138>
    68ea:	48 89 45 80          	mov    %rax,-0x80(%rbp)
    68ee:	48 8d 05 cb e3 00 00 	lea    0xe3cb(%rip),%rax        # 14cc0 <g_138>
    68f5:	48 89 45 88          	mov    %rax,-0x78(%rbp)
    68f9:	48 8d 05 c0 e3 00 00 	lea    0xe3c0(%rip),%rax        # 14cc0 <g_138>
    6900:	48 89 45 90          	mov    %rax,-0x70(%rbp)
    6904:	48 8d 05 b5 e3 00 00 	lea    0xe3b5(%rip),%rax        # 14cc0 <g_138>
    690b:	48 89 45 98          	mov    %rax,-0x68(%rbp)
    690f:	48 8d 05 aa e3 00 00 	lea    0xe3aa(%rip),%rax        # 14cc0 <g_138>
    6916:	48 89 45 a0          	mov    %rax,-0x60(%rbp)
    691a:	48 8d 05 9f e3 00 00 	lea    0xe39f(%rip),%rax        # 14cc0 <g_138>
    6921:	48 89 45 a8          	mov    %rax,-0x58(%rbp)
    6925:	48 8d 05 94 e3 00 00 	lea    0xe394(%rip),%rax        # 14cc0 <g_138>
    692c:	48 89 45 b0          	mov    %rax,-0x50(%rbp)
    6930:	48 8d 05 89 e3 00 00 	lea    0xe389(%rip),%rax        # 14cc0 <g_138>
    6937:	48 89 45 b8          	mov    %rax,-0x48(%rbp)
    693b:	48 8d 05 7e e3 00 00 	lea    0xe37e(%rip),%rax        # 14cc0 <g_138>
    6942:	48 89 45 c0          	mov    %rax,-0x40(%rbp)
    6946:	48 c7 85 00 ff ff ff 	movq   $0x0,-0x100(%rbp)
    694d:	00 00 00 00 
    6951:	48 8d 05 d0 c6 00 00 	lea    0xc6d0(%rip),%rax        # 13028 <g_23>
    6958:	48 89 85 08 ff ff ff 	mov    %rax,-0xf8(%rbp)
    695f:	48 8d 05 1a d4 00 00 	lea    0xd41a(%rip),%rax        # 13d80 <g_1857>
    6966:	48 89 85 10 ff ff ff 	mov    %rax,-0xf0(%rbp)
    696d:	48 8d 05 04 c9 00 00 	lea    0xc904(%rip),%rax        # 13278 <g_202+0x38>
    6974:	48 89 85 18 ff ff ff 	mov    %rax,-0xe8(%rbp)
    697b:	48 8d 05 60 c8 00 00 	lea    0xc860(%rip),%rax        # 131e2 <g_121+0x12>
    6982:	48 89 85 20 ff ff ff 	mov    %rax,-0xe0(%rbp)
    6989:	c7 85 ac fe ff ff 00 	movl   $0x0,-0x154(%rbp)
    6990:	00 00 00 
    6993:	eb 1e                	jmp    69b3 <func_1+0x1fe>
    6995:	8b 85 ac fe ff ff    	mov    -0x154(%rbp),%eax
    699b:	48 98                	cltq   
    699d:	48 8d 15 c4 e9 00 00 	lea    0xe9c4(%rip),%rdx        # 15368 <g_1361>
    69a4:	48 89 94 c5 38 ff ff 	mov    %rdx,-0xc8(%rbp,%rax,8)
    69ab:	ff 
    69ac:	83 85 ac fe ff ff 01 	addl   $0x1,-0x154(%rbp)
    69b3:	83 bd ac fe ff ff 00 	cmpl   $0x0,-0x154(%rbp)
    69ba:	7e d9                	jle    6995 <func_1+0x1e0>
    69bc:	8b 85 68 ff ff ff    	mov    -0x98(%rbp),%eax
    69c2:	89 85 9c fe ff ff    	mov    %eax,-0x164(%rbp)
    69c8:	8b 85 68 ff ff ff    	mov    -0x98(%rbp),%eax
    69ce:	89 85 98 fe ff ff    	mov    %eax,-0x168(%rbp)
    69d4:	8b 85 6c ff ff ff    	mov    -0x94(%rbp),%eax
    69da:	0f bf d8             	movswl %ax,%ebx
    69dd:	8b 85 68 ff ff ff    	mov    -0x98(%rbp),%eax
    69e3:	44 0f b7 e0          	movzwl %ax,%r12d
    69e7:	8b 8d 68 ff ff ff    	mov    -0x98(%rbp),%ecx
    69ed:	89 8d 94 fe ff ff    	mov    %ecx,-0x16c(%rbp)
    69f3:	44 8b ad 68 ff ff ff 	mov    -0x98(%rbp),%r13d
    69fa:	b8 e2 ff ff ff       	mov    $0xffffffe2,%eax
    69ff:	44 0f be f0          	movsbl %al,%r14d
    6a03:	8b 85 50 ff ff ff    	mov    -0xb0(%rbp),%eax
    6a09:	44 0f b7 f8          	movzwl %ax,%r15d
    6a0d:	48 8b 05 ec d0 00 00 	mov    0xd0ec(%rip),%rax        # 13b00 <g_1389+0x10>
    6a14:	98                   	cwtl   
    6a15:	89 c6                	mov    %eax,%esi
    6a17:	bf 00 00 00 00       	mov    $0x0,%edi
    6a1c:	e8 b2 e9 ff ff       	callq  53d3 <safe_sub_func_int16_t_s_s>
    6a21:	0f bf d0             	movswl %ax,%edx
    6a24:	8b 85 a8 fe ff ff    	mov    -0x158(%rbp),%eax
    6a2a:	09 d0                	or     %edx,%eax
    6a2c:	89 85 a8 fe ff ff    	mov    %eax,-0x158(%rbp)
    6a32:	8b 85 a8 fe ff ff    	mov    -0x158(%rbp),%eax
    6a38:	0f b7 c0             	movzwl %ax,%eax
    6a3b:	44 89 fe             	mov    %r15d,%esi
    6a3e:	89 c7                	mov    %eax,%edi
    6a40:	e8 ba f2 ff ff       	callq  5cff <safe_add_func_uint16_t_u_u>
    6a45:	89 c2                	mov    %eax,%edx
    6a47:	48 8b 85 c0 fe ff ff 	mov    -0x140(%rbp),%rax
    6a4e:	66 89 10             	mov    %dx,(%rax)
    6a51:	48 8b 85 c0 fe ff ff 	mov    -0x140(%rbp),%rax
    6a58:	0f b7 10             	movzwl (%rax),%edx
    6a5b:	48 8b 85 c8 fe ff ff 	mov    -0x138(%rbp),%rax
    6a62:	0f b7 00             	movzwl (%rax),%eax
    6a65:	31 c2                	xor    %eax,%edx
    6a67:	48 8b 85 c8 fe ff ff 	mov    -0x138(%rbp),%rax
    6a6e:	66 89 10             	mov    %dx,(%rax)
    6a71:	48 8b 85 c8 fe ff ff 	mov    -0x138(%rbp),%rax
    6a78:	0f b7 00             	movzwl (%rax),%eax
    6a7b:	98                   	cwtl   
    6a7c:	44 89 f6             	mov    %r14d,%esi
    6a7f:	89 c7                	mov    %eax,%edi
    6a81:	e8 6f e9 ff ff       	callq  53f5 <safe_mul_func_int16_t_s_s>
    6a86:	0f bf d0             	movswl %ax,%edx
    6a89:	8b 85 68 ff ff ff    	mov    -0x98(%rbp),%eax
    6a8f:	39 c2                	cmp    %eax,%edx
    6a91:	0f 9f c0             	setg   %al
    6a94:	0f b6 c0             	movzbl %al,%eax
    6a97:	44 89 ee             	mov    %r13d,%esi
    6a9a:	89 c7                	mov    %eax,%edi
    6a9c:	e8 64 eb ff ff       	callq  5605 <safe_sub_func_int32_t_s_s>
    6aa1:	8b 85 6c ff ff ff    	mov    -0x94(%rbp),%eax
    6aa7:	48 98                	cltq   
    6aa9:	48 89 c7             	mov    %rax,%rdi
    6aac:	e8 68 f5 ff ff       	callq  6019 <safe_unary_minus_func_uint64_t_u>
    6ab1:	48 85 c0             	test   %rax,%rax
    6ab4:	0f 94 c0             	sete   %al
    6ab7:	0f b6 d0             	movzbl %al,%edx
    6aba:	48 8b 85 d0 fe ff ff 	mov    -0x130(%rbp),%rax
    6ac1:	89 10                	mov    %edx,(%rax)
    6ac3:	48 8b 85 d0 fe ff ff 	mov    -0x130(%rbp),%rax
    6aca:	8b 00                	mov    (%rax),%eax
    6acc:	3d 1c e7 2b c7       	cmp    $0xc72be71c,%eax
    6ad1:	0f 95 c0             	setne  %al
    6ad4:	0f b6 c0             	movzbl %al,%eax
    6ad7:	39 85 94 fe ff ff    	cmp    %eax,-0x16c(%rbp)
    6add:	48 8b 05 5c e4 00 00 	mov    0xe45c(%rip),%rax        # 14f40 <g_389>
    6ae4:	4c 8b 28             	mov    (%rax),%r13
    6ae7:	48 8b 85 b8 fe ff ff 	mov    -0x148(%rbp),%rax
    6aee:	48 89 c7             	mov    %rax,%rdi
    6af1:	e8 c9 44 00 00       	callq  afbf <func_18>
    6af6:	4c 89 ee             	mov    %r13,%rsi
    6af9:	48 89 c7             	mov    %rax,%rdi
    6afc:	e8 4f 03 00 00       	callq  6e50 <func_15>
    6b01:	89 c1                	mov    %eax,%ecx
    6b03:	48 83 bd d8 fe ff ff 	cmpq   $0x0,-0x128(%rbp)
    6b0a:	00 
    6b0b:	0f 95 c0             	setne  %al
    6b0e:	89 c2                	mov    %eax,%edx
    6b10:	48 8b 05 91 e8 00 00 	mov    0xe891(%rip),%rax        # 153a8 <g_1730>
    6b17:	48 8b 00             	mov    (%rax),%rax
    6b1a:	48 8b 00             	mov    (%rax),%rax
    6b1d:	48 8b 00             	mov    (%rax),%rax
    6b20:	21 ca                	and    %ecx,%edx
    6b22:	88 10                	mov    %dl,(%rax)
    6b24:	0f b6 00             	movzbl (%rax),%eax
    6b27:	0f be c0             	movsbl %al,%eax
    6b2a:	89 c6                	mov    %eax,%esi
    6b2c:	bf c3 ff ff ff       	mov    $0xffffffc3,%edi
    6b31:	e8 6b e7 ff ff       	callq  52a1 <safe_lshift_func_int8_t_s_s>
    6b36:	0f be d0             	movsbl %al,%edx
    6b39:	8b 05 d1 cf 00 00    	mov    0xcfd1(%rip),%eax        # 13b10 <g_1599>
    6b3f:	39 c2                	cmp    %eax,%edx
    6b41:	0f 9d c0             	setge  %al
    6b44:	0f b6 d0             	movzbl %al,%edx
    6b47:	8b 85 68 ff ff ff    	mov    -0x98(%rbp),%eax
    6b4d:	39 c2                	cmp    %eax,%edx
    6b4f:	0f 9e c0             	setle  %al
    6b52:	0f b6 c0             	movzbl %al,%eax
    6b55:	44 89 e6             	mov    %r12d,%esi
    6b58:	89 c7                	mov    %eax,%edi
    6b5a:	e8 a0 f1 ff ff       	callq  5cff <safe_add_func_uint16_t_u_u>
    6b5f:	0f b7 c0             	movzwl %ax,%eax
    6b62:	89 c6                	mov    %eax,%esi
    6b64:	bf ff 00 00 00       	mov    $0xff,%edi
    6b69:	e8 97 ea ff ff       	callq  5605 <safe_sub_func_int32_t_s_s>
    6b6e:	0c a4                	or     $0xa4,%al
    6b70:	98                   	cwtl   
    6b71:	89 de                	mov    %ebx,%esi
    6b73:	89 c7                	mov    %eax,%edi
    6b75:	e8 7b e8 ff ff       	callq  53f5 <safe_mul_func_int16_t_s_s>
    6b7a:	98                   	cwtl   
    6b7b:	8b b5 98 fe ff ff    	mov    -0x168(%rbp),%esi
    6b81:	89 c7                	mov    %eax,%edi
    6b83:	e8 75 f3 ff ff       	callq  5efd <safe_mod_func_uint32_t_u_u>
    6b88:	0f b7 c0             	movzwl %ax,%eax
    6b8b:	8b b5 9c fe ff ff    	mov    -0x164(%rbp),%esi
    6b91:	89 c7                	mov    %eax,%edi
    6b93:	e8 6e f2 ff ff       	callq  5e06 <safe_lshift_func_uint16_t_u_u>
    6b98:	48 8b 95 e0 fe ff ff 	mov    -0x120(%rbp),%rdx
    6b9f:	8b 12                	mov    (%rdx),%edx
    6ba1:	0f b7 c0             	movzwl %ax,%eax
    6ba4:	21 c2                	and    %eax,%edx
    6ba6:	48 8b 85 e0 fe ff ff 	mov    -0x120(%rbp),%rax
    6bad:	89 10                	mov    %edx,(%rax)
    6baf:	48 8b 85 e0 fe ff ff 	mov    -0x120(%rbp),%rax
    6bb6:	8b 10                	mov    (%rax),%edx
    6bb8:	48 8b 85 e8 fe ff ff 	mov    -0x118(%rbp),%rax
    6bbf:	8b 00                	mov    (%rax),%eax
    6bc1:	31 c2                	xor    %eax,%edx
    6bc3:	48 8b 85 e8 fe ff ff 	mov    -0x118(%rbp),%rax
    6bca:	89 10                	mov    %edx,(%rax)
    6bcc:	48 8b 85 e8 fe ff ff 	mov    -0x118(%rbp),%rax
    6bd3:	8b 10                	mov    (%rax),%edx
    6bd5:	48 8b 85 e8 fe ff ff 	mov    -0x118(%rbp),%rax
    6bdc:	89 10                	mov    %edx,(%rax)
    6bde:	48 8b 85 e8 fe ff ff 	mov    -0x118(%rbp),%rax
    6be5:	8b 00                	mov    (%rax),%eax
    6be7:	85 c0                	test   %eax,%eax
    6be9:	74 07                	je     6bf2 <func_1+0x43d>
    6beb:	ba 01 00 00 00       	mov    $0x1,%edx
    6bf0:	eb 05                	jmp    6bf7 <func_1+0x442>
    6bf2:	ba 00 00 00 00       	mov    $0x0,%edx
    6bf7:	48 8d 85 a8 fe ff ff 	lea    -0x158(%rbp),%rax
    6bfe:	48 89 85 00 ff ff ff 	mov    %rax,-0x100(%rbp)
    6c05:	48 8b 85 00 ff ff ff 	mov    -0x100(%rbp),%rax
    6c0c:	48 3b 85 08 ff ff ff 	cmp    -0xf8(%rbp),%rax
    6c13:	0f 95 c0             	setne  %al
    6c16:	0f b6 c0             	movzbl %al,%eax
    6c19:	39 c2                	cmp    %eax,%edx
    6c1b:	0f 9d c0             	setge  %al
    6c1e:	0f b6 c0             	movzbl %al,%eax
    6c21:	89 c7                	mov    %eax,%edi
    6c23:	e8 6e e9 ff ff       	callq  5596 <safe_unary_minus_func_int32_t_s>
    6c28:	48 8b 95 e0 fe ff ff 	mov    -0x120(%rbp),%rdx
    6c2f:	89 02                	mov    %eax,(%rdx)
    6c31:	48 8b 05 80 e0 00 00 	mov    0xe080(%rip),%rax        # 14cb8 <g_134>
    6c38:	48 8b 95 e0 fe ff ff 	mov    -0x120(%rbp),%rdx
    6c3f:	8b 12                	mov    (%rdx),%edx
    6c41:	89 10                	mov    %edx,(%rax)
    6c43:	8b 05 57 8e 00 00    	mov    0x8e57(%rip),%eax        # faa0 <l_1858.4150+0x10>
    6c49:	89 c2                	mov    %eax,%edx
    6c4b:	48 8b 05 be bc 00 00 	mov    0xbcbe(%rip),%rax        # 12910 <l_1854.4147+0x390>
    6c52:	48 c7 85 10 ff ff ff 	movq   $0x0,-0xf0(%rbp)
    6c59:	00 00 00 00 
    6c5d:	48 39 85 10 ff ff ff 	cmp    %rax,-0xf0(%rbp)
    6c64:	0f 94 c0             	sete   %al
    6c67:	0f b6 c0             	movzbl %al,%eax
    6c6a:	89 d6                	mov    %edx,%esi
    6c6c:	89 c7                	mov    %eax,%edi
    6c6e:	e8 5d f2 ff ff       	callq  5ed0 <safe_sub_func_uint32_t_u_u>
    6c73:	89 c2                	mov    %eax,%edx
    6c75:	48 8b 85 18 ff ff ff 	mov    -0xe8(%rbp),%rax
    6c7c:	48 89 10             	mov    %rdx,(%rax)
    6c7f:	48 8b 85 e0 fe ff ff 	mov    -0x120(%rbp),%rax
    6c86:	8b 18                	mov    (%rax),%ebx
    6c88:	48 8b 85 e0 fe ff ff 	mov    -0x120(%rbp),%rax
    6c8f:	8b 00                	mov    (%rax),%eax
    6c91:	83 f0 01             	xor    $0x1,%eax
    6c94:	0f b7 c0             	movzwl %ax,%eax
    6c97:	be 0a 00 00 00       	mov    $0xa,%esi
    6c9c:	89 c7                	mov    %eax,%edi
    6c9e:	e8 d7 f1 ff ff       	callq  5e7a <safe_rshift_func_uint16_t_u_u>
    6ca3:	0f b7 c0             	movzwl %ax,%eax
    6ca6:	21 d8                	and    %ebx,%eax
    6ca8:	85 c0                	test   %eax,%eax
    6caa:	75 0b                	jne    6cb7 <func_1+0x502>
    6cac:	48 8b 85 00 ff ff ff 	mov    -0x100(%rbp),%rax
    6cb3:	8b 00                	mov    (%rax),%eax
    6cb5:	85 c0                	test   %eax,%eax
    6cb7:	48 8b 85 00 ff ff ff 	mov    -0x100(%rbp),%rax
    6cbe:	8b 00                	mov    (%rax),%eax
    6cc0:	0f b6 c0             	movzbl %al,%eax
    6cc3:	be 06 00 00 00       	mov    $0x6,%esi
    6cc8:	89 c7                	mov    %eax,%edi
    6cca:	e8 a9 ee ff ff       	callq  5b78 <safe_sub_func_uint8_t_u_u>
    6ccf:	3c 02                	cmp    $0x2,%al
    6cd1:	0f 95 c0             	setne  %al
    6cd4:	0f b6 d0             	movzbl %al,%edx
    6cd7:	48 8b 85 20 ff ff ff 	mov    -0xe0(%rbp),%rax
    6cde:	66 89 10             	mov    %dx,(%rax)
    6ce1:	48 8b 85 20 ff ff ff 	mov    -0xe0(%rbp),%rax
    6ce8:	0f b7 00             	movzwl (%rax),%eax
    6ceb:	0f b6 c0             	movzbl %al,%eax
    6cee:	83 e0 2b             	and    $0x2b,%eax
    6cf1:	89 c6                	mov    %eax,%esi
    6cf3:	bf 69 00 00 00       	mov    $0x69,%edi
    6cf8:	e8 7b ee ff ff       	callq  5b78 <safe_sub_func_uint8_t_u_u>
    6cfd:	84 c0                	test   %al,%al
    6cff:	0f 84 e1 00 00 00    	je     6de6 <func_1+0x631>
    6d05:	48 8d 05 04 c5 00 00 	lea    0xc504(%rip),%rax        # 13210 <g_128+0x10>
    6d0c:	48 89 85 28 ff ff ff 	mov    %rax,-0xd8(%rbp)
    6d13:	48 8d 05 be df 00 00 	lea    0xdfbe(%rip),%rax        # 14cd8 <g_221>
    6d1a:	48 89 85 30 ff ff ff 	mov    %rax,-0xd0(%rbp)
    6d21:	48 c7 05 bc cb 00 00 	movq   $0x0,0xcbbc(%rip)        # 138e8 <g_480>
    6d28:	00 00 00 00 
    6d2c:	e9 91 00 00 00       	jmpq   6dc2 <func_1+0x60d>
    6d31:	c6 05 d8 ea 00 00 00 	movb   $0x0,0xead8(%rip)        # 15810 <g_333>
    6d38:	90                   	nop
    6d39:	0f b6 05 d0 ea 00 00 	movzbl 0xead0(%rip),%eax        # 15810 <g_333>
    6d40:	3c 02                	cmp    $0x2,%al
    6d42:	77 34                	ja     6d78 <func_1+0x5c3>
    6d44:	0f b6 05 c5 ea 00 00 	movzbl 0xeac5(%rip),%eax        # 15810 <g_333>
    6d4b:	0f b6 c0             	movzbl %al,%eax
    6d4e:	48 98                	cltq   
    6d50:	48 8d 14 c5 00 00 00 	lea    0x0(,%rax,8),%rdx
    6d57:	00 
    6d58:	48 8d 05 91 cd 00 00 	lea    0xcd91(%rip),%rax        # 13af0 <g_1389>
    6d5f:	48 8b 04 02          	mov    (%rdx,%rax,1),%rax
    6d63:	48 85 c0             	test   %rax,%rax
    6d66:	75 0f                	jne    6d77 <func_1+0x5c2>
    6d68:	48 8d 05 49 cd 00 00 	lea    0xcd49(%rip),%rax        # 13ab8 <g_510+0x1b8>
    6d6f:	48 8b 00             	mov    (%rax),%rax
    6d72:	e9 b3 00 00 00       	jmpq   6e2a <func_1+0x675>
    6d77:	90                   	nop
    6d78:	48 8b 85 00 ff ff ff 	mov    -0x100(%rbp),%rax
    6d7f:	8b 10                	mov    (%rax),%edx
    6d81:	48 8b 85 e8 fe ff ff 	mov    -0x118(%rbp),%rax
    6d88:	89 10                	mov    %edx,(%rax)
    6d8a:	48 8b 85 e8 fe ff ff 	mov    -0x118(%rbp),%rax
    6d91:	8b 08                	mov    (%rax),%ecx
    6d93:	48 8b 05 1e df 00 00 	mov    0xdf1e(%rip),%rax        # 14cb8 <g_134>
    6d9a:	8b 10                	mov    (%rax),%edx
    6d9c:	48 8b 05 15 df 00 00 	mov    0xdf15(%rip),%rax        # 14cb8 <g_134>
    6da3:	21 ca                	and    %ecx,%edx
    6da5:	89 10                	mov    %edx,(%rax)
    6da7:	48 8b 05 3a cb 00 00 	mov    0xcb3a(%rip),%rax        # 138e8 <g_480>
    6dae:	be 09 00 00 00       	mov    $0x9,%esi
    6db3:	48 89 c7             	mov    %rax,%rdi
    6db6:	e8 90 f2 ff ff       	callq  604b <safe_sub_func_uint64_t_u_u>
    6dbb:	48 89 05 26 cb 00 00 	mov    %rax,0xcb26(%rip)        # 138e8 <g_480>
    6dc2:	48 8b 05 1f cb 00 00 	mov    0xcb1f(%rip),%rax        # 138e8 <g_480>
    6dc9:	48 83 f8 fd          	cmp    $0xfffffffffffffffd,%rax
    6dcd:	0f 8d 5e ff ff ff    	jge    6d31 <func_1+0x57c>
    6dd3:	48 8b 85 30 ff ff ff 	mov    -0xd0(%rbp),%rax
    6dda:	48 8b 95 28 ff ff ff 	mov    -0xd8(%rbp),%rdx
    6de1:	48 89 10             	mov    %rdx,(%rax)
    6de4:	eb 11                	jmp    6df7 <func_1+0x642>
    6de6:	c7 85 b0 fe ff ff 93 	movl   $0x86dc9f93,-0x150(%rbp)
    6ded:	9f dc 86 
    6df0:	83 ad b0 fe ff ff 01 	subl   $0x1,-0x150(%rbp)
    6df7:	c7 05 27 c2 00 00 10 	movl   $0x10,0xc227(%rip)        # 13028 <g_23>
    6dfe:	00 00 00 
    6e01:	90                   	nop
    6e02:	8b 05 20 c2 00 00    	mov    0xc220(%rip),%eax        # 13028 <g_23>
    6e08:	83 f8 f2             	cmp    $0xfffffff2,%eax
    6e0b:	7d 12                	jge    6e1f <func_1+0x66a>
    6e0d:	c7 85 b4 fe ff ff bc 	movl   $0x3efd89bc,-0x14c(%rbp)
    6e14:	89 fd 3e 
    6e17:	8b 85 b4 fe ff ff    	mov    -0x14c(%rbp),%eax
    6e1d:	eb 0b                	jmp    6e2a <func_1+0x675>
    6e1f:	48 8b 85 e8 fe ff ff 	mov    -0x118(%rbp),%rax
    6e26:	8b 00                	mov    (%rax),%eax
    6e28:	48 98                	cltq   
    6e2a:	48 8b 5d c8          	mov    -0x38(%rbp),%rbx
    6e2e:	64 48 33 1c 25 28 00 	xor    %fs:0x28,%rbx
    6e35:	00 00 
    6e37:	74 05                	je     6e3e <func_1+0x689>
    6e39:	e8 32 e2 ff ff       	callq  5070 <__stack_chk_fail@plt>
    6e3e:	48 81 c4 48 01 00 00 	add    $0x148,%rsp
    6e45:	5b                   	pop    %rbx
    6e46:	41 5c                	pop    %r12
    6e48:	41 5d                	pop    %r13
    6e4a:	41 5e                	pop    %r14
    6e4c:	41 5f                	pop    %r15
    6e4e:	5d                   	pop    %rbp
    6e4f:	c3                   	retq   

0000000000006e50 <func_15>:
    6e50:	f3 0f 1e fa          	endbr64 
    6e54:	55                   	push   %rbp
    6e55:	48 89 e5             	mov    %rsp,%rbp
    6e58:	41 57                	push   %r15
    6e5a:	41 56                	push   %r14
    6e5c:	41 55                	push   %r13
    6e5e:	41 54                	push   %r12
    6e60:	53                   	push   %rbx
    6e61:	48 81 ec 00 10 00 00 	sub    $0x1000,%rsp
    6e68:	48 83 0c 24 00       	orq    $0x0,(%rsp)
    6e6d:	48 81 ec 28 08 00 00 	sub    $0x828,%rsp
    6e74:	48 89 bd c8 e7 ff ff 	mov    %rdi,-0x1838(%rbp)
    6e7b:	48 89 b5 c0 e7 ff ff 	mov    %rsi,-0x1840(%rbp)
    6e82:	64 48 8b 04 25 28 00 	mov    %fs:0x28,%rax
    6e89:	00 00 
    6e8b:	48 89 45 c8          	mov    %rax,-0x38(%rbp)
    6e8f:	31 c0                	xor    %eax,%eax
    6e91:	c7 85 70 eb ff ff 09 	movl   $0x9,-0x1490(%rbp)
    6e98:	00 00 00 
    6e9b:	c7 85 74 eb ff ff fb 	movl   $0xfffffffb,-0x148c(%rbp)
    6ea2:	ff ff ff 
    6ea5:	48 8d 05 8c c1 00 00 	lea    0xc18c(%rip),%rax        # 13038 <g_48>
    6eac:	48 89 85 d0 e8 ff ff 	mov    %rax,-0x1730(%rbp)
    6eb3:	48 8d 05 8e e1 00 00 	lea    0xe18e(%rip),%rax        # 15048 <g_548+0x28>
    6eba:	48 89 85 68 e9 ff ff 	mov    %rax,-0x1698(%rbp)
    6ec1:	48 8d 05 5c c1 00 00 	lea    0xc15c(%rip),%rax        # 13024 <g_21>
    6ec8:	48 89 85 d8 e8 ff ff 	mov    %rax,-0x1728(%rbp)
    6ecf:	48 8d 05 ea dd 00 00 	lea    0xddea(%rip),%rax        # 14cc0 <g_138>
    6ed6:	48 89 85 e0 e8 ff ff 	mov    %rax,-0x1720(%rbp)
    6edd:	48 8d 05 2c e9 00 00 	lea    0xe92c(%rip),%rax        # 15810 <g_333>
    6ee4:	48 89 85 e8 e8 ff ff 	mov    %rax,-0x1718(%rbp)
    6eeb:	c7 85 38 e8 ff ff 5c 	movl   $0xe788785c,-0x17c8(%rbp)
    6ef2:	78 88 e7 
    6ef5:	48 8d 05 da c2 00 00 	lea    0xc2da(%rip),%rax        # 131d6 <g_121+0x6>
    6efc:	48 89 85 f0 e8 ff ff 	mov    %rax,-0x1710(%rbp)
    6f03:	48 c7 85 70 e9 ff ff 	movq   $0x0,-0x1690(%rbp)
    6f0a:	00 00 00 00 
    6f0e:	48 8d 05 2b c1 00 00 	lea    0xc12b(%rip),%rax        # 13040 <g_69>
    6f15:	48 89 85 78 e9 ff ff 	mov    %rax,-0x1688(%rbp)
    6f1c:	66 c7 85 da e7 ff ff 	movw   $0x0,-0x1826(%rbp)
    6f23:	00 00 
    6f25:	48 8d 05 ec e8 00 00 	lea    0xe8ec(%rip),%rax        # 15818 <g_376>
    6f2c:	48 89 85 80 e9 ff ff 	mov    %rax,-0x1680(%rbp)
    6f33:	48 8d 05 6e dd 00 00 	lea    0xdd6e(%rip),%rax        # 14ca8 <g_127>
    6f3a:	48 89 85 f8 e8 ff ff 	mov    %rax,-0x1708(%rbp)
    6f41:	48 8d 05 70 c2 00 00 	lea    0xc270(%rip),%rax        # 131b8 <g_94>
    6f48:	48 89 85 00 e9 ff ff 	mov    %rax,-0x1700(%rbp)
    6f4f:	48 c7 85 08 e9 ff ff 	movq   $0x0,-0x16f8(%rbp)
    6f56:	00 00 00 00 
    6f5a:	c7 85 08 e9 ff ff fc 	movl   $0xfffffffc,-0x16f8(%rbp)
    6f61:	ff ff ff 
    6f64:	c7 85 3c e8 ff ff 05 	movl   $0x5,-0x17c4(%rbp)
    6f6b:	00 00 00 
    6f6e:	c7 85 08 e8 ff ff fc 	movl   $0xfffffffc,-0x17f8(%rbp)
    6f75:	ff ff ff 
    6f78:	c7 85 40 e8 ff ff 01 	movl   $0x1,-0x17c0(%rbp)
    6f7f:	00 00 00 
    6f82:	c7 85 44 e8 ff ff f5 	movl   $0xda4fb0f5,-0x17bc(%rbp)
    6f89:	b0 4f da 
    6f8c:	c7 85 48 e8 ff ff 04 	movl   $0xe1ed3804,-0x17b8(%rbp)
    6f93:	38 ed e1 
    6f96:	48 8d 05 73 c9 00 00 	lea    0xc973(%rip),%rax        # 13910 <g_510+0x10>
    6f9d:	48 89 85 10 e9 ff ff 	mov    %rax,-0x16f0(%rbp)
    6fa4:	48 8d 05 dd e0 00 00 	lea    0xe0dd(%rip),%rax        # 15088 <g_546>
    6fab:	48 89 85 88 e9 ff ff 	mov    %rax,-0x1678(%rbp)
    6fb2:	48 c7 85 a0 ec ff ff 	movq   $0x0,-0x1360(%rbp)
    6fb9:	00 00 00 00 
    6fbd:	48 c7 85 a8 ec ff ff 	movq   $0x0,-0x1358(%rbp)
    6fc4:	00 00 00 00 
    6fc8:	48 c7 85 b0 ec ff ff 	movq   $0x0,-0x1350(%rbp)
    6fcf:	00 00 00 00 
    6fd3:	48 c7 85 b8 ec ff ff 	movq   $0x0,-0x1348(%rbp)
    6fda:	00 00 00 00 
    6fde:	48 c7 85 c0 ec ff ff 	movq   $0x0,-0x1340(%rbp)
    6fe5:	00 00 00 00 
    6fe9:	48 c7 85 c8 ec ff ff 	movq   $0x0,-0x1338(%rbp)
    6ff0:	00 00 00 00 
    6ff4:	48 c7 85 d0 ec ff ff 	movq   $0x0,-0x1330(%rbp)
    6ffb:	00 00 00 00 
    6fff:	48 c7 85 d8 ec ff ff 	movq   $0x0,-0x1328(%rbp)
    7006:	00 00 00 00 
    700a:	48 c7 85 e0 ec ff ff 	movq   $0x0,-0x1320(%rbp)
    7011:	00 00 00 00 
    7015:	48 c7 85 e8 ec ff ff 	movq   $0x0,-0x1318(%rbp)
    701c:	00 00 00 00 
    7020:	66 c7 85 a0 ec ff ff 	movw   $0x947f,-0x1360(%rbp)
    7027:	7f 94 
    7029:	66 c7 85 a8 ec ff ff 	movw   $0x3ad9,-0x1358(%rbp)
    7030:	d9 3a 
    7032:	66 c7 85 b0 ec ff ff 	movw   $0x3ad9,-0x1350(%rbp)
    7039:	d9 3a 
    703b:	66 c7 85 b8 ec ff ff 	movw   $0x947f,-0x1348(%rbp)
    7042:	7f 94 
    7044:	66 c7 85 c0 ec ff ff 	movw   $0x3ad9,-0x1340(%rbp)
    704b:	d9 3a 
    704d:	66 c7 85 c8 ec ff ff 	movw   $0x3ad9,-0x1338(%rbp)
    7054:	d9 3a 
    7056:	66 c7 85 d0 ec ff ff 	movw   $0x947f,-0x1330(%rbp)
    705d:	7f 94 
    705f:	66 c7 85 d8 ec ff ff 	movw   $0x3ad9,-0x1328(%rbp)
    7066:	d9 3a 
    7068:	66 c7 85 e0 ec ff ff 	movw   $0x3ad9,-0x1320(%rbp)
    706f:	d9 3a 
    7071:	66 c7 85 e8 ec ff ff 	movw   $0x947f,-0x1318(%rbp)
    7078:	7f 94 
    707a:	c7 85 ec e7 ff ff d0 	movl   $0x3bdbd8d0,-0x1814(%rbp)
    7081:	d8 db 3b 
    7084:	48 8d 05 a5 e7 00 00 	lea    0xe7a5(%rip),%rax        # 15830 <g_1059>
    708b:	48 89 85 90 e9 ff ff 	mov    %rax,-0x1670(%rbp)
    7092:	66 c7 85 dc e7 ff ff 	movw   $0x921,-0x1824(%rbp)
    7099:	21 09 
    709b:	c7 85 4c e8 ff ff 08 	movl   $0x8,-0x17b4(%rbp)
    70a2:	00 00 00 
    70a5:	c7 85 f0 e7 ff ff 00 	movl   $0x0,-0x1810(%rbp)
    70ac:	00 00 00 
    70af:	48 c7 85 98 e9 ff ff 	movq   $0x0,-0x1668(%rbp)
    70b6:	00 00 00 00 
    70ba:	66 c7 85 de e7 ff ff 	movw   $0x0,-0x1822(%rbp)
    70c1:	00 00 
    70c3:	48 c7 85 a0 e9 ff ff 	movq   $0x0,-0x1660(%rbp)
    70ca:	00 00 00 00 
    70ce:	c6 85 d1 e7 ff ff ff 	movb   $0xff,-0x182f(%rbp)
    70d5:	48 b8 0f e9 91 c5 f7 	movabs $0x87b850f7c591e90f,%rax
    70dc:	50 b8 87 
    70df:	48 89 85 a8 e9 ff ff 	mov    %rax,-0x1658(%rbp)
    70e6:	c7 85 50 e8 ff ff 09 	movl   $0x9,-0x17b0(%rbp)
    70ed:	00 00 00 
    70f0:	66 c7 85 e0 e7 ff ff 	movw   $0x43cc,-0x1820(%rbp)
    70f7:	cc 43 
    70f9:	48 8d 85 ec e7 ff ff 	lea    -0x1814(%rbp),%rax
    7100:	48 89 85 b0 e9 ff ff 	mov    %rax,-0x1650(%rbp)
    7107:	c7 85 f4 e7 ff ff 00 	movl   $0x0,-0x180c(%rbp)
    710e:	00 00 00 
    7111:	c7 85 f8 e7 ff ff ff 	movl   $0xffffffff,-0x1808(%rbp)
    7118:	ff ff ff 
    711b:	48 8d 85 70 f6 ff ff 	lea    -0x990(%rbp),%rax
    7122:	48 8d 15 77 cc 00 00 	lea    0xcc77(%rip),%rdx        # 13da0 <g_1857+0x20>
    7129:	b9 50 00 00 00       	mov    $0x50,%ecx
    712e:	48 89 c7             	mov    %rax,%rdi
    7131:	48 89 d6             	mov    %rdx,%rsi
    7134:	f3 48 a5             	rep movsq %ds:(%rsi),%es:(%rdi)
    7137:	48 8d 85 60 ee ff ff 	lea    -0x11a0(%rbp),%rax
    713e:	48 8d 15 5b 7f 00 00 	lea    0x7f5b(%rip),%rdx        # f0a0 <g_356+0x16>
    7145:	b9 28 00 00 00       	mov    $0x28,%ecx
    714a:	48 89 c7             	mov    %rax,%rdi
    714d:	48 89 d6             	mov    %rdx,%rsi
    7150:	f3 48 a5             	rep movsq %ds:(%rsi),%es:(%rdi)
    7153:	48 8d 05 26 e2 00 00 	lea    0xe226(%rip),%rax        # 15380 <g_1603>
    715a:	48 89 85 18 e9 ff ff 	mov    %rax,-0x16e8(%rbp)
    7161:	48 8d 85 18 e9 ff ff 	lea    -0x16e8(%rbp),%rax
    7168:	48 89 85 40 ed ff ff 	mov    %rax,-0x12c0(%rbp)
    716f:	48 8d 85 18 e9 ff ff 	lea    -0x16e8(%rbp),%rax
    7176:	48 89 85 48 ed ff ff 	mov    %rax,-0x12b8(%rbp)
    717d:	48 8d 85 18 e9 ff ff 	lea    -0x16e8(%rbp),%rax
    7184:	48 89 85 50 ed ff ff 	mov    %rax,-0x12b0(%rbp)
    718b:	48 c7 85 58 ed ff ff 	movq   $0x0,-0x12a8(%rbp)
    7192:	00 00 00 00 
    7196:	48 c7 85 60 ed ff ff 	movq   $0x0,-0x12a0(%rbp)
    719d:	00 00 00 00 
    71a1:	48 c7 85 68 ed ff ff 	movq   $0x0,-0x1298(%rbp)
    71a8:	00 00 00 00 
    71ac:	48 8d 85 18 e9 ff ff 	lea    -0x16e8(%rbp),%rax
    71b3:	48 89 85 70 ed ff ff 	mov    %rax,-0x1290(%rbp)
    71ba:	48 c7 85 78 ed ff ff 	movq   $0x0,-0x1288(%rbp)
    71c1:	00 00 00 00 
    71c5:	48 8d 85 18 e9 ff ff 	lea    -0x16e8(%rbp),%rax
    71cc:	48 89 85 80 ed ff ff 	mov    %rax,-0x1280(%rbp)
    71d3:	48 8d 85 18 e9 ff ff 	lea    -0x16e8(%rbp),%rax
    71da:	48 89 85 88 ed ff ff 	mov    %rax,-0x1278(%rbp)
    71e1:	48 8d 85 18 e9 ff ff 	lea    -0x16e8(%rbp),%rax
    71e8:	48 89 85 90 ed ff ff 	mov    %rax,-0x1270(%rbp)
    71ef:	48 8d 85 18 e9 ff ff 	lea    -0x16e8(%rbp),%rax
    71f6:	48 89 85 98 ed ff ff 	mov    %rax,-0x1268(%rbp)
    71fd:	48 c7 85 a0 ed ff ff 	movq   $0x0,-0x1260(%rbp)
    7204:	00 00 00 00 
    7208:	48 8d 85 18 e9 ff ff 	lea    -0x16e8(%rbp),%rax
    720f:	48 89 85 a8 ed ff ff 	mov    %rax,-0x1258(%rbp)
    7216:	48 8d 85 18 e9 ff ff 	lea    -0x16e8(%rbp),%rax
    721d:	48 89 85 b0 ed ff ff 	mov    %rax,-0x1250(%rbp)
    7224:	48 c7 85 b8 ed ff ff 	movq   $0x0,-0x1248(%rbp)
    722b:	00 00 00 00 
    722f:	48 8d 85 18 e9 ff ff 	lea    -0x16e8(%rbp),%rax
    7236:	48 89 85 c0 ed ff ff 	mov    %rax,-0x1240(%rbp)
    723d:	48 c7 85 c8 ed ff ff 	movq   $0x0,-0x1238(%rbp)
    7244:	00 00 00 00 
    7248:	48 8d 85 18 e9 ff ff 	lea    -0x16e8(%rbp),%rax
    724f:	48 89 85 d0 ed ff ff 	mov    %rax,-0x1230(%rbp)
    7256:	48 c7 85 d8 ed ff ff 	movq   $0x0,-0x1228(%rbp)
    725d:	00 00 00 00 
    7261:	48 8d 85 18 e9 ff ff 	lea    -0x16e8(%rbp),%rax
    7268:	48 89 85 e0 ed ff ff 	mov    %rax,-0x1220(%rbp)
    726f:	48 8d 85 18 e9 ff ff 	lea    -0x16e8(%rbp),%rax
    7276:	48 89 85 e8 ed ff ff 	mov    %rax,-0x1218(%rbp)
    727d:	48 8d 85 18 e9 ff ff 	lea    -0x16e8(%rbp),%rax
    7284:	48 89 85 f0 ed ff ff 	mov    %rax,-0x1210(%rbp)
    728b:	48 8d 85 18 e9 ff ff 	lea    -0x16e8(%rbp),%rax
    7292:	48 89 85 f8 ed ff ff 	mov    %rax,-0x1208(%rbp)
    7299:	48 c7 85 00 ee ff ff 	movq   $0x0,-0x1200(%rbp)
    72a0:	00 00 00 00 
    72a4:	48 c7 85 08 ee ff ff 	movq   $0x0,-0x11f8(%rbp)
    72ab:	00 00 00 00 
    72af:	48 8d 85 18 e9 ff ff 	lea    -0x16e8(%rbp),%rax
    72b6:	48 89 85 10 ee ff ff 	mov    %rax,-0x11f0(%rbp)
    72bd:	48 8d 85 18 e9 ff ff 	lea    -0x16e8(%rbp),%rax
    72c4:	48 89 85 18 ee ff ff 	mov    %rax,-0x11e8(%rbp)
    72cb:	48 8d 85 18 e9 ff ff 	lea    -0x16e8(%rbp),%rax
    72d2:	48 89 85 20 ee ff ff 	mov    %rax,-0x11e0(%rbp)
    72d9:	48 8d 85 18 e9 ff ff 	lea    -0x16e8(%rbp),%rax
    72e0:	48 89 85 28 ee ff ff 	mov    %rax,-0x11d8(%rbp)
    72e7:	48 8d 85 18 e9 ff ff 	lea    -0x16e8(%rbp),%rax
    72ee:	48 89 85 30 ee ff ff 	mov    %rax,-0x11d0(%rbp)
    72f5:	48 c7 85 38 ee ff ff 	movq   $0x0,-0x11c8(%rbp)
    72fc:	00 00 00 00 
    7300:	48 c7 85 40 ee ff ff 	movq   $0x0,-0x11c0(%rbp)
    7307:	00 00 00 00 
    730b:	48 c7 85 48 ee ff ff 	movq   $0x0,-0x11b8(%rbp)
    7312:	00 00 00 00 
    7316:	48 8d 85 18 e9 ff ff 	lea    -0x16e8(%rbp),%rax
    731d:	48 89 85 50 ee ff ff 	mov    %rax,-0x11b0(%rbp)
    7324:	48 c7 85 58 ee ff ff 	movq   $0x0,-0x11a8(%rbp)
    732b:	00 00 00 00 
    732f:	48 c7 85 b8 e9 ff ff 	movq   $0x0,-0x1648(%rbp)
    7336:	00 00 00 00 
    733a:	66 c7 85 e2 e7 ff ff 	movw   $0x8ea5,-0x181e(%rbp)
    7341:	a5 8e 
    7343:	c7 85 04 e8 ff ff 00 	movl   $0x0,-0x17fc(%rbp)
    734a:	00 00 00 
    734d:	eb 1a                	jmp    7369 <func_15+0x519>
    734f:	8b 85 04 e8 ff ff    	mov    -0x17fc(%rbp),%eax
    7355:	48 98                	cltq   
    7357:	c7 84 85 c0 eb ff ff 	movl   $0xfffffff8,-0x1440(%rbp,%rax,4)
    735e:	f8 ff ff ff 
    7362:	83 85 04 e8 ff ff 01 	addl   $0x1,-0x17fc(%rbp)
    7369:	83 bd 04 e8 ff ff 06 	cmpl   $0x6,-0x17fc(%rbp)
    7370:	7e dd                	jle    734f <func_15+0x4ff>
    7372:	c7 85 04 e8 ff ff 00 	movl   $0x0,-0x17fc(%rbp)
    7379:	00 00 00 
    737c:	eb 42                	jmp    73c0 <func_15+0x570>
    737e:	c7 85 fc e7 ff ff 00 	movl   $0x0,-0x1804(%rbp)
    7385:	00 00 00 
    7388:	eb 26                	jmp    73b0 <func_15+0x560>
    738a:	8b 85 fc e7 ff ff    	mov    -0x1804(%rbp),%eax
    7390:	48 63 d0             	movslq %eax,%rdx
    7393:	8b 85 04 e8 ff ff    	mov    -0x17fc(%rbp),%eax
    7399:	48 98                	cltq   
    739b:	48 01 d0             	add    %rdx,%rax
    739e:	c7 84 85 84 eb ff ff 	movl   $0x2dfccc87,-0x147c(%rbp,%rax,4)
    73a5:	87 cc fc 2d 
    73a9:	83 85 fc e7 ff ff 01 	addl   $0x1,-0x1804(%rbp)
    73b0:	83 bd fc e7 ff ff 00 	cmpl   $0x0,-0x1804(%rbp)
    73b7:	7e d1                	jle    738a <func_15+0x53a>
    73b9:	83 85 04 e8 ff ff 01 	addl   $0x1,-0x17fc(%rbp)
    73c0:	83 bd 04 e8 ff ff 00 	cmpl   $0x0,-0x17fc(%rbp)
    73c7:	7e b5                	jle    737e <func_15+0x52e>
    73c9:	c7 85 04 e8 ff ff 00 	movl   $0x0,-0x17fc(%rbp)
    73d0:	00 00 00 
    73d3:	eb 14                	jmp    73e9 <func_15+0x599>
    73d5:	8b 85 04 e8 ff ff    	mov    -0x17fc(%rbp),%eax
    73db:	48 98                	cltq   
    73dd:	c6 44 05 b7 f3       	movb   $0xf3,-0x49(%rbp,%rax,1)
    73e2:	83 85 04 e8 ff ff 01 	addl   $0x1,-0x17fc(%rbp)
    73e9:	83 bd 04 e8 ff ff 06 	cmpl   $0x6,-0x17fc(%rbp)
    73f0:	7e e3                	jle    73d5 <func_15+0x585>
    73f2:	48 8b 85 70 eb ff ff 	mov    -0x1490(%rbp),%rax
    73f9:	48 89 85 c8 e7 ff ff 	mov    %rax,-0x1838(%rbp)
    7400:	48 8b 05 39 db 00 00 	mov    0xdb39(%rip),%rax        # 14f40 <g_389>
    7407:	48 8b 18             	mov    (%rax),%rbx
    740a:	48 83 bd 68 e9 ff ff 	cmpq   $0x0,-0x1698(%rbp)
    7411:	00 
    7412:	0f 94 c2             	sete   %dl
    7415:	48 8b 85 d0 e8 ff ff 	mov    -0x1730(%rbp),%rax
    741c:	0f b6 d2             	movzbl %dl,%edx
    741f:	89 10                	mov    %edx,(%rax)
    7421:	44 8b 20             	mov    (%rax),%r12d
    7424:	be 03 00 00 00       	mov    $0x3,%esi
    7429:	bf f1 00 00 00       	mov    $0xf1,%edi
    742e:	e8 5a e8 ff ff       	callq  5c8d <safe_rshift_func_uint8_t_u_s>
    7433:	3c 7a                	cmp    $0x7a,%al
    7435:	0f 97 c0             	seta   %al
    7438:	0f b6 c0             	movzbl %al,%eax
    743b:	41 39 c4             	cmp    %eax,%r12d
    743e:	0f 9d c0             	setge  %al
    7441:	0f b6 c8             	movzbl %al,%ecx
    7444:	48 8b 85 d0 e8 ff ff 	mov    -0x1730(%rbp),%rax
    744b:	4c 8b a5 e0 e8 ff ff 	mov    -0x1720(%rbp),%r12
    7452:	48 89 da             	mov    %rbx,%rdx
    7455:	89 ce                	mov    %ecx,%esi
    7457:	48 89 c7             	mov    %rax,%rdi
    745a:	e8 8e 3d 00 00       	callq  b1ed <func_41>
    745f:	49 89 04 24          	mov    %rax,(%r12)
    7463:	48 8b 85 e0 e8 ff ff 	mov    -0x1720(%rbp),%rax
    746a:	48 8b 00             	mov    (%rax),%rax
    746d:	8b 00                	mov    (%rax),%eax
    746f:	89 c2                	mov    %eax,%edx
    7471:	8b 85 cc e7 ff ff    	mov    -0x1834(%rbp),%eax
    7477:	89 d1                	mov    %edx,%ecx
    7479:	31 c1                	xor    %eax,%ecx
    747b:	48 8b 05 1e d8 00 00 	mov    0xd81e(%rip),%rax        # 14ca0 <g_118>
    7482:	8b 10                	mov    (%rax),%edx
    7484:	83 ea 01             	sub    $0x1,%edx
    7487:	89 10                	mov    %edx,(%rax)
    7489:	8b 00                	mov    (%rax),%eax
    748b:	39 c1                	cmp    %eax,%ecx
    748d:	0f 95 c0             	setne  %al
    7490:	44 0f b6 e0          	movzbl %al,%r12d
    7494:	48 8b 85 e0 e8 ff ff 	mov    -0x1720(%rbp),%rax
    749b:	48 8b 00             	mov    (%rax),%rax
    749e:	8b 00                	mov    (%rax),%eax
    74a0:	0f bf d8             	movswl %ax,%ebx
    74a3:	48 8b 85 d0 e8 ff ff 	mov    -0x1730(%rbp),%rax
    74aa:	44 8b 28             	mov    (%rax),%r13d
    74ad:	48 8b 85 f0 e8 ff ff 	mov    -0x1710(%rbp),%rax
    74b4:	0f b7 10             	movzwl (%rax),%edx
    74b7:	8d 4a 01             	lea    0x1(%rdx),%ecx
    74ba:	66 89 08             	mov    %cx,(%rax)
    74bd:	0f b7 c2             	movzwl %dx,%eax
    74c0:	89 c7                	mov    %eax,%edi
    74c2:	e8 22 e8 ff ff       	callq  5ce9 <safe_unary_minus_func_uint16_t_u>
    74c7:	66 85 c0             	test   %ax,%ax
    74ca:	0f 95 c0             	setne  %al
    74cd:	0f b6 c0             	movzbl %al,%eax
    74d0:	41 39 c5             	cmp    %eax,%r13d
    74d3:	8b 85 c8 e7 ff ff    	mov    -0x1838(%rbp),%eax
    74d9:	89 c2                	mov    %eax,%edx
    74db:	48 8b 85 78 e9 ff ff 	mov    -0x1688(%rbp),%rax
    74e2:	66 89 10             	mov    %dx,(%rax)
    74e5:	8b 85 c8 e7 ff ff    	mov    -0x1838(%rbp),%eax
    74eb:	85 c0                	test   %eax,%eax
    74ed:	0f 95 c0             	setne  %al
    74f0:	0f b6 c0             	movzbl %al,%eax
    74f3:	89 de                	mov    %ebx,%esi
    74f5:	89 c7                	mov    %eax,%edi
    74f7:	e8 f9 de ff ff       	callq  53f5 <safe_mul_func_int16_t_s_s>
    74fc:	48 8b 05 c5 c5 00 00 	mov    0xc5c5(%rip),%rax        # 13ac8 <g_519>
    7503:	48 3d fb b7 00 00    	cmp    $0xb7fb,%rax
    7509:	7f 07                	jg     7512 <func_15+0x6c2>
    750b:	b8 01 00 00 00       	mov    $0x1,%eax
    7510:	eb 05                	jmp    7517 <func_15+0x6c7>
    7512:	b8 00 00 00 00       	mov    $0x0,%eax
    7517:	44 39 e0             	cmp    %r12d,%eax
    751a:	0f 8e 40 12 00 00    	jle    8760 <func_15+0x1910>
    7520:	c7 85 8c e8 ff ff ff 	movl   $0xffffffff,-0x1774(%rbp)
    7527:	ff ff ff 
    752a:	c7 85 00 e8 ff ff 06 	movl   $0x6b4d7706,-0x1800(%rbp)
    7531:	77 4d 6b 
    7534:	48 8d 85 d0 e8 ff ff 	lea    -0x1730(%rbp),%rax
    753b:	48 89 85 f0 f8 ff ff 	mov    %rax,-0x710(%rbp)
    7542:	48 8d 85 d0 e8 ff ff 	lea    -0x1730(%rbp),%rax
    7549:	48 89 85 f8 f8 ff ff 	mov    %rax,-0x708(%rbp)
    7550:	48 c7 85 00 f9 ff ff 	movq   $0x0,-0x700(%rbp)
    7557:	00 00 00 00 
    755b:	48 8d 85 d0 e8 ff ff 	lea    -0x1730(%rbp),%rax
    7562:	48 89 85 08 f9 ff ff 	mov    %rax,-0x6f8(%rbp)
    7569:	48 8d 85 d0 e8 ff ff 	lea    -0x1730(%rbp),%rax
    7570:	48 89 85 10 f9 ff ff 	mov    %rax,-0x6f0(%rbp)
    7577:	48 8d 85 d0 e8 ff ff 	lea    -0x1730(%rbp),%rax
    757e:	48 89 85 18 f9 ff ff 	mov    %rax,-0x6e8(%rbp)
    7585:	48 c7 85 20 f9 ff ff 	movq   $0x0,-0x6e0(%rbp)
    758c:	00 00 00 00 
    7590:	48 8d 85 d0 e8 ff ff 	lea    -0x1730(%rbp),%rax
    7597:	48 89 85 28 f9 ff ff 	mov    %rax,-0x6d8(%rbp)
    759e:	48 8d 85 d0 e8 ff ff 	lea    -0x1730(%rbp),%rax
    75a5:	48 89 85 30 f9 ff ff 	mov    %rax,-0x6d0(%rbp)
    75ac:	48 8d 85 d0 e8 ff ff 	lea    -0x1730(%rbp),%rax
    75b3:	48 89 85 38 f9 ff ff 	mov    %rax,-0x6c8(%rbp)
    75ba:	48 8d 85 d0 e8 ff ff 	lea    -0x1730(%rbp),%rax
    75c1:	48 89 85 40 f9 ff ff 	mov    %rax,-0x6c0(%rbp)
    75c8:	48 8d 85 d0 e8 ff ff 	lea    -0x1730(%rbp),%rax
    75cf:	48 89 85 48 f9 ff ff 	mov    %rax,-0x6b8(%rbp)
    75d6:	48 8d 85 d0 e8 ff ff 	lea    -0x1730(%rbp),%rax
    75dd:	48 89 85 50 f9 ff ff 	mov    %rax,-0x6b0(%rbp)
    75e4:	48 c7 85 58 f9 ff ff 	movq   $0x0,-0x6a8(%rbp)
    75eb:	00 00 00 00 
    75ef:	48 8d 85 d0 e8 ff ff 	lea    -0x1730(%rbp),%rax
    75f6:	48 89 85 60 f9 ff ff 	mov    %rax,-0x6a0(%rbp)
    75fd:	48 8d 85 d0 e8 ff ff 	lea    -0x1730(%rbp),%rax
    7604:	48 89 85 68 f9 ff ff 	mov    %rax,-0x698(%rbp)
    760b:	48 8d 85 d0 e8 ff ff 	lea    -0x1730(%rbp),%rax
    7612:	48 89 85 70 f9 ff ff 	mov    %rax,-0x690(%rbp)
    7619:	48 c7 85 78 f9 ff ff 	movq   $0x0,-0x688(%rbp)
    7620:	00 00 00 00 
    7624:	48 8d 85 d0 e8 ff ff 	lea    -0x1730(%rbp),%rax
    762b:	48 89 85 80 f9 ff ff 	mov    %rax,-0x680(%rbp)
    7632:	48 8d 85 d0 e8 ff ff 	lea    -0x1730(%rbp),%rax
    7639:	48 89 85 88 f9 ff ff 	mov    %rax,-0x678(%rbp)
    7640:	48 8d 85 d0 e8 ff ff 	lea    -0x1730(%rbp),%rax
    7647:	48 89 85 90 f9 ff ff 	mov    %rax,-0x670(%rbp)
    764e:	48 c7 85 98 f9 ff ff 	movq   $0x0,-0x668(%rbp)
    7655:	00 00 00 00 
    7659:	48 c7 85 a0 f9 ff ff 	movq   $0x0,-0x660(%rbp)
    7660:	00 00 00 00 
    7664:	48 c7 85 a8 f9 ff ff 	movq   $0x0,-0x658(%rbp)
    766b:	00 00 00 00 
    766f:	48 8d 85 d0 e8 ff ff 	lea    -0x1730(%rbp),%rax
    7676:	48 89 85 b0 f9 ff ff 	mov    %rax,-0x650(%rbp)
    767d:	48 c7 85 b8 f9 ff ff 	movq   $0x0,-0x648(%rbp)
    7684:	00 00 00 00 
    7688:	48 c7 85 c0 f9 ff ff 	movq   $0x0,-0x640(%rbp)
    768f:	00 00 00 00 
    7693:	48 c7 85 c8 f9 ff ff 	movq   $0x0,-0x638(%rbp)
    769a:	00 00 00 00 
    769e:	48 8d 85 d0 e8 ff ff 	lea    -0x1730(%rbp),%rax
    76a5:	48 89 85 d0 f9 ff ff 	mov    %rax,-0x630(%rbp)
    76ac:	48 c7 85 d8 f9 ff ff 	movq   $0x0,-0x628(%rbp)
    76b3:	00 00 00 00 
    76b7:	48 8d 85 d0 e8 ff ff 	lea    -0x1730(%rbp),%rax
    76be:	48 89 85 e0 f9 ff ff 	mov    %rax,-0x620(%rbp)
    76c5:	48 c7 85 e8 f9 ff ff 	movq   $0x0,-0x618(%rbp)
    76cc:	00 00 00 00 
    76d0:	48 8d 85 d0 e8 ff ff 	lea    -0x1730(%rbp),%rax
    76d7:	48 89 85 f0 f9 ff ff 	mov    %rax,-0x610(%rbp)
    76de:	48 8d 85 d0 e8 ff ff 	lea    -0x1730(%rbp),%rax
    76e5:	48 89 85 f8 f9 ff ff 	mov    %rax,-0x608(%rbp)
    76ec:	48 8d 85 d0 e8 ff ff 	lea    -0x1730(%rbp),%rax
    76f3:	48 89 85 00 fa ff ff 	mov    %rax,-0x600(%rbp)
    76fa:	48 c7 85 08 fa ff ff 	movq   $0x0,-0x5f8(%rbp)
    7701:	00 00 00 00 
    7705:	48 8d 85 d0 e8 ff ff 	lea    -0x1730(%rbp),%rax
    770c:	48 89 85 10 fa ff ff 	mov    %rax,-0x5f0(%rbp)
    7713:	48 8d 85 d0 e8 ff ff 	lea    -0x1730(%rbp),%rax
    771a:	48 89 85 18 fa ff ff 	mov    %rax,-0x5e8(%rbp)
    7721:	48 8d 85 d0 e8 ff ff 	lea    -0x1730(%rbp),%rax
    7728:	48 89 85 20 fa ff ff 	mov    %rax,-0x5e0(%rbp)
    772f:	48 c7 85 28 fa ff ff 	movq   $0x0,-0x5d8(%rbp)
    7736:	00 00 00 00 
    773a:	48 8d 85 d0 e8 ff ff 	lea    -0x1730(%rbp),%rax
    7741:	48 89 85 30 fa ff ff 	mov    %rax,-0x5d0(%rbp)
    7748:	48 8d 85 d0 e8 ff ff 	lea    -0x1730(%rbp),%rax
    774f:	48 89 85 38 fa ff ff 	mov    %rax,-0x5c8(%rbp)
    7756:	48 c7 85 40 fa ff ff 	movq   $0x0,-0x5c0(%rbp)
    775d:	00 00 00 00 
    7761:	48 8d 85 d0 e8 ff ff 	lea    -0x1730(%rbp),%rax
    7768:	48 89 85 48 fa ff ff 	mov    %rax,-0x5b8(%rbp)
    776f:	48 8d 85 d0 e8 ff ff 	lea    -0x1730(%rbp),%rax
    7776:	48 89 85 50 fa ff ff 	mov    %rax,-0x5b0(%rbp)
    777d:	48 8d 85 d0 e8 ff ff 	lea    -0x1730(%rbp),%rax
    7784:	48 89 85 58 fa ff ff 	mov    %rax,-0x5a8(%rbp)
    778b:	48 c7 85 60 fa ff ff 	movq   $0x0,-0x5a0(%rbp)
    7792:	00 00 00 00 
    7796:	48 8d 85 d0 e8 ff ff 	lea    -0x1730(%rbp),%rax
    779d:	48 89 85 68 fa ff ff 	mov    %rax,-0x598(%rbp)
    77a4:	48 8d 85 d0 e8 ff ff 	lea    -0x1730(%rbp),%rax
    77ab:	48 89 85 70 fa ff ff 	mov    %rax,-0x590(%rbp)
    77b2:	48 8d 85 d0 e8 ff ff 	lea    -0x1730(%rbp),%rax
    77b9:	48 89 85 78 fa ff ff 	mov    %rax,-0x588(%rbp)
    77c0:	48 c7 85 60 e9 ff ff 	movq   $0x0,-0x16a0(%rbp)
    77c7:	00 00 00 00 
    77cb:	48 c7 85 20 e9 ff ff 	movq   $0x0,-0x16e0(%rbp)
    77d2:	00 00 00 00 
    77d6:	48 8d 05 5b b8 00 00 	lea    0xb85b(%rip),%rax        # 13038 <g_48>
    77dd:	48 89 85 90 ea ff ff 	mov    %rax,-0x1570(%rbp)
    77e4:	c7 85 90 e8 ff ff 00 	movl   $0x0,-0x1770(%rbp)
    77eb:	00 00 00 
    77ee:	c6 85 d5 e7 ff ff 01 	movb   $0x1,-0x182b(%rbp)
    77f5:	48 8d 05 bc b9 00 00 	lea    0xb9bc(%rip),%rax        # 131b8 <g_94>
    77fc:	48 89 85 98 ea ff ff 	mov    %rax,-0x1568(%rbp)
    7803:	48 8d 05 b6 b9 00 00 	lea    0xb9b6(%rip),%rax        # 131c0 <g_113>
    780a:	48 89 85 28 e9 ff ff 	mov    %rax,-0x16d8(%rbp)
    7811:	48 8d 85 28 e9 ff ff 	lea    -0x16d8(%rbp),%rax
    7818:	48 89 85 30 e9 ff ff 	mov    %rax,-0x16d0(%rbp)
    781f:	48 8d 85 30 e9 ff ff 	lea    -0x16d0(%rbp),%rax
    7826:	48 89 85 38 e9 ff ff 	mov    %rax,-0x16c8(%rbp)
    782d:	48 8d 85 38 e9 ff ff 	lea    -0x16c8(%rbp),%rax
    7834:	48 89 85 a0 ea ff ff 	mov    %rax,-0x1560(%rbp)
    783b:	48 8d 05 2e d8 00 00 	lea    0xd82e(%rip),%rax        # 15070 <g_548+0x50>
    7842:	48 89 85 a8 ea ff ff 	mov    %rax,-0x1558(%rbp)
    7849:	48 c7 85 40 e9 ff ff 	movq   $0x0,-0x16c0(%rbp)
    7850:	00 00 00 00 
    7854:	66 c7 85 40 e9 ff ff 	movw   $0x994a,-0x16c0(%rbp)
    785b:	4a 99 
    785d:	48 8d 05 dc d6 00 00 	lea    0xd6dc(%rip),%rax        # 14f40 <g_389>
    7864:	48 89 85 b0 ea ff ff 	mov    %rax,-0x1550(%rbp)
    786b:	48 b8 54 eb d6 60 f2 	movabs $0xf644def260d6eb54,%rax
    7872:	de 44 f6 
    7875:	48 89 85 b8 ea ff ff 	mov    %rax,-0x1548(%rbp)
    787c:	48 8d 05 65 d4 00 00 	lea    0xd465(%rip),%rax        # 14ce8 <g_332>
    7883:	48 89 85 c0 ea ff ff 	mov    %rax,-0x1540(%rbp)
    788a:	48 b8 5d a2 d0 3f 0e 	movabs $0x70ed660e3fd0a25d,%rax
    7891:	66 ed 70 
    7894:	48 89 85 c8 ea ff ff 	mov    %rax,-0x1538(%rbp)
    789b:	c6 85 a0 ef ff ff ff 	movb   $0xff,-0x1060(%rbp)
    78a2:	c6 85 a1 ef ff ff 01 	movb   $0x1,-0x105f(%rbp)
    78a9:	c6 85 a2 ef ff ff 01 	movb   $0x1,-0x105e(%rbp)
    78b0:	c6 85 a3 ef ff ff 01 	movb   $0x1,-0x105d(%rbp)
    78b7:	c6 85 a4 ef ff ff ff 	movb   $0xff,-0x105c(%rbp)
    78be:	c6 85 a5 ef ff ff 01 	movb   $0x1,-0x105b(%rbp)
    78c5:	c6 85 a6 ef ff ff 01 	movb   $0x1,-0x105a(%rbp)
    78cc:	c6 85 a7 ef ff ff 01 	movb   $0x1,-0x1059(%rbp)
    78d3:	c6 85 a8 ef ff ff ff 	movb   $0xff,-0x1058(%rbp)
    78da:	c6 85 a9 ef ff ff 01 	movb   $0x1,-0x1057(%rbp)
    78e1:	c6 85 aa ef ff ff 01 	movb   $0x1,-0x1056(%rbp)
    78e8:	c6 85 ab ef ff ff 01 	movb   $0x1,-0x1055(%rbp)
    78ef:	c6 85 ac ef ff ff ff 	movb   $0xff,-0x1054(%rbp)
    78f6:	c6 85 ad ef ff ff 01 	movb   $0x1,-0x1053(%rbp)
    78fd:	c6 85 ae ef ff ff 01 	movb   $0x1,-0x1052(%rbp)
    7904:	c6 85 af ef ff ff 01 	movb   $0x1,-0x1051(%rbp)
    790b:	c6 85 b0 ef ff ff ff 	movb   $0xff,-0x1050(%rbp)
    7912:	c6 85 b1 ef ff ff 01 	movb   $0x1,-0x104f(%rbp)
    7919:	c6 85 b2 ef ff ff 01 	movb   $0x1,-0x104e(%rbp)
    7920:	c6 85 b3 ef ff ff 01 	movb   $0x1,-0x104d(%rbp)
    7927:	c6 85 b4 ef ff ff ff 	movb   $0xff,-0x104c(%rbp)
    792e:	c6 85 b5 ef ff ff 01 	movb   $0x1,-0x104b(%rbp)
    7935:	c6 85 b6 ef ff ff 01 	movb   $0x1,-0x104a(%rbp)
    793c:	c6 85 b7 ef ff ff 01 	movb   $0x1,-0x1049(%rbp)
    7943:	c6 85 b8 ef ff ff ff 	movb   $0xff,-0x1048(%rbp)
    794a:	c6 85 b9 ef ff ff 01 	movb   $0x1,-0x1047(%rbp)
    7951:	c6 85 ba ef ff ff 01 	movb   $0x1,-0x1046(%rbp)
    7958:	c6 85 bb ef ff ff 01 	movb   $0x1,-0x1045(%rbp)
    795f:	c6 85 bc ef ff ff ff 	movb   $0xff,-0x1044(%rbp)
    7966:	c6 85 bd ef ff ff 01 	movb   $0x1,-0x1043(%rbp)
    796d:	c6 85 be ef ff ff 01 	movb   $0x1,-0x1042(%rbp)
    7974:	c6 85 bf ef ff ff 01 	movb   $0x1,-0x1041(%rbp)
    797b:	c6 85 c0 ef ff ff ff 	movb   $0xff,-0x1040(%rbp)
    7982:	c6 85 c1 ef ff ff 01 	movb   $0x1,-0x103f(%rbp)
    7989:	c6 85 c2 ef ff ff 01 	movb   $0x1,-0x103e(%rbp)
    7990:	48 8d 05 91 de 00 00 	lea    0xde91(%rip),%rax        # 15828 <g_839>
    7997:	48 89 85 d0 ea ff ff 	mov    %rax,-0x1530(%rbp)
    799e:	c7 85 0c e8 ff ff 00 	movl   $0x0,-0x17f4(%rbp)
    79a5:	00 00 00 
    79a8:	eb 1e                	jmp    79c8 <func_15+0xb78>
    79aa:	8b 85 0c e8 ff ff    	mov    -0x17f4(%rbp),%eax
    79b0:	48 98                	cltq   
    79b2:	48 8d 15 37 bf 00 00 	lea    0xbf37(%rip),%rdx        # 138f0 <g_493>
    79b9:	48 89 94 c5 50 ec ff 	mov    %rdx,-0x13b0(%rbp,%rax,8)
    79c0:	ff 
    79c1:	83 85 0c e8 ff ff 01 	addl   $0x1,-0x17f4(%rbp)
    79c8:	83 bd 0c e8 ff ff 02 	cmpl   $0x2,-0x17f4(%rbp)
    79cf:	7e d9                	jle    79aa <func_15+0xb5a>
    79d1:	8b 85 cc e7 ff ff    	mov    -0x1834(%rbp),%eax
    79d7:	0f be d0             	movsbl %al,%edx
    79da:	48 8b 05 27 d6 00 00 	mov    0xd627(%rip),%rax        # 15008 <g_502>
    79e1:	48 8b 8d 08 fa ff ff 	mov    -0x5f8(%rbp),%rcx
    79e8:	48 89 08             	mov    %rcx,(%rax)
    79eb:	48 8b 00             	mov    (%rax),%rax
    79ee:	48 85 c0             	test   %rax,%rax
    79f1:	0f 95 c1             	setne  %cl
    79f4:	48 8b 05 45 d5 00 00 	mov    0xd545(%rip),%rax        # 14f40 <g_389>
    79fb:	48 8b 00             	mov    (%rax),%rax
    79fe:	88 08                	mov    %cl,(%rax)
    7a00:	0f b6 00             	movzbl (%rax),%eax
    7a03:	0f be c0             	movsbl %al,%eax
    7a06:	89 d6                	mov    %edx,%esi
    7a08:	89 c7                	mov    %eax,%edi
    7a0a:	e8 e3 d7 ff ff       	callq  51f2 <safe_sub_func_int8_t_s_s>
    7a0f:	0f be d0             	movsbl %al,%edx
    7a12:	8b 85 cc e7 ff ff    	mov    -0x1834(%rbp),%eax
    7a18:	39 c2                	cmp    %eax,%edx
    7a1a:	0f 97 c0             	seta   %al
    7a1d:	0f b6 d0             	movzbl %al,%edx
    7a20:	8b 05 02 b6 00 00    	mov    0xb602(%rip),%eax        # 13028 <g_23>
    7a26:	98                   	cwtl   
    7a27:	89 d6                	mov    %edx,%esi
    7a29:	89 c7                	mov    %eax,%edi
    7a2b:	e8 83 d9 ff ff       	callq  53b3 <safe_add_func_int16_t_s_s>
    7a30:	48 8b 05 69 d2 00 00 	mov    0xd269(%rip),%rax        # 14ca0 <g_118>
    7a37:	48 8b 05 82 d2 00 00 	mov    0xd282(%rip),%rax        # 14cc0 <g_138>
    7a3e:	8b 95 00 e8 ff ff    	mov    -0x1800(%rbp),%edx
    7a44:	89 10                	mov    %edx,(%rax)
    7a46:	8b 85 c8 e7 ff ff    	mov    -0x1838(%rbp),%eax
    7a4c:	c1 e8 1f             	shr    $0x1f,%eax
    7a4f:	0f b6 d0             	movzbl %al,%edx
    7a52:	0f bf 85 da e7 ff ff 	movswl -0x1826(%rbp),%eax
    7a59:	39 c2                	cmp    %eax,%edx
    7a5b:	0f 94 c0             	sete   %al
    7a5e:	0f b6 c0             	movzbl %al,%eax
    7a61:	89 85 38 e8 ff ff    	mov    %eax,-0x17c8(%rbp)
    7a67:	8b 85 38 e8 ff ff    	mov    -0x17c8(%rbp),%eax
    7a6d:	89 c2                	mov    %eax,%edx
    7a6f:	8b 85 cc e7 ff ff    	mov    -0x1834(%rbp),%eax
    7a75:	21 d0                	and    %edx,%eax
    7a77:	89 c2                	mov    %eax,%edx
    7a79:	48 8b 85 78 e9 ff ff 	mov    -0x1688(%rbp),%rax
    7a80:	66 89 10             	mov    %dx,(%rax)
    7a83:	48 8b 85 78 e9 ff ff 	mov    -0x1688(%rbp),%rax
    7a8a:	0f b7 10             	movzwl (%rax),%edx
    7a8d:	0f b7 05 5c be 00 00 	movzwl 0xbe5c(%rip),%eax        # 138f0 <g_493>
    7a94:	21 d0                	and    %edx,%eax
    7a96:	66 89 05 53 be 00 00 	mov    %ax,0xbe53(%rip)        # 138f0 <g_493>
    7a9d:	48 83 bd 60 e9 ff ff 	cmpq   $0x0,-0x16a0(%rbp)
    7aa4:	00 
    7aa5:	0f 84 a2 09 00 00    	je     844d <func_15+0x15fd>
    7aab:	c7 85 94 e8 ff ff 95 	movl   $0xda88dd95,-0x176c(%rbp)
    7ab2:	dd 88 da 
    7ab5:	c7 85 98 e8 ff ff 06 	movl   $0x6,-0x1768(%rbp)
    7abc:	00 00 00 
    7abf:	c7 85 10 e8 ff ff f6 	movl   $0xfffffff6,-0x17f0(%rbp)
    7ac6:	ff ff ff 
    7ac9:	48 8d 05 08 d2 00 00 	lea    0xd208(%rip),%rax        # 14cd8 <g_221>
    7ad0:	48 89 85 48 e9 ff ff 	mov    %rax,-0x16b8(%rbp)
    7ad7:	48 8d 05 fa bf 00 00 	lea    0xbffa(%rip),%rax        # 13ad8 <g_686>
    7ade:	48 89 85 50 e9 ff ff 	mov    %rax,-0x16b0(%rbp)
    7ae5:	48 8d 85 50 e9 ff ff 	lea    -0x16b0(%rbp),%rax
    7aec:	48 89 85 d8 ea ff ff 	mov    %rax,-0x1528(%rbp)
    7af3:	c6 85 d6 e7 ff ff 04 	movb   $0x4,-0x182a(%rbp)
    7afa:	c7 85 78 eb ff ff 00 	movl   $0x0,-0x1488(%rbp)
    7b01:	00 00 00 
    7b04:	c7 85 7c eb ff ff 01 	movl   $0x1,-0x1484(%rbp)
    7b0b:	00 00 00 
    7b0e:	48 8d 05 c1 b6 00 00 	lea    0xb6c1(%rip),%rax        # 131d6 <g_121+0x6>
    7b15:	48 89 85 e0 ea ff ff 	mov    %rax,-0x1520(%rbp)
    7b1c:	c7 85 14 e8 ff ff 00 	movl   $0x0,-0x17ec(%rbp)
    7b23:	00 00 00 
    7b26:	eb 1a                	jmp    7b42 <func_15+0xcf2>
    7b28:	8b 85 14 e8 ff ff    	mov    -0x17ec(%rbp),%eax
    7b2e:	48 98                	cltq   
    7b30:	c7 84 85 10 ec ff ff 	movl   $0xffffffff,-0x13f0(%rbp,%rax,4)
    7b37:	ff ff ff ff 
    7b3b:	83 85 14 e8 ff ff 01 	addl   $0x1,-0x17ec(%rbp)
    7b42:	83 bd 14 e8 ff ff 04 	cmpl   $0x4,-0x17ec(%rbp)
    7b49:	7e dd                	jle    7b28 <func_15+0xcd8>
    7b4b:	48 c7 85 60 e9 ff ff 	movq   $0x0,-0x16a0(%rbp)
    7b52:	00 00 00 00 
    7b56:	e9 16 04 00 00       	jmpq   7f71 <func_15+0x1121>
    7b5b:	48 8d 05 da b4 00 00 	lea    0xb4da(%rip),%rax        # 1303c <g_51>
    7b62:	48 89 85 e8 ea ff ff 	mov    %rax,-0x1518(%rbp)
    7b69:	48 8d 85 00 e9 ff ff 	lea    -0x1700(%rbp),%rax
    7b70:	48 89 85 f0 ea ff ff 	mov    %rax,-0x1510(%rbp)
    7b77:	48 c7 85 f8 ea ff ff 	movq   $0x0,-0x1508(%rbp)
    7b7e:	00 00 00 00 
    7b82:	c6 85 d7 e7 ff ff 8c 	movb   $0x8c,-0x1829(%rbp)
    7b89:	c7 05 21 b6 00 00 01 	movl   $0x1,0xb621(%rip)        # 131b4 <g_75>
    7b90:	00 00 00 
    7b93:	e9 dc 02 00 00       	jmpq   7e74 <func_15+0x1024>
    7b98:	48 c7 85 08 eb ff ff 	movq   $0x0,-0x14f8(%rbp)
    7b9f:	00 00 00 00 
    7ba3:	48 8d 85 20 e9 ff ff 	lea    -0x16e0(%rbp),%rax
    7baa:	48 89 85 10 eb ff ff 	mov    %rax,-0x14f0(%rbp)
    7bb1:	c7 85 c8 e8 ff ff 03 	movl   $0x3,-0x1738(%rbp)
    7bb8:	00 00 00 
    7bbb:	c6 85 d8 e7 ff ff 3d 	movb   $0x3d,-0x1828(%rbp)
    7bc2:	48 8d 85 d0 e8 ff ff 	lea    -0x1730(%rbp),%rax
    7bc9:	48 89 85 30 f4 ff ff 	mov    %rax,-0xbd0(%rbp)
    7bd0:	48 8d 05 e9 d0 00 00 	lea    0xd0e9(%rip),%rax        # 14cc0 <g_138>
    7bd7:	48 89 85 38 f4 ff ff 	mov    %rax,-0xbc8(%rbp)
    7bde:	48 8d 85 d0 e8 ff ff 	lea    -0x1730(%rbp),%rax
    7be5:	48 89 85 40 f4 ff ff 	mov    %rax,-0xbc0(%rbp)
    7bec:	48 8d 05 cd d0 00 00 	lea    0xd0cd(%rip),%rax        # 14cc0 <g_138>
    7bf3:	48 89 85 48 f4 ff ff 	mov    %rax,-0xbb8(%rbp)
    7bfa:	48 8d 05 bf d0 00 00 	lea    0xd0bf(%rip),%rax        # 14cc0 <g_138>
    7c01:	48 89 85 50 f4 ff ff 	mov    %rax,-0xbb0(%rbp)
    7c08:	48 8d 05 b1 d0 00 00 	lea    0xd0b1(%rip),%rax        # 14cc0 <g_138>
    7c0f:	48 89 85 58 f4 ff ff 	mov    %rax,-0xba8(%rbp)
    7c16:	48 8d 85 d0 e8 ff ff 	lea    -0x1730(%rbp),%rax
    7c1d:	48 89 85 60 f4 ff ff 	mov    %rax,-0xba0(%rbp)
    7c24:	48 8d 05 95 d0 00 00 	lea    0xd095(%rip),%rax        # 14cc0 <g_138>
    7c2b:	48 89 85 68 f4 ff ff 	mov    %rax,-0xb98(%rbp)
    7c32:	48 8d 85 d0 e8 ff ff 	lea    -0x1730(%rbp),%rax
    7c39:	48 89 85 70 f4 ff ff 	mov    %rax,-0xb90(%rbp)
    7c40:	48 8d 05 79 d0 00 00 	lea    0xd079(%rip),%rax        # 14cc0 <g_138>
    7c47:	48 89 85 78 f4 ff ff 	mov    %rax,-0xb88(%rbp)
    7c4e:	48 8d 85 d0 e8 ff ff 	lea    -0x1730(%rbp),%rax
    7c55:	48 89 85 80 f4 ff ff 	mov    %rax,-0xb80(%rbp)
    7c5c:	48 8d 05 5d d0 00 00 	lea    0xd05d(%rip),%rax        # 14cc0 <g_138>
    7c63:	48 89 85 88 f4 ff ff 	mov    %rax,-0xb78(%rbp)
    7c6a:	48 8d 05 4f d0 00 00 	lea    0xd04f(%rip),%rax        # 14cc0 <g_138>
    7c71:	48 89 85 90 f4 ff ff 	mov    %rax,-0xb70(%rbp)
    7c78:	48 8d 05 41 d0 00 00 	lea    0xd041(%rip),%rax        # 14cc0 <g_138>
    7c7f:	48 89 85 98 f4 ff ff 	mov    %rax,-0xb68(%rbp)
    7c86:	48 8d 85 d0 e8 ff ff 	lea    -0x1730(%rbp),%rax
    7c8d:	48 89 85 a0 f4 ff ff 	mov    %rax,-0xb60(%rbp)
    7c94:	48 8d 05 25 d0 00 00 	lea    0xd025(%rip),%rax        # 14cc0 <g_138>
    7c9b:	48 89 85 a8 f4 ff ff 	mov    %rax,-0xb58(%rbp)
    7ca2:	48 8d 85 d0 e8 ff ff 	lea    -0x1730(%rbp),%rax
    7ca9:	48 89 85 b0 f4 ff ff 	mov    %rax,-0xb50(%rbp)
    7cb0:	48 8d 05 09 d0 00 00 	lea    0xd009(%rip),%rax        # 14cc0 <g_138>
    7cb7:	48 89 85 b8 f4 ff ff 	mov    %rax,-0xb48(%rbp)
    7cbe:	48 8d 85 d0 e8 ff ff 	lea    -0x1730(%rbp),%rax
    7cc5:	48 89 85 c0 f4 ff ff 	mov    %rax,-0xb40(%rbp)
    7ccc:	48 8d 05 ed cf 00 00 	lea    0xcfed(%rip),%rax        # 14cc0 <g_138>
    7cd3:	48 89 85 c8 f4 ff ff 	mov    %rax,-0xb38(%rbp)
    7cda:	48 8d 85 d0 e8 ff ff 	lea    -0x1730(%rbp),%rax
    7ce1:	48 89 85 d0 f4 ff ff 	mov    %rax,-0xb30(%rbp)
    7ce8:	48 8d 05 d1 cf 00 00 	lea    0xcfd1(%rip),%rax        # 14cc0 <g_138>
    7cef:	48 89 85 d8 f4 ff ff 	mov    %rax,-0xb28(%rbp)
    7cf6:	48 8d 05 c3 cf 00 00 	lea    0xcfc3(%rip),%rax        # 14cc0 <g_138>
    7cfd:	48 89 85 e0 f4 ff ff 	mov    %rax,-0xb20(%rbp)
    7d04:	48 8d 05 b5 cf 00 00 	lea    0xcfb5(%rip),%rax        # 14cc0 <g_138>
    7d0b:	48 89 85 e8 f4 ff ff 	mov    %rax,-0xb18(%rbp)
    7d12:	48 8d 85 d0 e8 ff ff 	lea    -0x1730(%rbp),%rax
    7d19:	48 89 85 f0 f4 ff ff 	mov    %rax,-0xb10(%rbp)
    7d20:	48 8d 05 99 cf 00 00 	lea    0xcf99(%rip),%rax        # 14cc0 <g_138>
    7d27:	48 89 85 f8 f4 ff ff 	mov    %rax,-0xb08(%rbp)
    7d2e:	48 8d 85 d0 e8 ff ff 	lea    -0x1730(%rbp),%rax
    7d35:	48 89 85 00 f5 ff ff 	mov    %rax,-0xb00(%rbp)
    7d3c:	48 8d 05 7d cf 00 00 	lea    0xcf7d(%rip),%rax        # 14cc0 <g_138>
    7d43:	48 89 85 08 f5 ff ff 	mov    %rax,-0xaf8(%rbp)
    7d4a:	48 8d 85 d0 e8 ff ff 	lea    -0x1730(%rbp),%rax
    7d51:	48 89 85 10 f5 ff ff 	mov    %rax,-0xaf0(%rbp)
    7d58:	48 8d 05 61 cf 00 00 	lea    0xcf61(%rip),%rax        # 14cc0 <g_138>
    7d5f:	48 89 85 18 f5 ff ff 	mov    %rax,-0xae8(%rbp)
    7d66:	48 8d 05 53 cf 00 00 	lea    0xcf53(%rip),%rax        # 14cc0 <g_138>
    7d6d:	48 89 85 20 f5 ff ff 	mov    %rax,-0xae0(%rbp)
    7d74:	48 8d 05 45 cf 00 00 	lea    0xcf45(%rip),%rax        # 14cc0 <g_138>
    7d7b:	48 89 85 28 f5 ff ff 	mov    %rax,-0xad8(%rbp)
    7d82:	48 8d 85 d0 e8 ff ff 	lea    -0x1730(%rbp),%rax
    7d89:	48 89 85 30 f5 ff ff 	mov    %rax,-0xad0(%rbp)
    7d90:	48 8d 05 29 cf 00 00 	lea    0xcf29(%rip),%rax        # 14cc0 <g_138>
    7d97:	48 89 85 38 f5 ff ff 	mov    %rax,-0xac8(%rbp)
    7d9e:	48 8d 85 d0 e8 ff ff 	lea    -0x1730(%rbp),%rax
    7da5:	48 89 85 40 f5 ff ff 	mov    %rax,-0xac0(%rbp)
    7dac:	48 8d 05 0d cf 00 00 	lea    0xcf0d(%rip),%rax        # 14cc0 <g_138>
    7db3:	48 89 85 48 f5 ff ff 	mov    %rax,-0xab8(%rbp)
    7dba:	48 8d 05 e7 ce 00 00 	lea    0xcee7(%rip),%rax        # 14ca8 <g_127>
    7dc1:	48 89 85 18 eb ff ff 	mov    %rax,-0x14e8(%rbp)
    7dc8:	48 c7 85 58 e9 ff ff 	movq   $0x0,-0x16a8(%rbp)
    7dcf:	00 00 00 00 
    7dd3:	66 c7 85 58 e9 ff ff 	movw   $0xfff8,-0x16a8(%rbp)
    7dda:	f8 ff 
    7ddc:	48 8d 85 48 e9 ff ff 	lea    -0x16b8(%rbp),%rax
    7de3:	48 89 85 20 eb ff ff 	mov    %rax,-0x14e0(%rbp)
    7dea:	48 8d 85 f8 e8 ff ff 	lea    -0x1708(%rbp),%rax
    7df1:	48 89 85 30 f2 ff ff 	mov    %rax,-0xdd0(%rbp)
    7df8:	48 8d 85 f8 e8 ff ff 	lea    -0x1708(%rbp),%rax
    7dff:	48 89 85 38 f2 ff ff 	mov    %rax,-0xdc8(%rbp)
    7e06:	48 8d 85 f8 e8 ff ff 	lea    -0x1708(%rbp),%rax
    7e0d:	48 89 85 40 f2 ff ff 	mov    %rax,-0xdc0(%rbp)
    7e14:	48 8d 85 f8 e8 ff ff 	lea    -0x1708(%rbp),%rax
    7e1b:	48 89 85 48 f2 ff ff 	mov    %rax,-0xdb8(%rbp)
    7e22:	48 8d 85 f8 e8 ff ff 	lea    -0x1708(%rbp),%rax
    7e29:	48 89 85 50 f2 ff ff 	mov    %rax,-0xdb0(%rbp)
    7e30:	48 8d 85 f8 e8 ff ff 	lea    -0x1708(%rbp),%rax
    7e37:	48 89 85 58 f2 ff ff 	mov    %rax,-0xda8(%rbp)
    7e3e:	48 8d 85 f8 e8 ff ff 	lea    -0x1708(%rbp),%rax
    7e45:	48 89 85 60 f2 ff ff 	mov    %rax,-0xda0(%rbp)
    7e4c:	48 c7 85 28 eb ff ff 	movq   $0x0,-0x14d8(%rbp)
    7e53:	00 00 00 00 
    7e57:	48 8d 05 b2 d9 00 00 	lea    0xd9b2(%rip),%rax        # 15810 <g_333>
    7e5e:	48 89 85 30 eb ff ff 	mov    %rax,-0x14d0(%rbp)
    7e65:	8b 05 49 b3 00 00    	mov    0xb349(%rip),%eax        # 131b4 <g_75>
    7e6b:	83 e8 01             	sub    $0x1,%eax
    7e6e:	89 05 40 b3 00 00    	mov    %eax,0xb340(%rip)        # 131b4 <g_75>
    7e74:	8b 05 3a b3 00 00    	mov    0xb33a(%rip),%eax        # 131b4 <g_75>
    7e7a:	85 c0                	test   %eax,%eax
    7e7c:	0f 89 16 fd ff ff    	jns    7b98 <func_15+0xd48>
    7e82:	48 8b 95 00 e9 ff ff 	mov    -0x1700(%rbp),%rdx
    7e89:	48 8b 85 f0 ea ff ff 	mov    -0x1510(%rbp),%rax
    7e90:	48 89 10             	mov    %rdx,(%rax)
    7e93:	48 c7 05 2a bc 00 00 	movq   $0x1,0xbc2a(%rip)        # 13ac8 <g_519>
    7e9a:	01 00 00 00 
    7e9e:	e9 a1 00 00 00       	jmpq   7f44 <func_15+0x10f4>
    7ea3:	48 8d 05 12 b3 00 00 	lea    0xb312(%rip),%rax        # 131bc <g_94+0x4>
    7eaa:	48 89 85 30 f4 ff ff 	mov    %rax,-0xbd0(%rbp)
    7eb1:	48 8d 05 04 b3 00 00 	lea    0xb304(%rip),%rax        # 131bc <g_94+0x4>
    7eb8:	48 89 85 38 f4 ff ff 	mov    %rax,-0xbc8(%rbp)
    7ebf:	48 8d 05 f6 b2 00 00 	lea    0xb2f6(%rip),%rax        # 131bc <g_94+0x4>
    7ec6:	48 89 85 40 f4 ff ff 	mov    %rax,-0xbc0(%rbp)
    7ecd:	48 8d 05 e8 b2 00 00 	lea    0xb2e8(%rip),%rax        # 131bc <g_94+0x4>
    7ed4:	48 89 85 48 f4 ff ff 	mov    %rax,-0xbb8(%rbp)
    7edb:	48 8d 05 da b2 00 00 	lea    0xb2da(%rip),%rax        # 131bc <g_94+0x4>
    7ee2:	48 89 85 50 f4 ff ff 	mov    %rax,-0xbb0(%rbp)
    7ee9:	48 8d 05 cc b2 00 00 	lea    0xb2cc(%rip),%rax        # 131bc <g_94+0x4>
    7ef0:	48 89 85 58 f4 ff ff 	mov    %rax,-0xba8(%rbp)
    7ef7:	48 8d 05 be b2 00 00 	lea    0xb2be(%rip),%rax        # 131bc <g_94+0x4>
    7efe:	48 89 85 60 f4 ff ff 	mov    %rax,-0xba0(%rbp)
    7f05:	48 8d 85 f0 e8 ff ff 	lea    -0x1710(%rbp),%rax
    7f0c:	48 89 85 00 eb ff ff 	mov    %rax,-0x1500(%rbp)
    7f13:	c7 85 c4 e8 ff ff fe 	movl   $0xfffffffe,-0x173c(%rbp)
    7f1a:	ff ff ff 
    7f1d:	48 c7 85 58 e9 ff ff 	movq   $0x0,-0x16a8(%rbp)
    7f24:	00 00 00 00 
    7f28:	c7 85 58 e9 ff ff 8d 	movl   $0x2ed2c78d,-0x16a8(%rbp)
    7f2f:	c7 d2 2e 
    7f32:	48 8b 05 8f bb 00 00 	mov    0xbb8f(%rip),%rax        # 13ac8 <g_519>
    7f39:	48 83 c0 01          	add    $0x1,%rax
    7f3d:	48 89 05 84 bb 00 00 	mov    %rax,0xbb84(%rip)        # 13ac8 <g_519>
    7f44:	48 8b 05 7d bb 00 00 	mov    0xbb7d(%rip),%rax        # 13ac8 <g_519>
    7f4b:	48 83 f8 07          	cmp    $0x7,%rax
    7f4f:	0f 8e 4e ff ff ff    	jle    7ea3 <func_15+0x1053>
    7f55:	48 8b 85 60 e9 ff ff 	mov    -0x16a0(%rbp),%rax
    7f5c:	be 07 00 00 00       	mov    $0x7,%esi
    7f61:	89 c7                	mov    %eax,%edi
    7f63:	e8 50 df ff ff       	callq  5eb8 <safe_add_func_uint32_t_u_u>
    7f68:	89 c0                	mov    %eax,%eax
    7f6a:	48 89 85 60 e9 ff ff 	mov    %rax,-0x16a0(%rbp)
    7f71:	48 83 bd 60 e9 ff ff 	cmpq   $0x24,-0x16a0(%rbp)
    7f78:	24 
    7f79:	0f 86 dc fb ff ff    	jbe    7b5b <func_15+0xd0b>
    7f7f:	66 c7 85 da e7 ff ff 	movw   $0x2,-0x1826(%rbp)
    7f86:	02 00 
    7f88:	e9 b0 04 00 00       	jmpq   843d <func_15+0x15ed>
    7f8d:	c7 85 30 f4 ff ff 82 	movl   $0x68a2d182,-0xbd0(%rbp)
    7f94:	d1 a2 68 
    7f97:	c7 85 34 f4 ff ff 00 	movl   $0x0,-0xbcc(%rbp)
    7f9e:	00 00 00 
    7fa1:	c7 85 38 f4 ff ff 82 	movl   $0x68a2d182,-0xbc8(%rbp)
    7fa8:	d1 a2 68 
    7fab:	c7 85 3c f4 ff ff 00 	movl   $0x0,-0xbc4(%rbp)
    7fb2:	00 00 00 
    7fb5:	c7 85 40 f4 ff ff 82 	movl   $0x68a2d182,-0xbc0(%rbp)
    7fbc:	d1 a2 68 
    7fbf:	c7 85 44 f4 ff ff 00 	movl   $0x0,-0xbbc(%rbp)
    7fc6:	00 00 00 
    7fc9:	c7 85 48 f4 ff ff 82 	movl   $0x68a2d182,-0xbb8(%rbp)
    7fd0:	d1 a2 68 
    7fd3:	c7 85 4c f4 ff ff 00 	movl   $0x0,-0xbb4(%rbp)
    7fda:	00 00 00 
    7fdd:	c7 85 50 f4 ff ff 82 	movl   $0x68a2d182,-0xbb0(%rbp)
    7fe4:	d1 a2 68 
    7fe7:	c7 85 54 f4 ff ff 00 	movl   $0x0,-0xbac(%rbp)
    7fee:	00 00 00 
    7ff1:	c7 85 58 f4 ff ff 82 	movl   $0x68a2d182,-0xba8(%rbp)
    7ff8:	d1 a2 68 
    7ffb:	c7 85 5c f4 ff ff 00 	movl   $0x0,-0xba4(%rbp)
    8002:	00 00 00 
    8005:	c7 85 60 f4 ff ff 82 	movl   $0x68a2d182,-0xba0(%rbp)
    800c:	d1 a2 68 
    800f:	c7 85 64 f4 ff ff 00 	movl   $0x0,-0xb9c(%rbp)
    8016:	00 00 00 
    8019:	c7 85 68 f4 ff ff 82 	movl   $0x68a2d182,-0xb98(%rbp)
    8020:	d1 a2 68 
    8023:	c7 85 6c f4 ff ff 00 	movl   $0x0,-0xb94(%rbp)
    802a:	00 00 00 
    802d:	c7 85 70 f4 ff ff 82 	movl   $0x68a2d182,-0xb90(%rbp)
    8034:	d1 a2 68 
    8037:	c7 85 74 f4 ff ff 00 	movl   $0x0,-0xb8c(%rbp)
    803e:	00 00 00 
    8041:	c7 85 78 f4 ff ff 82 	movl   $0x68a2d182,-0xb88(%rbp)
    8048:	d1 a2 68 
    804b:	c7 85 7c f4 ff ff 00 	movl   $0x0,-0xb84(%rbp)
    8052:	00 00 00 
    8055:	c7 85 80 f4 ff ff 82 	movl   $0x68a2d182,-0xb80(%rbp)
    805c:	d1 a2 68 
    805f:	c7 85 84 f4 ff ff 00 	movl   $0x0,-0xb7c(%rbp)
    8066:	00 00 00 
    8069:	c7 85 88 f4 ff ff 82 	movl   $0x68a2d182,-0xb78(%rbp)
    8070:	d1 a2 68 
    8073:	c7 85 8c f4 ff ff 00 	movl   $0x0,-0xb74(%rbp)
    807a:	00 00 00 
    807d:	c7 85 90 f4 ff ff 82 	movl   $0x68a2d182,-0xb70(%rbp)
    8084:	d1 a2 68 
    8087:	c7 85 94 f4 ff ff 00 	movl   $0x0,-0xb6c(%rbp)
    808e:	00 00 00 
    8091:	c7 85 98 f4 ff ff 82 	movl   $0x68a2d182,-0xb68(%rbp)
    8098:	d1 a2 68 
    809b:	c7 85 9c f4 ff ff 00 	movl   $0x0,-0xb64(%rbp)
    80a2:	00 00 00 
    80a5:	c7 85 a0 f4 ff ff 82 	movl   $0x68a2d182,-0xb60(%rbp)
    80ac:	d1 a2 68 
    80af:	c7 85 a4 f4 ff ff 00 	movl   $0x0,-0xb5c(%rbp)
    80b6:	00 00 00 
    80b9:	c7 85 9c e8 ff ff 01 	movl   $0x1,-0x1764(%rbp)
    80c0:	00 00 00 
    80c3:	c7 85 e0 f0 ff ff 00 	movl   $0x0,-0xf20(%rbp)
    80ca:	00 00 00 
    80cd:	c7 85 e4 f0 ff ff 34 	movl   $0x23f50734,-0xf1c(%rbp)
    80d4:	07 f5 23 
    80d7:	c7 85 e8 f0 ff ff 00 	movl   $0x0,-0xf18(%rbp)
    80de:	00 00 00 
    80e1:	c7 85 ec f0 ff ff 34 	movl   $0x23f50734,-0xf14(%rbp)
    80e8:	07 f5 23 
    80eb:	c7 85 f0 f0 ff ff 00 	movl   $0x0,-0xf10(%rbp)
    80f2:	00 00 00 
    80f5:	c7 85 f4 f0 ff ff 34 	movl   $0x23f50734,-0xf0c(%rbp)
    80fc:	07 f5 23 
    80ff:	c7 85 f8 f0 ff ff 00 	movl   $0x0,-0xf08(%rbp)
    8106:	00 00 00 
    8109:	c7 85 fc f0 ff ff 34 	movl   $0x23f50734,-0xf04(%rbp)
    8110:	07 f5 23 
    8113:	c7 85 00 f1 ff ff 00 	movl   $0x0,-0xf00(%rbp)
    811a:	00 00 00 
    811d:	c7 85 f0 ec ff ff 50 	movl   $0xe069e50,-0x1310(%rbp)
    8124:	9e 06 0e 
    8127:	c7 85 f4 ec ff ff 50 	movl   $0xe069e50,-0x130c(%rbp)
    812e:	9e 06 0e 
    8131:	c7 85 f8 ec ff ff 50 	movl   $0xe069e50,-0x1308(%rbp)
    8138:	9e 06 0e 
    813b:	c7 85 fc ec ff ff 01 	movl   $0x1,-0x1304(%rbp)
    8142:	00 00 00 
    8145:	c7 85 00 ed ff ff 01 	movl   $0x1,-0x1300(%rbp)
    814c:	00 00 00 
    814f:	c7 85 04 ed ff ff 01 	movl   $0x1,-0x12fc(%rbp)
    8156:	00 00 00 
    8159:	8b 05 d9 ae 00 00    	mov    0xaed9(%rip),%eax        # 13038 <g_48>
    815f:	48 63 d8             	movslq %eax,%rbx
    8162:	8b 85 cc e7 ff ff    	mov    -0x1834(%rbp),%eax
    8168:	89 c6                	mov    %eax,%esi
    816a:	bf 01 00 00 00       	mov    $0x1,%edi
    816f:	e8 6d d3 ff ff       	callq  54e1 <safe_lshift_func_int16_t_s_u>
    8174:	66 85 c0             	test   %ax,%ax
    8177:	75 0a                	jne    8183 <func_15+0x1333>
    8179:	8b 85 cc e7 ff ff    	mov    -0x1834(%rbp),%eax
    817f:	85 c0                	test   %eax,%eax
    8181:	74 07                	je     818a <func_15+0x133a>
    8183:	b8 01 00 00 00       	mov    $0x1,%eax
    8188:	eb 05                	jmp    818f <func_15+0x133f>
    818a:	b8 00 00 00 00       	mov    $0x0,%eax
    818f:	48 63 d0             	movslq %eax,%rdx
    8192:	8b 85 c8 e7 ff ff    	mov    -0x1838(%rbp),%eax
    8198:	48 98                	cltq   
    819a:	48 89 d6             	mov    %rdx,%rsi
    819d:	48 89 c7             	mov    %rax,%rdi
    81a0:	e8 db de ff ff       	callq  6080 <safe_mod_func_uint64_t_u_u>
    81a5:	8b 95 c8 e7 ff ff    	mov    -0x1838(%rbp),%edx
    81ab:	48 63 d2             	movslq %edx,%rdx
    81ae:	48 09 d0             	or     %rdx,%rax
    81b1:	48 85 c0             	test   %rax,%rax
    81b4:	74 4d                	je     8203 <func_15+0x13b3>
    81b6:	8b 85 4c f4 ff ff    	mov    -0xbb4(%rbp),%eax
    81bc:	89 c2                	mov    %eax,%edx
    81be:	8b 85 cc e7 ff ff    	mov    -0x1834(%rbp),%eax
    81c4:	89 c0                	mov    %eax,%eax
    81c6:	48 89 d6             	mov    %rdx,%rsi
    81c9:	48 89 c7             	mov    %rax,%rdi
    81cc:	e8 70 d6 ff ff       	callq  5841 <safe_add_func_int64_t_s_s>
    81d1:	48 ba d2 db 47 dd 7d 	movabs $0x6846997ddd47dbd2,%rdx
    81d8:	99 46 68 
    81db:	48 39 d0             	cmp    %rdx,%rax
    81de:	7e 07                	jle    81e7 <func_15+0x1397>
    81e0:	b8 e7 ff ff ff       	mov    $0xffffffe7,%eax
    81e5:	eb 05                	jmp    81ec <func_15+0x139c>
    81e7:	b8 e6 ff ff ff       	mov    $0xffffffe6,%eax
    81ec:	be ff ff ff ff       	mov    $0xffffffff,%esi
    81f1:	89 c7                	mov    %eax,%edi
    81f3:	e8 39 d0 ff ff       	callq  5231 <safe_mod_func_int8_t_s_s>
    81f8:	84 c0                	test   %al,%al
    81fa:	74 07                	je     8203 <func_15+0x13b3>
    81fc:	b8 01 00 00 00       	mov    $0x1,%eax
    8201:	eb 05                	jmp    8208 <func_15+0x13b8>
    8203:	b8 00 00 00 00       	mov    $0x0,%eax
    8208:	48 98                	cltq   
    820a:	48 89 de             	mov    %rbx,%rsi
    820d:	48 89 c7             	mov    %rax,%rdi
    8210:	e8 9f d7 ff ff       	callq  59b4 <safe_mod_func_int64_t_s_s>
    8215:	48 8b 05 84 cc 00 00 	mov    0xcc84(%rip),%rax        # 14ea0 <g_348>
    821c:	48 8b 00             	mov    (%rax),%rax
    821f:	8b 00                	mov    (%rax),%eax
    8221:	09 85 10 e8 ff ff    	or     %eax,-0x17f0(%rbp)
    8227:	c7 85 00 e8 ff ff 00 	movl   $0x0,-0x1800(%rbp)
    822e:	00 00 00 
    8231:	e9 e9 01 00 00       	jmpq   841f <func_15+0x15cf>
    8236:	c7 85 a0 e8 ff ff fc 	movl   $0xfffffffc,-0x1760(%rbp)
    823d:	ff ff ff 
    8240:	c7 85 a4 e8 ff ff 68 	movl   $0xb70c0268,-0x175c(%rbp)
    8247:	02 0c b7 
    824a:	c7 85 a8 e8 ff ff f7 	movl   $0xfffffff7,-0x1758(%rbp)
    8251:	ff ff ff 
    8254:	c7 85 ac e8 ff ff 03 	movl   $0x3,-0x1754(%rbp)
    825b:	00 00 00 
    825e:	c7 85 b0 e8 ff ff 62 	movl   $0xf1045662,-0x1750(%rbp)
    8265:	56 04 f1 
    8268:	c7 85 b4 e8 ff ff 03 	movl   $0x3,-0x174c(%rbp)
    826f:	00 00 00 
    8272:	c7 85 b8 e8 ff ff b7 	movl   $0x6879e9b7,-0x1748(%rbp)
    8279:	e9 79 68 
    827c:	c7 85 bc e8 ff ff 00 	movl   $0x0,-0x1744(%rbp)
    8283:	00 00 00 
    8286:	c7 85 c0 e8 ff ff 9c 	movl   $0xa28c569c,-0x1740(%rbp)
    828d:	56 8c a2 
    8290:	c7 85 30 f2 ff ff db 	movl   $0x9fd597db,-0xdd0(%rbp)
    8297:	97 d5 9f 
    829a:	c7 85 34 f2 ff ff db 	movl   $0x9fd597db,-0xdcc(%rbp)
    82a1:	97 d5 9f 
    82a4:	c7 85 38 f2 ff ff db 	movl   $0x9fd597db,-0xdc8(%rbp)
    82ab:	97 d5 9f 
    82ae:	c7 85 3c f2 ff ff db 	movl   $0x9fd597db,-0xdc4(%rbp)
    82b5:	97 d5 9f 
    82b8:	c7 85 40 f2 ff ff db 	movl   $0x9fd597db,-0xdc0(%rbp)
    82bf:	97 d5 9f 
    82c2:	c7 85 44 f2 ff ff db 	movl   $0x9fd597db,-0xdbc(%rbp)
    82c9:	97 d5 9f 
    82cc:	c7 85 48 f2 ff ff db 	movl   $0x9fd597db,-0xdb8(%rbp)
    82d3:	97 d5 9f 
    82d6:	c7 85 4c f2 ff ff db 	movl   $0x9fd597db,-0xdb4(%rbp)
    82dd:	97 d5 9f 
    82e0:	c7 85 50 f2 ff ff db 	movl   $0x9fd597db,-0xdb0(%rbp)
    82e7:	97 d5 9f 
    82ea:	48 c7 85 58 e9 ff ff 	movq   $0x0,-0x16a8(%rbp)
    82f1:	00 00 00 00 
    82f5:	66 c7 85 58 e9 ff ff 	movw   $0x6c80,-0x16a8(%rbp)
    82fc:	80 6c 
    82fe:	c7 05 c8 b5 00 00 01 	movl   $0x1,0xb5c8(%rip)        # 138d0 <g_205>
    8305:	00 00 00 
    8308:	90                   	nop
    8309:	8b 05 c1 b5 00 00    	mov    0xb5c1(%rip),%eax        # 138d0 <g_205>
    830f:	83 f8 06             	cmp    $0x6,%eax
    8312:	7f 57                	jg     836b <func_15+0x151b>
    8314:	0f bf 85 da e7 ff ff 	movswl -0x1826(%rbp),%eax
    831b:	8b 95 00 e8 ff ff    	mov    -0x1800(%rbp),%edx
    8321:	8d 72 02             	lea    0x2(%rdx),%esi
    8324:	0f bf 95 da e7 ff ff 	movswl -0x1826(%rbp),%edx
    832b:	83 c2 04             	add    $0x4,%edx
    832e:	48 63 ca             	movslq %edx,%rcx
    8331:	48 63 d0             	movslq %eax,%rdx
    8334:	89 f6                	mov    %esi,%esi
    8336:	48 89 d0             	mov    %rdx,%rax
    8339:	48 c1 e0 03          	shl    $0x3,%rax
    833d:	48 29 d0             	sub    %rdx,%rax
    8340:	48 c1 e0 02          	shl    $0x2,%rax
    8344:	48 89 f2             	mov    %rsi,%rdx
    8347:	48 c1 e2 03          	shl    $0x3,%rdx
    834b:	48 29 f2             	sub    %rsi,%rdx
    834e:	48 01 d0             	add    %rdx,%rax
    8351:	48 01 c8             	add    %rcx,%rax
    8354:	48 8d 14 85 00 00 00 	lea    0x0(,%rax,4),%rdx
    835b:	00 
    835c:	48 8d 05 fd ac 00 00 	lea    0xacfd(%rip),%rax        # 13060 <g_72>
    8363:	8b 04 02             	mov    (%rdx,%rax,1),%eax
    8366:	e9 2e 2c 00 00       	jmpq   af99 <func_15+0x4149>
    836b:	c7 85 10 e8 ff ff 00 	movl   $0x0,-0x17f0(%rbp)
    8372:	00 00 00 
    8375:	e9 8e 00 00 00       	jmpq   8408 <func_15+0x15b8>
    837a:	48 8b 85 f8 e8 ff ff 	mov    -0x1708(%rbp),%rax
    8381:	48 8b 00             	mov    (%rax),%rax
    8384:	48 8b 95 c8 e7 ff ff 	mov    -0x1838(%rbp),%rdx
    838b:	48 89 10             	mov    %rdx,(%rax)
    838e:	48 8b 95 50 e9 ff ff 	mov    -0x16b0(%rbp),%rdx
    8395:	48 8b 00             	mov    (%rax),%rax
    8398:	48 89 02             	mov    %rax,(%rdx)
    839b:	48 8b 05 06 c9 00 00 	mov    0xc906(%rip),%rax        # 14ca8 <g_127>
    83a2:	48 8b 95 c8 e7 ff ff 	mov    -0x1838(%rbp),%rdx
    83a9:	48 89 10             	mov    %rdx,(%rax)
    83ac:	0f bf 85 da e7 ff ff 	movswl -0x1826(%rbp),%eax
    83b3:	8d 48 01             	lea    0x1(%rax),%ecx
    83b6:	8b 85 00 e8 ff ff    	mov    -0x1800(%rbp),%eax
    83bc:	83 c0 03             	add    $0x3,%eax
    83bf:	89 c6                	mov    %eax,%esi
    83c1:	8b 85 10 e8 ff ff    	mov    -0x17f0(%rbp),%eax
    83c7:	48 63 d0             	movslq %eax,%rdx
    83ca:	48 63 c9             	movslq %ecx,%rcx
    83cd:	48 89 d0             	mov    %rdx,%rax
    83d0:	48 c1 e0 03          	shl    $0x3,%rax
    83d4:	48 29 d0             	sub    %rdx,%rax
    83d7:	48 c1 e0 02          	shl    $0x2,%rax
    83db:	48 89 ca             	mov    %rcx,%rdx
    83de:	48 c1 e2 03          	shl    $0x3,%rdx
    83e2:	48 29 ca             	sub    %rcx,%rdx
    83e5:	48 01 d0             	add    %rdx,%rax
    83e8:	48 01 f0             	add    %rsi,%rax
    83eb:	48 8d 14 85 00 00 00 	lea    0x0(,%rax,4),%rdx
    83f2:	00 
    83f3:	48 8d 05 66 ac 00 00 	lea    0xac66(%rip),%rax        # 13060 <g_72>
    83fa:	8b 04 02             	mov    (%rdx,%rax,1),%eax
    83fd:	85 c0                	test   %eax,%eax
    83ff:	75 16                	jne    8417 <func_15+0x15c7>
    8401:	83 85 10 e8 ff ff 01 	addl   $0x1,-0x17f0(%rbp)
    8408:	83 bd 10 e8 ff ff 02 	cmpl   $0x2,-0x17f0(%rbp)
    840f:	0f 8e 65 ff ff ff    	jle    837a <func_15+0x152a>
    8415:	eb 01                	jmp    8418 <func_15+0x15c8>
    8417:	90                   	nop
    8418:	83 85 00 e8 ff ff 01 	addl   $0x1,-0x1800(%rbp)
    841f:	83 bd 00 e8 ff ff 01 	cmpl   $0x1,-0x1800(%rbp)
    8426:	0f 86 0a fe ff ff    	jbe    8236 <func_15+0x13e6>
    842c:	0f b7 85 da e7 ff ff 	movzwl -0x1826(%rbp),%eax
    8433:	83 e8 01             	sub    $0x1,%eax
    8436:	66 89 85 da e7 ff ff 	mov    %ax,-0x1826(%rbp)
    843d:	66 83 bd da e7 ff ff 	cmpw   $0x0,-0x1826(%rbp)
    8444:	00 
    8445:	0f 89 42 fb ff ff    	jns    7f8d <func_15+0x113d>
    844b:	eb 4c                	jmp    8499 <func_15+0x1649>
    844d:	c7 05 e5 ab 00 00 13 	movl   $0x13,0xabe5(%rip)        # 1303c <g_51>
    8454:	00 00 00 
    8457:	90                   	nop
    8458:	8b 05 de ab 00 00    	mov    0xabde(%rip),%eax        # 1303c <g_51>
    845e:	83 f8 f8             	cmp    $0xfffffff8,%eax
    8461:	7d 15                	jge    8478 <func_15+0x1628>
    8463:	66 c7 85 ea e7 ff ff 	movw   $0x74d6,-0x1816(%rbp)
    846a:	d6 74 
    846c:	0f b7 85 ea e7 ff ff 	movzwl -0x1816(%rbp),%eax
    8473:	e9 21 2b 00 00       	jmpq   af99 <func_15+0x4149>
    8478:	c7 05 52 b6 00 00 00 	movl   $0x0,0xb652(%rip)        # 13ad4 <g_602>
    847f:	00 00 00 
    8482:	90                   	nop
    8483:	8b 05 4b b6 00 00    	mov    0xb64b(%rip),%eax        # 13ad4 <g_602>
    8489:	83 f8 1d             	cmp    $0x1d,%eax
    848c:	77 0b                	ja     8499 <func_15+0x1649>
    848e:	8b 85 cc e7 ff ff    	mov    -0x1834(%rbp),%eax
    8494:	e9 00 2b 00 00       	jmpq   af99 <func_15+0x4149>
    8499:	48 8b 05 20 c8 00 00 	mov    0xc820(%rip),%rax        # 14cc0 <g_138>
    84a0:	8b 95 c8 e7 ff ff    	mov    -0x1838(%rbp),%edx
    84a6:	89 10                	mov    %edx,(%rax)
    84a8:	48 8b 85 10 e9 ff ff 	mov    -0x16f0(%rbp),%rax
    84af:	48 8b 08             	mov    (%rax),%rcx
    84b2:	48 8b 85 10 e9 ff ff 	mov    -0x16f0(%rbp),%rax
    84b9:	48 85 c0             	test   %rax,%rax
    84bc:	0f 94 c0             	sete   %al
    84bf:	0f b6 d0             	movzbl %al,%edx
    84c2:	8b 85 cc e7 ff ff    	mov    -0x1834(%rbp),%eax
    84c8:	39 c2                	cmp    %eax,%edx
    84ca:	0f 96 c0             	setbe  %al
    84cd:	0f b6 d0             	movzbl %al,%edx
    84d0:	48 8b 85 10 e9 ff ff 	mov    -0x16f0(%rbp),%rax
    84d7:	48 21 ca             	and    %rcx,%rdx
    84da:	48 89 10             	mov    %rdx,(%rax)
    84dd:	48 8b 00             	mov    (%rax),%rax
    84e0:	48 83 e0 f7          	and    $0xfffffffffffffff7,%rax
    84e4:	48 85 c0             	test   %rax,%rax
    84e7:	74 6f                	je     8558 <func_15+0x1708>
    84e9:	48 8d 05 00 d3 00 00 	lea    0xd300(%rip),%rax        # 157f0 <g_119>
    84f0:	48 89 85 58 e9 ff ff 	mov    %rax,-0x16a8(%rbp)
    84f7:	48 8d 85 58 e9 ff ff 	lea    -0x16a8(%rbp),%rax
    84fe:	48 89 85 60 eb ff ff 	mov    %rax,-0x14a0(%rbp)
    8505:	48 8d 85 e8 e8 ff ff 	lea    -0x1718(%rbp),%rax
    850c:	48 89 85 78 eb ff ff 	mov    %rax,-0x1488(%rbp)
    8513:	48 8d 85 78 eb ff ff 	lea    -0x1488(%rbp),%rax
    851a:	48 89 85 68 eb ff ff 	mov    %rax,-0x1498(%rbp)
    8521:	48 8b 85 d0 e8 ff ff 	mov    -0x1730(%rbp),%rax
    8528:	c7 00 f7 19 e1 d0    	movl   $0xd0e119f7,(%rax)
    852e:	48 8b 85 60 eb ff ff 	mov    -0x14a0(%rbp),%rax
    8535:	48 8d 95 e8 e8 ff ff 	lea    -0x1718(%rbp),%rdx
    853c:	48 89 10             	mov    %rdx,(%rax)
    853f:	48 8b 85 60 eb ff ff 	mov    -0x14a0(%rbp),%rax
    8546:	48 8b 10             	mov    (%rax),%rdx
    8549:	48 8b 85 68 eb ff ff 	mov    -0x1498(%rbp),%rax
    8550:	48 89 10             	mov    %rdx,(%rax)
    8553:	e9 f2 01 00 00       	jmpq   874a <func_15+0x18fa>
    8558:	48 c7 85 38 eb ff ff 	movq   $0xffffffffffffffff,-0x14c8(%rbp)
    855f:	ff ff ff ff 
    8563:	c6 85 d9 e7 ff ff 0b 	movb   $0xb,-0x1827(%rbp)
    856a:	48 8d 05 af ac 00 00 	lea    0xacaf(%rip),%rax        # 13220 <g_128+0x20>
    8571:	48 89 85 40 eb ff ff 	mov    %rax,-0x14c0(%rbp)
    8578:	c7 85 cc e8 ff ff 14 	movl   $0xf0257a14,-0x1734(%rbp)
    857f:	7a 25 f0 
    8582:	48 8d 05 e7 ca 00 00 	lea    0xcae7(%rip),%rax        # 15070 <g_548+0x50>
    8589:	48 89 85 48 eb ff ff 	mov    %rax,-0x14b8(%rbp)
    8590:	48 b8 05 ff 05 05 ff 	movabs $0xff0505ff0505ff05,%rax
    8597:	05 05 ff 
    859a:	48 89 45 be          	mov    %rax,-0x42(%rbp)
    859e:	66 c7 45 c6 05 05    	movw   $0x505,-0x3a(%rbp)
    85a4:	48 8d 05 1d b5 00 00 	lea    0xb51d(%rip),%rax        # 13ac8 <g_519>
    85ab:	48 89 85 50 eb ff ff 	mov    %rax,-0x14b0(%rbp)
    85b2:	48 c7 85 78 eb ff ff 	movq   $0x0,-0x1488(%rbp)
    85b9:	00 00 00 00 
    85bd:	66 c7 85 78 eb ff ff 	movw   $0xffff,-0x1488(%rbp)
    85c4:	ff ff 
    85c6:	48 c7 85 30 f4 ff ff 	movq   $0x0,-0xbd0(%rbp)
    85cd:	00 00 00 00 
    85d1:	48 8d 05 10 c7 00 00 	lea    0xc710(%rip),%rax        # 14ce8 <g_332>
    85d8:	48 89 85 38 f4 ff ff 	mov    %rax,-0xbc8(%rbp)
    85df:	48 8d 05 02 c7 00 00 	lea    0xc702(%rip),%rax        # 14ce8 <g_332>
    85e6:	48 89 85 40 f4 ff ff 	mov    %rax,-0xbc0(%rbp)
    85ed:	48 8d 05 f4 c6 00 00 	lea    0xc6f4(%rip),%rax        # 14ce8 <g_332>
    85f4:	48 89 85 48 f4 ff ff 	mov    %rax,-0xbb8(%rbp)
    85fb:	48 8d 05 e6 c6 00 00 	lea    0xc6e6(%rip),%rax        # 14ce8 <g_332>
    8602:	48 89 85 50 f4 ff ff 	mov    %rax,-0xbb0(%rbp)
    8609:	48 8d 05 d8 c6 00 00 	lea    0xc6d8(%rip),%rax        # 14ce8 <g_332>
    8610:	48 89 85 58 f4 ff ff 	mov    %rax,-0xba8(%rbp)
    8617:	48 8d 05 ca c6 00 00 	lea    0xc6ca(%rip),%rax        # 14ce8 <g_332>
    861e:	48 89 85 60 f4 ff ff 	mov    %rax,-0xba0(%rbp)
    8625:	48 8d 05 bc c6 00 00 	lea    0xc6bc(%rip),%rax        # 14ce8 <g_332>
    862c:	48 89 85 68 f4 ff ff 	mov    %rax,-0xb98(%rbp)
    8633:	48 8d 05 ae c6 00 00 	lea    0xc6ae(%rip),%rax        # 14ce8 <g_332>
    863a:	48 89 85 70 f4 ff ff 	mov    %rax,-0xb90(%rbp)
    8641:	48 8d 05 a0 c6 00 00 	lea    0xc6a0(%rip),%rax        # 14ce8 <g_332>
    8648:	48 89 85 78 f4 ff ff 	mov    %rax,-0xb88(%rbp)
    864f:	48 c7 85 80 f4 ff ff 	movq   $0x0,-0xb80(%rbp)
    8656:	00 00 00 00 
    865a:	48 8d 05 87 c6 00 00 	lea    0xc687(%rip),%rax        # 14ce8 <g_332>
    8661:	48 89 85 88 f4 ff ff 	mov    %rax,-0xb78(%rbp)
    8668:	48 8d 05 79 c6 00 00 	lea    0xc679(%rip),%rax        # 14ce8 <g_332>
    866f:	48 89 85 90 f4 ff ff 	mov    %rax,-0xb70(%rbp)
    8676:	48 8d 05 6b c6 00 00 	lea    0xc66b(%rip),%rax        # 14ce8 <g_332>
    867d:	48 89 85 98 f4 ff ff 	mov    %rax,-0xb68(%rbp)
    8684:	48 8d 05 5d c6 00 00 	lea    0xc65d(%rip),%rax        # 14ce8 <g_332>
    868b:	48 89 85 a0 f4 ff ff 	mov    %rax,-0xb60(%rbp)
    8692:	48 8d 05 4f c6 00 00 	lea    0xc64f(%rip),%rax        # 14ce8 <g_332>
    8699:	48 89 85 a8 f4 ff ff 	mov    %rax,-0xb58(%rbp)
    86a0:	48 8d 05 41 c6 00 00 	lea    0xc641(%rip),%rax        # 14ce8 <g_332>
    86a7:	48 89 85 b0 f4 ff ff 	mov    %rax,-0xb50(%rbp)
    86ae:	48 8d 05 33 c6 00 00 	lea    0xc633(%rip),%rax        # 14ce8 <g_332>
    86b5:	48 89 85 b8 f4 ff ff 	mov    %rax,-0xb48(%rbp)
    86bc:	48 8d 05 25 c6 00 00 	lea    0xc625(%rip),%rax        # 14ce8 <g_332>
    86c3:	48 89 85 c0 f4 ff ff 	mov    %rax,-0xb40(%rbp)
    86ca:	48 8d 05 17 c6 00 00 	lea    0xc617(%rip),%rax        # 14ce8 <g_332>
    86d1:	48 89 85 c8 f4 ff ff 	mov    %rax,-0xb38(%rbp)
    86d8:	48 c7 85 d0 f4 ff ff 	movq   $0x0,-0xb30(%rbp)
    86df:	00 00 00 00 
    86e3:	48 8d 05 fe c5 00 00 	lea    0xc5fe(%rip),%rax        # 14ce8 <g_332>
    86ea:	48 89 85 d8 f4 ff ff 	mov    %rax,-0xb28(%rbp)
    86f1:	48 8d 05 f0 c5 00 00 	lea    0xc5f0(%rip),%rax        # 14ce8 <g_332>
    86f8:	48 89 85 e0 f4 ff ff 	mov    %rax,-0xb20(%rbp)
    86ff:	48 8d 05 e2 c5 00 00 	lea    0xc5e2(%rip),%rax        # 14ce8 <g_332>
    8706:	48 89 85 e8 f4 ff ff 	mov    %rax,-0xb18(%rbp)
    870d:	48 8d 05 2c cc 00 00 	lea    0xcc2c(%rip),%rax        # 15340 <g_661>
    8714:	48 89 85 58 eb ff ff 	mov    %rax,-0x14a8(%rbp)
    871b:	c7 85 18 e8 ff ff 00 	movl   $0x0,-0x17e8(%rbp)
    8722:	00 00 00 
    8725:	eb 1a                	jmp    8741 <func_15+0x18f1>
    8727:	8b 85 18 e8 ff ff    	mov    -0x17e8(%rbp),%eax
    872d:	48 98                	cltq   
    872f:	c7 84 85 30 f2 ff ff 	movl   $0x719af0ad,-0xdd0(%rbp,%rax,4)
    8736:	ad f0 9a 71 
    873a:	83 85 18 e8 ff ff 01 	addl   $0x1,-0x17e8(%rbp)
    8741:	83 bd 18 e8 ff ff 02 	cmpl   $0x2,-0x17e8(%rbp)
    8748:	7e dd                	jle    8727 <func_15+0x18d7>
    874a:	48 8b 05 1f cc 00 00 	mov    0xcc1f(%rip),%rax        # 15370 <g_1360>
    8751:	48 8d 95 40 e9 ff ff 	lea    -0x16c0(%rbp),%rdx
    8758:	48 89 10             	mov    %rdx,(%rax)
    875b:	e9 22 28 00 00       	jmpq   af82 <func_15+0x4132>
    8760:	c7 85 78 eb ff ff fe 	movl   $0xfffffffe,-0x1488(%rbp)
    8767:	ff ff ff 
    876a:	c7 85 7c eb ff ff 01 	movl   $0x1,-0x1484(%rbp)
    8771:	00 00 00 
    8774:	48 c7 85 c0 e9 ff ff 	movq   $0x0,-0x1640(%rbp)
    877b:	00 00 00 00 
    877f:	c7 85 38 e9 ff ff 00 	movl   $0x0,-0x16c8(%rbp)
    8786:	00 00 00 
    8789:	48 8d 85 d8 e8 ff ff 	lea    -0x1728(%rbp),%rax
    8790:	48 89 85 c8 e9 ff ff 	mov    %rax,-0x1638(%rbp)
    8797:	48 8d 05 ca cb 00 00 	lea    0xcbca(%rip),%rax        # 15368 <g_1361>
    879e:	48 89 85 d0 e9 ff ff 	mov    %rax,-0x1630(%rbp)
    87a5:	48 8d 85 30 f2 ff ff 	lea    -0xdd0(%rbp),%rax
    87ac:	48 8d 15 6d b8 00 00 	lea    0xb86d(%rip),%rdx        # 14020 <g_1857+0x2a0>
    87b3:	b9 40 00 00 00       	mov    $0x40,%ecx
    87b8:	48 89 c7             	mov    %rax,%rdi
    87bb:	48 89 d6             	mov    %rdx,%rsi
    87be:	f3 48 a5             	rep movsq %ds:(%rsi),%es:(%rdi)
    87c1:	c7 85 54 e8 ff ff bb 	movl   $0x62c617bb,-0x17ac(%rbp)
    87c8:	17 c6 62 
    87cb:	48 8d 05 b6 c8 00 00 	lea    0xc8b6(%rip),%rax        # 15088 <g_546>
    87d2:	48 89 85 50 ec ff ff 	mov    %rax,-0x13b0(%rbp)
    87d9:	48 8d 05 a8 c8 00 00 	lea    0xc8a8(%rip),%rax        # 15088 <g_546>
    87e0:	48 89 85 58 ec ff ff 	mov    %rax,-0x13a8(%rbp)
    87e7:	48 8d 05 9a c8 00 00 	lea    0xc89a(%rip),%rax        # 15088 <g_546>
    87ee:	48 89 85 60 ec ff ff 	mov    %rax,-0x13a0(%rbp)
    87f5:	48 8d 05 8c c8 00 00 	lea    0xc88c(%rip),%rax        # 15088 <g_546>
    87fc:	48 89 85 68 ec ff ff 	mov    %rax,-0x1398(%rbp)
    8803:	48 8d 05 7e c8 00 00 	lea    0xc87e(%rip),%rax        # 15088 <g_546>
    880a:	48 89 85 70 ec ff ff 	mov    %rax,-0x1390(%rbp)
    8811:	48 8d 05 70 c8 00 00 	lea    0xc870(%rip),%rax        # 15088 <g_546>
    8818:	48 89 85 78 ec ff ff 	mov    %rax,-0x1388(%rbp)
    881f:	48 8d 05 62 c8 00 00 	lea    0xc862(%rip),%rax        # 15088 <g_546>
    8826:	48 89 85 80 ec ff ff 	mov    %rax,-0x1380(%rbp)
    882d:	48 8d 05 54 c8 00 00 	lea    0xc854(%rip),%rax        # 15088 <g_546>
    8834:	48 89 85 88 ec ff ff 	mov    %rax,-0x1378(%rbp)
    883b:	48 8d 05 46 c8 00 00 	lea    0xc846(%rip),%rax        # 15088 <g_546>
    8842:	48 89 85 90 ec ff ff 	mov    %rax,-0x1370(%rbp)
    8849:	66 c7 85 e4 e7 ff ff 	movw   $0xedd7,-0x181c(%rbp)
    8850:	d7 ed 
    8852:	48 c7 85 40 e9 ff ff 	movq   $0x0,-0x16c0(%rbp)
    8859:	00 00 00 00 
    885d:	c7 85 40 e9 ff ff d8 	movl   $0xd00880d8,-0x16c0(%rbp)
    8864:	80 08 d0 
    8867:	48 c7 85 d8 e9 ff ff 	movq   $0x0,-0x1628(%rbp)
    886e:	00 00 00 00 
    8872:	48 8d 05 c7 c6 00 00 	lea    0xc6c7(%rip),%rax        # 14f40 <g_389>
    8879:	48 89 85 48 e9 ff ff 	mov    %rax,-0x16b8(%rbp)
    8880:	48 8d 85 48 e9 ff ff 	lea    -0x16b8(%rbp),%rax
    8887:	48 89 85 e0 e9 ff ff 	mov    %rax,-0x1620(%rbp)
    888e:	c6 85 d2 e7 ff ff 34 	movb   $0x34,-0x182e(%rbp)
    8895:	c7 85 1c e8 ff ff 00 	movl   $0x0,-0x17e4(%rbp)
    889c:	00 00 00 
    889f:	eb 42                	jmp    88e3 <func_15+0x1a93>
    88a1:	c7 85 20 e8 ff ff 00 	movl   $0x0,-0x17e0(%rbp)
    88a8:	00 00 00 
    88ab:	eb 26                	jmp    88d3 <func_15+0x1a83>
    88ad:	8b 85 20 e8 ff ff    	mov    -0x17e0(%rbp),%eax
    88b3:	48 63 d0             	movslq %eax,%rdx
    88b6:	8b 85 1c e8 ff ff    	mov    -0x17e4(%rbp),%eax
    88bc:	48 98                	cltq   
    88be:	48 01 d0             	add    %rdx,%rax
    88c1:	c7 84 85 90 eb ff ff 	movl   $0x0,-0x1470(%rbp,%rax,4)
    88c8:	00 00 00 00 
    88cc:	83 85 20 e8 ff ff 01 	addl   $0x1,-0x17e0(%rbp)
    88d3:	83 bd 20 e8 ff ff 00 	cmpl   $0x0,-0x17e0(%rbp)
    88da:	7e d1                	jle    88ad <func_15+0x1a5d>
    88dc:	83 85 1c e8 ff ff 01 	addl   $0x1,-0x17e4(%rbp)
    88e3:	83 bd 1c e8 ff ff 03 	cmpl   $0x3,-0x17e4(%rbp)
    88ea:	7e b5                	jle    88a1 <func_15+0x1a51>
    88ec:	c7 85 1c e8 ff ff 00 	movl   $0x0,-0x17e4(%rbp)
    88f3:	00 00 00 
    88f6:	eb 19                	jmp    8911 <func_15+0x1ac1>
    88f8:	8b 85 1c e8 ff ff    	mov    -0x17e4(%rbp),%eax
    88fe:	48 98                	cltq   
    8900:	66 c7 84 45 88 eb ff 	movw   $0xfffe,-0x1478(%rbp,%rax,2)
    8907:	ff fe ff 
    890a:	83 85 1c e8 ff ff 01 	addl   $0x1,-0x17e4(%rbp)
    8911:	83 bd 1c e8 ff ff 01 	cmpl   $0x1,-0x17e4(%rbp)
    8918:	7e de                	jle    88f8 <func_15+0x1aa8>
    891a:	c7 85 1c e8 ff ff 00 	movl   $0x0,-0x17e4(%rbp)
    8921:	00 00 00 
    8924:	eb 71                	jmp    8997 <func_15+0x1b47>
    8926:	c7 85 20 e8 ff ff 00 	movl   $0x0,-0x17e0(%rbp)
    892d:	00 00 00 
    8930:	eb 55                	jmp    8987 <func_15+0x1b37>
    8932:	c7 85 24 e8 ff ff 00 	movl   $0x0,-0x17dc(%rbp)
    8939:	00 00 00 
    893c:	eb 39                	jmp    8977 <func_15+0x1b27>
    893e:	8b 85 24 e8 ff ff    	mov    -0x17dc(%rbp),%eax
    8944:	48 98                	cltq   
    8946:	8b 95 1c e8 ff ff    	mov    -0x17e4(%rbp),%edx
    894c:	48 63 ca             	movslq %edx,%rcx
    894f:	8b 95 20 e8 ff ff    	mov    -0x17e0(%rbp),%edx
    8955:	48 63 d2             	movslq %edx,%rdx
    8958:	48 01 c9             	add    %rcx,%rcx
    895b:	48 01 ca             	add    %rcx,%rdx
    895e:	48 01 d2             	add    %rdx,%rdx
    8961:	48 01 d0             	add    %rdx,%rax
    8964:	48 c7 84 c5 a0 ef ff 	movq   $0x0,-0x1060(%rbp,%rax,8)
    896b:	ff 00 00 00 00 
    8970:	83 85 24 e8 ff ff 01 	addl   $0x1,-0x17dc(%rbp)
    8977:	83 bd 24 e8 ff ff 01 	cmpl   $0x1,-0x17dc(%rbp)
    897e:	7e be                	jle    893e <func_15+0x1aee>
    8980:	83 85 20 e8 ff ff 01 	addl   $0x1,-0x17e0(%rbp)
    8987:	83 bd 20 e8 ff ff 01 	cmpl   $0x1,-0x17e0(%rbp)
    898e:	7e a2                	jle    8932 <func_15+0x1ae2>
    8990:	83 85 1c e8 ff ff 01 	addl   $0x1,-0x17e4(%rbp)
    8997:	83 bd 1c e8 ff ff 09 	cmpl   $0x9,-0x17e4(%rbp)
    899e:	7e 86                	jle    8926 <func_15+0x1ad6>
    89a0:	c7 85 1c e8 ff ff 00 	movl   $0x0,-0x17e4(%rbp)
    89a7:	00 00 00 
    89aa:	eb 19                	jmp    89c5 <func_15+0x1b75>
    89ac:	8b 85 1c e8 ff ff    	mov    -0x17e4(%rbp),%eax
    89b2:	48 98                	cltq   
    89b4:	66 c7 84 45 8c eb ff 	movw   $0xffff,-0x1474(%rbp,%rax,2)
    89bb:	ff ff ff 
    89be:	83 85 1c e8 ff ff 01 	addl   $0x1,-0x17e4(%rbp)
    89c5:	83 bd 1c e8 ff ff 01 	cmpl   $0x1,-0x17e4(%rbp)
    89cc:	7e de                	jle    89ac <func_15+0x1b5c>
    89ce:	48 8b 85 f8 e8 ff ff 	mov    -0x1708(%rbp),%rax
    89d5:	48 8b 00             	mov    (%rax),%rax
    89d8:	48 8b 95 78 eb ff ff 	mov    -0x1488(%rbp),%rdx
    89df:	48 89 10             	mov    %rdx,(%rax)
    89e2:	c7 05 24 ce 00 00 00 	movl   $0x0,0xce24(%rip)        # 15810 <g_333>
    89e9:	00 00 00 
    89ec:	e9 50 23 00 00       	jmpq   ad41 <func_15+0x3ef1>
    89f1:	48 c7 85 e8 e9 ff ff 	movq   $0x0,-0x1618(%rbp)
    89f8:	00 00 00 00 
    89fc:	48 8d 85 f0 e7 ff ff 	lea    -0x1810(%rbp),%rax
    8a03:	48 89 85 e0 eb ff ff 	mov    %rax,-0x1420(%rbp)
    8a0a:	48 8d 85 f0 e7 ff ff 	lea    -0x1810(%rbp),%rax
    8a11:	48 89 85 e8 eb ff ff 	mov    %rax,-0x1418(%rbp)
    8a18:	48 8d 85 f0 e7 ff ff 	lea    -0x1810(%rbp),%rax
    8a1f:	48 89 85 f0 eb ff ff 	mov    %rax,-0x1410(%rbp)
    8a26:	48 8d 85 f0 e7 ff ff 	lea    -0x1810(%rbp),%rax
    8a2d:	48 89 85 f8 eb ff ff 	mov    %rax,-0x1408(%rbp)
    8a34:	48 8d 85 f0 e7 ff ff 	lea    -0x1810(%rbp),%rax
    8a3b:	48 89 85 00 ec ff ff 	mov    %rax,-0x1400(%rbp)
    8a42:	c7 85 58 e8 ff ff 53 	movl   $0x3fb10653,-0x17a8(%rbp)
    8a49:	06 b1 3f 
    8a4c:	48 8d 05 6d b0 00 00 	lea    0xb06d(%rip),%rax        # 13ac0 <g_517>
    8a53:	48 89 85 f0 ec ff ff 	mov    %rax,-0x1310(%rbp)
    8a5a:	48 8d 05 5f b0 00 00 	lea    0xb05f(%rip),%rax        # 13ac0 <g_517>
    8a61:	48 89 85 f8 ec ff ff 	mov    %rax,-0x1308(%rbp)
    8a68:	48 8d 05 51 b0 00 00 	lea    0xb051(%rip),%rax        # 13ac0 <g_517>
    8a6f:	48 89 85 00 ed ff ff 	mov    %rax,-0x1300(%rbp)
    8a76:	48 8d 05 43 b0 00 00 	lea    0xb043(%rip),%rax        # 13ac0 <g_517>
    8a7d:	48 89 85 08 ed ff ff 	mov    %rax,-0x12f8(%rbp)
    8a84:	48 8d 05 35 b0 00 00 	lea    0xb035(%rip),%rax        # 13ac0 <g_517>
    8a8b:	48 89 85 10 ed ff ff 	mov    %rax,-0x12f0(%rbp)
    8a92:	48 8d 05 27 b0 00 00 	lea    0xb027(%rip),%rax        # 13ac0 <g_517>
    8a99:	48 89 85 18 ed ff ff 	mov    %rax,-0x12e8(%rbp)
    8aa0:	48 8d 05 19 b0 00 00 	lea    0xb019(%rip),%rax        # 13ac0 <g_517>
    8aa7:	48 89 85 20 ed ff ff 	mov    %rax,-0x12e0(%rbp)
    8aae:	48 8d 05 0b b0 00 00 	lea    0xb00b(%rip),%rax        # 13ac0 <g_517>
    8ab5:	48 89 85 28 ed ff ff 	mov    %rax,-0x12d8(%rbp)
    8abc:	48 8d 05 fd af 00 00 	lea    0xaffd(%rip),%rax        # 13ac0 <g_517>
    8ac3:	48 89 85 30 ed ff ff 	mov    %rax,-0x12d0(%rbp)
    8aca:	48 8d 05 ef af 00 00 	lea    0xafef(%rip),%rax        # 13ac0 <g_517>
    8ad1:	48 89 85 38 ed ff ff 	mov    %rax,-0x12c8(%rbp)
    8ad8:	48 8d 05 e9 c4 00 00 	lea    0xc4e9(%rip),%rax        # 14fc8 <g_503+0x68>
    8adf:	48 89 85 e0 f0 ff ff 	mov    %rax,-0xf20(%rbp)
    8ae6:	48 8d 05 d3 c4 00 00 	lea    0xc4d3(%rip),%rax        # 14fc0 <g_503+0x60>
    8aed:	48 89 85 e8 f0 ff ff 	mov    %rax,-0xf18(%rbp)
    8af4:	48 8d 05 c5 c4 00 00 	lea    0xc4c5(%rip),%rax        # 14fc0 <g_503+0x60>
    8afb:	48 89 85 f0 f0 ff ff 	mov    %rax,-0xf10(%rbp)
    8b02:	48 8d 85 e0 e8 ff ff 	lea    -0x1720(%rbp),%rax
    8b09:	48 89 85 f8 f0 ff ff 	mov    %rax,-0xf08(%rbp)
    8b10:	48 8d 05 a9 c4 00 00 	lea    0xc4a9(%rip),%rax        # 14fc0 <g_503+0x60>
    8b17:	48 89 85 00 f1 ff ff 	mov    %rax,-0xf00(%rbp)
    8b1e:	48 8d 05 9b c4 00 00 	lea    0xc49b(%rip),%rax        # 14fc0 <g_503+0x60>
    8b25:	48 89 85 08 f1 ff ff 	mov    %rax,-0xef8(%rbp)
    8b2c:	48 8d 05 95 c4 00 00 	lea    0xc495(%rip),%rax        # 14fc8 <g_503+0x68>
    8b33:	48 89 85 10 f1 ff ff 	mov    %rax,-0xef0(%rbp)
    8b3a:	48 8d 05 b7 c4 00 00 	lea    0xc4b7(%rip),%rax        # 14ff8 <g_503+0x98>
    8b41:	48 89 85 18 f1 ff ff 	mov    %rax,-0xee8(%rbp)
    8b48:	48 c7 85 20 f1 ff ff 	movq   $0x0,-0xee0(%rbp)
    8b4f:	00 00 00 00 
    8b53:	48 8d 05 9e c4 00 00 	lea    0xc49e(%rip),%rax        # 14ff8 <g_503+0x98>
    8b5a:	48 89 85 28 f1 ff ff 	mov    %rax,-0xed8(%rbp)
    8b61:	48 8d 05 90 c4 00 00 	lea    0xc490(%rip),%rax        # 14ff8 <g_503+0x98>
    8b68:	48 89 85 30 f1 ff ff 	mov    %rax,-0xed0(%rbp)
    8b6f:	48 c7 85 38 f1 ff ff 	movq   $0x0,-0xec8(%rbp)
    8b76:	00 00 00 00 
    8b7a:	48 8d 05 77 c4 00 00 	lea    0xc477(%rip),%rax        # 14ff8 <g_503+0x98>
    8b81:	48 89 85 40 f1 ff ff 	mov    %rax,-0xec0(%rbp)
    8b88:	48 8d 05 69 c4 00 00 	lea    0xc469(%rip),%rax        # 14ff8 <g_503+0x98>
    8b8f:	48 89 85 48 f1 ff ff 	mov    %rax,-0xeb8(%rbp)
    8b96:	48 8d 05 2b c4 00 00 	lea    0xc42b(%rip),%rax        # 14fc8 <g_503+0x68>
    8b9d:	48 89 85 50 f1 ff ff 	mov    %rax,-0xeb0(%rbp)
    8ba4:	48 8d 85 e0 e8 ff ff 	lea    -0x1720(%rbp),%rax
    8bab:	48 89 85 58 f1 ff ff 	mov    %rax,-0xea8(%rbp)
    8bb2:	48 8d 85 e0 e8 ff ff 	lea    -0x1720(%rbp),%rax
    8bb9:	48 89 85 60 f1 ff ff 	mov    %rax,-0xea0(%rbp)
    8bc0:	48 8d 85 e0 e8 ff ff 	lea    -0x1720(%rbp),%rax
    8bc7:	48 89 85 68 f1 ff ff 	mov    %rax,-0xe98(%rbp)
    8bce:	48 8d 05 f3 c3 00 00 	lea    0xc3f3(%rip),%rax        # 14fc8 <g_503+0x68>
    8bd5:	48 89 85 70 f1 ff ff 	mov    %rax,-0xe90(%rbp)
    8bdc:	48 8d 85 e0 e8 ff ff 	lea    -0x1720(%rbp),%rax
    8be3:	48 89 85 78 f1 ff ff 	mov    %rax,-0xe88(%rbp)
    8bea:	48 8d 05 d7 c3 00 00 	lea    0xc3d7(%rip),%rax        # 14fc8 <g_503+0x68>
    8bf1:	48 89 85 80 f1 ff ff 	mov    %rax,-0xe80(%rbp)
    8bf8:	48 c7 85 88 f1 ff ff 	movq   $0x0,-0xe78(%rbp)
    8bff:	00 00 00 00 
    8c03:	48 8d 05 ee c3 00 00 	lea    0xc3ee(%rip),%rax        # 14ff8 <g_503+0x98>
    8c0a:	48 89 85 90 f1 ff ff 	mov    %rax,-0xe70(%rbp)
    8c11:	48 8d 05 e0 c3 00 00 	lea    0xc3e0(%rip),%rax        # 14ff8 <g_503+0x98>
    8c18:	48 89 85 98 f1 ff ff 	mov    %rax,-0xe68(%rbp)
    8c1f:	48 c7 85 a0 f1 ff ff 	movq   $0x0,-0xe60(%rbp)
    8c26:	00 00 00 00 
    8c2a:	48 8d 05 c7 c3 00 00 	lea    0xc3c7(%rip),%rax        # 14ff8 <g_503+0x98>
    8c31:	48 89 85 a8 f1 ff ff 	mov    %rax,-0xe58(%rbp)
    8c38:	48 8d 05 b9 c3 00 00 	lea    0xc3b9(%rip),%rax        # 14ff8 <g_503+0x98>
    8c3f:	48 89 85 b0 f1 ff ff 	mov    %rax,-0xe50(%rbp)
    8c46:	48 c7 85 b8 f1 ff ff 	movq   $0x0,-0xe48(%rbp)
    8c4d:	00 00 00 00 
    8c51:	48 8d 05 68 c3 00 00 	lea    0xc368(%rip),%rax        # 14fc0 <g_503+0x60>
    8c58:	48 89 85 c0 f1 ff ff 	mov    %rax,-0xe40(%rbp)
    8c5f:	48 8d 85 e0 e8 ff ff 	lea    -0x1720(%rbp),%rax
    8c66:	48 89 85 c8 f1 ff ff 	mov    %rax,-0xe38(%rbp)
    8c6d:	48 8d 05 4c c3 00 00 	lea    0xc34c(%rip),%rax        # 14fc0 <g_503+0x60>
    8c74:	48 89 85 d0 f1 ff ff 	mov    %rax,-0xe30(%rbp)
    8c7b:	48 8d 05 3e c3 00 00 	lea    0xc33e(%rip),%rax        # 14fc0 <g_503+0x60>
    8c82:	48 89 85 d8 f1 ff ff 	mov    %rax,-0xe28(%rbp)
    8c89:	48 8d 05 38 c3 00 00 	lea    0xc338(%rip),%rax        # 14fc8 <g_503+0x68>
    8c90:	48 89 85 e0 f1 ff ff 	mov    %rax,-0xe20(%rbp)
    8c97:	48 8d 05 22 c3 00 00 	lea    0xc322(%rip),%rax        # 14fc0 <g_503+0x60>
    8c9e:	48 89 85 e8 f1 ff ff 	mov    %rax,-0xe18(%rbp)
    8ca5:	48 8d 05 14 c3 00 00 	lea    0xc314(%rip),%rax        # 14fc0 <g_503+0x60>
    8cac:	48 89 85 f0 f1 ff ff 	mov    %rax,-0xe10(%rbp)
    8cb3:	48 8d 05 3e c3 00 00 	lea    0xc33e(%rip),%rax        # 14ff8 <g_503+0x98>
    8cba:	48 89 85 f8 f1 ff ff 	mov    %rax,-0xe08(%rbp)
    8cc1:	48 8d 05 30 c3 00 00 	lea    0xc330(%rip),%rax        # 14ff8 <g_503+0x98>
    8cc8:	48 89 85 00 f2 ff ff 	mov    %rax,-0xe00(%rbp)
    8ccf:	48 c7 85 08 f2 ff ff 	movq   $0x0,-0xdf8(%rbp)
    8cd6:	00 00 00 00 
    8cda:	48 8d 05 17 c3 00 00 	lea    0xc317(%rip),%rax        # 14ff8 <g_503+0x98>
    8ce1:	48 89 85 10 f2 ff ff 	mov    %rax,-0xdf0(%rbp)
    8ce8:	48 8d 05 09 c3 00 00 	lea    0xc309(%rip),%rax        # 14ff8 <g_503+0x98>
    8cef:	48 89 85 18 f2 ff ff 	mov    %rax,-0xde8(%rbp)
    8cf6:	48 c7 85 20 f2 ff ff 	movq   $0x0,-0xde0(%rbp)
    8cfd:	00 00 00 00 
    8d01:	48 8d 05 f0 c2 00 00 	lea    0xc2f0(%rip),%rax        # 14ff8 <g_503+0x98>
    8d08:	48 89 85 28 f2 ff ff 	mov    %rax,-0xdd8(%rbp)
    8d0f:	c7 85 5c e8 ff ff db 	movl   $0x917befdb,-0x17a4(%rbp)
    8d16:	ef 7b 91 
    8d19:	66 c7 85 e6 e7 ff ff 	movw   $0x37e1,-0x181a(%rbp)
    8d20:	e1 37 
    8d22:	48 8d 05 af ad 00 00 	lea    0xadaf(%rip),%rax        # 13ad8 <g_686>
    8d29:	48 89 85 30 f4 ff ff 	mov    %rax,-0xbd0(%rbp)
    8d30:	48 8d 05 e9 a4 00 00 	lea    0xa4e9(%rip),%rax        # 13220 <g_128+0x20>
    8d37:	48 89 85 38 f4 ff ff 	mov    %rax,-0xbc8(%rbp)
    8d3e:	48 8d 05 db a4 00 00 	lea    0xa4db(%rip),%rax        # 13220 <g_128+0x20>
    8d45:	48 89 85 40 f4 ff ff 	mov    %rax,-0xbc0(%rbp)
    8d4c:	48 8d 05 85 ad 00 00 	lea    0xad85(%rip),%rax        # 13ad8 <g_686>
    8d53:	48 89 85 48 f4 ff ff 	mov    %rax,-0xbb8(%rbp)
    8d5a:	48 8d 85 70 eb ff ff 	lea    -0x1490(%rbp),%rax
    8d61:	48 89 85 50 f4 ff ff 	mov    %rax,-0xbb0(%rbp)
    8d68:	48 8d 05 91 a4 00 00 	lea    0xa491(%rip),%rax        # 13200 <g_128>
    8d6f:	48 89 85 58 f4 ff ff 	mov    %rax,-0xba8(%rbp)
    8d76:	48 c7 85 60 f4 ff ff 	movq   $0x0,-0xba0(%rbp)
    8d7d:	00 00 00 00 
    8d81:	48 c7 85 68 f4 ff ff 	movq   $0x0,-0xb98(%rbp)
    8d88:	00 00 00 00 
    8d8c:	48 8d 05 25 a4 00 00 	lea    0xa425(%rip),%rax        # 131b8 <g_94>
    8d93:	48 89 85 70 f4 ff ff 	mov    %rax,-0xb90(%rbp)
    8d9a:	48 8d 05 7f a4 00 00 	lea    0xa47f(%rip),%rax        # 13220 <g_128+0x20>
    8da1:	48 89 85 78 f4 ff ff 	mov    %rax,-0xb88(%rbp)
    8da8:	48 8d 05 51 a4 00 00 	lea    0xa451(%rip),%rax        # 13200 <g_128>
    8daf:	48 89 85 80 f4 ff ff 	mov    %rax,-0xb80(%rbp)
    8db6:	48 8d 85 70 eb ff ff 	lea    -0x1490(%rbp),%rax
    8dbd:	48 89 85 88 f4 ff ff 	mov    %rax,-0xb78(%rbp)
    8dc4:	48 8d 05 55 a4 00 00 	lea    0xa455(%rip),%rax        # 13220 <g_128+0x20>
    8dcb:	48 89 85 90 f4 ff ff 	mov    %rax,-0xb70(%rbp)
    8dd2:	48 8d 05 57 a4 00 00 	lea    0xa457(%rip),%rax        # 13230 <g_128+0x30>
    8dd9:	48 89 85 98 f4 ff ff 	mov    %rax,-0xb68(%rbp)
    8de0:	48 c7 85 a0 f4 ff ff 	movq   $0x0,-0xb60(%rbp)
    8de7:	00 00 00 00 
    8deb:	48 8d 05 3e a4 00 00 	lea    0xa43e(%rip),%rax        # 13230 <g_128+0x30>
    8df2:	48 89 85 a8 f4 ff ff 	mov    %rax,-0xb58(%rbp)
    8df9:	48 8d 85 78 eb ff ff 	lea    -0x1488(%rbp),%rax
    8e00:	48 89 85 b0 f4 ff ff 	mov    %rax,-0xb50(%rbp)
    8e07:	48 8d 05 12 a4 00 00 	lea    0xa412(%rip),%rax        # 13220 <g_128+0x20>
    8e0e:	48 89 85 b8 f4 ff ff 	mov    %rax,-0xb48(%rbp)
    8e15:	48 c7 85 c0 f4 ff ff 	movq   $0x0,-0xb40(%rbp)
    8e1c:	00 00 00 00 
    8e20:	48 8d 05 f9 a3 00 00 	lea    0xa3f9(%rip),%rax        # 13220 <g_128+0x20>
    8e27:	48 89 85 c8 f4 ff ff 	mov    %rax,-0xb38(%rbp)
    8e2e:	48 8d 85 78 eb ff ff 	lea    -0x1488(%rbp),%rax
    8e35:	48 89 85 d0 f4 ff ff 	mov    %rax,-0xb30(%rbp)
    8e3c:	48 8d 05 bd a3 00 00 	lea    0xa3bd(%rip),%rax        # 13200 <g_128>
    8e43:	48 89 85 d8 f4 ff ff 	mov    %rax,-0xb28(%rbp)
    8e4a:	48 8d 05 87 ac 00 00 	lea    0xac87(%rip),%rax        # 13ad8 <g_686>
    8e51:	48 89 85 e0 f4 ff ff 	mov    %rax,-0xb20(%rbp)
    8e58:	48 8d 05 59 a3 00 00 	lea    0xa359(%rip),%rax        # 131b8 <g_94>
    8e5f:	48 89 85 e8 f4 ff ff 	mov    %rax,-0xb18(%rbp)
    8e66:	48 8d 05 93 a3 00 00 	lea    0xa393(%rip),%rax        # 13200 <g_128>
    8e6d:	48 89 85 f0 f4 ff ff 	mov    %rax,-0xb10(%rbp)
    8e74:	48 8d 05 a5 a3 00 00 	lea    0xa3a5(%rip),%rax        # 13220 <g_128+0x20>
    8e7b:	48 89 85 f8 f4 ff ff 	mov    %rax,-0xb08(%rbp)
    8e82:	48 8d 85 78 eb ff ff 	lea    -0x1488(%rbp),%rax
    8e89:	48 89 85 00 f5 ff ff 	mov    %rax,-0xb00(%rbp)
    8e90:	48 8d 05 21 a3 00 00 	lea    0xa321(%rip),%rax        # 131b8 <g_94>
    8e97:	48 89 85 08 f5 ff ff 	mov    %rax,-0xaf8(%rbp)
    8e9e:	48 c7 85 10 f5 ff ff 	movq   $0x0,-0xaf0(%rbp)
    8ea5:	00 00 00 00 
    8ea9:	48 8d 85 70 eb ff ff 	lea    -0x1490(%rbp),%rax
    8eb0:	48 89 85 18 f5 ff ff 	mov    %rax,-0xae8(%rbp)
    8eb7:	48 8d 05 62 a3 00 00 	lea    0xa362(%rip),%rax        # 13220 <g_128+0x20>
    8ebe:	48 89 85 20 f5 ff ff 	mov    %rax,-0xae0(%rbp)
    8ec5:	48 8d 05 54 a3 00 00 	lea    0xa354(%rip),%rax        # 13220 <g_128+0x20>
    8ecc:	48 89 85 28 f5 ff ff 	mov    %rax,-0xad8(%rbp)
    8ed3:	48 c7 85 30 f5 ff ff 	movq   $0x0,-0xad0(%rbp)
    8eda:	00 00 00 00 
    8ede:	48 8d 05 f3 ab 00 00 	lea    0xabf3(%rip),%rax        # 13ad8 <g_686>
    8ee5:	48 89 85 38 f5 ff ff 	mov    %rax,-0xac8(%rbp)
    8eec:	48 8d 85 78 eb ff ff 	lea    -0x1488(%rbp),%rax
    8ef3:	48 89 85 40 f5 ff ff 	mov    %rax,-0xac0(%rbp)
    8efa:	48 8d 85 78 eb ff ff 	lea    -0x1488(%rbp),%rax
    8f01:	48 89 85 48 f5 ff ff 	mov    %rax,-0xab8(%rbp)
    8f08:	48 8d 05 c9 ab 00 00 	lea    0xabc9(%rip),%rax        # 13ad8 <g_686>
    8f0f:	48 89 85 50 f5 ff ff 	mov    %rax,-0xab0(%rbp)
    8f16:	48 c7 85 58 f5 ff ff 	movq   $0x0,-0xaa8(%rbp)
    8f1d:	00 00 00 00 
    8f21:	48 8d 05 b0 ab 00 00 	lea    0xabb0(%rip),%rax        # 13ad8 <g_686>
    8f28:	48 89 85 60 f5 ff ff 	mov    %rax,-0xaa0(%rbp)
    8f2f:	48 c7 85 68 f5 ff ff 	movq   $0x0,-0xa98(%rbp)
    8f36:	00 00 00 00 
    8f3a:	48 c7 85 70 f5 ff ff 	movq   $0x0,-0xa90(%rbp)
    8f41:	00 00 00 00 
    8f45:	48 8d 05 e4 a2 00 00 	lea    0xa2e4(%rip),%rax        # 13230 <g_128+0x30>
    8f4c:	48 89 85 78 f5 ff ff 	mov    %rax,-0xa88(%rbp)
    8f53:	48 c7 85 80 f5 ff ff 	movq   $0x0,-0xa80(%rbp)
    8f5a:	00 00 00 00 
    8f5e:	48 8d 05 53 a2 00 00 	lea    0xa253(%rip),%rax        # 131b8 <g_94>
    8f65:	48 89 85 88 f5 ff ff 	mov    %rax,-0xa78(%rbp)
    8f6c:	48 8d 05 ad a2 00 00 	lea    0xa2ad(%rip),%rax        # 13220 <g_128+0x20>
    8f73:	48 89 85 90 f5 ff ff 	mov    %rax,-0xa70(%rbp)
    8f7a:	48 8d 05 37 a2 00 00 	lea    0xa237(%rip),%rax        # 131b8 <g_94>
    8f81:	48 89 85 98 f5 ff ff 	mov    %rax,-0xa68(%rbp)
    8f88:	48 c7 85 a0 f5 ff ff 	movq   $0x0,-0xa60(%rbp)
    8f8f:	00 00 00 00 
    8f93:	48 8d 05 66 a2 00 00 	lea    0xa266(%rip),%rax        # 13200 <g_128>
    8f9a:	48 89 85 a8 f5 ff ff 	mov    %rax,-0xa58(%rbp)
    8fa1:	48 c7 85 b0 f5 ff ff 	movq   $0x0,-0xa50(%rbp)
    8fa8:	00 00 00 00 
    8fac:	48 8d 05 05 a2 00 00 	lea    0xa205(%rip),%rax        # 131b8 <g_94>
    8fb3:	48 89 85 b8 f5 ff ff 	mov    %rax,-0xa48(%rbp)
    8fba:	48 8d 05 3f a2 00 00 	lea    0xa23f(%rip),%rax        # 13200 <g_128>
    8fc1:	48 89 85 c0 f5 ff ff 	mov    %rax,-0xa40(%rbp)
    8fc8:	48 8d 05 e9 a1 00 00 	lea    0xa1e9(%rip),%rax        # 131b8 <g_94>
    8fcf:	48 89 85 c8 f5 ff ff 	mov    %rax,-0xa38(%rbp)
    8fd6:	48 8d 05 23 a2 00 00 	lea    0xa223(%rip),%rax        # 13200 <g_128>
    8fdd:	48 89 85 d0 f5 ff ff 	mov    %rax,-0xa30(%rbp)
    8fe4:	48 8d 05 cd a1 00 00 	lea    0xa1cd(%rip),%rax        # 131b8 <g_94>
    8feb:	48 89 85 d8 f5 ff ff 	mov    %rax,-0xa28(%rbp)
    8ff2:	48 c7 85 e0 f5 ff ff 	movq   $0x0,-0xa20(%rbp)
    8ff9:	00 00 00 00 
    8ffd:	48 c7 85 e8 f5 ff ff 	movq   $0x0,-0xa18(%rbp)
    9004:	00 00 00 00 
    9008:	48 8d 05 c9 aa 00 00 	lea    0xaac9(%rip),%rax        # 13ad8 <g_686>
    900f:	48 89 85 f0 f5 ff ff 	mov    %rax,-0xa10(%rbp)
    9016:	48 8d 05 e3 a1 00 00 	lea    0xa1e3(%rip),%rax        # 13200 <g_128>
    901d:	48 89 85 f8 f5 ff ff 	mov    %rax,-0xa08(%rbp)
    9024:	48 8d 05 f5 a1 00 00 	lea    0xa1f5(%rip),%rax        # 13220 <g_128+0x20>
    902b:	48 89 85 00 f6 ff ff 	mov    %rax,-0xa00(%rbp)
    9032:	48 8d 85 78 eb ff ff 	lea    -0x1488(%rbp),%rax
    9039:	48 89 85 08 f6 ff ff 	mov    %rax,-0x9f8(%rbp)
    9040:	48 8d 05 71 a1 00 00 	lea    0xa171(%rip),%rax        # 131b8 <g_94>
    9047:	48 89 85 10 f6 ff ff 	mov    %rax,-0x9f0(%rbp)
    904e:	48 c7 85 18 f6 ff ff 	movq   $0x0,-0x9e8(%rbp)
    9055:	00 00 00 00 
    9059:	48 8d 85 70 eb ff ff 	lea    -0x1490(%rbp),%rax
    9060:	48 89 85 20 f6 ff ff 	mov    %rax,-0x9e0(%rbp)
    9067:	48 8d 05 b2 a1 00 00 	lea    0xa1b2(%rip),%rax        # 13220 <g_128+0x20>
    906e:	48 89 85 28 f6 ff ff 	mov    %rax,-0x9d8(%rbp)
    9075:	48 8d 05 3c a1 00 00 	lea    0xa13c(%rip),%rax        # 131b8 <g_94>
    907c:	48 89 85 30 f6 ff ff 	mov    %rax,-0x9d0(%rbp)
    9083:	48 8d 85 70 eb ff ff 	lea    -0x1490(%rbp),%rax
    908a:	48 89 85 38 f6 ff ff 	mov    %rax,-0x9c8(%rbp)
    9091:	48 8d 85 78 eb ff ff 	lea    -0x1488(%rbp),%rax
    9098:	48 89 85 40 f6 ff ff 	mov    %rax,-0x9c0(%rbp)
    909f:	48 8d 05 12 a1 00 00 	lea    0xa112(%rip),%rax        # 131b8 <g_94>
    90a6:	48 89 85 48 f6 ff ff 	mov    %rax,-0x9b8(%rbp)
    90ad:	48 8d 05 04 a1 00 00 	lea    0xa104(%rip),%rax        # 131b8 <g_94>
    90b4:	48 89 85 50 f6 ff ff 	mov    %rax,-0x9b0(%rbp)
    90bb:	48 8d 85 78 eb ff ff 	lea    -0x1488(%rbp),%rax
    90c2:	48 89 85 58 f6 ff ff 	mov    %rax,-0x9a8(%rbp)
    90c9:	48 8d 85 70 eb ff ff 	lea    -0x1490(%rbp),%rax
    90d0:	48 89 85 60 f6 ff ff 	mov    %rax,-0x9a0(%rbp)
    90d7:	48 8d 05 da a0 00 00 	lea    0xa0da(%rip),%rax        # 131b8 <g_94>
    90de:	48 89 85 68 f6 ff ff 	mov    %rax,-0x998(%rbp)
    90e5:	48 8d 05 84 bf 00 00 	lea    0xbf84(%rip),%rax        # 15070 <g_548+0x50>
    90ec:	48 89 85 f0 e9 ff ff 	mov    %rax,-0x1610(%rbp)
    90f3:	48 8d 85 f0 ec ff ff 	lea    -0x1310(%rbp),%rax
    90fa:	48 83 c0 48          	add    $0x48,%rax
    90fe:	48 89 85 f8 e9 ff ff 	mov    %rax,-0x1608(%rbp)
    9105:	48 8d 05 74 c2 00 00 	lea    0xc274(%rip),%rax        # 15380 <g_1603>
    910c:	48 89 85 00 ea ff ff 	mov    %rax,-0x1600(%rbp)
    9113:	c7 85 60 e8 ff ff f7 	movl   $0xfffffff7,-0x17a0(%rbp)
    911a:	ff ff ff 
    911d:	48 b8 e1 49 89 d3 52 	movabs $0x95fd4f52d38949e1,%rax
    9124:	4f fd 95 
    9127:	48 89 85 08 ea ff ff 	mov    %rax,-0x15f8(%rbp)
    912e:	48 8d 05 03 a1 00 00 	lea    0xa103(%rip),%rax        # 13238 <g_146>
    9135:	48 89 85 10 ea ff ff 	mov    %rax,-0x15f0(%rbp)
    913c:	48 8d 85 40 e9 ff ff 	lea    -0x16c0(%rbp),%rax
    9143:	48 89 85 18 ea ff ff 	mov    %rax,-0x15e8(%rbp)
    914a:	48 c7 85 50 e9 ff ff 	movq   $0x0,-0x16b0(%rbp)
    9151:	00 00 00 00 
    9155:	48 8d 85 e8 e8 ff ff 	lea    -0x1718(%rbp),%rax
    915c:	48 89 85 20 ea ff ff 	mov    %rax,-0x15e0(%rbp)
    9163:	c7 85 28 e8 ff ff 00 	movl   $0x0,-0x17d8(%rbp)
    916a:	00 00 00 
    916d:	eb 1a                	jmp    9189 <func_15+0x2339>
    916f:	8b 85 28 e8 ff ff    	mov    -0x17d8(%rbp),%eax
    9175:	48 98                	cltq   
    9177:	c7 84 85 a0 eb ff ff 	movl   $0x6c19d3f9,-0x1460(%rbp,%rax,4)
    917e:	f9 d3 19 6c 
    9182:	83 85 28 e8 ff ff 01 	addl   $0x1,-0x17d8(%rbp)
    9189:	83 bd 28 e8 ff ff 04 	cmpl   $0x4,-0x17d8(%rbp)
    9190:	7e dd                	jle    916f <func_15+0x231f>
    9192:	48 8b 05 df c1 00 00 	mov    0xc1df(%rip),%rax        # 15378 <g_1373>
    9199:	48 85 c0             	test   %rax,%rax
    919c:	0f 95 c0             	setne  %al
    919f:	0f b6 c0             	movzbl %al,%eax
    91a2:	89 85 58 e8 ff ff    	mov    %eax,-0x17a8(%rbp)
    91a8:	8b 05 8e 9e 00 00    	mov    0x9e8e(%rip),%eax        # 1303c <g_51>
    91ae:	39 85 58 e8 ff ff    	cmp    %eax,-0x17a8(%rbp)
    91b4:	0f 9c c0             	setl   %al
    91b7:	0f b6 d0             	movzbl %al,%edx
    91ba:	8b 85 c8 e7 ff ff    	mov    -0x1838(%rbp),%eax
    91c0:	39 c2                	cmp    %eax,%edx
    91c2:	0f 9f c0             	setg   %al
    91c5:	0f b6 d0             	movzbl %al,%edx
    91c8:	8b 05 6a a0 00 00    	mov    0xa06a(%rip),%eax        # 13238 <g_146>
    91ce:	83 c0 01             	add    $0x1,%eax
    91d1:	89 05 61 a0 00 00    	mov    %eax,0xa061(%rip)        # 13238 <g_146>
    91d7:	48 8b 85 c0 e9 ff ff 	mov    -0x1640(%rbp),%rax
    91de:	48 3b 85 b0 e9 ff ff 	cmp    -0x1650(%rbp),%rax
    91e5:	0f 95 c0             	setne  %al
    91e8:	0f b6 f0             	movzbl %al,%esi
    91eb:	48 8b 85 c0 e7 ff ff 	mov    -0x1840(%rbp),%rax
    91f2:	0f b6 08             	movzbl (%rax),%ecx
    91f5:	48 8b 85 c0 e7 ff ff 	mov    -0x1840(%rbp),%rax
    91fc:	31 f1                	xor    %esi,%ecx
    91fe:	88 08                	mov    %cl,(%rax)
    9200:	0f b6 00             	movzbl (%rax),%eax
    9203:	0f be c0             	movsbl %al,%eax
    9206:	89 d6                	mov    %edx,%esi
    9208:	89 c7                	mov    %eax,%edi
    920a:	e8 92 c0 ff ff       	callq  52a1 <safe_lshift_func_int8_t_s_s>
    920f:	48 8b 95 d0 e8 ff ff 	mov    -0x1730(%rbp),%rdx
    9216:	8b 0a                	mov    (%rdx),%ecx
    9218:	0f be d0             	movsbl %al,%edx
    921b:	48 8b 85 d0 e8 ff ff 	mov    -0x1730(%rbp),%rax
    9222:	31 ca                	xor    %ecx,%edx
    9224:	89 10                	mov    %edx,(%rax)
    9226:	c7 85 74 eb ff ff 00 	movl   $0x0,-0x148c(%rbp)
    922d:	00 00 00 
    9230:	e9 8b 01 00 00       	jmpq   93c0 <func_15+0x2570>
    9235:	48 c7 85 70 ea ff ff 	movq   $0xffffffffffffffff,-0x1590(%rbp)
    923c:	ff ff ff ff 
    9240:	c7 85 7c e8 ff ff de 	movl   $0xc0c7bade,-0x1784(%rbp)
    9247:	ba c7 c0 
    924a:	66 c7 85 e8 e7 ff ff 	movw   $0xba2c,-0x1818(%rbp)
    9251:	2c ba 
    9253:	48 8d 95 f0 f8 ff ff 	lea    -0x710(%rbp),%rdx
    925a:	b8 00 00 00 00       	mov    $0x0,%eax
    925f:	b9 14 00 00 00       	mov    $0x14,%ecx
    9264:	48 89 d7             	mov    %rdx,%rdi
    9267:	f3 48 ab             	rep stos %rax,%es:(%rdi)
    926a:	c7 85 f0 f8 ff ff ef 	movl   $0x9e916fef,-0x710(%rbp)
    9271:	6f 91 9e 
    9274:	c7 85 f8 f8 ff ff 1e 	movl   $0x611c961e,-0x708(%rbp)
    927b:	96 1c 61 
    927e:	c7 85 00 f9 ff ff 1e 	movl   $0x611c961e,-0x700(%rbp)
    9285:	96 1c 61 
    9288:	c7 85 08 f9 ff ff ef 	movl   $0x9e916fef,-0x6f8(%rbp)
    928f:	6f 91 9e 
    9292:	c7 85 10 f9 ff ff 1e 	movl   $0x611c961e,-0x6f0(%rbp)
    9299:	96 1c 61 
    929c:	c7 85 18 f9 ff ff ef 	movl   $0x9e916fef,-0x6e8(%rbp)
    92a3:	6f 91 9e 
    92a6:	c7 85 20 f9 ff ff 1e 	movl   $0x611c961e,-0x6e0(%rbp)
    92ad:	96 1c 61 
    92b0:	c7 85 28 f9 ff ff 1e 	movl   $0x611c961e,-0x6d8(%rbp)
    92b7:	96 1c 61 
    92ba:	c7 85 30 f9 ff ff ef 	movl   $0x9e916fef,-0x6d0(%rbp)
    92c1:	6f 91 9e 
    92c4:	c7 85 38 f9 ff ff ef 	movl   $0x9e916fef,-0x6c8(%rbp)
    92cb:	6f 91 9e 
    92ce:	c7 85 40 f9 ff ff 01 	movl   $0x1,-0x6c0(%rbp)
    92d5:	00 00 00 
    92d8:	c7 85 48 f9 ff ff ef 	movl   $0x9e916fef,-0x6b8(%rbp)
    92df:	6f 91 9e 
    92e2:	c7 85 50 f9 ff ff ef 	movl   $0x9e916fef,-0x6b0(%rbp)
    92e9:	6f 91 9e 
    92ec:	c7 85 58 f9 ff ff 1e 	movl   $0x611c961e,-0x6a8(%rbp)
    92f3:	96 1c 61 
    92f6:	c7 85 60 f9 ff ff 1e 	movl   $0x611c961e,-0x6a0(%rbp)
    92fd:	96 1c 61 
    9300:	c7 85 68 f9 ff ff ef 	movl   $0x9e916fef,-0x698(%rbp)
    9307:	6f 91 9e 
    930a:	c7 85 70 f9 ff ff 1e 	movl   $0x611c961e,-0x690(%rbp)
    9311:	96 1c 61 
    9314:	c7 85 78 f9 ff ff ef 	movl   $0x9e916fef,-0x688(%rbp)
    931b:	6f 91 9e 
    931e:	c7 85 80 f9 ff ff 1e 	movl   $0x611c961e,-0x680(%rbp)
    9325:	96 1c 61 
    9328:	c7 85 88 f9 ff ff 1e 	movl   $0x611c961e,-0x678(%rbp)
    932f:	96 1c 61 
    9332:	48 8d 05 b7 a5 00 00 	lea    0xa5b7(%rip),%rax        # 138f0 <g_493>
    9339:	48 89 85 78 ea ff ff 	mov    %rax,-0x1588(%rbp)
    9340:	c7 85 80 e8 ff ff fd 	movl   $0xfffffffd,-0x1780(%rbp)
    9347:	ff ff ff 
    934a:	c7 85 84 e8 ff ff 72 	movl   $0x266b2472,-0x177c(%rbp)
    9351:	24 6b 26 
    9354:	c7 85 88 e8 ff ff 04 	movl   $0x4,-0x1778(%rbp)
    935b:	00 00 00 
    935e:	48 c7 85 80 ea ff ff 	movq   $0x0,-0x1580(%rbp)
    9365:	00 00 00 00 
    9369:	48 8d 85 f0 f8 ff ff 	lea    -0x710(%rbp),%rax
    9370:	48 83 c0 78          	add    $0x78,%rax
    9374:	48 89 85 88 ea ff ff 	mov    %rax,-0x1578(%rbp)
    937b:	c6 85 d4 e7 ff ff 00 	movb   $0x0,-0x182c(%rbp)
    9382:	c7 85 2c e8 ff ff 00 	movl   $0x0,-0x17d4(%rbp)
    9389:	00 00 00 
    938c:	eb 1a                	jmp    93a8 <func_15+0x2558>
    938e:	8b 85 2c e8 ff ff    	mov    -0x17d4(%rbp),%eax
    9394:	48 98                	cltq   
    9396:	c7 84 85 10 ec ff ff 	movl   $0xfffffff9,-0x13f0(%rbp,%rax,4)
    939d:	f9 ff ff ff 
    93a1:	83 85 2c e8 ff ff 01 	addl   $0x1,-0x17d4(%rbp)
    93a8:	83 bd 2c e8 ff ff 03 	cmpl   $0x3,-0x17d4(%rbp)
    93af:	7e dd                	jle    938e <func_15+0x253e>
    93b1:	8b 85 74 eb ff ff    	mov    -0x148c(%rbp),%eax
    93b7:	83 c0 01             	add    $0x1,%eax
    93ba:	89 85 74 eb ff ff    	mov    %eax,-0x148c(%rbp)
    93c0:	8b 85 74 eb ff ff    	mov    -0x148c(%rbp),%eax
    93c6:	83 f8 02             	cmp    $0x2,%eax
    93c9:	0f 86 66 fe ff ff    	jbe    9235 <func_15+0x23e5>
    93cf:	c6 05 ea 9d 00 00 00 	movb   $0x0,0x9dea(%rip)        # 131c0 <g_113>
    93d6:	e9 37 01 00 00       	jmpq   9512 <func_15+0x26c2>
    93db:	c7 85 70 e8 ff ff 92 	movl   $0x8bd84192,-0x1790(%rbp)
    93e2:	41 d8 8b 
    93e5:	48 8d 05 2c c4 00 00 	lea    0xc42c(%rip),%rax        # 15818 <g_376>
    93ec:	48 89 85 f0 f8 ff ff 	mov    %rax,-0x710(%rbp)
    93f3:	48 c7 85 f8 f8 ff ff 	movq   $0x0,-0x708(%rbp)
    93fa:	00 00 00 00 
    93fe:	48 8d 05 13 c4 00 00 	lea    0xc413(%rip),%rax        # 15818 <g_376>
    9405:	48 89 85 00 f9 ff ff 	mov    %rax,-0x700(%rbp)
    940c:	48 c7 85 08 f9 ff ff 	movq   $0x0,-0x6f8(%rbp)
    9413:	00 00 00 00 
    9417:	48 8d 05 fa c3 00 00 	lea    0xc3fa(%rip),%rax        # 15818 <g_376>
    941e:	48 89 85 10 f9 ff ff 	mov    %rax,-0x6f0(%rbp)
    9425:	48 c7 85 18 f9 ff ff 	movq   $0x0,-0x6e8(%rbp)
    942c:	00 00 00 00 
    9430:	48 8d 05 e1 c3 00 00 	lea    0xc3e1(%rip),%rax        # 15818 <g_376>
    9437:	48 89 85 20 f9 ff ff 	mov    %rax,-0x6e0(%rbp)
    943e:	48 c7 85 28 f9 ff ff 	movq   $0x0,-0x6d8(%rbp)
    9445:	00 00 00 00 
    9449:	48 8d 05 c8 c3 00 00 	lea    0xc3c8(%rip),%rax        # 15818 <g_376>
    9450:	48 89 85 30 f9 ff ff 	mov    %rax,-0x6d0(%rbp)
    9457:	48 c7 85 38 f9 ff ff 	movq   $0x0,-0x6c8(%rbp)
    945e:	00 00 00 00 
    9462:	48 8d 85 38 e9 ff ff 	lea    -0x16c8(%rbp),%rax
    9469:	48 89 85 60 ea ff ff 	mov    %rax,-0x15a0(%rbp)
    9470:	48 8d 05 31 b8 00 00 	lea    0xb831(%rip),%rax        # 14ca8 <g_127>
    9477:	48 89 85 68 ea ff ff 	mov    %rax,-0x1598(%rbp)
    947e:	48 8d 05 eb bb 00 00 	lea    0xbbeb(%rip),%rax        # 15070 <g_548+0x50>
    9485:	48 89 85 10 ec ff ff 	mov    %rax,-0x13f0(%rbp)
    948c:	48 8d 05 dd bb 00 00 	lea    0xbbdd(%rip),%rax        # 15070 <g_548+0x50>
    9493:	48 89 85 18 ec ff ff 	mov    %rax,-0x13e8(%rbp)
    949a:	48 8d 05 cf bb 00 00 	lea    0xbbcf(%rip),%rax        # 15070 <g_548+0x50>
    94a1:	48 89 85 20 ec ff ff 	mov    %rax,-0x13e0(%rbp)
    94a8:	48 8d 05 c1 bb 00 00 	lea    0xbbc1(%rip),%rax        # 15070 <g_548+0x50>
    94af:	48 89 85 28 ec ff ff 	mov    %rax,-0x13d8(%rbp)
    94b6:	48 8d 05 b3 bb 00 00 	lea    0xbbb3(%rip),%rax        # 15070 <g_548+0x50>
    94bd:	48 89 85 30 ec ff ff 	mov    %rax,-0x13d0(%rbp)
    94c4:	48 8d 05 a5 bb 00 00 	lea    0xbba5(%rip),%rax        # 15070 <g_548+0x50>
    94cb:	48 89 85 38 ec ff ff 	mov    %rax,-0x13c8(%rbp)
    94d2:	48 8d 05 97 bb 00 00 	lea    0xbb97(%rip),%rax        # 15070 <g_548+0x50>
    94d9:	48 89 85 40 ec ff ff 	mov    %rax,-0x13c0(%rbp)
    94e0:	48 8d 05 89 bb 00 00 	lea    0xbb89(%rip),%rax        # 15070 <g_548+0x50>
    94e7:	48 89 85 48 ec ff ff 	mov    %rax,-0x13b8(%rbp)
    94ee:	c7 85 74 e8 ff ff 00 	movl   $0x0,-0x178c(%rbp)
    94f5:	00 00 00 
    94f8:	c7 85 78 e8 ff ff c0 	movl   $0xfdd117c0,-0x1788(%rbp)
    94ff:	17 d1 fd 
    9502:	0f b6 05 b7 9c 00 00 	movzbl 0x9cb7(%rip),%eax        # 131c0 <g_113>
    9509:	83 c0 01             	add    $0x1,%eax
    950c:	88 05 ae 9c 00 00    	mov    %al,0x9cae(%rip)        # 131c0 <g_113>
    9512:	0f b6 05 a7 9c 00 00 	movzbl 0x9ca7(%rip),%eax        # 131c0 <g_113>
    9519:	3c 02                	cmp    $0x2,%al
    951b:	0f 86 ba fe ff ff    	jbe    93db <func_15+0x258b>
    9521:	8b 05 f9 9c 00 00    	mov    0x9cf9(%rip),%eax        # 13220 <g_128+0x20>
    9527:	0f b7 d8             	movzwl %ax,%ebx
    952a:	48 8b 05 3f be 00 00 	mov    0xbe3f(%rip),%rax        # 15370 <g_1360>
    9531:	44 8b a5 c8 e7 ff ff 	mov    -0x1838(%rbp),%r12d
    9538:	8b 85 90 eb ff ff    	mov    -0x1470(%rbp),%eax
    953e:	89 c6                	mov    %eax,%esi
    9540:	bf 01 00 00 00       	mov    $0x1,%edi
    9545:	e8 e0 bf ff ff       	callq  552a <safe_rshift_func_int16_t_s_s>
    954a:	66 83 f8 05          	cmp    $0x5,%ax
    954e:	0f 96 c0             	setbe  %al
    9551:	0f b6 c0             	movzbl %al,%eax
    9554:	41 39 c4             	cmp    %eax,%r12d
    9557:	41 0f 9e c7          	setle  %r15b
    955b:	44 8b a5 c8 e7 ff ff 	mov    -0x1838(%rbp),%r12d
    9562:	48 8b 85 c0 e7 ff ff 	mov    -0x1840(%rbp),%rax
    9569:	0f b6 00             	movzbl (%rax),%eax
    956c:	44 0f be e8          	movsbl %al,%r13d
    9570:	8b 85 c8 e7 ff ff    	mov    -0x1838(%rbp),%eax
    9576:	44 0f bf f0          	movswl %ax,%r14d
    957a:	48 8b 85 c0 e7 ff ff 	mov    -0x1840(%rbp),%rax
    9581:	0f b6 00             	movzbl (%rax),%eax
    9584:	0f b6 d0             	movzbl %al,%edx
    9587:	48 8b 85 00 ea ff ff 	mov    -0x1600(%rbp),%rax
    958e:	48 8d 0d 6b b9 00 00 	lea    0xb96b(%rip),%rcx        # 14f00 <g_390+0x40>
    9595:	48 89 08             	mov    %rcx,(%rax)
    9598:	48 8b 85 00 ea ff ff 	mov    -0x1600(%rbp),%rax
    959f:	48 8b 08             	mov    (%rax),%rcx
    95a2:	48 8d 85 c0 e7 ff ff 	lea    -0x1840(%rbp),%rax
    95a9:	48 39 c1             	cmp    %rax,%rcx
    95ac:	8b 8d c8 e7 ff ff    	mov    -0x1838(%rbp),%ecx
    95b2:	48 8b 05 e7 b6 00 00 	mov    0xb6e7(%rip),%rax        # 14ca0 <g_118>
    95b9:	89 08                	mov    %ecx,(%rax)
    95bb:	8b 08                	mov    (%rax),%ecx
    95bd:	48 8b 85 e0 e8 ff ff 	mov    -0x1720(%rbp),%rax
    95c4:	48 8b 00             	mov    (%rax),%rax
    95c7:	89 08                	mov    %ecx,(%rax)
    95c9:	8b 85 cc e7 ff ff    	mov    -0x1834(%rbp),%eax
    95cf:	f7 d0                	not    %eax
    95d1:	89 c0                	mov    %eax,%eax
    95d3:	25 97 00 00 00       	and    $0x97,%eax
    95d8:	34 a8                	xor    $0xa8,%al
    95da:	48 89 c1             	mov    %rax,%rcx
    95dd:	8b 85 60 e8 ff ff    	mov    -0x17a0(%rbp),%eax
    95e3:	48 39 c1             	cmp    %rax,%rcx
    95e6:	8b 8d cc e7 ff ff    	mov    -0x1834(%rbp),%ecx
    95ec:	0f b7 85 8a eb ff ff 	movzwl -0x1476(%rbp),%eax
    95f3:	0f b7 c0             	movzwl %ax,%eax
    95f6:	39 c1                	cmp    %eax,%ecx
    95f8:	0f 96 c0             	setbe  %al
    95fb:	0f b6 c0             	movzbl %al,%eax
    95fe:	89 d6                	mov    %edx,%esi
    9600:	89 c7                	mov    %eax,%edi
    9602:	e8 d4 c5 ff ff       	callq  5bdb <safe_div_func_uint8_t_u_u>
    9607:	0f b6 c0             	movzbl %al,%eax
    960a:	44 89 f6             	mov    %r14d,%esi
    960d:	89 c7                	mov    %eax,%edi
    960f:	e8 e1 bd ff ff       	callq  53f5 <safe_mul_func_int16_t_s_s>
    9614:	0f be c0             	movsbl %al,%eax
    9617:	44 89 ee             	mov    %r13d,%esi
    961a:	89 c7                	mov    %eax,%edi
    961c:	e8 b3 bb ff ff       	callq  51d4 <safe_add_func_int8_t_s_s>
    9621:	0f be c0             	movsbl %al,%eax
    9624:	44 89 e6             	mov    %r12d,%esi
    9627:	89 c7                	mov    %eax,%edi
    9629:	e8 d7 bf ff ff       	callq  5605 <safe_sub_func_int32_t_s_s>
    962e:	0f b7 95 8a eb ff ff 	movzwl -0x1476(%rbp),%edx
    9635:	0f b7 d2             	movzwl %dx,%edx
    9638:	39 d0                	cmp    %edx,%eax
    963a:	0f 95 c0             	setne  %al
    963d:	0f b6 c0             	movzbl %al,%eax
    9640:	be ff ff ff ff       	mov    $0xffffffff,%esi
    9645:	89 c7                	mov    %eax,%edi
    9647:	e8 c6 bb ff ff       	callq  5212 <safe_mul_func_int8_t_s_s>
    964c:	48 8b 85 c0 e7 ff ff 	mov    -0x1840(%rbp),%rax
    9653:	0f b6 00             	movzbl (%rax),%eax
    9656:	8b 15 e0 a4 00 00    	mov    0xa4e0(%rip),%edx        # 13b3c <g_1623+0x1c>
    965c:	0f be c0             	movsbl %al,%eax
    965f:	21 d0                	and    %edx,%eax
    9661:	89 05 d5 a4 00 00    	mov    %eax,0xa4d5(%rip)        # 13b3c <g_1623+0x1c>
    9667:	8b 15 cf a4 00 00    	mov    0xa4cf(%rip),%edx        # 13b3c <g_1623+0x1c>
    966d:	48 8b 85 c0 e7 ff ff 	mov    -0x1840(%rbp),%rax
    9674:	0f b6 00             	movzbl (%rax),%eax
    9677:	0f be c0             	movsbl %al,%eax
    967a:	39 c2                	cmp    %eax,%edx
    967c:	7e 11                	jle    968f <func_15+0x283f>
    967e:	8b 85 cc e7 ff ff    	mov    -0x1834(%rbp),%eax
    9684:	85 c0                	test   %eax,%eax
    9686:	74 07                	je     968f <func_15+0x283f>
    9688:	b8 01 00 00 00       	mov    $0x1,%eax
    968d:	eb 05                	jmp    9694 <func_15+0x2844>
    968f:	b8 00 00 00 00       	mov    $0x0,%eax
    9694:	83 f8 01             	cmp    $0x1,%eax
    9697:	0f 95 c0             	setne  %al
    969a:	0f b6 d0             	movzbl %al,%edx
    969d:	48 8b 85 c0 e7 ff ff 	mov    -0x1840(%rbp),%rax
    96a4:	0f b6 00             	movzbl (%rax),%eax
    96a7:	0f be c0             	movsbl %al,%eax
    96aa:	39 c2                	cmp    %eax,%edx
    96ac:	0f 95 c0             	setne  %al
    96af:	44 31 f8             	xor    %r15d,%eax
    96b2:	84 c0                	test   %al,%al
    96b4:	74 07                	je     96bd <func_15+0x286d>
    96b6:	b8 01 00 00 00       	mov    $0x1,%eax
    96bb:	eb 05                	jmp    96c2 <func_15+0x2872>
    96bd:	b8 00 00 00 00       	mov    $0x0,%eax
    96c2:	0f b7 c0             	movzwl %ax,%eax
    96c5:	89 de                	mov    %ebx,%esi
    96c7:	89 c7                	mov    %eax,%edi
    96c9:	e8 31 c6 ff ff       	callq  5cff <safe_add_func_uint16_t_u_u>
    96ce:	0f b7 d0             	movzwl %ax,%edx
    96d1:	8b 85 cc e7 ff ff    	mov    -0x1834(%rbp),%eax
    96d7:	39 c2                	cmp    %eax,%edx
    96d9:	0f 82 a9 0f 00 00    	jb     a688 <func_15+0x3838>
    96df:	48 8d 85 f0 e7 ff ff 	lea    -0x1810(%rbp),%rax
    96e6:	48 89 85 f0 f8 ff ff 	mov    %rax,-0x710(%rbp)
    96ed:	48 8d 05 44 9b 00 00 	lea    0x9b44(%rip),%rax        # 13238 <g_146>
    96f4:	48 89 85 f8 f8 ff ff 	mov    %rax,-0x708(%rbp)
    96fb:	48 8d 85 f4 e7 ff ff 	lea    -0x180c(%rbp),%rax
    9702:	48 89 85 00 f9 ff ff 	mov    %rax,-0x700(%rbp)
    9709:	48 8d 85 f0 e7 ff ff 	lea    -0x1810(%rbp),%rax
    9710:	48 89 85 08 f9 ff ff 	mov    %rax,-0x6f8(%rbp)
    9717:	48 8d 05 1a 9b 00 00 	lea    0x9b1a(%rip),%rax        # 13238 <g_146>
    971e:	48 89 85 10 f9 ff ff 	mov    %rax,-0x6f0(%rbp)
    9725:	48 8d 85 ec e7 ff ff 	lea    -0x1814(%rbp),%rax
    972c:	48 89 85 18 f9 ff ff 	mov    %rax,-0x6e8(%rbp)
    9733:	48 8d 05 fe 9a 00 00 	lea    0x9afe(%rip),%rax        # 13238 <g_146>
    973a:	48 89 85 20 f9 ff ff 	mov    %rax,-0x6e0(%rbp)
    9741:	48 8d 05 f0 9a 00 00 	lea    0x9af0(%rip),%rax        # 13238 <g_146>
    9748:	48 89 85 28 f9 ff ff 	mov    %rax,-0x6d8(%rbp)
    974f:	48 8d 05 e2 9a 00 00 	lea    0x9ae2(%rip),%rax        # 13238 <g_146>
    9756:	48 89 85 30 f9 ff ff 	mov    %rax,-0x6d0(%rbp)
    975d:	48 c7 85 38 f9 ff ff 	movq   $0x0,-0x6c8(%rbp)
    9764:	00 00 00 00 
    9768:	48 8d 85 f0 e7 ff ff 	lea    -0x1810(%rbp),%rax
    976f:	48 89 85 40 f9 ff ff 	mov    %rax,-0x6c0(%rbp)
    9776:	48 8d 85 ec e7 ff ff 	lea    -0x1814(%rbp),%rax
    977d:	48 89 85 48 f9 ff ff 	mov    %rax,-0x6b8(%rbp)
    9784:	48 8d 85 f4 e7 ff ff 	lea    -0x180c(%rbp),%rax
    978b:	48 89 85 50 f9 ff ff 	mov    %rax,-0x6b0(%rbp)
    9792:	48 8d 05 9f 9a 00 00 	lea    0x9a9f(%rip),%rax        # 13238 <g_146>
    9799:	48 89 85 58 f9 ff ff 	mov    %rax,-0x6a8(%rbp)
    97a0:	48 8d 05 91 9a 00 00 	lea    0x9a91(%rip),%rax        # 13238 <g_146>
    97a7:	48 89 85 60 f9 ff ff 	mov    %rax,-0x6a0(%rbp)
    97ae:	48 8d 05 83 9a 00 00 	lea    0x9a83(%rip),%rax        # 13238 <g_146>
    97b5:	48 89 85 68 f9 ff ff 	mov    %rax,-0x698(%rbp)
    97bc:	48 8d 85 f4 e7 ff ff 	lea    -0x180c(%rbp),%rax
    97c3:	48 89 85 70 f9 ff ff 	mov    %rax,-0x690(%rbp)
    97ca:	48 8d 85 ec e7 ff ff 	lea    -0x1814(%rbp),%rax
    97d1:	48 89 85 78 f9 ff ff 	mov    %rax,-0x688(%rbp)
    97d8:	48 8d 85 f4 e7 ff ff 	lea    -0x180c(%rbp),%rax
    97df:	48 89 85 80 f9 ff ff 	mov    %rax,-0x680(%rbp)
    97e6:	48 8d 85 f4 e7 ff ff 	lea    -0x180c(%rbp),%rax
    97ed:	48 89 85 88 f9 ff ff 	mov    %rax,-0x678(%rbp)
    97f4:	48 8d 05 3d 9a 00 00 	lea    0x9a3d(%rip),%rax        # 13238 <g_146>
    97fb:	48 89 85 90 f9 ff ff 	mov    %rax,-0x670(%rbp)
    9802:	48 8d 85 f4 e7 ff ff 	lea    -0x180c(%rbp),%rax
    9809:	48 89 85 98 f9 ff ff 	mov    %rax,-0x668(%rbp)
    9810:	48 8d 05 21 9a 00 00 	lea    0x9a21(%rip),%rax        # 13238 <g_146>
    9817:	48 89 85 a0 f9 ff ff 	mov    %rax,-0x660(%rbp)
    981e:	48 8d 05 17 9a 00 00 	lea    0x9a17(%rip),%rax        # 1323c <g_146+0x4>
    9825:	48 89 85 a8 f9 ff ff 	mov    %rax,-0x658(%rbp)
    982c:	48 8d 85 f0 e7 ff ff 	lea    -0x1810(%rbp),%rax
    9833:	48 89 85 b0 f9 ff ff 	mov    %rax,-0x650(%rbp)
    983a:	48 8d 85 f8 e7 ff ff 	lea    -0x1808(%rbp),%rax
    9841:	48 89 85 b8 f9 ff ff 	mov    %rax,-0x648(%rbp)
    9848:	48 8d 85 f8 e7 ff ff 	lea    -0x1808(%rbp),%rax
    984f:	48 89 85 c0 f9 ff ff 	mov    %rax,-0x640(%rbp)
    9856:	48 c7 85 c8 f9 ff ff 	movq   $0x0,-0x638(%rbp)
    985d:	00 00 00 00 
    9861:	48 8d 05 d0 99 00 00 	lea    0x99d0(%rip),%rax        # 13238 <g_146>
    9868:	48 89 85 d0 f9 ff ff 	mov    %rax,-0x630(%rbp)
    986f:	48 8d 85 f8 e7 ff ff 	lea    -0x1808(%rbp),%rax
    9876:	48 89 85 d8 f9 ff ff 	mov    %rax,-0x628(%rbp)
    987d:	48 c7 85 e0 f9 ff ff 	movq   $0x0,-0x620(%rbp)
    9884:	00 00 00 00 
    9888:	48 8d 85 ec e7 ff ff 	lea    -0x1814(%rbp),%rax
    988f:	48 89 85 e8 f9 ff ff 	mov    %rax,-0x618(%rbp)
    9896:	48 8d 05 9b 99 00 00 	lea    0x999b(%rip),%rax        # 13238 <g_146>
    989d:	48 89 85 f0 f9 ff ff 	mov    %rax,-0x610(%rbp)
    98a4:	48 8d 05 91 99 00 00 	lea    0x9991(%rip),%rax        # 1323c <g_146+0x4>
    98ab:	48 89 85 f8 f9 ff ff 	mov    %rax,-0x608(%rbp)
    98b2:	48 8d 85 f4 e7 ff ff 	lea    -0x180c(%rbp),%rax
    98b9:	48 89 85 00 fa ff ff 	mov    %rax,-0x600(%rbp)
    98c0:	48 8d 85 f4 e7 ff ff 	lea    -0x180c(%rbp),%rax
    98c7:	48 89 85 08 fa ff ff 	mov    %rax,-0x5f8(%rbp)
    98ce:	48 8d 85 f0 e7 ff ff 	lea    -0x1810(%rbp),%rax
    98d5:	48 89 85 10 fa ff ff 	mov    %rax,-0x5f0(%rbp)
    98dc:	48 8d 85 f0 e7 ff ff 	lea    -0x1810(%rbp),%rax
    98e3:	48 89 85 18 fa ff ff 	mov    %rax,-0x5e8(%rbp)
    98ea:	48 8d 05 47 99 00 00 	lea    0x9947(%rip),%rax        # 13238 <g_146>
    98f1:	48 89 85 20 fa ff ff 	mov    %rax,-0x5e0(%rbp)
    98f8:	48 8d 85 ec e7 ff ff 	lea    -0x1814(%rbp),%rax
    98ff:	48 89 85 28 fa ff ff 	mov    %rax,-0x5d8(%rbp)
    9906:	48 8d 85 f0 e7 ff ff 	lea    -0x1810(%rbp),%rax
    990d:	48 89 85 30 fa ff ff 	mov    %rax,-0x5d0(%rbp)
    9914:	48 8d 05 1d 99 00 00 	lea    0x991d(%rip),%rax        # 13238 <g_146>
    991b:	48 89 85 38 fa ff ff 	mov    %rax,-0x5c8(%rbp)
    9922:	48 8d 05 0f 99 00 00 	lea    0x990f(%rip),%rax        # 13238 <g_146>
    9929:	48 89 85 40 fa ff ff 	mov    %rax,-0x5c0(%rbp)
    9930:	48 8d 85 f4 e7 ff ff 	lea    -0x180c(%rbp),%rax
    9937:	48 89 85 48 fa ff ff 	mov    %rax,-0x5b8(%rbp)
    993e:	48 8d 85 f8 e7 ff ff 	lea    -0x1808(%rbp),%rax
    9945:	48 89 85 50 fa ff ff 	mov    %rax,-0x5b0(%rbp)
    994c:	48 c7 85 58 fa ff ff 	movq   $0x0,-0x5a8(%rbp)
    9953:	00 00 00 00 
    9957:	48 8d 85 f0 e7 ff ff 	lea    -0x1810(%rbp),%rax
    995e:	48 89 85 60 fa ff ff 	mov    %rax,-0x5a0(%rbp)
    9965:	48 8d 85 ec e7 ff ff 	lea    -0x1814(%rbp),%rax
    996c:	48 89 85 68 fa ff ff 	mov    %rax,-0x598(%rbp)
    9973:	48 8d 85 ec e7 ff ff 	lea    -0x1814(%rbp),%rax
    997a:	48 89 85 70 fa ff ff 	mov    %rax,-0x590(%rbp)
    9981:	48 8d 85 ec e7 ff ff 	lea    -0x1814(%rbp),%rax
    9988:	48 89 85 78 fa ff ff 	mov    %rax,-0x588(%rbp)
    998f:	48 8d 85 ec e7 ff ff 	lea    -0x1814(%rbp),%rax
    9996:	48 89 85 80 fa ff ff 	mov    %rax,-0x580(%rbp)
    999d:	48 8d 85 f0 e7 ff ff 	lea    -0x1810(%rbp),%rax
    99a4:	48 89 85 88 fa ff ff 	mov    %rax,-0x578(%rbp)
    99ab:	48 c7 85 90 fa ff ff 	movq   $0x0,-0x570(%rbp)
    99b2:	00 00 00 00 
    99b6:	48 8d 85 ec e7 ff ff 	lea    -0x1814(%rbp),%rax
    99bd:	48 89 85 98 fa ff ff 	mov    %rax,-0x568(%rbp)
    99c4:	48 c7 85 a0 fa ff ff 	movq   $0x0,-0x560(%rbp)
    99cb:	00 00 00 00 
    99cf:	48 8d 85 ec e7 ff ff 	lea    -0x1814(%rbp),%rax
    99d6:	48 89 85 a8 fa ff ff 	mov    %rax,-0x558(%rbp)
    99dd:	48 8d 85 f4 e7 ff ff 	lea    -0x180c(%rbp),%rax
    99e4:	48 89 85 b0 fa ff ff 	mov    %rax,-0x550(%rbp)
    99eb:	48 8d 05 46 98 00 00 	lea    0x9846(%rip),%rax        # 13238 <g_146>
    99f2:	48 89 85 b8 fa ff ff 	mov    %rax,-0x548(%rbp)
    99f9:	48 8d 05 38 98 00 00 	lea    0x9838(%rip),%rax        # 13238 <g_146>
    9a00:	48 89 85 c0 fa ff ff 	mov    %rax,-0x540(%rbp)
    9a07:	48 8d 85 f8 e7 ff ff 	lea    -0x1808(%rbp),%rax
    9a0e:	48 89 85 c8 fa ff ff 	mov    %rax,-0x538(%rbp)
    9a15:	48 8d 05 1c 98 00 00 	lea    0x981c(%rip),%rax        # 13238 <g_146>
    9a1c:	48 89 85 d0 fa ff ff 	mov    %rax,-0x530(%rbp)
    9a23:	48 8d 05 0e 98 00 00 	lea    0x980e(%rip),%rax        # 13238 <g_146>
    9a2a:	48 89 85 d8 fa ff ff 	mov    %rax,-0x528(%rbp)
    9a31:	48 8d 05 00 98 00 00 	lea    0x9800(%rip),%rax        # 13238 <g_146>
    9a38:	48 89 85 e0 fa ff ff 	mov    %rax,-0x520(%rbp)
    9a3f:	48 8d 85 ec e7 ff ff 	lea    -0x1814(%rbp),%rax
    9a46:	48 89 85 e8 fa ff ff 	mov    %rax,-0x518(%rbp)
    9a4d:	48 c7 85 f0 fa ff ff 	movq   $0x0,-0x510(%rbp)
    9a54:	00 00 00 00 
    9a58:	48 8d 05 d9 97 00 00 	lea    0x97d9(%rip),%rax        # 13238 <g_146>
    9a5f:	48 89 85 f8 fa ff ff 	mov    %rax,-0x508(%rbp)
    9a66:	48 8d 85 f0 e7 ff ff 	lea    -0x1810(%rbp),%rax
    9a6d:	48 89 85 00 fb ff ff 	mov    %rax,-0x500(%rbp)
    9a74:	48 8d 05 bd 97 00 00 	lea    0x97bd(%rip),%rax        # 13238 <g_146>
    9a7b:	48 89 85 08 fb ff ff 	mov    %rax,-0x4f8(%rbp)
    9a82:	48 8d 85 f4 e7 ff ff 	lea    -0x180c(%rbp),%rax
    9a89:	48 89 85 10 fb ff ff 	mov    %rax,-0x4f0(%rbp)
    9a90:	48 8d 05 a5 97 00 00 	lea    0x97a5(%rip),%rax        # 1323c <g_146+0x4>
    9a97:	48 89 85 18 fb ff ff 	mov    %rax,-0x4e8(%rbp)
    9a9e:	48 8d 05 93 97 00 00 	lea    0x9793(%rip),%rax        # 13238 <g_146>
    9aa5:	48 89 85 20 fb ff ff 	mov    %rax,-0x4e0(%rbp)
    9aac:	48 8d 85 ec e7 ff ff 	lea    -0x1814(%rbp),%rax
    9ab3:	48 89 85 28 fb ff ff 	mov    %rax,-0x4d8(%rbp)
    9aba:	48 8d 85 f4 e7 ff ff 	lea    -0x180c(%rbp),%rax
    9ac1:	48 89 85 30 fb ff ff 	mov    %rax,-0x4d0(%rbp)
    9ac8:	48 8d 85 ec e7 ff ff 	lea    -0x1814(%rbp),%rax
    9acf:	48 89 85 38 fb ff ff 	mov    %rax,-0x4c8(%rbp)
    9ad6:	48 8d 85 f0 e7 ff ff 	lea    -0x1810(%rbp),%rax
    9add:	48 89 85 40 fb ff ff 	mov    %rax,-0x4c0(%rbp)
    9ae4:	48 8d 85 f4 e7 ff ff 	lea    -0x180c(%rbp),%rax
    9aeb:	48 89 85 48 fb ff ff 	mov    %rax,-0x4b8(%rbp)
    9af2:	48 c7 85 50 fb ff ff 	movq   $0x0,-0x4b0(%rbp)
    9af9:	00 00 00 00 
    9afd:	48 8d 85 f0 e7 ff ff 	lea    -0x1810(%rbp),%rax
    9b04:	48 89 85 58 fb ff ff 	mov    %rax,-0x4a8(%rbp)
    9b0b:	48 8d 85 f0 e7 ff ff 	lea    -0x1810(%rbp),%rax
    9b12:	48 89 85 60 fb ff ff 	mov    %rax,-0x4a0(%rbp)
    9b19:	48 8d 85 f0 e7 ff ff 	lea    -0x1810(%rbp),%rax
    9b20:	48 89 85 68 fb ff ff 	mov    %rax,-0x498(%rbp)
    9b27:	48 8d 85 f0 e7 ff ff 	lea    -0x1810(%rbp),%rax
    9b2e:	48 89 85 70 fb ff ff 	mov    %rax,-0x490(%rbp)
    9b35:	48 8d 05 fc 96 00 00 	lea    0x96fc(%rip),%rax        # 13238 <g_146>
    9b3c:	48 89 85 78 fb ff ff 	mov    %rax,-0x488(%rbp)
    9b43:	48 c7 85 80 fb ff ff 	movq   $0x0,-0x480(%rbp)
    9b4a:	00 00 00 00 
    9b4e:	48 8d 85 f0 e7 ff ff 	lea    -0x1810(%rbp),%rax
    9b55:	48 89 85 88 fb ff ff 	mov    %rax,-0x478(%rbp)
    9b5c:	48 c7 85 90 fb ff ff 	movq   $0x0,-0x470(%rbp)
    9b63:	00 00 00 00 
    9b67:	48 8d 05 ca 96 00 00 	lea    0x96ca(%rip),%rax        # 13238 <g_146>
    9b6e:	48 89 85 98 fb ff ff 	mov    %rax,-0x468(%rbp)
    9b75:	48 c7 85 a0 fb ff ff 	movq   $0x0,-0x460(%rbp)
    9b7c:	00 00 00 00 
    9b80:	48 c7 85 a8 fb ff ff 	movq   $0x0,-0x458(%rbp)
    9b87:	00 00 00 00 
    9b8b:	48 8d 85 f0 e7 ff ff 	lea    -0x1810(%rbp),%rax
    9b92:	48 89 85 b0 fb ff ff 	mov    %rax,-0x450(%rbp)
    9b99:	48 c7 85 b8 fb ff ff 	movq   $0x0,-0x448(%rbp)
    9ba0:	00 00 00 00 
    9ba4:	48 c7 85 c0 fb ff ff 	movq   $0x0,-0x440(%rbp)
    9bab:	00 00 00 00 
    9baf:	48 8d 85 ec e7 ff ff 	lea    -0x1814(%rbp),%rax
    9bb6:	48 89 85 c8 fb ff ff 	mov    %rax,-0x438(%rbp)
    9bbd:	48 8d 85 f0 e7 ff ff 	lea    -0x1810(%rbp),%rax
    9bc4:	48 89 85 d0 fb ff ff 	mov    %rax,-0x430(%rbp)
    9bcb:	48 8d 85 f4 e7 ff ff 	lea    -0x180c(%rbp),%rax
    9bd2:	48 89 85 d8 fb ff ff 	mov    %rax,-0x428(%rbp)
    9bd9:	48 8d 85 ec e7 ff ff 	lea    -0x1814(%rbp),%rax
    9be0:	48 89 85 e0 fb ff ff 	mov    %rax,-0x420(%rbp)
    9be7:	48 8d 85 f4 e7 ff ff 	lea    -0x180c(%rbp),%rax
    9bee:	48 89 85 e8 fb ff ff 	mov    %rax,-0x418(%rbp)
    9bf5:	48 c7 85 f0 fb ff ff 	movq   $0x0,-0x410(%rbp)
    9bfc:	00 00 00 00 
    9c00:	48 c7 85 f8 fb ff ff 	movq   $0x0,-0x408(%rbp)
    9c07:	00 00 00 00 
    9c0b:	48 c7 85 00 fc ff ff 	movq   $0x0,-0x400(%rbp)
    9c12:	00 00 00 00 
    9c16:	48 8d 85 f0 e7 ff ff 	lea    -0x1810(%rbp),%rax
    9c1d:	48 89 85 08 fc ff ff 	mov    %rax,-0x3f8(%rbp)
    9c24:	48 c7 85 10 fc ff ff 	movq   $0x0,-0x3f0(%rbp)
    9c2b:	00 00 00 00 
    9c2f:	48 8d 05 06 96 00 00 	lea    0x9606(%rip),%rax        # 1323c <g_146+0x4>
    9c36:	48 89 85 18 fc ff ff 	mov    %rax,-0x3e8(%rbp)
    9c3d:	48 8d 05 f4 95 00 00 	lea    0x95f4(%rip),%rax        # 13238 <g_146>
    9c44:	48 89 85 20 fc ff ff 	mov    %rax,-0x3e0(%rbp)
    9c4b:	48 8d 85 f8 e7 ff ff 	lea    -0x1808(%rbp),%rax
    9c52:	48 89 85 28 fc ff ff 	mov    %rax,-0x3d8(%rbp)
    9c59:	48 c7 85 30 fc ff ff 	movq   $0x0,-0x3d0(%rbp)
    9c60:	00 00 00 00 
    9c64:	48 c7 85 38 fc ff ff 	movq   $0x0,-0x3c8(%rbp)
    9c6b:	00 00 00 00 
    9c6f:	48 c7 85 40 fc ff ff 	movq   $0x0,-0x3c0(%rbp)
    9c76:	00 00 00 00 
    9c7a:	48 8d 85 ec e7 ff ff 	lea    -0x1814(%rbp),%rax
    9c81:	48 89 85 48 fc ff ff 	mov    %rax,-0x3b8(%rbp)
    9c88:	48 8d 85 ec e7 ff ff 	lea    -0x1814(%rbp),%rax
    9c8f:	48 89 85 50 fc ff ff 	mov    %rax,-0x3b0(%rbp)
    9c96:	48 8d 05 9f 95 00 00 	lea    0x959f(%rip),%rax        # 1323c <g_146+0x4>
    9c9d:	48 89 85 58 fc ff ff 	mov    %rax,-0x3a8(%rbp)
    9ca4:	48 8d 85 f4 e7 ff ff 	lea    -0x180c(%rbp),%rax
    9cab:	48 89 85 60 fc ff ff 	mov    %rax,-0x3a0(%rbp)
    9cb2:	48 c7 85 68 fc ff ff 	movq   $0x0,-0x398(%rbp)
    9cb9:	00 00 00 00 
    9cbd:	48 8d 05 74 95 00 00 	lea    0x9574(%rip),%rax        # 13238 <g_146>
    9cc4:	48 89 85 70 fc ff ff 	mov    %rax,-0x390(%rbp)
    9ccb:	48 8d 85 f0 e7 ff ff 	lea    -0x1810(%rbp),%rax
    9cd2:	48 89 85 78 fc ff ff 	mov    %rax,-0x388(%rbp)
    9cd9:	48 8d 05 58 95 00 00 	lea    0x9558(%rip),%rax        # 13238 <g_146>
    9ce0:	48 89 85 80 fc ff ff 	mov    %rax,-0x380(%rbp)
    9ce7:	48 c7 85 88 fc ff ff 	movq   $0x0,-0x378(%rbp)
    9cee:	00 00 00 00 
    9cf2:	48 8d 85 f4 e7 ff ff 	lea    -0x180c(%rbp),%rax
    9cf9:	48 89 85 90 fc ff ff 	mov    %rax,-0x370(%rbp)
    9d00:	48 c7 85 98 fc ff ff 	movq   $0x0,-0x368(%rbp)
    9d07:	00 00 00 00 
    9d0b:	48 c7 85 a0 fc ff ff 	movq   $0x0,-0x360(%rbp)
    9d12:	00 00 00 00 
    9d16:	48 8d 05 1b 95 00 00 	lea    0x951b(%rip),%rax        # 13238 <g_146>
    9d1d:	48 89 85 a8 fc ff ff 	mov    %rax,-0x358(%rbp)
    9d24:	48 c7 85 b0 fc ff ff 	movq   $0x0,-0x350(%rbp)
    9d2b:	00 00 00 00 
    9d2f:	48 c7 85 b8 fc ff ff 	movq   $0x0,-0x348(%rbp)
    9d36:	00 00 00 00 
    9d3a:	48 c7 85 c0 fc ff ff 	movq   $0x0,-0x340(%rbp)
    9d41:	00 00 00 00 
    9d45:	48 8d 85 f0 e7 ff ff 	lea    -0x1810(%rbp),%rax
    9d4c:	48 89 85 c8 fc ff ff 	mov    %rax,-0x338(%rbp)
    9d53:	48 8d 85 f0 e7 ff ff 	lea    -0x1810(%rbp),%rax
    9d5a:	48 89 85 d0 fc ff ff 	mov    %rax,-0x330(%rbp)
    9d61:	48 8d 05 d0 94 00 00 	lea    0x94d0(%rip),%rax        # 13238 <g_146>
    9d68:	48 89 85 d8 fc ff ff 	mov    %rax,-0x328(%rbp)
    9d6f:	48 8d 85 ec e7 ff ff 	lea    -0x1814(%rbp),%rax
    9d76:	48 89 85 e0 fc ff ff 	mov    %rax,-0x320(%rbp)
    9d7d:	48 8d 05 b4 94 00 00 	lea    0x94b4(%rip),%rax        # 13238 <g_146>
    9d84:	48 89 85 e8 fc ff ff 	mov    %rax,-0x318(%rbp)
    9d8b:	48 8d 85 f8 e7 ff ff 	lea    -0x1808(%rbp),%rax
    9d92:	48 89 85 f0 fc ff ff 	mov    %rax,-0x310(%rbp)
    9d99:	48 8d 85 ec e7 ff ff 	lea    -0x1814(%rbp),%rax
    9da0:	48 89 85 f8 fc ff ff 	mov    %rax,-0x308(%rbp)
    9da7:	48 8d 85 ec e7 ff ff 	lea    -0x1814(%rbp),%rax
    9dae:	48 89 85 00 fd ff ff 	mov    %rax,-0x300(%rbp)
    9db5:	48 c7 85 08 fd ff ff 	movq   $0x0,-0x2f8(%rbp)
    9dbc:	00 00 00 00 
    9dc0:	48 8d 85 f4 e7 ff ff 	lea    -0x180c(%rbp),%rax
    9dc7:	48 89 85 10 fd ff ff 	mov    %rax,-0x2f0(%rbp)
    9dce:	48 8d 85 f0 e7 ff ff 	lea    -0x1810(%rbp),%rax
    9dd5:	48 89 85 18 fd ff ff 	mov    %rax,-0x2e8(%rbp)
    9ddc:	48 8d 05 55 94 00 00 	lea    0x9455(%rip),%rax        # 13238 <g_146>
    9de3:	48 89 85 20 fd ff ff 	mov    %rax,-0x2e0(%rbp)
    9dea:	48 8d 85 f0 e7 ff ff 	lea    -0x1810(%rbp),%rax
    9df1:	48 89 85 28 fd ff ff 	mov    %rax,-0x2d8(%rbp)
    9df8:	48 8d 05 39 94 00 00 	lea    0x9439(%rip),%rax        # 13238 <g_146>
    9dff:	48 89 85 30 fd ff ff 	mov    %rax,-0x2d0(%rbp)
    9e06:	48 8d 05 2b 94 00 00 	lea    0x942b(%rip),%rax        # 13238 <g_146>
    9e0d:	48 89 85 38 fd ff ff 	mov    %rax,-0x2c8(%rbp)
    9e14:	48 8d 85 f8 e7 ff ff 	lea    -0x1808(%rbp),%rax
    9e1b:	48 89 85 40 fd ff ff 	mov    %rax,-0x2c0(%rbp)
    9e22:	48 8d 05 0f 94 00 00 	lea    0x940f(%rip),%rax        # 13238 <g_146>
    9e29:	48 89 85 48 fd ff ff 	mov    %rax,-0x2b8(%rbp)
    9e30:	48 8d 85 ec e7 ff ff 	lea    -0x1814(%rbp),%rax
    9e37:	48 89 85 50 fd ff ff 	mov    %rax,-0x2b0(%rbp)
    9e3e:	48 8d 85 f8 e7 ff ff 	lea    -0x1808(%rbp),%rax
    9e45:	48 89 85 58 fd ff ff 	mov    %rax,-0x2a8(%rbp)
    9e4c:	48 c7 85 60 fd ff ff 	movq   $0x0,-0x2a0(%rbp)
    9e53:	00 00 00 00 
    9e57:	48 8d 85 f4 e7 ff ff 	lea    -0x180c(%rbp),%rax
    9e5e:	48 89 85 68 fd ff ff 	mov    %rax,-0x298(%rbp)
    9e65:	48 c7 85 70 fd ff ff 	movq   $0x0,-0x290(%rbp)
    9e6c:	00 00 00 00 
    9e70:	48 8d 05 c5 93 00 00 	lea    0x93c5(%rip),%rax        # 1323c <g_146+0x4>
    9e77:	48 89 85 78 fd ff ff 	mov    %rax,-0x288(%rbp)
    9e7e:	48 8d 85 f4 e7 ff ff 	lea    -0x180c(%rbp),%rax
    9e85:	48 89 85 80 fd ff ff 	mov    %rax,-0x280(%rbp)
    9e8c:	48 8d 85 ec e7 ff ff 	lea    -0x1814(%rbp),%rax
    9e93:	48 89 85 88 fd ff ff 	mov    %rax,-0x278(%rbp)
    9e9a:	48 8d 85 ec e7 ff ff 	lea    -0x1814(%rbp),%rax
    9ea1:	48 89 85 90 fd ff ff 	mov    %rax,-0x270(%rbp)
    9ea8:	48 8d 85 f4 e7 ff ff 	lea    -0x180c(%rbp),%rax
    9eaf:	48 89 85 98 fd ff ff 	mov    %rax,-0x268(%rbp)
    9eb6:	48 8d 05 7f 93 00 00 	lea    0x937f(%rip),%rax        # 1323c <g_146+0x4>
    9ebd:	48 89 85 a0 fd ff ff 	mov    %rax,-0x260(%rbp)
    9ec4:	48 c7 85 a8 fd ff ff 	movq   $0x0,-0x258(%rbp)
    9ecb:	00 00 00 00 
    9ecf:	48 8d 85 ec e7 ff ff 	lea    -0x1814(%rbp),%rax
    9ed6:	48 89 85 b0 fd ff ff 	mov    %rax,-0x250(%rbp)
    9edd:	48 8d 05 54 93 00 00 	lea    0x9354(%rip),%rax        # 13238 <g_146>
    9ee4:	48 89 85 b8 fd ff ff 	mov    %rax,-0x248(%rbp)
    9eeb:	48 8d 85 f8 e7 ff ff 	lea    -0x1808(%rbp),%rax
    9ef2:	48 89 85 c0 fd ff ff 	mov    %rax,-0x240(%rbp)
    9ef9:	48 8d 05 3c 93 00 00 	lea    0x933c(%rip),%rax        # 1323c <g_146+0x4>
    9f00:	48 89 85 c8 fd ff ff 	mov    %rax,-0x238(%rbp)
    9f07:	48 8d 85 f8 e7 ff ff 	lea    -0x1808(%rbp),%rax
    9f0e:	48 89 85 d0 fd ff ff 	mov    %rax,-0x230(%rbp)
    9f15:	48 c7 85 d8 fd ff ff 	movq   $0x0,-0x228(%rbp)
    9f1c:	00 00 00 00 
    9f20:	48 8d 05 11 93 00 00 	lea    0x9311(%rip),%rax        # 13238 <g_146>
    9f27:	48 89 85 e0 fd ff ff 	mov    %rax,-0x220(%rbp)
    9f2e:	48 8d 85 f8 e7 ff ff 	lea    -0x1808(%rbp),%rax
    9f35:	48 89 85 e8 fd ff ff 	mov    %rax,-0x218(%rbp)
    9f3c:	48 c7 85 f0 fd ff ff 	movq   $0x0,-0x210(%rbp)
    9f43:	00 00 00 00 
    9f47:	48 8d 05 ea 92 00 00 	lea    0x92ea(%rip),%rax        # 13238 <g_146>
    9f4e:	48 89 85 f8 fd ff ff 	mov    %rax,-0x208(%rbp)
    9f55:	48 8d 85 ec e7 ff ff 	lea    -0x1814(%rbp),%rax
    9f5c:	48 89 85 00 fe ff ff 	mov    %rax,-0x200(%rbp)
    9f63:	48 c7 85 08 fe ff ff 	movq   $0x0,-0x1f8(%rbp)
    9f6a:	00 00 00 00 
    9f6e:	48 8d 85 f0 e7 ff ff 	lea    -0x1810(%rbp),%rax
    9f75:	48 89 85 10 fe ff ff 	mov    %rax,-0x1f0(%rbp)
    9f7c:	48 8d 05 b9 92 00 00 	lea    0x92b9(%rip),%rax        # 1323c <g_146+0x4>
    9f83:	48 89 85 18 fe ff ff 	mov    %rax,-0x1e8(%rbp)
    9f8a:	48 8d 05 a7 92 00 00 	lea    0x92a7(%rip),%rax        # 13238 <g_146>
    9f91:	48 89 85 20 fe ff ff 	mov    %rax,-0x1e0(%rbp)
    9f98:	48 8d 05 99 92 00 00 	lea    0x9299(%rip),%rax        # 13238 <g_146>
    9f9f:	48 89 85 28 fe ff ff 	mov    %rax,-0x1d8(%rbp)
    9fa6:	48 8d 85 f4 e7 ff ff 	lea    -0x180c(%rbp),%rax
    9fad:	48 89 85 30 fe ff ff 	mov    %rax,-0x1d0(%rbp)
    9fb4:	48 8d 05 7d 92 00 00 	lea    0x927d(%rip),%rax        # 13238 <g_146>
    9fbb:	48 89 85 38 fe ff ff 	mov    %rax,-0x1c8(%rbp)
    9fc2:	48 8d 85 ec e7 ff ff 	lea    -0x1814(%rbp),%rax
    9fc9:	48 89 85 40 fe ff ff 	mov    %rax,-0x1c0(%rbp)
    9fd0:	48 c7 85 48 fe ff ff 	movq   $0x0,-0x1b8(%rbp)
    9fd7:	00 00 00 00 
    9fdb:	48 8d 85 f4 e7 ff ff 	lea    -0x180c(%rbp),%rax
    9fe2:	48 89 85 50 fe ff ff 	mov    %rax,-0x1b0(%rbp)
    9fe9:	48 8d 85 f0 e7 ff ff 	lea    -0x1810(%rbp),%rax
    9ff0:	48 89 85 58 fe ff ff 	mov    %rax,-0x1a8(%rbp)
    9ff7:	48 8d 85 f0 e7 ff ff 	lea    -0x1810(%rbp),%rax
    9ffe:	48 89 85 60 fe ff ff 	mov    %rax,-0x1a0(%rbp)
    a005:	48 8d 85 f8 e7 ff ff 	lea    -0x1808(%rbp),%rax
    a00c:	48 89 85 68 fe ff ff 	mov    %rax,-0x198(%rbp)
    a013:	48 8d 85 f4 e7 ff ff 	lea    -0x180c(%rbp),%rax
    a01a:	48 89 85 70 fe ff ff 	mov    %rax,-0x190(%rbp)
    a021:	48 8d 85 f0 e7 ff ff 	lea    -0x1810(%rbp),%rax
    a028:	48 89 85 78 fe ff ff 	mov    %rax,-0x188(%rbp)
    a02f:	48 8d 85 f0 e7 ff ff 	lea    -0x1810(%rbp),%rax
    a036:	48 89 85 80 fe ff ff 	mov    %rax,-0x180(%rbp)
    a03d:	48 8d 85 f4 e7 ff ff 	lea    -0x180c(%rbp),%rax
    a044:	48 89 85 88 fe ff ff 	mov    %rax,-0x178(%rbp)
    a04b:	48 8d 85 ec e7 ff ff 	lea    -0x1814(%rbp),%rax
    a052:	48 89 85 90 fe ff ff 	mov    %rax,-0x170(%rbp)
    a059:	48 c7 85 98 fe ff ff 	movq   $0x0,-0x168(%rbp)
    a060:	00 00 00 00 
    a064:	48 8d 85 f0 e7 ff ff 	lea    -0x1810(%rbp),%rax
    a06b:	48 89 85 a0 fe ff ff 	mov    %rax,-0x160(%rbp)
    a072:	48 c7 85 a8 fe ff ff 	movq   $0x0,-0x158(%rbp)
    a079:	00 00 00 00 
    a07d:	48 8d 85 ec e7 ff ff 	lea    -0x1814(%rbp),%rax
    a084:	48 89 85 b0 fe ff ff 	mov    %rax,-0x150(%rbp)
    a08b:	48 8d 85 ec e7 ff ff 	lea    -0x1814(%rbp),%rax
    a092:	48 89 85 b8 fe ff ff 	mov    %rax,-0x148(%rbp)
    a099:	48 8d 05 98 91 00 00 	lea    0x9198(%rip),%rax        # 13238 <g_146>
    a0a0:	48 89 85 c0 fe ff ff 	mov    %rax,-0x140(%rbp)
    a0a7:	48 8d 85 f4 e7 ff ff 	lea    -0x180c(%rbp),%rax
    a0ae:	48 89 85 c8 fe ff ff 	mov    %rax,-0x138(%rbp)
    a0b5:	48 8d 05 7c 91 00 00 	lea    0x917c(%rip),%rax        # 13238 <g_146>
    a0bc:	48 89 85 d0 fe ff ff 	mov    %rax,-0x130(%rbp)
    a0c3:	48 c7 85 d8 fe ff ff 	movq   $0x0,-0x128(%rbp)
    a0ca:	00 00 00 00 
    a0ce:	48 8d 85 f8 e7 ff ff 	lea    -0x1808(%rbp),%rax
    a0d5:	48 89 85 e0 fe ff ff 	mov    %rax,-0x120(%rbp)
    a0dc:	48 8d 85 f4 e7 ff ff 	lea    -0x180c(%rbp),%rax
    a0e3:	48 89 85 e8 fe ff ff 	mov    %rax,-0x118(%rbp)
    a0ea:	48 8d 85 f0 e7 ff ff 	lea    -0x1810(%rbp),%rax
    a0f1:	48 89 85 f0 fe ff ff 	mov    %rax,-0x110(%rbp)
    a0f8:	48 8d 05 39 91 00 00 	lea    0x9139(%rip),%rax        # 13238 <g_146>
    a0ff:	48 89 85 f8 fe ff ff 	mov    %rax,-0x108(%rbp)
    a106:	48 8d 05 2b 91 00 00 	lea    0x912b(%rip),%rax        # 13238 <g_146>
    a10d:	48 89 85 00 ff ff ff 	mov    %rax,-0x100(%rbp)
    a114:	48 c7 85 08 ff ff ff 	movq   $0x0,-0xf8(%rbp)
    a11b:	00 00 00 00 
    a11f:	48 8d 85 f8 e7 ff ff 	lea    -0x1808(%rbp),%rax
    a126:	48 89 85 10 ff ff ff 	mov    %rax,-0xf0(%rbp)
    a12d:	48 8d 05 04 91 00 00 	lea    0x9104(%rip),%rax        # 13238 <g_146>
    a134:	48 89 85 18 ff ff ff 	mov    %rax,-0xe8(%rbp)
    a13b:	48 8d 85 f0 e7 ff ff 	lea    -0x1810(%rbp),%rax
    a142:	48 89 85 20 ff ff ff 	mov    %rax,-0xe0(%rbp)
    a149:	48 8d 05 ec 90 00 00 	lea    0x90ec(%rip),%rax        # 1323c <g_146+0x4>
    a150:	48 89 85 28 ff ff ff 	mov    %rax,-0xd8(%rbp)
    a157:	48 8d 85 ec e7 ff ff 	lea    -0x1814(%rbp),%rax
    a15e:	48 89 85 30 ff ff ff 	mov    %rax,-0xd0(%rbp)
    a165:	48 8d 05 d0 90 00 00 	lea    0x90d0(%rip),%rax        # 1323c <g_146+0x4>
    a16c:	48 89 85 38 ff ff ff 	mov    %rax,-0xc8(%rbp)
    a173:	48 c7 85 40 ff ff ff 	movq   $0x0,-0xc0(%rbp)
    a17a:	00 00 00 00 
    a17e:	48 8d 85 ec e7 ff ff 	lea    -0x1814(%rbp),%rax
    a185:	48 89 85 48 ff ff ff 	mov    %rax,-0xb8(%rbp)
    a18c:	48 c7 85 50 ff ff ff 	movq   $0x0,-0xb0(%rbp)
    a193:	00 00 00 00 
    a197:	48 8d 05 9e 90 00 00 	lea    0x909e(%rip),%rax        # 1323c <g_146+0x4>
    a19e:	48 89 85 58 ff ff ff 	mov    %rax,-0xa8(%rbp)
    a1a5:	48 8d 85 f4 e7 ff ff 	lea    -0x180c(%rbp),%rax
    a1ac:	48 89 85 60 ff ff ff 	mov    %rax,-0xa0(%rbp)
    a1b3:	48 8d 85 f8 e7 ff ff 	lea    -0x1808(%rbp),%rax
    a1ba:	48 89 85 68 ff ff ff 	mov    %rax,-0x98(%rbp)
    a1c1:	48 8d 05 70 90 00 00 	lea    0x9070(%rip),%rax        # 13238 <g_146>
    a1c8:	48 89 85 70 ff ff ff 	mov    %rax,-0x90(%rbp)
    a1cf:	48 8d 85 ec e7 ff ff 	lea    -0x1814(%rbp),%rax
    a1d6:	48 89 85 78 ff ff ff 	mov    %rax,-0x88(%rbp)
    a1dd:	48 8d 85 f8 e7 ff ff 	lea    -0x1808(%rbp),%rax
    a1e4:	48 89 45 80          	mov    %rax,-0x80(%rbp)
    a1e8:	48 c7 45 88 00 00 00 	movq   $0x0,-0x78(%rbp)
    a1ef:	00 
    a1f0:	48 8d 85 f4 e7 ff ff 	lea    -0x180c(%rbp),%rax
    a1f7:	48 89 45 90          	mov    %rax,-0x70(%rbp)
    a1fb:	48 c7 45 98 00 00 00 	movq   $0x0,-0x68(%rbp)
    a202:	00 
    a203:	48 8d 85 f8 e7 ff ff 	lea    -0x1808(%rbp),%rax
    a20a:	48 89 45 a0          	mov    %rax,-0x60(%rbp)
    a20e:	48 8d 85 ec e7 ff ff 	lea    -0x1814(%rbp),%rax
    a215:	48 89 45 a8          	mov    %rax,-0x58(%rbp)
    a219:	48 c7 85 58 e9 ff ff 	movq   $0x0,-0x16a8(%rbp)
    a220:	00 00 00 00 
    a224:	c7 85 58 e9 ff ff fd 	movl   $0xfffffffd,-0x16a8(%rbp)
    a22b:	ff ff ff 
    a22e:	c7 85 64 e8 ff ff 00 	movl   $0x0,-0x179c(%rbp)
    a235:	00 00 00 
    a238:	c7 85 30 e8 ff ff 00 	movl   $0x0,-0x17d0(%rbp)
    a23f:	00 00 00 
    a242:	eb 14                	jmp    a258 <func_15+0x3408>
    a244:	8b 85 30 e8 ff ff    	mov    -0x17d0(%rbp),%eax
    a24a:	48 98                	cltq   
    a24c:	c6 44 05 be 00       	movb   $0x0,-0x42(%rbp,%rax,1)
    a251:	83 85 30 e8 ff ff 01 	addl   $0x1,-0x17d0(%rbp)
    a258:	83 bd 30 e8 ff ff 04 	cmpl   $0x4,-0x17d0(%rbp)
    a25f:	7e e3                	jle    a244 <func_15+0x33f4>
    a261:	48 8b 85 68 ec ff ff 	mov    -0x1398(%rbp),%rax
    a268:	48 85 c0             	test   %rax,%rax
    a26b:	0f 94 c0             	sete   %al
    a26e:	0f b6 d0             	movzbl %al,%edx
    a271:	8b 85 cc e7 ff ff    	mov    -0x1834(%rbp),%eax
    a277:	31 d0                	xor    %edx,%eax
    a279:	89 c6                	mov    %eax,%esi
    a27b:	bf 00 00 00 00       	mov    $0x0,%edi
    a280:	e8 5c b2 ff ff       	callq  54e1 <safe_lshift_func_int16_t_s_u>
    a285:	48 8b 85 e0 e8 ff ff 	mov    -0x1720(%rbp),%rax
    a28c:	48 8b 00             	mov    (%rax),%rax
    a28f:	8b 00                	mov    (%rax),%eax
    a291:	0f be d8             	movsbl %al,%ebx
    a294:	44 8b 25 a1 98 00 00 	mov    0x98a1(%rip),%r12d        # 13b3c <g_1623+0x1c>
    a29b:	48 8b 85 08 ea ff ff 	mov    -0x15f8(%rbp),%rax
    a2a2:	44 0f bf e8          	movswl %ax,%r13d
    a2a6:	8b 85 cc e7 ff ff    	mov    -0x1834(%rbp),%eax
    a2ac:	98                   	cwtl   
    a2ad:	be 03 00 00 00       	mov    $0x3,%esi
    a2b2:	89 c7                	mov    %eax,%edi
    a2b4:	e8 3c b1 ff ff       	callq  53f5 <safe_mul_func_int16_t_s_s>
    a2b9:	98                   	cwtl   
    a2ba:	44 89 ee             	mov    %r13d,%esi
    a2bd:	89 c7                	mov    %eax,%edi
    a2bf:	e8 52 b1 ff ff       	callq  5416 <safe_mod_func_int16_t_s_s>
    a2c4:	48 8b 95 40 fb ff ff 	mov    -0x4c0(%rbp),%rdx
    a2cb:	48 89 15 b6 b0 00 00 	mov    %rdx,0xb0b6(%rip)        # 15388 <g_1639>
    a2d2:	48 8b 15 af b0 00 00 	mov    0xb0af(%rip),%rdx        # 15388 <g_1639>
    a2d9:	48 39 95 10 ea ff ff 	cmp    %rdx,-0x15f0(%rbp)
    a2e0:	0f 94 c2             	sete   %dl
    a2e3:	0f b6 d2             	movzbl %dl,%edx
    a2e6:	09 d0                	or     %edx,%eax
    a2e8:	98                   	cwtl   
    a2e9:	44 89 e6             	mov    %r12d,%esi
    a2ec:	89 c7                	mov    %eax,%edi
    a2ee:	e8 9f b1 ff ff       	callq  5492 <safe_lshift_func_int16_t_s_s>
    a2f3:	8b 85 cc e7 ff ff    	mov    -0x1834(%rbp),%eax
    a2f9:	83 c8 bf             	or     $0xffffffbf,%eax
    a2fc:	0f be c0             	movsbl %al,%eax
    a2ff:	89 de                	mov    %ebx,%esi
    a301:	89 c7                	mov    %eax,%edi
    a303:	e8 0a af ff ff       	callq  5212 <safe_mul_func_int8_t_s_s>
    a308:	0f b7 95 e4 e7 ff ff 	movzwl -0x181c(%rbp),%edx
    a30f:	8b 85 c8 e7 ff ff    	mov    -0x1838(%rbp),%eax
    a315:	39 c2                	cmp    %eax,%edx
    a317:	0f 8c 55 03 00 00    	jl     a672 <func_15+0x3822>
    a31d:	48 c7 85 38 ea ff ff 	movq   $0xfffffffffffffff8,-0x15c8(%rbp)
    a324:	f8 ff ff ff 
    a328:	48 8d 05 89 8e 00 00 	lea    0x8e89(%rip),%rax        # 131b8 <g_94>
    a32f:	48 89 85 40 ea ff ff 	mov    %rax,-0x15c0(%rbp)
    a336:	c7 85 68 e8 ff ff 09 	movl   $0x29d2f209,-0x1798(%rbp)
    a33d:	f2 d2 29 
    a340:	0f b6 85 58 e9 ff ff 	movzbl -0x16a8(%rbp),%eax
    a347:	84 c0                	test   %al,%al
    a349:	0f 85 03 0a 00 00    	jne    ad52 <func_15+0x3f02>
    a34f:	48 8b 15 b2 ac 00 00 	mov    0xacb2(%rip),%rdx        # 15008 <g_502>
    a356:	48 8b 05 ab ac 00 00 	mov    0xacab(%rip),%rax        # 15008 <g_502>
    a35d:	48 8b 12             	mov    (%rdx),%rdx
    a360:	48 89 10             	mov    %rdx,(%rax)
    a363:	8b 85 cc e7 ff ff    	mov    -0x1834(%rbp),%eax
    a369:	0f be d8             	movsbl %al,%ebx
    a36c:	48 8b 85 c0 e7 ff ff 	mov    -0x1840(%rbp),%rax
    a373:	48 89 c7             	mov    %rax,%rdi
    a376:	e8 44 0c 00 00       	callq  afbf <func_18>
    a37b:	48 8b 05 be ab 00 00 	mov    0xabbe(%rip),%rax        # 14f40 <g_389>
    a382:	48 8b 10             	mov    (%rax),%rdx
    a385:	48 8b 05 b4 ab 00 00 	mov    0xabb4(%rip),%rax        # 14f40 <g_389>
    a38c:	48 8b 00             	mov    (%rax),%rax
    a38f:	0f b6 12             	movzbl (%rdx),%edx
    a392:	88 10                	mov    %dl,(%rax)
    a394:	0f b6 00             	movzbl (%rax),%eax
    a397:	0f be c0             	movsbl %al,%eax
    a39a:	89 de                	mov    %ebx,%esi
    a39c:	89 c7                	mov    %eax,%edi
    a39e:	e8 6f ae ff ff       	callq  5212 <safe_mul_func_int8_t_s_s>
    a3a3:	8b 85 c8 e7 ff ff    	mov    -0x1838(%rbp),%eax
    a3a9:	0f b6 c0             	movzbl %al,%eax
    a3ac:	be 05 00 00 00       	mov    $0x5,%esi
    a3b1:	89 c7                	mov    %eax,%edi
    a3b3:	e8 d5 b8 ff ff       	callq  5c8d <safe_rshift_func_uint8_t_u_s>
    a3b8:	48 8b 05 b9 af 00 00 	mov    0xafb9(%rip),%rax        # 15378 <g_1373>
    a3bf:	48 8b 00             	mov    (%rax),%rax
    a3c2:	48 c7 00 01 00 00 00 	movq   $0x1,(%rax)
    a3c9:	48 8b 00             	mov    (%rax),%rax
    a3cc:	8b 95 cc e7 ff ff    	mov    -0x1834(%rbp),%edx
    a3d2:	89 d2                	mov    %edx,%edx
    a3d4:	48 39 d0             	cmp    %rdx,%rax
    a3d7:	0f 97 c0             	seta   %al
    a3da:	0f b6 c0             	movzbl %al,%eax
    a3dd:	be 06 00 00 00       	mov    $0x6,%esi
    a3e2:	89 c7                	mov    %eax,%edi
    a3e4:	e8 a9 b0 ff ff       	callq  5492 <safe_lshift_func_int16_t_s_s>
    a3e9:	8b 85 64 e8 ff ff    	mov    -0x179c(%rbp),%eax
    a3ef:	f7 d0                	not    %eax
    a3f1:	89 c2                	mov    %eax,%edx
    a3f3:	0f b7 85 e4 e7 ff ff 	movzwl -0x181c(%rbp),%eax
    a3fa:	39 c2                	cmp    %eax,%edx
    a3fc:	7d 2a                	jge    a428 <func_15+0x35d8>
    a3fe:	48 8b 05 db a8 00 00 	mov    0xa8db(%rip),%rax        # 14ce0 <g_220>
    a405:	48 8b 10             	mov    (%rax),%rdx
    a408:	48 8b 85 00 e9 ff ff 	mov    -0x1700(%rbp),%rax
    a40f:	48 8b 12             	mov    (%rdx),%rdx
    a412:	48 89 10             	mov    %rdx,(%rax)
    a415:	48 83 bd 38 ea ff ff 	cmpq   $0x0,-0x15c8(%rbp)
    a41c:	00 
    a41d:	0f 84 2e 02 00 00    	je     a651 <func_15+0x3801>
    a423:	e9 0a 09 00 00       	jmpq   ad32 <func_15+0x3ee2>
    a428:	48 8d 05 b9 a8 00 00 	lea    0xa8b9(%rip),%rax        # 14ce8 <g_332>
    a42f:	48 89 85 48 ea ff ff 	mov    %rax,-0x15b8(%rbp)
    a436:	c7 85 6c e8 ff ff 04 	movl   $0x4,-0x1794(%rbp)
    a43d:	00 00 00 
    a440:	c6 85 d3 e7 ff ff 01 	movb   $0x1,-0x182d(%rbp)
    a447:	48 8b 85 c0 e7 ff ff 	mov    -0x1840(%rbp),%rax
    a44e:	0f b6 00             	movzbl (%rax),%eax
    a451:	0f be d8             	movsbl %al,%ebx
    a454:	48 83 bd 40 ea ff ff 	cmpq   $0x0,-0x15c0(%rbp)
    a45b:	00 
    a45c:	0f 94 c0             	sete   %al
    a45f:	0f b6 c0             	movzbl %al,%eax
    a462:	89 85 bc e7 ff ff    	mov    %eax,-0x1844(%rbp)
    a468:	8b 85 c8 e7 ff ff    	mov    -0x1838(%rbp),%eax
    a46e:	85 c0                	test   %eax,%eax
    a470:	0f 84 83 01 00 00    	je     a5f9 <func_15+0x37a9>
    a476:	8b 85 6c e8 ff ff    	mov    -0x1794(%rbp),%eax
    a47c:	44 0f bf e0          	movswl %ax,%r12d
    a480:	48 8b 85 38 ea ff ff 	mov    -0x15c8(%rbp),%rax
    a487:	44 0f bf e8          	movswl %ax,%r13d
    a48b:	0f b6 45 be          	movzbl -0x42(%rbp),%eax
    a48f:	44 0f be f0          	movsbl %al,%r14d
    a493:	48 8b 05 0e aa 00 00 	mov    0xaa0e(%rip),%rax        # 14ea8 <g_355>
    a49a:	0f b6 00             	movzbl (%rax),%eax
    a49d:	44 0f be f8          	movsbl %al,%r15d
    a4a1:	48 8b 85 38 ea ff ff 	mov    -0x15c8(%rbp),%rax
    a4a8:	48 89 85 b0 e7 ff ff 	mov    %rax,-0x1850(%rbp)
    a4af:	0f b6 45 bf          	movzbl -0x41(%rbp),%eax
    a4b3:	0f b6 f8             	movzbl %al,%edi
    a4b6:	89 bd b8 e7 ff ff    	mov    %edi,-0x1848(%rbp)
    a4bc:	8b 15 4e 96 00 00    	mov    0x964e(%rip),%edx        # 13b10 <g_1599>
    a4c2:	8b 85 c8 e7 ff ff    	mov    -0x1838(%rbp),%eax
    a4c8:	89 c1                	mov    %eax,%ecx
    a4ca:	8b 85 cc e7 ff ff    	mov    -0x1834(%rbp),%eax
    a4d0:	31 c8                	xor    %ecx,%eax
    a4d2:	89 c1                	mov    %eax,%ecx
    a4d4:	48 8b 85 78 e9 ff ff 	mov    -0x1688(%rbp),%rax
    a4db:	66 89 08             	mov    %cx,(%rax)
    a4de:	48 8b 85 78 e9 ff ff 	mov    -0x1688(%rbp),%rax
    a4e5:	0f b7 00             	movzwl (%rax),%eax
    a4e8:	0f bf c8             	movswl %ax,%ecx
    a4eb:	8b 05 1f 96 00 00    	mov    0x961f(%rip),%eax        # 13b10 <g_1599>
    a4f1:	39 c1                	cmp    %eax,%ecx
    a4f3:	0f 9c c0             	setl   %al
    a4f6:	0f b6 c0             	movzbl %al,%eax
    a4f9:	89 d6                	mov    %edx,%esi
    a4fb:	89 c7                	mov    %eax,%edi
    a4fd:	e8 46 b9 ff ff       	callq  5e48 <safe_rshift_func_uint16_t_u_s>
    a502:	0f b6 c0             	movzbl %al,%eax
    a505:	8b b5 b8 e7 ff ff    	mov    -0x1848(%rbp),%esi
    a50b:	89 c7                	mov    %eax,%edi
    a50d:	e8 48 b6 ff ff       	callq  5b5a <safe_add_func_uint8_t_u_u>
    a512:	0f b6 d0             	movzbl %al,%edx
    a515:	8b 85 cc e7 ff ff    	mov    -0x1834(%rbp),%eax
    a51b:	39 c2                	cmp    %eax,%edx
    a51d:	0f 92 c0             	setb   %al
    a520:	0f b6 c0             	movzbl %al,%eax
    a523:	48 8b b5 b0 e7 ff ff 	mov    -0x1850(%rbp),%rsi
    a52a:	48 89 c7             	mov    %rax,%rdi
    a52d:	e8 4e bb ff ff       	callq  6080 <safe_mod_func_uint64_t_u_u>
    a532:	0f be c0             	movsbl %al,%eax
    a535:	44 89 fe             	mov    %r15d,%esi
    a538:	89 c7                	mov    %eax,%edi
    a53a:	e8 d3 ac ff ff       	callq  5212 <safe_mul_func_int8_t_s_s>
    a53f:	c0 e8 07             	shr    $0x7,%al
    a542:	0f b6 c0             	movzbl %al,%eax
    a545:	be 62 11 88 53       	mov    $0x53881162,%esi
    a54a:	89 c7                	mov    %eax,%edi
    a54c:	e8 7f b9 ff ff       	callq  5ed0 <safe_sub_func_uint32_t_u_u>
    a551:	83 f8 05             	cmp    $0x5,%eax
    a554:	0f 97 c0             	seta   %al
    a557:	0f b6 c0             	movzbl %al,%eax
    a55a:	66 89 85 8e eb ff ff 	mov    %ax,-0x1472(%rbp)
    a561:	0f b7 85 8e eb ff ff 	movzwl -0x1472(%rbp),%eax
    a568:	83 c8 74             	or     $0x74,%eax
    a56b:	0f be c0             	movsbl %al,%eax
    a56e:	44 89 f6             	mov    %r14d,%esi
    a571:	89 c7                	mov    %eax,%edi
    a573:	e8 b9 ac ff ff       	callq  5231 <safe_mod_func_int8_t_s_s>
    a578:	3c 05                	cmp    $0x5,%al
    a57a:	0f 94 c0             	sete   %al
    a57d:	0f b6 c0             	movzbl %al,%eax
    a580:	44 89 ee             	mov    %r13d,%esi
    a583:	89 c7                	mov    %eax,%edi
    a585:	e8 6b ae ff ff       	callq  53f5 <safe_mul_func_int16_t_s_s>
    a58a:	44 0f b7 e8          	movzwl %ax,%r13d
    a58e:	be 01 00 00 00       	mov    $0x1,%esi
    a593:	bf 01 00 00 00       	mov    $0x1,%edi
    a598:	e8 f0 b6 ff ff       	callq  5c8d <safe_rshift_func_uint8_t_u_s>
    a59d:	0f b6 d0             	movzbl %al,%edx
    a5a0:	48 8b 85 98 e9 ff ff 	mov    -0x1668(%rbp),%rax
    a5a7:	48 3b 85 48 ea ff ff 	cmp    -0x15b8(%rbp),%rax
    a5ae:	0f 94 c0             	sete   %al
    a5b1:	0f b6 c0             	movzbl %al,%eax
    a5b4:	39 c2                	cmp    %eax,%edx
    a5b6:	0f 9f c0             	setg   %al
    a5b9:	0f b6 c0             	movzbl %al,%eax
    a5bc:	44 89 ee             	mov    %r13d,%esi
    a5bf:	89 c7                	mov    %eax,%edi
    a5c1:	e8 59 b7 ff ff       	callq  5d1f <safe_sub_func_uint16_t_u_u>
    a5c6:	98                   	cwtl   
    a5c7:	44 89 e6             	mov    %r12d,%esi
    a5ca:	89 c7                	mov    %eax,%edi
    a5cc:	e8 e2 ad ff ff       	callq  53b3 <safe_add_func_int16_t_s_s>
    a5d1:	be 01 00 00 00       	mov    $0x1,%esi
    a5d6:	bf c3 ff ff ff       	mov    $0xffffffc3,%edi
    a5db:	e8 8a ac ff ff       	callq  526a <safe_div_func_int8_t_s_s>
    a5e0:	0f be c0             	movsbl %al,%eax
    a5e3:	31 85 68 e8 ff ff    	xor    %eax,-0x1798(%rbp)
    a5e9:	83 bd 68 e8 ff ff 00 	cmpl   $0x0,-0x1798(%rbp)
    a5f0:	74 07                	je     a5f9 <func_15+0x37a9>
    a5f2:	b8 01 00 00 00       	mov    $0x1,%eax
    a5f7:	eb 05                	jmp    a5fe <func_15+0x37ae>
    a5f9:	b8 00 00 00 00       	mov    $0x0,%eax
    a5fe:	3b 85 bc e7 ff ff    	cmp    -0x1844(%rbp),%eax
    a604:	0f 9c c0             	setl   %al
    a607:	0f b6 c0             	movzbl %al,%eax
    a60a:	89 de                	mov    %ebx,%esi
    a60c:	89 c7                	mov    %eax,%edi
    a60e:	e8 57 ac ff ff       	callq  526a <safe_div_func_int8_t_s_s>
    a613:	48 8b 95 e0 e8 ff ff 	mov    -0x1720(%rbp),%rdx
    a61a:	48 8b 12             	mov    (%rdx),%rdx
    a61d:	8b 0a                	mov    (%rdx),%ecx
    a61f:	0f be d0             	movsbl %al,%edx
    a622:	48 8b 85 e0 e8 ff ff 	mov    -0x1720(%rbp),%rax
    a629:	48 8b 00             	mov    (%rax),%rax
    a62c:	09 ca                	or     %ecx,%edx
    a62e:	89 10                	mov    %edx,(%rax)
    a630:	48 8b 15 a9 a6 00 00 	mov    0xa6a9(%rip),%rdx        # 14ce0 <g_220>
    a637:	48 8b 05 52 ad 00 00 	mov    0xad52(%rip),%rax        # 15390 <g_1685>
    a63e:	48 8b 12             	mov    (%rdx),%rdx
    a641:	48 89 10             	mov    %rdx,(%rax)
    a644:	66 0f be 85 d3 e7 ff 	movsbw -0x182d(%rbp),%ax
    a64b:	ff 
    a64c:	e9 48 09 00 00       	jmpq   af99 <func_15+0x4149>
    a651:	8b 85 c8 e7 ff ff    	mov    -0x1838(%rbp),%eax
    a657:	85 c0                	test   %eax,%eax
    a659:	0f 85 f6 06 00 00    	jne    ad55 <func_15+0x3f05>
    a65f:	48 8b 85 d8 e9 ff ff 	mov    -0x1628(%rbp),%rax
    a666:	48 89 85 18 ea ff ff 	mov    %rax,-0x15e8(%rbp)
    a66d:	e9 8d 01 00 00       	jmpq   a7ff <func_15+0x39af>
    a672:	48 8b 85 e0 e8 ff ff 	mov    -0x1720(%rbp),%rax
    a679:	48 8d 95 38 e9 ff ff 	lea    -0x16c8(%rbp),%rdx
    a680:	48 89 10             	mov    %rdx,(%rax)
    a683:	e9 77 01 00 00       	jmpq   a7ff <func_15+0x39af>
    a688:	48 8d 85 10 e9 ff ff 	lea    -0x16f0(%rbp),%rax
    a68f:	48 89 85 28 ea ff ff 	mov    %rax,-0x15d8(%rbp)
    a696:	48 8d 85 50 e9 ff ff 	lea    -0x16b0(%rbp),%rax
    a69d:	48 89 85 30 ea ff ff 	mov    %rax,-0x15d0(%rbp)
    a6a4:	0f b6 05 fd 53 00 00 	movzbl 0x53fd(%rip),%eax        # faa8 <l_1706.4494>
    a6ab:	0f b6 d8             	movzbl %al,%ebx
    a6ae:	0f b6 05 2b 92 00 00 	movzbl 0x922b(%rip),%eax        # 138e0 <g_475>
    a6b5:	0f be d0             	movsbl %al,%edx
    a6b8:	8b 85 cc e7 ff ff    	mov    -0x1834(%rbp),%eax
    a6be:	98                   	cwtl   
    a6bf:	89 d6                	mov    %edx,%esi
    a6c1:	89 c7                	mov    %eax,%edi
    a6c3:	e8 4e ad ff ff       	callq  5416 <safe_mod_func_int16_t_s_s>
    a6c8:	0f b7 c0             	movzwl %ax,%eax
    a6cb:	89 de                	mov    %ebx,%esi
    a6cd:	89 c7                	mov    %eax,%edi
    a6cf:	e8 69 b6 ff ff       	callq  5d3d <safe_mul_func_uint16_t_u_u>
    a6d4:	48 8b 05 c5 a7 00 00 	mov    0xa7c5(%rip),%rax        # 14ea0 <g_348>
    a6db:	48 8b 00             	mov    (%rax),%rax
    a6de:	8b 00                	mov    (%rax),%eax
    a6e0:	41 89 c4             	mov    %eax,%r12d
    a6e3:	8b 85 c8 e7 ff ff    	mov    -0x1838(%rbp),%eax
    a6e9:	41 89 c5             	mov    %eax,%r13d
    a6ec:	0f be 9d d2 e7 ff ff 	movsbl -0x182e(%rbp),%ebx
    a6f3:	8b 85 c8 e7 ff ff    	mov    -0x1838(%rbp),%eax
    a6f9:	0f b6 d0             	movzbl %al,%edx
    a6fc:	8b 85 cc e7 ff ff    	mov    -0x1834(%rbp),%eax
    a702:	0f b6 c0             	movzbl %al,%eax
    a705:	89 d6                	mov    %edx,%esi
    a707:	89 c7                	mov    %eax,%edi
    a709:	e8 6a b4 ff ff       	callq  5b78 <safe_sub_func_uint8_t_u_u>
    a70e:	0f b6 c0             	movzbl %al,%eax
    a711:	89 de                	mov    %ebx,%esi
    a713:	89 c7                	mov    %eax,%edi
    a715:	e8 fc ac ff ff       	callq  5416 <safe_mod_func_int16_t_s_s>
    a71a:	98                   	cwtl   
    a71b:	44 89 ee             	mov    %r13d,%esi
    a71e:	89 c7                	mov    %eax,%edi
    a720:	e8 3e ae ff ff       	callq  5563 <safe_rshift_func_int16_t_s_u>
    a725:	66 85 c0             	test   %ax,%ax
    a728:	74 12                	je     a73c <func_15+0x38ec>
    a72a:	0f b6 05 77 53 00 00 	movzbl 0x5377(%rip),%eax        # faa8 <l_1706.4494>
    a731:	84 c0                	test   %al,%al
    a733:	74 07                	je     a73c <func_15+0x38ec>
    a735:	b8 01 00 00 00       	mov    $0x1,%eax
    a73a:	eb 05                	jmp    a741 <func_15+0x38f1>
    a73c:	b8 00 00 00 00       	mov    $0x0,%eax
    a741:	be 01 00 00 00       	mov    $0x1,%esi
    a746:	89 c7                	mov    %eax,%edi
    a748:	e8 b8 ae ff ff       	callq  5605 <safe_sub_func_int32_t_s_s>
    a74d:	85 c0                	test   %eax,%eax
    a74f:	75 07                	jne    a758 <func_15+0x3908>
    a751:	b8 f8 ff ff ff       	mov    $0xfffffff8,%eax
    a756:	eb 05                	jmp    a75d <func_15+0x390d>
    a758:	b8 f9 ff ff ff       	mov    $0xfffffff9,%eax
    a75d:	44 89 e6             	mov    %r12d,%esi
    a760:	89 c7                	mov    %eax,%edi
    a762:	e8 96 b7 ff ff       	callq  5efd <safe_mod_func_uint32_t_u_u>
    a767:	be e5 00 00 00       	mov    $0xe5,%esi
    a76c:	bf 00 00 00 00       	mov    $0x0,%edi
    a771:	e8 1d b4 ff ff       	callq  5b93 <safe_mul_func_uint8_t_u_u>
    a776:	0f b6 d8             	movzbl %al,%ebx
    a779:	8b 85 cc e7 ff ff    	mov    -0x1834(%rbp),%eax
    a77f:	41 89 c4             	mov    %eax,%r12d
    a782:	48 8b 95 50 e9 ff ff 	mov    -0x16b0(%rbp),%rdx
    a789:	48 8b 85 30 ea ff ff 	mov    -0x15d0(%rbp),%rax
    a790:	48 89 10             	mov    %rdx,(%rax)
    a793:	48 8b 85 30 ea ff ff 	mov    -0x15d0(%rbp),%rax
    a79a:	48 8b 00             	mov    (%rax),%rax
    a79d:	48 39 85 28 ea ff ff 	cmp    %rax,-0x15d8(%rbp)
    a7a4:	0f 95 c0             	setne  %al
    a7a7:	0f b6 c0             	movzbl %al,%eax
    a7aa:	be 05 00 00 00       	mov    $0x5,%esi
    a7af:	89 c7                	mov    %eax,%edi
    a7b1:	e8 08 b5 ff ff       	callq  5cbe <safe_rshift_func_uint8_t_u_u>
    a7b6:	0f b6 d0             	movzbl %al,%edx
    a7b9:	48 83 bd e0 e9 ff ff 	cmpq   $0x0,-0x1620(%rbp)
    a7c0:	00 
    a7c1:	0f 94 c0             	sete   %al
    a7c4:	0f b6 c0             	movzbl %al,%eax
    a7c7:	48 89 d6             	mov    %rdx,%rsi
    a7ca:	48 89 c7             	mov    %rax,%rdi
    a7cd:	e8 79 b8 ff ff       	callq  604b <safe_sub_func_uint64_t_u_u>
    a7d2:	49 39 c4             	cmp    %rax,%r12
    a7d5:	0f 94 c0             	sete   %al
    a7d8:	0f b6 c0             	movzbl %al,%eax
    a7db:	89 de                	mov    %ebx,%esi
    a7dd:	89 c7                	mov    %eax,%edi
    a7df:	e8 46 ad ff ff       	callq  552a <safe_rshift_func_int16_t_s_s>
    a7e4:	98                   	cwtl   
    a7e5:	21 85 08 e8 ff ff    	and    %eax,-0x17f8(%rbp)
    a7eb:	48 8b 95 e0 e8 ff ff 	mov    -0x1720(%rbp),%rdx
    a7f2:	48 8b 85 e0 e8 ff ff 	mov    -0x1720(%rbp),%rax
    a7f9:	48 8b 12             	mov    (%rdx),%rdx
    a7fc:	48 89 10             	mov    %rdx,(%rax)
    a7ff:	66 c7 05 e8 90 00 00 	movw   $0x2,0x90e8(%rip)        # 138f0 <g_493>
    a806:	02 00 
    a808:	e9 15 05 00 00       	jmpq   ad22 <func_15+0x3ed2>
    a80d:	48 8d 85 40 ed ff ff 	lea    -0x12c0(%rbp),%rax
    a814:	48 05 f0 00 00 00    	add    $0xf0,%rax
    a81a:	48 89 85 50 ea ff ff 	mov    %rax,-0x15b0(%rbp)
    a821:	48 c7 85 58 e9 ff ff 	movq   $0x0,-0x16a8(%rbp)
    a828:	00 00 00 00 
    a82c:	c7 85 58 e9 ff ff 9e 	movl   $0xfd9ddc9e,-0x16a8(%rbp)
    a833:	dc 9d fd 
    a836:	48 8d 85 08 e9 ff ff 	lea    -0x16f8(%rbp),%rax
    a83d:	48 89 85 f0 f8 ff ff 	mov    %rax,-0x710(%rbp)
    a844:	48 8d 85 40 e9 ff ff 	lea    -0x16c0(%rbp),%rax
    a84b:	48 89 85 f8 f8 ff ff 	mov    %rax,-0x708(%rbp)
    a852:	48 8d 05 b7 af 00 00 	lea    0xafb7(%rip),%rax        # 15810 <g_333>
    a859:	48 89 85 00 f9 ff ff 	mov    %rax,-0x700(%rbp)
    a860:	48 8d 05 a9 af 00 00 	lea    0xafa9(%rip),%rax        # 15810 <g_333>
    a867:	48 89 85 08 f9 ff ff 	mov    %rax,-0x6f8(%rbp)
    a86e:	48 8d 05 9b af 00 00 	lea    0xaf9b(%rip),%rax        # 15810 <g_333>
    a875:	48 89 85 10 f9 ff ff 	mov    %rax,-0x6f0(%rbp)
    a87c:	48 8d 85 40 e9 ff ff 	lea    -0x16c0(%rbp),%rax
    a883:	48 89 85 18 f9 ff ff 	mov    %rax,-0x6e8(%rbp)
    a88a:	48 8d 85 08 e9 ff ff 	lea    -0x16f8(%rbp),%rax
    a891:	48 89 85 20 f9 ff ff 	mov    %rax,-0x6e0(%rbp)
    a898:	48 8d 05 71 af 00 00 	lea    0xaf71(%rip),%rax        # 15810 <g_333>
    a89f:	48 89 85 28 f9 ff ff 	mov    %rax,-0x6d8(%rbp)
    a8a6:	48 8d 85 40 e9 ff ff 	lea    -0x16c0(%rbp),%rax
    a8ad:	48 89 85 30 f9 ff ff 	mov    %rax,-0x6d0(%rbp)
    a8b4:	48 8d 05 55 af 00 00 	lea    0xaf55(%rip),%rax        # 15810 <g_333>
    a8bb:	48 89 85 38 f9 ff ff 	mov    %rax,-0x6c8(%rbp)
    a8c2:	48 8d 85 08 e9 ff ff 	lea    -0x16f8(%rbp),%rax
    a8c9:	48 89 85 40 f9 ff ff 	mov    %rax,-0x6c0(%rbp)
    a8d0:	48 8d 85 40 e9 ff ff 	lea    -0x16c0(%rbp),%rax
    a8d7:	48 89 85 48 f9 ff ff 	mov    %rax,-0x6b8(%rbp)
    a8de:	48 8d 05 2b af 00 00 	lea    0xaf2b(%rip),%rax        # 15810 <g_333>
    a8e5:	48 89 85 50 f9 ff ff 	mov    %rax,-0x6b0(%rbp)
    a8ec:	48 8d 05 1d af 00 00 	lea    0xaf1d(%rip),%rax        # 15810 <g_333>
    a8f3:	48 89 85 58 f9 ff ff 	mov    %rax,-0x6a8(%rbp)
    a8fa:	48 8d 05 0f af 00 00 	lea    0xaf0f(%rip),%rax        # 15810 <g_333>
    a901:	48 89 85 60 f9 ff ff 	mov    %rax,-0x6a0(%rbp)
    a908:	48 8d 85 40 e9 ff ff 	lea    -0x16c0(%rbp),%rax
    a90f:	48 89 85 68 f9 ff ff 	mov    %rax,-0x698(%rbp)
    a916:	48 8d 85 08 e9 ff ff 	lea    -0x16f8(%rbp),%rax
    a91d:	48 89 85 70 f9 ff ff 	mov    %rax,-0x690(%rbp)
    a924:	48 8d 05 e5 ae 00 00 	lea    0xaee5(%rip),%rax        # 15810 <g_333>
    a92b:	48 89 85 78 f9 ff ff 	mov    %rax,-0x688(%rbp)
    a932:	48 8d 85 40 e9 ff ff 	lea    -0x16c0(%rbp),%rax
    a939:	48 89 85 80 f9 ff ff 	mov    %rax,-0x680(%rbp)
    a940:	48 8d 05 c9 ae 00 00 	lea    0xaec9(%rip),%rax        # 15810 <g_333>
    a947:	48 89 85 88 f9 ff ff 	mov    %rax,-0x678(%rbp)
    a94e:	48 8d 85 08 e9 ff ff 	lea    -0x16f8(%rbp),%rax
    a955:	48 89 85 90 f9 ff ff 	mov    %rax,-0x670(%rbp)
    a95c:	48 8d 85 40 e9 ff ff 	lea    -0x16c0(%rbp),%rax
    a963:	48 89 85 98 f9 ff ff 	mov    %rax,-0x668(%rbp)
    a96a:	48 8d 05 9f ae 00 00 	lea    0xae9f(%rip),%rax        # 15810 <g_333>
    a971:	48 89 85 a0 f9 ff ff 	mov    %rax,-0x660(%rbp)
    a978:	48 8d 05 91 ae 00 00 	lea    0xae91(%rip),%rax        # 15810 <g_333>
    a97f:	48 89 85 a8 f9 ff ff 	mov    %rax,-0x658(%rbp)
    a986:	48 8d 05 83 ae 00 00 	lea    0xae83(%rip),%rax        # 15810 <g_333>
    a98d:	48 89 85 b0 f9 ff ff 	mov    %rax,-0x650(%rbp)
    a994:	48 8d 85 40 e9 ff ff 	lea    -0x16c0(%rbp),%rax
    a99b:	48 89 85 b8 f9 ff ff 	mov    %rax,-0x648(%rbp)
    a9a2:	48 8d 85 08 e9 ff ff 	lea    -0x16f8(%rbp),%rax
    a9a9:	48 89 85 c0 f9 ff ff 	mov    %rax,-0x640(%rbp)
    a9b0:	48 8d 05 59 ae 00 00 	lea    0xae59(%rip),%rax        # 15810 <g_333>
    a9b7:	48 89 85 c8 f9 ff ff 	mov    %rax,-0x638(%rbp)
    a9be:	48 8d 85 40 e9 ff ff 	lea    -0x16c0(%rbp),%rax
    a9c5:	48 89 85 d0 f9 ff ff 	mov    %rax,-0x630(%rbp)
    a9cc:	48 8d 05 3d ae 00 00 	lea    0xae3d(%rip),%rax        # 15810 <g_333>
    a9d3:	48 89 85 d8 f9 ff ff 	mov    %rax,-0x628(%rbp)
    a9da:	48 8d 85 08 e9 ff ff 	lea    -0x16f8(%rbp),%rax
    a9e1:	48 89 85 e0 f9 ff ff 	mov    %rax,-0x620(%rbp)
    a9e8:	48 8d 85 40 e9 ff ff 	lea    -0x16c0(%rbp),%rax
    a9ef:	48 89 85 e8 f9 ff ff 	mov    %rax,-0x618(%rbp)
    a9f6:	48 8d 05 13 ae 00 00 	lea    0xae13(%rip),%rax        # 15810 <g_333>
    a9fd:	48 89 85 f0 f9 ff ff 	mov    %rax,-0x610(%rbp)
    aa04:	48 8d 05 05 ae 00 00 	lea    0xae05(%rip),%rax        # 15810 <g_333>
    aa0b:	48 89 85 f8 f9 ff ff 	mov    %rax,-0x608(%rbp)
    aa12:	48 8d 05 f7 ad 00 00 	lea    0xadf7(%rip),%rax        # 15810 <g_333>
    aa19:	48 89 85 00 fa ff ff 	mov    %rax,-0x600(%rbp)
    aa20:	48 8d 85 40 e9 ff ff 	lea    -0x16c0(%rbp),%rax
    aa27:	48 89 85 08 fa ff ff 	mov    %rax,-0x5f8(%rbp)
    aa2e:	48 8d 85 08 e9 ff ff 	lea    -0x16f8(%rbp),%rax
    aa35:	48 89 85 10 fa ff ff 	mov    %rax,-0x5f0(%rbp)
    aa3c:	48 8d 05 cd ad 00 00 	lea    0xadcd(%rip),%rax        # 15810 <g_333>
    aa43:	48 89 85 18 fa ff ff 	mov    %rax,-0x5e8(%rbp)
    aa4a:	48 8d 85 08 e9 ff ff 	lea    -0x16f8(%rbp),%rax
    aa51:	48 89 85 20 fa ff ff 	mov    %rax,-0x5e0(%rbp)
    aa58:	48 8d 05 b1 ad 00 00 	lea    0xadb1(%rip),%rax        # 15810 <g_333>
    aa5f:	48 89 85 28 fa ff ff 	mov    %rax,-0x5d8(%rbp)
    aa66:	48 8d 05 a3 ad 00 00 	lea    0xada3(%rip),%rax        # 15810 <g_333>
    aa6d:	48 89 85 30 fa ff ff 	mov    %rax,-0x5d0(%rbp)
    aa74:	48 8d 85 08 e9 ff ff 	lea    -0x16f8(%rbp),%rax
    aa7b:	48 89 85 38 fa ff ff 	mov    %rax,-0x5c8(%rbp)
    aa82:	48 8d 85 40 e9 ff ff 	lea    -0x16c0(%rbp),%rax
    aa89:	48 89 85 40 fa ff ff 	mov    %rax,-0x5c0(%rbp)
    aa90:	48 8d 85 40 e9 ff ff 	lea    -0x16c0(%rbp),%rax
    aa97:	48 89 85 48 fa ff ff 	mov    %rax,-0x5b8(%rbp)
    aa9e:	48 8d 85 40 e9 ff ff 	lea    -0x16c0(%rbp),%rax
    aaa5:	48 89 85 50 fa ff ff 	mov    %rax,-0x5b0(%rbp)
    aaac:	48 8d 85 08 e9 ff ff 	lea    -0x16f8(%rbp),%rax
    aab3:	48 89 85 58 fa ff ff 	mov    %rax,-0x5a8(%rbp)
    aaba:	48 8d 05 4f ad 00 00 	lea    0xad4f(%rip),%rax        # 15810 <g_333>
    aac1:	48 89 85 60 fa ff ff 	mov    %rax,-0x5a0(%rbp)
    aac8:	48 8d 05 41 ad 00 00 	lea    0xad41(%rip),%rax        # 15810 <g_333>
    aacf:	48 89 85 68 fa ff ff 	mov    %rax,-0x598(%rbp)
    aad6:	48 8d 85 08 e9 ff ff 	lea    -0x16f8(%rbp),%rax
    aadd:	48 89 85 70 fa ff ff 	mov    %rax,-0x590(%rbp)
    aae4:	48 8d 05 25 ad 00 00 	lea    0xad25(%rip),%rax        # 15810 <g_333>
    aaeb:	48 89 85 78 fa ff ff 	mov    %rax,-0x588(%rbp)
    aaf2:	48 8d 05 17 ad 00 00 	lea    0xad17(%rip),%rax        # 15810 <g_333>
    aaf9:	48 89 85 80 fa ff ff 	mov    %rax,-0x580(%rbp)
    ab00:	48 8d 85 08 e9 ff ff 	lea    -0x16f8(%rbp),%rax
    ab07:	48 89 85 88 fa ff ff 	mov    %rax,-0x578(%rbp)
    ab0e:	48 8d 85 40 e9 ff ff 	lea    -0x16c0(%rbp),%rax
    ab15:	48 89 85 90 fa ff ff 	mov    %rax,-0x570(%rbp)
    ab1c:	48 8d 85 40 e9 ff ff 	lea    -0x16c0(%rbp),%rax
    ab23:	48 89 85 98 fa ff ff 	mov    %rax,-0x568(%rbp)
    ab2a:	48 8d 85 40 e9 ff ff 	lea    -0x16c0(%rbp),%rax
    ab31:	48 89 85 a0 fa ff ff 	mov    %rax,-0x560(%rbp)
    ab38:	48 8d 85 08 e9 ff ff 	lea    -0x16f8(%rbp),%rax
    ab3f:	48 89 85 a8 fa ff ff 	mov    %rax,-0x558(%rbp)
    ab46:	48 8d 05 c3 ac 00 00 	lea    0xacc3(%rip),%rax        # 15810 <g_333>
    ab4d:	48 89 85 b0 fa ff ff 	mov    %rax,-0x550(%rbp)
    ab54:	48 8d 05 b5 ac 00 00 	lea    0xacb5(%rip),%rax        # 15810 <g_333>
    ab5b:	48 89 85 b8 fa ff ff 	mov    %rax,-0x548(%rbp)
    ab62:	48 8d 85 08 e9 ff ff 	lea    -0x16f8(%rbp),%rax
    ab69:	48 89 85 c0 fa ff ff 	mov    %rax,-0x540(%rbp)
    ab70:	48 8d 05 99 ac 00 00 	lea    0xac99(%rip),%rax        # 15810 <g_333>
    ab77:	48 89 85 c8 fa ff ff 	mov    %rax,-0x538(%rbp)
    ab7e:	48 8d 05 8b ac 00 00 	lea    0xac8b(%rip),%rax        # 15810 <g_333>
    ab85:	48 89 85 d0 fa ff ff 	mov    %rax,-0x530(%rbp)
    ab8c:	48 8d 85 08 e9 ff ff 	lea    -0x16f8(%rbp),%rax
    ab93:	48 89 85 d8 fa ff ff 	mov    %rax,-0x528(%rbp)
    ab9a:	48 8d 85 40 e9 ff ff 	lea    -0x16c0(%rbp),%rax
    aba1:	48 89 85 e0 fa ff ff 	mov    %rax,-0x520(%rbp)
    aba8:	48 8d 85 40 e9 ff ff 	lea    -0x16c0(%rbp),%rax
    abaf:	48 89 85 e8 fa ff ff 	mov    %rax,-0x518(%rbp)
    abb6:	48 8d 85 40 e9 ff ff 	lea    -0x16c0(%rbp),%rax
    abbd:	48 89 85 f0 fa ff ff 	mov    %rax,-0x510(%rbp)
    abc4:	48 8d 85 08 e9 ff ff 	lea    -0x16f8(%rbp),%rax
    abcb:	48 89 85 f8 fa ff ff 	mov    %rax,-0x508(%rbp)
    abd2:	48 8d 05 37 ac 00 00 	lea    0xac37(%rip),%rax        # 15810 <g_333>
    abd9:	48 89 85 00 fb ff ff 	mov    %rax,-0x500(%rbp)
    abe0:	48 8d 05 29 ac 00 00 	lea    0xac29(%rip),%rax        # 15810 <g_333>
    abe7:	48 89 85 08 fb ff ff 	mov    %rax,-0x4f8(%rbp)
    abee:	48 8d 85 08 e9 ff ff 	lea    -0x16f8(%rbp),%rax
    abf5:	48 89 85 10 fb ff ff 	mov    %rax,-0x4f0(%rbp)
    abfc:	48 8d 05 0d ac 00 00 	lea    0xac0d(%rip),%rax        # 15810 <g_333>
    ac03:	48 89 85 18 fb ff ff 	mov    %rax,-0x4e8(%rbp)
    ac0a:	48 8d 05 ff ab 00 00 	lea    0xabff(%rip),%rax        # 15810 <g_333>
    ac11:	48 89 85 20 fb ff ff 	mov    %rax,-0x4e0(%rbp)
    ac18:	48 8d 85 08 e9 ff ff 	lea    -0x16f8(%rbp),%rax
    ac1f:	48 89 85 28 fb ff ff 	mov    %rax,-0x4d8(%rbp)
    ac26:	48 8d 85 40 e9 ff ff 	lea    -0x16c0(%rbp),%rax
    ac2d:	48 89 85 30 fb ff ff 	mov    %rax,-0x4d0(%rbp)
    ac34:	48 8d 85 40 e9 ff ff 	lea    -0x16c0(%rbp),%rax
    ac3b:	48 89 85 38 fb ff ff 	mov    %rax,-0x4c8(%rbp)
    ac42:	48 8d 85 40 e9 ff ff 	lea    -0x16c0(%rbp),%rax
    ac49:	48 89 85 40 fb ff ff 	mov    %rax,-0x4c0(%rbp)
    ac50:	48 8d 85 08 e9 ff ff 	lea    -0x16f8(%rbp),%rax
    ac57:	48 89 85 48 fb ff ff 	mov    %rax,-0x4b8(%rbp)
    ac5e:	48 8d 05 ab ab 00 00 	lea    0xabab(%rip),%rax        # 15810 <g_333>
    ac65:	48 89 85 50 fb ff ff 	mov    %rax,-0x4b0(%rbp)
    ac6c:	48 8d 05 9d ab 00 00 	lea    0xab9d(%rip),%rax        # 15810 <g_333>
    ac73:	48 89 85 58 fb ff ff 	mov    %rax,-0x4a8(%rbp)
    ac7a:	48 8d 85 08 e9 ff ff 	lea    -0x16f8(%rbp),%rax
    ac81:	48 89 85 60 fb ff ff 	mov    %rax,-0x4a0(%rbp)
    ac88:	48 8d 05 81 ab 00 00 	lea    0xab81(%rip),%rax        # 15810 <g_333>
    ac8f:	48 89 85 68 fb ff ff 	mov    %rax,-0x498(%rbp)
    ac96:	48 8d 05 73 ab 00 00 	lea    0xab73(%rip),%rax        # 15810 <g_333>
    ac9d:	48 89 85 70 fb ff ff 	mov    %rax,-0x490(%rbp)
    aca4:	48 8d 85 08 e9 ff ff 	lea    -0x16f8(%rbp),%rax
    acab:	48 89 85 78 fb ff ff 	mov    %rax,-0x488(%rbp)
    acb2:	48 8d 85 40 e9 ff ff 	lea    -0x16c0(%rbp),%rax
    acb9:	48 89 85 80 fb ff ff 	mov    %rax,-0x480(%rbp)
    acc0:	48 8d 85 40 e9 ff ff 	lea    -0x16c0(%rbp),%rax
    acc7:	48 89 85 88 fb ff ff 	mov    %rax,-0x478(%rbp)
    acce:	48 8d 85 30 f2 ff ff 	lea    -0xdd0(%rbp),%rax
    acd5:	48 05 f0 01 00 00    	add    $0x1f0,%rax
    acdb:	48 89 85 58 ea ff ff 	mov    %rax,-0x15a8(%rbp)
    ace2:	c7 85 34 e8 ff ff 00 	movl   $0x0,-0x17cc(%rbp)
    ace9:	00 00 00 
    acec:	eb 1a                	jmp    ad08 <func_15+0x3eb8>
    acee:	8b 85 34 e8 ff ff    	mov    -0x17cc(%rbp),%eax
    acf4:	48 98                	cltq   
    acf6:	c7 84 85 10 ec ff ff 	movl   $0xae316df8,-0x13f0(%rbp,%rax,4)
    acfd:	f8 6d 31 ae 
    ad01:	83 85 34 e8 ff ff 01 	addl   $0x1,-0x17cc(%rbp)
    ad08:	83 bd 34 e8 ff ff 06 	cmpl   $0x6,-0x17cc(%rbp)
    ad0f:	7e dd                	jle    acee <func_15+0x3e9e>
    ad11:	0f b7 05 d8 8b 00 00 	movzwl 0x8bd8(%rip),%eax        # 138f0 <g_493>
    ad18:	83 e8 01             	sub    $0x1,%eax
    ad1b:	66 89 05 ce 8b 00 00 	mov    %ax,0x8bce(%rip)        # 138f0 <g_493>
    ad22:	0f b7 05 c7 8b 00 00 	movzwl 0x8bc7(%rip),%eax        # 138f0 <g_493>
    ad29:	66 85 c0             	test   %ax,%ax
    ad2c:	0f 89 db fa ff ff    	jns    a80d <func_15+0x39bd>
    ad32:	8b 05 d8 aa 00 00    	mov    0xaad8(%rip),%eax        # 15810 <g_333>
    ad38:	83 c0 01             	add    $0x1,%eax
    ad3b:	89 05 cf aa 00 00    	mov    %eax,0xaacf(%rip)        # 15810 <g_333>
    ad41:	8b 05 c9 aa 00 00    	mov    0xaac9(%rip),%eax        # 15810 <g_333>
    ad47:	83 f8 02             	cmp    $0x2,%eax
    ad4a:	0f 86 a1 dc ff ff    	jbe    89f1 <func_15+0x1ba1>
    ad50:	eb 04                	jmp    ad56 <func_15+0x3f06>
    ad52:	90                   	nop
    ad53:	eb 01                	jmp    ad56 <func_15+0x3f06>
    ad55:	90                   	nop
    ad56:	48 8b 85 e0 e8 ff ff 	mov    -0x1720(%rbp),%rax
    ad5d:	48 8d 95 90 eb ff ff 	lea    -0x1470(%rbp),%rdx
    ad64:	48 89 10             	mov    %rdx,(%rax)
    ad67:	0f b6 85 40 e9 ff ff 	movzbl -0x16c0(%rbp),%eax
    ad6e:	0f be d8             	movsbl %al,%ebx
    ad71:	0f b7 85 e4 e7 ff ff 	movzwl -0x181c(%rbp),%eax
    ad78:	44 0f b6 e0          	movzbl %al,%r12d
    ad7c:	48 8b 05 fd a5 00 00 	mov    0xa5fd(%rip),%rax        # 15380 <g_1603>
    ad83:	48 8b 00             	mov    (%rax),%rax
    ad86:	0f b6 00             	movzbl (%rax),%eax
    ad89:	44 0f be e8          	movsbl %al,%r13d
    ad8d:	44 8b 35 a4 84 00 00 	mov    0x84a4(%rip),%r14d        # 13238 <g_146>
    ad94:	8b 85 cc e7 ff ff    	mov    -0x1834(%rbp),%eax
    ad9a:	41 89 c7             	mov    %eax,%r15d
    ad9d:	48 8b 15 44 9f 00 00 	mov    0x9f44(%rip),%rdx        # 14ce8 <g_332>
    ada4:	48 8b 05 3d 9f 00 00 	mov    0x9f3d(%rip),%rax        # 14ce8 <g_332>
    adab:	48 8b 12             	mov    (%rdx),%rdx
    adae:	48 89 10             	mov    %rdx,(%rax)
    adb1:	48 8b 85 d0 e8 ff ff 	mov    -0x1730(%rbp),%rax
    adb8:	8b 00                	mov    (%rax),%eax
    adba:	89 85 bc e7 ff ff    	mov    %eax,-0x1844(%rbp)
    adc0:	48 8b 85 e0 e8 ff ff 	mov    -0x1720(%rbp),%rax
    adc7:	48 8b 00             	mov    (%rax),%rax
    adca:	8b 00                	mov    (%rax),%eax
    adcc:	0f bf d0             	movswl %ax,%edx
    adcf:	48 8b 05 aa a5 00 00 	mov    0xa5aa(%rip),%rax        # 15380 <g_1603>
    add6:	48 8b 00             	mov    (%rax),%rax
    add9:	0f b6 08             	movzbl (%rax),%ecx
    addc:	48 8b 85 c0 e7 ff ff 	mov    -0x1840(%rbp),%rax
    ade3:	0f b6 00             	movzbl (%rax),%eax
    ade6:	31 c8                	xor    %ecx,%eax
    ade8:	0f be c0             	movsbl %al,%eax
    adeb:	89 d6                	mov    %edx,%esi
    aded:	89 c7                	mov    %eax,%edi
    adef:	e8 bf a5 ff ff       	callq  53b3 <safe_add_func_int16_t_s_s>
    adf4:	66 85 c0             	test   %ax,%ax
    adf7:	75 09                	jne    ae02 <func_15+0x3fb2>
    adf9:	0f b6 85 40 e9 ff ff 	movzbl -0x16c0(%rbp),%eax
    ae00:	84 c0                	test   %al,%al
    ae02:	8b 85 c8 e7 ff ff    	mov    -0x1838(%rbp),%eax
    ae08:	0f b7 c0             	movzwl %ax,%eax
    ae0b:	be 0f 00 00 00       	mov    $0xf,%esi
    ae10:	89 c7                	mov    %eax,%edi
    ae12:	e8 31 b0 ff ff       	callq  5e48 <safe_rshift_func_uint16_t_u_s>
    ae17:	0f b7 d0             	movzwl %ax,%edx
    ae1a:	48 8b 85 c0 e7 ff ff 	mov    -0x1840(%rbp),%rax
    ae21:	0f b6 00             	movzbl (%rax),%eax
    ae24:	0f be c0             	movsbl %al,%eax
    ae27:	39 c2                	cmp    %eax,%edx
    ae29:	74 07                	je     ae32 <func_15+0x3fe2>
    ae2b:	ba 5d c1 00 00       	mov    $0xc15d,%edx
    ae30:	eb 05                	jmp    ae37 <func_15+0x3fe7>
    ae32:	ba 5c c1 00 00       	mov    $0xc15c,%edx
    ae37:	48 8b 85 e8 e8 ff ff 	mov    -0x1718(%rbp),%rax
    ae3e:	8b 00                	mov    (%rax),%eax
    ae40:	89 c1                	mov    %eax,%ecx
    ae42:	89 d0                	mov    %edx,%eax
    ae44:	21 c1                	and    %eax,%ecx
    ae46:	89 ca                	mov    %ecx,%edx
    ae48:	48 8b 85 e8 e8 ff ff 	mov    -0x1718(%rbp),%rax
    ae4f:	89 10                	mov    %edx,(%rax)
    ae51:	8b 00                	mov    (%rax),%eax
    ae53:	8b b5 bc e7 ff ff    	mov    -0x1844(%rbp),%esi
    ae59:	89 c7                	mov    %eax,%edi
    ae5b:	e8 9d b0 ff ff       	callq  5efd <safe_mod_func_uint32_t_u_u>
    ae60:	4c 89 fe             	mov    %r15,%rsi
    ae63:	bf 00 00 00 00       	mov    $0x0,%edi
    ae68:	e8 42 b2 ff ff       	callq  60af <safe_div_func_uint64_t_u_u>
    ae6d:	0f be c0             	movsbl %al,%eax
    ae70:	89 c7                	mov    %eax,%edi
    ae72:	e8 48 a3 ff ff       	callq  51bf <safe_unary_minus_func_int8_t_s>
    ae77:	0f be c0             	movsbl %al,%eax
    ae7a:	41 39 c6             	cmp    %eax,%r14d
    ae7d:	0f 94 c0             	sete   %al
    ae80:	0f b6 d0             	movzbl %al,%edx
    ae83:	48 8b 85 f0 e8 ff ff 	mov    -0x1710(%rbp),%rax
    ae8a:	0f b7 08             	movzwl (%rax),%ecx
    ae8d:	83 e9 01             	sub    $0x1,%ecx
    ae90:	66 89 08             	mov    %cx,(%rax)
    ae93:	0f b7 00             	movzwl (%rax),%eax
    ae96:	0f b7 c0             	movzwl %ax,%eax
    ae99:	89 d6                	mov    %edx,%esi
    ae9b:	89 c7                	mov    %eax,%edi
    ae9d:	e8 7d ae ff ff       	callq  5d1f <safe_sub_func_uint16_t_u_u>
    aea2:	66 83 f8 15          	cmp    $0x15,%ax
    aea6:	0f 95 c0             	setne  %al
    aea9:	0f b6 d0             	movzbl %al,%edx
    aeac:	48 8b 85 d0 e8 ff ff 	mov    -0x1730(%rbp),%rax
    aeb3:	8b 00                	mov    (%rax),%eax
    aeb5:	39 c2                	cmp    %eax,%edx
    aeb7:	75 07                	jne    aec0 <func_15+0x4070>
    aeb9:	b8 5e 00 00 00       	mov    $0x5e,%eax
    aebe:	eb 05                	jmp    aec5 <func_15+0x4075>
    aec0:	b8 5f 00 00 00       	mov    $0x5f,%eax
    aec5:	44 89 ee             	mov    %r13d,%esi
    aec8:	89 c7                	mov    %eax,%edi
    aeca:	e8 66 a4 ff ff       	callq  5335 <safe_rshift_func_int8_t_s_s>
    aecf:	66 98                	cbtw   
    aed1:	8b 95 c8 e7 ff ff    	mov    -0x1838(%rbp),%edx
    aed7:	21 d0                	and    %edx,%eax
    aed9:	0f b7 c0             	movzwl %ax,%eax
    aedc:	89 c6                	mov    %eax,%esi
    aede:	bf 08 00 00 00       	mov    $0x8,%edi
    aee3:	e8 55 ae ff ff       	callq  5d3d <safe_mul_func_uint16_t_u_u>
    aee8:	f7 d0                	not    %eax
    aeea:	66 89 05 6b 8c 00 00 	mov    %ax,0x8c6b(%rip)        # 13b5c <g_1814>
    aef1:	0f b7 05 64 8c 00 00 	movzwl 0x8c64(%rip),%eax        # 13b5c <g_1814>
    aef8:	0f b6 c0             	movzbl %al,%eax
    aefb:	44 89 e6             	mov    %r12d,%esi
    aefe:	89 c7                	mov    %eax,%edi
    af00:	e8 8e ac ff ff       	callq  5b93 <safe_mul_func_uint8_t_u_u>
    af05:	48 8b 85 78 e9 ff ff 	mov    -0x1688(%rbp),%rax
    af0c:	0f b7 00             	movzwl (%rax),%eax
    af0f:	66 0d eb b7          	or     $0xb7eb,%ax
    af13:	89 c2                	mov    %eax,%edx
    af15:	48 8b 85 78 e9 ff ff 	mov    -0x1688(%rbp),%rax
    af1c:	66 89 10             	mov    %dx,(%rax)
    af1f:	48 8b 85 78 e9 ff ff 	mov    -0x1688(%rbp),%rax
    af26:	0f b7 00             	movzwl (%rax),%eax
    af29:	0f be c0             	movsbl %al,%eax
    af2c:	89 de                	mov    %ebx,%esi
    af2e:	89 c7                	mov    %eax,%edi
    af30:	e8 bd a2 ff ff       	callq  51f2 <safe_sub_func_int8_t_s_s>
    af35:	66 83 bd e2 e7 ff ff 	cmpw   $0x0,-0x181e(%rbp)
    af3c:	00 
    af3d:	74 08                	je     af47 <func_15+0x40f7>
    af3f:	8b 85 cc e7 ff ff    	mov    -0x1834(%rbp),%eax
    af45:	85 c0                	test   %eax,%eax
    af47:	48 8b 05 f2 9f 00 00 	mov    0x9ff2(%rip),%rax        # 14f40 <g_389>
    af4e:	48 8b 10             	mov    (%rax),%rdx
    af51:	8b 8d cc e7 ff ff    	mov    -0x1834(%rbp),%ecx
    af57:	48 8b 05 da a3 00 00 	mov    0xa3da(%rip),%rax        # 15338 <g_583>
    af5e:	48 8b 00             	mov    (%rax),%rax
    af61:	48 8b 9d e0 e8 ff ff 	mov    -0x1720(%rbp),%rbx
    af68:	89 ce                	mov    %ecx,%esi
    af6a:	48 89 c7             	mov    %rax,%rdi
    af6d:	e8 7b 02 00 00       	callq  b1ed <func_41>
    af72:	48 89 03             	mov    %rax,(%rbx)
    af75:	48 8b 05 3c a4 00 00 	mov    0xa43c(%rip),%rax        # 153b8 <g_1816>
    af7c:	48 8b 13             	mov    (%rbx),%rdx
    af7f:	48 89 10             	mov    %rdx,(%rax)
    af82:	48 8b 85 e0 e8 ff ff 	mov    -0x1720(%rbp),%rax
    af89:	48 8d 95 84 eb ff ff 	lea    -0x147c(%rbp),%rdx
    af90:	48 89 10             	mov    %rdx,(%rax)
    af93:	8b 05 17 82 00 00    	mov    0x8217(%rip),%eax        # 131b0 <g_73>
    af99:	48 8b 5d c8          	mov    -0x38(%rbp),%rbx
    af9d:	64 48 33 1c 25 28 00 	xor    %fs:0x28,%rbx
    afa4:	00 00 
    afa6:	74 05                	je     afad <func_15+0x415d>
    afa8:	e8 c3 a0 ff ff       	callq  5070 <__stack_chk_fail@plt>
    afad:	48 81 c4 28 18 00 00 	add    $0x1828,%rsp
    afb4:	5b                   	pop    %rbx
    afb5:	41 5c                	pop    %r12
    afb7:	41 5d                	pop    %r13
    afb9:	41 5e                	pop    %r14
    afbb:	41 5f                	pop    %r15
    afbd:	5d                   	pop    %rbp
    afbe:	c3                   	retq   

000000000000afbf <func_18>:
    afbf:	f3 0f 1e fa          	endbr64 
    afc3:	55                   	push   %rbp
    afc4:	48 89 e5             	mov    %rsp,%rbp
    afc7:	48 81 ec e0 07 00 00 	sub    $0x7e0,%rsp
    afce:	48 89 bd 28 f8 ff ff 	mov    %rdi,-0x7d8(%rbp)
    afd5:	64 48 8b 04 25 28 00 	mov    %fs:0x28,%rax
    afdc:	00 00 
    afde:	48 89 45 f8          	mov    %rax,-0x8(%rbp)
    afe2:	31 c0                	xor    %eax,%eax
    afe4:	48 8d 05 3d 80 00 00 	lea    0x803d(%rip),%rax        # 13028 <g_23>
    afeb:	48 89 85 50 f8 ff ff 	mov    %rax,-0x7b0(%rbp)
    aff2:	48 8d 05 2f 80 00 00 	lea    0x802f(%rip),%rax        # 13028 <g_23>
    aff9:	48 89 85 58 f8 ff ff 	mov    %rax,-0x7a8(%rbp)
    b000:	48 8d 05 21 80 00 00 	lea    0x8021(%rip),%rax        # 13028 <g_23>
    b007:	48 89 85 60 f8 ff ff 	mov    %rax,-0x7a0(%rbp)
    b00e:	c7 85 34 f8 ff ff 3e 	movl   $0xcdedfc3e,-0x7cc(%rbp)
    b015:	fc ed cd 
    b018:	66 c7 85 32 f8 ff ff 	movw   $0xffff,-0x7ce(%rbp)
    b01f:	ff ff 
    b021:	c7 85 80 f8 ff ff 51 	movl   $0xcfb6e851,-0x780(%rbp)
    b028:	e8 b6 cf 
    b02b:	c7 85 84 f8 ff ff 2b 	movl   $0xf43d7c2b,-0x77c(%rbp)
    b032:	7c 3d f4 
    b035:	48 c7 85 68 f8 ff ff 	movq   $0x0,-0x798(%rbp)
    b03c:	00 00 00 00 
    b040:	c7 85 3c f8 ff ff ff 	movl   $0xffffffff,-0x7c4(%rbp)
    b047:	ff ff ff 
    b04a:	c7 85 88 f8 ff ff f9 	movl   $0xfffffff9,-0x778(%rbp)
    b051:	ff ff ff 
    b054:	c7 85 8c f8 ff ff 85 	movl   $0x4a859385,-0x774(%rbp)
    b05b:	93 85 4a 
    b05e:	c7 85 38 f8 ff ff 00 	movl   $0x0,-0x7c8(%rbp)
    b065:	00 00 00 
    b068:	eb 1b                	jmp    b085 <func_18+0xc6>
    b06a:	8b 85 38 f8 ff ff    	mov    -0x7c8(%rbp),%eax
    b070:	48 98                	cltq   
    b072:	48 c7 84 c5 c0 f8 ff 	movq   $0x0,-0x740(%rbp,%rax,8)
    b079:	ff 00 00 00 00 
    b07e:	83 85 38 f8 ff ff 01 	addl   $0x1,-0x7c8(%rbp)
    b085:	83 bd 38 f8 ff ff 05 	cmpl   $0x5,-0x7c8(%rbp)
    b08c:	7e dc                	jle    b06a <func_18+0xab>
    b08e:	48 8b 05 9b 7f 00 00 	mov    0x7f9b(%rip),%rax        # 13030 <g_29>
    b095:	48 83 e8 01          	sub    $0x1,%rax
    b099:	48 89 05 90 7f 00 00 	mov    %rax,0x7f90(%rip)        # 13030 <g_29>
    b0a0:	c7 05 7e 7f 00 00 19 	movl   $0x19,0x7f7e(%rip)        # 13028 <g_23>
    b0a7:	00 00 00 
    b0aa:	e9 d2 00 00 00       	jmpq   b181 <func_18+0x1c2>
    b0af:	c7 85 40 f8 ff ff ed 	movl   $0xe0f0e9ed,-0x7c0(%rbp)
    b0b6:	e9 f0 e0 
    b0b9:	c7 85 44 f8 ff ff 01 	movl   $0x1,-0x7bc(%rbp)
    b0c0:	00 00 00 
    b0c3:	48 8d 85 f0 f8 ff ff 	lea    -0x710(%rbp),%rax
    b0ca:	48 8d 15 0f 41 00 00 	lea    0x410f(%rip),%rdx        # f1e0 <g_356+0x156>
    b0d1:	b9 e0 00 00 00       	mov    $0xe0,%ecx
    b0d6:	48 89 c7             	mov    %rax,%rdi
    b0d9:	48 89 d6             	mov    %rdx,%rsi
    b0dc:	f3 48 a5             	rep movsq %ds:(%rsi),%es:(%rdi)
    b0df:	48 8d 05 c2 9b 00 00 	lea    0x9bc2(%rip),%rax        # 14ca8 <g_127>
    b0e6:	48 89 85 48 f8 ff ff 	mov    %rax,-0x7b8(%rbp)
    b0ed:	48 8d 85 48 f8 ff ff 	lea    -0x7b8(%rbp),%rax
    b0f4:	48 89 85 70 f8 ff ff 	mov    %rax,-0x790(%rbp)
    b0fb:	c7 85 90 f8 ff ff be 	movl   $0xaf0201be,-0x770(%rbp)
    b102:	01 02 af 
    b105:	c7 85 94 f8 ff ff be 	movl   $0xaf0201be,-0x76c(%rbp)
    b10c:	01 02 af 
    b10f:	c7 85 98 f8 ff ff be 	movl   $0xaf0201be,-0x768(%rbp)
    b116:	01 02 af 
    b119:	c7 85 9c f8 ff ff be 	movl   $0xaf0201be,-0x764(%rbp)
    b120:	01 02 af 
    b123:	c7 85 a0 f8 ff ff be 	movl   $0xaf0201be,-0x760(%rbp)
    b12a:	01 02 af 
    b12d:	c7 85 a4 f8 ff ff be 	movl   $0xaf0201be,-0x75c(%rbp)
    b134:	01 02 af 
    b137:	c7 85 a8 f8 ff ff be 	movl   $0xaf0201be,-0x758(%rbp)
    b13e:	01 02 af 
    b141:	c7 85 ac f8 ff ff be 	movl   $0xaf0201be,-0x754(%rbp)
    b148:	01 02 af 
    b14b:	c7 85 b0 f8 ff ff be 	movl   $0xaf0201be,-0x750(%rbp)
    b152:	01 02 af 
    b155:	48 8d 05 44 9e 00 00 	lea    0x9e44(%rip),%rax        # 14fa0 <g_503+0x40>
    b15c:	48 89 85 78 f8 ff ff 	mov    %rax,-0x788(%rbp)
    b163:	8b 05 bf 7e 00 00    	mov    0x7ebf(%rip),%eax        # 13028 <g_23>
    b169:	0f b7 c0             	movzwl %ax,%eax
    b16c:	be 04 00 00 00       	mov    $0x4,%esi
    b171:	89 c7                	mov    %eax,%edi
    b173:	e8 a7 ab ff ff       	callq  5d1f <safe_sub_func_uint16_t_u_u>
    b178:	0f b7 c0             	movzwl %ax,%eax
    b17b:	89 05 a7 7e 00 00    	mov    %eax,0x7ea7(%rip)        # 13028 <g_23>
    b181:	8b 05 a1 7e 00 00    	mov    0x7ea1(%rip),%eax        # 13028 <g_23>
    b187:	83 f8 ed             	cmp    $0xffffffed,%eax
    b18a:	0f 8d 1f ff ff ff    	jge    b0af <func_18+0xf0>
    b190:	48 8d 85 34 f8 ff ff 	lea    -0x7cc(%rbp),%rax
    b197:	48 89 85 58 f8 ff ff 	mov    %rax,-0x7a8(%rbp)
    b19e:	48 8b 85 58 f8 ff ff 	mov    -0x7a8(%rbp),%rax
    b1a5:	8b 00                	mov    (%rax),%eax
    b1a7:	0f b6 d0             	movzbl %al,%edx
    b1aa:	48 8b 85 60 f8 ff ff 	mov    -0x7a0(%rbp),%rax
    b1b1:	8b 00                	mov    (%rax),%eax
    b1b3:	0f b6 c0             	movzbl %al,%eax
    b1b6:	89 d6                	mov    %edx,%esi
    b1b8:	89 c7                	mov    %eax,%edi
    b1ba:	e8 1c aa ff ff       	callq  5bdb <safe_div_func_uint8_t_u_u>
    b1bf:	0f b6 d0             	movzbl %al,%edx
    b1c2:	8b 05 0c 89 00 00    	mov    0x890c(%rip),%eax        # 13ad4 <g_602>
    b1c8:	31 d0                	xor    %edx,%eax
    b1ca:	89 05 04 89 00 00    	mov    %eax,0x8904(%rip)        # 13ad4 <g_602>
    b1d0:	48 8b 85 88 f8 ff ff 	mov    -0x778(%rbp),%rax
    b1d7:	48 8b 4d f8          	mov    -0x8(%rbp),%rcx
    b1db:	64 48 33 0c 25 28 00 	xor    %fs:0x28,%rcx
    b1e2:	00 00 
    b1e4:	74 05                	je     b1eb <func_18+0x22c>
    b1e6:	e8 85 9e ff ff       	callq  5070 <__stack_chk_fail@plt>
    b1eb:	c9                   	leaveq 
    b1ec:	c3                   	retq   

000000000000b1ed <func_41>:
    b1ed:	f3 0f 1e fa          	endbr64 
    b1f1:	55                   	push   %rbp
    b1f2:	48 89 e5             	mov    %rsp,%rbp
    b1f5:	41 56                	push   %r14
    b1f7:	41 55                	push   %r13
    b1f9:	41 54                	push   %r12
    b1fb:	53                   	push   %rbx
    b1fc:	48 81 ec 00 0e 00 00 	sub    $0xe00,%rsp
    b203:	48 89 bd f8 f1 ff ff 	mov    %rdi,-0xe08(%rbp)
    b20a:	89 b5 f4 f1 ff ff    	mov    %esi,-0xe0c(%rbp)
    b210:	48 89 95 e8 f1 ff ff 	mov    %rdx,-0xe18(%rbp)
    b217:	64 48 8b 04 25 28 00 	mov    %fs:0x28,%rax
    b21e:	00 00 
    b220:	48 89 45 d8          	mov    %rax,-0x28(%rbp)
    b224:	31 c0                	xor    %eax,%eax
    b226:	48 c7 85 80 f2 ff ff 	movq   $0x0,-0xd80(%rbp)
    b22d:	00 00 00 00 
    b231:	48 8d 95 d0 f4 ff ff 	lea    -0xb30(%rbp),%rdx
    b238:	b8 00 00 00 00       	mov    $0x0,%eax
    b23d:	b9 14 00 00 00       	mov    $0x14,%ecx
    b242:	48 89 d7             	mov    %rdx,%rdi
    b245:	f3 48 ab             	rep stos %rax,%es:(%rdi)
    b248:	48 8d 05 81 86 00 00 	lea    0x8681(%rip),%rax        # 138d0 <g_205>
    b24f:	48 89 85 88 f2 ff ff 	mov    %rax,-0xd78(%rbp)
    b256:	c7 85 a0 f3 ff ff 31 	movl   $0x68797931,-0xc60(%rbp)
    b25d:	79 79 68 
    b260:	c7 85 a4 f3 ff ff 31 	movl   $0x68797931,-0xc5c(%rbp)
    b267:	79 79 68 
    b26a:	c7 85 a8 f3 ff ff 31 	movl   $0x68797931,-0xc58(%rbp)
    b271:	79 79 68 
    b274:	c7 85 ac f3 ff ff 31 	movl   $0x68797931,-0xc54(%rbp)
    b27b:	79 79 68 
    b27e:	48 c7 85 90 f2 ff ff 	movq   $0x0,-0xd70(%rbp)
    b285:	00 00 00 00 
    b289:	c7 85 90 f2 ff ff fa 	movl   $0xfffffffa,-0xd70(%rbp)
    b290:	ff ff ff 
    b293:	c7 85 d0 f3 ff ff 02 	movl   $0x1e166002,-0xc30(%rbp)
    b29a:	60 16 1e 
    b29d:	c7 85 d4 f3 ff ff 8d 	movl   $0xcf0de68d,-0xc2c(%rbp)
    b2a4:	e6 0d cf 
    b2a7:	c7 85 d8 f3 ff ff fb 	movl   $0xfffffffb,-0xc28(%rbp)
    b2ae:	ff ff ff 
    b2b1:	c7 85 dc f3 ff ff d2 	movl   $0x1480d2,-0xc24(%rbp)
    b2b8:	80 14 00 
    b2bb:	c7 85 e0 f3 ff ff 02 	movl   $0x1e166002,-0xc20(%rbp)
    b2c2:	60 16 1e 
    b2c5:	c7 85 e4 f3 ff ff 8d 	movl   $0xcf0de68d,-0xc1c(%rbp)
    b2cc:	e6 0d cf 
    b2cf:	c7 85 e8 f3 ff ff 02 	movl   $0x1e166002,-0xc18(%rbp)
    b2d6:	60 16 1e 
    b2d9:	c7 85 ec f3 ff ff 8d 	movl   $0xcf0de68d,-0xc14(%rbp)
    b2e0:	e6 0d cf 
    b2e3:	c7 85 f0 f3 ff ff fb 	movl   $0xfffffffb,-0xc10(%rbp)
    b2ea:	ff ff ff 
    b2ed:	c7 85 f4 f3 ff ff d2 	movl   $0x1480d2,-0xc0c(%rbp)
    b2f4:	80 14 00 
    b2f7:	c7 85 f8 f3 ff ff 02 	movl   $0x1e166002,-0xc08(%rbp)
    b2fe:	60 16 1e 
    b301:	c7 85 fc f3 ff ff 8d 	movl   $0xcf0de68d,-0xc04(%rbp)
    b308:	e6 0d cf 
    b30b:	c7 85 00 f4 ff ff 02 	movl   $0x1e166002,-0xc00(%rbp)
    b312:	60 16 1e 
    b315:	c7 85 04 f4 ff ff 8d 	movl   $0xcf0de68d,-0xbfc(%rbp)
    b31c:	e6 0d cf 
    b31f:	48 8d 05 ea a4 00 00 	lea    0xa4ea(%rip),%rax        # 15810 <g_333>
    b326:	48 89 85 b0 f2 ff ff 	mov    %rax,-0xd50(%rbp)
    b32d:	48 8d 85 90 f2 ff ff 	lea    -0xd70(%rbp),%rax
    b334:	48 89 85 b8 f2 ff ff 	mov    %rax,-0xd48(%rbp)
    b33b:	c7 85 3c f2 ff ff 00 	movl   $0x0,-0xdc4(%rbp)
    b342:	00 00 00 
    b345:	48 8d 05 f4 7c 00 00 	lea    0x7cf4(%rip),%rax        # 13040 <g_69>
    b34c:	48 89 85 c0 f2 ff ff 	mov    %rax,-0xd40(%rbp)
    b353:	48 8d 85 88 f2 ff ff 	lea    -0xd78(%rbp),%rax
    b35a:	48 89 85 c8 f2 ff ff 	mov    %rax,-0xd38(%rbp)
    b361:	c7 85 20 f2 ff ff 00 	movl   $0x0,-0xde0(%rbp)
    b368:	00 00 00 
    b36b:	eb 1e                	jmp    b38b <func_41+0x19e>
    b36d:	8b 85 20 f2 ff ff    	mov    -0xde0(%rbp),%eax
    b373:	48 98                	cltq   
    b375:	48 8d 15 74 a4 00 00 	lea    0xa474(%rip),%rdx        # 157f0 <g_119>
    b37c:	48 89 94 c5 b0 f3 ff 	mov    %rdx,-0xc50(%rbp,%rax,8)
    b383:	ff 
    b384:	83 85 20 f2 ff ff 01 	addl   $0x1,-0xde0(%rbp)
    b38b:	83 bd 20 f2 ff ff 02 	cmpl   $0x2,-0xde0(%rbp)
    b392:	7e d9                	jle    b36d <func_41+0x180>
    b394:	c7 85 20 f2 ff ff 00 	movl   $0x0,-0xde0(%rbp)
    b39b:	00 00 00 
    b39e:	eb 14                	jmp    b3b4 <func_41+0x1c7>
    b3a0:	8b 85 20 f2 ff ff    	mov    -0xde0(%rbp),%eax
    b3a6:	48 98                	cltq   
    b3a8:	c6 44 05 d6 af       	movb   $0xaf,-0x2a(%rbp,%rax,1)
    b3ad:	83 85 20 f2 ff ff 01 	addl   $0x1,-0xde0(%rbp)
    b3b4:	83 bd 20 f2 ff ff 01 	cmpl   $0x1,-0xde0(%rbp)
    b3bb:	7e e3                	jle    b3a0 <func_41+0x1b3>
    b3bd:	c7 85 f4 f1 ff ff 00 	movl   $0x0,-0xe0c(%rbp)
    b3c4:	00 00 00 
    b3c7:	e9 00 10 00 00       	jmpq   c3cc <func_41+0x11df>
    b3cc:	c7 85 40 f2 ff ff ff 	movl   $0xffffffff,-0xdc0(%rbp)
    b3d3:	ff ff ff 
    b3d6:	c7 85 10 f2 ff ff b7 	movl   $0x2fff6bb7,-0xdf0(%rbp)
    b3dd:	6b ff 2f 
    b3e0:	c7 85 14 f2 ff ff 75 	movl   $0xda85ac75,-0xdec(%rbp)
    b3e7:	ac 85 da 
    b3ea:	c7 85 50 f4 ff ff fa 	movl   $0xfffffffa,-0xbb0(%rbp)
    b3f1:	ff ff ff 
    b3f4:	c7 85 54 f4 ff ff 00 	movl   $0x0,-0xbac(%rbp)
    b3fb:	00 00 00 
    b3fe:	c7 85 58 f4 ff ff ff 	movl   $0xffffffff,-0xba8(%rbp)
    b405:	ff ff ff 
    b408:	c7 85 5c f4 ff ff ff 	movl   $0xffffffff,-0xba4(%rbp)
    b40f:	ff ff ff 
    b412:	c7 85 60 f4 ff ff 00 	movl   $0x0,-0xba0(%rbp)
    b419:	00 00 00 
    b41c:	c7 85 64 f4 ff ff fa 	movl   $0xfffffffa,-0xb9c(%rbp)
    b423:	ff ff ff 
    b426:	c7 85 68 f4 ff ff 00 	movl   $0x0,-0xb98(%rbp)
    b42d:	00 00 00 
    b430:	c7 85 6c f4 ff ff ff 	movl   $0xffffffff,-0xb94(%rbp)
    b437:	ff ff ff 
    b43a:	c7 85 70 f4 ff ff ff 	movl   $0xffffffff,-0xb90(%rbp)
    b441:	ff ff ff 
    b444:	c7 85 74 f4 ff ff 00 	movl   $0x0,-0xb8c(%rbp)
    b44b:	00 00 00 
    b44e:	c7 85 78 f4 ff ff fa 	movl   $0xfffffffa,-0xb88(%rbp)
    b455:	ff ff ff 
    b458:	c7 85 7c f4 ff ff 00 	movl   $0x0,-0xb84(%rbp)
    b45f:	00 00 00 
    b462:	c7 85 80 f4 ff ff ff 	movl   $0xffffffff,-0xb80(%rbp)
    b469:	ff ff ff 
    b46c:	c7 85 84 f4 ff ff ff 	movl   $0xffffffff,-0xb7c(%rbp)
    b473:	ff ff ff 
    b476:	c7 85 88 f4 ff ff 00 	movl   $0x0,-0xb78(%rbp)
    b47d:	00 00 00 
    b480:	c7 85 8c f4 ff ff fa 	movl   $0xfffffffa,-0xb74(%rbp)
    b487:	ff ff ff 
    b48a:	c7 85 90 f4 ff ff 00 	movl   $0x0,-0xb70(%rbp)
    b491:	00 00 00 
    b494:	c7 85 94 f4 ff ff ff 	movl   $0xffffffff,-0xb6c(%rbp)
    b49b:	ff ff ff 
    b49e:	c7 85 98 f4 ff ff ff 	movl   $0xffffffff,-0xb68(%rbp)
    b4a5:	ff ff ff 
    b4a8:	c7 85 9c f4 ff ff 00 	movl   $0x0,-0xb64(%rbp)
    b4af:	00 00 00 
    b4b2:	c7 85 a0 f4 ff ff fa 	movl   $0xfffffffa,-0xb60(%rbp)
    b4b9:	ff ff ff 
    b4bc:	c7 85 a4 f4 ff ff 00 	movl   $0x0,-0xb5c(%rbp)
    b4c3:	00 00 00 
    b4c6:	c7 85 a8 f4 ff ff ff 	movl   $0xffffffff,-0xb58(%rbp)
    b4cd:	ff ff ff 
    b4d0:	c7 85 ac f4 ff ff ff 	movl   $0xffffffff,-0xb54(%rbp)
    b4d7:	ff ff ff 
    b4da:	c7 85 b0 f4 ff ff 00 	movl   $0x0,-0xb50(%rbp)
    b4e1:	00 00 00 
    b4e4:	c7 85 b4 f4 ff ff fa 	movl   $0xfffffffa,-0xb4c(%rbp)
    b4eb:	ff ff ff 
    b4ee:	c7 85 b8 f4 ff ff 00 	movl   $0x0,-0xb48(%rbp)
    b4f5:	00 00 00 
    b4f8:	c7 85 bc f4 ff ff ff 	movl   $0xffffffff,-0xb44(%rbp)
    b4ff:	ff ff ff 
    b502:	c7 85 c0 f4 ff ff ff 	movl   $0xffffffff,-0xb40(%rbp)
    b509:	ff ff ff 
    b50c:	c7 85 c4 f4 ff ff 00 	movl   $0x0,-0xb3c(%rbp)
    b513:	00 00 00 
    b516:	c7 85 7c f3 ff ff dd 	movl   $0x79ad7bdd,-0xc84(%rbp)
    b51d:	7b ad 79 
    b520:	c7 85 80 f3 ff ff d9 	movl   $0x9ee888d9,-0xc80(%rbp)
    b527:	88 e8 9e 
    b52a:	48 c7 85 98 f2 ff ff 	movq   $0x0,-0xd68(%rbp)
    b531:	00 00 00 00 
    b535:	66 c7 85 98 f2 ff ff 	movw   $0xffff,-0xd68(%rbp)
    b53c:	ff ff 
    b53e:	c7 85 44 f2 ff ff fd 	movl   $0xfffffffd,-0xdbc(%rbp)
    b545:	ff ff ff 
    b548:	c7 85 24 f2 ff ff 00 	movl   $0x0,-0xddc(%rbp)
    b54f:	00 00 00 
    b552:	eb 1e                	jmp    b572 <func_41+0x385>
    b554:	8b 85 24 f2 ff ff    	mov    -0xddc(%rbp),%eax
    b55a:	48 98                	cltq   
    b55c:	48 8d 15 c1 7a 00 00 	lea    0x7ac1(%rip),%rdx        # 13024 <g_21>
    b563:	48 89 94 c5 88 f3 ff 	mov    %rdx,-0xc78(%rbp,%rax,8)
    b56a:	ff 
    b56b:	83 85 24 f2 ff ff 01 	addl   $0x1,-0xddc(%rbp)
    b572:	83 bd 24 f2 ff ff 00 	cmpl   $0x0,-0xddc(%rbp)
    b579:	7e d9                	jle    b554 <func_41+0x367>
    b57b:	c7 05 b3 7a 00 00 00 	movl   $0x0,0x7ab3(%rip)        # 13038 <g_48>
    b582:	00 00 00 
    b585:	e9 24 0e 00 00       	jmpq   c3ae <func_41+0x11c1>
    b58a:	c6 85 0a f2 ff ff 3d 	movb   $0x3d,-0xdf6(%rbp)
    b591:	48 c7 85 a0 f2 ff ff 	movq   $0x0,-0xd60(%rbp)
    b598:	00 00 00 00 
    b59c:	66 c7 85 a0 f2 ff ff 	movw   $0x5145,-0xd60(%rbp)
    b5a3:	45 51 
    b5a5:	c7 85 48 f2 ff ff 01 	movl   $0x1,-0xdb8(%rbp)
    b5ac:	00 00 00 
    b5af:	66 c7 85 0c f2 ff ff 	movw   $0x0,-0xdf4(%rbp)
    b5b6:	00 00 
    b5b8:	c7 85 4c f2 ff ff 00 	movl   $0x0,-0xdb4(%rbp)
    b5bf:	00 00 00 
    b5c2:	c7 85 50 f2 ff ff a2 	movl   $0xceb4f8a2,-0xdb0(%rbp)
    b5c9:	f8 b4 ce 
    b5cc:	c7 85 54 f2 ff ff 23 	movl   $0x39104023,-0xdac(%rbp)
    b5d3:	40 10 39 
    b5d6:	48 c7 85 a8 f2 ff ff 	movq   $0xfffffffffffffffc,-0xd58(%rbp)
    b5dd:	fc ff ff ff 
    b5e1:	48 8d 85 10 f2 ff ff 	lea    -0xdf0(%rbp),%rax
    b5e8:	48 89 85 d0 f2 ff ff 	mov    %rax,-0xd30(%rbp)
    b5ef:	48 c7 85 d8 f2 ff ff 	movq   $0x0,-0xd28(%rbp)
    b5f6:	00 00 00 00 
    b5fa:	c7 85 28 f2 ff ff 00 	movl   $0x0,-0xdd8(%rbp)
    b601:	00 00 00 
    b604:	eb 1a                	jmp    b620 <func_41+0x433>
    b606:	8b 85 28 f2 ff ff    	mov    -0xdd8(%rbp),%eax
    b60c:	48 98                	cltq   
    b60e:	c7 84 85 84 f3 ff ff 	movl   $0xe43229ea,-0xc7c(%rbp,%rax,4)
    b615:	ea 29 32 e4 
    b619:	83 85 28 f2 ff ff 01 	addl   $0x1,-0xdd8(%rbp)
    b620:	83 bd 28 f2 ff ff 00 	cmpl   $0x0,-0xdd8(%rbp)
    b627:	7e dd                	jle    b606 <func_41+0x419>
    b629:	c7 05 09 7a 00 00 00 	movl   $0x0,0x7a09(%rip)        # 1303c <g_51>
    b630:	00 00 00 
    b633:	90                   	nop
    b634:	8b 05 02 7a 00 00    	mov    0x7a02(%rip),%eax        # 1303c <g_51>
    b63a:	83 f8 eb             	cmp    $0xffffffeb,%eax
    b63d:	0f 8d 2d 0d 00 00    	jge    c370 <func_41+0x1183>
    b643:	48 b8 2d fe 48 7b 0a 	movabs $0x5eb5a40a7b48fe2d,%rax
    b64a:	a4 b5 5e 
    b64d:	48 89 85 e0 f2 ff ff 	mov    %rax,-0xd20(%rbp)
    b654:	c7 85 58 f2 ff ff a7 	movl   $0x3d3086a7,-0xda8(%rbp)
    b65b:	86 30 3d 
    b65e:	c7 85 18 f2 ff ff 00 	movl   $0x0,-0xde8(%rbp)
    b665:	00 00 00 
    b668:	c7 85 5c f2 ff ff 09 	movl   $0x488a8a09,-0xda4(%rbp)
    b66f:	8a 8a 48 
    b672:	c7 85 60 f2 ff ff 97 	movl   $0x637c897,-0xda0(%rbp)
    b679:	c8 37 06 
    b67c:	c7 85 64 f2 ff ff a8 	movl   $0x4d64d8a8,-0xd9c(%rbp)
    b683:	d8 64 4d 
    b686:	c7 85 68 f2 ff ff 46 	movl   $0xee4cd446,-0xd98(%rbp)
    b68d:	d4 4c ee 
    b690:	c7 85 6c f2 ff ff 01 	movl   $0x1,-0xd94(%rbp)
    b697:	00 00 00 
    b69a:	c7 85 70 f2 ff ff af 	movl   $0xb8970aaf,-0xd90(%rbp)
    b6a1:	0a 97 b8 
    b6a4:	c7 85 74 f2 ff ff 01 	movl   $0x1,-0xd8c(%rbp)
    b6ab:	00 00 00 
    b6ae:	48 8d 05 d0 39 00 00 	lea    0x39d0(%rip),%rax        # f085 <g_354+0x25>
    b6b5:	48 89 85 e8 f2 ff ff 	mov    %rax,-0xd18(%rbp)
    b6bc:	48 8d 85 18 f2 ff ff 	lea    -0xde8(%rbp),%rax
    b6c3:	48 89 85 f0 f2 ff ff 	mov    %rax,-0xd10(%rbp)
    b6ca:	48 8d 05 ef 95 00 00 	lea    0x95ef(%rip),%rax        # 14cc0 <g_138>
    b6d1:	48 89 85 f8 f2 ff ff 	mov    %rax,-0xd08(%rbp)
    b6d8:	48 8d 85 d0 f4 ff ff 	lea    -0xb30(%rbp),%rax
    b6df:	48 83 c0 48          	add    $0x48,%rax
    b6e3:	48 89 85 00 f3 ff ff 	mov    %rax,-0xd00(%rbp)
    b6ea:	48 8d 05 e5 7a 00 00 	lea    0x7ae5(%rip),%rax        # 131d6 <g_121+0x6>
    b6f1:	48 89 85 08 f3 ff ff 	mov    %rax,-0xcf8(%rbp)
    b6f8:	48 c7 85 10 f3 ff ff 	movq   $0x0,-0xcf0(%rbp)
    b6ff:	00 00 00 00 
    b703:	48 8d 05 b6 7a 00 00 	lea    0x7ab6(%rip),%rax        # 131c0 <g_113>
    b70a:	48 89 85 18 f3 ff ff 	mov    %rax,-0xce8(%rbp)
    b711:	48 8d 85 0c f2 ff ff 	lea    -0xdf4(%rbp),%rax
    b718:	48 89 85 20 f3 ff ff 	mov    %rax,-0xce0(%rbp)
    b71f:	c7 85 2c f2 ff ff 00 	movl   $0x0,-0xdd4(%rbp)
    b726:	00 00 00 
    b729:	eb 1a                	jmp    b745 <func_41+0x558>
    b72b:	8b 85 2c f2 ff ff    	mov    -0xdd4(%rbp),%eax
    b731:	48 98                	cltq   
    b733:	c7 84 85 94 f3 ff ff 	movl   $0x4e79b497,-0xc6c(%rbp,%rax,4)
    b73a:	97 b4 79 4e 
    b73e:	83 85 2c f2 ff ff 01 	addl   $0x1,-0xdd4(%rbp)
    b745:	83 bd 2c f2 ff ff 02 	cmpl   $0x2,-0xdd4(%rbp)
    b74c:	7e dd                	jle    b72b <func_41+0x53e>
    b74e:	c7 85 2c f2 ff ff 00 	movl   $0x0,-0xdd4(%rbp)
    b755:	00 00 00 
    b758:	eb 6e                	jmp    b7c8 <func_41+0x5db>
    b75a:	c7 85 30 f2 ff ff 00 	movl   $0x0,-0xdd0(%rbp)
    b761:	00 00 00 
    b764:	eb 52                	jmp    b7b8 <func_41+0x5cb>
    b766:	c7 85 34 f2 ff ff 00 	movl   $0x0,-0xdcc(%rbp)
    b76d:	00 00 00 
    b770:	eb 36                	jmp    b7a8 <func_41+0x5bb>
    b772:	8b 85 34 f2 ff ff    	mov    -0xdcc(%rbp),%eax
    b778:	48 63 d0             	movslq %eax,%rdx
    b77b:	8b 85 30 f2 ff ff    	mov    -0xdd0(%rbp),%eax
    b781:	48 98                	cltq   
    b783:	8b 8d 2c f2 ff ff    	mov    -0xdd4(%rbp),%ecx
    b789:	48 63 c9             	movslq %ecx,%rcx
    b78c:	48 01 c9             	add    %rcx,%rcx
    b78f:	48 01 ca             	add    %rcx,%rdx
    b792:	48 01 d0             	add    %rdx,%rax
    b795:	48 c7 84 c5 10 f4 ff 	movq   $0x0,-0xbf0(%rbp,%rax,8)
    b79c:	ff 00 00 00 00 
    b7a1:	83 85 34 f2 ff ff 01 	addl   $0x1,-0xdcc(%rbp)
    b7a8:	83 bd 34 f2 ff ff 00 	cmpl   $0x0,-0xdcc(%rbp)
    b7af:	7e c1                	jle    b772 <func_41+0x585>
    b7b1:	83 85 30 f2 ff ff 01 	addl   $0x1,-0xdd0(%rbp)
    b7b8:	83 bd 30 f2 ff ff 01 	cmpl   $0x1,-0xdd0(%rbp)
    b7bf:	7e a5                	jle    b766 <func_41+0x579>
    b7c1:	83 85 2c f2 ff ff 01 	addl   $0x1,-0xdd4(%rbp)
    b7c8:	83 bd 2c f2 ff ff 03 	cmpl   $0x3,-0xdd4(%rbp)
    b7cf:	7e 89                	jle    b75a <func_41+0x56d>
    b7d1:	0f b6 05 4c 78 00 00 	movzbl 0x784c(%rip),%eax        # 13024 <g_21>
    b7d8:	84 c0                	test   %al,%al
    b7da:	75 6d                	jne    b849 <func_41+0x65c>
    b7dc:	44 0f b6 a5 0a f2 ff 	movzbl -0xdf6(%rbp),%r12d
    b7e3:	ff 
    b7e4:	8b 05 4e 78 00 00    	mov    0x784e(%rip),%eax        # 13038 <g_48>
    b7ea:	0f b7 d8             	movzwl %ax,%ebx
    b7ed:	8b 8d f4 f1 ff ff    	mov    -0xe0c(%rbp),%ecx
    b7f3:	48 8b 15 46 78 00 00 	mov    0x7846(%rip),%rdx        # 13040 <g_69>
    b7fa:	48 8b 85 f8 f1 ff ff 	mov    -0xe08(%rbp),%rax
    b801:	48 8d 35 30 78 00 00 	lea    0x7830(%rip),%rsi        # 13038 <g_48>
    b808:	48 89 c7             	mov    %rax,%rdi
    b80b:	e8 77 1f 00 00       	callq  d787 <func_64>
    b810:	98                   	cwtl   
    b811:	48 8b 95 e0 f2 ff ff 	mov    -0xd20(%rbp),%rdx
    b818:	89 c6                	mov    %eax,%esi
    b81a:	89 d7                	mov    %edx,%edi
    b81c:	e8 ab 0e 00 00       	callq  c6cc <func_60>
    b821:	48 89 c7             	mov    %rax,%rdi
    b824:	8b 85 f4 f1 ff ff    	mov    -0xe0c(%rbp),%eax
    b82a:	45 89 e0             	mov    %r12d,%r8d
    b82d:	48 8d 0d f0 77 00 00 	lea    0x77f0(%rip),%rcx        # 13024 <g_21>
    b834:	89 c2                	mov    %eax,%edx
    b836:	89 de                	mov    %ebx,%esi
    b838:	e8 f9 0d 00 00       	callq  c636 <func_54>
    b83d:	48 8b 05 fc 7b 00 00 	mov    0x7bfc(%rip),%rax        # 13440 <g_202+0x200>
    b844:	48 85 c0             	test   %rax,%rax
    b847:	74 07                	je     b850 <func_41+0x663>
    b849:	b8 01 00 00 00       	mov    $0x1,%eax
    b84e:	eb 05                	jmp    b855 <func_41+0x668>
    b850:	b8 00 00 00 00       	mov    $0x0,%eax
    b855:	3d c4 00 00 00       	cmp    $0xc4,%eax
    b85a:	0f 84 ea 03 00 00    	je     bc4a <func_41+0xa5d>
    b860:	c6 85 09 f2 ff ff 32 	movb   $0x32,-0xdf7(%rbp)
    b867:	c7 85 78 f2 ff ff 01 	movl   $0x1,-0xd88(%rbp)
    b86e:	00 00 00 
    b871:	c7 85 1c f2 ff ff 32 	movl   $0x44003832,-0xde4(%rbp)
    b878:	38 00 44 
    b87b:	c7 85 7c f2 ff ff 01 	movl   $0x1,-0xd84(%rbp)
    b882:	00 00 00 
    b885:	c7 85 70 f5 ff ff 01 	movl   $0x1,-0xa90(%rbp)
    b88c:	00 00 00 
    b88f:	c7 85 74 f5 ff ff 01 	movl   $0x1,-0xa8c(%rbp)
    b896:	00 00 00 
    b899:	c7 85 78 f5 ff ff 01 	movl   $0x1,-0xa88(%rbp)
    b8a0:	00 00 00 
    b8a3:	c7 85 7c f5 ff ff 01 	movl   $0x1,-0xa84(%rbp)
    b8aa:	00 00 00 
    b8ad:	c7 85 80 f5 ff ff 01 	movl   $0x1,-0xa80(%rbp)
    b8b4:	00 00 00 
    b8b7:	c7 85 84 f5 ff ff 01 	movl   $0x1,-0xa7c(%rbp)
    b8be:	00 00 00 
    b8c1:	c7 85 88 f5 ff ff 01 	movl   $0x1,-0xa78(%rbp)
    b8c8:	00 00 00 
    b8cb:	c7 85 8c f5 ff ff 01 	movl   $0x1,-0xa74(%rbp)
    b8d2:	00 00 00 
    b8d5:	c7 85 90 f5 ff ff 01 	movl   $0x1,-0xa70(%rbp)
    b8dc:	00 00 00 
    b8df:	66 c7 85 0e f2 ff ff 	movw   $0xffff,-0xdf2(%rbp)
    b8e6:	ff ff 
    b8e8:	48 c7 85 38 f3 ff ff 	movq   $0x0,-0xcc8(%rbp)
    b8ef:	00 00 00 00 
    b8f3:	48 8d 05 ee 93 00 00 	lea    0x93ee(%rip),%rax        # 14ce8 <g_332>
    b8fa:	48 89 85 40 f3 ff ff 	mov    %rax,-0xcc0(%rbp)
    b901:	48 8d 05 b8 93 00 00 	lea    0x93b8(%rip),%rax        # 14cc0 <g_138>
    b908:	48 89 85 48 f3 ff ff 	mov    %rax,-0xcb8(%rbp)
    b90f:	c6 05 aa 78 00 00 00 	movb   $0x0,0x78aa(%rip)        # 131c0 <g_113>
    b916:	e9 c9 02 00 00       	jmpq   bbe4 <func_41+0x9f7>
    b91b:	48 8d 05 d6 79 00 00 	lea    0x79d6(%rip),%rax        # 132f8 <g_202+0xb8>
    b922:	48 89 85 50 f3 ff ff 	mov    %rax,-0xcb0(%rbp)
    b929:	48 8d 85 80 f2 ff ff 	lea    -0xd80(%rbp),%rax
    b930:	48 89 85 60 f6 ff ff 	mov    %rax,-0x9a0(%rbp)
    b937:	48 8d 85 80 f2 ff ff 	lea    -0xd80(%rbp),%rax
    b93e:	48 89 85 68 f6 ff ff 	mov    %rax,-0x998(%rbp)
    b945:	48 8d 85 80 f2 ff ff 	lea    -0xd80(%rbp),%rax
    b94c:	48 89 85 70 f6 ff ff 	mov    %rax,-0x990(%rbp)
    b953:	48 8d 85 80 f2 ff ff 	lea    -0xd80(%rbp),%rax
    b95a:	48 89 85 78 f6 ff ff 	mov    %rax,-0x988(%rbp)
    b961:	48 8d 85 80 f2 ff ff 	lea    -0xd80(%rbp),%rax
    b968:	48 89 85 80 f6 ff ff 	mov    %rax,-0x980(%rbp)
    b96f:	48 8d 85 80 f2 ff ff 	lea    -0xd80(%rbp),%rax
    b976:	48 89 85 88 f6 ff ff 	mov    %rax,-0x978(%rbp)
    b97d:	48 8d 85 80 f2 ff ff 	lea    -0xd80(%rbp),%rax
    b984:	48 89 85 90 f6 ff ff 	mov    %rax,-0x970(%rbp)
    b98b:	48 8d 05 2e 93 00 00 	lea    0x932e(%rip),%rax        # 14cc0 <g_138>
    b992:	48 89 85 58 f3 ff ff 	mov    %rax,-0xca8(%rbp)
    b999:	48 c7 85 60 f3 ff ff 	movq   $0x0,-0xca0(%rbp)
    b9a0:	00 00 00 00 
    b9a4:	48 8d 05 11 78 00 00 	lea    0x7811(%rip),%rax        # 131bc <g_94+0x4>
    b9ab:	48 89 85 68 f3 ff ff 	mov    %rax,-0xc98(%rbp)
    b9b2:	48 8d 05 fb 77 00 00 	lea    0x77fb(%rip),%rax        # 131b4 <g_75>
    b9b9:	48 89 85 70 f3 ff ff 	mov    %rax,-0xc90(%rbp)
    b9c0:	48 8d 05 ed 77 00 00 	lea    0x77ed(%rip),%rax        # 131b4 <g_75>
    b9c7:	48 89 85 f0 f7 ff ff 	mov    %rax,-0x810(%rbp)
    b9ce:	48 8d 05 df 77 00 00 	lea    0x77df(%rip),%rax        # 131b4 <g_75>
    b9d5:	48 89 85 f8 f7 ff ff 	mov    %rax,-0x808(%rbp)
    b9dc:	48 8d 05 d1 77 00 00 	lea    0x77d1(%rip),%rax        # 131b4 <g_75>
    b9e3:	48 89 85 00 f8 ff ff 	mov    %rax,-0x800(%rbp)
    b9ea:	48 8d 05 c3 77 00 00 	lea    0x77c3(%rip),%rax        # 131b4 <g_75>
    b9f1:	48 89 85 08 f8 ff ff 	mov    %rax,-0x7f8(%rbp)
    b9f8:	48 8d 05 b5 77 00 00 	lea    0x77b5(%rip),%rax        # 131b4 <g_75>
    b9ff:	48 89 85 10 f8 ff ff 	mov    %rax,-0x7f0(%rbp)
    ba06:	48 8d 05 a7 77 00 00 	lea    0x77a7(%rip),%rax        # 131b4 <g_75>
    ba0d:	48 89 85 18 f8 ff ff 	mov    %rax,-0x7e8(%rbp)
    ba14:	48 8d 05 99 77 00 00 	lea    0x7799(%rip),%rax        # 131b4 <g_75>
    ba1b:	48 89 85 20 f8 ff ff 	mov    %rax,-0x7e0(%rbp)
    ba22:	48 8d 05 8b 77 00 00 	lea    0x778b(%rip),%rax        # 131b4 <g_75>
    ba29:	48 89 85 28 f8 ff ff 	mov    %rax,-0x7d8(%rbp)
    ba30:	c6 85 0b f2 ff ff 00 	movb   $0x0,-0xdf5(%rbp)
    ba37:	48 8b 85 e8 f1 ff ff 	mov    -0xe18(%rbp),%rax
    ba3e:	0f b6 00             	movzbl (%rax),%eax
    ba41:	0f be d8             	movsbl %al,%ebx
    ba44:	48 8b 05 6d 92 00 00 	mov    0x926d(%rip),%rax        # 14cb8 <g_134>
    ba4b:	8b 00                	mov    (%rax),%eax
    ba4d:	85 c0                	test   %eax,%eax
    ba4f:	0f 84 18 01 00 00    	je     bb6d <func_41+0x980>
    ba55:	44 0f b6 a5 0a f2 ff 	movzbl -0xdf6(%rbp),%r12d
    ba5c:	ff 
    ba5d:	8b 85 f4 f1 ff ff    	mov    -0xe0c(%rbp),%eax
    ba63:	0f bf d0             	movswl %ax,%edx
    ba66:	48 8b 85 80 f2 ff ff 	mov    -0xd80(%rbp),%rax
    ba6d:	48 89 85 18 f5 ff ff 	mov    %rax,-0xae8(%rbp)
    ba74:	48 8b 85 f8 f1 ff ff 	mov    -0xe08(%rbp),%rax
    ba7b:	48 89 85 88 f2 ff ff 	mov    %rax,-0xd78(%rbp)
    ba82:	48 8b 85 88 f2 ff ff 	mov    -0xd78(%rbp),%rax
    ba89:	48 39 85 f8 f1 ff ff 	cmp    %rax,-0xe08(%rbp)
    ba90:	0f 94 c0             	sete   %al
    ba93:	0f b6 c0             	movzbl %al,%eax
    ba96:	89 d6                	mov    %edx,%esi
    ba98:	89 c7                	mov    %eax,%edi
    ba9a:	e8 b6 99 ff ff       	callq  5455 <safe_div_func_int16_t_s_s>
    ba9f:	44 0f bf e8          	movswl %ax,%r13d
    baa3:	48 8b 05 8e 79 00 00 	mov    0x798e(%rip),%rax        # 13438 <g_202+0x1f8>
    baaa:	48 89 c2             	mov    %rax,%rdx
    baad:	48 8b 85 f8 f1 ff ff 	mov    -0xe08(%rbp),%rax
    bab4:	8b 00                	mov    (%rax),%eax
    bab6:	23 85 f4 f1 ff ff    	and    -0xe0c(%rbp),%eax
    babc:	89 c0                	mov    %eax,%eax
    babe:	48 89 d6             	mov    %rdx,%rsi
    bac1:	48 89 c7             	mov    %rax,%rdi
    bac4:	e8 82 a5 ff ff       	callq  604b <safe_sub_func_uint64_t_u_u>
    bac9:	8b 95 f4 f1 ff ff    	mov    -0xe0c(%rbp),%edx
    bacf:	48 39 d0             	cmp    %rdx,%rax
    bad2:	0f 96 c0             	setbe  %al
    bad5:	0f b6 c0             	movzbl %al,%eax
    bad8:	41 39 c5             	cmp    %eax,%r13d
    badb:	74 0a                	je     bae7 <func_41+0x8fa>
    badd:	48 83 bd e0 f2 ff ff 	cmpq   $0x0,-0xd20(%rbp)
    bae4:	00 
    bae5:	74 07                	je     baee <func_41+0x901>
    bae7:	b8 01 00 00 00       	mov    $0x1,%eax
    baec:	eb 05                	jmp    baf3 <func_41+0x906>
    baee:	b8 00 00 00 00       	mov    $0x0,%eax
    baf3:	39 85 f4 f1 ff ff    	cmp    %eax,-0xe0c(%rbp)
    baf9:	0f 96 c0             	setbe  %al
    bafc:	0f b6 c0             	movzbl %al,%eax
    baff:	8b 95 f4 f1 ff ff    	mov    -0xe0c(%rbp),%edx
    bb05:	09 d0                	or     %edx,%eax
    bb07:	98                   	cwtl   
    bb08:	be 05 00 00 00       	mov    $0x5,%esi
    bb0d:	89 c7                	mov    %eax,%edi
    bb0f:	e8 4f 9a ff ff       	callq  5563 <safe_rshift_func_int16_t_s_u>
    bb14:	0f bf d0             	movswl %ax,%edx
    bb17:	48 8b 85 68 f3 ff ff 	mov    -0xc98(%rbp),%rax
    bb1e:	89 10                	mov    %edx,(%rax)
    bb20:	48 8b 85 68 f3 ff ff 	mov    -0xc98(%rbp),%rax
    bb27:	8b 00                	mov    (%rax),%eax
    bb29:	89 c2                	mov    %eax,%edx
    bb2b:	0f b6 85 09 f2 ff ff 	movzbl -0xdf7(%rbp),%eax
    bb32:	21 d0                	and    %edx,%eax
    bb34:	88 85 09 f2 ff ff    	mov    %al,-0xdf7(%rbp)
    bb3a:	80 bd 09 f2 ff ff 00 	cmpb   $0x0,-0xdf7(%rbp)
    bb41:	74 10                	je     bb53 <func_41+0x966>
    bb43:	80 bd 09 f2 ff ff 00 	cmpb   $0x0,-0xdf7(%rbp)
    bb4a:	74 07                	je     bb53 <func_41+0x966>
    bb4c:	b8 01 00 00 00       	mov    $0x1,%eax
    bb51:	eb 05                	jmp    bb58 <func_41+0x96b>
    bb53:	b8 00 00 00 00       	mov    $0x0,%eax
    bb58:	44 89 e6             	mov    %r12d,%esi
    bb5b:	89 c7                	mov    %eax,%edi
    bb5d:	e8 54 9a ff ff       	callq  55b6 <safe_add_func_int32_t_s_s>
    bb62:	85 c0                	test   %eax,%eax
    bb64:	74 07                	je     bb6d <func_41+0x980>
    bb66:	b8 01 00 00 00       	mov    $0x1,%eax
    bb6b:	eb 05                	jmp    bb72 <func_41+0x985>
    bb6d:	b8 00 00 00 00       	mov    $0x0,%eax
    bb72:	0f be c0             	movsbl %al,%eax
    bb75:	89 de                	mov    %ebx,%esi
    bb77:	89 c7                	mov    %eax,%edi
    bb79:	e8 74 96 ff ff       	callq  51f2 <safe_sub_func_int8_t_s_s>
    bb7e:	48 0f be d0          	movsbq %al,%rdx
    bb82:	8b 85 f4 f1 ff ff    	mov    -0xe0c(%rbp),%eax
    bb88:	48 89 d6             	mov    %rdx,%rsi
    bb8b:	48 89 c7             	mov    %rax,%rdi
    bb8e:	e8 15 9d ff ff       	callq  58a8 <safe_sub_func_int64_t_s_s>
    bb93:	0f b7 c0             	movzwl %ax,%eax
    bb96:	be 07 00 00 00       	mov    $0x7,%esi
    bb9b:	89 c7                	mov    %eax,%edi
    bb9d:	e8 ec a1 ff ff       	callq  5d8e <safe_div_func_uint16_t_u_u>
    bba2:	48 8b 85 f8 f1 ff ff 	mov    -0xe08(%rbp),%rax
    bba9:	8b 00                	mov    (%rax),%eax
    bbab:	89 85 48 f2 ff ff    	mov    %eax,-0xdb8(%rbp)
    bbb1:	48 83 ad a8 f2 ff ff 	subq   $0x1,-0xd58(%rbp)
    bbb8:	01 
    bbb9:	8b 85 90 f5 ff ff    	mov    -0xa70(%rbp),%eax
    bbbf:	85 c0                	test   %eax,%eax
    bbc1:	75 32                	jne    bbf5 <func_41+0xa08>
    bbc3:	0f b7 85 0e f2 ff ff 	movzwl -0xdf2(%rbp),%eax
    bbca:	83 c0 01             	add    $0x1,%eax
    bbcd:	66 89 85 0e f2 ff ff 	mov    %ax,-0xdf2(%rbp)
    bbd4:	0f b6 05 e5 75 00 00 	movzbl 0x75e5(%rip),%eax        # 131c0 <g_113>
    bbdb:	83 c0 01             	add    $0x1,%eax
    bbde:	88 05 dc 75 00 00    	mov    %al,0x75dc(%rip)        # 131c0 <g_113>
    bbe4:	0f b6 05 d5 75 00 00 	movzbl 0x75d5(%rip),%eax        # 131c0 <g_113>
    bbeb:	3c 1f                	cmp    $0x1f,%al
    bbed:	0f 86 28 fd ff ff    	jbe    b91b <func_41+0x72e>
    bbf3:	eb 01                	jmp    bbf6 <func_41+0xa09>
    bbf5:	90                   	nop
    bbf6:	48 8b 15 eb 90 00 00 	mov    0x90eb(%rip),%rdx        # 14ce8 <g_332>
    bbfd:	48 8b 85 40 f3 ff ff 	mov    -0xcc0(%rbp),%rax
    bc04:	48 89 10             	mov    %rdx,(%rax)
    bc07:	48 c7 85 a8 f2 ff ff 	movq   $0x0,-0xd58(%rbp)
    bc0e:	00 00 00 00 
    bc12:	eb 16                	jmp    bc2a <func_41+0xa3d>
    bc14:	48 8b 05 7d 71 00 00 	mov    0x717d(%rip),%rax        # 12d98 <l_340.4610+0x38>
    bc1b:	48 89 85 b8 f3 ff ff 	mov    %rax,-0xc48(%rbp)
    bc22:	48 83 85 a8 f2 ff ff 	addq   $0x1,-0xd58(%rbp)
    bc29:	01 
    bc2a:	48 83 bd a8 f2 ff ff 	cmpq   $0x2e,-0xd58(%rbp)
    bc31:	2e 
    bc32:	75 e0                	jne    bc14 <func_41+0xa27>
    bc34:	48 8b 85 48 f3 ff ff 	mov    -0xcb8(%rbp),%rax
    bc3b:	48 8d 95 1c f2 ff ff 	lea    -0xde4(%rbp),%rdx
    bc42:	48 89 10             	mov    %rdx,(%rax)
    bc45:	e9 a4 04 00 00       	jmpq   c0ee <func_41+0xf01>
    bc4a:	c7 85 38 f2 ff ff 00 	movl   $0x0,-0xdc8(%rbp)
    bc51:	00 00 00 
    bc54:	48 8d 95 60 f6 ff ff 	lea    -0x9a0(%rbp),%rdx
    bc5b:	b8 00 00 00 00       	mov    $0x0,%eax
    bc60:	b9 31 00 00 00       	mov    $0x31,%ecx
    bc65:	48 89 d7             	mov    %rdx,%rdi
    bc68:	f3 48 ab             	rep stos %rax,%es:(%rdi)
    bc6b:	c7 85 60 f6 ff ff 2c 	movl   $0x87ad862c,-0x9a0(%rbp)
    bc72:	86 ad 87 
    bc75:	c7 85 70 f6 ff ff 2c 	movl   $0x87ad862c,-0x990(%rbp)
    bc7c:	86 ad 87 
    bc7f:	c7 85 78 f6 ff ff ff 	movl   $0xffffffff,-0x988(%rbp)
    bc86:	ff ff ff 
    bc89:	c7 85 80 f6 ff ff ff 	movl   $0xffffffff,-0x980(%rbp)
    bc90:	ff ff ff 
    bc93:	c7 85 88 f6 ff ff 2c 	movl   $0x87ad862c,-0x978(%rbp)
    bc9a:	86 ad 87 
    bc9d:	c7 85 98 f6 ff ff ff 	movl   $0xffffffff,-0x968(%rbp)
    bca4:	ff ff ff 
    bca7:	c7 85 a0 f6 ff ff ce 	movl   $0xa4c86fce,-0x960(%rbp)
    bcae:	6f c8 a4 
    bcb1:	c7 85 a8 f6 ff ff d1 	movl   $0x8a64bdd1,-0x958(%rbp)
    bcb8:	bd 64 8a 
    bcbb:	c7 85 b0 f6 ff ff ad 	movl   $0xaf3a1aad,-0x950(%rbp)
    bcc2:	1a 3a af 
    bcc5:	c7 85 b8 f6 ff ff 01 	movl   $0x1,-0x948(%rbp)
    bccc:	00 00 00 
    bccf:	c7 85 c0 f6 ff ff da 	movl   $0x6a7d9da,-0x940(%rbp)
    bcd6:	d9 a7 06 
    bcd9:	c7 85 c8 f6 ff ff 01 	movl   $0x1,-0x938(%rbp)
    bce0:	00 00 00 
    bce3:	c7 85 d0 f6 ff ff 66 	movl   $0x87cf7266,-0x930(%rbp)
    bcea:	72 cf 87 
    bced:	c7 85 d8 f6 ff ff 2c 	movl   $0x87ad862c,-0x928(%rbp)
    bcf4:	86 ad 87 
    bcf7:	c7 85 e0 f6 ff ff 2c 	movl   $0x87ad862c,-0x920(%rbp)
    bcfe:	86 ad 87 
    bd01:	c7 85 e8 f6 ff ff 66 	movl   $0x87cf7266,-0x918(%rbp)
    bd08:	72 cf 87 
    bd0b:	c7 85 f0 f6 ff ff 05 	movl   $0x4fd1d805,-0x910(%rbp)
    bd12:	d8 d1 4f 
    bd15:	c7 85 f8 f6 ff ff 66 	movl   $0x87cf7266,-0x908(%rbp)
    bd1c:	72 cf 87 
    bd1f:	c7 85 00 f7 ff ff 2c 	movl   $0x87ad862c,-0x900(%rbp)
    bd26:	86 ad 87 
    bd29:	c7 85 08 f7 ff ff 20 	movl   $0xd9be3b20,-0x8f8(%rbp)
    bd30:	3b be d9 
    bd33:	c7 85 18 f7 ff ff ff 	movl   $0xffffffff,-0x8e8(%rbp)
    bd3a:	ff ff ff 
    bd3d:	c7 85 20 f7 ff ff ad 	movl   $0xaf3a1aad,-0x8e0(%rbp)
    bd44:	1a 3a af 
    bd47:	c7 85 28 f7 ff ff ff 	movl   $0xffffffff,-0x8d8(%rbp)
    bd4e:	ff ff ff 
    bd51:	c7 85 38 f7 ff ff 20 	movl   $0xd9be3b20,-0x8c8(%rbp)
    bd58:	3b be d9 
    bd5b:	c7 85 40 f7 ff ff ff 	movl   $0xffffffff,-0x8c0(%rbp)
    bd62:	ff ff ff 
    bd65:	c7 85 48 f7 ff ff 2c 	movl   $0x87ad862c,-0x8b8(%rbp)
    bd6c:	86 ad 87 
    bd6f:	c7 85 58 f7 ff ff 2c 	movl   $0x87ad862c,-0x8a8(%rbp)
    bd76:	86 ad 87 
    bd79:	c7 85 60 f7 ff ff ff 	movl   $0xffffffff,-0x8a0(%rbp)
    bd80:	ff ff ff 
    bd83:	c7 85 68 f7 ff ff ff 	movl   $0xffffffff,-0x898(%rbp)
    bd8a:	ff ff ff 
    bd8d:	c7 85 70 f7 ff ff 2c 	movl   $0x87ad862c,-0x890(%rbp)
    bd94:	86 ad 87 
    bd97:	c7 85 80 f7 ff ff ce 	movl   $0xa4c86fce,-0x880(%rbp)
    bd9e:	6f c8 a4 
    bda1:	c7 85 90 f7 ff ff da 	movl   $0x6a7d9da,-0x870(%rbp)
    bda8:	d9 a7 06 
    bdab:	c7 85 98 f7 ff ff ff 	movl   $0xffffffff,-0x868(%rbp)
    bdb2:	ff ff ff 
    bdb5:	c7 85 a0 f7 ff ff ff 	movl   $0xffffffff,-0x860(%rbp)
    bdbc:	ff ff ff 
    bdbf:	c7 85 a8 f7 ff ff 01 	movl   $0x1,-0x858(%rbp)
    bdc6:	00 00 00 
    bdc9:	c7 85 b0 f7 ff ff 2c 	movl   $0x87ad862c,-0x850(%rbp)
    bdd0:	86 ad 87 
    bdd3:	c7 85 b8 f7 ff ff 05 	movl   $0x4fd1d805,-0x848(%rbp)
    bdda:	d8 d1 4f 
    bddd:	c7 85 d0 f7 ff ff 05 	movl   $0x4fd1d805,-0x830(%rbp)
    bde4:	d8 d1 4f 
    bde7:	c7 85 d8 f7 ff ff 2c 	movl   $0x87ad862c,-0x828(%rbp)
    bdee:	86 ad 87 
    bdf1:	c7 85 e0 f7 ff ff 05 	movl   $0x4fd1d805,-0x820(%rbp)
    bdf8:	d8 d1 4f 
    bdfb:	48 8d 85 f0 f7 ff ff 	lea    -0x810(%rbp),%rax
    be02:	48 8d 15 17 84 00 00 	lea    0x8417(%rip),%rdx        # 14220 <g_1857+0x4a0>
    be09:	b9 51 00 00 00       	mov    $0x51,%ecx
    be0e:	48 89 c7             	mov    %rax,%rdi
    be11:	48 89 d6             	mov    %rdx,%rsi
    be14:	f3 48 a5             	rep movsq %ds:(%rsi),%es:(%rdi)
    be17:	48 8d 85 f0 f7 ff ff 	lea    -0x810(%rbp),%rax
    be1e:	48 05 08 01 00 00    	add    $0x108,%rax
    be24:	48 89 85 70 f5 ff ff 	mov    %rax,-0xa90(%rbp)
    be2b:	48 8d 85 f0 f7 ff ff 	lea    -0x810(%rbp),%rax
    be32:	48 83 c0 20          	add    $0x20,%rax
    be36:	48 89 85 78 f5 ff ff 	mov    %rax,-0xa88(%rbp)
    be3d:	48 8d 85 f0 f7 ff ff 	lea    -0x810(%rbp),%rax
    be44:	48 83 c0 20          	add    $0x20,%rax
    be48:	48 89 85 80 f5 ff ff 	mov    %rax,-0xa80(%rbp)
    be4f:	48 8d 85 f0 f7 ff ff 	lea    -0x810(%rbp),%rax
    be56:	48 05 10 01 00 00    	add    $0x110,%rax
    be5c:	48 89 85 88 f5 ff ff 	mov    %rax,-0xa78(%rbp)
    be63:	48 8d 85 f0 f7 ff ff 	lea    -0x810(%rbp),%rax
    be6a:	48 05 b8 01 00 00    	add    $0x1b8,%rax
    be70:	48 89 85 90 f5 ff ff 	mov    %rax,-0xa70(%rbp)
    be77:	48 8d 85 f0 f7 ff ff 	lea    -0x810(%rbp),%rax
    be7e:	48 83 c0 20          	add    $0x20,%rax
    be82:	48 89 85 98 f5 ff ff 	mov    %rax,-0xa68(%rbp)
    be89:	48 8d 85 f0 f7 ff ff 	lea    -0x810(%rbp),%rax
    be90:	48 83 c0 20          	add    $0x20,%rax
    be94:	48 89 85 a0 f5 ff ff 	mov    %rax,-0xa60(%rbp)
    be9b:	48 8d 85 f0 f7 ff ff 	lea    -0x810(%rbp),%rax
    bea2:	48 83 c0 50          	add    $0x50,%rax
    bea6:	48 89 85 a8 f5 ff ff 	mov    %rax,-0xa58(%rbp)
    bead:	48 8d 85 f0 f7 ff ff 	lea    -0x810(%rbp),%rax
    beb4:	48 83 c0 50          	add    $0x50,%rax
    beb8:	48 89 85 b0 f5 ff ff 	mov    %rax,-0xa50(%rbp)
    bebf:	48 8d 85 f0 f7 ff ff 	lea    -0x810(%rbp),%rax
    bec6:	48 83 c0 50          	add    $0x50,%rax
    beca:	48 89 85 b8 f5 ff ff 	mov    %rax,-0xa48(%rbp)
    bed1:	48 8d 85 f0 f7 ff ff 	lea    -0x810(%rbp),%rax
    bed8:	48 83 c0 20          	add    $0x20,%rax
    bedc:	48 89 85 c0 f5 ff ff 	mov    %rax,-0xa40(%rbp)
    bee3:	48 8d 85 f0 f7 ff ff 	lea    -0x810(%rbp),%rax
    beea:	48 83 c0 20          	add    $0x20,%rax
    beee:	48 89 85 c8 f5 ff ff 	mov    %rax,-0xa38(%rbp)
    bef5:	48 8d 85 f0 f7 ff ff 	lea    -0x810(%rbp),%rax
    befc:	48 05 b8 01 00 00    	add    $0x1b8,%rax
    bf02:	48 89 85 d0 f5 ff ff 	mov    %rax,-0xa30(%rbp)
    bf09:	48 8d 85 f0 f7 ff ff 	lea    -0x810(%rbp),%rax
    bf10:	48 05 10 01 00 00    	add    $0x110,%rax
    bf16:	48 89 85 d8 f5 ff ff 	mov    %rax,-0xa28(%rbp)
    bf1d:	48 8d 85 f0 f7 ff ff 	lea    -0x810(%rbp),%rax
    bf24:	48 83 c0 20          	add    $0x20,%rax
    bf28:	48 89 85 e0 f5 ff ff 	mov    %rax,-0xa20(%rbp)
    bf2f:	48 8d 85 f0 f7 ff ff 	lea    -0x810(%rbp),%rax
    bf36:	48 83 c0 20          	add    $0x20,%rax
    bf3a:	48 89 85 e8 f5 ff ff 	mov    %rax,-0xa18(%rbp)
    bf41:	48 8d 85 f0 f7 ff ff 	lea    -0x810(%rbp),%rax
    bf48:	48 05 08 01 00 00    	add    $0x108,%rax
    bf4e:	48 89 85 f0 f5 ff ff 	mov    %rax,-0xa10(%rbp)
    bf55:	48 8d 85 f0 f7 ff ff 	lea    -0x810(%rbp),%rax
    bf5c:	48 83 c0 20          	add    $0x20,%rax
    bf60:	48 89 85 f8 f5 ff ff 	mov    %rax,-0xa08(%rbp)
    bf67:	48 c7 85 00 f6 ff ff 	movq   $0x0,-0xa00(%rbp)
    bf6e:	00 00 00 00 
    bf72:	48 8d 85 f0 f7 ff ff 	lea    -0x810(%rbp),%rax
    bf79:	48 83 c0 20          	add    $0x20,%rax
    bf7d:	48 89 85 08 f6 ff ff 	mov    %rax,-0x9f8(%rbp)
    bf84:	48 c7 85 10 f6 ff ff 	movq   $0x0,-0x9f0(%rbp)
    bf8b:	00 00 00 00 
    bf8f:	48 8d 85 f0 f7 ff ff 	lea    -0x810(%rbp),%rax
    bf96:	48 83 c0 20          	add    $0x20,%rax
    bf9a:	48 89 85 18 f6 ff ff 	mov    %rax,-0x9e8(%rbp)
    bfa1:	48 8d 85 f0 f7 ff ff 	lea    -0x810(%rbp),%rax
    bfa8:	48 05 08 01 00 00    	add    $0x108,%rax
    bfae:	48 89 85 20 f6 ff ff 	mov    %rax,-0x9e0(%rbp)
    bfb5:	48 8d 85 f0 f7 ff ff 	lea    -0x810(%rbp),%rax
    bfbc:	48 83 c0 20          	add    $0x20,%rax
    bfc0:	48 89 85 28 f6 ff ff 	mov    %rax,-0x9d8(%rbp)
    bfc7:	48 8d 85 f0 f7 ff ff 	lea    -0x810(%rbp),%rax
    bfce:	48 83 c0 20          	add    $0x20,%rax
    bfd2:	48 89 85 30 f6 ff ff 	mov    %rax,-0x9d0(%rbp)
    bfd9:	48 8d 85 f0 f7 ff ff 	lea    -0x810(%rbp),%rax
    bfe0:	48 05 10 01 00 00    	add    $0x110,%rax
    bfe6:	48 89 85 38 f6 ff ff 	mov    %rax,-0x9c8(%rbp)
    bfed:	48 8d 85 f0 f7 ff ff 	lea    -0x810(%rbp),%rax
    bff4:	48 05 b8 01 00 00    	add    $0x1b8,%rax
    bffa:	48 89 85 40 f6 ff ff 	mov    %rax,-0x9c0(%rbp)
    c001:	48 8d 85 f0 f7 ff ff 	lea    -0x810(%rbp),%rax
    c008:	48 83 c0 20          	add    $0x20,%rax
    c00c:	48 89 85 48 f6 ff ff 	mov    %rax,-0x9b8(%rbp)
    c013:	48 8d 85 f0 f7 ff ff 	lea    -0x810(%rbp),%rax
    c01a:	48 83 c0 20          	add    $0x20,%rax
    c01e:	48 89 85 50 f6 ff ff 	mov    %rax,-0x9b0(%rbp)
    c025:	48 8d 85 f0 f7 ff ff 	lea    -0x810(%rbp),%rax
    c02c:	48 83 c0 50          	add    $0x50,%rax
    c030:	48 89 85 58 f6 ff ff 	mov    %rax,-0x9a8(%rbp)
    c037:	48 8b 85 88 f2 ff ff 	mov    -0xd78(%rbp),%rax
    c03e:	48 8b 95 f8 f1 ff ff 	mov    -0xe08(%rbp),%rdx
    c045:	8b 12                	mov    (%rdx),%edx
    c047:	89 10                	mov    %edx,(%rax)
    c049:	66 c7 85 0c f2 ff ff 	movw   $0x0,-0xdf4(%rbp)
    c050:	00 00 
    c052:	eb 74                	jmp    c0c8 <func_41+0xedb>
    c054:	48 c7 85 28 f3 ff ff 	movq   $0x0,-0xcd8(%rbp)
    c05b:	00 00 00 00 
    c05f:	48 8d 85 88 f2 ff ff 	lea    -0xd78(%rbp),%rax
    c066:	48 89 85 30 f3 ff ff 	mov    %rax,-0xcd0(%rbp)
    c06d:	83 85 38 f2 ff ff 01 	addl   $0x1,-0xdc8(%rbp)
    c074:	48 8b 05 25 8e 00 00 	mov    0x8e25(%rip),%rax        # 14ea0 <g_348>
    c07b:	48 8b 95 f8 f1 ff ff 	mov    -0xe08(%rbp),%rdx
    c082:	48 89 10             	mov    %rdx,(%rax)
    c085:	48 8b 15 44 8c 00 00 	mov    0x8c44(%rip),%rdx        # 14cd0 <g_139>
    c08c:	48 8b 05 0d 8e 00 00 	mov    0x8e0d(%rip),%rax        # 14ea0 <g_348>
    c093:	48 8b 12             	mov    (%rdx),%rdx
    c096:	48 89 10             	mov    %rdx,(%rax)
    c099:	48 8b 05 00 8e 00 00 	mov    0x8e00(%rip),%rax        # 14ea0 <g_348>
    c0a0:	48 8b 10             	mov    (%rax),%rdx
    c0a3:	48 8b 85 30 f3 ff ff 	mov    -0xcd0(%rbp),%rax
    c0aa:	48 89 10             	mov    %rdx,(%rax)
    c0ad:	0f b7 85 0c f2 ff ff 	movzwl -0xdf4(%rbp),%eax
    c0b4:	98                   	cwtl   
    c0b5:	be 01 00 00 00       	mov    $0x1,%esi
    c0ba:	89 c7                	mov    %eax,%edi
    c0bc:	e8 f7 9d ff ff       	callq  5eb8 <safe_add_func_uint32_t_u_u>
    c0c1:	66 89 85 0c f2 ff ff 	mov    %ax,-0xdf4(%rbp)
    c0c8:	0f b7 85 0c f2 ff ff 	movzwl -0xdf4(%rbp),%eax
    c0cf:	66 83 f8 13          	cmp    $0x13,%ax
    c0d3:	0f 8e 7b ff ff ff    	jle    c054 <func_41+0xe67>
    c0d9:	48 8b 05 d8 8b 00 00 	mov    0x8bd8(%rip),%rax        # 14cb8 <g_134>
    c0e0:	8b 10                	mov    (%rax),%edx
    c0e2:	48 8b 05 cf 8b 00 00 	mov    0x8bcf(%rip),%rax        # 14cb8 <g_134>
    c0e9:	80 f2 a1             	xor    $0xa1,%dl
    c0ec:	89 10                	mov    %edx,(%rax)
    c0ee:	8b 85 f4 f1 ff ff    	mov    -0xe0c(%rbp),%eax
    c0f4:	0f bf d8             	movswl %ax,%ebx
    c0f7:	8b 05 67 70 00 00    	mov    0x7067(%rip),%eax        # 13164 <g_72+0x104>
    c0fd:	44 0f be e0          	movsbl %al,%r12d
    c101:	0f b7 85 0c f2 ff ff 	movzwl -0xdf4(%rbp),%eax
    c108:	44 0f bf e8          	movswl %ax,%r13d
    c10c:	48 c7 85 d0 f2 ff ff 	movq   $0x0,-0xd30(%rbp)
    c113:	00 00 00 00 
    c117:	48 8b 85 d0 f2 ff ff 	mov    -0xd30(%rbp),%rax
    c11e:	48 3b 85 f0 f2 ff ff 	cmp    -0xd10(%rbp),%rax
    c125:	41 0f 95 c6          	setne  %r14b
    c129:	8b 85 7c f3 ff ff    	mov    -0xc84(%rbp),%eax
    c12f:	85 c0                	test   %eax,%eax
    c131:	0f 84 a7 00 00 00    	je     c1de <func_41+0xff1>
    c137:	48 8b 05 72 8d 00 00 	mov    0x8d72(%rip),%rax        # 14eb0 <g_375>
    c13e:	48 39 85 00 f3 ff ff 	cmp    %rax,-0xd00(%rbp)
    c145:	0f 94 c0             	sete   %al
    c148:	0f b6 d0             	movzbl %al,%edx
    c14b:	8b 05 6b 70 00 00    	mov    0x706b(%rip),%eax        # 131bc <g_94+0x4>
    c151:	39 85 f4 f1 ff ff    	cmp    %eax,-0xe0c(%rbp)
    c157:	0f 97 c0             	seta   %al
    c15a:	0f b6 c8             	movzbl %al,%ecx
    c15d:	48 8b 85 88 f2 ff ff 	mov    -0xd78(%rbp),%rax
    c164:	8b 00                	mov    (%rax),%eax
    c166:	31 c8                	xor    %ecx,%eax
    c168:	48 98                	cltq   
    c16a:	48 b9 9e 9f 28 03 3f 	movabs $0x2e83a3f03289f9e,%rcx
    c171:	3a e8 02 
    c174:	48 21 c1             	and    %rax,%rcx
    c177:	8b 85 10 f2 ff ff    	mov    -0xdf0(%rbp),%eax
    c17d:	48 98                	cltq   
    c17f:	48 31 c8             	xor    %rcx,%rax
    c182:	48 39 c2             	cmp    %rax,%rdx
    c185:	0f 95 c0             	setne  %al
    c188:	0f b6 c0             	movzbl %al,%eax
    c18b:	be 06 00 00 00       	mov    $0x6,%esi
    c190:	89 c7                	mov    %eax,%edi
    c192:	e8 f6 9a ff ff       	callq  5c8d <safe_rshift_func_uint8_t_u_s>
    c197:	83 c8 01             	or     $0x1,%eax
    c19a:	0f b6 d0             	movzbl %al,%edx
    c19d:	48 8b 85 08 f3 ff ff 	mov    -0xcf8(%rbp),%rax
    c1a4:	66 89 10             	mov    %dx,(%rax)
    c1a7:	48 8b 85 08 f3 ff ff 	mov    -0xcf8(%rbp),%rax
    c1ae:	0f b7 00             	movzwl (%rax),%eax
    c1b1:	0f b7 d0             	movzwl %ax,%edx
    c1b4:	48 8b 05 4d 76 00 00 	mov    0x764d(%rip),%rax        # 13808 <g_202+0x5c8>
    c1bb:	0f b7 c0             	movzwl %ax,%eax
    c1be:	89 d6                	mov    %edx,%esi
    c1c0:	89 c7                	mov    %eax,%edi
    c1c2:	e8 95 9b ff ff       	callq  5d5c <safe_mod_func_uint16_t_u_u>
    c1c7:	0f b7 d0             	movzwl %ax,%edx
    c1ca:	48 8b 85 88 f2 ff ff 	mov    -0xd78(%rbp),%rax
    c1d1:	8b 00                	mov    (%rax),%eax
    c1d3:	39 c2                	cmp    %eax,%edx
    c1d5:	7d 07                	jge    c1de <func_41+0xff1>
    c1d7:	ba 01 00 00 00       	mov    $0x1,%edx
    c1dc:	eb 05                	jmp    c1e3 <func_41+0xff6>
    c1de:	ba 00 00 00 00       	mov    $0x0,%edx
    c1e3:	0f b7 85 0c f2 ff ff 	movzwl -0xdf4(%rbp),%eax
    c1ea:	98                   	cwtl   
    c1eb:	39 c2                	cmp    %eax,%edx
    c1ed:	0f 9e c0             	setle  %al
    c1f0:	44 21 f0             	and    %r14d,%eax
    c1f3:	0f b6 c0             	movzbl %al,%eax
    c1f6:	8b 95 f4 f1 ff ff    	mov    -0xe0c(%rbp),%edx
    c1fc:	09 d0                	or     %edx,%eax
    c1fe:	98                   	cwtl   
    c1ff:	44 89 ee             	mov    %r13d,%esi
    c202:	89 c7                	mov    %eax,%edi
    c204:	e8 ec 91 ff ff       	callq  53f5 <safe_mul_func_int16_t_s_s>
    c209:	98                   	cwtl   
    c20a:	89 85 44 f2 ff ff    	mov    %eax,-0xdbc(%rbp)
    c210:	8b 85 44 f2 ff ff    	mov    -0xdbc(%rbp),%eax
    c216:	0f be c0             	movsbl %al,%eax
    c219:	44 89 e6             	mov    %r12d,%esi
    c21c:	89 c7                	mov    %eax,%edi
    c21e:	e8 ef 8f ff ff       	callq  5212 <safe_mul_func_int8_t_s_s>
    c223:	0f be d0             	movsbl %al,%edx
    c226:	48 8b 85 f8 f1 ff ff 	mov    -0xe08(%rbp),%rax
    c22d:	8b 00                	mov    (%rax),%eax
    c22f:	39 c2                	cmp    %eax,%edx
    c231:	0f 9d c0             	setge  %al
    c234:	0f b6 d0             	movzbl %al,%edx
    c237:	48 8b 85 18 f3 ff ff 	mov    -0xce8(%rbp),%rax
    c23e:	0f b6 00             	movzbl (%rax),%eax
    c241:	89 c1                	mov    %eax,%ecx
    c243:	89 d0                	mov    %edx,%eax
    c245:	21 c8                	and    %ecx,%eax
    c247:	89 c2                	mov    %eax,%edx
    c249:	48 8b 85 18 f3 ff ff 	mov    -0xce8(%rbp),%rax
    c250:	88 10                	mov    %dl,(%rax)
    c252:	48 8b 85 20 f3 ff ff 	mov    -0xce0(%rbp),%rax
    c259:	66 c7 00 fc ff       	movw   $0xfffc,(%rax)
    c25e:	48 8b 85 20 f3 ff ff 	mov    -0xce0(%rbp),%rax
    c265:	0f b7 00             	movzwl (%rax),%eax
    c268:	98                   	cwtl   
    c269:	89 de                	mov    %ebx,%esi
    c26b:	89 c7                	mov    %eax,%edi
    c26d:	e8 61 91 ff ff       	callq  53d3 <safe_sub_func_int16_t_s_s>
    c272:	48 8b 85 88 f2 ff ff 	mov    -0xd78(%rbp),%rax
    c279:	8b 00                	mov    (%rax),%eax
    c27b:	85 c0                	test   %eax,%eax
    c27d:	74 0c                	je     c28b <func_41+0x109e>
    c27f:	48 8b 85 f8 f1 ff ff 	mov    -0xe08(%rbp),%rax
    c286:	e9 87 03 00 00       	jmpq   c612 <func_41+0x1425>
    c28b:	48 8d 85 f0 f7 ff ff 	lea    -0x810(%rbp),%rax
    c292:	48 8d 15 27 82 00 00 	lea    0x8227(%rip),%rdx        # 144c0 <g_1857+0x740>
    c299:	b9 fc 00 00 00       	mov    $0xfc,%ecx
    c29e:	48 89 c7             	mov    %rax,%rdi
    c2a1:	48 89 d6             	mov    %rdx,%rsi
    c2a4:	f3 48 a5             	rep movsq %ds:(%rsi),%es:(%rdi)
    c2a7:	48 8d 85 14 f2 ff ff 	lea    -0xdec(%rbp),%rax
    c2ae:	48 89 85 88 f2 ff ff 	mov    %rax,-0xd78(%rbp)
    c2b5:	8b 85 f4 f1 ff ff    	mov    -0xe0c(%rbp),%eax
    c2bb:	0f b6 c0             	movzbl %al,%eax
    c2be:	be 07 00 00 00       	mov    $0x7,%esi
    c2c3:	89 c7                	mov    %eax,%edi
    c2c5:	e8 82 99 ff ff       	callq  5c4c <safe_lshift_func_uint8_t_u_u>
    c2ca:	0f b6 d0             	movzbl %al,%edx
    c2cd:	8b 85 44 f2 ff ff    	mov    -0xdbc(%rbp),%eax
    c2d3:	98                   	cwtl   
    c2d4:	89 d6                	mov    %edx,%esi
    c2d6:	89 c7                	mov    %eax,%edi
    c2d8:	e8 39 91 ff ff       	callq  5416 <safe_mod_func_int16_t_s_s>
    c2dd:	0f bf d0             	movswl %ax,%edx
    c2e0:	48 8b 85 f0 f2 ff ff 	mov    -0xd10(%rbp),%rax
    c2e7:	89 10                	mov    %edx,(%rax)
    c2e9:	48 8b 05 50 8c 00 00 	mov    0x8c50(%rip),%rax        # 14f40 <g_389>
    c2f0:	48 89 05 49 8c 00 00 	mov    %rax,0x8c49(%rip)        # 14f40 <g_389>
    c2f7:	48 8b 15 42 8c 00 00 	mov    0x8c42(%rip),%rdx        # 14f40 <g_389>
    c2fe:	48 8d 85 e8 f1 ff ff 	lea    -0xe18(%rbp),%rax
    c305:	48 39 c2             	cmp    %rax,%rdx
    c308:	0f 94 c0             	sete   %al
    c30b:	0f b6 c0             	movzbl %al,%eax
    c30e:	39 85 f4 f1 ff ff    	cmp    %eax,-0xe0c(%rbp)
    c314:	0f 95 c0             	setne  %al
    c317:	0f b6 d8             	movzbl %al,%ebx
    c31a:	8b 05 5c 6e 00 00    	mov    0x6e5c(%rip),%eax        # 1317c <g_72+0x11c>
    c320:	48 98                	cltq   
    c322:	48 89 c6             	mov    %rax,%rsi
    c325:	bf 07 00 00 00       	mov    $0x7,%edi
    c32a:	e8 c8 96 ff ff       	callq  59f7 <safe_div_func_int64_t_s_s>
    c32f:	48 21 d8             	and    %rbx,%rax
    c332:	48 3d 34 78 c7 30    	cmp    $0x30c77834,%rax
    c338:	0f 95 c2             	setne  %dl
    c33b:	48 8b 85 88 f2 ff ff 	mov    -0xd78(%rbp),%rax
    c342:	0f b6 d2             	movzbl %dl,%edx
    c345:	89 10                	mov    %edx,(%rax)
    c347:	48 8b 05 6a 89 00 00 	mov    0x896a(%rip),%rax        # 14cb8 <g_134>
    c34e:	8b 08                	mov    (%rax),%ecx
    c350:	48 8b 85 f8 f1 ff ff 	mov    -0xe08(%rbp),%rax
    c357:	8b 10                	mov    (%rax),%edx
    c359:	48 8b 05 58 89 00 00 	mov    0x8958(%rip),%rax        # 14cb8 <g_134>
    c360:	31 ca                	xor    %ecx,%edx
    c362:	89 10                	mov    %edx,(%rax)
    c364:	48 8b 85 f8 f1 ff ff 	mov    -0xe08(%rbp),%rax
    c36b:	e9 a2 02 00 00       	jmpq   c612 <func_41+0x1425>
    c370:	48 8b 05 31 89 00 00 	mov    0x8931(%rip),%rax        # 14ca8 <g_127>
    c377:	48 8b 95 e0 f3 ff ff 	mov    -0xc20(%rbp),%rdx
    c37e:	48 89 10             	mov    %rdx,(%rax)
    c381:	48 8b 85 f8 f1 ff ff 	mov    -0xe08(%rbp),%rax
    c388:	8b 00                	mov    (%rax),%eax
    c38a:	85 c0                	test   %eax,%eax
    c38c:	75 10                	jne    c39e <func_41+0x11b1>
    c38e:	48 8d 05 13 89 00 00 	lea    0x8913(%rip),%rax        # 14ca8 <g_127>
    c395:	48 89 05 6c 94 00 00 	mov    %rax,0x946c(%rip)        # 15808 <g_129>
    c39c:	eb 01                	jmp    c39f <func_41+0x11b2>
    c39e:	90                   	nop
    c39f:	8b 05 93 6c 00 00    	mov    0x6c93(%rip),%eax        # 13038 <g_48>
    c3a5:	83 c0 01             	add    $0x1,%eax
    c3a8:	89 05 8a 6c 00 00    	mov    %eax,0x6c8a(%rip)        # 13038 <g_48>
    c3ae:	8b 05 84 6c 00 00    	mov    0x6c84(%rip),%eax        # 13038 <g_48>
    c3b4:	83 f8 19             	cmp    $0x19,%eax
    c3b7:	0f 8f cd f1 ff ff    	jg     b58a <func_41+0x39d>
    c3bd:	8b 85 98 f4 ff ff    	mov    -0xb68(%rbp),%eax
    c3c3:	85 c0                	test   %eax,%eax
    c3c5:	83 85 f4 f1 ff ff 01 	addl   $0x1,-0xe0c(%rbp)
    c3cc:	83 bd f4 f1 ff ff 0b 	cmpl   $0xb,-0xe0c(%rbp)
    c3d3:	0f 85 f3 ef ff ff    	jne    b3cc <func_41+0x1df>
    c3d9:	48 8b 95 88 f2 ff ff 	mov    -0xd78(%rbp),%rdx
    c3e0:	48 8b 85 88 f2 ff ff 	mov    -0xd78(%rbp),%rax
    c3e7:	8b 12                	mov    (%rdx),%edx
    c3e9:	89 10                	mov    %edx,(%rax)
    c3eb:	0f b7 05 e4 6d 00 00 	movzwl 0x6de4(%rip),%eax        # 131d6 <g_121+0x6>
    c3f2:	0f b7 d8             	movzwl %ax,%ebx
    c3f5:	44 8b 25 08 6d 00 00 	mov    0x6d08(%rip),%r12d        # 13104 <g_72+0xa4>
    c3fc:	8b 85 f4 f1 ff ff    	mov    -0xe0c(%rbp),%eax
    c402:	89 c2                	mov    %eax,%edx
    c404:	48 8b 85 b8 f2 ff ff 	mov    -0xd48(%rbp),%rax
    c40b:	88 10                	mov    %dl,(%rax)
    c40d:	48 8b 85 b8 f2 ff ff 	mov    -0xd48(%rbp),%rax
    c414:	44 0f b6 28          	movzbl (%rax),%r13d
    c418:	48 8b 05 e9 73 00 00 	mov    0x73e9(%rip),%rax        # 13808 <g_202+0x5c8>
    c41f:	41 89 c6             	mov    %eax,%r14d
    c422:	0f b7 05 ad 6d 00 00 	movzwl 0x6dad(%rip),%eax        # 131d6 <g_121+0x6>
    c429:	0f b7 d0             	movzwl %ax,%edx
    c42c:	8b 05 86 6d 00 00    	mov    0x6d86(%rip),%eax        # 131b8 <g_94>
    c432:	98                   	cwtl   
    c433:	89 d6                	mov    %edx,%esi
    c435:	89 c7                	mov    %eax,%edi
    c437:	e8 a5 90 ff ff       	callq  54e1 <safe_lshift_func_int16_t_s_u>
    c43c:	8b 15 7a 6d 00 00    	mov    0x6d7a(%rip),%edx        # 131bc <g_94+0x4>
    c442:	98                   	cwtl   
    c443:	31 d0                	xor    %edx,%eax
    c445:	89 05 71 6d 00 00    	mov    %eax,0x6d71(%rip)        # 131bc <g_94+0x4>
    c44b:	8b 05 6b 6d 00 00    	mov    0x6d6b(%rip),%eax        # 131bc <g_94+0x4>
    c451:	89 05 cd 6d 00 00    	mov    %eax,0x6dcd(%rip)        # 13224 <g_128+0x24>
    c457:	8b 15 c7 6d 00 00    	mov    0x6dc7(%rip),%edx        # 13224 <g_128+0x24>
    c45d:	48 8b 05 5c 88 00 00 	mov    0x885c(%rip),%rax        # 14cc0 <g_138>
    c464:	8b 00                	mov    (%rax),%eax
    c466:	39 c2                	cmp    %eax,%edx
    c468:	0f 93 c0             	setae  %al
    c46b:	0f b6 c0             	movzbl %al,%eax
    c46e:	44 89 f6             	mov    %r14d,%esi
    c471:	89 c7                	mov    %eax,%edi
    c473:	e8 46 98 ff ff       	callq  5cbe <safe_rshift_func_uint8_t_u_u>
    c478:	41 38 c5             	cmp    %al,%r13b
    c47b:	74 10                	je     c48d <func_41+0x12a0>
    c47d:	83 bd f4 f1 ff ff 00 	cmpl   $0x0,-0xe0c(%rbp)
    c484:	74 07                	je     c48d <func_41+0x12a0>
    c486:	b8 01 00 00 00       	mov    $0x1,%eax
    c48b:	eb 05                	jmp    c492 <func_41+0x12a5>
    c48d:	b8 00 00 00 00       	mov    $0x0,%eax
    c492:	39 85 f4 f1 ff ff    	cmp    %eax,-0xe0c(%rbp)
    c498:	0f 96 c0             	setbe  %al
    c49b:	0f b6 c0             	movzbl %al,%eax
    c49e:	39 85 3c f2 ff ff    	cmp    %eax,-0xdc4(%rbp)
    c4a4:	0f 9d c0             	setge  %al
    c4a7:	0f b6 d0             	movzbl %al,%edx
    c4aa:	48 8b 05 f7 89 00 00 	mov    0x89f7(%rip),%rax        # 14ea8 <g_355>
    c4b1:	0f b6 00             	movzbl (%rax),%eax
    c4b4:	0f be c0             	movsbl %al,%eax
    c4b7:	39 c2                	cmp    %eax,%edx
    c4b9:	48 8b 85 e8 f1 ff ff 	mov    -0xe18(%rbp),%rax
    c4c0:	0f b6 00             	movzbl (%rax),%eax
    c4c3:	48 0f be c0          	movsbq %al,%rax
    c4c7:	25 f9 00 00 00       	and    $0xf9,%eax
    c4cc:	48 89 c2             	mov    %rax,%rdx
    c4cf:	48 8b 85 c0 f2 ff ff 	mov    -0xd40(%rbp),%rax
    c4d6:	0f b7 00             	movzwl (%rax),%eax
    c4d9:	89 c1                	mov    %eax,%ecx
    c4db:	89 d0                	mov    %edx,%eax
    c4dd:	09 c8                	or     %ecx,%eax
    c4df:	89 c2                	mov    %eax,%edx
    c4e1:	48 8b 85 c0 f2 ff ff 	mov    -0xd40(%rbp),%rax
    c4e8:	66 89 10             	mov    %dx,(%rax)
    c4eb:	48 8b 05 4e 8a 00 00 	mov    0x8a4e(%rip),%rax        # 14f40 <g_389>
    c4f2:	48 8b 00             	mov    (%rax),%rax
    c4f5:	0f b6 00             	movzbl (%rax),%eax
    c4f8:	0f be c0             	movsbl %al,%eax
    c4fb:	39 85 f4 f1 ff ff    	cmp    %eax,-0xe0c(%rbp)
    c501:	0f 94 c0             	sete   %al
    c504:	89 c2                	mov    %eax,%edx
    c506:	8b 85 f4 f1 ff ff    	mov    -0xe0c(%rbp),%eax
    c50c:	21 d0                	and    %edx,%eax
    c50e:	88 45 d6             	mov    %al,-0x2a(%rbp)
    c511:	0f b6 45 d6          	movzbl -0x2a(%rbp),%eax
    c515:	0f be c0             	movsbl %al,%eax
    c518:	41 39 c4             	cmp    %eax,%r12d
    c51b:	0f 95 c0             	setne  %al
    c51e:	0f b6 d0             	movzbl %al,%edx
    c521:	48 8b 85 b0 f2 ff ff 	mov    -0xd50(%rbp),%rax
    c528:	0f b6 00             	movzbl (%rax),%eax
    c52b:	8d 48 01             	lea    0x1(%rax),%ecx
    c52e:	48 8b 85 b0 f2 ff ff 	mov    -0xd50(%rbp),%rax
    c535:	88 08                	mov    %cl,(%rax)
    c537:	48 8b 85 b0 f2 ff ff 	mov    -0xd50(%rbp),%rax
    c53e:	0f b6 00             	movzbl (%rax),%eax
    c541:	0f b6 c0             	movzbl %al,%eax
    c544:	89 d6                	mov    %edx,%esi
    c546:	89 c7                	mov    %eax,%edi
    c548:	e8 2b 96 ff ff       	callq  5b78 <safe_sub_func_uint8_t_u_u>
    c54d:	0f b6 d0             	movzbl %al,%edx
    c550:	48 8b 85 f8 f1 ff ff 	mov    -0xe08(%rbp),%rax
    c557:	8b 00                	mov    (%rax),%eax
    c559:	39 c2                	cmp    %eax,%edx
    c55b:	0f 95 c0             	setne  %al
    c55e:	0f b6 d0             	movzbl %al,%edx
    c561:	48 8b 85 e8 f1 ff ff 	mov    -0xe18(%rbp),%rax
    c568:	0f b6 00             	movzbl (%rax),%eax
    c56b:	0f be c0             	movsbl %al,%eax
    c56e:	89 d6                	mov    %edx,%esi
    c570:	89 c7                	mov    %eax,%edi
    c572:	e8 7b 8c ff ff       	callq  51f2 <safe_sub_func_int8_t_s_s>
    c577:	48 0f be c0          	movsbq %al,%rax
    c57b:	25 ea fe 00 00       	and    $0xfeea,%eax
    c580:	48 89 c2             	mov    %rax,%rdx
    c583:	8b 85 f4 f1 ff ff    	mov    -0xe0c(%rbp),%eax
    c589:	48 39 c2             	cmp    %rax,%rdx
    c58c:	0f 9e c0             	setle  %al
    c58f:	0f b6 c0             	movzbl %al,%eax
    c592:	39 85 f4 f1 ff ff    	cmp    %eax,-0xe0c(%rbp)
    c598:	0f 93 c0             	setae  %al
    c59b:	0f b6 d0             	movzbl %al,%edx
    c59e:	0f b7 05 35 6c 00 00 	movzwl 0x6c35(%rip),%eax        # 131da <g_121+0xa>
    c5a5:	0f b7 c0             	movzwl %ax,%eax
    c5a8:	39 c2                	cmp    %eax,%edx
    c5aa:	0f 95 c0             	setne  %al
    c5ad:	0f b6 d0             	movzbl %al,%edx
    c5b0:	b8 f9 ff ff ff       	mov    $0xfffffff9,%eax
    c5b5:	0f be c0             	movsbl %al,%eax
    c5b8:	39 c2                	cmp    %eax,%edx
    c5ba:	0f 9e c0             	setle  %al
    c5bd:	0f b6 c0             	movzbl %al,%eax
    c5c0:	48 89 de             	mov    %rbx,%rsi
    c5c3:	48 89 c7             	mov    %rax,%rdi
    c5c6:	e8 76 92 ff ff       	callq  5841 <safe_add_func_int64_t_s_s>
    c5cb:	8b 95 f4 f1 ff ff    	mov    -0xe0c(%rbp),%edx
    c5d1:	48 39 d0             	cmp    %rdx,%rax
    c5d4:	0f 95 c0             	setne  %al
    c5d7:	0f b6 c0             	movzbl %al,%eax
    c5da:	39 85 f4 f1 ff ff    	cmp    %eax,-0xe0c(%rbp)
    c5e0:	0f 94 c2             	sete   %dl
    c5e3:	48 8b 05 d6 86 00 00 	mov    0x86d6(%rip),%rax        # 14cc0 <g_138>
    c5ea:	0f b6 d2             	movzbl %dl,%edx
    c5ed:	89 10                	mov    %edx,(%rax)
    c5ef:	48 8b 15 c2 86 00 00 	mov    0x86c2(%rip),%rdx        # 14cb8 <g_134>
    c5f6:	8b 00                	mov    (%rax),%eax
    c5f8:	89 02                	mov    %eax,(%rdx)
    c5fa:	48 8b 85 c8 f2 ff ff 	mov    -0xd38(%rbp),%rax
    c601:	48 c7 00 00 00 00 00 	movq   $0x0,(%rax)
    c608:	48 8b 05 91 88 00 00 	mov    0x8891(%rip),%rax        # 14ea0 <g_348>
    c60f:	48 8b 00             	mov    (%rax),%rax
    c612:	48 8b 5d d8          	mov    -0x28(%rbp),%rbx
    c616:	64 48 33 1c 25 28 00 	xor    %fs:0x28,%rbx
    c61d:	00 00 
    c61f:	74 05                	je     c626 <func_41+0x1439>
    c621:	e8 4a 8a ff ff       	callq  5070 <__stack_chk_fail@plt>
    c626:	48 81 c4 00 0e 00 00 	add    $0xe00,%rsp
    c62d:	5b                   	pop    %rbx
    c62e:	41 5c                	pop    %r12
    c630:	41 5d                	pop    %r13
    c632:	41 5e                	pop    %r14
    c634:	5d                   	pop    %rbp
    c635:	c3                   	retq   

000000000000c636 <func_54>:
    c636:	f3 0f 1e fa          	endbr64 
    c63a:	55                   	push   %rbp
    c63b:	48 89 e5             	mov    %rsp,%rbp
    c63e:	48 83 ec 40          	sub    $0x40,%rsp
    c642:	48 89 7d d8          	mov    %rdi,-0x28(%rbp)
    c646:	89 f0                	mov    %esi,%eax
    c648:	89 55 d0             	mov    %edx,-0x30(%rbp)
    c64b:	48 89 4d c8          	mov    %rcx,-0x38(%rbp)
    c64f:	44 89 c2             	mov    %r8d,%edx
    c652:	66 89 45 d4          	mov    %ax,-0x2c(%rbp)
    c656:	89 d0                	mov    %edx,%eax
    c658:	66 89 45 c4          	mov    %ax,-0x3c(%rbp)
    c65c:	64 48 8b 04 25 28 00 	mov    %fs:0x28,%rax
    c663:	00 00 
    c665:	48 89 45 f8          	mov    %rax,-0x8(%rbp)
    c669:	31 c0                	xor    %eax,%eax
    c66b:	48 8d 05 36 86 00 00 	lea    0x8636(%rip),%rax        # 14ca8 <g_127>
    c672:	48 89 45 e8          	mov    %rax,-0x18(%rbp)
    c676:	48 8d 45 e8          	lea    -0x18(%rbp),%rax
    c67a:	48 89 45 f0          	mov    %rax,-0x10(%rbp)
    c67e:	c7 45 e4 b8 63 b1 51 	movl   $0x51b163b8,-0x1c(%rbp)
    c685:	8b 55 e4             	mov    -0x1c(%rbp),%edx
    c688:	48 8d 45 e8          	lea    -0x18(%rbp),%rax
    c68c:	48 39 45 f0          	cmp    %rax,-0x10(%rbp)
    c690:	0f 95 c0             	setne  %al
    c693:	0f b6 c0             	movzbl %al,%eax
    c696:	89 d6                	mov    %edx,%esi
    c698:	89 c7                	mov    %eax,%edi
    c69a:	e8 5e 98 ff ff       	callq  5efd <safe_mod_func_uint32_t_u_u>
    c69f:	48 8b 15 12 86 00 00 	mov    0x8612(%rip),%rdx        # 14cb8 <g_134>
    c6a6:	8b 12                	mov    (%rdx),%edx
    c6a8:	21 c2                	and    %eax,%edx
    c6aa:	48 8b 05 07 86 00 00 	mov    0x8607(%rip),%rax        # 14cb8 <g_134>
    c6b1:	89 10                	mov    %edx,(%rax)
    c6b3:	8b 45 d0             	mov    -0x30(%rbp),%eax
    c6b6:	48 8b 4d f8          	mov    -0x8(%rbp),%rcx
    c6ba:	64 48 33 0c 25 28 00 	xor    %fs:0x28,%rcx
    c6c1:	00 00 
    c6c3:	74 05                	je     c6ca <func_54+0x94>
    c6c5:	e8 a6 89 ff ff       	callq  5070 <__stack_chk_fail@plt>
    c6ca:	c9                   	leaveq 
    c6cb:	c3                   	retq   

000000000000c6cc <func_60>:
    c6cc:	f3 0f 1e fa          	endbr64 
    c6d0:	55                   	push   %rbp
    c6d1:	48 89 e5             	mov    %rsp,%rbp
    c6d4:	41 56                	push   %r14
    c6d6:	41 55                	push   %r13
    c6d8:	41 54                	push   %r12
    c6da:	53                   	push   %rbx
    c6db:	48 81 ec 70 06 00 00 	sub    $0x670,%rsp
    c6e2:	89 bd 7c f9 ff ff    	mov    %edi,-0x684(%rbp)
    c6e8:	89 f0                	mov    %esi,%eax
    c6ea:	66 89 85 78 f9 ff ff 	mov    %ax,-0x688(%rbp)
    c6f1:	64 48 8b 04 25 28 00 	mov    %fs:0x28,%rax
    c6f8:	00 00 
    c6fa:	48 89 45 d8          	mov    %rax,-0x28(%rbp)
    c6fe:	31 c0                	xor    %eax,%eax
    c700:	c7 85 f0 fa ff ff fd 	movl   $0xfffffffd,-0x510(%rbp)
    c707:	ff ff ff 
    c70a:	c7 85 f4 fa ff ff f3 	movl   $0x1efd3bf3,-0x50c(%rbp)
    c711:	3b fd 1e 
    c714:	c7 85 f8 fa ff ff f3 	movl   $0x1efd3bf3,-0x508(%rbp)
    c71b:	3b fd 1e 
    c71e:	c7 85 fc fa ff ff fd 	movl   $0xfffffffd,-0x504(%rbp)
    c725:	ff ff ff 
    c728:	c7 85 00 fb ff ff f3 	movl   $0x1efd3bf3,-0x500(%rbp)
    c72f:	3b fd 1e 
    c732:	c7 85 04 fb ff ff f3 	movl   $0x1efd3bf3,-0x4fc(%rbp)
    c739:	3b fd 1e 
    c73c:	c7 85 08 fb ff ff fd 	movl   $0xfffffffd,-0x4f8(%rbp)
    c743:	ff ff ff 
    c746:	c7 85 0c fb ff ff f3 	movl   $0x1efd3bf3,-0x4f4(%rbp)
    c74d:	3b fd 1e 
    c750:	c7 85 10 fb ff ff f3 	movl   $0x1efd3bf3,-0x4f0(%rbp)
    c757:	3b fd 1e 
    c75a:	c7 85 14 fb ff ff fd 	movl   $0xfffffffd,-0x4ec(%rbp)
    c761:	ff ff ff 
    c764:	c7 85 18 fb ff ff f3 	movl   $0x1efd3bf3,-0x4e8(%rbp)
    c76b:	3b fd 1e 
    c76e:	c7 85 1c fb ff ff f3 	movl   $0x1efd3bf3,-0x4e4(%rbp)
    c775:	3b fd 1e 
    c778:	c7 85 20 fb ff ff fd 	movl   $0xfffffffd,-0x4e0(%rbp)
    c77f:	ff ff ff 
    c782:	c7 85 24 fb ff ff f3 	movl   $0x1efd3bf3,-0x4dc(%rbp)
    c789:	3b fd 1e 
    c78c:	c7 85 28 fb ff ff f3 	movl   $0x1efd3bf3,-0x4d8(%rbp)
    c793:	3b fd 1e 
    c796:	c7 85 2c fb ff ff fd 	movl   $0xfffffffd,-0x4d4(%rbp)
    c79d:	ff ff ff 
    c7a0:	c7 85 30 fb ff ff f3 	movl   $0x1efd3bf3,-0x4d0(%rbp)
    c7a7:	3b fd 1e 
    c7aa:	c7 85 34 fb ff ff f3 	movl   $0x1efd3bf3,-0x4cc(%rbp)
    c7b1:	3b fd 1e 
    c7b4:	c7 85 38 fb ff ff fd 	movl   $0xfffffffd,-0x4c8(%rbp)
    c7bb:	ff ff ff 
    c7be:	c7 85 3c fb ff ff f3 	movl   $0x1efd3bf3,-0x4c4(%rbp)
    c7c5:	3b fd 1e 
    c7c8:	c7 85 40 fb ff ff f3 	movl   $0x1efd3bf3,-0x4c0(%rbp)
    c7cf:	3b fd 1e 
    c7d2:	c7 85 44 fb ff ff fd 	movl   $0xfffffffd,-0x4bc(%rbp)
    c7d9:	ff ff ff 
    c7dc:	c7 85 48 fb ff ff f3 	movl   $0x1efd3bf3,-0x4b8(%rbp)
    c7e3:	3b fd 1e 
    c7e6:	c7 85 4c fb ff ff f3 	movl   $0x1efd3bf3,-0x4b4(%rbp)
    c7ed:	3b fd 1e 
    c7f0:	48 8d 05 b1 84 00 00 	lea    0x84b1(%rip),%rax        # 14ca8 <g_127>
    c7f7:	48 89 85 b0 f9 ff ff 	mov    %rax,-0x650(%rbp)
    c7fe:	48 8d 85 b0 f9 ff ff 	lea    -0x650(%rbp),%rax
    c805:	48 89 85 c8 f9 ff ff 	mov    %rax,-0x638(%rbp)
    c80c:	c7 85 9c f9 ff ff f6 	movl   $0xfffffff6,-0x664(%rbp)
    c813:	ff ff ff 
    c816:	48 c7 85 d0 f9 ff ff 	movq   $0x0,-0x630(%rbp)
    c81d:	00 00 00 00 
    c821:	48 8d 05 98 69 00 00 	lea    0x6998(%rip),%rax        # 131c0 <g_113>
    c828:	48 89 85 d8 f9 ff ff 	mov    %rax,-0x628(%rbp)
    c82f:	c7 85 90 f9 ff ff 00 	movl   $0x0,-0x670(%rbp)
    c836:	00 00 00 
    c839:	eb 1e                	jmp    c859 <func_60+0x18d>
    c83b:	8b 85 90 f9 ff ff    	mov    -0x670(%rbp),%eax
    c841:	48 98                	cltq   
    c843:	48 8d 15 da 67 00 00 	lea    0x67da(%rip),%rdx        # 13024 <g_21>
    c84a:	48 89 94 c5 40 fa ff 	mov    %rdx,-0x5c0(%rbp,%rax,8)
    c851:	ff 
    c852:	83 85 90 f9 ff ff 01 	addl   $0x1,-0x670(%rbp)
    c859:	83 bd 90 f9 ff ff 03 	cmpl   $0x3,-0x670(%rbp)
    c860:	7e d9                	jle    c83b <func_60+0x16f>
    c862:	48 8b 05 4f 84 00 00 	mov    0x844f(%rip),%rax        # 14cb8 <g_134>
    c869:	c7 00 4b f3 c8 4f    	movl   $0x4fc8f34b,(%rax)
    c86f:	c7 85 7c f9 ff ff 00 	movl   $0x0,-0x684(%rbp)
    c876:	00 00 00 
    c879:	83 bd 7c f9 ff ff 02 	cmpl   $0x2,-0x684(%rbp)
    c880:	0f 85 13 0c 00 00    	jne    d499 <func_60+0xdcd>
    c886:	48 8d 05 ab 67 00 00 	lea    0x67ab(%rip),%rax        # 13038 <g_48>
    c88d:	48 89 85 f8 f9 ff ff 	mov    %rax,-0x608(%rbp)
    c894:	48 8d 05 89 67 00 00 	lea    0x6789(%rip),%rax        # 13024 <g_21>
    c89b:	48 89 85 b8 f9 ff ff 	mov    %rax,-0x648(%rbp)
    c8a2:	c7 85 a4 f9 ff ff c2 	movl   $0x662131c2,-0x65c(%rbp)
    c8a9:	31 21 66 
    c8ac:	c7 85 60 fa ff ff fc 	movl   $0xfffffffc,-0x5a0(%rbp)
    c8b3:	ff ff ff 
    c8b6:	c7 85 64 fa ff ff fc 	movl   $0xfffffffc,-0x59c(%rbp)
    c8bd:	ff ff ff 
    c8c0:	c7 85 68 fa ff ff 03 	movl   $0x3,-0x598(%rbp)
    c8c7:	00 00 00 
    c8ca:	c7 85 6c fa ff ff 32 	movl   $0x73d22e32,-0x594(%rbp)
    c8d1:	2e d2 73 
    c8d4:	c7 85 70 fa ff ff 03 	movl   $0x3,-0x590(%rbp)
    c8db:	00 00 00 
    c8de:	c7 85 74 fa ff ff 03 	movl   $0x3,-0x58c(%rbp)
    c8e5:	00 00 00 
    c8e8:	c7 85 78 fa ff ff 03 	movl   $0x3,-0x588(%rbp)
    c8ef:	00 00 00 
    c8f2:	c7 85 7c fa ff ff 00 	movl   $0x7e044800,-0x584(%rbp)
    c8f9:	48 04 7e 
    c8fc:	c7 85 80 fa ff ff 52 	movl   $0x8073f352,-0x580(%rbp)
    c903:	f3 73 80 
    c906:	c7 85 84 fa ff ff 32 	movl   $0x73d22e32,-0x57c(%rbp)
    c90d:	2e d2 73 
    c910:	c7 85 88 fa ff ff 00 	movl   $0x7e044800,-0x578(%rbp)
    c917:	48 04 7e 
    c91a:	c7 85 8c fa ff ff 32 	movl   $0x73d22e32,-0x574(%rbp)
    c921:	2e d2 73 
    c924:	c7 85 90 fa ff ff fc 	movl   $0xfffffffc,-0x570(%rbp)
    c92b:	ff ff ff 
    c92e:	c7 85 94 fa ff ff 03 	movl   $0x3,-0x56c(%rbp)
    c935:	00 00 00 
    c938:	c7 85 98 fa ff ff 52 	movl   $0x8073f352,-0x568(%rbp)
    c93f:	f3 73 80 
    c942:	48 c7 85 00 fa ff ff 	movq   $0x0,-0x600(%rbp)
    c949:	00 00 00 00 
    c94d:	c7 05 61 68 00 00 00 	movl   $0x0,0x6861(%rip)        # 131b8 <g_94>
    c954:	00 00 00 
    c957:	e9 f7 02 00 00       	jmpq   cc53 <func_60+0x587>
    c95c:	48 c7 85 18 fa ff ff 	movq   $0x0,-0x5e8(%rbp)
    c963:	00 00 00 00 
    c967:	48 c7 85 20 fa ff ff 	movq   $0x0,-0x5e0(%rbp)
    c96e:	00 00 00 00 
    c972:	c7 85 84 f9 ff ff 01 	movl   $0x1,-0x67c(%rbp)
    c979:	00 00 00 
    c97c:	48 8d 05 85 6e 00 00 	lea    0x6e85(%rip),%rax        # 13808 <g_202+0x5c8>
    c983:	48 89 85 28 fa ff ff 	mov    %rax,-0x5d8(%rbp)
    c98a:	48 8d 05 23 68 00 00 	lea    0x6823(%rip),%rax        # 131b4 <g_75>
    c991:	48 89 85 30 fa ff ff 	mov    %rax,-0x5d0(%rbp)
    c998:	48 8d 05 99 66 00 00 	lea    0x6699(%rip),%rax        # 13038 <g_48>
    c99f:	48 89 85 50 fb ff ff 	mov    %rax,-0x4b0(%rbp)
    c9a6:	48 8d 05 8b 66 00 00 	lea    0x668b(%rip),%rax        # 13038 <g_48>
    c9ad:	48 89 85 58 fb ff ff 	mov    %rax,-0x4a8(%rbp)
    c9b4:	48 8d 05 7d 66 00 00 	lea    0x667d(%rip),%rax        # 13038 <g_48>
    c9bb:	48 89 85 60 fb ff ff 	mov    %rax,-0x4a0(%rbp)
    c9c2:	48 8d 05 6f 66 00 00 	lea    0x666f(%rip),%rax        # 13038 <g_48>
    c9c9:	48 89 85 68 fb ff ff 	mov    %rax,-0x498(%rbp)
    c9d0:	48 8d 05 61 66 00 00 	lea    0x6661(%rip),%rax        # 13038 <g_48>
    c9d7:	48 89 85 70 fb ff ff 	mov    %rax,-0x490(%rbp)
    c9de:	48 8d 05 53 66 00 00 	lea    0x6653(%rip),%rax        # 13038 <g_48>
    c9e5:	48 89 85 78 fb ff ff 	mov    %rax,-0x488(%rbp)
    c9ec:	48 8d 05 45 66 00 00 	lea    0x6645(%rip),%rax        # 13038 <g_48>
    c9f3:	48 89 85 80 fb ff ff 	mov    %rax,-0x480(%rbp)
    c9fa:	48 8d 05 37 66 00 00 	lea    0x6637(%rip),%rax        # 13038 <g_48>
    ca01:	48 89 85 88 fb ff ff 	mov    %rax,-0x478(%rbp)
    ca08:	48 8d 05 29 66 00 00 	lea    0x6629(%rip),%rax        # 13038 <g_48>
    ca0f:	48 89 85 90 fb ff ff 	mov    %rax,-0x470(%rbp)
    ca16:	48 8d 05 1b 66 00 00 	lea    0x661b(%rip),%rax        # 13038 <g_48>
    ca1d:	48 89 85 98 fb ff ff 	mov    %rax,-0x468(%rbp)
    ca24:	48 8d 05 0d 66 00 00 	lea    0x660d(%rip),%rax        # 13038 <g_48>
    ca2b:	48 89 85 a0 fb ff ff 	mov    %rax,-0x460(%rbp)
    ca32:	48 8d 05 ff 65 00 00 	lea    0x65ff(%rip),%rax        # 13038 <g_48>
    ca39:	48 89 85 a8 fb ff ff 	mov    %rax,-0x458(%rbp)
    ca40:	48 8d 05 dd 65 00 00 	lea    0x65dd(%rip),%rax        # 13024 <g_21>
    ca47:	48 89 85 c0 f9 ff ff 	mov    %rax,-0x640(%rbp)
    ca4e:	48 8d 85 b8 f9 ff ff 	lea    -0x648(%rbp),%rax
    ca55:	48 89 85 a0 fa ff ff 	mov    %rax,-0x560(%rbp)
    ca5c:	48 8d 85 b8 f9 ff ff 	lea    -0x648(%rbp),%rax
    ca63:	48 89 85 a8 fa ff ff 	mov    %rax,-0x558(%rbp)
    ca6a:	48 8d 85 b8 f9 ff ff 	lea    -0x648(%rbp),%rax
    ca71:	48 89 85 b0 fa ff ff 	mov    %rax,-0x550(%rbp)
    ca78:	48 8d 85 b8 f9 ff ff 	lea    -0x648(%rbp),%rax
    ca7f:	48 89 85 b8 fa ff ff 	mov    %rax,-0x548(%rbp)
    ca86:	48 8d 85 b8 f9 ff ff 	lea    -0x648(%rbp),%rax
    ca8d:	48 89 85 c0 fa ff ff 	mov    %rax,-0x540(%rbp)
    ca94:	48 8d 85 b8 f9 ff ff 	lea    -0x648(%rbp),%rax
    ca9b:	48 89 85 c8 fa ff ff 	mov    %rax,-0x538(%rbp)
    caa2:	48 8d 85 b8 f9 ff ff 	lea    -0x648(%rbp),%rax
    caa9:	48 89 85 d0 fa ff ff 	mov    %rax,-0x530(%rbp)
    cab0:	48 8d 85 b8 f9 ff ff 	lea    -0x648(%rbp),%rax
    cab7:	48 89 85 d8 fa ff ff 	mov    %rax,-0x528(%rbp)
    cabe:	48 8d 85 b8 f9 ff ff 	lea    -0x648(%rbp),%rax
    cac5:	48 89 85 e0 fa ff ff 	mov    %rax,-0x520(%rbp)
    cacc:	48 8d 85 c0 f9 ff ff 	lea    -0x640(%rbp),%rax
    cad3:	48 89 85 38 fa ff ff 	mov    %rax,-0x5c8(%rbp)
    cada:	8b 85 84 f9 ff ff    	mov    -0x67c(%rbp),%eax
    cae0:	35 04 9d 0d 59       	xor    $0x590d9d04,%eax
    cae5:	89 85 84 f9 ff ff    	mov    %eax,-0x67c(%rbp)
    caeb:	48 83 bd f8 f9 ff ff 	cmpq   $0x0,-0x608(%rbp)
    caf2:	00 
    caf3:	0f 94 c0             	sete   %al
    caf6:	0f b6 c0             	movzbl %al,%eax
    caf9:	89 c7                	mov    %eax,%edi
    cafb:	e8 e9 91 ff ff       	callq  5ce9 <safe_unary_minus_func_uint16_t_u>
    cb00:	0f b7 d8             	movzwl %ax,%ebx
    cb03:	48 8b 05 ae 81 00 00 	mov    0x81ae(%rip),%rax        # 14cb8 <g_134>
    cb0a:	8b 00                	mov    (%rax),%eax
    cb0c:	89 c1                	mov    %eax,%ecx
    cb0e:	8b 85 7c f9 ff ff    	mov    -0x684(%rbp),%eax
    cb14:	48 63 d0             	movslq %eax,%rdx
    cb17:	48 8b 85 28 fa ff ff 	mov    -0x5d8(%rbp),%rax
    cb1e:	48 8b 00             	mov    (%rax),%rax
    cb21:	48 89 c6             	mov    %rax,%rsi
    cb24:	48 b8 fb cb 6a c6 51 	movabs $0xfc37b351c66acbfb,%rax
    cb2b:	b3 37 fc 
    cb2e:	48 09 f0             	or     %rsi,%rax
    cb31:	48 89 c6             	mov    %rax,%rsi
    cb34:	48 8b 85 28 fa ff ff 	mov    -0x5d8(%rbp),%rax
    cb3b:	48 89 30             	mov    %rsi,(%rax)
    cb3e:	48 8b 85 28 fa ff ff 	mov    -0x5d8(%rbp),%rax
    cb45:	48 8b 00             	mov    (%rax),%rax
    cb48:	48 31 c2             	xor    %rax,%rdx
    cb4b:	48 0f bf 85 78 f9 ff 	movswq -0x688(%rbp),%rax
    cb52:	ff 
    cb53:	48 39 c2             	cmp    %rax,%rdx
    cb56:	0f 9f c0             	setg   %al
    cb59:	0f b6 c0             	movzbl %al,%eax
    cb5c:	89 ce                	mov    %ecx,%esi
    cb5e:	89 c7                	mov    %eax,%edi
    cb60:	e8 6b 93 ff ff       	callq  5ed0 <safe_sub_func_uint32_t_u_u>
    cb65:	48 8b 95 f8 f9 ff ff 	mov    -0x608(%rbp),%rdx
    cb6c:	8b 12                	mov    (%rdx),%edx
    cb6e:	39 d0                	cmp    %edx,%eax
    cb70:	0f 96 c0             	setbe  %al
    cb73:	0f b6 d0             	movzbl %al,%edx
    cb76:	0f b6 05 a7 64 00 00 	movzbl 0x64a7(%rip),%eax        # 13024 <g_21>
    cb7d:	0f be c0             	movsbl %al,%eax
    cb80:	39 c2                	cmp    %eax,%edx
    cb82:	0f 9f c0             	setg   %al
    cb85:	0f b6 c0             	movzbl %al,%eax
    cb88:	39 c3                	cmp    %eax,%ebx
    cb8a:	0f 9d c0             	setge  %al
    cb8d:	0f b6 d0             	movzbl %al,%edx
    cb90:	48 8b 85 30 fa ff ff 	mov    -0x5d0(%rbp),%rax
    cb97:	89 10                	mov    %edx,(%rax)
    cb99:	48 8b 85 30 fa ff ff 	mov    -0x5d0(%rbp),%rax
    cba0:	8b 10                	mov    (%rax),%edx
    cba2:	8b 05 28 6d 00 00    	mov    0x6d28(%rip),%eax        # 138d0 <g_205>
    cba8:	09 d0                	or     %edx,%eax
    cbaa:	89 05 20 6d 00 00    	mov    %eax,0x6d20(%rip)        # 138d0 <g_205>
    cbb0:	66 c7 85 78 f9 ff ff 	movw   $0x0,-0x688(%rbp)
    cbb7:	00 00 
    cbb9:	66 83 bd 78 f9 ff ff 	cmpw   $0xffeb,-0x688(%rbp)
    cbc0:	eb 
    cbc1:	7d 0c                	jge    cbcf <func_60+0x503>
    cbc3:	48 8b 85 c0 f9 ff ff 	mov    -0x640(%rbp),%rax
    cbca:	e9 94 0b 00 00       	jmpq   d763 <func_60+0x1097>
    cbcf:	48 8b 85 50 fa ff ff 	mov    -0x5b0(%rbp),%rax
    cbd6:	48 8d 95 84 f9 ff ff 	lea    -0x67c(%rbp),%rdx
    cbdd:	be 01 00 00 00       	mov    $0x1,%esi
    cbe2:	48 89 c7             	mov    %rax,%rdi
    cbe5:	e8 f5 0c 00 00       	callq  d8df <func_82>
    cbea:	48 89 c6             	mov    %rax,%rsi
    cbed:	48 8b 95 c0 f9 ff ff 	mov    -0x640(%rbp),%rdx
    cbf4:	48 8b 85 38 fa ff ff 	mov    -0x5c8(%rbp),%rax
    cbfb:	48 89 10             	mov    %rdx,(%rax)
    cbfe:	48 8b 85 38 fa ff ff 	mov    -0x5c8(%rbp),%rax
    cc05:	48 8b 08             	mov    (%rax),%rcx
    cc08:	48 8b 85 b8 f9 ff ff 	mov    -0x648(%rbp),%rax
    cc0f:	48 89 85 b8 f9 ff ff 	mov    %rax,-0x648(%rbp)
    cc16:	48 8b 85 b8 f9 ff ff 	mov    -0x648(%rbp),%rax
    cc1d:	48 8b 1d 84 80 00 00 	mov    0x8084(%rip),%rbx        # 14ca8 <g_127>
    cc24:	48 89 f2             	mov    %rsi,%rdx
    cc27:	48 89 ce             	mov    %rcx,%rsi
    cc2a:	48 89 c7             	mov    %rax,%rdi
    cc2d:	e8 8d 0c 00 00       	callq  d8bf <func_78>
    cc32:	48 89 03             	mov    %rax,(%rbx)
    cc35:	8b 05 7d 65 00 00    	mov    0x657d(%rip),%eax        # 131b8 <g_94>
    cc3b:	0f b6 c0             	movzbl %al,%eax
    cc3e:	be 06 00 00 00       	mov    $0x6,%esi
    cc43:	89 c7                	mov    %eax,%edi
    cc45:	e8 10 8f ff ff       	callq  5b5a <safe_add_func_uint8_t_u_u>
    cc4a:	0f b6 c0             	movzbl %al,%eax
    cc4d:	89 05 65 65 00 00    	mov    %eax,0x6565(%rip)        # 131b8 <g_94>
    cc53:	8b 05 5f 65 00 00    	mov    0x655f(%rip),%eax        # 131b8 <g_94>
    cc59:	83 f8 1d             	cmp    $0x1d,%eax
    cc5c:	0f 8f fa fc ff ff    	jg     c95c <func_60+0x290>
    cc62:	c7 05 4c 65 00 00 00 	movl   $0x0,0x654c(%rip)        # 131b8 <g_94>
    cc69:	00 00 00 
    cc6c:	e9 0d 08 00 00       	jmpq   d47e <func_60+0xdb2>
    cc71:	48 8d 05 88 65 00 00 	lea    0x6588(%rip),%rax        # 13200 <g_128>
    cc78:	48 89 85 08 fa ff ff 	mov    %rax,-0x5f8(%rbp)
    cc7f:	c7 85 a8 f9 ff ff f7 	movl   $0xfffffff7,-0x658(%rbp)
    cc86:	ff ff ff 
    cc89:	c7 85 ac f9 ff ff 08 	movl   $0x8,-0x654(%rbp)
    cc90:	00 00 00 
    cc93:	48 8d 05 1a 65 00 00 	lea    0x651a(%rip),%rax        # 131b4 <g_75>
    cc9a:	48 89 85 10 fa ff ff 	mov    %rax,-0x5f0(%rbp)
    cca1:	48 8d 85 f0 fa ff ff 	lea    -0x510(%rbp),%rax
    cca8:	48 83 c0 50          	add    $0x50,%rax
    ccac:	48 89 85 50 fb ff ff 	mov    %rax,-0x4b0(%rbp)
    ccb3:	48 8d 85 f0 fa ff ff 	lea    -0x510(%rbp),%rax
    ccba:	48 83 c0 04          	add    $0x4,%rax
    ccbe:	48 89 85 58 fb ff ff 	mov    %rax,-0x4a8(%rbp)
    ccc5:	48 c7 85 60 fb ff ff 	movq   $0x0,-0x4a0(%rbp)
    cccc:	00 00 00 00 
    ccd0:	48 8d 05 f9 6b 00 00 	lea    0x6bf9(%rip),%rax        # 138d0 <g_205>
    ccd7:	48 89 85 68 fb ff ff 	mov    %rax,-0x498(%rbp)
    ccde:	48 8d 85 f0 fa ff ff 	lea    -0x510(%rbp),%rax
    cce5:	48 83 c0 04          	add    $0x4,%rax
    cce9:	48 89 85 70 fb ff ff 	mov    %rax,-0x490(%rbp)
    ccf0:	48 c7 85 78 fb ff ff 	movq   $0x0,-0x488(%rbp)
    ccf7:	00 00 00 00 
    ccfb:	48 c7 85 80 fb ff ff 	movq   $0x0,-0x480(%rbp)
    cd02:	00 00 00 00 
    cd06:	48 c7 85 88 fb ff ff 	movq   $0x0,-0x478(%rbp)
    cd0d:	00 00 00 00 
    cd11:	48 c7 85 90 fb ff ff 	movq   $0x0,-0x470(%rbp)
    cd18:	00 00 00 00 
    cd1c:	48 8d 05 19 63 00 00 	lea    0x6319(%rip),%rax        # 1303c <g_51>
    cd23:	48 89 85 98 fb ff ff 	mov    %rax,-0x468(%rbp)
    cd2a:	48 8d 05 0b 63 00 00 	lea    0x630b(%rip),%rax        # 1303c <g_51>
    cd31:	48 89 85 a0 fb ff ff 	mov    %rax,-0x460(%rbp)
    cd38:	48 8d 05 91 6b 00 00 	lea    0x6b91(%rip),%rax        # 138d0 <g_205>
    cd3f:	48 89 85 a8 fb ff ff 	mov    %rax,-0x458(%rbp)
    cd46:	48 8d 85 f0 fa ff ff 	lea    -0x510(%rbp),%rax
    cd4d:	48 83 c0 28          	add    $0x28,%rax
    cd51:	48 89 85 b0 fb ff ff 	mov    %rax,-0x450(%rbp)
    cd58:	48 8d 05 71 6b 00 00 	lea    0x6b71(%rip),%rax        # 138d0 <g_205>
    cd5f:	48 89 85 b8 fb ff ff 	mov    %rax,-0x448(%rbp)
    cd66:	48 8d 05 cf 62 00 00 	lea    0x62cf(%rip),%rax        # 1303c <g_51>
    cd6d:	48 89 85 c0 fb ff ff 	mov    %rax,-0x440(%rbp)
    cd74:	48 8d 05 c1 62 00 00 	lea    0x62c1(%rip),%rax        # 1303c <g_51>
    cd7b:	48 89 85 c8 fb ff ff 	mov    %rax,-0x438(%rbp)
    cd82:	48 8d 05 47 6b 00 00 	lea    0x6b47(%rip),%rax        # 138d0 <g_205>
    cd89:	48 89 85 d0 fb ff ff 	mov    %rax,-0x430(%rbp)
    cd90:	48 c7 85 d8 fb ff ff 	movq   $0x0,-0x428(%rbp)
    cd97:	00 00 00 00 
    cd9b:	48 8d 05 12 64 00 00 	lea    0x6412(%rip),%rax        # 131b4 <g_75>
    cda2:	48 89 85 e0 fb ff ff 	mov    %rax,-0x420(%rbp)
    cda9:	48 8d 85 f0 fa ff ff 	lea    -0x510(%rbp),%rax
    cdb0:	48 83 c0 04          	add    $0x4,%rax
    cdb4:	48 89 85 e8 fb ff ff 	mov    %rax,-0x418(%rbp)
    cdbb:	48 8d 05 66 62 00 00 	lea    0x6266(%rip),%rax        # 13028 <g_23>
    cdc2:	48 89 85 f0 fb ff ff 	mov    %rax,-0x410(%rbp)
    cdc9:	48 8d 85 f0 fa ff ff 	lea    -0x510(%rbp),%rax
    cdd0:	48 83 c0 50          	add    $0x50,%rax
    cdd4:	48 89 85 f8 fb ff ff 	mov    %rax,-0x408(%rbp)
    cddb:	48 c7 85 00 fc ff ff 	movq   $0x0,-0x400(%rbp)
    cde2:	00 00 00 00 
    cde6:	48 8d 05 3b 62 00 00 	lea    0x623b(%rip),%rax        # 13028 <g_23>
    cded:	48 89 85 08 fc ff ff 	mov    %rax,-0x3f8(%rbp)
    cdf4:	48 c7 85 10 fc ff ff 	movq   $0x0,-0x3f0(%rbp)
    cdfb:	00 00 00 00 
    cdff:	48 8d 05 22 62 00 00 	lea    0x6222(%rip),%rax        # 13028 <g_23>
    ce06:	48 89 85 18 fc ff ff 	mov    %rax,-0x3e8(%rbp)
    ce0d:	48 c7 85 20 fc ff ff 	movq   $0x0,-0x3e0(%rbp)
    ce14:	00 00 00 00 
    ce18:	48 8d 05 95 63 00 00 	lea    0x6395(%rip),%rax        # 131b4 <g_75>
    ce1f:	48 89 85 28 fc ff ff 	mov    %rax,-0x3d8(%rbp)
    ce26:	48 8d 05 a3 6a 00 00 	lea    0x6aa3(%rip),%rax        # 138d0 <g_205>
    ce2d:	48 89 85 30 fc ff ff 	mov    %rax,-0x3d0(%rbp)
    ce34:	48 8d 05 95 6a 00 00 	lea    0x6a95(%rip),%rax        # 138d0 <g_205>
    ce3b:	48 89 85 38 fc ff ff 	mov    %rax,-0x3c8(%rbp)
    ce42:	48 8d 05 6b 63 00 00 	lea    0x636b(%rip),%rax        # 131b4 <g_75>
    ce49:	48 89 85 40 fc ff ff 	mov    %rax,-0x3c0(%rbp)
    ce50:	48 8d 05 79 6a 00 00 	lea    0x6a79(%rip),%rax        # 138d0 <g_205>
    ce57:	48 89 85 48 fc ff ff 	mov    %rax,-0x3b8(%rbp)
    ce5e:	48 c7 85 50 fc ff ff 	movq   $0x0,-0x3b0(%rbp)
    ce65:	00 00 00 00 
    ce69:	48 8d 05 44 63 00 00 	lea    0x6344(%rip),%rax        # 131b4 <g_75>
    ce70:	48 89 85 58 fc ff ff 	mov    %rax,-0x3a8(%rbp)
    ce77:	48 8d 05 52 6a 00 00 	lea    0x6a52(%rip),%rax        # 138d0 <g_205>
    ce7e:	48 89 85 60 fc ff ff 	mov    %rax,-0x3a0(%rbp)
    ce85:	48 c7 85 68 fc ff ff 	movq   $0x0,-0x398(%rbp)
    ce8c:	00 00 00 00 
    ce90:	48 c7 85 70 fc ff ff 	movq   $0x0,-0x390(%rbp)
    ce97:	00 00 00 00 
    ce9b:	48 c7 85 78 fc ff ff 	movq   $0x0,-0x388(%rbp)
    cea2:	00 00 00 00 
    cea6:	48 c7 85 80 fc ff ff 	movq   $0x0,-0x380(%rbp)
    cead:	00 00 00 00 
    ceb1:	48 8d 85 f0 fa ff ff 	lea    -0x510(%rbp),%rax
    ceb8:	48 83 c0 50          	add    $0x50,%rax
    cebc:	48 89 85 88 fc ff ff 	mov    %rax,-0x378(%rbp)
    cec3:	48 8d 85 f0 fa ff ff 	lea    -0x510(%rbp),%rax
    ceca:	48 83 c0 38          	add    $0x38,%rax
    cece:	48 89 85 90 fc ff ff 	mov    %rax,-0x370(%rbp)
    ced5:	48 8d 85 f0 fa ff ff 	lea    -0x510(%rbp),%rax
    cedc:	48 83 c0 38          	add    $0x38,%rax
    cee0:	48 89 85 98 fc ff ff 	mov    %rax,-0x368(%rbp)
    cee7:	48 8d 85 f0 fa ff ff 	lea    -0x510(%rbp),%rax
    ceee:	48 83 c0 50          	add    $0x50,%rax
    cef2:	48 89 85 a0 fc ff ff 	mov    %rax,-0x360(%rbp)
    cef9:	48 c7 85 a8 fc ff ff 	movq   $0x0,-0x358(%rbp)
    cf00:	00 00 00 00 
    cf04:	48 c7 85 b0 fc ff ff 	movq   $0x0,-0x350(%rbp)
    cf0b:	00 00 00 00 
    cf0f:	48 8d 05 9e 62 00 00 	lea    0x629e(%rip),%rax        # 131b4 <g_75>
    cf16:	48 89 85 b8 fc ff ff 	mov    %rax,-0x348(%rbp)
    cf1d:	48 8d 05 ac 69 00 00 	lea    0x69ac(%rip),%rax        # 138d0 <g_205>
    cf24:	48 89 85 c0 fc ff ff 	mov    %rax,-0x340(%rbp)
    cf2b:	48 c7 85 c8 fc ff ff 	movq   $0x0,-0x338(%rbp)
    cf32:	00 00 00 00 
    cf36:	48 8d 85 f0 fa ff ff 	lea    -0x510(%rbp),%rax
    cf3d:	48 83 c0 28          	add    $0x28,%rax
    cf41:	48 89 85 d0 fc ff ff 	mov    %rax,-0x330(%rbp)
    cf48:	48 8d 05 81 69 00 00 	lea    0x6981(%rip),%rax        # 138d0 <g_205>
    cf4f:	48 89 85 d8 fc ff ff 	mov    %rax,-0x328(%rbp)
    cf56:	48 8d 05 73 69 00 00 	lea    0x6973(%rip),%rax        # 138d0 <g_205>
    cf5d:	48 89 85 e0 fc ff ff 	mov    %rax,-0x320(%rbp)
    cf64:	48 8d 05 65 69 00 00 	lea    0x6965(%rip),%rax        # 138d0 <g_205>
    cf6b:	48 89 85 e8 fc ff ff 	mov    %rax,-0x318(%rbp)
    cf72:	48 c7 85 f0 fc ff ff 	movq   $0x0,-0x310(%rbp)
    cf79:	00 00 00 00 
    cf7d:	48 c7 85 f8 fc ff ff 	movq   $0x0,-0x308(%rbp)
    cf84:	00 00 00 00 
    cf88:	48 c7 85 00 fd ff ff 	movq   $0x0,-0x300(%rbp)
    cf8f:	00 00 00 00 
    cf93:	48 8d 85 f0 fa ff ff 	lea    -0x510(%rbp),%rax
    cf9a:	48 83 c0 38          	add    $0x38,%rax
    cf9e:	48 89 85 08 fd ff ff 	mov    %rax,-0x2f8(%rbp)
    cfa5:	48 c7 85 10 fd ff ff 	movq   $0x0,-0x2f0(%rbp)
    cfac:	00 00 00 00 
    cfb0:	48 8d 05 19 69 00 00 	lea    0x6919(%rip),%rax        # 138d0 <g_205>
    cfb7:	48 89 85 18 fd ff ff 	mov    %rax,-0x2e8(%rbp)
    cfbe:	48 c7 85 20 fd ff ff 	movq   $0x0,-0x2e0(%rbp)
    cfc5:	00 00 00 00 
    cfc9:	48 8d 85 f0 fa ff ff 	lea    -0x510(%rbp),%rax
    cfd0:	48 83 c0 38          	add    $0x38,%rax
    cfd4:	48 89 85 28 fd ff ff 	mov    %rax,-0x2d8(%rbp)
    cfdb:	48 c7 85 30 fd ff ff 	movq   $0x0,-0x2d0(%rbp)
    cfe2:	00 00 00 00 
    cfe6:	48 c7 85 38 fd ff ff 	movq   $0x0,-0x2c8(%rbp)
    cfed:	00 00 00 00 
    cff1:	48 c7 85 40 fd ff ff 	movq   $0x0,-0x2c0(%rbp)
    cff8:	00 00 00 00 
    cffc:	48 8d 05 b1 61 00 00 	lea    0x61b1(%rip),%rax        # 131b4 <g_75>
    d003:	48 89 85 48 fd ff ff 	mov    %rax,-0x2b8(%rbp)
    d00a:	48 8d 05 bf 68 00 00 	lea    0x68bf(%rip),%rax        # 138d0 <g_205>
    d011:	48 89 85 50 fd ff ff 	mov    %rax,-0x2b0(%rbp)
    d018:	48 c7 85 58 fd ff ff 	movq   $0x0,-0x2a8(%rbp)
    d01f:	00 00 00 00 
    d023:	48 8d 05 8a 61 00 00 	lea    0x618a(%rip),%rax        # 131b4 <g_75>
    d02a:	48 89 85 60 fd ff ff 	mov    %rax,-0x2a0(%rbp)
    d031:	48 8d 05 98 68 00 00 	lea    0x6898(%rip),%rax        # 138d0 <g_205>
    d038:	48 89 85 68 fd ff ff 	mov    %rax,-0x298(%rbp)
    d03f:	48 c7 85 70 fd ff ff 	movq   $0x0,-0x290(%rbp)
    d046:	00 00 00 00 
    d04a:	48 8d 05 7f 68 00 00 	lea    0x687f(%rip),%rax        # 138d0 <g_205>
    d051:	48 89 85 78 fd ff ff 	mov    %rax,-0x288(%rbp)
    d058:	48 c7 85 80 fd ff ff 	movq   $0x0,-0x280(%rbp)
    d05f:	00 00 00 00 
    d063:	48 8d 05 66 68 00 00 	lea    0x6866(%rip),%rax        # 138d0 <g_205>
    d06a:	48 89 85 88 fd ff ff 	mov    %rax,-0x278(%rbp)
    d071:	48 8d 05 3c 61 00 00 	lea    0x613c(%rip),%rax        # 131b4 <g_75>
    d078:	48 89 85 90 fd ff ff 	mov    %rax,-0x270(%rbp)
    d07f:	48 c7 85 98 fd ff ff 	movq   $0x0,-0x268(%rbp)
    d086:	00 00 00 00 
    d08a:	48 c7 85 a0 fd ff ff 	movq   $0x0,-0x260(%rbp)
    d091:	00 00 00 00 
    d095:	48 8d 05 18 61 00 00 	lea    0x6118(%rip),%rax        # 131b4 <g_75>
    d09c:	48 89 85 a8 fd ff ff 	mov    %rax,-0x258(%rbp)
    d0a3:	48 8d 85 f0 fa ff ff 	lea    -0x510(%rbp),%rax
    d0aa:	48 83 c0 04          	add    $0x4,%rax
    d0ae:	48 89 85 b0 fd ff ff 	mov    %rax,-0x250(%rbp)
    d0b5:	48 8d 05 6c 5f 00 00 	lea    0x5f6c(%rip),%rax        # 13028 <g_23>
    d0bc:	48 89 85 b8 fd ff ff 	mov    %rax,-0x248(%rbp)
    d0c3:	48 8d 85 f0 fa ff ff 	lea    -0x510(%rbp),%rax
    d0ca:	48 83 c0 50          	add    $0x50,%rax
    d0ce:	48 89 85 c0 fd ff ff 	mov    %rax,-0x240(%rbp)
    d0d5:	48 c7 85 c8 fd ff ff 	movq   $0x0,-0x238(%rbp)
    d0dc:	00 00 00 00 
    d0e0:	48 8d 05 41 5f 00 00 	lea    0x5f41(%rip),%rax        # 13028 <g_23>
    d0e7:	48 89 85 d0 fd ff ff 	mov    %rax,-0x230(%rbp)
    d0ee:	48 8d 05 47 5f 00 00 	lea    0x5f47(%rip),%rax        # 1303c <g_51>
    d0f5:	48 89 85 d8 fd ff ff 	mov    %rax,-0x228(%rbp)
    d0fc:	48 8d 05 cd 67 00 00 	lea    0x67cd(%rip),%rax        # 138d0 <g_205>
    d103:	48 89 85 e0 fd ff ff 	mov    %rax,-0x220(%rbp)
    d10a:	48 c7 85 e8 fd ff ff 	movq   $0x0,-0x218(%rbp)
    d111:	00 00 00 00 
    d115:	48 8d 05 98 60 00 00 	lea    0x6098(%rip),%rax        # 131b4 <g_75>
    d11c:	48 89 85 f0 fd ff ff 	mov    %rax,-0x210(%rbp)
    d123:	48 8d 05 12 5f 00 00 	lea    0x5f12(%rip),%rax        # 1303c <g_51>
    d12a:	48 89 85 f8 fd ff ff 	mov    %rax,-0x208(%rbp)
    d131:	48 8d 05 04 5f 00 00 	lea    0x5f04(%rip),%rax        # 1303c <g_51>
    d138:	48 89 85 00 fe ff ff 	mov    %rax,-0x200(%rbp)
    d13f:	48 8d 05 6e 60 00 00 	lea    0x606e(%rip),%rax        # 131b4 <g_75>
    d146:	48 89 85 08 fe ff ff 	mov    %rax,-0x1f8(%rbp)
    d14d:	48 c7 85 10 fe ff ff 	movq   $0x0,-0x1f0(%rbp)
    d154:	00 00 00 00 
    d158:	48 8d 05 71 67 00 00 	lea    0x6771(%rip),%rax        # 138d0 <g_205>
    d15f:	48 89 85 18 fe ff ff 	mov    %rax,-0x1e8(%rbp)
    d166:	48 8d 85 f0 fa ff ff 	lea    -0x510(%rbp),%rax
    d16d:	48 83 c0 50          	add    $0x50,%rax
    d171:	48 89 85 20 fe ff ff 	mov    %rax,-0x1e0(%rbp)
    d178:	48 8d 85 f0 fa ff ff 	lea    -0x510(%rbp),%rax
    d17f:	48 83 c0 04          	add    $0x4,%rax
    d183:	48 89 85 28 fe ff ff 	mov    %rax,-0x1d8(%rbp)
    d18a:	48 c7 85 30 fe ff ff 	movq   $0x0,-0x1d0(%rbp)
    d191:	00 00 00 00 
    d195:	48 8d 05 34 67 00 00 	lea    0x6734(%rip),%rax        # 138d0 <g_205>
    d19c:	48 89 85 38 fe ff ff 	mov    %rax,-0x1c8(%rbp)
    d1a3:	48 8d 85 f0 fa ff ff 	lea    -0x510(%rbp),%rax
    d1aa:	48 83 c0 04          	add    $0x4,%rax
    d1ae:	48 89 85 40 fe ff ff 	mov    %rax,-0x1c0(%rbp)
    d1b5:	48 c7 85 48 fe ff ff 	movq   $0x0,-0x1b8(%rbp)
    d1bc:	00 00 00 00 
    d1c0:	48 c7 85 50 fe ff ff 	movq   $0x0,-0x1b0(%rbp)
    d1c7:	00 00 00 00 
    d1cb:	48 c7 85 58 fe ff ff 	movq   $0x0,-0x1a8(%rbp)
    d1d2:	00 00 00 00 
    d1d6:	48 c7 85 60 fe ff ff 	movq   $0x0,-0x1a0(%rbp)
    d1dd:	00 00 00 00 
    d1e1:	48 8d 05 54 5e 00 00 	lea    0x5e54(%rip),%rax        # 1303c <g_51>
    d1e8:	48 89 85 68 fe ff ff 	mov    %rax,-0x198(%rbp)
    d1ef:	48 8d 05 46 5e 00 00 	lea    0x5e46(%rip),%rax        # 1303c <g_51>
    d1f6:	48 89 85 70 fe ff ff 	mov    %rax,-0x190(%rbp)
    d1fd:	48 8d 05 cc 66 00 00 	lea    0x66cc(%rip),%rax        # 138d0 <g_205>
    d204:	48 89 85 78 fe ff ff 	mov    %rax,-0x188(%rbp)
    d20b:	48 8d 85 f0 fa ff ff 	lea    -0x510(%rbp),%rax
    d212:	48 83 c0 28          	add    $0x28,%rax
    d216:	48 89 85 80 fe ff ff 	mov    %rax,-0x180(%rbp)
    d21d:	48 8d 05 ac 66 00 00 	lea    0x66ac(%rip),%rax        # 138d0 <g_205>
    d224:	48 89 85 88 fe ff ff 	mov    %rax,-0x178(%rbp)
    d22b:	48 8d 05 0a 5e 00 00 	lea    0x5e0a(%rip),%rax        # 1303c <g_51>
    d232:	48 89 85 90 fe ff ff 	mov    %rax,-0x170(%rbp)
    d239:	48 8d 05 fc 5d 00 00 	lea    0x5dfc(%rip),%rax        # 1303c <g_51>
    d240:	48 89 85 98 fe ff ff 	mov    %rax,-0x168(%rbp)
    d247:	48 8d 05 82 66 00 00 	lea    0x6682(%rip),%rax        # 138d0 <g_205>
    d24e:	48 89 85 a0 fe ff ff 	mov    %rax,-0x160(%rbp)
    d255:	48 8d 05 dc 5d 00 00 	lea    0x5ddc(%rip),%rax        # 13038 <g_48>
    d25c:	48 89 85 a8 fe ff ff 	mov    %rax,-0x158(%rbp)
    d263:	48 c7 85 b0 fe ff ff 	movq   $0x0,-0x150(%rbp)
    d26a:	00 00 00 00 
    d26e:	48 c7 85 b8 fe ff ff 	movq   $0x0,-0x148(%rbp)
    d275:	00 00 00 00 
    d279:	48 8d 85 f0 fa ff ff 	lea    -0x510(%rbp),%rax
    d280:	48 83 c0 40          	add    $0x40,%rax
    d284:	48 89 85 c0 fe ff ff 	mov    %rax,-0x140(%rbp)
    d28b:	48 8d 05 96 5d 00 00 	lea    0x5d96(%rip),%rax        # 13028 <g_23>
    d292:	48 89 85 c8 fe ff ff 	mov    %rax,-0x138(%rbp)
    d299:	48 8d 05 88 5d 00 00 	lea    0x5d88(%rip),%rax        # 13028 <g_23>
    d2a0:	48 89 85 d0 fe ff ff 	mov    %rax,-0x130(%rbp)
    d2a7:	48 8d 85 f0 fa ff ff 	lea    -0x510(%rbp),%rax
    d2ae:	48 83 c0 40          	add    $0x40,%rax
    d2b2:	48 89 85 d8 fe ff ff 	mov    %rax,-0x128(%rbp)
    d2b9:	48 8d 85 f0 fa ff ff 	lea    -0x510(%rbp),%rax
    d2c0:	48 83 c0 38          	add    $0x38,%rax
    d2c4:	48 89 85 e0 fe ff ff 	mov    %rax,-0x120(%rbp)
    d2cb:	48 8d 85 f0 fa ff ff 	lea    -0x510(%rbp),%rax
    d2d2:	48 83 c0 40          	add    $0x40,%rax
    d2d6:	48 89 85 e8 fe ff ff 	mov    %rax,-0x118(%rbp)
    d2dd:	48 8d 05 44 5d 00 00 	lea    0x5d44(%rip),%rax        # 13028 <g_23>
    d2e4:	48 89 85 f0 fe ff ff 	mov    %rax,-0x110(%rbp)
    d2eb:	48 c7 85 f8 fe ff ff 	movq   $0x0,-0x108(%rbp)
    d2f2:	00 00 00 00 
    d2f6:	48 8d 85 f0 fa ff ff 	lea    -0x510(%rbp),%rax
    d2fd:	48 83 c0 04          	add    $0x4,%rax
    d301:	48 89 85 00 ff ff ff 	mov    %rax,-0x100(%rbp)
    d308:	48 8d 85 f0 fa ff ff 	lea    -0x510(%rbp),%rax
    d30f:	48 83 c0 04          	add    $0x4,%rax
    d313:	48 89 85 08 ff ff ff 	mov    %rax,-0xf8(%rbp)
    d31a:	48 c7 85 10 ff ff ff 	movq   $0x0,-0xf0(%rbp)
    d321:	00 00 00 00 
    d325:	48 8d 05 fc 5c 00 00 	lea    0x5cfc(%rip),%rax        # 13028 <g_23>
    d32c:	48 89 85 18 ff ff ff 	mov    %rax,-0xe8(%rbp)
    d333:	48 8d 85 f0 fa ff ff 	lea    -0x510(%rbp),%rax
    d33a:	48 83 c0 04          	add    $0x4,%rax
    d33e:	48 89 85 20 ff ff ff 	mov    %rax,-0xe0(%rbp)
    d345:	48 c7 85 28 ff ff ff 	movq   $0x0,-0xd8(%rbp)
    d34c:	00 00 00 00 
    d350:	48 8d 85 f0 fa ff ff 	lea    -0x510(%rbp),%rax
    d357:	48 83 c0 04          	add    $0x4,%rax
    d35b:	48 89 85 30 ff ff ff 	mov    %rax,-0xd0(%rbp)
    d362:	48 8d 85 f0 fa ff ff 	lea    -0x510(%rbp),%rax
    d369:	48 83 c0 04          	add    $0x4,%rax
    d36d:	48 89 85 38 ff ff ff 	mov    %rax,-0xc8(%rbp)
    d374:	48 c7 85 40 ff ff ff 	movq   $0x0,-0xc0(%rbp)
    d37b:	00 00 00 00 
    d37f:	48 8d 05 a2 5c 00 00 	lea    0x5ca2(%rip),%rax        # 13028 <g_23>
    d386:	48 89 85 48 ff ff ff 	mov    %rax,-0xb8(%rbp)
    d38d:	48 8d 05 20 5e 00 00 	lea    0x5e20(%rip),%rax        # 131b4 <g_75>
    d394:	48 89 85 50 ff ff ff 	mov    %rax,-0xb0(%rbp)
    d39b:	48 8d 05 86 5c 00 00 	lea    0x5c86(%rip),%rax        # 13028 <g_23>
    d3a2:	48 89 85 58 ff ff ff 	mov    %rax,-0xa8(%rbp)
    d3a9:	48 8d 05 88 5c 00 00 	lea    0x5c88(%rip),%rax        # 13038 <g_48>
    d3b0:	48 89 85 60 ff ff ff 	mov    %rax,-0xa0(%rbp)
    d3b7:	48 8d 05 7a 5c 00 00 	lea    0x5c7a(%rip),%rax        # 13038 <g_48>
    d3be:	48 89 85 68 ff ff ff 	mov    %rax,-0x98(%rbp)
    d3c5:	48 8d 05 5c 5c 00 00 	lea    0x5c5c(%rip),%rax        # 13028 <g_23>
    d3cc:	48 89 85 70 ff ff ff 	mov    %rax,-0x90(%rbp)
    d3d3:	48 8d 05 da 5d 00 00 	lea    0x5dda(%rip),%rax        # 131b4 <g_75>
    d3da:	48 89 85 78 ff ff ff 	mov    %rax,-0x88(%rbp)
    d3e1:	48 8d 05 40 5c 00 00 	lea    0x5c40(%rip),%rax        # 13028 <g_23>
    d3e8:	48 89 45 80          	mov    %rax,-0x80(%rbp)
    d3ec:	48 c7 45 88 00 00 00 	movq   $0x0,-0x78(%rbp)
    d3f3:	00 
    d3f4:	48 8d 05 2d 5c 00 00 	lea    0x5c2d(%rip),%rax        # 13028 <g_23>
    d3fb:	48 89 45 90          	mov    %rax,-0x70(%rbp)
    d3ff:	48 8d 05 32 5c 00 00 	lea    0x5c32(%rip),%rax        # 13038 <g_48>
    d406:	48 89 45 98          	mov    %rax,-0x68(%rbp)
    d40a:	48 8d 05 bf 64 00 00 	lea    0x64bf(%rip),%rax        # 138d0 <g_205>
    d411:	48 89 45 a0          	mov    %rax,-0x60(%rbp)
    d415:	48 8d 05 0c 5c 00 00 	lea    0x5c0c(%rip),%rax        # 13028 <g_23>
    d41c:	48 89 45 a8          	mov    %rax,-0x58(%rbp)
    d420:	48 8d 85 f0 fa ff ff 	lea    -0x510(%rbp),%rax
    d427:	48 83 c0 04          	add    $0x4,%rax
    d42b:	48 89 45 b0          	mov    %rax,-0x50(%rbp)
    d42f:	48 8d 05 06 5c 00 00 	lea    0x5c06(%rip),%rax        # 1303c <g_51>
    d436:	48 89 45 b8          	mov    %rax,-0x48(%rbp)
    d43a:	48 8d 05 f7 5b 00 00 	lea    0x5bf7(%rip),%rax        # 13038 <g_48>
    d441:	48 89 45 c0          	mov    %rax,-0x40(%rbp)
    d445:	48 8d 05 ec 5b 00 00 	lea    0x5bec(%rip),%rax        # 13038 <g_48>
    d44c:	48 89 45 c8          	mov    %rax,-0x38(%rbp)
    d450:	c6 85 83 f9 ff ff a9 	movb   $0xa9,-0x67d(%rbp)
    d457:	48 8b 05 82 78 00 00 	mov    0x7882(%rip),%rax        # 14ce0 <g_220>
    d45e:	48 8b 95 08 fa ff ff 	mov    -0x5f8(%rbp),%rdx
    d465:	48 89 10             	mov    %rdx,(%rax)
    d468:	80 85 83 f9 ff ff 01 	addb   $0x1,-0x67d(%rbp)
    d46f:	8b 05 43 5d 00 00    	mov    0x5d43(%rip),%eax        # 131b8 <g_94>
    d475:	83 c0 01             	add    $0x1,%eax
    d478:	89 05 3a 5d 00 00    	mov    %eax,0x5d3a(%rip)        # 131b8 <g_94>
    d47e:	8b 05 34 5d 00 00    	mov    0x5d34(%rip),%eax        # 131b8 <g_94>
    d484:	83 f8 06             	cmp    $0x6,%eax
    d487:	0f 8e e4 f7 ff ff    	jle    cc71 <func_60+0x5a5>
    d48d:	48 8b 85 00 fa ff ff 	mov    -0x600(%rbp),%rax
    d494:	e9 ca 02 00 00       	jmpq   d763 <func_60+0x1097>
    d499:	8b 85 f4 fa ff ff    	mov    -0x50c(%rbp),%eax
    d49f:	0f b7 d8             	movzwl %ax,%ebx
    d4a2:	44 8b ad 44 fb ff ff 	mov    -0x4bc(%rbp),%r13d
    d4a9:	44 0f bf a5 78 f9 ff 	movswl -0x688(%rbp),%r12d
    d4b0:	ff 
    d4b1:	8b 85 44 fb ff ff    	mov    -0x4bc(%rbp),%eax
    d4b7:	41 89 c6             	mov    %eax,%r14d
    d4ba:	48 8b 85 c8 f9 ff ff 	mov    -0x638(%rbp),%rax
    d4c1:	48 8d 15 e0 77 00 00 	lea    0x77e0(%rip),%rdx        # 14ca8 <g_127>
    d4c8:	48 89 10             	mov    %rdx,(%rax)
    d4cb:	8b 05 df 5c 00 00    	mov    0x5cdf(%rip),%eax        # 131b0 <g_73>
    d4d1:	89 85 9c f9 ff ff    	mov    %eax,-0x664(%rbp)
    d4d7:	8b 85 30 fb ff ff    	mov    -0x4d0(%rbp),%eax
    d4dd:	89 c6                	mov    %eax,%esi
    d4df:	bf 00 00 00 00       	mov    $0x0,%edi
    d4e4:	e8 e7 89 ff ff       	callq  5ed0 <safe_sub_func_uint32_t_u_u>
    d4e9:	0f b6 c0             	movzbl %al,%eax
    d4ec:	8b 95 9c f9 ff ff    	mov    -0x664(%rbp),%edx
    d4f2:	89 d6                	mov    %edx,%esi
    d4f4:	89 c7                	mov    %eax,%edi
    d4f6:	e8 0a 87 ff ff       	callq  5c05 <safe_lshift_func_uint8_t_u_s>
    d4fb:	0f b6 c0             	movzbl %al,%eax
    d4fe:	44 89 f6             	mov    %r14d,%esi
    d501:	89 c7                	mov    %eax,%edi
    d503:	e8 5b 80 ff ff       	callq  5563 <safe_rshift_func_int16_t_s_u>
    d508:	66 3d 13 13          	cmp    $0x1313,%ax
    d50c:	0f 9e c0             	setle  %al
    d50f:	0f b6 c0             	movzbl %al,%eax
    d512:	44 89 e6             	mov    %r12d,%esi
    d515:	89 c7                	mov    %eax,%edi
    d517:	e8 19 7e ff ff       	callq  5335 <safe_rshift_func_int8_t_s_s>
    d51c:	83 c8 06             	or     $0x6,%eax
    d51f:	0f be c0             	movsbl %al,%eax
    d522:	8b 95 f0 fa ff ff    	mov    -0x510(%rbp),%edx
    d528:	39 d0                	cmp    %edx,%eax
    d52a:	0f 92 c0             	setb   %al
    d52d:	0f b6 c0             	movzbl %al,%eax
    d530:	41 39 c5             	cmp    %eax,%r13d
    d533:	0f 94 c0             	sete   %al
    d536:	0f b6 c0             	movzbl %al,%eax
    d539:	48 be 47 c8 a1 34 73 	movabs $0x830cf97334a1c847,%rsi
    d540:	f9 0c 83 
    d543:	48 89 c7             	mov    %rax,%rdi
    d546:	e8 5d 83 ff ff       	callq  58a8 <safe_sub_func_int64_t_s_s>
    d54b:	83 bd 7c f9 ff ff 00 	cmpl   $0x0,-0x684(%rbp)
    d552:	74 08                	je     d55c <func_60+0xe90>
    d554:	66 83 bd 78 f9 ff ff 	cmpw   $0x0,-0x688(%rbp)
    d55b:	00 
    d55c:	8b 85 f4 fa ff ff    	mov    -0x50c(%rbp),%eax
    d562:	f7 d0                	not    %eax
    d564:	39 85 7c f9 ff ff    	cmp    %eax,-0x684(%rbp)
    d56a:	0f 9d c0             	setge  %al
    d56d:	89 c2                	mov    %eax,%edx
    d56f:	48 8b 85 d8 f9 ff ff 	mov    -0x628(%rbp),%rax
    d576:	88 10                	mov    %dl,(%rax)
    d578:	48 8b 85 d8 f9 ff ff 	mov    -0x628(%rbp),%rax
    d57f:	0f b6 00             	movzbl (%rax),%eax
    d582:	0f b6 c0             	movzbl %al,%eax
    d585:	be 04 00 00 00       	mov    $0x4,%esi
    d58a:	89 c7                	mov    %eax,%edi
    d58c:	e8 74 86 ff ff       	callq  5c05 <safe_lshift_func_uint8_t_u_s>
    d591:	0f b6 c0             	movzbl %al,%eax
    d594:	89 de                	mov    %ebx,%esi
    d596:	89 c7                	mov    %eax,%edi
    d598:	e8 82 87 ff ff       	callq  5d1f <safe_sub_func_uint16_t_u_u>
    d59d:	0f b7 c0             	movzwl %ax,%eax
    d5a0:	48 be 32 dc 3e 01 b0 	movabs $0xa42621b0013edc32,%rsi
    d5a7:	21 26 a4 
    d5aa:	48 89 c7             	mov    %rax,%rdi
    d5ad:	e8 45 84 ff ff       	callq  59f7 <safe_div_func_int64_t_s_s>
    d5b2:	48 85 c0             	test   %rax,%rax
    d5b5:	0f 8f 56 01 00 00    	jg     d711 <func_60+0x1045>
    d5bb:	c7 85 88 f9 ff ff 00 	movl   $0x0,-0x678(%rbp)
    d5c2:	00 00 00 
    d5c5:	eb 1b                	jmp    d5e2 <func_60+0xf16>
    d5c7:	8b 85 88 f9 ff ff    	mov    -0x678(%rbp),%eax
    d5cd:	48 98                	cltq   
    d5cf:	48 c7 84 c5 a0 fa ff 	movq   $0x0,-0x560(%rbp,%rax,8)
    d5d6:	ff 00 00 00 00 
    d5db:	83 85 88 f9 ff ff 01 	addl   $0x1,-0x678(%rbp)
    d5e2:	83 bd 88 f9 ff ff 01 	cmpl   $0x1,-0x678(%rbp)
    d5e9:	7e dc                	jle    d5c7 <func_60+0xefb>
    d5eb:	c7 05 c3 5b 00 00 00 	movl   $0x0,0x5bc3(%rip)        # 131b8 <g_94>
    d5f2:	00 00 00 
    d5f5:	e9 ff 00 00 00       	jmpq   d6f9 <func_60+0x102d>
    d5fa:	c7 85 a0 f9 ff ff 7f 	movl   $0x48ab577f,-0x660(%rbp)
    d601:	57 ab 48 
    d604:	c6 05 b5 5b 00 00 f0 	movb   $0xf0,0x5bb5(%rip)        # 131c0 <g_113>
    d60b:	90                   	nop
    d60c:	0f b6 05 ad 5b 00 00 	movzbl 0x5bad(%rip),%eax        # 131c0 <g_113>
    d613:	3c 05                	cmp    $0x5,%al
    d615:	0f 84 c0 00 00 00    	je     d6db <func_60+0x100f>
    d61b:	48 c7 85 e0 f9 ff ff 	movq   $0x0,-0x620(%rbp)
    d622:	00 00 00 00 
    d626:	48 8d 05 87 5b 00 00 	lea    0x5b87(%rip),%rax        # 131b4 <g_75>
    d62d:	48 89 85 e8 f9 ff ff 	mov    %rax,-0x618(%rbp)
    d634:	48 8d 05 e9 59 00 00 	lea    0x59e9(%rip),%rax        # 13024 <g_21>
    d63b:	48 89 85 f0 f9 ff ff 	mov    %rax,-0x610(%rbp)
    d642:	c7 85 8c f9 ff ff 00 	movl   $0x0,-0x674(%rbp)
    d649:	00 00 00 
    d64c:	eb 71                	jmp    d6bf <func_60+0xff3>
    d64e:	c7 85 94 f9 ff ff 00 	movl   $0x0,-0x66c(%rbp)
    d655:	00 00 00 
    d658:	eb 55                	jmp    d6af <func_60+0xfe3>
    d65a:	c7 85 98 f9 ff ff 00 	movl   $0x0,-0x668(%rbp)
    d661:	00 00 00 
    d664:	eb 39                	jmp    d69f <func_60+0xfd3>
    d666:	8b 85 98 f9 ff ff    	mov    -0x668(%rbp),%eax
    d66c:	48 63 d0             	movslq %eax,%rdx
    d66f:	8b 85 94 f9 ff ff    	mov    -0x66c(%rbp),%eax
    d675:	48 98                	cltq   
    d677:	8b 8d 8c f9 ff ff    	mov    -0x674(%rbp),%ecx
    d67d:	48 63 c9             	movslq %ecx,%rcx
    d680:	48 01 c9             	add    %rcx,%rcx
    d683:	48 01 ca             	add    %rcx,%rdx
    d686:	48 01 d0             	add    %rdx,%rax
    d689:	48 8d 15 40 62 00 00 	lea    0x6240(%rip),%rdx        # 138d0 <g_205>
    d690:	48 89 94 c5 50 fb ff 	mov    %rdx,-0x4b0(%rbp,%rax,8)
    d697:	ff 
    d698:	83 85 98 f9 ff ff 01 	addl   $0x1,-0x668(%rbp)
    d69f:	83 bd 98 f9 ff ff 00 	cmpl   $0x0,-0x668(%rbp)
    d6a6:	7e be                	jle    d666 <func_60+0xf9a>
    d6a8:	83 85 94 f9 ff ff 01 	addl   $0x1,-0x66c(%rbp)
    d6af:	83 bd 94 f9 ff ff 01 	cmpl   $0x1,-0x66c(%rbp)
    d6b6:	7e a2                	jle    d65a <func_60+0xf8e>
    d6b8:	83 85 8c f9 ff ff 01 	addl   $0x1,-0x674(%rbp)
    d6bf:	83 bd 8c f9 ff ff 02 	cmpl   $0x2,-0x674(%rbp)
    d6c6:	7e 86                	jle    d64e <func_60+0xf82>
    d6c8:	83 85 a0 f9 ff ff 01 	addl   $0x1,-0x660(%rbp)
    d6cf:	48 8b 85 f0 f9 ff ff 	mov    -0x610(%rbp),%rax
    d6d6:	e9 88 00 00 00       	jmpq   d763 <func_60+0x1097>
    d6db:	8b 05 d7 5a 00 00    	mov    0x5ad7(%rip),%eax        # 131b8 <g_94>
    d6e1:	0f b7 c0             	movzwl %ax,%eax
    d6e4:	be 06 00 00 00       	mov    $0x6,%esi
    d6e9:	89 c7                	mov    %eax,%edi
    d6eb:	e8 0f 86 ff ff       	callq  5cff <safe_add_func_uint16_t_u_u>
    d6f0:	0f b7 c0             	movzwl %ax,%eax
    d6f3:	89 05 bf 5a 00 00    	mov    %eax,0x5abf(%rip)        # 131b8 <g_94>
    d6f9:	8b 05 b9 5a 00 00    	mov    0x5ab9(%rip),%eax        # 131b8 <g_94>
    d6ff:	83 f8 04             	cmp    $0x4,%eax
    d702:	0f 8f f2 fe ff ff    	jg     d5fa <func_60+0xf2e>
    d708:	48 8b 85 a8 fa ff ff 	mov    -0x558(%rbp),%rax
    d70f:	eb 52                	jmp    d763 <func_60+0x1097>
    d711:	c7 05 d1 80 00 00 00 	movl   $0x0,0x80d1(%rip)        # 157ec <g_74>
    d718:	00 00 00 
    d71b:	eb 28                	jmp    d745 <func_60+0x1079>
    d71d:	8b 05 c9 80 00 00    	mov    0x80c9(%rip),%eax        # 157ec <g_74>
    d723:	48 98                	cltq   
    d725:	48 8d 14 00          	lea    (%rax,%rax,1),%rdx
    d729:	48 8d 05 a0 5a 00 00 	lea    0x5aa0(%rip),%rax        # 131d0 <g_121>
    d730:	66 c7 04 02 fc ff    	movw   $0xfffc,(%rdx,%rax,1)
    d736:	8b 05 b0 80 00 00    	mov    0x80b0(%rip),%eax        # 157ec <g_74>
    d73c:	83 c0 01             	add    $0x1,%eax
    d73f:	89 05 a7 80 00 00    	mov    %eax,0x80a7(%rip)        # 157ec <g_74>
    d745:	8b 05 a1 80 00 00    	mov    0x80a1(%rip),%eax        # 157ec <g_74>
    d74b:	83 f8 09             	cmp    $0x9,%eax
    d74e:	7e cd                	jle    d71d <func_60+0x1051>
    d750:	8b 85 7c f9 ff ff    	mov    -0x684(%rbp),%eax
    d756:	89 85 f8 fa ff ff    	mov    %eax,-0x508(%rbp)
    d75c:	48 8b 85 50 fa ff ff 	mov    -0x5b0(%rbp),%rax
    d763:	48 8b 5d d8          	mov    -0x28(%rbp),%rbx
    d767:	64 48 33 1c 25 28 00 	xor    %fs:0x28,%rbx
    d76e:	00 00 
    d770:	74 05                	je     d777 <func_60+0x10ab>
    d772:	e8 f9 78 ff ff       	callq  5070 <__stack_chk_fail@plt>
    d777:	48 81 c4 70 06 00 00 	add    $0x670,%rsp
    d77e:	5b                   	pop    %rbx
    d77f:	41 5c                	pop    %r12
    d781:	41 5d                	pop    %r13
    d783:	41 5e                	pop    %r14
    d785:	5d                   	pop    %rbp
    d786:	c3                   	retq   

000000000000d787 <func_64>:
    d787:	f3 0f 1e fa          	endbr64 
    d78b:	55                   	push   %rbp
    d78c:	48 89 e5             	mov    %rsp,%rbp
    d78f:	53                   	push   %rbx
    d790:	48 83 ec 48          	sub    $0x48,%rsp
    d794:	48 89 7d c8          	mov    %rdi,-0x38(%rbp)
    d798:	48 89 75 c0          	mov    %rsi,-0x40(%rbp)
    d79c:	48 89 55 b8          	mov    %rdx,-0x48(%rbp)
    d7a0:	89 4d b4             	mov    %ecx,-0x4c(%rbp)
    d7a3:	64 48 8b 04 25 28 00 	mov    %fs:0x28,%rax
    d7aa:	00 00 
    d7ac:	48 89 45 e8          	mov    %rax,-0x18(%rbp)
    d7b0:	31 c0                	xor    %eax,%eax
    d7b2:	48 8d 05 6b 58 00 00 	lea    0x586b(%rip),%rax        # 13024 <g_21>
    d7b9:	48 89 45 d8          	mov    %rax,-0x28(%rbp)
    d7bd:	48 c7 45 e0 00 00 00 	movq   $0x0,-0x20(%rbp)
    d7c4:	00 
    d7c5:	c7 45 d0 27 93 4e 42 	movl   $0x424e9327,-0x30(%rbp)
    d7cc:	c7 45 d4 d3 ff 5f 0f 	movl   $0xf5fffd3,-0x2c(%rbp)
    d7d3:	c7 45 b4 00 00 00 00 	movl   $0x0,-0x4c(%rbp)
    d7da:	eb 31                	jmp    d80d <func_64+0x86>
    d7dc:	c7 05 ce 59 00 00 00 	movl   $0x0,0x59ce(%rip)        # 131b4 <g_75>
    d7e3:	00 00 00 
    d7e6:	90                   	nop
    d7e7:	8b 05 c7 59 00 00    	mov    0x59c7(%rip),%eax        # 131b4 <g_75>
    d7ed:	83 f8 f5             	cmp    $0xfffffff5,%eax
    d7f0:	7c 08                	jl     d7fa <func_64+0x73>
    d7f2:	8b 45 b4             	mov    -0x4c(%rbp),%eax
    d7f5:	e9 aa 00 00 00       	jmpq   d8a4 <func_64+0x11d>
    d7fa:	8b 45 b4             	mov    -0x4c(%rbp),%eax
    d7fd:	be 03 00 00 00       	mov    $0x3,%esi
    d802:	48 89 c7             	mov    %rax,%rdi
    d805:	e8 24 88 ff ff       	callq  602e <safe_add_func_uint64_t_u_u>
    d80a:	89 45 b4             	mov    %eax,-0x4c(%rbp)
    d80d:	83 7d b4 24          	cmpl   $0x24,-0x4c(%rbp)
    d811:	76 c9                	jbe    d7dc <func_64+0x55>
    d813:	8b 55 d0             	mov    -0x30(%rbp),%edx
    d816:	8b 45 d0             	mov    -0x30(%rbp),%eax
    d819:	89 d6                	mov    %edx,%esi
    d81b:	89 c7                	mov    %eax,%edi
    d81d:	e8 aa 7e ff ff       	callq  56cc <safe_mod_func_int32_t_s_s>
    d822:	89 c3                	mov    %eax,%ebx
    d824:	0f b7 45 b8          	movzwl -0x48(%rbp),%eax
    d828:	0f be c0             	movsbl %al,%eax
    d82b:	89 c6                	mov    %eax,%esi
    d82d:	bf b0 ff ff ff       	mov    $0xffffffb0,%edi
    d832:	e8 9d 79 ff ff       	callq  51d4 <safe_add_func_int8_t_s_s>
    d837:	66 98                	cbtw   
    d839:	0f b7 c0             	movzwl %ax,%eax
    d83c:	89 de                	mov    %ebx,%esi
    d83e:	89 c7                	mov    %eax,%edi
    d840:	e8 c1 85 ff ff       	callq  5e06 <safe_lshift_func_uint16_t_u_u>
    d845:	8b 5d d4             	mov    -0x2c(%rbp),%ebx
    d848:	48 8b 45 c0          	mov    -0x40(%rbp),%rax
    d84c:	8b 38                	mov    (%rax),%edi
    d84e:	48 8b 4d e0          	mov    -0x20(%rbp),%rcx
    d852:	48 8b 15 5f 59 00 00 	mov    0x595f(%rip),%rdx        # 131b8 <g_94>
    d859:	48 8b 75 e0          	mov    -0x20(%rbp),%rsi
    d85d:	48 8b 45 d8          	mov    -0x28(%rbp),%rax
    d861:	41 89 f8             	mov    %edi,%r8d
    d864:	48 89 c7             	mov    %rax,%rdi
    d867:	e8 b4 05 00 00       	callq  de20 <func_86>
    d86c:	48 89 c1             	mov    %rax,%rcx
    d86f:	48 8d 45 d0          	lea    -0x30(%rbp),%rax
    d873:	48 89 c2             	mov    %rax,%rdx
    d876:	48 89 de             	mov    %rbx,%rsi
    d879:	48 89 cf             	mov    %rcx,%rdi
    d87c:	e8 5e 00 00 00       	callq  d8df <func_82>
    d881:	48 89 c1             	mov    %rax,%rcx
    d884:	48 8b 1d 1d 74 00 00 	mov    0x741d(%rip),%rbx        # 14ca8 <g_127>
    d88b:	48 8b 55 e0          	mov    -0x20(%rbp),%rdx
    d88f:	48 8b 45 e0          	mov    -0x20(%rbp),%rax
    d893:	48 89 c6             	mov    %rax,%rsi
    d896:	48 89 cf             	mov    %rcx,%rdi
    d899:	e8 21 00 00 00       	callq  d8bf <func_78>
    d89e:	48 89 03             	mov    %rax,(%rbx)
    d8a1:	8b 45 b4             	mov    -0x4c(%rbp),%eax
    d8a4:	48 8b 5d e8          	mov    -0x18(%rbp),%rbx
    d8a8:	64 48 33 1c 25 28 00 	xor    %fs:0x28,%rbx
    d8af:	00 00 
    d8b1:	74 05                	je     d8b8 <func_64+0x131>
    d8b3:	e8 b8 77 ff ff       	callq  5070 <__stack_chk_fail@plt>
    d8b8:	48 83 c4 48          	add    $0x48,%rsp
    d8bc:	5b                   	pop    %rbx
    d8bd:	5d                   	pop    %rbp
    d8be:	c3                   	retq   

000000000000d8bf <func_78>:
    d8bf:	f3 0f 1e fa          	endbr64 
    d8c3:	55                   	push   %rbp
    d8c4:	48 89 e5             	mov    %rsp,%rbp
    d8c7:	48 89 7d f8          	mov    %rdi,-0x8(%rbp)
    d8cb:	48 89 75 f0          	mov    %rsi,-0x10(%rbp)
    d8cf:	48 89 55 e8          	mov    %rdx,-0x18(%rbp)
    d8d3:	48 8b 05 ce 73 00 00 	mov    0x73ce(%rip),%rax        # 14ca8 <g_127>
    d8da:	48 8b 00             	mov    (%rax),%rax
    d8dd:	5d                   	pop    %rbp
    d8de:	c3                   	retq   

000000000000d8df <func_82>:
    d8df:	f3 0f 1e fa          	endbr64 
    d8e3:	55                   	push   %rbp
    d8e4:	48 89 e5             	mov    %rsp,%rbp
    d8e7:	53                   	push   %rbx
    d8e8:	48 81 ec 28 02 00 00 	sub    $0x228,%rsp
    d8ef:	48 89 bd e8 fd ff ff 	mov    %rdi,-0x218(%rbp)
    d8f6:	48 89 b5 e0 fd ff ff 	mov    %rsi,-0x220(%rbp)
    d8fd:	48 89 95 d8 fd ff ff 	mov    %rdx,-0x228(%rbp)
    d904:	64 48 8b 04 25 28 00 	mov    %fs:0x28,%rax
    d90b:	00 00 
    d90d:	48 89 45 e8          	mov    %rax,-0x18(%rbp)
    d911:	31 c0                	xor    %eax,%eax
    d913:	48 c7 85 08 fe ff ff 	movq   $0x0,-0x1f8(%rbp)
    d91a:	00 00 00 00 
    d91e:	48 8d 05 9b 58 00 00 	lea    0x589b(%rip),%rax        # 131c0 <g_113>
    d925:	48 89 85 10 fe ff ff 	mov    %rax,-0x1f0(%rbp)
    d92c:	c7 85 20 fe ff ff 24 	movl   $0x2c45e824,-0x1e0(%rbp)
    d933:	e8 45 2c 
    d936:	c7 85 24 fe ff ff ce 	movl   $0x7d1d32ce,-0x1dc(%rbp)
    d93d:	32 1d 7d 
    d940:	c7 85 fc fd ff ff 00 	movl   $0x0,-0x204(%rbp)
    d947:	00 00 00 
    d94a:	c7 85 f4 fd ff ff c4 	movl   $0x46cbe4c4,-0x20c(%rbp)
    d951:	e4 cb 46 
    d954:	48 8b 85 10 fe ff ff 	mov    -0x1f0(%rbp),%rax
    d95b:	0f b6 00             	movzbl (%rax),%eax
    d95e:	8d 48 ff             	lea    -0x1(%rax),%ecx
    d961:	48 8b 95 10 fe ff ff 	mov    -0x1f0(%rbp),%rdx
    d968:	88 0a                	mov    %cl,(%rdx)
    d96a:	0f be d8             	movsbl %al,%ebx
    d96d:	48 83 bd 08 fe ff ff 	cmpq   $0x0,-0x1f8(%rbp)
    d974:	00 
    d975:	0f 95 c0             	setne  %al
    d978:	0f b6 d0             	movzbl %al,%edx
    d97b:	8b 05 37 58 00 00    	mov    0x5837(%rip),%eax        # 131b8 <g_94>
    d981:	39 c2                	cmp    %eax,%edx
    d983:	7c 14                	jl     d999 <func_82+0xba>
    d985:	48 8b 85 d8 fd ff ff 	mov    -0x228(%rbp),%rax
    d98c:	8b 00                	mov    (%rax),%eax
    d98e:	85 c0                	test   %eax,%eax
    d990:	74 07                	je     d999 <func_82+0xba>
    d992:	b8 01 00 00 00       	mov    $0x1,%eax
    d997:	eb 05                	jmp    d99e <func_82+0xbf>
    d999:	b8 00 00 00 00       	mov    $0x0,%eax
    d99e:	0f be d0             	movsbl %al,%edx
    d9a1:	48 83 bd e8 fd ff ff 	cmpq   $0x0,-0x218(%rbp)
    d9a8:	00 
    d9a9:	0f 94 c0             	sete   %al
    d9ac:	0f b6 c0             	movzbl %al,%eax
    d9af:	89 d6                	mov    %edx,%esi
    d9b1:	89 c7                	mov    %eax,%edi
    d9b3:	e8 1c 78 ff ff       	callq  51d4 <safe_add_func_int8_t_s_s>
    d9b8:	0f be c0             	movsbl %al,%eax
    d9bb:	89 de                	mov    %ebx,%esi
    d9bd:	89 c7                	mov    %eax,%edi
    d9bf:	e8 6d 78 ff ff       	callq  5231 <safe_mod_func_int8_t_s_s>
    d9c4:	0f be d0             	movsbl %al,%edx
    d9c7:	48 8b 85 e0 fd ff ff 	mov    -0x220(%rbp),%rax
    d9ce:	98                   	cwtl   
    d9cf:	89 d6                	mov    %edx,%esi
    d9d1:	89 c7                	mov    %eax,%edi
    d9d3:	e8 1d 7a ff ff       	callq  53f5 <safe_mul_func_int16_t_s_s>
    d9d8:	98                   	cwtl   
    d9d9:	89 c6                	mov    %eax,%esi
    d9db:	bf 08 00 00 00       	mov    $0x8,%edi
    d9e0:	e8 e7 7c ff ff       	callq  56cc <safe_mod_func_int32_t_s_s>
    d9e5:	89 c3                	mov    %eax,%ebx
    d9e7:	48 8b 85 e8 fd ff ff 	mov    -0x218(%rbp),%rax
    d9ee:	0f b6 00             	movzbl (%rax),%eax
    d9f1:	0f b6 c0             	movzbl %al,%eax
    d9f4:	89 c6                	mov    %eax,%esi
    d9f6:	bf 80 00 00 00       	mov    $0x80,%edi
    d9fb:	e8 93 81 ff ff       	callq  5b93 <safe_mul_func_uint8_t_u_u>
    da00:	0f b6 c0             	movzbl %al,%eax
    da03:	31 c3                	xor    %eax,%ebx
    da05:	89 da                	mov    %ebx,%edx
    da07:	0f b7 05 32 56 00 00 	movzwl 0x5632(%rip),%eax        # 13040 <g_69>
    da0e:	98                   	cwtl   
    da0f:	09 d0                	or     %edx,%eax
    da11:	85 c0                	test   %eax,%eax
    da13:	0f 84 c3 03 00 00    	je     dddc <func_82+0x4fd>
    da19:	c7 85 28 fe ff ff fc 	movl   $0xfffffffc,-0x1d8(%rbp)
    da20:	ff ff ff 
    da23:	c7 85 2c fe ff ff 6d 	movl   $0x9048c16d,-0x1d4(%rbp)
    da2a:	c1 48 90 
    da2d:	c7 85 f8 fd ff ff 46 	movl   $0x1031e146,-0x208(%rbp)
    da34:	e1 31 10 
    da37:	c7 85 00 fe ff ff 01 	movl   $0x1,-0x200(%rbp)
    da3e:	00 00 00 
    da41:	c7 85 04 fe ff ff ff 	movl   $0xffffffff,-0x1fc(%rbp)
    da48:	ff ff ff 
    da4b:	66 c7 85 f2 fd ff ff 	movw   $0xffff,-0x20e(%rbp)
    da52:	ff ff 
    da54:	48 8b 85 20 fe ff ff 	mov    -0x1e0(%rbp),%rax
    da5b:	48 89 85 28 fe ff ff 	mov    %rax,-0x1d8(%rbp)
    da62:	48 c7 85 e0 fd ff ff 	movq   $0x0,-0x220(%rbp)
    da69:	00 00 00 00 
    da6d:	e9 5a 03 00 00       	jmpq   ddcc <func_82+0x4ed>
    da72:	48 8b 85 d8 fd ff ff 	mov    -0x228(%rbp),%rax
    da79:	8b 10                	mov    (%rax),%edx
    da7b:	48 8b 85 e0 fd ff ff 	mov    -0x220(%rbp),%rax
    da82:	48 8d 0c 00          	lea    (%rax,%rax,1),%rcx
    da86:	48 8d 05 43 57 00 00 	lea    0x5743(%rip),%rax        # 131d0 <g_121>
    da8d:	0f b7 04 01          	movzwl (%rcx,%rax,1),%eax
    da91:	0f b7 c0             	movzwl %ax,%eax
    da94:	21 c2                	and    %eax,%edx
    da96:	48 8b 85 d8 fd ff ff 	mov    -0x228(%rbp),%rax
    da9d:	89 10                	mov    %edx,(%rax)
    da9f:	c7 85 2c fe ff ff 00 	movl   $0x0,-0x1d4(%rbp)
    daa6:	00 00 00 
    daa9:	e9 04 03 00 00       	jmpq   ddb2 <func_82+0x4d3>
    daae:	48 8d 05 ff 56 00 00 	lea    0x56ff(%rip),%rax        # 131b4 <g_75>
    dab5:	48 89 85 30 fe ff ff 	mov    %rax,-0x1d0(%rbp)
    dabc:	48 8d 05 f1 56 00 00 	lea    0x56f1(%rip),%rax        # 131b4 <g_75>
    dac3:	48 89 85 38 fe ff ff 	mov    %rax,-0x1c8(%rbp)
    daca:	48 8d 85 f8 fd ff ff 	lea    -0x208(%rbp),%rax
    dad1:	48 89 85 40 fe ff ff 	mov    %rax,-0x1c0(%rbp)
    dad8:	48 8d 85 f8 fd ff ff 	lea    -0x208(%rbp),%rax
    dadf:	48 89 85 48 fe ff ff 	mov    %rax,-0x1b8(%rbp)
    dae6:	48 8d 05 c7 56 00 00 	lea    0x56c7(%rip),%rax        # 131b4 <g_75>
    daed:	48 89 85 50 fe ff ff 	mov    %rax,-0x1b0(%rbp)
    daf4:	48 8d 05 b9 56 00 00 	lea    0x56b9(%rip),%rax        # 131b4 <g_75>
    dafb:	48 89 85 58 fe ff ff 	mov    %rax,-0x1a8(%rbp)
    db02:	48 8d 85 f8 fd ff ff 	lea    -0x208(%rbp),%rax
    db09:	48 89 85 60 fe ff ff 	mov    %rax,-0x1a0(%rbp)
    db10:	48 8d 85 f8 fd ff ff 	lea    -0x208(%rbp),%rax
    db17:	48 89 85 68 fe ff ff 	mov    %rax,-0x198(%rbp)
    db1e:	48 8d 05 8f 56 00 00 	lea    0x568f(%rip),%rax        # 131b4 <g_75>
    db25:	48 89 85 70 fe ff ff 	mov    %rax,-0x190(%rbp)
    db2c:	48 c7 85 78 fe ff ff 	movq   $0x0,-0x188(%rbp)
    db33:	00 00 00 00 
    db37:	48 8d 05 76 56 00 00 	lea    0x5676(%rip),%rax        # 131b4 <g_75>
    db3e:	48 89 85 80 fe ff ff 	mov    %rax,-0x180(%rbp)
    db45:	48 c7 85 88 fe ff ff 	movq   $0x0,-0x178(%rbp)
    db4c:	00 00 00 00 
    db50:	48 8d 05 5d 56 00 00 	lea    0x565d(%rip),%rax        # 131b4 <g_75>
    db57:	48 89 85 90 fe ff ff 	mov    %rax,-0x170(%rbp)
    db5e:	48 c7 85 98 fe ff ff 	movq   $0x0,-0x168(%rbp)
    db65:	00 00 00 00 
    db69:	48 8d 05 44 56 00 00 	lea    0x5644(%rip),%rax        # 131b4 <g_75>
    db70:	48 89 85 a0 fe ff ff 	mov    %rax,-0x160(%rbp)
    db77:	48 c7 85 a8 fe ff ff 	movq   $0x0,-0x158(%rbp)
    db7e:	00 00 00 00 
    db82:	48 8d 05 2b 56 00 00 	lea    0x562b(%rip),%rax        # 131b4 <g_75>
    db89:	48 89 85 b0 fe ff ff 	mov    %rax,-0x150(%rbp)
    db90:	48 c7 85 b8 fe ff ff 	movq   $0x0,-0x148(%rbp)
    db97:	00 00 00 00 
    db9b:	48 8d 05 12 56 00 00 	lea    0x5612(%rip),%rax        # 131b4 <g_75>
    dba2:	48 89 85 c0 fe ff ff 	mov    %rax,-0x140(%rbp)
    dba9:	48 8d 85 f8 fd ff ff 	lea    -0x208(%rbp),%rax
    dbb0:	48 89 85 c8 fe ff ff 	mov    %rax,-0x138(%rbp)
    dbb7:	48 8d 85 f8 fd ff ff 	lea    -0x208(%rbp),%rax
    dbbe:	48 89 85 d0 fe ff ff 	mov    %rax,-0x130(%rbp)
    dbc5:	48 8d 05 e8 55 00 00 	lea    0x55e8(%rip),%rax        # 131b4 <g_75>
    dbcc:	48 89 85 d8 fe ff ff 	mov    %rax,-0x128(%rbp)
    dbd3:	48 8d 05 da 55 00 00 	lea    0x55da(%rip),%rax        # 131b4 <g_75>
    dbda:	48 89 85 e0 fe ff ff 	mov    %rax,-0x120(%rbp)
    dbe1:	48 8d 85 f8 fd ff ff 	lea    -0x208(%rbp),%rax
    dbe8:	48 89 85 e8 fe ff ff 	mov    %rax,-0x118(%rbp)
    dbef:	48 8d 85 f8 fd ff ff 	lea    -0x208(%rbp),%rax
    dbf6:	48 89 85 f0 fe ff ff 	mov    %rax,-0x110(%rbp)
    dbfd:	48 8d 05 b0 55 00 00 	lea    0x55b0(%rip),%rax        # 131b4 <g_75>
    dc04:	48 89 85 f8 fe ff ff 	mov    %rax,-0x108(%rbp)
    dc0b:	48 8d 05 a2 55 00 00 	lea    0x55a2(%rip),%rax        # 131b4 <g_75>
    dc12:	48 89 85 00 ff ff ff 	mov    %rax,-0x100(%rbp)
    dc19:	48 8d 05 1c 54 00 00 	lea    0x541c(%rip),%rax        # 1303c <g_51>
    dc20:	48 89 85 08 ff ff ff 	mov    %rax,-0xf8(%rbp)
    dc27:	48 8d 05 86 55 00 00 	lea    0x5586(%rip),%rax        # 131b4 <g_75>
    dc2e:	48 89 85 10 ff ff ff 	mov    %rax,-0xf0(%rbp)
    dc35:	48 8d 05 00 54 00 00 	lea    0x5400(%rip),%rax        # 1303c <g_51>
    dc3c:	48 89 85 18 ff ff ff 	mov    %rax,-0xe8(%rbp)
    dc43:	48 8d 05 6a 55 00 00 	lea    0x556a(%rip),%rax        # 131b4 <g_75>
    dc4a:	48 89 85 20 ff ff ff 	mov    %rax,-0xe0(%rbp)
    dc51:	48 8d 05 e4 53 00 00 	lea    0x53e4(%rip),%rax        # 1303c <g_51>
    dc58:	48 89 85 28 ff ff ff 	mov    %rax,-0xd8(%rbp)
    dc5f:	48 8d 05 4e 55 00 00 	lea    0x554e(%rip),%rax        # 131b4 <g_75>
    dc66:	48 89 85 30 ff ff ff 	mov    %rax,-0xd0(%rbp)
    dc6d:	48 8d 05 c8 53 00 00 	lea    0x53c8(%rip),%rax        # 1303c <g_51>
    dc74:	48 89 85 38 ff ff ff 	mov    %rax,-0xc8(%rbp)
    dc7b:	48 8d 05 32 55 00 00 	lea    0x5532(%rip),%rax        # 131b4 <g_75>
    dc82:	48 89 85 40 ff ff ff 	mov    %rax,-0xc0(%rbp)
    dc89:	48 8d 05 ac 53 00 00 	lea    0x53ac(%rip),%rax        # 1303c <g_51>
    dc90:	48 89 85 48 ff ff ff 	mov    %rax,-0xb8(%rbp)
    dc97:	48 8d 05 16 55 00 00 	lea    0x5516(%rip),%rax        # 131b4 <g_75>
    dc9e:	48 89 85 50 ff ff ff 	mov    %rax,-0xb0(%rbp)
    dca5:	48 8d 05 08 55 00 00 	lea    0x5508(%rip),%rax        # 131b4 <g_75>
    dcac:	48 89 85 58 ff ff ff 	mov    %rax,-0xa8(%rbp)
    dcb3:	48 8d 85 f8 fd ff ff 	lea    -0x208(%rbp),%rax
    dcba:	48 89 85 60 ff ff ff 	mov    %rax,-0xa0(%rbp)
    dcc1:	48 8d 85 f8 fd ff ff 	lea    -0x208(%rbp),%rax
    dcc8:	48 89 85 68 ff ff ff 	mov    %rax,-0x98(%rbp)
    dccf:	48 8d 05 de 54 00 00 	lea    0x54de(%rip),%rax        # 131b4 <g_75>
    dcd6:	48 89 85 70 ff ff ff 	mov    %rax,-0x90(%rbp)
    dcdd:	48 8d 05 d0 54 00 00 	lea    0x54d0(%rip),%rax        # 131b4 <g_75>
    dce4:	48 89 85 78 ff ff ff 	mov    %rax,-0x88(%rbp)
    dceb:	48 8d 85 f8 fd ff ff 	lea    -0x208(%rbp),%rax
    dcf2:	48 89 45 80          	mov    %rax,-0x80(%rbp)
    dcf6:	48 8d 85 f8 fd ff ff 	lea    -0x208(%rbp),%rax
    dcfd:	48 89 45 88          	mov    %rax,-0x78(%rbp)
    dd01:	48 8d 05 ac 54 00 00 	lea    0x54ac(%rip),%rax        # 131b4 <g_75>
    dd08:	48 89 45 90          	mov    %rax,-0x70(%rbp)
    dd0c:	48 c7 45 98 00 00 00 	movq   $0x0,-0x68(%rbp)
    dd13:	00 
    dd14:	48 8d 05 99 54 00 00 	lea    0x5499(%rip),%rax        # 131b4 <g_75>
    dd1b:	48 89 45 a0          	mov    %rax,-0x60(%rbp)
    dd1f:	48 c7 45 a8 00 00 00 	movq   $0x0,-0x58(%rbp)
    dd26:	00 
    dd27:	48 8d 05 86 54 00 00 	lea    0x5486(%rip),%rax        # 131b4 <g_75>
    dd2e:	48 89 45 b0          	mov    %rax,-0x50(%rbp)
    dd32:	48 c7 45 b8 00 00 00 	movq   $0x0,-0x48(%rbp)
    dd39:	00 
    dd3a:	48 8d 05 73 54 00 00 	lea    0x5473(%rip),%rax        # 131b4 <g_75>
    dd41:	48 89 45 c0          	mov    %rax,-0x40(%rbp)
    dd45:	48 c7 45 c8 00 00 00 	movq   $0x0,-0x38(%rbp)
    dd4c:	00 
    dd4d:	48 8d 05 60 54 00 00 	lea    0x5460(%rip),%rax        # 131b4 <g_75>
    dd54:	48 89 45 d0          	mov    %rax,-0x30(%rbp)
    dd58:	48 c7 45 d8 00 00 00 	movq   $0x0,-0x28(%rbp)
    dd5f:	00 
    dd60:	66 83 85 f2 fd ff ff 	addw   $0x1,-0x20e(%rbp)
    dd67:	01 
    dd68:	8b 85 24 fe ff ff    	mov    -0x1dc(%rbp),%eax
    dd6e:	85 c0                	test   %eax,%eax
    dd70:	74 05                	je     dd77 <func_82+0x498>
    dd72:	e9 dd fc ff ff       	jmpq   da54 <func_82+0x175>
    dd77:	48 8b 85 d8 fd ff ff 	mov    -0x228(%rbp),%rax
    dd7e:	8b 00                	mov    (%rax),%eax
    dd80:	85 c0                	test   %eax,%eax
    dd82:	75 3f                	jne    ddc3 <func_82+0x4e4>
    dd84:	c7 85 24 fe ff ff 00 	movl   $0x0,-0x1dc(%rbp)
    dd8b:	00 00 00 
    dd8e:	90                   	nop
    dd8f:	8b 85 24 fe ff ff    	mov    -0x1dc(%rbp),%eax
    dd95:	83 f8 09             	cmp    $0x9,%eax
    dd98:	77 09                	ja     dda3 <func_82+0x4c4>
    dd9a:	48 8d 05 83 52 00 00 	lea    0x5283(%rip),%rax        # 13024 <g_21>
    dda1:	eb 5f                	jmp    de02 <func_82+0x523>
    dda3:	8b 85 2c fe ff ff    	mov    -0x1d4(%rbp),%eax
    dda9:	83 c0 01             	add    $0x1,%eax
    ddac:	89 85 2c fe ff ff    	mov    %eax,-0x1d4(%rbp)
    ddb2:	8b 85 2c fe ff ff    	mov    -0x1d4(%rbp),%eax
    ddb8:	83 f8 02             	cmp    $0x2,%eax
    ddbb:	0f 86 ed fc ff ff    	jbe    daae <func_82+0x1cf>
    ddc1:	eb 01                	jmp    ddc4 <func_82+0x4e5>
    ddc3:	90                   	nop
    ddc4:	48 83 85 e0 fd ff ff 	addq   $0x1,-0x220(%rbp)
    ddcb:	01 
    ddcc:	48 83 bd e0 fd ff ff 	cmpq   $0x9,-0x220(%rbp)
    ddd3:	09 
    ddd4:	0f 86 98 fc ff ff    	jbe    da72 <func_82+0x193>
    ddda:	eb 1f                	jmp    ddfb <func_82+0x51c>
    dddc:	48 8d 85 f4 fd ff ff 	lea    -0x20c(%rbp),%rax
    dde3:	48 89 85 18 fe ff ff 	mov    %rax,-0x1e8(%rbp)
    ddea:	48 8b 05 d7 6e 00 00 	mov    0x6ed7(%rip),%rax        # 14cc8 <g_137>
    ddf1:	48 8b 95 18 fe ff ff 	mov    -0x1e8(%rbp),%rdx
    ddf8:	48 89 10             	mov    %rdx,(%rax)
    ddfb:	48 8b 85 10 fe ff ff 	mov    -0x1f0(%rbp),%rax
    de02:	48 8b 4d e8          	mov    -0x18(%rbp),%rcx
    de06:	64 48 33 0c 25 28 00 	xor    %fs:0x28,%rcx
    de0d:	00 00 
    de0f:	74 05                	je     de16 <func_82+0x537>
    de11:	e8 5a 72 ff ff       	callq  5070 <__stack_chk_fail@plt>
    de16:	48 81 c4 28 02 00 00 	add    $0x228,%rsp
    de1d:	5b                   	pop    %rbx
    de1e:	5d                   	pop    %rbp
    de1f:	c3                   	retq   

000000000000de20 <func_86>:
    de20:	f3 0f 1e fa          	endbr64 
    de24:	55                   	push   %rbp
    de25:	48 89 e5             	mov    %rsp,%rbp
    de28:	48 81 ec 90 06 00 00 	sub    $0x690,%rsp
    de2f:	48 89 bd 98 f9 ff ff 	mov    %rdi,-0x668(%rbp)
    de36:	48 89 b5 90 f9 ff ff 	mov    %rsi,-0x670(%rbp)
    de3d:	48 89 95 88 f9 ff ff 	mov    %rdx,-0x678(%rbp)
    de44:	48 89 8d 80 f9 ff ff 	mov    %rcx,-0x680(%rbp)
    de4b:	44 89 85 7c f9 ff ff 	mov    %r8d,-0x684(%rbp)
    de52:	64 48 8b 04 25 28 00 	mov    %fs:0x28,%rax
    de59:	00 00 
    de5b:	48 89 45 f8          	mov    %rax,-0x8(%rbp)
    de5f:	31 c0                	xor    %eax,%eax
    de61:	48 8d 05 bc 51 00 00 	lea    0x51bc(%rip),%rax        # 13024 <g_21>
    de68:	48 89 85 50 fa ff ff 	mov    %rax,-0x5b0(%rbp)
    de6f:	48 8d 05 ae 51 00 00 	lea    0x51ae(%rip),%rax        # 13024 <g_21>
    de76:	48 89 85 58 fa ff ff 	mov    %rax,-0x5a8(%rbp)
    de7d:	48 8d 05 a0 51 00 00 	lea    0x51a0(%rip),%rax        # 13024 <g_21>
    de84:	48 89 85 60 fa ff ff 	mov    %rax,-0x5a0(%rbp)
    de8b:	48 8d 05 92 51 00 00 	lea    0x5192(%rip),%rax        # 13024 <g_21>
    de92:	48 89 85 68 fa ff ff 	mov    %rax,-0x598(%rbp)
    de99:	48 8d 05 84 51 00 00 	lea    0x5184(%rip),%rax        # 13024 <g_21>
    dea0:	48 89 85 70 fa ff ff 	mov    %rax,-0x590(%rbp)
    dea7:	48 8d 05 76 51 00 00 	lea    0x5176(%rip),%rax        # 13024 <g_21>
    deae:	48 89 85 78 fa ff ff 	mov    %rax,-0x588(%rbp)
    deb5:	48 8d 05 68 51 00 00 	lea    0x5168(%rip),%rax        # 13024 <g_21>
    debc:	48 89 85 80 fa ff ff 	mov    %rax,-0x580(%rbp)
    dec3:	48 8d 05 5a 51 00 00 	lea    0x515a(%rip),%rax        # 13024 <g_21>
    deca:	48 89 85 88 fa ff ff 	mov    %rax,-0x578(%rbp)
    ded1:	48 8d 05 4c 51 00 00 	lea    0x514c(%rip),%rax        # 13024 <g_21>
    ded8:	48 89 85 90 fa ff ff 	mov    %rax,-0x570(%rbp)
    dedf:	48 8d 05 3e 51 00 00 	lea    0x513e(%rip),%rax        # 13024 <g_21>
    dee6:	48 89 85 98 fa ff ff 	mov    %rax,-0x568(%rbp)
    deed:	48 8d 05 30 51 00 00 	lea    0x5130(%rip),%rax        # 13024 <g_21>
    def4:	48 89 85 a8 f9 ff ff 	mov    %rax,-0x658(%rbp)
    defb:	48 8d 85 a8 f9 ff ff 	lea    -0x658(%rbp),%rax
    df02:	48 89 85 c0 f9 ff ff 	mov    %rax,-0x640(%rbp)
    df09:	c7 85 d0 f9 ff ff 08 	movl   $0x8,-0x630(%rbp)
    df10:	00 00 00 
    df13:	c7 85 d4 f9 ff ff 81 	movl   $0x199d3281,-0x62c(%rbp)
    df1a:	32 9d 19 
    df1d:	c7 85 d8 f9 ff ff 08 	movl   $0x8,-0x628(%rbp)
    df24:	00 00 00 
    df27:	c7 85 dc f9 ff ff 08 	movl   $0x8,-0x624(%rbp)
    df2e:	00 00 00 
    df31:	c7 85 e0 f9 ff ff 81 	movl   $0x199d3281,-0x620(%rbp)
    df38:	32 9d 19 
    df3b:	c7 85 e4 f9 ff ff 08 	movl   $0x8,-0x61c(%rbp)
    df42:	00 00 00 
    df45:	c7 85 e8 f9 ff ff 08 	movl   $0x8,-0x618(%rbp)
    df4c:	00 00 00 
    df4f:	c7 85 ec f9 ff ff 81 	movl   $0x199d3281,-0x614(%rbp)
    df56:	32 9d 19 
    df59:	c7 85 f0 f9 ff ff 08 	movl   $0x8,-0x610(%rbp)
    df60:	00 00 00 
    df63:	c7 85 f4 f9 ff ff 08 	movl   $0x8,-0x60c(%rbp)
    df6a:	00 00 00 
    df6d:	48 8d 05 c4 50 00 00 	lea    0x50c4(%rip),%rax        # 13038 <g_48>
    df74:	48 89 85 b0 f9 ff ff 	mov    %rax,-0x650(%rbp)
    df7b:	48 c7 85 b8 f9 ff ff 	movq   $0x0,-0x648(%rbp)
    df82:	00 00 00 00 
    df86:	48 8d 05 17 51 00 00 	lea    0x5117(%rip),%rax        # 130a4 <g_72+0x44>
    df8d:	48 89 85 c8 f9 ff ff 	mov    %rax,-0x638(%rbp)
    df94:	48 8d 85 c8 f9 ff ff 	lea    -0x638(%rbp),%rax
    df9b:	48 89 85 00 fa ff ff 	mov    %rax,-0x600(%rbp)
    dfa2:	48 8d 85 c8 f9 ff ff 	lea    -0x638(%rbp),%rax
    dfa9:	48 89 85 08 fa ff ff 	mov    %rax,-0x5f8(%rbp)
    dfb0:	48 8d 85 c8 f9 ff ff 	lea    -0x638(%rbp),%rax
    dfb7:	48 89 85 10 fa ff ff 	mov    %rax,-0x5f0(%rbp)
    dfbe:	48 8d 85 c8 f9 ff ff 	lea    -0x638(%rbp),%rax
    dfc5:	48 89 85 18 fa ff ff 	mov    %rax,-0x5e8(%rbp)
    dfcc:	48 8d 85 c8 f9 ff ff 	lea    -0x638(%rbp),%rax
    dfd3:	48 89 85 20 fa ff ff 	mov    %rax,-0x5e0(%rbp)
    dfda:	48 8d 85 c8 f9 ff ff 	lea    -0x638(%rbp),%rax
    dfe1:	48 89 85 28 fa ff ff 	mov    %rax,-0x5d8(%rbp)
    dfe8:	48 8d 85 c8 f9 ff ff 	lea    -0x638(%rbp),%rax
    dfef:	48 89 85 30 fa ff ff 	mov    %rax,-0x5d0(%rbp)
    dff6:	48 8d 85 c8 f9 ff ff 	lea    -0x638(%rbp),%rax
    dffd:	48 89 85 38 fa ff ff 	mov    %rax,-0x5c8(%rbp)
    e004:	48 8d 85 c8 f9 ff ff 	lea    -0x638(%rbp),%rax
    e00b:	48 89 85 40 fa ff ff 	mov    %rax,-0x5c0(%rbp)
    e012:	48 8b 85 c0 f9 ff ff 	mov    -0x640(%rbp),%rax
    e019:	48 8b 95 90 f9 ff ff 	mov    -0x670(%rbp),%rdx
    e020:	48 89 10             	mov    %rdx,(%rax)
    e023:	48 8d 05 fa 4f 00 00 	lea    0x4ffa(%rip),%rax        # 13024 <g_21>
    e02a:	48 8b 4d f8          	mov    -0x8(%rbp),%rcx
    e02e:	64 48 33 0c 25 28 00 	xor    %fs:0x28,%rcx
    e035:	00 00 
    e037:	74 05                	je     e03e <func_86+0x21e>
    e039:	e8 32 70 ff ff       	callq  5070 <__stack_chk_fail@plt>
    e03e:	c9                   	leaveq 
    e03f:	c3                   	retq   

000000000000e040 <main>:
    e040:	f3 0f 1e fa          	endbr64 
    e044:	55                   	push   %rbp
    e045:	48 89 e5             	mov    %rsp,%rbp
    e048:	48 83 ec 20          	sub    $0x20,%rsp
    e04c:	89 7d ec             	mov    %edi,-0x14(%rbp)
    e04f:	48 89 75 e0          	mov    %rsi,-0x20(%rbp)
    e053:	c7 45 fc 00 00 00 00 	movl   $0x0,-0x4(%rbp)
    e05a:	83 7d ec 02          	cmpl   $0x2,-0x14(%rbp)
    e05e:	75 25                	jne    e085 <main+0x45>
    e060:	48 8b 45 e0          	mov    -0x20(%rbp),%rax
    e064:	48 83 c0 08          	add    $0x8,%rax
    e068:	48 8b 00             	mov    (%rax),%rax
    e06b:	48 8d 35 6e 18 00 00 	lea    0x186e(%rip),%rsi        # f8e0 <g_356+0x856>
    e072:	48 89 c7             	mov    %rax,%rdi
    e075:	e8 16 70 ff ff       	callq  5090 <strcmp@plt>
    e07a:	85 c0                	test   %eax,%eax
    e07c:	75 07                	jne    e085 <main+0x45>
    e07e:	c7 45 fc 01 00 00 00 	movl   $0x1,-0x4(%rbp)
    e085:	e8 ff 70 ff ff       	callq  5189 <platform_main_begin>
    e08a:	e8 09 85 ff ff       	callq  6598 <crc32_gentab>
    e08f:	e8 21 87 ff ff       	callq  67b5 <func_1>
    e094:	0f b6 05 89 4f 00 00 	movzbl 0x4f89(%rip),%eax        # 13024 <g_21>
    e09b:	48 0f be c0          	movsbq %al,%rax
    e09f:	8b 55 fc             	mov    -0x4(%rbp),%edx
    e0a2:	48 8d 35 39 18 00 00 	lea    0x1839(%rip),%rsi        # f8e2 <g_356+0x858>
    e0a9:	48 89 c7             	mov    %rax,%rdi
    e0ac:	e8 42 86 ff ff       	callq  66f3 <transparent_crc>
    e0b1:	8b 05 71 4f 00 00    	mov    0x4f71(%rip),%eax        # 13028 <g_23>
    e0b7:	48 98                	cltq   
    e0b9:	8b 55 fc             	mov    -0x4(%rbp),%edx
    e0bc:	48 8d 35 24 18 00 00 	lea    0x1824(%rip),%rsi        # f8e7 <g_356+0x85d>
    e0c3:	48 89 c7             	mov    %rax,%rdi
    e0c6:	e8 28 86 ff ff       	callq  66f3 <transparent_crc>
    e0cb:	0f b6 05 16 77 00 00 	movzbl 0x7716(%rip),%eax        # 157e8 <g_28>
    e0d2:	48 0f be c0          	movsbq %al,%rax
    e0d6:	8b 55 fc             	mov    -0x4(%rbp),%edx
    e0d9:	48 8d 35 0c 18 00 00 	lea    0x180c(%rip),%rsi        # f8ec <g_356+0x862>
    e0e0:	48 89 c7             	mov    %rax,%rdi
    e0e3:	e8 0b 86 ff ff       	callq  66f3 <transparent_crc>
    e0e8:	48 8b 05 41 4f 00 00 	mov    0x4f41(%rip),%rax        # 13030 <g_29>
    e0ef:	8b 55 fc             	mov    -0x4(%rbp),%edx
    e0f2:	48 8d 35 f8 17 00 00 	lea    0x17f8(%rip),%rsi        # f8f1 <g_356+0x867>
    e0f9:	48 89 c7             	mov    %rax,%rdi
    e0fc:	e8 f2 85 ff ff       	callq  66f3 <transparent_crc>
    e101:	8b 05 31 4f 00 00    	mov    0x4f31(%rip),%eax        # 13038 <g_48>
    e107:	48 98                	cltq   
    e109:	8b 55 fc             	mov    -0x4(%rbp),%edx
    e10c:	48 8d 35 e3 17 00 00 	lea    0x17e3(%rip),%rsi        # f8f6 <g_356+0x86c>
    e113:	48 89 c7             	mov    %rax,%rdi
    e116:	e8 d8 85 ff ff       	callq  66f3 <transparent_crc>
    e11b:	8b 05 1b 4f 00 00    	mov    0x4f1b(%rip),%eax        # 1303c <g_51>
    e121:	48 98                	cltq   
    e123:	8b 55 fc             	mov    -0x4(%rbp),%edx
    e126:	48 8d 35 ce 17 00 00 	lea    0x17ce(%rip),%rsi        # f8fb <g_356+0x871>
    e12d:	48 89 c7             	mov    %rax,%rdi
    e130:	e8 be 85 ff ff       	callq  66f3 <transparent_crc>
    e135:	0f b7 05 04 4f 00 00 	movzwl 0x4f04(%rip),%eax        # 13040 <g_69>
    e13c:	48 0f bf c0          	movswq %ax,%rax
    e140:	8b 55 fc             	mov    -0x4(%rbp),%edx
    e143:	48 8d 35 b6 17 00 00 	lea    0x17b6(%rip),%rsi        # f900 <g_356+0x876>
    e14a:	48 89 c7             	mov    %rax,%rdi
    e14d:	e8 a1 85 ff ff       	callq  66f3 <transparent_crc>
    e152:	c7 45 f0 00 00 00 00 	movl   $0x0,-0x10(%rbp)
    e159:	e9 ad 00 00 00       	jmpq   e20b <main+0x1cb>
    e15e:	c7 45 f4 00 00 00 00 	movl   $0x0,-0xc(%rbp)
    e165:	e9 93 00 00 00       	jmpq   e1fd <main+0x1bd>
    e16a:	c7 45 f8 00 00 00 00 	movl   $0x0,-0x8(%rbp)
    e171:	eb 7c                	jmp    e1ef <main+0x1af>
    e173:	8b 45 f8             	mov    -0x8(%rbp),%eax
    e176:	48 63 f0             	movslq %eax,%rsi
    e179:	8b 45 f0             	mov    -0x10(%rbp),%eax
    e17c:	48 63 d0             	movslq %eax,%rdx
    e17f:	8b 45 f4             	mov    -0xc(%rbp),%eax
    e182:	48 63 c8             	movslq %eax,%rcx
    e185:	48 89 d0             	mov    %rdx,%rax
    e188:	48 c1 e0 03          	shl    $0x3,%rax
    e18c:	48 29 d0             	sub    %rdx,%rax
    e18f:	48 c1 e0 02          	shl    $0x2,%rax
    e193:	48 89 ca             	mov    %rcx,%rdx
    e196:	48 c1 e2 03          	shl    $0x3,%rdx
    e19a:	48 29 ca             	sub    %rcx,%rdx
    e19d:	48 01 d0             	add    %rdx,%rax
    e1a0:	48 01 f0             	add    %rsi,%rax
    e1a3:	48 8d 14 85 00 00 00 	lea    0x0(,%rax,4),%rdx
    e1aa:	00 
    e1ab:	48 8d 05 ae 4e 00 00 	lea    0x4eae(%rip),%rax        # 13060 <g_72>
    e1b2:	8b 04 02             	mov    (%rdx,%rax,1),%eax
    e1b5:	48 98                	cltq   
    e1b7:	8b 55 fc             	mov    -0x4(%rbp),%edx
    e1ba:	48 8d 35 47 17 00 00 	lea    0x1747(%rip),%rsi        # f908 <g_356+0x87e>
    e1c1:	48 89 c7             	mov    %rax,%rdi
    e1c4:	e8 2a 85 ff ff       	callq  66f3 <transparent_crc>
    e1c9:	83 7d fc 00          	cmpl   $0x0,-0x4(%rbp)
    e1cd:	74 1c                	je     e1eb <main+0x1ab>
    e1cf:	8b 4d f8             	mov    -0x8(%rbp),%ecx
    e1d2:	8b 55 f4             	mov    -0xc(%rbp),%edx
    e1d5:	8b 45 f0             	mov    -0x10(%rbp),%eax
    e1d8:	89 c6                	mov    %eax,%esi
    e1da:	48 8d 3d 35 17 00 00 	lea    0x1735(%rip),%rdi        # f916 <g_356+0x88c>
    e1e1:	b8 00 00 00 00       	mov    $0x0,%eax
    e1e6:	e8 95 6e ff ff       	callq  5080 <printf@plt>
    e1eb:	83 45 f8 01          	addl   $0x1,-0x8(%rbp)
    e1ef:	83 7d f8 06          	cmpl   $0x6,-0x8(%rbp)
    e1f3:	0f 8e 7a ff ff ff    	jle    e173 <main+0x133>
    e1f9:	83 45 f4 01          	addl   $0x1,-0xc(%rbp)
    e1fd:	83 7d f4 03          	cmpl   $0x3,-0xc(%rbp)
    e201:	0f 8e 63 ff ff ff    	jle    e16a <main+0x12a>
    e207:	83 45 f0 01          	addl   $0x1,-0x10(%rbp)
    e20b:	83 7d f0 02          	cmpl   $0x2,-0x10(%rbp)
    e20f:	0f 8e 49 ff ff ff    	jle    e15e <main+0x11e>
    e215:	8b 05 95 4f 00 00    	mov    0x4f95(%rip),%eax        # 131b0 <g_73>
    e21b:	48 98                	cltq   
    e21d:	8b 55 fc             	mov    -0x4(%rbp),%edx
    e220:	48 8d 35 05 17 00 00 	lea    0x1705(%rip),%rsi        # f92c <g_356+0x8a2>
    e227:	48 89 c7             	mov    %rax,%rdi
    e22a:	e8 c4 84 ff ff       	callq  66f3 <transparent_crc>
    e22f:	8b 05 b7 75 00 00    	mov    0x75b7(%rip),%eax        # 157ec <g_74>
    e235:	48 98                	cltq   
    e237:	8b 55 fc             	mov    -0x4(%rbp),%edx
    e23a:	48 8d 35 f0 16 00 00 	lea    0x16f0(%rip),%rsi        # f931 <g_356+0x8a7>
    e241:	48 89 c7             	mov    %rax,%rdi
    e244:	e8 aa 84 ff ff       	callq  66f3 <transparent_crc>
    e249:	8b 05 65 4f 00 00    	mov    0x4f65(%rip),%eax        # 131b4 <g_75>
    e24f:	48 98                	cltq   
    e251:	8b 55 fc             	mov    -0x4(%rbp),%edx
    e254:	48 8d 35 db 16 00 00 	lea    0x16db(%rip),%rsi        # f936 <g_356+0x8ac>
    e25b:	48 89 c7             	mov    %rax,%rdi
    e25e:	e8 90 84 ff ff       	callq  66f3 <transparent_crc>
    e263:	8b 05 4f 4f 00 00    	mov    0x4f4f(%rip),%eax        # 131b8 <g_94>
    e269:	48 98                	cltq   
    e26b:	8b 55 fc             	mov    -0x4(%rbp),%edx
    e26e:	48 8d 35 c6 16 00 00 	lea    0x16c6(%rip),%rsi        # f93b <g_356+0x8b1>
    e275:	48 89 c7             	mov    %rax,%rdi
    e278:	e8 76 84 ff ff       	callq  66f3 <transparent_crc>
    e27d:	8b 05 39 4f 00 00    	mov    0x4f39(%rip),%eax        # 131bc <g_94+0x4>
    e283:	89 c1                	mov    %eax,%ecx
    e285:	8b 45 fc             	mov    -0x4(%rbp),%eax
    e288:	89 c2                	mov    %eax,%edx
    e28a:	48 8d 35 b2 16 00 00 	lea    0x16b2(%rip),%rsi        # f943 <g_356+0x8b9>
    e291:	48 89 cf             	mov    %rcx,%rdi
    e294:	e8 5a 84 ff ff       	callq  66f3 <transparent_crc>
    e299:	0f b6 05 20 4f 00 00 	movzbl 0x4f20(%rip),%eax        # 131c0 <g_113>
    e2a0:	0f b6 c0             	movzbl %al,%eax
    e2a3:	8b 55 fc             	mov    -0x4(%rbp),%edx
    e2a6:	48 8d 35 9e 16 00 00 	lea    0x169e(%rip),%rsi        # f94b <g_356+0x8c1>
    e2ad:	48 89 c7             	mov    %rax,%rdi
    e2b0:	e8 3e 84 ff ff       	callq  66f3 <transparent_crc>
    e2b5:	c7 45 f0 00 00 00 00 	movl   $0x0,-0x10(%rbp)
    e2bc:	eb 49                	jmp    e307 <main+0x2c7>
    e2be:	8b 45 f0             	mov    -0x10(%rbp),%eax
    e2c1:	48 98                	cltq   
    e2c3:	48 8d 14 00          	lea    (%rax,%rax,1),%rdx
    e2c7:	48 8d 05 02 4f 00 00 	lea    0x4f02(%rip),%rax        # 131d0 <g_121>
    e2ce:	0f b7 04 02          	movzwl (%rdx,%rax,1),%eax
    e2d2:	0f b7 c0             	movzwl %ax,%eax
    e2d5:	8b 55 fc             	mov    -0x4(%rbp),%edx
    e2d8:	48 8d 35 72 16 00 00 	lea    0x1672(%rip),%rsi        # f951 <g_356+0x8c7>
    e2df:	48 89 c7             	mov    %rax,%rdi
    e2e2:	e8 0c 84 ff ff       	callq  66f3 <transparent_crc>
    e2e7:	83 7d fc 00          	cmpl   $0x0,-0x4(%rbp)
    e2eb:	74 16                	je     e303 <main+0x2c3>
    e2ed:	8b 45 f0             	mov    -0x10(%rbp),%eax
    e2f0:	89 c6                	mov    %eax,%esi
    e2f2:	48 8d 3d 61 16 00 00 	lea    0x1661(%rip),%rdi        # f95a <g_356+0x8d0>
    e2f9:	b8 00 00 00 00       	mov    $0x0,%eax
    e2fe:	e8 7d 6d ff ff       	callq  5080 <printf@plt>
    e303:	83 45 f0 01          	addl   $0x1,-0x10(%rbp)
    e307:	83 7d f0 09          	cmpl   $0x9,-0x10(%rbp)
    e30b:	7e b1                	jle    e2be <main+0x27e>
    e30d:	c7 45 f0 00 00 00 00 	movl   $0x0,-0x10(%rbp)
    e314:	eb 78                	jmp    e38e <main+0x34e>
    e316:	8b 45 f0             	mov    -0x10(%rbp),%eax
    e319:	48 98                	cltq   
    e31b:	48 8d 14 c5 00 00 00 	lea    0x0(,%rax,8),%rdx
    e322:	00 
    e323:	48 8d 05 d6 4e 00 00 	lea    0x4ed6(%rip),%rax        # 13200 <g_128>
    e32a:	8b 04 02             	mov    (%rdx,%rax,1),%eax
    e32d:	48 98                	cltq   
    e32f:	8b 55 fc             	mov    -0x4(%rbp),%edx
    e332:	48 8d 35 2f 16 00 00 	lea    0x162f(%rip),%rsi        # f968 <g_356+0x8de>
    e339:	48 89 c7             	mov    %rax,%rdi
    e33c:	e8 b2 83 ff ff       	callq  66f3 <transparent_crc>
    e341:	8b 45 f0             	mov    -0x10(%rbp),%eax
    e344:	48 98                	cltq   
    e346:	48 8d 14 c5 00 00 00 	lea    0x0(,%rax,8),%rdx
    e34d:	00 
    e34e:	48 8d 05 af 4e 00 00 	lea    0x4eaf(%rip),%rax        # 13204 <g_128+0x4>
    e355:	8b 04 02             	mov    (%rdx,%rax,1),%eax
    e358:	89 c1                	mov    %eax,%ecx
    e35a:	8b 45 fc             	mov    -0x4(%rbp),%eax
    e35d:	89 c2                	mov    %eax,%edx
    e35f:	48 8d 35 0e 16 00 00 	lea    0x160e(%rip),%rsi        # f974 <g_356+0x8ea>
    e366:	48 89 cf             	mov    %rcx,%rdi
    e369:	e8 85 83 ff ff       	callq  66f3 <transparent_crc>
    e36e:	83 7d fc 00          	cmpl   $0x0,-0x4(%rbp)
    e372:	74 16                	je     e38a <main+0x34a>
    e374:	8b 45 f0             	mov    -0x10(%rbp),%eax
    e377:	89 c6                	mov    %eax,%esi
    e379:	48 8d 3d da 15 00 00 	lea    0x15da(%rip),%rdi        # f95a <g_356+0x8d0>
    e380:	b8 00 00 00 00       	mov    $0x0,%eax
    e385:	e8 f6 6c ff ff       	callq  5080 <printf@plt>
    e38a:	83 45 f0 01          	addl   $0x1,-0x10(%rbp)
    e38e:	83 7d f0 06          	cmpl   $0x6,-0x10(%rbp)
    e392:	7e 82                	jle    e316 <main+0x2d6>
    e394:	c7 45 f0 00 00 00 00 	movl   $0x0,-0x10(%rbp)
    e39b:	eb 4d                	jmp    e3ea <main+0x3aa>
    e39d:	8b 45 f0             	mov    -0x10(%rbp),%eax
    e3a0:	48 98                	cltq   
    e3a2:	48 8d 14 85 00 00 00 	lea    0x0(,%rax,4),%rdx
    e3a9:	00 
    e3aa:	48 8d 05 87 4e 00 00 	lea    0x4e87(%rip),%rax        # 13238 <g_146>
    e3b1:	8b 04 02             	mov    (%rdx,%rax,1),%eax
    e3b4:	89 c1                	mov    %eax,%ecx
    e3b6:	8b 45 fc             	mov    -0x4(%rbp),%eax
    e3b9:	89 c2                	mov    %eax,%edx
    e3bb:	48 8d 35 be 15 00 00 	lea    0x15be(%rip),%rsi        # f980 <g_356+0x8f6>
    e3c2:	48 89 cf             	mov    %rcx,%rdi
    e3c5:	e8 29 83 ff ff       	callq  66f3 <transparent_crc>
    e3ca:	83 7d fc 00          	cmpl   $0x0,-0x4(%rbp)
    e3ce:	74 16                	je     e3e6 <main+0x3a6>
    e3d0:	8b 45 f0             	mov    -0x10(%rbp),%eax
    e3d3:	89 c6                	mov    %eax,%esi
    e3d5:	48 8d 3d 7e 15 00 00 	lea    0x157e(%rip),%rdi        # f95a <g_356+0x8d0>
    e3dc:	b8 00 00 00 00       	mov    $0x0,%eax
    e3e1:	e8 9a 6c ff ff       	callq  5080 <printf@plt>
    e3e6:	83 45 f0 01          	addl   $0x1,-0x10(%rbp)
    e3ea:	83 7d f0 01          	cmpl   $0x1,-0x10(%rbp)
    e3ee:	7e ad                	jle    e39d <main+0x35d>
    e3f0:	c7 45 f0 00 00 00 00 	movl   $0x0,-0x10(%rbp)
    e3f7:	e9 b6 00 00 00       	jmpq   e4b2 <main+0x472>
    e3fc:	c7 45 f4 00 00 00 00 	movl   $0x0,-0xc(%rbp)
    e403:	e9 9c 00 00 00       	jmpq   e4a4 <main+0x464>
    e408:	c7 45 f8 00 00 00 00 	movl   $0x0,-0x8(%rbp)
    e40f:	e9 82 00 00 00       	jmpq   e496 <main+0x456>
    e414:	8b 45 f8             	mov    -0x8(%rbp),%eax
    e417:	48 63 f0             	movslq %eax,%rsi
    e41a:	8b 45 f0             	mov    -0x10(%rbp),%eax
    e41d:	48 63 d0             	movslq %eax,%rdx
    e420:	8b 45 f4             	mov    -0xc(%rbp),%eax
    e423:	48 63 c8             	movslq %eax,%rcx
    e426:	48 89 d0             	mov    %rdx,%rax
    e429:	48 c1 e0 02          	shl    $0x2,%rax
    e42d:	48 01 d0             	add    %rdx,%rax
    e430:	48 c1 e0 02          	shl    $0x2,%rax
    e434:	48 01 d0             	add    %rdx,%rax
    e437:	48 89 ca             	mov    %rcx,%rdx
    e43a:	48 01 d2             	add    %rdx,%rdx
    e43d:	48 01 ca             	add    %rcx,%rdx
    e440:	48 01 d0             	add    %rdx,%rax
    e443:	48 01 f0             	add    %rsi,%rax
    e446:	48 8d 14 c5 00 00 00 	lea    0x0(,%rax,8),%rdx
    e44d:	00 
    e44e:	48 8d 05 eb 4d 00 00 	lea    0x4deb(%rip),%rax        # 13240 <g_202>
    e455:	48 8b 04 02          	mov    (%rdx,%rax,1),%rax
    e459:	48 89 c1             	mov    %rax,%rcx
    e45c:	8b 45 fc             	mov    -0x4(%rbp),%eax
    e45f:	89 c2                	mov    %eax,%edx
    e461:	48 8d 35 21 15 00 00 	lea    0x1521(%rip),%rsi        # f989 <g_356+0x8ff>
    e468:	48 89 cf             	mov    %rcx,%rdi
    e46b:	e8 83 82 ff ff       	callq  66f3 <transparent_crc>
    e470:	83 7d fc 00          	cmpl   $0x0,-0x4(%rbp)
    e474:	74 1c                	je     e492 <main+0x452>
    e476:	8b 4d f8             	mov    -0x8(%rbp),%ecx
    e479:	8b 55 f4             	mov    -0xc(%rbp),%edx
    e47c:	8b 45 f0             	mov    -0x10(%rbp),%eax
    e47f:	89 c6                	mov    %eax,%esi
    e481:	48 8d 3d 8e 14 00 00 	lea    0x148e(%rip),%rdi        # f916 <g_356+0x88c>
    e488:	b8 00 00 00 00       	mov    $0x0,%eax
    e48d:	e8 ee 6b ff ff       	callq  5080 <printf@plt>
    e492:	83 45 f8 01          	addl   $0x1,-0x8(%rbp)
    e496:	83 7d f8 02          	cmpl   $0x2,-0x8(%rbp)
    e49a:	0f 8e 74 ff ff ff    	jle    e414 <main+0x3d4>
    e4a0:	83 45 f4 01          	addl   $0x1,-0xc(%rbp)
    e4a4:	83 7d f4 06          	cmpl   $0x6,-0xc(%rbp)
    e4a8:	0f 8e 5a ff ff ff    	jle    e408 <main+0x3c8>
    e4ae:	83 45 f0 01          	addl   $0x1,-0x10(%rbp)
    e4b2:	83 7d f0 09          	cmpl   $0x9,-0x10(%rbp)
    e4b6:	0f 8e 40 ff ff ff    	jle    e3fc <main+0x3bc>
    e4bc:	8b 05 0e 54 00 00    	mov    0x540e(%rip),%eax        # 138d0 <g_205>
    e4c2:	48 98                	cltq   
    e4c4:	8b 55 fc             	mov    -0x4(%rbp),%edx
    e4c7:	48 8d 35 ca 14 00 00 	lea    0x14ca(%rip),%rsi        # f998 <g_356+0x90e>
    e4ce:	48 89 c7             	mov    %rax,%rdi
    e4d1:	e8 1d 82 ff ff       	callq  66f3 <transparent_crc>
    e4d6:	0f b6 05 33 73 00 00 	movzbl 0x7333(%rip),%eax        # 15810 <g_333>
    e4dd:	0f b6 c0             	movzbl %al,%eax
    e4e0:	8b 55 fc             	mov    -0x4(%rbp),%edx
    e4e3:	48 8d 35 b4 14 00 00 	lea    0x14b4(%rip),%rsi        # f99e <g_356+0x914>
    e4ea:	48 89 c7             	mov    %rax,%rdi
    e4ed:	e8 01 82 ff ff       	callq  66f3 <transparent_crc>
    e4f2:	c7 45 f0 00 00 00 00 	movl   $0x0,-0x10(%rbp)
    e4f9:	eb 75                	jmp    e570 <main+0x530>
    e4fb:	c7 45 f4 00 00 00 00 	movl   $0x0,-0xc(%rbp)
    e502:	eb 62                	jmp    e566 <main+0x526>
    e504:	8b 45 f4             	mov    -0xc(%rbp),%eax
    e507:	48 63 c8             	movslq %eax,%rcx
    e50a:	8b 45 f0             	mov    -0x10(%rbp),%eax
    e50d:	48 63 d0             	movslq %eax,%rdx
    e510:	48 89 d0             	mov    %rdx,%rax
    e513:	48 01 c0             	add    %rax,%rax
    e516:	48 01 d0             	add    %rdx,%rax
    e519:	48 01 c0             	add    %rax,%rax
    e51c:	48 8d 14 08          	lea    (%rax,%rcx,1),%rdx
    e520:	48 8d 05 39 0b 00 00 	lea    0xb39(%rip),%rax        # f060 <g_354>
    e527:	48 01 d0             	add    %rdx,%rax
    e52a:	0f b6 00             	movzbl (%rax),%eax
    e52d:	48 0f be c0          	movsbq %al,%rax
    e531:	8b 55 fc             	mov    -0x4(%rbp),%edx
    e534:	48 8d 35 6c 14 00 00 	lea    0x146c(%rip),%rsi        # f9a7 <g_356+0x91d>
    e53b:	48 89 c7             	mov    %rax,%rdi
    e53e:	e8 b0 81 ff ff       	callq  66f3 <transparent_crc>
    e543:	83 7d fc 00          	cmpl   $0x0,-0x4(%rbp)
    e547:	74 19                	je     e562 <main+0x522>
    e549:	8b 55 f4             	mov    -0xc(%rbp),%edx
    e54c:	8b 45 f0             	mov    -0x10(%rbp),%eax
    e54f:	89 c6                	mov    %eax,%esi
    e551:	48 8d 3d 5b 14 00 00 	lea    0x145b(%rip),%rdi        # f9b3 <g_356+0x929>
    e558:	b8 00 00 00 00       	mov    $0x0,%eax
    e55d:	e8 1e 6b ff ff       	callq  5080 <printf@plt>
    e562:	83 45 f4 01          	addl   $0x1,-0xc(%rbp)
    e566:	83 7d f4 05          	cmpl   $0x5,-0xc(%rbp)
    e56a:	7e 98                	jle    e504 <main+0x4c4>
    e56c:	83 45 f0 01          	addl   $0x1,-0x10(%rbp)
    e570:	83 7d f0 06          	cmpl   $0x6,-0x10(%rbp)
    e574:	7e 85                	jle    e4fb <main+0x4bb>
    e576:	b8 e2 ff ff ff       	mov    $0xffffffe2,%eax
    e57b:	48 0f be c0          	movsbq %al,%rax
    e57f:	8b 55 fc             	mov    -0x4(%rbp),%edx
    e582:	48 8d 35 3c 14 00 00 	lea    0x143c(%rip),%rsi        # f9c5 <g_356+0x93b>
    e589:	48 89 c7             	mov    %rax,%rdi
    e58c:	e8 62 81 ff ff       	callq  66f3 <transparent_crc>
    e591:	0f b6 05 48 53 00 00 	movzbl 0x5348(%rip),%eax        # 138e0 <g_475>
    e598:	48 0f be c0          	movsbq %al,%rax
    e59c:	8b 55 fc             	mov    -0x4(%rbp),%edx
    e59f:	48 8d 35 25 14 00 00 	lea    0x1425(%rip),%rsi        # f9cb <g_356+0x941>
    e5a6:	48 89 c7             	mov    %rax,%rdi
    e5a9:	e8 45 81 ff ff       	callq  66f3 <transparent_crc>
    e5ae:	48 8b 05 33 53 00 00 	mov    0x5333(%rip),%rax        # 138e8 <g_480>
    e5b5:	48 89 c1             	mov    %rax,%rcx
    e5b8:	8b 45 fc             	mov    -0x4(%rbp),%eax
    e5bb:	89 c2                	mov    %eax,%edx
    e5bd:	48 8d 35 0d 14 00 00 	lea    0x140d(%rip),%rsi        # f9d1 <g_356+0x947>
    e5c4:	48 89 cf             	mov    %rcx,%rdi
    e5c7:	e8 27 81 ff ff       	callq  66f3 <transparent_crc>
    e5cc:	0f b7 05 1d 53 00 00 	movzwl 0x531d(%rip),%eax        # 138f0 <g_493>
    e5d3:	48 0f bf c0          	movswq %ax,%rax
    e5d7:	8b 55 fc             	mov    -0x4(%rbp),%edx
    e5da:	48 8d 35 f6 13 00 00 	lea    0x13f6(%rip),%rsi        # f9d7 <g_356+0x94d>
    e5e1:	48 89 c7             	mov    %rax,%rdi
    e5e4:	e8 0a 81 ff ff       	callq  66f3 <transparent_crc>
    e5e9:	c7 45 f0 00 00 00 00 	movl   $0x0,-0x10(%rbp)
    e5f0:	eb 6d                	jmp    e65f <main+0x61f>
    e5f2:	c7 45 f4 00 00 00 00 	movl   $0x0,-0xc(%rbp)
    e5f9:	eb 5a                	jmp    e655 <main+0x615>
    e5fb:	8b 45 f4             	mov    -0xc(%rbp),%eax
    e5fe:	48 98                	cltq   
    e600:	8b 55 f0             	mov    -0x10(%rbp),%edx
    e603:	48 63 d2             	movslq %edx,%rdx
    e606:	48 c1 e2 03          	shl    $0x3,%rdx
    e60a:	48 01 d0             	add    %rdx,%rax
    e60d:	48 8d 14 c5 00 00 00 	lea    0x0(,%rax,8),%rdx
    e614:	00 
    e615:	48 8d 05 e4 52 00 00 	lea    0x52e4(%rip),%rax        # 13900 <g_510>
    e61c:	48 8b 04 02          	mov    (%rdx,%rax,1),%rax
    e620:	8b 55 fc             	mov    -0x4(%rbp),%edx
    e623:	48 8d 35 b3 13 00 00 	lea    0x13b3(%rip),%rsi        # f9dd <g_356+0x953>
    e62a:	48 89 c7             	mov    %rax,%rdi
    e62d:	e8 c1 80 ff ff       	callq  66f3 <transparent_crc>
    e632:	83 7d fc 00          	cmpl   $0x0,-0x4(%rbp)
    e636:	74 19                	je     e651 <main+0x611>
    e638:	8b 55 f4             	mov    -0xc(%rbp),%edx
    e63b:	8b 45 f0             	mov    -0x10(%rbp),%eax
    e63e:	89 c6                	mov    %eax,%esi
    e640:	48 8d 3d 6c 13 00 00 	lea    0x136c(%rip),%rdi        # f9b3 <g_356+0x929>
    e647:	b8 00 00 00 00       	mov    $0x0,%eax
    e64c:	e8 2f 6a ff ff       	callq  5080 <printf@plt>
    e651:	83 45 f4 01          	addl   $0x1,-0xc(%rbp)
    e655:	83 7d f4 07          	cmpl   $0x7,-0xc(%rbp)
    e659:	7e a0                	jle    e5fb <main+0x5bb>
    e65b:	83 45 f0 01          	addl   $0x1,-0x10(%rbp)
    e65f:	83 7d f0 06          	cmpl   $0x6,-0x10(%rbp)
    e663:	7e 8d                	jle    e5f2 <main+0x5b2>
    e665:	0f b6 05 54 54 00 00 	movzbl 0x5454(%rip),%eax        # 13ac0 <g_517>
    e66c:	48 0f be c0          	movsbq %al,%rax
    e670:	8b 55 fc             	mov    -0x4(%rbp),%edx
    e673:	48 8d 35 6f 13 00 00 	lea    0x136f(%rip),%rsi        # f9e9 <g_356+0x95f>
    e67a:	48 89 c7             	mov    %rax,%rdi
    e67d:	e8 71 80 ff ff       	callq  66f3 <transparent_crc>
    e682:	48 8b 05 3f 54 00 00 	mov    0x543f(%rip),%rax        # 13ac8 <g_519>
    e689:	48 89 c1             	mov    %rax,%rcx
    e68c:	8b 45 fc             	mov    -0x4(%rbp),%eax
    e68f:	89 c2                	mov    %eax,%edx
    e691:	48 8d 35 57 13 00 00 	lea    0x1357(%rip),%rsi        # f9ef <g_356+0x965>
    e698:	48 89 cf             	mov    %rcx,%rdi
    e69b:	e8 53 80 ff ff       	callq  66f3 <transparent_crc>
    e6a0:	0f b7 05 29 54 00 00 	movzwl 0x5429(%rip),%eax        # 13ad0 <g_520>
    e6a7:	0f b7 c0             	movzwl %ax,%eax
    e6aa:	8b 55 fc             	mov    -0x4(%rbp),%edx
    e6ad:	48 8d 35 41 13 00 00 	lea    0x1341(%rip),%rsi        # f9f5 <g_356+0x96b>
    e6b4:	48 89 c7             	mov    %rax,%rdi
    e6b7:	e8 37 80 ff ff       	callq  66f3 <transparent_crc>
    e6bc:	8b 05 12 54 00 00    	mov    0x5412(%rip),%eax        # 13ad4 <g_602>
    e6c2:	89 c1                	mov    %eax,%ecx
    e6c4:	8b 45 fc             	mov    -0x4(%rbp),%eax
    e6c7:	89 c2                	mov    %eax,%edx
    e6c9:	48 8d 35 2b 13 00 00 	lea    0x132b(%rip),%rsi        # f9fb <g_356+0x971>
    e6d0:	48 89 cf             	mov    %rcx,%rdi
    e6d3:	e8 1b 80 ff ff       	callq  66f3 <transparent_crc>
    e6d8:	8b 05 fa 53 00 00    	mov    0x53fa(%rip),%eax        # 13ad8 <g_686>
    e6de:	48 98                	cltq   
    e6e0:	8b 55 fc             	mov    -0x4(%rbp),%edx
    e6e3:	48 8d 35 17 13 00 00 	lea    0x1317(%rip),%rsi        # fa01 <g_356+0x977>
    e6ea:	48 89 c7             	mov    %rax,%rdi
    e6ed:	e8 01 80 ff ff       	callq  66f3 <transparent_crc>
    e6f2:	8b 05 e4 53 00 00    	mov    0x53e4(%rip),%eax        # 13adc <g_686+0x4>
    e6f8:	89 c1                	mov    %eax,%ecx
    e6fa:	8b 45 fc             	mov    -0x4(%rbp),%eax
    e6fd:	89 c2                	mov    %eax,%edx
    e6ff:	48 8d 35 04 13 00 00 	lea    0x1304(%rip),%rsi        # fa0a <g_356+0x980>
    e706:	48 89 cf             	mov    %rcx,%rdi
    e709:	e8 e5 7f ff ff       	callq  66f3 <transparent_crc>
    e70e:	48 8b 05 cb 53 00 00 	mov    0x53cb(%rip),%rax        # 13ae0 <g_1221>
    e715:	48 89 c1             	mov    %rax,%rcx
    e718:	8b 45 fc             	mov    -0x4(%rbp),%eax
    e71b:	89 c2                	mov    %eax,%edx
    e71d:	48 8d 35 ef 12 00 00 	lea    0x12ef(%rip),%rsi        # fa13 <g_356+0x989>
    e724:	48 89 cf             	mov    %rcx,%rdi
    e727:	e8 c7 7f ff ff       	callq  66f3 <transparent_crc>
    e72c:	8b 05 b6 53 00 00    	mov    0x53b6(%rip),%eax        # 13ae8 <g_1324>
    e732:	89 c1                	mov    %eax,%ecx
    e734:	8b 45 fc             	mov    -0x4(%rbp),%eax
    e737:	89 c2                	mov    %eax,%edx
    e739:	48 8d 35 da 12 00 00 	lea    0x12da(%rip),%rsi        # fa1a <g_356+0x990>
    e740:	48 89 cf             	mov    %rcx,%rdi
    e743:	e8 ab 7f ff ff       	callq  66f3 <transparent_crc>
    e748:	c7 45 f0 00 00 00 00 	movl   $0x0,-0x10(%rbp)
    e74f:	eb 4a                	jmp    e79b <main+0x75b>
    e751:	8b 45 f0             	mov    -0x10(%rbp),%eax
    e754:	48 98                	cltq   
    e756:	48 8d 14 c5 00 00 00 	lea    0x0(,%rax,8),%rdx
    e75d:	00 
    e75e:	48 8d 05 8b 53 00 00 	lea    0x538b(%rip),%rax        # 13af0 <g_1389>
    e765:	48 8b 04 02          	mov    (%rdx,%rax,1),%rax
    e769:	8b 55 fc             	mov    -0x4(%rbp),%edx
    e76c:	48 8d 35 ae 12 00 00 	lea    0x12ae(%rip),%rsi        # fa21 <g_356+0x997>
    e773:	48 89 c7             	mov    %rax,%rdi
    e776:	e8 78 7f ff ff       	callq  66f3 <transparent_crc>
    e77b:	83 7d fc 00          	cmpl   $0x0,-0x4(%rbp)
    e77f:	74 16                	je     e797 <main+0x757>
    e781:	8b 45 f0             	mov    -0x10(%rbp),%eax
    e784:	89 c6                	mov    %eax,%esi
    e786:	48 8d 3d cd 11 00 00 	lea    0x11cd(%rip),%rdi        # f95a <g_356+0x8d0>
    e78d:	b8 00 00 00 00       	mov    $0x0,%eax
    e792:	e8 e9 68 ff ff       	callq  5080 <printf@plt>
    e797:	83 45 f0 01          	addl   $0x1,-0x10(%rbp)
    e79b:	83 7d f0 02          	cmpl   $0x2,-0x10(%rbp)
    e79f:	7e b0                	jle    e751 <main+0x711>
    e7a1:	0f b6 05 60 53 00 00 	movzbl 0x5360(%rip),%eax        # 13b08 <g_1399>
    e7a8:	48 0f be c0          	movsbq %al,%rax
    e7ac:	8b 55 fc             	mov    -0x4(%rbp),%edx
    e7af:	48 8d 35 75 12 00 00 	lea    0x1275(%rip),%rsi        # fa2b <g_356+0x9a1>
    e7b6:	48 89 c7             	mov    %rax,%rdi
    e7b9:	e8 35 7f ff ff       	callq  66f3 <transparent_crc>
    e7be:	c7 45 f0 00 00 00 00 	movl   $0x0,-0x10(%rbp)
    e7c5:	eb 4b                	jmp    e812 <main+0x7d2>
    e7c7:	8b 45 f0             	mov    -0x10(%rbp),%eax
    e7ca:	48 98                	cltq   
    e7cc:	48 8d 14 85 00 00 00 	lea    0x0(,%rax,4),%rdx
    e7d3:	00 
    e7d4:	48 8d 05 35 53 00 00 	lea    0x5335(%rip),%rax        # 13b10 <g_1599>
    e7db:	8b 04 02             	mov    (%rdx,%rax,1),%eax
    e7de:	48 98                	cltq   
    e7e0:	8b 55 fc             	mov    -0x4(%rbp),%edx
    e7e3:	48 8d 35 48 12 00 00 	lea    0x1248(%rip),%rsi        # fa32 <g_356+0x9a8>
    e7ea:	48 89 c7             	mov    %rax,%rdi
    e7ed:	e8 01 7f ff ff       	callq  66f3 <transparent_crc>
    e7f2:	83 7d fc 00          	cmpl   $0x0,-0x4(%rbp)
    e7f6:	74 16                	je     e80e <main+0x7ce>
    e7f8:	8b 45 f0             	mov    -0x10(%rbp),%eax
    e7fb:	89 c6                	mov    %eax,%esi
    e7fd:	48 8d 3d 56 11 00 00 	lea    0x1156(%rip),%rdi        # f95a <g_356+0x8d0>
    e804:	b8 00 00 00 00       	mov    $0x0,%eax
    e809:	e8 72 68 ff ff       	callq  5080 <printf@plt>
    e80e:	83 45 f0 01          	addl   $0x1,-0x10(%rbp)
    e812:	83 7d f0 01          	cmpl   $0x1,-0x10(%rbp)
    e816:	7e af                	jle    e7c7 <main+0x787>
    e818:	c7 45 f0 00 00 00 00 	movl   $0x0,-0x10(%rbp)
    e81f:	eb 77                	jmp    e898 <main+0x858>
    e821:	c7 45 f4 00 00 00 00 	movl   $0x0,-0xc(%rbp)
    e828:	eb 64                	jmp    e88e <main+0x84e>
    e82a:	8b 45 f4             	mov    -0xc(%rbp),%eax
    e82d:	48 63 c8             	movslq %eax,%rcx
    e830:	8b 45 f0             	mov    -0x10(%rbp),%eax
    e833:	48 63 d0             	movslq %eax,%rdx
    e836:	48 89 d0             	mov    %rdx,%rax
    e839:	48 01 c0             	add    %rax,%rax
    e83c:	48 01 d0             	add    %rdx,%rax
    e83f:	48 01 c0             	add    %rax,%rax
    e842:	48 01 c8             	add    %rcx,%rax
    e845:	48 8d 14 85 00 00 00 	lea    0x0(,%rax,4),%rdx
    e84c:	00 
    e84d:	48 8d 05 cc 52 00 00 	lea    0x52cc(%rip),%rax        # 13b20 <g_1623>
    e854:	8b 04 02             	mov    (%rdx,%rax,1),%eax
    e857:	48 98                	cltq   
    e859:	8b 55 fc             	mov    -0x4(%rbp),%edx
    e85c:	48 8d 35 d9 11 00 00 	lea    0x11d9(%rip),%rsi        # fa3c <g_356+0x9b2>
    e863:	48 89 c7             	mov    %rax,%rdi
    e866:	e8 88 7e ff ff       	callq  66f3 <transparent_crc>
    e86b:	83 7d fc 00          	cmpl   $0x0,-0x4(%rbp)
    e86f:	74 19                	je     e88a <main+0x84a>
    e871:	8b 55 f4             	mov    -0xc(%rbp),%edx
    e874:	8b 45 f0             	mov    -0x10(%rbp),%eax
    e877:	89 c6                	mov    %eax,%esi
    e879:	48 8d 3d 33 11 00 00 	lea    0x1133(%rip),%rdi        # f9b3 <g_356+0x929>
    e880:	b8 00 00 00 00       	mov    $0x0,%eax
    e885:	e8 f6 67 ff ff       	callq  5080 <printf@plt>
    e88a:	83 45 f4 01          	addl   $0x1,-0xc(%rbp)
    e88e:	83 7d f4 05          	cmpl   $0x5,-0xc(%rbp)
    e892:	7e 96                	jle    e82a <main+0x7ea>
    e894:	83 45 f0 01          	addl   $0x1,-0x10(%rbp)
    e898:	83 7d f0 01          	cmpl   $0x1,-0x10(%rbp)
    e89c:	7e 83                	jle    e821 <main+0x7e1>
    e89e:	c7 45 f0 00 00 00 00 	movl   $0x0,-0x10(%rbp)
    e8a5:	eb 4b                	jmp    e8f2 <main+0x8b2>
    e8a7:	8b 45 f0             	mov    -0x10(%rbp),%eax
    e8aa:	48 98                	cltq   
    e8ac:	48 8d 14 85 00 00 00 	lea    0x0(,%rax,4),%rdx
    e8b3:	00 
    e8b4:	48 8d 05 95 52 00 00 	lea    0x5295(%rip),%rax        # 13b50 <g_1740>
    e8bb:	8b 04 02             	mov    (%rdx,%rax,1),%eax
    e8be:	48 98                	cltq   
    e8c0:	8b 55 fc             	mov    -0x4(%rbp),%edx
    e8c3:	48 8d 35 7f 11 00 00 	lea    0x117f(%rip),%rsi        # fa49 <g_356+0x9bf>
    e8ca:	48 89 c7             	mov    %rax,%rdi
    e8cd:	e8 21 7e ff ff       	callq  66f3 <transparent_crc>
    e8d2:	83 7d fc 00          	cmpl   $0x0,-0x4(%rbp)
    e8d6:	74 16                	je     e8ee <main+0x8ae>
    e8d8:	8b 45 f0             	mov    -0x10(%rbp),%eax
    e8db:	89 c6                	mov    %eax,%esi
    e8dd:	48 8d 3d 76 10 00 00 	lea    0x1076(%rip),%rdi        # f95a <g_356+0x8d0>
    e8e4:	b8 00 00 00 00       	mov    $0x0,%eax
    e8e9:	e8 92 67 ff ff       	callq  5080 <printf@plt>
    e8ee:	83 45 f0 01          	addl   $0x1,-0x10(%rbp)
    e8f2:	83 7d f0 02          	cmpl   $0x2,-0x10(%rbp)
    e8f6:	7e af                	jle    e8a7 <main+0x867>
    e8f8:	0f b7 05 5d 52 00 00 	movzwl 0x525d(%rip),%eax        # 13b5c <g_1814>
    e8ff:	48 0f bf c0          	movswq %ax,%rax
    e903:	8b 55 fc             	mov    -0x4(%rbp),%edx
    e906:	48 8d 35 46 11 00 00 	lea    0x1146(%rip),%rsi        # fa53 <g_356+0x9c9>
    e90d:	48 89 c7             	mov    %rax,%rdi
    e910:	e8 de 7d ff ff       	callq  66f3 <transparent_crc>
    e915:	c7 45 f0 00 00 00 00 	movl   $0x0,-0x10(%rbp)
    e91c:	e9 b5 00 00 00       	jmpq   e9d6 <main+0x996>
    e921:	c7 45 f4 00 00 00 00 	movl   $0x0,-0xc(%rbp)
    e928:	e9 9b 00 00 00       	jmpq   e9c8 <main+0x988>
    e92d:	c7 45 f8 00 00 00 00 	movl   $0x0,-0x8(%rbp)
    e934:	e9 81 00 00 00       	jmpq   e9ba <main+0x97a>
    e939:	8b 45 f8             	mov    -0x8(%rbp),%eax
    e93c:	48 63 f0             	movslq %eax,%rsi
    e93f:	8b 45 f0             	mov    -0x10(%rbp),%eax
    e942:	48 98                	cltq   
    e944:	8b 55 f4             	mov    -0xc(%rbp),%edx
    e947:	48 63 ca             	movslq %edx,%rcx
    e94a:	48 89 c2             	mov    %rax,%rdx
    e94d:	48 01 d2             	add    %rdx,%rdx
    e950:	48 01 c2             	add    %rax,%rdx
    e953:	48 89 d0             	mov    %rdx,%rax
    e956:	48 c1 e0 04          	shl    $0x4,%rax
    e95a:	48 89 c2             	mov    %rax,%rdx
    e95d:	48 89 c8             	mov    %rcx,%rax
    e960:	48 01 c0             	add    %rax,%rax
    e963:	48 01 c8             	add    %rcx,%rax
    e966:	48 01 c0             	add    %rax,%rax
    e969:	48 01 d0             	add    %rdx,%rax
    e96c:	48 01 f0             	add    %rsi,%rax
    e96f:	48 8d 14 00          	lea    (%rax,%rax,1),%rdx
    e973:	48 8d 05 e6 51 00 00 	lea    0x51e6(%rip),%rax        # 13b60 <g_1831>
    e97a:	0f b7 04 02          	movzwl (%rdx,%rax,1),%eax
    e97e:	48 0f bf c0          	movswq %ax,%rax
    e982:	8b 55 fc             	mov    -0x4(%rbp),%edx
    e985:	48 8d 35 ce 10 00 00 	lea    0x10ce(%rip),%rsi        # fa5a <g_356+0x9d0>
    e98c:	48 89 c7             	mov    %rax,%rdi
    e98f:	e8 5f 7d ff ff       	callq  66f3 <transparent_crc>
    e994:	83 7d fc 00          	cmpl   $0x0,-0x4(%rbp)
    e998:	74 1c                	je     e9b6 <main+0x976>
    e99a:	8b 4d f8             	mov    -0x8(%rbp),%ecx
    e99d:	8b 55 f4             	mov    -0xc(%rbp),%edx
    e9a0:	8b 45 f0             	mov    -0x10(%rbp),%eax
    e9a3:	89 c6                	mov    %eax,%esi
    e9a5:	48 8d 3d 6a 0f 00 00 	lea    0xf6a(%rip),%rdi        # f916 <g_356+0x88c>
    e9ac:	b8 00 00 00 00       	mov    $0x0,%eax
    e9b1:	e8 ca 66 ff ff       	callq  5080 <printf@plt>
    e9b6:	83 45 f8 01          	addl   $0x1,-0x8(%rbp)
    e9ba:	83 7d f8 05          	cmpl   $0x5,-0x8(%rbp)
    e9be:	0f 8e 75 ff ff ff    	jle    e939 <main+0x8f9>
    e9c4:	83 45 f4 01          	addl   $0x1,-0xc(%rbp)
    e9c8:	83 7d f4 07          	cmpl   $0x7,-0xc(%rbp)
    e9cc:	0f 8e 5b ff ff ff    	jle    e92d <main+0x8ed>
    e9d2:	83 45 f0 01          	addl   $0x1,-0x10(%rbp)
    e9d6:	83 7d f0 04          	cmpl   $0x4,-0x10(%rbp)
    e9da:	0f 8e 41 ff ff ff    	jle    e921 <main+0x8e1>
    e9e0:	0f b7 05 59 53 00 00 	movzwl 0x5359(%rip),%eax        # 13d40 <g_1833>
    e9e7:	48 0f bf c0          	movswq %ax,%rax
    e9eb:	8b 55 fc             	mov    -0x4(%rbp),%edx
    e9ee:	48 8d 35 75 10 00 00 	lea    0x1075(%rip),%rsi        # fa6a <g_356+0x9e0>
    e9f5:	48 89 c7             	mov    %rax,%rdi
    e9f8:	e8 f6 7c ff ff       	callq  66f3 <transparent_crc>
    e9fd:	c7 45 f0 00 00 00 00 	movl   $0x0,-0x10(%rbp)
    ea04:	eb 6e                	jmp    ea74 <main+0xa34>
    ea06:	c7 45 f4 00 00 00 00 	movl   $0x0,-0xc(%rbp)
    ea0d:	eb 5b                	jmp    ea6a <main+0xa2a>
    ea0f:	8b 45 f4             	mov    -0xc(%rbp),%eax
    ea12:	48 98                	cltq   
    ea14:	8b 55 f0             	mov    -0x10(%rbp),%edx
    ea17:	48 63 d2             	movslq %edx,%rdx
    ea1a:	48 c1 e2 03          	shl    $0x3,%rdx
    ea1e:	48 01 d0             	add    %rdx,%rax
    ea21:	48 8d 14 85 00 00 00 	lea    0x0(,%rax,4),%rdx
    ea28:	00 
    ea29:	48 8d 05 30 53 00 00 	lea    0x5330(%rip),%rax        # 13d60 <g_1837>
    ea30:	8b 04 02             	mov    (%rdx,%rax,1),%eax
    ea33:	48 98                	cltq   
    ea35:	8b 55 fc             	mov    -0x4(%rbp),%edx
    ea38:	48 8d 35 32 10 00 00 	lea    0x1032(%rip),%rsi        # fa71 <g_356+0x9e7>
    ea3f:	48 89 c7             	mov    %rax,%rdi
    ea42:	e8 ac 7c ff ff       	callq  66f3 <transparent_crc>
    ea47:	83 7d fc 00          	cmpl   $0x0,-0x4(%rbp)
    ea4b:	74 19                	je     ea66 <main+0xa26>
    ea4d:	8b 55 f4             	mov    -0xc(%rbp),%edx
    ea50:	8b 45 f0             	mov    -0x10(%rbp),%eax
    ea53:	89 c6                	mov    %eax,%esi
    ea55:	48 8d 3d 57 0f 00 00 	lea    0xf57(%rip),%rdi        # f9b3 <g_356+0x929>
    ea5c:	b8 00 00 00 00       	mov    $0x0,%eax
    ea61:	e8 1a 66 ff ff       	callq  5080 <printf@plt>
    ea66:	83 45 f4 01          	addl   $0x1,-0xc(%rbp)
    ea6a:	83 7d f4 07          	cmpl   $0x7,-0xc(%rbp)
    ea6e:	7e 9f                	jle    ea0f <main+0x9cf>
    ea70:	83 45 f0 01          	addl   $0x1,-0x10(%rbp)
    ea74:	83 7d f0 00          	cmpl   $0x0,-0x10(%rbp)
    ea78:	7e 8c                	jle    ea06 <main+0x9c6>
    ea7a:	8b 05 b8 6d 00 00    	mov    0x6db8(%rip),%eax        # 15838 <g_1839>
    ea80:	48 98                	cltq   
    ea82:	8b 55 fc             	mov    -0x4(%rbp),%edx
    ea85:	48 8d 35 f2 0f 00 00 	lea    0xff2(%rip),%rsi        # fa7e <g_356+0x9f4>
    ea8c:	48 89 c7             	mov    %rax,%rdi
    ea8f:	e8 5f 7c ff ff       	callq  66f3 <transparent_crc>
    ea94:	0f b7 05 e5 52 00 00 	movzwl 0x52e5(%rip),%eax        # 13d80 <g_1857>
    ea9b:	48 0f bf c0          	movswq %ax,%rax
    ea9f:	8b 55 fc             	mov    -0x4(%rbp),%edx
    eaa2:	48 8d 35 dc 0f 00 00 	lea    0xfdc(%rip),%rsi        # fa85 <g_356+0x9fb>
    eaa9:	48 89 c7             	mov    %rax,%rdi
    eaac:	e8 42 7c ff ff       	callq  66f3 <transparent_crc>
    eab1:	8b 05 69 45 00 00    	mov    0x4569(%rip),%eax        # 13020 <crc32_context>
    eab7:	f7 d0                	not    %eax
    eab9:	89 c2                	mov    %eax,%edx
    eabb:	8b 45 fc             	mov    -0x4(%rbp),%eax
    eabe:	89 c6                	mov    %eax,%esi
    eac0:	89 d7                	mov    %edx,%edi
    eac2:	e8 cd 66 ff ff       	callq  5194 <platform_main_end>
    eac7:	b8 00 00 00 00       	mov    $0x0,%eax
    eacc:	c9                   	leaveq 
    eacd:	c3                   	retq   
    eace:	66 90                	xchg   %ax,%ax

000000000000ead0 <__libc_csu_init>:
    ead0:	f3 0f 1e fa          	endbr64 
    ead4:	41 57                	push   %r15
    ead6:	4c 8d 3d 73 3a 00 00 	lea    0x3a73(%rip),%r15        # 12550 <__frame_dummy_init_array_entry>
    eadd:	41 56                	push   %r14
    eadf:	49 89 d6             	mov    %rdx,%r14
    eae2:	41 55                	push   %r13
    eae4:	49 89 f5             	mov    %rsi,%r13
    eae7:	41 54                	push   %r12
    eae9:	41 89 fc             	mov    %edi,%r12d
    eaec:	55                   	push   %rbp
    eaed:	48 8d 2d 64 3a 00 00 	lea    0x3a64(%rip),%rbp        # 12558 <__do_global_dtors_aux_fini_array_entry>
    eaf4:	53                   	push   %rbx
    eaf5:	4c 29 fd             	sub    %r15,%rbp
    eaf8:	48 83 ec 08          	sub    $0x8,%rsp
    eafc:	e8 ff 64 ff ff       	callq  5000 <_init>
    eb01:	48 c1 fd 03          	sar    $0x3,%rbp
    eb05:	74 1f                	je     eb26 <__libc_csu_init+0x56>
    eb07:	31 db                	xor    %ebx,%ebx
    eb09:	0f 1f 80 00 00 00 00 	nopl   0x0(%rax)
    eb10:	4c 89 f2             	mov    %r14,%rdx
    eb13:	4c 89 ee             	mov    %r13,%rsi
    eb16:	44 89 e7             	mov    %r12d,%edi
    eb19:	41 ff 14 df          	callq  *(%r15,%rbx,8)
    eb1d:	48 83 c3 01          	add    $0x1,%rbx
    eb21:	48 39 dd             	cmp    %rbx,%rbp
    eb24:	75 ea                	jne    eb10 <__libc_csu_init+0x40>
    eb26:	48 83 c4 08          	add    $0x8,%rsp
    eb2a:	5b                   	pop    %rbx
    eb2b:	5d                   	pop    %rbp
    eb2c:	41 5c                	pop    %r12
    eb2e:	41 5d                	pop    %r13
    eb30:	41 5e                	pop    %r14
    eb32:	41 5f                	pop    %r15
    eb34:	c3                   	retq   
    eb35:	66 66 2e 0f 1f 84 00 	data16 nopw %cs:0x0(%rax,%rax,1)
    eb3c:	00 00 00 00 

000000000000eb40 <__libc_csu_fini>:
    eb40:	f3 0f 1e fa          	endbr64 
    eb44:	c3                   	retq   
