


Disassembly of section .text:

00000000000080a0 <_start>:
    80a0:	f3 0f 1e fa          	endbr64 
    80a4:	31 ed                	xor    %ebp,%ebp
    80a6:	49 89 d1             	mov    %rdx,%r9
    80a9:	5e                   	pop    %rsi
    80aa:	48 89 e2             	mov    %rsp,%rdx
    80ad:	48 83 e4 f0          	and    $0xfffffffffffffff0,%rsp
    80b1:	50                   	push   %rax
    80b2:	54                   	push   %rsp
    80b3:	4c 8d 05 d6 05 01 00 	lea    0x105d6(%rip),%r8        # 18690 <__libc_csu_fini>
    80ba:	48 8d 0d 5f 05 01 00 	lea    0x1055f(%rip),%rcx        # 18620 <__libc_csu_init>
    80c1:	48 8d 3d d1 ef 00 00 	lea    0xefd1(%rip),%rdi        # 17099 <main>
    80c8:	ff 15 fa 5e 01 00    	callq  *0x15efa(%rip)        # 1dfc8 <__libc_start_main@GLIBC_2.2.5>
    80ce:	f4                   	hlt    
    80cf:	90                   	nop

00000000000080d0 <deregister_tm_clones>:
    80d0:	48 8d 3d 01 a0 01 00 	lea    0x1a001(%rip),%rdi        # 220d8 <__TMC_END__>
    80d7:	48 8d 05 fa 9f 01 00 	lea    0x19ffa(%rip),%rax        # 220d8 <__TMC_END__>
    80de:	48 39 f8             	cmp    %rdi,%rax
    80e1:	74 15                	je     80f8 <deregister_tm_clones+0x28>
    80e3:	48 8b 05 d6 5e 01 00 	mov    0x15ed6(%rip),%rax        # 1dfc0 <_ITM_deregisterTMCloneTable>
    80ea:	48 85 c0             	test   %rax,%rax
    80ed:	74 09                	je     80f8 <deregister_tm_clones+0x28>
    80ef:	ff e0                	jmpq   *%rax
    80f1:	0f 1f 80 00 00 00 00 	nopl   0x0(%rax)
    80f8:	c3                   	retq   
    80f9:	0f 1f 80 00 00 00 00 	nopl   0x0(%rax)

0000000000008100 <register_tm_clones>:
    8100:	48 8d 3d d1 9f 01 00 	lea    0x19fd1(%rip),%rdi        # 220d8 <__TMC_END__>
    8107:	48 8d 35 ca 9f 01 00 	lea    0x19fca(%rip),%rsi        # 220d8 <__TMC_END__>
    810e:	48 29 fe             	sub    %rdi,%rsi
    8111:	48 89 f0             	mov    %rsi,%rax
    8114:	48 c1 ee 3f          	shr    $0x3f,%rsi
    8118:	48 c1 f8 03          	sar    $0x3,%rax
    811c:	48 01 c6             	add    %rax,%rsi
    811f:	48 d1 fe             	sar    %rsi
    8122:	74 14                	je     8138 <register_tm_clones+0x38>
    8124:	48 8b 05 ad 5e 01 00 	mov    0x15ead(%rip),%rax        # 1dfd8 <_ITM_registerTMCloneTable>
    812b:	48 85 c0             	test   %rax,%rax
    812e:	74 08                	je     8138 <register_tm_clones+0x38>
    8130:	ff e0                	jmpq   *%rax
    8132:	66 0f 1f 44 00 00    	nopw   0x0(%rax,%rax,1)
    8138:	c3                   	retq   
    8139:	0f 1f 80 00 00 00 00 	nopl   0x0(%rax)

0000000000008140 <__do_global_dtors_aux>:
    8140:	f3 0f 1e fa          	endbr64 
    8144:	80 3d 95 9f 01 00 00 	cmpb   $0x0,0x19f95(%rip)        # 220e0 <completed.8061>
    814b:	75 2b                	jne    8178 <__do_global_dtors_aux+0x38>
    814d:	55                   	push   %rbp
    814e:	48 83 3d 8a 5e 01 00 	cmpq   $0x0,0x15e8a(%rip)        # 1dfe0 <__cxa_finalize@GLIBC_2.2.5>
    8155:	00 
    8156:	48 89 e5             	mov    %rsp,%rbp
    8159:	74 0c                	je     8167 <__do_global_dtors_aux+0x27>
    815b:	48 8b 3d a6 5e 01 00 	mov    0x15ea6(%rip),%rdi        # 1e008 <__dso_handle>
    8162:	e8 f9 fe ff ff       	callq  8060 <__cxa_finalize@plt>
    8167:	e8 64 ff ff ff       	callq  80d0 <deregister_tm_clones>
    816c:	c6 05 6d 9f 01 00 01 	movb   $0x1,0x19f6d(%rip)        # 220e0 <completed.8061>
    8173:	5d                   	pop    %rbp
    8174:	c3                   	retq   
    8175:	0f 1f 00             	nopl   (%rax)
    8178:	c3                   	retq   
    8179:	0f 1f 80 00 00 00 00 	nopl   0x0(%rax)

0000000000008180 <frame_dummy>:
    8180:	f3 0f 1e fa          	endbr64 
    8184:	e9 77 ff ff ff       	jmpq   8100 <register_tm_clones>

0000000000008189 <platform_main_begin>:
    8189:	f3 0f 1e fa          	endbr64 
    818d:	55                   	push   %rbp
    818e:	48 89 e5             	mov    %rsp,%rbp
    8191:	90                   	nop
    8192:	5d                   	pop    %rbp
    8193:	c3                   	retq   

0000000000008194 <platform_main_end>:
    8194:	f3 0f 1e fa          	endbr64 
    8198:	55                   	push   %rbp
    8199:	48 89 e5             	mov    %rsp,%rbp
    819c:	48 83 ec 10          	sub    $0x10,%rsp
    81a0:	89 7d fc             	mov    %edi,-0x4(%rbp)
    81a3:	89 75 f8             	mov    %esi,-0x8(%rbp)
    81a6:	8b 45 fc             	mov    -0x4(%rbp),%eax
    81a9:	89 c6                	mov    %eax,%esi
    81ab:	48 8d 3d 6e 0e 01 00 	lea    0x10e6e(%rip),%rdi        # 19020 <_IO_stdin_used+0x20>
    81b2:	b8 00 00 00 00       	mov    $0x0,%eax
    81b7:	e8 c4 fe ff ff       	callq  8080 <printf@plt>
    81bc:	90                   	nop
    81bd:	c9                   	leaveq 
    81be:	c3                   	retq   

00000000000081bf <safe_unary_minus_func_int8_t_s>:
    81bf:	f3 0f 1e fa          	endbr64 
    81c3:	55                   	push   %rbp
    81c4:	48 89 e5             	mov    %rsp,%rbp
    81c7:	89 f8                	mov    %edi,%eax
    81c9:	88 45 fc             	mov    %al,-0x4(%rbp)
    81cc:	0f b6 45 fc          	movzbl -0x4(%rbp),%eax
    81d0:	f7 d8                	neg    %eax
    81d2:	5d                   	pop    %rbp
    81d3:	c3                   	retq   

00000000000081d4 <safe_add_func_int8_t_s_s>:
    81d4:	f3 0f 1e fa          	endbr64 
    81d8:	55                   	push   %rbp
    81d9:	48 89 e5             	mov    %rsp,%rbp
    81dc:	89 fa                	mov    %edi,%edx
    81de:	89 f0                	mov    %esi,%eax
    81e0:	88 55 fc             	mov    %dl,-0x4(%rbp)
    81e3:	88 45 f8             	mov    %al,-0x8(%rbp)
    81e6:	0f b6 55 fc          	movzbl -0x4(%rbp),%edx
    81ea:	0f b6 45 f8          	movzbl -0x8(%rbp),%eax
    81ee:	01 d0                	add    %edx,%eax
    81f0:	5d                   	pop    %rbp
    81f1:	c3                   	retq   

00000000000081f2 <safe_sub_func_int8_t_s_s>:
    81f2:	f3 0f 1e fa          	endbr64 
    81f6:	55                   	push   %rbp
    81f7:	48 89 e5             	mov    %rsp,%rbp
    81fa:	89 fa                	mov    %edi,%edx
    81fc:	89 f0                	mov    %esi,%eax
    81fe:	88 55 fc             	mov    %dl,-0x4(%rbp)
    8201:	88 45 f8             	mov    %al,-0x8(%rbp)
    8204:	0f b6 55 fc          	movzbl -0x4(%rbp),%edx
    8208:	0f b6 45 f8          	movzbl -0x8(%rbp),%eax
    820c:	29 c2                	sub    %eax,%edx
    820e:	89 d0                	mov    %edx,%eax
    8210:	5d                   	pop    %rbp
    8211:	c3                   	retq   

0000000000008212 <safe_mul_func_int8_t_s_s>:
    8212:	f3 0f 1e fa          	endbr64 
    8216:	55                   	push   %rbp
    8217:	48 89 e5             	mov    %rsp,%rbp
    821a:	89 fa                	mov    %edi,%edx
    821c:	89 f0                	mov    %esi,%eax
    821e:	88 55 fc             	mov    %dl,-0x4(%rbp)
    8221:	88 45 f8             	mov    %al,-0x8(%rbp)
    8224:	0f b6 45 fc          	movzbl -0x4(%rbp),%eax
    8228:	0f b6 55 f8          	movzbl -0x8(%rbp),%edx
    822c:	0f af c2             	imul   %edx,%eax
    822f:	5d                   	pop    %rbp
    8230:	c3                   	retq   

0000000000008231 <safe_mod_func_int8_t_s_s>:
    8231:	f3 0f 1e fa          	endbr64 
    8235:	55                   	push   %rbp
    8236:	48 89 e5             	mov    %rsp,%rbp
    8239:	89 fa                	mov    %edi,%edx
    823b:	89 f0                	mov    %esi,%eax
    823d:	88 55 fc             	mov    %dl,-0x4(%rbp)
    8240:	88 45 f8             	mov    %al,-0x8(%rbp)
    8243:	80 7d f8 00          	cmpb   $0x0,-0x8(%rbp)
    8247:	74 1b                	je     8264 <safe_mod_func_int8_t_s_s+0x33>
    8249:	80 7d fc 80          	cmpb   $0x80,-0x4(%rbp)
    824d:	75 06                	jne    8255 <safe_mod_func_int8_t_s_s+0x24>
    824f:	80 7d f8 ff          	cmpb   $0xff,-0x8(%rbp)
    8253:	74 0f                	je     8264 <safe_mod_func_int8_t_s_s+0x33>
    8255:	0f be 45 fc          	movsbl -0x4(%rbp),%eax
    8259:	0f be 4d f8          	movsbl -0x8(%rbp),%ecx
    825d:	99                   	cltd   
    825e:	f7 f9                	idiv   %ecx
    8260:	89 d0                	mov    %edx,%eax
    8262:	eb 04                	jmp    8268 <safe_mod_func_int8_t_s_s+0x37>
    8264:	0f b6 45 fc          	movzbl -0x4(%rbp),%eax
    8268:	5d                   	pop    %rbp
    8269:	c3                   	retq   

000000000000826a <safe_div_func_int8_t_s_s>:
    826a:	f3 0f 1e fa          	endbr64 
    826e:	55                   	push   %rbp
    826f:	48 89 e5             	mov    %rsp,%rbp
    8272:	89 fa                	mov    %edi,%edx
    8274:	89 f0                	mov    %esi,%eax
    8276:	88 55 fc             	mov    %dl,-0x4(%rbp)
    8279:	88 45 f8             	mov    %al,-0x8(%rbp)
    827c:	80 7d f8 00          	cmpb   $0x0,-0x8(%rbp)
    8280:	74 19                	je     829b <safe_div_func_int8_t_s_s+0x31>
    8282:	80 7d fc 80          	cmpb   $0x80,-0x4(%rbp)
    8286:	75 06                	jne    828e <safe_div_func_int8_t_s_s+0x24>
    8288:	80 7d f8 ff          	cmpb   $0xff,-0x8(%rbp)
    828c:	74 0d                	je     829b <safe_div_func_int8_t_s_s+0x31>
    828e:	0f be 45 fc          	movsbl -0x4(%rbp),%eax
    8292:	0f be 4d f8          	movsbl -0x8(%rbp),%ecx
    8296:	99                   	cltd   
    8297:	f7 f9                	idiv   %ecx
    8299:	eb 04                	jmp    829f <safe_div_func_int8_t_s_s+0x35>
    829b:	0f b6 45 fc          	movzbl -0x4(%rbp),%eax
    829f:	5d                   	pop    %rbp
    82a0:	c3                   	retq   

00000000000082a1 <safe_lshift_func_int8_t_s_s>:
    82a1:	f3 0f 1e fa          	endbr64 
    82a5:	55                   	push   %rbp
    82a6:	48 89 e5             	mov    %rsp,%rbp
    82a9:	89 f8                	mov    %edi,%eax
    82ab:	89 75 f8             	mov    %esi,-0x8(%rbp)
    82ae:	88 45 fc             	mov    %al,-0x4(%rbp)
    82b1:	80 7d fc 00          	cmpb   $0x0,-0x4(%rbp)
    82b5:	78 31                	js     82e8 <safe_lshift_func_int8_t_s_s+0x47>
    82b7:	83 7d f8 00          	cmpl   $0x0,-0x8(%rbp)
    82bb:	78 2b                	js     82e8 <safe_lshift_func_int8_t_s_s+0x47>
    82bd:	83 7d f8 1f          	cmpl   $0x1f,-0x8(%rbp)
    82c1:	7f 25                	jg     82e8 <safe_lshift_func_int8_t_s_s+0x47>
    82c3:	0f be 55 fc          	movsbl -0x4(%rbp),%edx
    82c7:	8b 45 f8             	mov    -0x8(%rbp),%eax
    82ca:	be 7f 00 00 00       	mov    $0x7f,%esi
    82cf:	89 c1                	mov    %eax,%ecx
    82d1:	d3 fe                	sar    %cl,%esi
    82d3:	89 f0                	mov    %esi,%eax
    82d5:	39 c2                	cmp    %eax,%edx
    82d7:	7f 0f                	jg     82e8 <safe_lshift_func_int8_t_s_s+0x47>
    82d9:	0f be 55 fc          	movsbl -0x4(%rbp),%edx
    82dd:	8b 45 f8             	mov    -0x8(%rbp),%eax
    82e0:	89 c1                	mov    %eax,%ecx
    82e2:	d3 e2                	shl    %cl,%edx
    82e4:	89 d0                	mov    %edx,%eax
    82e6:	eb 04                	jmp    82ec <safe_lshift_func_int8_t_s_s+0x4b>
    82e8:	0f b6 45 fc          	movzbl -0x4(%rbp),%eax
    82ec:	5d                   	pop    %rbp
    82ed:	c3                   	retq   

00000000000082ee <safe_lshift_func_int8_t_s_u>:
    82ee:	f3 0f 1e fa          	endbr64 
    82f2:	55                   	push   %rbp
    82f3:	48 89 e5             	mov    %rsp,%rbp
    82f6:	89 f8                	mov    %edi,%eax
    82f8:	89 75 f8             	mov    %esi,-0x8(%rbp)
    82fb:	88 45 fc             	mov    %al,-0x4(%rbp)
    82fe:	80 7d fc 00          	cmpb   $0x0,-0x4(%rbp)
    8302:	78 2b                	js     832f <safe_lshift_func_int8_t_s_u+0x41>
    8304:	83 7d f8 1f          	cmpl   $0x1f,-0x8(%rbp)
    8308:	77 25                	ja     832f <safe_lshift_func_int8_t_s_u+0x41>
    830a:	0f be 55 fc          	movsbl -0x4(%rbp),%edx
    830e:	8b 45 f8             	mov    -0x8(%rbp),%eax
    8311:	be 7f 00 00 00       	mov    $0x7f,%esi
    8316:	89 c1                	mov    %eax,%ecx
    8318:	d3 fe                	sar    %cl,%esi
    831a:	89 f0                	mov    %esi,%eax
    831c:	39 c2                	cmp    %eax,%edx
    831e:	7f 0f                	jg     832f <safe_lshift_func_int8_t_s_u+0x41>
    8320:	0f be 55 fc          	movsbl -0x4(%rbp),%edx
    8324:	8b 45 f8             	mov    -0x8(%rbp),%eax
    8327:	89 c1                	mov    %eax,%ecx
    8329:	d3 e2                	shl    %cl,%edx
    832b:	89 d0                	mov    %edx,%eax
    832d:	eb 04                	jmp    8333 <safe_lshift_func_int8_t_s_u+0x45>
    832f:	0f b6 45 fc          	movzbl -0x4(%rbp),%eax
    8333:	5d                   	pop    %rbp
    8334:	c3                   	retq   

0000000000008335 <safe_rshift_func_int8_t_s_s>:
    8335:	f3 0f 1e fa          	endbr64 
    8339:	55                   	push   %rbp
    833a:	48 89 e5             	mov    %rsp,%rbp
    833d:	89 f8                	mov    %edi,%eax
    833f:	89 75 f8             	mov    %esi,-0x8(%rbp)
    8342:	88 45 fc             	mov    %al,-0x4(%rbp)
    8345:	80 7d fc 00          	cmpb   $0x0,-0x4(%rbp)
    8349:	78 1b                	js     8366 <safe_rshift_func_int8_t_s_s+0x31>
    834b:	83 7d f8 00          	cmpl   $0x0,-0x8(%rbp)
    834f:	78 15                	js     8366 <safe_rshift_func_int8_t_s_s+0x31>
    8351:	83 7d f8 1f          	cmpl   $0x1f,-0x8(%rbp)
    8355:	7f 0f                	jg     8366 <safe_rshift_func_int8_t_s_s+0x31>
    8357:	0f be 55 fc          	movsbl -0x4(%rbp),%edx
    835b:	8b 45 f8             	mov    -0x8(%rbp),%eax
    835e:	89 c1                	mov    %eax,%ecx
    8360:	d3 fa                	sar    %cl,%edx
    8362:	89 d0                	mov    %edx,%eax
    8364:	eb 04                	jmp    836a <safe_rshift_func_int8_t_s_s+0x35>
    8366:	0f b6 45 fc          	movzbl -0x4(%rbp),%eax
    836a:	5d                   	pop    %rbp
    836b:	c3                   	retq   

000000000000836c <safe_rshift_func_int8_t_s_u>:
    836c:	f3 0f 1e fa          	endbr64 
    8370:	55                   	push   %rbp
    8371:	48 89 e5             	mov    %rsp,%rbp
    8374:	89 f8                	mov    %edi,%eax
    8376:	89 75 f8             	mov    %esi,-0x8(%rbp)
    8379:	88 45 fc             	mov    %al,-0x4(%rbp)
    837c:	80 7d fc 00          	cmpb   $0x0,-0x4(%rbp)
    8380:	78 15                	js     8397 <safe_rshift_func_int8_t_s_u+0x2b>
    8382:	83 7d f8 1f          	cmpl   $0x1f,-0x8(%rbp)
    8386:	77 0f                	ja     8397 <safe_rshift_func_int8_t_s_u+0x2b>
    8388:	0f be 55 fc          	movsbl -0x4(%rbp),%edx
    838c:	8b 45 f8             	mov    -0x8(%rbp),%eax
    838f:	89 c1                	mov    %eax,%ecx
    8391:	d3 fa                	sar    %cl,%edx
    8393:	89 d0                	mov    %edx,%eax
    8395:	eb 04                	jmp    839b <safe_rshift_func_int8_t_s_u+0x2f>
    8397:	0f b6 45 fc          	movzbl -0x4(%rbp),%eax
    839b:	5d                   	pop    %rbp
    839c:	c3                   	retq   

000000000000839d <safe_unary_minus_func_int16_t_s>:
    839d:	f3 0f 1e fa          	endbr64 
    83a1:	55                   	push   %rbp
    83a2:	48 89 e5             	mov    %rsp,%rbp
    83a5:	89 f8                	mov    %edi,%eax
    83a7:	66 89 45 fc          	mov    %ax,-0x4(%rbp)
    83ab:	0f b7 45 fc          	movzwl -0x4(%rbp),%eax
    83af:	f7 d8                	neg    %eax
    83b1:	5d                   	pop    %rbp
    83b2:	c3                   	retq   

00000000000083b3 <safe_add_func_int16_t_s_s>:
    83b3:	f3 0f 1e fa          	endbr64 
    83b7:	55                   	push   %rbp
    83b8:	48 89 e5             	mov    %rsp,%rbp
    83bb:	89 fa                	mov    %edi,%edx
    83bd:	89 f0                	mov    %esi,%eax
    83bf:	66 89 55 fc          	mov    %dx,-0x4(%rbp)
    83c3:	66 89 45 f8          	mov    %ax,-0x8(%rbp)
    83c7:	0f b7 55 fc          	movzwl -0x4(%rbp),%edx
    83cb:	0f b7 45 f8          	movzwl -0x8(%rbp),%eax
    83cf:	01 d0                	add    %edx,%eax
    83d1:	5d                   	pop    %rbp
    83d2:	c3                   	retq   

00000000000083d3 <safe_sub_func_int16_t_s_s>:
    83d3:	f3 0f 1e fa          	endbr64 
    83d7:	55                   	push   %rbp
    83d8:	48 89 e5             	mov    %rsp,%rbp
    83db:	89 fa                	mov    %edi,%edx
    83dd:	89 f0                	mov    %esi,%eax
    83df:	66 89 55 fc          	mov    %dx,-0x4(%rbp)
    83e3:	66 89 45 f8          	mov    %ax,-0x8(%rbp)
    83e7:	0f b7 55 fc          	movzwl -0x4(%rbp),%edx
    83eb:	0f b7 45 f8          	movzwl -0x8(%rbp),%eax
    83ef:	29 c2                	sub    %eax,%edx
    83f1:	89 d0                	mov    %edx,%eax
    83f3:	5d                   	pop    %rbp
    83f4:	c3                   	retq   

00000000000083f5 <safe_mul_func_int16_t_s_s>:
    83f5:	f3 0f 1e fa          	endbr64 
    83f9:	55                   	push   %rbp
    83fa:	48 89 e5             	mov    %rsp,%rbp
    83fd:	89 fa                	mov    %edi,%edx
    83ff:	89 f0                	mov    %esi,%eax
    8401:	66 89 55 fc          	mov    %dx,-0x4(%rbp)
    8405:	66 89 45 f8          	mov    %ax,-0x8(%rbp)
    8409:	0f b7 55 fc          	movzwl -0x4(%rbp),%edx
    840d:	0f b7 45 f8          	movzwl -0x8(%rbp),%eax
    8411:	0f af c2             	imul   %edx,%eax
    8414:	5d                   	pop    %rbp
    8415:	c3                   	retq   

0000000000008416 <safe_mod_func_int16_t_s_s>:
    8416:	f3 0f 1e fa          	endbr64 
    841a:	55                   	push   %rbp
    841b:	48 89 e5             	mov    %rsp,%rbp
    841e:	89 fa                	mov    %edi,%edx
    8420:	89 f0                	mov    %esi,%eax
    8422:	66 89 55 fc          	mov    %dx,-0x4(%rbp)
    8426:	66 89 45 f8          	mov    %ax,-0x8(%rbp)
    842a:	66 83 7d f8 00       	cmpw   $0x0,-0x8(%rbp)
    842f:	74 1e                	je     844f <safe_mod_func_int16_t_s_s+0x39>
    8431:	66 81 7d fc 00 80    	cmpw   $0x8000,-0x4(%rbp)
    8437:	75 07                	jne    8440 <safe_mod_func_int16_t_s_s+0x2a>
    8439:	66 83 7d f8 ff       	cmpw   $0xffff,-0x8(%rbp)
    843e:	74 0f                	je     844f <safe_mod_func_int16_t_s_s+0x39>
    8440:	0f bf 45 fc          	movswl -0x4(%rbp),%eax
    8444:	0f bf 4d f8          	movswl -0x8(%rbp),%ecx
    8448:	99                   	cltd   
    8449:	f7 f9                	idiv   %ecx
    844b:	89 d0                	mov    %edx,%eax
    844d:	eb 04                	jmp    8453 <safe_mod_func_int16_t_s_s+0x3d>
    844f:	0f b7 45 fc          	movzwl -0x4(%rbp),%eax
    8453:	5d                   	pop    %rbp
    8454:	c3                   	retq   

0000000000008455 <safe_div_func_int16_t_s_s>:
    8455:	f3 0f 1e fa          	endbr64 
    8459:	55                   	push   %rbp
    845a:	48 89 e5             	mov    %rsp,%rbp
    845d:	89 fa                	mov    %edi,%edx
    845f:	89 f0                	mov    %esi,%eax
    8461:	66 89 55 fc          	mov    %dx,-0x4(%rbp)
    8465:	66 89 45 f8          	mov    %ax,-0x8(%rbp)
    8469:	66 83 7d f8 00       	cmpw   $0x0,-0x8(%rbp)
    846e:	74 1c                	je     848c <safe_div_func_int16_t_s_s+0x37>
    8470:	66 81 7d fc 00 80    	cmpw   $0x8000,-0x4(%rbp)
    8476:	75 07                	jne    847f <safe_div_func_int16_t_s_s+0x2a>
    8478:	66 83 7d f8 ff       	cmpw   $0xffff,-0x8(%rbp)
    847d:	74 0d                	je     848c <safe_div_func_int16_t_s_s+0x37>
    847f:	0f bf 45 fc          	movswl -0x4(%rbp),%eax
    8483:	0f bf 4d f8          	movswl -0x8(%rbp),%ecx
    8487:	99                   	cltd   
    8488:	f7 f9                	idiv   %ecx
    848a:	eb 04                	jmp    8490 <safe_div_func_int16_t_s_s+0x3b>
    848c:	0f b7 45 fc          	movzwl -0x4(%rbp),%eax
    8490:	5d                   	pop    %rbp
    8491:	c3                   	retq   

0000000000008492 <safe_lshift_func_int16_t_s_s>:
    8492:	f3 0f 1e fa          	endbr64 
    8496:	55                   	push   %rbp
    8497:	48 89 e5             	mov    %rsp,%rbp
    849a:	89 f8                	mov    %edi,%eax
    849c:	89 75 f8             	mov    %esi,-0x8(%rbp)
    849f:	66 89 45 fc          	mov    %ax,-0x4(%rbp)
    84a3:	66 83 7d fc 00       	cmpw   $0x0,-0x4(%rbp)
    84a8:	78 31                	js     84db <safe_lshift_func_int16_t_s_s+0x49>
    84aa:	83 7d f8 00          	cmpl   $0x0,-0x8(%rbp)
    84ae:	78 2b                	js     84db <safe_lshift_func_int16_t_s_s+0x49>
    84b0:	83 7d f8 1f          	cmpl   $0x1f,-0x8(%rbp)
    84b4:	7f 25                	jg     84db <safe_lshift_func_int16_t_s_s+0x49>
    84b6:	0f bf 55 fc          	movswl -0x4(%rbp),%edx
    84ba:	8b 45 f8             	mov    -0x8(%rbp),%eax
    84bd:	be ff 7f 00 00       	mov    $0x7fff,%esi
    84c2:	89 c1                	mov    %eax,%ecx
    84c4:	d3 fe                	sar    %cl,%esi
    84c6:	89 f0                	mov    %esi,%eax
    84c8:	39 c2                	cmp    %eax,%edx
    84ca:	7f 0f                	jg     84db <safe_lshift_func_int16_t_s_s+0x49>
    84cc:	0f bf 55 fc          	movswl -0x4(%rbp),%edx
    84d0:	8b 45 f8             	mov    -0x8(%rbp),%eax
    84d3:	89 c1                	mov    %eax,%ecx
    84d5:	d3 e2                	shl    %cl,%edx
    84d7:	89 d0                	mov    %edx,%eax
    84d9:	eb 04                	jmp    84df <safe_lshift_func_int16_t_s_s+0x4d>
    84db:	0f b7 45 fc          	movzwl -0x4(%rbp),%eax
    84df:	5d                   	pop    %rbp
    84e0:	c3                   	retq   

00000000000084e1 <safe_lshift_func_int16_t_s_u>:
    84e1:	f3 0f 1e fa          	endbr64 
    84e5:	55                   	push   %rbp
    84e6:	48 89 e5             	mov    %rsp,%rbp
    84e9:	89 f8                	mov    %edi,%eax
    84eb:	89 75 f8             	mov    %esi,-0x8(%rbp)
    84ee:	66 89 45 fc          	mov    %ax,-0x4(%rbp)
    84f2:	66 83 7d fc 00       	cmpw   $0x0,-0x4(%rbp)
    84f7:	78 2b                	js     8524 <safe_lshift_func_int16_t_s_u+0x43>
    84f9:	83 7d f8 1f          	cmpl   $0x1f,-0x8(%rbp)
    84fd:	77 25                	ja     8524 <safe_lshift_func_int16_t_s_u+0x43>
    84ff:	0f bf 55 fc          	movswl -0x4(%rbp),%edx
    8503:	8b 45 f8             	mov    -0x8(%rbp),%eax
    8506:	be ff 7f 00 00       	mov    $0x7fff,%esi
    850b:	89 c1                	mov    %eax,%ecx
    850d:	d3 fe                	sar    %cl,%esi
    850f:	89 f0                	mov    %esi,%eax
    8511:	39 c2                	cmp    %eax,%edx
    8513:	7f 0f                	jg     8524 <safe_lshift_func_int16_t_s_u+0x43>
    8515:	0f bf 55 fc          	movswl -0x4(%rbp),%edx
    8519:	8b 45 f8             	mov    -0x8(%rbp),%eax
    851c:	89 c1                	mov    %eax,%ecx
    851e:	d3 e2                	shl    %cl,%edx
    8520:	89 d0                	mov    %edx,%eax
    8522:	eb 04                	jmp    8528 <safe_lshift_func_int16_t_s_u+0x47>
    8524:	0f b7 45 fc          	movzwl -0x4(%rbp),%eax
    8528:	5d                   	pop    %rbp
    8529:	c3                   	retq   

000000000000852a <safe_rshift_func_int16_t_s_s>:
    852a:	f3 0f 1e fa          	endbr64 
    852e:	55                   	push   %rbp
    852f:	48 89 e5             	mov    %rsp,%rbp
    8532:	89 f8                	mov    %edi,%eax
    8534:	89 75 f8             	mov    %esi,-0x8(%rbp)
    8537:	66 89 45 fc          	mov    %ax,-0x4(%rbp)
    853b:	66 83 7d fc 00       	cmpw   $0x0,-0x4(%rbp)
    8540:	78 1b                	js     855d <safe_rshift_func_int16_t_s_s+0x33>
    8542:	83 7d f8 00          	cmpl   $0x0,-0x8(%rbp)
    8546:	78 15                	js     855d <safe_rshift_func_int16_t_s_s+0x33>
    8548:	83 7d f8 1f          	cmpl   $0x1f,-0x8(%rbp)
    854c:	7f 0f                	jg     855d <safe_rshift_func_int16_t_s_s+0x33>
    854e:	0f bf 55 fc          	movswl -0x4(%rbp),%edx
    8552:	8b 45 f8             	mov    -0x8(%rbp),%eax
    8555:	89 c1                	mov    %eax,%ecx
    8557:	d3 fa                	sar    %cl,%edx
    8559:	89 d0                	mov    %edx,%eax
    855b:	eb 04                	jmp    8561 <safe_rshift_func_int16_t_s_s+0x37>
    855d:	0f b7 45 fc          	movzwl -0x4(%rbp),%eax
    8561:	5d                   	pop    %rbp
    8562:	c3                   	retq   

0000000000008563 <safe_rshift_func_int16_t_s_u>:
    8563:	f3 0f 1e fa          	endbr64 
    8567:	55                   	push   %rbp
    8568:	48 89 e5             	mov    %rsp,%rbp
    856b:	89 f8                	mov    %edi,%eax
    856d:	89 75 f8             	mov    %esi,-0x8(%rbp)
    8570:	66 89 45 fc          	mov    %ax,-0x4(%rbp)
    8574:	66 83 7d fc 00       	cmpw   $0x0,-0x4(%rbp)
    8579:	78 15                	js     8590 <safe_rshift_func_int16_t_s_u+0x2d>
    857b:	83 7d f8 1f          	cmpl   $0x1f,-0x8(%rbp)
    857f:	77 0f                	ja     8590 <safe_rshift_func_int16_t_s_u+0x2d>
    8581:	0f bf 55 fc          	movswl -0x4(%rbp),%edx
    8585:	8b 45 f8             	mov    -0x8(%rbp),%eax
    8588:	89 c1                	mov    %eax,%ecx
    858a:	d3 fa                	sar    %cl,%edx
    858c:	89 d0                	mov    %edx,%eax
    858e:	eb 04                	jmp    8594 <safe_rshift_func_int16_t_s_u+0x31>
    8590:	0f b7 45 fc          	movzwl -0x4(%rbp),%eax
    8594:	5d                   	pop    %rbp
    8595:	c3                   	retq   

0000000000008596 <safe_unary_minus_func_int32_t_s>:
    8596:	f3 0f 1e fa          	endbr64 
    859a:	55                   	push   %rbp
    859b:	48 89 e5             	mov    %rsp,%rbp
    859e:	89 7d fc             	mov    %edi,-0x4(%rbp)
    85a1:	81 7d fc 00 00 00 80 	cmpl   $0x80000000,-0x4(%rbp)
    85a8:	74 07                	je     85b1 <safe_unary_minus_func_int32_t_s+0x1b>
    85aa:	8b 45 fc             	mov    -0x4(%rbp),%eax
    85ad:	f7 d8                	neg    %eax
    85af:	eb 03                	jmp    85b4 <safe_unary_minus_func_int32_t_s+0x1e>
    85b1:	8b 45 fc             	mov    -0x4(%rbp),%eax
    85b4:	5d                   	pop    %rbp
    85b5:	c3                   	retq   

00000000000085b6 <safe_add_func_int32_t_s_s>:
    85b6:	f3 0f 1e fa          	endbr64 
    85ba:	55                   	push   %rbp
    85bb:	48 89 e5             	mov    %rsp,%rbp
    85be:	89 7d fc             	mov    %edi,-0x4(%rbp)
    85c1:	89 75 f8             	mov    %esi,-0x8(%rbp)
    85c4:	83 7d fc 00          	cmpl   $0x0,-0x4(%rbp)
    85c8:	7e 13                	jle    85dd <safe_add_func_int32_t_s_s+0x27>
    85ca:	83 7d f8 00          	cmpl   $0x0,-0x8(%rbp)
    85ce:	7e 0d                	jle    85dd <safe_add_func_int32_t_s_s+0x27>
    85d0:	b8 ff ff ff 7f       	mov    $0x7fffffff,%eax
    85d5:	2b 45 f8             	sub    -0x8(%rbp),%eax
    85d8:	39 45 fc             	cmp    %eax,-0x4(%rbp)
    85db:	7f 23                	jg     8600 <safe_add_func_int32_t_s_s+0x4a>
    85dd:	83 7d fc 00          	cmpl   $0x0,-0x4(%rbp)
    85e1:	79 13                	jns    85f6 <safe_add_func_int32_t_s_s+0x40>
    85e3:	83 7d f8 00          	cmpl   $0x0,-0x8(%rbp)
    85e7:	79 0d                	jns    85f6 <safe_add_func_int32_t_s_s+0x40>
    85e9:	b8 00 00 00 80       	mov    $0x80000000,%eax
    85ee:	2b 45 f8             	sub    -0x8(%rbp),%eax
    85f1:	39 45 fc             	cmp    %eax,-0x4(%rbp)
    85f4:	7c 0a                	jl     8600 <safe_add_func_int32_t_s_s+0x4a>
    85f6:	8b 55 fc             	mov    -0x4(%rbp),%edx
    85f9:	8b 45 f8             	mov    -0x8(%rbp),%eax
    85fc:	01 d0                	add    %edx,%eax
    85fe:	eb 03                	jmp    8603 <safe_add_func_int32_t_s_s+0x4d>
    8600:	8b 45 fc             	mov    -0x4(%rbp),%eax
    8603:	5d                   	pop    %rbp
    8604:	c3                   	retq   

0000000000008605 <safe_sub_func_int32_t_s_s>:
    8605:	f3 0f 1e fa          	endbr64 
    8609:	55                   	push   %rbp
    860a:	48 89 e5             	mov    %rsp,%rbp
    860d:	89 7d fc             	mov    %edi,-0x4(%rbp)
    8610:	89 75 f8             	mov    %esi,-0x8(%rbp)
    8613:	8b 45 fc             	mov    -0x4(%rbp),%eax
    8616:	33 45 f8             	xor    -0x8(%rbp),%eax
    8619:	89 c2                	mov    %eax,%edx
    861b:	8b 45 fc             	mov    -0x4(%rbp),%eax
    861e:	33 45 f8             	xor    -0x8(%rbp),%eax
    8621:	25 00 00 00 80       	and    $0x80000000,%eax
    8626:	33 45 fc             	xor    -0x4(%rbp),%eax
    8629:	2b 45 f8             	sub    -0x8(%rbp),%eax
    862c:	33 45 f8             	xor    -0x8(%rbp),%eax
    862f:	21 d0                	and    %edx,%eax
    8631:	85 c0                	test   %eax,%eax
    8633:	78 08                	js     863d <safe_sub_func_int32_t_s_s+0x38>
    8635:	8b 45 fc             	mov    -0x4(%rbp),%eax
    8638:	2b 45 f8             	sub    -0x8(%rbp),%eax
    863b:	eb 03                	jmp    8640 <safe_sub_func_int32_t_s_s+0x3b>
    863d:	8b 45 fc             	mov    -0x4(%rbp),%eax
    8640:	5d                   	pop    %rbp
    8641:	c3                   	retq   

0000000000008642 <safe_mul_func_int32_t_s_s>:
    8642:	f3 0f 1e fa          	endbr64 
    8646:	55                   	push   %rbp
    8647:	48 89 e5             	mov    %rsp,%rbp
    864a:	89 7d fc             	mov    %edi,-0x4(%rbp)
    864d:	89 75 f8             	mov    %esi,-0x8(%rbp)
    8650:	83 7d fc 00          	cmpl   $0x0,-0x4(%rbp)
    8654:	7e 14                	jle    866a <safe_mul_func_int32_t_s_s+0x28>
    8656:	83 7d f8 00          	cmpl   $0x0,-0x8(%rbp)
    865a:	7e 0e                	jle    866a <safe_mul_func_int32_t_s_s+0x28>
    865c:	b8 ff ff ff 7f       	mov    $0x7fffffff,%eax
    8661:	99                   	cltd   
    8662:	f7 7d f8             	idivl  -0x8(%rbp)
    8665:	39 45 fc             	cmp    %eax,-0x4(%rbp)
    8668:	7f 5d                	jg     86c7 <safe_mul_func_int32_t_s_s+0x85>
    866a:	83 7d fc 00          	cmpl   $0x0,-0x4(%rbp)
    866e:	7e 14                	jle    8684 <safe_mul_func_int32_t_s_s+0x42>
    8670:	83 7d f8 00          	cmpl   $0x0,-0x8(%rbp)
    8674:	7f 0e                	jg     8684 <safe_mul_func_int32_t_s_s+0x42>
    8676:	b8 00 00 00 80       	mov    $0x80000000,%eax
    867b:	99                   	cltd   
    867c:	f7 7d fc             	idivl  -0x4(%rbp)
    867f:	39 45 f8             	cmp    %eax,-0x8(%rbp)
    8682:	7c 43                	jl     86c7 <safe_mul_func_int32_t_s_s+0x85>
    8684:	83 7d fc 00          	cmpl   $0x0,-0x4(%rbp)
    8688:	7f 14                	jg     869e <safe_mul_func_int32_t_s_s+0x5c>
    868a:	83 7d f8 00          	cmpl   $0x0,-0x8(%rbp)
    868e:	7e 0e                	jle    869e <safe_mul_func_int32_t_s_s+0x5c>
    8690:	b8 00 00 00 80       	mov    $0x80000000,%eax
    8695:	99                   	cltd   
    8696:	f7 7d f8             	idivl  -0x8(%rbp)
    8699:	39 45 fc             	cmp    %eax,-0x4(%rbp)
    869c:	7c 29                	jl     86c7 <safe_mul_func_int32_t_s_s+0x85>
    869e:	83 7d fc 00          	cmpl   $0x0,-0x4(%rbp)
    86a2:	7f 1a                	jg     86be <safe_mul_func_int32_t_s_s+0x7c>
    86a4:	83 7d f8 00          	cmpl   $0x0,-0x8(%rbp)
    86a8:	7f 14                	jg     86be <safe_mul_func_int32_t_s_s+0x7c>
    86aa:	83 7d fc 00          	cmpl   $0x0,-0x4(%rbp)
    86ae:	74 0e                	je     86be <safe_mul_func_int32_t_s_s+0x7c>
    86b0:	b8 ff ff ff 7f       	mov    $0x7fffffff,%eax
    86b5:	99                   	cltd   
    86b6:	f7 7d fc             	idivl  -0x4(%rbp)
    86b9:	39 45 f8             	cmp    %eax,-0x8(%rbp)
    86bc:	7c 09                	jl     86c7 <safe_mul_func_int32_t_s_s+0x85>
    86be:	8b 45 fc             	mov    -0x4(%rbp),%eax
    86c1:	0f af 45 f8          	imul   -0x8(%rbp),%eax
    86c5:	eb 03                	jmp    86ca <safe_mul_func_int32_t_s_s+0x88>
    86c7:	8b 45 fc             	mov    -0x4(%rbp),%eax
    86ca:	5d                   	pop    %rbp
    86cb:	c3                   	retq   

00000000000086cc <safe_mod_func_int32_t_s_s>:
    86cc:	f3 0f 1e fa          	endbr64 
    86d0:	55                   	push   %rbp
    86d1:	48 89 e5             	mov    %rsp,%rbp
    86d4:	89 7d fc             	mov    %edi,-0x4(%rbp)
    86d7:	89 75 f8             	mov    %esi,-0x8(%rbp)
    86da:	83 7d f8 00          	cmpl   $0x0,-0x8(%rbp)
    86de:	74 1a                	je     86fa <safe_mod_func_int32_t_s_s+0x2e>
    86e0:	81 7d fc 00 00 00 80 	cmpl   $0x80000000,-0x4(%rbp)
    86e7:	75 06                	jne    86ef <safe_mod_func_int32_t_s_s+0x23>
    86e9:	83 7d f8 ff          	cmpl   $0xffffffff,-0x8(%rbp)
    86ed:	74 0b                	je     86fa <safe_mod_func_int32_t_s_s+0x2e>
    86ef:	8b 45 fc             	mov    -0x4(%rbp),%eax
    86f2:	99                   	cltd   
    86f3:	f7 7d f8             	idivl  -0x8(%rbp)
    86f6:	89 d0                	mov    %edx,%eax
    86f8:	eb 03                	jmp    86fd <safe_mod_func_int32_t_s_s+0x31>
    86fa:	8b 45 fc             	mov    -0x4(%rbp),%eax
    86fd:	5d                   	pop    %rbp
    86fe:	c3                   	retq   

00000000000086ff <safe_div_func_int32_t_s_s>:
    86ff:	f3 0f 1e fa          	endbr64 
    8703:	55                   	push   %rbp
    8704:	48 89 e5             	mov    %rsp,%rbp
    8707:	89 7d fc             	mov    %edi,-0x4(%rbp)
    870a:	89 75 f8             	mov    %esi,-0x8(%rbp)
    870d:	83 7d f8 00          	cmpl   $0x0,-0x8(%rbp)
    8711:	74 18                	je     872b <safe_div_func_int32_t_s_s+0x2c>
    8713:	81 7d fc 00 00 00 80 	cmpl   $0x80000000,-0x4(%rbp)
    871a:	75 06                	jne    8722 <safe_div_func_int32_t_s_s+0x23>
    871c:	83 7d f8 ff          	cmpl   $0xffffffff,-0x8(%rbp)
    8720:	74 09                	je     872b <safe_div_func_int32_t_s_s+0x2c>
    8722:	8b 45 fc             	mov    -0x4(%rbp),%eax
    8725:	99                   	cltd   
    8726:	f7 7d f8             	idivl  -0x8(%rbp)
    8729:	eb 03                	jmp    872e <safe_div_func_int32_t_s_s+0x2f>
    872b:	8b 45 fc             	mov    -0x4(%rbp),%eax
    872e:	5d                   	pop    %rbp
    872f:	c3                   	retq   

0000000000008730 <safe_lshift_func_int32_t_s_s>:
    8730:	f3 0f 1e fa          	endbr64 
    8734:	55                   	push   %rbp
    8735:	48 89 e5             	mov    %rsp,%rbp
    8738:	89 7d fc             	mov    %edi,-0x4(%rbp)
    873b:	89 75 f8             	mov    %esi,-0x8(%rbp)
    873e:	83 7d fc 00          	cmpl   $0x0,-0x4(%rbp)
    8742:	78 2d                	js     8771 <safe_lshift_func_int32_t_s_s+0x41>
    8744:	83 7d f8 00          	cmpl   $0x0,-0x8(%rbp)
    8748:	78 27                	js     8771 <safe_lshift_func_int32_t_s_s+0x41>
    874a:	83 7d f8 1f          	cmpl   $0x1f,-0x8(%rbp)
    874e:	7f 21                	jg     8771 <safe_lshift_func_int32_t_s_s+0x41>
    8750:	8b 45 f8             	mov    -0x8(%rbp),%eax
    8753:	ba ff ff ff 7f       	mov    $0x7fffffff,%edx
    8758:	89 c1                	mov    %eax,%ecx
    875a:	d3 fa                	sar    %cl,%edx
    875c:	89 d0                	mov    %edx,%eax
    875e:	39 45 fc             	cmp    %eax,-0x4(%rbp)
    8761:	7f 0e                	jg     8771 <safe_lshift_func_int32_t_s_s+0x41>
    8763:	8b 45 f8             	mov    -0x8(%rbp),%eax
    8766:	8b 55 fc             	mov    -0x4(%rbp),%edx
    8769:	89 c1                	mov    %eax,%ecx
    876b:	d3 e2                	shl    %cl,%edx
    876d:	89 d0                	mov    %edx,%eax
    876f:	eb 03                	jmp    8774 <safe_lshift_func_int32_t_s_s+0x44>
    8771:	8b 45 fc             	mov    -0x4(%rbp),%eax
    8774:	5d                   	pop    %rbp
    8775:	c3                   	retq   

0000000000008776 <safe_lshift_func_int32_t_s_u>:
    8776:	f3 0f 1e fa          	endbr64 
    877a:	55                   	push   %rbp
    877b:	48 89 e5             	mov    %rsp,%rbp
    877e:	89 7d fc             	mov    %edi,-0x4(%rbp)
    8781:	89 75 f8             	mov    %esi,-0x8(%rbp)
    8784:	83 7d fc 00          	cmpl   $0x0,-0x4(%rbp)
    8788:	78 27                	js     87b1 <safe_lshift_func_int32_t_s_u+0x3b>
    878a:	83 7d f8 1f          	cmpl   $0x1f,-0x8(%rbp)
    878e:	77 21                	ja     87b1 <safe_lshift_func_int32_t_s_u+0x3b>
    8790:	8b 45 f8             	mov    -0x8(%rbp),%eax
    8793:	ba ff ff ff 7f       	mov    $0x7fffffff,%edx
    8798:	89 c1                	mov    %eax,%ecx
    879a:	d3 fa                	sar    %cl,%edx
    879c:	89 d0                	mov    %edx,%eax
    879e:	39 45 fc             	cmp    %eax,-0x4(%rbp)
    87a1:	7f 0e                	jg     87b1 <safe_lshift_func_int32_t_s_u+0x3b>
    87a3:	8b 45 f8             	mov    -0x8(%rbp),%eax
    87a6:	8b 55 fc             	mov    -0x4(%rbp),%edx
    87a9:	89 c1                	mov    %eax,%ecx
    87ab:	d3 e2                	shl    %cl,%edx
    87ad:	89 d0                	mov    %edx,%eax
    87af:	eb 03                	jmp    87b4 <safe_lshift_func_int32_t_s_u+0x3e>
    87b1:	8b 45 fc             	mov    -0x4(%rbp),%eax
    87b4:	5d                   	pop    %rbp
    87b5:	c3                   	retq   

00000000000087b6 <safe_rshift_func_int32_t_s_s>:
    87b6:	f3 0f 1e fa          	endbr64 
    87ba:	55                   	push   %rbp
    87bb:	48 89 e5             	mov    %rsp,%rbp
    87be:	89 7d fc             	mov    %edi,-0x4(%rbp)
    87c1:	89 75 f8             	mov    %esi,-0x8(%rbp)
    87c4:	83 7d fc 00          	cmpl   $0x0,-0x4(%rbp)
    87c8:	78 1a                	js     87e4 <safe_rshift_func_int32_t_s_s+0x2e>
    87ca:	83 7d f8 00          	cmpl   $0x0,-0x8(%rbp)
    87ce:	78 14                	js     87e4 <safe_rshift_func_int32_t_s_s+0x2e>
    87d0:	83 7d f8 1f          	cmpl   $0x1f,-0x8(%rbp)
    87d4:	7f 0e                	jg     87e4 <safe_rshift_func_int32_t_s_s+0x2e>
    87d6:	8b 45 f8             	mov    -0x8(%rbp),%eax
    87d9:	8b 55 fc             	mov    -0x4(%rbp),%edx
    87dc:	89 c1                	mov    %eax,%ecx
    87de:	d3 fa                	sar    %cl,%edx
    87e0:	89 d0                	mov    %edx,%eax
    87e2:	eb 03                	jmp    87e7 <safe_rshift_func_int32_t_s_s+0x31>
    87e4:	8b 45 fc             	mov    -0x4(%rbp),%eax
    87e7:	5d                   	pop    %rbp
    87e8:	c3                   	retq   

00000000000087e9 <safe_rshift_func_int32_t_s_u>:
    87e9:	f3 0f 1e fa          	endbr64 
    87ed:	55                   	push   %rbp
    87ee:	48 89 e5             	mov    %rsp,%rbp
    87f1:	89 7d fc             	mov    %edi,-0x4(%rbp)
    87f4:	89 75 f8             	mov    %esi,-0x8(%rbp)
    87f7:	83 7d fc 00          	cmpl   $0x0,-0x4(%rbp)
    87fb:	78 14                	js     8811 <safe_rshift_func_int32_t_s_u+0x28>
    87fd:	83 7d f8 1f          	cmpl   $0x1f,-0x8(%rbp)
    8801:	77 0e                	ja     8811 <safe_rshift_func_int32_t_s_u+0x28>
    8803:	8b 45 f8             	mov    -0x8(%rbp),%eax
    8806:	8b 55 fc             	mov    -0x4(%rbp),%edx
    8809:	89 c1                	mov    %eax,%ecx
    880b:	d3 fa                	sar    %cl,%edx
    880d:	89 d0                	mov    %edx,%eax
    880f:	eb 03                	jmp    8814 <safe_rshift_func_int32_t_s_u+0x2b>
    8811:	8b 45 fc             	mov    -0x4(%rbp),%eax
    8814:	5d                   	pop    %rbp
    8815:	c3                   	retq   

0000000000008816 <safe_unary_minus_func_int64_t_s>:
    8816:	f3 0f 1e fa          	endbr64 
    881a:	55                   	push   %rbp
    881b:	48 89 e5             	mov    %rsp,%rbp
    881e:	48 89 7d f8          	mov    %rdi,-0x8(%rbp)
    8822:	48 b8 00 00 00 00 00 	movabs $0x8000000000000000,%rax
    8829:	00 00 80 
    882c:	48 39 45 f8          	cmp    %rax,-0x8(%rbp)
    8830:	74 09                	je     883b <safe_unary_minus_func_int64_t_s+0x25>
    8832:	48 8b 45 f8          	mov    -0x8(%rbp),%rax
    8836:	48 f7 d8             	neg    %rax
    8839:	eb 04                	jmp    883f <safe_unary_minus_func_int64_t_s+0x29>
    883b:	48 8b 45 f8          	mov    -0x8(%rbp),%rax
    883f:	5d                   	pop    %rbp
    8840:	c3                   	retq   

0000000000008841 <safe_add_func_int64_t_s_s>:
    8841:	f3 0f 1e fa          	endbr64 
    8845:	55                   	push   %rbp
    8846:	48 89 e5             	mov    %rsp,%rbp
    8849:	48 89 7d f8          	mov    %rdi,-0x8(%rbp)
    884d:	48 89 75 f0          	mov    %rsi,-0x10(%rbp)
    8851:	48 83 7d f8 00       	cmpq   $0x0,-0x8(%rbp)
    8856:	7e 1b                	jle    8873 <safe_add_func_int64_t_s_s+0x32>
    8858:	48 83 7d f0 00       	cmpq   $0x0,-0x10(%rbp)
    885d:	7e 14                	jle    8873 <safe_add_func_int64_t_s_s+0x32>
    885f:	48 b8 ff ff ff ff ff 	movabs $0x7fffffffffffffff,%rax
    8866:	ff ff 7f 
    8869:	48 2b 45 f0          	sub    -0x10(%rbp),%rax
    886d:	48 39 45 f8          	cmp    %rax,-0x8(%rbp)
    8871:	7f 2f                	jg     88a2 <safe_add_func_int64_t_s_s+0x61>
    8873:	48 83 7d f8 00       	cmpq   $0x0,-0x8(%rbp)
    8878:	79 1b                	jns    8895 <safe_add_func_int64_t_s_s+0x54>
    887a:	48 83 7d f0 00       	cmpq   $0x0,-0x10(%rbp)
    887f:	79 14                	jns    8895 <safe_add_func_int64_t_s_s+0x54>
    8881:	48 b8 00 00 00 00 00 	movabs $0x8000000000000000,%rax
    8888:	00 00 80 
    888b:	48 2b 45 f0          	sub    -0x10(%rbp),%rax
    888f:	48 39 45 f8          	cmp    %rax,-0x8(%rbp)
    8893:	7c 0d                	jl     88a2 <safe_add_func_int64_t_s_s+0x61>
    8895:	48 8b 55 f8          	mov    -0x8(%rbp),%rdx
    8899:	48 8b 45 f0          	mov    -0x10(%rbp),%rax
    889d:	48 01 d0             	add    %rdx,%rax
    88a0:	eb 04                	jmp    88a6 <safe_add_func_int64_t_s_s+0x65>
    88a2:	48 8b 45 f8          	mov    -0x8(%rbp),%rax
    88a6:	5d                   	pop    %rbp
    88a7:	c3                   	retq   

00000000000088a8 <safe_sub_func_int64_t_s_s>:
    88a8:	f3 0f 1e fa          	endbr64 
    88ac:	55                   	push   %rbp
    88ad:	48 89 e5             	mov    %rsp,%rbp
    88b0:	48 89 7d f8          	mov    %rdi,-0x8(%rbp)
    88b4:	48 89 75 f0          	mov    %rsi,-0x10(%rbp)
    88b8:	48 8b 45 f8          	mov    -0x8(%rbp),%rax
    88bc:	48 33 45 f0          	xor    -0x10(%rbp),%rax
    88c0:	48 89 c2             	mov    %rax,%rdx
    88c3:	48 8b 45 f8          	mov    -0x8(%rbp),%rax
    88c7:	48 33 45 f0          	xor    -0x10(%rbp),%rax
    88cb:	48 b9 00 00 00 00 00 	movabs $0x8000000000000000,%rcx
    88d2:	00 00 80 
    88d5:	48 21 c8             	and    %rcx,%rax
    88d8:	48 33 45 f8          	xor    -0x8(%rbp),%rax
    88dc:	48 2b 45 f0          	sub    -0x10(%rbp),%rax
    88e0:	48 33 45 f0          	xor    -0x10(%rbp),%rax
    88e4:	48 21 d0             	and    %rdx,%rax
    88e7:	48 85 c0             	test   %rax,%rax
    88ea:	78 0a                	js     88f6 <safe_sub_func_int64_t_s_s+0x4e>
    88ec:	48 8b 45 f8          	mov    -0x8(%rbp),%rax
    88f0:	48 2b 45 f0          	sub    -0x10(%rbp),%rax
    88f4:	eb 04                	jmp    88fa <safe_sub_func_int64_t_s_s+0x52>
    88f6:	48 8b 45 f8          	mov    -0x8(%rbp),%rax
    88fa:	5d                   	pop    %rbp
    88fb:	c3                   	retq   

00000000000088fc <safe_mul_func_int64_t_s_s>:
    88fc:	f3 0f 1e fa          	endbr64 
    8900:	55                   	push   %rbp
    8901:	48 89 e5             	mov    %rsp,%rbp
    8904:	48 89 7d f8          	mov    %rdi,-0x8(%rbp)
    8908:	48 89 75 f0          	mov    %rsi,-0x10(%rbp)
    890c:	48 83 7d f8 00       	cmpq   $0x0,-0x8(%rbp)
    8911:	7e 1d                	jle    8930 <safe_mul_func_int64_t_s_s+0x34>
    8913:	48 83 7d f0 00       	cmpq   $0x0,-0x10(%rbp)
    8918:	7e 16                	jle    8930 <safe_mul_func_int64_t_s_s+0x34>
    891a:	48 b8 ff ff ff ff ff 	movabs $0x7fffffffffffffff,%rax
    8921:	ff ff 7f 
    8924:	48 99                	cqto   
    8926:	48 f7 7d f0          	idivq  -0x10(%rbp)
    892a:	48 39 45 f8          	cmp    %rax,-0x8(%rbp)
    892e:	7f 7e                	jg     89ae <safe_mul_func_int64_t_s_s+0xb2>
    8930:	48 83 7d f8 00       	cmpq   $0x0,-0x8(%rbp)
    8935:	7e 1d                	jle    8954 <safe_mul_func_int64_t_s_s+0x58>
    8937:	48 83 7d f0 00       	cmpq   $0x0,-0x10(%rbp)
    893c:	7f 16                	jg     8954 <safe_mul_func_int64_t_s_s+0x58>
    893e:	48 b8 00 00 00 00 00 	movabs $0x8000000000000000,%rax
    8945:	00 00 80 
    8948:	48 99                	cqto   
    894a:	48 f7 7d f8          	idivq  -0x8(%rbp)
    894e:	48 39 45 f0          	cmp    %rax,-0x10(%rbp)
    8952:	7c 5a                	jl     89ae <safe_mul_func_int64_t_s_s+0xb2>
    8954:	48 83 7d f8 00       	cmpq   $0x0,-0x8(%rbp)
    8959:	7f 1d                	jg     8978 <safe_mul_func_int64_t_s_s+0x7c>
    895b:	48 83 7d f0 00       	cmpq   $0x0,-0x10(%rbp)
    8960:	7e 16                	jle    8978 <safe_mul_func_int64_t_s_s+0x7c>
    8962:	48 b8 00 00 00 00 00 	movabs $0x8000000000000000,%rax
    8969:	00 00 80 
    896c:	48 99                	cqto   
    896e:	48 f7 7d f0          	idivq  -0x10(%rbp)
    8972:	48 39 45 f8          	cmp    %rax,-0x8(%rbp)
    8976:	7c 36                	jl     89ae <safe_mul_func_int64_t_s_s+0xb2>
    8978:	48 83 7d f8 00       	cmpq   $0x0,-0x8(%rbp)
    897d:	7f 24                	jg     89a3 <safe_mul_func_int64_t_s_s+0xa7>
    897f:	48 83 7d f0 00       	cmpq   $0x0,-0x10(%rbp)
    8984:	7f 1d                	jg     89a3 <safe_mul_func_int64_t_s_s+0xa7>
    8986:	48 83 7d f8 00       	cmpq   $0x0,-0x8(%rbp)
    898b:	74 16                	je     89a3 <safe_mul_func_int64_t_s_s+0xa7>
    898d:	48 b8 ff ff ff ff ff 	movabs $0x7fffffffffffffff,%rax
    8994:	ff ff 7f 
    8997:	48 99                	cqto   
    8999:	48 f7 7d f8          	idivq  -0x8(%rbp)
    899d:	48 39 45 f0          	cmp    %rax,-0x10(%rbp)
    89a1:	7c 0b                	jl     89ae <safe_mul_func_int64_t_s_s+0xb2>
    89a3:	48 8b 45 f8          	mov    -0x8(%rbp),%rax
    89a7:	48 0f af 45 f0       	imul   -0x10(%rbp),%rax
    89ac:	eb 04                	jmp    89b2 <safe_mul_func_int64_t_s_s+0xb6>
    89ae:	48 8b 45 f8          	mov    -0x8(%rbp),%rax
    89b2:	5d                   	pop    %rbp
    89b3:	c3                   	retq   

00000000000089b4 <safe_mod_func_int64_t_s_s>:
    89b4:	f3 0f 1e fa          	endbr64 
    89b8:	55                   	push   %rbp
    89b9:	48 89 e5             	mov    %rsp,%rbp
    89bc:	48 89 7d f8          	mov    %rdi,-0x8(%rbp)
    89c0:	48 89 75 f0          	mov    %rsi,-0x10(%rbp)
    89c4:	48 83 7d f0 00       	cmpq   $0x0,-0x10(%rbp)
    89c9:	74 26                	je     89f1 <safe_mod_func_int64_t_s_s+0x3d>
    89cb:	48 b8 00 00 00 00 00 	movabs $0x8000000000000000,%rax
    89d2:	00 00 80 
    89d5:	48 39 45 f8          	cmp    %rax,-0x8(%rbp)
    89d9:	75 07                	jne    89e2 <safe_mod_func_int64_t_s_s+0x2e>
    89db:	48 83 7d f0 ff       	cmpq   $0xffffffffffffffff,-0x10(%rbp)
    89e0:	74 0f                	je     89f1 <safe_mod_func_int64_t_s_s+0x3d>
    89e2:	48 8b 45 f8          	mov    -0x8(%rbp),%rax
    89e6:	48 99                	cqto   
    89e8:	48 f7 7d f0          	idivq  -0x10(%rbp)
    89ec:	48 89 d0             	mov    %rdx,%rax
    89ef:	eb 04                	jmp    89f5 <safe_mod_func_int64_t_s_s+0x41>
    89f1:	48 8b 45 f8          	mov    -0x8(%rbp),%rax
    89f5:	5d                   	pop    %rbp
    89f6:	c3                   	retq   

00000000000089f7 <safe_div_func_int64_t_s_s>:
    89f7:	f3 0f 1e fa          	endbr64 
    89fb:	55                   	push   %rbp
    89fc:	48 89 e5             	mov    %rsp,%rbp
    89ff:	48 89 7d f8          	mov    %rdi,-0x8(%rbp)
    8a03:	48 89 75 f0          	mov    %rsi,-0x10(%rbp)
    8a07:	48 83 7d f0 00       	cmpq   $0x0,-0x10(%rbp)
    8a0c:	74 23                	je     8a31 <safe_div_func_int64_t_s_s+0x3a>
    8a0e:	48 b8 00 00 00 00 00 	movabs $0x8000000000000000,%rax
    8a15:	00 00 80 
    8a18:	48 39 45 f8          	cmp    %rax,-0x8(%rbp)
    8a1c:	75 07                	jne    8a25 <safe_div_func_int64_t_s_s+0x2e>
    8a1e:	48 83 7d f0 ff       	cmpq   $0xffffffffffffffff,-0x10(%rbp)
    8a23:	74 0c                	je     8a31 <safe_div_func_int64_t_s_s+0x3a>
    8a25:	48 8b 45 f8          	mov    -0x8(%rbp),%rax
    8a29:	48 99                	cqto   
    8a2b:	48 f7 7d f0          	idivq  -0x10(%rbp)
    8a2f:	eb 04                	jmp    8a35 <safe_div_func_int64_t_s_s+0x3e>
    8a31:	48 8b 45 f8          	mov    -0x8(%rbp),%rax
    8a35:	5d                   	pop    %rbp
    8a36:	c3                   	retq   

0000000000008a37 <safe_lshift_func_int64_t_s_s>:
    8a37:	f3 0f 1e fa          	endbr64 
    8a3b:	55                   	push   %rbp
    8a3c:	48 89 e5             	mov    %rsp,%rbp
    8a3f:	48 89 7d f8          	mov    %rdi,-0x8(%rbp)
    8a43:	89 75 f4             	mov    %esi,-0xc(%rbp)
    8a46:	48 83 7d f8 00       	cmpq   $0x0,-0x8(%rbp)
    8a4b:	78 38                	js     8a85 <safe_lshift_func_int64_t_s_s+0x4e>
    8a4d:	83 7d f4 00          	cmpl   $0x0,-0xc(%rbp)
    8a51:	78 32                	js     8a85 <safe_lshift_func_int64_t_s_s+0x4e>
    8a53:	83 7d f4 1f          	cmpl   $0x1f,-0xc(%rbp)
    8a57:	7f 2c                	jg     8a85 <safe_lshift_func_int64_t_s_s+0x4e>
    8a59:	8b 45 f4             	mov    -0xc(%rbp),%eax
    8a5c:	48 ba ff ff ff ff ff 	movabs $0x7fffffffffffffff,%rdx
    8a63:	ff ff 7f 
    8a66:	89 c1                	mov    %eax,%ecx
    8a68:	48 d3 fa             	sar    %cl,%rdx
    8a6b:	48 89 d0             	mov    %rdx,%rax
    8a6e:	48 39 45 f8          	cmp    %rax,-0x8(%rbp)
    8a72:	7f 11                	jg     8a85 <safe_lshift_func_int64_t_s_s+0x4e>
    8a74:	8b 45 f4             	mov    -0xc(%rbp),%eax
    8a77:	48 8b 55 f8          	mov    -0x8(%rbp),%rdx
    8a7b:	89 c1                	mov    %eax,%ecx
    8a7d:	48 d3 e2             	shl    %cl,%rdx
    8a80:	48 89 d0             	mov    %rdx,%rax
    8a83:	eb 04                	jmp    8a89 <safe_lshift_func_int64_t_s_s+0x52>
    8a85:	48 8b 45 f8          	mov    -0x8(%rbp),%rax
    8a89:	5d                   	pop    %rbp
    8a8a:	c3                   	retq   

0000000000008a8b <safe_lshift_func_int64_t_s_u>:
    8a8b:	f3 0f 1e fa          	endbr64 
    8a8f:	55                   	push   %rbp
    8a90:	48 89 e5             	mov    %rsp,%rbp
    8a93:	48 89 7d f8          	mov    %rdi,-0x8(%rbp)
    8a97:	89 75 f4             	mov    %esi,-0xc(%rbp)
    8a9a:	48 83 7d f8 00       	cmpq   $0x0,-0x8(%rbp)
    8a9f:	78 32                	js     8ad3 <safe_lshift_func_int64_t_s_u+0x48>
    8aa1:	83 7d f4 1f          	cmpl   $0x1f,-0xc(%rbp)
    8aa5:	77 2c                	ja     8ad3 <safe_lshift_func_int64_t_s_u+0x48>
    8aa7:	8b 45 f4             	mov    -0xc(%rbp),%eax
    8aaa:	48 ba ff ff ff ff ff 	movabs $0x7fffffffffffffff,%rdx
    8ab1:	ff ff 7f 
    8ab4:	89 c1                	mov    %eax,%ecx
    8ab6:	48 d3 fa             	sar    %cl,%rdx
    8ab9:	48 89 d0             	mov    %rdx,%rax
    8abc:	48 39 45 f8          	cmp    %rax,-0x8(%rbp)
    8ac0:	7f 11                	jg     8ad3 <safe_lshift_func_int64_t_s_u+0x48>
    8ac2:	8b 45 f4             	mov    -0xc(%rbp),%eax
    8ac5:	48 8b 55 f8          	mov    -0x8(%rbp),%rdx
    8ac9:	89 c1                	mov    %eax,%ecx
    8acb:	48 d3 e2             	shl    %cl,%rdx
    8ace:	48 89 d0             	mov    %rdx,%rax
    8ad1:	eb 04                	jmp    8ad7 <safe_lshift_func_int64_t_s_u+0x4c>
    8ad3:	48 8b 45 f8          	mov    -0x8(%rbp),%rax
    8ad7:	5d                   	pop    %rbp
    8ad8:	c3                   	retq   

0000000000008ad9 <safe_rshift_func_int64_t_s_s>:
    8ad9:	f3 0f 1e fa          	endbr64 
    8add:	55                   	push   %rbp
    8ade:	48 89 e5             	mov    %rsp,%rbp
    8ae1:	48 89 7d f8          	mov    %rdi,-0x8(%rbp)
    8ae5:	89 75 f4             	mov    %esi,-0xc(%rbp)
    8ae8:	48 83 7d f8 00       	cmpq   $0x0,-0x8(%rbp)
    8aed:	78 1d                	js     8b0c <safe_rshift_func_int64_t_s_s+0x33>
    8aef:	83 7d f4 00          	cmpl   $0x0,-0xc(%rbp)
    8af3:	78 17                	js     8b0c <safe_rshift_func_int64_t_s_s+0x33>
    8af5:	83 7d f4 1f          	cmpl   $0x1f,-0xc(%rbp)
    8af9:	7f 11                	jg     8b0c <safe_rshift_func_int64_t_s_s+0x33>
    8afb:	8b 45 f4             	mov    -0xc(%rbp),%eax
    8afe:	48 8b 55 f8          	mov    -0x8(%rbp),%rdx
    8b02:	89 c1                	mov    %eax,%ecx
    8b04:	48 d3 fa             	sar    %cl,%rdx
    8b07:	48 89 d0             	mov    %rdx,%rax
    8b0a:	eb 04                	jmp    8b10 <safe_rshift_func_int64_t_s_s+0x37>
    8b0c:	48 8b 45 f8          	mov    -0x8(%rbp),%rax
    8b10:	5d                   	pop    %rbp
    8b11:	c3                   	retq   

0000000000008b12 <safe_rshift_func_int64_t_s_u>:
    8b12:	f3 0f 1e fa          	endbr64 
    8b16:	55                   	push   %rbp
    8b17:	48 89 e5             	mov    %rsp,%rbp
    8b1a:	48 89 7d f8          	mov    %rdi,-0x8(%rbp)
    8b1e:	89 75 f4             	mov    %esi,-0xc(%rbp)
    8b21:	48 83 7d f8 00       	cmpq   $0x0,-0x8(%rbp)
    8b26:	78 17                	js     8b3f <safe_rshift_func_int64_t_s_u+0x2d>
    8b28:	83 7d f4 1f          	cmpl   $0x1f,-0xc(%rbp)
    8b2c:	77 11                	ja     8b3f <safe_rshift_func_int64_t_s_u+0x2d>
    8b2e:	8b 45 f4             	mov    -0xc(%rbp),%eax
    8b31:	48 8b 55 f8          	mov    -0x8(%rbp),%rdx
    8b35:	89 c1                	mov    %eax,%ecx
    8b37:	48 d3 fa             	sar    %cl,%rdx
    8b3a:	48 89 d0             	mov    %rdx,%rax
    8b3d:	eb 04                	jmp    8b43 <safe_rshift_func_int64_t_s_u+0x31>
    8b3f:	48 8b 45 f8          	mov    -0x8(%rbp),%rax
    8b43:	5d                   	pop    %rbp
    8b44:	c3                   	retq   

0000000000008b45 <safe_unary_minus_func_uint8_t_u>:
    8b45:	f3 0f 1e fa          	endbr64 
    8b49:	55                   	push   %rbp
    8b4a:	48 89 e5             	mov    %rsp,%rbp
    8b4d:	89 f8                	mov    %edi,%eax
    8b4f:	88 45 fc             	mov    %al,-0x4(%rbp)
    8b52:	0f b6 45 fc          	movzbl -0x4(%rbp),%eax
    8b56:	f7 d8                	neg    %eax
    8b58:	5d                   	pop    %rbp
    8b59:	c3                   	retq   

0000000000008b5a <safe_add_func_uint8_t_u_u>:
    8b5a:	f3 0f 1e fa          	endbr64 
    8b5e:	55                   	push   %rbp
    8b5f:	48 89 e5             	mov    %rsp,%rbp
    8b62:	89 fa                	mov    %edi,%edx
    8b64:	89 f0                	mov    %esi,%eax
    8b66:	88 55 fc             	mov    %dl,-0x4(%rbp)
    8b69:	88 45 f8             	mov    %al,-0x8(%rbp)
    8b6c:	0f b6 55 fc          	movzbl -0x4(%rbp),%edx
    8b70:	0f b6 45 f8          	movzbl -0x8(%rbp),%eax
    8b74:	01 d0                	add    %edx,%eax
    8b76:	5d                   	pop    %rbp
    8b77:	c3                   	retq   

0000000000008b78 <safe_sub_func_uint8_t_u_u>:
    8b78:	f3 0f 1e fa          	endbr64 
    8b7c:	55                   	push   %rbp
    8b7d:	48 89 e5             	mov    %rsp,%rbp
    8b80:	89 fa                	mov    %edi,%edx
    8b82:	89 f0                	mov    %esi,%eax
    8b84:	88 55 fc             	mov    %dl,-0x4(%rbp)
    8b87:	88 45 f8             	mov    %al,-0x8(%rbp)
    8b8a:	0f b6 45 fc          	movzbl -0x4(%rbp),%eax
    8b8e:	2a 45 f8             	sub    -0x8(%rbp),%al
    8b91:	5d                   	pop    %rbp
    8b92:	c3                   	retq   

0000000000008b93 <safe_mul_func_uint8_t_u_u>:
    8b93:	f3 0f 1e fa          	endbr64 
    8b97:	55                   	push   %rbp
    8b98:	48 89 e5             	mov    %rsp,%rbp
    8b9b:	89 fa                	mov    %edi,%edx
    8b9d:	89 f0                	mov    %esi,%eax
    8b9f:	88 55 fc             	mov    %dl,-0x4(%rbp)
    8ba2:	88 45 f8             	mov    %al,-0x8(%rbp)
    8ba5:	0f b6 45 fc          	movzbl -0x4(%rbp),%eax
    8ba9:	f6 65 f8             	mulb   -0x8(%rbp)
    8bac:	5d                   	pop    %rbp
    8bad:	c3                   	retq   

0000000000008bae <safe_mod_func_uint8_t_u_u>:
    8bae:	f3 0f 1e fa          	endbr64 
    8bb2:	55                   	push   %rbp
    8bb3:	48 89 e5             	mov    %rsp,%rbp
    8bb6:	89 fa                	mov    %edi,%edx
    8bb8:	89 f0                	mov    %esi,%eax
    8bba:	88 55 fc             	mov    %dl,-0x4(%rbp)
    8bbd:	88 45 f8             	mov    %al,-0x8(%rbp)
    8bc0:	80 7d f8 00          	cmpb   $0x0,-0x8(%rbp)
    8bc4:	74 0f                	je     8bd5 <safe_mod_func_uint8_t_u_u+0x27>
    8bc6:	0f b6 45 fc          	movzbl -0x4(%rbp),%eax
    8bca:	0f b6 c0             	movzbl %al,%eax
    8bcd:	f6 75 f8             	divb   -0x8(%rbp)
    8bd0:	0f b6 c4             	movzbl %ah,%eax
    8bd3:	eb 04                	jmp    8bd9 <safe_mod_func_uint8_t_u_u+0x2b>
    8bd5:	0f b6 45 fc          	movzbl -0x4(%rbp),%eax
    8bd9:	5d                   	pop    %rbp
    8bda:	c3                   	retq   

0000000000008bdb <safe_div_func_uint8_t_u_u>:
    8bdb:	f3 0f 1e fa          	endbr64 
    8bdf:	55                   	push   %rbp
    8be0:	48 89 e5             	mov    %rsp,%rbp
    8be3:	89 fa                	mov    %edi,%edx
    8be5:	89 f0                	mov    %esi,%eax
    8be7:	88 55 fc             	mov    %dl,-0x4(%rbp)
    8bea:	88 45 f8             	mov    %al,-0x8(%rbp)
    8bed:	80 7d f8 00          	cmpb   $0x0,-0x8(%rbp)
    8bf1:	74 0c                	je     8bff <safe_div_func_uint8_t_u_u+0x24>
    8bf3:	0f b6 45 fc          	movzbl -0x4(%rbp),%eax
    8bf7:	0f b6 c0             	movzbl %al,%eax
    8bfa:	f6 75 f8             	divb   -0x8(%rbp)
    8bfd:	eb 04                	jmp    8c03 <safe_div_func_uint8_t_u_u+0x28>
    8bff:	0f b6 45 fc          	movzbl -0x4(%rbp),%eax
    8c03:	5d                   	pop    %rbp
    8c04:	c3                   	retq   

0000000000008c05 <safe_lshift_func_uint8_t_u_s>:
    8c05:	f3 0f 1e fa          	endbr64 
    8c09:	55                   	push   %rbp
    8c0a:	48 89 e5             	mov    %rsp,%rbp
    8c0d:	89 f8                	mov    %edi,%eax
    8c0f:	89 75 f8             	mov    %esi,-0x8(%rbp)
    8c12:	88 45 fc             	mov    %al,-0x4(%rbp)
    8c15:	83 7d f8 00          	cmpl   $0x0,-0x8(%rbp)
    8c19:	78 2b                	js     8c46 <safe_lshift_func_uint8_t_u_s+0x41>
    8c1b:	83 7d f8 1f          	cmpl   $0x1f,-0x8(%rbp)
    8c1f:	7f 25                	jg     8c46 <safe_lshift_func_uint8_t_u_s+0x41>
    8c21:	0f b6 55 fc          	movzbl -0x4(%rbp),%edx
    8c25:	8b 45 f8             	mov    -0x8(%rbp),%eax
    8c28:	be ff 00 00 00       	mov    $0xff,%esi
    8c2d:	89 c1                	mov    %eax,%ecx
    8c2f:	d3 fe                	sar    %cl,%esi
    8c31:	89 f0                	mov    %esi,%eax
    8c33:	39 c2                	cmp    %eax,%edx
    8c35:	7f 0f                	jg     8c46 <safe_lshift_func_uint8_t_u_s+0x41>
    8c37:	0f b6 55 fc          	movzbl -0x4(%rbp),%edx
    8c3b:	8b 45 f8             	mov    -0x8(%rbp),%eax
    8c3e:	89 c1                	mov    %eax,%ecx
    8c40:	d3 e2                	shl    %cl,%edx
    8c42:	89 d0                	mov    %edx,%eax
    8c44:	eb 04                	jmp    8c4a <safe_lshift_func_uint8_t_u_s+0x45>
    8c46:	0f b6 45 fc          	movzbl -0x4(%rbp),%eax
    8c4a:	5d                   	pop    %rbp
    8c4b:	c3                   	retq   

0000000000008c4c <safe_lshift_func_uint8_t_u_u>:
    8c4c:	f3 0f 1e fa          	endbr64 
    8c50:	55                   	push   %rbp
    8c51:	48 89 e5             	mov    %rsp,%rbp
    8c54:	89 f8                	mov    %edi,%eax
    8c56:	89 75 f8             	mov    %esi,-0x8(%rbp)
    8c59:	88 45 fc             	mov    %al,-0x4(%rbp)
    8c5c:	83 7d f8 1f          	cmpl   $0x1f,-0x8(%rbp)
    8c60:	77 25                	ja     8c87 <safe_lshift_func_uint8_t_u_u+0x3b>
    8c62:	0f b6 55 fc          	movzbl -0x4(%rbp),%edx
    8c66:	8b 45 f8             	mov    -0x8(%rbp),%eax
    8c69:	be ff 00 00 00       	mov    $0xff,%esi
    8c6e:	89 c1                	mov    %eax,%ecx
    8c70:	d3 fe                	sar    %cl,%esi
    8c72:	89 f0                	mov    %esi,%eax
    8c74:	39 c2                	cmp    %eax,%edx
    8c76:	7f 0f                	jg     8c87 <safe_lshift_func_uint8_t_u_u+0x3b>
    8c78:	0f b6 55 fc          	movzbl -0x4(%rbp),%edx
    8c7c:	8b 45 f8             	mov    -0x8(%rbp),%eax
    8c7f:	89 c1                	mov    %eax,%ecx
    8c81:	d3 e2                	shl    %cl,%edx
    8c83:	89 d0                	mov    %edx,%eax
    8c85:	eb 04                	jmp    8c8b <safe_lshift_func_uint8_t_u_u+0x3f>
    8c87:	0f b6 45 fc          	movzbl -0x4(%rbp),%eax
    8c8b:	5d                   	pop    %rbp
    8c8c:	c3                   	retq   

0000000000008c8d <safe_rshift_func_uint8_t_u_s>:
    8c8d:	f3 0f 1e fa          	endbr64 
    8c91:	55                   	push   %rbp
    8c92:	48 89 e5             	mov    %rsp,%rbp
    8c95:	89 f8                	mov    %edi,%eax
    8c97:	89 75 f8             	mov    %esi,-0x8(%rbp)
    8c9a:	88 45 fc             	mov    %al,-0x4(%rbp)
    8c9d:	83 7d f8 00          	cmpl   $0x0,-0x8(%rbp)
    8ca1:	78 15                	js     8cb8 <safe_rshift_func_uint8_t_u_s+0x2b>
    8ca3:	83 7d f8 1f          	cmpl   $0x1f,-0x8(%rbp)
    8ca7:	7f 0f                	jg     8cb8 <safe_rshift_func_uint8_t_u_s+0x2b>
    8ca9:	0f b6 55 fc          	movzbl -0x4(%rbp),%edx
    8cad:	8b 45 f8             	mov    -0x8(%rbp),%eax
    8cb0:	89 c1                	mov    %eax,%ecx
    8cb2:	d3 fa                	sar    %cl,%edx
    8cb4:	89 d0                	mov    %edx,%eax
    8cb6:	eb 04                	jmp    8cbc <safe_rshift_func_uint8_t_u_s+0x2f>
    8cb8:	0f b6 45 fc          	movzbl -0x4(%rbp),%eax
    8cbc:	5d                   	pop    %rbp
    8cbd:	c3                   	retq   

0000000000008cbe <safe_rshift_func_uint8_t_u_u>:
    8cbe:	f3 0f 1e fa          	endbr64 
    8cc2:	55                   	push   %rbp
    8cc3:	48 89 e5             	mov    %rsp,%rbp
    8cc6:	89 f8                	mov    %edi,%eax
    8cc8:	89 75 f8             	mov    %esi,-0x8(%rbp)
    8ccb:	88 45 fc             	mov    %al,-0x4(%rbp)
    8cce:	83 7d f8 1f          	cmpl   $0x1f,-0x8(%rbp)
    8cd2:	77 0f                	ja     8ce3 <safe_rshift_func_uint8_t_u_u+0x25>
    8cd4:	0f b6 55 fc          	movzbl -0x4(%rbp),%edx
    8cd8:	8b 45 f8             	mov    -0x8(%rbp),%eax
    8cdb:	89 c1                	mov    %eax,%ecx
    8cdd:	d3 fa                	sar    %cl,%edx
    8cdf:	89 d0                	mov    %edx,%eax
    8ce1:	eb 04                	jmp    8ce7 <safe_rshift_func_uint8_t_u_u+0x29>
    8ce3:	0f b6 45 fc          	movzbl -0x4(%rbp),%eax
    8ce7:	5d                   	pop    %rbp
    8ce8:	c3                   	retq   

0000000000008ce9 <safe_unary_minus_func_uint16_t_u>:
    8ce9:	f3 0f 1e fa          	endbr64 
    8ced:	55                   	push   %rbp
    8cee:	48 89 e5             	mov    %rsp,%rbp
    8cf1:	89 f8                	mov    %edi,%eax
    8cf3:	66 89 45 fc          	mov    %ax,-0x4(%rbp)
    8cf7:	0f b7 45 fc          	movzwl -0x4(%rbp),%eax
    8cfb:	f7 d8                	neg    %eax
    8cfd:	5d                   	pop    %rbp
    8cfe:	c3                   	retq   

0000000000008cff <safe_add_func_uint16_t_u_u>:
    8cff:	f3 0f 1e fa          	endbr64 
    8d03:	55                   	push   %rbp
    8d04:	48 89 e5             	mov    %rsp,%rbp
    8d07:	89 fa                	mov    %edi,%edx
    8d09:	89 f0                	mov    %esi,%eax
    8d0b:	66 89 55 fc          	mov    %dx,-0x4(%rbp)
    8d0f:	66 89 45 f8          	mov    %ax,-0x8(%rbp)
    8d13:	0f b7 55 fc          	movzwl -0x4(%rbp),%edx
    8d17:	0f b7 45 f8          	movzwl -0x8(%rbp),%eax
    8d1b:	01 d0                	add    %edx,%eax
    8d1d:	5d                   	pop    %rbp
    8d1e:	c3                   	retq   

0000000000008d1f <safe_sub_func_uint16_t_u_u>:
    8d1f:	f3 0f 1e fa          	endbr64 
    8d23:	55                   	push   %rbp
    8d24:	48 89 e5             	mov    %rsp,%rbp
    8d27:	89 fa                	mov    %edi,%edx
    8d29:	89 f0                	mov    %esi,%eax
    8d2b:	66 89 55 fc          	mov    %dx,-0x4(%rbp)
    8d2f:	66 89 45 f8          	mov    %ax,-0x8(%rbp)
    8d33:	0f b7 45 fc          	movzwl -0x4(%rbp),%eax
    8d37:	66 2b 45 f8          	sub    -0x8(%rbp),%ax
    8d3b:	5d                   	pop    %rbp
    8d3c:	c3                   	retq   

0000000000008d3d <safe_mul_func_uint16_t_u_u>:
    8d3d:	f3 0f 1e fa          	endbr64 
    8d41:	55                   	push   %rbp
    8d42:	48 89 e5             	mov    %rsp,%rbp
    8d45:	89 fa                	mov    %edi,%edx
    8d47:	89 f0                	mov    %esi,%eax
    8d49:	66 89 55 fc          	mov    %dx,-0x4(%rbp)
    8d4d:	66 89 45 f8          	mov    %ax,-0x8(%rbp)
    8d51:	0f b7 45 fc          	movzwl -0x4(%rbp),%eax
    8d55:	66 0f af 45 f8       	imul   -0x8(%rbp),%ax
    8d5a:	5d                   	pop    %rbp
    8d5b:	c3                   	retq   

0000000000008d5c <safe_mod_func_uint16_t_u_u>:
    8d5c:	f3 0f 1e fa          	endbr64 
    8d60:	55                   	push   %rbp
    8d61:	48 89 e5             	mov    %rsp,%rbp
    8d64:	89 fa                	mov    %edi,%edx
    8d66:	89 f0                	mov    %esi,%eax
    8d68:	66 89 55 fc          	mov    %dx,-0x4(%rbp)
    8d6c:	66 89 45 f8          	mov    %ax,-0x8(%rbp)
    8d70:	66 83 7d f8 00       	cmpw   $0x0,-0x8(%rbp)
    8d75:	74 11                	je     8d88 <safe_mod_func_uint16_t_u_u+0x2c>
    8d77:	0f b7 45 fc          	movzwl -0x4(%rbp),%eax
    8d7b:	ba 00 00 00 00       	mov    $0x0,%edx
    8d80:	66 f7 75 f8          	divw   -0x8(%rbp)
    8d84:	89 d0                	mov    %edx,%eax
    8d86:	eb 04                	jmp    8d8c <safe_mod_func_uint16_t_u_u+0x30>
    8d88:	0f b7 45 fc          	movzwl -0x4(%rbp),%eax
    8d8c:	5d                   	pop    %rbp
    8d8d:	c3                   	retq   

0000000000008d8e <safe_div_func_uint16_t_u_u>:
    8d8e:	f3 0f 1e fa          	endbr64 
    8d92:	55                   	push   %rbp
    8d93:	48 89 e5             	mov    %rsp,%rbp
    8d96:	89 fa                	mov    %edi,%edx
    8d98:	89 f0                	mov    %esi,%eax
    8d9a:	66 89 55 fc          	mov    %dx,-0x4(%rbp)
    8d9e:	66 89 45 f8          	mov    %ax,-0x8(%rbp)
    8da2:	66 83 7d f8 00       	cmpw   $0x0,-0x8(%rbp)
    8da7:	74 0f                	je     8db8 <safe_div_func_uint16_t_u_u+0x2a>
    8da9:	0f b7 45 fc          	movzwl -0x4(%rbp),%eax
    8dad:	ba 00 00 00 00       	mov    $0x0,%edx
    8db2:	66 f7 75 f8          	divw   -0x8(%rbp)
    8db6:	eb 04                	jmp    8dbc <safe_div_func_uint16_t_u_u+0x2e>
    8db8:	0f b7 45 fc          	movzwl -0x4(%rbp),%eax
    8dbc:	5d                   	pop    %rbp
    8dbd:	c3                   	retq   

0000000000008dbe <safe_lshift_func_uint16_t_u_s>:
    8dbe:	f3 0f 1e fa          	endbr64 
    8dc2:	55                   	push   %rbp
    8dc3:	48 89 e5             	mov    %rsp,%rbp
    8dc6:	89 f8                	mov    %edi,%eax
    8dc8:	89 75 f8             	mov    %esi,-0x8(%rbp)
    8dcb:	66 89 45 fc          	mov    %ax,-0x4(%rbp)
    8dcf:	83 7d f8 00          	cmpl   $0x0,-0x8(%rbp)
    8dd3:	78 2b                	js     8e00 <safe_lshift_func_uint16_t_u_s+0x42>
    8dd5:	83 7d f8 1f          	cmpl   $0x1f,-0x8(%rbp)
    8dd9:	7f 25                	jg     8e00 <safe_lshift_func_uint16_t_u_s+0x42>
    8ddb:	0f b7 55 fc          	movzwl -0x4(%rbp),%edx
    8ddf:	8b 45 f8             	mov    -0x8(%rbp),%eax
    8de2:	be ff ff 00 00       	mov    $0xffff,%esi
    8de7:	89 c1                	mov    %eax,%ecx
    8de9:	d3 fe                	sar    %cl,%esi
    8deb:	89 f0                	mov    %esi,%eax
    8ded:	39 c2                	cmp    %eax,%edx
    8def:	7f 0f                	jg     8e00 <safe_lshift_func_uint16_t_u_s+0x42>
    8df1:	0f b7 55 fc          	movzwl -0x4(%rbp),%edx
    8df5:	8b 45 f8             	mov    -0x8(%rbp),%eax
    8df8:	89 c1                	mov    %eax,%ecx
    8dfa:	d3 e2                	shl    %cl,%edx
    8dfc:	89 d0                	mov    %edx,%eax
    8dfe:	eb 04                	jmp    8e04 <safe_lshift_func_uint16_t_u_s+0x46>
    8e00:	0f b7 45 fc          	movzwl -0x4(%rbp),%eax
    8e04:	5d                   	pop    %rbp
    8e05:	c3                   	retq   

0000000000008e06 <safe_lshift_func_uint16_t_u_u>:
    8e06:	f3 0f 1e fa          	endbr64 
    8e0a:	55                   	push   %rbp
    8e0b:	48 89 e5             	mov    %rsp,%rbp
    8e0e:	89 f8                	mov    %edi,%eax
    8e10:	89 75 f8             	mov    %esi,-0x8(%rbp)
    8e13:	66 89 45 fc          	mov    %ax,-0x4(%rbp)
    8e17:	83 7d f8 1f          	cmpl   $0x1f,-0x8(%rbp)
    8e1b:	77 25                	ja     8e42 <safe_lshift_func_uint16_t_u_u+0x3c>
    8e1d:	0f b7 55 fc          	movzwl -0x4(%rbp),%edx
    8e21:	8b 45 f8             	mov    -0x8(%rbp),%eax
    8e24:	be ff ff 00 00       	mov    $0xffff,%esi
    8e29:	89 c1                	mov    %eax,%ecx
    8e2b:	d3 fe                	sar    %cl,%esi
    8e2d:	89 f0                	mov    %esi,%eax
    8e2f:	39 c2                	cmp    %eax,%edx
    8e31:	7f 0f                	jg     8e42 <safe_lshift_func_uint16_t_u_u+0x3c>
    8e33:	0f b7 55 fc          	movzwl -0x4(%rbp),%edx
    8e37:	8b 45 f8             	mov    -0x8(%rbp),%eax
    8e3a:	89 c1                	mov    %eax,%ecx
    8e3c:	d3 e2                	shl    %cl,%edx
    8e3e:	89 d0                	mov    %edx,%eax
    8e40:	eb 04                	jmp    8e46 <safe_lshift_func_uint16_t_u_u+0x40>
    8e42:	0f b7 45 fc          	movzwl -0x4(%rbp),%eax
    8e46:	5d                   	pop    %rbp
    8e47:	c3                   	retq   

0000000000008e48 <safe_rshift_func_uint16_t_u_s>:
    8e48:	f3 0f 1e fa          	endbr64 
    8e4c:	55                   	push   %rbp
    8e4d:	48 89 e5             	mov    %rsp,%rbp
    8e50:	89 f8                	mov    %edi,%eax
    8e52:	89 75 f8             	mov    %esi,-0x8(%rbp)
    8e55:	66 89 45 fc          	mov    %ax,-0x4(%rbp)
    8e59:	83 7d f8 00          	cmpl   $0x0,-0x8(%rbp)
    8e5d:	78 15                	js     8e74 <safe_rshift_func_uint16_t_u_s+0x2c>
    8e5f:	83 7d f8 1f          	cmpl   $0x1f,-0x8(%rbp)
    8e63:	7f 0f                	jg     8e74 <safe_rshift_func_uint16_t_u_s+0x2c>
    8e65:	0f b7 55 fc          	movzwl -0x4(%rbp),%edx
    8e69:	8b 45 f8             	mov    -0x8(%rbp),%eax
    8e6c:	89 c1                	mov    %eax,%ecx
    8e6e:	d3 fa                	sar    %cl,%edx
    8e70:	89 d0                	mov    %edx,%eax
    8e72:	eb 04                	jmp    8e78 <safe_rshift_func_uint16_t_u_s+0x30>
    8e74:	0f b7 45 fc          	movzwl -0x4(%rbp),%eax
    8e78:	5d                   	pop    %rbp
    8e79:	c3                   	retq   

0000000000008e7a <safe_rshift_func_uint16_t_u_u>:
    8e7a:	f3 0f 1e fa          	endbr64 
    8e7e:	55                   	push   %rbp
    8e7f:	48 89 e5             	mov    %rsp,%rbp
    8e82:	89 f8                	mov    %edi,%eax
    8e84:	89 75 f8             	mov    %esi,-0x8(%rbp)
    8e87:	66 89 45 fc          	mov    %ax,-0x4(%rbp)
    8e8b:	83 7d f8 1f          	cmpl   $0x1f,-0x8(%rbp)
    8e8f:	77 0f                	ja     8ea0 <safe_rshift_func_uint16_t_u_u+0x26>
    8e91:	0f b7 55 fc          	movzwl -0x4(%rbp),%edx
    8e95:	8b 45 f8             	mov    -0x8(%rbp),%eax
    8e98:	89 c1                	mov    %eax,%ecx
    8e9a:	d3 fa                	sar    %cl,%edx
    8e9c:	89 d0                	mov    %edx,%eax
    8e9e:	eb 04                	jmp    8ea4 <safe_rshift_func_uint16_t_u_u+0x2a>
    8ea0:	0f b7 45 fc          	movzwl -0x4(%rbp),%eax
    8ea4:	5d                   	pop    %rbp
    8ea5:	c3                   	retq   

0000000000008ea6 <safe_unary_minus_func_uint32_t_u>:
    8ea6:	f3 0f 1e fa          	endbr64 
    8eaa:	55                   	push   %rbp
    8eab:	48 89 e5             	mov    %rsp,%rbp
    8eae:	89 7d fc             	mov    %edi,-0x4(%rbp)
    8eb1:	8b 45 fc             	mov    -0x4(%rbp),%eax
    8eb4:	f7 d8                	neg    %eax
    8eb6:	5d                   	pop    %rbp
    8eb7:	c3                   	retq   

0000000000008eb8 <safe_add_func_uint32_t_u_u>:
    8eb8:	f3 0f 1e fa          	endbr64 
    8ebc:	55                   	push   %rbp
    8ebd:	48 89 e5             	mov    %rsp,%rbp
    8ec0:	89 7d fc             	mov    %edi,-0x4(%rbp)
    8ec3:	89 75 f8             	mov    %esi,-0x8(%rbp)
    8ec6:	8b 55 fc             	mov    -0x4(%rbp),%edx
    8ec9:	8b 45 f8             	mov    -0x8(%rbp),%eax
    8ecc:	01 d0                	add    %edx,%eax
    8ece:	5d                   	pop    %rbp
    8ecf:	c3                   	retq   

0000000000008ed0 <safe_sub_func_uint32_t_u_u>:
    8ed0:	f3 0f 1e fa          	endbr64 
    8ed4:	55                   	push   %rbp
    8ed5:	48 89 e5             	mov    %rsp,%rbp
    8ed8:	89 7d fc             	mov    %edi,-0x4(%rbp)
    8edb:	89 75 f8             	mov    %esi,-0x8(%rbp)
    8ede:	8b 45 fc             	mov    -0x4(%rbp),%eax
    8ee1:	2b 45 f8             	sub    -0x8(%rbp),%eax
    8ee4:	5d                   	pop    %rbp
    8ee5:	c3                   	retq   

0000000000008ee6 <safe_mul_func_uint32_t_u_u>:
    8ee6:	f3 0f 1e fa          	endbr64 
    8eea:	55                   	push   %rbp
    8eeb:	48 89 e5             	mov    %rsp,%rbp
    8eee:	89 7d fc             	mov    %edi,-0x4(%rbp)
    8ef1:	89 75 f8             	mov    %esi,-0x8(%rbp)
    8ef4:	8b 45 fc             	mov    -0x4(%rbp),%eax
    8ef7:	0f af 45 f8          	imul   -0x8(%rbp),%eax
    8efb:	5d                   	pop    %rbp
    8efc:	c3                   	retq   

0000000000008efd <safe_mod_func_uint32_t_u_u>:
    8efd:	f3 0f 1e fa          	endbr64 
    8f01:	55                   	push   %rbp
    8f02:	48 89 e5             	mov    %rsp,%rbp
    8f05:	89 7d fc             	mov    %edi,-0x4(%rbp)
    8f08:	89 75 f8             	mov    %esi,-0x8(%rbp)
    8f0b:	83 7d f8 00          	cmpl   $0x0,-0x8(%rbp)
    8f0f:	74 0f                	je     8f20 <safe_mod_func_uint32_t_u_u+0x23>
    8f11:	8b 45 fc             	mov    -0x4(%rbp),%eax
    8f14:	ba 00 00 00 00       	mov    $0x0,%edx
    8f19:	f7 75 f8             	divl   -0x8(%rbp)
    8f1c:	89 d0                	mov    %edx,%eax
    8f1e:	eb 03                	jmp    8f23 <safe_mod_func_uint32_t_u_u+0x26>
    8f20:	8b 45 fc             	mov    -0x4(%rbp),%eax
    8f23:	5d                   	pop    %rbp
    8f24:	c3                   	retq   

0000000000008f25 <safe_div_func_uint32_t_u_u>:
    8f25:	f3 0f 1e fa          	endbr64 
    8f29:	55                   	push   %rbp
    8f2a:	48 89 e5             	mov    %rsp,%rbp
    8f2d:	89 7d fc             	mov    %edi,-0x4(%rbp)
    8f30:	89 75 f8             	mov    %esi,-0x8(%rbp)
    8f33:	83 7d f8 00          	cmpl   $0x0,-0x8(%rbp)
    8f37:	74 0d                	je     8f46 <safe_div_func_uint32_t_u_u+0x21>
    8f39:	8b 45 fc             	mov    -0x4(%rbp),%eax
    8f3c:	ba 00 00 00 00       	mov    $0x0,%edx
    8f41:	f7 75 f8             	divl   -0x8(%rbp)
    8f44:	eb 03                	jmp    8f49 <safe_div_func_uint32_t_u_u+0x24>
    8f46:	8b 45 fc             	mov    -0x4(%rbp),%eax
    8f49:	5d                   	pop    %rbp
    8f4a:	c3                   	retq   

0000000000008f4b <safe_lshift_func_uint32_t_u_s>:
    8f4b:	f3 0f 1e fa          	endbr64 
    8f4f:	55                   	push   %rbp
    8f50:	48 89 e5             	mov    %rsp,%rbp
    8f53:	89 7d fc             	mov    %edi,-0x4(%rbp)
    8f56:	89 75 f8             	mov    %esi,-0x8(%rbp)
    8f59:	83 7d f8 00          	cmpl   $0x0,-0x8(%rbp)
    8f5d:	78 27                	js     8f86 <safe_lshift_func_uint32_t_u_s+0x3b>
    8f5f:	83 7d f8 1f          	cmpl   $0x1f,-0x8(%rbp)
    8f63:	7f 21                	jg     8f86 <safe_lshift_func_uint32_t_u_s+0x3b>
    8f65:	8b 45 f8             	mov    -0x8(%rbp),%eax
    8f68:	ba ff ff ff ff       	mov    $0xffffffff,%edx
    8f6d:	89 c1                	mov    %eax,%ecx
    8f6f:	d3 ea                	shr    %cl,%edx
    8f71:	89 d0                	mov    %edx,%eax
    8f73:	39 45 fc             	cmp    %eax,-0x4(%rbp)
    8f76:	77 0e                	ja     8f86 <safe_lshift_func_uint32_t_u_s+0x3b>
    8f78:	8b 45 f8             	mov    -0x8(%rbp),%eax
    8f7b:	8b 55 fc             	mov    -0x4(%rbp),%edx
    8f7e:	89 c1                	mov    %eax,%ecx
    8f80:	d3 e2                	shl    %cl,%edx
    8f82:	89 d0                	mov    %edx,%eax
    8f84:	eb 03                	jmp    8f89 <safe_lshift_func_uint32_t_u_s+0x3e>
    8f86:	8b 45 fc             	mov    -0x4(%rbp),%eax
    8f89:	5d                   	pop    %rbp
    8f8a:	c3                   	retq   

0000000000008f8b <safe_lshift_func_uint32_t_u_u>:
    8f8b:	f3 0f 1e fa          	endbr64 
    8f8f:	55                   	push   %rbp
    8f90:	48 89 e5             	mov    %rsp,%rbp
    8f93:	89 7d fc             	mov    %edi,-0x4(%rbp)
    8f96:	89 75 f8             	mov    %esi,-0x8(%rbp)
    8f99:	83 7d f8 1f          	cmpl   $0x1f,-0x8(%rbp)
    8f9d:	77 21                	ja     8fc0 <safe_lshift_func_uint32_t_u_u+0x35>
    8f9f:	8b 45 f8             	mov    -0x8(%rbp),%eax
    8fa2:	ba ff ff ff ff       	mov    $0xffffffff,%edx
    8fa7:	89 c1                	mov    %eax,%ecx
    8fa9:	d3 ea                	shr    %cl,%edx
    8fab:	89 d0                	mov    %edx,%eax
    8fad:	39 45 fc             	cmp    %eax,-0x4(%rbp)
    8fb0:	77 0e                	ja     8fc0 <safe_lshift_func_uint32_t_u_u+0x35>
    8fb2:	8b 45 f8             	mov    -0x8(%rbp),%eax
    8fb5:	8b 55 fc             	mov    -0x4(%rbp),%edx
    8fb8:	89 c1                	mov    %eax,%ecx
    8fba:	d3 e2                	shl    %cl,%edx
    8fbc:	89 d0                	mov    %edx,%eax
    8fbe:	eb 03                	jmp    8fc3 <safe_lshift_func_uint32_t_u_u+0x38>
    8fc0:	8b 45 fc             	mov    -0x4(%rbp),%eax
    8fc3:	5d                   	pop    %rbp
    8fc4:	c3                   	retq   

0000000000008fc5 <safe_rshift_func_uint32_t_u_s>:
    8fc5:	f3 0f 1e fa          	endbr64 
    8fc9:	55                   	push   %rbp
    8fca:	48 89 e5             	mov    %rsp,%rbp
    8fcd:	89 7d fc             	mov    %edi,-0x4(%rbp)
    8fd0:	89 75 f8             	mov    %esi,-0x8(%rbp)
    8fd3:	83 7d f8 00          	cmpl   $0x0,-0x8(%rbp)
    8fd7:	78 14                	js     8fed <safe_rshift_func_uint32_t_u_s+0x28>
    8fd9:	83 7d f8 1f          	cmpl   $0x1f,-0x8(%rbp)
    8fdd:	7f 0e                	jg     8fed <safe_rshift_func_uint32_t_u_s+0x28>
    8fdf:	8b 45 f8             	mov    -0x8(%rbp),%eax
    8fe2:	8b 55 fc             	mov    -0x4(%rbp),%edx
    8fe5:	89 c1                	mov    %eax,%ecx
    8fe7:	d3 ea                	shr    %cl,%edx
    8fe9:	89 d0                	mov    %edx,%eax
    8feb:	eb 03                	jmp    8ff0 <safe_rshift_func_uint32_t_u_s+0x2b>
    8fed:	8b 45 fc             	mov    -0x4(%rbp),%eax
    8ff0:	5d                   	pop    %rbp
    8ff1:	c3                   	retq   

0000000000008ff2 <safe_rshift_func_uint32_t_u_u>:
    8ff2:	f3 0f 1e fa          	endbr64 
    8ff6:	55                   	push   %rbp
    8ff7:	48 89 e5             	mov    %rsp,%rbp
    8ffa:	89 7d fc             	mov    %edi,-0x4(%rbp)
    8ffd:	89 75 f8             	mov    %esi,-0x8(%rbp)
    9000:	83 7d f8 1f          	cmpl   $0x1f,-0x8(%rbp)
    9004:	77 0e                	ja     9014 <safe_rshift_func_uint32_t_u_u+0x22>
    9006:	8b 45 f8             	mov    -0x8(%rbp),%eax
    9009:	8b 55 fc             	mov    -0x4(%rbp),%edx
    900c:	89 c1                	mov    %eax,%ecx
    900e:	d3 ea                	shr    %cl,%edx
    9010:	89 d0                	mov    %edx,%eax
    9012:	eb 03                	jmp    9017 <safe_rshift_func_uint32_t_u_u+0x25>
    9014:	8b 45 fc             	mov    -0x4(%rbp),%eax
    9017:	5d                   	pop    %rbp
    9018:	c3                   	retq   

0000000000009019 <safe_unary_minus_func_uint64_t_u>:
    9019:	f3 0f 1e fa          	endbr64 
    901d:	55                   	push   %rbp
    901e:	48 89 e5             	mov    %rsp,%rbp
    9021:	48 89 7d f8          	mov    %rdi,-0x8(%rbp)
    9025:	48 8b 45 f8          	mov    -0x8(%rbp),%rax
    9029:	48 f7 d8             	neg    %rax
    902c:	5d                   	pop    %rbp
    902d:	c3                   	retq   

000000000000902e <safe_add_func_uint64_t_u_u>:
    902e:	f3 0f 1e fa          	endbr64 
    9032:	55                   	push   %rbp
    9033:	48 89 e5             	mov    %rsp,%rbp
    9036:	48 89 7d f8          	mov    %rdi,-0x8(%rbp)
    903a:	48 89 75 f0          	mov    %rsi,-0x10(%rbp)
    903e:	48 8b 55 f8          	mov    -0x8(%rbp),%rdx
    9042:	48 8b 45 f0          	mov    -0x10(%rbp),%rax
    9046:	48 01 d0             	add    %rdx,%rax
    9049:	5d                   	pop    %rbp
    904a:	c3                   	retq   

000000000000904b <safe_sub_func_uint64_t_u_u>:
    904b:	f3 0f 1e fa          	endbr64 
    904f:	55                   	push   %rbp
    9050:	48 89 e5             	mov    %rsp,%rbp
    9053:	48 89 7d f8          	mov    %rdi,-0x8(%rbp)
    9057:	48 89 75 f0          	mov    %rsi,-0x10(%rbp)
    905b:	48 8b 45 f8          	mov    -0x8(%rbp),%rax
    905f:	48 2b 45 f0          	sub    -0x10(%rbp),%rax
    9063:	5d                   	pop    %rbp
    9064:	c3                   	retq   

0000000000009065 <safe_mul_func_uint64_t_u_u>:
    9065:	f3 0f 1e fa          	endbr64 
    9069:	55                   	push   %rbp
    906a:	48 89 e5             	mov    %rsp,%rbp
    906d:	48 89 7d f8          	mov    %rdi,-0x8(%rbp)
    9071:	48 89 75 f0          	mov    %rsi,-0x10(%rbp)
    9075:	48 8b 45 f8          	mov    -0x8(%rbp),%rax
    9079:	48 0f af 45 f0       	imul   -0x10(%rbp),%rax
    907e:	5d                   	pop    %rbp
    907f:	c3                   	retq   

0000000000009080 <safe_mod_func_uint64_t_u_u>:
    9080:	f3 0f 1e fa          	endbr64 
    9084:	55                   	push   %rbp
    9085:	48 89 e5             	mov    %rsp,%rbp
    9088:	48 89 7d f8          	mov    %rdi,-0x8(%rbp)
    908c:	48 89 75 f0          	mov    %rsi,-0x10(%rbp)
    9090:	48 83 7d f0 00       	cmpq   $0x0,-0x10(%rbp)
    9095:	74 12                	je     90a9 <safe_mod_func_uint64_t_u_u+0x29>
    9097:	48 8b 45 f8          	mov    -0x8(%rbp),%rax
    909b:	ba 00 00 00 00       	mov    $0x0,%edx
    90a0:	48 f7 75 f0          	divq   -0x10(%rbp)
    90a4:	48 89 d0             	mov    %rdx,%rax
    90a7:	eb 04                	jmp    90ad <safe_mod_func_uint64_t_u_u+0x2d>
    90a9:	48 8b 45 f8          	mov    -0x8(%rbp),%rax
    90ad:	5d                   	pop    %rbp
    90ae:	c3                   	retq   

00000000000090af <safe_div_func_uint64_t_u_u>:
    90af:	f3 0f 1e fa          	endbr64 
    90b3:	55                   	push   %rbp
    90b4:	48 89 e5             	mov    %rsp,%rbp
    90b7:	48 89 7d f8          	mov    %rdi,-0x8(%rbp)
    90bb:	48 89 75 f0          	mov    %rsi,-0x10(%rbp)
    90bf:	48 83 7d f0 00       	cmpq   $0x0,-0x10(%rbp)
    90c4:	74 0f                	je     90d5 <safe_div_func_uint64_t_u_u+0x26>
    90c6:	48 8b 45 f8          	mov    -0x8(%rbp),%rax
    90ca:	ba 00 00 00 00       	mov    $0x0,%edx
    90cf:	48 f7 75 f0          	divq   -0x10(%rbp)
    90d3:	eb 04                	jmp    90d9 <safe_div_func_uint64_t_u_u+0x2a>
    90d5:	48 8b 45 f8          	mov    -0x8(%rbp),%rax
    90d9:	5d                   	pop    %rbp
    90da:	c3                   	retq   

00000000000090db <safe_lshift_func_uint64_t_u_s>:
    90db:	f3 0f 1e fa          	endbr64 
    90df:	55                   	push   %rbp
    90e0:	48 89 e5             	mov    %rsp,%rbp
    90e3:	48 89 7d f8          	mov    %rdi,-0x8(%rbp)
    90e7:	89 75 f4             	mov    %esi,-0xc(%rbp)
    90ea:	83 7d f4 00          	cmpl   $0x0,-0xc(%rbp)
    90ee:	78 2f                	js     911f <safe_lshift_func_uint64_t_u_s+0x44>
    90f0:	83 7d f4 1f          	cmpl   $0x1f,-0xc(%rbp)
    90f4:	7f 29                	jg     911f <safe_lshift_func_uint64_t_u_s+0x44>
    90f6:	8b 45 f4             	mov    -0xc(%rbp),%eax
    90f9:	48 c7 c2 ff ff ff ff 	mov    $0xffffffffffffffff,%rdx
    9100:	89 c1                	mov    %eax,%ecx
    9102:	48 d3 ea             	shr    %cl,%rdx
    9105:	48 89 d0             	mov    %rdx,%rax
    9108:	48 39 45 f8          	cmp    %rax,-0x8(%rbp)
    910c:	77 11                	ja     911f <safe_lshift_func_uint64_t_u_s+0x44>
    910e:	8b 45 f4             	mov    -0xc(%rbp),%eax
    9111:	48 8b 55 f8          	mov    -0x8(%rbp),%rdx
    9115:	89 c1                	mov    %eax,%ecx
    9117:	48 d3 e2             	shl    %cl,%rdx
    911a:	48 89 d0             	mov    %rdx,%rax
    911d:	eb 04                	jmp    9123 <safe_lshift_func_uint64_t_u_s+0x48>
    911f:	48 8b 45 f8          	mov    -0x8(%rbp),%rax
    9123:	5d                   	pop    %rbp
    9124:	c3                   	retq   

0000000000009125 <safe_lshift_func_uint64_t_u_u>:
    9125:	f3 0f 1e fa          	endbr64 
    9129:	55                   	push   %rbp
    912a:	48 89 e5             	mov    %rsp,%rbp
    912d:	48 89 7d f8          	mov    %rdi,-0x8(%rbp)
    9131:	89 75 f4             	mov    %esi,-0xc(%rbp)
    9134:	83 7d f4 1f          	cmpl   $0x1f,-0xc(%rbp)
    9138:	77 29                	ja     9163 <safe_lshift_func_uint64_t_u_u+0x3e>
    913a:	8b 45 f4             	mov    -0xc(%rbp),%eax
    913d:	48 c7 c2 ff ff ff ff 	mov    $0xffffffffffffffff,%rdx
    9144:	89 c1                	mov    %eax,%ecx
    9146:	48 d3 ea             	shr    %cl,%rdx
    9149:	48 89 d0             	mov    %rdx,%rax
    914c:	48 39 45 f8          	cmp    %rax,-0x8(%rbp)
    9150:	77 11                	ja     9163 <safe_lshift_func_uint64_t_u_u+0x3e>
    9152:	8b 45 f4             	mov    -0xc(%rbp),%eax
    9155:	48 8b 55 f8          	mov    -0x8(%rbp),%rdx
    9159:	89 c1                	mov    %eax,%ecx
    915b:	48 d3 e2             	shl    %cl,%rdx
    915e:	48 89 d0             	mov    %rdx,%rax
    9161:	eb 04                	jmp    9167 <safe_lshift_func_uint64_t_u_u+0x42>
    9163:	48 8b 45 f8          	mov    -0x8(%rbp),%rax
    9167:	5d                   	pop    %rbp
    9168:	c3                   	retq   

0000000000009169 <safe_rshift_func_uint64_t_u_s>:
    9169:	f3 0f 1e fa          	endbr64 
    916d:	55                   	push   %rbp
    916e:	48 89 e5             	mov    %rsp,%rbp
    9171:	48 89 7d f8          	mov    %rdi,-0x8(%rbp)
    9175:	89 75 f4             	mov    %esi,-0xc(%rbp)
    9178:	83 7d f4 00          	cmpl   $0x0,-0xc(%rbp)
    917c:	78 17                	js     9195 <safe_rshift_func_uint64_t_u_s+0x2c>
    917e:	83 7d f4 1f          	cmpl   $0x1f,-0xc(%rbp)
    9182:	7f 11                	jg     9195 <safe_rshift_func_uint64_t_u_s+0x2c>
    9184:	8b 45 f4             	mov    -0xc(%rbp),%eax
    9187:	48 8b 55 f8          	mov    -0x8(%rbp),%rdx
    918b:	89 c1                	mov    %eax,%ecx
    918d:	48 d3 ea             	shr    %cl,%rdx
    9190:	48 89 d0             	mov    %rdx,%rax
    9193:	eb 04                	jmp    9199 <safe_rshift_func_uint64_t_u_s+0x30>
    9195:	48 8b 45 f8          	mov    -0x8(%rbp),%rax
    9199:	5d                   	pop    %rbp
    919a:	c3                   	retq   

000000000000919b <safe_rshift_func_uint64_t_u_u>:
    919b:	f3 0f 1e fa          	endbr64 
    919f:	55                   	push   %rbp
    91a0:	48 89 e5             	mov    %rsp,%rbp
    91a3:	48 89 7d f8          	mov    %rdi,-0x8(%rbp)
    91a7:	89 75 f4             	mov    %esi,-0xc(%rbp)
    91aa:	83 7d f4 1f          	cmpl   $0x1f,-0xc(%rbp)
    91ae:	77 11                	ja     91c1 <safe_rshift_func_uint64_t_u_u+0x26>
    91b0:	8b 45 f4             	mov    -0xc(%rbp),%eax
    91b3:	48 8b 55 f8          	mov    -0x8(%rbp),%rdx
    91b7:	89 c1                	mov    %eax,%ecx
    91b9:	48 d3 ea             	shr    %cl,%rdx
    91bc:	48 89 d0             	mov    %rdx,%rax
    91bf:	eb 04                	jmp    91c5 <safe_rshift_func_uint64_t_u_u+0x2a>
    91c1:	48 8b 45 f8          	mov    -0x8(%rbp),%rax
    91c5:	5d                   	pop    %rbp
    91c6:	c3                   	retq   

00000000000091c7 <safe_add_func_float_f_f>:
    91c7:	f3 0f 1e fa          	endbr64 
    91cb:	55                   	push   %rbp
    91cc:	48 89 e5             	mov    %rsp,%rbp
    91cf:	f3 0f 11 45 fc       	movss  %xmm0,-0x4(%rbp)
    91d4:	f3 0f 11 4d f8       	movss  %xmm1,-0x8(%rbp)
    91d9:	f3 0f 10 4d fc       	movss  -0x4(%rbp),%xmm1
    91de:	f3 0f 10 05 8a 19 01 	movss  0x1198a(%rip),%xmm0        # 1ab70 <g_2228+0x1970>
    91e5:	00 
    91e6:	f3 0f 59 c8          	mulss  %xmm0,%xmm1
    91ea:	f3 0f 10 55 f8       	movss  -0x8(%rbp),%xmm2
    91ef:	f3 0f 10 05 79 19 01 	movss  0x11979(%rip),%xmm0        # 1ab70 <g_2228+0x1970>
    91f6:	00 
    91f7:	f3 0f 59 c2          	mulss  %xmm2,%xmm0
    91fb:	f3 0f 58 c1          	addss  %xmm1,%xmm0
    91ff:	f3 0f 10 0d 79 19 01 	movss  0x11979(%rip),%xmm1        # 1ab80 <g_2228+0x1980>
    9206:	00 
    9207:	0f 54 c1             	andps  %xmm1,%xmm0
    920a:	0f 2f 05 7f 19 01 00 	comiss 0x1197f(%rip),%xmm0        # 1ab90 <g_2228+0x1990>
    9211:	76 07                	jbe    921a <safe_add_func_float_f_f+0x53>
    9213:	f3 0f 10 45 fc       	movss  -0x4(%rbp),%xmm0
    9218:	eb 0a                	jmp    9224 <safe_add_func_float_f_f+0x5d>
    921a:	f3 0f 10 45 fc       	movss  -0x4(%rbp),%xmm0
    921f:	f3 0f 58 45 f8       	addss  -0x8(%rbp),%xmm0
    9224:	5d                   	pop    %rbp
    9225:	c3                   	retq   

0000000000009226 <safe_sub_func_float_f_f>:
    9226:	f3 0f 1e fa          	endbr64 
    922a:	55                   	push   %rbp
    922b:	48 89 e5             	mov    %rsp,%rbp
    922e:	f3 0f 11 45 fc       	movss  %xmm0,-0x4(%rbp)
    9233:	f3 0f 11 4d f8       	movss  %xmm1,-0x8(%rbp)
    9238:	f3 0f 10 4d fc       	movss  -0x4(%rbp),%xmm1
    923d:	f3 0f 10 05 2b 19 01 	movss  0x1192b(%rip),%xmm0        # 1ab70 <g_2228+0x1970>
    9244:	00 
    9245:	f3 0f 59 c1          	mulss  %xmm1,%xmm0
    9249:	f3 0f 10 55 f8       	movss  -0x8(%rbp),%xmm2
    924e:	f3 0f 10 0d 1a 19 01 	movss  0x1191a(%rip),%xmm1        # 1ab70 <g_2228+0x1970>
    9255:	00 
    9256:	f3 0f 59 ca          	mulss  %xmm2,%xmm1
    925a:	f3 0f 5c c1          	subss  %xmm1,%xmm0
    925e:	f3 0f 10 0d 1a 19 01 	movss  0x1191a(%rip),%xmm1        # 1ab80 <g_2228+0x1980>
    9265:	00 
    9266:	0f 54 c1             	andps  %xmm1,%xmm0
    9269:	0f 2f 05 20 19 01 00 	comiss 0x11920(%rip),%xmm0        # 1ab90 <g_2228+0x1990>
    9270:	76 07                	jbe    9279 <safe_sub_func_float_f_f+0x53>
    9272:	f3 0f 10 45 fc       	movss  -0x4(%rbp),%xmm0
    9277:	eb 0a                	jmp    9283 <safe_sub_func_float_f_f+0x5d>
    9279:	f3 0f 10 45 fc       	movss  -0x4(%rbp),%xmm0
    927e:	f3 0f 5c 45 f8       	subss  -0x8(%rbp),%xmm0
    9283:	5d                   	pop    %rbp
    9284:	c3                   	retq   

0000000000009285 <safe_mul_func_float_f_f>:
    9285:	f3 0f 1e fa          	endbr64 
    9289:	55                   	push   %rbp
    928a:	48 89 e5             	mov    %rsp,%rbp
    928d:	f3 0f 11 45 fc       	movss  %xmm0,-0x4(%rbp)
    9292:	f3 0f 11 4d f8       	movss  %xmm1,-0x8(%rbp)
    9297:	f3 0f 10 4d fc       	movss  -0x4(%rbp),%xmm1
    929c:	f3 0f 10 05 f0 18 01 	movss  0x118f0(%rip),%xmm0        # 1ab94 <g_2228+0x1994>
    92a3:	00 
    92a4:	f3 0f 59 c8          	mulss  %xmm0,%xmm1
    92a8:	f3 0f 10 55 f8       	movss  -0x8(%rbp),%xmm2
    92ad:	f3 0f 10 05 e3 18 01 	movss  0x118e3(%rip),%xmm0        # 1ab98 <g_2228+0x1998>
    92b4:	00 
    92b5:	f3 0f 59 c2          	mulss  %xmm2,%xmm0
    92b9:	f3 0f 59 c1          	mulss  %xmm1,%xmm0
    92bd:	f3 0f 10 0d bb 18 01 	movss  0x118bb(%rip),%xmm1        # 1ab80 <g_2228+0x1980>
    92c4:	00 
    92c5:	0f 54 c1             	andps  %xmm1,%xmm0
    92c8:	0f 2f 05 cd 18 01 00 	comiss 0x118cd(%rip),%xmm0        # 1ab9c <g_2228+0x199c>
    92cf:	76 07                	jbe    92d8 <safe_mul_func_float_f_f+0x53>
    92d1:	f3 0f 10 45 fc       	movss  -0x4(%rbp),%xmm0
    92d6:	eb 0a                	jmp    92e2 <safe_mul_func_float_f_f+0x5d>
    92d8:	f3 0f 10 45 fc       	movss  -0x4(%rbp),%xmm0
    92dd:	f3 0f 59 45 f8       	mulss  -0x8(%rbp),%xmm0
    92e2:	5d                   	pop    %rbp
    92e3:	c3                   	retq   

00000000000092e4 <safe_div_func_float_f_f>:
    92e4:	f3 0f 1e fa          	endbr64 
    92e8:	55                   	push   %rbp
    92e9:	48 89 e5             	mov    %rsp,%rbp
    92ec:	f3 0f 11 45 fc       	movss  %xmm0,-0x4(%rbp)
    92f1:	f3 0f 11 4d f8       	movss  %xmm1,-0x8(%rbp)
    92f6:	f3 0f 10 45 f8       	movss  -0x8(%rbp),%xmm0
    92fb:	f3 0f 10 0d 7d 18 01 	movss  0x1187d(%rip),%xmm1        # 1ab80 <g_2228+0x1980>
    9302:	00 
    9303:	0f 54 c8             	andps  %xmm0,%xmm1
    9306:	f3 0f 10 05 92 18 01 	movss  0x11892(%rip),%xmm0        # 1aba0 <g_2228+0x19a0>
    930d:	00 
    930e:	0f 2f c1             	comiss %xmm1,%xmm0
    9311:	0f 97 c0             	seta   %al
    9314:	83 f0 01             	xor    $0x1,%eax
    9317:	84 c0                	test   %al,%al
    9319:	75 56                	jne    9371 <safe_div_func_float_f_f+0x8d>
    931b:	66 0f ef c0          	pxor   %xmm0,%xmm0
    931f:	0f 2e 45 f8          	ucomiss -0x8(%rbp),%xmm0
    9323:	7a 0a                	jp     932f <safe_div_func_float_f_f+0x4b>
    9325:	66 0f ef c0          	pxor   %xmm0,%xmm0
    9329:	0f 2e 45 f8          	ucomiss -0x8(%rbp),%xmm0
    932d:	74 4e                	je     937d <safe_div_func_float_f_f+0x99>
    932f:	f3 0f 10 4d fc       	movss  -0x4(%rbp),%xmm1
    9334:	f3 0f 10 05 68 18 01 	movss  0x11868(%rip),%xmm0        # 1aba4 <g_2228+0x19a4>
    933b:	00 
    933c:	f3 0f 59 c1          	mulss  %xmm1,%xmm0
    9340:	f3 0f 10 55 f8       	movss  -0x8(%rbp),%xmm2
    9345:	f3 0f 10 0d 5b 18 01 	movss  0x1185b(%rip),%xmm1        # 1aba8 <g_2228+0x19a8>
    934c:	00 
    934d:	f3 0f 59 ca          	mulss  %xmm2,%xmm1
    9351:	f3 0f 5e c1          	divss  %xmm1,%xmm0
    9355:	f3 0f 10 0d 23 18 01 	movss  0x11823(%rip),%xmm1        # 1ab80 <g_2228+0x1980>
    935c:	00 
    935d:	0f 54 c1             	andps  %xmm1,%xmm0
    9360:	0f 2f 05 45 18 01 00 	comiss 0x11845(%rip),%xmm0        # 1abac <g_2228+0x19ac>
    9367:	0f 97 c0             	seta   %al
    936a:	83 f0 01             	xor    $0x1,%eax
    936d:	84 c0                	test   %al,%al
    936f:	74 0c                	je     937d <safe_div_func_float_f_f+0x99>
    9371:	f3 0f 10 45 fc       	movss  -0x4(%rbp),%xmm0
    9376:	f3 0f 5e 45 f8       	divss  -0x8(%rbp),%xmm0
    937b:	eb 05                	jmp    9382 <safe_div_func_float_f_f+0x9e>
    937d:	f3 0f 10 45 fc       	movss  -0x4(%rbp),%xmm0
    9382:	5d                   	pop    %rbp
    9383:	c3                   	retq   

0000000000009384 <safe_add_func_double_f_f>:
    9384:	f3 0f 1e fa          	endbr64 
    9388:	55                   	push   %rbp
    9389:	48 89 e5             	mov    %rsp,%rbp
    938c:	f2 0f 11 45 f8       	movsd  %xmm0,-0x8(%rbp)
    9391:	f2 0f 11 4d f0       	movsd  %xmm1,-0x10(%rbp)
    9396:	f2 0f 10 4d f8       	movsd  -0x8(%rbp),%xmm1
    939b:	f2 0f 10 05 0d 18 01 	movsd  0x1180d(%rip),%xmm0        # 1abb0 <g_2228+0x19b0>
    93a2:	00 
    93a3:	f2 0f 59 c8          	mulsd  %xmm0,%xmm1
    93a7:	f2 0f 10 55 f0       	movsd  -0x10(%rbp),%xmm2
    93ac:	f2 0f 10 05 fc 17 01 	movsd  0x117fc(%rip),%xmm0        # 1abb0 <g_2228+0x19b0>
    93b3:	00 
    93b4:	f2 0f 59 c2          	mulsd  %xmm2,%xmm0
    93b8:	f2 0f 58 c1          	addsd  %xmm1,%xmm0
    93bc:	f3 0f 7e 0d fc 17 01 	movq   0x117fc(%rip),%xmm1        # 1abc0 <g_2228+0x19c0>
    93c3:	00 
    93c4:	66 0f 54 c1          	andpd  %xmm1,%xmm0
    93c8:	66 0f 2f 05 00 18 01 	comisd 0x11800(%rip),%xmm0        # 1abd0 <g_2228+0x19d0>
    93cf:	00 
    93d0:	76 07                	jbe    93d9 <safe_add_func_double_f_f+0x55>
    93d2:	f2 0f 10 45 f8       	movsd  -0x8(%rbp),%xmm0
    93d7:	eb 0a                	jmp    93e3 <safe_add_func_double_f_f+0x5f>
    93d9:	f2 0f 10 45 f8       	movsd  -0x8(%rbp),%xmm0
    93de:	f2 0f 58 45 f0       	addsd  -0x10(%rbp),%xmm0
    93e3:	5d                   	pop    %rbp
    93e4:	c3                   	retq   

00000000000093e5 <safe_sub_func_double_f_f>:
    93e5:	f3 0f 1e fa          	endbr64 
    93e9:	55                   	push   %rbp
    93ea:	48 89 e5             	mov    %rsp,%rbp
    93ed:	f2 0f 11 45 f8       	movsd  %xmm0,-0x8(%rbp)
    93f2:	f2 0f 11 4d f0       	movsd  %xmm1,-0x10(%rbp)
    93f7:	f2 0f 10 4d f8       	movsd  -0x8(%rbp),%xmm1
    93fc:	f2 0f 10 05 ac 17 01 	movsd  0x117ac(%rip),%xmm0        # 1abb0 <g_2228+0x19b0>
    9403:	00 
    9404:	f2 0f 59 c1          	mulsd  %xmm1,%xmm0
    9408:	f2 0f 10 55 f0       	movsd  -0x10(%rbp),%xmm2
    940d:	f2 0f 10 0d 9b 17 01 	movsd  0x1179b(%rip),%xmm1        # 1abb0 <g_2228+0x19b0>
    9414:	00 
    9415:	f2 0f 59 ca          	mulsd  %xmm2,%xmm1
    9419:	f2 0f 5c c1          	subsd  %xmm1,%xmm0
    941d:	f3 0f 7e 0d 9b 17 01 	movq   0x1179b(%rip),%xmm1        # 1abc0 <g_2228+0x19c0>
    9424:	00 
    9425:	66 0f 54 c1          	andpd  %xmm1,%xmm0
    9429:	66 0f 2f 05 9f 17 01 	comisd 0x1179f(%rip),%xmm0        # 1abd0 <g_2228+0x19d0>
    9430:	00 
    9431:	76 07                	jbe    943a <safe_sub_func_double_f_f+0x55>
    9433:	f2 0f 10 45 f8       	movsd  -0x8(%rbp),%xmm0
    9438:	eb 0a                	jmp    9444 <safe_sub_func_double_f_f+0x5f>
    943a:	f2 0f 10 45 f8       	movsd  -0x8(%rbp),%xmm0
    943f:	f2 0f 5c 45 f0       	subsd  -0x10(%rbp),%xmm0
    9444:	5d                   	pop    %rbp
    9445:	c3                   	retq   

0000000000009446 <safe_mul_func_double_f_f>:
    9446:	f3 0f 1e fa          	endbr64 
    944a:	55                   	push   %rbp
    944b:	48 89 e5             	mov    %rsp,%rbp
    944e:	f2 0f 11 45 f8       	movsd  %xmm0,-0x8(%rbp)
    9453:	f2 0f 11 4d f0       	movsd  %xmm1,-0x10(%rbp)
    9458:	f2 0f 10 4d f8       	movsd  -0x8(%rbp),%xmm1
    945d:	f2 0f 10 05 73 17 01 	movsd  0x11773(%rip),%xmm0        # 1abd8 <g_2228+0x19d8>
    9464:	00 
    9465:	f2 0f 59 c8          	mulsd  %xmm0,%xmm1
    9469:	f2 0f 10 55 f0       	movsd  -0x10(%rbp),%xmm2
    946e:	f2 0f 10 05 6a 17 01 	movsd  0x1176a(%rip),%xmm0        # 1abe0 <g_2228+0x19e0>
    9475:	00 
    9476:	f2 0f 59 c2          	mulsd  %xmm2,%xmm0
    947a:	f2 0f 59 c1          	mulsd  %xmm1,%xmm0
    947e:	f3 0f 7e 0d 3a 17 01 	movq   0x1173a(%rip),%xmm1        # 1abc0 <g_2228+0x19c0>
    9485:	00 
    9486:	66 0f 54 c1          	andpd  %xmm1,%xmm0
    948a:	66 0f 2f 05 56 17 01 	comisd 0x11756(%rip),%xmm0        # 1abe8 <g_2228+0x19e8>
    9491:	00 
    9492:	76 07                	jbe    949b <safe_mul_func_double_f_f+0x55>
    9494:	f2 0f 10 45 f8       	movsd  -0x8(%rbp),%xmm0
    9499:	eb 0a                	jmp    94a5 <safe_mul_func_double_f_f+0x5f>
    949b:	f2 0f 10 45 f8       	movsd  -0x8(%rbp),%xmm0
    94a0:	f2 0f 59 45 f0       	mulsd  -0x10(%rbp),%xmm0
    94a5:	5d                   	pop    %rbp
    94a6:	c3                   	retq   

00000000000094a7 <safe_div_func_double_f_f>:
    94a7:	f3 0f 1e fa          	endbr64 
    94ab:	55                   	push   %rbp
    94ac:	48 89 e5             	mov    %rsp,%rbp
    94af:	f2 0f 11 45 f8       	movsd  %xmm0,-0x8(%rbp)
    94b4:	f2 0f 11 4d f0       	movsd  %xmm1,-0x10(%rbp)
    94b9:	f2 0f 10 45 f0       	movsd  -0x10(%rbp),%xmm0
    94be:	f3 0f 7e 0d fa 16 01 	movq   0x116fa(%rip),%xmm1        # 1abc0 <g_2228+0x19c0>
    94c5:	00 
    94c6:	66 0f 54 c8          	andpd  %xmm0,%xmm1
    94ca:	f2 0f 10 05 1e 17 01 	movsd  0x1171e(%rip),%xmm0        # 1abf0 <g_2228+0x19f0>
    94d1:	00 
    94d2:	66 0f 2f c1          	comisd %xmm1,%xmm0
    94d6:	0f 97 c0             	seta   %al
    94d9:	83 f0 01             	xor    $0x1,%eax
    94dc:	84 c0                	test   %al,%al
    94de:	75 5a                	jne    953a <safe_div_func_double_f_f+0x93>
    94e0:	66 0f ef c0          	pxor   %xmm0,%xmm0
    94e4:	66 0f 2e 45 f0       	ucomisd -0x10(%rbp),%xmm0
    94e9:	7a 0b                	jp     94f6 <safe_div_func_double_f_f+0x4f>
    94eb:	66 0f ef c0          	pxor   %xmm0,%xmm0
    94ef:	66 0f 2e 45 f0       	ucomisd -0x10(%rbp),%xmm0
    94f4:	74 50                	je     9546 <safe_div_func_double_f_f+0x9f>
    94f6:	f2 0f 10 4d f8       	movsd  -0x8(%rbp),%xmm1
    94fb:	f2 0f 10 05 f5 16 01 	movsd  0x116f5(%rip),%xmm0        # 1abf8 <g_2228+0x19f8>
    9502:	00 
    9503:	f2 0f 59 c1          	mulsd  %xmm1,%xmm0
    9507:	f2 0f 10 55 f0       	movsd  -0x10(%rbp),%xmm2
    950c:	f2 0f 10 0d ec 16 01 	movsd  0x116ec(%rip),%xmm1        # 1ac00 <g_2228+0x1a00>
    9513:	00 
    9514:	f2 0f 59 ca          	mulsd  %xmm2,%xmm1
    9518:	f2 0f 5e c1          	divsd  %xmm1,%xmm0
    951c:	f3 0f 7e 0d 9c 16 01 	movq   0x1169c(%rip),%xmm1        # 1abc0 <g_2228+0x19c0>
    9523:	00 
    9524:	66 0f 54 c1          	andpd  %xmm1,%xmm0
    9528:	66 0f 2f 05 d8 16 01 	comisd 0x116d8(%rip),%xmm0        # 1ac08 <g_2228+0x1a08>
    952f:	00 
    9530:	0f 97 c0             	seta   %al
    9533:	83 f0 01             	xor    $0x1,%eax
    9536:	84 c0                	test   %al,%al
    9538:	74 0c                	je     9546 <safe_div_func_double_f_f+0x9f>
    953a:	f2 0f 10 45 f8       	movsd  -0x8(%rbp),%xmm0
    953f:	f2 0f 5e 45 f0       	divsd  -0x10(%rbp),%xmm0
    9544:	eb 05                	jmp    954b <safe_div_func_double_f_f+0xa4>
    9546:	f2 0f 10 45 f8       	movsd  -0x8(%rbp),%xmm0
    954b:	5d                   	pop    %rbp
    954c:	c3                   	retq   

000000000000954d <safe_convert_func_float_to_int32_t>:
    954d:	f3 0f 1e fa          	endbr64 
    9551:	55                   	push   %rbp
    9552:	48 89 e5             	mov    %rsp,%rbp
    9555:	f3 0f 11 45 fc       	movss  %xmm0,-0x4(%rbp)
    955a:	f3 0f 10 05 ae 16 01 	movss  0x116ae(%rip),%xmm0        # 1ac10 <g_2228+0x1a10>
    9561:	00 
    9562:	0f 2f 45 fc          	comiss -0x4(%rbp),%xmm0
    9566:	0f 93 c0             	setae  %al
    9569:	83 f0 01             	xor    $0x1,%eax
    956c:	84 c0                	test   %al,%al
    956e:	74 21                	je     9591 <safe_convert_func_float_to_int32_t+0x44>
    9570:	f3 0f 10 45 fc       	movss  -0x4(%rbp),%xmm0
    9575:	0f 2f 05 98 16 01 00 	comiss 0x11698(%rip),%xmm0        # 1ac14 <g_2228+0x1a14>
    957c:	0f 93 c0             	setae  %al
    957f:	83 f0 01             	xor    $0x1,%eax
    9582:	84 c0                	test   %al,%al
    9584:	74 0b                	je     9591 <safe_convert_func_float_to_int32_t+0x44>
    9586:	f3 0f 10 45 fc       	movss  -0x4(%rbp),%xmm0
    958b:	f3 0f 2c c0          	cvttss2si %xmm0,%eax
    958f:	eb 05                	jmp    9596 <safe_convert_func_float_to_int32_t+0x49>
    9591:	b8 ff ff ff 7f       	mov    $0x7fffffff,%eax
    9596:	5d                   	pop    %rbp
    9597:	c3                   	retq   

0000000000009598 <crc32_gentab>:
    9598:	f3 0f 1e fa          	endbr64 
    959c:	55                   	push   %rbp
    959d:	48 89 e5             	mov    %rsp,%rbp
    95a0:	c7 45 fc 20 83 b8 ed 	movl   $0xedb88320,-0x4(%rbp)
    95a7:	c7 45 f4 00 00 00 00 	movl   $0x0,-0xc(%rbp)
    95ae:	eb 51                	jmp    9601 <crc32_gentab+0x69>
    95b0:	8b 45 f4             	mov    -0xc(%rbp),%eax
    95b3:	89 45 f0             	mov    %eax,-0x10(%rbp)
    95b6:	c7 45 f8 08 00 00 00 	movl   $0x8,-0x8(%rbp)
    95bd:	eb 1e                	jmp    95dd <crc32_gentab+0x45>
    95bf:	8b 45 f0             	mov    -0x10(%rbp),%eax
    95c2:	83 e0 01             	and    $0x1,%eax
    95c5:	85 c0                	test   %eax,%eax
    95c7:	74 0d                	je     95d6 <crc32_gentab+0x3e>
    95c9:	8b 45 f0             	mov    -0x10(%rbp),%eax
    95cc:	d1 e8                	shr    %eax
    95ce:	33 45 fc             	xor    -0x4(%rbp),%eax
    95d1:	89 45 f0             	mov    %eax,-0x10(%rbp)
    95d4:	eb 03                	jmp    95d9 <crc32_gentab+0x41>
    95d6:	d1 6d f0             	shrl   -0x10(%rbp)
    95d9:	83 6d f8 01          	subl   $0x1,-0x8(%rbp)
    95dd:	83 7d f8 00          	cmpl   $0x0,-0x8(%rbp)
    95e1:	7f dc                	jg     95bf <crc32_gentab+0x27>
    95e3:	8b 45 f4             	mov    -0xc(%rbp),%eax
    95e6:	48 98                	cltq   
    95e8:	48 8d 0c 85 00 00 00 	lea    0x0(,%rax,4),%rcx
    95ef:	00 
    95f0:	48 8d 15 09 8b 01 00 	lea    0x18b09(%rip),%rdx        # 22100 <crc32_tab>
    95f7:	8b 45 f0             	mov    -0x10(%rbp),%eax
    95fa:	89 04 11             	mov    %eax,(%rcx,%rdx,1)
    95fd:	83 45 f4 01          	addl   $0x1,-0xc(%rbp)
    9601:	81 7d f4 ff 00 00 00 	cmpl   $0xff,-0xc(%rbp)
    9608:	7e a6                	jle    95b0 <crc32_gentab+0x18>
    960a:	90                   	nop
    960b:	90                   	nop
    960c:	5d                   	pop    %rbp
    960d:	c3                   	retq   

000000000000960e <crc32_byte>:
    960e:	f3 0f 1e fa          	endbr64 
    9612:	55                   	push   %rbp
    9613:	48 89 e5             	mov    %rsp,%rbp
    9616:	89 f8                	mov    %edi,%eax
    9618:	88 45 fc             	mov    %al,-0x4(%rbp)
    961b:	8b 05 ff 49 01 00    	mov    0x149ff(%rip),%eax        # 1e020 <crc32_context>
    9621:	c1 e8 08             	shr    $0x8,%eax
    9624:	89 c1                	mov    %eax,%ecx
    9626:	0f b6 55 fc          	movzbl -0x4(%rbp),%edx
    962a:	8b 05 f0 49 01 00    	mov    0x149f0(%rip),%eax        # 1e020 <crc32_context>
    9630:	31 d0                	xor    %edx,%eax
    9632:	0f b6 c0             	movzbl %al,%eax
    9635:	89 c0                	mov    %eax,%eax
    9637:	48 8d 14 85 00 00 00 	lea    0x0(,%rax,4),%rdx
    963e:	00 
    963f:	48 8d 05 ba 8a 01 00 	lea    0x18aba(%rip),%rax        # 22100 <crc32_tab>
    9646:	8b 04 02             	mov    (%rdx,%rax,1),%eax
    9649:	31 c8                	xor    %ecx,%eax
    964b:	89 05 cf 49 01 00    	mov    %eax,0x149cf(%rip)        # 1e020 <crc32_context>
    9651:	90                   	nop
    9652:	5d                   	pop    %rbp
    9653:	c3                   	retq   

0000000000009654 <crc32_8bytes>:
    9654:	f3 0f 1e fa          	endbr64 
    9658:	55                   	push   %rbp
    9659:	48 89 e5             	mov    %rsp,%rbp
    965c:	48 83 ec 08          	sub    $0x8,%rsp
    9660:	48 89 7d f8          	mov    %rdi,-0x8(%rbp)
    9664:	48 8b 45 f8          	mov    -0x8(%rbp),%rax
    9668:	0f b6 c0             	movzbl %al,%eax
    966b:	89 c7                	mov    %eax,%edi
    966d:	e8 9c ff ff ff       	callq  960e <crc32_byte>
    9672:	48 8b 45 f8          	mov    -0x8(%rbp),%rax
    9676:	48 c1 e8 08          	shr    $0x8,%rax
    967a:	0f b6 c0             	movzbl %al,%eax
    967d:	89 c7                	mov    %eax,%edi
    967f:	e8 8a ff ff ff       	callq  960e <crc32_byte>
    9684:	48 8b 45 f8          	mov    -0x8(%rbp),%rax
    9688:	48 c1 e8 10          	shr    $0x10,%rax
    968c:	0f b6 c0             	movzbl %al,%eax
    968f:	89 c7                	mov    %eax,%edi
    9691:	e8 78 ff ff ff       	callq  960e <crc32_byte>
    9696:	48 8b 45 f8          	mov    -0x8(%rbp),%rax
    969a:	48 c1 e8 18          	shr    $0x18,%rax
    969e:	0f b6 c0             	movzbl %al,%eax
    96a1:	89 c7                	mov    %eax,%edi
    96a3:	e8 66 ff ff ff       	callq  960e <crc32_byte>
    96a8:	48 8b 45 f8          	mov    -0x8(%rbp),%rax
    96ac:	48 c1 e8 20          	shr    $0x20,%rax
    96b0:	0f b6 c0             	movzbl %al,%eax
    96b3:	89 c7                	mov    %eax,%edi
    96b5:	e8 54 ff ff ff       	callq  960e <crc32_byte>
    96ba:	48 8b 45 f8          	mov    -0x8(%rbp),%rax
    96be:	48 c1 e8 28          	shr    $0x28,%rax
    96c2:	0f b6 c0             	movzbl %al,%eax
    96c5:	89 c7                	mov    %eax,%edi
    96c7:	e8 42 ff ff ff       	callq  960e <crc32_byte>
    96cc:	48 8b 45 f8          	mov    -0x8(%rbp),%rax
    96d0:	48 c1 e8 30          	shr    $0x30,%rax
    96d4:	0f b6 c0             	movzbl %al,%eax
    96d7:	89 c7                	mov    %eax,%edi
    96d9:	e8 30 ff ff ff       	callq  960e <crc32_byte>
    96de:	48 8b 45 f8          	mov    -0x8(%rbp),%rax
    96e2:	48 c1 e8 38          	shr    $0x38,%rax
    96e6:	0f b6 c0             	movzbl %al,%eax
    96e9:	89 c7                	mov    %eax,%edi
    96eb:	e8 1e ff ff ff       	callq  960e <crc32_byte>
    96f0:	90                   	nop
    96f1:	c9                   	leaveq 
    96f2:	c3                   	retq   

00000000000096f3 <transparent_crc>:
    96f3:	f3 0f 1e fa          	endbr64 
    96f7:	55                   	push   %rbp
    96f8:	48 89 e5             	mov    %rsp,%rbp
    96fb:	48 83 ec 20          	sub    $0x20,%rsp
    96ff:	48 89 7d f8          	mov    %rdi,-0x8(%rbp)
    9703:	48 89 75 f0          	mov    %rsi,-0x10(%rbp)
    9707:	89 55 ec             	mov    %edx,-0x14(%rbp)
    970a:	48 8b 45 f8          	mov    -0x8(%rbp),%rax
    970e:	48 89 c7             	mov    %rax,%rdi
    9711:	e8 3e ff ff ff       	callq  9654 <crc32_8bytes>
    9716:	83 7d ec 00          	cmpl   $0x0,-0x14(%rbp)
    971a:	74 22                	je     973e <transparent_crc+0x4b>
    971c:	8b 05 fe 48 01 00    	mov    0x148fe(%rip),%eax        # 1e020 <crc32_context>
    9722:	f7 d0                	not    %eax
    9724:	89 c2                	mov    %eax,%edx
    9726:	48 8b 45 f0          	mov    -0x10(%rbp),%rax
    972a:	48 89 c6             	mov    %rax,%rsi
    972d:	48 8d 3d fc f8 00 00 	lea    0xf8fc(%rip),%rdi        # 19030 <_IO_stdin_used+0x30>
    9734:	b8 00 00 00 00       	mov    $0x0,%eax
    9739:	e8 42 e9 ff ff       	callq  8080 <printf@plt>
    973e:	90                   	nop
    973f:	c9                   	leaveq 
    9740:	c3                   	retq   

0000000000009741 <transparent_crc_bytes>:
    9741:	f3 0f 1e fa          	endbr64 
    9745:	55                   	push   %rbp
    9746:	48 89 e5             	mov    %rsp,%rbp
    9749:	48 83 ec 30          	sub    $0x30,%rsp
    974d:	48 89 7d e8          	mov    %rdi,-0x18(%rbp)
    9751:	89 75 e4             	mov    %esi,-0x1c(%rbp)
    9754:	48 89 55 d8          	mov    %rdx,-0x28(%rbp)
    9758:	89 4d e0             	mov    %ecx,-0x20(%rbp)
    975b:	c7 45 fc 00 00 00 00 	movl   $0x0,-0x4(%rbp)
    9762:	eb 1e                	jmp    9782 <transparent_crc_bytes+0x41>
    9764:	8b 45 fc             	mov    -0x4(%rbp),%eax
    9767:	48 63 d0             	movslq %eax,%rdx
    976a:	48 8b 45 e8          	mov    -0x18(%rbp),%rax
    976e:	48 01 d0             	add    %rdx,%rax
    9771:	0f b6 00             	movzbl (%rax),%eax
    9774:	0f b6 c0             	movzbl %al,%eax
    9777:	89 c7                	mov    %eax,%edi
    9779:	e8 90 fe ff ff       	callq  960e <crc32_byte>
    977e:	83 45 fc 01          	addl   $0x1,-0x4(%rbp)
    9782:	8b 45 fc             	mov    -0x4(%rbp),%eax
    9785:	3b 45 e4             	cmp    -0x1c(%rbp),%eax
    9788:	7c da                	jl     9764 <transparent_crc_bytes+0x23>
    978a:	83 7d e0 00          	cmpl   $0x0,-0x20(%rbp)
    978e:	74 22                	je     97b2 <transparent_crc_bytes+0x71>
    9790:	8b 05 8a 48 01 00    	mov    0x1488a(%rip),%eax        # 1e020 <crc32_context>
    9796:	f7 d0                	not    %eax
    9798:	89 c2                	mov    %eax,%edx
    979a:	48 8b 45 d8          	mov    -0x28(%rbp),%rax
    979e:	48 89 c6             	mov    %rax,%rsi
    97a1:	48 8d 3d 88 f8 00 00 	lea    0xf888(%rip),%rdi        # 19030 <_IO_stdin_used+0x30>
    97a8:	b8 00 00 00 00       	mov    $0x0,%eax
    97ad:	e8 ce e8 ff ff       	callq  8080 <printf@plt>
    97b2:	90                   	nop
    97b3:	c9                   	leaveq 
    97b4:	c3                   	retq   

00000000000097b5 <func_1>:
    97b5:	f3 0f 1e fa          	endbr64 
    97b9:	55                   	push   %rbp
    97ba:	48 89 e5             	mov    %rsp,%rbp
    97bd:	41 57                	push   %r15
    97bf:	41 56                	push   %r14
    97c1:	41 55                	push   %r13
    97c3:	41 54                	push   %r12
    97c5:	53                   	push   %rbx
    97c6:	48 81 ec 48 07 00 00 	sub    $0x748,%rsp
    97cd:	64 48 8b 04 25 28 00 	mov    %fs:0x28,%rax
    97d4:	00 00 
    97d6:	48 89 45 c8          	mov    %rax,-0x38(%rbp)
    97da:	31 c0                	xor    %eax,%eax
    97dc:	48 c7 85 08 f9 ff ff 	movq   $0x0,-0x6f8(%rbp)
    97e3:	00 00 00 00 
    97e7:	48 8d 05 53 48 01 00 	lea    0x14853(%rip),%rax        # 1e041 <g_5+0x1>
    97ee:	48 89 85 10 f9 ff ff 	mov    %rax,-0x6f0(%rbp)
    97f5:	48 8d 05 8c 4a 01 00 	lea    0x14a8c(%rip),%rax        # 1e288 <g_1347>
    97fc:	48 89 85 18 f9 ff ff 	mov    %rax,-0x6e8(%rbp)
    9803:	c7 85 00 fa ff ff fc 	movl   $0xfffffffc,-0x600(%rbp)
    980a:	ff ff ff 
    980d:	c7 85 04 fa ff ff 00 	movl   $0x0,-0x5fc(%rbp)
    9814:	00 00 00 
    9817:	c7 85 08 fa ff ff cb 	movl   $0x6ceb6acb,-0x5f8(%rbp)
    981e:	6a eb 6c 
    9821:	c7 85 0c fa ff ff 00 	movl   $0x0,-0x5f4(%rbp)
    9828:	00 00 00 
    982b:	c7 85 10 fa ff ff fc 	movl   $0xfffffffc,-0x5f0(%rbp)
    9832:	ff ff ff 
    9835:	c7 85 14 fa ff ff fc 	movl   $0xfffffffc,-0x5ec(%rbp)
    983c:	ff ff ff 
    983f:	c7 85 18 fa ff ff 03 	movl   $0x3,-0x5e8(%rbp)
    9846:	00 00 00 
    9849:	c7 85 1c fa ff ff 00 	movl   $0x0,-0x5e4(%rbp)
    9850:	00 00 00 
    9853:	c7 85 20 fa ff ff 00 	movl   $0x0,-0x5e0(%rbp)
    985a:	00 00 00 
    985d:	c7 85 24 fa ff ff 03 	movl   $0x3,-0x5dc(%rbp)
    9864:	00 00 00 
    9867:	c7 85 28 fa ff ff c5 	movl   $0xe14663c5,-0x5d8(%rbp)
    986e:	63 46 e1 
    9871:	c7 85 2c fa ff ff 03 	movl   $0x3,-0x5d4(%rbp)
    9878:	00 00 00 
    987b:	48 c7 85 30 fa ff ff 	movq   $0x0,-0x5d0(%rbp)
    9882:	00 00 00 00 
    9886:	48 b8 c8 29 9e 16 34 	movabs $0xd0a79234169e29c8,%rax
    988d:	92 a7 d0 
    9890:	48 89 85 38 fa ff ff 	mov    %rax,-0x5c8(%rbp)
    9897:	48 c7 85 40 fa ff ff 	movq   $0x0,-0x5c0(%rbp)
    989e:	00 00 00 00 
    98a2:	48 c7 85 48 fa ff ff 	movq   $0x0,-0x5b8(%rbp)
    98a9:	00 00 00 00 
    98ad:	48 89 85 50 fa ff ff 	mov    %rax,-0x5b0(%rbp)
    98b4:	48 c7 85 58 fa ff ff 	movq   $0x0,-0x5a8(%rbp)
    98bb:	00 00 00 00 
    98bf:	48 c7 85 60 fa ff ff 	movq   $0x0,-0x5a0(%rbp)
    98c6:	00 00 00 00 
    98ca:	c7 85 b0 f8 ff ff 00 	movl   $0x0,-0x750(%rbp)
    98d1:	00 00 00 
    98d4:	eb 1a                	jmp    98f0 <func_1+0x13b>
    98d6:	8b 85 b0 f8 ff ff    	mov    -0x750(%rbp),%eax
    98dc:	48 98                	cltq   
    98de:	c7 84 85 c0 f9 ff ff 	movl   $0xe7062c7d,-0x640(%rbp,%rax,4)
    98e5:	7d 2c 06 e7 
    98e9:	83 85 b0 f8 ff ff 01 	addl   $0x1,-0x750(%rbp)
    98f0:	83 bd b0 f8 ff ff 06 	cmpl   $0x6,-0x750(%rbp)
    98f7:	7e dd                	jle    98d6 <func_1+0x121>
    98f9:	c7 05 21 47 01 00 00 	movl   $0x0,0x14721(%rip)        # 1e024 <g_2>
    9900:	00 00 00 
    9903:	90                   	nop
    9904:	8b 05 1a 47 01 00    	mov    0x1471a(%rip),%eax        # 1e024 <g_2>
    990a:	83 f8 01             	cmp    $0x1,%eax
    990d:	0f 8f 01 07 00 00    	jg     a014 <func_1+0x85f>
    9913:	48 b8 fe fe fe fe fe 	movabs $0xfefefefefefefefe,%rax
    991a:	fe fe fe 
    991d:	48 89 45 c0          	mov    %rax,-0x40(%rbp)
    9921:	c7 85 b8 f8 ff ff 05 	movl   $0x5,-0x748(%rbp)
    9928:	00 00 00 
    992b:	48 c7 85 e0 f9 ff ff 	movq   $0xffffffffffffffff,-0x620(%rbp)
    9932:	ff ff ff ff 
    9936:	48 c7 85 e8 f9 ff ff 	movq   $0xffffffffffffffff,-0x618(%rbp)
    993d:	ff ff ff ff 
    9941:	48 c7 85 f0 f9 ff ff 	movq   $0xffffffffffffffff,-0x610(%rbp)
    9948:	ff ff ff ff 
    994c:	48 c7 85 f8 f9 ff ff 	movq   $0xffffffffffffffff,-0x608(%rbp)
    9953:	ff ff ff ff 
    9957:	c7 85 b4 f8 ff ff 00 	movl   $0x0,-0x74c(%rbp)
    995e:	00 00 00 
    9961:	eb 1a                	jmp    997d <func_1+0x1c8>
    9963:	8b 85 b4 f8 ff ff    	mov    -0x74c(%rbp),%eax
    9969:	48 98                	cltq   
    996b:	c7 84 85 a8 f9 ff ff 	movl   $0x1,-0x658(%rbp,%rax,4)
    9972:	01 00 00 00 
    9976:	83 85 b4 f8 ff ff 01 	addl   $0x1,-0x74c(%rbp)
    997d:	83 bd b4 f8 ff ff 01 	cmpl   $0x1,-0x74c(%rbp)
    9984:	7e dd                	jle    9963 <func_1+0x1ae>
    9986:	c7 05 e8 46 01 00 01 	movl   $0x1,0x146e8(%rip)        # 1e078 <g_6>
    998d:	00 00 00 
    9990:	e9 69 06 00 00       	jmpq   9ffe <func_1+0x849>
    9995:	48 8d 05 dc 46 01 00 	lea    0x146dc(%rip),%rax        # 1e078 <g_6>
    999c:	48 89 85 d8 f8 ff ff 	mov    %rax,-0x728(%rbp)
    99a3:	48 8d 85 d8 f8 ff ff 	lea    -0x728(%rbp),%rax
    99aa:	48 89 85 20 f9 ff ff 	mov    %rax,-0x6e0(%rbp)
    99b1:	48 8d 05 28 85 01 00 	lea    0x18528(%rip),%rax        # 21ee0 <g_2018>
    99b8:	48 89 85 e0 f8 ff ff 	mov    %rax,-0x720(%rbp)
    99bf:	c7 85 98 f8 ff ff 71 	movl   $0xb70a1471,-0x768(%rbp)
    99c6:	14 0a b7 
    99c9:	c7 85 bc f8 ff ff 01 	movl   $0x1,-0x744(%rbp)
    99d0:	00 00 00 
    99d3:	c7 85 c0 f8 ff ff 00 	movl   $0x0,-0x740(%rbp)
    99da:	00 00 00 
    99dd:	c7 85 c4 f8 ff ff f8 	movl   $0x4e4e49f8,-0x73c(%rbp)
    99e4:	49 4e 4e 
    99e7:	48 c7 85 e8 f8 ff ff 	movq   $0x0,-0x718(%rbp)
    99ee:	00 00 00 00 
    99f2:	48 8d 85 70 fa ff ff 	lea    -0x590(%rbp),%rax
    99f9:	48 83 c0 30          	add    $0x30,%rax
    99fd:	48 89 85 f0 f8 ff ff 	mov    %rax,-0x710(%rbp)
    9a04:	48 8d 85 f0 f8 ff ff 	lea    -0x710(%rbp),%rax
    9a0b:	48 89 85 28 f9 ff ff 	mov    %rax,-0x6d8(%rbp)
    9a12:	c7 85 9c f8 ff ff 00 	movl   $0x0,-0x764(%rbp)
    9a19:	00 00 00 
    9a1c:	eb 1e                	jmp    9a3c <func_1+0x287>
    9a1e:	8b 85 9c f8 ff ff    	mov    -0x764(%rbp),%eax
    9a24:	48 98                	cltq   
    9a26:	48 8d 95 e0 f8 ff ff 	lea    -0x720(%rbp),%rdx
    9a2d:	48 89 94 c5 b0 f9 ff 	mov    %rdx,-0x650(%rbp,%rax,8)
    9a34:	ff 
    9a35:	83 85 9c f8 ff ff 01 	addl   $0x1,-0x764(%rbp)
    9a3c:	83 bd 9c f8 ff ff 01 	cmpl   $0x1,-0x764(%rbp)
    9a43:	7e d9                	jle    9a1e <func_1+0x269>
    9a45:	c7 85 9c f8 ff ff 00 	movl   $0x0,-0x764(%rbp)
    9a4c:	00 00 00 
    9a4f:	eb 1e                	jmp    9a6f <func_1+0x2ba>
    9a51:	8b 85 9c f8 ff ff    	mov    -0x764(%rbp),%eax
    9a57:	48 98                	cltq   
    9a59:	48 8d 95 e8 f8 ff ff 	lea    -0x718(%rbp),%rdx
    9a60:	48 89 94 c5 70 fa ff 	mov    %rdx,-0x590(%rbp,%rax,8)
    9a67:	ff 
    9a68:	83 85 9c f8 ff ff 01 	addl   $0x1,-0x764(%rbp)
    9a6f:	83 bd 9c f8 ff ff 06 	cmpl   $0x6,-0x764(%rbp)
    9a76:	7e d9                	jle    9a51 <func_1+0x29c>
    9a78:	48 8b 85 20 f9 ff ff 	mov    -0x6e0(%rbp),%rax
    9a7f:	48 8d 15 f2 45 01 00 	lea    0x145f2(%rip),%rdx        # 1e078 <g_6>
    9a86:	48 89 10             	mov    %rdx,(%rax)
    9a89:	c7 05 79 8a 01 00 00 	movl   $0x0,0x18a79(%rip)        # 2250c <g_11>
    9a90:	00 00 00 
    9a93:	e9 4a 02 00 00       	jmpq   9ce2 <func_1+0x52d>
    9a98:	48 8d 05 e1 98 01 00 	lea    0x198e1(%rip),%rax        # 23380 <g_362>
    9a9f:	48 89 85 50 f9 ff ff 	mov    %rax,-0x6b0(%rbp)
    9aa6:	c7 85 d0 f8 ff ff 68 	movl   $0x8044ab68,-0x730(%rbp)
    9aad:	ab 44 80 
    9ab0:	48 b8 df 37 bc c0 53 	movabs $0x7c489753c0bc37df,%rax
    9ab7:	97 48 7c 
    9aba:	48 89 85 58 f9 ff ff 	mov    %rax,-0x6a8(%rbp)
    9ac1:	8b 05 45 8a 01 00    	mov    0x18a45(%rip),%eax        # 2250c <g_11>
    9ac7:	8d 50 01             	lea    0x1(%rax),%edx
    9aca:	8b 05 a8 45 01 00    	mov    0x145a8(%rip),%eax        # 1e078 <g_6>
    9ad0:	8d 70 01             	lea    0x1(%rax),%esi
    9ad3:	8b 05 9f 45 01 00    	mov    0x1459f(%rip),%eax        # 1e078 <g_6>
    9ad9:	48 63 c8             	movslq %eax,%rcx
    9adc:	48 63 d2             	movslq %edx,%rdx
    9adf:	48 63 f6             	movslq %esi,%rsi
    9ae2:	48 89 d0             	mov    %rdx,%rax
    9ae5:	48 c1 e0 03          	shl    $0x3,%rax
    9ae9:	48 29 d0             	sub    %rdx,%rax
    9aec:	48 01 f0             	add    %rsi,%rax
    9aef:	48 01 c0             	add    %rax,%rax
    9af2:	48 8d 14 08          	lea    (%rax,%rcx,1),%rdx
    9af6:	48 8d 05 43 45 01 00 	lea    0x14543(%rip),%rax        # 1e040 <g_5>
    9afd:	48 01 d0             	add    %rdx,%rax
    9b00:	0f b6 00             	movzbl (%rax),%eax
    9b03:	0f be c0             	movsbl %al,%eax
    9b06:	be b8 b7 32 4f       	mov    $0x4f32b7b8,%esi
    9b0b:	89 c7                	mov    %eax,%edi
    9b0d:	e8 ba eb ff ff       	callq  86cc <safe_mod_func_int32_t_s_s>
    9b12:	85 c0                	test   %eax,%eax
    9b14:	0f 84 f2 00 00 00    	je     9c0c <func_1+0x457>
    9b1a:	c6 85 95 f8 ff ff 01 	movb   $0x1,-0x76b(%rbp)
    9b21:	c7 85 a0 f8 ff ff 00 	movl   $0x0,-0x760(%rbp)
    9b28:	00 00 00 
    9b2b:	eb 4b                	jmp    9b78 <func_1+0x3c3>
    9b2d:	c7 85 a4 f8 ff ff 00 	movl   $0x0,-0x75c(%rbp)
    9b34:	00 00 00 
    9b37:	eb 2f                	jmp    9b68 <func_1+0x3b3>
    9b39:	8b 85 a4 f8 ff ff    	mov    -0x75c(%rbp),%eax
    9b3f:	48 63 c8             	movslq %eax,%rcx
    9b42:	8b 85 a0 f8 ff ff    	mov    -0x760(%rbp),%eax
    9b48:	48 63 d0             	movslq %eax,%rdx
    9b4b:	48 89 d0             	mov    %rdx,%rax
    9b4e:	48 01 c0             	add    %rax,%rax
    9b51:	48 01 d0             	add    %rdx,%rax
    9b54:	48 01 c8             	add    %rcx,%rax
    9b57:	66 c7 84 45 b0 fa ff 	movw   $0x6885,-0x550(%rbp,%rax,2)
    9b5e:	ff 85 68 
    9b61:	83 85 a4 f8 ff ff 01 	addl   $0x1,-0x75c(%rbp)
    9b68:	83 bd a4 f8 ff ff 02 	cmpl   $0x2,-0x75c(%rbp)
    9b6f:	7e c8                	jle    9b39 <func_1+0x384>
    9b71:	83 85 a0 f8 ff ff 01 	addl   $0x1,-0x760(%rbp)
    9b78:	83 bd a0 f8 ff ff 00 	cmpl   $0x0,-0x760(%rbp)
    9b7f:	7e ac                	jle    9b2d <func_1+0x378>
    9b81:	c7 05 f5 44 01 00 00 	movl   $0x0,0x144f5(%rip)        # 1e080 <g_14>
    9b88:	00 00 00 
    9b8b:	eb 6f                	jmp    9bfc <func_1+0x447>
    9b8d:	48 b8 dc ca c9 44 c4 	movabs $0x58a13c444c9cadc,%rax
    9b94:	13 8a 05 
    9b97:	48 89 85 00 f9 ff ff 	mov    %rax,-0x700(%rbp)
    9b9e:	48 8d 05 b3 50 01 00 	lea    0x150b3(%rip),%rax        # 1ec58 <g_1961>
    9ba5:	48 89 85 90 f9 ff ff 	mov    %rax,-0x670(%rbp)
    9bac:	48 8d 85 e0 f8 ff ff 	lea    -0x720(%rbp),%rax
    9bb3:	48 89 85 98 f9 ff ff 	mov    %rax,-0x668(%rbp)
    9bba:	c7 85 a8 f8 ff ff 00 	movl   $0x0,-0x758(%rbp)
    9bc1:	00 00 00 
    9bc4:	eb 1e                	jmp    9be4 <func_1+0x42f>
    9bc6:	8b 85 a8 f8 ff ff    	mov    -0x758(%rbp),%eax
    9bcc:	48 98                	cltq   
    9bce:	48 8d 15 37 89 01 00 	lea    0x18937(%rip),%rdx        # 2250c <g_11>
    9bd5:	48 89 94 c5 00 fc ff 	mov    %rdx,-0x400(%rbp,%rax,8)
    9bdc:	ff 
    9bdd:	83 85 a8 f8 ff ff 01 	addl   $0x1,-0x758(%rbp)
    9be4:	83 bd a8 f8 ff ff 02 	cmpl   $0x2,-0x758(%rbp)
    9beb:	7e d9                	jle    9bc6 <func_1+0x411>
    9bed:	8b 05 8d 44 01 00    	mov    0x1448d(%rip),%eax        # 1e080 <g_14>
    9bf3:	83 c0 01             	add    $0x1,%eax
    9bf6:	89 05 84 44 01 00    	mov    %eax,0x14484(%rip)        # 1e080 <g_14>
    9bfc:	8b 05 7e 44 01 00    	mov    0x1447e(%rip),%eax        # 1e080 <g_14>
    9c02:	83 f8 01             	cmp    $0x1,%eax
    9c05:	7e 86                	jle    9b8d <func_1+0x3d8>
    9c07:	e9 c7 00 00 00       	jmpq   9cd3 <func_1+0x51e>
    9c0c:	c7 85 d4 f8 ff ff 5d 	movl   $0x777bd15d,-0x72c(%rbp)
    9c13:	d1 7b 77 
    9c16:	48 8d 05 c3 44 01 00 	lea    0x144c3(%rip),%rax        # 1e0e0 <g_225>
    9c1d:	48 89 85 60 f9 ff ff 	mov    %rax,-0x6a0(%rbp)
    9c24:	48 8d 05 6d 48 01 00 	lea    0x1486d(%rip),%rax        # 1e498 <g_1953>
    9c2b:	48 89 85 68 f9 ff ff 	mov    %rax,-0x698(%rbp)
    9c32:	48 8d 05 7f 45 01 00 	lea    0x1457f(%rip),%rax        # 1e1b8 <g_730>
    9c39:	48 89 85 70 f9 ff ff 	mov    %rax,-0x690(%rbp)
    9c40:	48 8d 05 69 45 01 00 	lea    0x14569(%rip),%rax        # 1e1b0 <g_632>
    9c47:	48 89 85 78 f9 ff ff 	mov    %rax,-0x688(%rbp)
    9c4e:	48 c7 85 80 f9 ff ff 	movq   $0x0,-0x680(%rbp)
    9c55:	00 00 00 00 
    9c59:	48 8d 05 38 46 01 00 	lea    0x14638(%rip),%rax        # 1e298 <g_1528>
    9c60:	48 89 85 88 f9 ff ff 	mov    %rax,-0x678(%rbp)
    9c67:	48 8d 85 00 fc ff ff 	lea    -0x400(%rbp),%rax
    9c6e:	48 8d 15 2b 53 01 00 	lea    0x1532b(%rip),%rdx        # 1efa0 <g_2204+0x280>
    9c75:	b9 23 00 00 00       	mov    $0x23,%ecx
    9c7a:	48 89 c7             	mov    %rax,%rdi
    9c7d:	48 89 d6             	mov    %rdx,%rsi
    9c80:	f3 48 a5             	rep movsq %ds:(%rsi),%es:(%rdi)
    9c83:	48 8b 05 26 7e 01 00 	mov    0x17e26(%rip),%rax        # 21ab0 <g_876>
    9c8a:	48 8b 95 08 f9 ff ff 	mov    -0x6f8(%rbp),%rdx
    9c91:	48 89 10             	mov    %rdx,(%rax)
    9c94:	48 8d 15 a5 7d 01 00 	lea    0x17da5(%rip),%rdx        # 21a40 <g_132>
    9c9b:	48 8b 00             	mov    (%rax),%rax
    9c9e:	48 89 02             	mov    %rax,(%rdx)
    9ca1:	48 c7 05 ac 45 01 00 	movq   $0x0,0x145ac(%rip)        # 1e258 <g_1004>
    9ca8:	00 00 00 00 
    9cac:	90                   	nop
    9cad:	48 8b 05 a4 45 01 00 	mov    0x145a4(%rip),%rax        # 1e258 <g_1004>
    9cb4:	48 83 f8 01          	cmp    $0x1,%rax
    9cb8:	77 11                	ja     9ccb <func_1+0x516>
    9cba:	48 8b 85 20 f9 ff ff 	mov    -0x6e0(%rbp),%rax
    9cc1:	48 8b 00             	mov    (%rax),%rax
    9cc4:	8b 00                	mov    (%rax),%eax
    9cc6:	e9 50 03 00 00       	jmpq   a01b <func_1+0x866>
    9ccb:	48 83 85 58 f9 ff ff 	addq   $0x1,-0x6a8(%rbp)
    9cd2:	01 
    9cd3:	8b 05 33 88 01 00    	mov    0x18833(%rip),%eax        # 2250c <g_11>
    9cd9:	83 c0 01             	add    $0x1,%eax
    9cdc:	89 05 2a 88 01 00    	mov    %eax,0x1882a(%rip)        # 2250c <g_11>
    9ce2:	8b 05 24 88 01 00    	mov    0x18824(%rip),%eax        # 2250c <g_11>
    9ce8:	83 f8 01             	cmp    $0x1,%eax
    9ceb:	0f 8e a7 fd ff ff    	jle    9a98 <func_1+0x2e3>
    9cf1:	c7 85 98 f8 ff ff 00 	movl   $0x0,-0x768(%rbp)
    9cf8:	00 00 00 
    9cfb:	e9 e2 02 00 00       	jmpq   9fe2 <func_1+0x82d>
    9d00:	66 c7 85 96 f8 ff ff 	movw   $0x81d2,-0x76a(%rbp)
    9d07:	d2 81 
    9d09:	c7 85 c8 f8 ff ff 06 	movl   $0x6,-0x738(%rbp)
    9d10:	00 00 00 
    9d13:	48 8d 85 b0 fa ff ff 	lea    -0x550(%rbp),%rax
    9d1a:	48 8d 15 9f 53 01 00 	lea    0x1539f(%rip),%rdx        # 1f0c0 <g_2204+0x3a0>
    9d21:	b9 2a 00 00 00       	mov    $0x2a,%ecx
    9d26:	48 89 c7             	mov    %rax,%rdi
    9d29:	48 89 d6             	mov    %rdx,%rsi
    9d2c:	f3 48 a5             	rep movsq %ds:(%rsi),%es:(%rdi)
    9d2f:	48 8d 85 b0 fa ff ff 	lea    -0x550(%rbp),%rax
    9d36:	48 83 c0 58          	add    $0x58,%rax
    9d3a:	48 89 85 f8 f8 ff ff 	mov    %rax,-0x708(%rbp)
    9d41:	48 8d 85 f8 f8 ff ff 	lea    -0x708(%rbp),%rax
    9d48:	48 89 85 00 f9 ff ff 	mov    %rax,-0x700(%rbp)
    9d4f:	48 8d 85 00 f9 ff ff 	lea    -0x700(%rbp),%rax
    9d56:	48 89 85 30 f9 ff ff 	mov    %rax,-0x6d0(%rbp)
    9d5d:	c7 85 c0 f8 ff ff 01 	movl   $0x1,-0x740(%rbp)
    9d64:	00 00 00 
    9d67:	83 bd c0 f8 ff ff 00 	cmpl   $0x0,-0x740(%rbp)
    9d6e:	0f 88 67 02 00 00    	js     9fdb <func_1+0x826>
    9d74:	c7 85 ac f8 ff ff 00 	movl   $0x0,-0x754(%rbp)
    9d7b:	00 00 00 
    9d7e:	eb 19                	jmp    9d99 <func_1+0x5e4>
    9d80:	8b 85 ac f8 ff ff    	mov    -0x754(%rbp),%eax
    9d86:	48 98                	cltq   
    9d88:	66 c7 84 45 a4 f9 ff 	movw   $0xffff,-0x65c(%rbp,%rax,2)
    9d8f:	ff ff ff 
    9d92:	83 85 ac f8 ff ff 01 	addl   $0x1,-0x754(%rbp)
    9d99:	83 bd ac f8 ff ff 01 	cmpl   $0x1,-0x754(%rbp)
    9da0:	7e de                	jle    9d80 <func_1+0x5cb>
    9da2:	0f b7 85 a4 f9 ff ff 	movzwl -0x65c(%rbp),%eax
    9da9:	0f b7 d8             	movzwl %ax,%ebx
    9dac:	8b 85 c8 f8 ff ff    	mov    -0x738(%rbp),%eax
    9db2:	44 0f be e0          	movsbl %al,%r12d
    9db6:	8b 05 ec 43 01 00    	mov    0x143ec(%rip),%eax        # 1e1a8 <g_630>
    9dbc:	41 89 c7             	mov    %eax,%r15d
    9dbf:	0f b7 85 a4 f9 ff ff 	movzwl -0x65c(%rbp),%eax
    9dc6:	44 0f bf f0          	movswl %ax,%r14d
    9dca:	48 8b 85 d8 f8 ff ff 	mov    -0x728(%rbp),%rax
    9dd1:	8b 00                	mov    (%rax),%eax
    9dd3:	44 0f b7 e8          	movzwl %ax,%r13d
    9dd7:	48 8b 05 8a 7c 01 00 	mov    0x17c8a(%rip),%rax        # 21a68 <g_527>
    9dde:	0f b7 10             	movzwl (%rax),%edx
    9de1:	48 8b 05 80 7c 01 00 	mov    0x17c80(%rip),%rax        # 21a68 <g_527>
    9de8:	66 81 e2 29 e4       	and    $0xe429,%dx
    9ded:	66 89 10             	mov    %dx,(%rax)
    9df0:	0f b6 45 c5          	movzbl -0x3b(%rbp),%eax
    9df4:	0f b6 c0             	movzbl %al,%eax
    9df7:	89 c6                	mov    %eax,%esi
    9df9:	bf 00 00 00 00       	mov    $0x0,%edi
    9dfe:	e8 8b ef ff ff       	callq  8d8e <safe_div_func_uint16_t_u_u>
    9e03:	0f be d0             	movsbl %al,%edx
    9e06:	0f b7 85 a4 f9 ff ff 	movzwl -0x65c(%rbp),%eax
    9e0d:	0f be c0             	movsbl %al,%eax
    9e10:	89 d6                	mov    %edx,%esi
    9e12:	89 c7                	mov    %eax,%edi
    9e14:	e8 f9 e3 ff ff       	callq  8212 <safe_mul_func_int8_t_s_s>
    9e19:	0f be c0             	movsbl %al,%eax
    9e1c:	be 09 00 00 00       	mov    $0x9,%esi
    9e21:	89 c7                	mov    %eax,%edi
    9e23:	e8 02 e7 ff ff       	callq  852a <safe_rshift_func_int16_t_s_s>
    9e28:	48 0f bf c0          	movswq %ax,%rax
    9e2c:	48 89 c7             	mov    %rax,%rdi
    9e2f:	e8 e5 f1 ff ff       	callq  9019 <safe_unary_minus_func_uint64_t_u>
    9e34:	48 85 c0             	test   %rax,%rax
    9e37:	be 00 00 00 00       	mov    $0x0,%esi
    9e3c:	bf 01 00 00 00       	mov    $0x1,%edi
    9e41:	e8 ac e3 ff ff       	callq  81f2 <safe_sub_func_int8_t_s_s>
    9e46:	66 98                	cbtw   
    9e48:	0f b7 c0             	movzwl %ax,%eax
    9e4b:	44 89 ee             	mov    %r13d,%esi
    9e4e:	89 c7                	mov    %eax,%edi
    9e50:	e8 e8 ee ff ff       	callq  8d3d <safe_mul_func_uint16_t_u_u>
    9e55:	0f b7 c0             	movzwl %ax,%eax
    9e58:	44 21 f0             	and    %r14d,%eax
    9e5b:	44 89 fe             	mov    %r15d,%esi
    9e5e:	89 c7                	mov    %eax,%edi
    9e60:	e8 6b f0 ff ff       	callq  8ed0 <safe_sub_func_uint32_t_u_u>
    9e65:	83 f8 05             	cmp    $0x5,%eax
    9e68:	0f 97 c0             	seta   %al
    9e6b:	0f b6 c0             	movzbl %al,%eax
    9e6e:	44 89 e6             	mov    %r12d,%esi
    9e71:	89 c7                	mov    %eax,%edi
    9e73:	e8 7a e3 ff ff       	callq  81f2 <safe_sub_func_int8_t_s_s>
    9e78:	66 98                	cbtw   
    9e7a:	0f b7 c0             	movzwl %ax,%eax
    9e7d:	89 de                	mov    %ebx,%esi
    9e7f:	89 c7                	mov    %eax,%edi
    9e81:	e8 b7 ee ff ff       	callq  8d3d <safe_mul_func_uint16_t_u_u>
    9e86:	0f b7 c0             	movzwl %ax,%eax
    9e89:	be 00 00 00 00       	mov    $0x0,%esi
    9e8e:	89 c7                	mov    %eax,%edi
    9e90:	e8 6a ee ff ff       	callq  8cff <safe_add_func_uint16_t_u_u>
    9e95:	48 8d 05 ec 86 01 00 	lea    0x186ec(%rip),%rax        # 22588 <g_274>
    9e9c:	48 89 85 38 f9 ff ff 	mov    %rax,-0x6c8(%rbp)
    9ea3:	48 8d 05 c6 92 01 00 	lea    0x192c6(%rip),%rax        # 23170 <g_325+0x30>
    9eaa:	48 89 85 40 f9 ff ff 	mov    %rax,-0x6c0(%rbp)
    9eb1:	48 8d 85 00 fc ff ff 	lea    -0x400(%rbp),%rax
    9eb8:	48 8d 15 61 53 01 00 	lea    0x15361(%rip),%rdx        # 1f220 <g_2204+0x500>
    9ebf:	b9 78 00 00 00       	mov    $0x78,%ecx
    9ec4:	48 89 c7             	mov    %rax,%rdi
    9ec7:	48 89 d6             	mov    %rdx,%rsi
    9eca:	f3 48 a5             	rep movsq %ds:(%rsi),%es:(%rdi)
    9ecd:	c7 85 cc f8 ff ff 01 	movl   $0x1,-0x734(%rbp)
    9ed4:	00 00 00 
    9ed7:	48 8d 05 7a 4d 01 00 	lea    0x14d7a(%rip),%rax        # 1ec58 <g_1961>
    9ede:	48 89 85 48 f9 ff ff 	mov    %rax,-0x6b8(%rbp)
    9ee5:	48 8b 85 f8 f9 ff ff 	mov    -0x608(%rbp),%rax
    9eec:	48 83 e8 01          	sub    $0x1,%rax
    9ef0:	48 89 85 f8 f9 ff ff 	mov    %rax,-0x608(%rbp)
    9ef7:	48 8b 85 f8 f9 ff ff 	mov    -0x608(%rbp),%rax
    9efe:	be 04 00 00 00       	mov    $0x4,%esi
    9f03:	48 89 c7             	mov    %rax,%rdi
    9f06:	e8 75 f1 ff ff       	callq  9080 <safe_mod_func_uint64_t_u_u>
    9f0b:	48 8b 85 20 f9 ff ff 	mov    -0x6e0(%rbp),%rax
    9f12:	48 8b 00             	mov    (%rax),%rax
    9f15:	8b 00                	mov    (%rax),%eax
    9f17:	0f b6 d8             	movzbl %al,%ebx
    9f1a:	0f b6 45 c5          	movzbl -0x3b(%rbp),%eax
    9f1e:	0f b6 d0             	movzbl %al,%edx
    9f21:	48 8b 05 b0 7c 01 00 	mov    0x17cb0(%rip),%rax        # 21bd8 <g_1790>
    9f28:	0f b7 00             	movzwl (%rax),%eax
    9f2b:	0f b7 c0             	movzwl %ax,%eax
    9f2e:	89 d6                	mov    %edx,%esi
    9f30:	89 c7                	mov    %eax,%edi
    9f32:	e8 c8 ed ff ff       	callq  8cff <safe_add_func_uint16_t_u_u>
    9f37:	0f b6 c0             	movzbl %al,%eax
    9f3a:	89 de                	mov    %ebx,%esi
    9f3c:	89 c7                	mov    %eax,%edi
    9f3e:	e8 98 ec ff ff       	callq  8bdb <safe_div_func_uint8_t_u_u>
    9f43:	84 c0                	test   %al,%al
    9f45:	74 0c                	je     9f53 <func_1+0x79e>
    9f47:	48 8b 05 8a 7c 01 00 	mov    0x17c8a(%rip),%rax        # 21bd8 <g_1790>
    9f4e:	66 c7 00 00 00       	movw   $0x0,(%rax)
    9f53:	ba 00 00 00 00       	mov    $0x0,%edx
    9f58:	0f bf 85 96 f8 ff ff 	movswl -0x76a(%rbp),%eax
    9f5f:	89 d1                	mov    %edx,%ecx
    9f61:	09 c1                	or     %eax,%ecx
    9f63:	48 8b 85 18 f9 ff ff 	mov    -0x6e8(%rbp),%rax
    9f6a:	48 8b 10             	mov    (%rax),%rdx
    9f6d:	48 63 c1             	movslq %ecx,%rax
    9f70:	48 31 c2             	xor    %rax,%rdx
    9f73:	48 8b 85 18 f9 ff ff 	mov    -0x6e8(%rbp),%rax
    9f7a:	48 89 10             	mov    %rdx,(%rax)
    9f7d:	48 8b 05 4c 7b 01 00 	mov    0x17b4c(%rip),%rax        # 21ad0 <g_1187>
    9f84:	48 8b 00             	mov    (%rax),%rax
    9f87:	48 8b 95 18 f9 ff ff 	mov    -0x6e8(%rbp),%rdx
    9f8e:	48 8b 12             	mov    (%rdx),%rdx
    9f91:	48 89 10             	mov    %rdx,(%rax)
    9f94:	48 8b 10             	mov    (%rax),%rdx
    9f97:	0f b6 45 c4          	movzbl -0x3c(%rbp),%eax
    9f9b:	0f b6 c0             	movzbl %al,%eax
    9f9e:	48 39 c2             	cmp    %rax,%rdx
    9fa1:	0f 9f c0             	setg   %al
    9fa4:	0f b6 d0             	movzbl %al,%edx
    9fa7:	48 8b 85 48 f9 ff ff 	mov    -0x6b8(%rbp),%rax
    9fae:	89 10                	mov    %edx,(%rax)
    9fb0:	48 8b 85 48 f9 ff ff 	mov    -0x6b8(%rbp),%rax
    9fb7:	8b 00                	mov    (%rax),%eax
    9fb9:	89 85 c4 f8 ff ff    	mov    %eax,-0x73c(%rbp)
    9fbf:	8b 95 c4 f8 ff ff    	mov    -0x73c(%rbp),%edx
    9fc5:	8b 05 dd 44 01 00    	mov    0x144dd(%rip),%eax        # 1e4a8 <g_1955>
    9fcb:	09 d0                	or     %edx,%eax
    9fcd:	89 05 d5 44 01 00    	mov    %eax,0x144d5(%rip)        # 1e4a8 <g_1955>
    9fd3:	8b 85 c8 f8 ff ff    	mov    -0x738(%rbp),%eax
    9fd9:	eb 40                	jmp    a01b <func_1+0x866>
    9fdb:	83 85 98 f8 ff ff 01 	addl   $0x1,-0x768(%rbp)
    9fe2:	83 bd 98 f8 ff ff 01 	cmpl   $0x1,-0x768(%rbp)
    9fe9:	0f 8e 11 fd ff ff    	jle    9d00 <func_1+0x54b>
    9fef:	8b 05 83 40 01 00    	mov    0x14083(%rip),%eax        # 1e078 <g_6>
    9ff5:	83 e8 01             	sub    $0x1,%eax
    9ff8:	89 05 7a 40 01 00    	mov    %eax,0x1407a(%rip)        # 1e078 <g_6>
    9ffe:	8b 05 74 40 01 00    	mov    0x14074(%rip),%eax        # 1e078 <g_6>
    a004:	85 c0                	test   %eax,%eax
    a006:	0f 89 89 f9 ff ff    	jns    9995 <func_1+0x1e0>
    a00c:	8b 85 ac f9 ff ff    	mov    -0x654(%rbp),%eax
    a012:	eb 07                	jmp    a01b <func_1+0x866>
    a014:	48 8b 85 38 fa ff ff 	mov    -0x5c8(%rbp),%rax
    a01b:	48 8b 5d c8          	mov    -0x38(%rbp),%rbx
    a01f:	64 48 33 1c 25 28 00 	xor    %fs:0x28,%rbx
    a026:	00 00 
    a028:	74 05                	je     a02f <func_1+0x87a>
    a02a:	e8 41 e0 ff ff       	callq  8070 <__stack_chk_fail@plt>
    a02f:	48 81 c4 48 07 00 00 	add    $0x748,%rsp
    a036:	5b                   	pop    %rbx
    a037:	41 5c                	pop    %r12
    a039:	41 5d                	pop    %r13
    a03b:	41 5e                	pop    %r14
    a03d:	41 5f                	pop    %r15
    a03f:	5d                   	pop    %rbp
    a040:	c3                   	retq   

000000000000a041 <func_15>:
    a041:	f3 0f 1e fa          	endbr64 
    a045:	55                   	push   %rbp
    a046:	48 89 e5             	mov    %rsp,%rbp
    a049:	41 56                	push   %r14
    a04b:	41 55                	push   %r13
    a04d:	41 54                	push   %r12
    a04f:	53                   	push   %rbx
    a050:	48 81 ec 80 09 00 00 	sub    $0x980,%rsp
    a057:	48 89 bd 78 f6 ff ff 	mov    %rdi,-0x988(%rbp)
    a05e:	48 89 b5 70 f6 ff ff 	mov    %rsi,-0x990(%rbp)
    a065:	89 d0                	mov    %edx,%eax
    a067:	89 8d 68 f6 ff ff    	mov    %ecx,-0x998(%rbp)
    a06d:	4c 89 85 60 f6 ff ff 	mov    %r8,-0x9a0(%rbp)
    a074:	66 89 85 6c f6 ff ff 	mov    %ax,-0x994(%rbp)
    a07b:	64 48 8b 04 25 28 00 	mov    %fs:0x28,%rax
    a082:	00 00 
    a084:	48 89 45 d8          	mov    %rax,-0x28(%rbp)
    a088:	31 c0                	xor    %eax,%eax
    a08a:	c7 85 b0 f6 ff ff 01 	movl   $0x1,-0x950(%rbp)
    a091:	00 00 00 
    a094:	48 8d 05 b2 3f 01 00 	lea    0x13fb2(%rip),%rax        # 1e04d <g_5+0xd>
    a09b:	48 89 85 e0 f6 ff ff 	mov    %rax,-0x920(%rbp)
    a0a2:	48 8d 05 47 4c 01 00 	lea    0x14c47(%rip),%rax        # 1ecf0 <g_2100>
    a0a9:	48 89 85 f8 f6 ff ff 	mov    %rax,-0x908(%rbp)
    a0b0:	c7 85 c0 f7 ff ff d8 	movl   $0xe9b6ced8,-0x840(%rbp)
    a0b7:	ce b6 e9 
    a0ba:	c7 85 c4 f7 ff ff 00 	movl   $0x0,-0x83c(%rbp)
    a0c1:	00 00 00 
    a0c4:	c7 85 c8 f7 ff ff d8 	movl   $0xe9b6ced8,-0x838(%rbp)
    a0cb:	ce b6 e9 
    a0ce:	c7 85 cc f7 ff ff d8 	movl   $0xe9b6ced8,-0x834(%rbp)
    a0d5:	ce b6 e9 
    a0d8:	c7 85 d0 f7 ff ff 00 	movl   $0x0,-0x830(%rbp)
    a0df:	00 00 00 
    a0e2:	c7 85 d4 f7 ff ff d8 	movl   $0xe9b6ced8,-0x82c(%rbp)
    a0e9:	ce b6 e9 
    a0ec:	c7 85 d8 f7 ff ff d8 	movl   $0xe9b6ced8,-0x828(%rbp)
    a0f3:	ce b6 e9 
    a0f6:	c7 85 dc f7 ff ff d8 	movl   $0xe9b6ced8,-0x824(%rbp)
    a0fd:	ce b6 e9 
    a100:	48 8d 05 3d 41 01 00 	lea    0x1413d(%rip),%rax        # 1e244 <g_823>
    a107:	48 89 85 e8 f6 ff ff 	mov    %rax,-0x918(%rbp)
    a10e:	48 8d 85 e8 f6 ff ff 	lea    -0x918(%rbp),%rax
    a115:	48 89 85 00 f7 ff ff 	mov    %rax,-0x900(%rbp)
    a11c:	48 8d 05 45 79 01 00 	lea    0x17945(%rip),%rax        # 21a68 <g_527>
    a123:	48 89 85 08 f7 ff ff 	mov    %rax,-0x8f8(%rbp)
    a12a:	c7 85 b4 f6 ff ff fe 	movl   $0xfffffffe,-0x94c(%rbp)
    a131:	ff ff ff 
    a134:	c7 85 20 f9 ff ff ae 	movl   $0x37cfd0ae,-0x6e0(%rbp)
    a13b:	d0 cf 37 
    a13e:	c7 85 24 f9 ff ff 61 	movl   $0x65741961,-0x6dc(%rbp)
    a145:	19 74 65 
    a148:	c7 85 28 f9 ff ff 61 	movl   $0x65741961,-0x6d8(%rbp)
    a14f:	19 74 65 
    a152:	c7 85 2c f9 ff ff ae 	movl   $0x37cfd0ae,-0x6d4(%rbp)
    a159:	d0 cf 37 
    a15c:	c7 85 30 f9 ff ff 00 	movl   $0x0,-0x6d0(%rbp)
    a163:	00 00 00 
    a166:	c7 85 34 f9 ff ff ae 	movl   $0x37cfd0ae,-0x6cc(%rbp)
    a16d:	d0 cf 37 
    a170:	c7 85 38 f9 ff ff 61 	movl   $0x65741961,-0x6c8(%rbp)
    a177:	19 74 65 
    a17a:	c7 85 3c f9 ff ff 61 	movl   $0x65741961,-0x6c4(%rbp)
    a181:	19 74 65 
    a184:	c7 85 40 f9 ff ff ae 	movl   $0x37cfd0ae,-0x6c0(%rbp)
    a18b:	d0 cf 37 
    a18e:	c7 85 44 f9 ff ff 00 	movl   $0x0,-0x6bc(%rbp)
    a195:	00 00 00 
    a198:	c7 85 48 f9 ff ff ae 	movl   $0x37cfd0ae,-0x6b8(%rbp)
    a19f:	d0 cf 37 
    a1a2:	c7 85 4c f9 ff ff 61 	movl   $0x65741961,-0x6b4(%rbp)
    a1a9:	19 74 65 
    a1ac:	c7 85 50 f9 ff ff 61 	movl   $0x65741961,-0x6b0(%rbp)
    a1b3:	19 74 65 
    a1b6:	c7 85 54 f9 ff ff ae 	movl   $0x37cfd0ae,-0x6ac(%rbp)
    a1bd:	d0 cf 37 
    a1c0:	c7 85 58 f9 ff ff 00 	movl   $0x0,-0x6a8(%rbp)
    a1c7:	00 00 00 
    a1ca:	c7 85 5c f9 ff ff ae 	movl   $0x37cfd0ae,-0x6a4(%rbp)
    a1d1:	d0 cf 37 
    a1d4:	c7 85 60 f9 ff ff 61 	movl   $0x65741961,-0x6a0(%rbp)
    a1db:	19 74 65 
    a1de:	c7 85 64 f9 ff ff 61 	movl   $0x65741961,-0x69c(%rbp)
    a1e5:	19 74 65 
    a1e8:	c7 85 68 f9 ff ff ae 	movl   $0x37cfd0ae,-0x698(%rbp)
    a1ef:	d0 cf 37 
    a1f2:	c7 85 6c f9 ff ff 00 	movl   $0x0,-0x694(%rbp)
    a1f9:	00 00 00 
    a1fc:	c7 85 70 f9 ff ff ae 	movl   $0x37cfd0ae,-0x690(%rbp)
    a203:	d0 cf 37 
    a206:	c7 85 74 f9 ff ff 61 	movl   $0x65741961,-0x68c(%rbp)
    a20d:	19 74 65 
    a210:	c7 85 78 f9 ff ff 61 	movl   $0x65741961,-0x688(%rbp)
    a217:	19 74 65 
    a21a:	c7 85 7c f9 ff ff ae 	movl   $0x37cfd0ae,-0x684(%rbp)
    a221:	d0 cf 37 
    a224:	c7 85 80 f9 ff ff 00 	movl   $0x0,-0x680(%rbp)
    a22b:	00 00 00 
    a22e:	c7 85 84 f9 ff ff ae 	movl   $0x37cfd0ae,-0x67c(%rbp)
    a235:	d0 cf 37 
    a238:	c7 85 88 f9 ff ff 61 	movl   $0x65741961,-0x678(%rbp)
    a23f:	19 74 65 
    a242:	c7 85 8c f9 ff ff 61 	movl   $0x65741961,-0x674(%rbp)
    a249:	19 74 65 
    a24c:	c7 85 90 f9 ff ff ae 	movl   $0x37cfd0ae,-0x670(%rbp)
    a253:	d0 cf 37 
    a256:	c7 85 94 f9 ff ff 00 	movl   $0x0,-0x66c(%rbp)
    a25d:	00 00 00 
    a260:	c7 85 98 f9 ff ff ae 	movl   $0x37cfd0ae,-0x668(%rbp)
    a267:	d0 cf 37 
    a26a:	c7 85 9c f9 ff ff 61 	movl   $0x65741961,-0x664(%rbp)
    a271:	19 74 65 
    a274:	c7 85 a0 f9 ff ff 61 	movl   $0x65741961,-0x660(%rbp)
    a27b:	19 74 65 
    a27e:	c7 85 a4 f9 ff ff ae 	movl   $0x37cfd0ae,-0x65c(%rbp)
    a285:	d0 cf 37 
    a288:	c7 85 a8 f9 ff ff 00 	movl   $0x0,-0x658(%rbp)
    a28f:	00 00 00 
    a292:	c7 85 ac f9 ff ff ae 	movl   $0x37cfd0ae,-0x654(%rbp)
    a299:	d0 cf 37 
    a29c:	c7 85 b0 f9 ff ff 61 	movl   $0x65741961,-0x650(%rbp)
    a2a3:	19 74 65 
    a2a6:	c7 85 b4 f9 ff ff 61 	movl   $0x65741961,-0x64c(%rbp)
    a2ad:	19 74 65 
    a2b0:	c7 85 b8 f9 ff ff ae 	movl   $0x37cfd0ae,-0x648(%rbp)
    a2b7:	d0 cf 37 
    a2ba:	c7 85 bc f9 ff ff 00 	movl   $0x0,-0x644(%rbp)
    a2c1:	00 00 00 
    a2c4:	48 8d 05 75 41 01 00 	lea    0x14175(%rip),%rax        # 1e440 <g_1767>
    a2cb:	48 89 85 10 f7 ff ff 	mov    %rax,-0x8f0(%rbp)
    a2d2:	48 8d 05 ff 3d 01 00 	lea    0x13dff(%rip),%rax        # 1e0d8 <g_221>
    a2d9:	48 89 85 20 f8 ff ff 	mov    %rax,-0x7e0(%rbp)
    a2e0:	48 8d 05 b9 3e 01 00 	lea    0x13eb9(%rip),%rax        # 1e1a0 <g_628>
    a2e7:	48 89 85 28 f8 ff ff 	mov    %rax,-0x7d8(%rbp)
    a2ee:	48 8d 05 eb 3d 01 00 	lea    0x13deb(%rip),%rax        # 1e0e0 <g_225>
    a2f5:	48 89 85 30 f8 ff ff 	mov    %rax,-0x7d0(%rbp)
    a2fc:	48 8d 05 95 3f 01 00 	lea    0x13f95(%rip),%rax        # 1e298 <g_1528>
    a303:	48 89 85 38 f8 ff ff 	mov    %rax,-0x7c8(%rbp)
    a30a:	48 8d 05 87 3f 01 00 	lea    0x13f87(%rip),%rax        # 1e298 <g_1528>
    a311:	48 89 85 40 f8 ff ff 	mov    %rax,-0x7c0(%rbp)
    a318:	48 8d 05 c1 3d 01 00 	lea    0x13dc1(%rip),%rax        # 1e0e0 <g_225>
    a31f:	48 89 85 48 f8 ff ff 	mov    %rax,-0x7b8(%rbp)
    a326:	48 8d 05 73 3e 01 00 	lea    0x13e73(%rip),%rax        # 1e1a0 <g_628>
    a32d:	48 89 85 50 f8 ff ff 	mov    %rax,-0x7b0(%rbp)
    a334:	48 8d 05 9d 3d 01 00 	lea    0x13d9d(%rip),%rax        # 1e0d8 <g_221>
    a33b:	48 89 85 58 f8 ff ff 	mov    %rax,-0x7a8(%rbp)
    a342:	48 8d 05 57 3e 01 00 	lea    0x13e57(%rip),%rax        # 1e1a0 <g_628>
    a349:	48 89 85 60 f8 ff ff 	mov    %rax,-0x7a0(%rbp)
    a350:	48 8d 05 89 3d 01 00 	lea    0x13d89(%rip),%rax        # 1e0e0 <g_225>
    a357:	48 89 85 68 f8 ff ff 	mov    %rax,-0x798(%rbp)
    a35e:	48 8d 05 33 3f 01 00 	lea    0x13f33(%rip),%rax        # 1e298 <g_1528>
    a365:	48 89 85 70 f8 ff ff 	mov    %rax,-0x790(%rbp)
    a36c:	48 8d 05 25 3f 01 00 	lea    0x13f25(%rip),%rax        # 1e298 <g_1528>
    a373:	48 89 85 78 f8 ff ff 	mov    %rax,-0x788(%rbp)
    a37a:	48 8d 05 5f 3d 01 00 	lea    0x13d5f(%rip),%rax        # 1e0e0 <g_225>
    a381:	48 89 85 80 f8 ff ff 	mov    %rax,-0x780(%rbp)
    a388:	48 8d 05 11 3e 01 00 	lea    0x13e11(%rip),%rax        # 1e1a0 <g_628>
    a38f:	48 89 85 88 f8 ff ff 	mov    %rax,-0x778(%rbp)
    a396:	48 8d 05 3b 3d 01 00 	lea    0x13d3b(%rip),%rax        # 1e0d8 <g_221>
    a39d:	48 89 85 90 f8 ff ff 	mov    %rax,-0x770(%rbp)
    a3a4:	48 8d 05 9d 76 01 00 	lea    0x1769d(%rip),%rax        # 21a48 <g_197>
    a3ab:	48 89 85 b0 f7 ff ff 	mov    %rax,-0x850(%rbp)
    a3b2:	48 8d 05 8f 76 01 00 	lea    0x1768f(%rip),%rax        # 21a48 <g_197>
    a3b9:	48 89 85 b8 f7 ff ff 	mov    %rax,-0x848(%rbp)
    a3c0:	48 c7 85 18 f7 ff ff 	movq   $0x0,-0x8e8(%rbp)
    a3c7:	00 00 00 00 
    a3cb:	66 c7 85 8e f6 ff ff 	movw   $0xfffa,-0x972(%rbp)
    a3d2:	fa ff 
    a3d4:	c7 85 98 f6 ff ff 00 	movl   $0x0,-0x968(%rbp)
    a3db:	00 00 00 
    a3de:	eb 79                	jmp    a459 <func_15+0x418>
    a3e0:	c7 85 9c f6 ff ff 00 	movl   $0x0,-0x964(%rbp)
    a3e7:	00 00 00 
    a3ea:	eb 5d                	jmp    a449 <func_15+0x408>
    a3ec:	c7 85 a0 f6 ff ff 00 	movl   $0x0,-0x960(%rbp)
    a3f3:	00 00 00 
    a3f6:	eb 41                	jmp    a439 <func_15+0x3f8>
    a3f8:	8b 85 a0 f6 ff ff    	mov    -0x960(%rbp),%eax
    a3fe:	48 98                	cltq   
    a400:	8b 95 98 f6 ff ff    	mov    -0x968(%rbp),%edx
    a406:	48 63 ca             	movslq %edx,%rcx
    a409:	8b 95 9c f6 ff ff    	mov    -0x964(%rbp),%edx
    a40f:	48 63 d2             	movslq %edx,%rdx
    a412:	48 01 c9             	add    %rcx,%rcx
    a415:	48 01 ca             	add    %rcx,%rdx
    a418:	48 c1 e2 02          	shl    $0x2,%rdx
    a41c:	48 01 d0             	add    %rdx,%rax
    a41f:	48 8d 95 b0 f7 ff ff 	lea    -0x850(%rbp),%rdx
    a426:	48 83 c2 08          	add    $0x8,%rdx
    a42a:	48 89 94 c5 a0 f8 ff 	mov    %rdx,-0x760(%rbp,%rax,8)
    a431:	ff 
    a432:	83 85 a0 f6 ff ff 01 	addl   $0x1,-0x960(%rbp)
    a439:	83 bd a0 f6 ff ff 03 	cmpl   $0x3,-0x960(%rbp)
    a440:	7e b6                	jle    a3f8 <func_15+0x3b7>
    a442:	83 85 9c f6 ff ff 01 	addl   $0x1,-0x964(%rbp)
    a449:	83 bd 9c f6 ff ff 01 	cmpl   $0x1,-0x964(%rbp)
    a450:	7e 9a                	jle    a3ec <func_15+0x3ab>
    a452:	83 85 98 f6 ff ff 01 	addl   $0x1,-0x968(%rbp)
    a459:	83 bd 98 f6 ff ff 01 	cmpl   $0x1,-0x968(%rbp)
    a460:	0f 8e 7a ff ff ff    	jle    a3e0 <func_15+0x39f>
    a466:	48 8b 05 43 76 01 00 	mov    0x17643(%rip),%rax        # 21ab0 <g_876>
    a46d:	4c 8b 28             	mov    (%rax),%r13
    a470:	0f b6 05 0e 3f 01 00 	movzbl 0x13f0e(%rip),%eax        # 1e385 <g_1712+0x45>
    a477:	44 0f b6 e0          	movzbl %al,%r12d
    a47b:	8b 85 b0 f6 ff ff    	mov    -0x950(%rbp),%eax
    a481:	0f b7 d8             	movzwl %ax,%ebx
    a484:	44 8b b5 b0 f6 ff ff 	mov    -0x950(%rbp),%r14d
    a48b:	48 8b 85 e0 f6 ff ff 	mov    -0x920(%rbp),%rax
    a492:	48 89 c7             	mov    %rax,%rdi
    a495:	e8 55 0c 00 00       	callq  b0ef <func_47>
    a49a:	84 c0                	test   %al,%al
    a49c:	75 09                	jne    a4a7 <func_15+0x466>
    a49e:	83 bd 68 f6 ff ff 00 	cmpl   $0x0,-0x998(%rbp)
    a4a5:	74 07                	je     a4ae <func_15+0x46d>
    a4a7:	b8 01 00 00 00       	mov    $0x1,%eax
    a4ac:	eb 05                	jmp    a4b3 <func_15+0x472>
    a4ae:	b8 00 00 00 00       	mov    $0x0,%eax
    a4b3:	0f be c0             	movsbl %al,%eax
    a4b6:	be b1 ff ff ff       	mov    $0xffffffb1,%esi
    a4bb:	89 c7                	mov    %eax,%edi
    a4bd:	e8 a8 dd ff ff       	callq  826a <safe_div_func_int8_t_s_s>
    a4c2:	48 0f be c0          	movsbq %al,%rax
    a4c6:	4c 89 f6             	mov    %r14,%rsi
    a4c9:	48 89 c7             	mov    %rax,%rdi
    a4cc:	e8 d7 e3 ff ff       	callq  88a8 <safe_sub_func_int64_t_s_s>
    a4d1:	44 0f bf f0          	movswl %ax,%r14d
    a4d5:	8b 85 68 f6 ff ff    	mov    -0x998(%rbp),%eax
    a4db:	0f b6 c0             	movzbl %al,%eax
    a4de:	be 04 00 00 00       	mov    $0x4,%esi
    a4e3:	89 c7                	mov    %eax,%edi
    a4e5:	e8 1b e7 ff ff       	callq  8c05 <safe_lshift_func_uint8_t_u_s>
    a4ea:	0f b6 d0             	movzbl %al,%edx
    a4ed:	8b 05 89 3b 01 00    	mov    0x13b89(%rip),%eax        # 1e07c <g_10>
    a4f3:	39 c2                	cmp    %eax,%edx
    a4f5:	0f 94 c0             	sete   %al
    a4f8:	0f b6 c0             	movzbl %al,%eax
    a4fb:	39 85 b0 f6 ff ff    	cmp    %eax,-0x950(%rbp)
    a501:	0f 94 c0             	sete   %al
    a504:	0f b6 c0             	movzbl %al,%eax
    a507:	44 89 f6             	mov    %r14d,%esi
    a50a:	89 c7                	mov    %eax,%edi
    a50c:	e8 05 df ff ff       	callq  8416 <safe_mod_func_int16_t_s_s>
    a511:	98                   	cwtl   
    a512:	39 85 b0 f6 ff ff    	cmp    %eax,-0x950(%rbp)
    a518:	0f 97 c2             	seta   %dl
    a51b:	48 8d 05 6e 76 01 00 	lea    0x1766e(%rip),%rax        # 21b90 <g_1471+0x10>
    a522:	48 8b 00             	mov    (%rax),%rax
    a525:	48 8b 00             	mov    (%rax),%rax
    a528:	88 10                	mov    %dl,(%rax)
    a52a:	0f b6 00             	movzbl (%rax),%eax
    a52d:	83 f0 f0             	xor    $0xfffffff0,%eax
    a530:	0f b6 d0             	movzbl %al,%edx
    a533:	48 8b 85 f8 f6 ff ff 	mov    -0x908(%rbp),%rax
    a53a:	48 8b 00             	mov    (%rax),%rax
    a53d:	48 21 c2             	and    %rax,%rdx
    a540:	48 8b 85 f8 f6 ff ff 	mov    -0x908(%rbp),%rax
    a547:	48 89 10             	mov    %rdx,(%rax)
    a54a:	48 8b 85 f8 f6 ff ff 	mov    -0x908(%rbp),%rax
    a551:	48 8b 10             	mov    (%rax),%rdx
    a554:	8b 85 d8 f7 ff ff    	mov    -0x828(%rbp),%eax
    a55a:	31 d0                	xor    %edx,%eax
    a55c:	89 85 d8 f7 ff ff    	mov    %eax,-0x828(%rbp)
    a562:	8b 85 d8 f7 ff ff    	mov    -0x828(%rbp),%eax
    a568:	89 c2                	mov    %eax,%edx
    a56a:	8b 85 68 f6 ff ff    	mov    -0x998(%rbp),%eax
    a570:	31 d0                	xor    %edx,%eax
    a572:	98                   	cwtl   
    a573:	be 08 00 00 00       	mov    $0x8,%esi
    a578:	89 c7                	mov    %eax,%edi
    a57a:	e8 ab df ff ff       	callq  852a <safe_rshift_func_int16_t_s_s>
    a57f:	48 0f bf d0          	movswq %ax,%rdx
    a583:	48 8b 85 60 f6 ff ff 	mov    -0x9a0(%rbp),%rax
    a58a:	48 39 c2             	cmp    %rax,%rdx
    a58d:	0f 9e c0             	setle  %al
    a590:	44 0f b6 f0          	movzbl %al,%r14d
    a594:	8b 85 b0 f6 ff ff    	mov    -0x950(%rbp),%eax
    a59a:	0f b7 c0             	movzwl %ax,%eax
    a59d:	89 c6                	mov    %eax,%esi
    a59f:	bf bb 3b 00 00       	mov    $0x3bbb,%edi
    a5a4:	e8 94 e7 ff ff       	callq  8d3d <safe_mul_func_uint16_t_u_u>
    a5a9:	0f be c0             	movsbl %al,%eax
    a5ac:	44 89 f6             	mov    %r14d,%esi
    a5af:	89 c7                	mov    %eax,%edi
    a5b1:	e8 38 dd ff ff       	callq  82ee <safe_lshift_func_int8_t_s_u>
    a5b6:	0f be c0             	movsbl %al,%eax
    a5b9:	48 8d 15 80 74 01 00 	lea    0x17480(%rip),%rdx        # 21a40 <g_132>
    a5c0:	4c 8b 32             	mov    (%rdx),%r14
    a5c3:	4c 89 e9             	mov    %r13,%rcx
    a5c6:	4c 89 e2             	mov    %r12,%rdx
    a5c9:	89 de                	mov    %ebx,%esi
    a5cb:	89 c7                	mov    %eax,%edi
    a5cd:	e8 cb 0a 00 00       	callq  b09d <func_26>
    a5d2:	41 89 06             	mov    %eax,(%r14)
    a5d5:	8b 95 dc f7 ff ff    	mov    -0x824(%rbp),%edx
    a5db:	48 83 bd 00 f7 ff ff 	cmpq   $0x0,-0x900(%rbp)
    a5e2:	00 
    a5e3:	0f 95 c0             	setne  %al
    a5e6:	0f b6 c0             	movzbl %al,%eax
    a5e9:	39 c2                	cmp    %eax,%edx
    a5eb:	0f 8f 9e 00 00 00    	jg     a68f <func_15+0x64e>
    a5f1:	48 8d 05 48 74 01 00 	lea    0x17448(%rip),%rax        # 21a40 <g_132>
    a5f8:	48 8b 00             	mov    (%rax),%rax
    a5fb:	c7 00 ff ff ff ff    	movl   $0xffffffff,(%rax)
    a601:	c7 05 15 3c 01 00 00 	movl   $0x0,0x13c15(%rip)        # 1e220 <g_740+0x60>
    a608:	00 00 00 
    a60b:	48 8b 85 00 f7 ff ff 	mov    -0x900(%rbp),%rax
    a612:	48 8b 00             	mov    (%rax),%rax
    a615:	8b 15 05 3c 01 00    	mov    0x13c05(%rip),%edx        # 1e220 <g_740+0x60>
    a61b:	89 10                	mov    %edx,(%rax)
    a61d:	8b 00                	mov    (%rax),%eax
    a61f:	be ff ff ff ff       	mov    $0xffffffff,%esi
    a624:	89 c7                	mov    %eax,%edi
    a626:	e8 fa e8 ff ff       	callq  8f25 <safe_div_func_uint32_t_u_u>
    a62b:	3d c6 3e a9 f4       	cmp    $0xf4a93ec6,%eax
    a630:	0f 97 c0             	seta   %al
    a633:	0f b6 d8             	movzbl %al,%ebx
    a636:	48 8b 85 78 f6 ff ff 	mov    -0x988(%rbp),%rax
    a63d:	8b 00                	mov    (%rax),%eax
    a63f:	89 c2                	mov    %eax,%edx
    a641:	8b 85 b0 f6 ff ff    	mov    -0x950(%rbp),%eax
    a647:	89 d6                	mov    %edx,%esi
    a649:	89 c7                	mov    %eax,%edi
    a64b:	e8 68 e8 ff ff       	callq  8eb8 <safe_add_func_uint32_t_u_u>
    a650:	39 c3                	cmp    %eax,%ebx
    a652:	0f 92 c2             	setb   %dl
    a655:	48 8b 05 14 74 01 00 	mov    0x17414(%rip),%rax        # 21a70 <g_526>
    a65c:	48 8b 00             	mov    (%rax),%rax
    a65f:	0f b6 d2             	movzbl %dl,%edx
    a662:	66 89 10             	mov    %dx,(%rax)
    a665:	0f b7 00             	movzwl (%rax),%eax
    a668:	98                   	cwtl   
    a669:	89 85 b4 f6 ff ff    	mov    %eax,-0x94c(%rbp)
    a66f:	83 bd b4 f6 ff ff 00 	cmpl   $0x0,-0x94c(%rbp)
    a676:	74 17                	je     a68f <func_15+0x64e>
    a678:	48 8d 05 c1 73 01 00 	lea    0x173c1(%rip),%rax        # 21a40 <g_132>
    a67f:	48 8b 00             	mov    (%rax),%rax
    a682:	8b 00                	mov    (%rax),%eax
    a684:	85 c0                	test   %eax,%eax
    a686:	74 07                	je     a68f <func_15+0x64e>
    a688:	ba 01 00 00 00       	mov    $0x1,%edx
    a68d:	eb 05                	jmp    a694 <func_15+0x653>
    a68f:	ba 00 00 00 00       	mov    $0x0,%edx
    a694:	0f b7 85 6c f6 ff ff 	movzwl -0x994(%rbp),%eax
    a69b:	39 c2                	cmp    %eax,%edx
    a69d:	0f 8f 44 08 00 00    	jg     aee7 <func_15+0xea6>
    a6a3:	48 c7 85 38 f7 ff ff 	movq   $0x0,-0x8c8(%rbp)
    a6aa:	00 00 00 00 
    a6ae:	48 8d 05 17 3c 01 00 	lea    0x13c17(%rip),%rax        # 1e2cc <g_1694+0xc>
    a6b5:	48 89 85 40 f7 ff ff 	mov    %rax,-0x8c0(%rbp)
    a6bc:	48 8d 05 85 45 01 00 	lea    0x14585(%rip),%rax        # 1ec48 <g_1959>
    a6c3:	48 89 85 48 f7 ff ff 	mov    %rax,-0x8b8(%rbp)
    a6ca:	66 c7 85 92 f6 ff ff 	movw   $0x0,-0x96e(%rbp)
    a6d1:	00 00 
    a6d3:	48 8d 05 7e 45 01 00 	lea    0x1457e(%rip),%rax        # 1ec58 <g_1961>
    a6da:	48 89 85 50 f7 ff ff 	mov    %rax,-0x8b0(%rbp)
    a6e1:	c7 85 b8 f6 ff ff ff 	movl   $0xffffffff,-0x948(%rbp)
    a6e8:	ff ff ff 
    a6eb:	48 8d 05 2e 42 01 00 	lea    0x1422e(%rip),%rax        # 1e920 <g_1957+0x460>
    a6f2:	48 89 85 58 f7 ff ff 	mov    %rax,-0x8a8(%rbp)
    a6f9:	c7 85 bc f6 ff ff ff 	movl   $0x9a7a04ff,-0x944(%rbp)
    a700:	04 7a 9a 
    a703:	48 8d 05 c6 8b 01 00 	lea    0x18bc6(%rip),%rax        # 232d0 <g_346>
    a70a:	48 89 85 60 f7 ff ff 	mov    %rax,-0x8a0(%rbp)
    a711:	66 c7 85 6c f6 ff ff 	movw   $0x0,-0x994(%rbp)
    a718:	00 00 
    a71a:	66 83 bd 6c f6 ff ff 	cmpw   $0x2d,-0x994(%rbp)
    a721:	2d 
    a722:	76 20                	jbe    a744 <func_15+0x703>
    a724:	c6 85 8d f6 ff ff 12 	movb   $0x12,-0x973(%rbp)
    a72b:	48 8b 85 60 f6 ff ff 	mov    -0x9a0(%rbp),%rax
    a732:	88 85 8d f6 ff ff    	mov    %al,-0x973(%rbp)
    a738:	48 8b 85 38 f7 ff ff 	mov    -0x8c8(%rbp),%rax
    a73f:	e9 35 09 00 00       	jmpq   b079 <func_15+0x1038>
    a744:	48 8b 05 1d 73 01 00 	mov    0x1731d(%rip),%rax        # 21a68 <g_527>
    a74b:	0f b7 00             	movzwl (%rax),%eax
    a74e:	0f bf d8             	movswl %ax,%ebx
    a751:	8b 85 68 f6 ff ff    	mov    -0x998(%rbp),%eax
    a757:	4c 63 e0             	movslq %eax,%r12
    a75a:	8b 85 d8 f7 ff ff    	mov    -0x828(%rbp),%eax
    a760:	0f b7 d0             	movzwl %ax,%edx
    a763:	0f b7 85 6c f6 ff ff 	movzwl -0x994(%rbp),%eax
    a76a:	89 d6                	mov    %edx,%esi
    a76c:	89 c7                	mov    %eax,%edi
    a76e:	e8 e9 e5 ff ff       	callq  8d5c <safe_mod_func_uint16_t_u_u>
    a773:	66 85 c0             	test   %ax,%ax
    a776:	48 8b 05 db 72 01 00 	mov    0x172db(%rip),%rax        # 21a58 <g_214>
    a77d:	c7 00 01 00 00 00    	movl   $0x1,(%rax)
    a783:	8b 10                	mov    (%rax),%edx
    a785:	48 8b 85 48 f7 ff ff 	mov    -0x8b8(%rbp),%rax
    a78c:	89 10                	mov    %edx,(%rax)
    a78e:	8b 05 44 39 01 00    	mov    0x13944(%rip),%eax        # 1e0d8 <g_221>
    a794:	83 f8 01             	cmp    $0x1,%eax
    a797:	0f 9e c2             	setle  %dl
    a79a:	48 8b 05 37 74 01 00 	mov    0x17437(%rip),%rax        # 21bd8 <g_1790>
    a7a1:	0f b6 d2             	movzbl %dl,%edx
    a7a4:	66 89 10             	mov    %dx,(%rax)
    a7a7:	0f b7 00             	movzwl (%rax),%eax
    a7aa:	0f b7 c0             	movzwl %ax,%eax
    a7ad:	be 06 00 00 00       	mov    $0x6,%esi
    a7b2:	89 c7                	mov    %eax,%edi
    a7b4:	e8 05 e6 ff ff       	callq  8dbe <safe_lshift_func_uint16_t_u_s>
    a7b9:	4c 89 e6             	mov    %r12,%rsi
    a7bc:	bf 01 00 00 00       	mov    $0x1,%edi
    a7c1:	e8 e2 e0 ff ff       	callq  88a8 <safe_sub_func_int64_t_s_s>
    a7c6:	0f b7 95 6c f6 ff ff 	movzwl -0x994(%rbp),%edx
    a7cd:	48 21 c2             	and    %rax,%rdx
    a7d0:	48 0f bf 85 92 f6 ff 	movswq -0x96e(%rbp),%rax
    a7d7:	ff 
    a7d8:	48 39 c2             	cmp    %rax,%rdx
    a7db:	7c 0a                	jl     a7e7 <func_15+0x7a6>
    a7dd:	66 83 bd 6c f6 ff ff 	cmpw   $0x0,-0x994(%rbp)
    a7e4:	00 
    a7e5:	74 07                	je     a7ee <func_15+0x7ad>
    a7e7:	b8 01 00 00 00       	mov    $0x1,%eax
    a7ec:	eb 05                	jmp    a7f3 <func_15+0x7b2>
    a7ee:	b8 00 00 00 00       	mov    $0x0,%eax
    a7f3:	98                   	cwtl   
    a7f4:	89 de                	mov    %ebx,%esi
    a7f6:	89 c7                	mov    %eax,%edi
    a7f8:	e8 19 dc ff ff       	callq  8416 <safe_mod_func_int16_t_s_s>
    a7fd:	0f b6 c0             	movzbl %al,%eax
    a800:	be 04 00 00 00       	mov    $0x4,%esi
    a805:	89 c7                	mov    %eax,%edi
    a807:	e8 81 e4 ff ff       	callq  8c8d <safe_rshift_func_uint8_t_u_s>
    a80c:	84 c0                	test   %al,%al
    a80e:	74 16                	je     a826 <func_15+0x7e5>
    a810:	48 8b 05 91 72 01 00 	mov    0x17291(%rip),%rax        # 21aa8 <g_776>
    a817:	48 8b 00             	mov    (%rax),%rax
    a81a:	48 85 c0             	test   %rax,%rax
    a81d:	74 07                	je     a826 <func_15+0x7e5>
    a81f:	ba 01 00 00 00       	mov    $0x1,%edx
    a824:	eb 05                	jmp    a82b <func_15+0x7ea>
    a826:	ba 00 00 00 00       	mov    $0x0,%edx
    a82b:	48 8b 85 08 f7 ff ff 	mov    -0x8f8(%rbp),%rax
    a832:	48 8b 00             	mov    (%rax),%rax
    a835:	66 89 10             	mov    %dx,(%rax)
    a838:	ba 01 00 00 00       	mov    $0x1,%edx
    a83d:	48 8b 05 6c 76 01 00 	mov    0x1766c(%rip),%rax        # 21eb0 <g_1936>
    a844:	66 89 10             	mov    %dx,(%rax)
    a847:	0f b7 00             	movzwl (%rax),%eax
    a84a:	98                   	cwtl   
    a84b:	89 85 b4 f6 ff ff    	mov    %eax,-0x94c(%rbp)
    a851:	8b 85 b4 f6 ff ff    	mov    -0x94c(%rbp),%eax
    a857:	3b 85 68 f6 ff ff    	cmp    -0x998(%rbp),%eax
    a85d:	0f 9e c0             	setle  %al
    a860:	0f b6 d8             	movzbl %al,%ebx
    a863:	be 5d 50 00 00       	mov    $0x505d,%esi
    a868:	bf fc ff ff ff       	mov    $0xfffffffc,%edi
    a86d:	e8 83 db ff ff       	callq  83f5 <safe_mul_func_int16_t_s_s>
    a872:	98                   	cwtl   
    a873:	48 8b 15 fe e7 00 00 	mov    0xe7fe(%rip),%rdx        # 19078 <g_2023+0x18>
    a87a:	21 d0                	and    %edx,%eax
    a87c:	89 de                	mov    %ebx,%esi
    a87e:	89 c7                	mov    %eax,%edi
    a880:	e8 4b e6 ff ff       	callq  8ed0 <safe_sub_func_uint32_t_u_u>
    a885:	48 8b 95 50 f7 ff ff 	mov    -0x8b0(%rbp),%rdx
    a88c:	8b 12                	mov    (%rdx),%edx
    a88e:	21 d0                	and    %edx,%eax
    a890:	89 c2                	mov    %eax,%edx
    a892:	48 8b 85 50 f7 ff ff 	mov    -0x8b0(%rbp),%rax
    a899:	89 10                	mov    %edx,(%rax)
    a89b:	48 8b 85 48 f7 ff ff 	mov    -0x8b8(%rbp),%rax
    a8a2:	8b 00                	mov    (%rax),%eax
    a8a4:	85 c0                	test   %eax,%eax
    a8a6:	0f 84 26 06 00 00    	je     aed2 <func_15+0xe91>
    a8ac:	c7 85 c4 f6 ff ff f8 	movl   $0xfffffff8,-0x93c(%rbp)
    a8b3:	ff ff ff 
    a8b6:	c7 85 c8 f6 ff ff 01 	movl   $0x1,-0x938(%rbp)
    a8bd:	00 00 00 
    a8c0:	c7 85 cc f6 ff ff 52 	movl   $0xbbc9b552,-0x934(%rbp)
    a8c7:	b5 c9 bb 
    a8ca:	c7 85 d0 f6 ff ff 09 	movl   $0x9,-0x930(%rbp)
    a8d1:	00 00 00 
    a8d4:	66 c7 05 73 39 01 00 	movw   $0x16,0x13973(%rip)        # 1e250 <g_930>
    a8db:	16 00 
    a8dd:	e9 c0 05 00 00       	jmpq   aea2 <func_15+0xe61>
    a8e2:	c7 85 a4 f6 ff ff 03 	movl   $0x3,-0x95c(%rbp)
    a8e9:	00 00 00 
    a8ec:	c7 85 d4 f6 ff ff 0a 	movl   $0xc23c1d0a,-0x92c(%rbp)
    a8f3:	1d 3c c2 
    a8f6:	48 c7 85 68 f7 ff ff 	movq   $0x6,-0x898(%rbp)
    a8fd:	06 00 00 00 
    a901:	48 8d 05 b8 77 01 00 	lea    0x177b8(%rip),%rax        # 220c0 <g_2200>
    a908:	48 89 85 70 f7 ff ff 	mov    %rax,-0x890(%rbp)
    a90f:	48 8d 05 4a 71 01 00 	lea    0x1714a(%rip),%rax        # 21a60 <g_228>
    a916:	48 89 85 78 f7 ff ff 	mov    %rax,-0x888(%rbp)
    a91d:	c7 05 89 38 01 00 ed 	movl   $0xffffffed,0x13889(%rip)        # 1e1b0 <g_632>
    a924:	ff ff ff 
    a927:	90                   	nop
    a928:	8b 05 82 38 01 00    	mov    0x13882(%rip),%eax        # 1e1b0 <g_632>
    a92e:	83 f8 05             	cmp    $0x5,%eax
    a931:	0f 85 a6 01 00 00    	jne    aadd <func_15+0xa9c>
    a937:	c6 85 8b f6 ff ff fa 	movb   $0xfa,-0x975(%rbp)
    a93e:	c7 85 94 f6 ff ff 00 	movl   $0x0,-0x96c(%rbp)
    a945:	00 00 00 
    a948:	eb 1a                	jmp    a964 <func_15+0x923>
    a94a:	8b 85 94 f6 ff ff    	mov    -0x96c(%rbp),%eax
    a950:	48 98                	cltq   
    a952:	c7 84 85 e0 f7 ff ff 	movl   $0x2bca2319,-0x820(%rbp,%rax,4)
    a959:	19 23 ca 2b 
    a95d:	83 85 94 f6 ff ff 01 	addl   $0x1,-0x96c(%rbp)
    a964:	83 bd 94 f6 ff ff 02 	cmpl   $0x2,-0x96c(%rbp)
    a96b:	7e dd                	jle    a94a <func_15+0x909>
    a96d:	c7 05 11 37 01 00 00 	movl   $0x0,0x13711(%rip)        # 1e088 <g_90>
    a974:	00 00 00 
    a977:	e9 08 01 00 00       	jmpq   aa84 <func_15+0xa43>
    a97c:	c6 85 8c f6 ff ff 0b 	movb   $0xb,-0x974(%rbp)
    a983:	48 c7 85 a8 f7 ff ff 	movq   $0x0,-0x858(%rbp)
    a98a:	00 00 00 00 
    a98e:	48 8d 05 eb 89 01 00 	lea    0x189eb(%rip),%rax        # 23380 <g_362>
    a995:	48 89 85 f0 f6 ff ff 	mov    %rax,-0x910(%rbp)
    a99c:	48 8d 85 f0 f6 ff ff 	lea    -0x910(%rbp),%rax
    a9a3:	48 89 85 70 fb ff ff 	mov    %rax,-0x490(%rbp)
    a9aa:	48 8d 85 f0 f6 ff ff 	lea    -0x910(%rbp),%rax
    a9b1:	48 89 85 78 fb ff ff 	mov    %rax,-0x488(%rbp)
    a9b8:	48 8d 85 f0 f6 ff ff 	lea    -0x910(%rbp),%rax
    a9bf:	48 89 85 80 fb ff ff 	mov    %rax,-0x480(%rbp)
    a9c6:	48 8d 85 f0 f6 ff ff 	lea    -0x910(%rbp),%rax
    a9cd:	48 89 85 88 fb ff ff 	mov    %rax,-0x478(%rbp)
    a9d4:	48 8d 85 f0 f6 ff ff 	lea    -0x910(%rbp),%rax
    a9db:	48 89 85 90 fb ff ff 	mov    %rax,-0x470(%rbp)
    a9e2:	48 8d 85 f0 f6 ff ff 	lea    -0x910(%rbp),%rax
    a9e9:	48 89 85 98 fb ff ff 	mov    %rax,-0x468(%rbp)
    a9f0:	48 8d 85 f0 f6 ff ff 	lea    -0x910(%rbp),%rax
    a9f7:	48 89 85 a0 fb ff ff 	mov    %rax,-0x460(%rbp)
    a9fe:	c7 85 a8 f6 ff ff 00 	movl   $0x0,-0x958(%rbp)
    aa05:	00 00 00 
    aa08:	eb 46                	jmp    aa50 <func_15+0xa0f>
    aa0a:	c7 85 ac f6 ff ff 00 	movl   $0x0,-0x954(%rbp)
    aa11:	00 00 00 
    aa14:	eb 2a                	jmp    aa40 <func_15+0x9ff>
    aa16:	8b 85 ac f6 ff ff    	mov    -0x954(%rbp),%eax
    aa1c:	48 63 d0             	movslq %eax,%rdx
    aa1f:	8b 85 a8 f6 ff ff    	mov    -0x958(%rbp),%eax
    aa25:	48 98                	cltq   
    aa27:	48 01 d0             	add    %rdx,%rax
    aa2a:	48 8d 15 5f 37 01 00 	lea    0x1375f(%rip),%rdx        # 1e190 <g_508>
    aa31:	48 89 94 c5 c0 f9 ff 	mov    %rdx,-0x640(%rbp,%rax,8)
    aa38:	ff 
    aa39:	83 85 ac f6 ff ff 01 	addl   $0x1,-0x954(%rbp)
    aa40:	83 bd ac f6 ff ff 00 	cmpl   $0x0,-0x954(%rbp)
    aa47:	7e cd                	jle    aa16 <func_15+0x9d5>
    aa49:	83 85 a8 f6 ff ff 01 	addl   $0x1,-0x958(%rbp)
    aa50:	83 bd a8 f6 ff ff 01 	cmpl   $0x1,-0x958(%rbp)
    aa57:	7e b1                	jle    aa0a <func_15+0x9c9>
    aa59:	80 85 8b f6 ff ff 01 	addb   $0x1,-0x975(%rbp)
    aa60:	83 85 a4 f6 ff ff 01 	addl   $0x1,-0x95c(%rbp)
    aa67:	48 8d 05 12 89 01 00 	lea    0x18912(%rip),%rax        # 23380 <g_362>
    aa6e:	48 89 05 7b 74 01 00 	mov    %rax,0x1747b(%rip)        # 21ef0 <g_2158>
    aa75:	8b 05 0d 36 01 00    	mov    0x1360d(%rip),%eax        # 1e088 <g_90>
    aa7b:	83 e8 01             	sub    $0x1,%eax
    aa7e:	89 05 04 36 01 00    	mov    %eax,0x13604(%rip)        # 1e088 <g_90>
    aa84:	8b 05 fe 35 01 00    	mov    0x135fe(%rip),%eax        # 1e088 <g_90>
    aa8a:	85 c0                	test   %eax,%eax
    aa8c:	0f 89 ea fe ff ff    	jns    a97c <func_15+0x93b>
    aa92:	c7 05 04 37 01 00 00 	movl   $0x0,0x13704(%rip)        # 1e1a0 <g_628>
    aa99:	00 00 00 
    aa9c:	eb 29                	jmp    aac7 <func_15+0xa86>
    aa9e:	48 8d 05 13 39 01 00 	lea    0x13913(%rip),%rax        # 1e3b8 <g_1765>
    aaa5:	48 89 85 10 f7 ff ff 	mov    %rax,-0x8f0(%rbp)
    aaac:	8b 05 ee 36 01 00    	mov    0x136ee(%rip),%eax        # 1e1a0 <g_628>
    aab2:	48 98                	cltq   
    aab4:	be 05 00 00 00       	mov    $0x5,%esi
    aab9:	48 89 c7             	mov    %rax,%rdi
    aabc:	e8 6d e5 ff ff       	callq  902e <safe_add_func_uint64_t_u_u>
    aac1:	89 05 d9 36 01 00    	mov    %eax,0x136d9(%rip)        # 1e1a0 <g_628>
    aac7:	8b 05 d3 36 01 00    	mov    0x136d3(%rip),%eax        # 1e1a0 <g_628>
    aacd:	83 f8 0b             	cmp    $0xb,%eax
    aad0:	74 cc                	je     aa9e <func_15+0xa5d>
    aad2:	8b 85 a4 f6 ff ff    	mov    -0x95c(%rbp),%eax
    aad8:	e9 9c 05 00 00       	jmpq   b079 <func_15+0x1038>
    aadd:	48 8b 05 cc 6f 01 00 	mov    0x16fcc(%rip),%rax        # 21ab0 <g_876>
    aae4:	48 8b 00             	mov    (%rax),%rax
    aae7:	8b 00                	mov    (%rax),%eax
    aae9:	85 c0                	test   %eax,%eax
    aaeb:	0f 85 9f 03 00 00    	jne    ae90 <func_15+0xe4f>
    aaf1:	c7 05 8d 35 01 00 00 	movl   $0x0,0x1358d(%rip)        # 1e088 <g_90>
    aaf8:	00 00 00 
    aafb:	e9 6e 03 00 00       	jmpq   ae6e <func_15+0xe2d>
    ab00:	48 8d 85 c0 f9 ff ff 	lea    -0x640(%rbp),%rax
    ab07:	48 8d 15 d2 4a 01 00 	lea    0x14ad2(%rip),%rdx        # 1f5e0 <g_2204+0x8c0>
    ab0e:	b9 36 00 00 00       	mov    $0x36,%ecx
    ab13:	48 89 c7             	mov    %rax,%rdi
    ab16:	48 89 d6             	mov    %rdx,%rsi
    ab19:	f3 48 a5             	rep movsq %ds:(%rsi),%es:(%rdi)
    ab1c:	c7 85 d8 f6 ff ff fc 	movl   $0xfffffffc,-0x928(%rbp)
    ab23:	ff ff ff 
    ab26:	48 c7 85 f0 f6 ff ff 	movq   $0x0,-0x910(%rbp)
    ab2d:	00 00 00 00 
    ab31:	48 c7 85 e0 f7 ff ff 	movq   $0x0,-0x820(%rbp)
    ab38:	00 00 00 00 
    ab3c:	48 c7 85 e8 f7 ff ff 	movq   $0x0,-0x818(%rbp)
    ab43:	00 00 00 00 
    ab47:	48 c7 85 f0 f7 ff ff 	movq   $0x0,-0x810(%rbp)
    ab4e:	00 00 00 00 
    ab52:	48 c7 85 f8 f7 ff ff 	movq   $0x0,-0x808(%rbp)
    ab59:	00 00 00 00 
    ab5d:	48 c7 85 00 f8 ff ff 	movq   $0x0,-0x800(%rbp)
    ab64:	00 00 00 00 
    ab68:	48 c7 85 08 f8 ff ff 	movq   $0x0,-0x7f8(%rbp)
    ab6f:	00 00 00 00 
    ab73:	48 c7 85 10 f8 ff ff 	movq   $0x0,-0x7f0(%rbp)
    ab7a:	00 00 00 00 
    ab7e:	48 c7 85 80 f7 ff ff 	movq   $0x0,-0x880(%rbp)
    ab85:	00 00 00 00 
    ab89:	48 8b 05 c8 6e 01 00 	mov    0x16ec8(%rip),%rax        # 21a58 <g_214>
    ab90:	8b 10                	mov    (%rax),%edx
    ab92:	48 8b 85 50 f7 ff ff 	mov    -0x8b0(%rbp),%rax
    ab99:	89 10                	mov    %edx,(%rax)
    ab9b:	48 8b 85 58 f7 ff ff 	mov    -0x8a8(%rbp),%rax
    aba2:	48 89 85 20 f8 ff ff 	mov    %rax,-0x7e0(%rbp)
    aba9:	8b 85 d8 f6 ff ff    	mov    -0x928(%rbp),%eax
    abaf:	0f be d8             	movsbl %al,%ebx
    abb2:	48 8b 85 50 f7 ff ff 	mov    -0x8b0(%rbp),%rax
    abb9:	44 8b 20             	mov    (%rax),%r12d
    abbc:	48 8d 05 f9 34 01 00 	lea    0x134f9(%rip),%rax        # 1e0bc <g_127>
    abc3:	48 39 85 78 f6 ff ff 	cmp    %rax,-0x988(%rbp)
    abca:	0f 94 c0             	sete   %al
    abcd:	0f b6 c0             	movzbl %al,%eax
    abd0:	39 85 68 f6 ff ff    	cmp    %eax,-0x998(%rbp)
    abd6:	0f 84 a8 00 00 00    	je     ac84 <func_15+0xc43>
    abdc:	48 8b 05 85 6e 01 00 	mov    0x16e85(%rip),%rax        # 21a68 <g_527>
    abe3:	8b 95 a4 f6 ff ff    	mov    -0x95c(%rbp),%edx
    abe9:	66 89 10             	mov    %dx,(%rax)
    abec:	0f b7 00             	movzwl (%rax),%eax
    abef:	44 0f bf f0          	movswl %ax,%r14d
    abf3:	8b 95 c4 f7 ff ff    	mov    -0x83c(%rbp),%edx
    abf9:	48 8b 85 e8 f6 ff ff 	mov    -0x918(%rbp),%rax
    ac00:	89 10                	mov    %edx,(%rax)
    ac02:	8b 85 d8 f6 ff ff    	mov    -0x928(%rbp),%eax
    ac08:	4c 63 e8             	movslq %eax,%r13
    ac0b:	8b 85 c8 f6 ff ff    	mov    -0x938(%rbp),%eax
    ac11:	48 63 d0             	movslq %eax,%rdx
    ac14:	66 83 bd 6c f6 ff ff 	cmpw   $0x0,-0x994(%rbp)
    ac1b:	00 
    ac1c:	0f 95 c0             	setne  %al
    ac1f:	0f b6 c0             	movzbl %al,%eax
    ac22:	89 85 d4 f6 ff ff    	mov    %eax,-0x92c(%rbp)
    ac28:	8b 85 d4 f6 ff ff    	mov    -0x92c(%rbp),%eax
    ac2e:	48 98                	cltq   
    ac30:	48 89 d6             	mov    %rdx,%rsi
    ac33:	48 89 c7             	mov    %rax,%rdi
    ac36:	e8 45 e4 ff ff       	callq  9080 <safe_mod_func_uint64_t_u_u>
    ac3b:	48 83 f8 09          	cmp    $0x9,%rax
    ac3f:	0f 95 c0             	setne  %al
    ac42:	0f b6 d0             	movzbl %al,%edx
    ac45:	8b 85 68 f6 ff ff    	mov    -0x998(%rbp),%eax
    ac4b:	48 98                	cltq   
    ac4d:	48 89 d6             	mov    %rdx,%rsi
    ac50:	48 89 c7             	mov    %rax,%rdi
    ac53:	e8 a4 dc ff ff       	callq  88fc <safe_mul_func_int64_t_s_s>
    ac58:	4c 89 ee             	mov    %r13,%rsi
    ac5b:	48 89 c7             	mov    %rax,%rdi
    ac5e:	e8 4c e4 ff ff       	callq  90af <safe_div_func_uint64_t_u_u>
    ac63:	48 be 05 b0 5e 40 fd 	movabs $0xa8f9bdfd405eb005,%rsi
    ac6a:	bd f9 a8 
    ac6d:	48 89 c7             	mov    %rax,%rdi
    ac70:	e8 b9 e3 ff ff       	callq  902e <safe_add_func_uint64_t_u_u>
    ac75:	be 01 00 00 00       	mov    $0x1,%esi
    ac7a:	89 c7                	mov    %eax,%edi
    ac7c:	e8 7e da ff ff       	callq  86ff <safe_div_func_int32_t_s_s>
    ac81:	41 39 c6             	cmp    %eax,%r14d
    ac84:	48 8b 05 b5 6d 01 00 	mov    0x16db5(%rip),%rax        # 21a40 <g_132>
    ac8b:	8b 00                	mov    (%rax),%eax
    ac8d:	48 98                	cltq   
    ac8f:	48 39 85 68 f7 ff ff 	cmp    %rax,-0x898(%rbp)
    ac96:	72 10                	jb     aca8 <func_15+0xc67>
    ac98:	83 bd bc f6 ff ff 00 	cmpl   $0x0,-0x944(%rbp)
    ac9f:	74 07                	je     aca8 <func_15+0xc67>
    aca1:	b8 01 00 00 00       	mov    $0x1,%eax
    aca6:	eb 05                	jmp    acad <func_15+0xc6c>
    aca8:	b8 00 00 00 00       	mov    $0x0,%eax
    acad:	0f b6 c0             	movzbl %al,%eax
    acb0:	44 89 e6             	mov    %r12d,%esi
    acb3:	89 c7                	mov    %eax,%edi
    acb5:	e8 4b df ff ff       	callq  8c05 <safe_lshift_func_uint8_t_u_s>
    acba:	0f b6 c0             	movzbl %al,%eax
    acbd:	39 85 d8 f6 ff ff    	cmp    %eax,-0x928(%rbp)
    acc3:	0f 9e c0             	setle  %al
    acc6:	0f b6 c0             	movzbl %al,%eax
    acc9:	48 89 05 98 b2 01 00 	mov    %rax,0x1b298(%rip)        # 25f68 <g_1883+0x8>
    acd0:	48 8b 05 91 b2 01 00 	mov    0x1b291(%rip),%rax        # 25f68 <g_1883+0x8>
    acd7:	89 85 d0 f6 ff ff    	mov    %eax,-0x930(%rbp)
    acdd:	89 de                	mov    %ebx,%esi
    acdf:	bf 00 00 00 00       	mov    $0x0,%edi
    ace4:	e8 09 d5 ff ff       	callq  81f2 <safe_sub_func_int8_t_s_s>
    ace9:	84 c0                	test   %al,%al
    aceb:	74 29                	je     ad16 <func_15+0xcd5>
    aced:	48 8b 85 d0 f8 ff ff 	mov    -0x730(%rbp),%rax
    acf4:	48 85 c0             	test   %rax,%rax
    acf7:	0f 94 c0             	sete   %al
    acfa:	0f b6 d0             	movzbl %al,%edx
    acfd:	48 8b 85 50 f7 ff ff 	mov    -0x8b0(%rbp),%rax
    ad04:	89 10                	mov    %edx,(%rax)
    ad06:	48 8b 85 78 f6 ff ff 	mov    -0x988(%rbp),%rax
    ad0d:	8b 00                	mov    (%rax),%eax
    ad0f:	85 c0                	test   %eax,%eax
    ad11:	e9 49 01 00 00       	jmpq   ae5f <func_15+0xe1e>
    ad16:	48 c7 85 88 f7 ff ff 	movq   $0x0,-0x878(%rbp)
    ad1d:	00 00 00 00 
    ad21:	48 c7 85 90 f7 ff ff 	movq   $0x0,-0x870(%rbp)
    ad28:	00 00 00 00 
    ad2c:	48 c7 85 98 f7 ff ff 	movq   $0x0,-0x868(%rbp)
    ad33:	00 00 00 00 
    ad37:	48 8d 85 f0 f6 ff ff 	lea    -0x910(%rbp),%rax
    ad3e:	48 89 85 a0 f7 ff ff 	mov    %rax,-0x860(%rbp)
    ad45:	48 8d 85 70 fb ff ff 	lea    -0x490(%rbp),%rax
    ad4c:	48 8d 15 4d 4a 01 00 	lea    0x14a4d(%rip),%rdx        # 1f7a0 <g_2204+0xa80>
    ad53:	b9 8c 00 00 00       	mov    $0x8c,%ecx
    ad58:	48 89 c7             	mov    %rax,%rdi
    ad5b:	48 89 d6             	mov    %rdx,%rsi
    ad5e:	f3 48 a5             	rep movsq %ds:(%rsi),%es:(%rdi)
    ad61:	c7 85 dc f6 ff ff b5 	movl   $0x8f8511b5,-0x924(%rbp)
    ad68:	11 85 8f 
    ad6b:	48 8b 05 3e 6d 01 00 	mov    0x16d3e(%rip),%rax        # 21ab0 <g_876>
    ad72:	48 8b 10             	mov    (%rax),%rdx
    ad75:	48 8d 05 c4 6c 01 00 	lea    0x16cc4(%rip),%rax        # 21a40 <g_132>
    ad7c:	48 8b 00             	mov    (%rax),%rax
    ad7f:	8b 12                	mov    (%rdx),%edx
    ad81:	89 10                	mov    %edx,(%rax)
    ad83:	48 8b 05 26 6d 01 00 	mov    0x16d26(%rip),%rax        # 21ab0 <g_876>
    ad8a:	48 8b 00             	mov    (%rax),%rax
    ad8d:	8b 00                	mov    (%rax),%eax
    ad8f:	85 c0                	test   %eax,%eax
    ad91:	0f 85 e6 00 00 00    	jne    ae7d <func_15+0xe3c>
    ad97:	8b 9d dc f6 ff ff    	mov    -0x924(%rbp),%ebx
    ad9d:	48 8b 95 f0 f6 ff ff 	mov    -0x910(%rbp),%rdx
    ada4:	48 8b 85 a0 f7 ff ff 	mov    -0x860(%rbp),%rax
    adab:	48 89 10             	mov    %rdx,(%rax)
    adae:	48 8b 85 a0 f7 ff ff 	mov    -0x860(%rbp),%rax
    adb5:	48 8b 10             	mov    (%rax),%rdx
    adb8:	48 8b 85 08 f8 ff ff 	mov    -0x7f8(%rbp),%rax
    adbf:	48 39 c2             	cmp    %rax,%rdx
    adc2:	0f 94 c0             	sete   %al
    adc5:	0f b6 d0             	movzbl %al,%edx
    adc8:	48 8b 85 48 f7 ff ff 	mov    -0x8b8(%rbp),%rax
    adcf:	89 10                	mov    %edx,(%rax)
    add1:	48 8b 85 48 f7 ff ff 	mov    -0x8b8(%rbp),%rax
    add8:	8b 00                	mov    (%rax),%eax
    adda:	41 89 c5             	mov    %eax,%r13d
    addd:	48 8b 05 34 2e 01 00 	mov    0x12e34(%rip),%rax        # 1dc18 <l_2195.4569+0x18>
    ade4:	48 85 c0             	test   %rax,%rax
    ade7:	0f 95 c0             	setne  %al
    adea:	44 0f b6 e0          	movzbl %al,%r12d
    adee:	48 83 bd 80 f7 ff ff 	cmpq   $0x0,-0x880(%rbp)
    adf5:	00 
    adf6:	0f 94 c2             	sete   %dl
    adf9:	48 8b 05 c8 72 01 00 	mov    0x172c8(%rip),%rax        # 220c8 <g_2199>
    ae00:	48 89 85 70 f7 ff ff 	mov    %rax,-0x890(%rbp)
    ae07:	48 8d 05 b2 72 01 00 	lea    0x172b2(%rip),%rax        # 220c0 <g_2200>
    ae0e:	48 89 05 ab b1 01 00 	mov    %rax,0x1b1ab(%rip)        # 25fc0 <g_2205>
    ae15:	48 8b 05 a4 b1 01 00 	mov    0x1b1a4(%rip),%rax        # 25fc0 <g_2205>
    ae1c:	48 39 85 70 f7 ff ff 	cmp    %rax,-0x890(%rbp)
    ae23:	0f 95 c0             	setne  %al
    ae26:	09 d0                	or     %edx,%eax
    ae28:	0f b6 c0             	movzbl %al,%eax
    ae2b:	be 00 00 00 00       	mov    $0x0,%esi
    ae30:	48 89 c7             	mov    %rax,%rdi
    ae33:	e8 13 e2 ff ff       	callq  904b <safe_sub_func_uint64_t_u_u>
    ae38:	49 39 c4             	cmp    %rax,%r12
    ae3b:	0f 97 c0             	seta   %al
    ae3e:	0f b6 c0             	movzbl %al,%eax
    ae41:	44 31 e8             	xor    %r13d,%eax
    ae44:	98                   	cwtl   
    ae45:	89 de                	mov    %ebx,%esi
    ae47:	89 c7                	mov    %eax,%edi
    ae49:	e8 93 d6 ff ff       	callq  84e1 <safe_lshift_func_int16_t_s_u>
    ae4e:	89 c2                	mov    %eax,%edx
    ae50:	48 8b 05 59 6c 01 00 	mov    0x16c59(%rip),%rax        # 21ab0 <g_876>
    ae57:	48 8b 00             	mov    (%rax),%rax
    ae5a:	0f bf d2             	movswl %dx,%edx
    ae5d:	89 10                	mov    %edx,(%rax)
    ae5f:	8b 05 23 32 01 00    	mov    0x13223(%rip),%eax        # 1e088 <g_90>
    ae65:	83 c0 01             	add    $0x1,%eax
    ae68:	89 05 1a 32 01 00    	mov    %eax,0x1321a(%rip)        # 1e088 <g_90>
    ae6e:	8b 05 14 32 01 00    	mov    0x13214(%rip),%eax        # 1e088 <g_90>
    ae74:	83 f8 02             	cmp    $0x2,%eax
    ae77:	0f 8f 83 fc ff ff    	jg     ab00 <func_15+0xabf>
    ae7d:	48 8b 85 78 f7 ff ff 	mov    -0x888(%rbp),%rax
    ae84:	48 8b 95 60 f7 ff ff 	mov    -0x8a0(%rbp),%rdx
    ae8b:	48 89 10             	mov    %rdx,(%rax)
    ae8e:	eb 01                	jmp    ae91 <func_15+0xe50>
    ae90:	90                   	nop
    ae91:	0f b7 05 b8 33 01 00 	movzwl 0x133b8(%rip),%eax        # 1e250 <g_930>
    ae98:	83 c0 01             	add    $0x1,%eax
    ae9b:	66 89 05 ae 33 01 00 	mov    %ax,0x133ae(%rip)        # 1e250 <g_930>
    aea2:	0f b7 05 a7 33 01 00 	movzwl 0x133a7(%rip),%eax        # 1e250 <g_930>
    aea9:	66 83 f8 16          	cmp    $0x16,%ax
    aead:	0f 87 2f fa ff ff    	ja     a8e2 <func_15+0x8a1>
    aeb3:	48 8b 05 f6 6b 01 00 	mov    0x16bf6(%rip),%rax        # 21ab0 <g_876>
    aeba:	48 8d 15 7f 6b 01 00 	lea    0x16b7f(%rip),%rdx        # 21a40 <g_132>
    aec1:	48 8b 00             	mov    (%rax),%rax
    aec4:	48 89 02             	mov    %rax,(%rdx)
    aec7:	8b 85 68 f6 ff ff    	mov    -0x998(%rbp),%eax
    aecd:	e9 a7 01 00 00       	jmpq   b079 <func_15+0x1038>
    aed2:	c7 85 c0 f6 ff ff 08 	movl   $0x8,-0x940(%rbp)
    aed9:	00 00 00 
    aedc:	8b 85 c0 f6 ff ff    	mov    -0x940(%rbp),%eax
    aee2:	e9 92 01 00 00       	jmpq   b079 <func_15+0x1038>
    aee7:	66 c7 85 90 f6 ff ff 	movw   $0x1eef,-0x970(%rbp)
    aeee:	ef 1e 
    aef0:	48 c7 85 20 f7 ff ff 	movq   $0x0,-0x8e0(%rbp)
    aef7:	00 00 00 00 
    aefb:	48 b8 c7 18 36 60 60 	movabs $0x62651960603618c7,%rax
    af02:	19 65 62 
    af05:	48 89 85 28 f7 ff ff 	mov    %rax,-0x8d8(%rbp)
    af0c:	48 8d 05 5d 6b 01 00 	lea    0x16b5d(%rip),%rax        # 21a70 <g_526>
    af13:	48 89 85 30 f7 ff ff 	mov    %rax,-0x8d0(%rbp)
    af1a:	48 8d 05 67 84 01 00 	lea    0x18467(%rip),%rax        # 23388 <g_404>
    af21:	48 39 85 18 f7 ff ff 	cmp    %rax,-0x8e8(%rbp)
    af28:	0f 95 c0             	setne  %al
    af2b:	0f b6 c0             	movzbl %al,%eax
    af2e:	be 03 00 00 00       	mov    $0x3,%esi
    af33:	89 c7                	mov    %eax,%edi
    af35:	e8 fb d3 ff ff       	callq  8335 <safe_rshift_func_int8_t_s_s>
    af3a:	0f be d0             	movsbl %al,%edx
    af3d:	48 8d 85 e0 f6 ff ff 	lea    -0x920(%rbp),%rax
    af44:	48 39 85 20 f7 ff ff 	cmp    %rax,-0x8e0(%rbp)
    af4b:	0f 95 c0             	setne  %al
    af4e:	0f b6 c0             	movzbl %al,%eax
    af51:	89 d6                	mov    %edx,%esi
    af53:	89 c7                	mov    %eax,%edi
    af55:	e8 bc d4 ff ff       	callq  8416 <safe_mod_func_int16_t_s_s>
    af5a:	89 c2                	mov    %eax,%edx
    af5c:	48 8b 05 75 6c 01 00 	mov    0x16c75(%rip),%rax        # 21bd8 <g_1790>
    af63:	66 89 10             	mov    %dx,(%rax)
    af66:	66 81 bd 6c f6 ff ff 	cmpw   $0xef,-0x994(%rbp)
    af6d:	ef 00 
    af6f:	0f 95 c0             	setne  %al
    af72:	0f b6 c0             	movzbl %al,%eax
    af75:	89 85 4c f9 ff ff    	mov    %eax,-0x6b4(%rbp)
    af7b:	48 8b 05 56 6c 01 00 	mov    0x16c56(%rip),%rax        # 21bd8 <g_1790>
    af82:	0f b7 00             	movzwl (%rax),%eax
    af85:	0f b7 d8             	movzwl %ax,%ebx
    af88:	48 8b 05 59 6f 01 00 	mov    0x16f59(%rip),%rax        # 21ee8 <g_2085>
    af8f:	48 8b 00             	mov    (%rax),%rax
    af92:	83 bd 68 f6 ff ff 00 	cmpl   $0x0,-0x998(%rbp)
    af99:	0f 9e c0             	setle  %al
    af9c:	0f b6 d0             	movzbl %al,%edx
    af9f:	8b 85 d8 f7 ff ff    	mov    -0x828(%rbp),%eax
    afa5:	39 c2                	cmp    %eax,%edx
    afa7:	0f 9f c0             	setg   %al
    afaa:	0f b6 c0             	movzbl %al,%eax
    afad:	33 85 68 f6 ff ff    	xor    -0x998(%rbp),%eax
    afb3:	89 c2                	mov    %eax,%edx
    afb5:	8b 85 d8 f7 ff ff    	mov    -0x828(%rbp),%eax
    afbb:	39 c2                	cmp    %eax,%edx
    afbd:	0f 95 c0             	setne  %al
    afc0:	0f b6 d0             	movzbl %al,%edx
    afc3:	48 8b 85 28 f7 ff ff 	mov    -0x8d8(%rbp),%rax
    afca:	0f b7 c0             	movzwl %ax,%eax
    afcd:	89 d6                	mov    %edx,%esi
    afcf:	89 c7                	mov    %eax,%edi
    afd1:	e8 67 dd ff ff       	callq  8d3d <safe_mul_func_uint16_t_u_u>
    afd6:	0f b7 85 6c f6 ff ff 	movzwl -0x994(%rbp),%eax
    afdd:	0f b6 c0             	movzbl %al,%eax
    afe0:	be 01 00 00 00       	mov    $0x1,%esi
    afe5:	89 c7                	mov    %eax,%edi
    afe7:	e8 8c db ff ff       	callq  8b78 <safe_sub_func_uint8_t_u_u>
    afec:	0f b6 d0             	movzbl %al,%edx
    afef:	0f bf 85 8e f6 ff ff 	movswl -0x972(%rbp),%eax
    aff6:	39 c2                	cmp    %eax,%edx
    aff8:	0f 9c c0             	setl   %al
    affb:	0f b6 c0             	movzbl %al,%eax
    affe:	48 8b 15 eb 3c 01 00 	mov    0x13ceb(%rip),%rdx        # 1ecf0 <g_2100>
    b005:	31 d0                	xor    %edx,%eax
    b007:	98                   	cwtl   
    b008:	89 de                	mov    %ebx,%esi
    b00a:	89 c7                	mov    %eax,%edi
    b00c:	e8 52 d5 ff ff       	callq  8563 <safe_rshift_func_int16_t_s_u>
    b011:	66 3d 9c 09          	cmp    $0x99c,%ax
    b015:	75 09                	jne    b020 <func_15+0xfdf>
    b017:	83 bd 68 f6 ff ff 00 	cmpl   $0x0,-0x998(%rbp)
    b01e:	74 07                	je     b027 <func_15+0xfe6>
    b020:	b8 01 00 00 00       	mov    $0x1,%eax
    b025:	eb 05                	jmp    b02c <func_15+0xfeb>
    b027:	b8 00 00 00 00       	mov    $0x0,%eax
    b02c:	98                   	cwtl   
    b02d:	be 01 00 00 00       	mov    $0x1,%esi
    b032:	89 c7                	mov    %eax,%edi
    b034:	e8 dd d3 ff ff       	callq  8416 <safe_mod_func_int16_t_s_s>
    b039:	66 39 85 90 f6 ff ff 	cmp    %ax,-0x970(%rbp)
    b040:	0f 9f c0             	setg   %al
    b043:	0f b6 c0             	movzbl %al,%eax
    b046:	be 01 00 00 00       	mov    $0x1,%esi
    b04b:	48 89 c7             	mov    %rax,%rdi
    b04e:	e8 ee d7 ff ff       	callq  8841 <safe_add_func_int64_t_s_s>
    b053:	48 8d 15 e6 69 01 00 	lea    0x169e6(%rip),%rdx        # 21a40 <g_132>
    b05a:	48 8b 12             	mov    (%rdx),%rdx
    b05d:	8b 12                	mov    (%rdx),%edx
    b05f:	89 c1                	mov    %eax,%ecx
    b061:	48 8d 05 d8 69 01 00 	lea    0x169d8(%rip),%rax        # 21a40 <g_132>
    b068:	48 8b 00             	mov    (%rax),%rax
    b06b:	31 ca                	xor    %ecx,%edx
    b06d:	89 10                	mov    %edx,(%rax)
    b06f:	48 8b 05 62 6b 01 00 	mov    0x16b62(%rip),%rax        # 21bd8 <g_1790>
    b076:	0f b7 00             	movzwl (%rax),%eax
    b079:	48 8b 4d d8          	mov    -0x28(%rbp),%rcx
    b07d:	64 48 33 0c 25 28 00 	xor    %fs:0x28,%rcx
    b084:	00 00 
    b086:	74 05                	je     b08d <func_15+0x104c>
    b088:	e8 e3 cf ff ff       	callq  8070 <__stack_chk_fail@plt>
    b08d:	48 81 c4 80 09 00 00 	add    $0x980,%rsp
    b094:	5b                   	pop    %rbx
    b095:	41 5c                	pop    %r12
    b097:	41 5d                	pop    %r13
    b099:	41 5e                	pop    %r14
    b09b:	5d                   	pop    %rbp
    b09c:	c3                   	retq   

000000000000b09d <func_26>:
    b09d:	f3 0f 1e fa          	endbr64 
    b0a1:	55                   	push   %rbp
    b0a2:	48 89 e5             	mov    %rsp,%rbp
    b0a5:	89 7d ec             	mov    %edi,-0x14(%rbp)
    b0a8:	89 f0                	mov    %esi,%eax
    b0aa:	48 89 55 e0          	mov    %rdx,-0x20(%rbp)
    b0ae:	48 89 4d d8          	mov    %rcx,-0x28(%rbp)
    b0b2:	66 89 45 e8          	mov    %ax,-0x18(%rbp)
    b0b6:	c6 45 ff 58          	movb   $0x58,-0x1(%rbp)
    b0ba:	48 8d 05 7f 69 01 00 	lea    0x1697f(%rip),%rax        # 21a40 <g_132>
    b0c1:	48 8b 00             	mov    (%rax),%rax
    b0c4:	8b 08                	mov    (%rax),%ecx
    b0c6:	0f b6 55 ff          	movzbl -0x1(%rbp),%edx
    b0ca:	48 8d 05 6f 69 01 00 	lea    0x1696f(%rip),%rax        # 21a40 <g_132>
    b0d1:	48 8b 00             	mov    (%rax),%rax
    b0d4:	21 ca                	and    %ecx,%edx
    b0d6:	89 10                	mov    %edx,(%rax)
    b0d8:	48 8b 05 61 69 01 00 	mov    0x16961(%rip),%rax        # 21a40 <g_132>
    b0df:	48 8b 55 d8          	mov    -0x28(%rbp),%rdx
    b0e3:	8b 12                	mov    (%rdx),%edx
    b0e5:	89 10                	mov    %edx,(%rax)
    b0e7:	48 8b 45 d8          	mov    -0x28(%rbp),%rax
    b0eb:	8b 00                	mov    (%rax),%eax
    b0ed:	5d                   	pop    %rbp
    b0ee:	c3                   	retq   

000000000000b0ef <func_47>:
    b0ef:	f3 0f 1e fa          	endbr64 
    b0f3:	55                   	push   %rbp
    b0f4:	48 89 e5             	mov    %rsp,%rbp
    b0f7:	41 56                	push   %r14
    b0f9:	41 55                	push   %r13
    b0fb:	41 54                	push   %r12
    b0fd:	53                   	push   %rbx
    b0fe:	48 81 ec e0 0e 00 00 	sub    $0xee0,%rsp
    b105:	48 89 bd 08 f1 ff ff 	mov    %rdi,-0xef8(%rbp)
    b10c:	64 48 8b 04 25 28 00 	mov    %fs:0x28,%rax
    b113:	00 00 
    b115:	48 89 45 d8          	mov    %rax,-0x28(%rbp)
    b119:	31 c0                	xor    %eax,%eax
    b11b:	c7 85 4c f1 ff ff 01 	movl   $0x1,-0xeb4(%rbp)
    b122:	00 00 00 
    b125:	c7 85 1c f1 ff ff 72 	movl   $0xa1fd172,-0xee4(%rbp)
    b12c:	d1 1f 0a 
    b12f:	48 8d 05 0a 33 01 00 	lea    0x1330a(%rip),%rax        # 1e440 <g_1767>
    b136:	48 89 85 50 f4 ff ff 	mov    %rax,-0xbb0(%rbp)
    b13d:	48 8d 05 fc 32 01 00 	lea    0x132fc(%rip),%rax        # 1e440 <g_1767>
    b144:	48 89 85 58 f4 ff ff 	mov    %rax,-0xba8(%rbp)
    b14b:	48 8d 05 66 32 01 00 	lea    0x13266(%rip),%rax        # 1e3b8 <g_1765>
    b152:	48 89 85 60 f4 ff ff 	mov    %rax,-0xba0(%rbp)
    b159:	48 8d 05 e0 32 01 00 	lea    0x132e0(%rip),%rax        # 1e440 <g_1767>
    b160:	48 89 85 68 f4 ff ff 	mov    %rax,-0xb98(%rbp)
    b167:	48 8d 05 d2 32 01 00 	lea    0x132d2(%rip),%rax        # 1e440 <g_1767>
    b16e:	48 89 85 70 f4 ff ff 	mov    %rax,-0xb90(%rbp)
    b175:	48 8d 05 3c 32 01 00 	lea    0x1323c(%rip),%rax        # 1e3b8 <g_1765>
    b17c:	48 89 85 78 f4 ff ff 	mov    %rax,-0xb88(%rbp)
    b183:	48 8d 05 b6 32 01 00 	lea    0x132b6(%rip),%rax        # 1e440 <g_1767>
    b18a:	48 89 85 80 f4 ff ff 	mov    %rax,-0xb80(%rbp)
    b191:	48 8d 05 a8 32 01 00 	lea    0x132a8(%rip),%rax        # 1e440 <g_1767>
    b198:	48 89 85 88 f4 ff ff 	mov    %rax,-0xb78(%rbp)
    b19f:	48 8d 05 12 32 01 00 	lea    0x13212(%rip),%rax        # 1e3b8 <g_1765>
    b1a6:	48 89 85 90 f4 ff ff 	mov    %rax,-0xb70(%rbp)
    b1ad:	48 8d 05 8c 32 01 00 	lea    0x1328c(%rip),%rax        # 1e440 <g_1767>
    b1b4:	48 89 85 98 f4 ff ff 	mov    %rax,-0xb68(%rbp)
    b1bb:	48 8d 85 50 f4 ff ff 	lea    -0xbb0(%rbp),%rax
    b1c2:	48 83 c0 30          	add    $0x30,%rax
    b1c6:	48 89 85 f8 f1 ff ff 	mov    %rax,-0xe08(%rbp)
    b1cd:	48 8d 05 ac 6c 01 00 	lea    0x16cac(%rip),%rax        # 21e80 <g_1789+0x2a0>
    b1d4:	48 89 85 00 f2 ff ff 	mov    %rax,-0xe00(%rbp)
    b1db:	c7 85 a0 f3 ff ff 75 	movl   $0x26c7a875,-0xc60(%rbp)
    b1e2:	a8 c7 26 
    b1e5:	c7 85 a4 f3 ff ff 9f 	movl   $0xa198d99f,-0xc5c(%rbp)
    b1ec:	d9 98 a1 
    b1ef:	c7 85 a8 f3 ff ff 9f 	movl   $0xa198d99f,-0xc58(%rbp)
    b1f6:	d9 98 a1 
    b1f9:	c7 85 ac f3 ff ff 75 	movl   $0x26c7a875,-0xc54(%rbp)
    b200:	a8 c7 26 
    b203:	c7 85 b0 f3 ff ff 9f 	movl   $0xa198d99f,-0xc50(%rbp)
    b20a:	d9 98 a1 
    b20d:	c7 85 b4 f3 ff ff 9f 	movl   $0xa198d99f,-0xc4c(%rbp)
    b214:	d9 98 a1 
    b217:	c7 85 30 f1 ff ff 02 	movl   $0x2,-0xed0(%rbp)
    b21e:	00 00 00 
    b221:	c7 85 24 f1 ff ff 06 	movl   $0x6,-0xedc(%rbp)
    b228:	00 00 00 
    b22b:	c7 85 50 f1 ff ff 06 	movl   $0x6,-0xeb0(%rbp)
    b232:	00 00 00 
    b235:	48 8d 05 94 6c 01 00 	lea    0x16c94(%rip),%rax        # 21ed0 <g_1983>
    b23c:	48 89 85 08 f2 ff ff 	mov    %rax,-0xdf8(%rbp)
    b243:	c7 85 54 f1 ff ff a5 	movl   $0x22b647a5,-0xeac(%rbp)
    b24a:	47 b6 22 
    b24d:	48 8d 05 8c 3a 01 00 	lea    0x13a8c(%rip),%rax        # 1ece0 <g_2054>
    b254:	48 89 85 10 f2 ff ff 	mov    %rax,-0xdf0(%rbp)
    b25b:	48 8d 05 56 ad 01 00 	lea    0x1ad56(%rip),%rax        # 25fb8 <g_2056>
    b262:	48 89 85 18 f2 ff ff 	mov    %rax,-0xde8(%rbp)
    b269:	48 8d 85 10 f7 ff ff 	lea    -0x8f0(%rbp),%rax
    b270:	48 8d 15 a9 df 00 00 	lea    0xdfa9(%rip),%rdx        # 19220 <g_2228+0x20>
    b277:	b9 40 00 00 00       	mov    $0x40,%ecx
    b27c:	48 89 c7             	mov    %rax,%rdi
    b27f:	48 89 d6             	mov    %rdx,%rsi
    b282:	f3 48 a5             	rep movsq %ds:(%rsi),%es:(%rdi)
    b285:	48 b8 81 3d e6 31 77 	movabs $0xe65a307731e63d81,%rax
    b28c:	30 5a e6 
    b28f:	48 89 85 b0 f1 ff ff 	mov    %rax,-0xe50(%rbp)
    b296:	48 8d 05 1b 69 01 00 	lea    0x1691b(%rip),%rax        # 21bb8 <g_1470>
    b29d:	48 89 85 b8 f1 ff ff 	mov    %rax,-0xe48(%rbp)
    b2a4:	c7 85 28 f1 ff ff 00 	movl   $0x0,-0xed8(%rbp)
    b2ab:	00 00 00 
    b2ae:	eb 1b                	jmp    b2cb <func_47+0x1dc>
    b2b0:	8b 85 28 f1 ff ff    	mov    -0xed8(%rbp),%eax
    b2b6:	48 98                	cltq   
    b2b8:	48 c7 84 c5 20 f4 ff 	movq   $0x0,-0xbe0(%rbp,%rax,8)
    b2bf:	ff 00 00 00 00 
    b2c4:	83 85 28 f1 ff ff 01 	addl   $0x1,-0xed8(%rbp)
    b2cb:	83 bd 28 f1 ff ff 05 	cmpl   $0x5,-0xed8(%rbp)
    b2d2:	7e dc                	jle    b2b0 <func_47+0x1c1>
    b2d4:	83 bd 4c f1 ff ff 00 	cmpl   $0x0,-0xeb4(%rbp)
    b2db:	0f 84 d8 00 00 00    	je     b3b9 <func_47+0x2ca>
    b2e1:	48 c7 85 18 f3 ff ff 	movq   $0x0,-0xce8(%rbp)
    b2e8:	00 00 00 00 
    b2ec:	c7 85 80 f1 ff ff f6 	movl   $0xfffffff6,-0xe80(%rbp)
    b2f3:	ff ff ff 
    b2f6:	48 c7 85 d8 f1 ff ff 	movq   $0x0,-0xe28(%rbp)
    b2fd:	00 00 00 00 
    b301:	c7 85 84 f1 ff ff 6e 	movl   $0x9d022c6e,-0xe7c(%rbp)
    b308:	2c 02 9d 
    b30b:	c7 05 6f 2d 01 00 15 	movl   $0x15,0x12d6f(%rip)        # 1e084 <g_51>
    b312:	00 00 00 
    b315:	eb 6f                	jmp    b386 <func_47+0x297>
    b317:	48 b8 c3 a3 b3 b2 04 	movabs $0xd830bf04b2b3a3c3,%rax
    b31e:	bf 30 d8 
    b321:	48 89 85 e0 f1 ff ff 	mov    %rax,-0xe20(%rbp)
    b328:	48 8d 05 81 30 01 00 	lea    0x13081(%rip),%rax        # 1e3b0 <g_1757>
    b32f:	48 89 85 e8 f1 ff ff 	mov    %rax,-0xe18(%rbp)
    b336:	48 8d 85 e8 f1 ff ff 	lea    -0xe18(%rbp),%rax
    b33d:	48 89 85 20 f3 ff ff 	mov    %rax,-0xce0(%rbp)
    b344:	c7 85 2c f1 ff ff 00 	movl   $0x0,-0xed4(%rbp)
    b34b:	00 00 00 
    b34e:	eb 1e                	jmp    b36e <func_47+0x27f>
    b350:	8b 85 2c f1 ff ff    	mov    -0xed4(%rbp),%eax
    b356:	48 98                	cltq   
    b358:	48 8d 95 d8 f1 ff ff 	lea    -0xe28(%rbp),%rdx
    b35f:	48 89 94 c5 10 f9 ff 	mov    %rdx,-0x6f0(%rbp,%rax,8)
    b366:	ff 
    b367:	83 85 2c f1 ff ff 01 	addl   $0x1,-0xed4(%rbp)
    b36e:	83 bd 2c f1 ff ff 02 	cmpl   $0x2,-0xed4(%rbp)
    b375:	7e d9                	jle    b350 <func_47+0x261>
    b377:	8b 05 07 2d 01 00    	mov    0x12d07(%rip),%eax        # 1e084 <g_51>
    b37d:	83 c0 01             	add    $0x1,%eax
    b380:	89 05 fe 2c 01 00    	mov    %eax,0x12cfe(%rip)        # 1e084 <g_51>
    b386:	8b 05 f8 2c 01 00    	mov    0x12cf8(%rip),%eax        # 1e084 <g_51>
    b38c:	83 f8 1b             	cmp    $0x1b,%eax
    b38f:	7e 86                	jle    b317 <func_47+0x228>
    b391:	48 c7 05 1c 2f 01 00 	movq   $0x0,0x12f1c(%rip)        # 1e2b8 <g_1682>
    b398:	00 00 00 00 
    b39c:	90                   	nop
    b39d:	48 8b 05 14 2f 01 00 	mov    0x12f14(%rip),%rax        # 1e2b8 <g_1682>
    b3a4:	48 83 f8 09          	cmp    $0x9,%rax
    b3a8:	0f 85 94 0e 00 00    	jne    c242 <func_47+0x1153>
    b3ae:	8b 85 4c f1 ff ff    	mov    -0xeb4(%rbp),%eax
    b3b4:	e9 0e 15 00 00       	jmpq   c8c7 <func_47+0x17d8>
    b3b9:	48 8d 85 50 f4 ff ff 	lea    -0xbb0(%rbp),%rax
    b3c0:	48 83 c0 30          	add    $0x30,%rax
    b3c4:	48 89 85 20 f2 ff ff 	mov    %rax,-0xde0(%rbp)
    b3cb:	c7 85 58 f1 ff ff fe 	movl   $0xfffffffe,-0xea8(%rbp)
    b3d2:	ff ff ff 
    b3d5:	c7 85 20 f1 ff ff fb 	movl   $0xfffffffb,-0xee0(%rbp)
    b3dc:	ff ff ff 
    b3df:	48 8d 05 ca 2d 01 00 	lea    0x12dca(%rip),%rax        # 1e1b0 <g_632>
    b3e6:	48 89 85 f0 f1 ff ff 	mov    %rax,-0xe10(%rbp)
    b3ed:	48 b8 b2 1b 74 e1 b1 	movabs $0x3874c5b1e1741bb2,%rax
    b3f4:	c5 74 38 
    b3f7:	48 89 85 a0 f4 ff ff 	mov    %rax,-0xb60(%rbp)
    b3fe:	48 89 85 a8 f4 ff ff 	mov    %rax,-0xb58(%rbp)
    b405:	48 89 85 b0 f4 ff ff 	mov    %rax,-0xb50(%rbp)
    b40c:	48 89 85 b8 f4 ff ff 	mov    %rax,-0xb48(%rbp)
    b413:	48 89 85 c0 f4 ff ff 	mov    %rax,-0xb40(%rbp)
    b41a:	48 89 85 c8 f4 ff ff 	mov    %rax,-0xb38(%rbp)
    b421:	48 89 85 d0 f4 ff ff 	mov    %rax,-0xb30(%rbp)
    b428:	48 89 85 d8 f4 ff ff 	mov    %rax,-0xb28(%rbp)
    b42f:	48 89 85 e0 f4 ff ff 	mov    %rax,-0xb20(%rbp)
    b436:	48 89 85 e8 f4 ff ff 	mov    %rax,-0xb18(%rbp)
    b43d:	c7 85 5c f1 ff ff 00 	movl   $0x0,-0xea4(%rbp)
    b444:	00 00 00 
    b447:	c6 85 1b f1 ff ff fb 	movb   $0xfb,-0xee5(%rbp)
    b44e:	48 8d 05 43 67 01 00 	lea    0x16743(%rip),%rax        # 21b98 <g_1471+0x18>
    b455:	48 89 85 28 f2 ff ff 	mov    %rax,-0xdd8(%rbp)
    b45c:	c7 85 34 f1 ff ff 00 	movl   $0x0,-0xecc(%rbp)
    b463:	00 00 00 
    b466:	eb 1a                	jmp    b482 <func_47+0x393>
    b468:	8b 85 34 f1 ff ff    	mov    -0xecc(%rbp),%eax
    b46e:	48 98                	cltq   
    b470:	c7 84 85 e0 f3 ff ff 	movl   $0x6997aa6b,-0xc20(%rbp,%rax,4)
    b477:	6b aa 97 69 
    b47b:	83 85 34 f1 ff ff 01 	addl   $0x1,-0xecc(%rbp)
    b482:	83 bd 34 f1 ff ff 06 	cmpl   $0x6,-0xecc(%rbp)
    b489:	7e dd                	jle    b468 <func_47+0x379>
    b48b:	48 8b 85 08 f1 ff ff 	mov    -0xef8(%rbp),%rax
    b492:	0f b6 00             	movzbl (%rax),%eax
    b495:	0f be d0             	movsbl %al,%edx
    b498:	48 8b 85 08 f1 ff ff 	mov    -0xef8(%rbp),%rax
    b49f:	0f b6 00             	movzbl (%rax),%eax
    b4a2:	0f be c0             	movsbl %al,%eax
    b4a5:	89 d6                	mov    %edx,%esi
    b4a7:	89 c7                	mov    %eax,%edi
    b4a9:	e8 83 cd ff ff       	callq  8231 <safe_mod_func_int8_t_s_s>
    b4ae:	0f be d0             	movsbl %al,%edx
    b4b1:	48 8b 85 f8 f1 ff ff 	mov    -0xe08(%rbp),%rax
    b4b8:	48 3b 85 20 f2 ff ff 	cmp    -0xde0(%rbp),%rax
    b4bf:	0f 94 c0             	sete   %al
    b4c2:	0f b6 c0             	movzbl %al,%eax
    b4c5:	09 d0                	or     %edx,%eax
    b4c7:	85 c0                	test   %eax,%eax
    b4c9:	0f 84 35 0c 00 00    	je     c104 <func_47+0x1015>
    b4cf:	48 c7 85 38 f2 ff ff 	movq   $0xffffffffffffffff,-0xdc8(%rbp)
    b4d6:	ff ff ff ff 
    b4da:	48 c7 85 c0 f1 ff ff 	movq   $0x0,-0xe40(%rbp)
    b4e1:	00 00 00 00 
    b4e5:	48 8d 05 cc 66 01 00 	lea    0x166cc(%rip),%rax        # 21bb8 <g_1470>
    b4ec:	48 89 85 40 f2 ff ff 	mov    %rax,-0xdc0(%rbp)
    b4f3:	48 8d 05 9e 65 01 00 	lea    0x1659e(%rip),%rax        # 21a98 <g_627>
    b4fa:	48 89 85 48 f2 ff ff 	mov    %rax,-0xdb8(%rbp)
    b501:	48 8d 85 10 f9 ff ff 	lea    -0x6f0(%rbp),%rax
    b508:	48 8d 15 f1 46 01 00 	lea    0x146f1(%rip),%rdx        # 1fc00 <g_2204+0xee0>
    b50f:	b9 d2 00 00 00       	mov    $0xd2,%ecx
    b514:	48 89 c7             	mov    %rax,%rdi
    b517:	48 89 d6             	mov    %rdx,%rsi
    b51a:	f3 48 a5             	rep movsq %ds:(%rsi),%es:(%rdi)
    b51d:	c7 85 60 f1 ff ff d6 	movl   $0xfa1b9cd6,-0xea0(%rbp)
    b524:	9c 1b fa 
    b527:	c7 85 64 f1 ff ff d9 	movl   $0xdc5689d9,-0xe9c(%rbp)
    b52e:	89 56 dc 
    b531:	c7 85 68 f1 ff ff 01 	movl   $0x1,-0xe98(%rbp)
    b538:	00 00 00 
    b53b:	48 8d 05 0e 2d 01 00 	lea    0x12d0e(%rip),%rax        # 1e250 <g_930>
    b542:	48 89 85 50 f2 ff ff 	mov    %rax,-0xdb0(%rbp)
    b549:	48 8d 05 20 65 01 00 	lea    0x16520(%rip),%rax        # 21a70 <g_526>
    b550:	48 89 85 c8 f1 ff ff 	mov    %rax,-0xe38(%rbp)
    b557:	48 8d 85 c8 f1 ff ff 	lea    -0xe38(%rbp),%rax
    b55e:	48 89 85 d0 f1 ff ff 	mov    %rax,-0xe30(%rbp)
    b565:	48 8d 05 64 69 01 00 	lea    0x16964(%rip),%rax        # 21ed0 <g_1983>
    b56c:	48 89 85 d8 f1 ff ff 	mov    %rax,-0xe28(%rbp)
    b573:	c7 85 6c f1 ff ff f8 	movl   $0xfffffff8,-0xe94(%rbp)
    b57a:	ff ff ff 
    b57d:	c7 85 38 f1 ff ff 00 	movl   $0x0,-0xec8(%rbp)
    b584:	00 00 00 
    b587:	eb 1b                	jmp    b5a4 <func_47+0x4b5>
    b589:	8b 85 38 f1 ff ff    	mov    -0xec8(%rbp),%eax
    b58f:	48 98                	cltq   
    b591:	48 c7 84 c5 90 f3 ff 	movq   $0x0,-0xc70(%rbp,%rax,8)
    b598:	ff 00 00 00 00 
    b59d:	83 85 38 f1 ff ff 01 	addl   $0x1,-0xec8(%rbp)
    b5a4:	83 bd 38 f1 ff ff 01 	cmpl   $0x1,-0xec8(%rbp)
    b5ab:	7e dc                	jle    b589 <func_47+0x49a>
    b5ad:	c7 85 38 f1 ff ff 00 	movl   $0x0,-0xec8(%rbp)
    b5b4:	00 00 00 
    b5b7:	eb 1a                	jmp    b5d3 <func_47+0x4e4>
    b5b9:	8b 85 38 f1 ff ff    	mov    -0xec8(%rbp),%eax
    b5bf:	48 98                	cltq   
    b5c1:	c7 84 85 84 f3 ff ff 	movl   $0xfffffff6,-0xc7c(%rbp,%rax,4)
    b5c8:	f6 ff ff ff 
    b5cc:	83 85 38 f1 ff ff 01 	addl   $0x1,-0xec8(%rbp)
    b5d3:	83 bd 38 f1 ff ff 02 	cmpl   $0x2,-0xec8(%rbp)
    b5da:	7e dd                	jle    b5b9 <func_47+0x4ca>
    b5dc:	c7 85 38 f1 ff ff 00 	movl   $0x0,-0xec8(%rbp)
    b5e3:	00 00 00 
    b5e6:	eb 1e                	jmp    b606 <func_47+0x517>
    b5e8:	8b 85 38 f1 ff ff    	mov    -0xec8(%rbp),%eax
    b5ee:	48 98                	cltq   
    b5f0:	48 8d 95 d0 f1 ff ff 	lea    -0xe30(%rbp),%rdx
    b5f7:	48 89 94 c5 c0 f3 ff 	mov    %rdx,-0xc40(%rbp,%rax,8)
    b5fe:	ff 
    b5ff:	83 85 38 f1 ff ff 01 	addl   $0x1,-0xec8(%rbp)
    b606:	83 bd 38 f1 ff ff 02 	cmpl   $0x2,-0xec8(%rbp)
    b60d:	7e d9                	jle    b5e8 <func_47+0x4f9>
    b60f:	90                   	nop
    b610:	c6 05 a1 2a 01 00 00 	movb   $0x0,0x12aa1(%rip)        # 1e0b8 <g_124>
    b617:	e9 82 02 00 00       	jmpq   b89e <func_47+0x7af>
    b61c:	48 8d 85 c0 f1 ff ff 	lea    -0xe40(%rbp),%rax
    b623:	48 89 85 58 f2 ff ff 	mov    %rax,-0xda8(%rbp)
    b62a:	c7 85 70 f1 ff ff 05 	movl   $0x5,-0xe90(%rbp)
    b631:	00 00 00 
    b634:	48 8d 05 7d 64 01 00 	lea    0x1647d(%rip),%rax        # 21ab8 <g_911>
    b63b:	48 89 85 60 f2 ff ff 	mov    %rax,-0xda0(%rbp)
    b642:	48 c7 85 68 f2 ff ff 	movq   $0x0,-0xd98(%rbp)
    b649:	00 00 00 00 
    b64d:	48 8d 85 90 f3 ff ff 	lea    -0xc70(%rbp),%rax
    b654:	48 83 c0 08          	add    $0x8,%rax
    b658:	48 89 85 70 f2 ff ff 	mov    %rax,-0xd90(%rbp)
    b65f:	c7 85 3c f1 ff ff 00 	movl   $0x0,-0xec4(%rbp)
    b666:	00 00 00 
    b669:	eb 1a                	jmp    b685 <func_47+0x596>
    b66b:	8b 85 3c f1 ff ff    	mov    -0xec4(%rbp),%eax
    b671:	48 98                	cltq   
    b673:	c7 84 85 7c f3 ff ff 	movl   $0xacd79791,-0xc84(%rbp,%rax,4)
    b67a:	91 97 d7 ac 
    b67e:	83 85 3c f1 ff ff 01 	addl   $0x1,-0xec4(%rbp)
    b685:	83 bd 3c f1 ff ff 01 	cmpl   $0x1,-0xec4(%rbp)
    b68c:	7e dd                	jle    b66b <func_47+0x57c>
    b68e:	c7 85 3c f1 ff ff 00 	movl   $0x0,-0xec4(%rbp)
    b695:	00 00 00 
    b698:	eb 1a                	jmp    b6b4 <func_47+0x5c5>
    b69a:	8b 85 3c f1 ff ff    	mov    -0xec4(%rbp),%eax
    b6a0:	48 98                	cltq   
    b6a2:	c7 84 85 00 f4 ff ff 	movl   $0x1,-0xc00(%rbp,%rax,4)
    b6a9:	01 00 00 00 
    b6ad:	83 85 3c f1 ff ff 01 	addl   $0x1,-0xec4(%rbp)
    b6b4:	83 bd 3c f1 ff ff 06 	cmpl   $0x6,-0xec4(%rbp)
    b6bb:	7e dd                	jle    b69a <func_47+0x5ab>
    b6bd:	8b 9d 4c f1 ff ff    	mov    -0xeb4(%rbp),%ebx
    b6c3:	48 8b 05 ee 63 01 00 	mov    0x163ee(%rip),%rax        # 21ab8 <g_911>
    b6ca:	48 8b 00             	mov    (%rax),%rax
    b6cd:	48 8b 00             	mov    (%rax),%rax
    b6d0:	48 8b 00             	mov    (%rax),%rax
    b6d3:	0f b7 00             	movzwl (%rax),%eax
    b6d6:	0f b7 c0             	movzwl %ax,%eax
    b6d9:	89 c6                	mov    %eax,%esi
    b6db:	bf fb ff 00 00       	mov    $0xfffb,%edi
    b6e0:	e8 58 d6 ff ff       	callq  8d3d <safe_mul_func_uint16_t_u_u>
    b6e5:	0f b7 c0             	movzwl %ax,%eax
    b6e8:	be 02 00 00 00       	mov    $0x2,%esi
    b6ed:	89 c7                	mov    %eax,%edi
    b6ef:	e8 31 d8 ff ff       	callq  8f25 <safe_div_func_uint32_t_u_u>
    b6f4:	48 8b 05 d5 63 01 00 	mov    0x163d5(%rip),%rax        # 21ad0 <g_1187>
    b6fb:	48 8b 00             	mov    (%rax),%rax
    b6fe:	48 8b 00             	mov    (%rax),%rax
    b701:	89 85 80 f3 ff ff    	mov    %eax,-0xc80(%rbp)
    b707:	48 8b 95 c0 f1 ff ff 	mov    -0xe40(%rbp),%rdx
    b70e:	48 8b 85 58 f2 ff ff 	mov    -0xda8(%rbp),%rax
    b715:	48 89 10             	mov    %rdx,(%rax)
    b718:	48 8b 85 58 f2 ff ff 	mov    -0xda8(%rbp),%rax
    b71f:	48 8b 00             	mov    (%rax),%rax
    b722:	48 39 85 40 f2 ff ff 	cmp    %rax,-0xdc0(%rbp)
    b729:	0f 94 c0             	sete   %al
    b72c:	0f b6 c0             	movzbl %al,%eax
    b72f:	89 de                	mov    %ebx,%esi
    b731:	89 c7                	mov    %eax,%edi
    b733:	e8 69 cb ff ff       	callq  82a1 <safe_lshift_func_int8_t_s_s>
    b738:	0f be c0             	movsbl %al,%eax
    b73b:	8b 95 70 f1 ff ff    	mov    -0xe90(%rbp),%edx
    b741:	89 d6                	mov    %edx,%esi
    b743:	89 c7                	mov    %eax,%edi
    b745:	e8 82 cf ff ff       	callq  86cc <safe_mod_func_int32_t_s_s>
    b74a:	48 8b 05 07 63 01 00 	mov    0x16307(%rip),%rax        # 21a58 <g_214>
    b751:	8b 00                	mov    (%rax),%eax
    b753:	89 c2                	mov    %eax,%edx
    b755:	8b 05 2d 7c 01 00    	mov    0x17c2d(%rip),%eax        # 23388 <g_404>
    b75b:	c1 e0 02             	shl    $0x2,%eax
    b75e:	c1 f8 02             	sar    $0x2,%eax
    b761:	89 d6                	mov    %edx,%esi
    b763:	89 c7                	mov    %eax,%edi
    b765:	e8 93 d7 ff ff       	callq  8efd <safe_mod_func_uint32_t_u_u>
    b76a:	83 bd 4c f1 ff ff 00 	cmpl   $0x0,-0xeb4(%rbp)
    b771:	0f 84 81 00 00 00    	je     b7f8 <func_47+0x709>
    b777:	48 8d 05 ca 62 01 00 	lea    0x162ca(%rip),%rax        # 21a48 <g_197>
    b77e:	48 89 85 78 f2 ff ff 	mov    %rax,-0xd88(%rbp)
    b785:	48 c7 05 28 2b 01 00 	movq   $0x0,0x12b28(%rip)        # 1e2b8 <g_1682>
    b78c:	00 00 00 00 
    b790:	eb 3c                	jmp    b7ce <func_47+0x6df>
    b792:	48 8d 85 30 f5 ff ff 	lea    -0xad0(%rbp),%rax
    b799:	48 8d 15 00 4b 01 00 	lea    0x14b00(%rip),%rdx        # 202a0 <g_2204+0x1580>
    b7a0:	b9 28 00 00 00       	mov    $0x28,%ecx
    b7a5:	48 89 c7             	mov    %rax,%rdi
    b7a8:	48 89 d6             	mov    %rdx,%rsi
    b7ab:	f3 48 a5             	rep movsq %ds:(%rsi),%es:(%rdi)
    b7ae:	48 8b 85 78 f2 ff ff 	mov    -0xd88(%rbp),%rax
    b7b5:	48 89 85 58 f6 ff ff 	mov    %rax,-0x9a8(%rbp)
    b7bc:	48 8b 05 f5 2a 01 00 	mov    0x12af5(%rip),%rax        # 1e2b8 <g_1682>
    b7c3:	48 83 c0 01          	add    $0x1,%rax
    b7c7:	48 89 05 ea 2a 01 00 	mov    %rax,0x12aea(%rip)        # 1e2b8 <g_1682>
    b7ce:	48 8b 05 e3 2a 01 00 	mov    0x12ae3(%rip),%rax        # 1e2b8 <g_1682>
    b7d5:	48 83 f8 01          	cmp    $0x1,%rax
    b7d9:	76 b7                	jbe    b792 <func_47+0x6a3>
    b7db:	48 83 bd 38 f2 ff ff 	cmpq   $0x0,-0xdc8(%rbp)
    b7e2:	00 
    b7e3:	0f 85 c6 00 00 00    	jne    b8af <func_47+0x7c0>
    b7e9:	48 83 bd 38 f2 ff ff 	cmpq   $0x0,-0xdc8(%rbp)
    b7f0:	00 
    b7f1:	74 11                	je     b804 <func_47+0x715>
    b7f3:	e9 b8 00 00 00       	jmpq   b8b0 <func_47+0x7c1>
    b7f8:	48 8b 85 38 f2 ff ff 	mov    -0xdc8(%rbp),%rax
    b7ff:	e9 c3 10 00 00       	jmpq   c8c7 <func_47+0x17d8>
    b804:	48 8d 05 35 62 01 00 	lea    0x16235(%rip),%rax        # 21a40 <g_132>
    b80b:	48 8b 00             	mov    (%rax),%rax
    b80e:	8b 10                	mov    (%rax),%edx
    b810:	48 8d 05 29 62 01 00 	lea    0x16229(%rip),%rax        # 21a40 <g_132>
    b817:	48 8b 00             	mov    (%rax),%rax
    b81a:	83 e2 07             	and    $0x7,%edx
    b81d:	89 10                	mov    %edx,(%rax)
    b81f:	48 8b 05 32 62 01 00 	mov    0x16232(%rip),%rax        # 21a58 <g_214>
    b826:	c7 00 08 00 00 00    	movl   $0x8,(%rax)
    b82c:	8b 85 18 f4 ff ff    	mov    -0xbe8(%rbp),%eax
    b832:	8b 95 1c f1 ff ff    	mov    -0xee4(%rbp),%edx
    b838:	21 d0                	and    %edx,%eax
    b83a:	89 85 1c f1 ff ff    	mov    %eax,-0xee4(%rbp)
    b840:	48 8b 05 f9 61 01 00 	mov    0x161f9(%rip),%rax        # 21a40 <g_132>
    b847:	8b 00                	mov    (%rax),%eax
    b849:	85 c0                	test   %eax,%eax
    b84b:	75 40                	jne    b88d <func_47+0x79e>
    b84d:	c7 05 49 2a 01 00 01 	movl   $0x1,0x12a49(%rip)        # 1e2a0 <g_1579>
    b854:	00 00 00 
    b857:	eb 28                	jmp    b881 <func_47+0x792>
    b859:	48 c7 85 80 f2 ff ff 	movq   $0x0,-0xd80(%rbp)
    b860:	00 00 00 00 
    b864:	48 8b 05 f5 61 01 00 	mov    0x161f5(%rip),%rax        # 21a60 <g_228>
    b86b:	48 89 85 c0 fb ff ff 	mov    %rax,-0x440(%rbp)
    b872:	8b 05 28 2a 01 00    	mov    0x12a28(%rip),%eax        # 1e2a0 <g_1579>
    b878:	83 e8 01             	sub    $0x1,%eax
    b87b:	89 05 1f 2a 01 00    	mov    %eax,0x12a1f(%rip)        # 1e2a0 <g_1579>
    b881:	8b 05 19 2a 01 00    	mov    0x12a19(%rip),%eax        # 1e2a0 <g_1579>
    b887:	85 c0                	test   %eax,%eax
    b889:	79 ce                	jns    b859 <func_47+0x76a>
    b88b:	eb 01                	jmp    b88e <func_47+0x79f>
    b88d:	90                   	nop
    b88e:	0f b6 05 23 28 01 00 	movzbl 0x12823(%rip),%eax        # 1e0b8 <g_124>
    b895:	83 c0 01             	add    $0x1,%eax
    b898:	88 05 1a 28 01 00    	mov    %al,0x1281a(%rip)        # 1e0b8 <g_124>
    b89e:	0f b6 05 13 28 01 00 	movzbl 0x12813(%rip),%eax        # 1e0b8 <g_124>
    b8a5:	3c 01                	cmp    $0x1,%al
    b8a7:	0f 86 6f fd ff ff    	jbe    b61c <func_47+0x52d>
    b8ad:	eb 01                	jmp    b8b0 <func_47+0x7c1>
    b8af:	90                   	nop
    b8b0:	48 8b 05 89 61 01 00 	mov    0x16189(%rip),%rax        # 21a40 <g_132>
    b8b7:	8b 00                	mov    (%rax),%eax
    b8b9:	85 c0                	test   %eax,%eax
    b8bb:	74 67                	je     b924 <func_47+0x835>
    b8bd:	c7 05 bd 29 01 00 0b 	movl   $0xb,0x129bd(%rip)        # 1e284 <g_1329>
    b8c4:	00 00 00 
    b8c7:	eb 4b                	jmp    b914 <func_47+0x825>
    b8c9:	48 8d 85 20 f1 ff ff 	lea    -0xee0(%rbp),%rax
    b8d0:	48 89 85 f0 f1 ff ff 	mov    %rax,-0xe10(%rbp)
    b8d7:	48 8b 05 7a 61 01 00 	mov    0x1617a(%rip),%rax        # 21a58 <g_214>
    b8de:	c7 00 40 9f b4 c9    	movl   $0xc9b49f40,(%rax)
    b8e4:	48 8b 05 55 61 01 00 	mov    0x16155(%rip),%rax        # 21a40 <g_132>
    b8eb:	8b 10                	mov    (%rax),%edx
    b8ed:	48 8b 05 4c 61 01 00 	mov    0x1614c(%rip),%rax        # 21a40 <g_132>
    b8f4:	83 e2 01             	and    $0x1,%edx
    b8f7:	89 10                	mov    %edx,(%rax)
    b8f9:	8b 05 85 29 01 00    	mov    0x12985(%rip),%eax        # 1e284 <g_1329>
    b8ff:	89 c0                	mov    %eax,%eax
    b901:	be 01 00 00 00       	mov    $0x1,%esi
    b906:	48 89 c7             	mov    %rax,%rdi
    b909:	e8 20 d7 ff ff       	callq  902e <safe_add_func_uint64_t_u_u>
    b90e:	89 05 70 29 01 00    	mov    %eax,0x12970(%rip)        # 1e284 <g_1329>
    b914:	8b 05 6a 29 01 00    	mov    0x1296a(%rip),%eax        # 1e284 <g_1329>
    b91a:	83 f8 31             	cmp    $0x31,%eax
    b91d:	75 aa                	jne    b8c9 <func_47+0x7da>
    b91f:	e9 f6 01 00 00       	jmpq   bb1a <func_47+0xa2b>
    b924:	c7 45 d1 01 01 01 01 	movl   $0x1010101,-0x2f(%rbp)
    b92b:	66 c7 45 d5 01 01    	movw   $0x101,-0x2b(%rbp)
    b931:	c6 45 d7 01          	movb   $0x1,-0x29(%rbp)
    b935:	c7 85 40 f1 ff ff 00 	movl   $0x0,-0xec0(%rbp)
    b93c:	00 00 00 
    b93f:	eb 1a                	jmp    b95b <func_47+0x86c>
    b941:	8b 85 40 f1 ff ff    	mov    -0xec0(%rbp),%eax
    b947:	48 98                	cltq   
    b949:	c7 84 85 00 f4 ff ff 	movl   $0xffffffff,-0xc00(%rbp,%rax,4)
    b950:	ff ff ff ff 
    b954:	83 85 40 f1 ff ff 01 	addl   $0x1,-0xec0(%rbp)
    b95b:	83 bd 40 f1 ff ff 03 	cmpl   $0x3,-0xec0(%rbp)
    b962:	7e dd                	jle    b941 <func_47+0x852>
    b964:	48 8d 05 d5 60 01 00 	lea    0x160d5(%rip),%rax        # 21a40 <g_132>
    b96b:	48 8b 00             	mov    (%rax),%rax
    b96e:	8b 00                	mov    (%rax),%eax
    b970:	85 c0                	test   %eax,%eax
    b972:	74 45                	je     b9b9 <func_47+0x8ca>
    b974:	48 c7 05 09 29 01 00 	movq   $0x0,0x12909(%rip)        # 1e288 <g_1347>
    b97b:	00 00 00 00 
    b97f:	eb 26                	jmp    b9a7 <func_47+0x8b8>
    b981:	0f b6 45 d1          	movzbl -0x2f(%rbp),%eax
    b985:	84 c0                	test   %al,%al
    b987:	0f 85 8c 01 00 00    	jne    bb19 <func_47+0xa2a>
    b98d:	8b 85 1c f1 ff ff    	mov    -0xee4(%rbp),%eax
    b993:	85 c0                	test   %eax,%eax
    b995:	48 8b 05 ec 28 01 00 	mov    0x128ec(%rip),%rax        # 1e288 <g_1347>
    b99c:	48 83 c0 01          	add    $0x1,%rax
    b9a0:	48 89 05 e1 28 01 00 	mov    %rax,0x128e1(%rip)        # 1e288 <g_1347>
    b9a7:	48 8b 05 da 28 01 00 	mov    0x128da(%rip),%rax        # 1e288 <g_1347>
    b9ae:	48 83 f8 06          	cmp    $0x6,%rax
    b9b2:	7e cd                	jle    b981 <func_47+0x892>
    b9b4:	e9 61 01 00 00       	jmpq   bb1a <func_47+0xa2b>
    b9b9:	c7 85 74 f1 ff ff ff 	movl   $0xffffffff,-0xe8c(%rbp)
    b9c0:	ff ff ff 
    b9c3:	48 8d 05 d6 26 01 00 	lea    0x126d6(%rip),%rax        # 1e0a0 <g_115>
    b9ca:	48 89 85 88 f2 ff ff 	mov    %rax,-0xd78(%rbp)
    b9d1:	48 8d 85 20 f1 ff ff 	lea    -0xee0(%rbp),%rax
    b9d8:	48 89 85 90 f2 ff ff 	mov    %rax,-0xd70(%rbp)
    b9df:	c7 85 44 f1 ff ff 00 	movl   $0x0,-0xebc(%rbp)
    b9e6:	00 00 00 
    b9e9:	eb 1b                	jmp    ba06 <func_47+0x917>
    b9eb:	8b 85 44 f1 ff ff    	mov    -0xebc(%rbp),%eax
    b9f1:	48 98                	cltq   
    b9f3:	48 c7 84 c5 30 f5 ff 	movq   $0x0,-0xad0(%rbp,%rax,8)
    b9fa:	ff 00 00 00 00 
    b9ff:	83 85 44 f1 ff ff 01 	addl   $0x1,-0xebc(%rbp)
    ba06:	83 bd 44 f1 ff ff 07 	cmpl   $0x7,-0xebc(%rbp)
    ba0d:	7e dc                	jle    b9eb <func_47+0x8fc>
    ba0f:	48 8b 85 08 f1 ff ff 	mov    -0xef8(%rbp),%rax
    ba16:	0f b6 00             	movzbl (%rax),%eax
    ba19:	0f b6 d8             	movzbl %al,%ebx
    ba1c:	48 8b 85 08 f1 ff ff 	mov    -0xef8(%rbp),%rax
    ba23:	0f b6 00             	movzbl (%rax),%eax
    ba26:	0f be c0             	movsbl %al,%eax
    ba29:	39 85 74 f1 ff ff    	cmp    %eax,-0xe8c(%rbp)
    ba2f:	0f 93 c0             	setae  %al
    ba32:	0f b6 d0             	movzbl %al,%edx
    ba35:	48 8b 85 f0 f1 ff ff 	mov    -0xe10(%rbp),%rax
    ba3c:	8b 00                	mov    (%rax),%eax
    ba3e:	48 98                	cltq   
    ba40:	48 39 c2             	cmp    %rax,%rdx
    ba43:	0f 9f c0             	setg   %al
    ba46:	44 0f b6 e0          	movzbl %al,%r12d
    ba4a:	48 8b 95 38 f2 ff ff 	mov    -0xdc8(%rbp),%rdx
    ba51:	48 8b 05 78 60 01 00 	mov    0x16078(%rip),%rax        # 21ad0 <g_1187>
    ba58:	48 8b 00             	mov    (%rax),%rax
    ba5b:	48 8b 00             	mov    (%rax),%rax
    ba5e:	48 0b 85 38 f2 ff ff 	or     -0xdc8(%rbp),%rax
    ba65:	48 89 c1             	mov    %rax,%rcx
    ba68:	48 8b 05 61 60 01 00 	mov    0x16061(%rip),%rax        # 21ad0 <g_1187>
    ba6f:	48 8b 00             	mov    (%rax),%rax
    ba72:	48 89 08             	mov    %rcx,(%rax)
    ba75:	48 8b 00             	mov    (%rax),%rax
    ba78:	48 89 d6             	mov    %rdx,%rsi
    ba7b:	48 89 c7             	mov    %rax,%rdi
    ba7e:	e8 74 cf ff ff       	callq  89f7 <safe_div_func_int64_t_s_s>
    ba83:	4c 89 e6             	mov    %r12,%rsi
    ba86:	48 89 c7             	mov    %rax,%rdi
    ba89:	e8 1a ce ff ff       	callq  88a8 <safe_sub_func_int64_t_s_s>
    ba8e:	48 85 c0             	test   %rax,%rax
    ba91:	75 0e                	jne    baa1 <func_47+0x9b2>
    ba93:	48 8b 85 08 f1 ff ff 	mov    -0xef8(%rbp),%rax
    ba9a:	0f b6 00             	movzbl (%rax),%eax
    ba9d:	84 c0                	test   %al,%al
    ba9f:	74 07                	je     baa8 <func_47+0x9b9>
    baa1:	b8 01 00 00 00       	mov    $0x1,%eax
    baa6:	eb 05                	jmp    baad <func_47+0x9be>
    baa8:	b8 00 00 00 00       	mov    $0x0,%eax
    baad:	89 c2                	mov    %eax,%edx
    baaf:	48 8b 85 f0 f1 ff ff 	mov    -0xe10(%rbp),%rax
    bab6:	8b 00                	mov    (%rax),%eax
    bab8:	21 d0                	and    %edx,%eax
    baba:	0f b6 c0             	movzbl %al,%eax
    babd:	89 de                	mov    %ebx,%esi
    babf:	89 c7                	mov    %eax,%edi
    bac1:	e8 94 d0 ff ff       	callq  8b5a <safe_add_func_uint8_t_u_u>
    bac6:	3c 12                	cmp    $0x12,%al
    bac8:	0f 95 c0             	setne  %al
    bacb:	0f b6 d0             	movzbl %al,%edx
    bace:	48 8b 05 03 61 01 00 	mov    0x16103(%rip),%rax        # 21bd8 <g_1790>
    bad5:	0f b7 00             	movzwl (%rax),%eax
    bad8:	0f b7 c0             	movzwl %ax,%eax
    badb:	89 d6                	mov    %edx,%esi
    badd:	89 c7                	mov    %eax,%edi
    badf:	e8 59 d2 ff ff       	callq  8d3d <safe_mul_func_uint16_t_u_u>
    bae4:	48 8d 15 55 5f 01 00 	lea    0x15f55(%rip),%rdx        # 21a40 <g_132>
    baeb:	48 8b 12             	mov    (%rdx),%rdx
    baee:	8b 0a                	mov    (%rdx),%ecx
    baf0:	0f b7 d0             	movzwl %ax,%edx
    baf3:	48 8d 05 46 5f 01 00 	lea    0x15f46(%rip),%rax        # 21a40 <g_132>
    bafa:	48 8b 00             	mov    (%rax),%rax
    bafd:	09 ca                	or     %ecx,%edx
    baff:	89 10                	mov    %edx,(%rax)
    bb01:	8b 05 89 27 01 00    	mov    0x12789(%rip),%eax        # 1e290 <g_1526>
    bb07:	85 c0                	test   %eax,%eax
    bb09:	74 05                	je     bb10 <func_47+0xa21>
    bb0b:	e9 00 fb ff ff       	jmpq   b610 <func_47+0x521>
    bb10:	83 ad 24 f1 ff ff 01 	subl   $0x1,-0xedc(%rbp)
    bb17:	eb 01                	jmp    bb1a <func_47+0xa2b>
    bb19:	90                   	nop
    bb1a:	48 8b 85 f0 f1 ff ff 	mov    -0xe10(%rbp),%rax
    bb21:	44 8b 28             	mov    (%rax),%r13d
    bb24:	48 8b 05 ad 60 01 00 	mov    0x160ad(%rip),%rax        # 21bd8 <g_1790>
    bb2b:	0f b7 00             	movzwl (%rax),%eax
    bb2e:	44 0f b7 f0          	movzwl %ax,%r14d
    bb32:	8b 85 a0 f3 ff ff    	mov    -0xc60(%rbp),%eax
    bb38:	0f bf d8             	movswl %ax,%ebx
    bb3b:	8b 85 b4 f3 ff ff    	mov    -0xc4c(%rbp),%eax
    bb41:	44 0f bf e0          	movswl %ax,%r12d
    bb45:	8b 85 30 f1 ff ff    	mov    -0xed0(%rbp),%eax
    bb4b:	0f b7 c0             	movzwl %ax,%eax
    bb4e:	89 c7                	mov    %eax,%edi
    bb50:	e8 94 d1 ff ff       	callq  8ce9 <safe_unary_minus_func_uint16_t_u>
    bb55:	98                   	cwtl   
    bb56:	44 89 e6             	mov    %r12d,%esi
    bb59:	89 c7                	mov    %eax,%edi
    bb5b:	e8 73 c8 ff ff       	callq  83d3 <safe_sub_func_int16_t_s_s>
    bb60:	be 00 00 00 00       	mov    $0x0,%esi
    bb65:	bf f9 00 00 00       	mov    $0xf9,%edi
    bb6a:	e8 24 d0 ff ff       	callq  8b93 <safe_mul_func_uint8_t_u_u>
    bb6f:	0f b6 c0             	movzbl %al,%eax
    bb72:	be 00 00 00 00       	mov    $0x0,%esi
    bb77:	48 89 c7             	mov    %rax,%rdi
    bb7a:	e8 cc d4 ff ff       	callq  904b <safe_sub_func_uint64_t_u_u>
    bb7f:	48 8b 85 c8 f3 ff ff 	mov    -0xc38(%rbp),%rax
    bb86:	48 89 05 3b 63 01 00 	mov    %rax,0x1633b(%rip)        # 21ec8 <g_1932>
    bb8d:	48 8b 05 34 63 01 00 	mov    0x16334(%rip),%rax        # 21ec8 <g_1932>
    bb94:	48 85 c0             	test   %rax,%rax
    bb97:	0f 94 c0             	sete   %al
    bb9a:	0f b6 c0             	movzbl %al,%eax
    bb9d:	8b 95 1c f1 ff ff    	mov    -0xee4(%rbp),%edx
    bba3:	21 d0                	and    %edx,%eax
    bba5:	98                   	cwtl   
    bba6:	89 de                	mov    %ebx,%esi
    bba8:	89 c7                	mov    %eax,%edi
    bbaa:	e8 46 c8 ff ff       	callq  83f5 <safe_mul_func_int16_t_s_s>
    bbaf:	66 85 c0             	test   %ax,%ax
    bbb2:	0f 94 c0             	sete   %al
    bbb5:	0f b6 c0             	movzbl %al,%eax
    bbb8:	44 09 f0             	or     %r14d,%eax
    bbbb:	44 21 e8             	and    %r13d,%eax
    bbbe:	85 c0                	test   %eax,%eax
    bbc0:	0f 84 52 02 00 00    	je     be18 <func_47+0xd29>
    bbc6:	48 c7 85 e0 f1 ff ff 	movq   $0x0,-0xe20(%rbp)
    bbcd:	00 00 00 00 
    bbd1:	48 8d 85 e0 f1 ff ff 	lea    -0xe20(%rbp),%rax
    bbd8:	48 89 85 e8 f1 ff ff 	mov    %rax,-0xe18(%rbp)
    bbdf:	48 8d 85 e8 f1 ff ff 	lea    -0xe18(%rbp),%rax
    bbe6:	48 89 85 10 f3 ff ff 	mov    %rax,-0xcf0(%rbp)
    bbed:	c7 85 7c f1 ff ff 47 	movl   $0x83ecb047,-0xe84(%rbp)
    bbf4:	b0 ec 83 
    bbf7:	48 8d 85 1b f1 ff ff 	lea    -0xee5(%rbp),%rax
    bbfe:	48 89 85 30 f5 ff ff 	mov    %rax,-0xad0(%rbp)
    bc05:	48 8d 85 1b f1 ff ff 	lea    -0xee5(%rbp),%rax
    bc0c:	48 89 85 38 f5 ff ff 	mov    %rax,-0xac8(%rbp)
    bc13:	48 8d 85 1b f1 ff ff 	lea    -0xee5(%rbp),%rax
    bc1a:	48 89 85 40 f5 ff ff 	mov    %rax,-0xac0(%rbp)
    bc21:	48 8d 85 1b f1 ff ff 	lea    -0xee5(%rbp),%rax
    bc28:	48 89 85 48 f5 ff ff 	mov    %rax,-0xab8(%rbp)
    bc2f:	48 8d 85 1b f1 ff ff 	lea    -0xee5(%rbp),%rax
    bc36:	48 89 85 50 f5 ff ff 	mov    %rax,-0xab0(%rbp)
    bc3d:	48 8d 85 1b f1 ff ff 	lea    -0xee5(%rbp),%rax
    bc44:	48 89 85 58 f5 ff ff 	mov    %rax,-0xaa8(%rbp)
    bc4b:	8b 85 4c f1 ff ff    	mov    -0xeb4(%rbp),%eax
    bc51:	0f b6 d8             	movzbl %al,%ebx
    bc54:	48 8b 05 b5 20 01 00 	mov    0x120b5(%rip),%rax        # 1dd10 <l_1950.4780+0xb0>
    bc5b:	48 85 c0             	test   %rax,%rax
    bc5e:	0f 94 c2             	sete   %dl
    bc61:	48 8b 05 48 62 01 00 	mov    0x16248(%rip),%rax        # 21eb0 <g_1936>
    bc68:	0f b6 d2             	movzbl %dl,%edx
    bc6b:	66 89 10             	mov    %dx,(%rax)
    bc6e:	48 8b 85 08 f1 ff ff 	mov    -0xef8(%rbp),%rax
    bc75:	0f b6 00             	movzbl (%rax),%eax
    bc78:	4c 0f be e0          	movsbq %al,%r12
    bc7c:	48 8b 85 f0 f1 ff ff 	mov    -0xe10(%rbp),%rax
    bc83:	8b 00                	mov    (%rax),%eax
    bc85:	89 c1                	mov    %eax,%ecx
    bc87:	48 8b 95 e8 f1 ff ff 	mov    -0xe18(%rbp),%rdx
    bc8e:	48 8b 85 10 f3 ff ff 	mov    -0xcf0(%rbp),%rax
    bc95:	48 89 10             	mov    %rdx,(%rax)
    bc98:	48 8b 85 10 f3 ff ff 	mov    -0xcf0(%rbp),%rax
    bc9f:	48 8b 00             	mov    (%rax),%rax
    bca2:	48 39 85 28 f2 ff ff 	cmp    %rax,-0xdd8(%rbp)
    bca9:	0f 94 c0             	sete   %al
    bcac:	0f b6 c0             	movzbl %al,%eax
    bcaf:	31 85 7c f1 ff ff    	xor    %eax,-0xe84(%rbp)
    bcb5:	8b 85 7c f1 ff ff    	mov    -0xe84(%rbp),%eax
    bcbb:	0f be c0             	movsbl %al,%eax
    bcbe:	89 ce                	mov    %ecx,%esi
    bcc0:	89 c7                	mov    %eax,%edi
    bcc2:	e8 a5 c6 ff ff       	callq  836c <safe_rshift_func_int8_t_s_u>
    bcc7:	0f be c0             	movsbl %al,%eax
    bcca:	89 85 b4 f3 ff ff    	mov    %eax,-0xc4c(%rbp)
    bcd0:	be 03 00 00 00       	mov    $0x3,%esi
    bcd5:	bf 01 00 00 00       	mov    $0x1,%edi
    bcda:	e8 7d d0 ff ff       	callq  8d5c <safe_mod_func_uint16_t_u_u>
    bcdf:	0f b7 c0             	movzwl %ax,%eax
    bce2:	48 f7 d0             	not    %rax
    bce5:	49 39 c4             	cmp    %rax,%r12
    bce8:	48 8b 05 d9 61 01 00 	mov    0x161d9(%rip),%rax        # 21ec8 <g_1932>
    bcef:	48 8b 00             	mov    (%rax),%rax
    bcf2:	48 8b 00             	mov    (%rax),%rax
    bcf5:	48 8b 00             	mov    (%rax),%rax
    bcf8:	48 8b 00             	mov    (%rax),%rax
    bcfb:	0f b7 00             	movzwl (%rax),%eax
    bcfe:	98                   	cwtl   
    bcff:	be 97 45 00 00       	mov    $0x4597,%esi
    bd04:	89 c7                	mov    %eax,%edi
    bd06:	e8 0b c7 ff ff       	callq  8416 <safe_mod_func_int16_t_s_s>
    bd0b:	83 bd 50 f1 ff ff 00 	cmpl   $0x0,-0xeb0(%rbp)
    bd12:	75 09                	jne    bd1d <func_47+0xc2e>
    bd14:	83 bd 7c f1 ff ff 00 	cmpl   $0x0,-0xe84(%rbp)
    bd1b:	74 07                	je     bd24 <func_47+0xc35>
    bd1d:	b8 01 00 00 00       	mov    $0x1,%eax
    bd22:	eb 05                	jmp    bd29 <func_47+0xc3a>
    bd24:	b8 00 00 00 00       	mov    $0x0,%eax
    bd29:	3b 85 30 f1 ff ff    	cmp    -0xed0(%rbp),%eax
    bd2f:	0f 95 c0             	setne  %al
    bd32:	0f b6 d0             	movzbl %al,%edx
    bd35:	8b 05 45 23 01 00    	mov    0x12345(%rip),%eax        # 1e080 <g_14>
    bd3b:	09 d0                	or     %edx,%eax
    bd3d:	85 c0                	test   %eax,%eax
    bd3f:	75 09                	jne    bd4a <func_47+0xc5b>
    bd41:	83 bd 7c f1 ff ff 00 	cmpl   $0x0,-0xe84(%rbp)
    bd48:	74 07                	je     bd51 <func_47+0xc62>
    bd4a:	b8 01 00 00 00       	mov    $0x1,%eax
    bd4f:	eb 05                	jmp    bd56 <func_47+0xc67>
    bd51:	b8 00 00 00 00       	mov    $0x0,%eax
    bd56:	48 98                	cltq   
    bd58:	48 89 c6             	mov    %rax,%rsi
    bd5b:	48 bf e2 d9 16 4f d6 	movabs $0xf5b324d64f16d9e2,%rdi
    bd62:	24 b3 f5 
    bd65:	e8 16 d3 ff ff       	callq  9080 <safe_mod_func_uint64_t_u_u>
    bd6a:	48 89 c2             	mov    %rax,%rdx
    bd6d:	48 8b 85 f0 f1 ff ff 	mov    -0xe10(%rbp),%rax
    bd74:	8b 00                	mov    (%rax),%eax
    bd76:	48 98                	cltq   
    bd78:	48 89 d6             	mov    %rdx,%rsi
    bd7b:	48 89 c7             	mov    %rax,%rdi
    bd7e:	e8 c8 d2 ff ff       	callq  904b <safe_sub_func_uint64_t_u_u>
    bd83:	48 8b 15 26 5d 01 00 	mov    0x15d26(%rip),%rdx        # 21ab0 <g_876>
    bd8a:	48 8b 12             	mov    (%rdx),%rdx
    bd8d:	8b 12                	mov    (%rdx),%edx
    bd8f:	21 c2                	and    %eax,%edx
    bd91:	48 8b 05 18 5d 01 00 	mov    0x15d18(%rip),%rax        # 21ab0 <g_876>
    bd98:	48 8b 00             	mov    (%rax),%rax
    bd9b:	89 10                	mov    %edx,(%rax)
    bd9d:	8b 10                	mov    (%rax),%edx
    bd9f:	8b 85 88 f3 ff ff    	mov    -0xc78(%rbp),%eax
    bda5:	39 c2                	cmp    %eax,%edx
    bda7:	0f 9e c0             	setle  %al
    bdaa:	0f b6 c0             	movzbl %al,%eax
    bdad:	be b5 4e 00 00       	mov    $0x4eb5,%esi
    bdb2:	89 c7                	mov    %eax,%edi
    bdb4:	e8 5d c6 ff ff       	callq  8416 <safe_mod_func_int16_t_s_s>
    bdb9:	48 8b 15 a8 5c 01 00 	mov    0x15ca8(%rip),%rdx        # 21a68 <g_527>
    bdc0:	0f b7 12             	movzwl (%rdx),%edx
    bdc3:	66 39 d0             	cmp    %dx,%ax
    bdc6:	7e 07                	jle    bdcf <func_47+0xce0>
    bdc8:	b8 f4 00 00 00       	mov    $0xf4,%eax
    bdcd:	eb 05                	jmp    bdd4 <func_47+0xce5>
    bdcf:	b8 f5 00 00 00       	mov    $0xf5,%eax
    bdd4:	89 de                	mov    %ebx,%esi
    bdd6:	89 c7                	mov    %eax,%edi
    bdd8:	e8 7d cd ff ff       	callq  8b5a <safe_add_func_uint8_t_u_u>
    bddd:	8b 85 60 f1 ff ff    	mov    -0xea0(%rbp),%eax
    bde3:	0f b7 c0             	movzwl %ax,%eax
    bde6:	be d2 c0 00 00       	mov    $0xc0d2,%esi
    bdeb:	89 c7                	mov    %eax,%edi
    bded:	e8 4b cf ff ff       	callq  8d3d <safe_mul_func_uint16_t_u_u>
    bdf2:	0f b7 d0             	movzwl %ax,%edx
    bdf5:	48 8b 85 f0 f1 ff ff 	mov    -0xe10(%rbp),%rax
    bdfc:	89 10                	mov    %edx,(%rax)
    bdfe:	48 8b 05 3b 5c 01 00 	mov    0x15c3b(%rip),%rax        # 21a40 <g_132>
    be05:	8b 10                	mov    (%rax),%edx
    be07:	48 8b 05 32 5c 01 00 	mov    0x15c32(%rip),%rax        # 21a40 <g_132>
    be0e:	83 ca fa             	or     $0xfffffffa,%edx
    be11:	89 10                	mov    %edx,(%rax)
    be13:	e9 2a 04 00 00       	jmpq   c242 <func_47+0x1153>
    be18:	48 c7 85 98 f2 ff ff 	movq   $0x0,-0xd68(%rbp)
    be1f:	00 00 00 00 
    be23:	48 8d 85 d8 f1 ff ff 	lea    -0xe28(%rbp),%rax
    be2a:	48 89 85 a0 f2 ff ff 	mov    %rax,-0xd60(%rbp)
    be31:	48 8d 05 28 5f 01 00 	lea    0x15f28(%rip),%rax        # 21d60 <g_1789+0x180>
    be38:	48 89 85 a8 f2 ff ff 	mov    %rax,-0xd58(%rbp)
    be3f:	48 8d 05 c2 73 01 00 	lea    0x173c2(%rip),%rax        # 23208 <g_330>
    be46:	48 89 85 b0 f2 ff ff 	mov    %rax,-0xd50(%rbp)
    be4d:	c7 85 78 f1 ff ff 1e 	movl   $0xd3e63b1e,-0xe88(%rbp)
    be54:	3b e6 d3 
    be57:	48 8d 85 1c f1 ff ff 	lea    -0xee4(%rbp),%rax
    be5e:	48 89 85 b8 f2 ff ff 	mov    %rax,-0xd48(%rbp)
    be65:	48 8d 05 18 22 01 00 	lea    0x12218(%rip),%rax        # 1e084 <g_51>
    be6c:	48 89 85 c0 f2 ff ff 	mov    %rax,-0xd40(%rbp)
    be73:	48 8d 05 2e 26 01 00 	lea    0x1262e(%rip),%rax        # 1e4a8 <g_1955>
    be7a:	48 89 85 c8 f2 ff ff 	mov    %rax,-0xd38(%rbp)
    be81:	48 8d 85 84 f3 ff ff 	lea    -0xc7c(%rbp),%rax
    be88:	48 83 c0 04          	add    $0x4,%rax
    be8c:	48 89 85 d0 f2 ff ff 	mov    %rax,-0xd30(%rbp)
    be93:	48 8d 05 0e 23 01 00 	lea    0x1230e(%rip),%rax        # 1e1a8 <g_630>
    be9a:	48 89 85 d8 f2 ff ff 	mov    %rax,-0xd28(%rbp)
    bea1:	48 c7 85 e0 f2 ff ff 	movq   $0x0,-0xd20(%rbp)
    bea8:	00 00 00 00 
    beac:	48 8d 05 d5 21 01 00 	lea    0x121d5(%rip),%rax        # 1e088 <g_90>
    beb3:	48 89 85 e8 f2 ff ff 	mov    %rax,-0xd18(%rbp)
    beba:	48 c7 85 f0 f2 ff ff 	movq   $0x0,-0xd10(%rbp)
    bec1:	00 00 00 00 
    bec5:	48 8d 85 a0 f3 ff ff 	lea    -0xc60(%rbp),%rax
    becc:	48 83 c0 10          	add    $0x10,%rax
    bed0:	48 89 85 f8 f2 ff ff 	mov    %rax,-0xd08(%rbp)
    bed7:	48 8d 05 6a 2d 01 00 	lea    0x12d6a(%rip),%rax        # 1ec48 <g_1959>
    bede:	48 89 85 00 f3 ff ff 	mov    %rax,-0xd00(%rbp)
    bee5:	c7 85 48 f1 ff ff 00 	movl   $0x0,-0xeb8(%rbp)
    beec:	00 00 00 
    beef:	eb 1e                	jmp    bf0f <func_47+0xe20>
    bef1:	8b 85 48 f1 ff ff    	mov    -0xeb8(%rbp),%eax
    bef7:	48 98                	cltq   
    bef9:	48 8d 15 d8 9e 01 00 	lea    0x19ed8(%rip),%rdx        # 25dd8 <g_1881>
    bf00:	48 89 94 c5 30 f5 ff 	mov    %rdx,-0xad0(%rbp,%rax,8)
    bf07:	ff 
    bf08:	83 85 48 f1 ff ff 01 	addl   $0x1,-0xeb8(%rbp)
    bf0f:	83 bd 48 f1 ff ff 07 	cmpl   $0x7,-0xeb8(%rbp)
    bf16:	7e d9                	jle    bef1 <func_47+0xe02>
    bf18:	c7 85 48 f1 ff ff 00 	movl   $0x0,-0xeb8(%rbp)
    bf1f:	00 00 00 
    bf22:	eb 1e                	jmp    bf42 <func_47+0xe53>
    bf24:	8b 85 48 f1 ff ff    	mov    -0xeb8(%rbp),%eax
    bf2a:	48 98                	cltq   
    bf2c:	48 8d 15 5d 25 01 00 	lea    0x1255d(%rip),%rdx        # 1e490 <g_1952>
    bf33:	48 89 94 c5 00 f4 ff 	mov    %rdx,-0xc00(%rbp,%rax,8)
    bf3a:	ff 
    bf3b:	83 85 48 f1 ff ff 01 	addl   $0x1,-0xeb8(%rbp)
    bf42:	83 bd 48 f1 ff ff 01 	cmpl   $0x1,-0xeb8(%rbp)
    bf49:	7e d9                	jle    bf24 <func_47+0xe35>
    bf4b:	48 8b 85 f0 f1 ff ff 	mov    -0xe10(%rbp),%rax
    bf52:	8b 00                	mov    (%rax),%eax
    bf54:	85 c0                	test   %eax,%eax
    bf56:	0f 85 f7 00 00 00    	jne    c053 <func_47+0xf64>
    bf5c:	48 8b 05 75 5f 01 00 	mov    0x15f75(%rip),%rax        # 21ed8 <g_1982>
    bf63:	48 89 85 08 f2 ff ff 	mov    %rax,-0xdf8(%rbp)
    bf6a:	48 8b 95 d8 f1 ff ff 	mov    -0xe28(%rbp),%rdx
    bf71:	48 8b 85 a0 f2 ff ff 	mov    -0xd60(%rbp),%rax
    bf78:	48 89 10             	mov    %rdx,(%rax)
    bf7b:	48 8b 85 a0 f2 ff ff 	mov    -0xd60(%rbp),%rax
    bf82:	48 8b 00             	mov    (%rax),%rax
    bf85:	48 39 85 08 f2 ff ff 	cmp    %rax,-0xdf8(%rbp)
    bf8c:	0f 95 c0             	setne  %al
    bf8f:	0f b6 d0             	movzbl %al,%edx
    bf92:	8b 05 8c 20 01 00    	mov    0x1208c(%rip),%eax        # 1e024 <g_2>
    bf98:	89 d6                	mov    %edx,%esi
    bf9a:	21 c6                	and    %eax,%esi
    bf9c:	48 8b 05 35 5c 01 00 	mov    0x15c35(%rip),%rax        # 21bd8 <g_1790>
    bfa3:	0f b7 10             	movzwl (%rax),%edx
    bfa6:	8d 4a ff             	lea    -0x1(%rdx),%ecx
    bfa9:	66 89 08             	mov    %cx,(%rax)
    bfac:	0f b7 c2             	movzwl %dx,%eax
    bfaf:	39 c6                	cmp    %eax,%esi
    bfb1:	0f 94 c0             	sete   %al
    bfb4:	0f b6 d8             	movzbl %al,%ebx
    bfb7:	8b 05 9b 2c 01 00    	mov    0x12c9b(%rip),%eax        # 1ec58 <g_1961>
    bfbd:	48 63 c8             	movslq %eax,%rcx
    bfc0:	8b 85 b0 f3 ff ff    	mov    -0xc50(%rbp),%eax
    bfc6:	85 c0                	test   %eax,%eax
    bfc8:	74 3d                	je     c007 <func_47+0xf18>
    bfca:	48 8b 85 f0 f1 ff ff 	mov    -0xe10(%rbp),%rax
    bfd1:	8b 30                	mov    (%rax),%esi
    bfd3:	48 8b 05 e6 5a 01 00 	mov    0x15ae6(%rip),%rax        # 21ac0 <g_910>
    bfda:	48 8b 00             	mov    (%rax),%rax
    bfdd:	48 8b 00             	mov    (%rax),%rax
    bfe0:	48 8b 00             	mov    (%rax),%rax
    bfe3:	48 8b 10             	mov    (%rax),%rdx
    bfe6:	89 f0                	mov    %esi,%eax
    bfe8:	66 89 02             	mov    %ax,(%rdx)
    bfeb:	48 8b 05 be 5e 01 00 	mov    0x15ebe(%rip),%rax        # 21eb0 <g_1936>
    bff2:	0f b7 12             	movzwl (%rdx),%edx
    bff5:	66 89 10             	mov    %dx,(%rax)
    bff8:	0f b7 00             	movzwl (%rax),%eax
    bffb:	66 85 c0             	test   %ax,%ax
    bffe:	74 07                	je     c007 <func_47+0xf18>
    c000:	b8 01 00 00 00       	mov    $0x1,%eax
    c005:	eb 05                	jmp    c00c <func_47+0xf1d>
    c007:	b8 00 00 00 00       	mov    $0x0,%eax
    c00c:	48 98                	cltq   
    c00e:	48 89 ce             	mov    %rcx,%rsi
    c011:	48 89 c7             	mov    %rax,%rdi
    c014:	e8 15 d0 ff ff       	callq  902e <safe_add_func_uint64_t_u_u>
    c019:	48 83 f8 01          	cmp    $0x1,%rax
    c01d:	0f 95 c0             	setne  %al
    c020:	0f b6 c0             	movzbl %al,%eax
    c023:	48 8d 15 be 5c 01 00 	lea    0x15cbe(%rip),%rdx        # 21ce8 <g_1789+0x108>
    c02a:	48 89 95 a8 f2 ff ff 	mov    %rdx,-0xd58(%rbp)
    c031:	89 c6                	mov    %eax,%esi
    c033:	bf 01 00 00 00       	mov    $0x1,%edi
    c038:	e8 c9 cd ff ff       	callq  8e06 <safe_lshift_func_uint16_t_u_u>
    c03d:	09 9d 68 f1 ff ff    	or     %ebx,-0xe98(%rbp)
    c043:	0f b7 c0             	movzwl %ax,%eax
    c046:	09 85 30 f1 ff ff    	or     %eax,-0xed0(%rbp)
    c04c:	b8 00 00 00 00       	mov    $0x0,%eax
    c051:	eb 05                	jmp    c058 <func_47+0xf69>
    c053:	b8 01 00 00 00       	mov    $0x1,%eax
    c058:	48 98                	cltq   
    c05a:	48 39 85 38 f2 ff ff 	cmp    %rax,-0xdc8(%rbp)
    c061:	0f 94 c0             	sete   %al
    c064:	0f b6 c0             	movzbl %al,%eax
    c067:	8b 95 60 f1 ff ff    	mov    -0xea0(%rbp),%edx
    c06d:	89 d6                	mov    %edx,%esi
    c06f:	89 c7                	mov    %eax,%edi
    c071:	e8 2b c2 ff ff       	callq  82a1 <safe_lshift_func_int8_t_s_s>
    c076:	0f b6 c0             	movzbl %al,%eax
    c079:	be 02 00 00 00       	mov    $0x2,%esi
    c07e:	89 c7                	mov    %eax,%edi
    c080:	e8 80 cb ff ff       	callq  8c05 <safe_lshift_func_uint8_t_u_s>
    c085:	0f b6 d0             	movzbl %al,%edx
    c088:	48 8b 85 f0 f1 ff ff 	mov    -0xe10(%rbp),%rax
    c08f:	8b 00                	mov    (%rax),%eax
    c091:	98                   	cwtl   
    c092:	89 d6                	mov    %edx,%esi
    c094:	89 c7                	mov    %eax,%edi
    c096:	e8 8f c4 ff ff       	callq  852a <safe_rshift_func_int16_t_s_s>
    c09b:	98                   	cwtl   
    c09c:	39 85 78 f1 ff ff    	cmp    %eax,-0xe88(%rbp)
    c0a2:	0f 9c c0             	setl   %al
    c0a5:	0f b6 d0             	movzbl %al,%edx
    c0a8:	48 8b 85 f0 f1 ff ff 	mov    -0xe10(%rbp),%rax
    c0af:	89 10                	mov    %edx,(%rax)
    c0b1:	83 85 6c f1 ff ff 01 	addl   $0x1,-0xe94(%rbp)
    c0b8:	48 c7 05 c5 21 01 00 	movq   $0x17,0x121c5(%rip)        # 1e288 <g_1347>
    c0bf:	17 00 00 00 
    c0c3:	90                   	nop
    c0c4:	48 8b 05 bd 21 01 00 	mov    0x121bd(%rip),%rax        # 1e288 <g_1347>
    c0cb:	48 83 f8 ed          	cmp    $0xffffffffffffffed,%rax
    c0cf:	0f 8c 6d 01 00 00    	jl     c242 <func_47+0x1153>
    c0d5:	48 b8 ef c3 b2 79 cb 	movabs $0x9e15e3cb79b2c3ef,%rax
    c0dc:	e3 15 9e 
    c0df:	48 89 85 08 f3 ff ff 	mov    %rax,-0xcf8(%rbp)
    c0e6:	48 8d 05 53 59 01 00 	lea    0x15953(%rip),%rax        # 21a40 <g_132>
    c0ed:	48 8b 00             	mov    (%rax),%rax
    c0f0:	8b 95 24 f1 ff ff    	mov    -0xedc(%rbp),%edx
    c0f6:	89 10                	mov    %edx,(%rax)
    c0f8:	48 8b 85 08 f3 ff ff 	mov    -0xcf8(%rbp),%rax
    c0ff:	e9 c3 07 00 00       	jmpq   c8c7 <func_47+0x17d8>
    c104:	48 8d 85 10 f9 ff ff 	lea    -0x6f0(%rbp),%rax
    c10b:	48 8d 15 0e d3 00 00 	lea    0xd30e(%rip),%rdx        # 19420 <g_2228+0x220>
    c112:	b9 d8 00 00 00       	mov    $0xd8,%ecx
    c117:	48 89 c7             	mov    %rax,%rdi
    c11a:	48 89 d6             	mov    %rdx,%rsi
    c11d:	f3 48 a5             	rep movsq %ds:(%rsi),%es:(%rdi)
    c120:	48 8d 05 a9 1f 01 00 	lea    0x11fa9(%rip),%rax        # 1e0d0 <g_216>
    c127:	48 89 85 30 f2 ff ff 	mov    %rax,-0xdd0(%rbp)
    c12e:	48 8d 85 30 f5 ff ff 	lea    -0xad0(%rbp),%rax
    c135:	48 8d 15 a4 42 01 00 	lea    0x142a4(%rip),%rdx        # 203e0 <g_2204+0x16c0>
    c13c:	b9 3c 00 00 00       	mov    $0x3c,%ecx
    c141:	48 89 c7             	mov    %rax,%rdi
    c144:	48 89 d6             	mov    %rdx,%rsi
    c147:	f3 48 a5             	rep movsq %ds:(%rsi),%es:(%rdi)
    c14a:	48 8b 85 30 f2 ff ff 	mov    -0xdd0(%rbp),%rax
    c151:	8b 00                	mov    (%rax),%eax
    c153:	48 8b 95 30 fc ff ff 	mov    -0x3d0(%rbp),%rdx
    c15a:	21 c2                	and    %eax,%edx
    c15c:	48 8b 85 30 f2 ff ff 	mov    -0xdd0(%rbp),%rax
    c163:	89 10                	mov    %edx,(%rax)
    c165:	48 8b 85 30 f2 ff ff 	mov    -0xdd0(%rbp),%rax
    c16c:	8b 10                	mov    (%rax),%edx
    c16e:	48 8b 85 f0 f1 ff ff 	mov    -0xe10(%rbp),%rax
    c175:	8b 00                	mov    (%rax),%eax
    c177:	39 c2                	cmp    %eax,%edx
    c179:	48 8b 85 f0 f1 ff ff 	mov    -0xe10(%rbp),%rax
    c180:	c7 00 00 00 00 00    	movl   $0x0,(%rax)
    c186:	48 c7 05 27 21 01 00 	movq   $0x0,0x12127(%rip)        # 1e2b8 <g_1682>
    c18d:	00 00 00 00 
    c191:	e9 8f 00 00 00       	jmpq   c225 <func_47+0x1136>
    c196:	48 8b 15 43 5d 01 00 	mov    0x15d43(%rip),%rdx        # 21ee0 <g_2018>
    c19d:	48 8b 85 20 f2 ff ff 	mov    -0xde0(%rbp),%rax
    c1a4:	48 89 10             	mov    %rdx,(%rax)
    c1a7:	48 8b 85 20 f2 ff ff 	mov    -0xde0(%rbp),%rax
    c1ae:	48 8b 10             	mov    (%rax),%rdx
    c1b1:	48 8b 85 d8 f6 ff ff 	mov    -0x928(%rbp),%rax
    c1b8:	48 89 85 d8 f6 ff ff 	mov    %rax,-0x928(%rbp)
    c1bf:	48 8b 85 d8 f6 ff ff 	mov    -0x928(%rbp),%rax
    c1c6:	48 39 c2             	cmp    %rax,%rdx
    c1c9:	0f 94 c0             	sete   %al
    c1cc:	0f b6 d0             	movzbl %al,%edx
    c1cf:	8b 05 b3 1e 01 00    	mov    0x11eb3(%rip),%eax        # 1e088 <g_90>
    c1d5:	39 c2                	cmp    %eax,%edx
    c1d7:	0f 9f c2             	setg   %dl
    c1da:	48 8b 05 77 58 01 00 	mov    0x15877(%rip),%rax        # 21a58 <g_214>
    c1e1:	0f b6 d2             	movzbl %dl,%edx
    c1e4:	89 10                	mov    %edx,(%rax)
    c1e6:	c7 05 b0 20 01 00 00 	movl   $0x0,0x120b0(%rip)        # 1e2a0 <g_1579>
    c1ed:	00 00 00 
    c1f0:	90                   	nop
    c1f1:	8b 05 a9 20 01 00    	mov    0x120a9(%rip),%eax        # 1e2a0 <g_1579>
    c1f7:	83 f8 01             	cmp    $0x1,%eax
    c1fa:	7f 0c                	jg     c208 <func_47+0x1119>
    c1fc:	48 8b 85 a0 f9 ff ff 	mov    -0x660(%rbp),%rax
    c203:	e9 bf 06 00 00       	jmpq   c8c7 <func_47+0x17d8>
    c208:	48 8b 05 49 58 01 00 	mov    0x15849(%rip),%rax        # 21a58 <g_214>
    c20f:	8b 00                	mov    (%rax),%eax
    c211:	85 c0                	test   %eax,%eax
    c213:	48 8b 05 9e 20 01 00 	mov    0x1209e(%rip),%rax        # 1e2b8 <g_1682>
    c21a:	48 83 c0 01          	add    $0x1,%rax
    c21e:	48 89 05 93 20 01 00 	mov    %rax,0x12093(%rip)        # 1e2b8 <g_1682>
    c225:	48 8b 05 8c 20 01 00 	mov    0x1208c(%rip),%rax        # 1e2b8 <g_1682>
    c22c:	48 83 f8 01          	cmp    $0x1,%rax
    c230:	0f 86 60 ff ff ff    	jbe    c196 <func_47+0x10a7>
    c236:	8b 85 50 f1 ff ff    	mov    -0xeb0(%rbp),%eax
    c23c:	31 85 30 f1 ff ff    	xor    %eax,-0xed0(%rbp)
    c242:	8b 9d 4c f1 ff ff    	mov    -0xeb4(%rbp),%ebx
    c248:	48 be 0e 70 f0 f9 31 	movabs $0x4f5ab431f9f0700e,%rsi
    c24f:	b4 5a 4f 
    c252:	bf 01 00 00 00       	mov    $0x1,%edi
    c257:	e8 e5 c5 ff ff       	callq  8841 <safe_add_func_int64_t_s_s>
    c25c:	48 85 c0             	test   %rax,%rax
    c25f:	79 21                	jns    c282 <func_47+0x1193>
    c261:	48 83 bd 10 f2 ff ff 	cmpq   $0x0,-0xdf0(%rbp)
    c268:	00 
    c269:	0f 95 c2             	setne  %dl
    c26c:	48 8d 05 1d 59 01 00 	lea    0x1591d(%rip),%rax        # 21b90 <g_1471+0x10>
    c273:	48 8b 00             	mov    (%rax),%rax
    c276:	48 8b 00             	mov    (%rax),%rax
    c279:	88 10                	mov    %dl,(%rax)
    c27b:	0f b6 00             	movzbl (%rax),%eax
    c27e:	84 c0                	test   %al,%al
    c280:	74 07                	je     c289 <func_47+0x119a>
    c282:	b8 01 00 00 00       	mov    $0x1,%eax
    c287:	eb 05                	jmp    c28e <func_47+0x119f>
    c289:	b8 00 00 00 00       	mov    $0x0,%eax
    c28e:	0f be c0             	movsbl %al,%eax
    c291:	89 c7                	mov    %eax,%edi
    c293:	e8 27 bf ff ff       	callq  81bf <safe_unary_minus_func_int8_t_s>
    c298:	be c6 ff ff ff       	mov    $0xffffffc6,%esi
    c29d:	bf 01 00 00 00       	mov    $0x1,%edi
    c2a2:	e8 6b bf ff ff       	callq  8212 <safe_mul_func_int8_t_s_s>
    c2a7:	83 bd 54 f1 ff ff 00 	cmpl   $0x0,-0xeac(%rbp)
    c2ae:	74 07                	je     c2b7 <func_47+0x11c8>
    c2b0:	b8 01 00 00 00       	mov    $0x1,%eax
    c2b5:	eb 05                	jmp    c2bc <func_47+0x11cd>
    c2b7:	b8 00 00 00 00       	mov    $0x0,%eax
    c2bc:	83 f8 ff             	cmp    $0xffffffff,%eax
    c2bf:	0f 95 c0             	setne  %al
    c2c2:	0f b6 d0             	movzbl %al,%edx
    c2c5:	48 8b 85 08 f1 ff ff 	mov    -0xef8(%rbp),%rax
    c2cc:	0f b6 00             	movzbl (%rax),%eax
    c2cf:	66 98                	cbtw   
    c2d1:	31 d0                	xor    %edx,%eax
    c2d3:	98                   	cwtl   
    c2d4:	be 04 00 00 00       	mov    $0x4,%esi
    c2d9:	89 c7                	mov    %eax,%edi
    c2db:	e8 4a c2 ff ff       	callq  852a <safe_rshift_func_int16_t_s_s>
    c2e0:	0f bf d0             	movswl %ax,%edx
    c2e3:	0f b6 05 3e 1e 01 00 	movzbl 0x11e3e(%rip),%eax        # 1e128 <g_390>
    c2ea:	0f b6 c0             	movzbl %al,%eax
    c2ed:	21 d0                	and    %edx,%eax
    c2ef:	39 85 54 f1 ff ff    	cmp    %eax,-0xeac(%rbp)
    c2f5:	0f 9e c0             	setle  %al
    c2f8:	0f b6 c0             	movzbl %al,%eax
    c2fb:	8b 95 30 f1 ff ff    	mov    -0xed0(%rbp),%edx
    c301:	89 d6                	mov    %edx,%esi
    c303:	89 c7                	mov    %eax,%edi
    c305:	e8 c2 c3 ff ff       	callq  86cc <safe_mod_func_int32_t_s_s>
    c30a:	8b 85 1c f1 ff ff    	mov    -0xee4(%rbp),%eax
    c310:	39 85 4c f1 ff ff    	cmp    %eax,-0xeb4(%rbp)
    c316:	0f 95 c0             	setne  %al
    c319:	0f b6 c0             	movzbl %al,%eax
    c31c:	89 c6                	mov    %eax,%esi
    c31e:	bf 54 d4 00 00       	mov    $0xd454,%edi
    c323:	e8 15 ca ff ff       	callq  8d3d <safe_mul_func_uint16_t_u_u>
    c328:	8b 85 b0 f3 ff ff    	mov    -0xc50(%rbp),%eax
    c32e:	98                   	cwtl   
    c32f:	89 de                	mov    %ebx,%esi
    c331:	89 c7                	mov    %eax,%edi
    c333:	e8 5a c1 ff ff       	callq  8492 <safe_lshift_func_int16_t_s_s>
    c338:	98                   	cwtl   
    c339:	be ff ff ff ff       	mov    $0xffffffff,%esi
    c33e:	89 c7                	mov    %eax,%edi
    c340:	e8 b8 cb ff ff       	callq  8efd <safe_mod_func_uint32_t_u_u>
    c345:	0f b7 c0             	movzwl %ax,%eax
    c348:	be 12 9e 00 00       	mov    $0x9e12,%esi
    c34d:	89 c7                	mov    %eax,%edi
    c34f:	e8 ab c9 ff ff       	callq  8cff <safe_add_func_uint16_t_u_u>
    c354:	48 8b 05 5d 57 01 00 	mov    0x1575d(%rip),%rax        # 21ab8 <g_911>
    c35b:	48 8b 00             	mov    (%rax),%rax
    c35e:	48 8b 00             	mov    (%rax),%rax
    c361:	48 8b 00             	mov    (%rax),%rax
    c364:	0f b7 00             	movzwl (%rax),%eax
    c367:	0f bf d0             	movswl %ax,%edx
    c36a:	8b 85 1c f1 ff ff    	mov    -0xee4(%rbp),%eax
    c370:	39 c2                	cmp    %eax,%edx
    c372:	0f 85 64 04 00 00    	jne    c7dc <func_47+0x16ed>
    c378:	48 8d 05 a5 1f 01 00 	lea    0x11fa5(%rip),%rax        # 1e324 <g_1694+0x64>
    c37f:	48 89 85 48 f3 ff ff 	mov    %rax,-0xcb8(%rbp)
    c386:	48 8d 05 ab 62 01 00 	lea    0x162ab(%rip),%rax        # 22638 <g_286>
    c38d:	48 89 85 50 f3 ff ff 	mov    %rax,-0xcb0(%rbp)
    c394:	48 8d 05 b5 78 01 00 	lea    0x178b5(%rip),%rax        # 23c50 <g_467+0x10>
    c39b:	48 89 85 58 f3 ff ff 	mov    %rax,-0xca8(%rbp)
    c3a2:	48 c7 85 60 f3 ff ff 	movq   $0x0,-0xca0(%rbp)
    c3a9:	00 00 00 00 
    c3ad:	48 8d 85 10 f9 ff ff 	lea    -0x6f0(%rbp),%rax
    c3b4:	48 8d 15 05 42 01 00 	lea    0x14205(%rip),%rdx        # 205c0 <g_2204+0x18a0>
    c3bb:	b9 24 00 00 00       	mov    $0x24,%ecx
    c3c0:	48 89 c7             	mov    %rax,%rdi
    c3c3:	48 89 d6             	mov    %rdx,%rsi
    c3c6:	f3 48 a5             	rep movsq %ds:(%rsi),%es:(%rdi)
    c3c9:	c7 85 8c f1 ff ff dd 	movl   $0xb94578dd,-0xe74(%rbp)
    c3d0:	78 45 b9 
    c3d3:	c7 85 90 f1 ff ff 1a 	movl   $0x871321a,-0xe70(%rbp)
    c3da:	32 71 08 
    c3dd:	c7 85 94 f1 ff ff fe 	movl   $0xfffffffe,-0xe6c(%rbp)
    c3e4:	ff ff ff 
    c3e7:	c7 85 98 f1 ff ff 07 	movl   $0x7,-0xe68(%rbp)
    c3ee:	00 00 00 
    c3f1:	c7 85 9c f1 ff ff 04 	movl   $0x4,-0xe64(%rbp)
    c3f8:	00 00 00 
    c3fb:	c7 85 a0 f1 ff ff 07 	movl   $0x7,-0xe60(%rbp)
    c402:	00 00 00 
    c405:	c7 85 a4 f1 ff ff ff 	movl   $0x79438bff,-0xe5c(%rbp)
    c40c:	8b 43 79 
    c40f:	c7 85 a8 f1 ff ff 1f 	movl   $0x5223571f,-0xe58(%rbp)
    c416:	57 23 52 
    c419:	c7 85 ac f1 ff ff 09 	movl   $0x73d21109,-0xe54(%rbp)
    c420:	11 d2 73 
    c423:	c7 85 30 f5 ff ff 01 	movl   $0x1,-0xad0(%rbp)
    c42a:	00 00 00 
    c42d:	c7 85 34 f5 ff ff fa 	movl   $0xfffffffa,-0xacc(%rbp)
    c434:	ff ff ff 
    c437:	c7 85 38 f5 ff ff fa 	movl   $0xfffffffa,-0xac8(%rbp)
    c43e:	ff ff ff 
    c441:	c7 85 3c f5 ff ff 01 	movl   $0x1,-0xac4(%rbp)
    c448:	00 00 00 
    c44b:	c7 85 40 f5 ff ff fa 	movl   $0xfffffffa,-0xac0(%rbp)
    c452:	ff ff ff 
    c455:	c7 85 44 f5 ff ff fa 	movl   $0xfffffffa,-0xabc(%rbp)
    c45c:	ff ff ff 
    c45f:	c7 85 48 f5 ff ff 01 	movl   $0x1,-0xab8(%rbp)
    c466:	00 00 00 
    c469:	c7 85 4c f5 ff ff 55 	movl   $0xbb269955,-0xab4(%rbp)
    c470:	99 26 bb 
    c473:	c7 85 50 f5 ff ff 4b 	movl   $0x5c3c904b,-0xab0(%rbp)
    c47a:	90 3c 5c 
    c47d:	c7 85 54 f5 ff ff 55 	movl   $0xbb269955,-0xaac(%rbp)
    c484:	99 26 bb 
    c487:	c7 85 58 f5 ff ff 55 	movl   $0xbb269955,-0xaa8(%rbp)
    c48e:	99 26 bb 
    c491:	c7 85 5c f5 ff ff 4b 	movl   $0x5c3c904b,-0xaa4(%rbp)
    c498:	90 3c 5c 
    c49b:	c7 85 60 f5 ff ff 55 	movl   $0xbb269955,-0xaa0(%rbp)
    c4a2:	99 26 bb 
    c4a5:	c7 85 64 f5 ff ff 55 	movl   $0xbb269955,-0xa9c(%rbp)
    c4ac:	99 26 bb 
    c4af:	c7 85 68 f5 ff ff 01 	movl   $0x1,-0xa98(%rbp)
    c4b6:	00 00 00 
    c4b9:	c7 85 6c f5 ff ff 01 	movl   $0x1,-0xa94(%rbp)
    c4c0:	00 00 00 
    c4c3:	c7 85 70 f5 ff ff 25 	movl   $0xec6d7925,-0xa90(%rbp)
    c4ca:	79 6d ec 
    c4cd:	c7 85 74 f5 ff ff 01 	movl   $0x1,-0xa8c(%rbp)
    c4d4:	00 00 00 
    c4d7:	c7 85 78 f5 ff ff 01 	movl   $0x1,-0xa88(%rbp)
    c4de:	00 00 00 
    c4e1:	c7 85 7c f5 ff ff 25 	movl   $0xec6d7925,-0xa84(%rbp)
    c4e8:	79 6d ec 
    c4eb:	c7 85 80 f5 ff ff 01 	movl   $0x1,-0xa80(%rbp)
    c4f2:	00 00 00 
    c4f5:	c7 85 84 f5 ff ff 4b 	movl   $0x5c3c904b,-0xa7c(%rbp)
    c4fc:	90 3c 5c 
    c4ff:	c7 85 88 f5 ff ff 55 	movl   $0xbb269955,-0xa78(%rbp)
    c506:	99 26 bb 
    c509:	c7 85 8c f5 ff ff 55 	movl   $0xbb269955,-0xa74(%rbp)
    c510:	99 26 bb 
    c513:	c7 85 90 f5 ff ff 4b 	movl   $0x5c3c904b,-0xa70(%rbp)
    c51a:	90 3c 5c 
    c51d:	c7 85 94 f5 ff ff 55 	movl   $0xbb269955,-0xa6c(%rbp)
    c524:	99 26 bb 
    c527:	c7 85 98 f5 ff ff 55 	movl   $0xbb269955,-0xa68(%rbp)
    c52e:	99 26 bb 
    c531:	c7 85 9c f5 ff ff 4b 	movl   $0x5c3c904b,-0xa64(%rbp)
    c538:	90 3c 5c 
    c53b:	c7 85 a0 f5 ff ff fa 	movl   $0xfffffffa,-0xa60(%rbp)
    c542:	ff ff ff 
    c545:	c7 85 a4 f5 ff ff 01 	movl   $0x1,-0xa5c(%rbp)
    c54c:	00 00 00 
    c54f:	c7 85 a8 f5 ff ff fa 	movl   $0xfffffffa,-0xa58(%rbp)
    c556:	ff ff ff 
    c559:	c7 85 ac f5 ff ff fa 	movl   $0xfffffffa,-0xa54(%rbp)
    c560:	ff ff ff 
    c563:	c7 85 b0 f5 ff ff 01 	movl   $0x1,-0xa50(%rbp)
    c56a:	00 00 00 
    c56d:	c7 85 b4 f5 ff ff fa 	movl   $0xfffffffa,-0xa4c(%rbp)
    c574:	ff ff ff 
    c577:	c7 85 b8 f5 ff ff fa 	movl   $0xfffffffa,-0xa48(%rbp)
    c57e:	ff ff ff 
    c581:	c7 85 bc f5 ff ff 4b 	movl   $0x5c3c904b,-0xa44(%rbp)
    c588:	90 3c 5c 
    c58b:	c7 85 c0 f5 ff ff 4b 	movl   $0x5c3c904b,-0xa40(%rbp)
    c592:	90 3c 5c 
    c595:	c7 85 c4 f5 ff ff 4b 	movl   $0xe463584b,-0xa3c(%rbp)
    c59c:	58 63 e4 
    c59f:	c7 85 c8 f5 ff ff 4b 	movl   $0x5c3c904b,-0xa38(%rbp)
    c5a6:	90 3c 5c 
    c5a9:	c7 85 cc f5 ff ff 4b 	movl   $0x5c3c904b,-0xa34(%rbp)
    c5b0:	90 3c 5c 
    c5b3:	c7 85 d0 f5 ff ff 4b 	movl   $0xe463584b,-0xa30(%rbp)
    c5ba:	58 63 e4 
    c5bd:	c7 85 d4 f5 ff ff 4b 	movl   $0x5c3c904b,-0xa2c(%rbp)
    c5c4:	90 3c 5c 
    c5c7:	c7 85 d8 f5 ff ff 01 	movl   $0x1,-0xa28(%rbp)
    c5ce:	00 00 00 
    c5d1:	c7 85 dc f5 ff ff fa 	movl   $0xfffffffa,-0xa24(%rbp)
    c5d8:	ff ff ff 
    c5db:	c7 85 e0 f5 ff ff fa 	movl   $0xfffffffa,-0xa20(%rbp)
    c5e2:	ff ff ff 
    c5e5:	c7 85 e4 f5 ff ff 01 	movl   $0x1,-0xa1c(%rbp)
    c5ec:	00 00 00 
    c5ef:	c7 85 e8 f5 ff ff fa 	movl   $0xfffffffa,-0xa18(%rbp)
    c5f6:	ff ff ff 
    c5f9:	c7 85 ec f5 ff ff fa 	movl   $0xfffffffa,-0xa14(%rbp)
    c600:	ff ff ff 
    c603:	c7 85 f0 f5 ff ff 01 	movl   $0x1,-0xa10(%rbp)
    c60a:	00 00 00 
    c60d:	48 c7 85 e8 f1 ff ff 	movq   $0x0,-0xe18(%rbp)
    c614:	00 00 00 00 
    c618:	48 c7 85 a0 f4 ff ff 	movq   $0x0,-0xb60(%rbp)
    c61f:	00 00 00 00 
    c623:	48 c7 85 a8 f4 ff ff 	movq   $0x0,-0xb58(%rbp)
    c62a:	00 00 00 00 
    c62e:	48 8d 85 e8 f1 ff ff 	lea    -0xe18(%rbp),%rax
    c635:	48 89 85 b0 f4 ff ff 	mov    %rax,-0xb50(%rbp)
    c63c:	48 8d 85 e8 f1 ff ff 	lea    -0xe18(%rbp),%rax
    c643:	48 89 85 b8 f4 ff ff 	mov    %rax,-0xb48(%rbp)
    c64a:	48 8d 85 e8 f1 ff ff 	lea    -0xe18(%rbp),%rax
    c651:	48 89 85 c0 f4 ff ff 	mov    %rax,-0xb40(%rbp)
    c658:	48 8d 85 e8 f1 ff ff 	lea    -0xe18(%rbp),%rax
    c65f:	48 89 85 c8 f4 ff ff 	mov    %rax,-0xb38(%rbp)
    c666:	48 c7 85 d0 f4 ff ff 	movq   $0x0,-0xb30(%rbp)
    c66d:	00 00 00 00 
    c671:	48 8d 85 e8 f1 ff ff 	lea    -0xe18(%rbp),%rax
    c678:	48 89 85 d8 f4 ff ff 	mov    %rax,-0xb28(%rbp)
    c67f:	48 8d 85 e8 f1 ff ff 	lea    -0xe18(%rbp),%rax
    c686:	48 89 85 e0 f4 ff ff 	mov    %rax,-0xb20(%rbp)
    c68d:	48 8d 85 e8 f1 ff ff 	lea    -0xe18(%rbp),%rax
    c694:	48 89 85 e8 f4 ff ff 	mov    %rax,-0xb18(%rbp)
    c69b:	48 8d 85 e8 f1 ff ff 	lea    -0xe18(%rbp),%rax
    c6a2:	48 89 85 f0 f4 ff ff 	mov    %rax,-0xb10(%rbp)
    c6a9:	48 8d 85 e8 f1 ff ff 	lea    -0xe18(%rbp),%rax
    c6b0:	48 89 85 f8 f4 ff ff 	mov    %rax,-0xb08(%rbp)
    c6b7:	48 c7 85 00 f5 ff ff 	movq   $0x0,-0xb00(%rbp)
    c6be:	00 00 00 00 
    c6c2:	48 c7 85 08 f5 ff ff 	movq   $0x0,-0xaf8(%rbp)
    c6c9:	00 00 00 00 
    c6cd:	48 8d 85 e8 f1 ff ff 	lea    -0xe18(%rbp),%rax
    c6d4:	48 89 85 10 f5 ff ff 	mov    %rax,-0xaf0(%rbp)
    c6db:	48 8d 85 e8 f1 ff ff 	lea    -0xe18(%rbp),%rax
    c6e2:	48 89 85 18 f5 ff ff 	mov    %rax,-0xae8(%rbp)
    c6e9:	48 8d 85 e8 f1 ff ff 	lea    -0xe18(%rbp),%rax
    c6f0:	48 89 85 20 f5 ff ff 	mov    %rax,-0xae0(%rbp)
    c6f7:	48 8d 85 e8 f1 ff ff 	lea    -0xe18(%rbp),%rax
    c6fe:	48 89 85 28 f5 ff ff 	mov    %rax,-0xad8(%rbp)
    c705:	48 8d 05 7c 1d 01 00 	lea    0x11d7c(%rip),%rax        # 1e488 <g_1951+0x28>
    c70c:	48 89 85 68 f3 ff ff 	mov    %rax,-0xc98(%rbp)
    c713:	48 8d 05 ce 25 01 00 	lea    0x125ce(%rip),%rax        # 1ece8 <g_2088>
    c71a:	48 89 85 70 f3 ff ff 	mov    %rax,-0xc90(%rbp)
    c721:	48 8b 85 48 f3 ff ff 	mov    -0xcb8(%rbp),%rax
    c728:	8b 00                	mov    (%rax),%eax
    c72a:	8d 50 ff             	lea    -0x1(%rax),%edx
    c72d:	48 8b 85 48 f3 ff ff 	mov    -0xcb8(%rbp),%rax
    c734:	89 10                	mov    %edx,(%rax)
    c736:	8b 85 ec f7 ff ff    	mov    -0x814(%rbp),%eax
    c73c:	83 c0 01             	add    $0x1,%eax
    c73f:	89 85 ec f7 ff ff    	mov    %eax,-0x814(%rbp)
    c745:	8b 85 a4 f1 ff ff    	mov    -0xe5c(%rbp),%eax
    c74b:	0f be c0             	movsbl %al,%eax
    c74e:	89 c6                	mov    %eax,%esi
    c750:	bf 01 00 00 00       	mov    $0x1,%edi
    c755:	e8 d7 ba ff ff       	callq  8231 <safe_mod_func_int8_t_s_s>
    c75a:	48 8b 85 c0 f4 ff ff 	mov    -0xb40(%rbp),%rax
    c761:	48 85 c0             	test   %rax,%rax
    c764:	0f 94 c0             	sete   %al
    c767:	0f b6 c8             	movzbl %al,%ecx
    c76a:	48 8b 05 cf 52 01 00 	mov    0x152cf(%rip),%rax        # 21a40 <g_132>
    c771:	8b 10                	mov    (%rax),%edx
    c773:	48 8b 05 c6 52 01 00 	mov    0x152c6(%rip),%rax        # 21a40 <g_132>
    c77a:	21 ca                	and    %ecx,%edx
    c77c:	89 10                	mov    %edx,(%rax)
    c77e:	8b 00                	mov    (%rax),%eax
    c780:	89 c6                	mov    %eax,%esi
    c782:	bf 01 00 00 00       	mov    $0x1,%edi
    c787:	e8 2a be ff ff       	callq  85b6 <safe_add_func_int32_t_s_s>
    c78c:	48 8b 15 55 57 01 00 	mov    0x15755(%rip),%rdx        # 21ee8 <g_2085>
    c793:	48 85 d2             	test   %rdx,%rdx
    c796:	0f 94 c2             	sete   %dl
    c799:	0f b6 ca             	movzbl %dl,%ecx
    c79c:	8b 95 1c f1 ff ff    	mov    -0xee4(%rbp),%edx
    c7a2:	39 d1                	cmp    %edx,%ecx
    c7a4:	0f 9e c2             	setle  %dl
    c7a7:	0f b6 d2             	movzbl %dl,%edx
    c7aa:	39 d0                	cmp    %edx,%eax
    c7ac:	0f 9c c0             	setl   %al
    c7af:	0f b6 d0             	movzbl %al,%edx
    c7b2:	48 8b 85 68 f3 ff ff 	mov    -0xc98(%rbp),%rax
    c7b9:	8b 00                	mov    (%rax),%eax
    c7bb:	21 c2                	and    %eax,%edx
    c7bd:	48 8b 85 68 f3 ff ff 	mov    -0xc98(%rbp),%rax
    c7c4:	89 10                	mov    %edx,(%rax)
    c7c6:	48 8b 85 f8 f1 ff ff 	mov    -0xe08(%rbp),%rax
    c7cd:	48 8b 95 70 f3 ff ff 	mov    -0xc90(%rbp),%rdx
    c7d4:	48 89 10             	mov    %rdx,(%rax)
    c7d7:	e9 e5 00 00 00       	jmpq   c8c1 <func_47+0x17d2>
    c7dc:	48 8d 85 b8 f1 ff ff 	lea    -0xe48(%rbp),%rax
    c7e3:	48 89 85 28 f3 ff ff 	mov    %rax,-0xcd8(%rbp)
    c7ea:	c7 85 88 f1 ff ff 07 	movl   $0x7,-0xe78(%rbp)
    c7f1:	00 00 00 
    c7f4:	48 8d 05 d5 52 01 00 	lea    0x152d5(%rip),%rax        # 21ad0 <g_1187>
    c7fb:	48 89 85 30 f3 ff ff 	mov    %rax,-0xcd0(%rbp)
    c802:	48 c7 85 38 f3 ff ff 	movq   $0x0,-0xcc8(%rbp)
    c809:	00 00 00 00 
    c80d:	48 8d 05 44 24 01 00 	lea    0x12444(%rip),%rax        # 1ec58 <g_1961>
    c814:	48 89 85 40 f3 ff ff 	mov    %rax,-0xcc0(%rbp)
    c81b:	48 83 bd 30 f3 ff ff 	cmpq   $0x0,-0xcd0(%rbp)
    c822:	00 
    c823:	0f 94 c0             	sete   %al
    c826:	89 c2                	mov    %eax,%edx
    c828:	48 8b 85 08 f1 ff ff 	mov    -0xef8(%rbp),%rax
    c82f:	88 10                	mov    %dl,(%rax)
    c831:	48 8b 85 08 f1 ff ff 	mov    -0xef8(%rbp),%rax
    c838:	0f b6 00             	movzbl (%rax),%eax
    c83b:	0f be d0             	movsbl %al,%edx
    c83e:	48 8b 05 6b 52 01 00 	mov    0x1526b(%rip),%rax        # 21ab0 <g_876>
    c845:	48 8b 00             	mov    (%rax),%rax
    c848:	c7 00 00 00 00 00    	movl   $0x0,(%rax)
    c84e:	8b 85 88 f1 ff ff    	mov    -0xe78(%rbp),%eax
    c854:	0f be c0             	movsbl %al,%eax
    c857:	89 d6                	mov    %edx,%esi
    c859:	89 c7                	mov    %eax,%edi
    c85b:	e8 b2 b9 ff ff       	callq  8212 <safe_mul_func_int8_t_s_s>
    c860:	48 8b 95 b8 f1 ff ff 	mov    -0xe48(%rbp),%rdx
    c867:	48 8b 85 28 f3 ff ff 	mov    -0xcd8(%rbp),%rax
    c86e:	48 89 10             	mov    %rdx,(%rax)
    c871:	48 8b 85 28 f3 ff ff 	mov    -0xcd8(%rbp),%rax
    c878:	48 8b 00             	mov    (%rax),%rax
    c87b:	48 8d 15 26 13 01 00 	lea    0x11326(%rip),%rdx        # 1dba8 <g_1533>
    c882:	48 39 d0             	cmp    %rdx,%rax
    c885:	74 2c                	je     c8b3 <func_47+0x17c4>
    c887:	8b 85 88 f1 ff ff    	mov    -0xe78(%rbp),%eax
    c88d:	0f b7 c0             	movzwl %ax,%eax
    c890:	be 00 00 00 00       	mov    $0x0,%esi
    c895:	89 c7                	mov    %eax,%edi
    c897:	e8 22 c5 ff ff       	callq  8dbe <safe_lshift_func_uint16_t_u_s>
    c89c:	8b 85 ec f7 ff ff    	mov    -0x814(%rbp),%eax
    c8a2:	8b 15 10 19 01 00    	mov    0x11910(%rip),%edx        # 1e1b8 <g_730>
    c8a8:	39 d0                	cmp    %edx,%eax
    c8aa:	73 07                	jae    c8b3 <func_47+0x17c4>
    c8ac:	ba 01 00 00 00       	mov    $0x1,%edx
    c8b1:	eb 05                	jmp    c8b8 <func_47+0x17c9>
    c8b3:	ba 00 00 00 00       	mov    $0x0,%edx
    c8b8:	48 8b 85 40 f3 ff ff 	mov    -0xcc0(%rbp),%rax
    c8bf:	89 10                	mov    %edx,(%rax)
    c8c1:	8b 85 1c f1 ff ff    	mov    -0xee4(%rbp),%eax
    c8c7:	48 8b 5d d8          	mov    -0x28(%rbp),%rbx
    c8cb:	64 48 33 1c 25 28 00 	xor    %fs:0x28,%rbx
    c8d2:	00 00 
    c8d4:	74 05                	je     c8db <func_47+0x17ec>
    c8d6:	e8 95 b7 ff ff       	callq  8070 <__stack_chk_fail@plt>
    c8db:	48 81 c4 e0 0e 00 00 	add    $0xee0,%rsp
    c8e2:	5b                   	pop    %rbx
    c8e3:	41 5c                	pop    %r12
    c8e5:	41 5d                	pop    %r13
    c8e7:	41 5e                	pop    %r14
    c8e9:	5d                   	pop    %rbp
    c8ea:	c3                   	retq   

000000000000c8eb <func_54>:
    c8eb:	f3 0f 1e fa          	endbr64 
    c8ef:	55                   	push   %rbp
    c8f0:	48 89 e5             	mov    %rsp,%rbp
    c8f3:	41 56                	push   %r14
    c8f5:	41 55                	push   %r13
    c8f7:	41 54                	push   %r12
    c8f9:	53                   	push   %rbx
    c8fa:	48 81 ec 00 10 00 00 	sub    $0x1000,%rsp
    c901:	48 83 0c 24 00       	orq    $0x0,(%rsp)
    c906:	48 81 ec 00 04 00 00 	sub    $0x400,%rsp
    c90d:	48 89 bd f8 eb ff ff 	mov    %rdi,-0x1408(%rbp)
    c914:	89 b5 f4 eb ff ff    	mov    %esi,-0x140c(%rbp)
    c91a:	48 89 95 e8 eb ff ff 	mov    %rdx,-0x1418(%rbp)
    c921:	64 48 8b 04 25 28 00 	mov    %fs:0x28,%rax
    c928:	00 00 
    c92a:	48 89 45 d8          	mov    %rax,-0x28(%rbp)
    c92e:	31 c0                	xor    %eax,%eax
    c930:	48 8d 05 59 18 01 00 	lea    0x11859(%rip),%rax        # 1e190 <g_508>
    c937:	48 89 85 00 ed ff ff 	mov    %rax,-0x1300(%rbp)
    c93e:	c7 85 18 ec ff ff 6b 	movl   $0xc0b3d56b,-0x13e8(%rbp)
    c945:	d5 b3 c0 
    c948:	c7 85 44 ec ff ff c0 	movl   $0xc6bcfcc0,-0x13bc(%rbp)
    c94f:	fc bc c6 
    c952:	c7 85 1c ec ff ff f6 	movl   $0xfffffff6,-0x13e4(%rbp)
    c959:	ff ff ff 
    c95c:	48 c7 85 80 ef ff ff 	movq   $0x0,-0x1080(%rbp)
    c963:	00 00 00 00 
    c967:	48 8d 05 f2 73 01 00 	lea    0x173f2(%rip),%rax        # 23d60 <g_1111+0x40>
    c96e:	48 89 85 88 ef ff ff 	mov    %rax,-0x1078(%rbp)
    c975:	48 c7 85 90 ef ff ff 	movq   $0x0,-0x1070(%rbp)
    c97c:	00 00 00 00 
    c980:	48 c7 85 98 ef ff ff 	movq   $0x0,-0x1068(%rbp)
    c987:	00 00 00 00 
    c98b:	48 8d 05 ce 73 01 00 	lea    0x173ce(%rip),%rax        # 23d60 <g_1111+0x40>
    c992:	48 89 85 a0 ef ff ff 	mov    %rax,-0x1060(%rbp)
    c999:	48 c7 85 a8 ef ff ff 	movq   $0x0,-0x1058(%rbp)
    c9a0:	00 00 00 00 
    c9a4:	48 c7 85 b0 ef ff ff 	movq   $0x0,-0x1050(%rbp)
    c9ab:	00 00 00 00 
    c9af:	48 8d 05 aa 73 01 00 	lea    0x173aa(%rip),%rax        # 23d60 <g_1111+0x40>
    c9b6:	48 89 85 b8 ef ff ff 	mov    %rax,-0x1048(%rbp)
    c9bd:	48 c7 85 98 ec ff ff 	movq   $0x0,-0x1368(%rbp)
    c9c4:	00 00 00 00 
    c9c8:	48 8d 05 a1 18 01 00 	lea    0x118a1(%rip),%rax        # 1e270 <g_1231>
    c9cf:	48 89 85 c0 f0 ff ff 	mov    %rax,-0xf40(%rbp)
    c9d6:	48 8d 05 93 18 01 00 	lea    0x11893(%rip),%rax        # 1e270 <g_1231>
    c9dd:	48 89 85 c8 f0 ff ff 	mov    %rax,-0xf38(%rbp)
    c9e4:	48 8d 05 85 18 01 00 	lea    0x11885(%rip),%rax        # 1e270 <g_1231>
    c9eb:	48 89 85 d0 f0 ff ff 	mov    %rax,-0xf30(%rbp)
    c9f2:	48 8d 05 7f 18 01 00 	lea    0x1187f(%rip),%rax        # 1e278 <g_1232>
    c9f9:	48 89 85 d8 f0 ff ff 	mov    %rax,-0xf28(%rbp)
    ca00:	48 8d 05 71 18 01 00 	lea    0x11871(%rip),%rax        # 1e278 <g_1232>
    ca07:	48 89 85 e0 f0 ff ff 	mov    %rax,-0xf20(%rbp)
    ca0e:	48 8d 05 63 18 01 00 	lea    0x11863(%rip),%rax        # 1e278 <g_1232>
    ca15:	48 89 85 e8 f0 ff ff 	mov    %rax,-0xf18(%rbp)
    ca1c:	48 8d 05 4d 18 01 00 	lea    0x1184d(%rip),%rax        # 1e270 <g_1231>
    ca23:	48 89 85 f0 f0 ff ff 	mov    %rax,-0xf10(%rbp)
    ca2a:	48 8d 05 3f 18 01 00 	lea    0x1183f(%rip),%rax        # 1e270 <g_1231>
    ca31:	48 89 85 f8 f0 ff ff 	mov    %rax,-0xf08(%rbp)
    ca38:	48 8d 05 31 18 01 00 	lea    0x11831(%rip),%rax        # 1e270 <g_1231>
    ca3f:	48 89 85 00 f1 ff ff 	mov    %rax,-0xf00(%rbp)
    ca46:	48 8d 05 2b 18 01 00 	lea    0x1182b(%rip),%rax        # 1e278 <g_1232>
    ca4d:	48 89 85 08 f1 ff ff 	mov    %rax,-0xef8(%rbp)
    ca54:	48 8d 05 1d 18 01 00 	lea    0x1181d(%rip),%rax        # 1e278 <g_1232>
    ca5b:	48 89 85 10 f1 ff ff 	mov    %rax,-0xef0(%rbp)
    ca62:	48 8d 05 0f 18 01 00 	lea    0x1180f(%rip),%rax        # 1e278 <g_1232>
    ca69:	48 89 85 18 f1 ff ff 	mov    %rax,-0xee8(%rbp)
    ca70:	48 8d 05 f9 17 01 00 	lea    0x117f9(%rip),%rax        # 1e270 <g_1231>
    ca77:	48 89 85 20 f1 ff ff 	mov    %rax,-0xee0(%rbp)
    ca7e:	48 8d 05 eb 17 01 00 	lea    0x117eb(%rip),%rax        # 1e270 <g_1231>
    ca85:	48 89 85 28 f1 ff ff 	mov    %rax,-0xed8(%rbp)
    ca8c:	48 8d 05 dd 17 01 00 	lea    0x117dd(%rip),%rax        # 1e270 <g_1231>
    ca93:	48 89 85 30 f1 ff ff 	mov    %rax,-0xed0(%rbp)
    ca9a:	48 8d 05 d7 17 01 00 	lea    0x117d7(%rip),%rax        # 1e278 <g_1232>
    caa1:	48 89 85 38 f1 ff ff 	mov    %rax,-0xec8(%rbp)
    caa8:	48 8d 05 c9 17 01 00 	lea    0x117c9(%rip),%rax        # 1e278 <g_1232>
    caaf:	48 89 85 40 f1 ff ff 	mov    %rax,-0xec0(%rbp)
    cab6:	48 8d 05 bb 17 01 00 	lea    0x117bb(%rip),%rax        # 1e278 <g_1232>
    cabd:	48 89 85 48 f1 ff ff 	mov    %rax,-0xeb8(%rbp)
    cac4:	48 8d 05 a5 17 01 00 	lea    0x117a5(%rip),%rax        # 1e270 <g_1231>
    cacb:	48 89 85 50 f1 ff ff 	mov    %rax,-0xeb0(%rbp)
    cad2:	48 8d 05 97 17 01 00 	lea    0x11797(%rip),%rax        # 1e270 <g_1231>
    cad9:	48 89 85 58 f1 ff ff 	mov    %rax,-0xea8(%rbp)
    cae0:	48 8d 05 89 17 01 00 	lea    0x11789(%rip),%rax        # 1e270 <g_1231>
    cae7:	48 89 85 60 f1 ff ff 	mov    %rax,-0xea0(%rbp)
    caee:	48 8d 05 83 17 01 00 	lea    0x11783(%rip),%rax        # 1e278 <g_1232>
    caf5:	48 89 85 68 f1 ff ff 	mov    %rax,-0xe98(%rbp)
    cafc:	48 8d 05 75 17 01 00 	lea    0x11775(%rip),%rax        # 1e278 <g_1232>
    cb03:	48 89 85 70 f1 ff ff 	mov    %rax,-0xe90(%rbp)
    cb0a:	48 8d 05 67 17 01 00 	lea    0x11767(%rip),%rax        # 1e278 <g_1232>
    cb11:	48 89 85 78 f1 ff ff 	mov    %rax,-0xe88(%rbp)
    cb18:	48 b8 0c cd cd d6 29 	movabs $0xf0efe29d6cdcd0c,%rax
    cb1f:	fe 0e 0f 
    cb22:	48 89 85 08 ed ff ff 	mov    %rax,-0x12f8(%rbp)
    cb29:	48 8d 05 b8 72 01 00 	lea    0x172b8(%rip),%rax        # 23de8 <g_1321+0x28>
    cb30:	48 89 85 10 ed ff ff 	mov    %rax,-0x12f0(%rbp)
    cb37:	48 8d 05 ba 72 01 00 	lea    0x172ba(%rip),%rax        # 23df8 <g_1324>
    cb3e:	48 89 85 a0 ec ff ff 	mov    %rax,-0x1360(%rbp)
    cb45:	48 b8 9d 42 14 2d 6b 	movabs $0x153cd26b2d14429d,%rax
    cb4c:	d2 3c 15 
    cb4f:	48 89 85 18 ed ff ff 	mov    %rax,-0x12e8(%rbp)
    cb56:	48 c7 85 a8 ec ff ff 	movq   $0x0,-0x1358(%rbp)
    cb5d:	00 00 00 00 
    cb61:	48 8d 05 50 15 01 00 	lea    0x11550(%rip),%rax        # 1e0b8 <g_124>
    cb68:	48 89 85 b0 ec ff ff 	mov    %rax,-0x1350(%rbp)
    cb6f:	48 8d 85 b0 ec ff ff 	lea    -0x1350(%rbp),%rax
    cb76:	48 89 85 b8 ec ff ff 	mov    %rax,-0x1348(%rbp)
    cb7d:	48 8d 85 b8 ec ff ff 	lea    -0x1348(%rbp),%rax
    cb84:	48 89 85 20 ed ff ff 	mov    %rax,-0x12e0(%rbp)
    cb8b:	48 8d 05 b6 4e 01 00 	lea    0x14eb6(%rip),%rax        # 21a48 <g_197>
    cb92:	48 89 85 c0 ec ff ff 	mov    %rax,-0x1340(%rbp)
    cb99:	48 8d 85 c0 ec ff ff 	lea    -0x1340(%rbp),%rax
    cba0:	48 89 85 40 f9 ff ff 	mov    %rax,-0x6c0(%rbp)
    cba7:	48 8d 85 c0 ec ff ff 	lea    -0x1340(%rbp),%rax
    cbae:	48 89 85 48 f9 ff ff 	mov    %rax,-0x6b8(%rbp)
    cbb5:	48 8d 85 c0 ec ff ff 	lea    -0x1340(%rbp),%rax
    cbbc:	48 89 85 50 f9 ff ff 	mov    %rax,-0x6b0(%rbp)
    cbc3:	48 8d 85 c0 ec ff ff 	lea    -0x1340(%rbp),%rax
    cbca:	48 89 85 58 f9 ff ff 	mov    %rax,-0x6a8(%rbp)
    cbd1:	48 8d 85 c0 ec ff ff 	lea    -0x1340(%rbp),%rax
    cbd8:	48 89 85 60 f9 ff ff 	mov    %rax,-0x6a0(%rbp)
    cbdf:	48 8d 85 c0 ec ff ff 	lea    -0x1340(%rbp),%rax
    cbe6:	48 89 85 68 f9 ff ff 	mov    %rax,-0x698(%rbp)
    cbed:	48 8d 85 c0 ec ff ff 	lea    -0x1340(%rbp),%rax
    cbf4:	48 89 85 70 f9 ff ff 	mov    %rax,-0x690(%rbp)
    cbfb:	48 8d 85 c0 ec ff ff 	lea    -0x1340(%rbp),%rax
    cc02:	48 89 85 78 f9 ff ff 	mov    %rax,-0x688(%rbp)
    cc09:	48 8d 85 c0 ec ff ff 	lea    -0x1340(%rbp),%rax
    cc10:	48 89 85 80 f9 ff ff 	mov    %rax,-0x680(%rbp)
    cc17:	48 c7 85 88 f9 ff ff 	movq   $0x0,-0x678(%rbp)
    cc1e:	00 00 00 00 
    cc22:	48 8d 85 c0 ec ff ff 	lea    -0x1340(%rbp),%rax
    cc29:	48 89 85 90 f9 ff ff 	mov    %rax,-0x670(%rbp)
    cc30:	48 c7 85 98 f9 ff ff 	movq   $0x0,-0x668(%rbp)
    cc37:	00 00 00 00 
    cc3b:	48 8d 85 c0 ec ff ff 	lea    -0x1340(%rbp),%rax
    cc42:	48 89 85 a0 f9 ff ff 	mov    %rax,-0x660(%rbp)
    cc49:	48 8d 85 c0 ec ff ff 	lea    -0x1340(%rbp),%rax
    cc50:	48 89 85 a8 f9 ff ff 	mov    %rax,-0x658(%rbp)
    cc57:	48 8d 85 c0 ec ff ff 	lea    -0x1340(%rbp),%rax
    cc5e:	48 89 85 b0 f9 ff ff 	mov    %rax,-0x650(%rbp)
    cc65:	48 8d 85 c0 ec ff ff 	lea    -0x1340(%rbp),%rax
    cc6c:	48 89 85 b8 f9 ff ff 	mov    %rax,-0x648(%rbp)
    cc73:	48 8d 85 c0 ec ff ff 	lea    -0x1340(%rbp),%rax
    cc7a:	48 89 85 c0 f9 ff ff 	mov    %rax,-0x640(%rbp)
    cc81:	48 8d 85 c0 ec ff ff 	lea    -0x1340(%rbp),%rax
    cc88:	48 89 85 c8 f9 ff ff 	mov    %rax,-0x638(%rbp)
    cc8f:	48 8d 85 c0 ec ff ff 	lea    -0x1340(%rbp),%rax
    cc96:	48 89 85 d0 f9 ff ff 	mov    %rax,-0x630(%rbp)
    cc9d:	48 8d 85 c0 ec ff ff 	lea    -0x1340(%rbp),%rax
    cca4:	48 89 85 d8 f9 ff ff 	mov    %rax,-0x628(%rbp)
    ccab:	48 8d 85 c0 ec ff ff 	lea    -0x1340(%rbp),%rax
    ccb2:	48 89 85 e0 f9 ff ff 	mov    %rax,-0x620(%rbp)
    ccb9:	48 c7 85 e8 f9 ff ff 	movq   $0x0,-0x618(%rbp)
    ccc0:	00 00 00 00 
    ccc4:	48 8d 85 c0 ec ff ff 	lea    -0x1340(%rbp),%rax
    cccb:	48 89 85 f0 f9 ff ff 	mov    %rax,-0x610(%rbp)
    ccd2:	48 c7 85 f8 f9 ff ff 	movq   $0x0,-0x608(%rbp)
    ccd9:	00 00 00 00 
    ccdd:	48 8d 85 c0 ec ff ff 	lea    -0x1340(%rbp),%rax
    cce4:	48 89 85 00 fa ff ff 	mov    %rax,-0x600(%rbp)
    cceb:	48 8d 85 c0 ec ff ff 	lea    -0x1340(%rbp),%rax
    ccf2:	48 89 85 08 fa ff ff 	mov    %rax,-0x5f8(%rbp)
    ccf9:	48 8d 85 c0 ec ff ff 	lea    -0x1340(%rbp),%rax
    cd00:	48 89 85 10 fa ff ff 	mov    %rax,-0x5f0(%rbp)
    cd07:	48 8d 85 c0 ec ff ff 	lea    -0x1340(%rbp),%rax
    cd0e:	48 89 85 18 fa ff ff 	mov    %rax,-0x5e8(%rbp)
    cd15:	48 8d 85 c0 ec ff ff 	lea    -0x1340(%rbp),%rax
    cd1c:	48 89 85 20 fa ff ff 	mov    %rax,-0x5e0(%rbp)
    cd23:	48 8d 85 c0 ec ff ff 	lea    -0x1340(%rbp),%rax
    cd2a:	48 89 85 28 fa ff ff 	mov    %rax,-0x5d8(%rbp)
    cd31:	48 8d 85 c0 ec ff ff 	lea    -0x1340(%rbp),%rax
    cd38:	48 89 85 30 fa ff ff 	mov    %rax,-0x5d0(%rbp)
    cd3f:	48 8d 85 c0 ec ff ff 	lea    -0x1340(%rbp),%rax
    cd46:	48 89 85 38 fa ff ff 	mov    %rax,-0x5c8(%rbp)
    cd4d:	48 8d 85 c0 ec ff ff 	lea    -0x1340(%rbp),%rax
    cd54:	48 89 85 40 fa ff ff 	mov    %rax,-0x5c0(%rbp)
    cd5b:	48 c7 85 48 fa ff ff 	movq   $0x0,-0x5b8(%rbp)
    cd62:	00 00 00 00 
    cd66:	48 8d 85 c0 ec ff ff 	lea    -0x1340(%rbp),%rax
    cd6d:	48 89 85 50 fa ff ff 	mov    %rax,-0x5b0(%rbp)
    cd74:	48 c7 85 58 fa ff ff 	movq   $0x0,-0x5a8(%rbp)
    cd7b:	00 00 00 00 
    cd7f:	48 8d 85 c0 ec ff ff 	lea    -0x1340(%rbp),%rax
    cd86:	48 89 85 60 fa ff ff 	mov    %rax,-0x5a0(%rbp)
    cd8d:	48 8d 85 c0 ec ff ff 	lea    -0x1340(%rbp),%rax
    cd94:	48 89 85 68 fa ff ff 	mov    %rax,-0x598(%rbp)
    cd9b:	48 8d 85 c0 ec ff ff 	lea    -0x1340(%rbp),%rax
    cda2:	48 89 85 70 fa ff ff 	mov    %rax,-0x590(%rbp)
    cda9:	48 8d 85 c0 ec ff ff 	lea    -0x1340(%rbp),%rax
    cdb0:	48 89 85 78 fa ff ff 	mov    %rax,-0x588(%rbp)
    cdb7:	48 8d 85 c0 ec ff ff 	lea    -0x1340(%rbp),%rax
    cdbe:	48 89 85 80 fa ff ff 	mov    %rax,-0x580(%rbp)
    cdc5:	48 8d 85 c0 ec ff ff 	lea    -0x1340(%rbp),%rax
    cdcc:	48 89 85 88 fa ff ff 	mov    %rax,-0x578(%rbp)
    cdd3:	48 8d 85 c0 ec ff ff 	lea    -0x1340(%rbp),%rax
    cdda:	48 89 85 90 fa ff ff 	mov    %rax,-0x570(%rbp)
    cde1:	48 8d 85 c0 ec ff ff 	lea    -0x1340(%rbp),%rax
    cde8:	48 89 85 98 fa ff ff 	mov    %rax,-0x568(%rbp)
    cdef:	48 8d 85 c0 ec ff ff 	lea    -0x1340(%rbp),%rax
    cdf6:	48 89 85 a0 fa ff ff 	mov    %rax,-0x560(%rbp)
    cdfd:	48 c7 85 a8 fa ff ff 	movq   $0x0,-0x558(%rbp)
    ce04:	00 00 00 00 
    ce08:	48 8d 85 c0 ec ff ff 	lea    -0x1340(%rbp),%rax
    ce0f:	48 89 85 b0 fa ff ff 	mov    %rax,-0x550(%rbp)
    ce16:	48 c7 85 b8 fa ff ff 	movq   $0x0,-0x548(%rbp)
    ce1d:	00 00 00 00 
    ce21:	48 8d 85 c0 ec ff ff 	lea    -0x1340(%rbp),%rax
    ce28:	48 89 85 c0 fa ff ff 	mov    %rax,-0x540(%rbp)
    ce2f:	48 8d 85 c0 ec ff ff 	lea    -0x1340(%rbp),%rax
    ce36:	48 89 85 c8 fa ff ff 	mov    %rax,-0x538(%rbp)
    ce3d:	48 8d 85 c0 ec ff ff 	lea    -0x1340(%rbp),%rax
    ce44:	48 89 85 d0 fa ff ff 	mov    %rax,-0x530(%rbp)
    ce4b:	48 8d 85 c0 ec ff ff 	lea    -0x1340(%rbp),%rax
    ce52:	48 89 85 d8 fa ff ff 	mov    %rax,-0x528(%rbp)
    ce59:	48 8d 85 c0 ec ff ff 	lea    -0x1340(%rbp),%rax
    ce60:	48 89 85 e0 fa ff ff 	mov    %rax,-0x520(%rbp)
    ce67:	48 8d 85 c0 ec ff ff 	lea    -0x1340(%rbp),%rax
    ce6e:	48 89 85 e8 fa ff ff 	mov    %rax,-0x518(%rbp)
    ce75:	48 8d 85 c0 ec ff ff 	lea    -0x1340(%rbp),%rax
    ce7c:	48 89 85 f0 fa ff ff 	mov    %rax,-0x510(%rbp)
    ce83:	48 8d 85 c0 ec ff ff 	lea    -0x1340(%rbp),%rax
    ce8a:	48 89 85 f8 fa ff ff 	mov    %rax,-0x508(%rbp)
    ce91:	48 8d 85 c0 ec ff ff 	lea    -0x1340(%rbp),%rax
    ce98:	48 89 85 00 fb ff ff 	mov    %rax,-0x500(%rbp)
    ce9f:	48 c7 85 08 fb ff ff 	movq   $0x0,-0x4f8(%rbp)
    cea6:	00 00 00 00 
    ceaa:	48 8d 85 c0 ec ff ff 	lea    -0x1340(%rbp),%rax
    ceb1:	48 89 85 10 fb ff ff 	mov    %rax,-0x4f0(%rbp)
    ceb8:	48 c7 85 18 fb ff ff 	movq   $0x0,-0x4e8(%rbp)
    cebf:	00 00 00 00 
    cec3:	48 8d 85 c0 ec ff ff 	lea    -0x1340(%rbp),%rax
    ceca:	48 89 85 20 fb ff ff 	mov    %rax,-0x4e0(%rbp)
    ced1:	48 8d 85 c0 ec ff ff 	lea    -0x1340(%rbp),%rax
    ced8:	48 89 85 28 fb ff ff 	mov    %rax,-0x4d8(%rbp)
    cedf:	48 8d 85 c0 ec ff ff 	lea    -0x1340(%rbp),%rax
    cee6:	48 89 85 30 fb ff ff 	mov    %rax,-0x4d0(%rbp)
    ceed:	48 8d 85 c0 ec ff ff 	lea    -0x1340(%rbp),%rax
    cef4:	48 89 85 38 fb ff ff 	mov    %rax,-0x4c8(%rbp)
    cefb:	48 8d 85 c0 ec ff ff 	lea    -0x1340(%rbp),%rax
    cf02:	48 89 85 40 fb ff ff 	mov    %rax,-0x4c0(%rbp)
    cf09:	48 8d 85 c0 ec ff ff 	lea    -0x1340(%rbp),%rax
    cf10:	48 89 85 48 fb ff ff 	mov    %rax,-0x4b8(%rbp)
    cf17:	48 8d 85 c0 ec ff ff 	lea    -0x1340(%rbp),%rax
    cf1e:	48 89 85 50 fb ff ff 	mov    %rax,-0x4b0(%rbp)
    cf25:	48 8d 85 c0 ec ff ff 	lea    -0x1340(%rbp),%rax
    cf2c:	48 89 85 58 fb ff ff 	mov    %rax,-0x4a8(%rbp)
    cf33:	48 8d 85 c0 ec ff ff 	lea    -0x1340(%rbp),%rax
    cf3a:	48 89 85 60 fb ff ff 	mov    %rax,-0x4a0(%rbp)
    cf41:	48 c7 85 68 fb ff ff 	movq   $0x0,-0x498(%rbp)
    cf48:	00 00 00 00 
    cf4c:	48 8d 85 c0 ec ff ff 	lea    -0x1340(%rbp),%rax
    cf53:	48 89 85 70 fb ff ff 	mov    %rax,-0x490(%rbp)
    cf5a:	48 c7 85 78 fb ff ff 	movq   $0x0,-0x488(%rbp)
    cf61:	00 00 00 00 
    cf65:	48 8d 85 c0 ec ff ff 	lea    -0x1340(%rbp),%rax
    cf6c:	48 89 85 80 fb ff ff 	mov    %rax,-0x480(%rbp)
    cf73:	48 8d 85 c0 ec ff ff 	lea    -0x1340(%rbp),%rax
    cf7a:	48 89 85 88 fb ff ff 	mov    %rax,-0x478(%rbp)
    cf81:	48 8d 85 c0 ec ff ff 	lea    -0x1340(%rbp),%rax
    cf88:	48 89 85 90 fb ff ff 	mov    %rax,-0x470(%rbp)
    cf8f:	48 8d 85 c0 ec ff ff 	lea    -0x1340(%rbp),%rax
    cf96:	48 89 85 98 fb ff ff 	mov    %rax,-0x468(%rbp)
    cf9d:	48 8d 85 c0 ec ff ff 	lea    -0x1340(%rbp),%rax
    cfa4:	48 89 85 a0 fb ff ff 	mov    %rax,-0x460(%rbp)
    cfab:	48 8d 85 c0 ec ff ff 	lea    -0x1340(%rbp),%rax
    cfb2:	48 89 85 a8 fb ff ff 	mov    %rax,-0x458(%rbp)
    cfb9:	48 8d 85 c0 ec ff ff 	lea    -0x1340(%rbp),%rax
    cfc0:	48 89 85 b0 fb ff ff 	mov    %rax,-0x450(%rbp)
    cfc7:	48 8d 85 c0 ec ff ff 	lea    -0x1340(%rbp),%rax
    cfce:	48 89 85 b8 fb ff ff 	mov    %rax,-0x448(%rbp)
    cfd5:	48 8d 85 c0 ec ff ff 	lea    -0x1340(%rbp),%rax
    cfdc:	48 89 85 c0 fb ff ff 	mov    %rax,-0x440(%rbp)
    cfe3:	48 c7 85 c8 fb ff ff 	movq   $0x0,-0x438(%rbp)
    cfea:	00 00 00 00 
    cfee:	48 8d 85 c0 ec ff ff 	lea    -0x1340(%rbp),%rax
    cff5:	48 89 85 d0 fb ff ff 	mov    %rax,-0x430(%rbp)
    cffc:	48 c7 85 d8 fb ff ff 	movq   $0x0,-0x428(%rbp)
    d003:	00 00 00 00 
    d007:	48 8d 85 c0 ec ff ff 	lea    -0x1340(%rbp),%rax
    d00e:	48 89 85 e0 fb ff ff 	mov    %rax,-0x420(%rbp)
    d015:	48 8d 85 c0 ec ff ff 	lea    -0x1340(%rbp),%rax
    d01c:	48 89 85 e8 fb ff ff 	mov    %rax,-0x418(%rbp)
    d023:	48 8d 85 c0 ec ff ff 	lea    -0x1340(%rbp),%rax
    d02a:	48 89 85 f0 fb ff ff 	mov    %rax,-0x410(%rbp)
    d031:	48 8d 85 c0 ec ff ff 	lea    -0x1340(%rbp),%rax
    d038:	48 89 85 f8 fb ff ff 	mov    %rax,-0x408(%rbp)
    d03f:	48 8d 85 c0 ec ff ff 	lea    -0x1340(%rbp),%rax
    d046:	48 89 85 00 fc ff ff 	mov    %rax,-0x400(%rbp)
    d04d:	48 8d 85 c0 ec ff ff 	lea    -0x1340(%rbp),%rax
    d054:	48 89 85 08 fc ff ff 	mov    %rax,-0x3f8(%rbp)
    d05b:	48 8d 85 c0 ec ff ff 	lea    -0x1340(%rbp),%rax
    d062:	48 89 85 10 fc ff ff 	mov    %rax,-0x3f0(%rbp)
    d069:	48 8d 85 c0 ec ff ff 	lea    -0x1340(%rbp),%rax
    d070:	48 89 85 18 fc ff ff 	mov    %rax,-0x3e8(%rbp)
    d077:	48 8d 85 c0 ec ff ff 	lea    -0x1340(%rbp),%rax
    d07e:	48 89 85 20 fc ff ff 	mov    %rax,-0x3e0(%rbp)
    d085:	48 c7 85 28 fc ff ff 	movq   $0x0,-0x3d8(%rbp)
    d08c:	00 00 00 00 
    d090:	48 8d 85 c0 ec ff ff 	lea    -0x1340(%rbp),%rax
    d097:	48 89 85 30 fc ff ff 	mov    %rax,-0x3d0(%rbp)
    d09e:	48 c7 85 38 fc ff ff 	movq   $0x0,-0x3c8(%rbp)
    d0a5:	00 00 00 00 
    d0a9:	48 8d 85 c0 ec ff ff 	lea    -0x1340(%rbp),%rax
    d0b0:	48 89 85 40 fc ff ff 	mov    %rax,-0x3c0(%rbp)
    d0b7:	48 8d 85 c0 ec ff ff 	lea    -0x1340(%rbp),%rax
    d0be:	48 89 85 48 fc ff ff 	mov    %rax,-0x3b8(%rbp)
    d0c5:	48 8d 85 c0 ec ff ff 	lea    -0x1340(%rbp),%rax
    d0cc:	48 89 85 50 fc ff ff 	mov    %rax,-0x3b0(%rbp)
    d0d3:	48 8d 85 c0 ec ff ff 	lea    -0x1340(%rbp),%rax
    d0da:	48 89 85 58 fc ff ff 	mov    %rax,-0x3a8(%rbp)
    d0e1:	48 8d 85 c0 ec ff ff 	lea    -0x1340(%rbp),%rax
    d0e8:	48 89 85 60 fc ff ff 	mov    %rax,-0x3a0(%rbp)
    d0ef:	48 8d 85 c0 ec ff ff 	lea    -0x1340(%rbp),%rax
    d0f6:	48 89 85 68 fc ff ff 	mov    %rax,-0x398(%rbp)
    d0fd:	48 8d 85 c0 ec ff ff 	lea    -0x1340(%rbp),%rax
    d104:	48 89 85 70 fc ff ff 	mov    %rax,-0x390(%rbp)
    d10b:	48 8d 85 c0 ec ff ff 	lea    -0x1340(%rbp),%rax
    d112:	48 89 85 78 fc ff ff 	mov    %rax,-0x388(%rbp)
    d119:	48 8d 85 c0 ec ff ff 	lea    -0x1340(%rbp),%rax
    d120:	48 89 85 80 fc ff ff 	mov    %rax,-0x380(%rbp)
    d127:	48 c7 85 88 fc ff ff 	movq   $0x0,-0x378(%rbp)
    d12e:	00 00 00 00 
    d132:	48 8d 85 c0 ec ff ff 	lea    -0x1340(%rbp),%rax
    d139:	48 89 85 90 fc ff ff 	mov    %rax,-0x370(%rbp)
    d140:	48 c7 85 98 fc ff ff 	movq   $0x0,-0x368(%rbp)
    d147:	00 00 00 00 
    d14b:	48 8d 85 c0 ec ff ff 	lea    -0x1340(%rbp),%rax
    d152:	48 89 85 a0 fc ff ff 	mov    %rax,-0x360(%rbp)
    d159:	48 8d 85 c0 ec ff ff 	lea    -0x1340(%rbp),%rax
    d160:	48 89 85 a8 fc ff ff 	mov    %rax,-0x358(%rbp)
    d167:	48 8d 85 c0 ec ff ff 	lea    -0x1340(%rbp),%rax
    d16e:	48 89 85 b0 fc ff ff 	mov    %rax,-0x350(%rbp)
    d175:	48 8d 85 c0 ec ff ff 	lea    -0x1340(%rbp),%rax
    d17c:	48 89 85 b8 fc ff ff 	mov    %rax,-0x348(%rbp)
    d183:	48 8d 85 c0 ec ff ff 	lea    -0x1340(%rbp),%rax
    d18a:	48 89 85 c0 fc ff ff 	mov    %rax,-0x340(%rbp)
    d191:	48 8d 85 c0 ec ff ff 	lea    -0x1340(%rbp),%rax
    d198:	48 89 85 c8 fc ff ff 	mov    %rax,-0x338(%rbp)
    d19f:	48 8d 85 c0 ec ff ff 	lea    -0x1340(%rbp),%rax
    d1a6:	48 89 85 d0 fc ff ff 	mov    %rax,-0x330(%rbp)
    d1ad:	48 8d 85 c0 ec ff ff 	lea    -0x1340(%rbp),%rax
    d1b4:	48 89 85 d8 fc ff ff 	mov    %rax,-0x328(%rbp)
    d1bb:	48 8d 85 c0 ec ff ff 	lea    -0x1340(%rbp),%rax
    d1c2:	48 89 85 e0 fc ff ff 	mov    %rax,-0x320(%rbp)
    d1c9:	48 c7 85 e8 fc ff ff 	movq   $0x0,-0x318(%rbp)
    d1d0:	00 00 00 00 
    d1d4:	48 8d 85 c0 ec ff ff 	lea    -0x1340(%rbp),%rax
    d1db:	48 89 85 f0 fc ff ff 	mov    %rax,-0x310(%rbp)
    d1e2:	48 c7 85 f8 fc ff ff 	movq   $0x0,-0x308(%rbp)
    d1e9:	00 00 00 00 
    d1ed:	48 8d 85 c0 ec ff ff 	lea    -0x1340(%rbp),%rax
    d1f4:	48 89 85 00 fd ff ff 	mov    %rax,-0x300(%rbp)
    d1fb:	48 8d 85 c0 ec ff ff 	lea    -0x1340(%rbp),%rax
    d202:	48 89 85 08 fd ff ff 	mov    %rax,-0x2f8(%rbp)
    d209:	48 8d 85 c0 ec ff ff 	lea    -0x1340(%rbp),%rax
    d210:	48 89 85 10 fd ff ff 	mov    %rax,-0x2f0(%rbp)
    d217:	48 8d 85 c0 ec ff ff 	lea    -0x1340(%rbp),%rax
    d21e:	48 89 85 18 fd ff ff 	mov    %rax,-0x2e8(%rbp)
    d225:	48 8d 85 c0 ec ff ff 	lea    -0x1340(%rbp),%rax
    d22c:	48 89 85 20 fd ff ff 	mov    %rax,-0x2e0(%rbp)
    d233:	48 8d 85 c0 ec ff ff 	lea    -0x1340(%rbp),%rax
    d23a:	48 89 85 28 fd ff ff 	mov    %rax,-0x2d8(%rbp)
    d241:	48 8d 85 c0 ec ff ff 	lea    -0x1340(%rbp),%rax
    d248:	48 89 85 30 fd ff ff 	mov    %rax,-0x2d0(%rbp)
    d24f:	48 8d 85 c0 ec ff ff 	lea    -0x1340(%rbp),%rax
    d256:	48 89 85 38 fd ff ff 	mov    %rax,-0x2c8(%rbp)
    d25d:	48 8d 85 c0 ec ff ff 	lea    -0x1340(%rbp),%rax
    d264:	48 89 85 40 fd ff ff 	mov    %rax,-0x2c0(%rbp)
    d26b:	48 c7 85 48 fd ff ff 	movq   $0x0,-0x2b8(%rbp)
    d272:	00 00 00 00 
    d276:	48 8d 85 c0 ec ff ff 	lea    -0x1340(%rbp),%rax
    d27d:	48 89 85 50 fd ff ff 	mov    %rax,-0x2b0(%rbp)
    d284:	48 c7 85 58 fd ff ff 	movq   $0x0,-0x2a8(%rbp)
    d28b:	00 00 00 00 
    d28f:	48 8d 85 c0 ec ff ff 	lea    -0x1340(%rbp),%rax
    d296:	48 89 85 60 fd ff ff 	mov    %rax,-0x2a0(%rbp)
    d29d:	48 8d 85 c0 ec ff ff 	lea    -0x1340(%rbp),%rax
    d2a4:	48 89 85 68 fd ff ff 	mov    %rax,-0x298(%rbp)
    d2ab:	48 8d 85 c0 ec ff ff 	lea    -0x1340(%rbp),%rax
    d2b2:	48 89 85 70 fd ff ff 	mov    %rax,-0x290(%rbp)
    d2b9:	48 8d 85 c0 ec ff ff 	lea    -0x1340(%rbp),%rax
    d2c0:	48 89 85 78 fd ff ff 	mov    %rax,-0x288(%rbp)
    d2c7:	48 8d 85 c0 ec ff ff 	lea    -0x1340(%rbp),%rax
    d2ce:	48 89 85 80 fd ff ff 	mov    %rax,-0x280(%rbp)
    d2d5:	48 8d 85 c0 ec ff ff 	lea    -0x1340(%rbp),%rax
    d2dc:	48 89 85 88 fd ff ff 	mov    %rax,-0x278(%rbp)
    d2e3:	48 8d 85 c0 ec ff ff 	lea    -0x1340(%rbp),%rax
    d2ea:	48 89 85 90 fd ff ff 	mov    %rax,-0x270(%rbp)
    d2f1:	48 8d 85 c0 ec ff ff 	lea    -0x1340(%rbp),%rax
    d2f8:	48 89 85 98 fd ff ff 	mov    %rax,-0x268(%rbp)
    d2ff:	48 8d 85 c0 ec ff ff 	lea    -0x1340(%rbp),%rax
    d306:	48 89 85 a0 fd ff ff 	mov    %rax,-0x260(%rbp)
    d30d:	48 c7 85 a8 fd ff ff 	movq   $0x0,-0x258(%rbp)
    d314:	00 00 00 00 
    d318:	48 8d 85 c0 ec ff ff 	lea    -0x1340(%rbp),%rax
    d31f:	48 89 85 b0 fd ff ff 	mov    %rax,-0x250(%rbp)
    d326:	48 c7 85 b8 fd ff ff 	movq   $0x0,-0x248(%rbp)
    d32d:	00 00 00 00 
    d331:	48 8d 85 c0 ec ff ff 	lea    -0x1340(%rbp),%rax
    d338:	48 89 85 c0 fd ff ff 	mov    %rax,-0x240(%rbp)
    d33f:	48 8d 85 c0 ec ff ff 	lea    -0x1340(%rbp),%rax
    d346:	48 89 85 c8 fd ff ff 	mov    %rax,-0x238(%rbp)
    d34d:	48 8d 85 c0 ec ff ff 	lea    -0x1340(%rbp),%rax
    d354:	48 89 85 d0 fd ff ff 	mov    %rax,-0x230(%rbp)
    d35b:	48 8d 85 c0 ec ff ff 	lea    -0x1340(%rbp),%rax
    d362:	48 89 85 d8 fd ff ff 	mov    %rax,-0x228(%rbp)
    d369:	48 8d 85 c0 ec ff ff 	lea    -0x1340(%rbp),%rax
    d370:	48 89 85 e0 fd ff ff 	mov    %rax,-0x220(%rbp)
    d377:	48 8d 85 c0 ec ff ff 	lea    -0x1340(%rbp),%rax
    d37e:	48 89 85 e8 fd ff ff 	mov    %rax,-0x218(%rbp)
    d385:	48 8d 85 c0 ec ff ff 	lea    -0x1340(%rbp),%rax
    d38c:	48 89 85 f0 fd ff ff 	mov    %rax,-0x210(%rbp)
    d393:	48 8d 85 c0 ec ff ff 	lea    -0x1340(%rbp),%rax
    d39a:	48 89 85 f8 fd ff ff 	mov    %rax,-0x208(%rbp)
    d3a1:	48 8d 85 c0 ec ff ff 	lea    -0x1340(%rbp),%rax
    d3a8:	48 89 85 00 fe ff ff 	mov    %rax,-0x200(%rbp)
    d3af:	48 c7 85 08 fe ff ff 	movq   $0x0,-0x1f8(%rbp)
    d3b6:	00 00 00 00 
    d3ba:	48 8d 85 c0 ec ff ff 	lea    -0x1340(%rbp),%rax
    d3c1:	48 89 85 10 fe ff ff 	mov    %rax,-0x1f0(%rbp)
    d3c8:	48 c7 85 18 fe ff ff 	movq   $0x0,-0x1e8(%rbp)
    d3cf:	00 00 00 00 
    d3d3:	48 8d 85 c0 ec ff ff 	lea    -0x1340(%rbp),%rax
    d3da:	48 89 85 20 fe ff ff 	mov    %rax,-0x1e0(%rbp)
    d3e1:	48 8d 85 c0 ec ff ff 	lea    -0x1340(%rbp),%rax
    d3e8:	48 89 85 28 fe ff ff 	mov    %rax,-0x1d8(%rbp)
    d3ef:	48 8d 85 c0 ec ff ff 	lea    -0x1340(%rbp),%rax
    d3f6:	48 89 85 30 fe ff ff 	mov    %rax,-0x1d0(%rbp)
    d3fd:	48 8d 85 c0 ec ff ff 	lea    -0x1340(%rbp),%rax
    d404:	48 89 85 38 fe ff ff 	mov    %rax,-0x1c8(%rbp)
    d40b:	48 8d 85 c0 ec ff ff 	lea    -0x1340(%rbp),%rax
    d412:	48 89 85 40 fe ff ff 	mov    %rax,-0x1c0(%rbp)
    d419:	48 8d 85 c0 ec ff ff 	lea    -0x1340(%rbp),%rax
    d420:	48 89 85 48 fe ff ff 	mov    %rax,-0x1b8(%rbp)
    d427:	48 8d 85 c0 ec ff ff 	lea    -0x1340(%rbp),%rax
    d42e:	48 89 85 50 fe ff ff 	mov    %rax,-0x1b0(%rbp)
    d435:	48 8d 85 c0 ec ff ff 	lea    -0x1340(%rbp),%rax
    d43c:	48 89 85 58 fe ff ff 	mov    %rax,-0x1a8(%rbp)
    d443:	48 8d 85 c0 ec ff ff 	lea    -0x1340(%rbp),%rax
    d44a:	48 89 85 60 fe ff ff 	mov    %rax,-0x1a0(%rbp)
    d451:	48 c7 85 68 fe ff ff 	movq   $0x0,-0x198(%rbp)
    d458:	00 00 00 00 
    d45c:	48 8d 85 c0 ec ff ff 	lea    -0x1340(%rbp),%rax
    d463:	48 89 85 70 fe ff ff 	mov    %rax,-0x190(%rbp)
    d46a:	48 c7 85 78 fe ff ff 	movq   $0x0,-0x188(%rbp)
    d471:	00 00 00 00 
    d475:	48 8d 85 c0 ec ff ff 	lea    -0x1340(%rbp),%rax
    d47c:	48 89 85 80 fe ff ff 	mov    %rax,-0x180(%rbp)
    d483:	48 8d 85 c0 ec ff ff 	lea    -0x1340(%rbp),%rax
    d48a:	48 89 85 88 fe ff ff 	mov    %rax,-0x178(%rbp)
    d491:	48 8d 85 c0 ec ff ff 	lea    -0x1340(%rbp),%rax
    d498:	48 89 85 90 fe ff ff 	mov    %rax,-0x170(%rbp)
    d49f:	48 8d 85 c0 ec ff ff 	lea    -0x1340(%rbp),%rax
    d4a6:	48 89 85 98 fe ff ff 	mov    %rax,-0x168(%rbp)
    d4ad:	48 8d 85 c0 ec ff ff 	lea    -0x1340(%rbp),%rax
    d4b4:	48 89 85 a0 fe ff ff 	mov    %rax,-0x160(%rbp)
    d4bb:	48 8d 85 c0 ec ff ff 	lea    -0x1340(%rbp),%rax
    d4c2:	48 89 85 a8 fe ff ff 	mov    %rax,-0x158(%rbp)
    d4c9:	48 8d 85 c0 ec ff ff 	lea    -0x1340(%rbp),%rax
    d4d0:	48 89 85 b0 fe ff ff 	mov    %rax,-0x150(%rbp)
    d4d7:	48 8d 85 c0 ec ff ff 	lea    -0x1340(%rbp),%rax
    d4de:	48 89 85 b8 fe ff ff 	mov    %rax,-0x148(%rbp)
    d4e5:	48 8d 85 c0 ec ff ff 	lea    -0x1340(%rbp),%rax
    d4ec:	48 89 85 c0 fe ff ff 	mov    %rax,-0x140(%rbp)
    d4f3:	48 c7 85 c8 fe ff ff 	movq   $0x0,-0x138(%rbp)
    d4fa:	00 00 00 00 
    d4fe:	48 8d 85 c0 ec ff ff 	lea    -0x1340(%rbp),%rax
    d505:	48 89 85 d0 fe ff ff 	mov    %rax,-0x130(%rbp)
    d50c:	48 c7 85 d8 fe ff ff 	movq   $0x0,-0x128(%rbp)
    d513:	00 00 00 00 
    d517:	48 8d 85 c0 ec ff ff 	lea    -0x1340(%rbp),%rax
    d51e:	48 89 85 e0 fe ff ff 	mov    %rax,-0x120(%rbp)
    d525:	48 8d 85 c0 ec ff ff 	lea    -0x1340(%rbp),%rax
    d52c:	48 89 85 e8 fe ff ff 	mov    %rax,-0x118(%rbp)
    d533:	48 8d 85 c0 ec ff ff 	lea    -0x1340(%rbp),%rax
    d53a:	48 89 85 f0 fe ff ff 	mov    %rax,-0x110(%rbp)
    d541:	48 8d 85 c0 ec ff ff 	lea    -0x1340(%rbp),%rax
    d548:	48 89 85 f8 fe ff ff 	mov    %rax,-0x108(%rbp)
    d54f:	48 8d 85 c0 ec ff ff 	lea    -0x1340(%rbp),%rax
    d556:	48 89 85 00 ff ff ff 	mov    %rax,-0x100(%rbp)
    d55d:	48 8d 85 c0 ec ff ff 	lea    -0x1340(%rbp),%rax
    d564:	48 89 85 08 ff ff ff 	mov    %rax,-0xf8(%rbp)
    d56b:	48 8d 85 c0 ec ff ff 	lea    -0x1340(%rbp),%rax
    d572:	48 89 85 10 ff ff ff 	mov    %rax,-0xf0(%rbp)
    d579:	48 8d 85 c0 ec ff ff 	lea    -0x1340(%rbp),%rax
    d580:	48 89 85 18 ff ff ff 	mov    %rax,-0xe8(%rbp)
    d587:	48 8d 85 c0 ec ff ff 	lea    -0x1340(%rbp),%rax
    d58e:	48 89 85 20 ff ff ff 	mov    %rax,-0xe0(%rbp)
    d595:	48 c7 85 28 ff ff ff 	movq   $0x0,-0xd8(%rbp)
    d59c:	00 00 00 00 
    d5a0:	48 8d 85 c0 ec ff ff 	lea    -0x1340(%rbp),%rax
    d5a7:	48 89 85 30 ff ff ff 	mov    %rax,-0xd0(%rbp)
    d5ae:	48 c7 85 38 ff ff ff 	movq   $0x0,-0xc8(%rbp)
    d5b5:	00 00 00 00 
    d5b9:	48 8d 85 c0 ec ff ff 	lea    -0x1340(%rbp),%rax
    d5c0:	48 89 85 40 ff ff ff 	mov    %rax,-0xc0(%rbp)
    d5c7:	48 8d 85 c0 ec ff ff 	lea    -0x1340(%rbp),%rax
    d5ce:	48 89 85 48 ff ff ff 	mov    %rax,-0xb8(%rbp)
    d5d5:	48 8d 85 c0 ec ff ff 	lea    -0x1340(%rbp),%rax
    d5dc:	48 89 85 50 ff ff ff 	mov    %rax,-0xb0(%rbp)
    d5e3:	48 8d 85 c0 ec ff ff 	lea    -0x1340(%rbp),%rax
    d5ea:	48 89 85 58 ff ff ff 	mov    %rax,-0xa8(%rbp)
    d5f1:	48 8d 85 c0 ec ff ff 	lea    -0x1340(%rbp),%rax
    d5f8:	48 89 85 60 ff ff ff 	mov    %rax,-0xa0(%rbp)
    d5ff:	48 8d 85 c0 ec ff ff 	lea    -0x1340(%rbp),%rax
    d606:	48 89 85 68 ff ff ff 	mov    %rax,-0x98(%rbp)
    d60d:	48 8d 85 c0 ec ff ff 	lea    -0x1340(%rbp),%rax
    d614:	48 89 85 70 ff ff ff 	mov    %rax,-0x90(%rbp)
    d61b:	48 8d 85 c0 ec ff ff 	lea    -0x1340(%rbp),%rax
    d622:	48 89 85 78 ff ff ff 	mov    %rax,-0x88(%rbp)
    d629:	48 8d 85 c0 ec ff ff 	lea    -0x1340(%rbp),%rax
    d630:	48 89 45 80          	mov    %rax,-0x80(%rbp)
    d634:	48 c7 45 88 00 00 00 	movq   $0x0,-0x78(%rbp)
    d63b:	00 
    d63c:	48 8d 85 c0 ec ff ff 	lea    -0x1340(%rbp),%rax
    d643:	48 89 45 90          	mov    %rax,-0x70(%rbp)
    d647:	48 c7 45 98 00 00 00 	movq   $0x0,-0x68(%rbp)
    d64e:	00 
    d64f:	48 8d 85 c0 ec ff ff 	lea    -0x1340(%rbp),%rax
    d656:	48 89 45 a0          	mov    %rax,-0x60(%rbp)
    d65a:	48 8d 85 c0 ec ff ff 	lea    -0x1340(%rbp),%rax
    d661:	48 89 45 a8          	mov    %rax,-0x58(%rbp)
    d665:	48 8d 85 c0 ec ff ff 	lea    -0x1340(%rbp),%rax
    d66c:	48 89 45 b0          	mov    %rax,-0x50(%rbp)
    d670:	48 8d 85 c0 ec ff ff 	lea    -0x1340(%rbp),%rax
    d677:	48 89 45 b8          	mov    %rax,-0x48(%rbp)
    d67b:	48 8d 85 c0 ec ff ff 	lea    -0x1340(%rbp),%rax
    d682:	48 89 45 c0          	mov    %rax,-0x40(%rbp)
    d686:	48 8d 85 c0 ec ff ff 	lea    -0x1340(%rbp),%rax
    d68d:	48 89 45 c8          	mov    %rax,-0x38(%rbp)
    d691:	48 c7 85 28 ed ff ff 	movq   $0x1,-0x12d8(%rbp)
    d698:	01 00 00 00 
    d69c:	48 8d 05 5d 67 01 00 	lea    0x1675d(%rip),%rax        # 23e00 <g_1356>
    d6a3:	48 89 85 c0 ef ff ff 	mov    %rax,-0x1040(%rbp)
    d6aa:	48 8d 05 4f 67 01 00 	lea    0x1674f(%rip),%rax        # 23e00 <g_1356>
    d6b1:	48 89 85 c8 ef ff ff 	mov    %rax,-0x1038(%rbp)
    d6b8:	48 8d 05 41 67 01 00 	lea    0x16741(%rip),%rax        # 23e00 <g_1356>
    d6bf:	48 89 85 d0 ef ff ff 	mov    %rax,-0x1030(%rbp)
    d6c6:	48 8d 05 33 67 01 00 	lea    0x16733(%rip),%rax        # 23e00 <g_1356>
    d6cd:	48 89 85 d8 ef ff ff 	mov    %rax,-0x1028(%rbp)
    d6d4:	48 8d 05 25 67 01 00 	lea    0x16725(%rip),%rax        # 23e00 <g_1356>
    d6db:	48 89 85 e0 ef ff ff 	mov    %rax,-0x1020(%rbp)
    d6e2:	48 8d 05 17 67 01 00 	lea    0x16717(%rip),%rax        # 23e00 <g_1356>
    d6e9:	48 89 85 e8 ef ff ff 	mov    %rax,-0x1018(%rbp)
    d6f0:	48 8d 05 09 67 01 00 	lea    0x16709(%rip),%rax        # 23e00 <g_1356>
    d6f7:	48 89 85 f0 ef ff ff 	mov    %rax,-0x1010(%rbp)
    d6fe:	48 8d 05 fb 66 01 00 	lea    0x166fb(%rip),%rax        # 23e00 <g_1356>
    d705:	48 89 85 f8 ef ff ff 	mov    %rax,-0x1008(%rbp)
    d70c:	48 8d 05 ed 66 01 00 	lea    0x166ed(%rip),%rax        # 23e00 <g_1356>
    d713:	48 89 85 00 f0 ff ff 	mov    %rax,-0x1000(%rbp)
    d71a:	48 8d 05 df 66 01 00 	lea    0x166df(%rip),%rax        # 23e00 <g_1356>
    d721:	48 89 85 08 f0 ff ff 	mov    %rax,-0xff8(%rbp)
    d728:	48 8d 05 d1 66 01 00 	lea    0x166d1(%rip),%rax        # 23e00 <g_1356>
    d72f:	48 89 85 10 f0 ff ff 	mov    %rax,-0xff0(%rbp)
    d736:	48 8d 05 c3 66 01 00 	lea    0x166c3(%rip),%rax        # 23e00 <g_1356>
    d73d:	48 89 85 18 f0 ff ff 	mov    %rax,-0xfe8(%rbp)
    d744:	48 8d 05 b5 66 01 00 	lea    0x166b5(%rip),%rax        # 23e00 <g_1356>
    d74b:	48 89 85 20 f0 ff ff 	mov    %rax,-0xfe0(%rbp)
    d752:	48 8d 05 a7 66 01 00 	lea    0x166a7(%rip),%rax        # 23e00 <g_1356>
    d759:	48 89 85 28 f0 ff ff 	mov    %rax,-0xfd8(%rbp)
    d760:	48 8d 05 99 66 01 00 	lea    0x16699(%rip),%rax        # 23e00 <g_1356>
    d767:	48 89 85 30 f0 ff ff 	mov    %rax,-0xfd0(%rbp)
    d76e:	48 8d 05 8b 66 01 00 	lea    0x1668b(%rip),%rax        # 23e00 <g_1356>
    d775:	48 89 85 38 f0 ff ff 	mov    %rax,-0xfc8(%rbp)
    d77c:	48 8d 85 c0 ef ff ff 	lea    -0x1040(%rbp),%rax
    d783:	48 83 c0 70          	add    $0x70,%rax
    d787:	48 89 85 30 ed ff ff 	mov    %rax,-0x12d0(%rbp)
    d78e:	48 8d 85 a8 ee ff ff 	lea    -0x1158(%rbp),%rax
    d795:	48 89 85 c8 ec ff ff 	mov    %rax,-0x1338(%rbp)
    d79c:	48 8d 85 c8 ec ff ff 	lea    -0x1338(%rbp),%rax
    d7a3:	48 89 85 38 ed ff ff 	mov    %rax,-0x12c8(%rbp)
    d7aa:	c6 85 08 ec ff ff 01 	movb   $0x1,-0x13f8(%rbp)
    d7b1:	48 8d 05 f0 0a 01 00 	lea    0x10af0(%rip),%rax        # 1e2a8 <g_1638>
    d7b8:	48 89 85 d0 ec ff ff 	mov    %rax,-0x1330(%rbp)
    d7bf:	48 8d 85 d0 ec ff ff 	lea    -0x1330(%rbp),%rax
    d7c6:	48 89 85 40 ed ff ff 	mov    %rax,-0x12c0(%rbp)
    d7cd:	c7 85 48 ec ff ff 00 	movl   $0x0,-0x13b8(%rbp)
    d7d4:	00 00 00 
    d7d7:	c7 85 24 ec ff ff 00 	movl   $0x0,-0x13dc(%rbp)
    d7de:	00 00 00 
    d7e1:	eb 1a                	jmp    d7fd <func_54+0xf12>
    d7e3:	8b 85 24 ec ff ff    	mov    -0x13dc(%rbp),%eax
    d7e9:	48 98                	cltq   
    d7eb:	c7 84 85 d0 ee ff ff 	movl   $0x756642c,-0x1130(%rbp,%rax,4)
    d7f2:	2c 64 56 07 
    d7f6:	83 85 24 ec ff ff 01 	addl   $0x1,-0x13dc(%rbp)
    d7fd:	83 bd 24 ec ff ff 05 	cmpl   $0x5,-0x13dc(%rbp)
    d804:	7e dd                	jle    d7e3 <func_54+0xef8>
    d806:	c7 85 24 ec ff ff 00 	movl   $0x0,-0x13dc(%rbp)
    d80d:	00 00 00 
    d810:	eb 51                	jmp    d863 <func_54+0xf78>
    d812:	c7 85 28 ec ff ff 00 	movl   $0x0,-0x13d8(%rbp)
    d819:	00 00 00 
    d81c:	eb 35                	jmp    d853 <func_54+0xf68>
    d81e:	8b 85 28 ec ff ff    	mov    -0x13d8(%rbp),%eax
    d824:	48 63 c8             	movslq %eax,%rcx
    d827:	8b 85 24 ec ff ff    	mov    -0x13dc(%rbp),%eax
    d82d:	48 63 d0             	movslq %eax,%rdx
    d830:	48 89 d0             	mov    %rdx,%rax
    d833:	48 01 c0             	add    %rax,%rax
    d836:	48 01 d0             	add    %rdx,%rax
    d839:	48 8d 5d e0          	lea    -0x20(%rbp),%rbx
    d83d:	48 01 d8             	add    %rbx,%rax
    d840:	48 01 c8             	add    %rcx,%rax
    d843:	48 2d 3f 11 00 00    	sub    $0x113f,%rax
    d849:	c6 00 80             	movb   $0x80,(%rax)
    d84c:	83 85 28 ec ff ff 01 	addl   $0x1,-0x13d8(%rbp)
    d853:	83 bd 28 ec ff ff 02 	cmpl   $0x2,-0x13d8(%rbp)
    d85a:	7e c2                	jle    d81e <func_54+0xf33>
    d85c:	83 85 24 ec ff ff 01 	addl   $0x1,-0x13dc(%rbp)
    d863:	83 bd 24 ec ff ff 00 	cmpl   $0x0,-0x13dc(%rbp)
    d86a:	7e a6                	jle    d812 <func_54+0xf27>
    d86c:	c7 85 24 ec ff ff 00 	movl   $0x0,-0x13dc(%rbp)
    d873:	00 00 00 
    d876:	eb 1e                	jmp    d896 <func_54+0xfab>
    d878:	8b 85 24 ec ff ff    	mov    -0x13dc(%rbp),%eax
    d87e:	48 98                	cltq   
    d880:	48 8d 15 19 42 01 00 	lea    0x14219(%rip),%rdx        # 21aa0 <g_631>
    d887:	48 89 94 c5 a8 ee ff 	mov    %rdx,-0x1158(%rbp,%rax,8)
    d88e:	ff 
    d88f:	83 85 24 ec ff ff 01 	addl   $0x1,-0x13dc(%rbp)
    d896:	83 bd 24 ec ff ff 00 	cmpl   $0x0,-0x13dc(%rbp)
    d89d:	7e d9                	jle    d878 <func_54+0xf8d>
    d89f:	90                   	nop
    d8a0:	48 8b 85 00 ed ff ff 	mov    -0x1300(%rbp),%rax
    d8a7:	8b 00                	mov    (%rax),%eax
    d8a9:	35 aa 95 c2 22       	xor    $0x22c295aa,%eax
    d8ae:	89 c2                	mov    %eax,%edx
    d8b0:	48 8b 85 00 ed ff ff 	mov    -0x1300(%rbp),%rax
    d8b7:	89 10                	mov    %edx,(%rax)
    d8b9:	c7 05 dd 08 01 00 00 	movl   $0x0,0x108dd(%rip)        # 1e1a0 <g_628>
    d8c0:	00 00 00 
    d8c3:	e9 6d 10 00 00       	jmpq   e935 <func_54+0x204a>
    d8c8:	c7 85 68 ec ff ff c5 	movl   $0x2d44d7c5,-0x1398(%rbp)
    d8cf:	d7 44 2d 
    d8d2:	c7 85 20 ec ff ff 33 	movl   $0xf9c9ab33,-0x13e0(%rbp)
    d8d9:	ab c9 f9 
    d8dc:	c7 85 6c ec ff ff 01 	movl   $0x1,-0x1394(%rbp)
    d8e3:	00 00 00 
    d8e6:	48 8d 05 bb 41 01 00 	lea    0x141bb(%rip),%rax        # 21aa8 <g_776>
    d8ed:	48 89 85 10 ef ff ff 	mov    %rax,-0x10f0(%rbp)
    d8f4:	48 8d 05 ad 41 01 00 	lea    0x141ad(%rip),%rax        # 21aa8 <g_776>
    d8fb:	48 89 85 18 ef ff ff 	mov    %rax,-0x10e8(%rbp)
    d902:	48 8d 05 9f 41 01 00 	lea    0x1419f(%rip),%rax        # 21aa8 <g_776>
    d909:	48 89 85 20 ef ff ff 	mov    %rax,-0x10e0(%rbp)
    d910:	48 8d 05 91 41 01 00 	lea    0x14191(%rip),%rax        # 21aa8 <g_776>
    d917:	48 89 85 28 ef ff ff 	mov    %rax,-0x10d8(%rbp)
    d91e:	48 8d 05 83 41 01 00 	lea    0x14183(%rip),%rax        # 21aa8 <g_776>
    d925:	48 89 85 30 ef ff ff 	mov    %rax,-0x10d0(%rbp)
    d92c:	48 c7 85 40 ee ff ff 	movq   $0x0,-0x11c0(%rbp)
    d933:	00 00 00 00 
    d937:	48 b8 67 fd 4f 9d aa 	movabs $0xcb9e60aa9d4ffd67,%rax
    d93e:	60 9e cb 
    d941:	48 89 85 48 ee ff ff 	mov    %rax,-0x11b8(%rbp)
    d948:	48 8d 85 80 f5 ff ff 	lea    -0xa80(%rbp),%rax
    d94f:	48 8d 15 8a 2d 01 00 	lea    0x12d8a(%rip),%rdx        # 206e0 <g_2204+0x19c0>
    d956:	b9 40 00 00 00       	mov    $0x40,%ecx
    d95b:	48 89 c7             	mov    %rax,%rdi
    d95e:	48 89 d6             	mov    %rdx,%rsi
    d961:	f3 48 a5             	rep movsq %ds:(%rsi),%es:(%rdi)
    d964:	48 8d 05 e5 08 01 00 	lea    0x108e5(%rip),%rax        # 1e250 <g_930>
    d96b:	48 89 85 e8 ec ff ff 	mov    %rax,-0x1318(%rbp)
    d972:	48 8d 85 e8 ec ff ff 	lea    -0x1318(%rbp),%rax
    d979:	48 89 85 50 f2 ff ff 	mov    %rax,-0xdb0(%rbp)
    d980:	48 8d 85 e8 ec ff ff 	lea    -0x1318(%rbp),%rax
    d987:	48 89 85 58 f2 ff ff 	mov    %rax,-0xda8(%rbp)
    d98e:	48 8d 85 e8 ec ff ff 	lea    -0x1318(%rbp),%rax
    d995:	48 89 85 60 f2 ff ff 	mov    %rax,-0xda0(%rbp)
    d99c:	48 c7 85 68 f2 ff ff 	movq   $0x0,-0xd98(%rbp)
    d9a3:	00 00 00 00 
    d9a7:	48 8d 85 e8 ec ff ff 	lea    -0x1318(%rbp),%rax
    d9ae:	48 89 85 70 f2 ff ff 	mov    %rax,-0xd90(%rbp)
    d9b5:	48 8d 85 e8 ec ff ff 	lea    -0x1318(%rbp),%rax
    d9bc:	48 89 85 78 f2 ff ff 	mov    %rax,-0xd88(%rbp)
    d9c3:	48 c7 85 80 f2 ff ff 	movq   $0x0,-0xd80(%rbp)
    d9ca:	00 00 00 00 
    d9ce:	48 8d 85 e8 ec ff ff 	lea    -0x1318(%rbp),%rax
    d9d5:	48 89 85 88 f2 ff ff 	mov    %rax,-0xd78(%rbp)
    d9dc:	48 8d 85 e8 ec ff ff 	lea    -0x1318(%rbp),%rax
    d9e3:	48 89 85 90 f2 ff ff 	mov    %rax,-0xd70(%rbp)
    d9ea:	48 c7 85 98 f2 ff ff 	movq   $0x0,-0xd68(%rbp)
    d9f1:	00 00 00 00 
    d9f5:	48 8d 85 e8 ec ff ff 	lea    -0x1318(%rbp),%rax
    d9fc:	48 89 85 a0 f2 ff ff 	mov    %rax,-0xd60(%rbp)
    da03:	48 8d 85 e8 ec ff ff 	lea    -0x1318(%rbp),%rax
    da0a:	48 89 85 a8 f2 ff ff 	mov    %rax,-0xd58(%rbp)
    da11:	48 c7 85 b0 f2 ff ff 	movq   $0x0,-0xd50(%rbp)
    da18:	00 00 00 00 
    da1c:	48 8d 85 e8 ec ff ff 	lea    -0x1318(%rbp),%rax
    da23:	48 89 85 b8 f2 ff ff 	mov    %rax,-0xd48(%rbp)
    da2a:	48 8d 85 e8 ec ff ff 	lea    -0x1318(%rbp),%rax
    da31:	48 89 85 c0 f2 ff ff 	mov    %rax,-0xd40(%rbp)
    da38:	48 8d 85 e8 ec ff ff 	lea    -0x1318(%rbp),%rax
    da3f:	48 89 85 c8 f2 ff ff 	mov    %rax,-0xd38(%rbp)
    da46:	48 8d 85 e8 ec ff ff 	lea    -0x1318(%rbp),%rax
    da4d:	48 89 85 d0 f2 ff ff 	mov    %rax,-0xd30(%rbp)
    da54:	48 8d 85 e8 ec ff ff 	lea    -0x1318(%rbp),%rax
    da5b:	48 89 85 d8 f2 ff ff 	mov    %rax,-0xd28(%rbp)
    da62:	48 c7 85 e0 f2 ff ff 	movq   $0x0,-0xd20(%rbp)
    da69:	00 00 00 00 
    da6d:	48 8d 85 e8 ec ff ff 	lea    -0x1318(%rbp),%rax
    da74:	48 89 85 e8 f2 ff ff 	mov    %rax,-0xd18(%rbp)
    da7b:	48 8d 85 e8 ec ff ff 	lea    -0x1318(%rbp),%rax
    da82:	48 89 85 f0 f2 ff ff 	mov    %rax,-0xd10(%rbp)
    da89:	48 c7 85 f8 f2 ff ff 	movq   $0x0,-0xd08(%rbp)
    da90:	00 00 00 00 
    da94:	48 8d 85 e8 ec ff ff 	lea    -0x1318(%rbp),%rax
    da9b:	48 89 85 00 f3 ff ff 	mov    %rax,-0xd00(%rbp)
    daa2:	48 8d 85 e8 ec ff ff 	lea    -0x1318(%rbp),%rax
    daa9:	48 89 85 08 f3 ff ff 	mov    %rax,-0xcf8(%rbp)
    dab0:	48 c7 85 10 f3 ff ff 	movq   $0x0,-0xcf0(%rbp)
    dab7:	00 00 00 00 
    dabb:	48 8d 85 e8 ec ff ff 	lea    -0x1318(%rbp),%rax
    dac2:	48 89 85 18 f3 ff ff 	mov    %rax,-0xce8(%rbp)
    dac9:	48 8d 85 e8 ec ff ff 	lea    -0x1318(%rbp),%rax
    dad0:	48 89 85 20 f3 ff ff 	mov    %rax,-0xce0(%rbp)
    dad7:	48 c7 85 28 f3 ff ff 	movq   $0x0,-0xcd8(%rbp)
    dade:	00 00 00 00 
    dae2:	48 8d 85 e8 ec ff ff 	lea    -0x1318(%rbp),%rax
    dae9:	48 89 85 30 f3 ff ff 	mov    %rax,-0xcd0(%rbp)
    daf0:	48 8d 85 e8 ec ff ff 	lea    -0x1318(%rbp),%rax
    daf7:	48 89 85 38 f3 ff ff 	mov    %rax,-0xcc8(%rbp)
    dafe:	48 8d 85 e8 ec ff ff 	lea    -0x1318(%rbp),%rax
    db05:	48 89 85 40 f3 ff ff 	mov    %rax,-0xcc0(%rbp)
    db0c:	48 8d 85 e8 ec ff ff 	lea    -0x1318(%rbp),%rax
    db13:	48 89 85 48 f3 ff ff 	mov    %rax,-0xcb8(%rbp)
    db1a:	48 8d 85 e8 ec ff ff 	lea    -0x1318(%rbp),%rax
    db21:	48 89 85 50 f3 ff ff 	mov    %rax,-0xcb0(%rbp)
    db28:	48 c7 85 58 f3 ff ff 	movq   $0x0,-0xca8(%rbp)
    db2f:	00 00 00 00 
    db33:	48 8d 85 e8 ec ff ff 	lea    -0x1318(%rbp),%rax
    db3a:	48 89 85 60 f3 ff ff 	mov    %rax,-0xca0(%rbp)
    db41:	48 8d 85 e8 ec ff ff 	lea    -0x1318(%rbp),%rax
    db48:	48 89 85 68 f3 ff ff 	mov    %rax,-0xc98(%rbp)
    db4f:	48 c7 85 70 f3 ff ff 	movq   $0x0,-0xc90(%rbp)
    db56:	00 00 00 00 
    db5a:	48 8d 85 e8 ec ff ff 	lea    -0x1318(%rbp),%rax
    db61:	48 89 85 78 f3 ff ff 	mov    %rax,-0xc88(%rbp)
    db68:	48 8d 85 e8 ec ff ff 	lea    -0x1318(%rbp),%rax
    db6f:	48 89 85 80 f3 ff ff 	mov    %rax,-0xc80(%rbp)
    db76:	48 c7 85 88 f3 ff ff 	movq   $0x0,-0xc78(%rbp)
    db7d:	00 00 00 00 
    db81:	48 8d 85 e8 ec ff ff 	lea    -0x1318(%rbp),%rax
    db88:	48 89 85 90 f3 ff ff 	mov    %rax,-0xc70(%rbp)
    db8f:	48 8d 85 e8 ec ff ff 	lea    -0x1318(%rbp),%rax
    db96:	48 89 85 98 f3 ff ff 	mov    %rax,-0xc68(%rbp)
    db9d:	c6 85 0d ec ff ff c4 	movb   $0xc4,-0x13f3(%rbp)
    dba4:	66 c7 85 0e ec ff ff 	movw   $0xd0c5,-0x13f2(%rbp)
    dbab:	c5 d0 
    dbad:	48 8d 85 18 ec ff ff 	lea    -0x13e8(%rbp),%rax
    dbb4:	48 89 85 50 ee ff ff 	mov    %rax,-0x11b0(%rbp)
    dbbb:	48 c7 85 58 ee ff ff 	movq   $0xffffffffffffffff,-0x11a8(%rbp)
    dbc2:	ff ff ff ff 
    dbc6:	48 8d 05 33 62 01 00 	lea    0x16233(%rip),%rax        # 23e00 <g_1356>
    dbcd:	48 89 85 60 ee ff ff 	mov    %rax,-0x11a0(%rbp)
    dbd4:	c7 85 2c ec ff ff 00 	movl   $0x0,-0x13d4(%rbp)
    dbdb:	00 00 00 
    dbde:	eb 1a                	jmp    dbfa <func_54+0x130f>
    dbe0:	8b 85 2c ec ff ff    	mov    -0x13d4(%rbp),%eax
    dbe6:	48 98                	cltq   
    dbe8:	c7 84 85 a4 ee ff ff 	movl   $0x883154dc,-0x115c(%rbp,%rax,4)
    dbef:	dc 54 31 88 
    dbf3:	83 85 2c ec ff ff 01 	addl   $0x1,-0x13d4(%rbp)
    dbfa:	83 bd 2c ec ff ff 00 	cmpl   $0x0,-0x13d4(%rbp)
    dc01:	7e dd                	jle    dbe0 <func_54+0x12f5>
    dc03:	c7 85 2c ec ff ff 00 	movl   $0x0,-0x13d4(%rbp)
    dc0a:	00 00 00 
    dc0d:	eb 21                	jmp    dc30 <func_54+0x1345>
    dc0f:	8b 85 2c ec ff ff    	mov    -0x13d4(%rbp),%eax
    dc15:	48 98                	cltq   
    dc17:	48 bf 6e 70 c3 57 91 	movabs $0x7f00659157c3706e,%rdi
    dc1e:	65 00 7f 
    dc21:	48 89 bc c5 b0 ee ff 	mov    %rdi,-0x1150(%rbp,%rax,8)
    dc28:	ff 
    dc29:	83 85 2c ec ff ff 01 	addl   $0x1,-0x13d4(%rbp)
    dc30:	83 bd 2c ec ff ff 01 	cmpl   $0x1,-0x13d4(%rbp)
    dc37:	7e d6                	jle    dc0f <func_54+0x1324>
    dc39:	c7 05 01 06 01 00 00 	movl   $0x0,0x10601(%rip)        # 1e244 <g_823>
    dc40:	00 00 00 
    dc43:	e9 e9 00 00 00       	jmpq   dd31 <func_54+0x1446>
    dc48:	c7 85 84 ec ff ff 57 	movl   $0xa24d1257,-0x137c(%rbp)
    dc4f:	12 4d a2 
    dc52:	c7 85 88 ec ff ff dc 	movl   $0xd47859dc,-0x1378(%rbp)
    dc59:	59 78 d4 
    dc5c:	c7 85 8c ec ff ff ff 	movl   $0xffffffff,-0x1374(%rbp)
    dc63:	ff ff ff 
    dc66:	c7 85 40 f0 ff ff ff 	movl   $0xffffffff,-0xfc0(%rbp)
    dc6d:	ff ff ff 
    dc70:	c7 85 44 f0 ff ff ff 	movl   $0xffffffff,-0xfbc(%rbp)
    dc77:	ff ff ff 
    dc7a:	c7 85 48 f0 ff ff ff 	movl   $0xffffffff,-0xfb8(%rbp)
    dc81:	ff ff ff 
    dc84:	c7 85 4c f0 ff ff ff 	movl   $0xffffffff,-0xfb4(%rbp)
    dc8b:	ff ff ff 
    dc8e:	c7 85 50 f0 ff ff ff 	movl   $0xffffffff,-0xfb0(%rbp)
    dc95:	ff ff ff 
    dc98:	c7 85 54 f0 ff ff ff 	movl   $0xffffffff,-0xfac(%rbp)
    dc9f:	ff ff ff 
    dca2:	c7 85 58 f0 ff ff ff 	movl   $0xffffffff,-0xfa8(%rbp)
    dca9:	ff ff ff 
    dcac:	c7 85 90 ec ff ff 04 	movl   $0x4,-0x1370(%rbp)
    dcb3:	00 00 00 
    dcb6:	c7 85 94 ec ff ff 06 	movl   $0x6,-0x136c(%rbp)
    dcbd:	00 00 00 
    dcc0:	c7 85 80 f1 ff ff 01 	movl   $0x1,-0xe80(%rbp)
    dcc7:	00 00 00 
    dcca:	c7 85 84 f1 ff ff 01 	movl   $0x1,-0xe7c(%rbp)
    dcd1:	00 00 00 
    dcd4:	c7 85 88 f1 ff ff fa 	movl   $0xfffffffa,-0xe78(%rbp)
    dcdb:	ff ff ff 
    dcde:	c7 85 8c f1 ff ff 01 	movl   $0x1,-0xe74(%rbp)
    dce5:	00 00 00 
    dce8:	c7 85 90 f1 ff ff 01 	movl   $0x1,-0xe70(%rbp)
    dcef:	00 00 00 
    dcf2:	c7 85 94 f1 ff ff fa 	movl   $0xfffffffa,-0xe6c(%rbp)
    dcf9:	ff ff ff 
    dcfc:	c7 85 98 f1 ff ff 01 	movl   $0x1,-0xe68(%rbp)
    dd03:	00 00 00 
    dd06:	48 8d 85 a0 f3 ff ff 	lea    -0xc60(%rbp),%rax
    dd0d:	48 8d 15 cc bd 00 00 	lea    0xbdcc(%rip),%rdx        # 19ae0 <g_2228+0x8e0>
    dd14:	b9 3c 00 00 00       	mov    $0x3c,%ecx
    dd19:	48 89 c7             	mov    %rax,%rdi
    dd1c:	48 89 d6             	mov    %rdx,%rsi
    dd1f:	f3 48 a5             	rep movsq %ds:(%rsi),%es:(%rdi)
    dd22:	8b 05 1c 05 01 00    	mov    0x1051c(%rip),%eax        # 1e244 <g_823>
    dd28:	83 c0 01             	add    $0x1,%eax
    dd2b:	89 05 13 05 01 00    	mov    %eax,0x10513(%rip)        # 1e244 <g_823>
    dd31:	8b 05 0d 05 01 00    	mov    0x1050d(%rip),%eax        # 1e244 <g_823>
    dd37:	83 f8 11             	cmp    $0x11,%eax
    dd3a:	0f 87 08 ff ff ff    	ja     dc48 <func_54+0x135d>
    dd40:	c6 05 71 03 01 00 00 	movb   $0x0,0x10371(%rip)        # 1e0b8 <g_124>
    dd47:	e9 b7 0b 00 00       	jmpq   e903 <func_54+0x2018>
    dd4c:	c7 85 70 ec ff ff 29 	movl   $0x2422f129,-0x1390(%rbp)
    dd53:	f1 22 24 
    dd56:	c7 85 d8 ec ff ff 73 	movl   $0xeb1b8873,-0x1328(%rbp)
    dd5d:	88 1b eb 
    dd60:	48 c7 85 68 ee ff ff 	movq   $0x0,-0x1198(%rbp)
    dd67:	00 00 00 00 
    dd6b:	48 8d 05 e6 3c 01 00 	lea    0x13ce6(%rip),%rax        # 21a58 <g_214>
    dd72:	48 89 85 70 ee ff ff 	mov    %rax,-0x1190(%rbp)
    dd79:	c7 85 74 ec ff ff 01 	movl   $0x1,-0x138c(%rbp)
    dd80:	00 00 00 
    dd83:	c7 85 80 f1 ff ff fb 	movl   $0xfffffffb,-0xe80(%rbp)
    dd8a:	ff ff ff 
    dd8d:	c7 85 84 f1 ff ff 00 	movl   $0x0,-0xe7c(%rbp)
    dd94:	00 00 00 
    dd97:	c7 85 88 f1 ff ff 9f 	movl   $0x39c1589f,-0xe78(%rbp)
    dd9e:	58 c1 39 
    dda1:	c7 85 8c f1 ff ff 00 	movl   $0x0,-0xe74(%rbp)
    dda8:	00 00 00 
    ddab:	c7 85 90 f1 ff ff fb 	movl   $0xfffffffb,-0xe70(%rbp)
    ddb2:	ff ff ff 
    ddb5:	c7 85 94 f1 ff ff 5a 	movl   $0xd2e195a,-0xe6c(%rbp)
    ddbc:	19 2e 0d 
    ddbf:	c7 85 98 f1 ff ff 5a 	movl   $0xd2e195a,-0xe68(%rbp)
    ddc6:	19 2e 0d 
    ddc9:	c7 85 9c f1 ff ff fb 	movl   $0xfffffffb,-0xe64(%rbp)
    ddd0:	ff ff ff 
    ddd3:	c7 85 a0 f1 ff ff 00 	movl   $0x0,-0xe60(%rbp)
    ddda:	00 00 00 
    dddd:	c7 85 a4 f1 ff ff 9f 	movl   $0x39c1589f,-0xe5c(%rbp)
    dde4:	58 c1 39 
    dde7:	c7 85 a8 f1 ff ff 01 	movl   $0x1,-0xe58(%rbp)
    ddee:	00 00 00 
    ddf1:	c7 85 ac f1 ff ff 01 	movl   $0x1,-0xe54(%rbp)
    ddf8:	00 00 00 
    ddfb:	c7 85 b0 f1 ff ff 9f 	movl   $0x39c1589f,-0xe50(%rbp)
    de02:	58 c1 39 
    de05:	c7 85 b4 f1 ff ff fb 	movl   $0xfffffffb,-0xe4c(%rbp)
    de0c:	ff ff ff 
    de0f:	c7 85 b8 f1 ff ff 18 	movl   $0xe33adc18,-0xe48(%rbp)
    de16:	dc 3a e3 
    de19:	c7 85 bc f1 ff ff fb 	movl   $0xfffffffb,-0xe44(%rbp)
    de20:	ff ff ff 
    de23:	c7 85 c0 f1 ff ff 9f 	movl   $0x39c1589f,-0xe40(%rbp)
    de2a:	58 c1 39 
    de2d:	c7 85 c4 f1 ff ff 01 	movl   $0x1,-0xe3c(%rbp)
    de34:	00 00 00 
    de37:	c7 85 c8 f1 ff ff 01 	movl   $0x1,-0xe38(%rbp)
    de3e:	00 00 00 
    de41:	c7 85 cc f1 ff ff 9f 	movl   $0x39c1589f,-0xe34(%rbp)
    de48:	58 c1 39 
    de4b:	c7 85 d0 f1 ff ff 00 	movl   $0x0,-0xe30(%rbp)
    de52:	00 00 00 
    de55:	c7 85 d4 f1 ff ff fb 	movl   $0xfffffffb,-0xe2c(%rbp)
    de5c:	ff ff ff 
    de5f:	c7 85 d8 f1 ff ff 5a 	movl   $0xd2e195a,-0xe28(%rbp)
    de66:	19 2e 0d 
    de69:	c7 85 dc f1 ff ff 5a 	movl   $0xd2e195a,-0xe24(%rbp)
    de70:	19 2e 0d 
    de73:	c7 85 e0 f1 ff ff fb 	movl   $0xfffffffb,-0xe20(%rbp)
    de7a:	ff ff ff 
    de7d:	c7 85 e4 f1 ff ff 00 	movl   $0x0,-0xe1c(%rbp)
    de84:	00 00 00 
    de87:	c7 85 e8 f1 ff ff 9f 	movl   $0x39c1589f,-0xe18(%rbp)
    de8e:	58 c1 39 
    de91:	c7 85 ec f1 ff ff 00 	movl   $0x0,-0xe14(%rbp)
    de98:	00 00 00 
    de9b:	c7 85 f0 f1 ff ff fb 	movl   $0xfffffffb,-0xe10(%rbp)
    dea2:	ff ff ff 
    dea5:	c7 85 f4 f1 ff ff 5a 	movl   $0xd2e195a,-0xe0c(%rbp)
    deac:	19 2e 0d 
    deaf:	c7 85 f8 f1 ff ff a9 	movl   $0xd85806a9,-0xe08(%rbp)
    deb6:	06 58 d8 
    deb9:	c7 85 fc f1 ff ff 01 	movl   $0x1,-0xe04(%rbp)
    dec0:	00 00 00 
    dec3:	c7 85 00 f2 ff ff a9 	movl   $0xd85806a9,-0xe00(%rbp)
    deca:	06 58 d8 
    decd:	c7 85 04 f2 ff ff 5a 	movl   $0xd2e195a,-0xdfc(%rbp)
    ded4:	19 2e 0d 
    ded7:	c7 85 08 f2 ff ff 9f 	movl   $0x39c1589f,-0xdf8(%rbp)
    dede:	58 c1 39 
    dee1:	c7 85 0c f2 ff ff 9f 	movl   $0x39c1589f,-0xdf4(%rbp)
    dee8:	58 c1 39 
    deeb:	c7 85 10 f2 ff ff 5a 	movl   $0xd2e195a,-0xdf0(%rbp)
    def2:	19 2e 0d 
    def5:	c7 85 14 f2 ff ff a9 	movl   $0xd85806a9,-0xdec(%rbp)
    defc:	06 58 d8 
    deff:	c7 85 18 f2 ff ff 01 	movl   $0x1,-0xde8(%rbp)
    df06:	00 00 00 
    df09:	c7 85 1c f2 ff ff a9 	movl   $0xd85806a9,-0xde4(%rbp)
    df10:	06 58 d8 
    df13:	c7 85 20 f2 ff ff a9 	movl   $0xd85806a9,-0xde0(%rbp)
    df1a:	06 58 d8 
    df1d:	c7 85 24 f2 ff ff 00 	movl   $0x0,-0xddc(%rbp)
    df24:	00 00 00 
    df27:	c7 85 28 f2 ff ff 01 	movl   $0x1,-0xdd8(%rbp)
    df2e:	00 00 00 
    df31:	c7 85 2c f2 ff ff fb 	movl   $0xfffffffb,-0xdd4(%rbp)
    df38:	ff ff ff 
    df3b:	c7 85 30 f2 ff ff 01 	movl   $0x1,-0xdd0(%rbp)
    df42:	00 00 00 
    df45:	c7 85 34 f2 ff ff 00 	movl   $0x0,-0xdcc(%rbp)
    df4c:	00 00 00 
    df4f:	c7 85 38 f2 ff ff a9 	movl   $0xd85806a9,-0xdc8(%rbp)
    df56:	06 58 d8 
    df59:	c7 85 3c f2 ff ff a9 	movl   $0xd85806a9,-0xdc4(%rbp)
    df60:	06 58 d8 
    df63:	c7 85 40 f2 ff ff 00 	movl   $0x0,-0xdc0(%rbp)
    df6a:	00 00 00 
    df6d:	c7 85 44 f2 ff ff 01 	movl   $0x1,-0xdbc(%rbp)
    df74:	00 00 00 
    df77:	48 8d 05 ee 00 01 00 	lea    0x100ee(%rip),%rax        # 1e06c <g_5+0x2c>
    df7e:	48 89 85 f0 ec ff ff 	mov    %rax,-0x1310(%rbp)
    df85:	48 c7 85 f8 ec ff ff 	movq   $0xfffffffffffffffc,-0x1308(%rbp)
    df8c:	fc ff ff ff 
    df90:	48 c7 85 78 ee ff ff 	movq   $0x0,-0x1188(%rbp)
    df97:	00 00 00 00 
    df9b:	c7 85 30 ec ff ff 00 	movl   $0x0,-0x13d0(%rbp)
    dfa2:	00 00 00 
    dfa5:	eb 49                	jmp    dff0 <func_54+0x1705>
    dfa7:	c7 85 34 ec ff ff 00 	movl   $0x0,-0x13cc(%rbp)
    dfae:	00 00 00 
    dfb1:	eb 2d                	jmp    dfe0 <func_54+0x16f5>
    dfb3:	8b 85 34 ec ff ff    	mov    -0x13cc(%rbp),%eax
    dfb9:	48 98                	cltq   
    dfbb:	8b 95 30 ec ff ff    	mov    -0x13d0(%rbp),%edx
    dfc1:	48 63 d2             	movslq %edx,%rdx
    dfc4:	48 01 d2             	add    %rdx,%rdx
    dfc7:	48 01 c2             	add    %rax,%rdx
    dfca:	48 8d 85 a0 ec ff ff 	lea    -0x1360(%rbp),%rax
    dfd1:	48 89 84 d5 40 f0 ff 	mov    %rax,-0xfc0(%rbp,%rdx,8)
    dfd8:	ff 
    dfd9:	83 85 34 ec ff ff 01 	addl   $0x1,-0x13cc(%rbp)
    dfe0:	83 bd 34 ec ff ff 01 	cmpl   $0x1,-0x13cc(%rbp)
    dfe7:	7e ca                	jle    dfb3 <func_54+0x16c8>
    dfe9:	83 85 30 ec ff ff 01 	addl   $0x1,-0x13d0(%rbp)
    dff0:	83 bd 30 ec ff ff 07 	cmpl   $0x7,-0x13d0(%rbp)
    dff7:	7e ae                	jle    dfa7 <func_54+0x16bc>
    dff9:	c7 85 30 ec ff ff 00 	movl   $0x0,-0x13d0(%rbp)
    e000:	00 00 00 
    e003:	eb 1e                	jmp    e023 <func_54+0x1738>
    e005:	8b 85 30 ec ff ff    	mov    -0x13d0(%rbp),%eax
    e00b:	48 98                	cltq   
    e00d:	48 8d 15 9c 01 01 00 	lea    0x1019c(%rip),%rdx        # 1e1b0 <g_632>
    e014:	48 89 94 c5 f0 ee ff 	mov    %rdx,-0x1110(%rbp,%rax,8)
    e01b:	ff 
    e01c:	83 85 30 ec ff ff 01 	addl   $0x1,-0x13d0(%rbp)
    e023:	83 bd 30 ec ff ff 02 	cmpl   $0x2,-0x13d0(%rbp)
    e02a:	7e d9                	jle    e005 <func_54+0x171a>
    e02c:	83 bd f4 eb ff ff 00 	cmpl   $0x0,-0x140c(%rbp)
    e033:	0f 85 db 08 00 00    	jne    e914 <func_54+0x2029>
    e039:	8b 05 7d 00 01 00    	mov    0x1007d(%rip),%eax        # 1e0bc <g_127>
    e03f:	89 85 70 ec ff ff    	mov    %eax,-0x1390(%rbp)
    e045:	83 bd 70 ec ff ff ff 	cmpl   $0xffffffff,-0x1390(%rbp)
    e04c:	0f 85 0a 01 00 00    	jne    e15c <func_54+0x1871>
    e052:	48 8b 85 f8 eb ff ff 	mov    -0x1408(%rbp),%rax
    e059:	0f bf d8             	movswl %ax,%ebx
    e05c:	8b 85 f4 eb ff ff    	mov    -0x140c(%rbp),%eax
    e062:	44 0f b7 e0          	movzwl %ax,%r12d
    e066:	48 8b 85 f8 eb ff ff 	mov    -0x1408(%rbp),%rax
    e06d:	41 89 c6             	mov    %eax,%r14d
    e070:	48 8b 05 41 3a 01 00 	mov    0x13a41(%rip),%rax        # 21ab8 <g_911>
    e077:	48 8b 00             	mov    (%rax),%rax
    e07a:	48 8b 00             	mov    (%rax),%rax
    e07d:	48 8b 00             	mov    (%rax),%rax
    e080:	0f b7 00             	movzwl (%rax),%eax
    e083:	44 0f b7 e8          	movzwl %ax,%r13d
    e087:	8b 05 2b 01 01 00    	mov    0x1012b(%rip),%eax        # 1e1b8 <g_730>
    e08d:	0f b7 d0             	movzwl %ax,%edx
    e090:	8b 85 d8 ec ff ff    	mov    -0x1328(%rbp),%eax
    e096:	85 c0                	test   %eax,%eax
    e098:	75 0b                	jne    e0a5 <func_54+0x17ba>
    e09a:	0f b6 05 9f 01 01 00 	movzbl 0x1019f(%rip),%eax        # 1e240 <g_820>
    e0a1:	84 c0                	test   %al,%al
    e0a3:	79 07                	jns    e0ac <func_54+0x17c1>
    e0a5:	b8 01 00 00 00       	mov    $0x1,%eax
    e0aa:	eb 05                	jmp    e0b1 <func_54+0x17c6>
    e0ac:	b8 00 00 00 00       	mov    $0x0,%eax
    e0b1:	0f b7 c0             	movzwl %ax,%eax
    e0b4:	89 d6                	mov    %edx,%esi
    e0b6:	89 c7                	mov    %eax,%edi
    e0b8:	e8 42 ac ff ff       	callq  8cff <safe_add_func_uint16_t_u_u>
    e0bd:	0f b6 c0             	movzbl %al,%eax
    e0c0:	be 07 00 00 00       	mov    $0x7,%esi
    e0c5:	89 c7                	mov    %eax,%edi
    e0c7:	e8 39 ab ff ff       	callq  8c05 <safe_lshift_func_uint8_t_u_s>
    e0cc:	0f b6 c0             	movzbl %al,%eax
    e0cf:	39 85 f4 eb ff ff    	cmp    %eax,-0x140c(%rbp)
    e0d5:	7e 10                	jle    e0e7 <func_54+0x17fc>
    e0d7:	48 8b 05 d2 39 01 00 	mov    0x139d2(%rip),%rax        # 21ab0 <g_876>
    e0de:	48 8b 00             	mov    (%rax),%rax
    e0e1:	8b 00                	mov    (%rax),%eax
    e0e3:	85 c0                	test   %eax,%eax
    e0e5:	74 07                	je     e0ee <func_54+0x1803>
    e0e7:	b8 01 00 00 00       	mov    $0x1,%eax
    e0ec:	eb 05                	jmp    e0f3 <func_54+0x1808>
    e0ee:	b8 00 00 00 00       	mov    $0x0,%eax
    e0f3:	0f b7 c0             	movzwl %ax,%eax
    e0f6:	44 89 ee             	mov    %r13d,%esi
    e0f9:	89 c7                	mov    %eax,%edi
    e0fb:	e8 5c ac ff ff       	callq  8d5c <safe_mod_func_uint16_t_u_u>
    e100:	0f b7 c0             	movzwl %ax,%eax
    e103:	39 85 f4 eb ff ff    	cmp    %eax,-0x140c(%rbp)
    e109:	0f 9e c0             	setle  %al
    e10c:	0f b6 c0             	movzbl %al,%eax
    e10f:	44 89 f6             	mov    %r14d,%esi
    e112:	89 c7                	mov    %eax,%edi
    e114:	e8 9f ad ff ff       	callq  8eb8 <safe_add_func_uint32_t_u_u>
    e119:	8b 85 d8 ec ff ff    	mov    -0x1328(%rbp),%eax
    e11f:	83 e0 01             	and    $0x1,%eax
    e122:	8b 95 f4 eb ff ff    	mov    -0x140c(%rbp),%edx
    e128:	21 d0                	and    %edx,%eax
    e12a:	0f b6 c0             	movzbl %al,%eax
    e12d:	be 04 00 00 00       	mov    $0x4,%esi
    e132:	89 c7                	mov    %eax,%edi
    e134:	e8 13 ab ff ff       	callq  8c4c <safe_lshift_func_uint8_t_u_u>
    e139:	0f b6 c0             	movzbl %al,%eax
    e13c:	44 89 e6             	mov    %r12d,%esi
    e13f:	89 c7                	mov    %eax,%edi
    e141:	e8 b9 ab ff ff       	callq  8cff <safe_add_func_uint16_t_u_u>
    e146:	89 de                	mov    %ebx,%esi
    e148:	bf c5 bd ff ff       	mov    $0xffffbdc5,%edi
    e14d:	e8 81 a2 ff ff       	callq  83d3 <safe_sub_func_int16_t_s_s>
    e152:	81 bd f4 eb ff ff 35 	cmpl   $0x5373ab35,-0x140c(%rbp)
    e159:	ab 73 53 
    e15c:	48 8b 05 6d 39 01 00 	mov    0x1396d(%rip),%rax        # 21ad0 <g_1187>
    e163:	48 8b 00             	mov    (%rax),%rax
    e166:	48 8b 00             	mov    (%rax),%rax
    e169:	48 89 c6             	mov    %rax,%rsi
    e16c:	48 8b 8d f8 eb ff ff 	mov    -0x1408(%rbp),%rcx
    e173:	48 8b 05 de 38 01 00 	mov    0x138de(%rip),%rax        # 21a58 <g_214>
    e17a:	8b 10                	mov    (%rax),%edx
    e17c:	48 8b 85 00 ed ff ff 	mov    -0x1300(%rbp),%rax
    e183:	89 10                	mov    %edx,(%rax)
    e185:	48 8b 85 00 ed ff ff 	mov    -0x1300(%rbp),%rax
    e18c:	8b 00                	mov    (%rax),%eax
    e18e:	48 98                	cltq   
    e190:	48 39 c1             	cmp    %rax,%rcx
    e193:	0f 95 c0             	setne  %al
    e196:	0f b6 c0             	movzbl %al,%eax
    e199:	48 89 c7             	mov    %rax,%rdi
    e19c:	e8 0e af ff ff       	callq  90af <safe_div_func_uint64_t_u_u>
    e1a1:	48 85 c0             	test   %rax,%rax
    e1a4:	0f 84 49 06 00 00    	je     e7f3 <func_54+0x1f08>
    e1aa:	48 b8 ec d7 33 ff ec 	movabs $0xffec09ecff33d7ec,%rax
    e1b1:	09 ec ff 
    e1b4:	48 89 85 a0 f3 ff ff 	mov    %rax,-0xc60(%rbp)
    e1bb:	48 bb ff d7 ff 08 ec 	movabs $0xffff01ec08ffd7ff,%rbx
    e1c2:	01 ff ff 
    e1c5:	48 89 9d a8 f3 ff ff 	mov    %rbx,-0xc58(%rbp)
    e1cc:	48 b9 ec 01 ff ff ff 	movabs $0x8ec01ffffff01ec,%rcx
    e1d3:	01 ec 08 
    e1d6:	48 89 8d b0 f3 ff ff 	mov    %rcx,-0xc50(%rbp)
    e1dd:	48 89 85 b8 f3 ff ff 	mov    %rax,-0xc48(%rbp)
    e1e4:	48 89 9d c0 f3 ff ff 	mov    %rbx,-0xc40(%rbp)
    e1eb:	48 89 8d c8 f3 ff ff 	mov    %rcx,-0xc38(%rbp)
    e1f2:	48 89 85 d0 f3 ff ff 	mov    %rax,-0xc30(%rbp)
    e1f9:	48 89 9d d8 f3 ff ff 	mov    %rbx,-0xc28(%rbp)
    e200:	48 89 8d e0 f3 ff ff 	mov    %rcx,-0xc20(%rbp)
    e207:	48 89 85 e8 f3 ff ff 	mov    %rax,-0xc18(%rbp)
    e20e:	48 89 9d f0 f3 ff ff 	mov    %rbx,-0xc10(%rbp)
    e215:	48 89 8d f8 f3 ff ff 	mov    %rcx,-0xc08(%rbp)
    e21c:	48 89 85 00 f4 ff ff 	mov    %rax,-0xc00(%rbp)
    e223:	48 89 9d 08 f4 ff ff 	mov    %rbx,-0xbf8(%rbp)
    e22a:	48 89 8d 10 f4 ff ff 	mov    %rcx,-0xbf0(%rbp)
    e231:	48 b8 ec d7 ec 08 ff 	movabs $0x8ffd7ff08ecd7ec,%rax
    e238:	d7 ff 08 
    e23b:	48 89 85 18 f4 ff ff 	mov    %rax,-0xbe8(%rbp)
    e242:	48 b8 33 01 33 f8 ff 	movabs $0x83309fff8330133,%rax
    e249:	09 33 08 
    e24c:	48 89 85 20 f4 ff ff 	mov    %rax,-0xbe0(%rbp)
    e253:	48 bb ff 09 33 08 33 	movabs $0xf8ff0933083309ff,%rbx
    e25a:	09 ff f8 
    e25d:	48 89 9d 28 f4 ff ff 	mov    %rbx,-0xbd8(%rbp)
    e264:	48 b9 ff 01 ec 08 ff 	movabs $0x8ffd7ff08ec01ff,%rcx
    e26b:	d7 ff 08 
    e26e:	48 89 8d 30 f4 ff ff 	mov    %rcx,-0xbd0(%rbp)
    e275:	48 89 85 38 f4 ff ff 	mov    %rax,-0xbc8(%rbp)
    e27c:	48 89 9d 40 f4 ff ff 	mov    %rbx,-0xbc0(%rbp)
    e283:	48 89 8d 48 f4 ff ff 	mov    %rcx,-0xbb8(%rbp)
    e28a:	48 89 85 50 f4 ff ff 	mov    %rax,-0xbb0(%rbp)
    e291:	48 89 9d 58 f4 ff ff 	mov    %rbx,-0xba8(%rbp)
    e298:	48 89 8d 60 f4 ff ff 	mov    %rcx,-0xba0(%rbp)
    e29f:	48 89 85 68 f4 ff ff 	mov    %rax,-0xb98(%rbp)
    e2a6:	48 89 9d 70 f4 ff ff 	mov    %rbx,-0xb90(%rbp)
    e2ad:	48 89 8d 78 f4 ff ff 	mov    %rcx,-0xb88(%rbp)
    e2b4:	48 89 85 80 f4 ff ff 	mov    %rax,-0xb80(%rbp)
    e2bb:	48 89 9d 88 f4 ff ff 	mov    %rbx,-0xb78(%rbp)
    e2c2:	48 8d 05 17 fe 00 00 	lea    0xfe17(%rip),%rax        # 1e0e0 <g_225>
    e2c9:	48 89 85 80 ee ff ff 	mov    %rax,-0x1180(%rbp)
    e2d0:	48 8d 05 b1 fd 00 00 	lea    0xfdb1(%rip),%rax        # 1e088 <g_90>
    e2d7:	48 89 85 88 ee ff ff 	mov    %rax,-0x1178(%rbp)
    e2de:	c7 85 78 ec ff ff a7 	movl   $0xcb6f17a7,-0x1388(%rbp)
    e2e5:	17 6f cb 
    e2e8:	48 8d 85 20 ec ff ff 	lea    -0x13e0(%rbp),%rax
    e2ef:	48 89 85 90 ee ff ff 	mov    %rax,-0x1170(%rbp)
    e2f6:	66 c7 85 16 ec ff ff 	movw   $0x782,-0x13ea(%rbp)
    e2fd:	82 07 
    e2ff:	c7 85 38 ec ff ff 00 	movl   $0x0,-0x13c8(%rbp)
    e306:	00 00 00 
    e309:	eb 1e                	jmp    e329 <func_54+0x1a3e>
    e30b:	8b 85 38 ec ff ff    	mov    -0x13c8(%rbp),%eax
    e311:	48 98                	cltq   
    e313:	48 8d 95 a4 ee ff ff 	lea    -0x115c(%rbp),%rdx
    e31a:	48 89 94 c5 c0 ee ff 	mov    %rdx,-0x1140(%rbp,%rax,8)
    e321:	ff 
    e322:	83 85 38 ec ff ff 01 	addl   $0x1,-0x13c8(%rbp)
    e329:	83 bd 38 ec ff ff 01 	cmpl   $0x1,-0x13c8(%rbp)
    e330:	7e d9                	jle    e30b <func_54+0x1a20>
    e332:	8b 95 a4 ee ff ff    	mov    -0x115c(%rbp),%edx
    e338:	0f b7 05 41 ff 00 00 	movzwl 0xff41(%rip),%eax        # 1e280 <g_1311>
    e33f:	98                   	cwtl   
    e340:	39 c2                	cmp    %eax,%edx
    e342:	0f 9c c0             	setl   %al
    e345:	44 0f b6 f0          	movzbl %al,%r14d
    e349:	8b 05 35 ff 00 00    	mov    0xff35(%rip),%eax        # 1e284 <g_1329>
    e34f:	0f b6 d8             	movzbl %al,%ebx
    e352:	48 8b 05 67 37 01 00 	mov    0x13767(%rip),%rax        # 21ac0 <g_910>
    e359:	48 8b 00             	mov    (%rax),%rax
    e35c:	48 8b 00             	mov    (%rax),%rax
    e35f:	48 8b 00             	mov    (%rax),%rax
    e362:	48 85 c0             	test   %rax,%rax
    e365:	8b 05 1d fe 00 00    	mov    0xfe1d(%rip),%eax        # 1e188 <g_403>
    e36b:	c1 e0 02             	shl    $0x2,%eax
    e36e:	c1 f8 02             	sar    $0x2,%eax
    e371:	44 0f b7 e0          	movzwl %ax,%r12d
    e375:	48 8b 85 68 ee ff ff 	mov    -0x1198(%rbp),%rax
    e37c:	48 89 85 a0 ec ff ff 	mov    %rax,-0x1360(%rbp)
    e383:	48 8b 85 a0 ec ff ff 	mov    -0x1360(%rbp),%rax
    e38a:	48 39 85 10 ed ff ff 	cmp    %rax,-0x12f0(%rbp)
    e391:	0f b6 05 02 fd 00 00 	movzbl 0xfd02(%rip),%eax        # 1e09a <g_109>
    e398:	66 98                	cbtw   
    e39a:	44 0f b7 e8          	movzwl %ax,%r13d
    e39e:	8b 85 6c ec ff ff    	mov    -0x1394(%rbp),%eax
    e3a4:	89 c6                	mov    %eax,%esi
    e3a6:	bf 07 79 00 00       	mov    $0x7907,%edi
    e3ab:	e8 31 a1 ff ff       	callq  84e1 <safe_lshift_func_int16_t_s_u>
    e3b0:	48 8b 95 e8 ec ff ff 	mov    -0x1318(%rbp),%rdx
    e3b7:	0f b7 12             	movzwl (%rdx),%edx
    e3ba:	31 c2                	xor    %eax,%edx
    e3bc:	48 8b 85 e8 ec ff ff 	mov    -0x1318(%rbp),%rax
    e3c3:	66 89 10             	mov    %dx,(%rax)
    e3c6:	0f b7 00             	movzwl (%rax),%eax
    e3c9:	0f b7 c0             	movzwl %ax,%eax
    e3cc:	44 89 ee             	mov    %r13d,%esi
    e3cf:	89 c7                	mov    %eax,%edi
    e3d1:	e8 67 a9 ff ff       	callq  8d3d <safe_mul_func_uint16_t_u_u>
    e3d6:	0f b7 d0             	movzwl %ax,%edx
    e3d9:	48 8b 85 f8 eb ff ff 	mov    -0x1408(%rbp),%rax
    e3e0:	48 39 c2             	cmp    %rax,%rdx
    e3e3:	44 89 e6             	mov    %r12d,%esi
    e3e6:	bf 00 00 00 00       	mov    $0x0,%edi
    e3eb:	e8 6c a9 ff ff       	callq  8d5c <safe_mod_func_uint16_t_u_u>
    e3f0:	66 83 f8 01          	cmp    $0x1,%ax
    e3f4:	0f 97 c0             	seta   %al
    e3f7:	0f b6 c0             	movzbl %al,%eax
    e3fa:	be 05 00 00 00       	mov    $0x5,%esi
    e3ff:	89 c7                	mov    %eax,%edi
    e401:	e8 2f 9f ff ff       	callq  8335 <safe_rshift_func_int8_t_s_s>
    e406:	0f be d0             	movsbl %al,%edx
    e409:	83 bd f4 eb ff ff 00 	cmpl   $0x0,-0x140c(%rbp)
    e410:	0f 95 c0             	setne  %al
    e413:	0f b6 c0             	movzbl %al,%eax
    e416:	89 d6                	mov    %edx,%esi
    e418:	89 c7                	mov    %eax,%edi
    e41a:	e8 97 a1 ff ff       	callq  85b6 <safe_add_func_int32_t_s_s>
    e41f:	89 de                	mov    %ebx,%esi
    e421:	bf 07 00 00 00       	mov    $0x7,%edi
    e426:	e8 68 a7 ff ff       	callq  8b93 <safe_mul_func_uint8_t_u_u>
    e42b:	0f b6 c0             	movzbl %al,%eax
    e42e:	0b 85 f4 eb ff ff    	or     -0x140c(%rbp),%eax
    e434:	85 c0                	test   %eax,%eax
    e436:	74 08                	je     e440 <func_54+0x1b55>
    e438:	8b 05 92 fc 00 00    	mov    0xfc92(%rip),%eax        # 1e0d0 <g_216>
    e43e:	85 c0                	test   %eax,%eax
    e440:	48 8b 85 00 ed ff ff 	mov    -0x1300(%rbp),%rax
    e447:	8b 00                	mov    (%rax),%eax
    e449:	85 c0                	test   %eax,%eax
    e44b:	74 10                	je     e45d <func_54+0x1b72>
    e44d:	83 bd f4 eb ff ff 00 	cmpl   $0x0,-0x140c(%rbp)
    e454:	74 07                	je     e45d <func_54+0x1b72>
    e456:	b8 01 00 00 00       	mov    $0x1,%eax
    e45b:	eb 05                	jmp    e462 <func_54+0x1b77>
    e45d:	b8 00 00 00 00       	mov    $0x0,%eax
    e462:	83 f8 03             	cmp    $0x3,%eax
    e465:	0f 9e c0             	setle  %al
    e468:	0f b6 c0             	movzbl %al,%eax
    e46b:	41 39 c6             	cmp    %eax,%r14d
    e46e:	7d 0f                	jge    e47f <func_54+0x1b94>
    e470:	c7 85 d8 ec ff ff 54 	movl   $0xea0c9554,-0x1328(%rbp)
    e477:	95 0c ea 
    e47a:	e9 18 01 00 00       	jmpq   e597 <func_54+0x1cac>
    e47f:	48 8d 85 d8 ec ff ff 	lea    -0x1328(%rbp),%rax
    e486:	48 89 85 98 ee ff ff 	mov    %rax,-0x1168(%rbp)
    e48d:	8b 05 25 fd 00 00    	mov    0xfd25(%rip),%eax        # 1e1b8 <g_730>
    e493:	44 0f b6 e0          	movzbl %al,%r12d
    e497:	48 8b 85 98 ee ff ff 	mov    -0x1168(%rbp),%rax
    e49e:	8b 18                	mov    (%rax),%ebx
    e4a0:	8b 05 d2 fb 00 00    	mov    0xfbd2(%rip),%eax        # 1e078 <g_6>
    e4a6:	44 0f b6 e8          	movzbl %al,%r13d
    e4aa:	48 8b 85 f8 eb ff ff 	mov    -0x1408(%rbp),%rax
    e4b1:	89 c1                	mov    %eax,%ecx
    e4b3:	48 8b 05 16 36 01 00 	mov    0x13616(%rip),%rax        # 21ad0 <g_1187>
    e4ba:	48 8b 00             	mov    (%rax),%rax
    e4bd:	8b 95 68 ec ff ff    	mov    -0x1398(%rbp),%edx
    e4c3:	48 89 10             	mov    %rdx,(%rax)
    e4c6:	48 8b 00             	mov    (%rax),%rax
    e4c9:	09 c1                	or     %eax,%ecx
    e4cb:	89 ca                	mov    %ecx,%edx
    e4cd:	48 8b 85 e8 ec ff ff 	mov    -0x1318(%rbp),%rax
    e4d4:	66 89 10             	mov    %dx,(%rax)
    e4d7:	0f b7 00             	movzwl (%rax),%eax
    e4da:	0f b7 c0             	movzwl %ax,%eax
    e4dd:	89 c6                	mov    %eax,%esi
    e4df:	bf 03 00 00 00       	mov    $0x3,%edi
    e4e4:	e8 91 a9 ff ff       	callq  8e7a <safe_rshift_func_uint16_t_u_u>
    e4e9:	48 8b 85 00 ed ff ff 	mov    -0x1300(%rbp),%rax
    e4f0:	8b 00                	mov    (%rax),%eax
    e4f2:	89 c2                	mov    %eax,%edx
    e4f4:	8b 05 ea fc 00 00    	mov    0xfcea(%rip),%eax        # 1e1e4 <g_740+0x24>
    e4fa:	39 c2                	cmp    %eax,%edx
    e4fc:	75 07                	jne    e505 <func_54+0x1c1a>
    e4fe:	b8 ee 2a 00 00       	mov    $0x2aee,%eax
    e503:	eb 05                	jmp    e50a <func_54+0x1c1f>
    e505:	b8 ef 2a 00 00       	mov    $0x2aef,%eax
    e50a:	be 08 00 00 00       	mov    $0x8,%esi
    e50f:	89 c7                	mov    %eax,%edi
    e511:	e8 14 a0 ff ff       	callq  852a <safe_rshift_func_int16_t_s_s>
    e516:	66 85 c0             	test   %ax,%ax
    e519:	75 0d                	jne    e528 <func_54+0x1c3d>
    e51b:	48 8b 85 00 ed ff ff 	mov    -0x1300(%rbp),%rax
    e522:	8b 00                	mov    (%rax),%eax
    e524:	85 c0                	test   %eax,%eax
    e526:	74 07                	je     e52f <func_54+0x1c44>
    e528:	b8 01 00 00 00       	mov    $0x1,%eax
    e52d:	eb 05                	jmp    e534 <func_54+0x1c49>
    e52f:	b8 00 00 00 00       	mov    $0x0,%eax
    e534:	48 98                	cltq   
    e536:	be 01 00 00 00       	mov    $0x1,%esi
    e53b:	48 89 c7             	mov    %rax,%rdi
    e53e:	e8 eb aa ff ff       	callq  902e <safe_add_func_uint64_t_u_u>
    e543:	48 8b 95 f8 eb ff ff 	mov    -0x1408(%rbp),%rdx
    e54a:	48 39 d0             	cmp    %rdx,%rax
    e54d:	0f b6 85 cc f3 ff ff 	movzbl -0xc34(%rbp),%eax
    e554:	0f b6 c0             	movzbl %al,%eax
    e557:	23 85 f4 eb ff ff    	and    -0x140c(%rbp),%eax
    e55d:	89 c2                	mov    %eax,%edx
    e55f:	48 8b b5 70 ee ff ff 	mov    -0x1190(%rbp),%rsi
    e566:	48 8b 85 98 ee ff ff 	mov    -0x1168(%rbp),%rax
    e56d:	44 89 e9             	mov    %r13d,%ecx
    e570:	48 89 c7             	mov    %rax,%rdi
    e573:	e8 df 5e 00 00       	callq  14457 <func_70>
    e578:	4c 8b 2d 31 35 01 00 	mov    0x13531(%rip),%r13        # 21ab0 <g_876>
    e57f:	44 89 e1             	mov    %r12d,%ecx
    e582:	89 da                	mov    %ebx,%edx
    e584:	48 8d 35 b5 34 01 00 	lea    0x134b5(%rip),%rsi        # 21a40 <g_132>
    e58b:	48 89 c7             	mov    %rax,%rdi
    e58e:	e8 c4 5e 00 00       	callq  14457 <func_70>
    e593:	49 89 45 00          	mov    %rax,0x0(%r13)
    e597:	66 83 ad 0e ec ff ff 	subw   $0x1,-0x13f2(%rbp)
    e59e:	01 
    e59f:	c7 05 df fa 00 00 f0 	movl   $0xfffffff0,0xfadf(%rip)        # 1e088 <g_90>
    e5a6:	ff ff ff 
    e5a9:	e9 be 01 00 00       	jmpq   e76c <func_54+0x1e81>
    e5ae:	48 8d 85 f0 ec ff ff 	lea    -0x1310(%rbp),%rax
    e5b5:	48 89 85 40 ef ff ff 	mov    %rax,-0x10c0(%rbp)
    e5bc:	48 8d 85 f0 ec ff ff 	lea    -0x1310(%rbp),%rax
    e5c3:	48 89 85 48 ef ff ff 	mov    %rax,-0x10b8(%rbp)
    e5ca:	48 8d 85 f0 ec ff ff 	lea    -0x1310(%rbp),%rax
    e5d1:	48 89 85 50 ef ff ff 	mov    %rax,-0x10b0(%rbp)
    e5d8:	48 8d 85 f0 ec ff ff 	lea    -0x1310(%rbp),%rax
    e5df:	48 89 85 58 ef ff ff 	mov    %rax,-0x10a8(%rbp)
    e5e6:	48 8d 85 f0 ec ff ff 	lea    -0x1310(%rbp),%rax
    e5ed:	48 89 85 60 ef ff ff 	mov    %rax,-0x10a0(%rbp)
    e5f4:	48 8d 85 f0 ec ff ff 	lea    -0x1310(%rbp),%rax
    e5fb:	48 89 85 68 ef ff ff 	mov    %rax,-0x1098(%rbp)
    e602:	48 8d 85 f0 ec ff ff 	lea    -0x1310(%rbp),%rax
    e609:	48 89 85 70 ef ff ff 	mov    %rax,-0x1090(%rbp)
    e610:	c7 85 e0 ec ff ff 92 	movl   $0xed7ef792,-0x1320(%rbp)
    e617:	f7 7e ed 
    e61a:	48 8d 05 79 fa 00 00 	lea    0xfa79(%rip),%rax        # 1e09a <g_109>
    e621:	48 89 05 d8 57 01 00 	mov    %rax,0x157d8(%rip)        # 23e00 <g_1356>
    e628:	48 8b 15 d1 57 01 00 	mov    0x157d1(%rip),%rdx        # 23e00 <g_1356>
    e62f:	48 8b 85 f0 ec ff ff 	mov    -0x1310(%rbp),%rax
    e636:	48 39 c2             	cmp    %rax,%rdx
    e639:	75 21                	jne    e65c <func_54+0x1d71>
    e63b:	c7 85 80 ec ff ff ff 	movl   $0xffffffff,-0x1380(%rbp)
    e642:	ff ff ff 
    e645:	48 8b 85 b8 ee ff ff 	mov    -0x1148(%rbp),%rax
    e64c:	48 83 e8 01          	sub    $0x1,%rax
    e650:	48 89 85 b8 ee ff ff 	mov    %rax,-0x1148(%rbp)
    e657:	e9 f8 00 00 00       	jmpq   e754 <func_54+0x1e69>
    e65c:	c7 85 7c ec ff ff ea 	movl   $0x24d1e1ea,-0x1384(%rbp)
    e663:	e1 d1 24 
    e666:	48 8b 05 43 34 01 00 	mov    0x13443(%rip),%rax        # 21ab0 <g_876>
    e66d:	48 8b 00             	mov    (%rax),%rax
    e670:	8b 00                	mov    (%rax),%eax
    e672:	31 85 7c ec ff ff    	xor    %eax,-0x1384(%rbp)
    e678:	8b 95 7c ec ff ff    	mov    -0x1384(%rbp),%edx
    e67e:	48 8b 85 80 ee ff ff 	mov    -0x1180(%rbp),%rax
    e685:	8b 00                	mov    (%rax),%eax
    e687:	31 c2                	xor    %eax,%edx
    e689:	48 8b 85 80 ee ff ff 	mov    -0x1180(%rbp),%rax
    e690:	89 10                	mov    %edx,(%rax)
    e692:	48 8d 85 e0 ec ff ff 	lea    -0x1320(%rbp),%rax
    e699:	48 89 85 50 ee ff ff 	mov    %rax,-0x11b0(%rbp)
    e6a0:	4c 8b a5 f8 eb ff ff 	mov    -0x1408(%rbp),%r12
    e6a7:	4c 8b 2d 72 56 01 00 	mov    0x15672(%rip),%r13        # 23d20 <g_1111>
    e6ae:	48 8b 85 f8 eb ff ff 	mov    -0x1408(%rbp),%rax
    e6b5:	0f b7 d8             	movzwl %ax,%ebx
    e6b8:	8b 05 f6 f9 00 00    	mov    0xf9f6(%rip),%eax        # 1e0b4 <g_115+0x14>
    e6be:	0f be c0             	movsbl %al,%eax
    e6c1:	89 c6                	mov    %eax,%esi
    e6c3:	bf 01 00 00 00       	mov    $0x1,%edi
    e6c8:	e8 64 9b ff ff       	callq  8231 <safe_mod_func_int8_t_s_s>
    e6cd:	48 8b 95 f0 ec ff ff 	mov    -0x1310(%rbp),%rdx
    e6d4:	c6 02 00             	movb   $0x0,(%rdx)
    e6d7:	48 8b 05 22 57 01 00 	mov    0x15722(%rip),%rax        # 23e00 <g_1356>
    e6de:	0f b6 12             	movzbl (%rdx),%edx
    e6e1:	88 10                	mov    %dl,(%rax)
    e6e3:	0f b6 00             	movzbl (%rax),%eax
    e6e6:	0f be c0             	movsbl %al,%eax
    e6e9:	be 01 00 00 00       	mov    $0x1,%esi
    e6ee:	89 c7                	mov    %eax,%edi
    e6f0:	e8 1d 9b ff ff       	callq  8212 <safe_mul_func_int8_t_s_s>
    e6f5:	66 98                	cbtw   
    e6f7:	0f b7 c0             	movzwl %ax,%eax
    e6fa:	89 de                	mov    %ebx,%esi
    e6fc:	89 c7                	mov    %eax,%edi
    e6fe:	e8 3a a6 ff ff       	callq  8d3d <safe_mul_func_uint16_t_u_u>
    e703:	0f b7 d0             	movzwl %ax,%edx
    e706:	48 8b 85 80 ee ff ff 	mov    -0x1180(%rbp),%rax
    e70d:	8b 00                	mov    (%rax),%eax
    e70f:	39 c2                	cmp    %eax,%edx
    e711:	0f 9d c0             	setge  %al
    e714:	0f b6 d0             	movzbl %al,%edx
    e717:	48 8b 85 f8 eb ff ff 	mov    -0x1408(%rbp),%rax
    e71e:	48 39 c2             	cmp    %rax,%rdx
    e721:	0f 9f c0             	setg   %al
    e724:	0f b6 c0             	movzbl %al,%eax
    e727:	49 39 c5             	cmp    %rax,%r13
    e72a:	0f 94 c0             	sete   %al
    e72d:	0f b6 c0             	movzbl %al,%eax
    e730:	49 39 c4             	cmp    %rax,%r12
    e733:	0f 9e c0             	setle  %al
    e736:	0f b6 d0             	movzbl %al,%edx
    e739:	48 8b 85 00 ed ff ff 	mov    -0x1300(%rbp),%rax
    e740:	89 10                	mov    %edx,(%rax)
    e742:	48 8b 85 f8 eb ff ff 	mov    -0x1408(%rbp),%rax
    e749:	89 c2                	mov    %eax,%edx
    e74b:	48 8b 85 90 ee ff ff 	mov    -0x1170(%rbp),%rax
    e752:	89 10                	mov    %edx,(%rax)
    e754:	8b 05 2e f9 00 00    	mov    0xf92e(%rip),%eax        # 1e088 <g_90>
    e75a:	be 06 00 00 00       	mov    $0x6,%esi
    e75f:	89 c7                	mov    %eax,%edi
    e761:	e8 52 a7 ff ff       	callq  8eb8 <safe_add_func_uint32_t_u_u>
    e766:	89 05 1c f9 00 00    	mov    %eax,0xf91c(%rip)        # 1e088 <g_90>
    e76c:	8b 05 16 f9 00 00    	mov    0xf916(%rip),%eax        # 1e088 <g_90>
    e772:	83 f8 01             	cmp    $0x1,%eax
    e775:	0f 84 33 fe ff ff    	je     e5ae <func_54+0x1cc3>
    e77b:	48 8d 15 be 32 01 00 	lea    0x132be(%rip),%rdx        # 21a40 <g_132>
    e782:	48 8b 85 70 ee ff ff 	mov    -0x1190(%rbp),%rax
    e789:	48 8b 00             	mov    (%rax),%rax
    e78c:	48 89 02             	mov    %rax,(%rdx)
    e78f:	48 c7 05 c6 32 01 00 	movq   $0x0,0x132c6(%rip)        # 21a60 <g_228>
    e796:	00 00 00 00 
    e79a:	0f b6 05 9f fa 00 00 	movzbl 0xfa9f(%rip),%eax        # 1e240 <g_820>
    e7a1:	0f be d8             	movsbl %al,%ebx
    e7a4:	48 8b 85 70 ee ff ff 	mov    -0x1190(%rbp),%rax
    e7ab:	48 8b 00             	mov    (%rax),%rax
    e7ae:	8b 00                	mov    (%rax),%eax
    e7b0:	41 89 c6             	mov    %eax,%r14d
    e7b3:	0f b6 05 fe f8 00 00 	movzbl 0xf8fe(%rip),%eax        # 1e0b8 <g_124>
    e7ba:	44 0f b6 e0          	movzbl %al,%r12d
    e7be:	48 8b 85 00 ed ff ff 	mov    -0x1300(%rbp),%rax
    e7c5:	8b 00                	mov    (%rax),%eax
    e7c7:	41 89 c5             	mov    %eax,%r13d
    e7ca:	48 8b 85 70 ee ff ff 	mov    -0x1190(%rbp),%rax
    e7d1:	48 8b 00             	mov    (%rax),%rax
    e7d4:	8b 00                	mov    (%rax),%eax
    e7d6:	0f b6 d0             	movzbl %al,%edx
    e7d9:	48 c7 85 60 ee ff ff 	movq   $0x0,-0x11a0(%rbp)
    e7e0:	00 00 00 00 
    e7e4:	48 8b 85 00 ed ff ff 	mov    -0x1300(%rbp),%rax
    e7eb:	8b 00                	mov    (%rax),%eax
    e7ed:	85 c0                	test   %eax,%eax
    e7ef:	74 1a                	je     e80b <func_54+0x1f20>
    e7f1:	eb 11                	jmp    e804 <func_54+0x1f19>
    e7f3:	48 8b 85 70 ee ff ff 	mov    -0x1190(%rbp),%rax
    e7fa:	48 8b 00             	mov    (%rax),%rax
    e7fd:	8b 00                	mov    (%rax),%eax
    e7ff:	e9 b4 14 00 00       	jmpq   fcb8 <func_54+0x33cd>
    e804:	b8 01 00 00 00       	mov    $0x1,%eax
    e809:	eb 05                	jmp    e810 <func_54+0x1f25>
    e80b:	b8 00 00 00 00       	mov    $0x0,%eax
    e810:	0f b6 c0             	movzbl %al,%eax
    e813:	89 d6                	mov    %edx,%esi
    e815:	89 c7                	mov    %eax,%edi
    e817:	e8 bf a3 ff ff       	callq  8bdb <safe_div_func_uint8_t_u_u>
    e81c:	84 c0                	test   %al,%al
    e81e:	74 07                	je     e827 <func_54+0x1f3c>
    e820:	83 bd f4 eb ff ff 00 	cmpl   $0x0,-0x140c(%rbp)
    e827:	48 8b 85 f8 eb ff ff 	mov    -0x1408(%rbp),%rax
    e82e:	be 07 00 00 00       	mov    $0x7,%esi
    e833:	89 c7                	mov    %eax,%edi
    e835:	e8 7c 9d ff ff       	callq  85b6 <safe_add_func_int32_t_s_s>
    e83a:	0f be c0             	movsbl %al,%eax
    e83d:	44 89 ee             	mov    %r13d,%esi
    e840:	89 c7                	mov    %eax,%edi
    e842:	e8 25 9b ff ff       	callq  836c <safe_rshift_func_int8_t_s_u>
    e847:	3c fe                	cmp    $0xfe,%al
    e849:	0f 94 c0             	sete   %al
    e84c:	0f b6 c0             	movzbl %al,%eax
    e84f:	41 39 c4             	cmp    %eax,%r12d
    e852:	0f 9c c0             	setl   %al
    e855:	0f b6 d0             	movzbl %al,%edx
    e858:	48 8b 05 09 32 01 00 	mov    0x13209(%rip),%rax        # 21a68 <g_527>
    e85f:	0f b7 00             	movzwl (%rax),%eax
    e862:	98                   	cwtl   
    e863:	39 c2                	cmp    %eax,%edx
    e865:	0f 9f c0             	setg   %al
    e868:	0f b6 c0             	movzbl %al,%eax
    e86b:	f7 d0                	not    %eax
    e86d:	89 c2                	mov    %eax,%edx
    e86f:	48 8b 85 00 ed ff ff 	mov    -0x1300(%rbp),%rax
    e876:	8b 00                	mov    (%rax),%eax
    e878:	39 c2                	cmp    %eax,%edx
    e87a:	0f 9d c0             	setge  %al
    e87d:	0f b6 c0             	movzbl %al,%eax
    e880:	0b 85 f4 eb ff ff    	or     -0x140c(%rbp),%eax
    e886:	89 c2                	mov    %eax,%edx
    e888:	48 8b 05 41 32 01 00 	mov    0x13241(%rip),%rax        # 21ad0 <g_1187>
    e88f:	48 8b 00             	mov    (%rax),%rax
    e892:	48 63 d2             	movslq %edx,%rdx
    e895:	48 89 10             	mov    %rdx,(%rax)
    e898:	48 8b 00             	mov    (%rax),%rax
    e89b:	48 83 f8 ff          	cmp    $0xffffffffffffffff,%rax
    e89f:	0f 94 c0             	sete   %al
    e8a2:	88 05 60 54 01 00    	mov    %al,0x15460(%rip)        # 23d08 <g_1049>
    e8a8:	0f b6 05 59 54 01 00 	movzbl 0x15459(%rip),%eax        # 23d08 <g_1049>
    e8af:	66 98                	cbtw   
    e8b1:	44 31 f0             	xor    %r14d,%eax
    e8b4:	98                   	cwtl   
    e8b5:	89 de                	mov    %ebx,%esi
    e8b7:	89 c7                	mov    %eax,%edi
    e8b9:	e8 37 9b ff ff       	callq  83f5 <safe_mul_func_int16_t_s_s>
    e8be:	89 c2                	mov    %eax,%edx
    e8c0:	8b 05 c2 f8 00 00    	mov    0xf8c2(%rip),%eax        # 1e188 <g_403>
    e8c6:	c1 e0 02             	shl    $0x2,%eax
    e8c9:	c1 f8 02             	sar    $0x2,%eax
    e8cc:	89 c1                	mov    %eax,%ecx
    e8ce:	0f bf c2             	movswl %dx,%eax
    e8d1:	09 c8                	or     %ecx,%eax
    e8d3:	c1 e0 02             	shl    $0x2,%eax
    e8d6:	c1 f8 02             	sar    $0x2,%eax
    e8d9:	25 ff ff ff 3f       	and    $0x3fffffff,%eax
    e8de:	89 c2                	mov    %eax,%edx
    e8e0:	8b 05 a2 f8 00 00    	mov    0xf8a2(%rip),%eax        # 1e188 <g_403>
    e8e6:	25 00 00 00 c0       	and    $0xc0000000,%eax
    e8eb:	09 d0                	or     %edx,%eax
    e8ed:	89 05 95 f8 00 00    	mov    %eax,0xf895(%rip)        # 1e188 <g_403>
    e8f3:	0f b6 05 be f7 00 00 	movzbl 0xf7be(%rip),%eax        # 1e0b8 <g_124>
    e8fa:	83 c0 01             	add    $0x1,%eax
    e8fd:	88 05 b5 f7 00 00    	mov    %al,0xf7b5(%rip)        # 1e0b8 <g_124>
    e903:	0f b6 05 ae f7 00 00 	movzbl 0xf7ae(%rip),%eax        # 1e0b8 <g_124>
    e90a:	3c 25                	cmp    $0x25,%al
    e90c:	0f 86 3a f4 ff ff    	jbe    dd4c <func_54+0x1461>
    e912:	eb 01                	jmp    e915 <func_54+0x202a>
    e914:	90                   	nop
    e915:	0f b7 05 7c f7 00 00 	movzwl 0xf77c(%rip),%eax        # 1e098 <g_106>
    e91c:	66 85 c0             	test   %ax,%ax
    e91f:	74 05                	je     e926 <func_54+0x203b>
    e921:	e9 7a ef ff ff       	jmpq   d8a0 <func_54+0xfb5>
    e926:	8b 05 74 f8 00 00    	mov    0xf874(%rip),%eax        # 1e1a0 <g_628>
    e92c:	83 c0 01             	add    $0x1,%eax
    e92f:	89 05 6b f8 00 00    	mov    %eax,0xf86b(%rip)        # 1e1a0 <g_628>
    e935:	8b 05 65 f8 00 00    	mov    0xf865(%rip),%eax        # 1e1a0 <g_628>
    e93b:	83 f8 08             	cmp    $0x8,%eax
    e93e:	0f 8e 84 ef ff ff    	jle    d8c8 <func_54+0xfdd>
    e944:	c6 05 bd 53 01 00 00 	movb   $0x0,0x153bd(%rip)        # 23d08 <g_1049>
    e94b:	e9 e5 12 00 00       	jmpq   fc35 <func_54+0x334a>
    e950:	c6 85 0a ec ff ff ff 	movb   $0xff,-0x13f6(%rbp)
    e957:	48 c7 85 d8 ec ff ff 	movq   $0x0,-0x1328(%rbp)
    e95e:	00 00 00 00 
    e962:	48 8d 85 d8 ec ff ff 	lea    -0x1328(%rbp),%rax
    e969:	48 89 85 50 ed ff ff 	mov    %rax,-0x12b0(%rbp)
    e970:	48 c7 85 58 ed ff ff 	movq   $0x0,-0x12a8(%rbp)
    e977:	00 00 00 00 
    e97b:	48 c7 85 e0 ec ff ff 	movq   $0xfffffffffffffffb,-0x1320(%rbp)
    e982:	fb ff ff ff 
    e986:	c7 85 20 ec ff ff 06 	movl   $0x6,-0x13e0(%rbp)
    e98d:	00 00 00 
    e990:	66 c7 85 10 ec ff ff 	movw   $0x0,-0x13f0(%rbp)
    e997:	00 00 
    e999:	48 8d 05 10 f9 00 00 	lea    0xf910(%rip),%rax        # 1e2b0 <g_1642>
    e9a0:	48 89 85 e8 ec ff ff 	mov    %rax,-0x1318(%rbp)
    e9a7:	48 8d 05 a2 f8 00 00 	lea    0xf8a2(%rip),%rax        # 1e250 <g_930>
    e9ae:	48 89 85 f0 ec ff ff 	mov    %rax,-0x1310(%rbp)
    e9b5:	48 8d 85 f0 ec ff ff 	lea    -0x1310(%rbp),%rax
    e9bc:	48 89 85 60 ed ff ff 	mov    %rax,-0x12a0(%rbp)
    e9c3:	c6 85 0b ec ff ff a1 	movb   $0xa1,-0x13f5(%rbp)
    e9ca:	48 8d 85 e0 ec ff ff 	lea    -0x1320(%rbp),%rax
    e9d1:	48 89 85 40 f0 ff ff 	mov    %rax,-0xfc0(%rbp)
    e9d8:	48 8d 85 e0 ec ff ff 	lea    -0x1320(%rbp),%rax
    e9df:	48 89 85 48 f0 ff ff 	mov    %rax,-0xfb8(%rbp)
    e9e6:	48 8d 85 e0 ec ff ff 	lea    -0x1320(%rbp),%rax
    e9ed:	48 89 85 50 f0 ff ff 	mov    %rax,-0xfb0(%rbp)
    e9f4:	48 8d 85 e0 ec ff ff 	lea    -0x1320(%rbp),%rax
    e9fb:	48 89 85 58 f0 ff ff 	mov    %rax,-0xfa8(%rbp)
    ea02:	48 8d 85 e0 ec ff ff 	lea    -0x1320(%rbp),%rax
    ea09:	48 89 85 60 f0 ff ff 	mov    %rax,-0xfa0(%rbp)
    ea10:	48 8d 85 e0 ec ff ff 	lea    -0x1320(%rbp),%rax
    ea17:	48 89 85 68 f0 ff ff 	mov    %rax,-0xf98(%rbp)
    ea1e:	48 8d 85 e0 ec ff ff 	lea    -0x1320(%rbp),%rax
    ea25:	48 89 85 70 f0 ff ff 	mov    %rax,-0xf90(%rbp)
    ea2c:	48 8d 85 e0 ec ff ff 	lea    -0x1320(%rbp),%rax
    ea33:	48 89 85 78 f0 ff ff 	mov    %rax,-0xf88(%rbp)
    ea3a:	48 8d 85 e0 ec ff ff 	lea    -0x1320(%rbp),%rax
    ea41:	48 89 85 80 f0 ff ff 	mov    %rax,-0xf80(%rbp)
    ea48:	48 8d 85 e0 ec ff ff 	lea    -0x1320(%rbp),%rax
    ea4f:	48 89 85 88 f0 ff ff 	mov    %rax,-0xf78(%rbp)
    ea56:	c7 85 3c ec ff ff 00 	movl   $0x0,-0x13c4(%rbp)
    ea5d:	00 00 00 
    ea60:	eb 1a                	jmp    ea7c <func_54+0x2191>
    ea62:	8b 85 3c ec ff ff    	mov    -0x13c4(%rbp),%eax
    ea68:	48 98                	cltq   
    ea6a:	c7 84 85 10 ef ff ff 	movl   $0x638f34f6,-0x10f0(%rbp,%rax,4)
    ea71:	f6 34 8f 63 
    ea75:	83 85 3c ec ff ff 01 	addl   $0x1,-0x13c4(%rbp)
    ea7c:	83 bd 3c ec ff ff 01 	cmpl   $0x1,-0x13c4(%rbp)
    ea83:	7e dd                	jle    ea62 <func_54+0x2177>
    ea85:	c6 05 2c f6 00 00 00 	movb   $0x0,0xf62c(%rip)        # 1e0b8 <g_124>
    ea8c:	e9 a9 01 00 00       	jmpq   ec3a <func_54+0x234f>
    ea91:	48 8d 05 00 30 01 00 	lea    0x13000(%rip),%rax        # 21a98 <g_627>
    ea98:	48 89 85 80 f5 ff ff 	mov    %rax,-0xa80(%rbp)
    ea9f:	48 8d 05 f2 2f 01 00 	lea    0x12ff2(%rip),%rax        # 21a98 <g_627>
    eaa6:	48 89 85 88 f5 ff ff 	mov    %rax,-0xa78(%rbp)
    eaad:	48 8d 05 e4 2f 01 00 	lea    0x12fe4(%rip),%rax        # 21a98 <g_627>
    eab4:	48 89 85 90 f5 ff ff 	mov    %rax,-0xa70(%rbp)
    eabb:	48 8d 05 d6 2f 01 00 	lea    0x12fd6(%rip),%rax        # 21a98 <g_627>
    eac2:	48 89 85 98 f5 ff ff 	mov    %rax,-0xa68(%rbp)
    eac9:	48 8d 05 c8 2f 01 00 	lea    0x12fc8(%rip),%rax        # 21a98 <g_627>
    ead0:	48 89 85 a0 f5 ff ff 	mov    %rax,-0xa60(%rbp)
    ead7:	48 8d 05 ba 2f 01 00 	lea    0x12fba(%rip),%rax        # 21a98 <g_627>
    eade:	48 89 85 a8 f5 ff ff 	mov    %rax,-0xa58(%rbp)
    eae5:	48 8d 85 80 f5 ff ff 	lea    -0xa80(%rbp),%rax
    eaec:	48 83 c0 18          	add    $0x18,%rax
    eaf0:	48 89 85 f0 ed ff ff 	mov    %rax,-0x1210(%rbp)
    eaf7:	48 8d 05 4a f7 00 00 	lea    0xf74a(%rip),%rax        # 1e248 <g_915>
    eafe:	48 89 85 f8 ec ff ff 	mov    %rax,-0x1308(%rbp)
    eb05:	48 8d 85 f8 ec ff ff 	lea    -0x1308(%rbp),%rax
    eb0c:	48 89 85 f8 ed ff ff 	mov    %rax,-0x1208(%rbp)
    eb13:	66 c7 85 14 ec ff ff 	movw   $0x7ca,-0x13ec(%rbp)
    eb1a:	ca 07 
    eb1c:	c7 85 a0 f3 ff ff b6 	movl   $0x7bdcb1b6,-0xc60(%rbp)
    eb23:	b1 dc 7b 
    eb26:	c7 85 a4 f3 ff ff ec 	movl   $0x8c5f3ec,-0xc5c(%rbp)
    eb2d:	f3 c5 08 
    eb30:	c7 85 a8 f3 ff ff b6 	movl   $0x7bdcb1b6,-0xc58(%rbp)
    eb37:	b1 dc 7b 
    eb3a:	c7 85 ac f3 ff ff b6 	movl   $0x7bdcb1b6,-0xc54(%rbp)
    eb41:	b1 dc 7b 
    eb44:	c7 85 b0 f3 ff ff ec 	movl   $0x8c5f3ec,-0xc50(%rbp)
    eb4b:	f3 c5 08 
    eb4e:	c7 85 b4 f3 ff ff b6 	movl   $0x7bdcb1b6,-0xc4c(%rbp)
    eb55:	b1 dc 7b 
    eb58:	c7 85 b8 f3 ff ff b6 	movl   $0x7bdcb1b6,-0xc48(%rbp)
    eb5f:	b1 dc 7b 
    eb62:	c7 85 bc f3 ff ff ec 	movl   $0x8c5f3ec,-0xc44(%rbp)
    eb69:	f3 c5 08 
    eb6c:	c7 85 c0 f3 ff ff b6 	movl   $0x7bdcb1b6,-0xc40(%rbp)
    eb73:	b1 dc 7b 
    eb76:	c7 85 c4 f3 ff ff b6 	movl   $0x7bdcb1b6,-0xc3c(%rbp)
    eb7d:	b1 dc 7b 
    eb80:	48 c7 85 00 ee ff ff 	movq   $0x0,-0x1200(%rbp)
    eb87:	00 00 00 00 
    eb8b:	48 8d 05 d6 2f 01 00 	lea    0x12fd6(%rip),%rax        # 21b68 <g_1472+0x8>
    eb92:	48 89 85 08 ee ff ff 	mov    %rax,-0x11f8(%rbp)
    eb99:	48 c7 85 10 ee ff ff 	movq   $0x0,-0x11f0(%rbp)
    eba0:	00 00 00 00 
    eba4:	48 c7 85 18 ee ff ff 	movq   $0x0,-0x11e8(%rbp)
    ebab:	00 00 00 00 
    ebaf:	48 c7 85 20 ee ff ff 	movq   $0x0,-0x11e0(%rbp)
    ebb6:	00 00 00 00 
    ebba:	c7 85 60 ec ff ff 00 	movl   $0x0,-0x13a0(%rbp)
    ebc1:	00 00 00 
    ebc4:	c7 85 64 ec ff ff fd 	movl   $0xfffffffd,-0x139c(%rbp)
    ebcb:	ff ff ff 
    ebce:	48 8d 85 c0 ef ff ff 	lea    -0x1040(%rbp),%rax
    ebd5:	48 83 c0 70          	add    $0x70,%rax
    ebd9:	48 89 85 28 ee ff ff 	mov    %rax,-0x11d8(%rbp)
    ebe0:	48 8d 85 98 ec ff ff 	lea    -0x1368(%rbp),%rax
    ebe7:	48 89 85 30 ee ff ff 	mov    %rax,-0x11d0(%rbp)
    ebee:	48 8d 05 4f f6 00 00 	lea    0xf64f(%rip),%rax        # 1e244 <g_823>
    ebf5:	48 89 85 38 ee ff ff 	mov    %rax,-0x11c8(%rbp)
    ebfc:	c7 85 40 ec ff ff 00 	movl   $0x0,-0x13c0(%rbp)
    ec03:	00 00 00 
    ec06:	eb 19                	jmp    ec21 <func_54+0x2336>
    ec08:	8b 85 40 ec ff ff    	mov    -0x13c0(%rbp),%eax
    ec0e:	48 98                	cltq   
    ec10:	66 c7 84 45 50 f2 ff 	movw   $0x3d3,-0xdb0(%rbp,%rax,2)
    ec17:	ff d3 03 
    ec1a:	83 85 40 ec ff ff 01 	addl   $0x1,-0x13c0(%rbp)
    ec21:	83 bd 40 ec ff ff 01 	cmpl   $0x1,-0x13c0(%rbp)
    ec28:	7e de                	jle    ec08 <func_54+0x231d>
    ec2a:	0f b6 05 87 f4 00 00 	movzbl 0xf487(%rip),%eax        # 1e0b8 <g_124>
    ec31:	83 c0 01             	add    $0x1,%eax
    ec34:	88 05 7e f4 00 00    	mov    %al,0xf47e(%rip)        # 1e0b8 <g_124>
    ec3a:	0f b6 05 77 f4 00 00 	movzbl 0xf477(%rip),%eax        # 1e0b8 <g_124>
    ec41:	3c 05                	cmp    $0x5,%al
    ec43:	0f 86 48 fe ff ff    	jbe    ea91 <func_54+0x21a6>
    ec49:	48 8b 85 00 ed ff ff 	mov    -0x1300(%rbp),%rax
    ec50:	8b 00                	mov    (%rax),%eax
    ec52:	85 c0                	test   %eax,%eax
    ec54:	0f 95 c0             	setne  %al
    ec57:	0f b6 c0             	movzbl %al,%eax
    ec5a:	66 89 85 10 ec ff ff 	mov    %ax,-0x13f0(%rbp)
    ec61:	48 8b 85 e8 eb ff ff 	mov    -0x1418(%rbp),%rax
    ec68:	48 85 c0             	test   %rax,%rax
    ec6b:	0f 94 c2             	sete   %dl
    ec6e:	48 83 bd 38 ed ff ff 	cmpq   $0x0,-0x12c8(%rbp)
    ec75:	00 
    ec76:	0f 95 c0             	setne  %al
    ec79:	31 d0                	xor    %edx,%eax
    ec7b:	44 0f b6 e8          	movzbl %al,%r13d
    ec7f:	48 8b 05 32 2f 01 00 	mov    0x12f32(%rip),%rax        # 21bb8 <g_1470>
    ec86:	48 8b 00             	mov    (%rax),%rax
    ec89:	48 8b 00             	mov    (%rax),%rax
    ec8c:	0f b6 00             	movzbl (%rax),%eax
    ec8f:	0f be d8             	movsbl %al,%ebx
    ec92:	80 ad 08 ec ff ff 01 	subb   $0x1,-0x13f8(%rbp)
    ec99:	44 0f b6 b5 08 ec ff 	movzbl -0x13f8(%rbp),%r14d
    eca0:	ff 
    eca1:	8b 85 f4 eb ff ff    	mov    -0x140c(%rbp),%eax
    eca7:	4c 63 e0             	movslq %eax,%r12
    ecaa:	48 8b 85 00 ed ff ff 	mov    -0x1300(%rbp),%rax
    ecb1:	8b 00                	mov    (%rax),%eax
    ecb3:	85 c0                	test   %eax,%eax
    ecb5:	75 4a                	jne    ed01 <func_54+0x2416>
    ecb7:	48 8b 85 c0 ec ff ff 	mov    -0x1340(%rbp),%rax
    ecbe:	48 8b 95 e8 ec ff ff 	mov    -0x1318(%rbp),%rdx
    ecc5:	48 89 10             	mov    %rdx,(%rax)
    ecc8:	48 8b 00             	mov    (%rax),%rax
    eccb:	48 89 85 e8 ec ff ff 	mov    %rax,-0x1318(%rbp)
    ecd2:	48 8b 85 e8 ec ff ff 	mov    -0x1318(%rbp),%rax
    ecd9:	48 85 c0             	test   %rax,%rax
    ecdc:	0f 95 c0             	setne  %al
    ecdf:	0f b6 c0             	movzbl %al,%eax
    ece2:	be 04 00 00 00       	mov    $0x4,%esi
    ece7:	89 c7                	mov    %eax,%edi
    ece9:	e8 5a a1 ff ff       	callq  8e48 <safe_rshift_func_uint16_t_u_s>
    ecee:	0f b7 c0             	movzwl %ax,%eax
    ecf1:	89 85 10 ef ff ff    	mov    %eax,-0x10f0(%rbp)
    ecf7:	8b 85 10 ef ff ff    	mov    -0x10f0(%rbp),%eax
    ecfd:	85 c0                	test   %eax,%eax
    ecff:	74 07                	je     ed08 <func_54+0x241d>
    ed01:	b8 01 00 00 00       	mov    $0x1,%eax
    ed06:	eb 05                	jmp    ed0d <func_54+0x2422>
    ed08:	b8 00 00 00 00       	mov    $0x0,%eax
    ed0d:	48 98                	cltq   
    ed0f:	4c 89 e6             	mov    %r12,%rsi
    ed12:	48 89 c7             	mov    %rax,%rdi
    ed15:	e8 14 a3 ff ff       	callq  902e <safe_add_func_uint64_t_u_u>
    ed1a:	8b 95 20 ec ff ff    	mov    -0x13e0(%rbp),%edx
    ed20:	48 63 d2             	movslq %edx,%rdx
    ed23:	48 39 d0             	cmp    %rdx,%rax
    ed26:	0f 93 c0             	setae  %al
    ed29:	0f b6 c0             	movzbl %al,%eax
    ed2c:	be eb c6 00 00       	mov    $0xc6eb,%esi
    ed31:	89 c7                	mov    %eax,%edi
    ed33:	e8 24 a0 ff ff       	callq  8d5c <safe_mod_func_uint16_t_u_u>
    ed38:	66 41 39 c6          	cmp    %ax,%r14w
    ed3c:	0f 92 c0             	setb   %al
    ed3f:	0f b6 c0             	movzbl %al,%eax
    ed42:	89 de                	mov    %ebx,%esi
    ed44:	89 c7                	mov    %eax,%edi
    ed46:	e8 c7 94 ff ff       	callq  8212 <safe_mul_func_int8_t_s_s>
    ed4b:	0f be d0             	movsbl %al,%edx
    ed4e:	48 8b 85 00 ed ff ff 	mov    -0x1300(%rbp),%rax
    ed55:	8b 00                	mov    (%rax),%eax
    ed57:	39 c2                	cmp    %eax,%edx
    ed59:	0f 95 c0             	setne  %al
    ed5c:	0f b6 c0             	movzbl %al,%eax
    ed5f:	41 39 c5             	cmp    %eax,%r13d
    ed62:	48 8d 05 d7 2c 01 00 	lea    0x12cd7(%rip),%rax        # 21a40 <g_132>
    ed69:	48 8d 95 d0 ee ff ff 	lea    -0x1130(%rbp),%rdx
    ed70:	48 83 c2 08          	add    $0x8,%rdx
    ed74:	48 89 10             	mov    %rdx,(%rax)
    ed77:	c7 05 3b f3 00 00 00 	movl   $0x0,0xf33b(%rip)        # 1e0bc <g_127>
    ed7e:	00 00 00 
    ed81:	e9 8d 0e 00 00       	jmpq   fc13 <func_54+0x3328>
    ed86:	48 8d 85 50 f2 ff ff 	lea    -0xdb0(%rbp),%rax
    ed8d:	48 8d 15 4c 1b 01 00 	lea    0x11b4c(%rip),%rdx        # 208e0 <g_2204+0x1bc0>
    ed94:	b9 28 00 00 00       	mov    $0x28,%ecx
    ed99:	48 89 c7             	mov    %rax,%rdi
    ed9c:	48 89 d6             	mov    %rdx,%rsi
    ed9f:	f3 48 a5             	rep movsq %ds:(%rsi),%es:(%rdi)
    eda2:	c7 85 40 ef ff ff 04 	movl   $0x41c6bb04,-0x10c0(%rbp)
    eda9:	bb c6 41 
    edac:	c7 85 44 ef ff ff 9f 	movl   $0x1cd6319f,-0x10bc(%rbp)
    edb3:	31 d6 1c 
    edb6:	c7 85 48 ef ff ff 9f 	movl   $0x1cd6319f,-0x10b8(%rbp)
    edbd:	31 d6 1c 
    edc0:	c7 85 4c ef ff ff 04 	movl   $0x41c6bb04,-0x10b4(%rbp)
    edc7:	bb c6 41 
    edca:	c7 85 50 ef ff ff 9f 	movl   $0x1cd6319f,-0x10b0(%rbp)
    edd1:	31 d6 1c 
    edd4:	c7 85 54 ef ff ff 9f 	movl   $0x1cd6319f,-0x10ac(%rbp)
    eddb:	31 d6 1c 
    edde:	48 8d 05 43 f3 00 00 	lea    0xf343(%rip),%rax        # 1e128 <g_390>
    ede5:	48 89 85 68 ed ff ff 	mov    %rax,-0x1298(%rbp)
    edec:	66 c7 85 12 ec ff ff 	movw   $0x3c95,-0x13ee(%rbp)
    edf3:	95 3c 
    edf5:	48 8d 05 ac 2c 01 00 	lea    0x12cac(%rip),%rax        # 21aa8 <g_776>
    edfc:	48 89 85 70 ed ff ff 	mov    %rax,-0x1290(%rbp)
    ee03:	c7 85 80 f1 ff ff 9f 	movl   $0x5e67269f,-0xe80(%rbp)
    ee0a:	26 67 5e 
    ee0d:	c7 85 84 f1 ff ff 02 	movl   $0x2,-0xe7c(%rbp)
    ee14:	00 00 00 
    ee17:	c7 85 88 f1 ff ff 8f 	movl   $0x206b9a8f,-0xe78(%rbp)
    ee1e:	9a 6b 20 
    ee21:	c7 85 8c f1 ff ff ff 	movl   $0xffffffff,-0xe74(%rbp)
    ee28:	ff ff ff 
    ee2b:	c7 85 90 f1 ff ff ff 	movl   $0xffffffff,-0xe70(%rbp)
    ee32:	ff ff ff 
    ee35:	c7 85 94 f1 ff ff fb 	movl   $0xfffffffb,-0xe6c(%rbp)
    ee3c:	ff ff ff 
    ee3f:	c7 85 98 f1 ff ff 9f 	movl   $0x5e67269f,-0xe68(%rbp)
    ee46:	26 67 5e 
    ee49:	c7 85 9c f1 ff ff fb 	movl   $0xfffffffb,-0xe64(%rbp)
    ee50:	ff ff ff 
    ee53:	c7 85 a0 f1 ff ff 02 	movl   $0x2,-0xe60(%rbp)
    ee5a:	00 00 00 
    ee5d:	c7 85 a4 f1 ff ff 02 	movl   $0x2,-0xe5c(%rbp)
    ee64:	00 00 00 
    ee67:	c7 85 a8 f1 ff ff fb 	movl   $0xfffffffb,-0xe58(%rbp)
    ee6e:	ff ff ff 
    ee71:	c7 85 ac f1 ff ff 9f 	movl   $0x5e67269f,-0xe54(%rbp)
    ee78:	26 67 5e 
    ee7b:	c7 85 b0 f1 ff ff fb 	movl   $0xfffffffb,-0xe50(%rbp)
    ee82:	ff ff ff 
    ee85:	c7 85 b4 f1 ff ff ff 	movl   $0xffffffff,-0xe4c(%rbp)
    ee8c:	ff ff ff 
    ee8f:	c7 85 b8 f1 ff ff ff 	movl   $0xffffffff,-0xe48(%rbp)
    ee96:	ff ff ff 
    ee99:	c7 85 bc f1 ff ff 8f 	movl   $0x206b9a8f,-0xe44(%rbp)
    eea0:	9a 6b 20 
    eea3:	c7 85 c0 f1 ff ff 02 	movl   $0x2,-0xe40(%rbp)
    eeaa:	00 00 00 
    eead:	c7 85 c4 f1 ff ff 9f 	movl   $0x5e67269f,-0xe3c(%rbp)
    eeb4:	26 67 5e 
    eeb7:	c7 85 c8 f1 ff ff 09 	movl   $0x9,-0xe38(%rbp)
    eebe:	00 00 00 
    eec1:	c7 85 cc f1 ff ff 04 	movl   $0x4,-0xe34(%rbp)
    eec8:	00 00 00 
    eecb:	c7 85 d0 f1 ff ff 02 	movl   $0x2,-0xe30(%rbp)
    eed2:	00 00 00 
    eed5:	c7 85 d4 f1 ff ff 09 	movl   $0x9,-0xe2c(%rbp)
    eedc:	00 00 00 
    eedf:	c7 85 d8 f1 ff ff bd 	movl   $0x48f425bd,-0xe28(%rbp)
    eee6:	25 f4 48 
    eee9:	c7 85 dc f1 ff ff fb 	movl   $0xfffffffb,-0xe24(%rbp)
    eef0:	ff ff ff 
    eef3:	c7 85 e0 f1 ff ff 8f 	movl   $0x206b9a8f,-0xe20(%rbp)
    eefa:	9a 6b 20 
    eefd:	c7 85 e4 f1 ff ff 01 	movl   $0x1,-0xe1c(%rbp)
    ef04:	00 00 00 
    ef07:	c7 85 e8 f1 ff ff 8f 	movl   $0x206b9a8f,-0xe18(%rbp)
    ef0e:	9a 6b 20 
    ef11:	c7 85 ec f1 ff ff fb 	movl   $0xfffffffb,-0xe14(%rbp)
    ef18:	ff ff ff 
    ef1b:	c7 85 f0 f1 ff ff bd 	movl   $0x48f425bd,-0xe10(%rbp)
    ef22:	25 f4 48 
    ef25:	c7 85 f4 f1 ff ff 09 	movl   $0x9,-0xe0c(%rbp)
    ef2c:	00 00 00 
    ef2f:	48 8d 05 ea 4e 01 00 	lea    0x14eea(%rip),%rax        # 23e20 <g_1734>
    ef36:	48 89 85 78 ed ff ff 	mov    %rax,-0x1288(%rbp)
    ef3d:	48 8b 05 fc 2a 01 00 	mov    0x12afc(%rip),%rax        # 21a40 <g_132>
    ef44:	8b 00                	mov    (%rax),%eax
    ef46:	85 c0                	test   %eax,%eax
    ef48:	0f 85 d6 0c 00 00    	jne    fc24 <func_54+0x3339>
    ef4e:	8b 05 3c f3 00 00    	mov    0xf33c(%rip),%eax        # 1e290 <g_1526>
    ef54:	89 c3                	mov    %eax,%ebx
    ef56:	0f b7 05 f3 f2 00 00 	movzwl 0xf2f3(%rip),%eax        # 1e250 <g_930>
    ef5d:	0f b7 c0             	movzwl %ax,%eax
    ef60:	48 8b 95 00 ed ff ff 	mov    -0x1300(%rbp),%rdx
    ef67:	8b 12                	mov    (%rdx),%edx
    ef69:	89 c6                	mov    %eax,%esi
    ef6b:	89 d7                	mov    %edx,%edi
    ef6d:	e8 46 9f ff ff       	callq  8eb8 <safe_add_func_uint32_t_u_u>
    ef72:	89 de                	mov    %ebx,%esi
    ef74:	89 c7                	mov    %eax,%edi
    ef76:	e8 3d 9f ff ff       	callq  8eb8 <safe_add_func_uint32_t_u_u>
    ef7b:	89 c2                	mov    %eax,%edx
    ef7d:	48 8b 05 ec 2a 01 00 	mov    0x12aec(%rip),%rax        # 21a70 <g_526>
    ef84:	48 8b 00             	mov    (%rax),%rax
    ef87:	66 89 10             	mov    %dx,(%rax)
    ef8a:	0f b7 00             	movzwl (%rax),%eax
    ef8d:	0f bf d0             	movswl %ax,%edx
    ef90:	48 8b 85 00 ed ff ff 	mov    -0x1300(%rbp),%rax
    ef97:	89 10                	mov    %edx,(%rax)
    ef99:	48 8b 85 00 ed ff ff 	mov    -0x1300(%rbp),%rax
    efa0:	8b 08                	mov    (%rax),%ecx
    efa2:	0f be 95 0a ec ff ff 	movsbl -0x13f6(%rbp),%edx
    efa9:	48 8d 05 90 2a 01 00 	lea    0x12a90(%rip),%rax        # 21a40 <g_132>
    efb0:	48 8b 00             	mov    (%rax),%rax
    efb3:	31 ca                	xor    %ecx,%edx
    efb5:	89 10                	mov    %edx,(%rax)
    efb7:	0f be 9d 0a ec ff ff 	movsbl -0x13f6(%rbp),%ebx
    efbe:	0f b7 05 9b f2 00 00 	movzwl 0xf29b(%rip),%eax        # 1e260 <g_1064>
    efc5:	44 0f bf e0          	movswl %ax,%r12d
    efc9:	0f b6 05 e8 f0 00 00 	movzbl 0xf0e8(%rip),%eax        # 1e0b8 <g_124>
    efd0:	44 0f b6 e8          	movzbl %al,%r13d
    efd4:	c7 85 54 ef ff ff 96 	movl   $0x1b9d2596,-0x10ac(%rbp)
    efdb:	25 9d 1b 
    efde:	44 8b b5 54 ef ff ff 	mov    -0x10ac(%rbp),%r14d
    efe5:	48 8b 95 f8 eb ff ff 	mov    -0x1408(%rbp),%rdx
    efec:	48 83 bd 60 ed ff ff 	cmpq   $0x0,-0x12a0(%rbp)
    eff3:	00 
    eff4:	0f 95 c0             	setne  %al
    eff7:	0f b6 c0             	movzbl %al,%eax
    effa:	48 39 c2             	cmp    %rax,%rdx
    effd:	0f 95 c0             	setne  %al
    f000:	0f b6 d0             	movzbl %al,%edx
    f003:	48 8b 85 f8 eb ff ff 	mov    -0x1408(%rbp),%rax
    f00a:	98                   	cwtl   
    f00b:	89 d6                	mov    %edx,%esi
    f00d:	89 c7                	mov    %eax,%edi
    f00f:	e8 16 95 ff ff       	callq  852a <safe_rshift_func_int16_t_s_s>
    f014:	8b 95 10 ef ff ff    	mov    -0x10f0(%rbp),%edx
    f01a:	98                   	cwtl   
    f01b:	21 d0                	and    %edx,%eax
    f01d:	89 85 10 ef ff ff    	mov    %eax,-0x10f0(%rbp)
    f023:	8b 85 10 ef ff ff    	mov    -0x10f0(%rbp),%eax
    f029:	44 89 f6             	mov    %r14d,%esi
    f02c:	89 c7                	mov    %eax,%edi
    f02e:	e8 d2 95 ff ff       	callq  8605 <safe_sub_func_int32_t_s_s>
    f033:	0f b7 c0             	movzwl %ax,%eax
    f036:	8b 95 f4 eb ff ff    	mov    -0x140c(%rbp),%edx
    f03c:	89 d6                	mov    %edx,%esi
    f03e:	89 c7                	mov    %eax,%edi
    f040:	e8 79 9d ff ff       	callq  8dbe <safe_lshift_func_uint16_t_u_s>
    f045:	48 8b 85 00 ed ff ff 	mov    -0x1300(%rbp),%rax
    f04c:	8b 00                	mov    (%rax),%eax
    f04e:	85 c0                	test   %eax,%eax
    f050:	75 0c                	jne    f05e <func_54+0x2773>
    f052:	48 8b 85 f8 eb ff ff 	mov    -0x1408(%rbp),%rax
    f059:	48 85 c0             	test   %rax,%rax
    f05c:	74 07                	je     f065 <func_54+0x277a>
    f05e:	b8 01 00 00 00       	mov    $0x1,%eax
    f063:	eb 05                	jmp    f06a <func_54+0x277f>
    f065:	b8 00 00 00 00       	mov    $0x0,%eax
    f06a:	0f be c0             	movsbl %al,%eax
    f06d:	be 00 00 00 00       	mov    $0x0,%esi
    f072:	89 c7                	mov    %eax,%edi
    f074:	e8 f3 92 ff ff       	callq  836c <safe_rshift_func_int8_t_s_u>
    f079:	0f be c0             	movsbl %al,%eax
    f07c:	44 89 ee             	mov    %r13d,%esi
    f07f:	89 c7                	mov    %eax,%edi
    f081:	e8 30 95 ff ff       	callq  85b6 <safe_add_func_int32_t_s_s>
    f086:	85 c0                	test   %eax,%eax
    f088:	75 0c                	jne    f096 <func_54+0x27ab>
    f08a:	48 8b 85 e0 ec ff ff 	mov    -0x1320(%rbp),%rax
    f091:	48 85 c0             	test   %rax,%rax
    f094:	74 07                	je     f09d <func_54+0x27b2>
    f096:	b8 01 00 00 00       	mov    $0x1,%eax
    f09b:	eb 05                	jmp    f0a2 <func_54+0x27b7>
    f09d:	b8 00 00 00 00       	mov    $0x0,%eax
    f0a2:	3d 8c 00 00 00       	cmp    $0x8c,%eax
    f0a7:	bf aa 5b 06 d3       	mov    $0xd3065baa,%edi
    f0ac:	e8 e5 94 ff ff       	callq  8596 <safe_unary_minus_func_int32_t_s>
    f0b1:	89 c2                	mov    %eax,%edx
    f0b3:	48 8b 85 30 ed ff ff 	mov    -0x12d0(%rbp),%rax
    f0ba:	48 8d 0d 3f 4d 01 00 	lea    0x14d3f(%rip),%rcx        # 23e00 <g_1356>
    f0c1:	48 89 08             	mov    %rcx,(%rax)
    f0c4:	48 8b 85 30 ed ff ff 	mov    -0x12d0(%rbp),%rax
    f0cb:	48 8b 08             	mov    (%rax),%rcx
    f0ce:	48 8d 85 e8 eb ff ff 	lea    -0x1418(%rbp),%rax
    f0d5:	48 39 c1             	cmp    %rax,%rcx
    f0d8:	0f 94 c0             	sete   %al
    f0db:	0f b6 c0             	movzbl %al,%eax
    f0de:	89 d6                	mov    %edx,%esi
    f0e0:	89 c7                	mov    %eax,%edi
    f0e2:	e8 cf 94 ff ff       	callq  85b6 <safe_add_func_int32_t_s_s>
    f0e7:	98                   	cwtl   
    f0e8:	44 89 e6             	mov    %r12d,%esi
    f0eb:	89 c7                	mov    %eax,%edi
    f0ed:	e8 63 93 ff ff       	callq  8455 <safe_div_func_int16_t_s_s>
    f0f2:	0f b7 c0             	movzwl %ax,%eax
    f0f5:	89 de                	mov    %ebx,%esi
    f0f7:	89 c7                	mov    %eax,%edi
    f0f9:	e8 08 9d ff ff       	callq  8e06 <safe_lshift_func_uint16_t_u_u>
    f0fe:	8b 95 14 ef ff ff    	mov    -0x10ec(%rbp),%edx
    f104:	48 8b 85 68 ed ff ff 	mov    -0x1298(%rbp),%rax
    f10b:	0f b6 00             	movzbl (%rax),%eax
    f10e:	89 c1                	mov    %eax,%ecx
    f110:	89 d0                	mov    %edx,%eax
    f112:	21 c8                	and    %ecx,%eax
    f114:	89 c2                	mov    %eax,%edx
    f116:	48 8b 85 68 ed ff ff 	mov    -0x1298(%rbp),%rax
    f11d:	88 10                	mov    %dl,(%rax)
    f11f:	48 8b 85 68 ed ff ff 	mov    -0x1298(%rbp),%rax
    f126:	0f b6 00             	movzbl (%rax),%eax
    f129:	84 c0                	test   %al,%al
    f12b:	74 1b                	je     f148 <func_54+0x285d>
    f12d:	48 8d 05 5c 2a 01 00 	lea    0x12a5c(%rip),%rax        # 21b90 <g_1471+0x10>
    f134:	48 8b 00             	mov    (%rax),%rax
    f137:	48 8b 00             	mov    (%rax),%rax
    f13a:	0f b6 00             	movzbl (%rax),%eax
    f13d:	84 c0                	test   %al,%al
    f13f:	74 07                	je     f148 <func_54+0x285d>
    f141:	b8 01 00 00 00       	mov    $0x1,%eax
    f146:	eb 05                	jmp    f14d <func_54+0x2862>
    f148:	b8 00 00 00 00       	mov    $0x0,%eax
    f14d:	66 89 85 12 ec ff ff 	mov    %ax,-0x13ee(%rbp)
    f154:	66 83 bd 12 ec ff ff 	cmpw   $0x0,-0x13ee(%rbp)
    f15b:	00 
    f15c:	0f 84 cb 04 00 00    	je     f62d <func_54+0x2d42>
    f162:	c6 85 09 ec ff ff ff 	movb   $0xff,-0x13f7(%rbp)
    f169:	48 8d 85 18 ec ff ff 	lea    -0x13e8(%rbp),%rax
    f170:	48 89 85 b8 ed ff ff 	mov    %rax,-0x1248(%rbp)
    f177:	48 8d 05 1a f0 00 00 	lea    0xf01a(%rip),%rax        # 1e198 <g_559>
    f17e:	48 89 85 c0 ed ff ff 	mov    %rax,-0x1240(%rbp)
    f185:	48 8d 05 d8 f0 00 00 	lea    0xf0d8(%rip),%rax        # 1e264 <g_1090>
    f18c:	48 89 85 c8 ed ff ff 	mov    %rax,-0x1238(%rbp)
    f193:	48 8d 05 06 ef 00 00 	lea    0xef06(%rip),%rax        # 1e0a0 <g_115>
    f19a:	48 89 85 d0 ed ff ff 	mov    %rax,-0x1230(%rbp)
    f1a1:	c7 85 5c ec ff ff f9 	movl   $0xfffffff9,-0x13a4(%rbp)
    f1a8:	ff ff ff 
    f1ab:	48 8d 05 ee ef 00 00 	lea    0xefee(%rip),%rax        # 1e1a0 <g_628>
    f1b2:	48 89 85 d8 ed ff ff 	mov    %rax,-0x1228(%rbp)
    f1b9:	c7 85 18 ec ff ff 00 	movl   $0x0,-0x13e8(%rbp)
    f1c0:	00 00 00 
    f1c3:	e9 97 03 00 00       	jmpq   f55f <func_54+0x2c74>
    f1c8:	48 8d 85 10 ef ff ff 	lea    -0x10f0(%rbp),%rax
    f1cf:	48 89 85 e0 ed ff ff 	mov    %rax,-0x1220(%rbp)
    f1d6:	48 c7 85 e8 ed ff ff 	movq   $0x0,-0x1218(%rbp)
    f1dd:	00 00 00 00 
    f1e1:	48 8d 05 a0 ee 00 00 	lea    0xeea0(%rip),%rax        # 1e088 <g_90>
    f1e8:	48 89 85 80 f5 ff ff 	mov    %rax,-0xa80(%rbp)
    f1ef:	48 8d 05 16 33 01 00 	lea    0x13316(%rip),%rax        # 2250c <g_11>
    f1f6:	48 89 85 88 f5 ff ff 	mov    %rax,-0xa78(%rbp)
    f1fd:	48 c7 85 90 f5 ff ff 	movq   $0x0,-0xa70(%rbp)
    f204:	00 00 00 00 
    f208:	48 c7 85 98 f5 ff ff 	movq   $0x0,-0xa68(%rbp)
    f20f:	00 00 00 00 
    f213:	48 8d 05 f2 32 01 00 	lea    0x132f2(%rip),%rax        # 2250c <g_11>
    f21a:	48 89 85 a0 f5 ff ff 	mov    %rax,-0xa60(%rbp)
    f221:	48 8d 05 60 ee 00 00 	lea    0xee60(%rip),%rax        # 1e088 <g_90>
    f228:	48 89 85 a8 f5 ff ff 	mov    %rax,-0xa58(%rbp)
    f22f:	48 8d 05 d6 32 01 00 	lea    0x132d6(%rip),%rax        # 2250c <g_11>
    f236:	48 89 85 b0 f5 ff ff 	mov    %rax,-0xa50(%rbp)
    f23d:	48 c7 85 b8 f5 ff ff 	movq   $0x0,-0xa48(%rbp)
    f244:	00 00 00 00 
    f248:	48 c7 85 c0 f5 ff ff 	movq   $0x0,-0xa40(%rbp)
    f24f:	00 00 00 00 
    f253:	48 8d 85 10 ef ff ff 	lea    -0x10f0(%rbp),%rax
    f25a:	48 89 85 c8 f5 ff ff 	mov    %rax,-0xa38(%rbp)
    f261:	48 8d 85 10 ef ff ff 	lea    -0x10f0(%rbp),%rax
    f268:	48 89 85 d0 f5 ff ff 	mov    %rax,-0xa30(%rbp)
    f26f:	48 8d 05 12 ee 00 00 	lea    0xee12(%rip),%rax        # 1e088 <g_90>
    f276:	48 89 85 d8 f5 ff ff 	mov    %rax,-0xa28(%rbp)
    f27d:	48 c7 85 e0 f5 ff ff 	movq   $0x0,-0xa20(%rbp)
    f284:	00 00 00 00 
    f288:	48 8d 05 f9 ed 00 00 	lea    0xedf9(%rip),%rax        # 1e088 <g_90>
    f28f:	48 89 85 e8 f5 ff ff 	mov    %rax,-0xa18(%rbp)
    f296:	48 8d 85 10 ef ff ff 	lea    -0x10f0(%rbp),%rax
    f29d:	48 89 85 f0 f5 ff ff 	mov    %rax,-0xa10(%rbp)
    f2a4:	48 8d 85 10 ef ff ff 	lea    -0x10f0(%rbp),%rax
    f2ab:	48 89 85 f8 f5 ff ff 	mov    %rax,-0xa08(%rbp)
    f2b2:	48 8d 05 cf ed 00 00 	lea    0xedcf(%rip),%rax        # 1e088 <g_90>
    f2b9:	48 89 85 00 f6 ff ff 	mov    %rax,-0xa00(%rbp)
    f2c0:	48 c7 85 08 f6 ff ff 	movq   $0x0,-0x9f8(%rbp)
    f2c7:	00 00 00 00 
    f2cb:	48 8d 85 d0 ee ff ff 	lea    -0x1130(%rbp),%rax
    f2d2:	48 83 c0 04          	add    $0x4,%rax
    f2d6:	48 89 85 10 f6 ff ff 	mov    %rax,-0x9f0(%rbp)
    f2dd:	48 8d 05 28 32 01 00 	lea    0x13228(%rip),%rax        # 2250c <g_11>
    f2e4:	48 89 85 18 f6 ff ff 	mov    %rax,-0x9e8(%rbp)
    f2eb:	48 8d 85 d0 ee ff ff 	lea    -0x1130(%rbp),%rax
    f2f2:	48 83 c0 04          	add    $0x4,%rax
    f2f6:	48 89 85 20 f6 ff ff 	mov    %rax,-0x9e0(%rbp)
    f2fd:	48 8d 05 84 ed 00 00 	lea    0xed84(%rip),%rax        # 1e088 <g_90>
    f304:	48 89 85 28 f6 ff ff 	mov    %rax,-0x9d8(%rbp)
    f30b:	48 8d 05 76 ed 00 00 	lea    0xed76(%rip),%rax        # 1e088 <g_90>
    f312:	48 89 85 30 f6 ff ff 	mov    %rax,-0x9d0(%rbp)
    f319:	48 8d 85 d0 ee ff ff 	lea    -0x1130(%rbp),%rax
    f320:	48 83 c0 04          	add    $0x4,%rax
    f324:	48 89 85 38 f6 ff ff 	mov    %rax,-0x9c8(%rbp)
    f32b:	48 8d 05 da 31 01 00 	lea    0x131da(%rip),%rax        # 2250c <g_11>
    f332:	48 89 85 40 f6 ff ff 	mov    %rax,-0x9c0(%rbp)
    f339:	48 8d 85 d0 ee ff ff 	lea    -0x1130(%rbp),%rax
    f340:	48 83 c0 04          	add    $0x4,%rax
    f344:	48 89 85 48 f6 ff ff 	mov    %rax,-0x9b8(%rbp)
    f34b:	48 8d 05 36 ed 00 00 	lea    0xed36(%rip),%rax        # 1e088 <g_90>
    f352:	48 89 85 50 f6 ff ff 	mov    %rax,-0x9b0(%rbp)
    f359:	48 8d 85 d0 ee ff ff 	lea    -0x1130(%rbp),%rax
    f360:	48 83 c0 04          	add    $0x4,%rax
    f364:	48 89 85 58 f6 ff ff 	mov    %rax,-0x9a8(%rbp)
    f36b:	48 8d 05 16 ed 00 00 	lea    0xed16(%rip),%rax        # 1e088 <g_90>
    f372:	48 89 85 60 f6 ff ff 	mov    %rax,-0x9a0(%rbp)
    f379:	48 8d 05 08 ed 00 00 	lea    0xed08(%rip),%rax        # 1e088 <g_90>
    f380:	48 89 85 68 f6 ff ff 	mov    %rax,-0x998(%rbp)
    f387:	48 8d 85 d0 ee ff ff 	lea    -0x1130(%rbp),%rax
    f38e:	48 83 c0 04          	add    $0x4,%rax
    f392:	48 89 85 70 f6 ff ff 	mov    %rax,-0x990(%rbp)
    f399:	48 8d 05 6c 31 01 00 	lea    0x1316c(%rip),%rax        # 2250c <g_11>
    f3a0:	48 89 85 78 f6 ff ff 	mov    %rax,-0x988(%rbp)
    f3a7:	48 8d 85 d0 ee ff ff 	lea    -0x1130(%rbp),%rax
    f3ae:	48 83 c0 04          	add    $0x4,%rax
    f3b2:	48 89 85 80 f6 ff ff 	mov    %rax,-0x980(%rbp)
    f3b9:	48 8d 05 c8 ec 00 00 	lea    0xecc8(%rip),%rax        # 1e088 <g_90>
    f3c0:	48 89 85 88 f6 ff ff 	mov    %rax,-0x978(%rbp)
    f3c7:	48 8d 05 ba ec 00 00 	lea    0xecba(%rip),%rax        # 1e088 <g_90>
    f3ce:	48 89 85 90 f6 ff ff 	mov    %rax,-0x970(%rbp)
    f3d5:	48 8d 85 d0 ee ff ff 	lea    -0x1130(%rbp),%rax
    f3dc:	48 83 c0 04          	add    $0x4,%rax
    f3e0:	48 89 85 98 f6 ff ff 	mov    %rax,-0x968(%rbp)
    f3e7:	48 8d 85 10 ef ff ff 	lea    -0x10f0(%rbp),%rax
    f3ee:	48 89 85 a0 f6 ff ff 	mov    %rax,-0x960(%rbp)
    f3f5:	48 8d 05 8c ec 00 00 	lea    0xec8c(%rip),%rax        # 1e088 <g_90>
    f3fc:	48 89 85 a8 f6 ff ff 	mov    %rax,-0x958(%rbp)
    f403:	48 c7 85 b0 f6 ff ff 	movq   $0x0,-0x950(%rbp)
    f40a:	00 00 00 00 
    f40e:	48 8d 05 73 ec 00 00 	lea    0xec73(%rip),%rax        # 1e088 <g_90>
    f415:	48 89 85 b8 f6 ff ff 	mov    %rax,-0x948(%rbp)
    f41c:	48 8d 85 10 ef ff ff 	lea    -0x10f0(%rbp),%rax
    f423:	48 89 85 c0 f6 ff ff 	mov    %rax,-0x940(%rbp)
    f42a:	48 8d 85 10 ef ff ff 	lea    -0x10f0(%rbp),%rax
    f431:	48 89 85 c8 f6 ff ff 	mov    %rax,-0x938(%rbp)
    f438:	48 8d 05 49 ec 00 00 	lea    0xec49(%rip),%rax        # 1e088 <g_90>
    f43f:	48 89 85 d0 f6 ff ff 	mov    %rax,-0x930(%rbp)
    f446:	48 c7 85 d8 f6 ff ff 	movq   $0x0,-0x928(%rbp)
    f44d:	00 00 00 00 
    f451:	48 8d 05 30 ec 00 00 	lea    0xec30(%rip),%rax        # 1e088 <g_90>
    f458:	48 89 85 e0 f6 ff ff 	mov    %rax,-0x920(%rbp)
    f45f:	48 8d 05 22 ec 00 00 	lea    0xec22(%rip),%rax        # 1e088 <g_90>
    f466:	48 89 85 e8 f6 ff ff 	mov    %rax,-0x918(%rbp)
    f46d:	48 8d 05 98 30 01 00 	lea    0x13098(%rip),%rax        # 2250c <g_11>
    f474:	48 89 85 f0 f6 ff ff 	mov    %rax,-0x910(%rbp)
    f47b:	48 c7 85 f8 f6 ff ff 	movq   $0x0,-0x908(%rbp)
    f482:	00 00 00 00 
    f486:	48 c7 85 00 f7 ff ff 	movq   $0x0,-0x900(%rbp)
    f48d:	00 00 00 00 
    f491:	48 8d 05 74 30 01 00 	lea    0x13074(%rip),%rax        # 2250c <g_11>
    f498:	48 89 85 08 f7 ff ff 	mov    %rax,-0x8f8(%rbp)
    f49f:	48 8d 05 e2 eb 00 00 	lea    0xebe2(%rip),%rax        # 1e088 <g_90>
    f4a6:	48 89 85 10 f7 ff ff 	mov    %rax,-0x8f0(%rbp)
    f4ad:	48 8d 05 58 30 01 00 	lea    0x13058(%rip),%rax        # 2250c <g_11>
    f4b4:	48 89 85 18 f7 ff ff 	mov    %rax,-0x8e8(%rbp)
    f4bb:	48 c7 85 20 f7 ff ff 	movq   $0x0,-0x8e0(%rbp)
    f4c2:	00 00 00 00 
    f4c6:	48 c7 85 28 f7 ff ff 	movq   $0x0,-0x8d8(%rbp)
    f4cd:	00 00 00 00 
    f4d1:	48 8d 85 10 ef ff ff 	lea    -0x10f0(%rbp),%rax
    f4d8:	48 89 85 30 f7 ff ff 	mov    %rax,-0x8d0(%rbp)
    f4df:	48 8d 85 10 ef ff ff 	lea    -0x10f0(%rbp),%rax
    f4e6:	48 89 85 38 f7 ff ff 	mov    %rax,-0x8c8(%rbp)
    f4ed:	48 8d 05 94 eb 00 00 	lea    0xeb94(%rip),%rax        # 1e088 <g_90>
    f4f4:	48 89 85 40 f7 ff ff 	mov    %rax,-0x8c0(%rbp)
    f4fb:	48 c7 85 48 f7 ff ff 	movq   $0x0,-0x8b8(%rbp)
    f502:	00 00 00 00 
    f506:	48 8d 05 7b eb 00 00 	lea    0xeb7b(%rip),%rax        # 1e088 <g_90>
    f50d:	48 89 85 50 f7 ff ff 	mov    %rax,-0x8b0(%rbp)
    f514:	48 8d 85 10 ef ff ff 	lea    -0x10f0(%rbp),%rax
    f51b:	48 89 85 58 f7 ff ff 	mov    %rax,-0x8a8(%rbp)
    f522:	48 8d 85 10 ef ff ff 	lea    -0x10f0(%rbp),%rax
    f529:	48 89 85 60 f7 ff ff 	mov    %rax,-0x8a0(%rbp)
    f530:	48 8d 05 51 eb 00 00 	lea    0xeb51(%rip),%rax        # 1e088 <g_90>
    f537:	48 89 85 68 f7 ff ff 	mov    %rax,-0x898(%rbp)
    f53e:	48 c7 85 70 f7 ff ff 	movq   $0x0,-0x890(%rbp)
    f545:	00 00 00 00 
    f549:	80 ad 09 ec ff ff 01 	subb   $0x1,-0x13f7(%rbp)
    f550:	8b 85 18 ec ff ff    	mov    -0x13e8(%rbp),%eax
    f556:	83 c0 01             	add    $0x1,%eax
    f559:	89 85 18 ec ff ff    	mov    %eax,-0x13e8(%rbp)
    f55f:	8b 85 18 ec ff ff    	mov    -0x13e8(%rbp),%eax
    f565:	83 f8 01             	cmp    $0x1,%eax
    f568:	0f 8e 5a fc ff ff    	jle    f1c8 <func_54+0x28dd>
    f56e:	48 8b 05 43 ed 00 00 	mov    0xed43(%rip),%rax        # 1e2b8 <g_1682>
    f575:	48 83 e8 01          	sub    $0x1,%rax
    f579:	48 89 05 38 ed 00 00 	mov    %rax,0xed38(%rip)        # 1e2b8 <g_1682>
    f580:	48 8b 05 31 25 01 00 	mov    0x12531(%rip),%rax        # 21ab8 <g_911>
    f587:	48 8b 00             	mov    (%rax),%rax
    f58a:	48 8b 00             	mov    (%rax),%rax
    f58d:	48 8b 00             	mov    (%rax),%rax
    f590:	0f b7 00             	movzwl (%rax),%eax
    f593:	0f bf d0             	movswl %ax,%edx
    f596:	48 8b 85 60 ed ff ff 	mov    -0x12a0(%rbp),%rax
    f59d:	48 8b 00             	mov    (%rax),%rax
    f5a0:	0f b7 08             	movzwl (%rax),%ecx
    f5a3:	83 e9 01             	sub    $0x1,%ecx
    f5a6:	66 89 08             	mov    %cx,(%rax)
    f5a9:	0f b7 00             	movzwl (%rax),%eax
    f5ac:	98                   	cwtl   
    f5ad:	89 d6                	mov    %edx,%esi
    f5af:	89 c7                	mov    %eax,%edi
    f5b1:	e8 3f 8e ff ff       	callq  83f5 <safe_mul_func_int16_t_s_s>
    f5b6:	89 c2                	mov    %eax,%edx
    f5b8:	48 8b 05 81 24 01 00 	mov    0x12481(%rip),%rax        # 21a40 <g_132>
    f5bf:	0f bf d2             	movswl %dx,%edx
    f5c2:	89 10                	mov    %edx,(%rax)
    f5c4:	8b 00                	mov    (%rax),%eax
    f5c6:	89 c6                	mov    %eax,%esi
    f5c8:	bf 5d 06 31 96       	mov    $0x9631065d,%edi
    f5cd:	e8 2b 99 ff ff       	callq  8efd <safe_mod_func_uint32_t_u_u>
    f5d2:	48 8b 05 ef 25 01 00 	mov    0x125ef(%rip),%rax        # 21bc8 <g_1532>
    f5d9:	48 8b 00             	mov    (%rax),%rax
    f5dc:	48 8b 00             	mov    (%rax),%rax
    f5df:	48 8b 00             	mov    (%rax),%rax
    f5e2:	0f b6 00             	movzbl (%rax),%eax
    f5e5:	0f b6 d0             	movzbl %al,%edx
    f5e8:	48 8b 05 d9 25 01 00 	mov    0x125d9(%rip),%rax        # 21bc8 <g_1532>
    f5ef:	48 8b 00             	mov    (%rax),%rax
    f5f2:	48 8b 00             	mov    (%rax),%rax
    f5f5:	48 8b 00             	mov    (%rax),%rax
    f5f8:	48 85 c0             	test   %rax,%rax
    f5fb:	0f 94 c0             	sete   %al
    f5fe:	0f b6 c0             	movzbl %al,%eax
    f601:	39 c2                	cmp    %eax,%edx
    f603:	0f 95 c0             	setne  %al
    f606:	0f b6 d0             	movzbl %al,%edx
    f609:	0f b7 85 12 ec ff ff 	movzwl -0x13ee(%rbp),%eax
    f610:	0f b6 c0             	movzbl %al,%eax
    f613:	89 d6                	mov    %edx,%esi
    f615:	89 c7                	mov    %eax,%edi
    f617:	e8 77 95 ff ff       	callq  8b93 <safe_mul_func_uint8_t_u_u>
    f61c:	0f b6 d0             	movzbl %al,%edx
    f61f:	48 8b 85 c0 ed ff ff 	mov    -0x1240(%rbp),%rax
    f626:	89 10                	mov    %edx,(%rax)
    f628:	e9 d7 05 00 00       	jmpq   fc04 <func_54+0x3319>
    f62d:	c6 85 0c ec ff ff 04 	movb   $0x4,-0x13f4(%rbp)
    f634:	c7 85 4c ec ff ff 69 	movl   $0xbd7a9169,-0x13b4(%rbp)
    f63b:	91 7a bd 
    f63e:	c7 85 50 ec ff ff a2 	movl   $0x2ace12a2,-0x13b0(%rbp)
    f645:	12 ce 2a 
    f648:	c7 85 54 ec ff ff f7 	movl   $0xfffffff7,-0x13ac(%rbp)
    f64f:	ff ff ff 
    f652:	48 8d 85 80 f5 ff ff 	lea    -0xa80(%rbp),%rax
    f659:	48 8d 15 60 a6 00 00 	lea    0xa660(%rip),%rdx        # 19cc0 <g_2228+0xac0>
    f660:	b9 78 00 00 00       	mov    $0x78,%ecx
    f665:	48 89 c7             	mov    %rax,%rdi
    f668:	48 89 d6             	mov    %rdx,%rsi
    f66b:	f3 48 a5             	rep movsq %ds:(%rsi),%es:(%rdi)
    f66e:	c7 85 58 ec ff ff 00 	movl   $0x0,-0x13a8(%rbp)
    f675:	00 00 00 
    f678:	c7 05 4a ec 00 00 95 	movl   $0x95,0xec4a(%rip)        # 1e2cc <g_1694+0xc>
    f67f:	00 00 00 
    f682:	48 83 bd 70 ed ff ff 	cmpq   $0x0,-0x1290(%rbp)
    f689:	00 
    f68a:	0f 95 c0             	setne  %al
    f68d:	0f b6 c8             	movzbl %al,%ecx
    f690:	48 8d 05 a9 23 01 00 	lea    0x123a9(%rip),%rax        # 21a40 <g_132>
    f697:	48 8b 00             	mov    (%rax),%rax
    f69a:	8b 10                	mov    (%rax),%edx
    f69c:	48 8d 05 9d 23 01 00 	lea    0x1239d(%rip),%rax        # 21a40 <g_132>
    f6a3:	48 8b 00             	mov    (%rax),%rax
    f6a6:	21 ca                	and    %ecx,%edx
    f6a8:	89 10                	mov    %edx,(%rax)
    f6aa:	c7 05 fc ea 00 00 00 	movl   $0x0,0xeafc(%rip)        # 1e1b0 <g_632>
    f6b1:	00 00 00 
    f6b4:	e9 3c 05 00 00       	jmpq   fbf5 <func_54+0x330a>
    f6b9:	48 8d 85 10 ef ff ff 	lea    -0x10f0(%rbp),%rax
    f6c0:	48 89 85 80 ed ff ff 	mov    %rax,-0x1280(%rbp)
    f6c7:	48 8d 85 d0 ee ff ff 	lea    -0x1130(%rbp),%rax
    f6ce:	48 83 c0 08          	add    $0x8,%rax
    f6d2:	48 89 85 88 ed ff ff 	mov    %rax,-0x1278(%rbp)
    f6d9:	48 8d 85 18 ec ff ff 	lea    -0x13e8(%rbp),%rax
    f6e0:	48 89 85 90 ed ff ff 	mov    %rax,-0x1270(%rbp)
    f6e7:	48 8d 85 1c ec ff ff 	lea    -0x13e4(%rbp),%rax
    f6ee:	48 89 85 98 ed ff ff 	mov    %rax,-0x1268(%rbp)
    f6f5:	48 8d 85 d0 ee ff ff 	lea    -0x1130(%rbp),%rax
    f6fc:	48 83 c0 08          	add    $0x8,%rax
    f700:	48 89 85 a0 ed ff ff 	mov    %rax,-0x1260(%rbp)
    f707:	48 8d 05 82 ea 00 00 	lea    0xea82(%rip),%rax        # 1e190 <g_508>
    f70e:	48 89 85 a8 ed ff ff 	mov    %rax,-0x1258(%rbp)
    f715:	48 8d 05 94 e9 00 00 	lea    0xe994(%rip),%rax        # 1e0b0 <g_115+0x10>
    f71c:	48 89 85 a0 f3 ff ff 	mov    %rax,-0xc60(%rbp)
    f723:	48 c7 85 a8 f3 ff ff 	movq   $0x0,-0xc58(%rbp)
    f72a:	00 00 00 00 
    f72e:	48 8d 05 7b e9 00 00 	lea    0xe97b(%rip),%rax        # 1e0b0 <g_115+0x10>
    f735:	48 89 85 b0 f3 ff ff 	mov    %rax,-0xc50(%rbp)
    f73c:	48 8d 05 41 e9 00 00 	lea    0xe941(%rip),%rax        # 1e084 <g_51>
    f743:	48 89 85 b8 f3 ff ff 	mov    %rax,-0xc48(%rbp)
    f74a:	48 8d 85 20 ec ff ff 	lea    -0x13e0(%rbp),%rax
    f751:	48 89 85 c0 f3 ff ff 	mov    %rax,-0xc40(%rbp)
    f758:	48 8d 05 19 e9 00 00 	lea    0xe919(%rip),%rax        # 1e078 <g_6>
    f75f:	48 89 85 c8 f3 ff ff 	mov    %rax,-0xc38(%rbp)
    f766:	48 8d 05 33 e9 00 00 	lea    0xe933(%rip),%rax        # 1e0a0 <g_115>
    f76d:	48 89 85 d0 f3 ff ff 	mov    %rax,-0xc30(%rbp)
    f774:	48 8d 85 10 ef ff ff 	lea    -0x10f0(%rbp),%rax
    f77b:	48 89 85 d8 f3 ff ff 	mov    %rax,-0xc28(%rbp)
    f782:	48 8d 85 10 ef ff ff 	lea    -0x10f0(%rbp),%rax
    f789:	48 89 85 e0 f3 ff ff 	mov    %rax,-0xc20(%rbp)
    f790:	48 8d 85 10 ef ff ff 	lea    -0x10f0(%rbp),%rax
    f797:	48 89 85 e8 f3 ff ff 	mov    %rax,-0xc18(%rbp)
    f79e:	48 8d 05 0b e9 00 00 	lea    0xe90b(%rip),%rax        # 1e0b0 <g_115+0x10>
    f7a5:	48 89 85 f0 f3 ff ff 	mov    %rax,-0xc10(%rbp)
    f7ac:	48 c7 85 f8 f3 ff ff 	movq   $0x0,-0xc08(%rbp)
    f7b3:	00 00 00 00 
    f7b7:	48 8d 85 10 ef ff ff 	lea    -0x10f0(%rbp),%rax
    f7be:	48 89 85 00 f4 ff ff 	mov    %rax,-0xc00(%rbp)
    f7c5:	48 c7 85 08 f4 ff ff 	movq   $0x0,-0xbf8(%rbp)
    f7cc:	00 00 00 00 
    f7d0:	48 8d 85 10 ef ff ff 	lea    -0x10f0(%rbp),%rax
    f7d7:	48 89 85 10 f4 ff ff 	mov    %rax,-0xbf0(%rbp)
    f7de:	48 c7 85 18 f4 ff ff 	movq   $0x0,-0xbe8(%rbp)
    f7e5:	00 00 00 00 
    f7e9:	48 8d 05 c0 e8 00 00 	lea    0xe8c0(%rip),%rax        # 1e0b0 <g_115+0x10>
    f7f0:	48 89 85 20 f4 ff ff 	mov    %rax,-0xbe0(%rbp)
    f7f7:	48 8d 85 10 ef ff ff 	lea    -0x10f0(%rbp),%rax
    f7fe:	48 89 85 28 f4 ff ff 	mov    %rax,-0xbd8(%rbp)
    f805:	48 8d 05 78 e8 00 00 	lea    0xe878(%rip),%rax        # 1e084 <g_51>
    f80c:	48 89 85 30 f4 ff ff 	mov    %rax,-0xbd0(%rbp)
    f813:	48 c7 85 38 f4 ff ff 	movq   $0x0,-0xbc8(%rbp)
    f81a:	00 00 00 00 
    f81e:	48 8d 05 5f e8 00 00 	lea    0xe85f(%rip),%rax        # 1e084 <g_51>
    f825:	48 89 85 40 f4 ff ff 	mov    %rax,-0xbc0(%rbp)
    f82c:	48 8d 85 10 ef ff ff 	lea    -0x10f0(%rbp),%rax
    f833:	48 89 85 48 f4 ff ff 	mov    %rax,-0xbb8(%rbp)
    f83a:	48 8d 05 6f e8 00 00 	lea    0xe86f(%rip),%rax        # 1e0b0 <g_115+0x10>
    f841:	48 89 85 50 f4 ff ff 	mov    %rax,-0xbb0(%rbp)
    f848:	48 c7 85 58 f4 ff ff 	movq   $0x0,-0xba8(%rbp)
    f84f:	00 00 00 00 
    f853:	48 8d 85 10 ef ff ff 	lea    -0x10f0(%rbp),%rax
    f85a:	48 89 85 60 f4 ff ff 	mov    %rax,-0xba0(%rbp)
    f861:	48 c7 85 68 f4 ff ff 	movq   $0x0,-0xb98(%rbp)
    f868:	00 00 00 00 
    f86c:	48 8d 85 10 ef ff ff 	lea    -0x10f0(%rbp),%rax
    f873:	48 89 85 70 f4 ff ff 	mov    %rax,-0xb90(%rbp)
    f87a:	48 c7 85 78 f4 ff ff 	movq   $0x0,-0xb88(%rbp)
    f881:	00 00 00 00 
    f885:	48 8d 05 24 e8 00 00 	lea    0xe824(%rip),%rax        # 1e0b0 <g_115+0x10>
    f88c:	48 89 85 80 f4 ff ff 	mov    %rax,-0xb80(%rbp)
    f893:	48 8d 85 10 ef ff ff 	lea    -0x10f0(%rbp),%rax
    f89a:	48 89 85 88 f4 ff ff 	mov    %rax,-0xb78(%rbp)
    f8a1:	48 8d 85 10 ef ff ff 	lea    -0x10f0(%rbp),%rax
    f8a8:	48 89 85 90 f4 ff ff 	mov    %rax,-0xb70(%rbp)
    f8af:	48 8d 85 10 ef ff ff 	lea    -0x10f0(%rbp),%rax
    f8b6:	48 89 85 98 f4 ff ff 	mov    %rax,-0xb68(%rbp)
    f8bd:	48 8d 05 dc e7 00 00 	lea    0xe7dc(%rip),%rax        # 1e0a0 <g_115>
    f8c4:	48 89 85 a0 f4 ff ff 	mov    %rax,-0xb60(%rbp)
    f8cb:	48 8d 05 a6 e7 00 00 	lea    0xe7a6(%rip),%rax        # 1e078 <g_6>
    f8d2:	48 89 85 a8 f4 ff ff 	mov    %rax,-0xb58(%rbp)
    f8d9:	48 8d 85 20 ec ff ff 	lea    -0x13e0(%rbp),%rax
    f8e0:	48 89 85 b0 f4 ff ff 	mov    %rax,-0xb50(%rbp)
    f8e7:	48 8d 05 96 e7 00 00 	lea    0xe796(%rip),%rax        # 1e084 <g_51>
    f8ee:	48 89 85 b8 f4 ff ff 	mov    %rax,-0xb48(%rbp)
    f8f5:	48 8d 05 b4 e7 00 00 	lea    0xe7b4(%rip),%rax        # 1e0b0 <g_115+0x10>
    f8fc:	48 89 85 c0 f4 ff ff 	mov    %rax,-0xb40(%rbp)
    f903:	48 c7 85 c8 f4 ff ff 	movq   $0x0,-0xb38(%rbp)
    f90a:	00 00 00 00 
    f90e:	48 8d 05 9b e7 00 00 	lea    0xe79b(%rip),%rax        # 1e0b0 <g_115+0x10>
    f915:	48 89 85 d0 f4 ff ff 	mov    %rax,-0xb30(%rbp)
    f91c:	48 8d 05 61 e7 00 00 	lea    0xe761(%rip),%rax        # 1e084 <g_51>
    f923:	48 89 85 d8 f4 ff ff 	mov    %rax,-0xb28(%rbp)
    f92a:	48 8d 05 6f e8 00 00 	lea    0xe86f(%rip),%rax        # 1e1a0 <g_628>
    f931:	48 89 85 e0 f4 ff ff 	mov    %rax,-0xb20(%rbp)
    f938:	48 8d 85 10 ef ff ff 	lea    -0x10f0(%rbp),%rax
    f93f:	48 89 85 e8 f4 ff ff 	mov    %rax,-0xb18(%rbp)
    f946:	48 8d 85 10 ef ff ff 	lea    -0x10f0(%rbp),%rax
    f94d:	48 89 85 f0 f4 ff ff 	mov    %rax,-0xb10(%rbp)
    f954:	48 8d 85 10 ef ff ff 	lea    -0x10f0(%rbp),%rax
    f95b:	48 89 85 f8 f4 ff ff 	mov    %rax,-0xb08(%rbp)
    f962:	48 8d 05 37 e7 00 00 	lea    0xe737(%rip),%rax        # 1e0a0 <g_115>
    f969:	48 89 85 00 f5 ff ff 	mov    %rax,-0xb00(%rbp)
    f970:	48 8d 05 01 e7 00 00 	lea    0xe701(%rip),%rax        # 1e078 <g_6>
    f977:	48 89 85 08 f5 ff ff 	mov    %rax,-0xaf8(%rbp)
    f97e:	48 8d 85 20 ec ff ff 	lea    -0x13e0(%rbp),%rax
    f985:	48 89 85 10 f5 ff ff 	mov    %rax,-0xaf0(%rbp)
    f98c:	48 8d 05 f1 e6 00 00 	lea    0xe6f1(%rip),%rax        # 1e084 <g_51>
    f993:	48 89 85 18 f5 ff ff 	mov    %rax,-0xae8(%rbp)
    f99a:	48 8d 05 0f e7 00 00 	lea    0xe70f(%rip),%rax        # 1e0b0 <g_115+0x10>
    f9a1:	48 89 85 20 f5 ff ff 	mov    %rax,-0xae0(%rbp)
    f9a8:	48 c7 85 28 f5 ff ff 	movq   $0x0,-0xad8(%rbp)
    f9af:	00 00 00 00 
    f9b3:	48 8d 85 10 ef ff ff 	lea    -0x10f0(%rbp),%rax
    f9ba:	48 89 85 30 f5 ff ff 	mov    %rax,-0xad0(%rbp)
    f9c1:	48 8d 05 d8 e7 00 00 	lea    0xe7d8(%rip),%rax        # 1e1a0 <g_628>
    f9c8:	48 89 85 38 f5 ff ff 	mov    %rax,-0xac8(%rbp)
    f9cf:	48 8d 85 10 ef ff ff 	lea    -0x10f0(%rbp),%rax
    f9d6:	48 89 85 40 f5 ff ff 	mov    %rax,-0xac0(%rbp)
    f9dd:	48 8d 05 a0 e6 00 00 	lea    0xe6a0(%rip),%rax        # 1e084 <g_51>
    f9e4:	48 89 85 48 f5 ff ff 	mov    %rax,-0xab8(%rbp)
    f9eb:	48 8d 05 92 e6 00 00 	lea    0xe692(%rip),%rax        # 1e084 <g_51>
    f9f2:	48 89 85 50 f5 ff ff 	mov    %rax,-0xab0(%rbp)
    f9f9:	48 8d 05 84 e6 00 00 	lea    0xe684(%rip),%rax        # 1e084 <g_51>
    fa00:	48 89 85 58 f5 ff ff 	mov    %rax,-0xaa8(%rbp)
    fa07:	48 8d 85 10 ef ff ff 	lea    -0x10f0(%rbp),%rax
    fa0e:	48 89 85 60 f5 ff ff 	mov    %rax,-0xaa0(%rbp)
    fa15:	48 8d 05 84 e7 00 00 	lea    0xe784(%rip),%rax        # 1e1a0 <g_628>
    fa1c:	48 89 85 68 f5 ff ff 	mov    %rax,-0xa98(%rbp)
    fa23:	48 8d 85 10 ef ff ff 	lea    -0x10f0(%rbp),%rax
    fa2a:	48 89 85 70 f5 ff ff 	mov    %rax,-0xa90(%rbp)
    fa31:	48 c7 85 78 f5 ff ff 	movq   $0x0,-0xa88(%rbp)
    fa38:	00 00 00 00 
    fa3c:	48 b8 a3 0d c5 10 8b 	movabs $0x79c6c38b10c50da3,%rax
    fa43:	c3 c6 79 
    fa46:	48 89 85 f8 ec ff ff 	mov    %rax,-0x1308(%rbp)
    fa4d:	48 8d 05 f0 e7 00 00 	lea    0xe7f0(%rip),%rax        # 1e244 <g_823>
    fa54:	48 89 85 b0 ed ff ff 	mov    %rax,-0x1250(%rbp)
    fa5b:	0f b6 05 2d e9 00 00 	movzbl 0xe92d(%rip),%eax        # 1e38f <g_1712+0x4f>
    fa62:	83 e8 01             	sub    $0x1,%eax
    fa65:	88 05 24 e9 00 00    	mov    %al,0xe924(%rip)        # 1e38f <g_1712+0x4f>
    fa6b:	48 8b 85 a0 ed ff ff 	mov    -0x1260(%rbp),%rax
    fa72:	8b 18                	mov    (%rax),%ebx
    fa74:	44 8b a5 4c ec ff ff 	mov    -0x13b4(%rbp),%r12d
    fa7b:	48 8b 85 f8 eb ff ff 	mov    -0x1408(%rbp),%rax
    fa82:	41 89 c5             	mov    %eax,%r13d
    fa85:	0f be 95 0a ec ff ff 	movsbl -0x13f6(%rbp),%edx
    fa8c:	8b 05 b6 e7 00 00    	mov    0xe7b6(%rip),%eax        # 1e248 <g_915>
    fa92:	85 c0                	test   %eax,%eax
    fa94:	74 45                	je     fadb <func_54+0x31f0>
    fa96:	0f b6 05 1b e6 00 00 	movzbl 0xe61b(%rip),%eax        # 1e0b8 <g_124>
    fa9d:	0f b6 f8             	movzbl %al,%edi
    faa0:	48 8b 85 68 ed ff ff 	mov    -0x1298(%rbp),%rax
    faa7:	0f b6 00             	movzbl (%rax),%eax
    faaa:	8d 70 ff             	lea    -0x1(%rax),%esi
    faad:	48 8b 8d 68 ed ff ff 	mov    -0x1298(%rbp),%rcx
    fab4:	40 88 31             	mov    %sil,(%rcx)
    fab7:	0f b6 c8             	movzbl %al,%ecx
    faba:	48 83 bd 78 ed ff ff 	cmpq   $0x0,-0x1288(%rbp)
    fac1:	00 
    fac2:	0f 95 c0             	setne  %al
    fac5:	0f b6 c0             	movzbl %al,%eax
    fac8:	39 c1                	cmp    %eax,%ecx
    faca:	0f 94 c0             	sete   %al
    facd:	0f b6 c0             	movzbl %al,%eax
    fad0:	39 c7                	cmp    %eax,%edi
    fad2:	7f 07                	jg     fadb <func_54+0x31f0>
    fad4:	b8 01 00 00 00       	mov    $0x1,%eax
    fad9:	eb 05                	jmp    fae0 <func_54+0x31f5>
    fadb:	b8 00 00 00 00       	mov    $0x0,%eax
    fae0:	0f be c0             	movsbl %al,%eax
    fae3:	89 d6                	mov    %edx,%esi
    fae5:	89 c7                	mov    %eax,%edi
    fae7:	e8 26 87 ff ff       	callq  8212 <safe_mul_func_int8_t_s_s>
    faec:	0f be c0             	movsbl %al,%eax
    faef:	44 89 ee             	mov    %r13d,%esi
    faf2:	89 c7                	mov    %eax,%edi
    faf4:	e8 d3 8b ff ff       	callq  86cc <safe_mod_func_int32_t_s_s>
    faf9:	0f b7 c0             	movzwl %ax,%eax
    fafc:	44 89 e6             	mov    %r12d,%esi
    faff:	89 c7                	mov    %eax,%edi
    fb01:	e8 00 93 ff ff       	callq  8e06 <safe_lshift_func_uint16_t_u_u>
    fb06:	48 c7 05 07 36 01 00 	movq   $0x1,0x13607(%rip)        # 23118 <g_322>
    fb0d:	01 00 00 00 
    fb11:	48 8b 05 00 36 01 00 	mov    0x13600(%rip),%rax        # 23118 <g_322>
    fb18:	48 8b 95 f8 eb ff ff 	mov    -0x1408(%rbp),%rdx
    fb1f:	48 39 d0             	cmp    %rdx,%rax
    fb22:	0f 92 c0             	setb   %al
    fb25:	0f b6 d0             	movzbl %al,%edx
    fb28:	48 8b 85 f8 eb ff ff 	mov    -0x1408(%rbp),%rax
    fb2f:	48 39 c2             	cmp    %rax,%rdx
    fb32:	0f 9f c0             	setg   %al
    fb35:	0f b6 c0             	movzbl %al,%eax
    fb38:	48 89 c6             	mov    %rax,%rsi
    fb3b:	48 bf ab 68 58 3d 35 	movabs $0xb596ea353d5868ab,%rdi
    fb42:	ea 96 b5 
    fb45:	e8 e4 94 ff ff       	callq  902e <safe_add_func_uint64_t_u_u>
    fb4a:	0f b7 c0             	movzwl %ax,%eax
    fb4d:	be 01 00 00 00       	mov    $0x1,%esi
    fb52:	89 c7                	mov    %eax,%edi
    fb54:	e8 c6 91 ff ff       	callq  8d1f <safe_sub_func_uint16_t_u_u>
    fb59:	0f b7 d0             	movzwl %ax,%edx
    fb5c:	48 8b 85 f8 eb ff ff 	mov    -0x1408(%rbp),%rax
    fb63:	48 39 c2             	cmp    %rax,%rdx
    fb66:	0f 9e c0             	setle  %al
    fb69:	0f b6 c0             	movzbl %al,%eax
    fb6c:	be 04 00 00 00       	mov    $0x4,%esi
    fb71:	89 c7                	mov    %eax,%edi
    fb73:	e8 bd 87 ff ff       	callq  8335 <safe_rshift_func_int8_t_s_s>
    fb78:	0f be d0             	movsbl %al,%edx
    fb7b:	48 8b 85 b0 ed ff ff 	mov    -0x1250(%rbp),%rax
    fb82:	89 10                	mov    %edx,(%rax)
    fb84:	48 8b 95 68 f0 ff ff 	mov    -0xf98(%rbp),%rdx
    fb8b:	48 8d 85 f8 ec ff ff 	lea    -0x1308(%rbp),%rax
    fb92:	48 39 c2             	cmp    %rax,%rdx
    fb95:	89 de                	mov    %ebx,%esi
    fb97:	bf 82 00 00 00       	mov    $0x82,%edi
    fb9c:	e8 ec 90 ff ff       	callq  8c8d <safe_rshift_func_uint8_t_u_s>
    fba1:	be 0c 00 00 00       	mov    $0xc,%esi
    fba6:	bf 74 c7 ff ff       	mov    $0xffffc774,%edi
    fbab:	e8 e2 88 ff ff       	callq  8492 <safe_lshift_func_int16_t_s_s>
    fbb0:	98                   	cwtl   
    fbb1:	f7 d0                	not    %eax
    fbb3:	89 c2                	mov    %eax,%edx
    fbb5:	48 8b 85 a0 ed ff ff 	mov    -0x1260(%rbp),%rax
    fbbc:	8b 00                	mov    (%rax),%eax
    fbbe:	31 c2                	xor    %eax,%edx
    fbc0:	48 8b 85 a0 ed ff ff 	mov    -0x1260(%rbp),%rax
    fbc7:	89 10                	mov    %edx,(%rax)
    fbc9:	48 8b 85 f8 eb ff ff 	mov    -0x1408(%rbp),%rax
    fbd0:	48 85 c0             	test   %rax,%rax
    fbd3:	75 10                	jne    fbe5 <func_54+0x32fa>
    fbd5:	48 8b 85 40 ed ff ff 	mov    -0x12c0(%rbp),%rax
    fbdc:	48 c7 00 00 00 00 00 	movq   $0x0,(%rax)
    fbe3:	eb 01                	jmp    fbe6 <func_54+0x32fb>
    fbe5:	90                   	nop
    fbe6:	8b 05 c4 e5 00 00    	mov    0xe5c4(%rip),%eax        # 1e1b0 <g_632>
    fbec:	83 c0 01             	add    $0x1,%eax
    fbef:	89 05 bb e5 00 00    	mov    %eax,0xe5bb(%rip)        # 1e1b0 <g_632>
    fbf5:	8b 05 b5 e5 00 00    	mov    0xe5b5(%rip),%eax        # 1e1b0 <g_632>
    fbfb:	83 f8 01             	cmp    $0x1,%eax
    fbfe:	0f 8e b5 fa ff ff    	jle    f6b9 <func_54+0x2dce>
    fc04:	8b 05 b2 e4 00 00    	mov    0xe4b2(%rip),%eax        # 1e0bc <g_127>
    fc0a:	83 c0 01             	add    $0x1,%eax
    fc0d:	89 05 a9 e4 00 00    	mov    %eax,0xe4a9(%rip)        # 1e0bc <g_127>
    fc13:	8b 05 a3 e4 00 00    	mov    0xe4a3(%rip),%eax        # 1e0bc <g_127>
    fc19:	83 f8 01             	cmp    $0x1,%eax
    fc1c:	0f 86 64 f1 ff ff    	jbe    ed86 <func_54+0x249b>
    fc22:	eb 01                	jmp    fc25 <func_54+0x333a>
    fc24:	90                   	nop
    fc25:	0f b6 05 dc 40 01 00 	movzbl 0x140dc(%rip),%eax        # 23d08 <g_1049>
    fc2c:	83 c0 01             	add    $0x1,%eax
    fc2f:	88 05 d3 40 01 00    	mov    %al,0x140d3(%rip)        # 23d08 <g_1049>
    fc35:	0f b6 05 cc 40 01 00 	movzbl 0x140cc(%rip),%eax        # 23d08 <g_1049>
    fc3c:	3c 01                	cmp    $0x1,%al
    fc3e:	0f 8e 0c ed ff ff    	jle    e950 <func_54+0x2065>
    fc44:	c7 85 1c ec ff ff 0a 	movl   $0xa,-0x13e4(%rbp)
    fc4b:	00 00 00 
    fc4e:	eb 54                	jmp    fca4 <func_54+0x33b9>
    fc50:	48 b8 ad be 4f 9c 2d 	movabs $0xb9be822d9c4fbead,%rax
    fc57:	82 be b9 
    fc5a:	48 89 85 48 ed ff ff 	mov    %rax,-0x12b8(%rbp)
    fc61:	48 8d 15 d8 1d 01 00 	lea    0x11dd8(%rip),%rdx        # 21a40 <g_132>
    fc68:	48 8b 05 41 1e 01 00 	mov    0x11e41(%rip),%rax        # 21ab0 <g_876>
    fc6f:	48 8b 12             	mov    (%rdx),%rdx
    fc72:	48 89 10             	mov    %rdx,(%rax)
    fc75:	48 83 bd 48 ed ff ff 	cmpq   $0x0,-0x12b8(%rbp)
    fc7c:	00 
    fc7d:	75 32                	jne    fcb1 <func_54+0x33c6>
    fc7f:	48 8b 85 00 ed ff ff 	mov    -0x1300(%rbp),%rax
    fc86:	8b 00                	mov    (%rax),%eax
    fc88:	f7 d0                	not    %eax
    fc8a:	89 c2                	mov    %eax,%edx
    fc8c:	48 8b 85 00 ed ff ff 	mov    -0x1300(%rbp),%rax
    fc93:	89 10                	mov    %edx,(%rax)
    fc95:	8b 85 1c ec ff ff    	mov    -0x13e4(%rbp),%eax
    fc9b:	83 e8 01             	sub    $0x1,%eax
    fc9e:	89 85 1c ec ff ff    	mov    %eax,-0x13e4(%rbp)
    fca4:	8b 85 1c ec ff ff    	mov    -0x13e4(%rbp),%eax
    fcaa:	83 f8 ea             	cmp    $0xffffffea,%eax
    fcad:	75 a1                	jne    fc50 <func_54+0x3365>
    fcaf:	eb 01                	jmp    fcb2 <func_54+0x33c7>
    fcb1:	90                   	nop
    fcb2:	8b 85 f4 eb ff ff    	mov    -0x140c(%rbp),%eax
    fcb8:	48 8b 5d d8          	mov    -0x28(%rbp),%rbx
    fcbc:	64 48 33 1c 25 28 00 	xor    %fs:0x28,%rbx
    fcc3:	00 00 
    fcc5:	74 05                	je     fccc <func_54+0x33e1>
    fcc7:	e8 a4 83 ff ff       	callq  8070 <__stack_chk_fail@plt>
    fccc:	48 81 c4 00 14 00 00 	add    $0x1400,%rsp
    fcd3:	5b                   	pop    %rbx
    fcd4:	41 5c                	pop    %r12
    fcd6:	41 5d                	pop    %r13
    fcd8:	41 5e                	pop    %r14
    fcda:	5d                   	pop    %rbp
    fcdb:	c3                   	retq   

000000000000fcdc <func_60>:
    fcdc:	f3 0f 1e fa          	endbr64 
    fce0:	55                   	push   %rbp
    fce1:	48 89 e5             	mov    %rsp,%rbp
    fce4:	41 55                	push   %r13
    fce6:	41 54                	push   %r12
    fce8:	53                   	push   %rbx
    fce9:	48 81 ec 48 05 00 00 	sub    $0x548,%rsp
    fcf0:	89 bd ac fa ff ff    	mov    %edi,-0x554(%rbp)
    fcf6:	64 48 8b 04 25 28 00 	mov    %fs:0x28,%rax
    fcfd:	00 00 
    fcff:	48 89 45 d8          	mov    %rax,-0x28(%rbp)
    fd03:	31 c0                	xor    %eax,%eax
    fd05:	48 8d 05 6c e3 00 00 	lea    0xe36c(%rip),%rax        # 1e078 <g_6>
    fd0c:	48 89 85 10 fb ff ff 	mov    %rax,-0x4f0(%rbp)
    fd13:	48 c7 85 18 fb ff ff 	movq   $0x0,-0x4e8(%rbp)
    fd1a:	00 00 00 00 
    fd1e:	c7 85 cc fa ff ff ff 	movl   $0xffffffff,-0x534(%rbp)
    fd25:	ff ff ff 
    fd28:	c7 85 d0 fa ff ff 47 	movl   $0x99b32047,-0x530(%rbp)
    fd2f:	20 b3 99 
    fd32:	c7 85 d4 fa ff ff dd 	movl   $0xa739cadd,-0x52c(%rbp)
    fd39:	ca 39 a7 
    fd3c:	c7 85 d8 fa ff ff 34 	movl   $0x6db834,-0x528(%rbp)
    fd43:	b8 6d 00 
    fd46:	48 8d 05 0b e5 00 00 	lea    0xe50b(%rip),%rax        # 1e258 <g_1004>
    fd4d:	48 89 85 90 fb ff ff 	mov    %rax,-0x470(%rbp)
    fd54:	48 8d 05 fd e4 00 00 	lea    0xe4fd(%rip),%rax        # 1e258 <g_1004>
    fd5b:	48 89 85 98 fb ff ff 	mov    %rax,-0x468(%rbp)
    fd62:	48 8d 05 ef e4 00 00 	lea    0xe4ef(%rip),%rax        # 1e258 <g_1004>
    fd69:	48 89 85 a0 fb ff ff 	mov    %rax,-0x460(%rbp)
    fd70:	48 8d 05 e1 e4 00 00 	lea    0xe4e1(%rip),%rax        # 1e258 <g_1004>
    fd77:	48 89 85 a8 fb ff ff 	mov    %rax,-0x458(%rbp)
    fd7e:	48 8d 85 e0 fb ff ff 	lea    -0x420(%rbp),%rax
    fd85:	48 8d 15 94 0c 01 00 	lea    0x10c94(%rip),%rdx        # 20a20 <g_2204+0x1d00>
    fd8c:	b9 7e 00 00 00       	mov    $0x7e,%ecx
    fd91:	48 89 c7             	mov    %rax,%rdi
    fd94:	48 89 d6             	mov    %rdx,%rsi
    fd97:	f3 48 a5             	rep movsq %ds:(%rsi),%es:(%rdi)
    fd9a:	48 8d 85 68 fb ff ff 	lea    -0x498(%rbp),%rax
    fda1:	48 89 85 20 fb ff ff 	mov    %rax,-0x4e0(%rbp)
    fda8:	48 c7 85 28 fb ff ff 	movq   $0x0,-0x4d8(%rbp)
    fdaf:	00 00 00 00 
    fdb3:	c7 85 bc fa ff ff b8 	movl   $0x55a771b8,-0x544(%rbp)
    fdba:	71 a7 55 
    fdbd:	c7 85 c0 fa ff ff 03 	movl   $0x3,-0x540(%rbp)
    fdc4:	00 00 00 
    fdc7:	c7 85 dc fa ff ff 85 	movl   $0xc15a9585,-0x524(%rbp)
    fdce:	95 5a c1 
    fdd1:	c7 85 b0 fb ff ff 01 	movl   $0x1,-0x450(%rbp)
    fdd8:	00 00 00 
    fddb:	c7 85 b4 fb ff ff ff 	movl   $0xffffffff,-0x44c(%rbp)
    fde2:	ff ff ff 
    fde5:	c7 85 b8 fb ff ff 01 	movl   $0x1,-0x448(%rbp)
    fdec:	00 00 00 
    fdef:	c7 85 bc fb ff ff ff 	movl   $0xffffffff,-0x444(%rbp)
    fdf6:	ff ff ff 
    fdf9:	c7 85 c0 fb ff ff 01 	movl   $0x1,-0x440(%rbp)
    fe00:	00 00 00 
    fe03:	c7 85 c4 fb ff ff ff 	movl   $0xffffffff,-0x43c(%rbp)
    fe0a:	ff ff ff 
    fe0d:	c7 85 c8 fb ff ff 01 	movl   $0x1,-0x438(%rbp)
    fe14:	00 00 00 
    fe17:	c7 85 cc fb ff ff ff 	movl   $0xffffffff,-0x434(%rbp)
    fe1e:	ff ff ff 
    fe21:	c7 85 d0 fb ff ff 01 	movl   $0x1,-0x430(%rbp)
    fe28:	00 00 00 
    fe2b:	c7 85 d4 fb ff ff ff 	movl   $0xffffffff,-0x42c(%rbp)
    fe32:	ff ff ff 
    fe35:	c7 85 e0 fa ff ff b5 	movl   $0x6849adb5,-0x520(%rbp)
    fe3c:	ad 49 68 
    fe3f:	48 c7 85 00 fb ff ff 	movq   $0x5,-0x500(%rbp)
    fe46:	05 00 00 00 
    fe4a:	48 c7 85 30 fb ff ff 	movq   $0x1,-0x4d0(%rbp)
    fe51:	01 00 00 00 
    fe55:	48 c7 85 38 fb ff ff 	movq   $0x0,-0x4c8(%rbp)
    fe5c:	00 00 00 00 
    fe60:	48 c7 85 40 fb ff ff 	movq   $0x0,-0x4c0(%rbp)
    fe67:	00 00 00 00 
    fe6b:	48 8d 05 ee e3 00 00 	lea    0xe3ee(%rip),%rax        # 1e260 <g_1064>
    fe72:	48 89 85 48 fb ff ff 	mov    %rax,-0x4b8(%rbp)
    fe79:	c7 85 c4 fa ff ff 00 	movl   $0x0,-0x53c(%rbp)
    fe80:	00 00 00 
    fe83:	eb 22                	jmp    fea7 <func_60+0x1cb>
    fe85:	8b 85 c4 fa ff ff    	mov    -0x53c(%rbp),%eax
    fe8b:	48 98                	cltq   
    fe8d:	48 8d 95 e0 fb ff ff 	lea    -0x420(%rbp),%rdx
    fe94:	48 83 c2 50          	add    $0x50,%rdx
    fe98:	48 89 94 c5 68 fb ff 	mov    %rdx,-0x498(%rbp,%rax,8)
    fe9f:	ff 
    fea0:	83 85 c4 fa ff ff 01 	addl   $0x1,-0x53c(%rbp)
    fea7:	83 bd c4 fa ff ff 00 	cmpl   $0x0,-0x53c(%rbp)
    feae:	7e d5                	jle    fe85 <func_60+0x1a9>
    feb0:	c7 85 ac fa ff ff 00 	movl   $0x0,-0x554(%rbp)
    feb7:	00 00 00 
    feba:	e9 bb 00 00 00       	jmpq   ff7a <func_60+0x29e>
    febf:	48 8d 05 ba e1 00 00 	lea    0xe1ba(%rip),%rax        # 1e080 <g_14>
    fec6:	48 89 85 50 fb ff ff 	mov    %rax,-0x4b0(%rbp)
    fecd:	48 8d 05 e0 e1 00 00 	lea    0xe1e0(%rip),%rax        # 1e0b4 <g_115+0x14>
    fed4:	48 89 85 58 fb ff ff 	mov    %rax,-0x4a8(%rbp)
    fedb:	48 c7 85 08 fb ff ff 	movq   $0x0,-0x4f8(%rbp)
    fee2:	00 00 00 00 
    fee6:	48 8d 85 08 fb ff ff 	lea    -0x4f8(%rbp),%rax
    feed:	48 89 85 60 fb ff ff 	mov    %rax,-0x4a0(%rbp)
    fef4:	c7 85 e4 fa ff ff 18 	movl   $0x27072f18,-0x51c(%rbp)
    fefb:	2f 07 27 
    fefe:	c7 85 e8 fa ff ff 00 	movl   $0x0,-0x518(%rbp)
    ff05:	00 00 00 
    ff08:	c7 85 ec fa ff ff 07 	movl   $0x7,-0x514(%rbp)
    ff0f:	00 00 00 
    ff12:	c7 85 f0 fa ff ff 39 	movl   $0xf9e3a539,-0x510(%rbp)
    ff19:	a5 e3 f9 
    ff1c:	c7 85 f4 fa ff ff ff 	movl   $0xffffffff,-0x50c(%rbp)
    ff23:	ff ff ff 
    ff26:	c7 85 f8 fa ff ff 34 	movl   $0xaa616934,-0x508(%rbp)
    ff2d:	69 61 aa 
    ff30:	c7 85 fc fa ff ff 00 	movl   $0x0,-0x504(%rbp)
    ff37:	00 00 00 
    ff3a:	c7 85 c8 fa ff ff 00 	movl   $0x0,-0x538(%rbp)
    ff41:	00 00 00 
    ff44:	eb 1a                	jmp    ff60 <func_60+0x284>
    ff46:	8b 85 c8 fa ff ff    	mov    -0x538(%rbp),%eax
    ff4c:	48 98                	cltq   
    ff4e:	c7 84 85 70 fb ff ff 	movl   $0xd5b1ed21,-0x490(%rbp,%rax,4)
    ff55:	21 ed b1 d5 
    ff59:	83 85 c8 fa ff ff 01 	addl   $0x1,-0x538(%rbp)
    ff60:	83 bd c8 fa ff ff 05 	cmpl   $0x5,-0x538(%rbp)
    ff67:	7e dd                	jle    ff46 <func_60+0x26a>
    ff69:	8b 05 b5 e0 00 00    	mov    0xe0b5(%rip),%eax        # 1e024 <g_2>
    ff6f:	85 c0                	test   %eax,%eax
    ff71:	75 16                	jne    ff89 <func_60+0x2ad>
    ff73:	83 85 ac fa ff ff 01 	addl   $0x1,-0x554(%rbp)
    ff7a:	83 bd ac fa ff ff 27 	cmpl   $0x27,-0x554(%rbp)
    ff81:	0f 84 38 ff ff ff    	je     febf <func_60+0x1e3>
    ff87:	eb 01                	jmp    ff8a <func_60+0x2ae>
    ff89:	90                   	nop
    ff8a:	8b 85 ac fa ff ff    	mov    -0x554(%rbp),%eax
    ff90:	0f bf d0             	movswl %ax,%edx
    ff93:	83 bd ac fa ff ff 00 	cmpl   $0x0,-0x554(%rbp)
    ff9a:	75 0d                	jne    ffa9 <func_60+0x2cd>
    ff9c:	48 8b 85 10 fb ff ff 	mov    -0x4f0(%rbp),%rax
    ffa3:	8b 00                	mov    (%rax),%eax
    ffa5:	85 c0                	test   %eax,%eax
    ffa7:	74 07                	je     ffb0 <func_60+0x2d4>
    ffa9:	b8 01 00 00 00       	mov    $0x1,%eax
    ffae:	eb 05                	jmp    ffb5 <func_60+0x2d9>
    ffb0:	b8 00 00 00 00       	mov    $0x0,%eax
    ffb5:	89 c1                	mov    %eax,%ecx
    ffb7:	48 8b 85 48 fb ff ff 	mov    -0x4b8(%rbp),%rax
    ffbe:	66 89 08             	mov    %cx,(%rax)
    ffc1:	48 8b 85 48 fb ff ff 	mov    -0x4b8(%rbp),%rax
    ffc8:	0f b7 00             	movzwl (%rax),%eax
    ffcb:	98                   	cwtl   
    ffcc:	89 d6                	mov    %edx,%esi
    ffce:	89 c7                	mov    %eax,%edi
    ffd0:	e8 20 84 ff ff       	callq  83f5 <safe_mul_func_int16_t_s_s>
    ffd5:	0f b6 c0             	movzbl %al,%eax
    ffd8:	be 18 00 00 00       	mov    $0x18,%esi
    ffdd:	89 c7                	mov    %eax,%edi
    ffdf:	e8 af 8b ff ff       	callq  8b93 <safe_mul_func_uint8_t_u_u>
    ffe4:	0f b6 c0             	movzbl %al,%eax
    ffe7:	83 e0 13             	and    $0x13,%eax
    ffea:	48 89 c2             	mov    %rax,%rdx
    ffed:	8b 85 ac fa ff ff    	mov    -0x554(%rbp),%eax
    fff3:	48 39 c2             	cmp    %rax,%rdx
    fff6:	0f 95 c0             	setne  %al
    fff9:	0f b6 d8             	movzbl %al,%ebx
    fffc:	48 8b 85 30 fb ff ff 	mov    -0x4d0(%rbp),%rax
   10003:	41 89 c5             	mov    %eax,%r13d
   10006:	48 8d 85 c0 fa ff ff 	lea    -0x540(%rbp),%rax
   1000d:	48 89 c7             	mov    %rax,%rdi
   10010:	e8 15 70 00 00       	callq  1702a <func_79>
   10015:	48 89 c2             	mov    %rax,%rdx
   10018:	48 8d 85 bc fa ff ff 	lea    -0x544(%rbp),%rax
   1001f:	48 89 c6             	mov    %rax,%rsi
   10022:	48 89 d7             	mov    %rdx,%rdi
   10025:	e8 7d 50 00 00       	callq  150a7 <func_76>
   1002a:	48 89 c6             	mov    %rax,%rsi
   1002d:	48 8b 05 7c 1a 01 00 	mov    0x11a7c(%rip),%rax        # 21ab0 <g_876>
   10034:	48 8b 00             	mov    (%rax),%rax
   10037:	4c 8d 25 02 1a 01 00 	lea    0x11a02(%rip),%r12        # 21a40 <g_132>
   1003e:	89 d9                	mov    %ebx,%ecx
   10040:	44 89 ea             	mov    %r13d,%edx
   10043:	48 89 c7             	mov    %rax,%rdi
   10046:	e8 0c 44 00 00       	callq  14457 <func_70>
   1004b:	49 89 04 24          	mov    %rax,(%r12)
   1004f:	48 8b 85 30 fc ff ff 	mov    -0x3d0(%rbp),%rax
   10056:	48 8b 5d d8          	mov    -0x28(%rbp),%rbx
   1005a:	64 48 33 1c 25 28 00 	xor    %fs:0x28,%rbx
   10061:	00 00 
   10063:	74 05                	je     1006a <func_60+0x38e>
   10065:	e8 06 80 ff ff       	callq  8070 <__stack_chk_fail@plt>
   1006a:	48 81 c4 48 05 00 00 	add    $0x548,%rsp
   10071:	5b                   	pop    %rbx
   10072:	41 5c                	pop    %r12
   10074:	41 5d                	pop    %r13
   10076:	5d                   	pop    %rbp
   10077:	c3                   	retq   

0000000000010078 <func_65>:
   10078:	f3 0f 1e fa          	endbr64 
   1007c:	55                   	push   %rbp
   1007d:	48 89 e5             	mov    %rsp,%rbp
   10080:	41 57                	push   %r15
   10082:	41 56                	push   %r14
   10084:	41 55                	push   %r13
   10086:	41 54                	push   %r12
   10088:	53                   	push   %rbx
   10089:	48 81 ec 00 10 00 00 	sub    $0x1000,%rsp
   10090:	48 83 0c 24 00       	orq    $0x0,(%rsp)
   10095:	48 81 ec f8 02 00 00 	sub    $0x2f8,%rsp
   1009c:	48 89 bd f8 ec ff ff 	mov    %rdi,-0x1308(%rbp)
   100a3:	48 89 b5 f0 ec ff ff 	mov    %rsi,-0x1310(%rbp)
   100aa:	89 d0                	mov    %edx,%eax
   100ac:	89 8d e8 ec ff ff    	mov    %ecx,-0x1318(%rbp)
   100b2:	66 89 85 ec ec ff ff 	mov    %ax,-0x1314(%rbp)
   100b9:	64 48 8b 04 25 28 00 	mov    %fs:0x28,%rax
   100c0:	00 00 
   100c2:	48 89 45 c8          	mov    %rax,-0x38(%rbp)
   100c6:	31 c0                	xor    %eax,%eax
   100c8:	c7 85 2c ed ff ff 5f 	movl   $0x6f0e325f,-0x12d4(%rbp)
   100cf:	32 0e 6f 
   100d2:	48 8d 05 bf df 00 00 	lea    0xdfbf(%rip),%rax        # 1e098 <g_106>
   100d9:	48 89 85 a0 ed ff ff 	mov    %rax,-0x1260(%rbp)
   100e0:	48 8d 85 a0 ed ff ff 	lea    -0x1260(%rbp),%rax
   100e7:	48 89 85 a8 ed ff ff 	mov    %rax,-0x1258(%rbp)
   100ee:	48 8d 05 a3 df 00 00 	lea    0xdfa3(%rip),%rax        # 1e098 <g_106>
   100f5:	48 89 85 20 ee ff ff 	mov    %rax,-0x11e0(%rbp)
   100fc:	c7 85 14 ed ff ff 01 	movl   $0x1,-0x12ec(%rbp)
   10103:	00 00 00 
   10106:	48 8d 05 c3 df 00 00 	lea    0xdfc3(%rip),%rax        # 1e0d0 <g_216>
   1010d:	48 89 85 18 ee ff ff 	mov    %rax,-0x11e8(%rbp)
   10114:	48 8d 05 89 df 00 00 	lea    0xdf89(%rip),%rax        # 1e0a4 <g_115+0x4>
   1011b:	48 89 85 f8 ed ff ff 	mov    %rax,-0x1208(%rbp)
   10122:	48 8d 05 67 e0 00 00 	lea    0xe067(%rip),%rax        # 1e190 <g_508>
   10129:	48 89 85 b0 ed ff ff 	mov    %rax,-0x1250(%rbp)
   10130:	48 8d 85 b0 ed ff ff 	lea    -0x1250(%rbp),%rax
   10137:	48 89 85 b8 ed ff ff 	mov    %rax,-0x1248(%rbp)
   1013e:	48 8d 85 b8 ed ff ff 	lea    -0x1248(%rbp),%rax
   10145:	48 89 85 00 ee ff ff 	mov    %rax,-0x1200(%rbp)
   1014c:	c6 85 07 ed ff ff dc 	movb   $0xdc,-0x12f9(%rbp)
   10153:	48 8d 05 40 df 00 00 	lea    0xdf40(%rip),%rax        # 1e09a <g_109>
   1015a:	48 89 85 08 ee ff ff 	mov    %rax,-0x11f8(%rbp)
   10161:	c7 85 1c ed ff ff fd 	movl   $0xfffffffd,-0x12e4(%rbp)
   10168:	ff ff ff 
   1016b:	c7 85 20 ed ff ff 06 	movl   $0x6,-0x12e0(%rbp)
   10172:	00 00 00 
   10175:	c7 85 24 ed ff ff 91 	movl   $0x3836d691,-0x12dc(%rbp)
   1017c:	d6 36 38 
   1017f:	c7 85 28 ed ff ff f1 	movl   $0xb29a57f1,-0x12d8(%rbp)
   10186:	57 9a b2 
   10189:	c7 85 18 ed ff ff 96 	movl   $0x5399f396,-0x12e8(%rbp)
   10190:	f3 99 53 
   10193:	c7 85 80 ef ff ff 00 	movl   $0x0,-0x1080(%rbp)
   1019a:	00 00 00 
   1019d:	c7 85 84 ef ff ff 00 	movl   $0x0,-0x107c(%rbp)
   101a4:	00 00 00 
   101a7:	c7 85 88 ef ff ff 00 	movl   $0x0,-0x1078(%rbp)
   101ae:	00 00 00 
   101b1:	c7 85 8c ef ff ff 00 	movl   $0x0,-0x1074(%rbp)
   101b8:	00 00 00 
   101bb:	c7 85 90 ef ff ff 00 	movl   $0x0,-0x1070(%rbp)
   101c2:	00 00 00 
   101c5:	c7 85 94 ef ff ff 00 	movl   $0x0,-0x106c(%rbp)
   101cc:	00 00 00 
   101cf:	48 c7 85 10 ee ff ff 	movq   $0x1,-0x11f0(%rbp)
   101d6:	01 00 00 00 
   101da:	48 8d 05 8f 18 01 00 	lea    0x1188f(%rip),%rax        # 21a70 <g_526>
   101e1:	48 89 85 60 f0 ff ff 	mov    %rax,-0xfa0(%rbp)
   101e8:	48 8d 85 a8 ed ff ff 	lea    -0x1258(%rbp),%rax
   101ef:	48 89 85 68 f0 ff ff 	mov    %rax,-0xf98(%rbp)
   101f6:	48 8d 05 73 18 01 00 	lea    0x11873(%rip),%rax        # 21a70 <g_526>
   101fd:	48 89 85 70 f0 ff ff 	mov    %rax,-0xf90(%rbp)
   10204:	48 8d 85 a8 ed ff ff 	lea    -0x1258(%rbp),%rax
   1020b:	48 89 85 78 f0 ff ff 	mov    %rax,-0xf88(%rbp)
   10212:	48 8d 05 57 18 01 00 	lea    0x11857(%rip),%rax        # 21a70 <g_526>
   10219:	48 89 85 80 f0 ff ff 	mov    %rax,-0xf80(%rbp)
   10220:	48 8d 85 a8 ed ff ff 	lea    -0x1258(%rbp),%rax
   10227:	48 89 85 88 f0 ff ff 	mov    %rax,-0xf78(%rbp)
   1022e:	48 8d 05 3b 18 01 00 	lea    0x1183b(%rip),%rax        # 21a70 <g_526>
   10235:	48 89 85 90 f0 ff ff 	mov    %rax,-0xf70(%rbp)
   1023c:	48 8d 85 a8 ed ff ff 	lea    -0x1258(%rbp),%rax
   10243:	48 89 85 98 f0 ff ff 	mov    %rax,-0xf68(%rbp)
   1024a:	48 8d 05 1f 18 01 00 	lea    0x1181f(%rip),%rax        # 21a70 <g_526>
   10251:	48 89 85 a0 f0 ff ff 	mov    %rax,-0xf60(%rbp)
   10258:	c6 85 08 ed ff ff 09 	movb   $0x9,-0x12f8(%rbp)
   1025f:	48 b8 8b e6 0b 47 e7 	movabs $0x3550f2e7470be68b,%rax
   10266:	f2 50 35 
   10269:	48 89 85 c0 ef ff ff 	mov    %rax,-0x1040(%rbp)
   10270:	48 89 85 c8 ef ff ff 	mov    %rax,-0x1038(%rbp)
   10277:	48 89 85 d0 ef ff ff 	mov    %rax,-0x1030(%rbp)
   1027e:	48 89 85 d8 ef ff ff 	mov    %rax,-0x1028(%rbp)
   10285:	48 89 85 e0 ef ff ff 	mov    %rax,-0x1020(%rbp)
   1028c:	48 c7 85 f0 ed ff ff 	movq   $0xfffffffffffffff8,-0x1210(%rbp)
   10293:	f8 ff ff ff 
   10297:	48 8d 05 e2 30 01 00 	lea    0x130e2(%rip),%rax        # 23380 <g_362>
   1029e:	48 89 85 38 ee ff ff 	mov    %rax,-0x11c8(%rbp)
   102a5:	48 8d 05 9c 17 01 00 	lea    0x1179c(%rip),%rax        # 21a48 <g_197>
   102ac:	48 89 85 c0 ed ff ff 	mov    %rax,-0x1240(%rbp)
   102b3:	48 8d 05 e6 d8 00 00 	lea    0xd8e6(%rip),%rax        # 1dba0 <g_131>
   102ba:	48 89 85 40 ee ff ff 	mov    %rax,-0x11c0(%rbp)
   102c1:	48 b8 ef d8 b6 4f fe 	movabs $0xe7c8a1fe4fb6d8ef,%rax
   102c8:	a1 c8 e7 
   102cb:	48 89 85 48 ee ff ff 	mov    %rax,-0x11b8(%rbp)
   102d2:	c7 85 44 ed ff ff 00 	movl   $0x0,-0x12bc(%rbp)
   102d9:	00 00 00 
   102dc:	eb 49                	jmp    10327 <func_65+0x2af>
   102de:	c7 85 48 ed ff ff 00 	movl   $0x0,-0x12b8(%rbp)
   102e5:	00 00 00 
   102e8:	eb 2d                	jmp    10317 <func_65+0x29f>
   102ea:	8b 85 48 ed ff ff    	mov    -0x12b8(%rbp),%eax
   102f0:	48 63 d0             	movslq %eax,%rdx
   102f3:	8b 85 44 ed ff ff    	mov    -0x12bc(%rbp),%eax
   102f9:	48 98                	cltq   
   102fb:	48 01 d0             	add    %rdx,%rax
   102fe:	48 bb d5 34 c2 de 1d 	movabs $0x2f2301ddec234d5,%rbx
   10305:	30 f2 02 
   10308:	48 89 9c c5 60 ef ff 	mov    %rbx,-0x10a0(%rbp,%rax,8)
   1030f:	ff 
   10310:	83 85 48 ed ff ff 01 	addl   $0x1,-0x12b8(%rbp)
   10317:	83 bd 48 ed ff ff 00 	cmpl   $0x0,-0x12b8(%rbp)
   1031e:	7e ca                	jle    102ea <func_65+0x272>
   10320:	83 85 44 ed ff ff 01 	addl   $0x1,-0x12bc(%rbp)
   10327:	83 bd 44 ed ff ff 01 	cmpl   $0x1,-0x12bc(%rbp)
   1032e:	7e ae                	jle    102de <func_65+0x266>
   10330:	8b 05 ee dc 00 00    	mov    0xdcee(%rip),%eax        # 1e024 <g_2>
   10336:	85 c0                	test   %eax,%eax
   10338:	75 09                	jne    10343 <func_65+0x2cb>
   1033a:	83 bd 2c ed ff ff 00 	cmpl   $0x0,-0x12d4(%rbp)
   10341:	74 07                	je     1034a <func_65+0x2d2>
   10343:	b8 01 00 00 00       	mov    $0x1,%eax
   10348:	eb 05                	jmp    1034f <func_65+0x2d7>
   1034a:	b8 00 00 00 00       	mov    $0x0,%eax
   1034f:	41 89 c4             	mov    %eax,%r12d
   10352:	8b 9d e8 ec ff ff    	mov    -0x1318(%rbp),%ebx
   10358:	48 8b 05 e1 16 01 00 	mov    0x116e1(%rip),%rax        # 21a40 <g_132>
   1035f:	8b 00                	mov    (%rax),%eax
   10361:	89 c6                	mov    %eax,%esi
   10363:	48 8b 85 f0 ec ff ff 	mov    -0x1310(%rbp),%rax
   1036a:	8b 10                	mov    (%rax),%edx
   1036c:	83 bd 2c ed ff ff 00 	cmpl   $0x0,-0x12d4(%rbp)
   10373:	0f 9e c0             	setle  %al
   10376:	0f b6 c8             	movzbl %al,%ecx
   10379:	8b 05 09 dd 00 00    	mov    0xdd09(%rip),%eax        # 1e088 <g_90>
   1037f:	39 c1                	cmp    %eax,%ecx
   10381:	0f 9c c0             	setl   %al
   10384:	0f b6 c8             	movzbl %al,%ecx
   10387:	8b 05 fb 2f 01 00    	mov    0x12ffb(%rip),%eax        # 23388 <g_404>
   1038d:	c1 e0 02             	shl    $0x2,%eax
   10390:	c1 f8 02             	sar    $0x2,%eax
   10393:	21 c1                	and    %eax,%ecx
   10395:	48 8d 05 a4 16 01 00 	lea    0x116a4(%rip),%rax        # 21a40 <g_132>
   1039c:	48 8b 00             	mov    (%rax),%rax
   1039f:	8b 00                	mov    (%rax),%eax
   103a1:	09 c8                	or     %ecx,%eax
   103a3:	89 85 14 ed ff ff    	mov    %eax,-0x12ec(%rbp)
   103a9:	8b 85 14 ed ff ff    	mov    -0x12ec(%rbp),%eax
   103af:	83 f8 06             	cmp    $0x6,%eax
   103b2:	0f 96 c0             	setbe  %al
   103b5:	0f b6 c0             	movzbl %al,%eax
   103b8:	39 c2                	cmp    %eax,%edx
   103ba:	0f 9f c0             	setg   %al
   103bd:	0f b6 c0             	movzbl %al,%eax
   103c0:	89 c7                	mov    %eax,%edi
   103c2:	e8 36 8b ff ff       	callq  8efd <safe_mod_func_uint32_t_u_u>
   103c7:	0f b6 d0             	movzbl %al,%edx
   103ca:	8b 05 b8 2f 01 00    	mov    0x12fb8(%rip),%eax        # 23388 <g_404>
   103d0:	c1 e0 02             	shl    $0x2,%eax
   103d3:	c1 f8 02             	sar    $0x2,%eax
   103d6:	0f b6 c0             	movzbl %al,%eax
   103d9:	89 d6                	mov    %edx,%esi
   103db:	89 c7                	mov    %eax,%edi
   103dd:	e8 b1 87 ff ff       	callq  8b93 <safe_mul_func_uint8_t_u_u>
   103e2:	be 03 00 00 00       	mov    $0x3,%esi
   103e7:	bf ae 88 ff ff       	mov    $0xffff88ae,%edi
   103ec:	e8 c2 7f ff ff       	callq  83b3 <safe_add_func_int16_t_s_s>
   103f1:	48 8b 95 20 ee ff ff 	mov    -0x11e0(%rbp),%rdx
   103f8:	0f b7 12             	movzwl (%rdx),%edx
   103fb:	09 c2                	or     %eax,%edx
   103fd:	48 8b 85 20 ee ff ff 	mov    -0x11e0(%rbp),%rax
   10404:	66 89 10             	mov    %dx,(%rax)
   10407:	48 8b 85 20 ee ff ff 	mov    -0x11e0(%rbp),%rax
   1040e:	0f b7 00             	movzwl (%rax),%eax
   10411:	98                   	cwtl   
   10412:	89 de                	mov    %ebx,%esi
   10414:	89 c7                	mov    %eax,%edi
   10416:	e8 77 80 ff ff       	callq  8492 <safe_lshift_func_int16_t_s_s>
   1041b:	0f bf d0             	movswl %ax,%edx
   1041e:	48 8b 85 a8 ed ff ff 	mov    -0x1258(%rbp),%rax
   10425:	48 8b 8d a0 ed ff ff 	mov    -0x1260(%rbp),%rcx
   1042c:	48 89 08             	mov    %rcx,(%rax)
   1042f:	48 8b 00             	mov    (%rax),%rax
   10432:	48 39 85 20 ee ff ff 	cmp    %rax,-0x11e0(%rbp)
   10439:	0f 94 c0             	sete   %al
   1043c:	0f b6 c0             	movzbl %al,%eax
   1043f:	89 d6                	mov    %edx,%esi
   10441:	89 c7                	mov    %eax,%edi
   10443:	e8 b5 8a ff ff       	callq  8efd <safe_mod_func_uint32_t_u_u>
   10448:	41 39 c4             	cmp    %eax,%r12d
   1044b:	0f 96 c0             	setbe  %al
   1044e:	0f b6 d0             	movzbl %al,%edx
   10451:	48 8b 85 18 ee ff ff 	mov    -0x11e8(%rbp),%rax
   10458:	89 10                	mov    %edx,(%rax)
   1045a:	ba 00 00 00 00       	mov    $0x0,%edx
   1045f:	48 8b 85 f8 ed ff ff 	mov    -0x1208(%rbp),%rax
   10466:	8b 00                	mov    (%rax),%eax
   10468:	09 c2                	or     %eax,%edx
   1046a:	48 8b 85 f8 ed ff ff 	mov    -0x1208(%rbp),%rax
   10471:	89 10                	mov    %edx,(%rax)
   10473:	c7 05 53 dc 00 00 0b 	movl   $0xb,0xdc53(%rip)        # 1e0d0 <g_216>
   1047a:	00 00 00 
   1047d:	90                   	nop
   1047e:	8b 05 4c dc 00 00    	mov    0xdc4c(%rip),%eax        # 1e0d0 <g_216>
   10484:	83 f8 09             	cmp    $0x9,%eax
   10487:	0f 86 f4 2d 00 00    	jbe    13281 <func_65+0x3209>
   1048d:	c6 85 09 ed ff ff 2b 	movb   $0x2b,-0x12f7(%rbp)
   10494:	48 8d 05 71 20 01 00 	lea    0x12071(%rip),%rax        # 2250c <g_11>
   1049b:	48 89 85 10 f1 ff ff 	mov    %rax,-0xef0(%rbp)
   104a2:	48 8d 05 db db 00 00 	lea    0xdbdb(%rip),%rax        # 1e084 <g_51>
   104a9:	48 89 85 18 f1 ff ff 	mov    %rax,-0xee8(%rbp)
   104b0:	48 8d 05 55 20 01 00 	lea    0x12055(%rip),%rax        # 2250c <g_11>
   104b7:	48 89 85 20 f1 ff ff 	mov    %rax,-0xee0(%rbp)
   104be:	48 8d 05 5f db 00 00 	lea    0xdb5f(%rip),%rax        # 1e024 <g_2>
   104c5:	48 89 85 28 f1 ff ff 	mov    %rax,-0xed8(%rbp)
   104cc:	48 8d 05 bd dc 00 00 	lea    0xdcbd(%rip),%rax        # 1e190 <g_508>
   104d3:	48 89 85 30 f1 ff ff 	mov    %rax,-0xed0(%rbp)
   104da:	48 8d 05 bf db 00 00 	lea    0xdbbf(%rip),%rax        # 1e0a0 <g_115>
   104e1:	48 89 85 38 f1 ff ff 	mov    %rax,-0xec8(%rbp)
   104e8:	48 8d 05 e9 db 00 00 	lea    0xdbe9(%rip),%rax        # 1e0d8 <g_221>
   104ef:	48 89 85 40 f1 ff ff 	mov    %rax,-0xec0(%rbp)
   104f6:	48 8d 05 7b db 00 00 	lea    0xdb7b(%rip),%rax        # 1e078 <g_6>
   104fd:	48 89 85 48 f1 ff ff 	mov    %rax,-0xeb8(%rbp)
   10504:	48 8d 05 cd db 00 00 	lea    0xdbcd(%rip),%rax        # 1e0d8 <g_221>
   1050b:	48 89 85 50 f1 ff ff 	mov    %rax,-0xeb0(%rbp)
   10512:	48 8d 05 0b db 00 00 	lea    0xdb0b(%rip),%rax        # 1e024 <g_2>
   10519:	48 89 85 58 f1 ff ff 	mov    %rax,-0xea8(%rbp)
   10520:	48 8d 05 69 dc 00 00 	lea    0xdc69(%rip),%rax        # 1e190 <g_508>
   10527:	48 89 85 60 f1 ff ff 	mov    %rax,-0xea0(%rbp)
   1052e:	48 8d 05 6b db 00 00 	lea    0xdb6b(%rip),%rax        # 1e0a0 <g_115>
   10535:	48 89 85 68 f1 ff ff 	mov    %rax,-0xe98(%rbp)
   1053c:	48 c7 85 70 f1 ff ff 	movq   $0x0,-0xe90(%rbp)
   10543:	00 00 00 00 
   10547:	48 8d 05 42 dc 00 00 	lea    0xdc42(%rip),%rax        # 1e190 <g_508>
   1054e:	48 89 85 78 f1 ff ff 	mov    %rax,-0xe88(%rbp)
   10555:	48 8d 05 c8 da 00 00 	lea    0xdac8(%rip),%rax        # 1e024 <g_2>
   1055c:	48 89 85 80 f1 ff ff 	mov    %rax,-0xe80(%rbp)
   10563:	48 c7 85 88 f1 ff ff 	movq   $0x0,-0xe78(%rbp)
   1056a:	00 00 00 00 
   1056e:	48 8d 05 af da 00 00 	lea    0xdaaf(%rip),%rax        # 1e024 <g_2>
   10575:	48 89 85 90 f1 ff ff 	mov    %rax,-0xe70(%rbp)
   1057c:	48 8d 05 fd da 00 00 	lea    0xdafd(%rip),%rax        # 1e080 <g_14>
   10583:	48 89 85 98 f1 ff ff 	mov    %rax,-0xe68(%rbp)
   1058a:	48 c7 85 a0 f1 ff ff 	movq   $0x0,-0xe60(%rbp)
   10591:	00 00 00 00 
   10595:	48 8d 05 44 db 00 00 	lea    0xdb44(%rip),%rax        # 1e0e0 <g_225>
   1059c:	48 89 85 a8 f1 ff ff 	mov    %rax,-0xe58(%rbp)
   105a3:	48 8d 05 0a db 00 00 	lea    0xdb0a(%rip),%rax        # 1e0b4 <g_115+0x14>
   105aa:	48 89 85 b0 f1 ff ff 	mov    %rax,-0xe50(%rbp)
   105b1:	48 8d 05 54 1f 01 00 	lea    0x11f54(%rip),%rax        # 2250c <g_11>
   105b8:	48 89 85 b8 f1 ff ff 	mov    %rax,-0xe48(%rbp)
   105bf:	48 c7 85 c0 f1 ff ff 	movq   $0x0,-0xe40(%rbp)
   105c6:	00 00 00 00 
   105ca:	48 8d 05 bf db 00 00 	lea    0xdbbf(%rip),%rax        # 1e190 <g_508>
   105d1:	48 89 85 c8 f1 ff ff 	mov    %rax,-0xe38(%rbp)
   105d8:	48 c7 85 d0 f1 ff ff 	movq   $0x0,-0xe30(%rbp)
   105df:	00 00 00 00 
   105e3:	48 8d 05 a6 db 00 00 	lea    0xdba6(%rip),%rax        # 1e190 <g_508>
   105ea:	48 89 85 d8 f1 ff ff 	mov    %rax,-0xe28(%rbp)
   105f1:	48 8d 05 a8 da 00 00 	lea    0xdaa8(%rip),%rax        # 1e0a0 <g_115>
   105f8:	48 89 85 e0 f1 ff ff 	mov    %rax,-0xe20(%rbp)
   105ff:	48 8d 85 14 ed ff ff 	lea    -0x12ec(%rbp),%rax
   10606:	48 89 85 e8 f1 ff ff 	mov    %rax,-0xe18(%rbp)
   1060d:	48 c7 85 f0 f1 ff ff 	movq   $0x0,-0xe10(%rbp)
   10614:	00 00 00 00 
   10618:	48 8d 05 ed 1e 01 00 	lea    0x11eed(%rip),%rax        # 2250c <g_11>
   1061f:	48 89 85 f8 f1 ff ff 	mov    %rax,-0xe08(%rbp)
   10626:	48 8d 05 ab da 00 00 	lea    0xdaab(%rip),%rax        # 1e0d8 <g_221>
   1062d:	48 89 85 00 f2 ff ff 	mov    %rax,-0xe00(%rbp)
   10634:	48 8d 05 65 da 00 00 	lea    0xda65(%rip),%rax        # 1e0a0 <g_115>
   1063b:	48 89 85 08 f2 ff ff 	mov    %rax,-0xdf8(%rbp)
   10642:	48 8d 05 c3 1e 01 00 	lea    0x11ec3(%rip),%rax        # 2250c <g_11>
   10649:	48 89 85 10 f2 ff ff 	mov    %rax,-0xdf0(%rbp)
   10650:	48 c7 85 18 f2 ff ff 	movq   $0x0,-0xde8(%rbp)
   10657:	00 00 00 00 
   1065b:	48 8d 05 22 da 00 00 	lea    0xda22(%rip),%rax        # 1e084 <g_51>
   10662:	48 89 85 20 f2 ff ff 	mov    %rax,-0xde0(%rbp)
   10669:	48 c7 85 28 f2 ff ff 	movq   $0x0,-0xdd8(%rbp)
   10670:	00 00 00 00 
   10674:	48 8d 05 5d da 00 00 	lea    0xda5d(%rip),%rax        # 1e0d8 <g_221>
   1067b:	48 89 85 30 f2 ff ff 	mov    %rax,-0xdd0(%rbp)
   10682:	48 c7 85 38 f2 ff ff 	movq   $0x0,-0xdc8(%rbp)
   10689:	00 00 00 00 
   1068d:	48 8d 05 f4 d9 00 00 	lea    0xd9f4(%rip),%rax        # 1e088 <g_90>
   10694:	48 89 85 40 f2 ff ff 	mov    %rax,-0xdc0(%rbp)
   1069b:	48 8d 05 ee da 00 00 	lea    0xdaee(%rip),%rax        # 1e190 <g_508>
   106a2:	48 89 85 48 f2 ff ff 	mov    %rax,-0xdb8(%rbp)
   106a9:	48 8d 05 28 da 00 00 	lea    0xda28(%rip),%rax        # 1e0d8 <g_221>
   106b0:	48 89 85 50 f2 ff ff 	mov    %rax,-0xdb0(%rbp)
   106b7:	48 8d 05 c6 d9 00 00 	lea    0xd9c6(%rip),%rax        # 1e084 <g_51>
   106be:	48 89 85 58 f2 ff ff 	mov    %rax,-0xda8(%rbp)
   106c5:	48 8d 85 14 ed ff ff 	lea    -0x12ec(%rbp),%rax
   106cc:	48 89 85 60 f2 ff ff 	mov    %rax,-0xda0(%rbp)
   106d3:	48 8d 85 14 ed ff ff 	lea    -0x12ec(%rbp),%rax
   106da:	48 89 85 68 f2 ff ff 	mov    %rax,-0xd98(%rbp)
   106e1:	48 8d 05 98 d9 00 00 	lea    0xd998(%rip),%rax        # 1e080 <g_14>
   106e8:	48 89 85 70 f2 ff ff 	mov    %rax,-0xd90(%rbp)
   106ef:	48 8d 05 92 d9 00 00 	lea    0xd992(%rip),%rax        # 1e088 <g_90>
   106f6:	48 89 85 78 f2 ff ff 	mov    %rax,-0xd88(%rbp)
   106fd:	48 8d 05 20 d9 00 00 	lea    0xd920(%rip),%rax        # 1e024 <g_2>
   10704:	48 89 85 80 f2 ff ff 	mov    %rax,-0xd80(%rbp)
   1070b:	48 8d 05 76 d9 00 00 	lea    0xd976(%rip),%rax        # 1e088 <g_90>
   10712:	48 89 85 88 f2 ff ff 	mov    %rax,-0xd78(%rbp)
   10719:	48 c7 85 90 f2 ff ff 	movq   $0x0,-0xd70(%rbp)
   10720:	00 00 00 00 
   10724:	48 8d 05 4d d9 00 00 	lea    0xd94d(%rip),%rax        # 1e078 <g_6>
   1072b:	48 89 85 98 f2 ff ff 	mov    %rax,-0xd68(%rbp)
   10732:	48 8d 05 4f d9 00 00 	lea    0xd94f(%rip),%rax        # 1e088 <g_90>
   10739:	48 89 85 a0 f2 ff ff 	mov    %rax,-0xd60(%rbp)
   10740:	48 8d 05 dd d8 00 00 	lea    0xd8dd(%rip),%rax        # 1e024 <g_2>
   10747:	48 89 85 a8 f2 ff ff 	mov    %rax,-0xd58(%rbp)
   1074e:	48 8d 05 4b d9 00 00 	lea    0xd94b(%rip),%rax        # 1e0a0 <g_115>
   10755:	48 89 85 b0 f2 ff ff 	mov    %rax,-0xd50(%rbp)
   1075c:	48 8d 05 75 d9 00 00 	lea    0xd975(%rip),%rax        # 1e0d8 <g_221>
   10763:	48 89 85 b8 f2 ff ff 	mov    %rax,-0xd48(%rbp)
   1076a:	48 8d 05 6f d9 00 00 	lea    0xd96f(%rip),%rax        # 1e0e0 <g_225>
   10771:	48 89 85 c0 f2 ff ff 	mov    %rax,-0xd40(%rbp)
   10778:	48 8d 05 05 d9 00 00 	lea    0xd905(%rip),%rax        # 1e084 <g_51>
   1077f:	48 89 85 c8 f2 ff ff 	mov    %rax,-0xd38(%rbp)
   10786:	48 8d 05 7f 1d 01 00 	lea    0x11d7f(%rip),%rax        # 2250c <g_11>
   1078d:	48 89 85 d0 f2 ff ff 	mov    %rax,-0xd30(%rbp)
   10794:	48 c7 85 d8 f2 ff ff 	movq   $0x0,-0xd28(%rbp)
   1079b:	00 00 00 00 
   1079f:	48 c7 85 e0 f2 ff ff 	movq   $0x0,-0xd20(%rbp)
   107a6:	00 00 00 00 
   107aa:	48 8d 05 c7 d8 00 00 	lea    0xd8c7(%rip),%rax        # 1e078 <g_6>
   107b1:	48 89 85 e8 f2 ff ff 	mov    %rax,-0xd18(%rbp)
   107b8:	48 8d 05 d1 d9 00 00 	lea    0xd9d1(%rip),%rax        # 1e190 <g_508>
   107bf:	48 89 85 f0 f2 ff ff 	mov    %rax,-0xd10(%rbp)
   107c6:	48 8d 05 b7 d8 00 00 	lea    0xd8b7(%rip),%rax        # 1e084 <g_51>
   107cd:	48 89 85 f8 f2 ff ff 	mov    %rax,-0xd08(%rbp)
   107d4:	48 8d 05 05 d9 00 00 	lea    0xd905(%rip),%rax        # 1e0e0 <g_225>
   107db:	48 89 85 00 f3 ff ff 	mov    %rax,-0xd00(%rbp)
   107e2:	48 8d 05 9f d8 00 00 	lea    0xd89f(%rip),%rax        # 1e088 <g_90>
   107e9:	48 89 85 08 f3 ff ff 	mov    %rax,-0xcf8(%rbp)
   107f0:	48 8d 05 8d d8 00 00 	lea    0xd88d(%rip),%rax        # 1e084 <g_51>
   107f7:	48 89 85 10 f3 ff ff 	mov    %rax,-0xcf0(%rbp)
   107fe:	48 8d 05 83 d8 00 00 	lea    0xd883(%rip),%rax        # 1e088 <g_90>
   10805:	48 89 85 18 f3 ff ff 	mov    %rax,-0xce8(%rbp)
   1080c:	48 8d 05 75 d8 00 00 	lea    0xd875(%rip),%rax        # 1e088 <g_90>
   10813:	48 89 85 20 f3 ff ff 	mov    %rax,-0xce0(%rbp)
   1081a:	48 8d 05 63 d8 00 00 	lea    0xd863(%rip),%rax        # 1e084 <g_51>
   10821:	48 89 85 28 f3 ff ff 	mov    %rax,-0xcd8(%rbp)
   10828:	48 8d 05 f5 d7 00 00 	lea    0xd7f5(%rip),%rax        # 1e024 <g_2>
   1082f:	48 89 85 30 f3 ff ff 	mov    %rax,-0xcd0(%rbp)
   10836:	48 8d 85 14 ed ff ff 	lea    -0x12ec(%rbp),%rax
   1083d:	48 89 85 38 f3 ff ff 	mov    %rax,-0xcc8(%rbp)
   10844:	48 8d 05 3d d8 00 00 	lea    0xd83d(%rip),%rax        # 1e088 <g_90>
   1084b:	48 89 85 40 f3 ff ff 	mov    %rax,-0xcc0(%rbp)
   10852:	48 8d 05 47 d8 00 00 	lea    0xd847(%rip),%rax        # 1e0a0 <g_115>
   10859:	48 89 85 48 f3 ff ff 	mov    %rax,-0xcb8(%rbp)
   10860:	48 8d 05 11 d8 00 00 	lea    0xd811(%rip),%rax        # 1e078 <g_6>
   10867:	48 89 85 50 f3 ff ff 	mov    %rax,-0xcb0(%rbp)
   1086e:	48 8d 05 97 1c 01 00 	lea    0x11c97(%rip),%rax        # 2250c <g_11>
   10875:	48 89 85 58 f3 ff ff 	mov    %rax,-0xca8(%rbp)
   1087c:	48 8d 05 5d d8 00 00 	lea    0xd85d(%rip),%rax        # 1e0e0 <g_225>
   10883:	48 89 85 60 f3 ff ff 	mov    %rax,-0xca0(%rbp)
   1088a:	48 8d 05 f3 d7 00 00 	lea    0xd7f3(%rip),%rax        # 1e084 <g_51>
   10891:	48 89 85 68 f3 ff ff 	mov    %rax,-0xc98(%rbp)
   10898:	48 8d 05 01 d8 00 00 	lea    0xd801(%rip),%rax        # 1e0a0 <g_115>
   1089f:	48 89 85 70 f3 ff ff 	mov    %rax,-0xc90(%rbp)
   108a6:	48 8d 05 d7 d7 00 00 	lea    0xd7d7(%rip),%rax        # 1e084 <g_51>
   108ad:	48 89 85 78 f3 ff ff 	mov    %rax,-0xc88(%rbp)
   108b4:	48 8d 05 e5 d7 00 00 	lea    0xd7e5(%rip),%rax        # 1e0a0 <g_115>
   108bb:	48 89 85 80 f3 ff ff 	mov    %rax,-0xc80(%rbp)
   108c2:	48 8d 05 bb d7 00 00 	lea    0xd7bb(%rip),%rax        # 1e084 <g_51>
   108c9:	48 89 85 88 f3 ff ff 	mov    %rax,-0xc78(%rbp)
   108d0:	48 8d 05 09 d8 00 00 	lea    0xd809(%rip),%rax        # 1e0e0 <g_225>
   108d7:	48 89 85 90 f3 ff ff 	mov    %rax,-0xc70(%rbp)
   108de:	48 8d 05 27 1c 01 00 	lea    0x11c27(%rip),%rax        # 2250c <g_11>
   108e5:	48 89 85 98 f3 ff ff 	mov    %rax,-0xc68(%rbp)
   108ec:	48 8d 05 e5 d7 00 00 	lea    0xd7e5(%rip),%rax        # 1e0d8 <g_221>
   108f3:	48 89 85 a0 f3 ff ff 	mov    %rax,-0xc60(%rbp)
   108fa:	48 8d 05 9f d7 00 00 	lea    0xd79f(%rip),%rax        # 1e0a0 <g_115>
   10901:	48 89 85 a8 f3 ff ff 	mov    %rax,-0xc58(%rbp)
   10908:	48 8d 05 71 d7 00 00 	lea    0xd771(%rip),%rax        # 1e080 <g_14>
   1090f:	48 89 85 b0 f3 ff ff 	mov    %rax,-0xc50(%rbp)
   10916:	48 8d 85 14 ed ff ff 	lea    -0x12ec(%rbp),%rax
   1091d:	48 89 85 b8 f3 ff ff 	mov    %rax,-0xc48(%rbp)
   10924:	48 8d 05 65 d8 00 00 	lea    0xd865(%rip),%rax        # 1e190 <g_508>
   1092b:	48 89 85 c0 f3 ff ff 	mov    %rax,-0xc40(%rbp)
   10932:	48 8d 05 4b d7 00 00 	lea    0xd74b(%rip),%rax        # 1e084 <g_51>
   10939:	48 89 85 c8 f3 ff ff 	mov    %rax,-0xc38(%rbp)
   10940:	48 8d 05 91 d7 00 00 	lea    0xd791(%rip),%rax        # 1e0d8 <g_221>
   10947:	48 89 85 d0 f3 ff ff 	mov    %rax,-0xc30(%rbp)
   1094e:	48 8d 05 33 d7 00 00 	lea    0xd733(%rip),%rax        # 1e088 <g_90>
   10955:	48 89 85 d8 f3 ff ff 	mov    %rax,-0xc28(%rbp)
   1095c:	48 8d 05 2d d8 00 00 	lea    0xd82d(%rip),%rax        # 1e190 <g_508>
   10963:	48 89 85 e0 f3 ff ff 	mov    %rax,-0xc20(%rbp)
   1096a:	48 8d 05 17 d7 00 00 	lea    0xd717(%rip),%rax        # 1e088 <g_90>
   10971:	48 89 85 e8 f3 ff ff 	mov    %rax,-0xc18(%rbp)
   10978:	48 8d 05 a5 d6 00 00 	lea    0xd6a5(%rip),%rax        # 1e024 <g_2>
   1097f:	48 89 85 f0 f3 ff ff 	mov    %rax,-0xc10(%rbp)
   10986:	48 8d 05 f7 d6 00 00 	lea    0xd6f7(%rip),%rax        # 1e084 <g_51>
   1098d:	48 89 85 f8 f3 ff ff 	mov    %rax,-0xc08(%rbp)
   10994:	48 8d 05 e9 d6 00 00 	lea    0xd6e9(%rip),%rax        # 1e084 <g_51>
   1099b:	48 89 85 00 f4 ff ff 	mov    %rax,-0xc00(%rbp)
   109a2:	48 8d 05 cf d6 00 00 	lea    0xd6cf(%rip),%rax        # 1e078 <g_6>
   109a9:	48 89 85 08 f4 ff ff 	mov    %rax,-0xbf8(%rbp)
   109b0:	48 c7 85 10 f4 ff ff 	movq   $0x0,-0xbf0(%rbp)
   109b7:	00 00 00 00 
   109bb:	48 c7 85 18 f4 ff ff 	movq   $0x0,-0xbe8(%rbp)
   109c2:	00 00 00 00 
   109c6:	48 8d 05 57 d6 00 00 	lea    0xd657(%rip),%rax        # 1e024 <g_2>
   109cd:	48 89 85 20 f4 ff ff 	mov    %rax,-0xbe0(%rbp)
   109d4:	48 8d 05 a9 d6 00 00 	lea    0xd6a9(%rip),%rax        # 1e084 <g_51>
   109db:	48 89 85 28 f4 ff ff 	mov    %rax,-0xbd8(%rbp)
   109e2:	48 8d 05 f7 d6 00 00 	lea    0xd6f7(%rip),%rax        # 1e0e0 <g_225>
   109e9:	48 89 85 30 f4 ff ff 	mov    %rax,-0xbd0(%rbp)
   109f0:	48 8d 05 e1 d6 00 00 	lea    0xd6e1(%rip),%rax        # 1e0d8 <g_221>
   109f7:	48 89 85 38 f4 ff ff 	mov    %rax,-0xbc8(%rbp)
   109fe:	48 8d 85 14 ed ff ff 	lea    -0x12ec(%rbp),%rax
   10a05:	48 89 85 40 f4 ff ff 	mov    %rax,-0xbc0(%rbp)
   10a0c:	48 8d 05 11 d6 00 00 	lea    0xd611(%rip),%rax        # 1e024 <g_2>
   10a13:	48 89 85 48 f4 ff ff 	mov    %rax,-0xbb8(%rbp)
   10a1a:	48 c7 85 50 f4 ff ff 	movq   $0x0,-0xbb0(%rbp)
   10a21:	00 00 00 00 
   10a25:	48 8d 05 4c d6 00 00 	lea    0xd64c(%rip),%rax        # 1e078 <g_6>
   10a2c:	48 89 85 58 f4 ff ff 	mov    %rax,-0xba8(%rbp)
   10a33:	48 8d 05 66 d6 00 00 	lea    0xd666(%rip),%rax        # 1e0a0 <g_115>
   10a3a:	48 89 85 60 f4 ff ff 	mov    %rax,-0xba0(%rbp)
   10a41:	48 8d 05 40 d6 00 00 	lea    0xd640(%rip),%rax        # 1e088 <g_90>
   10a48:	48 89 85 68 f4 ff ff 	mov    %rax,-0xb98(%rbp)
   10a4f:	48 8d 05 b6 1a 01 00 	lea    0x11ab6(%rip),%rax        # 2250c <g_11>
   10a56:	48 89 85 70 f4 ff ff 	mov    %rax,-0xb90(%rbp)
   10a5d:	48 8d 05 24 d6 00 00 	lea    0xd624(%rip),%rax        # 1e088 <g_90>
   10a64:	48 89 85 78 f4 ff ff 	mov    %rax,-0xb88(%rbp)
   10a6b:	48 8d 05 16 d6 00 00 	lea    0xd616(%rip),%rax        # 1e088 <g_90>
   10a72:	48 89 85 80 f4 ff ff 	mov    %rax,-0xb80(%rbp)
   10a79:	48 8d 85 14 ed ff ff 	lea    -0x12ec(%rbp),%rax
   10a80:	48 89 85 88 f4 ff ff 	mov    %rax,-0xb78(%rbp)
   10a87:	48 8d 85 14 ed ff ff 	lea    -0x12ec(%rbp),%rax
   10a8e:	48 89 85 90 f4 ff ff 	mov    %rax,-0xb70(%rbp)
   10a95:	48 8d 05 e8 d5 00 00 	lea    0xd5e8(%rip),%rax        # 1e084 <g_51>
   10a9c:	48 89 85 98 f4 ff ff 	mov    %rax,-0xb68(%rbp)
   10aa3:	48 8d 05 7a d5 00 00 	lea    0xd57a(%rip),%rax        # 1e024 <g_2>
   10aaa:	48 89 85 a0 f4 ff ff 	mov    %rax,-0xb60(%rbp)
   10ab1:	48 8d 05 d8 d6 00 00 	lea    0xd6d8(%rip),%rax        # 1e190 <g_508>
   10ab8:	48 89 85 a8 f4 ff ff 	mov    %rax,-0xb58(%rbp)
   10abf:	48 8d 05 5e d5 00 00 	lea    0xd55e(%rip),%rax        # 1e024 <g_2>
   10ac6:	48 89 85 b0 f4 ff ff 	mov    %rax,-0xb50(%rbp)
   10acd:	48 c7 85 b8 f4 ff ff 	movq   $0x0,-0xb48(%rbp)
   10ad4:	00 00 00 00 
   10ad8:	48 8d 05 a9 d5 00 00 	lea    0xd5a9(%rip),%rax        # 1e088 <g_90>
   10adf:	48 89 85 c0 f4 ff ff 	mov    %rax,-0xb40(%rbp)
   10ae6:	48 c7 85 c8 f4 ff ff 	movq   $0x0,-0xb38(%rbp)
   10aed:	00 00 00 00 
   10af1:	48 8d 05 98 d6 00 00 	lea    0xd698(%rip),%rax        # 1e190 <g_508>
   10af8:	48 89 85 d0 f4 ff ff 	mov    %rax,-0xb30(%rbp)
   10aff:	48 c7 85 d8 f4 ff ff 	movq   $0x0,-0xb28(%rbp)
   10b06:	00 00 00 00 
   10b0a:	48 8d 05 13 d5 00 00 	lea    0xd513(%rip),%rax        # 1e024 <g_2>
   10b11:	48 89 85 e0 f4 ff ff 	mov    %rax,-0xb20(%rbp)
   10b18:	48 8d 05 81 d5 00 00 	lea    0xd581(%rip),%rax        # 1e0a0 <g_115>
   10b1f:	48 89 85 e8 f4 ff ff 	mov    %rax,-0xb18(%rbp)
   10b26:	48 8d 05 87 d5 00 00 	lea    0xd587(%rip),%rax        # 1e0b4 <g_115+0x14>
   10b2d:	48 89 85 f0 f4 ff ff 	mov    %rax,-0xb10(%rbp)
   10b34:	48 8d 05 d1 19 01 00 	lea    0x119d1(%rip),%rax        # 2250c <g_11>
   10b3b:	48 89 85 f8 f4 ff ff 	mov    %rax,-0xb08(%rbp)
   10b42:	48 8d 05 57 d5 00 00 	lea    0xd557(%rip),%rax        # 1e0a0 <g_115>
   10b49:	48 89 85 00 f5 ff ff 	mov    %rax,-0xb00(%rbp)
   10b50:	48 8d 85 14 ed ff ff 	lea    -0x12ec(%rbp),%rax
   10b57:	48 89 85 08 f5 ff ff 	mov    %rax,-0xaf8(%rbp)
   10b5e:	48 8d 05 3b d5 00 00 	lea    0xd53b(%rip),%rax        # 1e0a0 <g_115>
   10b65:	48 89 85 10 f5 ff ff 	mov    %rax,-0xaf0(%rbp)
   10b6c:	48 8d 05 1d d6 00 00 	lea    0xd61d(%rip),%rax        # 1e190 <g_508>
   10b73:	48 89 85 18 f5 ff ff 	mov    %rax,-0xae8(%rbp)
   10b7a:	48 8d 05 07 d5 00 00 	lea    0xd507(%rip),%rax        # 1e088 <g_90>
   10b81:	48 89 85 20 f5 ff ff 	mov    %rax,-0xae0(%rbp)
   10b88:	48 8d 05 01 d6 00 00 	lea    0xd601(%rip),%rax        # 1e190 <g_508>
   10b8f:	48 89 85 28 f5 ff ff 	mov    %rax,-0xad8(%rbp)
   10b96:	48 8d 05 eb d4 00 00 	lea    0xd4eb(%rip),%rax        # 1e088 <g_90>
   10b9d:	48 89 85 30 f5 ff ff 	mov    %rax,-0xad0(%rbp)
   10ba4:	48 8d 05 61 19 01 00 	lea    0x11961(%rip),%rax        # 2250c <g_11>
   10bab:	48 89 85 38 f5 ff ff 	mov    %rax,-0xac8(%rbp)
   10bb2:	48 8d 05 1f d5 00 00 	lea    0xd51f(%rip),%rax        # 1e0d8 <g_221>
   10bb9:	48 89 85 40 f5 ff ff 	mov    %rax,-0xac0(%rbp)
   10bc0:	48 8d 05 19 d5 00 00 	lea    0xd519(%rip),%rax        # 1e0e0 <g_225>
   10bc7:	48 89 85 48 f5 ff ff 	mov    %rax,-0xab8(%rbp)
   10bce:	48 c7 85 50 f5 ff ff 	movq   $0x0,-0xab0(%rbp)
   10bd5:	00 00 00 00 
   10bd9:	48 8d 05 a0 d4 00 00 	lea    0xd4a0(%rip),%rax        # 1e080 <g_14>
   10be0:	48 89 85 58 f5 ff ff 	mov    %rax,-0xaa8(%rbp)
   10be7:	48 8d 05 a2 d5 00 00 	lea    0xd5a2(%rip),%rax        # 1e190 <g_508>
   10bee:	48 89 85 60 f5 ff ff 	mov    %rax,-0xaa0(%rbp)
   10bf5:	48 c7 85 68 f5 ff ff 	movq   $0x0,-0xa98(%rbp)
   10bfc:	00 00 00 00 
   10c00:	48 8d 05 d1 d4 00 00 	lea    0xd4d1(%rip),%rax        # 1e0d8 <g_221>
   10c07:	48 89 85 70 f5 ff ff 	mov    %rax,-0xa90(%rbp)
   10c0e:	48 8d 05 7b d5 00 00 	lea    0xd57b(%rip),%rax        # 1e190 <g_508>
   10c15:	48 89 85 78 f5 ff ff 	mov    %rax,-0xa88(%rbp)
   10c1c:	48 8d 05 6d d5 00 00 	lea    0xd56d(%rip),%rax        # 1e190 <g_508>
   10c23:	48 89 85 80 f5 ff ff 	mov    %rax,-0xa80(%rbp)
   10c2a:	48 8d 05 57 d4 00 00 	lea    0xd457(%rip),%rax        # 1e088 <g_90>
   10c31:	48 89 85 88 f5 ff ff 	mov    %rax,-0xa78(%rbp)
   10c38:	48 8d 05 99 d4 00 00 	lea    0xd499(%rip),%rax        # 1e0d8 <g_221>
   10c3f:	48 89 85 90 f5 ff ff 	mov    %rax,-0xa70(%rbp)
   10c46:	48 8d 05 d7 d3 00 00 	lea    0xd3d7(%rip),%rax        # 1e024 <g_2>
   10c4d:	48 89 85 98 f5 ff ff 	mov    %rax,-0xa68(%rbp)
   10c54:	48 8d 05 35 d5 00 00 	lea    0xd535(%rip),%rax        # 1e190 <g_508>
   10c5b:	48 89 85 a0 f5 ff ff 	mov    %rax,-0xa60(%rbp)
   10c62:	48 8d 05 27 d5 00 00 	lea    0xd527(%rip),%rax        # 1e190 <g_508>
   10c69:	48 89 85 a8 f5 ff ff 	mov    %rax,-0xa58(%rbp)
   10c70:	48 c7 85 b0 f5 ff ff 	movq   $0x0,-0xa50(%rbp)
   10c77:	00 00 00 00 
   10c7b:	48 8d 05 06 d4 00 00 	lea    0xd406(%rip),%rax        # 1e088 <g_90>
   10c82:	48 89 85 b8 f5 ff ff 	mov    %rax,-0xa48(%rbp)
   10c89:	48 8d 05 48 d4 00 00 	lea    0xd448(%rip),%rax        # 1e0d8 <g_221>
   10c90:	48 89 85 c0 f5 ff ff 	mov    %rax,-0xa40(%rbp)
   10c97:	48 8d 85 14 ed ff ff 	lea    -0x12ec(%rbp),%rax
   10c9e:	48 89 85 c8 f5 ff ff 	mov    %rax,-0xa38(%rbp)
   10ca5:	48 8d 05 dc d3 00 00 	lea    0xd3dc(%rip),%rax        # 1e088 <g_90>
   10cac:	48 89 85 d0 f5 ff ff 	mov    %rax,-0xa30(%rbp)
   10cb3:	48 8d 05 1e d4 00 00 	lea    0xd41e(%rip),%rax        # 1e0d8 <g_221>
   10cba:	48 89 85 d8 f5 ff ff 	mov    %rax,-0xa28(%rbp)
   10cc1:	48 8d 05 c0 d3 00 00 	lea    0xd3c0(%rip),%rax        # 1e088 <g_90>
   10cc8:	48 89 85 e0 f5 ff ff 	mov    %rax,-0xa20(%rbp)
   10ccf:	48 8d 05 02 d4 00 00 	lea    0xd402(%rip),%rax        # 1e0d8 <g_221>
   10cd6:	48 89 85 e8 f5 ff ff 	mov    %rax,-0xa18(%rbp)
   10cdd:	48 8d 05 bc d3 00 00 	lea    0xd3bc(%rip),%rax        # 1e0a0 <g_115>
   10ce4:	48 89 85 f0 f5 ff ff 	mov    %rax,-0xa10(%rbp)
   10ceb:	48 8d 05 1a 18 01 00 	lea    0x1181a(%rip),%rax        # 2250c <g_11>
   10cf2:	48 89 85 f8 f5 ff ff 	mov    %rax,-0xa08(%rbp)
   10cf9:	48 8d 05 a0 d3 00 00 	lea    0xd3a0(%rip),%rax        # 1e0a0 <g_115>
   10d00:	48 89 85 00 f6 ff ff 	mov    %rax,-0xa00(%rbp)
   10d07:	48 8d 05 76 d3 00 00 	lea    0xd376(%rip),%rax        # 1e084 <g_51>
   10d0e:	48 89 85 08 f6 ff ff 	mov    %rax,-0x9f8(%rbp)
   10d15:	48 8d 05 98 d3 00 00 	lea    0xd398(%rip),%rax        # 1e0b4 <g_115+0x14>
   10d1c:	48 89 85 10 f6 ff ff 	mov    %rax,-0x9f0(%rbp)
   10d23:	48 8d 05 b6 d3 00 00 	lea    0xd3b6(%rip),%rax        # 1e0e0 <g_225>
   10d2a:	48 89 85 18 f6 ff ff 	mov    %rax,-0x9e8(%rbp)
   10d31:	48 8d 05 ec d2 00 00 	lea    0xd2ec(%rip),%rax        # 1e024 <g_2>
   10d38:	48 89 85 20 f6 ff ff 	mov    %rax,-0x9e0(%rbp)
   10d3f:	48 8d 85 14 ed ff ff 	lea    -0x12ec(%rbp),%rax
   10d46:	48 89 85 28 f6 ff ff 	mov    %rax,-0x9d8(%rbp)
   10d4d:	48 8d 05 3c d4 00 00 	lea    0xd43c(%rip),%rax        # 1e190 <g_508>
   10d54:	48 89 85 30 f6 ff ff 	mov    %rax,-0x9d0(%rbp)
   10d5b:	48 8d 05 c2 d2 00 00 	lea    0xd2c2(%rip),%rax        # 1e024 <g_2>
   10d62:	48 89 85 38 f6 ff ff 	mov    %rax,-0x9c8(%rbp)
   10d69:	48 8d 05 18 d3 00 00 	lea    0xd318(%rip),%rax        # 1e088 <g_90>
   10d70:	48 89 85 40 f6 ff ff 	mov    %rax,-0x9c0(%rbp)
   10d77:	48 8d 05 12 d4 00 00 	lea    0xd412(%rip),%rax        # 1e190 <g_508>
   10d7e:	48 89 85 48 f6 ff ff 	mov    %rax,-0x9b8(%rbp)
   10d85:	48 8d 05 98 d2 00 00 	lea    0xd298(%rip),%rax        # 1e024 <g_2>
   10d8c:	48 89 85 50 f6 ff ff 	mov    %rax,-0x9b0(%rbp)
   10d93:	48 8d 05 ee d2 00 00 	lea    0xd2ee(%rip),%rax        # 1e088 <g_90>
   10d9a:	48 89 85 58 f6 ff ff 	mov    %rax,-0x9a8(%rbp)
   10da1:	48 8d 05 7c d2 00 00 	lea    0xd27c(%rip),%rax        # 1e024 <g_2>
   10da8:	48 89 85 60 f6 ff ff 	mov    %rax,-0x9a0(%rbp)
   10daf:	48 c7 85 68 f6 ff ff 	movq   $0x0,-0x998(%rbp)
   10db6:	00 00 00 00 
   10dba:	48 8d 85 14 ed ff ff 	lea    -0x12ec(%rbp),%rax
   10dc1:	48 89 85 70 f6 ff ff 	mov    %rax,-0x990(%rbp)
   10dc8:	48 c7 85 78 f6 ff ff 	movq   $0x0,-0x988(%rbp)
   10dcf:	00 00 00 00 
   10dd3:	48 8d 05 ae d2 00 00 	lea    0xd2ae(%rip),%rax        # 1e088 <g_90>
   10dda:	48 89 85 80 f6 ff ff 	mov    %rax,-0x980(%rbp)
   10de1:	48 8d 05 f8 d2 00 00 	lea    0xd2f8(%rip),%rax        # 1e0e0 <g_225>
   10de8:	48 89 85 88 f6 ff ff 	mov    %rax,-0x978(%rbp)
   10def:	48 8d 05 16 17 01 00 	lea    0x11716(%rip),%rax        # 2250c <g_11>
   10df6:	48 89 85 90 f6 ff ff 	mov    %rax,-0x970(%rbp)
   10dfd:	48 8d 05 d4 d2 00 00 	lea    0xd2d4(%rip),%rax        # 1e0d8 <g_221>
   10e04:	48 89 85 98 f6 ff ff 	mov    %rax,-0x968(%rbp)
   10e0b:	48 8d 05 8e d2 00 00 	lea    0xd28e(%rip),%rax        # 1e0a0 <g_115>
   10e12:	48 89 85 a0 f6 ff ff 	mov    %rax,-0x960(%rbp)
   10e19:	48 8d 05 64 d2 00 00 	lea    0xd264(%rip),%rax        # 1e084 <g_51>
   10e20:	48 89 85 a8 f6 ff ff 	mov    %rax,-0x958(%rbp)
   10e27:	48 c7 85 b0 f6 ff ff 	movq   $0x0,-0x950(%rbp)
   10e2e:	00 00 00 00 
   10e32:	48 8d 05 4b d2 00 00 	lea    0xd24b(%rip),%rax        # 1e084 <g_51>
   10e39:	48 89 85 b8 f6 ff ff 	mov    %rax,-0x948(%rbp)
   10e40:	48 8d 85 14 ed ff ff 	lea    -0x12ec(%rbp),%rax
   10e47:	48 89 85 c0 f6 ff ff 	mov    %rax,-0x940(%rbp)
   10e4e:	48 8d 05 3b d3 00 00 	lea    0xd33b(%rip),%rax        # 1e190 <g_508>
   10e55:	48 89 85 c8 f6 ff ff 	mov    %rax,-0x938(%rbp)
   10e5c:	48 8d 05 7d d2 00 00 	lea    0xd27d(%rip),%rax        # 1e0e0 <g_225>
   10e63:	48 89 85 d0 f6 ff ff 	mov    %rax,-0x930(%rbp)
   10e6a:	48 8d 05 9b 16 01 00 	lea    0x1169b(%rip),%rax        # 2250c <g_11>
   10e71:	48 89 85 d8 f6 ff ff 	mov    %rax,-0x928(%rbp)
   10e78:	48 8d 05 a5 d1 00 00 	lea    0xd1a5(%rip),%rax        # 1e024 <g_2>
   10e7f:	48 89 85 e0 f6 ff ff 	mov    %rax,-0x920(%rbp)
   10e86:	48 c7 85 e8 f6 ff ff 	movq   $0x0,-0x918(%rbp)
   10e8d:	00 00 00 00 
   10e91:	48 c7 85 f0 f6 ff ff 	movq   $0x0,-0x910(%rbp)
   10e98:	00 00 00 00 
   10e9c:	48 8d 85 14 ed ff ff 	lea    -0x12ec(%rbp),%rax
   10ea3:	48 89 85 f8 f6 ff ff 	mov    %rax,-0x908(%rbp)
   10eaa:	48 8d 05 d3 d1 00 00 	lea    0xd1d3(%rip),%rax        # 1e084 <g_51>
   10eb1:	48 89 85 00 f7 ff ff 	mov    %rax,-0x900(%rbp)
   10eb8:	48 c7 85 08 f7 ff ff 	movq   $0x0,-0x8f8(%rbp)
   10ebf:	00 00 00 00 
   10ec3:	48 8d 05 5a d1 00 00 	lea    0xd15a(%rip),%rax        # 1e024 <g_2>
   10eca:	48 89 85 10 f7 ff ff 	mov    %rax,-0x8f0(%rbp)
   10ed1:	48 8d 05 b8 d2 00 00 	lea    0xd2b8(%rip),%rax        # 1e190 <g_508>
   10ed8:	48 89 85 18 f7 ff ff 	mov    %rax,-0x8e8(%rbp)
   10edf:	48 8d 05 aa d2 00 00 	lea    0xd2aa(%rip),%rax        # 1e190 <g_508>
   10ee6:	48 89 85 20 f7 ff ff 	mov    %rax,-0x8e0(%rbp)
   10eed:	48 8d 05 9c d2 00 00 	lea    0xd29c(%rip),%rax        # 1e190 <g_508>
   10ef4:	48 89 85 28 f7 ff ff 	mov    %rax,-0x8d8(%rbp)
   10efb:	48 8d 05 d6 d1 00 00 	lea    0xd1d6(%rip),%rax        # 1e0d8 <g_221>
   10f02:	48 89 85 30 f7 ff ff 	mov    %rax,-0x8d0(%rbp)
   10f09:	48 8d 05 c8 d1 00 00 	lea    0xd1c8(%rip),%rax        # 1e0d8 <g_221>
   10f10:	48 89 85 38 f7 ff ff 	mov    %rax,-0x8c8(%rbp)
   10f17:	48 8d 05 72 d2 00 00 	lea    0xd272(%rip),%rax        # 1e190 <g_508>
   10f1e:	48 89 85 40 f7 ff ff 	mov    %rax,-0x8c0(%rbp)
   10f25:	48 8d 05 4c d1 00 00 	lea    0xd14c(%rip),%rax        # 1e078 <g_6>
   10f2c:	48 89 85 48 f7 ff ff 	mov    %rax,-0x8b8(%rbp)
   10f33:	48 8d 05 46 d1 00 00 	lea    0xd146(%rip),%rax        # 1e080 <g_14>
   10f3a:	48 89 85 50 f7 ff ff 	mov    %rax,-0x8b0(%rbp)
   10f41:	48 8d 05 98 d1 00 00 	lea    0xd198(%rip),%rax        # 1e0e0 <g_225>
   10f48:	48 89 85 58 f7 ff ff 	mov    %rax,-0x8a8(%rbp)
   10f4f:	48 8d 05 82 d1 00 00 	lea    0xd182(%rip),%rax        # 1e0d8 <g_221>
   10f56:	48 89 85 60 f7 ff ff 	mov    %rax,-0x8a0(%rbp)
   10f5d:	48 8d 05 2c d2 00 00 	lea    0xd22c(%rip),%rax        # 1e190 <g_508>
   10f64:	48 89 85 68 f7 ff ff 	mov    %rax,-0x898(%rbp)
   10f6b:	48 c7 85 70 f7 ff ff 	movq   $0x0,-0x890(%rbp)
   10f72:	00 00 00 00 
   10f76:	48 8d 05 13 d2 00 00 	lea    0xd213(%rip),%rax        # 1e190 <g_508>
   10f7d:	48 89 85 78 f7 ff ff 	mov    %rax,-0x888(%rbp)
   10f84:	48 8d 05 f5 d0 00 00 	lea    0xd0f5(%rip),%rax        # 1e080 <g_14>
   10f8b:	48 89 85 80 f7 ff ff 	mov    %rax,-0x880(%rbp)
   10f92:	48 8d 05 eb d0 00 00 	lea    0xd0eb(%rip),%rax        # 1e084 <g_51>
   10f99:	48 89 85 88 f7 ff ff 	mov    %rax,-0x878(%rbp)
   10fa0:	48 8d 05 e1 d0 00 00 	lea    0xd0e1(%rip),%rax        # 1e088 <g_90>
   10fa7:	48 89 85 90 f7 ff ff 	mov    %rax,-0x870(%rbp)
   10fae:	48 8d 05 db d1 00 00 	lea    0xd1db(%rip),%rax        # 1e190 <g_508>
   10fb5:	48 89 85 98 f7 ff ff 	mov    %rax,-0x868(%rbp)
   10fbc:	48 8d 05 1d d1 00 00 	lea    0xd11d(%rip),%rax        # 1e0e0 <g_225>
   10fc3:	48 89 85 a0 f7 ff ff 	mov    %rax,-0x860(%rbp)
   10fca:	48 8d 05 bf d1 00 00 	lea    0xd1bf(%rip),%rax        # 1e190 <g_508>
   10fd1:	48 89 85 a8 f7 ff ff 	mov    %rax,-0x858(%rbp)
   10fd8:	48 8d 05 b1 d1 00 00 	lea    0xd1b1(%rip),%rax        # 1e190 <g_508>
   10fdf:	48 89 85 b0 f7 ff ff 	mov    %rax,-0x850(%rbp)
   10fe6:	48 c7 85 b8 f7 ff ff 	movq   $0x0,-0x848(%rbp)
   10fed:	00 00 00 00 
   10ff1:	48 c7 85 c0 f7 ff ff 	movq   $0x0,-0x840(%rbp)
   10ff8:	00 00 00 00 
   10ffc:	48 c7 85 c8 f7 ff ff 	movq   $0x0,-0x838(%rbp)
   11003:	00 00 00 00 
   11007:	48 8d 85 a8 ed ff ff 	lea    -0x1258(%rbp),%rax
   1100e:	48 89 85 20 f0 ff ff 	mov    %rax,-0xfe0(%rbp)
   11015:	48 8d 85 a8 ed ff ff 	lea    -0x1258(%rbp),%rax
   1101c:	48 89 85 28 f0 ff ff 	mov    %rax,-0xfd8(%rbp)
   11023:	48 8d 85 a8 ed ff ff 	lea    -0x1258(%rbp),%rax
   1102a:	48 89 85 30 f0 ff ff 	mov    %rax,-0xfd0(%rbp)
   11031:	48 8d 85 a8 ed ff ff 	lea    -0x1258(%rbp),%rax
   11038:	48 89 85 38 f0 ff ff 	mov    %rax,-0xfc8(%rbp)
   1103f:	48 8d 85 a8 ed ff ff 	lea    -0x1258(%rbp),%rax
   11046:	48 89 85 40 f0 ff ff 	mov    %rax,-0xfc0(%rbp)
   1104d:	48 8d 85 a8 ed ff ff 	lea    -0x1258(%rbp),%rax
   11054:	48 89 85 48 f0 ff ff 	mov    %rax,-0xfb8(%rbp)
   1105b:	48 8d 85 a8 ed ff ff 	lea    -0x1258(%rbp),%rax
   11062:	48 89 85 50 f0 ff ff 	mov    %rax,-0xfb0(%rbp)
   11069:	48 8d 85 a8 ed ff ff 	lea    -0x1258(%rbp),%rax
   11070:	48 89 85 58 f0 ff ff 	mov    %rax,-0xfa8(%rbp)
   11077:	48 8d 85 b0 ed ff ff 	lea    -0x1250(%rbp),%rax
   1107e:	48 89 85 88 ee ff ff 	mov    %rax,-0x1178(%rbp)
   11085:	c6 45 be 00          	movb   $0x0,-0x42(%rbp)
   11089:	48 b8 34 f6 91 00 6e 	movabs $0xb6a3b96e0091f634,%rax
   11090:	b9 a3 b6 
   11093:	48 89 85 90 ee ff ff 	mov    %rax,-0x1170(%rbp)
   1109a:	c6 85 0a ed ff ff ff 	movb   $0xff,-0x12f6(%rbp)
   110a1:	48 c7 85 c8 ed ff ff 	movq   $0x0,-0x1238(%rbp)
   110a8:	00 00 00 00 
   110ac:	48 8d 85 c8 ed ff ff 	lea    -0x1238(%rbp),%rax
   110b3:	48 89 85 98 ee ff ff 	mov    %rax,-0x1168(%rbp)
   110ba:	48 8d 85 c0 ef ff ff 	lea    -0x1040(%rbp),%rax
   110c1:	48 83 c0 18          	add    $0x18,%rax
   110c5:	48 89 85 a0 ee ff ff 	mov    %rax,-0x1160(%rbp)
   110cc:	c6 85 0c ed ff ff 01 	movb   $0x1,-0x12f4(%rbp)
   110d3:	48 83 bd 00 ee ff ff 	cmpq   $0x0,-0x1200(%rbp)
   110da:	00 
   110db:	0f 95 c0             	setne  %al
   110de:	44 0f b6 e0          	movzbl %al,%r12d
   110e2:	44 0f b7 ad ec ec ff 	movzwl -0x1314(%rbp),%r13d
   110e9:	ff 
   110ea:	8b 05 c0 cf 00 00    	mov    0xcfc0(%rip),%eax        # 1e0b0 <g_115+0x10>
   110f0:	48 63 d8             	movslq %eax,%rbx
   110f3:	66 83 bd ec ec ff ff 	cmpw   $0x0,-0x1314(%rbp)
   110fa:	00 
   110fb:	0f 94 c0             	sete   %al
   110fe:	0f b6 c0             	movzbl %al,%eax
   11101:	89 05 81 cf 00 00    	mov    %eax,0xcf81(%rip)        # 1e088 <g_90>
   11107:	8b 05 7b cf 00 00    	mov    0xcf7b(%rip),%eax        # 1e088 <g_90>
   1110d:	85 c0                	test   %eax,%eax
   1110f:	74 14                	je     11125 <func_65+0x10ad>
   11111:	48 8b 05 40 09 01 00 	mov    0x10940(%rip),%rax        # 21a58 <g_214>
   11118:	8b 00                	mov    (%rax),%eax
   1111a:	85 c0                	test   %eax,%eax
   1111c:	74 07                	je     11125 <func_65+0x10ad>
   1111e:	b8 01 00 00 00       	mov    $0x1,%eax
   11123:	eb 05                	jmp    1112a <func_65+0x10b2>
   11125:	b8 00 00 00 00       	mov    $0x0,%eax
   1112a:	0f b6 c0             	movzbl %al,%eax
   1112d:	be 04 00 00 00       	mov    $0x4,%esi
   11132:	89 c7                	mov    %eax,%edi
   11134:	e8 cc 7a ff ff       	callq  8c05 <safe_lshift_func_uint8_t_u_s>
   11139:	0f b6 c0             	movzbl %al,%eax
   1113c:	8b 15 3e cf 00 00    	mov    0xcf3e(%rip),%edx        # 1e080 <g_14>
   11142:	31 d0                	xor    %edx,%eax
   11144:	89 c2                	mov    %eax,%edx
   11146:	48 8b 85 f8 ec ff ff 	mov    -0x1308(%rbp),%rax
   1114d:	09 d0                	or     %edx,%eax
   1114f:	89 c2                	mov    %eax,%edx
   11151:	48 8b 85 20 ee ff ff 	mov    -0x11e0(%rbp),%rax
   11158:	66 89 10             	mov    %dx,(%rax)
   1115b:	48 8b 85 20 ee ff ff 	mov    -0x11e0(%rbp),%rax
   11162:	0f b7 00             	movzwl (%rax),%eax
   11165:	66 83 f8 01          	cmp    $0x1,%ax
   11169:	0f 95 c0             	setne  %al
   1116c:	0f b6 c0             	movzbl %al,%eax
   1116f:	48 89 de             	mov    %rbx,%rsi
   11172:	48 89 c7             	mov    %rax,%rdi
   11175:	e8 06 7f ff ff       	callq  9080 <safe_mod_func_uint64_t_u_u>
   1117a:	44 31 e8             	xor    %r13d,%eax
   1117d:	48 8b 15 fc 21 01 00 	mov    0x121fc(%rip),%rdx        # 23380 <g_362>
   11184:	89 c6                	mov    %eax,%esi
   11186:	89 d7                	mov    %edx,%edi
   11188:	e8 70 7d ff ff       	callq  8efd <safe_mod_func_uint32_t_u_u>
   1118d:	0f b6 d0             	movzbl %al,%edx
   11190:	0f b6 85 07 ed ff ff 	movzbl -0x12f9(%rbp),%eax
   11197:	84 c0                	test   %al,%al
   11199:	0f 94 c0             	sete   %al
   1119c:	0f b6 c0             	movzbl %al,%eax
   1119f:	89 d6                	mov    %edx,%esi
   111a1:	89 c7                	mov    %eax,%edi
   111a3:	e8 33 7a ff ff       	callq  8bdb <safe_div_func_uint8_t_u_u>
   111a8:	48 8b 85 f8 ed ff ff 	mov    -0x1208(%rbp),%rax
   111af:	8b 00                	mov    (%rax),%eax
   111b1:	89 c2                	mov    %eax,%edx
   111b3:	8b 05 17 cf 00 00    	mov    0xcf17(%rip),%eax        # 1e0d0 <g_216>
   111b9:	39 c2                	cmp    %eax,%edx
   111bb:	0f 97 c0             	seta   %al
   111be:	0f b6 c0             	movzbl %al,%eax
   111c1:	48 c7 c6 ff ff ff ff 	mov    $0xffffffffffffffff,%rsi
   111c8:	48 89 c7             	mov    %rax,%rdi
   111cb:	e8 27 78 ff ff       	callq  89f7 <safe_div_func_int64_t_s_s>
   111d0:	48 83 c8 f9          	or     $0xfffffffffffffff9,%rax
   111d4:	4c 09 e0             	or     %r12,%rax
   111d7:	89 c2                	mov    %eax,%edx
   111d9:	8b 85 14 ed ff ff    	mov    -0x12ec(%rbp),%eax
   111df:	09 d0                	or     %edx,%eax
   111e1:	89 85 14 ed ff ff    	mov    %eax,-0x12ec(%rbp)
   111e7:	c7 05 9f cf 00 00 03 	movl   $0x3,0xcf9f(%rip)        # 1e190 <g_508>
   111ee:	00 00 00 
   111f1:	e9 71 20 00 00       	jmpq   13267 <func_65+0x31ef>
   111f6:	48 b8 a5 61 2a e0 c8 	movabs $0xc19bbcc8e02a61a5,%rax
   111fd:	bc 9b c1 
   11200:	48 89 85 d0 ed ff ff 	mov    %rax,-0x1230(%rbp)
   11207:	c7 85 54 ed ff ff 01 	movl   $0x1,-0x12ac(%rbp)
   1120e:	00 00 00 
   11211:	48 8d 05 b8 ce 00 00 	lea    0xceb8(%rip),%rax        # 1e0d0 <g_216>
   11218:	48 89 85 a8 ee ff ff 	mov    %rax,-0x1158(%rbp)
   1121f:	48 b8 cd d4 c9 ff 01 	movabs $0x5fd28801ffc9d4cd,%rax
   11226:	88 d2 5f 
   11229:	48 89 85 30 ee ff ff 	mov    %rax,-0x11d0(%rbp)
   11230:	48 8d 85 07 ed ff ff 	lea    -0x12f9(%rbp),%rax
   11237:	48 89 85 b0 ee ff ff 	mov    %rax,-0x1150(%rbp)
   1123e:	66 c7 85 0e ed ff ff 	movw   $0xbe1c,-0x12f2(%rbp)
   11245:	1c be 
   11247:	48 8d 05 6a cf 00 00 	lea    0xcf6a(%rip),%rax        # 1e1b8 <g_730>
   1124e:	48 89 85 b8 ee ff ff 	mov    %rax,-0x1148(%rbp)
   11255:	c7 85 4c ed ff ff 00 	movl   $0x0,-0x12b4(%rbp)
   1125c:	00 00 00 
   1125f:	eb 1a                	jmp    1127b <func_65+0x1203>
   11261:	8b 85 4c ed ff ff    	mov    -0x12b4(%rbp),%eax
   11267:	48 98                	cltq   
   11269:	c7 84 85 58 ef ff ff 	movl   $0x7a97ea3a,-0x10a8(%rbp,%rax,4)
   11270:	3a ea 97 7a 
   11274:	83 85 4c ed ff ff 01 	addl   $0x1,-0x12b4(%rbp)
   1127b:	83 bd 4c ed ff ff 00 	cmpl   $0x0,-0x12b4(%rbp)
   11282:	7e dd                	jle    11261 <func_65+0x11e9>
   11284:	48 8b 85 38 f0 ff ff 	mov    -0xfc8(%rbp),%rax
   1128b:	48 89 05 e6 07 01 00 	mov    %rax,0x107e6(%rip)        # 21a78 <g_525>
   11292:	8b 05 f8 ce 00 00    	mov    0xcef8(%rip),%eax        # 1e190 <g_508>
   11298:	83 c0 02             	add    $0x2,%eax
   1129b:	48 98                	cltq   
   1129d:	48 8d 14 85 00 00 00 	lea    0x0(,%rax,4),%rdx
   112a4:	00 
   112a5:	48 8d 05 f4 cd 00 00 	lea    0xcdf4(%rip),%rax        # 1e0a0 <g_115>
   112ac:	8b 14 02             	mov    (%rdx,%rax,1),%edx
   112af:	48 8b 85 f8 ed ff ff 	mov    -0x1208(%rbp),%rax
   112b6:	89 10                	mov    %edx,(%rax)
   112b8:	48 c7 85 f8 ec ff ff 	movq   $0x0,-0x1308(%rbp)
   112bf:	00 00 00 00 
   112c3:	e9 c0 04 00 00       	jmpq   11788 <func_65+0x1710>
   112c8:	48 8d 05 cb cd 00 00 	lea    0xcdcb(%rip),%rax        # 1e09a <g_109>
   112cf:	48 89 85 e8 ed ff ff 	mov    %rax,-0x1218(%rbp)
   112d6:	48 8d 85 e8 ed ff ff 	lea    -0x1218(%rbp),%rax
   112dd:	48 89 85 38 ef ff ff 	mov    %rax,-0x10c8(%rbp)
   112e4:	48 c7 85 40 ef ff ff 	movq   $0x0,-0x10c0(%rbp)
   112eb:	00 00 00 00 
   112ef:	48 c7 85 48 ef ff ff 	movq   $0x0,-0x10b8(%rbp)
   112f6:	00 00 00 00 
   112fa:	48 8d 05 8f cd 00 00 	lea    0xcd8f(%rip),%rax        # 1e090 <g_92>
   11301:	48 89 85 50 ef ff ff 	mov    %rax,-0x10b0(%rbp)
   11308:	c7 85 90 ed ff ff 01 	movl   $0x1,-0x1270(%rbp)
   1130f:	00 00 00 
   11312:	c7 85 94 ed ff ff f7 	movl   $0xfffffff7,-0x126c(%rbp)
   11319:	ff ff ff 
   1131c:	c7 85 f0 ef ff ff f9 	movl   $0x3f1ebdf9,-0x1010(%rbp)
   11323:	bd 1e 3f 
   11326:	c7 85 f4 ef ff ff 08 	movl   $0x8,-0x100c(%rbp)
   1132d:	00 00 00 
   11330:	c7 85 f8 ef ff ff f9 	movl   $0x3f1ebdf9,-0x1008(%rbp)
   11337:	bd 1e 3f 
   1133a:	c7 85 fc ef ff ff 08 	movl   $0x8,-0x1004(%rbp)
   11341:	00 00 00 
   11344:	c7 85 00 f0 ff ff f9 	movl   $0x3f1ebdf9,-0x1000(%rbp)
   1134b:	bd 1e 3f 
   1134e:	c7 85 04 f0 ff ff 08 	movl   $0x8,-0xffc(%rbp)
   11355:	00 00 00 
   11358:	c7 85 08 f0 ff ff f9 	movl   $0x3f1ebdf9,-0xff8(%rbp)
   1135f:	bd 1e 3f 
   11362:	c7 85 0c f0 ff ff 08 	movl   $0x8,-0xff4(%rbp)
   11369:	00 00 00 
   1136c:	c7 85 10 f0 ff ff f9 	movl   $0x3f1ebdf9,-0xff0(%rbp)
   11373:	bd 1e 3f 
   11376:	c7 85 14 f0 ff ff 08 	movl   $0x8,-0xfec(%rbp)
   1137d:	00 00 00 
   11380:	48 b8 2e 2e 2e 2e 2e 	movabs $0x2e2e2e2e2e2e2e2e,%rax
   11387:	2e 2e 2e 
   1138a:	48 89 45 bf          	mov    %rax,-0x41(%rbp)
   1138e:	c6 45 c7 2e          	movb   $0x2e,-0x39(%rbp)
   11392:	c7 85 30 ed ff ff 00 	movl   $0x0,-0x12d0(%rbp)
   11399:	00 00 00 
   1139c:	eb 1e                	jmp    113bc <func_65+0x1344>
   1139e:	8b 85 30 ed ff ff    	mov    -0x12d0(%rbp),%eax
   113a4:	48 98                	cltq   
   113a6:	48 8d 15 af cc 00 00 	lea    0xccaf(%rip),%rdx        # 1e05c <g_5+0x1c>
   113ad:	48 89 94 c5 70 ef ff 	mov    %rdx,-0x1090(%rbp,%rax,8)
   113b4:	ff 
   113b5:	83 85 30 ed ff ff 01 	addl   $0x1,-0x12d0(%rbp)
   113bc:	83 bd 30 ed ff ff 01 	cmpl   $0x1,-0x12d0(%rbp)
   113c3:	7e d9                	jle    1139e <func_65+0x1326>
   113c5:	48 8b 85 f8 ec ff ff 	mov    -0x1308(%rbp),%rax
   113cc:	89 85 e4 ec ff ff    	mov    %eax,-0x131c(%rbp)
   113d2:	0f b7 85 ec ec ff ff 	movzwl -0x1314(%rbp),%eax
   113d9:	0f b6 d8             	movzbl %al,%ebx
   113dc:	48 8b 05 75 06 01 00 	mov    0x10675(%rip),%rax        # 21a58 <g_214>
   113e3:	44 8b 20             	mov    (%rax),%r12d
   113e6:	48 8b 85 f8 ec ff ff 	mov    -0x1308(%rbp),%rax
   113ed:	48 8d 14 85 00 00 00 	lea    0x0(,%rax,4),%rdx
   113f4:	00 
   113f5:	48 8d 05 a4 cc 00 00 	lea    0xcca4(%rip),%rax        # 1e0a0 <g_115>
   113fc:	8b 04 02             	mov    (%rdx,%rax,1),%eax
   113ff:	44 0f b6 e8          	movzbl %al,%r13d
   11403:	8b 05 cf cc 00 00    	mov    0xcccf(%rip),%eax        # 1e0d8 <g_221>
   11409:	4c 63 f0             	movslq %eax,%r14
   1140c:	48 8b 85 38 ef ff ff 	mov    -0x10c8(%rbp),%rax
   11413:	48 8d 15 80 cc 00 00 	lea    0xcc80(%rip),%rdx        # 1e09a <g_109>
   1141a:	48 89 10             	mov    %rdx,(%rax)
   1141d:	48 8b 85 38 ef ff ff 	mov    -0x10c8(%rbp),%rax
   11424:	48 8b 00             	mov    (%rax),%rax
   11427:	48 8d 15 6c cc 00 00 	lea    0xcc6c(%rip),%rdx        # 1e09a <g_109>
   1142e:	48 39 d0             	cmp    %rdx,%rax
   11431:	0f 94 c2             	sete   %dl
   11434:	48 83 bd 88 ee ff ff 	cmpq   $0x0,-0x1178(%rbp)
   1143b:	00 
   1143c:	0f 95 c0             	setne  %al
   1143f:	21 d0                	and    %edx,%eax
   11441:	0f b6 d0             	movzbl %al,%edx
   11444:	48 8b 85 50 ef ff ff 	mov    -0x10b0(%rbp),%rax
   1144b:	66 89 10             	mov    %dx,(%rax)
   1144e:	48 8b 85 50 ef ff ff 	mov    -0x10b0(%rbp),%rax
   11455:	0f b7 00             	movzwl (%rax),%eax
   11458:	89 c1                	mov    %eax,%ecx
   1145a:	8b 05 30 cd 00 00    	mov    0xcd30(%rip),%eax        # 1e190 <g_508>
   11460:	83 c0 02             	add    $0x2,%eax
   11463:	48 98                	cltq   
   11465:	48 8d 14 85 00 00 00 	lea    0x0(,%rax,4),%rdx
   1146c:	00 
   1146d:	48 8d 05 2c cc 00 00 	lea    0xcc2c(%rip),%rax        # 1e0a0 <g_115>
   11474:	8b 04 02             	mov    (%rdx,%rax,1),%eax
   11477:	89 c2                	mov    %eax,%edx
   11479:	48 8b 85 20 ee ff ff 	mov    -0x11e0(%rbp),%rax
   11480:	66 89 10             	mov    %dx,(%rax)
   11483:	48 8b 85 20 ee ff ff 	mov    -0x11e0(%rbp),%rax
   1148a:	0f b7 00             	movzwl (%rax),%eax
   1148d:	21 c1                	and    %eax,%ecx
   1148f:	41 89 cf             	mov    %ecx,%r15d
   11492:	8b 05 38 cc 00 00    	mov    0xcc38(%rip),%eax        # 1e0d0 <g_216>
   11498:	0f be c0             	movsbl %al,%eax
   1149b:	89 c6                	mov    %eax,%esi
   1149d:	bf 01 00 00 00       	mov    $0x1,%edi
   114a2:	e8 6b 6d ff ff       	callq  8212 <safe_mul_func_int8_t_s_s>
   114a7:	48 8b 95 08 ee ff ff 	mov    -0x11f8(%rbp),%rdx
   114ae:	0f b6 12             	movzbl (%rdx),%edx
   114b1:	21 c2                	and    %eax,%edx
   114b3:	48 8b 85 08 ee ff ff 	mov    -0x11f8(%rbp),%rax
   114ba:	88 10                	mov    %dl,(%rax)
   114bc:	48 8b 85 08 ee ff ff 	mov    -0x11f8(%rbp),%rax
   114c3:	0f b6 00             	movzbl (%rax),%eax
   114c6:	0f be c0             	movsbl %al,%eax
   114c9:	89 85 90 ed ff ff    	mov    %eax,-0x1270(%rbp)
   114cf:	8b 85 90 ed ff ff    	mov    -0x1270(%rbp),%eax
   114d5:	89 c2                	mov    %eax,%edx
   114d7:	0f b7 85 ec ec ff ff 	movzwl -0x1314(%rbp),%eax
   114de:	21 d0                	and    %edx,%eax
   114e0:	44 31 f8             	xor    %r15d,%eax
   114e3:	0f b7 c0             	movzwl %ax,%eax
   114e6:	be 06 00 00 00       	mov    $0x6,%esi
   114eb:	89 c7                	mov    %eax,%edi
   114ed:	e8 6a 78 ff ff       	callq  8d5c <safe_mod_func_uint16_t_u_u>
   114f2:	66 83 bd ec ec ff ff 	cmpw   $0x1,-0x1314(%rbp)
   114f9:	01 
   114fa:	0f 94 c0             	sete   %al
   114fd:	0f b6 c0             	movzbl %al,%eax
   11500:	4c 89 f6             	mov    %r14,%rsi
   11503:	48 89 c7             	mov    %rax,%rdi
   11506:	e8 23 7b ff ff       	callq  902e <safe_add_func_uint64_t_u_u>
   1150b:	0f b6 c0             	movzbl %al,%eax
   1150e:	44 89 ee             	mov    %r13d,%esi
   11511:	89 c7                	mov    %eax,%edi
   11513:	e8 c3 76 ff ff       	callq  8bdb <safe_div_func_uint8_t_u_u>
   11518:	0f b6 c0             	movzbl %al,%eax
   1151b:	44 89 e6             	mov    %r12d,%esi
   1151e:	89 c7                	mov    %eax,%edi
   11520:	e8 da 71 ff ff       	callq  86ff <safe_div_func_int32_t_s_s>
   11525:	3d 92 00 00 00       	cmp    $0x92,%eax
   1152a:	0f 9e c0             	setle  %al
   1152d:	0f b6 c0             	movzbl %al,%eax
   11530:	89 de                	mov    %ebx,%esi
   11532:	89 c7                	mov    %eax,%edi
   11534:	e8 21 76 ff ff       	callq  8b5a <safe_add_func_uint8_t_u_u>
   11539:	0f b6 c0             	movzbl %al,%eax
   1153c:	8b b5 e4 ec ff ff    	mov    -0x131c(%rbp),%esi
   11542:	89 c7                	mov    %eax,%edi
   11544:	e8 ff 78 ff ff       	callq  8e48 <safe_rshift_func_uint16_t_u_s>
   11549:	0f b6 05 4a cb 00 00 	movzbl 0xcb4a(%rip),%eax        # 1e09a <g_109>
   11550:	84 c0                	test   %al,%al
   11552:	0f 9f c0             	setg   %al
   11555:	0f b6 c0             	movzbl %al,%eax
   11558:	be 06 00 00 00       	mov    $0x6,%esi
   1155d:	48 89 c7             	mov    %rax,%rdi
   11560:	e8 c9 7a ff ff       	callq  902e <safe_add_func_uint64_t_u_u>
   11565:	0f b6 c0             	movzbl %al,%eax
   11568:	be 07 00 00 00       	mov    $0x7,%esi
   1156d:	89 c7                	mov    %eax,%edi
   1156f:	e8 19 77 ff ff       	callq  8c8d <safe_rshift_func_uint8_t_u_s>
   11574:	c7 85 98 ed ff ff 6a 	movl   $0xcfde086a,-0x1268(%rbp)
   1157b:	08 de cf 
   1157e:	c7 85 9c ed ff ff 7b 	movl   $0xfdbe9a7b,-0x1264(%rbp)
   11585:	9a be fd 
   11588:	c7 85 b0 f0 ff ff ff 	movl   $0xffffffff,-0xf50(%rbp)
   1158f:	ff ff ff 
   11592:	c7 85 b4 f0 ff ff d5 	movl   $0xf9381dd5,-0xf4c(%rbp)
   11599:	1d 38 f9 
   1159c:	c7 85 b8 f0 ff ff ff 	movl   $0xffffffff,-0xf48(%rbp)
   115a3:	ff ff ff 
   115a6:	c7 85 bc f0 ff ff 01 	movl   $0x1,-0xf44(%rbp)
   115ad:	00 00 00 
   115b0:	c7 85 c0 f0 ff ff b0 	movl   $0xcd0fc8b0,-0xf40(%rbp)
   115b7:	c8 0f cd 
   115ba:	c7 85 c4 f0 ff ff b0 	movl   $0xcd0fc8b0,-0xf3c(%rbp)
   115c1:	c8 0f cd 
   115c4:	c7 85 c8 f0 ff ff ff 	movl   $0xffffffff,-0xf38(%rbp)
   115cb:	ff ff ff 
   115ce:	c7 85 cc f0 ff ff d5 	movl   $0xf9381dd5,-0xf34(%rbp)
   115d5:	1d 38 f9 
   115d8:	c7 85 d0 f0 ff ff ff 	movl   $0xffffffff,-0xf30(%rbp)
   115df:	ff ff ff 
   115e2:	c7 85 d4 f0 ff ff 01 	movl   $0x1,-0xf2c(%rbp)
   115e9:	00 00 00 
   115ec:	c7 85 d8 f0 ff ff 01 	movl   $0x1,-0xf28(%rbp)
   115f3:	00 00 00 
   115f6:	c7 85 dc f0 ff ff b0 	movl   $0xcd0fc8b0,-0xf24(%rbp)
   115fd:	c8 0f cd 
   11600:	c7 85 e0 f0 ff ff ff 	movl   $0xffffffff,-0xf20(%rbp)
   11607:	ff ff ff 
   1160a:	c7 85 e4 f0 ff ff d5 	movl   $0xf9381dd5,-0xf1c(%rbp)
   11611:	1d 38 f9 
   11614:	c7 85 e8 f0 ff ff ff 	movl   $0xffffffff,-0xf18(%rbp)
   1161b:	ff ff ff 
   1161e:	c7 85 ec f0 ff ff 01 	movl   $0x1,-0xf14(%rbp)
   11625:	00 00 00 
   11628:	c7 85 f0 f0 ff ff b0 	movl   $0xcd0fc8b0,-0xf10(%rbp)
   1162f:	c8 0f cd 
   11632:	c7 85 f4 f0 ff ff b0 	movl   $0xcd0fc8b0,-0xf0c(%rbp)
   11639:	c8 0f cd 
   1163c:	c7 85 f8 f0 ff ff ff 	movl   $0xffffffff,-0xf08(%rbp)
   11643:	ff ff ff 
   11646:	c7 85 fc f0 ff ff d5 	movl   $0xf9381dd5,-0xf04(%rbp)
   1164d:	1d 38 f9 
   11650:	c7 85 00 f1 ff ff ff 	movl   $0xffffffff,-0xf00(%rbp)
   11657:	ff ff ff 
   1165a:	c7 85 a0 ef ff ff f8 	movl   $0xfffffff8,-0x1060(%rbp)
   11661:	ff ff ff 
   11664:	c7 85 a4 ef ff ff f8 	movl   $0xfffffff8,-0x105c(%rbp)
   1166b:	ff ff ff 
   1166e:	c7 85 a8 ef ff ff f8 	movl   $0xfffffff8,-0x1058(%rbp)
   11675:	ff ff ff 
   11678:	c7 85 ac ef ff ff f8 	movl   $0xfffffff8,-0x1054(%rbp)
   1167f:	ff ff ff 
   11682:	c7 85 b0 ef ff ff f8 	movl   $0xfffffff8,-0x1050(%rbp)
   11689:	ff ff ff 
   1168c:	48 8d 85 d0 f7 ff ff 	lea    -0x830(%rbp),%rax
   11693:	48 8d 15 e6 89 00 00 	lea    0x89e6(%rip),%rdx        # 1a080 <g_2228+0xe80>
   1169a:	b9 50 00 00 00       	mov    $0x50,%ecx
   1169f:	48 89 c7             	mov    %rax,%rdi
   116a2:	48 89 d6             	mov    %rdx,%rsi
   116a5:	f3 48 a5             	rep movsq %ds:(%rsi),%es:(%rdi)
   116a8:	0f b6 45 c6          	movzbl -0x3a(%rbp),%eax
   116ac:	83 c0 01             	add    $0x1,%eax
   116af:	88 45 c6             	mov    %al,-0x3a(%rbp)
   116b2:	c7 85 24 ed ff ff 00 	movl   $0x0,-0x12dc(%rbp)
   116b9:	00 00 00 
   116bc:	83 bd 24 ed ff ff 01 	cmpl   $0x1,-0x12dc(%rbp)
   116c3:	7f 44                	jg     11709 <func_65+0x1691>
   116c5:	48 8b 95 f8 ec ff ff 	mov    -0x1308(%rbp),%rdx
   116cc:	8b 85 24 ed ff ff    	mov    -0x12dc(%rbp),%eax
   116d2:	8d 70 05             	lea    0x5(%rax),%esi
   116d5:	8b 85 24 ed ff ff    	mov    -0x12dc(%rbp),%eax
   116db:	48 63 c8             	movslq %eax,%rcx
   116de:	48 63 f6             	movslq %esi,%rsi
   116e1:	48 89 d0             	mov    %rdx,%rax
   116e4:	48 c1 e0 03          	shl    $0x3,%rax
   116e8:	48 29 d0             	sub    %rdx,%rax
   116eb:	48 01 f0             	add    %rsi,%rax
   116ee:	48 01 c0             	add    %rax,%rax
   116f1:	48 8d 14 08          	lea    (%rax,%rcx,1),%rdx
   116f5:	48 8d 05 44 c9 00 00 	lea    0xc944(%rip),%rax        # 1e040 <g_5>
   116fc:	48 01 d0             	add    %rdx,%rax
   116ff:	0f b6 00             	movzbl (%rax),%eax
   11702:	66 98                	cbtw   
   11704:	e9 28 2d 00 00       	jmpq   14431 <func_65+0x43b9>
   11709:	48 8d 05 30 03 01 00 	lea    0x10330(%rip),%rax        # 21a40 <g_132>
   11710:	48 8d 15 29 03 01 00 	lea    0x10329(%rip),%rdx        # 21a40 <g_132>
   11717:	48 8b 00             	mov    (%rax),%rax
   1171a:	48 89 02             	mov    %rax,(%rdx)
   1171d:	c7 85 90 ed ff ff 00 	movl   $0x0,-0x1270(%rbp)
   11724:	00 00 00 
   11727:	83 bd 90 ed ff ff 01 	cmpl   $0x1,-0x1270(%rbp)
   1172e:	7f 46                	jg     11776 <func_65+0x16fe>
   11730:	8b 85 90 ed ff ff    	mov    -0x1270(%rbp),%eax
   11736:	8d 70 04             	lea    0x4(%rax),%esi
   11739:	8b 85 90 ed ff ff    	mov    -0x1270(%rbp),%eax
   1173f:	48 63 c8             	movslq %eax,%rcx
   11742:	8b 85 90 ed ff ff    	mov    -0x1270(%rbp),%eax
   11748:	48 63 d0             	movslq %eax,%rdx
   1174b:	48 63 f6             	movslq %esi,%rsi
   1174e:	48 89 d0             	mov    %rdx,%rax
   11751:	48 c1 e0 03          	shl    $0x3,%rax
   11755:	48 29 d0             	sub    %rdx,%rax
   11758:	48 01 f0             	add    %rsi,%rax
   1175b:	48 01 c0             	add    %rax,%rax
   1175e:	48 8d 14 08          	lea    (%rax,%rcx,1),%rdx
   11762:	48 8d 05 d7 c8 00 00 	lea    0xc8d7(%rip),%rax        # 1e040 <g_5>
   11769:	48 01 d0             	add    %rdx,%rax
   1176c:	0f b6 00             	movzbl (%rax),%eax
   1176f:	66 98                	cbtw   
   11771:	e9 bb 2c 00 00       	jmpq   14431 <func_65+0x43b9>
   11776:	48 8b 85 f8 ec ff ff 	mov    -0x1308(%rbp),%rax
   1177d:	48 83 c0 01          	add    $0x1,%rax
   11781:	48 89 85 f8 ec ff ff 	mov    %rax,-0x1308(%rbp)
   11788:	48 8b 85 f8 ec ff ff 	mov    -0x1308(%rbp),%rax
   1178f:	48 83 f8 03          	cmp    $0x3,%rax
   11793:	0f 86 2f fb ff ff    	jbe    112c8 <func_65+0x1250>
   11799:	48 8b 85 f8 ec ff ff 	mov    -0x1308(%rbp),%rax
   117a0:	0f b6 c8             	movzbl %al,%ecx
   117a3:	8b 05 e7 c9 00 00    	mov    0xc9e7(%rip),%eax        # 1e190 <g_508>
   117a9:	83 c0 02             	add    $0x2,%eax
   117ac:	48 98                	cltq   
   117ae:	48 8d 14 85 00 00 00 	lea    0x0(,%rax,4),%rdx
   117b5:	00 
   117b6:	48 8d 05 e3 c8 00 00 	lea    0xc8e3(%rip),%rax        # 1e0a0 <g_115>
   117bd:	8b 14 02             	mov    (%rdx,%rax,1),%edx
   117c0:	48 8d 05 79 02 01 00 	lea    0x10279(%rip),%rax        # 21a40 <g_132>
   117c7:	48 8b 00             	mov    (%rax),%rax
   117ca:	48 8d 35 6f 02 01 00 	lea    0x1026f(%rip),%rsi        # 21a40 <g_132>
   117d1:	48 89 c7             	mov    %rax,%rdi
   117d4:	e8 7e 2c 00 00       	callq  14457 <func_70>
   117d9:	48 89 85 f0 ec ff ff 	mov    %rax,-0x1310(%rbp)
   117e0:	66 c7 05 af c8 00 00 	movw   $0x0,0xc8af(%rip)        # 1e098 <g_106>
   117e7:	00 00 
   117e9:	e9 59 1a 00 00       	jmpq   13247 <func_65+0x31cf>
   117ee:	c6 85 0b ed ff ff ff 	movb   $0xff,-0x12f5(%rbp)
   117f5:	c7 85 58 ed ff ff 46 	movl   $0xc81a5746,-0x12a8(%rbp)
   117fc:	57 1a c8 
   117ff:	48 b8 db dd 54 24 0e 	movabs $0xb2b6160e2454dddb,%rax
   11806:	16 b6 b2 
   11809:	48 89 85 c0 ee ff ff 	mov    %rax,-0x1140(%rbp)
   11810:	c7 85 f0 ef ff ff bf 	movl   $0xd7d351bf,-0x1010(%rbp)
   11817:	51 d3 d7 
   1181a:	c7 85 f4 ef ff ff bf 	movl   $0xd7d351bf,-0x100c(%rbp)
   11821:	51 d3 d7 
   11824:	c7 85 f8 ef ff ff bf 	movl   $0xd7d351bf,-0x1008(%rbp)
   1182b:	51 d3 d7 
   1182e:	c7 85 fc ef ff ff bf 	movl   $0xd7d351bf,-0x1004(%rbp)
   11835:	51 d3 d7 
   11838:	c7 85 00 f0 ff ff bf 	movl   $0xd7d351bf,-0x1000(%rbp)
   1183f:	51 d3 d7 
   11842:	c7 85 04 f0 ff ff bf 	movl   $0xd7d351bf,-0xffc(%rbp)
   11849:	51 d3 d7 
   1184c:	c7 85 08 f0 ff ff bf 	movl   $0xd7d351bf,-0xff8(%rbp)
   11853:	51 d3 d7 
   11856:	c7 85 0c f0 ff ff bf 	movl   $0xd7d351bf,-0xff4(%rbp)
   1185d:	51 d3 d7 
   11860:	c7 85 10 f0 ff ff bf 	movl   $0xd7d351bf,-0xff0(%rbp)
   11867:	51 d3 d7 
   1186a:	48 8d 05 07 02 01 00 	lea    0x10207(%rip),%rax        # 21a78 <g_525>
   11871:	48 89 85 28 ee ff ff 	mov    %rax,-0x11d8(%rbp)
   11878:	c7 85 5c ed ff ff ff 	movl   $0xffffffff,-0x12a4(%rbp)
   1187f:	ff ff ff 
   11882:	48 8d 85 10 f1 ff ff 	lea    -0xef0(%rbp),%rax
   11889:	48 05 f0 04 00 00    	add    $0x4f0,%rax
   1188f:	48 89 85 d8 ed ff ff 	mov    %rax,-0x1228(%rbp)
   11896:	48 8d 85 d8 ed ff ff 	lea    -0x1228(%rbp),%rax
   1189d:	48 89 85 c8 ee ff ff 	mov    %rax,-0x1138(%rbp)
   118a4:	48 c7 85 d0 ee ff ff 	movq   $0x0,-0x1130(%rbp)
   118ab:	00 00 00 00 
   118af:	c7 85 24 ed ff ff 07 	movl   $0x7,-0x12dc(%rbp)
   118b6:	00 00 00 
   118b9:	e9 48 01 00 00       	jmpq   11a06 <func_65+0x198e>
   118be:	c6 85 0d ed ff ff f0 	movb   $0xf0,-0x12f3(%rbp)
   118c5:	48 8d 05 b4 1a 01 00 	lea    0x11ab4(%rip),%rax        # 23380 <g_362>
   118cc:	48 89 85 28 ef ff ff 	mov    %rax,-0x10d8(%rbp)
   118d3:	48 8d 05 4e c8 00 00 	lea    0xc84e(%rip),%rax        # 1e128 <g_390>
   118da:	48 89 85 30 ef ff ff 	mov    %rax,-0x10d0(%rbp)
   118e1:	8b 05 f1 c7 00 00    	mov    0xc7f1(%rip),%eax        # 1e0d8 <g_221>
   118e7:	0f be d8             	movsbl %al,%ebx
   118ea:	48 8b 05 77 01 01 00 	mov    0x10177(%rip),%rax        # 21a68 <g_527>
   118f1:	0f b7 00             	movzwl (%rax),%eax
   118f4:	0f bf d0             	movswl %ax,%edx
   118f7:	48 8b 85 f8 ed ff ff 	mov    -0x1208(%rbp),%rax
   118fe:	8b 00                	mov    (%rax),%eax
   11900:	39 c2                	cmp    %eax,%edx
   11902:	0f 95 c0             	setne  %al
   11905:	0f b6 d0             	movzbl %al,%edx
   11908:	0f b7 85 ec ec ff ff 	movzwl -0x1314(%rbp),%eax
   1190f:	39 c2                	cmp    %eax,%edx
   11911:	0f 94 c0             	sete   %al
   11914:	41 89 c5             	mov    %eax,%r13d
   11917:	48 8b 85 10 ee ff ff 	mov    -0x11f0(%rbp),%rax
   1191e:	44 0f b6 e0          	movzbl %al,%r12d
   11922:	48 8b 85 f0 ec ff ff 	mov    -0x1310(%rbp),%rax
   11929:	8b 00                	mov    (%rax),%eax
   1192b:	89 c2                	mov    %eax,%edx
   1192d:	8b 05 55 c7 00 00    	mov    0xc755(%rip),%eax        # 1e088 <g_90>
   11933:	23 85 e8 ec ff ff    	and    -0x1318(%rbp),%eax
   11939:	35 83 b0 1b ae       	xor    $0xae1bb083,%eax
   1193e:	89 d6                	mov    %edx,%esi
   11940:	89 c7                	mov    %eax,%edi
   11942:	e8 de 75 ff ff       	callq  8f25 <safe_div_func_uint32_t_u_u>
   11947:	0f b7 95 ec ec ff ff 	movzwl -0x1314(%rbp),%edx
   1194e:	48 8b 05 1b 01 01 00 	mov    0x1011b(%rip),%rax        # 21a70 <g_526>
   11955:	48 8b 00             	mov    (%rax),%rax
   11958:	0f b7 00             	movzwl (%rax),%eax
   1195b:	98                   	cwtl   
   1195c:	39 c2                	cmp    %eax,%edx
   1195e:	7f 07                	jg     11967 <func_65+0x18ef>
   11960:	ba 01 00 00 00       	mov    $0x1,%edx
   11965:	eb 05                	jmp    1196c <func_65+0x18f4>
   11967:	ba 00 00 00 00       	mov    $0x0,%edx
   1196c:	48 8b 85 f8 ec ff ff 	mov    -0x1308(%rbp),%rax
   11973:	48 39 c2             	cmp    %rax,%rdx
   11976:	74 13                	je     1198b <func_65+0x1913>
   11978:	48 8b 85 f8 ec ff ff 	mov    -0x1308(%rbp),%rax
   1197f:	48 85 c0             	test   %rax,%rax
   11982:	74 07                	je     1198b <func_65+0x1913>
   11984:	b8 01 00 00 00       	mov    $0x1,%eax
   11989:	eb 05                	jmp    11990 <func_65+0x1918>
   1198b:	b8 00 00 00 00       	mov    $0x0,%eax
   11990:	89 85 18 ed ff ff    	mov    %eax,-0x12e8(%rbp)
   11996:	8b 85 18 ed ff ff    	mov    -0x12e8(%rbp),%eax
   1199c:	3d 4d 0d 70 4f       	cmp    $0x4f700d4d,%eax
   119a1:	0f 94 c0             	sete   %al
   119a4:	0f b6 d0             	movzbl %al,%edx
   119a7:	48 8b 05 92 00 01 00 	mov    0x10092(%rip),%rax        # 21a40 <g_132>
   119ae:	8b 00                	mov    (%rax),%eax
   119b0:	39 c2                	cmp    %eax,%edx
   119b2:	0f 9f c0             	setg   %al
   119b5:	0f b6 c0             	movzbl %al,%eax
   119b8:	89 c6                	mov    %eax,%esi
   119ba:	bf ab 00 00 00       	mov    $0xab,%edi
   119bf:	e8 fa 72 ff ff       	callq  8cbe <safe_rshift_func_uint8_t_u_u>
   119c4:	0f b6 c0             	movzbl %al,%eax
   119c7:	44 89 e6             	mov    %r12d,%esi
   119ca:	89 c7                	mov    %eax,%edi
   119cc:	e8 0a 72 ff ff       	callq  8bdb <safe_div_func_uint8_t_u_u>
   119d1:	44 89 ea             	mov    %r13d,%edx
   119d4:	31 c2                	xor    %eax,%edx
   119d6:	48 8d 05 63 00 01 00 	lea    0x10063(%rip),%rax        # 21a40 <g_132>
   119dd:	48 8b 00             	mov    (%rax),%rax
   119e0:	8b 00                	mov    (%rax),%eax
   119e2:	21 d0                	and    %edx,%eax
   119e4:	0f be c0             	movsbl %al,%eax
   119e7:	89 de                	mov    %ebx,%esi
   119e9:	89 c7                	mov    %eax,%edi
   119eb:	e8 02 68 ff ff       	callq  81f2 <safe_sub_func_int8_t_s_s>
   119f0:	0f b6 95 0b ed ff ff 	movzbl -0x12f5(%rbp),%edx
   119f7:	09 d0                	or     %edx,%eax
   119f9:	88 85 0b ed ff ff    	mov    %al,-0x12f5(%rbp)
   119ff:	83 ad 24 ed ff ff 01 	subl   $0x1,-0x12dc(%rbp)
   11a06:	83 bd 24 ed ff ff 00 	cmpl   $0x0,-0x12dc(%rbp)
   11a0d:	0f 89 ab fe ff ff    	jns    118be <func_65+0x1846>
   11a13:	c7 85 24 ed ff ff 00 	movl   $0x0,-0x12dc(%rbp)
   11a1a:	00 00 00 
   11a1d:	e9 38 09 00 00       	jmpq   1235a <func_65+0x22e2>
   11a22:	c7 85 68 ed ff ff ff 	movl   $0xffffffff,-0x1298(%rbp)
   11a29:	ff ff ff 
   11a2c:	c7 85 6c ed ff ff 66 	movl   $0xf654bd66,-0x1294(%rbp)
   11a33:	bd 54 f6 
   11a36:	c7 85 70 ed ff ff c9 	movl   $0x26ffafc9,-0x1290(%rbp)
   11a3d:	af ff 26 
   11a40:	c7 85 74 ed ff ff 93 	movl   $0xb16e5493,-0x128c(%rbp)
   11a47:	54 6e b1 
   11a4a:	c7 85 78 ed ff ff 00 	movl   $0x0,-0x1288(%rbp)
   11a51:	00 00 00 
   11a54:	c7 85 7c ed ff ff 01 	movl   $0x1,-0x1284(%rbp)
   11a5b:	00 00 00 
   11a5e:	48 c7 85 b0 f0 ff ff 	movq   $0xfffffffffffffff8,-0xf50(%rbp)
   11a65:	f8 ff ff ff 
   11a69:	48 c7 85 b8 f0 ff ff 	movq   $0xfffffffffffffff8,-0xf48(%rbp)
   11a70:	f8 ff ff ff 
   11a74:	48 c7 85 c0 f0 ff ff 	movq   $0xfffffffffffffff8,-0xf40(%rbp)
   11a7b:	f8 ff ff ff 
   11a7f:	48 c7 85 c8 f0 ff ff 	movq   $0xfffffffffffffff8,-0xf38(%rbp)
   11a86:	f8 ff ff ff 
   11a8a:	48 c7 85 d0 f0 ff ff 	movq   $0xfffffffffffffff8,-0xf30(%rbp)
   11a91:	f8 ff ff ff 
   11a95:	48 8d 85 70 ef ff ff 	lea    -0x1090(%rbp),%rax
   11a9c:	48 83 c0 08          	add    $0x8,%rax
   11aa0:	48 89 85 e8 ee ff ff 	mov    %rax,-0x1118(%rbp)
   11aa7:	48 8d 85 c0 ef ff ff 	lea    -0x1040(%rbp),%rax
   11aae:	48 83 c0 18          	add    $0x18,%rax
   11ab2:	48 89 85 f0 ee ff ff 	mov    %rax,-0x1110(%rbp)
   11ab9:	48 8d 85 b0 f0 ff ff 	lea    -0xf50(%rbp),%rax
   11ac0:	48 89 85 e0 ed ff ff 	mov    %rax,-0x1220(%rbp)
   11ac7:	48 8d 85 20 f0 ff ff 	lea    -0xfe0(%rbp),%rax
   11ace:	48 83 c0 30          	add    $0x30,%rax
   11ad2:	48 89 85 e8 ed ff ff 	mov    %rax,-0x1218(%rbp)
   11ad9:	c7 85 34 ed ff ff 00 	movl   $0x0,-0x12cc(%rbp)
   11ae0:	00 00 00 
   11ae3:	eb 1b                	jmp    11b00 <func_65+0x1a88>
   11ae5:	8b 85 34 ed ff ff    	mov    -0x12cc(%rbp),%eax
   11aeb:	48 98                	cltq   
   11aed:	48 c7 84 c5 70 ef ff 	movq   $0x0,-0x1090(%rbp,%rax,8)
   11af4:	ff 00 00 00 00 
   11af9:	83 85 34 ed ff ff 01 	addl   $0x1,-0x12cc(%rbp)
   11b00:	83 bd 34 ed ff ff 01 	cmpl   $0x1,-0x12cc(%rbp)
   11b07:	7e dc                	jle    11ae5 <func_65+0x1a6d>
   11b09:	c7 05 c5 c5 00 00 05 	movl   $0x5,0xc5c5(%rip)        # 1e0d8 <g_221>
   11b10:	00 00 00 
   11b13:	e9 2d 01 00 00       	jmpq   11c45 <func_65+0x1bcd>
   11b18:	48 8b 05 21 ff 00 00 	mov    0xff21(%rip),%rax        # 21a40 <g_132>
   11b1f:	8b 00                	mov    (%rax),%eax
   11b21:	85 c0                	test   %eax,%eax
   11b23:	0f 85 2c 01 00 00    	jne    11c55 <func_65+0x1bdd>
   11b29:	48 8b 85 08 ee ff ff 	mov    -0x11f8(%rbp),%rax
   11b30:	0f b6 08             	movzbl (%rax),%ecx
   11b33:	8b 05 57 c6 00 00    	mov    0xc657(%rip),%eax        # 1e190 <g_508>
   11b39:	83 c0 02             	add    $0x2,%eax
   11b3c:	48 98                	cltq   
   11b3e:	48 8d 14 85 00 00 00 	lea    0x0(,%rax,4),%rdx
   11b45:	00 
   11b46:	48 8d 05 53 c5 00 00 	lea    0xc553(%rip),%rax        # 1e0a0 <g_115>
   11b4d:	8b 04 02             	mov    (%rdx,%rax,1),%eax
   11b50:	09 c1                	or     %eax,%ecx
   11b52:	89 ca                	mov    %ecx,%edx
   11b54:	48 8b 85 08 ee ff ff 	mov    -0x11f8(%rbp),%rax
   11b5b:	88 10                	mov    %dl,(%rax)
   11b5d:	8b 05 3d c5 00 00    	mov    0xc53d(%rip),%eax        # 1e0a0 <g_115>
   11b63:	48 63 d8             	movslq %eax,%rbx
   11b66:	44 0f b7 a5 ec ec ff 	movzwl -0x1314(%rbp),%r12d
   11b6d:	ff 
   11b6e:	be a3 28 7a 7f       	mov    $0x7f7a28a3,%esi
   11b73:	bf 01 00 00 00       	mov    $0x1,%edi
   11b78:	e8 82 6b ff ff       	callq  86ff <safe_div_func_int32_t_s_s>
   11b7d:	f7 d0                	not    %eax
   11b7f:	c1 e8 1f             	shr    $0x1f,%eax
   11b82:	0f b6 c0             	movzbl %al,%eax
   11b85:	f7 d0                	not    %eax
   11b87:	41 89 c5             	mov    %eax,%r13d
   11b8a:	8b 05 d0 c5 00 00    	mov    0xc5d0(%rip),%eax        # 1e160 <g_398+0x20>
   11b90:	25 ff ff ff 3f       	and    $0x3fffffff,%eax
   11b95:	85 c0                	test   %eax,%eax
   11b97:	75 30                	jne    11bc9 <func_65+0x1b51>
   11b99:	8b 05 f1 c5 00 00    	mov    0xc5f1(%rip),%eax        # 1e190 <g_508>
   11b9f:	83 c0 02             	add    $0x2,%eax
   11ba2:	48 98                	cltq   
   11ba4:	48 8d 14 85 00 00 00 	lea    0x0(,%rax,4),%rdx
   11bab:	00 
   11bac:	48 8d 05 ed c4 00 00 	lea    0xc4ed(%rip),%rax        # 1e0a0 <g_115>
   11bb3:	8b 04 02             	mov    (%rdx,%rax,1),%eax
   11bb6:	0f b6 c0             	movzbl %al,%eax
   11bb9:	89 c6                	mov    %eax,%esi
   11bbb:	bf 7f 00 00 00       	mov    $0x7f,%edi
   11bc0:	e8 16 70 ff ff       	callq  8bdb <safe_div_func_uint8_t_u_u>
   11bc5:	84 c0                	test   %al,%al
   11bc7:	74 07                	je     11bd0 <func_65+0x1b58>
   11bc9:	b8 01 00 00 00       	mov    $0x1,%eax
   11bce:	eb 05                	jmp    11bd5 <func_65+0x1b5d>
   11bd0:	b8 00 00 00 00       	mov    $0x0,%eax
   11bd5:	44 39 e8             	cmp    %r13d,%eax
   11bd8:	0f 9c c0             	setl   %al
   11bdb:	0f b6 d0             	movzbl %al,%edx
   11bde:	0f b6 05 70 c4 00 00 	movzbl 0xc470(%rip),%eax        # 1e055 <g_5+0x15>
   11be5:	0f be c0             	movsbl %al,%eax
   11be8:	39 c2                	cmp    %eax,%edx
   11bea:	0f 9d c0             	setge  %al
   11bed:	0f b6 c0             	movzbl %al,%eax
   11bf0:	4c 89 e6             	mov    %r12,%rsi
   11bf3:	48 89 c7             	mov    %rax,%rdi
   11bf6:	e8 fc 6d ff ff       	callq  89f7 <safe_div_func_int64_t_s_s>
   11bfb:	48 89 de             	mov    %rbx,%rsi
   11bfe:	48 89 c7             	mov    %rax,%rdi
   11c01:	e8 28 74 ff ff       	callq  902e <safe_add_func_uint64_t_u_u>
   11c06:	8b 95 24 ed ff ff    	mov    -0x12dc(%rbp),%edx
   11c0c:	83 c2 02             	add    $0x2,%edx
   11c0f:	89 c1                	mov    %eax,%ecx
   11c11:	48 63 c2             	movslq %edx,%rax
   11c14:	48 8d 14 85 00 00 00 	lea    0x0(,%rax,4),%rdx
   11c1b:	00 
   11c1c:	48 8d 05 7d c4 00 00 	lea    0xc47d(%rip),%rax        # 1e0a0 <g_115>
   11c23:	89 0c 02             	mov    %ecx,(%rdx,%rax,1)
   11c26:	48 8d 05 13 fe 00 00 	lea    0xfe13(%rip),%rax        # 21a40 <g_132>
   11c2d:	48 8b 00             	mov    (%rax),%rax
   11c30:	8b 00                	mov    (%rax),%eax
   11c32:	85 c0                	test   %eax,%eax
   11c34:	75 22                	jne    11c58 <func_65+0x1be0>
   11c36:	8b 05 9c c4 00 00    	mov    0xc49c(%rip),%eax        # 1e0d8 <g_221>
   11c3c:	83 e8 01             	sub    $0x1,%eax
   11c3f:	89 05 93 c4 00 00    	mov    %eax,0xc493(%rip)        # 1e0d8 <g_221>
   11c45:	8b 05 8d c4 00 00    	mov    0xc48d(%rip),%eax        # 1e0d8 <g_221>
   11c4b:	85 c0                	test   %eax,%eax
   11c4d:	0f 89 c5 fe ff ff    	jns    11b18 <func_65+0x1aa0>
   11c53:	eb 04                	jmp    11c59 <func_65+0x1be1>
   11c55:	90                   	nop
   11c56:	eb 01                	jmp    11c59 <func_65+0x1be1>
   11c58:	90                   	nop
   11c59:	48 83 ad 30 ee ff ff 	subq   $0x1,-0x11d0(%rbp)
   11c60:	01 
   11c61:	8b 85 58 ef ff ff    	mov    -0x10a8(%rbp),%eax
   11c67:	41 89 c6             	mov    %eax,%r14d
   11c6a:	48 8b 85 60 ef ff ff 	mov    -0x10a0(%rbp),%rax
   11c71:	41 89 c4             	mov    %eax,%r12d
   11c74:	48 8b 05 fd fd 00 00 	mov    0xfdfd(%rip),%rax        # 21a78 <g_525>
   11c7b:	48 8b 00             	mov    (%rax),%rax
   11c7e:	48 85 c0             	test   %rax,%rax
   11c81:	74 12                	je     11c95 <func_65+0x1c1d>
   11c83:	66 83 bd ec ec ff ff 	cmpw   $0x0,-0x1314(%rbp)
   11c8a:	00 
   11c8b:	74 08                	je     11c95 <func_65+0x1c1d>
   11c8d:	41 bd 01 00 00 00    	mov    $0x1,%r13d
   11c93:	eb 06                	jmp    11c9b <func_65+0x1c23>
   11c95:	41 bd 00 00 00 00    	mov    $0x0,%r13d
   11c9b:	0f b6 05 9e c3 00 00 	movzbl 0xc39e(%rip),%eax        # 1e040 <g_5>
   11ca2:	0f b6 d8             	movzbl %al,%ebx
   11ca5:	48 8b 95 78 ef ff ff 	mov    -0x1088(%rbp),%rdx
   11cac:	48 8b 85 e8 ee ff ff 	mov    -0x1118(%rbp),%rax
   11cb3:	48 89 10             	mov    %rdx,(%rax)
   11cb6:	48 8b 85 f8 ed ff ff 	mov    -0x1208(%rbp),%rax
   11cbd:	8b 00                	mov    (%rax),%eax
   11cbf:	0f be c0             	movsbl %al,%eax
   11cc2:	be 2d 00 00 00       	mov    $0x2d,%esi
   11cc7:	89 c7                	mov    %eax,%edi
   11cc9:	e8 9c 65 ff ff       	callq  826a <safe_div_func_int8_t_s_s>
   11cce:	0f b6 95 0a ed ff ff 	movzbl -0x12f6(%rbp),%edx
   11cd5:	09 d0                	or     %edx,%eax
   11cd7:	48 0f be c0          	movsbq %al,%rax
   11cdb:	48 39 85 c0 ee ff ff 	cmp    %rax,-0x1140(%rbp)
   11ce2:	76 14                	jbe    11cf8 <func_65+0x1c80>
   11ce4:	48 8b 85 f8 ed ff ff 	mov    -0x1208(%rbp),%rax
   11ceb:	8b 00                	mov    (%rax),%eax
   11ced:	85 c0                	test   %eax,%eax
   11cef:	74 07                	je     11cf8 <func_65+0x1c80>
   11cf1:	ba 01 00 00 00       	mov    $0x1,%edx
   11cf6:	eb 05                	jmp    11cfd <func_65+0x1c85>
   11cf8:	ba 00 00 00 00       	mov    $0x0,%edx
   11cfd:	0f b7 85 0e ed ff ff 	movzwl -0x12f2(%rbp),%eax
   11d04:	39 c2                	cmp    %eax,%edx
   11d06:	0f 95 c0             	setne  %al
   11d09:	0f b6 c0             	movzbl %al,%eax
   11d0c:	89 de                	mov    %ebx,%esi
   11d0e:	89 c7                	mov    %eax,%edi
   11d10:	e8 99 6e ff ff       	callq  8bae <safe_mod_func_uint8_t_u_u>
   11d15:	0f b6 d0             	movzbl %al,%edx
   11d18:	8b 05 6a 16 01 00    	mov    0x1166a(%rip),%eax        # 23388 <g_404>
   11d1e:	c1 e0 02             	shl    $0x2,%eax
   11d21:	c1 f8 02             	sar    $0x2,%eax
   11d24:	39 c2                	cmp    %eax,%edx
   11d26:	7e 07                	jle    11d2f <func_65+0x1cb7>
   11d28:	b8 01 00 00 00       	mov    $0x1,%eax
   11d2d:	eb 05                	jmp    11d34 <func_65+0x1cbc>
   11d2f:	b8 00 00 00 00       	mov    $0x0,%eax
   11d34:	be fa ff ff ff       	mov    $0xfffffffa,%esi
   11d39:	89 c7                	mov    %eax,%edi
   11d3b:	e8 73 66 ff ff       	callq  83b3 <safe_add_func_int16_t_s_s>
   11d40:	66 85 c0             	test   %ax,%ax
   11d43:	74 10                	je     11d55 <func_65+0x1cdd>
   11d45:	83 bd e8 ec ff ff 00 	cmpl   $0x0,-0x1318(%rbp)
   11d4c:	74 07                	je     11d55 <func_65+0x1cdd>
   11d4e:	b8 01 00 00 00       	mov    $0x1,%eax
   11d53:	eb 05                	jmp    11d5a <func_65+0x1ce2>
   11d55:	b8 00 00 00 00       	mov    $0x0,%eax
   11d5a:	41 39 c5             	cmp    %eax,%r13d
   11d5d:	0f 9d c0             	setge  %al
   11d60:	0f b6 c0             	movzbl %al,%eax
   11d63:	44 89 e6             	mov    %r12d,%esi
   11d66:	89 c7                	mov    %eax,%edi
   11d68:	e8 74 67 ff ff       	callq  84e1 <safe_lshift_func_int16_t_s_u>
   11d6d:	48 0f bf c0          	movswq %ax,%rax
   11d71:	25 21 90 8d 65       	and    $0x658d9021,%eax
   11d76:	48 89 c2             	mov    %rax,%rdx
   11d79:	48 8b 85 f0 ee ff ff 	mov    -0x1110(%rbp),%rax
   11d80:	48 89 10             	mov    %rdx,(%rax)
   11d83:	48 8b 85 e0 ed ff ff 	mov    -0x1220(%rbp),%rax
   11d8a:	48 8b 95 f0 ee ff ff 	mov    -0x1110(%rbp),%rdx
   11d91:	48 8b 12             	mov    (%rdx),%rdx
   11d94:	48 89 10             	mov    %rdx,(%rax)
   11d97:	48 8b 00             	mov    (%rax),%rax
   11d9a:	44 31 f0             	xor    %r14d,%eax
   11d9d:	0f b7 c0             	movzwl %ax,%eax
   11da0:	25 cf 67 00 00       	and    $0x67cf,%eax
   11da5:	be 06 00 00 00       	mov    $0x6,%esi
   11daa:	89 c7                	mov    %eax,%edi
   11dac:	e8 4e 6f ff ff       	callq  8cff <safe_add_func_uint16_t_u_u>
   11db1:	66 85 c0             	test   %ax,%ax
   11db4:	0f 94 c0             	sete   %al
   11db7:	0f b6 c0             	movzbl %al,%eax
   11dba:	be 06 00 00 00       	mov    $0x6,%esi
   11dbf:	89 c7                	mov    %eax,%edi
   11dc1:	e8 86 6e ff ff       	callq  8c4c <safe_lshift_func_uint8_t_u_u>
   11dc6:	84 c0                	test   %al,%al
   11dc8:	0f 84 db 02 00 00    	je     120a9 <func_65+0x2031>
   11dce:	48 c7 85 d0 f7 ff ff 	movq   $0x0,-0x830(%rbp)
   11dd5:	00 00 00 00 
   11dd9:	48 c7 85 d8 f7 ff ff 	movq   $0x0,-0x828(%rbp)
   11de0:	00 00 00 00 
   11de4:	48 8d 85 e8 ed ff ff 	lea    -0x1218(%rbp),%rax
   11deb:	48 89 85 e0 f7 ff ff 	mov    %rax,-0x820(%rbp)
   11df2:	48 c7 85 e8 f7 ff ff 	movq   $0x0,-0x818(%rbp)
   11df9:	00 00 00 00 
   11dfd:	48 c7 85 f0 f7 ff ff 	movq   $0x0,-0x810(%rbp)
   11e04:	00 00 00 00 
   11e08:	48 8d 85 e8 ed ff ff 	lea    -0x1218(%rbp),%rax
   11e0f:	48 89 85 f8 f7 ff ff 	mov    %rax,-0x808(%rbp)
   11e16:	48 c7 85 00 f8 ff ff 	movq   $0x0,-0x800(%rbp)
   11e1d:	00 00 00 00 
   11e21:	48 c7 85 08 f8 ff ff 	movq   $0x0,-0x7f8(%rbp)
   11e28:	00 00 00 00 
   11e2c:	48 8d 85 e8 ed ff ff 	lea    -0x1218(%rbp),%rax
   11e33:	48 89 85 10 f8 ff ff 	mov    %rax,-0x7f0(%rbp)
   11e3a:	48 c7 85 18 f8 ff ff 	movq   $0x0,-0x7e8(%rbp)
   11e41:	00 00 00 00 
   11e45:	48 c7 85 20 f8 ff ff 	movq   $0x0,-0x7e0(%rbp)
   11e4c:	00 00 00 00 
   11e50:	48 8d 85 e8 ed ff ff 	lea    -0x1218(%rbp),%rax
   11e57:	48 89 85 28 f8 ff ff 	mov    %rax,-0x7d8(%rbp)
   11e5e:	48 c7 85 30 f8 ff ff 	movq   $0x0,-0x7d0(%rbp)
   11e65:	00 00 00 00 
   11e69:	48 c7 85 38 f8 ff ff 	movq   $0x0,-0x7c8(%rbp)
   11e70:	00 00 00 00 
   11e74:	48 8d 85 e8 ed ff ff 	lea    -0x1218(%rbp),%rax
   11e7b:	48 89 85 40 f8 ff ff 	mov    %rax,-0x7c0(%rbp)
   11e82:	48 8d 05 6f 12 01 00 	lea    0x1126f(%rip),%rax        # 230f8 <g_318>
   11e89:	48 89 85 00 ef ff ff 	mov    %rax,-0x1100(%rbp)
   11e90:	48 8d 05 b1 06 01 00 	lea    0x106b1(%rip),%rax        # 22548 <g_266>
   11e97:	48 89 85 08 ef ff ff 	mov    %rax,-0x10f8(%rbp)
   11e9e:	c7 85 80 ed ff ff a7 	movl   $0xe467c0a7,-0x1280(%rbp)
   11ea5:	c0 67 e4 
   11ea8:	48 8d 05 11 c2 00 00 	lea    0xc211(%rip),%rax        # 1e0c0 <g_198>
   11eaf:	48 89 85 10 ef ff ff 	mov    %rax,-0x10f0(%rbp)
   11eb6:	48 8d 05 cb c2 00 00 	lea    0xc2cb(%rip),%rax        # 1e188 <g_403>
   11ebd:	48 89 85 18 ef ff ff 	mov    %rax,-0x10e8(%rbp)
   11ec4:	48 8d 05 b5 c2 00 00 	lea    0xc2b5(%rip),%rax        # 1e180 <g_401>
   11ecb:	48 89 85 20 ef ff ff 	mov    %rax,-0x10e0(%rbp)
   11ed2:	c7 85 84 ed ff ff 00 	movl   $0x0,-0x127c(%rbp)
   11ed9:	00 00 00 
   11edc:	c7 85 88 ed ff ff 06 	movl   $0x6,-0x1278(%rbp)
   11ee3:	00 00 00 
   11ee6:	c7 85 8c ed ff ff 01 	movl   $0x1,-0x1274(%rbp)
   11eed:	00 00 00 
   11ef0:	c7 85 38 ed ff ff 00 	movl   $0x0,-0x12c8(%rbp)
   11ef7:	00 00 00 
   11efa:	eb 1e                	jmp    11f1a <func_65+0x1ea2>
   11efc:	8b 85 38 ed ff ff    	mov    -0x12c8(%rbp),%eax
   11f02:	48 98                	cltq   
   11f04:	48 8d 15 75 c2 00 00 	lea    0xc275(%rip),%rdx        # 1e180 <g_401>
   11f0b:	48 89 94 c5 a0 ef ff 	mov    %rdx,-0x1060(%rbp,%rax,8)
   11f12:	ff 
   11f13:	83 85 38 ed ff ff 01 	addl   $0x1,-0x12c8(%rbp)
   11f1a:	83 bd 38 ed ff ff 00 	cmpl   $0x0,-0x12c8(%rbp)
   11f21:	7e d9                	jle    11efc <func_65+0x1e84>
   11f23:	48 8b 85 e8 ed ff ff 	mov    -0x1218(%rbp),%rax
   11f2a:	48 89 85 28 ee ff ff 	mov    %rax,-0x11d8(%rbp)
   11f31:	48 8b 85 f8 ed ff ff 	mov    -0x1208(%rbp),%rax
   11f38:	8b 00                	mov    (%rax),%eax
   11f3a:	0f bf d8             	movswl %ax,%ebx
   11f3d:	8b 05 45 c2 00 00    	mov    0xc245(%rip),%eax        # 1e188 <g_403>
   11f43:	25 ff ff ff 3f       	and    $0x3fffffff,%eax
   11f48:	85 c0                	test   %eax,%eax
   11f4a:	75 0a                	jne    11f56 <func_65+0x1ede>
   11f4c:	8b 05 32 c1 00 00    	mov    0xc132(%rip),%eax        # 1e084 <g_51>
   11f52:	85 c0                	test   %eax,%eax
   11f54:	74 07                	je     11f5d <func_65+0x1ee5>
   11f56:	b8 01 00 00 00       	mov    $0x1,%eax
   11f5b:	eb 05                	jmp    11f62 <func_65+0x1eea>
   11f5d:	b8 00 00 00 00       	mov    $0x0,%eax
   11f62:	48 63 d0             	movslq %eax,%rdx
   11f65:	48 8b 85 f8 ec ff ff 	mov    -0x1308(%rbp),%rax
   11f6c:	48 39 c2             	cmp    %rax,%rdx
   11f6f:	0f 97 c0             	seta   %al
   11f72:	0f b6 c0             	movzbl %al,%eax
   11f75:	39 85 e8 ec ff ff    	cmp    %eax,-0x1318(%rbp)
   11f7b:	0f 95 c0             	setne  %al
   11f7e:	0f b6 c0             	movzbl %al,%eax
   11f81:	be 0b 00 00 00       	mov    $0xb,%esi
   11f86:	89 c7                	mov    %eax,%edi
   11f88:	e8 31 6e ff ff       	callq  8dbe <safe_lshift_func_uint16_t_u_s>
   11f8d:	0f b7 c0             	movzwl %ax,%eax
   11f90:	be 6b ea 35 47       	mov    $0x4735ea6b,%esi
   11f95:	89 c7                	mov    %eax,%edi
   11f97:	e8 69 66 ff ff       	callq  8605 <safe_sub_func_int32_t_s_s>
   11f9c:	98                   	cwtl   
   11f9d:	89 de                	mov    %ebx,%esi
   11f9f:	89 c7                	mov    %eax,%edi
   11fa1:	e8 af 64 ff ff       	callq  8455 <safe_div_func_int16_t_s_s>
   11fa6:	0f b7 d0             	movzwl %ax,%edx
   11fa9:	8b 05 49 c2 00 00    	mov    0xc249(%rip),%eax        # 1e1f8 <g_740+0x38>
   11faf:	8d 48 ff             	lea    -0x1(%rax),%ecx
   11fb2:	89 0d 40 c2 00 00    	mov    %ecx,0xc240(%rip)        # 1e1f8 <g_740+0x38>
   11fb8:	0f b7 c0             	movzwl %ax,%eax
   11fbb:	89 d6                	mov    %edx,%esi
   11fbd:	89 c7                	mov    %eax,%edi
   11fbf:	e8 79 6d ff ff       	callq  8d3d <safe_mul_func_uint16_t_u_u>
   11fc4:	0f b7 d8             	movzwl %ax,%ebx
   11fc7:	66 83 bd ec ec ff ff 	cmpw   $0x0,-0x1314(%rbp)
   11fce:	00 
   11fcf:	75 7c                	jne    1204d <func_65+0x1fd5>
   11fd1:	48 8b 95 f8 ec ff ff 	mov    -0x1308(%rbp),%rdx
   11fd8:	48 8b 85 00 ef ff ff 	mov    -0x1100(%rbp),%rax
   11fdf:	48 89 10             	mov    %rdx,(%rax)
   11fe2:	48 8b 85 00 ef ff ff 	mov    -0x1100(%rbp),%rax
   11fe9:	48 8b 10             	mov    (%rax),%rdx
   11fec:	48 8b 85 08 ef ff ff 	mov    -0x10f8(%rbp),%rax
   11ff3:	48 c7 00 08 00 00 00 	movq   $0x8,(%rax)
   11ffa:	48 8b 85 08 ef ff ff 	mov    -0x10f8(%rbp),%rax
   12001:	48 8b 00             	mov    (%rax),%rax
   12004:	48 39 c2             	cmp    %rax,%rdx
   12007:	73 21                	jae    1202a <func_65+0x1fb2>
   12009:	8b 05 81 c1 00 00    	mov    0xc181(%rip),%eax        # 1e190 <g_508>
   1200f:	4c 63 e0             	movslq %eax,%r12
   12012:	8b 85 80 ed ff ff    	mov    -0x1280(%rbp),%eax
   12018:	48 98                	cltq   
   1201a:	48 89 c6             	mov    %rax,%rsi
   1201d:	bf 01 00 00 00       	mov    $0x1,%edi
   12022:	e8 24 70 ff ff       	callq  904b <safe_sub_func_uint64_t_u_u>
   12027:	49 39 c4             	cmp    %rax,%r12
   1202a:	48 8b 85 00 ee ff ff 	mov    -0x1200(%rbp),%rax
   12031:	48 8b 00             	mov    (%rax),%rax
   12034:	48 8b 95 b8 ee ff ff 	mov    -0x1148(%rbp),%rdx
   1203b:	48 89 10             	mov    %rdx,(%rax)
   1203e:	48 8b 10             	mov    (%rax),%rdx
   12041:	48 8b 05 58 fa 00 00 	mov    0xfa58(%rip),%rax        # 21aa0 <g_631>
   12048:	48 39 c2             	cmp    %rax,%rdx
   1204b:	75 07                	jne    12054 <func_65+0x1fdc>
   1204d:	b8 01 00 00 00       	mov    $0x1,%eax
   12052:	eb 05                	jmp    12059 <func_65+0x1fe1>
   12054:	b8 00 00 00 00       	mov    $0x0,%eax
   12059:	48 98                	cltq   
   1205b:	48 89 de             	mov    %rbx,%rsi
   1205e:	48 89 c7             	mov    %rax,%rdi
   12061:	e8 4e 69 ff ff       	callq  89b4 <safe_mod_func_int64_t_s_s>
   12066:	ba 00 00 00 00       	mov    $0x0,%edx
   1206b:	8b 85 58 ef ff ff    	mov    -0x10a8(%rbp),%eax
   12071:	21 d0                	and    %edx,%eax
   12073:	89 85 58 ef ff ff    	mov    %eax,-0x10a8(%rbp)
   12079:	48 8b 85 c8 ee ff ff 	mov    -0x1138(%rbp),%rax
   12080:	48 89 85 98 ee ff ff 	mov    %rax,-0x1168(%rbp)
   12087:	48 8b 85 f8 ed ff ff 	mov    -0x1208(%rbp),%rax
   1208e:	8b 10                	mov    (%rax),%edx
   12090:	48 8b 85 f0 ec ff ff 	mov    -0x1310(%rbp),%rax
   12097:	8b 00                	mov    (%rax),%eax
   12099:	31 c2                	xor    %eax,%edx
   1209b:	48 8b 85 f8 ed ff ff 	mov    -0x1208(%rbp),%rax
   120a2:	89 10                	mov    %edx,(%rax)
   120a4:	e9 aa 02 00 00       	jmpq   12353 <func_65+0x22db>
   120a9:	66 c7 85 10 ed ff ff 	movw   $0x4310,-0x12f0(%rbp)
   120b0:	10 43 
   120b2:	48 8d 85 e0 ed ff ff 	lea    -0x1220(%rbp),%rax
   120b9:	48 89 85 a0 ef ff ff 	mov    %rax,-0x1060(%rbp)
   120c0:	48 8d 85 e0 ed ff ff 	lea    -0x1220(%rbp),%rax
   120c7:	48 89 85 a8 ef ff ff 	mov    %rax,-0x1058(%rbp)
   120ce:	48 8d 85 e0 ed ff ff 	lea    -0x1220(%rbp),%rax
   120d5:	48 89 85 b0 ef ff ff 	mov    %rax,-0x1050(%rbp)
   120dc:	48 8d 85 e0 ed ff ff 	lea    -0x1220(%rbp),%rax
   120e3:	48 89 85 b8 ef ff ff 	mov    %rax,-0x1048(%rbp)
   120ea:	48 8d 05 63 6f 00 00 	lea    0x6f63(%rip),%rax        # 19054 <g_780>
   120f1:	48 89 85 d0 f7 ff ff 	mov    %rax,-0x830(%rbp)
   120f8:	48 8d 05 55 6f 00 00 	lea    0x6f55(%rip),%rax        # 19054 <g_780>
   120ff:	48 89 85 d8 f7 ff ff 	mov    %rax,-0x828(%rbp)
   12106:	48 8d 05 47 6f 00 00 	lea    0x6f47(%rip),%rax        # 19054 <g_780>
   1210d:	48 89 85 e0 f7 ff ff 	mov    %rax,-0x820(%rbp)
   12114:	48 8d 05 39 6f 00 00 	lea    0x6f39(%rip),%rax        # 19054 <g_780>
   1211b:	48 89 85 e8 f7 ff ff 	mov    %rax,-0x818(%rbp)
   12122:	48 8d 05 2b 6f 00 00 	lea    0x6f2b(%rip),%rax        # 19054 <g_780>
   12129:	48 89 85 f0 f7 ff ff 	mov    %rax,-0x810(%rbp)
   12130:	48 8d 05 1d 6f 00 00 	lea    0x6f1d(%rip),%rax        # 19054 <g_780>
   12137:	48 89 85 f8 f7 ff ff 	mov    %rax,-0x808(%rbp)
   1213e:	48 8d 05 0f 6f 00 00 	lea    0x6f0f(%rip),%rax        # 19054 <g_780>
   12145:	48 89 85 00 f8 ff ff 	mov    %rax,-0x800(%rbp)
   1214c:	48 8d 05 01 6f 00 00 	lea    0x6f01(%rip),%rax        # 19054 <g_780>
   12153:	48 89 85 08 f8 ff ff 	mov    %rax,-0x7f8(%rbp)
   1215a:	48 8d 05 f3 6e 00 00 	lea    0x6ef3(%rip),%rax        # 19054 <g_780>
   12161:	48 89 85 10 f8 ff ff 	mov    %rax,-0x7f0(%rbp)
   12168:	48 8d 85 d0 f7 ff ff 	lea    -0x830(%rbp),%rax
   1216f:	48 83 c0 10          	add    $0x10,%rax
   12173:	48 89 85 f8 ee ff ff 	mov    %rax,-0x1108(%rbp)
   1217a:	66 c7 85 12 ed ff ff 	movw   $0x961e,-0x12ee(%rbp)
   12181:	1e 96 
   12183:	c7 85 3c ed ff ff 00 	movl   $0x0,-0x12c4(%rbp)
   1218a:	00 00 00 
   1218d:	eb 1a                	jmp    121a9 <func_65+0x2131>
   1218f:	8b 85 3c ed ff ff    	mov    -0x12c4(%rbp),%eax
   12195:	48 98                	cltq   
   12197:	c7 84 85 5c ef ff ff 	movl   $0x0,-0x10a4(%rbp,%rax,4)
   1219e:	00 00 00 00 
   121a2:	83 85 3c ed ff ff 01 	addl   $0x1,-0x12c4(%rbp)
   121a9:	83 bd 3c ed ff ff 00 	cmpl   $0x0,-0x12c4(%rbp)
   121b0:	7e dd                	jle    1218f <func_65+0x2117>
   121b2:	48 8b 85 f0 ed ff ff 	mov    -0x1210(%rbp),%rax
   121b9:	89 c2                	mov    %eax,%edx
   121bb:	48 8b 85 f8 ed ff ff 	mov    -0x1208(%rbp),%rax
   121c2:	89 10                	mov    %edx,(%rax)
   121c4:	66 83 85 10 ed ff ff 	addw   $0x1,-0x12f0(%rbp)
   121cb:	01 
   121cc:	48 8b 85 d0 ee ff ff 	mov    -0x1130(%rbp),%rax
   121d3:	0f bf d8             	movswl %ax,%ebx
   121d6:	44 8b a5 e8 ec ff ff 	mov    -0x1318(%rbp),%r12d
   121dd:	8b 85 e8 ec ff ff    	mov    -0x1318(%rbp),%eax
   121e3:	44 0f bf e8          	movswl %ax,%r13d
   121e7:	48 8b 85 f8 ee ff ff 	mov    -0x1108(%rbp),%rax
   121ee:	48 c7 00 00 00 00 00 	movq   $0x0,(%rax)
   121f5:	48 8b 85 f8 ed ff ff 	mov    -0x1208(%rbp),%rax
   121fc:	c7 00 00 00 00 00    	movl   $0x0,(%rax)
   12202:	48 8b 85 f8 ed ff ff 	mov    -0x1208(%rbp),%rax
   12209:	8b 00                	mov    (%rax),%eax
   1220b:	66 89 85 12 ed ff ff 	mov    %ax,-0x12ee(%rbp)
   12212:	48 8d 85 b0 f0 ff ff 	lea    -0xf50(%rbp),%rax
   12219:	48 89 85 a0 ee ff ff 	mov    %rax,-0x1160(%rbp)
   12220:	48 8b 05 81 f8 00 00 	mov    0xf881(%rip),%rax        # 21aa8 <g_776>
   12227:	48 89 85 38 ee ff ff 	mov    %rax,-0x11c8(%rbp)
   1222e:	48 8b 85 a0 ee ff ff 	mov    -0x1160(%rbp),%rax
   12235:	48 3b 85 38 ee ff ff 	cmp    -0x11c8(%rbp),%rax
   1223c:	0f 95 c0             	setne  %al
   1223f:	0f b6 c0             	movzbl %al,%eax
   12242:	8b 95 e8 ec ff ff    	mov    -0x1318(%rbp),%edx
   12248:	21 d0                	and    %edx,%eax
   1224a:	0f b7 c0             	movzwl %ax,%eax
   1224d:	be 00 00 00 00       	mov    $0x0,%esi
   12252:	89 c7                	mov    %eax,%edi
   12254:	e8 e4 6a ff ff       	callq  8d3d <safe_mul_func_uint16_t_u_u>
   12259:	8b 95 e8 ec ff ff    	mov    -0x1318(%rbp),%edx
   1225f:	09 d0                	or     %edx,%eax
   12261:	89 c2                	mov    %eax,%edx
   12263:	48 8b 05 3e f8 00 00 	mov    0xf83e(%rip),%rax        # 21aa8 <g_776>
   1226a:	48 8b 00             	mov    (%rax),%rax
   1226d:	21 d0                	and    %edx,%eax
   1226f:	98                   	cwtl   
   12270:	44 89 ee             	mov    %r13d,%esi
   12273:	89 c7                	mov    %eax,%edi
   12275:	e8 9c 61 ff ff       	callq  8416 <safe_mod_func_int16_t_s_s>
   1227a:	0f bf d0             	movswl %ax,%edx
   1227d:	0f b7 85 ec ec ff ff 	movzwl -0x1314(%rbp),%eax
   12284:	39 c2                	cmp    %eax,%edx
   12286:	0f 9f c0             	setg   %al
   12289:	0f b6 d0             	movzbl %al,%edx
   1228c:	8b 05 26 bf 00 00    	mov    0xbf26(%rip),%eax        # 1e1b8 <g_730>
   12292:	39 c2                	cmp    %eax,%edx
   12294:	0f 95 c0             	setne  %al
   12297:	89 c2                	mov    %eax,%edx
   12299:	48 8b 85 08 ee ff ff 	mov    -0x11f8(%rbp),%rax
   122a0:	88 10                	mov    %dl,(%rax)
   122a2:	48 8b 85 08 ee ff ff 	mov    -0x11f8(%rbp),%rax
   122a9:	0f b6 00             	movzbl (%rax),%eax
   122ac:	83 f0 23             	xor    $0x23,%eax
   122af:	0f be d0             	movsbl %al,%edx
   122b2:	8b 05 54 02 01 00    	mov    0x10254(%rip),%eax        # 2250c <g_11>
   122b8:	39 c2                	cmp    %eax,%edx
   122ba:	0f 9d c0             	setge  %al
   122bd:	0f b6 c0             	movzbl %al,%eax
   122c0:	44 89 e6             	mov    %r12d,%esi
   122c3:	89 c7                	mov    %eax,%edi
   122c5:	e8 7e 6b ff ff       	callq  8e48 <safe_rshift_func_uint16_t_u_s>
   122ca:	0f be c0             	movsbl %al,%eax
   122cd:	be 66 00 00 00       	mov    $0x66,%esi
   122d2:	89 c7                	mov    %eax,%edi
   122d4:	e8 58 5f ff ff       	callq  8231 <safe_mod_func_int8_t_s_s>
   122d9:	3c f6                	cmp    $0xf6,%al
   122db:	0f 9d c0             	setge  %al
   122de:	0f b6 d0             	movzbl %al,%edx
   122e1:	8b 05 91 bd 00 00    	mov    0xbd91(%rip),%eax        # 1e078 <g_6>
   122e7:	31 d0                	xor    %edx,%eax
   122e9:	48 63 d0             	movslq %eax,%rdx
   122ec:	48 8b 85 f8 ec ff ff 	mov    -0x1308(%rbp),%rax
   122f3:	48 39 c2             	cmp    %rax,%rdx
   122f6:	0f 94 c0             	sete   %al
   122f9:	0f b6 c0             	movzbl %al,%eax
   122fc:	be 03 00 00 00       	mov    $0x3,%esi
   12301:	89 c7                	mov    %eax,%edi
   12303:	e8 fd 68 ff ff       	callq  8c05 <safe_lshift_func_uint8_t_u_s>
   12308:	be 0d 00 00 00       	mov    $0xd,%esi
   1230d:	bf 00 00 00 00       	mov    $0x0,%edi
   12312:	e8 a7 6a ff ff       	callq  8dbe <safe_lshift_func_uint16_t_u_s>
   12317:	66 85 c0             	test   %ax,%ax
   1231a:	75 0a                	jne    12326 <func_65+0x22ae>
   1231c:	66 83 bd 10 ed ff ff 	cmpw   $0x0,-0x12f0(%rbp)
   12323:	00 
   12324:	74 07                	je     1232d <func_65+0x22b5>
   12326:	b8 01 00 00 00       	mov    $0x1,%eax
   1232b:	eb 05                	jmp    12332 <func_65+0x22ba>
   1232d:	b8 00 00 00 00       	mov    $0x0,%eax
   12332:	98                   	cwtl   
   12333:	89 de                	mov    %ebx,%esi
   12335:	89 c7                	mov    %eax,%edi
   12337:	e8 97 60 ff ff       	callq  83d3 <safe_sub_func_int16_t_s_s>
   1233c:	48 8b 05 15 f7 00 00 	mov    0xf715(%rip),%rax        # 21a58 <g_214>
   12343:	8b 10                	mov    (%rax),%edx
   12345:	8b 85 5c ef ff ff    	mov    -0x10a4(%rbp),%eax
   1234b:	21 d0                	and    %edx,%eax
   1234d:	89 85 5c ef ff ff    	mov    %eax,-0x10a4(%rbp)
   12353:	83 85 24 ed ff ff 01 	addl   $0x1,-0x12dc(%rbp)
   1235a:	83 bd 24 ed ff ff 03 	cmpl   $0x3,-0x12dc(%rbp)
   12361:	0f 8e bb f6 ff ff    	jle    11a22 <func_65+0x19aa>
   12367:	c6 85 09 ed ff ff 02 	movb   $0x2,-0x12f7(%rbp)
   1236e:	e9 b4 0e 00 00       	jmpq   13227 <func_65+0x31af>
   12373:	48 8d 05 db bc 00 00 	lea    0xbcdb(%rip),%rax        # 1e055 <g_5+0x15>
   1237a:	48 89 85 d8 ee ff ff 	mov    %rax,-0x1128(%rbp)
   12381:	c7 85 60 ed ff ff ff 	movl   $0xffffffff,-0x12a0(%rbp)
   12388:	ff ff ff 
   1238b:	48 8d 85 09 ed ff ff 	lea    -0x12f7(%rbp),%rax
   12392:	48 89 85 d0 f7 ff ff 	mov    %rax,-0x830(%rbp)
   12399:	48 c7 85 d8 f7 ff ff 	movq   $0x0,-0x828(%rbp)
   123a0:	00 00 00 00 
   123a4:	48 c7 85 e0 f7 ff ff 	movq   $0x0,-0x820(%rbp)
   123ab:	00 00 00 00 
   123af:	48 8d 85 09 ed ff ff 	lea    -0x12f7(%rbp),%rax
   123b6:	48 89 85 e8 f7 ff ff 	mov    %rax,-0x818(%rbp)
   123bd:	48 8d 85 0b ed ff ff 	lea    -0x12f5(%rbp),%rax
   123c4:	48 89 85 f0 f7 ff ff 	mov    %rax,-0x810(%rbp)
   123cb:	48 8d 85 08 ed ff ff 	lea    -0x12f8(%rbp),%rax
   123d2:	48 89 85 f8 f7 ff ff 	mov    %rax,-0x808(%rbp)
   123d9:	48 8d 85 08 ed ff ff 	lea    -0x12f8(%rbp),%rax
   123e0:	48 89 85 00 f8 ff ff 	mov    %rax,-0x800(%rbp)
   123e7:	48 c7 85 08 f8 ff ff 	movq   $0x0,-0x7f8(%rbp)
   123ee:	00 00 00 00 
   123f2:	48 8d 85 08 ed ff ff 	lea    -0x12f8(%rbp),%rax
   123f9:	48 89 85 10 f8 ff ff 	mov    %rax,-0x7f0(%rbp)
   12400:	48 8d 85 0b ed ff ff 	lea    -0x12f5(%rbp),%rax
   12407:	48 89 85 18 f8 ff ff 	mov    %rax,-0x7e8(%rbp)
   1240e:	48 8d 85 09 ed ff ff 	lea    -0x12f7(%rbp),%rax
   12415:	48 89 85 20 f8 ff ff 	mov    %rax,-0x7e0(%rbp)
   1241c:	48 8d 85 0b ed ff ff 	lea    -0x12f5(%rbp),%rax
   12423:	48 89 85 28 f8 ff ff 	mov    %rax,-0x7d8(%rbp)
   1242a:	48 8d 85 0b ed ff ff 	lea    -0x12f5(%rbp),%rax
   12431:	48 89 85 30 f8 ff ff 	mov    %rax,-0x7d0(%rbp)
   12438:	48 8d 85 0b ed ff ff 	lea    -0x12f5(%rbp),%rax
   1243f:	48 89 85 38 f8 ff ff 	mov    %rax,-0x7c8(%rbp)
   12446:	48 8d 85 08 ed ff ff 	lea    -0x12f8(%rbp),%rax
   1244d:	48 89 85 40 f8 ff ff 	mov    %rax,-0x7c0(%rbp)
   12454:	48 8d 85 0b ed ff ff 	lea    -0x12f5(%rbp),%rax
   1245b:	48 89 85 48 f8 ff ff 	mov    %rax,-0x7b8(%rbp)
   12462:	48 c7 85 50 f8 ff ff 	movq   $0x0,-0x7b0(%rbp)
   12469:	00 00 00 00 
   1246d:	48 c7 85 58 f8 ff ff 	movq   $0x0,-0x7a8(%rbp)
   12474:	00 00 00 00 
   12478:	48 8d 85 0b ed ff ff 	lea    -0x12f5(%rbp),%rax
   1247f:	48 89 85 60 f8 ff ff 	mov    %rax,-0x7a0(%rbp)
   12486:	48 8d 85 09 ed ff ff 	lea    -0x12f7(%rbp),%rax
   1248d:	48 89 85 68 f8 ff ff 	mov    %rax,-0x798(%rbp)
   12494:	48 c7 85 70 f8 ff ff 	movq   $0x0,-0x790(%rbp)
   1249b:	00 00 00 00 
   1249f:	48 8d 85 08 ed ff ff 	lea    -0x12f8(%rbp),%rax
   124a6:	48 89 85 78 f8 ff ff 	mov    %rax,-0x788(%rbp)
   124ad:	48 8d 85 0a ed ff ff 	lea    -0x12f6(%rbp),%rax
   124b4:	48 89 85 80 f8 ff ff 	mov    %rax,-0x780(%rbp)
   124bb:	48 8d 85 0a ed ff ff 	lea    -0x12f6(%rbp),%rax
   124c2:	48 89 85 88 f8 ff ff 	mov    %rax,-0x778(%rbp)
   124c9:	48 8d 85 08 ed ff ff 	lea    -0x12f8(%rbp),%rax
   124d0:	48 89 85 90 f8 ff ff 	mov    %rax,-0x770(%rbp)
   124d7:	48 8d 85 09 ed ff ff 	lea    -0x12f7(%rbp),%rax
   124de:	48 89 85 98 f8 ff ff 	mov    %rax,-0x768(%rbp)
   124e5:	48 8d 85 08 ed ff ff 	lea    -0x12f8(%rbp),%rax
   124ec:	48 89 85 a0 f8 ff ff 	mov    %rax,-0x760(%rbp)
   124f3:	48 8d 85 0a ed ff ff 	lea    -0x12f6(%rbp),%rax
   124fa:	48 89 85 a8 f8 ff ff 	mov    %rax,-0x758(%rbp)
   12501:	48 8d 85 09 ed ff ff 	lea    -0x12f7(%rbp),%rax
   12508:	48 89 85 b0 f8 ff ff 	mov    %rax,-0x750(%rbp)
   1250f:	48 8d 85 08 ed ff ff 	lea    -0x12f8(%rbp),%rax
   12516:	48 89 85 b8 f8 ff ff 	mov    %rax,-0x748(%rbp)
   1251d:	48 8d 85 0b ed ff ff 	lea    -0x12f5(%rbp),%rax
   12524:	48 89 85 c0 f8 ff ff 	mov    %rax,-0x740(%rbp)
   1252b:	48 8d 85 08 ed ff ff 	lea    -0x12f8(%rbp),%rax
   12532:	48 89 85 c8 f8 ff ff 	mov    %rax,-0x738(%rbp)
   12539:	48 8d 85 0a ed ff ff 	lea    -0x12f6(%rbp),%rax
   12540:	48 89 85 d0 f8 ff ff 	mov    %rax,-0x730(%rbp)
   12547:	48 8d 85 0a ed ff ff 	lea    -0x12f6(%rbp),%rax
   1254e:	48 89 85 d8 f8 ff ff 	mov    %rax,-0x728(%rbp)
   12555:	48 8d 85 0a ed ff ff 	lea    -0x12f6(%rbp),%rax
   1255c:	48 89 85 e0 f8 ff ff 	mov    %rax,-0x720(%rbp)
   12563:	48 8d 85 0b ed ff ff 	lea    -0x12f5(%rbp),%rax
   1256a:	48 89 85 e8 f8 ff ff 	mov    %rax,-0x718(%rbp)
   12571:	48 8d 85 08 ed ff ff 	lea    -0x12f8(%rbp),%rax
   12578:	48 89 85 f0 f8 ff ff 	mov    %rax,-0x710(%rbp)
   1257f:	48 8d 85 09 ed ff ff 	lea    -0x12f7(%rbp),%rax
   12586:	48 89 85 f8 f8 ff ff 	mov    %rax,-0x708(%rbp)
   1258d:	48 8d 85 0b ed ff ff 	lea    -0x12f5(%rbp),%rax
   12594:	48 89 85 00 f9 ff ff 	mov    %rax,-0x700(%rbp)
   1259b:	48 8d 85 08 ed ff ff 	lea    -0x12f8(%rbp),%rax
   125a2:	48 89 85 08 f9 ff ff 	mov    %rax,-0x6f8(%rbp)
   125a9:	48 8d 85 0b ed ff ff 	lea    -0x12f5(%rbp),%rax
   125b0:	48 89 85 10 f9 ff ff 	mov    %rax,-0x6f0(%rbp)
   125b7:	48 c7 85 18 f9 ff ff 	movq   $0x0,-0x6e8(%rbp)
   125be:	00 00 00 00 
   125c2:	48 8d 85 09 ed ff ff 	lea    -0x12f7(%rbp),%rax
   125c9:	48 89 85 20 f9 ff ff 	mov    %rax,-0x6e0(%rbp)
   125d0:	48 8d 85 0b ed ff ff 	lea    -0x12f5(%rbp),%rax
   125d7:	48 89 85 28 f9 ff ff 	mov    %rax,-0x6d8(%rbp)
   125de:	48 8d 85 0b ed ff ff 	lea    -0x12f5(%rbp),%rax
   125e5:	48 89 85 30 f9 ff ff 	mov    %rax,-0x6d0(%rbp)
   125ec:	48 8d 85 0a ed ff ff 	lea    -0x12f6(%rbp),%rax
   125f3:	48 89 85 38 f9 ff ff 	mov    %rax,-0x6c8(%rbp)
   125fa:	48 8d 85 0b ed ff ff 	lea    -0x12f5(%rbp),%rax
   12601:	48 89 85 40 f9 ff ff 	mov    %rax,-0x6c0(%rbp)
   12608:	48 8d 85 0b ed ff ff 	lea    -0x12f5(%rbp),%rax
   1260f:	48 89 85 48 f9 ff ff 	mov    %rax,-0x6b8(%rbp)
   12616:	48 8d 85 08 ed ff ff 	lea    -0x12f8(%rbp),%rax
   1261d:	48 89 85 50 f9 ff ff 	mov    %rax,-0x6b0(%rbp)
   12624:	48 8d 85 0a ed ff ff 	lea    -0x12f6(%rbp),%rax
   1262b:	48 89 85 58 f9 ff ff 	mov    %rax,-0x6a8(%rbp)
   12632:	48 8d 85 08 ed ff ff 	lea    -0x12f8(%rbp),%rax
   12639:	48 89 85 60 f9 ff ff 	mov    %rax,-0x6a0(%rbp)
   12640:	48 8d 85 08 ed ff ff 	lea    -0x12f8(%rbp),%rax
   12647:	48 89 85 68 f9 ff ff 	mov    %rax,-0x698(%rbp)
   1264e:	48 8d 85 0a ed ff ff 	lea    -0x12f6(%rbp),%rax
   12655:	48 89 85 70 f9 ff ff 	mov    %rax,-0x690(%rbp)
   1265c:	48 8d 85 09 ed ff ff 	lea    -0x12f7(%rbp),%rax
   12663:	48 89 85 78 f9 ff ff 	mov    %rax,-0x688(%rbp)
   1266a:	48 8d 85 08 ed ff ff 	lea    -0x12f8(%rbp),%rax
   12671:	48 89 85 80 f9 ff ff 	mov    %rax,-0x680(%rbp)
   12678:	48 8d 85 0a ed ff ff 	lea    -0x12f6(%rbp),%rax
   1267f:	48 89 85 88 f9 ff ff 	mov    %rax,-0x678(%rbp)
   12686:	48 8d 85 09 ed ff ff 	lea    -0x12f7(%rbp),%rax
   1268d:	48 89 85 90 f9 ff ff 	mov    %rax,-0x670(%rbp)
   12694:	48 8d 85 0b ed ff ff 	lea    -0x12f5(%rbp),%rax
   1269b:	48 89 85 98 f9 ff ff 	mov    %rax,-0x668(%rbp)
   126a2:	48 8d 85 09 ed ff ff 	lea    -0x12f7(%rbp),%rax
   126a9:	48 89 85 a0 f9 ff ff 	mov    %rax,-0x660(%rbp)
   126b0:	48 8d 85 0b ed ff ff 	lea    -0x12f5(%rbp),%rax
   126b7:	48 89 85 a8 f9 ff ff 	mov    %rax,-0x658(%rbp)
   126be:	48 8d 85 08 ed ff ff 	lea    -0x12f8(%rbp),%rax
   126c5:	48 89 85 b0 f9 ff ff 	mov    %rax,-0x650(%rbp)
   126cc:	48 8d 85 0a ed ff ff 	lea    -0x12f6(%rbp),%rax
   126d3:	48 89 85 b8 f9 ff ff 	mov    %rax,-0x648(%rbp)
   126da:	48 8d 85 0a ed ff ff 	lea    -0x12f6(%rbp),%rax
   126e1:	48 89 85 c0 f9 ff ff 	mov    %rax,-0x640(%rbp)
   126e8:	48 c7 85 c8 f9 ff ff 	movq   $0x0,-0x638(%rbp)
   126ef:	00 00 00 00 
   126f3:	48 8d 85 0a ed ff ff 	lea    -0x12f6(%rbp),%rax
   126fa:	48 89 85 d0 f9 ff ff 	mov    %rax,-0x630(%rbp)
   12701:	48 8d 85 08 ed ff ff 	lea    -0x12f8(%rbp),%rax
   12708:	48 89 85 d8 f9 ff ff 	mov    %rax,-0x628(%rbp)
   1270f:	48 8d 85 0b ed ff ff 	lea    -0x12f5(%rbp),%rax
   12716:	48 89 85 e0 f9 ff ff 	mov    %rax,-0x620(%rbp)
   1271d:	48 8d 85 0b ed ff ff 	lea    -0x12f5(%rbp),%rax
   12724:	48 89 85 e8 f9 ff ff 	mov    %rax,-0x618(%rbp)
   1272b:	48 8d 85 0b ed ff ff 	lea    -0x12f5(%rbp),%rax
   12732:	48 89 85 f0 f9 ff ff 	mov    %rax,-0x610(%rbp)
   12739:	48 8d 85 08 ed ff ff 	lea    -0x12f8(%rbp),%rax
   12740:	48 89 85 f8 f9 ff ff 	mov    %rax,-0x608(%rbp)
   12747:	48 8d 85 0b ed ff ff 	lea    -0x12f5(%rbp),%rax
   1274e:	48 89 85 00 fa ff ff 	mov    %rax,-0x600(%rbp)
   12755:	48 8d 85 0a ed ff ff 	lea    -0x12f6(%rbp),%rax
   1275c:	48 89 85 08 fa ff ff 	mov    %rax,-0x5f8(%rbp)
   12763:	48 8d 85 0a ed ff ff 	lea    -0x12f6(%rbp),%rax
   1276a:	48 89 85 10 fa ff ff 	mov    %rax,-0x5f0(%rbp)
   12771:	48 8d 85 09 ed ff ff 	lea    -0x12f7(%rbp),%rax
   12778:	48 89 85 18 fa ff ff 	mov    %rax,-0x5e8(%rbp)
   1277f:	48 8d 85 0b ed ff ff 	lea    -0x12f5(%rbp),%rax
   12786:	48 89 85 20 fa ff ff 	mov    %rax,-0x5e0(%rbp)
   1278d:	48 8d 85 0a ed ff ff 	lea    -0x12f6(%rbp),%rax
   12794:	48 89 85 28 fa ff ff 	mov    %rax,-0x5d8(%rbp)
   1279b:	48 8d 85 0b ed ff ff 	lea    -0x12f5(%rbp),%rax
   127a2:	48 89 85 30 fa ff ff 	mov    %rax,-0x5d0(%rbp)
   127a9:	48 c7 85 38 fa ff ff 	movq   $0x0,-0x5c8(%rbp)
   127b0:	00 00 00 00 
   127b4:	48 8d 85 09 ed ff ff 	lea    -0x12f7(%rbp),%rax
   127bb:	48 89 85 40 fa ff ff 	mov    %rax,-0x5c0(%rbp)
   127c2:	48 8d 85 0b ed ff ff 	lea    -0x12f5(%rbp),%rax
   127c9:	48 89 85 48 fa ff ff 	mov    %rax,-0x5b8(%rbp)
   127d0:	48 8d 85 08 ed ff ff 	lea    -0x12f8(%rbp),%rax
   127d7:	48 89 85 50 fa ff ff 	mov    %rax,-0x5b0(%rbp)
   127de:	48 8d 85 09 ed ff ff 	lea    -0x12f7(%rbp),%rax
   127e5:	48 89 85 58 fa ff ff 	mov    %rax,-0x5a8(%rbp)
   127ec:	48 8d 85 08 ed ff ff 	lea    -0x12f8(%rbp),%rax
   127f3:	48 89 85 60 fa ff ff 	mov    %rax,-0x5a0(%rbp)
   127fa:	48 8d 85 08 ed ff ff 	lea    -0x12f8(%rbp),%rax
   12801:	48 89 85 68 fa ff ff 	mov    %rax,-0x598(%rbp)
   12808:	48 8d 85 0b ed ff ff 	lea    -0x12f5(%rbp),%rax
   1280f:	48 89 85 70 fa ff ff 	mov    %rax,-0x590(%rbp)
   12816:	48 8d 85 08 ed ff ff 	lea    -0x12f8(%rbp),%rax
   1281d:	48 89 85 78 fa ff ff 	mov    %rax,-0x588(%rbp)
   12824:	48 8d 85 09 ed ff ff 	lea    -0x12f7(%rbp),%rax
   1282b:	48 89 85 80 fa ff ff 	mov    %rax,-0x580(%rbp)
   12832:	48 c7 85 88 fa ff ff 	movq   $0x0,-0x578(%rbp)
   12839:	00 00 00 00 
   1283d:	48 8d 85 0b ed ff ff 	lea    -0x12f5(%rbp),%rax
   12844:	48 89 85 90 fa ff ff 	mov    %rax,-0x570(%rbp)
   1284b:	48 8d 85 08 ed ff ff 	lea    -0x12f8(%rbp),%rax
   12852:	48 89 85 98 fa ff ff 	mov    %rax,-0x568(%rbp)
   12859:	48 8d 85 08 ed ff ff 	lea    -0x12f8(%rbp),%rax
   12860:	48 89 85 a0 fa ff ff 	mov    %rax,-0x560(%rbp)
   12867:	48 8d 85 0b ed ff ff 	lea    -0x12f5(%rbp),%rax
   1286e:	48 89 85 a8 fa ff ff 	mov    %rax,-0x558(%rbp)
   12875:	48 8d 85 0b ed ff ff 	lea    -0x12f5(%rbp),%rax
   1287c:	48 89 85 b0 fa ff ff 	mov    %rax,-0x550(%rbp)
   12883:	48 c7 85 b8 fa ff ff 	movq   $0x0,-0x548(%rbp)
   1288a:	00 00 00 00 
   1288e:	48 8d 85 0b ed ff ff 	lea    -0x12f5(%rbp),%rax
   12895:	48 89 85 c0 fa ff ff 	mov    %rax,-0x540(%rbp)
   1289c:	48 8d 85 0b ed ff ff 	lea    -0x12f5(%rbp),%rax
   128a3:	48 89 85 c8 fa ff ff 	mov    %rax,-0x538(%rbp)
   128aa:	48 8d 85 0a ed ff ff 	lea    -0x12f6(%rbp),%rax
   128b1:	48 89 85 d0 fa ff ff 	mov    %rax,-0x530(%rbp)
   128b8:	48 8d 85 0b ed ff ff 	lea    -0x12f5(%rbp),%rax
   128bf:	48 89 85 d8 fa ff ff 	mov    %rax,-0x528(%rbp)
   128c6:	48 8d 85 08 ed ff ff 	lea    -0x12f8(%rbp),%rax
   128cd:	48 89 85 e0 fa ff ff 	mov    %rax,-0x520(%rbp)
   128d4:	48 8d 85 0a ed ff ff 	lea    -0x12f6(%rbp),%rax
   128db:	48 89 85 e8 fa ff ff 	mov    %rax,-0x518(%rbp)
   128e2:	48 8d 85 0b ed ff ff 	lea    -0x12f5(%rbp),%rax
   128e9:	48 89 85 f0 fa ff ff 	mov    %rax,-0x510(%rbp)
   128f0:	48 8d 85 0b ed ff ff 	lea    -0x12f5(%rbp),%rax
   128f7:	48 89 85 f8 fa ff ff 	mov    %rax,-0x508(%rbp)
   128fe:	48 8d 85 09 ed ff ff 	lea    -0x12f7(%rbp),%rax
   12905:	48 89 85 00 fb ff ff 	mov    %rax,-0x500(%rbp)
   1290c:	48 8d 85 0b ed ff ff 	lea    -0x12f5(%rbp),%rax
   12913:	48 89 85 08 fb ff ff 	mov    %rax,-0x4f8(%rbp)
   1291a:	48 8d 85 0a ed ff ff 	lea    -0x12f6(%rbp),%rax
   12921:	48 89 85 10 fb ff ff 	mov    %rax,-0x4f0(%rbp)
   12928:	48 c7 85 18 fb ff ff 	movq   $0x0,-0x4e8(%rbp)
   1292f:	00 00 00 00 
   12933:	48 8d 85 0a ed ff ff 	lea    -0x12f6(%rbp),%rax
   1293a:	48 89 85 20 fb ff ff 	mov    %rax,-0x4e0(%rbp)
   12941:	48 8d 85 09 ed ff ff 	lea    -0x12f7(%rbp),%rax
   12948:	48 89 85 28 fb ff ff 	mov    %rax,-0x4d8(%rbp)
   1294f:	48 8d 85 0a ed ff ff 	lea    -0x12f6(%rbp),%rax
   12956:	48 89 85 30 fb ff ff 	mov    %rax,-0x4d0(%rbp)
   1295d:	48 8d 85 0b ed ff ff 	lea    -0x12f5(%rbp),%rax
   12964:	48 89 85 38 fb ff ff 	mov    %rax,-0x4c8(%rbp)
   1296b:	48 c7 85 40 fb ff ff 	movq   $0x0,-0x4c0(%rbp)
   12972:	00 00 00 00 
   12976:	48 8d 85 09 ed ff ff 	lea    -0x12f7(%rbp),%rax
   1297d:	48 89 85 48 fb ff ff 	mov    %rax,-0x4b8(%rbp)
   12984:	48 8d 85 09 ed ff ff 	lea    -0x12f7(%rbp),%rax
   1298b:	48 89 85 50 fb ff ff 	mov    %rax,-0x4b0(%rbp)
   12992:	48 c7 85 58 fb ff ff 	movq   $0x0,-0x4a8(%rbp)
   12999:	00 00 00 00 
   1299d:	48 8d 85 09 ed ff ff 	lea    -0x12f7(%rbp),%rax
   129a4:	48 89 85 60 fb ff ff 	mov    %rax,-0x4a0(%rbp)
   129ab:	48 8d 85 0a ed ff ff 	lea    -0x12f6(%rbp),%rax
   129b2:	48 89 85 68 fb ff ff 	mov    %rax,-0x498(%rbp)
   129b9:	48 8d 85 08 ed ff ff 	lea    -0x12f8(%rbp),%rax
   129c0:	48 89 85 70 fb ff ff 	mov    %rax,-0x490(%rbp)
   129c7:	48 c7 85 78 fb ff ff 	movq   $0x0,-0x488(%rbp)
   129ce:	00 00 00 00 
   129d2:	48 8d 85 09 ed ff ff 	lea    -0x12f7(%rbp),%rax
   129d9:	48 89 85 80 fb ff ff 	mov    %rax,-0x480(%rbp)
   129e0:	48 8d 85 0b ed ff ff 	lea    -0x12f5(%rbp),%rax
   129e7:	48 89 85 88 fb ff ff 	mov    %rax,-0x478(%rbp)
   129ee:	48 8d 85 09 ed ff ff 	lea    -0x12f7(%rbp),%rax
   129f5:	48 89 85 90 fb ff ff 	mov    %rax,-0x470(%rbp)
   129fc:	48 8d 85 0b ed ff ff 	lea    -0x12f5(%rbp),%rax
   12a03:	48 89 85 98 fb ff ff 	mov    %rax,-0x468(%rbp)
   12a0a:	48 8d 85 0a ed ff ff 	lea    -0x12f6(%rbp),%rax
   12a11:	48 89 85 a0 fb ff ff 	mov    %rax,-0x460(%rbp)
   12a18:	48 8d 85 0b ed ff ff 	lea    -0x12f5(%rbp),%rax
   12a1f:	48 89 85 a8 fb ff ff 	mov    %rax,-0x458(%rbp)
   12a26:	48 8d 85 0b ed ff ff 	lea    -0x12f5(%rbp),%rax
   12a2d:	48 89 85 b0 fb ff ff 	mov    %rax,-0x450(%rbp)
   12a34:	48 8d 85 08 ed ff ff 	lea    -0x12f8(%rbp),%rax
   12a3b:	48 89 85 b8 fb ff ff 	mov    %rax,-0x448(%rbp)
   12a42:	48 c7 85 c0 fb ff ff 	movq   $0x0,-0x440(%rbp)
   12a49:	00 00 00 00 
   12a4d:	48 c7 85 c8 fb ff ff 	movq   $0x0,-0x438(%rbp)
   12a54:	00 00 00 00 
   12a58:	48 c7 85 d0 fb ff ff 	movq   $0x0,-0x430(%rbp)
   12a5f:	00 00 00 00 
   12a63:	48 8d 85 08 ed ff ff 	lea    -0x12f8(%rbp),%rax
   12a6a:	48 89 85 d8 fb ff ff 	mov    %rax,-0x428(%rbp)
   12a71:	48 8d 85 09 ed ff ff 	lea    -0x12f7(%rbp),%rax
   12a78:	48 89 85 e0 fb ff ff 	mov    %rax,-0x420(%rbp)
   12a7f:	48 8d 85 08 ed ff ff 	lea    -0x12f8(%rbp),%rax
   12a86:	48 89 85 e8 fb ff ff 	mov    %rax,-0x418(%rbp)
   12a8d:	48 8d 85 0a ed ff ff 	lea    -0x12f6(%rbp),%rax
   12a94:	48 89 85 f0 fb ff ff 	mov    %rax,-0x410(%rbp)
   12a9b:	48 8d 85 0b ed ff ff 	lea    -0x12f5(%rbp),%rax
   12aa2:	48 89 85 f8 fb ff ff 	mov    %rax,-0x408(%rbp)
   12aa9:	48 8d 85 08 ed ff ff 	lea    -0x12f8(%rbp),%rax
   12ab0:	48 89 85 00 fc ff ff 	mov    %rax,-0x400(%rbp)
   12ab7:	48 8d 85 09 ed ff ff 	lea    -0x12f7(%rbp),%rax
   12abe:	48 89 85 08 fc ff ff 	mov    %rax,-0x3f8(%rbp)
   12ac5:	48 8d 85 08 ed ff ff 	lea    -0x12f8(%rbp),%rax
   12acc:	48 89 85 10 fc ff ff 	mov    %rax,-0x3f0(%rbp)
   12ad3:	48 8d 85 08 ed ff ff 	lea    -0x12f8(%rbp),%rax
   12ada:	48 89 85 18 fc ff ff 	mov    %rax,-0x3e8(%rbp)
   12ae1:	48 8d 85 08 ed ff ff 	lea    -0x12f8(%rbp),%rax
   12ae8:	48 89 85 20 fc ff ff 	mov    %rax,-0x3e0(%rbp)
   12aef:	48 8d 85 09 ed ff ff 	lea    -0x12f7(%rbp),%rax
   12af6:	48 89 85 28 fc ff ff 	mov    %rax,-0x3d8(%rbp)
   12afd:	48 8d 85 08 ed ff ff 	lea    -0x12f8(%rbp),%rax
   12b04:	48 89 85 30 fc ff ff 	mov    %rax,-0x3d0(%rbp)
   12b0b:	48 8d 85 08 ed ff ff 	lea    -0x12f8(%rbp),%rax
   12b12:	48 89 85 38 fc ff ff 	mov    %rax,-0x3c8(%rbp)
   12b19:	48 c7 85 40 fc ff ff 	movq   $0x0,-0x3c0(%rbp)
   12b20:	00 00 00 00 
   12b24:	48 8d 85 08 ed ff ff 	lea    -0x12f8(%rbp),%rax
   12b2b:	48 89 85 48 fc ff ff 	mov    %rax,-0x3b8(%rbp)
   12b32:	48 8d 85 08 ed ff ff 	lea    -0x12f8(%rbp),%rax
   12b39:	48 89 85 50 fc ff ff 	mov    %rax,-0x3b0(%rbp)
   12b40:	48 8d 85 0b ed ff ff 	lea    -0x12f5(%rbp),%rax
   12b47:	48 89 85 58 fc ff ff 	mov    %rax,-0x3a8(%rbp)
   12b4e:	48 8d 85 08 ed ff ff 	lea    -0x12f8(%rbp),%rax
   12b55:	48 89 85 60 fc ff ff 	mov    %rax,-0x3a0(%rbp)
   12b5c:	48 8d 85 0b ed ff ff 	lea    -0x12f5(%rbp),%rax
   12b63:	48 89 85 68 fc ff ff 	mov    %rax,-0x398(%rbp)
   12b6a:	48 c7 85 70 fc ff ff 	movq   $0x0,-0x390(%rbp)
   12b71:	00 00 00 00 
   12b75:	48 8d 85 08 ed ff ff 	lea    -0x12f8(%rbp),%rax
   12b7c:	48 89 85 78 fc ff ff 	mov    %rax,-0x388(%rbp)
   12b83:	48 8d 85 08 ed ff ff 	lea    -0x12f8(%rbp),%rax
   12b8a:	48 89 85 80 fc ff ff 	mov    %rax,-0x380(%rbp)
   12b91:	48 c7 85 88 fc ff ff 	movq   $0x0,-0x378(%rbp)
   12b98:	00 00 00 00 
   12b9c:	48 8d 85 09 ed ff ff 	lea    -0x12f7(%rbp),%rax
   12ba3:	48 89 85 90 fc ff ff 	mov    %rax,-0x370(%rbp)
   12baa:	48 8d 85 08 ed ff ff 	lea    -0x12f8(%rbp),%rax
   12bb1:	48 89 85 98 fc ff ff 	mov    %rax,-0x368(%rbp)
   12bb8:	48 8d 85 0b ed ff ff 	lea    -0x12f5(%rbp),%rax
   12bbf:	48 89 85 a0 fc ff ff 	mov    %rax,-0x360(%rbp)
   12bc6:	48 8d 85 08 ed ff ff 	lea    -0x12f8(%rbp),%rax
   12bcd:	48 89 85 a8 fc ff ff 	mov    %rax,-0x358(%rbp)
   12bd4:	48 8d 85 0b ed ff ff 	lea    -0x12f5(%rbp),%rax
   12bdb:	48 89 85 b0 fc ff ff 	mov    %rax,-0x350(%rbp)
   12be2:	48 c7 85 b8 fc ff ff 	movq   $0x0,-0x348(%rbp)
   12be9:	00 00 00 00 
   12bed:	48 8d 85 08 ed ff ff 	lea    -0x12f8(%rbp),%rax
   12bf4:	48 89 85 c0 fc ff ff 	mov    %rax,-0x340(%rbp)
   12bfb:	48 8d 85 0b ed ff ff 	lea    -0x12f5(%rbp),%rax
   12c02:	48 89 85 c8 fc ff ff 	mov    %rax,-0x338(%rbp)
   12c09:	48 8d 85 0b ed ff ff 	lea    -0x12f5(%rbp),%rax
   12c10:	48 89 85 d0 fc ff ff 	mov    %rax,-0x330(%rbp)
   12c17:	48 8d 85 08 ed ff ff 	lea    -0x12f8(%rbp),%rax
   12c1e:	48 89 85 d8 fc ff ff 	mov    %rax,-0x328(%rbp)
   12c25:	48 8d 85 09 ed ff ff 	lea    -0x12f7(%rbp),%rax
   12c2c:	48 89 85 e0 fc ff ff 	mov    %rax,-0x320(%rbp)
   12c33:	48 8d 85 0a ed ff ff 	lea    -0x12f6(%rbp),%rax
   12c3a:	48 89 85 e8 fc ff ff 	mov    %rax,-0x318(%rbp)
   12c41:	48 8d 85 09 ed ff ff 	lea    -0x12f7(%rbp),%rax
   12c48:	48 89 85 f0 fc ff ff 	mov    %rax,-0x310(%rbp)
   12c4f:	48 8d 85 08 ed ff ff 	lea    -0x12f8(%rbp),%rax
   12c56:	48 89 85 f8 fc ff ff 	mov    %rax,-0x308(%rbp)
   12c5d:	48 c7 85 00 fd ff ff 	movq   $0x0,-0x300(%rbp)
   12c64:	00 00 00 00 
   12c68:	48 8d 85 0a ed ff ff 	lea    -0x12f6(%rbp),%rax
   12c6f:	48 89 85 08 fd ff ff 	mov    %rax,-0x2f8(%rbp)
   12c76:	48 8d 85 0b ed ff ff 	lea    -0x12f5(%rbp),%rax
   12c7d:	48 89 85 10 fd ff ff 	mov    %rax,-0x2f0(%rbp)
   12c84:	48 8d 85 0b ed ff ff 	lea    -0x12f5(%rbp),%rax
   12c8b:	48 89 85 18 fd ff ff 	mov    %rax,-0x2e8(%rbp)
   12c92:	48 c7 85 20 fd ff ff 	movq   $0x0,-0x2e0(%rbp)
   12c99:	00 00 00 00 
   12c9d:	48 c7 85 28 fd ff ff 	movq   $0x0,-0x2d8(%rbp)
   12ca4:	00 00 00 00 
   12ca8:	48 8d 85 0a ed ff ff 	lea    -0x12f6(%rbp),%rax
   12caf:	48 89 85 30 fd ff ff 	mov    %rax,-0x2d0(%rbp)
   12cb6:	48 8d 85 0b ed ff ff 	lea    -0x12f5(%rbp),%rax
   12cbd:	48 89 85 38 fd ff ff 	mov    %rax,-0x2c8(%rbp)
   12cc4:	48 8d 85 0a ed ff ff 	lea    -0x12f6(%rbp),%rax
   12ccb:	48 89 85 40 fd ff ff 	mov    %rax,-0x2c0(%rbp)
   12cd2:	48 8d 85 09 ed ff ff 	lea    -0x12f7(%rbp),%rax
   12cd9:	48 89 85 48 fd ff ff 	mov    %rax,-0x2b8(%rbp)
   12ce0:	48 8d 85 0b ed ff ff 	lea    -0x12f5(%rbp),%rax
   12ce7:	48 89 85 50 fd ff ff 	mov    %rax,-0x2b0(%rbp)
   12cee:	48 8d 85 0a ed ff ff 	lea    -0x12f6(%rbp),%rax
   12cf5:	48 89 85 58 fd ff ff 	mov    %rax,-0x2a8(%rbp)
   12cfc:	48 8d 85 0b ed ff ff 	lea    -0x12f5(%rbp),%rax
   12d03:	48 89 85 60 fd ff ff 	mov    %rax,-0x2a0(%rbp)
   12d0a:	48 8d 85 0a ed ff ff 	lea    -0x12f6(%rbp),%rax
   12d11:	48 89 85 68 fd ff ff 	mov    %rax,-0x298(%rbp)
   12d18:	48 8d 85 09 ed ff ff 	lea    -0x12f7(%rbp),%rax
   12d1f:	48 89 85 70 fd ff ff 	mov    %rax,-0x290(%rbp)
   12d26:	48 8d 85 09 ed ff ff 	lea    -0x12f7(%rbp),%rax
   12d2d:	48 89 85 78 fd ff ff 	mov    %rax,-0x288(%rbp)
   12d34:	48 8d 85 0b ed ff ff 	lea    -0x12f5(%rbp),%rax
   12d3b:	48 89 85 80 fd ff ff 	mov    %rax,-0x280(%rbp)
   12d42:	48 8d 85 09 ed ff ff 	lea    -0x12f7(%rbp),%rax
   12d49:	48 89 85 88 fd ff ff 	mov    %rax,-0x278(%rbp)
   12d50:	48 8d 85 0b ed ff ff 	lea    -0x12f5(%rbp),%rax
   12d57:	48 89 85 90 fd ff ff 	mov    %rax,-0x270(%rbp)
   12d5e:	48 8d 85 09 ed ff ff 	lea    -0x12f7(%rbp),%rax
   12d65:	48 89 85 98 fd ff ff 	mov    %rax,-0x268(%rbp)
   12d6c:	48 8d 85 08 ed ff ff 	lea    -0x12f8(%rbp),%rax
   12d73:	48 89 85 a0 fd ff ff 	mov    %rax,-0x260(%rbp)
   12d7a:	48 8d 85 09 ed ff ff 	lea    -0x12f7(%rbp),%rax
   12d81:	48 89 85 a8 fd ff ff 	mov    %rax,-0x258(%rbp)
   12d88:	48 8d 85 09 ed ff ff 	lea    -0x12f7(%rbp),%rax
   12d8f:	48 89 85 b0 fd ff ff 	mov    %rax,-0x250(%rbp)
   12d96:	48 8d 85 08 ed ff ff 	lea    -0x12f8(%rbp),%rax
   12d9d:	48 89 85 b8 fd ff ff 	mov    %rax,-0x248(%rbp)
   12da4:	48 8d 85 08 ed ff ff 	lea    -0x12f8(%rbp),%rax
   12dab:	48 89 85 c0 fd ff ff 	mov    %rax,-0x240(%rbp)
   12db2:	48 8d 85 08 ed ff ff 	lea    -0x12f8(%rbp),%rax
   12db9:	48 89 85 c8 fd ff ff 	mov    %rax,-0x238(%rbp)
   12dc0:	48 8d 85 0a ed ff ff 	lea    -0x12f6(%rbp),%rax
   12dc7:	48 89 85 d0 fd ff ff 	mov    %rax,-0x230(%rbp)
   12dce:	48 8d 85 08 ed ff ff 	lea    -0x12f8(%rbp),%rax
   12dd5:	48 89 85 d8 fd ff ff 	mov    %rax,-0x228(%rbp)
   12ddc:	48 8d 85 0b ed ff ff 	lea    -0x12f5(%rbp),%rax
   12de3:	48 89 85 e0 fd ff ff 	mov    %rax,-0x220(%rbp)
   12dea:	48 8d 85 0a ed ff ff 	lea    -0x12f6(%rbp),%rax
   12df1:	48 89 85 e8 fd ff ff 	mov    %rax,-0x218(%rbp)
   12df8:	48 8d 85 08 ed ff ff 	lea    -0x12f8(%rbp),%rax
   12dff:	48 89 85 f0 fd ff ff 	mov    %rax,-0x210(%rbp)
   12e06:	48 8d 85 0a ed ff ff 	lea    -0x12f6(%rbp),%rax
   12e0d:	48 89 85 f8 fd ff ff 	mov    %rax,-0x208(%rbp)
   12e14:	48 8d 85 09 ed ff ff 	lea    -0x12f7(%rbp),%rax
   12e1b:	48 89 85 00 fe ff ff 	mov    %rax,-0x200(%rbp)
   12e22:	48 8d 85 08 ed ff ff 	lea    -0x12f8(%rbp),%rax
   12e29:	48 89 85 08 fe ff ff 	mov    %rax,-0x1f8(%rbp)
   12e30:	48 8d 85 0a ed ff ff 	lea    -0x12f6(%rbp),%rax
   12e37:	48 89 85 10 fe ff ff 	mov    %rax,-0x1f0(%rbp)
   12e3e:	48 c7 85 18 fe ff ff 	movq   $0x0,-0x1e8(%rbp)
   12e45:	00 00 00 00 
   12e49:	48 8d 85 08 ed ff ff 	lea    -0x12f8(%rbp),%rax
   12e50:	48 89 85 20 fe ff ff 	mov    %rax,-0x1e0(%rbp)
   12e57:	48 8d 85 0a ed ff ff 	lea    -0x12f6(%rbp),%rax
   12e5e:	48 89 85 28 fe ff ff 	mov    %rax,-0x1d8(%rbp)
   12e65:	48 8d 85 09 ed ff ff 	lea    -0x12f7(%rbp),%rax
   12e6c:	48 89 85 30 fe ff ff 	mov    %rax,-0x1d0(%rbp)
   12e73:	48 8d 85 08 ed ff ff 	lea    -0x12f8(%rbp),%rax
   12e7a:	48 89 85 38 fe ff ff 	mov    %rax,-0x1c8(%rbp)
   12e81:	48 8d 85 0a ed ff ff 	lea    -0x12f6(%rbp),%rax
   12e88:	48 89 85 40 fe ff ff 	mov    %rax,-0x1c0(%rbp)
   12e8f:	48 8d 85 0a ed ff ff 	lea    -0x12f6(%rbp),%rax
   12e96:	48 89 85 48 fe ff ff 	mov    %rax,-0x1b8(%rbp)
   12e9d:	48 c7 85 50 fe ff ff 	movq   $0x0,-0x1b0(%rbp)
   12ea4:	00 00 00 00 
   12ea8:	48 8d 85 0b ed ff ff 	lea    -0x12f5(%rbp),%rax
   12eaf:	48 89 85 58 fe ff ff 	mov    %rax,-0x1a8(%rbp)
   12eb6:	48 c7 85 60 fe ff ff 	movq   $0x0,-0x1a0(%rbp)
   12ebd:	00 00 00 00 
   12ec1:	48 8d 85 08 ed ff ff 	lea    -0x12f8(%rbp),%rax
   12ec8:	48 89 85 68 fe ff ff 	mov    %rax,-0x198(%rbp)
   12ecf:	48 8d 85 08 ed ff ff 	lea    -0x12f8(%rbp),%rax
   12ed6:	48 89 85 70 fe ff ff 	mov    %rax,-0x190(%rbp)
   12edd:	48 8d 85 0b ed ff ff 	lea    -0x12f5(%rbp),%rax
   12ee4:	48 89 85 78 fe ff ff 	mov    %rax,-0x188(%rbp)
   12eeb:	48 c7 85 80 fe ff ff 	movq   $0x0,-0x180(%rbp)
   12ef2:	00 00 00 00 
   12ef6:	48 8d 85 0b ed ff ff 	lea    -0x12f5(%rbp),%rax
   12efd:	48 89 85 88 fe ff ff 	mov    %rax,-0x178(%rbp)
   12f04:	48 8d 85 0a ed ff ff 	lea    -0x12f6(%rbp),%rax
   12f0b:	48 89 85 90 fe ff ff 	mov    %rax,-0x170(%rbp)
   12f12:	48 8d 85 09 ed ff ff 	lea    -0x12f7(%rbp),%rax
   12f19:	48 89 85 98 fe ff ff 	mov    %rax,-0x168(%rbp)
   12f20:	48 8d 85 08 ed ff ff 	lea    -0x12f8(%rbp),%rax
   12f27:	48 89 85 a0 fe ff ff 	mov    %rax,-0x160(%rbp)
   12f2e:	48 8d 85 0a ed ff ff 	lea    -0x12f6(%rbp),%rax
   12f35:	48 89 85 a8 fe ff ff 	mov    %rax,-0x158(%rbp)
   12f3c:	48 8d 85 08 ed ff ff 	lea    -0x12f8(%rbp),%rax
   12f43:	48 89 85 b0 fe ff ff 	mov    %rax,-0x150(%rbp)
   12f4a:	48 8d 85 0b ed ff ff 	lea    -0x12f5(%rbp),%rax
   12f51:	48 89 85 b8 fe ff ff 	mov    %rax,-0x148(%rbp)
   12f58:	48 8d 85 08 ed ff ff 	lea    -0x12f8(%rbp),%rax
   12f5f:	48 89 85 c0 fe ff ff 	mov    %rax,-0x140(%rbp)
   12f66:	48 8d 85 09 ed ff ff 	lea    -0x12f7(%rbp),%rax
   12f6d:	48 89 85 c8 fe ff ff 	mov    %rax,-0x138(%rbp)
   12f74:	48 8d 85 0b ed ff ff 	lea    -0x12f5(%rbp),%rax
   12f7b:	48 89 85 d0 fe ff ff 	mov    %rax,-0x130(%rbp)
   12f82:	48 8d 85 0a ed ff ff 	lea    -0x12f6(%rbp),%rax
   12f89:	48 89 85 d8 fe ff ff 	mov    %rax,-0x128(%rbp)
   12f90:	48 c7 85 e0 fe ff ff 	movq   $0x0,-0x120(%rbp)
   12f97:	00 00 00 00 
   12f9b:	48 8d 85 0b ed ff ff 	lea    -0x12f5(%rbp),%rax
   12fa2:	48 89 85 e8 fe ff ff 	mov    %rax,-0x118(%rbp)
   12fa9:	48 8d 85 09 ed ff ff 	lea    -0x12f7(%rbp),%rax
   12fb0:	48 89 85 f0 fe ff ff 	mov    %rax,-0x110(%rbp)
   12fb7:	48 8d 85 08 ed ff ff 	lea    -0x12f8(%rbp),%rax
   12fbe:	48 89 85 f8 fe ff ff 	mov    %rax,-0x108(%rbp)
   12fc5:	48 8d 85 0a ed ff ff 	lea    -0x12f6(%rbp),%rax
   12fcc:	48 89 85 00 ff ff ff 	mov    %rax,-0x100(%rbp)
   12fd3:	48 8d 85 09 ed ff ff 	lea    -0x12f7(%rbp),%rax
   12fda:	48 89 85 08 ff ff ff 	mov    %rax,-0xf8(%rbp)
   12fe1:	48 8d 85 09 ed ff ff 	lea    -0x12f7(%rbp),%rax
   12fe8:	48 89 85 10 ff ff ff 	mov    %rax,-0xf0(%rbp)
   12fef:	48 8d 85 09 ed ff ff 	lea    -0x12f7(%rbp),%rax
   12ff6:	48 89 85 18 ff ff ff 	mov    %rax,-0xe8(%rbp)
   12ffd:	48 8d 85 0b ed ff ff 	lea    -0x12f5(%rbp),%rax
   13004:	48 89 85 20 ff ff ff 	mov    %rax,-0xe0(%rbp)
   1300b:	48 8d 85 09 ed ff ff 	lea    -0x12f7(%rbp),%rax
   13012:	48 89 85 28 ff ff ff 	mov    %rax,-0xd8(%rbp)
   13019:	48 8d 85 0b ed ff ff 	lea    -0x12f5(%rbp),%rax
   13020:	48 89 85 30 ff ff ff 	mov    %rax,-0xd0(%rbp)
   13027:	48 8d 85 0a ed ff ff 	lea    -0x12f6(%rbp),%rax
   1302e:	48 89 85 38 ff ff ff 	mov    %rax,-0xc8(%rbp)
   13035:	48 8d 85 0a ed ff ff 	lea    -0x12f6(%rbp),%rax
   1303c:	48 89 85 40 ff ff ff 	mov    %rax,-0xc0(%rbp)
   13043:	48 8d 85 0b ed ff ff 	lea    -0x12f5(%rbp),%rax
   1304a:	48 89 85 48 ff ff ff 	mov    %rax,-0xb8(%rbp)
   13051:	48 8d 85 0a ed ff ff 	lea    -0x12f6(%rbp),%rax
   13058:	48 89 85 50 ff ff ff 	mov    %rax,-0xb0(%rbp)
   1305f:	48 8d 85 0a ed ff ff 	lea    -0x12f6(%rbp),%rax
   13066:	48 89 85 58 ff ff ff 	mov    %rax,-0xa8(%rbp)
   1306d:	48 8d 85 09 ed ff ff 	lea    -0x12f7(%rbp),%rax
   13074:	48 89 85 60 ff ff ff 	mov    %rax,-0xa0(%rbp)
   1307b:	48 8d 85 0a ed ff ff 	lea    -0x12f6(%rbp),%rax
   13082:	48 89 85 68 ff ff ff 	mov    %rax,-0x98(%rbp)
   13089:	48 8d 85 09 ed ff ff 	lea    -0x12f7(%rbp),%rax
   13090:	48 89 85 70 ff ff ff 	mov    %rax,-0x90(%rbp)
   13097:	48 8d 05 8a b0 00 00 	lea    0xb08a(%rip),%rax        # 1e128 <g_390>
   1309e:	48 89 85 e0 ee ff ff 	mov    %rax,-0x1120(%rbp)
   130a5:	c7 85 64 ed ff ff ff 	movl   $0xffffffff,-0x129c(%rbp)
   130ac:	ff ff ff 
   130af:	48 8b 85 f8 ec ff ff 	mov    -0x1308(%rbp),%rax
   130b6:	41 89 c4             	mov    %eax,%r12d
   130b9:	48 8b 85 f8 ec ff ff 	mov    -0x1308(%rbp),%rax
   130c0:	41 89 c5             	mov    %eax,%r13d
   130c3:	8b 05 0f b0 00 00    	mov    0xb00f(%rip),%eax        # 1e0d8 <g_221>
   130c9:	0f b6 d8             	movzbl %al,%ebx
   130cc:	48 c7 05 e9 f4 00 00 	movq   $0x5,0xf4e9(%rip)        # 225c0 <g_281>
   130d3:	05 00 00 00 
   130d7:	b8 01 00 00 00       	mov    $0x1,%eax
   130dc:	0f be c0             	movsbl %al,%eax
   130df:	be 01 00 00 00       	mov    $0x1,%esi
   130e4:	89 c7                	mov    %eax,%edi
   130e6:	e8 e9 50 ff ff       	callq  81d4 <safe_add_func_int8_t_s_s>
   130eb:	84 c0                	test   %al,%al
   130ed:	0f 94 c0             	sete   %al
   130f0:	0f b6 d0             	movzbl %al,%edx
   130f3:	48 8b 05 76 e9 00 00 	mov    0xe976(%rip),%rax        # 21a70 <g_526>
   130fa:	48 8b 00             	mov    (%rax),%rax
   130fd:	0f b7 00             	movzwl (%rax),%eax
   13100:	98                   	cwtl   
   13101:	39 c2                	cmp    %eax,%edx
   13103:	0f 95 c0             	setne  %al
   13106:	0f b6 d0             	movzbl %al,%edx
   13109:	48 8b 85 b0 ee ff ff 	mov    -0x1150(%rbp),%rax
   13110:	0f b6 00             	movzbl (%rax),%eax
   13113:	89 c1                	mov    %eax,%ecx
   13115:	89 d0                	mov    %edx,%eax
   13117:	21 c8                	and    %ecx,%eax
   13119:	89 c2                	mov    %eax,%edx
   1311b:	48 8b 85 b0 ee ff ff 	mov    -0x1150(%rbp),%rax
   13122:	88 10                	mov    %dl,(%rax)
   13124:	48 8b 85 b0 ee ff ff 	mov    -0x1150(%rbp),%rax
   1312b:	0f b6 00             	movzbl (%rax),%eax
   1312e:	0f b6 c0             	movzbl %al,%eax
   13131:	89 de                	mov    %ebx,%esi
   13133:	89 c7                	mov    %eax,%edi
   13135:	e8 a1 5a ff ff       	callq  8bdb <safe_div_func_uint8_t_u_u>
   1313a:	8b 85 58 ef ff ff    	mov    -0x10a8(%rbp),%eax
   13140:	83 f8 01             	cmp    $0x1,%eax
   13143:	0f 9f c0             	setg   %al
   13146:	0f b6 c0             	movzbl %al,%eax
   13149:	be 01 00 00 00       	mov    $0x1,%esi
   1314e:	89 c7                	mov    %eax,%edi
   13150:	e8 bd 50 ff ff       	callq  8212 <safe_mul_func_int8_t_s_s>
   13155:	0f be c0             	movsbl %al,%eax
   13158:	39 85 e8 ec ff ff    	cmp    %eax,-0x1318(%rbp)
   1315e:	0f b6 85 0c ed ff ff 	movzbl -0x12f4(%rbp),%eax
   13165:	48 89 c6             	mov    %rax,%rsi
   13168:	bf 00 00 00 00       	mov    $0x0,%edi
   1316d:	e8 cf 56 ff ff       	callq  8841 <safe_add_func_int64_t_s_s>
   13172:	98                   	cwtl   
   13173:	44 89 ee             	mov    %r13d,%esi
   13176:	89 c7                	mov    %eax,%edi
   13178:	e8 64 53 ff ff       	callq  84e1 <safe_lshift_func_int16_t_s_u>
   1317d:	89 c2                	mov    %eax,%edx
   1317f:	48 8b 85 e0 ee ff ff 	mov    -0x1120(%rbp),%rax
   13186:	88 10                	mov    %dl,(%rax)
   13188:	48 8b 85 e0 ee ff ff 	mov    -0x1120(%rbp),%rax
   1318f:	0f b6 00             	movzbl (%rax),%eax
   13192:	0f b6 c0             	movzbl %al,%eax
   13195:	be 06 00 00 00       	mov    $0x6,%esi
   1319a:	89 c7                	mov    %eax,%edi
   1319c:	e8 1d 5b ff ff       	callq  8cbe <safe_rshift_func_uint8_t_u_u>
   131a1:	0f b6 c0             	movzbl %al,%eax
   131a4:	44 89 e6             	mov    %r12d,%esi
   131a7:	89 c7                	mov    %eax,%edi
   131a9:	e8 77 5d ff ff       	callq  8f25 <safe_div_func_uint32_t_u_u>
   131ae:	48 8b 05 8b e8 00 00 	mov    0xe88b(%rip),%rax        # 21a40 <g_132>
   131b5:	8b 00                	mov    (%rax),%eax
   131b7:	3d 3f 0d 3a 57       	cmp    $0x573a0d3f,%eax
   131bc:	0f 9f c0             	setg   %al
   131bf:	0f b6 c0             	movzbl %al,%eax
   131c2:	89 05 7c b0 00 00    	mov    %eax,0xb07c(%rip)        # 1e244 <g_823>
   131c8:	8b 05 76 b0 00 00    	mov    0xb076(%rip),%eax        # 1e244 <g_823>
   131ce:	0f be d0             	movsbl %al,%edx
   131d1:	8b 05 b9 af 00 00    	mov    0xafb9(%rip),%eax        # 1e190 <g_508>
   131d7:	0f be c0             	movsbl %al,%eax
   131da:	89 d6                	mov    %edx,%esi
   131dc:	89 c7                	mov    %eax,%edi
   131de:	e8 f1 4f ff ff       	callq  81d4 <safe_add_func_int8_t_s_s>
   131e3:	0f be d0             	movsbl %al,%edx
   131e6:	8b 05 d0 ae 00 00    	mov    0xaed0(%rip),%eax        # 1e0bc <g_127>
   131ec:	39 c2                	cmp    %eax,%edx
   131ee:	0f 94 c0             	sete   %al
   131f1:	0f b6 c0             	movzbl %al,%eax
   131f4:	be 08 00 00 00       	mov    $0x8,%esi
   131f9:	89 c7                	mov    %eax,%edi
   131fb:	e8 12 50 ff ff       	callq  8212 <safe_mul_func_int8_t_s_s>
   13200:	0f be c0             	movsbl %al,%eax
   13203:	89 85 64 ed ff ff    	mov    %eax,-0x129c(%rbp)
   13209:	0f b6 85 09 ed ff ff 	movzbl -0x12f7(%rbp),%eax
   13210:	48 0f be c0          	movsbq %al,%rax
   13214:	be 08 00 00 00       	mov    $0x8,%esi
   13219:	48 89 c7             	mov    %rax,%rdi
   1321c:	e8 20 56 ff ff       	callq  8841 <safe_add_func_int64_t_s_s>
   13221:	88 85 09 ed ff ff    	mov    %al,-0x12f7(%rbp)
   13227:	0f b6 85 09 ed ff ff 	movzbl -0x12f7(%rbp),%eax
   1322e:	3c 0d                	cmp    $0xd,%al
   13230:	0f 8f 3d f1 ff ff    	jg     12373 <func_65+0x22fb>
   13236:	0f b7 05 5b ae 00 00 	movzwl 0xae5b(%rip),%eax        # 1e098 <g_106>
   1323d:	83 c0 01             	add    $0x1,%eax
   13240:	66 89 05 51 ae 00 00 	mov    %ax,0xae51(%rip)        # 1e098 <g_106>
   13247:	0f b7 05 4a ae 00 00 	movzwl 0xae4a(%rip),%eax        # 1e098 <g_106>
   1324e:	66 83 f8 03          	cmp    $0x3,%ax
   13252:	0f 8e 96 e5 ff ff    	jle    117ee <func_65+0x1776>
   13258:	8b 05 32 af 00 00    	mov    0xaf32(%rip),%eax        # 1e190 <g_508>
   1325e:	83 e8 01             	sub    $0x1,%eax
   13261:	89 05 29 af 00 00    	mov    %eax,0xaf29(%rip)        # 1e190 <g_508>
   13267:	8b 05 23 af 00 00    	mov    0xaf23(%rip),%eax        # 1e190 <g_508>
   1326d:	85 c0                	test   %eax,%eax
   1326f:	0f 89 81 df ff ff    	jns    111f6 <func_65+0x117e>
   13275:	48 8b 85 f8 ec ff ff 	mov    -0x1308(%rbp),%rax
   1327c:	e9 b0 11 00 00       	jmpq   14431 <func_65+0x43b9>
   13281:	c6 05 a0 ae 00 00 00 	movb   $0x0,0xaea0(%rip)        # 1e128 <g_390>
   13288:	e9 8b 11 00 00       	jmpq   14418 <func_65+0x43a0>
   1328d:	48 8d 85 c0 ed ff ff 	lea    -0x1240(%rbp),%rax
   13294:	48 89 85 50 ee ff ff 	mov    %rax,-0x11b0(%rbp)
   1329b:	c7 85 50 ed ff ff 23 	movl   $0x2374db23,-0x12b0(%rbp)
   132a2:	db 74 23 
   132a5:	48 8d 05 04 af 00 00 	lea    0xaf04(%rip),%rax        # 1e1b0 <g_632>
   132ac:	48 89 85 e0 ed ff ff 	mov    %rax,-0x1220(%rbp)
   132b3:	48 8d 05 d6 ae 00 00 	lea    0xaed6(%rip),%rax        # 1e190 <g_508>
   132ba:	48 89 85 58 ee ff ff 	mov    %rax,-0x11a8(%rbp)
   132c1:	48 8d 05 d0 e7 00 00 	lea    0xe7d0(%rip),%rax        # 21a98 <g_627>
   132c8:	48 89 85 d0 f7 ff ff 	mov    %rax,-0x830(%rbp)
   132cf:	48 8d 05 ca e7 00 00 	lea    0xe7ca(%rip),%rax        # 21aa0 <g_631>
   132d6:	48 89 85 d8 f7 ff ff 	mov    %rax,-0x828(%rbp)
   132dd:	48 8d 85 b0 ed ff ff 	lea    -0x1250(%rbp),%rax
   132e4:	48 89 85 e0 f7 ff ff 	mov    %rax,-0x820(%rbp)
   132eb:	48 8d 85 b0 ed ff ff 	lea    -0x1250(%rbp),%rax
   132f2:	48 89 85 e8 f7 ff ff 	mov    %rax,-0x818(%rbp)
   132f9:	48 8d 05 a0 e7 00 00 	lea    0xe7a0(%rip),%rax        # 21aa0 <g_631>
   13300:	48 89 85 f0 f7 ff ff 	mov    %rax,-0x810(%rbp)
   13307:	48 8d 05 8a e7 00 00 	lea    0xe78a(%rip),%rax        # 21a98 <g_627>
   1330e:	48 89 85 f8 f7 ff ff 	mov    %rax,-0x808(%rbp)
   13315:	48 8d 05 7c e7 00 00 	lea    0xe77c(%rip),%rax        # 21a98 <g_627>
   1331c:	48 89 85 00 f8 ff ff 	mov    %rax,-0x800(%rbp)
   13323:	48 8d 05 6e e7 00 00 	lea    0xe76e(%rip),%rax        # 21a98 <g_627>
   1332a:	48 89 85 08 f8 ff ff 	mov    %rax,-0x7f8(%rbp)
   13331:	48 8d 85 b0 ed ff ff 	lea    -0x1250(%rbp),%rax
   13338:	48 89 85 10 f8 ff ff 	mov    %rax,-0x7f0(%rbp)
   1333f:	48 8d 05 52 e7 00 00 	lea    0xe752(%rip),%rax        # 21a98 <g_627>
   13346:	48 89 85 18 f8 ff ff 	mov    %rax,-0x7e8(%rbp)
   1334d:	48 8d 05 44 e7 00 00 	lea    0xe744(%rip),%rax        # 21a98 <g_627>
   13354:	48 89 85 20 f8 ff ff 	mov    %rax,-0x7e0(%rbp)
   1335b:	48 8d 05 36 e7 00 00 	lea    0xe736(%rip),%rax        # 21a98 <g_627>
   13362:	48 89 85 28 f8 ff ff 	mov    %rax,-0x7d8(%rbp)
   13369:	48 8d 05 30 e7 00 00 	lea    0xe730(%rip),%rax        # 21aa0 <g_631>
   13370:	48 89 85 30 f8 ff ff 	mov    %rax,-0x7d0(%rbp)
   13377:	48 8d 05 1a e7 00 00 	lea    0xe71a(%rip),%rax        # 21a98 <g_627>
   1337e:	48 89 85 38 f8 ff ff 	mov    %rax,-0x7c8(%rbp)
   13385:	48 8d 05 0c e7 00 00 	lea    0xe70c(%rip),%rax        # 21a98 <g_627>
   1338c:	48 89 85 40 f8 ff ff 	mov    %rax,-0x7c0(%rbp)
   13393:	48 8d 05 06 e7 00 00 	lea    0xe706(%rip),%rax        # 21aa0 <g_631>
   1339a:	48 89 85 48 f8 ff ff 	mov    %rax,-0x7b8(%rbp)
   133a1:	48 8d 05 f8 e6 00 00 	lea    0xe6f8(%rip),%rax        # 21aa0 <g_631>
   133a8:	48 89 85 50 f8 ff ff 	mov    %rax,-0x7b0(%rbp)
   133af:	48 8d 05 ea e6 00 00 	lea    0xe6ea(%rip),%rax        # 21aa0 <g_631>
   133b6:	48 89 85 58 f8 ff ff 	mov    %rax,-0x7a8(%rbp)
   133bd:	48 8d 05 dc e6 00 00 	lea    0xe6dc(%rip),%rax        # 21aa0 <g_631>
   133c4:	48 89 85 60 f8 ff ff 	mov    %rax,-0x7a0(%rbp)
   133cb:	48 8d 05 ce e6 00 00 	lea    0xe6ce(%rip),%rax        # 21aa0 <g_631>
   133d2:	48 89 85 68 f8 ff ff 	mov    %rax,-0x798(%rbp)
   133d9:	48 8d 05 c0 e6 00 00 	lea    0xe6c0(%rip),%rax        # 21aa0 <g_631>
   133e0:	48 89 85 70 f8 ff ff 	mov    %rax,-0x790(%rbp)
   133e7:	48 8d 05 aa e6 00 00 	lea    0xe6aa(%rip),%rax        # 21a98 <g_627>
   133ee:	48 89 85 78 f8 ff ff 	mov    %rax,-0x788(%rbp)
   133f5:	48 8d 05 9c e6 00 00 	lea    0xe69c(%rip),%rax        # 21a98 <g_627>
   133fc:	48 89 85 80 f8 ff ff 	mov    %rax,-0x780(%rbp)
   13403:	48 8d 05 96 e6 00 00 	lea    0xe696(%rip),%rax        # 21aa0 <g_631>
   1340a:	48 89 85 88 f8 ff ff 	mov    %rax,-0x778(%rbp)
   13411:	48 8d 05 80 e6 00 00 	lea    0xe680(%rip),%rax        # 21a98 <g_627>
   13418:	48 89 85 90 f8 ff ff 	mov    %rax,-0x770(%rbp)
   1341f:	48 8d 05 72 e6 00 00 	lea    0xe672(%rip),%rax        # 21a98 <g_627>
   13426:	48 89 85 98 f8 ff ff 	mov    %rax,-0x768(%rbp)
   1342d:	48 8d 05 64 e6 00 00 	lea    0xe664(%rip),%rax        # 21a98 <g_627>
   13434:	48 89 85 a0 f8 ff ff 	mov    %rax,-0x760(%rbp)
   1343b:	48 8d 85 b0 ed ff ff 	lea    -0x1250(%rbp),%rax
   13442:	48 89 85 a8 f8 ff ff 	mov    %rax,-0x758(%rbp)
   13449:	48 8d 05 48 e6 00 00 	lea    0xe648(%rip),%rax        # 21a98 <g_627>
   13450:	48 89 85 b0 f8 ff ff 	mov    %rax,-0x750(%rbp)
   13457:	48 8d 05 3a e6 00 00 	lea    0xe63a(%rip),%rax        # 21a98 <g_627>
   1345e:	48 89 85 b8 f8 ff ff 	mov    %rax,-0x748(%rbp)
   13465:	48 8d 05 2c e6 00 00 	lea    0xe62c(%rip),%rax        # 21a98 <g_627>
   1346c:	48 89 85 c0 f8 ff ff 	mov    %rax,-0x740(%rbp)
   13473:	48 8d 05 26 e6 00 00 	lea    0xe626(%rip),%rax        # 21aa0 <g_631>
   1347a:	48 89 85 c8 f8 ff ff 	mov    %rax,-0x738(%rbp)
   13481:	48 8d 85 b0 ed ff ff 	lea    -0x1250(%rbp),%rax
   13488:	48 89 85 d0 f8 ff ff 	mov    %rax,-0x730(%rbp)
   1348f:	48 8d 85 b0 ed ff ff 	lea    -0x1250(%rbp),%rax
   13496:	48 89 85 d8 f8 ff ff 	mov    %rax,-0x728(%rbp)
   1349d:	48 8d 05 fc e5 00 00 	lea    0xe5fc(%rip),%rax        # 21aa0 <g_631>
   134a4:	48 89 85 e0 f8 ff ff 	mov    %rax,-0x720(%rbp)
   134ab:	48 8d 05 e6 e5 00 00 	lea    0xe5e6(%rip),%rax        # 21a98 <g_627>
   134b2:	48 89 85 e8 f8 ff ff 	mov    %rax,-0x718(%rbp)
   134b9:	48 8d 05 d8 e5 00 00 	lea    0xe5d8(%rip),%rax        # 21a98 <g_627>
   134c0:	48 89 85 f0 f8 ff ff 	mov    %rax,-0x710(%rbp)
   134c7:	48 8d 05 ca e5 00 00 	lea    0xe5ca(%rip),%rax        # 21a98 <g_627>
   134ce:	48 89 85 f8 f8 ff ff 	mov    %rax,-0x708(%rbp)
   134d5:	48 8d 85 b0 ed ff ff 	lea    -0x1250(%rbp),%rax
   134dc:	48 89 85 00 f9 ff ff 	mov    %rax,-0x700(%rbp)
   134e3:	48 8d 05 ae e5 00 00 	lea    0xe5ae(%rip),%rax        # 21a98 <g_627>
   134ea:	48 89 85 08 f9 ff ff 	mov    %rax,-0x6f8(%rbp)
   134f1:	48 8d 05 a0 e5 00 00 	lea    0xe5a0(%rip),%rax        # 21a98 <g_627>
   134f8:	48 89 85 10 f9 ff ff 	mov    %rax,-0x6f0(%rbp)
   134ff:	48 8d 05 92 e5 00 00 	lea    0xe592(%rip),%rax        # 21a98 <g_627>
   13506:	48 89 85 18 f9 ff ff 	mov    %rax,-0x6e8(%rbp)
   1350d:	48 8d 05 8c e5 00 00 	lea    0xe58c(%rip),%rax        # 21aa0 <g_631>
   13514:	48 89 85 20 f9 ff ff 	mov    %rax,-0x6e0(%rbp)
   1351b:	48 8d 05 76 e5 00 00 	lea    0xe576(%rip),%rax        # 21a98 <g_627>
   13522:	48 89 85 28 f9 ff ff 	mov    %rax,-0x6d8(%rbp)
   13529:	48 8d 05 68 e5 00 00 	lea    0xe568(%rip),%rax        # 21a98 <g_627>
   13530:	48 89 85 30 f9 ff ff 	mov    %rax,-0x6d0(%rbp)
   13537:	48 8d 05 62 e5 00 00 	lea    0xe562(%rip),%rax        # 21aa0 <g_631>
   1353e:	48 89 85 38 f9 ff ff 	mov    %rax,-0x6c8(%rbp)
   13545:	48 8d 05 54 e5 00 00 	lea    0xe554(%rip),%rax        # 21aa0 <g_631>
   1354c:	48 89 85 40 f9 ff ff 	mov    %rax,-0x6c0(%rbp)
   13553:	48 8d 05 46 e5 00 00 	lea    0xe546(%rip),%rax        # 21aa0 <g_631>
   1355a:	48 89 85 48 f9 ff ff 	mov    %rax,-0x6b8(%rbp)
   13561:	48 8d 05 38 e5 00 00 	lea    0xe538(%rip),%rax        # 21aa0 <g_631>
   13568:	48 89 85 50 f9 ff ff 	mov    %rax,-0x6b0(%rbp)
   1356f:	48 8d 05 2a e5 00 00 	lea    0xe52a(%rip),%rax        # 21aa0 <g_631>
   13576:	48 89 85 58 f9 ff ff 	mov    %rax,-0x6a8(%rbp)
   1357d:	48 8d 05 1c e5 00 00 	lea    0xe51c(%rip),%rax        # 21aa0 <g_631>
   13584:	48 89 85 60 f9 ff ff 	mov    %rax,-0x6a0(%rbp)
   1358b:	48 8d 05 06 e5 00 00 	lea    0xe506(%rip),%rax        # 21a98 <g_627>
   13592:	48 89 85 68 f9 ff ff 	mov    %rax,-0x698(%rbp)
   13599:	48 8d 05 f8 e4 00 00 	lea    0xe4f8(%rip),%rax        # 21a98 <g_627>
   135a0:	48 89 85 70 f9 ff ff 	mov    %rax,-0x690(%rbp)
   135a7:	48 8d 05 f2 e4 00 00 	lea    0xe4f2(%rip),%rax        # 21aa0 <g_631>
   135ae:	48 89 85 78 f9 ff ff 	mov    %rax,-0x688(%rbp)
   135b5:	48 8d 05 dc e4 00 00 	lea    0xe4dc(%rip),%rax        # 21a98 <g_627>
   135bc:	48 89 85 80 f9 ff ff 	mov    %rax,-0x680(%rbp)
   135c3:	48 8d 05 ce e4 00 00 	lea    0xe4ce(%rip),%rax        # 21a98 <g_627>
   135ca:	48 89 85 88 f9 ff ff 	mov    %rax,-0x678(%rbp)
   135d1:	48 8d 05 c0 e4 00 00 	lea    0xe4c0(%rip),%rax        # 21a98 <g_627>
   135d8:	48 89 85 90 f9 ff ff 	mov    %rax,-0x670(%rbp)
   135df:	48 8d 85 b0 ed ff ff 	lea    -0x1250(%rbp),%rax
   135e6:	48 89 85 98 f9 ff ff 	mov    %rax,-0x668(%rbp)
   135ed:	48 8d 05 a4 e4 00 00 	lea    0xe4a4(%rip),%rax        # 21a98 <g_627>
   135f4:	48 89 85 a0 f9 ff ff 	mov    %rax,-0x660(%rbp)
   135fb:	48 8d 05 96 e4 00 00 	lea    0xe496(%rip),%rax        # 21a98 <g_627>
   13602:	48 89 85 a8 f9 ff ff 	mov    %rax,-0x658(%rbp)
   13609:	48 8d 05 88 e4 00 00 	lea    0xe488(%rip),%rax        # 21a98 <g_627>
   13610:	48 89 85 b0 f9 ff ff 	mov    %rax,-0x650(%rbp)
   13617:	48 8d 05 82 e4 00 00 	lea    0xe482(%rip),%rax        # 21aa0 <g_631>
   1361e:	48 89 85 b8 f9 ff ff 	mov    %rax,-0x648(%rbp)
   13625:	48 8d 85 b0 ed ff ff 	lea    -0x1250(%rbp),%rax
   1362c:	48 89 85 c0 f9 ff ff 	mov    %rax,-0x640(%rbp)
   13633:	48 8d 85 b0 ed ff ff 	lea    -0x1250(%rbp),%rax
   1363a:	48 89 85 c8 f9 ff ff 	mov    %rax,-0x638(%rbp)
   13641:	48 8d 05 58 e4 00 00 	lea    0xe458(%rip),%rax        # 21aa0 <g_631>
   13648:	48 89 85 d0 f9 ff ff 	mov    %rax,-0x630(%rbp)
   1364f:	48 8d 05 42 e4 00 00 	lea    0xe442(%rip),%rax        # 21a98 <g_627>
   13656:	48 89 85 d8 f9 ff ff 	mov    %rax,-0x628(%rbp)
   1365d:	48 8d 05 34 e4 00 00 	lea    0xe434(%rip),%rax        # 21a98 <g_627>
   13664:	48 89 85 e0 f9 ff ff 	mov    %rax,-0x620(%rbp)
   1366b:	48 8d 05 26 e4 00 00 	lea    0xe426(%rip),%rax        # 21a98 <g_627>
   13672:	48 89 85 e8 f9 ff ff 	mov    %rax,-0x618(%rbp)
   13679:	48 8d 85 b0 ed ff ff 	lea    -0x1250(%rbp),%rax
   13680:	48 89 85 f0 f9 ff ff 	mov    %rax,-0x610(%rbp)
   13687:	48 8d 05 0a e4 00 00 	lea    0xe40a(%rip),%rax        # 21a98 <g_627>
   1368e:	48 89 85 f8 f9 ff ff 	mov    %rax,-0x608(%rbp)
   13695:	48 8d 05 fc e3 00 00 	lea    0xe3fc(%rip),%rax        # 21a98 <g_627>
   1369c:	48 89 85 00 fa ff ff 	mov    %rax,-0x600(%rbp)
   136a3:	48 8d 05 ee e3 00 00 	lea    0xe3ee(%rip),%rax        # 21a98 <g_627>
   136aa:	48 89 85 08 fa ff ff 	mov    %rax,-0x5f8(%rbp)
   136b1:	48 8d 05 e8 e3 00 00 	lea    0xe3e8(%rip),%rax        # 21aa0 <g_631>
   136b8:	48 89 85 10 fa ff ff 	mov    %rax,-0x5f0(%rbp)
   136bf:	48 8d 05 d2 e3 00 00 	lea    0xe3d2(%rip),%rax        # 21a98 <g_627>
   136c6:	48 89 85 18 fa ff ff 	mov    %rax,-0x5e8(%rbp)
   136cd:	48 8d 05 c4 e3 00 00 	lea    0xe3c4(%rip),%rax        # 21a98 <g_627>
   136d4:	48 89 85 20 fa ff ff 	mov    %rax,-0x5e0(%rbp)
   136db:	48 8d 05 be e3 00 00 	lea    0xe3be(%rip),%rax        # 21aa0 <g_631>
   136e2:	48 89 85 28 fa ff ff 	mov    %rax,-0x5d8(%rbp)
   136e9:	48 8d 05 b0 e3 00 00 	lea    0xe3b0(%rip),%rax        # 21aa0 <g_631>
   136f0:	48 89 85 30 fa ff ff 	mov    %rax,-0x5d0(%rbp)
   136f7:	48 8d 05 a2 e3 00 00 	lea    0xe3a2(%rip),%rax        # 21aa0 <g_631>
   136fe:	48 89 85 38 fa ff ff 	mov    %rax,-0x5c8(%rbp)
   13705:	48 8d 05 94 e3 00 00 	lea    0xe394(%rip),%rax        # 21aa0 <g_631>
   1370c:	48 89 85 40 fa ff ff 	mov    %rax,-0x5c0(%rbp)
   13713:	48 8d 05 86 e3 00 00 	lea    0xe386(%rip),%rax        # 21aa0 <g_631>
   1371a:	48 89 85 48 fa ff ff 	mov    %rax,-0x5b8(%rbp)
   13721:	48 8d 05 78 e3 00 00 	lea    0xe378(%rip),%rax        # 21aa0 <g_631>
   13728:	48 89 85 50 fa ff ff 	mov    %rax,-0x5b0(%rbp)
   1372f:	48 8d 05 62 e3 00 00 	lea    0xe362(%rip),%rax        # 21a98 <g_627>
   13736:	48 89 85 58 fa ff ff 	mov    %rax,-0x5a8(%rbp)
   1373d:	48 8d 05 54 e3 00 00 	lea    0xe354(%rip),%rax        # 21a98 <g_627>
   13744:	48 89 85 60 fa ff ff 	mov    %rax,-0x5a0(%rbp)
   1374b:	48 8d 05 4e e3 00 00 	lea    0xe34e(%rip),%rax        # 21aa0 <g_631>
   13752:	48 89 85 68 fa ff ff 	mov    %rax,-0x598(%rbp)
   13759:	48 8d 05 38 e3 00 00 	lea    0xe338(%rip),%rax        # 21a98 <g_627>
   13760:	48 89 85 70 fa ff ff 	mov    %rax,-0x590(%rbp)
   13767:	48 8d 05 2a e3 00 00 	lea    0xe32a(%rip),%rax        # 21a98 <g_627>
   1376e:	48 89 85 78 fa ff ff 	mov    %rax,-0x588(%rbp)
   13775:	48 8d 05 1c e3 00 00 	lea    0xe31c(%rip),%rax        # 21a98 <g_627>
   1377c:	48 89 85 80 fa ff ff 	mov    %rax,-0x580(%rbp)
   13783:	48 8d 85 b0 ed ff ff 	lea    -0x1250(%rbp),%rax
   1378a:	48 89 85 88 fa ff ff 	mov    %rax,-0x578(%rbp)
   13791:	48 8d 05 00 e3 00 00 	lea    0xe300(%rip),%rax        # 21a98 <g_627>
   13798:	48 89 85 90 fa ff ff 	mov    %rax,-0x570(%rbp)
   1379f:	48 8d 05 f2 e2 00 00 	lea    0xe2f2(%rip),%rax        # 21a98 <g_627>
   137a6:	48 89 85 98 fa ff ff 	mov    %rax,-0x568(%rbp)
   137ad:	48 8d 05 e4 e2 00 00 	lea    0xe2e4(%rip),%rax        # 21a98 <g_627>
   137b4:	48 89 85 a0 fa ff ff 	mov    %rax,-0x560(%rbp)
   137bb:	48 8d 05 de e2 00 00 	lea    0xe2de(%rip),%rax        # 21aa0 <g_631>
   137c2:	48 89 85 a8 fa ff ff 	mov    %rax,-0x558(%rbp)
   137c9:	48 8d 85 b0 ed ff ff 	lea    -0x1250(%rbp),%rax
   137d0:	48 89 85 b0 fa ff ff 	mov    %rax,-0x550(%rbp)
   137d7:	48 8d 85 b0 ed ff ff 	lea    -0x1250(%rbp),%rax
   137de:	48 89 85 b8 fa ff ff 	mov    %rax,-0x548(%rbp)
   137e5:	48 8d 05 b4 e2 00 00 	lea    0xe2b4(%rip),%rax        # 21aa0 <g_631>
   137ec:	48 89 85 c0 fa ff ff 	mov    %rax,-0x540(%rbp)
   137f3:	48 8d 05 9e e2 00 00 	lea    0xe29e(%rip),%rax        # 21a98 <g_627>
   137fa:	48 89 85 c8 fa ff ff 	mov    %rax,-0x538(%rbp)
   13801:	48 8d 05 90 e2 00 00 	lea    0xe290(%rip),%rax        # 21a98 <g_627>
   13808:	48 89 85 d0 fa ff ff 	mov    %rax,-0x530(%rbp)
   1380f:	48 8d 05 82 e2 00 00 	lea    0xe282(%rip),%rax        # 21a98 <g_627>
   13816:	48 89 85 d8 fa ff ff 	mov    %rax,-0x528(%rbp)
   1381d:	48 8d 85 b0 ed ff ff 	lea    -0x1250(%rbp),%rax
   13824:	48 89 85 e0 fa ff ff 	mov    %rax,-0x520(%rbp)
   1382b:	48 8d 05 66 e2 00 00 	lea    0xe266(%rip),%rax        # 21a98 <g_627>
   13832:	48 89 85 e8 fa ff ff 	mov    %rax,-0x518(%rbp)
   13839:	48 8d 05 58 e2 00 00 	lea    0xe258(%rip),%rax        # 21a98 <g_627>
   13840:	48 89 85 f0 fa ff ff 	mov    %rax,-0x510(%rbp)
   13847:	48 8d 05 4a e2 00 00 	lea    0xe24a(%rip),%rax        # 21a98 <g_627>
   1384e:	48 89 85 f8 fa ff ff 	mov    %rax,-0x508(%rbp)
   13855:	48 8d 05 44 e2 00 00 	lea    0xe244(%rip),%rax        # 21aa0 <g_631>
   1385c:	48 89 85 00 fb ff ff 	mov    %rax,-0x500(%rbp)
   13863:	48 8d 05 2e e2 00 00 	lea    0xe22e(%rip),%rax        # 21a98 <g_627>
   1386a:	48 89 85 08 fb ff ff 	mov    %rax,-0x4f8(%rbp)
   13871:	48 8d 05 20 e2 00 00 	lea    0xe220(%rip),%rax        # 21a98 <g_627>
   13878:	48 89 85 10 fb ff ff 	mov    %rax,-0x4f0(%rbp)
   1387f:	48 8d 05 1a e2 00 00 	lea    0xe21a(%rip),%rax        # 21aa0 <g_631>
   13886:	48 89 85 18 fb ff ff 	mov    %rax,-0x4e8(%rbp)
   1388d:	48 8d 05 0c e2 00 00 	lea    0xe20c(%rip),%rax        # 21aa0 <g_631>
   13894:	48 89 85 20 fb ff ff 	mov    %rax,-0x4e0(%rbp)
   1389b:	48 8d 05 fe e1 00 00 	lea    0xe1fe(%rip),%rax        # 21aa0 <g_631>
   138a2:	48 89 85 28 fb ff ff 	mov    %rax,-0x4d8(%rbp)
   138a9:	48 8d 05 f0 e1 00 00 	lea    0xe1f0(%rip),%rax        # 21aa0 <g_631>
   138b0:	48 89 85 30 fb ff ff 	mov    %rax,-0x4d0(%rbp)
   138b7:	48 8d 05 e2 e1 00 00 	lea    0xe1e2(%rip),%rax        # 21aa0 <g_631>
   138be:	48 89 85 38 fb ff ff 	mov    %rax,-0x4c8(%rbp)
   138c5:	48 8d 05 d4 e1 00 00 	lea    0xe1d4(%rip),%rax        # 21aa0 <g_631>
   138cc:	48 89 85 40 fb ff ff 	mov    %rax,-0x4c0(%rbp)
   138d3:	48 8d 05 be e1 00 00 	lea    0xe1be(%rip),%rax        # 21a98 <g_627>
   138da:	48 89 85 48 fb ff ff 	mov    %rax,-0x4b8(%rbp)
   138e1:	48 8d 05 b0 e1 00 00 	lea    0xe1b0(%rip),%rax        # 21a98 <g_627>
   138e8:	48 89 85 50 fb ff ff 	mov    %rax,-0x4b0(%rbp)
   138ef:	48 8d 05 aa e1 00 00 	lea    0xe1aa(%rip),%rax        # 21aa0 <g_631>
   138f6:	48 89 85 58 fb ff ff 	mov    %rax,-0x4a8(%rbp)
   138fd:	48 8d 05 94 e1 00 00 	lea    0xe194(%rip),%rax        # 21a98 <g_627>
   13904:	48 89 85 60 fb ff ff 	mov    %rax,-0x4a0(%rbp)
   1390b:	48 8d 05 86 e1 00 00 	lea    0xe186(%rip),%rax        # 21a98 <g_627>
   13912:	48 89 85 68 fb ff ff 	mov    %rax,-0x498(%rbp)
   13919:	48 8d 05 78 e1 00 00 	lea    0xe178(%rip),%rax        # 21a98 <g_627>
   13920:	48 89 85 70 fb ff ff 	mov    %rax,-0x490(%rbp)
   13927:	48 8d 85 b0 ed ff ff 	lea    -0x1250(%rbp),%rax
   1392e:	48 89 85 78 fb ff ff 	mov    %rax,-0x488(%rbp)
   13935:	48 8d 05 5c e1 00 00 	lea    0xe15c(%rip),%rax        # 21a98 <g_627>
   1393c:	48 89 85 80 fb ff ff 	mov    %rax,-0x480(%rbp)
   13943:	48 8d 05 4e e1 00 00 	lea    0xe14e(%rip),%rax        # 21a98 <g_627>
   1394a:	48 89 85 88 fb ff ff 	mov    %rax,-0x478(%rbp)
   13951:	48 8d 05 40 e1 00 00 	lea    0xe140(%rip),%rax        # 21a98 <g_627>
   13958:	48 89 85 90 fb ff ff 	mov    %rax,-0x470(%rbp)
   1395f:	48 8d 05 3a e1 00 00 	lea    0xe13a(%rip),%rax        # 21aa0 <g_631>
   13966:	48 89 85 98 fb ff ff 	mov    %rax,-0x468(%rbp)
   1396d:	48 8d 85 b0 ed ff ff 	lea    -0x1250(%rbp),%rax
   13974:	48 89 85 a0 fb ff ff 	mov    %rax,-0x460(%rbp)
   1397b:	48 8d 85 b0 ed ff ff 	lea    -0x1250(%rbp),%rax
   13982:	48 89 85 a8 fb ff ff 	mov    %rax,-0x458(%rbp)
   13989:	48 8d 05 10 e1 00 00 	lea    0xe110(%rip),%rax        # 21aa0 <g_631>
   13990:	48 89 85 b0 fb ff ff 	mov    %rax,-0x450(%rbp)
   13997:	48 8d 05 fa e0 00 00 	lea    0xe0fa(%rip),%rax        # 21a98 <g_627>
   1399e:	48 89 85 b8 fb ff ff 	mov    %rax,-0x448(%rbp)
   139a5:	48 8d 05 ec e0 00 00 	lea    0xe0ec(%rip),%rax        # 21a98 <g_627>
   139ac:	48 89 85 c0 fb ff ff 	mov    %rax,-0x440(%rbp)
   139b3:	48 8d 05 de e0 00 00 	lea    0xe0de(%rip),%rax        # 21a98 <g_627>
   139ba:	48 89 85 c8 fb ff ff 	mov    %rax,-0x438(%rbp)
   139c1:	48 8d 85 b0 ed ff ff 	lea    -0x1250(%rbp),%rax
   139c8:	48 89 85 d0 fb ff ff 	mov    %rax,-0x430(%rbp)
   139cf:	48 8d 05 c2 e0 00 00 	lea    0xe0c2(%rip),%rax        # 21a98 <g_627>
   139d6:	48 89 85 d8 fb ff ff 	mov    %rax,-0x428(%rbp)
   139dd:	48 8d 05 b4 e0 00 00 	lea    0xe0b4(%rip),%rax        # 21a98 <g_627>
   139e4:	48 89 85 e0 fb ff ff 	mov    %rax,-0x420(%rbp)
   139eb:	48 8d 05 a6 e0 00 00 	lea    0xe0a6(%rip),%rax        # 21a98 <g_627>
   139f2:	48 89 85 e8 fb ff ff 	mov    %rax,-0x418(%rbp)
   139f9:	48 8d 05 a0 e0 00 00 	lea    0xe0a0(%rip),%rax        # 21aa0 <g_631>
   13a00:	48 89 85 f0 fb ff ff 	mov    %rax,-0x410(%rbp)
   13a07:	48 8d 05 8a e0 00 00 	lea    0xe08a(%rip),%rax        # 21a98 <g_627>
   13a0e:	48 89 85 f8 fb ff ff 	mov    %rax,-0x408(%rbp)
   13a15:	48 8d 05 7c e0 00 00 	lea    0xe07c(%rip),%rax        # 21a98 <g_627>
   13a1c:	48 89 85 00 fc ff ff 	mov    %rax,-0x400(%rbp)
   13a23:	48 8d 05 76 e0 00 00 	lea    0xe076(%rip),%rax        # 21aa0 <g_631>
   13a2a:	48 89 85 08 fc ff ff 	mov    %rax,-0x3f8(%rbp)
   13a31:	48 8d 05 68 e0 00 00 	lea    0xe068(%rip),%rax        # 21aa0 <g_631>
   13a38:	48 89 85 10 fc ff ff 	mov    %rax,-0x3f0(%rbp)
   13a3f:	48 8d 05 5a e0 00 00 	lea    0xe05a(%rip),%rax        # 21aa0 <g_631>
   13a46:	48 89 85 18 fc ff ff 	mov    %rax,-0x3e8(%rbp)
   13a4d:	48 8d 85 b0 ed ff ff 	lea    -0x1250(%rbp),%rax
   13a54:	48 89 85 20 fc ff ff 	mov    %rax,-0x3e0(%rbp)
   13a5b:	48 8d 05 36 e0 00 00 	lea    0xe036(%rip),%rax        # 21a98 <g_627>
   13a62:	48 89 85 28 fc ff ff 	mov    %rax,-0x3d8(%rbp)
   13a69:	48 8d 85 b0 ed ff ff 	lea    -0x1250(%rbp),%rax
   13a70:	48 89 85 30 fc ff ff 	mov    %rax,-0x3d0(%rbp)
   13a77:	48 8d 05 22 e0 00 00 	lea    0xe022(%rip),%rax        # 21aa0 <g_631>
   13a7e:	48 89 85 38 fc ff ff 	mov    %rax,-0x3c8(%rbp)
   13a85:	48 8d 05 14 e0 00 00 	lea    0xe014(%rip),%rax        # 21aa0 <g_631>
   13a8c:	48 89 85 40 fc ff ff 	mov    %rax,-0x3c0(%rbp)
   13a93:	48 8d 85 b0 ed ff ff 	lea    -0x1250(%rbp),%rax
   13a9a:	48 89 85 48 fc ff ff 	mov    %rax,-0x3b8(%rbp)
   13aa1:	48 8d 05 f0 df 00 00 	lea    0xdff0(%rip),%rax        # 21a98 <g_627>
   13aa8:	48 89 85 50 fc ff ff 	mov    %rax,-0x3b0(%rbp)
   13aaf:	48 8d 05 e2 df 00 00 	lea    0xdfe2(%rip),%rax        # 21a98 <g_627>
   13ab6:	48 89 85 58 fc ff ff 	mov    %rax,-0x3a8(%rbp)
   13abd:	48 8d 05 dc df 00 00 	lea    0xdfdc(%rip),%rax        # 21aa0 <g_631>
   13ac4:	48 89 85 60 fc ff ff 	mov    %rax,-0x3a0(%rbp)
   13acb:	48 8d 05 ce df 00 00 	lea    0xdfce(%rip),%rax        # 21aa0 <g_631>
   13ad2:	48 89 85 68 fc ff ff 	mov    %rax,-0x398(%rbp)
   13ad9:	48 8d 05 c0 df 00 00 	lea    0xdfc0(%rip),%rax        # 21aa0 <g_631>
   13ae0:	48 89 85 70 fc ff ff 	mov    %rax,-0x390(%rbp)
   13ae7:	48 8d 05 aa df 00 00 	lea    0xdfaa(%rip),%rax        # 21a98 <g_627>
   13aee:	48 89 85 78 fc ff ff 	mov    %rax,-0x388(%rbp)
   13af5:	48 8d 05 a4 df 00 00 	lea    0xdfa4(%rip),%rax        # 21aa0 <g_631>
   13afc:	48 89 85 80 fc ff ff 	mov    %rax,-0x380(%rbp)
   13b03:	48 8d 05 8e df 00 00 	lea    0xdf8e(%rip),%rax        # 21a98 <g_627>
   13b0a:	48 89 85 88 fc ff ff 	mov    %rax,-0x378(%rbp)
   13b11:	48 8d 05 88 df 00 00 	lea    0xdf88(%rip),%rax        # 21aa0 <g_631>
   13b18:	48 89 85 90 fc ff ff 	mov    %rax,-0x370(%rbp)
   13b1f:	48 8d 05 7a df 00 00 	lea    0xdf7a(%rip),%rax        # 21aa0 <g_631>
   13b26:	48 89 85 98 fc ff ff 	mov    %rax,-0x368(%rbp)
   13b2d:	48 8d 05 64 df 00 00 	lea    0xdf64(%rip),%rax        # 21a98 <g_627>
   13b34:	48 89 85 a0 fc ff ff 	mov    %rax,-0x360(%rbp)
   13b3b:	48 8d 05 5e df 00 00 	lea    0xdf5e(%rip),%rax        # 21aa0 <g_631>
   13b42:	48 89 85 a8 fc ff ff 	mov    %rax,-0x358(%rbp)
   13b49:	48 8d 05 48 df 00 00 	lea    0xdf48(%rip),%rax        # 21a98 <g_627>
   13b50:	48 89 85 b0 fc ff ff 	mov    %rax,-0x350(%rbp)
   13b57:	48 8d 05 42 df 00 00 	lea    0xdf42(%rip),%rax        # 21aa0 <g_631>
   13b5e:	48 89 85 b8 fc ff ff 	mov    %rax,-0x348(%rbp)
   13b65:	48 8d 05 34 df 00 00 	lea    0xdf34(%rip),%rax        # 21aa0 <g_631>
   13b6c:	48 89 85 c0 fc ff ff 	mov    %rax,-0x340(%rbp)
   13b73:	48 8d 05 26 df 00 00 	lea    0xdf26(%rip),%rax        # 21aa0 <g_631>
   13b7a:	48 89 85 c8 fc ff ff 	mov    %rax,-0x338(%rbp)
   13b81:	48 8d 05 10 df 00 00 	lea    0xdf10(%rip),%rax        # 21a98 <g_627>
   13b88:	48 89 85 d0 fc ff ff 	mov    %rax,-0x330(%rbp)
   13b8f:	48 8d 05 02 df 00 00 	lea    0xdf02(%rip),%rax        # 21a98 <g_627>
   13b96:	48 89 85 d8 fc ff ff 	mov    %rax,-0x328(%rbp)
   13b9d:	48 8d 85 b0 ed ff ff 	lea    -0x1250(%rbp),%rax
   13ba4:	48 89 85 e0 fc ff ff 	mov    %rax,-0x320(%rbp)
   13bab:	48 8d 05 ee de 00 00 	lea    0xdeee(%rip),%rax        # 21aa0 <g_631>
   13bb2:	48 89 85 e8 fc ff ff 	mov    %rax,-0x318(%rbp)
   13bb9:	48 8d 05 e0 de 00 00 	lea    0xdee0(%rip),%rax        # 21aa0 <g_631>
   13bc0:	48 89 85 f0 fc ff ff 	mov    %rax,-0x310(%rbp)
   13bc7:	48 8d 85 b0 ed ff ff 	lea    -0x1250(%rbp),%rax
   13bce:	48 89 85 f8 fc ff ff 	mov    %rax,-0x308(%rbp)
   13bd5:	48 8d 05 bc de 00 00 	lea    0xdebc(%rip),%rax        # 21a98 <g_627>
   13bdc:	48 89 85 00 fd ff ff 	mov    %rax,-0x300(%rbp)
   13be3:	48 8d 85 b0 ed ff ff 	lea    -0x1250(%rbp),%rax
   13bea:	48 89 85 08 fd ff ff 	mov    %rax,-0x2f8(%rbp)
   13bf1:	48 8d 85 b0 ed ff ff 	lea    -0x1250(%rbp),%rax
   13bf8:	48 89 85 10 fd ff ff 	mov    %rax,-0x2f0(%rbp)
   13bff:	48 8d 05 92 de 00 00 	lea    0xde92(%rip),%rax        # 21a98 <g_627>
   13c06:	48 89 85 18 fd ff ff 	mov    %rax,-0x2e8(%rbp)
   13c0d:	48 8d 85 b0 ed ff ff 	lea    -0x1250(%rbp),%rax
   13c14:	48 89 85 20 fd ff ff 	mov    %rax,-0x2e0(%rbp)
   13c1b:	48 8d 05 7e de 00 00 	lea    0xde7e(%rip),%rax        # 21aa0 <g_631>
   13c22:	48 89 85 28 fd ff ff 	mov    %rax,-0x2d8(%rbp)
   13c29:	48 8d 05 70 de 00 00 	lea    0xde70(%rip),%rax        # 21aa0 <g_631>
   13c30:	48 89 85 30 fd ff ff 	mov    %rax,-0x2d0(%rbp)
   13c37:	48 8d 85 b0 ed ff ff 	lea    -0x1250(%rbp),%rax
   13c3e:	48 89 85 38 fd ff ff 	mov    %rax,-0x2c8(%rbp)
   13c45:	48 8d 05 4c de 00 00 	lea    0xde4c(%rip),%rax        # 21a98 <g_627>
   13c4c:	48 89 85 40 fd ff ff 	mov    %rax,-0x2c0(%rbp)
   13c53:	48 8d 05 3e de 00 00 	lea    0xde3e(%rip),%rax        # 21a98 <g_627>
   13c5a:	48 89 85 48 fd ff ff 	mov    %rax,-0x2b8(%rbp)
   13c61:	48 8d 05 38 de 00 00 	lea    0xde38(%rip),%rax        # 21aa0 <g_631>
   13c68:	48 89 85 50 fd ff ff 	mov    %rax,-0x2b0(%rbp)
   13c6f:	48 8d 05 2a de 00 00 	lea    0xde2a(%rip),%rax        # 21aa0 <g_631>
   13c76:	48 89 85 58 fd ff ff 	mov    %rax,-0x2a8(%rbp)
   13c7d:	48 8d 05 1c de 00 00 	lea    0xde1c(%rip),%rax        # 21aa0 <g_631>
   13c84:	48 89 85 60 fd ff ff 	mov    %rax,-0x2a0(%rbp)
   13c8b:	48 8d 05 06 de 00 00 	lea    0xde06(%rip),%rax        # 21a98 <g_627>
   13c92:	48 89 85 68 fd ff ff 	mov    %rax,-0x298(%rbp)
   13c99:	48 8d 05 00 de 00 00 	lea    0xde00(%rip),%rax        # 21aa0 <g_631>
   13ca0:	48 89 85 70 fd ff ff 	mov    %rax,-0x290(%rbp)
   13ca7:	48 8d 05 ea dd 00 00 	lea    0xddea(%rip),%rax        # 21a98 <g_627>
   13cae:	48 89 85 78 fd ff ff 	mov    %rax,-0x288(%rbp)
   13cb5:	48 8d 05 e4 dd 00 00 	lea    0xdde4(%rip),%rax        # 21aa0 <g_631>
   13cbc:	48 89 85 80 fd ff ff 	mov    %rax,-0x280(%rbp)
   13cc3:	48 8d 05 d6 dd 00 00 	lea    0xddd6(%rip),%rax        # 21aa0 <g_631>
   13cca:	48 89 85 88 fd ff ff 	mov    %rax,-0x278(%rbp)
   13cd1:	48 8d 05 c0 dd 00 00 	lea    0xddc0(%rip),%rax        # 21a98 <g_627>
   13cd8:	48 89 85 90 fd ff ff 	mov    %rax,-0x270(%rbp)
   13cdf:	48 8d 05 ba dd 00 00 	lea    0xddba(%rip),%rax        # 21aa0 <g_631>
   13ce6:	48 89 85 98 fd ff ff 	mov    %rax,-0x268(%rbp)
   13ced:	48 8d 05 a4 dd 00 00 	lea    0xdda4(%rip),%rax        # 21a98 <g_627>
   13cf4:	48 89 85 a0 fd ff ff 	mov    %rax,-0x260(%rbp)
   13cfb:	48 8d 05 9e dd 00 00 	lea    0xdd9e(%rip),%rax        # 21aa0 <g_631>
   13d02:	48 89 85 a8 fd ff ff 	mov    %rax,-0x258(%rbp)
   13d09:	48 8d 05 90 dd 00 00 	lea    0xdd90(%rip),%rax        # 21aa0 <g_631>
   13d10:	48 89 85 b0 fd ff ff 	mov    %rax,-0x250(%rbp)
   13d17:	48 8d 05 82 dd 00 00 	lea    0xdd82(%rip),%rax        # 21aa0 <g_631>
   13d1e:	48 89 85 b8 fd ff ff 	mov    %rax,-0x248(%rbp)
   13d25:	48 8d 05 6c dd 00 00 	lea    0xdd6c(%rip),%rax        # 21a98 <g_627>
   13d2c:	48 89 85 c0 fd ff ff 	mov    %rax,-0x240(%rbp)
   13d33:	48 8d 05 5e dd 00 00 	lea    0xdd5e(%rip),%rax        # 21a98 <g_627>
   13d3a:	48 89 85 c8 fd ff ff 	mov    %rax,-0x238(%rbp)
   13d41:	48 8d 85 b0 ed ff ff 	lea    -0x1250(%rbp),%rax
   13d48:	48 89 85 d0 fd ff ff 	mov    %rax,-0x230(%rbp)
   13d4f:	48 8d 05 4a dd 00 00 	lea    0xdd4a(%rip),%rax        # 21aa0 <g_631>
   13d56:	48 89 85 d8 fd ff ff 	mov    %rax,-0x228(%rbp)
   13d5d:	48 8d 05 3c dd 00 00 	lea    0xdd3c(%rip),%rax        # 21aa0 <g_631>
   13d64:	48 89 85 e0 fd ff ff 	mov    %rax,-0x220(%rbp)
   13d6b:	48 8d 85 b0 ed ff ff 	lea    -0x1250(%rbp),%rax
   13d72:	48 89 85 e8 fd ff ff 	mov    %rax,-0x218(%rbp)
   13d79:	48 8d 05 18 dd 00 00 	lea    0xdd18(%rip),%rax        # 21a98 <g_627>
   13d80:	48 89 85 f0 fd ff ff 	mov    %rax,-0x210(%rbp)
   13d87:	48 8d 85 b0 ed ff ff 	lea    -0x1250(%rbp),%rax
   13d8e:	48 89 85 f8 fd ff ff 	mov    %rax,-0x208(%rbp)
   13d95:	48 8d 85 b0 ed ff ff 	lea    -0x1250(%rbp),%rax
   13d9c:	48 89 85 00 fe ff ff 	mov    %rax,-0x200(%rbp)
   13da3:	48 8d 05 ee dc 00 00 	lea    0xdcee(%rip),%rax        # 21a98 <g_627>
   13daa:	48 89 85 08 fe ff ff 	mov    %rax,-0x1f8(%rbp)
   13db1:	48 8d 85 b0 ed ff ff 	lea    -0x1250(%rbp),%rax
   13db8:	48 89 85 10 fe ff ff 	mov    %rax,-0x1f0(%rbp)
   13dbf:	48 8d 05 da dc 00 00 	lea    0xdcda(%rip),%rax        # 21aa0 <g_631>
   13dc6:	48 89 85 18 fe ff ff 	mov    %rax,-0x1e8(%rbp)
   13dcd:	48 8d 05 cc dc 00 00 	lea    0xdccc(%rip),%rax        # 21aa0 <g_631>
   13dd4:	48 89 85 20 fe ff ff 	mov    %rax,-0x1e0(%rbp)
   13ddb:	48 8d 85 b0 ed ff ff 	lea    -0x1250(%rbp),%rax
   13de2:	48 89 85 28 fe ff ff 	mov    %rax,-0x1d8(%rbp)
   13de9:	48 8d 05 a8 dc 00 00 	lea    0xdca8(%rip),%rax        # 21a98 <g_627>
   13df0:	48 89 85 30 fe ff ff 	mov    %rax,-0x1d0(%rbp)
   13df7:	48 8d 05 9a dc 00 00 	lea    0xdc9a(%rip),%rax        # 21a98 <g_627>
   13dfe:	48 89 85 38 fe ff ff 	mov    %rax,-0x1c8(%rbp)
   13e05:	48 8d 05 94 dc 00 00 	lea    0xdc94(%rip),%rax        # 21aa0 <g_631>
   13e0c:	48 89 85 40 fe ff ff 	mov    %rax,-0x1c0(%rbp)
   13e13:	48 8d 05 86 dc 00 00 	lea    0xdc86(%rip),%rax        # 21aa0 <g_631>
   13e1a:	48 89 85 48 fe ff ff 	mov    %rax,-0x1b8(%rbp)
   13e21:	48 8d 05 78 dc 00 00 	lea    0xdc78(%rip),%rax        # 21aa0 <g_631>
   13e28:	48 89 85 50 fe ff ff 	mov    %rax,-0x1b0(%rbp)
   13e2f:	48 8d 05 62 dc 00 00 	lea    0xdc62(%rip),%rax        # 21a98 <g_627>
   13e36:	48 89 85 58 fe ff ff 	mov    %rax,-0x1a8(%rbp)
   13e3d:	48 8d 05 5c dc 00 00 	lea    0xdc5c(%rip),%rax        # 21aa0 <g_631>
   13e44:	48 89 85 60 fe ff ff 	mov    %rax,-0x1a0(%rbp)
   13e4b:	48 8d 05 46 dc 00 00 	lea    0xdc46(%rip),%rax        # 21a98 <g_627>
   13e52:	48 89 85 68 fe ff ff 	mov    %rax,-0x198(%rbp)
   13e59:	48 8d 05 40 dc 00 00 	lea    0xdc40(%rip),%rax        # 21aa0 <g_631>
   13e60:	48 89 85 70 fe ff ff 	mov    %rax,-0x190(%rbp)
   13e67:	48 8d 05 32 dc 00 00 	lea    0xdc32(%rip),%rax        # 21aa0 <g_631>
   13e6e:	48 89 85 78 fe ff ff 	mov    %rax,-0x188(%rbp)
   13e75:	48 8d 05 1c dc 00 00 	lea    0xdc1c(%rip),%rax        # 21a98 <g_627>
   13e7c:	48 89 85 80 fe ff ff 	mov    %rax,-0x180(%rbp)
   13e83:	48 8d 05 16 dc 00 00 	lea    0xdc16(%rip),%rax        # 21aa0 <g_631>
   13e8a:	48 89 85 88 fe ff ff 	mov    %rax,-0x178(%rbp)
   13e91:	48 8d 05 00 dc 00 00 	lea    0xdc00(%rip),%rax        # 21a98 <g_627>
   13e98:	48 89 85 90 fe ff ff 	mov    %rax,-0x170(%rbp)
   13e9f:	48 8d 05 fa db 00 00 	lea    0xdbfa(%rip),%rax        # 21aa0 <g_631>
   13ea6:	48 89 85 98 fe ff ff 	mov    %rax,-0x168(%rbp)
   13ead:	48 8d 05 ec db 00 00 	lea    0xdbec(%rip),%rax        # 21aa0 <g_631>
   13eb4:	48 89 85 a0 fe ff ff 	mov    %rax,-0x160(%rbp)
   13ebb:	48 8d 05 de db 00 00 	lea    0xdbde(%rip),%rax        # 21aa0 <g_631>
   13ec2:	48 89 85 a8 fe ff ff 	mov    %rax,-0x158(%rbp)
   13ec9:	48 8d 05 c8 db 00 00 	lea    0xdbc8(%rip),%rax        # 21a98 <g_627>
   13ed0:	48 89 85 b0 fe ff ff 	mov    %rax,-0x150(%rbp)
   13ed7:	48 8d 05 ba db 00 00 	lea    0xdbba(%rip),%rax        # 21a98 <g_627>
   13ede:	48 89 85 b8 fe ff ff 	mov    %rax,-0x148(%rbp)
   13ee5:	48 8d 85 b0 ed ff ff 	lea    -0x1250(%rbp),%rax
   13eec:	48 89 85 c0 fe ff ff 	mov    %rax,-0x140(%rbp)
   13ef3:	48 8d 05 a6 db 00 00 	lea    0xdba6(%rip),%rax        # 21aa0 <g_631>
   13efa:	48 89 85 c8 fe ff ff 	mov    %rax,-0x138(%rbp)
   13f01:	48 8d 05 98 db 00 00 	lea    0xdb98(%rip),%rax        # 21aa0 <g_631>
   13f08:	48 89 85 d0 fe ff ff 	mov    %rax,-0x130(%rbp)
   13f0f:	48 8d 85 b0 ed ff ff 	lea    -0x1250(%rbp),%rax
   13f16:	48 89 85 d8 fe ff ff 	mov    %rax,-0x128(%rbp)
   13f1d:	48 8d 05 74 db 00 00 	lea    0xdb74(%rip),%rax        # 21a98 <g_627>
   13f24:	48 89 85 e0 fe ff ff 	mov    %rax,-0x120(%rbp)
   13f2b:	48 8d 85 b0 ed ff ff 	lea    -0x1250(%rbp),%rax
   13f32:	48 89 85 e8 fe ff ff 	mov    %rax,-0x118(%rbp)
   13f39:	48 8d 85 b0 ed ff ff 	lea    -0x1250(%rbp),%rax
   13f40:	48 89 85 f0 fe ff ff 	mov    %rax,-0x110(%rbp)
   13f47:	48 8d 05 4a db 00 00 	lea    0xdb4a(%rip),%rax        # 21a98 <g_627>
   13f4e:	48 89 85 f8 fe ff ff 	mov    %rax,-0x108(%rbp)
   13f55:	48 8d 85 b0 ed ff ff 	lea    -0x1250(%rbp),%rax
   13f5c:	48 89 85 00 ff ff ff 	mov    %rax,-0x100(%rbp)
   13f63:	48 8d 05 36 db 00 00 	lea    0xdb36(%rip),%rax        # 21aa0 <g_631>
   13f6a:	48 89 85 08 ff ff ff 	mov    %rax,-0xf8(%rbp)
   13f71:	48 8d 05 28 db 00 00 	lea    0xdb28(%rip),%rax        # 21aa0 <g_631>
   13f78:	48 89 85 10 ff ff ff 	mov    %rax,-0xf0(%rbp)
   13f7f:	48 8d 85 b0 ed ff ff 	lea    -0x1250(%rbp),%rax
   13f86:	48 89 85 18 ff ff ff 	mov    %rax,-0xe8(%rbp)
   13f8d:	48 8d 05 04 db 00 00 	lea    0xdb04(%rip),%rax        # 21a98 <g_627>
   13f94:	48 89 85 20 ff ff ff 	mov    %rax,-0xe0(%rbp)
   13f9b:	48 8d 05 f6 da 00 00 	lea    0xdaf6(%rip),%rax        # 21a98 <g_627>
   13fa2:	48 89 85 28 ff ff ff 	mov    %rax,-0xd8(%rbp)
   13fa9:	48 8d 05 f0 da 00 00 	lea    0xdaf0(%rip),%rax        # 21aa0 <g_631>
   13fb0:	48 89 85 30 ff ff ff 	mov    %rax,-0xd0(%rbp)
   13fb7:	48 8d 05 e2 da 00 00 	lea    0xdae2(%rip),%rax        # 21aa0 <g_631>
   13fbe:	48 89 85 38 ff ff ff 	mov    %rax,-0xc8(%rbp)
   13fc5:	48 8d 05 d4 da 00 00 	lea    0xdad4(%rip),%rax        # 21aa0 <g_631>
   13fcc:	48 89 85 40 ff ff ff 	mov    %rax,-0xc0(%rbp)
   13fd3:	48 8d 05 be da 00 00 	lea    0xdabe(%rip),%rax        # 21a98 <g_627>
   13fda:	48 89 85 48 ff ff ff 	mov    %rax,-0xb8(%rbp)
   13fe1:	48 8d 05 b8 da 00 00 	lea    0xdab8(%rip),%rax        # 21aa0 <g_631>
   13fe8:	48 89 85 50 ff ff ff 	mov    %rax,-0xb0(%rbp)
   13fef:	48 8d 05 a2 da 00 00 	lea    0xdaa2(%rip),%rax        # 21a98 <g_627>
   13ff6:	48 89 85 58 ff ff ff 	mov    %rax,-0xa8(%rbp)
   13ffd:	48 8d 05 9c da 00 00 	lea    0xda9c(%rip),%rax        # 21aa0 <g_631>
   14004:	48 89 85 60 ff ff ff 	mov    %rax,-0xa0(%rbp)
   1400b:	48 8d 05 8e da 00 00 	lea    0xda8e(%rip),%rax        # 21aa0 <g_631>
   14012:	48 89 85 68 ff ff ff 	mov    %rax,-0x98(%rbp)
   14019:	48 8d 05 78 da 00 00 	lea    0xda78(%rip),%rax        # 21a98 <g_627>
   14020:	48 89 85 70 ff ff ff 	mov    %rax,-0x90(%rbp)
   14027:	48 8d 05 72 da 00 00 	lea    0xda72(%rip),%rax        # 21aa0 <g_631>
   1402e:	48 89 85 78 ff ff ff 	mov    %rax,-0x88(%rbp)
   14035:	48 8d 05 5c da 00 00 	lea    0xda5c(%rip),%rax        # 21a98 <g_627>
   1403c:	48 89 45 80          	mov    %rax,-0x80(%rbp)
   14040:	48 8d 05 59 da 00 00 	lea    0xda59(%rip),%rax        # 21aa0 <g_631>
   14047:	48 89 45 88          	mov    %rax,-0x78(%rbp)
   1404b:	48 8d 05 4e da 00 00 	lea    0xda4e(%rip),%rax        # 21aa0 <g_631>
   14052:	48 89 45 90          	mov    %rax,-0x70(%rbp)
   14056:	48 8d 05 43 da 00 00 	lea    0xda43(%rip),%rax        # 21aa0 <g_631>
   1405d:	48 89 45 98          	mov    %rax,-0x68(%rbp)
   14061:	48 8d 05 30 da 00 00 	lea    0xda30(%rip),%rax        # 21a98 <g_627>
   14068:	48 89 45 a0          	mov    %rax,-0x60(%rbp)
   1406c:	48 8d 05 25 da 00 00 	lea    0xda25(%rip),%rax        # 21a98 <g_627>
   14073:	48 89 45 a8          	mov    %rax,-0x58(%rbp)
   14077:	c7 85 40 ed ff ff 00 	movl   $0x0,-0x12c0(%rbp)
   1407e:	00 00 00 
   14081:	eb 19                	jmp    1409c <func_65+0x4024>
   14083:	8b 85 40 ed ff ff    	mov    -0x12c0(%rbp),%eax
   14089:	48 98                	cltq   
   1408b:	66 c7 84 45 b0 f0 ff 	movw   $0x1,-0xf50(%rbp,%rax,2)
   14092:	ff 01 00 
   14095:	83 85 40 ed ff ff 01 	addl   $0x1,-0x12c0(%rbp)
   1409c:	83 bd 40 ed ff ff 01 	cmpl   $0x1,-0x12c0(%rbp)
   140a3:	7e de                	jle    14083 <func_65+0x400b>
   140a5:	c7 85 40 ed ff ff 00 	movl   $0x0,-0x12c0(%rbp)
   140ac:	00 00 00 
   140af:	eb 1e                	jmp    140cf <func_65+0x4057>
   140b1:	8b 85 40 ed ff ff    	mov    -0x12c0(%rbp),%eax
   140b7:	48 98                	cltq   
   140b9:	48 8d 15 b8 d9 00 00 	lea    0xd9b8(%rip),%rdx        # 21a78 <g_525>
   140c0:	48 89 94 c5 10 f1 ff 	mov    %rdx,-0xef0(%rbp,%rax,8)
   140c7:	ff 
   140c8:	83 85 40 ed ff ff 01 	addl   $0x1,-0x12c0(%rbp)
   140cf:	83 bd 40 ed ff ff 04 	cmpl   $0x4,-0x12c0(%rbp)
   140d6:	7e d9                	jle    140b1 <func_65+0x4039>
   140d8:	48 8b 95 c0 ed ff ff 	mov    -0x1240(%rbp),%rdx
   140df:	48 8b 85 50 ee ff ff 	mov    -0x11b0(%rbp),%rax
   140e6:	48 89 10             	mov    %rdx,(%rax)
   140e9:	48 8b 05 80 d9 00 00 	mov    0xd980(%rip),%rax        # 21a70 <g_526>
   140f0:	48 8b 00             	mov    (%rax),%rax
   140f3:	0f b7 00             	movzwl (%rax),%eax
   140f6:	0f b7 d8             	movzwl %ax,%ebx
   140f9:	48 8b 85 e0 ed ff ff 	mov    -0x1220(%rbp),%rax
   14100:	48 8b 95 f8 ed ff ff 	mov    -0x1208(%rbp),%rdx
   14107:	8b 12                	mov    (%rdx),%edx
   14109:	89 10                	mov    %edx,(%rax)
   1410b:	8b 00                	mov    (%rax),%eax
   1410d:	be 00 00 00 00       	mov    $0x0,%esi
   14112:	89 c7                	mov    %eax,%edi
   14114:	e8 ec 44 ff ff       	callq  8605 <safe_sub_func_int32_t_s_s>
   14119:	0f b7 c0             	movzwl %ax,%eax
   1411c:	89 de                	mov    %ebx,%esi
   1411e:	89 c7                	mov    %eax,%edi
   14120:	e8 69 4c ff ff       	callq  8d8e <safe_div_func_uint16_t_u_u>
   14125:	8b 85 e8 ec ff ff    	mov    -0x1318(%rbp),%eax
   1412b:	83 e0 01             	and    $0x1,%eax
   1412e:	85 c0                	test   %eax,%eax
   14130:	0f 94 c0             	sete   %al
   14133:	0f b6 d0             	movzbl %al,%edx
   14136:	48 8b 85 f8 ed ff ff 	mov    -0x1208(%rbp),%rax
   1413d:	8b 00                	mov    (%rax),%eax
   1413f:	48 98                	cltq   
   14141:	48 89 d6             	mov    %rdx,%rsi
   14144:	48 89 c7             	mov    %rax,%rdi
   14147:	e8 f5 46 ff ff       	callq  8841 <safe_add_func_int64_t_s_s>
   1414c:	48 8b 95 f8 ed ff ff 	mov    -0x1208(%rbp),%rdx
   14153:	8b 12                	mov    (%rdx),%edx
   14155:	48 63 d2             	movslq %edx,%rdx
   14158:	48 39 d0             	cmp    %rdx,%rax
   1415b:	0f 94 c0             	sete   %al
   1415e:	0f b6 d0             	movzbl %al,%edx
   14161:	8b 85 50 ed ff ff    	mov    -0x12b0(%rbp),%eax
   14167:	89 c1                	mov    %eax,%ecx
   14169:	48 8b 85 f8 ec ff ff 	mov    -0x1308(%rbp),%rax
   14170:	09 c8                	or     %ecx,%eax
   14172:	98                   	cwtl   
   14173:	89 d6                	mov    %edx,%esi
   14175:	89 c7                	mov    %eax,%edi
   14177:	e8 37 42 ff ff       	callq  83b3 <safe_add_func_int16_t_s_s>
   1417c:	8b 85 50 ed ff ff    	mov    -0x12b0(%rbp),%eax
   14182:	48 98                	cltq   
   14184:	83 e0 01             	and    $0x1,%eax
   14187:	48 89 c2             	mov    %rax,%rdx
   1418a:	48 8b 05 17 d9 00 00 	mov    0xd917(%rip),%rax        # 21aa8 <g_776>
   14191:	48 8b 00             	mov    (%rax),%rax
   14194:	48 39 c2             	cmp    %rax,%rdx
   14197:	be 01 00 00 00       	mov    $0x1,%esi
   1419c:	bf ac 00 00 00       	mov    $0xac,%edi
   141a1:	e8 ed 49 ff ff       	callq  8b93 <safe_mul_func_uint8_t_u_u>
   141a6:	48 8b 95 58 ee ff ff 	mov    -0x11a8(%rbp),%rdx
   141ad:	8b 12                	mov    (%rdx),%edx
   141af:	0f b6 c0             	movzbl %al,%eax
   141b2:	21 c2                	and    %eax,%edx
   141b4:	48 8b 85 58 ee ff ff 	mov    -0x11a8(%rbp),%rax
   141bb:	89 10                	mov    %edx,(%rax)
   141bd:	48 8d 05 7c d8 00 00 	lea    0xd87c(%rip),%rax        # 21a40 <g_132>
   141c4:	48 8b 00             	mov    (%rax),%rax
   141c7:	8b 00                	mov    (%rax),%eax
   141c9:	85 c0                	test   %eax,%eax
   141cb:	0f 85 58 02 00 00    	jne    14429 <func_65+0x43b1>
   141d1:	48 8d 05 d8 d8 00 00 	lea    0xd8d8(%rip),%rax        # 21ab0 <g_876>
   141d8:	48 89 85 60 ee ff ff 	mov    %rax,-0x11a0(%rbp)
   141df:	48 c7 85 68 ee ff ff 	movq   $0x0,-0x1198(%rbp)
   141e6:	00 00 00 00 
   141ea:	48 8d 05 4f d8 00 00 	lea    0xd84f(%rip),%rax        # 21a40 <g_132>
   141f1:	48 89 85 e8 ed ff ff 	mov    %rax,-0x1218(%rbp)
   141f8:	48 8d 85 e8 ed ff ff 	lea    -0x1218(%rbp),%rax
   141ff:	48 89 85 70 ee ff ff 	mov    %rax,-0x1190(%rbp)
   14206:	48 8d 85 18 ed ff ff 	lea    -0x12e8(%rbp),%rax
   1420d:	48 89 85 78 ee ff ff 	mov    %rax,-0x1188(%rbp)
   14214:	48 8d 85 07 ed ff ff 	lea    -0x12f9(%rbp),%rax
   1421b:	48 89 85 80 ee ff ff 	mov    %rax,-0x1180(%rbp)
   14222:	48 8b 15 87 d8 00 00 	mov    0xd887(%rip),%rdx        # 21ab0 <g_876>
   14229:	48 8b 85 60 ee ff ff 	mov    -0x11a0(%rbp),%rax
   14230:	48 89 10             	mov    %rdx,(%rax)
   14233:	48 8b 85 70 ee ff ff 	mov    -0x1190(%rbp),%rax
   1423a:	48 8d 95 e0 ed ff ff 	lea    -0x1220(%rbp),%rdx
   14241:	48 89 10             	mov    %rdx,(%rax)
   14244:	8b 05 c2 e2 00 00    	mov    0xe2c2(%rip),%eax        # 2250c <g_11>
   1424a:	0f b7 d8             	movzwl %ax,%ebx
   1424d:	48 8b 05 1c d8 00 00 	mov    0xd81c(%rip),%rax        # 21a70 <g_526>
   14254:	48 8b 00             	mov    (%rax),%rax
   14257:	0f b7 00             	movzwl (%rax),%eax
   1425a:	44 0f bf e0          	movswl %ax,%r12d
   1425e:	48 8b 85 58 ee ff ff 	mov    -0x11a8(%rbp),%rax
   14265:	8b 00                	mov    (%rax),%eax
   14267:	44 0f b7 e8          	movzwl %ax,%r13d
   1426b:	48 8b 85 58 ee ff ff 	mov    -0x11a8(%rbp),%rax
   14272:	8b 00                	mov    (%rax),%eax
   14274:	0f b6 d0             	movzbl %al,%edx
   14277:	8b 05 c7 9f 00 00    	mov    0x9fc7(%rip),%eax        # 1e244 <g_823>
   1427d:	83 f8 01             	cmp    $0x1,%eax
   14280:	0f 94 c0             	sete   %al
   14283:	0f b6 c8             	movzbl %al,%ecx
   14286:	48 8b 85 e0 ed ff ff 	mov    -0x1220(%rbp),%rax
   1428d:	8b 00                	mov    (%rax),%eax
   1428f:	39 c1                	cmp    %eax,%ecx
   14291:	7e 1a                	jle    142ad <func_65+0x4235>
   14293:	48 8b 85 60 ee ff ff 	mov    -0x11a0(%rbp),%rax
   1429a:	48 8b 00             	mov    (%rax),%rax
   1429d:	48 8b 00             	mov    (%rax),%rax
   142a0:	8b 00                	mov    (%rax),%eax
   142a2:	85 c0                	test   %eax,%eax
   142a4:	74 07                	je     142ad <func_65+0x4235>
   142a6:	b8 01 00 00 00       	mov    $0x1,%eax
   142ab:	eb 05                	jmp    142b2 <func_65+0x423a>
   142ad:	b8 00 00 00 00       	mov    $0x0,%eax
   142b2:	89 c1                	mov    %eax,%ecx
   142b4:	8b 05 16 9e 00 00    	mov    0x9e16(%rip),%eax        # 1e0d0 <g_216>
   142ba:	31 c1                	xor    %eax,%ecx
   142bc:	48 8b 85 f8 ed ff ff 	mov    -0x1208(%rbp),%rax
   142c3:	8b 00                	mov    (%rax),%eax
   142c5:	39 c1                	cmp    %eax,%ecx
   142c7:	0f 92 c0             	setb   %al
   142ca:	0f b6 c0             	movzbl %al,%eax
   142cd:	89 d6                	mov    %edx,%esi
   142cf:	89 c7                	mov    %eax,%edi
   142d1:	e8 05 49 ff ff       	callq  8bdb <safe_div_func_uint8_t_u_u>
   142d6:	48 8b 95 78 ee ff ff 	mov    -0x1188(%rbp),%rdx
   142dd:	8b 12                	mov    (%rdx),%edx
   142df:	0f b6 c0             	movzbl %al,%eax
   142e2:	21 c2                	and    %eax,%edx
   142e4:	48 8b 85 78 ee ff ff 	mov    -0x1188(%rbp),%rax
   142eb:	89 10                	mov    %edx,(%rax)
   142ed:	48 8b 85 78 ee ff ff 	mov    -0x1188(%rbp),%rax
   142f4:	8b 00                	mov    (%rax),%eax
   142f6:	be 43 67 b9 02       	mov    $0x2b96743,%esi
   142fb:	89 c7                	mov    %eax,%edi
   142fd:	e8 03 43 ff ff       	callq  8605 <safe_sub_func_int32_t_s_s>
   14302:	44 89 ee             	mov    %r13d,%esi
   14305:	bf 00 00 00 00       	mov    $0x0,%edi
   1430a:	e8 2e 4a ff ff       	callq  8d3d <safe_mul_func_uint16_t_u_u>
   1430f:	8b 05 73 9d 00 00    	mov    0x9d73(%rip),%eax        # 1e088 <g_90>
   14315:	88 05 27 9d 00 00    	mov    %al,0x9d27(%rip)        # 1e042 <g_5+0x2>
   1431b:	0f b6 05 20 9d 00 00 	movzbl 0x9d20(%rip),%eax        # 1e042 <g_5+0x2>
   14322:	3c 01                	cmp    $0x1,%al
   14324:	0f 95 c0             	setne  %al
   14327:	89 c2                	mov    %eax,%edx
   14329:	48 8b 85 f8 ec ff ff 	mov    -0x1308(%rbp),%rax
   14330:	21 c2                	and    %eax,%edx
   14332:	48 8b 85 80 ee ff ff 	mov    -0x1180(%rbp),%rax
   14339:	88 10                	mov    %dl,(%rax)
   1433b:	48 8b 85 80 ee ff ff 	mov    -0x1180(%rbp),%rax
   14342:	0f b6 00             	movzbl (%rax),%eax
   14345:	0f b6 c0             	movzbl %al,%eax
   14348:	be 07 00 00 00       	mov    $0x7,%esi
   1434d:	89 c7                	mov    %eax,%edi
   1434f:	e8 39 49 ff ff       	callq  8c8d <safe_rshift_func_uint8_t_u_s>
   14354:	0f b6 c0             	movzbl %al,%eax
   14357:	44 89 e6             	mov    %r12d,%esi
   1435a:	89 c7                	mov    %eax,%edi
   1435c:	e8 c9 41 ff ff       	callq  852a <safe_rshift_func_int16_t_s_s>
   14361:	0f bf d0             	movswl %ax,%edx
   14364:	8b 05 1a 9d 00 00    	mov    0x9d1a(%rip),%eax        # 1e084 <g_51>
   1436a:	39 c2                	cmp    %eax,%edx
   1436c:	0f 9d c0             	setge  %al
   1436f:	0f b6 d0             	movzbl %al,%edx
   14372:	48 8b 05 2f d7 00 00 	mov    0xd72f(%rip),%rax        # 21aa8 <g_776>
   14379:	48 8b 00             	mov    (%rax),%rax
   1437c:	48 39 c2             	cmp    %rax,%rdx
   1437f:	0f 94 c0             	sete   %al
   14382:	0f b6 c0             	movzbl %al,%eax
   14385:	8b 15 31 9d 00 00    	mov    0x9d31(%rip),%edx        # 1e0bc <g_127>
   1438b:	21 d0                	and    %edx,%eax
   1438d:	0f b7 c0             	movzwl %ax,%eax
   14390:	89 de                	mov    %ebx,%esi
   14392:	89 c7                	mov    %eax,%edi
   14394:	e8 c3 49 ff ff       	callq  8d5c <safe_mod_func_uint16_t_u_u>
   14399:	0f b7 c0             	movzwl %ax,%eax
   1439c:	be 34 5b 0e 44       	mov    $0x440e5b34,%esi
   143a1:	89 c7                	mov    %eax,%edi
   143a3:	e8 10 4b ff ff       	callq  8eb8 <safe_add_func_uint32_t_u_u>
   143a8:	be 0c 0b bd 5f       	mov    $0x5fbd0b0c,%esi
   143ad:	89 c7                	mov    %eax,%edi
   143af:	e8 51 42 ff ff       	callq  8605 <safe_sub_func_int32_t_s_s>
   143b4:	48 c7 c2 ff ff ff ff 	mov    $0xffffffffffffffff,%rdx
   143bb:	8b 05 f7 9d 00 00    	mov    0x9df7(%rip),%eax        # 1e1b8 <g_730>
   143c1:	21 d0                	and    %edx,%eax
   143c3:	89 05 ef 9d 00 00    	mov    %eax,0x9def(%rip)        # 1e1b8 <g_730>
   143c9:	c7 05 cd 9d 00 00 00 	movl   $0x0,0x9dcd(%rip)        # 1e1a0 <g_628>
   143d0:	00 00 00 
   143d3:	eb 19                	jmp    143ee <func_65+0x4376>
   143d5:	48 83 bd 48 ee ff ff 	cmpq   $0x0,-0x11b8(%rbp)
   143dc:	00 
   143dd:	75 1c                	jne    143fb <func_65+0x4383>
   143df:	8b 05 bb 9d 00 00    	mov    0x9dbb(%rip),%eax        # 1e1a0 <g_628>
   143e5:	83 c0 01             	add    $0x1,%eax
   143e8:	89 05 b2 9d 00 00    	mov    %eax,0x9db2(%rip)        # 1e1a0 <g_628>
   143ee:	8b 05 ac 9d 00 00    	mov    0x9dac(%rip),%eax        # 1e1a0 <g_628>
   143f4:	83 f8 06             	cmp    $0x6,%eax
   143f7:	7f dc                	jg     143d5 <func_65+0x435d>
   143f9:	eb 01                	jmp    143fc <func_65+0x4384>
   143fb:	90                   	nop
   143fc:	0f b6 05 25 9d 00 00 	movzbl 0x9d25(%rip),%eax        # 1e128 <g_390>
   14403:	0f b6 c0             	movzbl %al,%eax
   14406:	be 04 00 00 00       	mov    $0x4,%esi
   1440b:	89 c7                	mov    %eax,%edi
   1440d:	e8 ed 48 ff ff       	callq  8cff <safe_add_func_uint16_t_u_u>
   14412:	88 05 10 9d 00 00    	mov    %al,0x9d10(%rip)        # 1e128 <g_390>
   14418:	0f b6 05 09 9d 00 00 	movzbl 0x9d09(%rip),%eax        # 1e128 <g_390>
   1441f:	3c 16                	cmp    $0x16,%al
   14421:	0f 87 66 ee ff ff    	ja     1328d <func_65+0x3215>
   14427:	eb 01                	jmp    1442a <func_65+0x43b2>
   14429:	90                   	nop
   1442a:	48 8b 85 f8 ec ff ff 	mov    -0x1308(%rbp),%rax
   14431:	48 8b 5d c8          	mov    -0x38(%rbp),%rbx
   14435:	64 48 33 1c 25 28 00 	xor    %fs:0x28,%rbx
   1443c:	00 00 
   1443e:	74 05                	je     14445 <func_65+0x43cd>
   14440:	e8 2b 3c ff ff       	callq  8070 <__stack_chk_fail@plt>
   14445:	48 81 c4 f8 12 00 00 	add    $0x12f8,%rsp
   1444c:	5b                   	pop    %rbx
   1444d:	41 5c                	pop    %r12
   1444f:	41 5d                	pop    %r13
   14451:	41 5e                	pop    %r14
   14453:	41 5f                	pop    %r15
   14455:	5d                   	pop    %rbp
   14456:	c3                   	retq   

0000000000014457 <func_70>:
   14457:	f3 0f 1e fa          	endbr64 
   1445b:	55                   	push   %rbp
   1445c:	48 89 e5             	mov    %rsp,%rbp
   1445f:	53                   	push   %rbx
   14460:	48 81 ec 68 0b 00 00 	sub    $0xb68,%rsp
   14467:	48 89 bd a8 f4 ff ff 	mov    %rdi,-0xb58(%rbp)
   1446e:	48 89 b5 a0 f4 ff ff 	mov    %rsi,-0xb60(%rbp)
   14475:	89 95 9c f4 ff ff    	mov    %edx,-0xb64(%rbp)
   1447b:	89 c8                	mov    %ecx,%eax
   1447d:	88 85 98 f4 ff ff    	mov    %al,-0xb68(%rbp)
   14483:	64 48 8b 04 25 28 00 	mov    %fs:0x28,%rax
   1448a:	00 00 
   1448c:	48 89 45 e8          	mov    %rax,-0x18(%rbp)
   14490:	31 c0                	xor    %eax,%eax
   14492:	48 8d 85 d0 f4 ff ff 	lea    -0xb30(%rbp),%rax
   14499:	48 8d 15 80 c9 00 00 	lea    0xc980(%rip),%rdx        # 20e20 <g_2204+0x2100>
   144a0:	b9 90 00 00 00       	mov    $0x90,%ecx
   144a5:	48 89 c7             	mov    %rax,%rdi
   144a8:	48 89 d6             	mov    %rdx,%rsi
   144ab:	f3 48 a5             	rep movsq %ds:(%rsi),%es:(%rdi)
   144ae:	48 8d 05 73 9c 00 00 	lea    0x9c73(%rip),%rax        # 1e128 <g_390>
   144b5:	48 89 85 c0 f4 ff ff 	mov    %rax,-0xb40(%rbp)
   144bc:	48 8d 05 c5 9b 00 00 	lea    0x9bc5(%rip),%rax        # 1e088 <g_90>
   144c3:	48 89 85 b8 f4 ff ff 	mov    %rax,-0xb48(%rbp)
   144ca:	48 8d 05 6f d5 00 00 	lea    0xd56f(%rip),%rax        # 21a40 <g_132>
   144d1:	48 89 85 50 f9 ff ff 	mov    %rax,-0x6b0(%rbp)
   144d8:	48 8d 05 79 d5 00 00 	lea    0xd579(%rip),%rax        # 21a58 <g_214>
   144df:	48 89 85 58 f9 ff ff 	mov    %rax,-0x6a8(%rbp)
   144e6:	48 8d 05 6b d5 00 00 	lea    0xd56b(%rip),%rax        # 21a58 <g_214>
   144ed:	48 89 85 60 f9 ff ff 	mov    %rax,-0x6a0(%rbp)
   144f4:	48 c7 85 68 f9 ff ff 	movq   $0x0,-0x698(%rbp)
   144fb:	00 00 00 00 
   144ff:	48 8d 85 b8 f4 ff ff 	lea    -0xb48(%rbp),%rax
   14506:	48 89 85 70 f9 ff ff 	mov    %rax,-0x690(%rbp)
   1450d:	48 8d 05 2c d5 00 00 	lea    0xd52c(%rip),%rax        # 21a40 <g_132>
   14514:	48 89 85 78 f9 ff ff 	mov    %rax,-0x688(%rbp)
   1451b:	48 8d 05 1e d5 00 00 	lea    0xd51e(%rip),%rax        # 21a40 <g_132>
   14522:	48 89 85 80 f9 ff ff 	mov    %rax,-0x680(%rbp)
   14529:	48 8d 05 28 d5 00 00 	lea    0xd528(%rip),%rax        # 21a58 <g_214>
   14530:	48 89 85 88 f9 ff ff 	mov    %rax,-0x678(%rbp)
   14537:	48 8d 05 1a d5 00 00 	lea    0xd51a(%rip),%rax        # 21a58 <g_214>
   1453e:	48 89 85 90 f9 ff ff 	mov    %rax,-0x670(%rbp)
   14545:	48 c7 85 98 f9 ff ff 	movq   $0x0,-0x668(%rbp)
   1454c:	00 00 00 00 
   14550:	48 8d 85 b8 f4 ff ff 	lea    -0xb48(%rbp),%rax
   14557:	48 89 85 a0 f9 ff ff 	mov    %rax,-0x660(%rbp)
   1455e:	48 8d 05 db d4 00 00 	lea    0xd4db(%rip),%rax        # 21a40 <g_132>
   14565:	48 89 85 a8 f9 ff ff 	mov    %rax,-0x658(%rbp)
   1456c:	48 8d 05 cd d4 00 00 	lea    0xd4cd(%rip),%rax        # 21a40 <g_132>
   14573:	48 89 85 b0 f9 ff ff 	mov    %rax,-0x650(%rbp)
   1457a:	48 8d 05 d7 d4 00 00 	lea    0xd4d7(%rip),%rax        # 21a58 <g_214>
   14581:	48 89 85 b8 f9 ff ff 	mov    %rax,-0x648(%rbp)
   14588:	48 8d 05 c9 d4 00 00 	lea    0xd4c9(%rip),%rax        # 21a58 <g_214>
   1458f:	48 89 85 c0 f9 ff ff 	mov    %rax,-0x640(%rbp)
   14596:	48 c7 85 c8 f9 ff ff 	movq   $0x0,-0x638(%rbp)
   1459d:	00 00 00 00 
   145a1:	48 8d 85 b8 f4 ff ff 	lea    -0xb48(%rbp),%rax
   145a8:	48 89 85 d0 f9 ff ff 	mov    %rax,-0x630(%rbp)
   145af:	48 8d 05 8a d4 00 00 	lea    0xd48a(%rip),%rax        # 21a40 <g_132>
   145b6:	48 89 85 d8 f9 ff ff 	mov    %rax,-0x628(%rbp)
   145bd:	48 8d 05 7c d4 00 00 	lea    0xd47c(%rip),%rax        # 21a40 <g_132>
   145c4:	48 89 85 e0 f9 ff ff 	mov    %rax,-0x620(%rbp)
   145cb:	48 8d 05 86 d4 00 00 	lea    0xd486(%rip),%rax        # 21a58 <g_214>
   145d2:	48 89 85 e8 f9 ff ff 	mov    %rax,-0x618(%rbp)
   145d9:	48 8d 05 78 d4 00 00 	lea    0xd478(%rip),%rax        # 21a58 <g_214>
   145e0:	48 89 85 f0 f9 ff ff 	mov    %rax,-0x610(%rbp)
   145e7:	48 c7 85 f8 f9 ff ff 	movq   $0x0,-0x608(%rbp)
   145ee:	00 00 00 00 
   145f2:	48 8d 85 b8 f4 ff ff 	lea    -0xb48(%rbp),%rax
   145f9:	48 89 85 00 fa ff ff 	mov    %rax,-0x600(%rbp)
   14600:	48 8d 05 39 d4 00 00 	lea    0xd439(%rip),%rax        # 21a40 <g_132>
   14607:	48 89 85 08 fa ff ff 	mov    %rax,-0x5f8(%rbp)
   1460e:	48 8d 05 2b d4 00 00 	lea    0xd42b(%rip),%rax        # 21a40 <g_132>
   14615:	48 89 85 10 fa ff ff 	mov    %rax,-0x5f0(%rbp)
   1461c:	48 8d 05 35 d4 00 00 	lea    0xd435(%rip),%rax        # 21a58 <g_214>
   14623:	48 89 85 18 fa ff ff 	mov    %rax,-0x5e8(%rbp)
   1462a:	48 8d 05 27 d4 00 00 	lea    0xd427(%rip),%rax        # 21a58 <g_214>
   14631:	48 89 85 20 fa ff ff 	mov    %rax,-0x5e0(%rbp)
   14638:	48 c7 85 28 fa ff ff 	movq   $0x0,-0x5d8(%rbp)
   1463f:	00 00 00 00 
   14643:	48 8d 85 b8 f4 ff ff 	lea    -0xb48(%rbp),%rax
   1464a:	48 89 85 30 fa ff ff 	mov    %rax,-0x5d0(%rbp)
   14651:	48 8d 05 e8 d3 00 00 	lea    0xd3e8(%rip),%rax        # 21a40 <g_132>
   14658:	48 89 85 38 fa ff ff 	mov    %rax,-0x5c8(%rbp)
   1465f:	48 8d 05 da d3 00 00 	lea    0xd3da(%rip),%rax        # 21a40 <g_132>
   14666:	48 89 85 40 fa ff ff 	mov    %rax,-0x5c0(%rbp)
   1466d:	48 8d 05 e4 d3 00 00 	lea    0xd3e4(%rip),%rax        # 21a58 <g_214>
   14674:	48 89 85 48 fa ff ff 	mov    %rax,-0x5b8(%rbp)
   1467b:	48 8d 05 d6 d3 00 00 	lea    0xd3d6(%rip),%rax        # 21a58 <g_214>
   14682:	48 89 85 50 fa ff ff 	mov    %rax,-0x5b0(%rbp)
   14689:	48 c7 85 58 fa ff ff 	movq   $0x0,-0x5a8(%rbp)
   14690:	00 00 00 00 
   14694:	48 8d 85 b8 f4 ff ff 	lea    -0xb48(%rbp),%rax
   1469b:	48 89 85 60 fa ff ff 	mov    %rax,-0x5a0(%rbp)
   146a2:	48 8d 05 97 d3 00 00 	lea    0xd397(%rip),%rax        # 21a40 <g_132>
   146a9:	48 89 85 68 fa ff ff 	mov    %rax,-0x598(%rbp)
   146b0:	48 8d 05 89 d3 00 00 	lea    0xd389(%rip),%rax        # 21a40 <g_132>
   146b7:	48 89 85 70 fa ff ff 	mov    %rax,-0x590(%rbp)
   146be:	48 8d 05 93 d3 00 00 	lea    0xd393(%rip),%rax        # 21a58 <g_214>
   146c5:	48 89 85 78 fa ff ff 	mov    %rax,-0x588(%rbp)
   146cc:	48 8d 05 85 d3 00 00 	lea    0xd385(%rip),%rax        # 21a58 <g_214>
   146d3:	48 89 85 80 fa ff ff 	mov    %rax,-0x580(%rbp)
   146da:	48 c7 85 88 fa ff ff 	movq   $0x0,-0x578(%rbp)
   146e1:	00 00 00 00 
   146e5:	48 8d 85 b8 f4 ff ff 	lea    -0xb48(%rbp),%rax
   146ec:	48 89 85 90 fa ff ff 	mov    %rax,-0x570(%rbp)
   146f3:	48 8d 05 46 d3 00 00 	lea    0xd346(%rip),%rax        # 21a40 <g_132>
   146fa:	48 89 85 98 fa ff ff 	mov    %rax,-0x568(%rbp)
   14701:	48 8d 05 38 d3 00 00 	lea    0xd338(%rip),%rax        # 21a40 <g_132>
   14708:	48 89 85 a0 fa ff ff 	mov    %rax,-0x560(%rbp)
   1470f:	48 8d 05 42 d3 00 00 	lea    0xd342(%rip),%rax        # 21a58 <g_214>
   14716:	48 89 85 a8 fa ff ff 	mov    %rax,-0x558(%rbp)
   1471d:	48 8d 05 34 d3 00 00 	lea    0xd334(%rip),%rax        # 21a58 <g_214>
   14724:	48 89 85 b0 fa ff ff 	mov    %rax,-0x550(%rbp)
   1472b:	48 c7 85 b8 fa ff ff 	movq   $0x0,-0x548(%rbp)
   14732:	00 00 00 00 
   14736:	48 8d 85 b8 f4 ff ff 	lea    -0xb48(%rbp),%rax
   1473d:	48 89 85 c0 fa ff ff 	mov    %rax,-0x540(%rbp)
   14744:	48 8d 05 f5 d2 00 00 	lea    0xd2f5(%rip),%rax        # 21a40 <g_132>
   1474b:	48 89 85 c8 fa ff ff 	mov    %rax,-0x538(%rbp)
   14752:	48 8d 05 e7 d2 00 00 	lea    0xd2e7(%rip),%rax        # 21a40 <g_132>
   14759:	48 89 85 d0 fa ff ff 	mov    %rax,-0x530(%rbp)
   14760:	48 8d 05 f1 d2 00 00 	lea    0xd2f1(%rip),%rax        # 21a58 <g_214>
   14767:	48 89 85 d8 fa ff ff 	mov    %rax,-0x528(%rbp)
   1476e:	48 8d 05 e3 d2 00 00 	lea    0xd2e3(%rip),%rax        # 21a58 <g_214>
   14775:	48 89 85 e0 fa ff ff 	mov    %rax,-0x520(%rbp)
   1477c:	48 c7 85 e8 fa ff ff 	movq   $0x0,-0x518(%rbp)
   14783:	00 00 00 00 
   14787:	48 8d 85 b8 f4 ff ff 	lea    -0xb48(%rbp),%rax
   1478e:	48 89 85 f0 fa ff ff 	mov    %rax,-0x510(%rbp)
   14795:	48 8d 05 a4 d2 00 00 	lea    0xd2a4(%rip),%rax        # 21a40 <g_132>
   1479c:	48 89 85 f8 fa ff ff 	mov    %rax,-0x508(%rbp)
   147a3:	48 8d 05 96 d2 00 00 	lea    0xd296(%rip),%rax        # 21a40 <g_132>
   147aa:	48 89 85 00 fb ff ff 	mov    %rax,-0x500(%rbp)
   147b1:	48 8d 05 a0 d2 00 00 	lea    0xd2a0(%rip),%rax        # 21a58 <g_214>
   147b8:	48 89 85 08 fb ff ff 	mov    %rax,-0x4f8(%rbp)
   147bf:	48 8d 05 92 d2 00 00 	lea    0xd292(%rip),%rax        # 21a58 <g_214>
   147c6:	48 89 85 10 fb ff ff 	mov    %rax,-0x4f0(%rbp)
   147cd:	48 c7 85 18 fb ff ff 	movq   $0x0,-0x4e8(%rbp)
   147d4:	00 00 00 00 
   147d8:	48 8d 85 b8 f4 ff ff 	lea    -0xb48(%rbp),%rax
   147df:	48 89 85 20 fb ff ff 	mov    %rax,-0x4e0(%rbp)
   147e6:	48 8d 05 53 d2 00 00 	lea    0xd253(%rip),%rax        # 21a40 <g_132>
   147ed:	48 89 85 28 fb ff ff 	mov    %rax,-0x4d8(%rbp)
   147f4:	48 8d 05 45 d2 00 00 	lea    0xd245(%rip),%rax        # 21a40 <g_132>
   147fb:	48 89 85 30 fb ff ff 	mov    %rax,-0x4d0(%rbp)
   14802:	48 8d 05 4f d2 00 00 	lea    0xd24f(%rip),%rax        # 21a58 <g_214>
   14809:	48 89 85 38 fb ff ff 	mov    %rax,-0x4c8(%rbp)
   14810:	48 8d 05 41 d2 00 00 	lea    0xd241(%rip),%rax        # 21a58 <g_214>
   14817:	48 89 85 40 fb ff ff 	mov    %rax,-0x4c0(%rbp)
   1481e:	48 c7 85 48 fb ff ff 	movq   $0x0,-0x4b8(%rbp)
   14825:	00 00 00 00 
   14829:	48 8d 85 b8 f4 ff ff 	lea    -0xb48(%rbp),%rax
   14830:	48 89 85 50 fb ff ff 	mov    %rax,-0x4b0(%rbp)
   14837:	48 8d 05 02 d2 00 00 	lea    0xd202(%rip),%rax        # 21a40 <g_132>
   1483e:	48 89 85 58 fb ff ff 	mov    %rax,-0x4a8(%rbp)
   14845:	48 8d 05 f4 d1 00 00 	lea    0xd1f4(%rip),%rax        # 21a40 <g_132>
   1484c:	48 89 85 60 fb ff ff 	mov    %rax,-0x4a0(%rbp)
   14853:	48 8d 05 fe d1 00 00 	lea    0xd1fe(%rip),%rax        # 21a58 <g_214>
   1485a:	48 89 85 68 fb ff ff 	mov    %rax,-0x498(%rbp)
   14861:	48 8d 05 f0 d1 00 00 	lea    0xd1f0(%rip),%rax        # 21a58 <g_214>
   14868:	48 89 85 70 fb ff ff 	mov    %rax,-0x490(%rbp)
   1486f:	48 c7 85 78 fb ff ff 	movq   $0x0,-0x488(%rbp)
   14876:	00 00 00 00 
   1487a:	48 8d 85 b8 f4 ff ff 	lea    -0xb48(%rbp),%rax
   14881:	48 89 85 80 fb ff ff 	mov    %rax,-0x480(%rbp)
   14888:	48 8d 05 b1 d1 00 00 	lea    0xd1b1(%rip),%rax        # 21a40 <g_132>
   1488f:	48 89 85 88 fb ff ff 	mov    %rax,-0x478(%rbp)
   14896:	48 8d 05 a3 d1 00 00 	lea    0xd1a3(%rip),%rax        # 21a40 <g_132>
   1489d:	48 89 85 90 fb ff ff 	mov    %rax,-0x470(%rbp)
   148a4:	48 8d 05 ad d1 00 00 	lea    0xd1ad(%rip),%rax        # 21a58 <g_214>
   148ab:	48 89 85 98 fb ff ff 	mov    %rax,-0x468(%rbp)
   148b2:	48 8d 05 9f d1 00 00 	lea    0xd19f(%rip),%rax        # 21a58 <g_214>
   148b9:	48 89 85 a0 fb ff ff 	mov    %rax,-0x460(%rbp)
   148c0:	48 c7 85 a8 fb ff ff 	movq   $0x0,-0x458(%rbp)
   148c7:	00 00 00 00 
   148cb:	48 8d 85 b8 f4 ff ff 	lea    -0xb48(%rbp),%rax
   148d2:	48 89 85 b0 fb ff ff 	mov    %rax,-0x450(%rbp)
   148d9:	48 8d 05 60 d1 00 00 	lea    0xd160(%rip),%rax        # 21a40 <g_132>
   148e0:	48 89 85 b8 fb ff ff 	mov    %rax,-0x448(%rbp)
   148e7:	48 8d 05 52 d1 00 00 	lea    0xd152(%rip),%rax        # 21a40 <g_132>
   148ee:	48 89 85 c0 fb ff ff 	mov    %rax,-0x440(%rbp)
   148f5:	48 8d 05 5c d1 00 00 	lea    0xd15c(%rip),%rax        # 21a58 <g_214>
   148fc:	48 89 85 c8 fb ff ff 	mov    %rax,-0x438(%rbp)
   14903:	48 8d 05 4e d1 00 00 	lea    0xd14e(%rip),%rax        # 21a58 <g_214>
   1490a:	48 89 85 d0 fb ff ff 	mov    %rax,-0x430(%rbp)
   14911:	48 c7 85 d8 fb ff ff 	movq   $0x0,-0x428(%rbp)
   14918:	00 00 00 00 
   1491c:	48 8d 85 b8 f4 ff ff 	lea    -0xb48(%rbp),%rax
   14923:	48 89 85 e0 fb ff ff 	mov    %rax,-0x420(%rbp)
   1492a:	48 8d 05 0f d1 00 00 	lea    0xd10f(%rip),%rax        # 21a40 <g_132>
   14931:	48 89 85 e8 fb ff ff 	mov    %rax,-0x418(%rbp)
   14938:	48 8d 05 01 d1 00 00 	lea    0xd101(%rip),%rax        # 21a40 <g_132>
   1493f:	48 89 85 f0 fb ff ff 	mov    %rax,-0x410(%rbp)
   14946:	48 8d 05 0b d1 00 00 	lea    0xd10b(%rip),%rax        # 21a58 <g_214>
   1494d:	48 89 85 f8 fb ff ff 	mov    %rax,-0x408(%rbp)
   14954:	48 8d 05 fd d0 00 00 	lea    0xd0fd(%rip),%rax        # 21a58 <g_214>
   1495b:	48 89 85 00 fc ff ff 	mov    %rax,-0x400(%rbp)
   14962:	48 c7 85 08 fc ff ff 	movq   $0x0,-0x3f8(%rbp)
   14969:	00 00 00 00 
   1496d:	48 8d 85 b8 f4 ff ff 	lea    -0xb48(%rbp),%rax
   14974:	48 89 85 10 fc ff ff 	mov    %rax,-0x3f0(%rbp)
   1497b:	48 8d 05 be d0 00 00 	lea    0xd0be(%rip),%rax        # 21a40 <g_132>
   14982:	48 89 85 18 fc ff ff 	mov    %rax,-0x3e8(%rbp)
   14989:	48 8d 05 b0 d0 00 00 	lea    0xd0b0(%rip),%rax        # 21a40 <g_132>
   14990:	48 89 85 20 fc ff ff 	mov    %rax,-0x3e0(%rbp)
   14997:	48 8d 05 ba d0 00 00 	lea    0xd0ba(%rip),%rax        # 21a58 <g_214>
   1499e:	48 89 85 28 fc ff ff 	mov    %rax,-0x3d8(%rbp)
   149a5:	48 8d 05 ac d0 00 00 	lea    0xd0ac(%rip),%rax        # 21a58 <g_214>
   149ac:	48 89 85 30 fc ff ff 	mov    %rax,-0x3d0(%rbp)
   149b3:	48 c7 85 38 fc ff ff 	movq   $0x0,-0x3c8(%rbp)
   149ba:	00 00 00 00 
   149be:	48 8d 85 b8 f4 ff ff 	lea    -0xb48(%rbp),%rax
   149c5:	48 89 85 40 fc ff ff 	mov    %rax,-0x3c0(%rbp)
   149cc:	48 8d 05 6d d0 00 00 	lea    0xd06d(%rip),%rax        # 21a40 <g_132>
   149d3:	48 89 85 48 fc ff ff 	mov    %rax,-0x3b8(%rbp)
   149da:	48 8d 05 5f d0 00 00 	lea    0xd05f(%rip),%rax        # 21a40 <g_132>
   149e1:	48 89 85 50 fc ff ff 	mov    %rax,-0x3b0(%rbp)
   149e8:	48 8d 05 69 d0 00 00 	lea    0xd069(%rip),%rax        # 21a58 <g_214>
   149ef:	48 89 85 58 fc ff ff 	mov    %rax,-0x3a8(%rbp)
   149f6:	48 8d 05 5b d0 00 00 	lea    0xd05b(%rip),%rax        # 21a58 <g_214>
   149fd:	48 89 85 60 fc ff ff 	mov    %rax,-0x3a0(%rbp)
   14a04:	48 c7 85 68 fc ff ff 	movq   $0x0,-0x398(%rbp)
   14a0b:	00 00 00 00 
   14a0f:	48 8d 85 b8 f4 ff ff 	lea    -0xb48(%rbp),%rax
   14a16:	48 89 85 70 fc ff ff 	mov    %rax,-0x390(%rbp)
   14a1d:	48 8d 05 1c d0 00 00 	lea    0xd01c(%rip),%rax        # 21a40 <g_132>
   14a24:	48 89 85 78 fc ff ff 	mov    %rax,-0x388(%rbp)
   14a2b:	48 8d 05 0e d0 00 00 	lea    0xd00e(%rip),%rax        # 21a40 <g_132>
   14a32:	48 89 85 80 fc ff ff 	mov    %rax,-0x380(%rbp)
   14a39:	48 8d 05 18 d0 00 00 	lea    0xd018(%rip),%rax        # 21a58 <g_214>
   14a40:	48 89 85 88 fc ff ff 	mov    %rax,-0x378(%rbp)
   14a47:	48 8d 05 0a d0 00 00 	lea    0xd00a(%rip),%rax        # 21a58 <g_214>
   14a4e:	48 89 85 90 fc ff ff 	mov    %rax,-0x370(%rbp)
   14a55:	48 c7 85 98 fc ff ff 	movq   $0x0,-0x368(%rbp)
   14a5c:	00 00 00 00 
   14a60:	48 8d 85 b8 f4 ff ff 	lea    -0xb48(%rbp),%rax
   14a67:	48 89 85 a0 fc ff ff 	mov    %rax,-0x360(%rbp)
   14a6e:	48 8d 05 cb cf 00 00 	lea    0xcfcb(%rip),%rax        # 21a40 <g_132>
   14a75:	48 89 85 a8 fc ff ff 	mov    %rax,-0x358(%rbp)
   14a7c:	48 8d 05 bd cf 00 00 	lea    0xcfbd(%rip),%rax        # 21a40 <g_132>
   14a83:	48 89 85 b0 fc ff ff 	mov    %rax,-0x350(%rbp)
   14a8a:	48 8d 05 c7 cf 00 00 	lea    0xcfc7(%rip),%rax        # 21a58 <g_214>
   14a91:	48 89 85 b8 fc ff ff 	mov    %rax,-0x348(%rbp)
   14a98:	48 8d 05 b9 cf 00 00 	lea    0xcfb9(%rip),%rax        # 21a58 <g_214>
   14a9f:	48 89 85 c0 fc ff ff 	mov    %rax,-0x340(%rbp)
   14aa6:	48 c7 85 c8 fc ff ff 	movq   $0x0,-0x338(%rbp)
   14aad:	00 00 00 00 
   14ab1:	48 8d 85 b8 f4 ff ff 	lea    -0xb48(%rbp),%rax
   14ab8:	48 89 85 d0 fc ff ff 	mov    %rax,-0x330(%rbp)
   14abf:	48 8d 05 7a cf 00 00 	lea    0xcf7a(%rip),%rax        # 21a40 <g_132>
   14ac6:	48 89 85 d8 fc ff ff 	mov    %rax,-0x328(%rbp)
   14acd:	48 8d 05 6c cf 00 00 	lea    0xcf6c(%rip),%rax        # 21a40 <g_132>
   14ad4:	48 89 85 e0 fc ff ff 	mov    %rax,-0x320(%rbp)
   14adb:	48 8d 05 76 cf 00 00 	lea    0xcf76(%rip),%rax        # 21a58 <g_214>
   14ae2:	48 89 85 e8 fc ff ff 	mov    %rax,-0x318(%rbp)
   14ae9:	48 8d 05 68 cf 00 00 	lea    0xcf68(%rip),%rax        # 21a58 <g_214>
   14af0:	48 89 85 f0 fc ff ff 	mov    %rax,-0x310(%rbp)
   14af7:	48 c7 85 f8 fc ff ff 	movq   $0x0,-0x308(%rbp)
   14afe:	00 00 00 00 
   14b02:	48 8d 85 b8 f4 ff ff 	lea    -0xb48(%rbp),%rax
   14b09:	48 89 85 00 fd ff ff 	mov    %rax,-0x300(%rbp)
   14b10:	48 8d 05 29 cf 00 00 	lea    0xcf29(%rip),%rax        # 21a40 <g_132>
   14b17:	48 89 85 08 fd ff ff 	mov    %rax,-0x2f8(%rbp)
   14b1e:	48 8d 05 33 cf 00 00 	lea    0xcf33(%rip),%rax        # 21a58 <g_214>
   14b25:	48 89 85 10 fd ff ff 	mov    %rax,-0x2f0(%rbp)
   14b2c:	48 8d 05 25 cf 00 00 	lea    0xcf25(%rip),%rax        # 21a58 <g_214>
   14b33:	48 89 85 18 fd ff ff 	mov    %rax,-0x2e8(%rbp)
   14b3a:	48 8d 05 17 cf 00 00 	lea    0xcf17(%rip),%rax        # 21a58 <g_214>
   14b41:	48 89 85 20 fd ff ff 	mov    %rax,-0x2e0(%rbp)
   14b48:	48 8d 05 f1 ce 00 00 	lea    0xcef1(%rip),%rax        # 21a40 <g_132>
   14b4f:	48 89 85 28 fd ff ff 	mov    %rax,-0x2d8(%rbp)
   14b56:	48 8d 05 fb ce 00 00 	lea    0xcefb(%rip),%rax        # 21a58 <g_214>
   14b5d:	48 89 85 30 fd ff ff 	mov    %rax,-0x2d0(%rbp)
   14b64:	48 8d 05 d5 ce 00 00 	lea    0xced5(%rip),%rax        # 21a40 <g_132>
   14b6b:	48 89 85 38 fd ff ff 	mov    %rax,-0x2c8(%rbp)
   14b72:	48 8d 05 df ce 00 00 	lea    0xcedf(%rip),%rax        # 21a58 <g_214>
   14b79:	48 89 85 40 fd ff ff 	mov    %rax,-0x2c0(%rbp)
   14b80:	48 8d 05 d1 ce 00 00 	lea    0xced1(%rip),%rax        # 21a58 <g_214>
   14b87:	48 89 85 48 fd ff ff 	mov    %rax,-0x2b8(%rbp)
   14b8e:	48 8d 05 c3 ce 00 00 	lea    0xcec3(%rip),%rax        # 21a58 <g_214>
   14b95:	48 89 85 50 fd ff ff 	mov    %rax,-0x2b0(%rbp)
   14b9c:	48 8d 05 9d ce 00 00 	lea    0xce9d(%rip),%rax        # 21a40 <g_132>
   14ba3:	48 89 85 58 fd ff ff 	mov    %rax,-0x2a8(%rbp)
   14baa:	48 8d 05 a7 ce 00 00 	lea    0xcea7(%rip),%rax        # 21a58 <g_214>
   14bb1:	48 89 85 60 fd ff ff 	mov    %rax,-0x2a0(%rbp)
   14bb8:	48 8d 05 81 ce 00 00 	lea    0xce81(%rip),%rax        # 21a40 <g_132>
   14bbf:	48 89 85 68 fd ff ff 	mov    %rax,-0x298(%rbp)
   14bc6:	48 8d 05 8b ce 00 00 	lea    0xce8b(%rip),%rax        # 21a58 <g_214>
   14bcd:	48 89 85 70 fd ff ff 	mov    %rax,-0x290(%rbp)
   14bd4:	48 8d 05 7d ce 00 00 	lea    0xce7d(%rip),%rax        # 21a58 <g_214>
   14bdb:	48 89 85 78 fd ff ff 	mov    %rax,-0x288(%rbp)
   14be2:	48 8d 05 6f ce 00 00 	lea    0xce6f(%rip),%rax        # 21a58 <g_214>
   14be9:	48 89 85 80 fd ff ff 	mov    %rax,-0x280(%rbp)
   14bf0:	48 8d 05 49 ce 00 00 	lea    0xce49(%rip),%rax        # 21a40 <g_132>
   14bf7:	48 89 85 88 fd ff ff 	mov    %rax,-0x278(%rbp)
   14bfe:	48 8d 05 53 ce 00 00 	lea    0xce53(%rip),%rax        # 21a58 <g_214>
   14c05:	48 89 85 90 fd ff ff 	mov    %rax,-0x270(%rbp)
   14c0c:	48 8d 05 2d ce 00 00 	lea    0xce2d(%rip),%rax        # 21a40 <g_132>
   14c13:	48 89 85 98 fd ff ff 	mov    %rax,-0x268(%rbp)
   14c1a:	48 8d 05 37 ce 00 00 	lea    0xce37(%rip),%rax        # 21a58 <g_214>
   14c21:	48 89 85 a0 fd ff ff 	mov    %rax,-0x260(%rbp)
   14c28:	48 8d 05 29 ce 00 00 	lea    0xce29(%rip),%rax        # 21a58 <g_214>
   14c2f:	48 89 85 a8 fd ff ff 	mov    %rax,-0x258(%rbp)
   14c36:	48 8d 05 1b ce 00 00 	lea    0xce1b(%rip),%rax        # 21a58 <g_214>
   14c3d:	48 89 85 b0 fd ff ff 	mov    %rax,-0x250(%rbp)
   14c44:	48 8d 05 f5 cd 00 00 	lea    0xcdf5(%rip),%rax        # 21a40 <g_132>
   14c4b:	48 89 85 b8 fd ff ff 	mov    %rax,-0x248(%rbp)
   14c52:	48 8d 05 ff cd 00 00 	lea    0xcdff(%rip),%rax        # 21a58 <g_214>
   14c59:	48 89 85 c0 fd ff ff 	mov    %rax,-0x240(%rbp)
   14c60:	48 8d 05 d9 cd 00 00 	lea    0xcdd9(%rip),%rax        # 21a40 <g_132>
   14c67:	48 89 85 c8 fd ff ff 	mov    %rax,-0x238(%rbp)
   14c6e:	48 8d 05 e3 cd 00 00 	lea    0xcde3(%rip),%rax        # 21a58 <g_214>
   14c75:	48 89 85 d0 fd ff ff 	mov    %rax,-0x230(%rbp)
   14c7c:	48 8d 05 d5 cd 00 00 	lea    0xcdd5(%rip),%rax        # 21a58 <g_214>
   14c83:	48 89 85 d8 fd ff ff 	mov    %rax,-0x228(%rbp)
   14c8a:	48 8d 05 c7 cd 00 00 	lea    0xcdc7(%rip),%rax        # 21a58 <g_214>
   14c91:	48 89 85 e0 fd ff ff 	mov    %rax,-0x220(%rbp)
   14c98:	48 8d 05 a1 cd 00 00 	lea    0xcda1(%rip),%rax        # 21a40 <g_132>
   14c9f:	48 89 85 e8 fd ff ff 	mov    %rax,-0x218(%rbp)
   14ca6:	48 8d 05 ab cd 00 00 	lea    0xcdab(%rip),%rax        # 21a58 <g_214>
   14cad:	48 89 85 f0 fd ff ff 	mov    %rax,-0x210(%rbp)
   14cb4:	48 8d 05 85 cd 00 00 	lea    0xcd85(%rip),%rax        # 21a40 <g_132>
   14cbb:	48 89 85 f8 fd ff ff 	mov    %rax,-0x208(%rbp)
   14cc2:	48 8d 05 8f cd 00 00 	lea    0xcd8f(%rip),%rax        # 21a58 <g_214>
   14cc9:	48 89 85 00 fe ff ff 	mov    %rax,-0x200(%rbp)
   14cd0:	48 8d 05 81 cd 00 00 	lea    0xcd81(%rip),%rax        # 21a58 <g_214>
   14cd7:	48 89 85 08 fe ff ff 	mov    %rax,-0x1f8(%rbp)
   14cde:	48 8d 05 73 cd 00 00 	lea    0xcd73(%rip),%rax        # 21a58 <g_214>
   14ce5:	48 89 85 10 fe ff ff 	mov    %rax,-0x1f0(%rbp)
   14cec:	48 8d 05 4d cd 00 00 	lea    0xcd4d(%rip),%rax        # 21a40 <g_132>
   14cf3:	48 89 85 18 fe ff ff 	mov    %rax,-0x1e8(%rbp)
   14cfa:	48 8d 05 57 cd 00 00 	lea    0xcd57(%rip),%rax        # 21a58 <g_214>
   14d01:	48 89 85 20 fe ff ff 	mov    %rax,-0x1e0(%rbp)
   14d08:	48 8d 05 31 cd 00 00 	lea    0xcd31(%rip),%rax        # 21a40 <g_132>
   14d0f:	48 89 85 28 fe ff ff 	mov    %rax,-0x1d8(%rbp)
   14d16:	48 8d 05 3b cd 00 00 	lea    0xcd3b(%rip),%rax        # 21a58 <g_214>
   14d1d:	48 89 85 30 fe ff ff 	mov    %rax,-0x1d0(%rbp)
   14d24:	48 8d 05 2d cd 00 00 	lea    0xcd2d(%rip),%rax        # 21a58 <g_214>
   14d2b:	48 89 85 38 fe ff ff 	mov    %rax,-0x1c8(%rbp)
   14d32:	48 8d 05 1f cd 00 00 	lea    0xcd1f(%rip),%rax        # 21a58 <g_214>
   14d39:	48 89 85 40 fe ff ff 	mov    %rax,-0x1c0(%rbp)
   14d40:	48 8d 05 f9 cc 00 00 	lea    0xccf9(%rip),%rax        # 21a40 <g_132>
   14d47:	48 89 85 48 fe ff ff 	mov    %rax,-0x1b8(%rbp)
   14d4e:	48 8d 05 03 cd 00 00 	lea    0xcd03(%rip),%rax        # 21a58 <g_214>
   14d55:	48 89 85 50 fe ff ff 	mov    %rax,-0x1b0(%rbp)
   14d5c:	48 8d 05 dd cc 00 00 	lea    0xccdd(%rip),%rax        # 21a40 <g_132>
   14d63:	48 89 85 58 fe ff ff 	mov    %rax,-0x1a8(%rbp)
   14d6a:	48 8d 05 e7 cc 00 00 	lea    0xcce7(%rip),%rax        # 21a58 <g_214>
   14d71:	48 89 85 60 fe ff ff 	mov    %rax,-0x1a0(%rbp)
   14d78:	48 8d 05 d9 cc 00 00 	lea    0xccd9(%rip),%rax        # 21a58 <g_214>
   14d7f:	48 89 85 68 fe ff ff 	mov    %rax,-0x198(%rbp)
   14d86:	48 8d 05 cb cc 00 00 	lea    0xcccb(%rip),%rax        # 21a58 <g_214>
   14d8d:	48 89 85 70 fe ff ff 	mov    %rax,-0x190(%rbp)
   14d94:	48 8d 05 a5 cc 00 00 	lea    0xcca5(%rip),%rax        # 21a40 <g_132>
   14d9b:	48 89 85 78 fe ff ff 	mov    %rax,-0x188(%rbp)
   14da2:	48 8d 05 af cc 00 00 	lea    0xccaf(%rip),%rax        # 21a58 <g_214>
   14da9:	48 89 85 80 fe ff ff 	mov    %rax,-0x180(%rbp)
   14db0:	48 8d 05 89 cc 00 00 	lea    0xcc89(%rip),%rax        # 21a40 <g_132>
   14db7:	48 89 85 88 fe ff ff 	mov    %rax,-0x178(%rbp)
   14dbe:	48 8d 05 93 cc 00 00 	lea    0xcc93(%rip),%rax        # 21a58 <g_214>
   14dc5:	48 89 85 90 fe ff ff 	mov    %rax,-0x170(%rbp)
   14dcc:	48 8d 05 85 cc 00 00 	lea    0xcc85(%rip),%rax        # 21a58 <g_214>
   14dd3:	48 89 85 98 fe ff ff 	mov    %rax,-0x168(%rbp)
   14dda:	48 8d 05 77 cc 00 00 	lea    0xcc77(%rip),%rax        # 21a58 <g_214>
   14de1:	48 89 85 a0 fe ff ff 	mov    %rax,-0x160(%rbp)
   14de8:	48 8d 05 51 cc 00 00 	lea    0xcc51(%rip),%rax        # 21a40 <g_132>
   14def:	48 89 85 a8 fe ff ff 	mov    %rax,-0x158(%rbp)
   14df6:	48 8d 05 5b cc 00 00 	lea    0xcc5b(%rip),%rax        # 21a58 <g_214>
   14dfd:	48 89 85 b0 fe ff ff 	mov    %rax,-0x150(%rbp)
   14e04:	48 8d 05 35 cc 00 00 	lea    0xcc35(%rip),%rax        # 21a40 <g_132>
   14e0b:	48 89 85 b8 fe ff ff 	mov    %rax,-0x148(%rbp)
   14e12:	48 8d 05 3f cc 00 00 	lea    0xcc3f(%rip),%rax        # 21a58 <g_214>
   14e19:	48 89 85 c0 fe ff ff 	mov    %rax,-0x140(%rbp)
   14e20:	48 8d 05 31 cc 00 00 	lea    0xcc31(%rip),%rax        # 21a58 <g_214>
   14e27:	48 89 85 c8 fe ff ff 	mov    %rax,-0x138(%rbp)
   14e2e:	48 8d 05 23 cc 00 00 	lea    0xcc23(%rip),%rax        # 21a58 <g_214>
   14e35:	48 89 85 d0 fe ff ff 	mov    %rax,-0x130(%rbp)
   14e3c:	48 8d 05 fd cb 00 00 	lea    0xcbfd(%rip),%rax        # 21a40 <g_132>
   14e43:	48 89 85 d8 fe ff ff 	mov    %rax,-0x128(%rbp)
   14e4a:	48 8d 05 07 cc 00 00 	lea    0xcc07(%rip),%rax        # 21a58 <g_214>
   14e51:	48 89 85 e0 fe ff ff 	mov    %rax,-0x120(%rbp)
   14e58:	48 8d 05 e1 cb 00 00 	lea    0xcbe1(%rip),%rax        # 21a40 <g_132>
   14e5f:	48 89 85 e8 fe ff ff 	mov    %rax,-0x118(%rbp)
   14e66:	48 8d 05 eb cb 00 00 	lea    0xcbeb(%rip),%rax        # 21a58 <g_214>
   14e6d:	48 89 85 f0 fe ff ff 	mov    %rax,-0x110(%rbp)
   14e74:	48 8d 05 dd cb 00 00 	lea    0xcbdd(%rip),%rax        # 21a58 <g_214>
   14e7b:	48 89 85 f8 fe ff ff 	mov    %rax,-0x108(%rbp)
   14e82:	48 8d 05 cf cb 00 00 	lea    0xcbcf(%rip),%rax        # 21a58 <g_214>
   14e89:	48 89 85 00 ff ff ff 	mov    %rax,-0x100(%rbp)
   14e90:	48 8d 05 a9 cb 00 00 	lea    0xcba9(%rip),%rax        # 21a40 <g_132>
   14e97:	48 89 85 08 ff ff ff 	mov    %rax,-0xf8(%rbp)
   14e9e:	48 8d 05 b3 cb 00 00 	lea    0xcbb3(%rip),%rax        # 21a58 <g_214>
   14ea5:	48 89 85 10 ff ff ff 	mov    %rax,-0xf0(%rbp)
   14eac:	48 8d 05 8d cb 00 00 	lea    0xcb8d(%rip),%rax        # 21a40 <g_132>
   14eb3:	48 89 85 18 ff ff ff 	mov    %rax,-0xe8(%rbp)
   14eba:	48 8d 05 97 cb 00 00 	lea    0xcb97(%rip),%rax        # 21a58 <g_214>
   14ec1:	48 89 85 20 ff ff ff 	mov    %rax,-0xe0(%rbp)
   14ec8:	48 8d 05 89 cb 00 00 	lea    0xcb89(%rip),%rax        # 21a58 <g_214>
   14ecf:	48 89 85 28 ff ff ff 	mov    %rax,-0xd8(%rbp)
   14ed6:	48 8d 05 7b cb 00 00 	lea    0xcb7b(%rip),%rax        # 21a58 <g_214>
   14edd:	48 89 85 30 ff ff ff 	mov    %rax,-0xd0(%rbp)
   14ee4:	48 8d 05 55 cb 00 00 	lea    0xcb55(%rip),%rax        # 21a40 <g_132>
   14eeb:	48 89 85 38 ff ff ff 	mov    %rax,-0xc8(%rbp)
   14ef2:	48 8d 05 5f cb 00 00 	lea    0xcb5f(%rip),%rax        # 21a58 <g_214>
   14ef9:	48 89 85 40 ff ff ff 	mov    %rax,-0xc0(%rbp)
   14f00:	48 8d 05 39 cb 00 00 	lea    0xcb39(%rip),%rax        # 21a40 <g_132>
   14f07:	48 89 85 48 ff ff ff 	mov    %rax,-0xb8(%rbp)
   14f0e:	48 8d 05 43 cb 00 00 	lea    0xcb43(%rip),%rax        # 21a58 <g_214>
   14f15:	48 89 85 50 ff ff ff 	mov    %rax,-0xb0(%rbp)
   14f1c:	48 8d 05 35 cb 00 00 	lea    0xcb35(%rip),%rax        # 21a58 <g_214>
   14f23:	48 89 85 58 ff ff ff 	mov    %rax,-0xa8(%rbp)
   14f2a:	48 8d 05 27 cb 00 00 	lea    0xcb27(%rip),%rax        # 21a58 <g_214>
   14f31:	48 89 85 60 ff ff ff 	mov    %rax,-0xa0(%rbp)
   14f38:	48 8d 05 01 cb 00 00 	lea    0xcb01(%rip),%rax        # 21a40 <g_132>
   14f3f:	48 89 85 68 ff ff ff 	mov    %rax,-0x98(%rbp)
   14f46:	48 8d 05 0b cb 00 00 	lea    0xcb0b(%rip),%rax        # 21a58 <g_214>
   14f4d:	48 89 85 70 ff ff ff 	mov    %rax,-0x90(%rbp)
   14f54:	48 8d 05 e5 ca 00 00 	lea    0xcae5(%rip),%rax        # 21a40 <g_132>
   14f5b:	48 89 85 78 ff ff ff 	mov    %rax,-0x88(%rbp)
   14f62:	48 8d 05 ef ca 00 00 	lea    0xcaef(%rip),%rax        # 21a58 <g_214>
   14f69:	48 89 45 80          	mov    %rax,-0x80(%rbp)
   14f6d:	48 8d 05 e4 ca 00 00 	lea    0xcae4(%rip),%rax        # 21a58 <g_214>
   14f74:	48 89 45 88          	mov    %rax,-0x78(%rbp)
   14f78:	48 8d 05 d9 ca 00 00 	lea    0xcad9(%rip),%rax        # 21a58 <g_214>
   14f7f:	48 89 45 90          	mov    %rax,-0x70(%rbp)
   14f83:	48 8d 05 b6 ca 00 00 	lea    0xcab6(%rip),%rax        # 21a40 <g_132>
   14f8a:	48 89 45 98          	mov    %rax,-0x68(%rbp)
   14f8e:	48 8d 05 c3 ca 00 00 	lea    0xcac3(%rip),%rax        # 21a58 <g_214>
   14f95:	48 89 45 a0          	mov    %rax,-0x60(%rbp)
   14f99:	48 8d 05 a0 ca 00 00 	lea    0xcaa0(%rip),%rax        # 21a40 <g_132>
   14fa0:	48 89 45 a8          	mov    %rax,-0x58(%rbp)
   14fa4:	48 8d 05 ad ca 00 00 	lea    0xcaad(%rip),%rax        # 21a58 <g_214>
   14fab:	48 89 45 b0          	mov    %rax,-0x50(%rbp)
   14faf:	48 8d 05 a2 ca 00 00 	lea    0xcaa2(%rip),%rax        # 21a58 <g_214>
   14fb6:	48 89 45 b8          	mov    %rax,-0x48(%rbp)
   14fba:	48 8d 05 97 ca 00 00 	lea    0xca97(%rip),%rax        # 21a58 <g_214>
   14fc1:	48 89 45 c0          	mov    %rax,-0x40(%rbp)
   14fc5:	48 8d 05 74 ca 00 00 	lea    0xca74(%rip),%rax        # 21a40 <g_132>
   14fcc:	48 89 45 c8          	mov    %rax,-0x38(%rbp)
   14fd0:	48 8d 05 81 ca 00 00 	lea    0xca81(%rip),%rax        # 21a58 <g_214>
   14fd7:	48 89 45 d0          	mov    %rax,-0x30(%rbp)
   14fdb:	48 8d 05 5e ca 00 00 	lea    0xca5e(%rip),%rax        # 21a40 <g_132>
   14fe2:	48 89 45 d8          	mov    %rax,-0x28(%rbp)
   14fe6:	48 8d 85 50 f9 ff ff 	lea    -0x6b0(%rbp),%rax
   14fed:	48 05 80 06 00 00    	add    $0x680,%rax
   14ff3:	48 89 85 c8 f4 ff ff 	mov    %rax,-0xb38(%rbp)
   14ffa:	48 8b 85 b8 f4 ff ff 	mov    -0xb48(%rbp),%rax
   15001:	8b 18                	mov    (%rax),%ebx
   15003:	48 8b 85 b8 f4 ff ff 	mov    -0xb48(%rbp),%rax
   1500a:	48 89 c7             	mov    %rax,%rdi
   1500d:	e8 18 20 00 00       	callq  1702a <func_79>
   15012:	48 8b 95 c8 f4 ff ff 	mov    -0xb38(%rbp),%rdx
   15019:	48 89 02             	mov    %rax,(%rdx)
   1501c:	48 8b 85 c8 f4 ff ff 	mov    -0xb38(%rbp),%rax
   15023:	48 8b 10             	mov    (%rax),%rdx
   15026:	48 8d 85 a8 f4 ff ff 	lea    -0xb58(%rbp),%rax
   1502d:	48 39 c2             	cmp    %rax,%rdx
   15030:	0f 94 c0             	sete   %al
   15033:	0f b6 c0             	movzbl %al,%eax
   15036:	89 de                	mov    %ebx,%esi
   15038:	89 c7                	mov    %eax,%edi
   1503a:	e8 53 34 ff ff       	callq  8492 <safe_lshift_func_int16_t_s_s>
   1503f:	0f bf d0             	movswl %ax,%edx
   15042:	48 8b 85 c0 f4 ff ff 	mov    -0xb40(%rbp),%rax
   15049:	c6 00 01             	movb   $0x1,(%rax)
   1504c:	48 8b 85 c0 f4 ff ff 	mov    -0xb40(%rbp),%rax
   15053:	0f b6 00             	movzbl (%rax),%eax
   15056:	38 85 98 f4 ff ff    	cmp    %al,-0xb68(%rbp)
   1505c:	0f 96 c0             	setbe  %al
   1505f:	0f b6 c0             	movzbl %al,%eax
   15062:	89 d6                	mov    %edx,%esi
   15064:	89 c7                	mov    %eax,%edi
   15066:	e8 4d 3e ff ff       	callq  8eb8 <safe_add_func_uint32_t_u_u>
   1506b:	48 8b 85 a0 f4 ff ff 	mov    -0xb60(%rbp),%rax
   15072:	48 8b 10             	mov    (%rax),%rdx
   15075:	48 8b 85 a0 f4 ff ff 	mov    -0xb60(%rbp),%rax
   1507c:	48 89 10             	mov    %rdx,(%rax)
   1507f:	48 8d 05 ba c9 00 00 	lea    0xc9ba(%rip),%rax        # 21a40 <g_132>
   15086:	48 8b 00             	mov    (%rax),%rax
   15089:	48 8b 5d e8          	mov    -0x18(%rbp),%rbx
   1508d:	64 48 33 1c 25 28 00 	xor    %fs:0x28,%rbx
   15094:	00 00 
   15096:	74 05                	je     1509d <func_70+0xc46>
   15098:	e8 d3 2f ff ff       	callq  8070 <__stack_chk_fail@plt>
   1509d:	48 81 c4 68 0b 00 00 	add    $0xb68,%rsp
   150a4:	5b                   	pop    %rbx
   150a5:	5d                   	pop    %rbp
   150a6:	c3                   	retq   

00000000000150a7 <func_76>:
   150a7:	f3 0f 1e fa          	endbr64 
   150ab:	55                   	push   %rbp
   150ac:	48 89 e5             	mov    %rsp,%rbp
   150af:	41 57                	push   %r15
   150b1:	41 56                	push   %r14
   150b3:	41 55                	push   %r13
   150b5:	41 54                	push   %r12
   150b7:	53                   	push   %rbx
   150b8:	48 81 ec 88 0c 00 00 	sub    $0xc88,%rsp
   150bf:	48 89 bd 78 f3 ff ff 	mov    %rdi,-0xc88(%rbp)
   150c6:	48 89 b5 70 f3 ff ff 	mov    %rsi,-0xc90(%rbp)
   150cd:	64 48 8b 04 25 28 00 	mov    %fs:0x28,%rax
   150d4:	00 00 
   150d6:	48 89 45 c8          	mov    %rax,-0x38(%rbp)
   150da:	31 c0                	xor    %eax,%eax
   150dc:	48 8d 05 a5 8f 00 00 	lea    0x8fa5(%rip),%rax        # 1e088 <g_90>
   150e3:	48 89 85 28 f4 ff ff 	mov    %rax,-0xbd8(%rbp)
   150ea:	48 8d 05 9f 8f 00 00 	lea    0x8f9f(%rip),%rax        # 1e090 <g_92>
   150f1:	48 89 85 30 f4 ff ff 	mov    %rax,-0xbd0(%rbp)
   150f8:	48 8d 85 28 f4 ff ff 	lea    -0xbd8(%rbp),%rax
   150ff:	48 89 85 60 f4 ff ff 	mov    %rax,-0xba0(%rbp)
   15106:	48 8d 05 55 8f 00 00 	lea    0x8f55(%rip),%rax        # 1e062 <g_5+0x22>
   1510d:	48 89 85 68 f4 ff ff 	mov    %rax,-0xb98(%rbp)
   15114:	48 c7 85 70 f4 ff ff 	movq   $0x0,-0xb90(%rbp)
   1511b:	00 00 00 00 
   1511f:	48 8d 05 74 8f 00 00 	lea    0x8f74(%rip),%rax        # 1e09a <g_109>
   15126:	48 89 85 78 f4 ff ff 	mov    %rax,-0xb88(%rbp)
   1512d:	c7 85 90 f3 ff ff 08 	movl   $0xb4028a08,-0xc70(%rbp)
   15134:	8a 02 b4 
   15137:	c7 85 94 f3 ff ff 51 	movl   $0x7421fa51,-0xc6c(%rbp)
   1513e:	fa 21 74 
   15141:	48 8d 85 28 f4 ff ff 	lea    -0xbd8(%rbp),%rax
   15148:	48 89 85 80 f4 ff ff 	mov    %rax,-0xb80(%rbp)
   1514f:	c7 85 c0 f3 ff ff c6 	movl   $0x262e4dc6,-0xc40(%rbp)
   15156:	4d 2e 26 
   15159:	c7 85 c4 f3 ff ff 00 	movl   $0x0,-0xc3c(%rbp)
   15160:	00 00 00 
   15163:	c7 85 c8 f3 ff ff ff 	movl   $0xffffffff,-0xc38(%rbp)
   1516a:	ff ff ff 
   1516d:	c7 85 98 f3 ff ff 8e 	movl   $0xf6f8dd8e,-0xc68(%rbp)
   15174:	dd f8 f6 
   15177:	c7 85 ac f3 ff ff b6 	movl   $0x273a6db6,-0xc54(%rbp)
   1517e:	6d 3a 27 
   15181:	c7 85 cc f3 ff ff 14 	movl   $0x4736b514,-0xc34(%rbp)
   15188:	b5 36 47 
   1518b:	c7 85 d0 f3 ff ff 01 	movl   $0x1,-0xc30(%rbp)
   15192:	00 00 00 
   15195:	c7 85 d4 f3 ff ff fe 	movl   $0xfffffffe,-0xc2c(%rbp)
   1519c:	ff ff ff 
   1519f:	c7 85 d8 f3 ff ff ff 	movl   $0xffffffff,-0xc28(%rbp)
   151a6:	ff ff ff 
   151a9:	c7 85 c0 f5 ff ff ff 	movl   $0xffffffff,-0xa40(%rbp)
   151b0:	ff ff ff 
   151b3:	c7 85 c4 f5 ff ff ff 	movl   $0xffffffff,-0xa3c(%rbp)
   151ba:	ff ff ff 
   151bd:	c7 85 c8 f5 ff ff ff 	movl   $0xffffffff,-0xa38(%rbp)
   151c4:	ff ff ff 
   151c7:	c7 85 cc f5 ff ff ff 	movl   $0xffffffff,-0xa34(%rbp)
   151ce:	ff ff ff 
   151d1:	c7 85 d0 f5 ff ff ff 	movl   $0xffffffff,-0xa30(%rbp)
   151d8:	ff ff ff 
   151db:	c7 85 d4 f5 ff ff ff 	movl   $0xffffffff,-0xa2c(%rbp)
   151e2:	ff ff ff 
   151e5:	c7 85 d8 f5 ff ff ff 	movl   $0xffffffff,-0xa28(%rbp)
   151ec:	ff ff ff 
   151ef:	c7 85 b0 f3 ff ff 00 	movl   $0x0,-0xc50(%rbp)
   151f6:	00 00 00 
   151f9:	eb 1a                	jmp    15215 <func_76+0x16e>
   151fb:	8b 85 b0 f3 ff ff    	mov    -0xc50(%rbp),%eax
   15201:	48 98                	cltq   
   15203:	c7 84 85 00 f6 ff ff 	movl   $0xd6342a7e,-0xa00(%rbp,%rax,4)
   1520a:	7e 2a 34 d6 
   1520e:	83 85 b0 f3 ff ff 01 	addl   $0x1,-0xc50(%rbp)
   15215:	83 bd b0 f3 ff ff 07 	cmpl   $0x7,-0xc50(%rbp)
   1521c:	7e dd                	jle    151fb <func_76+0x154>
   1521e:	48 8b 85 28 f4 ff ff 	mov    -0xbd8(%rbp),%rax
   15225:	8b 15 e1 d2 00 00    	mov    0xd2e1(%rip),%edx        # 2250c <g_11>
   1522b:	89 10                	mov    %edx,(%rax)
   1522d:	48 8b 85 30 f4 ff ff 	mov    -0xbd0(%rbp),%rax
   15234:	48 89 85 30 f4 ff ff 	mov    %rax,-0xbd0(%rbp)
   1523b:	48 8b 85 60 f4 ff ff 	mov    -0xba0(%rbp),%rax
   15242:	48 8b 95 70 f3 ff ff 	mov    -0xc90(%rbp),%rdx
   15249:	48 89 10             	mov    %rdx,(%rax)
   1524c:	8b 05 2e 8e 00 00    	mov    0x8e2e(%rip),%eax        # 1e080 <g_14>
   15252:	25 81 f8 82 3d       	and    $0x3d82f881,%eax
   15257:	41 89 c5             	mov    %eax,%r13d
   1525a:	48 8b 85 60 f4 ff ff 	mov    -0xba0(%rbp),%rax
   15261:	48 8b 00             	mov    (%rax),%rax
   15264:	44 8b 20             	mov    (%rax),%r12d
   15267:	8b 05 13 8e 00 00    	mov    0x8e13(%rip),%eax        # 1e080 <g_14>
   1526d:	0f b6 d8             	movzbl %al,%ebx
   15270:	48 8b 85 60 f4 ff ff 	mov    -0xba0(%rbp),%rax
   15277:	48 8b 00             	mov    (%rax),%rax
   1527a:	8b 00                	mov    (%rax),%eax
   1527c:	0f bf d0             	movswl %ax,%edx
   1527f:	8b 05 0b 8e 00 00    	mov    0x8e0b(%rip),%eax        # 1e090 <g_92>
   15285:	c1 e0 02             	shl    $0x2,%eax
   15288:	c1 f8 02             	sar    $0x2,%eax
   1528b:	89 c1                	mov    %eax,%ecx
   1528d:	48 8b 85 30 f4 ff ff 	mov    -0xbd0(%rbp),%rax
   15294:	48 85 c0             	test   %rax,%rax
   15297:	0f 94 c0             	sete   %al
   1529a:	0f b6 c0             	movzbl %al,%eax
   1529d:	66 89 05 f4 8d 00 00 	mov    %ax,0x8df4(%rip)        # 1e098 <g_106>
   152a4:	0f b7 05 ed 8d 00 00 	movzwl 0x8ded(%rip),%eax        # 1e098 <g_106>
   152ab:	98                   	cwtl   
   152ac:	21 c8                	and    %ecx,%eax
   152ae:	85 c0                	test   %eax,%eax
   152b0:	0f 9f c0             	setg   %al
   152b3:	0f b6 c0             	movzbl %al,%eax
   152b6:	89 d6                	mov    %edx,%esi
   152b8:	89 c7                	mov    %eax,%edi
   152ba:	e8 14 31 ff ff       	callq  83d3 <safe_sub_func_int16_t_s_s>
   152bf:	89 c2                	mov    %eax,%edx
   152c1:	48 8b 85 78 f4 ff ff 	mov    -0xb88(%rbp),%rax
   152c8:	88 10                	mov    %dl,(%rax)
   152ca:	48 8b 85 78 f4 ff ff 	mov    -0xb88(%rbp),%rax
   152d1:	0f b6 00             	movzbl (%rax),%eax
   152d4:	0f be d0             	movsbl %al,%edx
   152d7:	48 8b 85 28 f4 ff ff 	mov    -0xbd8(%rbp),%rax
   152de:	8b 00                	mov    (%rax),%eax
   152e0:	89 c1                	mov    %eax,%ecx
   152e2:	48 8b 85 68 f4 ff ff 	mov    -0xb98(%rbp),%rax
   152e9:	88 08                	mov    %cl,(%rax)
   152eb:	48 8b 85 68 f4 ff ff 	mov    -0xb98(%rbp),%rax
   152f2:	0f b6 00             	movzbl (%rax),%eax
   152f5:	0f be c0             	movsbl %al,%eax
   152f8:	89 d6                	mov    %edx,%esi
   152fa:	89 c7                	mov    %eax,%edi
   152fc:	e8 a0 2f ff ff       	callq  82a1 <safe_lshift_func_int8_t_s_s>
   15301:	0f be c0             	movsbl %al,%eax
   15304:	be c1 61 00 00       	mov    $0x61c1,%esi
   15309:	89 c7                	mov    %eax,%edi
   1530b:	e8 e5 30 ff ff       	callq  83f5 <safe_mul_func_int16_t_s_s>
   15310:	48 8b 85 28 f4 ff ff 	mov    -0xbd8(%rbp),%rax
   15317:	8b 00                	mov    (%rax),%eax
   15319:	85 c0                	test   %eax,%eax
   1531b:	0f 94 c0             	sete   %al
   1531e:	0f b6 c0             	movzbl %al,%eax
   15321:	89 de                	mov    %ebx,%esi
   15323:	89 c7                	mov    %eax,%edi
   15325:	e8 30 38 ff ff       	callq  8b5a <safe_add_func_uint8_t_u_u>
   1532a:	0f b6 c0             	movzbl %al,%eax
   1532d:	41 39 c4             	cmp    %eax,%r12d
   15330:	0f 95 c0             	setne  %al
   15333:	0f b6 c0             	movzbl %al,%eax
   15336:	44 09 e8             	or     %r13d,%eax
   15339:	89 c6                	mov    %eax,%esi
   1533b:	bf 03 00 00 00       	mov    $0x3,%edi
   15340:	e8 e0 3b ff ff       	callq  8f25 <safe_div_func_uint32_t_u_u>
   15345:	85 c0                	test   %eax,%eax
   15347:	0f 84 35 01 00 00    	je     15482 <func_76+0x3db>
   1534d:	c7 85 1c f4 ff ff 34 	movl   $0xa264e934,-0xbe4(%rbp)
   15354:	e9 64 a2 
   15357:	48 c7 85 88 f5 ff ff 	movq   $0x1,-0xa78(%rbp)
   1535e:	01 00 00 00 
   15362:	c7 85 50 f7 ff ff fd 	movl   $0xfffffffd,-0x8b0(%rbp)
   15369:	ff ff ff 
   1536c:	c7 85 54 f7 ff ff fd 	movl   $0xfffffffd,-0x8ac(%rbp)
   15373:	ff ff ff 
   15376:	c7 85 58 f7 ff ff fd 	movl   $0xfffffffd,-0x8a8(%rbp)
   1537d:	ff ff ff 
   15380:	c7 85 5c f7 ff ff fd 	movl   $0xfffffffd,-0x8a4(%rbp)
   15387:	ff ff ff 
   1538a:	c7 05 f4 8c 00 00 00 	movl   $0x0,0x8cf4(%rip)        # 1e088 <g_90>
   15391:	00 00 00 
   15394:	90                   	nop
   15395:	8b 05 ed 8c 00 00    	mov    0x8ced(%rip),%eax        # 1e088 <g_90>
   1539b:	83 f8 08             	cmp    $0x8,%eax
   1539e:	0f 8e 59 1c 00 00    	jle    16ffd <func_76+0x1f56>
   153a4:	c7 85 20 f4 ff ff 01 	movl   $0x1,-0xbe0(%rbp)
   153ab:	00 00 00 
   153ae:	48 8d 85 30 f8 ff ff 	lea    -0x7d0(%rbp),%rax
   153b5:	48 8d 15 44 4f 00 00 	lea    0x4f44(%rip),%rdx        # 1a300 <g_2228+0x1100>
   153bc:	b9 70 00 00 00       	mov    $0x70,%ecx
   153c1:	48 89 c7             	mov    %rax,%rdi
   153c4:	48 89 d6             	mov    %rdx,%rsi
   153c7:	f3 48 a5             	rep movsq %ds:(%rsi),%es:(%rdi)
   153ca:	48 89 f2             	mov    %rsi,%rdx
   153cd:	48 89 f8             	mov    %rdi,%rax
   153d0:	8b 0a                	mov    (%rdx),%ecx
   153d2:	89 08                	mov    %ecx,(%rax)
   153d4:	c7 85 24 f4 ff ff 00 	movl   $0x0,-0xbdc(%rbp)
   153db:	00 00 00 
   153de:	c6 05 b5 8c 00 00 13 	movb   $0x13,0x8cb5(%rip)        # 1e09a <g_109>
   153e5:	eb 7d                	jmp    15464 <func_76+0x3bd>
   153e7:	c7 85 9c f3 ff ff 00 	movl   $0x0,-0xc64(%rbp)
   153ee:	00 00 00 
   153f1:	eb 1e                	jmp    15411 <func_76+0x36a>
   153f3:	8b 85 9c f3 ff ff    	mov    -0xc64(%rbp),%eax
   153f9:	48 98                	cltq   
   153fb:	48 8d 15 9e 8c 00 00 	lea    0x8c9e(%rip),%rdx        # 1e0a0 <g_115>
   15402:	48 89 94 c5 d0 f6 ff 	mov    %rdx,-0x930(%rbp,%rax,8)
   15409:	ff 
   1540a:	83 85 9c f3 ff ff 01 	addl   $0x1,-0xc64(%rbp)
   15411:	83 bd 9c f3 ff ff 00 	cmpl   $0x0,-0xc64(%rbp)
   15418:	7e d9                	jle    153f3 <func_76+0x34c>
   1541a:	0f b6 05 97 8c 00 00 	movzbl 0x8c97(%rip),%eax        # 1e0b8 <g_124>
   15421:	83 e8 01             	sub    $0x1,%eax
   15424:	88 05 8e 8c 00 00    	mov    %al,0x8c8e(%rip)        # 1e0b8 <g_124>
   1542a:	48 8b 85 70 f3 ff ff 	mov    -0xc90(%rbp),%rax
   15431:	8b 00                	mov    (%rax),%eax
   15433:	85 c0                	test   %eax,%eax
   15435:	75 3e                	jne    15475 <func_76+0x3ce>
   15437:	8b 05 7f 8c 00 00    	mov    0x8c7f(%rip),%eax        # 1e0bc <g_127>
   1543d:	83 c0 01             	add    $0x1,%eax
   15440:	89 05 76 8c 00 00    	mov    %eax,0x8c76(%rip)        # 1e0bc <g_127>
   15446:	0f b6 05 4d 8c 00 00 	movzbl 0x8c4d(%rip),%eax        # 1e09a <g_109>
   1544d:	48 0f be c0          	movsbq %al,%rax
   15451:	be 04 00 00 00       	mov    $0x4,%esi
   15456:	48 89 c7             	mov    %rax,%rdi
   15459:	e8 4a 34 ff ff       	callq  88a8 <safe_sub_func_int64_t_s_s>
   1545e:	88 05 36 8c 00 00    	mov    %al,0x8c36(%rip)        # 1e09a <g_109>
   15464:	0f b6 05 2f 8c 00 00 	movzbl 0x8c2f(%rip),%eax        # 1e09a <g_109>
   1546b:	3c ff                	cmp    $0xff,%al
   1546d:	0f 85 74 ff ff ff    	jne    153e7 <func_76+0x340>
   15473:	eb 01                	jmp    15476 <func_76+0x3cf>
   15475:	90                   	nop
   15476:	48 8d 05 c3 c5 00 00 	lea    0xc5c3(%rip),%rax        # 21a40 <g_132>
   1547d:	e9 82 1b 00 00       	jmpq   17004 <func_76+0x1f5d>
   15482:	48 b8 4e e5 61 62 19 	movabs $0x53e2dd196261e54e,%rax
   15489:	dd e2 53 
   1548c:	48 89 85 88 f4 ff ff 	mov    %rax,-0xb78(%rbp)
   15493:	48 c7 85 38 f4 ff ff 	movq   $0xffffffffffffffff,-0xbc8(%rbp)
   1549a:	ff ff ff ff 
   1549e:	48 8d 05 f3 8b 00 00 	lea    0x8bf3(%rip),%rax        # 1e098 <g_106>
   154a5:	48 89 85 90 f4 ff ff 	mov    %rax,-0xb70(%rbp)
   154ac:	c7 85 dc f3 ff ff 00 	movl   $0x0,-0xc24(%rbp)
   154b3:	00 00 00 
   154b6:	48 8d 05 1b 8c 00 00 	lea    0x8c1b(%rip),%rax        # 1e0d8 <g_221>
   154bd:	48 89 85 40 f4 ff ff 	mov    %rax,-0xbc0(%rbp)
   154c4:	48 8d 85 40 f4 ff ff 	lea    -0xbc0(%rbp),%rax
   154cb:	48 89 85 98 f4 ff ff 	mov    %rax,-0xb68(%rbp)
   154d2:	48 8d 05 af 8c 00 00 	lea    0x8caf(%rip),%rax        # 1e188 <g_403>
   154d9:	48 89 85 20 f6 ff ff 	mov    %rax,-0x9e0(%rbp)
   154e0:	48 8d 05 a1 8c 00 00 	lea    0x8ca1(%rip),%rax        # 1e188 <g_403>
   154e7:	48 89 85 28 f6 ff ff 	mov    %rax,-0x9d8(%rbp)
   154ee:	48 8d 05 93 8c 00 00 	lea    0x8c93(%rip),%rax        # 1e188 <g_403>
   154f5:	48 89 85 30 f6 ff ff 	mov    %rax,-0x9d0(%rbp)
   154fc:	48 8d 05 85 8c 00 00 	lea    0x8c85(%rip),%rax        # 1e188 <g_403>
   15503:	48 89 85 38 f6 ff ff 	mov    %rax,-0x9c8(%rbp)
   1550a:	c7 85 e0 f3 ff ff ff 	movl   $0xffffffff,-0xc20(%rbp)
   15511:	ff ff ff 
   15514:	c7 85 a0 f3 ff ff 00 	movl   $0x0,-0xc60(%rbp)
   1551b:	00 00 00 
   1551e:	eb 1a                	jmp    1553a <func_76+0x493>
   15520:	8b 85 a0 f3 ff ff    	mov    -0xc60(%rbp),%eax
   15526:	48 98                	cltq   
   15528:	c7 84 85 98 f5 ff ff 	movl   $0xd0ed01f5,-0xa68(%rbp,%rax,4)
   1552f:	f5 01 ed d0 
   15533:	83 85 a0 f3 ff ff 01 	addl   $0x1,-0xc60(%rbp)
   1553a:	83 bd a0 f3 ff ff 01 	cmpl   $0x1,-0xc60(%rbp)
   15541:	7e dd                	jle    15520 <func_76+0x479>
   15543:	48 8b 85 60 f4 ff ff 	mov    -0xba0(%rbp),%rax
   1554a:	48 8b 00             	mov    (%rax),%rax
   1554d:	44 8b 20             	mov    (%rax),%r12d
   15550:	be 07 00 00 00       	mov    $0x7,%esi
   15555:	bf 16 aa 00 00       	mov    $0xaa16,%edi
   1555a:	e8 a7 38 ff ff       	callq  8e06 <safe_lshift_func_uint16_t_u_u>
   1555f:	0f b7 d0             	movzwl %ax,%edx
   15562:	48 8b 85 70 f3 ff ff 	mov    -0xc90(%rbp),%rax
   15569:	8b 08                	mov    (%rax),%ecx
   1556b:	48 8b 85 28 f4 ff ff 	mov    -0xbd8(%rbp),%rax
   15572:	8b 00                	mov    (%rax),%eax
   15574:	39 c1                	cmp    %eax,%ecx
   15576:	0f 95 c0             	setne  %al
   15579:	0f b6 c0             	movzbl %al,%eax
   1557c:	39 c2                	cmp    %eax,%edx
   1557e:	0f 9e c0             	setle  %al
   15581:	0f b6 d0             	movzbl %al,%edx
   15584:	48 8b 85 28 f4 ff ff 	mov    -0xbd8(%rbp),%rax
   1558b:	8b 00                	mov    (%rax),%eax
   1558d:	98                   	cwtl   
   1558e:	89 d6                	mov    %edx,%esi
   15590:	89 c7                	mov    %eax,%edi
   15592:	e8 93 2f ff ff       	callq  852a <safe_rshift_func_int16_t_s_s>
   15597:	48 8b 85 88 f4 ff ff 	mov    -0xb78(%rbp),%rax
   1559e:	0f b7 d8             	movzwl %ax,%ebx
   155a1:	48 8b 85 60 f4 ff ff 	mov    -0xba0(%rbp),%rax
   155a8:	48 8b 00             	mov    (%rax),%rax
   155ab:	8b 00                	mov    (%rax),%eax
   155ad:	83 f8 07             	cmp    $0x7,%eax
   155b0:	0f 95 c0             	setne  %al
   155b3:	0f b6 c0             	movzbl %al,%eax
   155b6:	be a7 12 1f a0       	mov    $0xa01f12a7,%esi
   155bb:	89 c7                	mov    %eax,%edi
   155bd:	e8 43 30 ff ff       	callq  8605 <safe_sub_func_int32_t_s_s>
   155c2:	48 8b 85 88 f4 ff ff 	mov    -0xb78(%rbp),%rax
   155c9:	0f b7 c0             	movzwl %ax,%eax
   155cc:	89 de                	mov    %ebx,%esi
   155ce:	89 c7                	mov    %eax,%edi
   155d0:	e8 b9 37 ff ff       	callq  8d8e <safe_div_func_uint16_t_u_u>
   155d5:	0f b7 c0             	movzwl %ax,%eax
   155d8:	48 c7 c6 f8 ff ff ff 	mov    $0xfffffffffffffff8,%rsi
   155df:	48 89 c7             	mov    %rax,%rdi
   155e2:	e8 c8 3a ff ff       	callq  90af <safe_div_func_uint64_t_u_u>
   155e7:	8b 15 8b 8a 00 00    	mov    0x8a8b(%rip),%edx        # 1e078 <g_6>
   155ed:	48 8b 85 90 f4 ff ff 	mov    -0xb70(%rbp),%rax
   155f4:	0f b7 00             	movzwl (%rax),%eax
   155f7:	21 c2                	and    %eax,%edx
   155f9:	48 8b 85 90 f4 ff ff 	mov    -0xb70(%rbp),%rax
   15600:	66 89 10             	mov    %dx,(%rax)
   15603:	48 8b 85 90 f4 ff ff 	mov    -0xb70(%rbp),%rax
   1560a:	0f b7 00             	movzwl (%rax),%eax
   1560d:	66 83 f8 01          	cmp    $0x1,%ax
   15611:	0f 9f c0             	setg   %al
   15614:	0f b6 d0             	movzbl %al,%edx
   15617:	8b 05 67 8a 00 00    	mov    0x8a67(%rip),%eax        # 1e084 <g_51>
   1561d:	39 c2                	cmp    %eax,%edx
   1561f:	0f 9d c0             	setge  %al
   15622:	0f b6 d0             	movzbl %al,%edx
   15625:	48 8b 85 88 f4 ff ff 	mov    -0xb78(%rbp),%rax
   1562c:	0f b7 c0             	movzwl %ax,%eax
   1562f:	89 d6                	mov    %edx,%esi
   15631:	89 c7                	mov    %eax,%edi
   15633:	e8 c7 36 ff ff       	callq  8cff <safe_add_func_uint16_t_u_u>
   15638:	0f b6 05 5b 8a 00 00 	movzbl 0x8a5b(%rip),%eax        # 1e09a <g_109>
   1563f:	0f be c0             	movsbl %al,%eax
   15642:	89 85 dc f3 ff ff    	mov    %eax,-0xc24(%rbp)
   15648:	8b 85 dc f3 ff ff    	mov    -0xc24(%rbp),%eax
   1564e:	48 63 d0             	movslq %eax,%rdx
   15651:	48 8b 85 38 f4 ff ff 	mov    -0xbc8(%rbp),%rax
   15658:	48 39 c2             	cmp    %rax,%rdx
   1565b:	0f 94 c0             	sete   %al
   1565e:	0f b6 c0             	movzbl %al,%eax
   15661:	41 39 c4             	cmp    %eax,%r12d
   15664:	0f 84 56 0c 00 00    	je     162c0 <func_76+0x1219>
   1566a:	c7 85 e0 f5 ff ff e3 	movl   $0x856559e3,-0xa20(%rbp)
   15671:	59 65 85 
   15674:	c7 85 e4 f5 ff ff 17 	movl   $0x665eb517,-0xa1c(%rbp)
   1567b:	b5 5e 66 
   1567e:	c7 85 e8 f5 ff ff 17 	movl   $0x665eb517,-0xa18(%rbp)
   15685:	b5 5e 66 
   15688:	c7 85 ec f5 ff ff e3 	movl   $0x856559e3,-0xa14(%rbp)
   1568f:	59 65 85 
   15692:	c7 85 f0 f5 ff ff 17 	movl   $0x665eb517,-0xa10(%rbp)
   15699:	b5 5e 66 
   1569c:	c7 85 f4 f5 ff ff 17 	movl   $0x665eb517,-0xa0c(%rbp)
   156a3:	b5 5e 66 
   156a6:	c7 85 f8 f5 ff ff e3 	movl   $0x856559e3,-0xa08(%rbp)
   156ad:	59 65 85 
   156b0:	c7 85 50 f7 ff ff e2 	movl   $0x1848d0e2,-0x8b0(%rbp)
   156b7:	d0 48 18 
   156ba:	c7 85 54 f7 ff ff 3f 	movl   $0x224e523f,-0x8ac(%rbp)
   156c1:	52 4e 22 
   156c4:	c7 85 58 f7 ff ff 50 	movl   $0x544a1050,-0x8a8(%rbp)
   156cb:	10 4a 54 
   156ce:	c7 85 5c f7 ff ff d8 	movl   $0xc404cd8,-0x8a4(%rbp)
   156d5:	4c 40 0c 
   156d8:	c7 85 60 f7 ff ff f7 	movl   $0xfffffff7,-0x8a0(%rbp)
   156df:	ff ff ff 
   156e2:	c7 85 64 f7 ff ff d8 	movl   $0xc404cd8,-0x89c(%rbp)
   156e9:	4c 40 0c 
   156ec:	c7 85 68 f7 ff ff 50 	movl   $0x544a1050,-0x898(%rbp)
   156f3:	10 4a 54 
   156f6:	c7 85 6c f7 ff ff 3f 	movl   $0x224e523f,-0x894(%rbp)
   156fd:	52 4e 22 
   15700:	c7 85 70 f7 ff ff e2 	movl   $0x1848d0e2,-0x890(%rbp)
   15707:	d0 48 18 
   1570a:	c7 85 74 f7 ff ff 00 	movl   $0x0,-0x88c(%rbp)
   15711:	00 00 00 
   15714:	c7 85 78 f7 ff ff ff 	movl   $0xffffffff,-0x888(%rbp)
   1571b:	ff ff ff 
   1571e:	c7 85 7c f7 ff ff 04 	movl   $0x4,-0x884(%rbp)
   15725:	00 00 00 
   15728:	c7 85 80 f7 ff ff ff 	movl   $0xffffffff,-0x880(%rbp)
   1572f:	ff ff ff 
   15732:	c7 85 84 f7 ff ff 00 	movl   $0x0,-0x87c(%rbp)
   15739:	00 00 00 
   1573c:	c7 85 88 f7 ff ff 00 	movl   $0x0,-0x878(%rbp)
   15743:	00 00 00 
   15746:	c7 85 8c f7 ff ff ff 	movl   $0xffffffff,-0x874(%rbp)
   1574d:	ff ff ff 
   15750:	c7 85 90 f7 ff ff 04 	movl   $0x4,-0x870(%rbp)
   15757:	00 00 00 
   1575a:	c7 85 94 f7 ff ff ff 	movl   $0xffffffff,-0x86c(%rbp)
   15761:	ff ff ff 
   15764:	c7 85 98 f7 ff ff 50 	movl   $0x544a1050,-0x868(%rbp)
   1576b:	10 4a 54 
   1576e:	c7 85 9c f7 ff ff 33 	movl   $0x60467133,-0x864(%rbp)
   15775:	71 46 60 
   15778:	c7 85 a0 f7 ff ff ff 	movl   $0xffffffff,-0x860(%rbp)
   1577f:	ff ff ff 
   15782:	c7 85 a4 f7 ff ff fe 	movl   $0xfffffffe,-0x85c(%rbp)
   15789:	ff ff ff 
   1578c:	c7 85 a8 f7 ff ff f7 	movl   $0xfffffff7,-0x858(%rbp)
   15793:	ff ff ff 
   15796:	c7 85 ac f7 ff ff 3f 	movl   $0x224e523f,-0x854(%rbp)
   1579d:	52 4e 22 
   157a0:	c7 85 b0 f7 ff ff f7 	movl   $0xfffffff7,-0x850(%rbp)
   157a7:	ff ff ff 
   157aa:	c7 85 b4 f7 ff ff fe 	movl   $0xfffffffe,-0x84c(%rbp)
   157b1:	ff ff ff 
   157b4:	c7 85 b8 f7 ff ff ff 	movl   $0xffffffff,-0x848(%rbp)
   157bb:	ff ff ff 
   157be:	c7 85 bc f7 ff ff 00 	movl   $0x0,-0x844(%rbp)
   157c5:	00 00 00 
   157c8:	c7 85 c0 f7 ff ff 00 	movl   $0x0,-0x840(%rbp)
   157cf:	00 00 00 
   157d2:	c7 85 c4 f7 ff ff ff 	movl   $0xffffffff,-0x83c(%rbp)
   157d9:	ff ff ff 
   157dc:	c7 85 c8 f7 ff ff 04 	movl   $0x4,-0x838(%rbp)
   157e3:	00 00 00 
   157e6:	c7 85 cc f7 ff ff ff 	movl   $0xffffffff,-0x834(%rbp)
   157ed:	ff ff ff 
   157f0:	c7 85 d0 f7 ff ff 00 	movl   $0x0,-0x830(%rbp)
   157f7:	00 00 00 
   157fa:	c7 85 d4 f7 ff ff 00 	movl   $0x0,-0x82c(%rbp)
   15801:	00 00 00 
   15804:	c7 85 d8 f7 ff ff ff 	movl   $0xffffffff,-0x828(%rbp)
   1580b:	ff ff ff 
   1580e:	c7 85 dc f7 ff ff 04 	movl   $0x4,-0x824(%rbp)
   15815:	00 00 00 
   15818:	c7 85 e0 f7 ff ff e2 	movl   $0x1848d0e2,-0x820(%rbp)
   1581f:	d0 48 18 
   15822:	c7 85 e4 f7 ff ff 33 	movl   $0x60467133,-0x81c(%rbp)
   15829:	71 46 60 
   1582c:	c7 85 e8 f7 ff ff e2 	movl   $0x1848d0e2,-0x818(%rbp)
   15833:	d0 48 18 
   15836:	c7 85 ec f7 ff ff 3f 	movl   $0x224e523f,-0x814(%rbp)
   1583d:	52 4e 22 
   15840:	c7 85 f0 f7 ff ff 50 	movl   $0x544a1050,-0x810(%rbp)
   15847:	10 4a 54 
   1584a:	c7 85 f4 f7 ff ff d8 	movl   $0xc404cd8,-0x80c(%rbp)
   15851:	4c 40 0c 
   15854:	c7 85 f8 f7 ff ff f7 	movl   $0xfffffff7,-0x808(%rbp)
   1585b:	ff ff ff 
   1585e:	c7 85 fc f7 ff ff fe 	movl   $0xfffffffe,-0x804(%rbp)
   15865:	ff ff ff 
   15868:	c7 85 00 f8 ff ff e2 	movl   $0x1848d0e2,-0x800(%rbp)
   1586f:	d0 48 18 
   15872:	48 8d 05 c7 c1 00 00 	lea    0xc1c7(%rip),%rax        # 21a40 <g_132>
   15879:	48 89 85 40 f5 ff ff 	mov    %rax,-0xac0(%rbp)
   15880:	c6 05 13 88 00 00 f1 	movb   $0xf1,0x8813(%rip)        # 1e09a <g_109>
   15887:	e9 5b 05 00 00       	jmpq   15de7 <func_76+0xd40>
   1588c:	48 c7 85 58 f5 ff ff 	movq   $0x6,-0xaa8(%rbp)
   15893:	06 00 00 00 
   15897:	48 8d 05 b2 c1 00 00 	lea    0xc1b2(%rip),%rax        # 21a50 <g_200>
   1589e:	48 89 85 60 f5 ff ff 	mov    %rax,-0xaa0(%rbp)
   158a5:	48 c7 85 50 f4 ff ff 	movq   $0x3,-0xbb0(%rbp)
   158ac:	03 00 00 00 
   158b0:	66 c7 85 8e f3 ff ff 	movw   $0x5242,-0xc72(%rbp)
   158b7:	42 52 
   158b9:	c7 85 90 f3 ff ff 00 	movl   $0x0,-0xc70(%rbp)
   158c0:	00 00 00 
   158c3:	e9 97 04 00 00       	jmpq   15d5f <func_76+0xcb8>
   158c8:	c7 85 58 f4 ff ff 00 	movl   $0x93884b00,-0xba8(%rbp)
   158cf:	4b 88 93 
   158d2:	c7 85 30 f8 ff ff 01 	movl   $0x1,-0x7d0(%rbp)
   158d9:	00 00 00 
   158dc:	c7 85 34 f8 ff ff 01 	movl   $0x1,-0x7cc(%rbp)
   158e3:	00 00 00 
   158e6:	c7 85 38 f8 ff ff 01 	movl   $0x1,-0x7c8(%rbp)
   158ed:	00 00 00 
   158f0:	c7 85 3c f8 ff ff 01 	movl   $0x1,-0x7c4(%rbp)
   158f7:	00 00 00 
   158fa:	c7 85 40 f8 ff ff 01 	movl   $0x1,-0x7c0(%rbp)
   15901:	00 00 00 
   15904:	48 c7 85 78 f5 ff ff 	movq   $0x0,-0xa88(%rbp)
   1590b:	00 00 00 00 
   1590f:	48 8d 85 58 f4 ff ff 	lea    -0xba8(%rbp),%rax
   15916:	48 89 85 80 f5 ff ff 	mov    %rax,-0xa80(%rbp)
   1591d:	c7 05 95 87 00 00 00 	movl   $0x0,0x8795(%rip)        # 1e0bc <g_127>
   15924:	00 00 00 
   15927:	e9 ed 03 00 00       	jmpq   15d19 <func_76+0xc72>
   1592c:	c7 85 18 f4 ff ff ab 	movl   $0x201156ab,-0xbe8(%rbp)
   15933:	56 11 20 
   15936:	0f b7 05 5b 87 00 00 	movzwl 0x875b(%rip),%eax        # 1e098 <g_106>
   1593d:	0f bf d8             	movswl %ax,%ebx
   15940:	8b 85 90 f3 ff ff    	mov    -0xc70(%rbp),%eax
   15946:	8b 0d 70 87 00 00    	mov    0x8770(%rip),%ecx        # 1e0bc <g_127>
   1594c:	8b 15 6a 87 00 00    	mov    0x876a(%rip),%edx        # 1e0bc <g_127>
   15952:	89 d6                	mov    %edx,%esi
   15954:	48 63 d0             	movslq %eax,%rdx
   15957:	89 c9                	mov    %ecx,%ecx
   15959:	48 89 d0             	mov    %rdx,%rax
   1595c:	48 c1 e0 03          	shl    $0x3,%rax
   15960:	48 29 d0             	sub    %rdx,%rax
   15963:	48 01 c8             	add    %rcx,%rax
   15966:	48 01 c0             	add    %rax,%rax
   15969:	48 8d 14 30          	lea    (%rax,%rsi,1),%rdx
   1596d:	48 8d 05 cc 86 00 00 	lea    0x86cc(%rip),%rax        # 1e040 <g_5>
   15974:	48 01 d0             	add    %rdx,%rax
   15977:	0f b6 00             	movzbl (%rax),%eax
   1597a:	0f be c0             	movsbl %al,%eax
   1597d:	89 85 6c f3 ff ff    	mov    %eax,-0xc94(%rbp)
   15983:	48 8b 85 70 f3 ff ff 	mov    -0xc90(%rbp),%rax
   1598a:	8b 00                	mov    (%rax),%eax
   1598c:	89 85 68 f3 ff ff    	mov    %eax,-0xc98(%rbp)
   15992:	8b 85 e8 f5 ff ff    	mov    -0xa18(%rbp),%eax
   15998:	89 85 64 f3 ff ff    	mov    %eax,-0xc9c(%rbp)
   1599e:	8b 85 ec f5 ff ff    	mov    -0xa14(%rbp),%eax
   159a4:	44 0f b6 e0          	movzbl %al,%r12d
   159a8:	48 8b 85 60 f4 ff ff 	mov    -0xba0(%rbp),%rax
   159af:	48 8b 00             	mov    (%rax),%rax
   159b2:	8b 00                	mov    (%rax),%eax
   159b4:	44 0f be e8          	movsbl %al,%r13d
   159b8:	48 8b 85 58 f5 ff ff 	mov    -0xaa8(%rbp),%rax
   159bf:	44 0f be f0          	movsbl %al,%r14d
   159c3:	44 8b bd e8 f5 ff ff 	mov    -0xa18(%rbp),%r15d
   159ca:	8b 85 90 f3 ff ff    	mov    -0xc70(%rbp),%eax
   159d0:	8b 0d e6 86 00 00    	mov    0x86e6(%rip),%ecx        # 1e0bc <g_127>
   159d6:	8b 15 e0 86 00 00    	mov    0x86e0(%rip),%edx        # 1e0bc <g_127>
   159dc:	89 d6                	mov    %edx,%esi
   159de:	48 63 d0             	movslq %eax,%rdx
   159e1:	89 c9                	mov    %ecx,%ecx
   159e3:	48 89 d0             	mov    %rdx,%rax
   159e6:	48 c1 e0 03          	shl    $0x3,%rax
   159ea:	48 29 d0             	sub    %rdx,%rax
   159ed:	48 01 c8             	add    %rcx,%rax
   159f0:	48 01 c0             	add    %rax,%rax
   159f3:	48 8d 14 30          	lea    (%rax,%rsi,1),%rdx
   159f7:	48 8d 05 42 86 00 00 	lea    0x8642(%rip),%rax        # 1e040 <g_5>
   159fe:	48 01 d0             	add    %rdx,%rax
   15a01:	0f b6 00             	movzbl (%rax),%eax
   15a04:	48 0f be c0          	movsbq %al,%rax
   15a08:	48 89 85 58 f3 ff ff 	mov    %rax,-0xca8(%rbp)
   15a0f:	48 8b 85 38 f4 ff ff 	mov    -0xbc8(%rbp),%rax
   15a16:	98                   	cwtl   
   15a17:	be 0d 00 00 00       	mov    $0xd,%esi
   15a1c:	89 c7                	mov    %eax,%edi
   15a1e:	e8 be 2a ff ff       	callq  84e1 <safe_lshift_func_int16_t_s_u>
   15a23:	8b 05 87 86 00 00    	mov    0x8687(%rip),%eax        # 1e0b0 <g_115+0x10>
   15a29:	48 98                	cltq   
   15a2b:	48 8b b5 58 f3 ff ff 	mov    -0xca8(%rbp),%rsi
   15a32:	48 89 c7             	mov    %rax,%rdi
   15a35:	e8 46 36 ff ff       	callq  9080 <safe_mod_func_uint64_t_u_u>
   15a3a:	98                   	cwtl   
   15a3b:	be fd ff ff ff       	mov    $0xfffffffd,%esi
   15a40:	89 c7                	mov    %eax,%edi
   15a42:	e8 0e 2a ff ff       	callq  8455 <safe_div_func_int16_t_s_s>
   15a47:	48 0f bf c0          	movswq %ax,%rax
   15a4b:	48 89 85 58 f3 ff ff 	mov    %rax,-0xca8(%rbp)
   15a52:	8b 85 58 f4 ff ff    	mov    -0xba8(%rbp),%eax
   15a58:	0f b7 c0             	movzwl %ax,%eax
   15a5b:	be 08 00 00 00       	mov    $0x8,%esi
   15a60:	89 c7                	mov    %eax,%edi
   15a62:	e8 e1 33 ff ff       	callq  8e48 <safe_rshift_func_uint16_t_u_s>
   15a67:	0f b7 c0             	movzwl %ax,%eax
   15a6a:	48 89 c6             	mov    %rax,%rsi
   15a6d:	48 bf 5a da 61 43 de 	movabs $0xd791cde4361da5a,%rdi
   15a74:	1c 79 0d 
   15a77:	e8 b2 35 ff ff       	callq  902e <safe_add_func_uint64_t_u_u>
   15a7c:	48 39 85 58 f3 ff ff 	cmp    %rax,-0xca8(%rbp)
   15a83:	0f 95 c0             	setne  %al
   15a86:	0f b6 c0             	movzbl %al,%eax
   15a89:	89 c7                	mov    %eax,%edi
   15a8b:	e8 06 2b ff ff       	callq  8596 <safe_unary_minus_func_int32_t_s>
   15a90:	89 85 58 f3 ff ff    	mov    %eax,-0xca8(%rbp)
   15a96:	48 8b 05 a3 bf 00 00 	mov    0xbfa3(%rip),%rax        # 21a40 <g_132>
   15a9d:	8b 00                	mov    (%rax),%eax
   15a9f:	89 c2                	mov    %eax,%edx
   15aa1:	48 8b 85 38 f4 ff ff 	mov    -0xbc8(%rbp),%rax
   15aa8:	89 d6                	mov    %edx,%esi
   15aaa:	89 c7                	mov    %eax,%edi
   15aac:	e8 74 34 ff ff       	callq  8f25 <safe_div_func_uint32_t_u_u>
   15ab1:	85 c0                	test   %eax,%eax
   15ab3:	75 0f                	jne    15ac4 <func_76+0xa1d>
   15ab5:	8b 05 d5 85 00 00    	mov    0x85d5(%rip),%eax        # 1e090 <g_92>
   15abb:	25 ff ff ff 3f       	and    $0x3fffffff,%eax
   15ac0:	85 c0                	test   %eax,%eax
   15ac2:	74 07                	je     15acb <func_76+0xa24>
   15ac4:	ba 01 00 00 00       	mov    $0x1,%edx
   15ac9:	eb 05                	jmp    15ad0 <func_76+0xa29>
   15acb:	ba 00 00 00 00       	mov    $0x0,%edx
   15ad0:	8b 05 aa 85 00 00    	mov    0x85aa(%rip),%eax        # 1e080 <g_14>
   15ad6:	21 d0                	and    %edx,%eax
   15ad8:	39 85 58 f3 ff ff    	cmp    %eax,-0xca8(%rbp)
   15ade:	0f 95 c0             	setne  %al
   15ae1:	0f b6 c0             	movzbl %al,%eax
   15ae4:	44 89 fe             	mov    %r15d,%esi
   15ae7:	89 c7                	mov    %eax,%edi
   15ae9:	e8 7e 28 ff ff       	callq  836c <safe_rshift_func_int8_t_s_u>
   15aee:	8b 95 58 f4 ff ff    	mov    -0xba8(%rbp),%edx
   15af4:	09 d0                	or     %edx,%eax
   15af6:	0f b6 c0             	movzbl %al,%eax
   15af9:	be 00 00 00 00       	mov    $0x0,%esi
   15afe:	89 c7                	mov    %eax,%edi
   15b00:	e8 88 31 ff ff       	callq  8c8d <safe_rshift_func_uint8_t_u_s>
   15b05:	0f be c0             	movsbl %al,%eax
   15b08:	44 89 f6             	mov    %r14d,%esi
   15b0b:	89 c7                	mov    %eax,%edi
   15b0d:	e8 c2 26 ff ff       	callq  81d4 <safe_add_func_int8_t_s_s>
   15b12:	8b 05 60 85 00 00    	mov    0x8560(%rip),%eax        # 1e078 <g_6>
   15b18:	83 f8 ff             	cmp    $0xffffffff,%eax
   15b1b:	0f 9c c0             	setl   %al
   15b1e:	0f b6 c0             	movzbl %al,%eax
   15b21:	44 89 ee             	mov    %r13d,%esi
   15b24:	89 c7                	mov    %eax,%edi
   15b26:	e8 e7 26 ff ff       	callq  8212 <safe_mul_func_int8_t_s_s>
   15b2b:	0f b6 c0             	movzbl %al,%eax
   15b2e:	44 89 e6             	mov    %r12d,%esi
   15b31:	89 c7                	mov    %eax,%edi
   15b33:	e8 5b 30 ff ff       	callq  8b93 <safe_mul_func_uint8_t_u_u>
   15b38:	84 c0                	test   %al,%al
   15b3a:	74 12                	je     15b4e <func_76+0xaa7>
   15b3c:	0f b6 05 75 85 00 00 	movzbl 0x8575(%rip),%eax        # 1e0b8 <g_124>
   15b43:	84 c0                	test   %al,%al
   15b45:	74 07                	je     15b4e <func_76+0xaa7>
   15b47:	b8 01 00 00 00       	mov    $0x1,%eax
   15b4c:	eb 05                	jmp    15b53 <func_76+0xaac>
   15b4e:	b8 00 00 00 00       	mov    $0x0,%eax
   15b53:	0f b7 c0             	movzwl %ax,%eax
   15b56:	8b b5 64 f3 ff ff    	mov    -0xc9c(%rbp),%esi
   15b5c:	89 c7                	mov    %eax,%edi
   15b5e:	e8 5b 32 ff ff       	callq  8dbe <safe_lshift_func_uint16_t_u_s>
   15b63:	98                   	cwtl   
   15b64:	be 05 00 00 00       	mov    $0x5,%esi
   15b69:	89 c7                	mov    %eax,%edi
   15b6b:	e8 ba 29 ff ff       	callq  852a <safe_rshift_func_int16_t_s_s>
   15b70:	66 85 c0             	test   %ax,%ax
   15b73:	75 3e                	jne    15bb3 <func_76+0xb0c>
   15b75:	8b 85 90 f3 ff ff    	mov    -0xc70(%rbp),%eax
   15b7b:	8b 0d 3b 85 00 00    	mov    0x853b(%rip),%ecx        # 1e0bc <g_127>
   15b81:	8b 15 35 85 00 00    	mov    0x8535(%rip),%edx        # 1e0bc <g_127>
   15b87:	89 d6                	mov    %edx,%esi
   15b89:	48 63 d0             	movslq %eax,%rdx
   15b8c:	89 c9                	mov    %ecx,%ecx
   15b8e:	48 89 d0             	mov    %rdx,%rax
   15b91:	48 c1 e0 03          	shl    $0x3,%rax
   15b95:	48 29 d0             	sub    %rdx,%rax
   15b98:	48 01 c8             	add    %rcx,%rax
   15b9b:	48 01 c0             	add    %rax,%rax
   15b9e:	48 8d 14 30          	lea    (%rax,%rsi,1),%rdx
   15ba2:	48 8d 05 97 84 00 00 	lea    0x8497(%rip),%rax        # 1e040 <g_5>
   15ba9:	48 01 d0             	add    %rdx,%rax
   15bac:	0f b6 00             	movzbl (%rax),%eax
   15baf:	84 c0                	test   %al,%al
   15bb1:	74 07                	je     15bba <func_76+0xb13>
   15bb3:	b8 01 00 00 00       	mov    $0x1,%eax
   15bb8:	eb 05                	jmp    15bbf <func_76+0xb18>
   15bba:	b8 00 00 00 00       	mov    $0x0,%eax
   15bbf:	8b b5 68 f3 ff ff    	mov    -0xc98(%rbp),%esi
   15bc5:	89 c7                	mov    %eax,%edi
   15bc7:	e8 ec 32 ff ff       	callq  8eb8 <safe_add_func_uint32_t_u_u>
   15bcc:	39 85 6c f3 ff ff    	cmp    %eax,-0xc94(%rbp)
   15bd2:	0f 93 c0             	setae  %al
   15bd5:	0f b6 c0             	movzbl %al,%eax
   15bd8:	89 de                	mov    %ebx,%esi
   15bda:	89 c7                	mov    %eax,%edi
   15bdc:	e8 14 28 ff ff       	callq  83f5 <safe_mul_func_int16_t_s_s>
   15be1:	8b 85 e8 f5 ff ff    	mov    -0xa18(%rbp),%eax
   15be7:	0f be c0             	movsbl %al,%eax
   15bea:	be fa ff ff ff       	mov    $0xfffffffa,%esi
   15bef:	89 c7                	mov    %eax,%edi
   15bf1:	e8 74 26 ff ff       	callq  826a <safe_div_func_int8_t_s_s>
   15bf6:	8b 95 38 f8 ff ff    	mov    -0x7c8(%rbp),%edx
   15bfc:	0f be c0             	movsbl %al,%eax
   15bff:	31 d0                	xor    %edx,%eax
   15c01:	89 85 38 f8 ff ff    	mov    %eax,-0x7c8(%rbp)
   15c07:	8b 85 38 f8 ff ff    	mov    -0x7c8(%rbp),%eax
   15c0d:	09 85 18 f4 ff ff    	or     %eax,-0xbe8(%rbp)
   15c13:	48 8b 85 58 f5 ff ff 	mov    -0xaa8(%rbp),%rax
   15c1a:	66 89 05 77 84 00 00 	mov    %ax,0x8477(%rip)        # 1e098 <g_106>
   15c21:	8b 05 59 84 00 00    	mov    0x8459(%rip),%eax        # 1e080 <g_14>
   15c27:	89 c2                	mov    %eax,%edx
   15c29:	8b 05 8d 84 00 00    	mov    0x848d(%rip),%eax        # 1e0bc <g_127>
   15c2f:	39 c2                	cmp    %eax,%edx
   15c31:	48 8b 85 28 f4 ff ff 	mov    -0xbd8(%rbp),%rax
   15c38:	8b 00                	mov    (%rax),%eax
   15c3a:	0f be c0             	movsbl %al,%eax
   15c3d:	be 00 00 00 00       	mov    $0x0,%esi
   15c42:	89 c7                	mov    %eax,%edi
   15c44:	e8 23 27 ff ff       	callq  836c <safe_rshift_func_int8_t_s_u>
   15c49:	66 98                	cbtw   
   15c4b:	0f b7 c0             	movzwl %ax,%eax
   15c4e:	be 0e 00 00 00       	mov    $0xe,%esi
   15c53:	89 c7                	mov    %eax,%edi
   15c55:	e8 ac 31 ff ff       	callq  8e06 <safe_lshift_func_uint16_t_u_u>
   15c5a:	0f b6 d0             	movzbl %al,%edx
   15c5d:	8b 85 18 f4 ff ff    	mov    -0xbe8(%rbp),%eax
   15c63:	0f b6 c0             	movzbl %al,%eax
   15c66:	89 d6                	mov    %edx,%esi
   15c68:	89 c7                	mov    %eax,%edi
   15c6a:	e8 eb 2e ff ff       	callq  8b5a <safe_add_func_uint8_t_u_u>
   15c6f:	8b 35 03 84 00 00    	mov    0x8403(%rip),%esi        # 1e078 <g_6>
   15c75:	8b 05 41 84 00 00    	mov    0x8441(%rip),%eax        # 1e0bc <g_127>
   15c7b:	8d 48 01             	lea    0x1(%rax),%ecx
   15c7e:	8b 85 90 f3 ff ff    	mov    -0xc70(%rbp),%eax
   15c84:	83 c0 01             	add    $0x1,%eax
   15c87:	8b 15 2f 84 00 00    	mov    0x842f(%rip),%edx        # 1e0bc <g_127>
   15c8d:	89 d7                	mov    %edx,%edi
   15c8f:	89 c9                	mov    %ecx,%ecx
   15c91:	48 63 d0             	movslq %eax,%rdx
   15c94:	48 89 c8             	mov    %rcx,%rax
   15c97:	48 c1 e0 03          	shl    $0x3,%rax
   15c9b:	48 29 c8             	sub    %rcx,%rax
   15c9e:	48 01 d0             	add    %rdx,%rax
   15ca1:	48 01 c0             	add    %rax,%rax
   15ca4:	48 8d 14 38          	lea    (%rax,%rdi,1),%rdx
   15ca8:	48 8d 05 91 83 00 00 	lea    0x8391(%rip),%rax        # 1e040 <g_5>
   15caf:	48 01 d0             	add    %rdx,%rax
   15cb2:	0f b6 08             	movzbl (%rax),%ecx
   15cb5:	8b 05 01 84 00 00    	mov    0x8401(%rip),%eax        # 1e0bc <g_127>
   15cbb:	44 8d 40 01          	lea    0x1(%rax),%r8d
   15cbf:	8b 85 90 f3 ff ff    	mov    -0xc70(%rbp),%eax
   15cc5:	83 c0 01             	add    $0x1,%eax
   15cc8:	8b 15 ee 83 00 00    	mov    0x83ee(%rip),%edx        # 1e0bc <g_127>
   15cce:	09 ce                	or     %ecx,%esi
   15cd0:	89 d7                	mov    %edx,%edi
   15cd2:	44 89 c1             	mov    %r8d,%ecx
   15cd5:	48 63 d0             	movslq %eax,%rdx
   15cd8:	48 89 c8             	mov    %rcx,%rax
   15cdb:	48 c1 e0 03          	shl    $0x3,%rax
   15cdf:	48 29 c8             	sub    %rcx,%rax
   15ce2:	48 01 d0             	add    %rdx,%rax
   15ce5:	48 01 c0             	add    %rax,%rax
   15ce8:	48 8d 14 38          	lea    (%rax,%rdi,1),%rdx
   15cec:	48 8d 05 4d 83 00 00 	lea    0x834d(%rip),%rax        # 1e040 <g_5>
   15cf3:	48 01 d0             	add    %rdx,%rax
   15cf6:	40 88 30             	mov    %sil,(%rax)
   15cf9:	8b 05 91 83 00 00    	mov    0x8391(%rip),%eax        # 1e090 <g_92>
   15cff:	25 00 00 00 c0       	and    $0xc0000000,%eax
   15d04:	89 05 86 83 00 00    	mov    %eax,0x8386(%rip)        # 1e090 <g_92>
   15d0a:	8b 05 ac 83 00 00    	mov    0x83ac(%rip),%eax        # 1e0bc <g_127>
   15d10:	83 c0 01             	add    $0x1,%eax
   15d13:	89 05 a3 83 00 00    	mov    %eax,0x83a3(%rip)        # 1e0bc <g_127>
   15d19:	8b 05 9d 83 00 00    	mov    0x839d(%rip),%eax        # 1e0bc <g_127>
   15d1f:	83 f8 01             	cmp    $0x1,%eax
   15d22:	0f 86 04 fc ff ff    	jbe    1592c <func_76+0x885>
   15d28:	48 8b 85 80 f5 ff ff 	mov    -0xa80(%rbp),%rax
   15d2f:	8b 10                	mov    (%rax),%edx
   15d31:	48 8b 05 10 bd 00 00 	mov    0xbd10(%rip),%rax        # 21a48 <g_197>
   15d38:	48 39 85 78 f5 ff ff 	cmp    %rax,-0xa88(%rbp)
   15d3f:	0f 95 c0             	setne  %al
   15d42:	0f b6 c0             	movzbl %al,%eax
   15d45:	09 c2                	or     %eax,%edx
   15d47:	48 8b 85 80 f5 ff ff 	mov    -0xa80(%rbp),%rax
   15d4e:	89 10                	mov    %edx,(%rax)
   15d50:	8b 85 90 f3 ff ff    	mov    -0xc70(%rbp),%eax
   15d56:	83 c0 01             	add    $0x1,%eax
   15d59:	89 85 90 f3 ff ff    	mov    %eax,-0xc70(%rbp)
   15d5f:	8b 85 90 f3 ff ff    	mov    -0xc70(%rbp),%eax
   15d65:	83 f8 01             	cmp    $0x1,%eax
   15d68:	0f 8e 5a fb ff ff    	jle    158c8 <func_76+0x821>
   15d6e:	48 8b 15 db bc 00 00 	mov    0xbcdb(%rip),%rdx        # 21a50 <g_200>
   15d75:	48 8b 85 60 f5 ff ff 	mov    -0xaa0(%rbp),%rax
   15d7c:	48 89 10             	mov    %rdx,(%rax)
   15d7f:	c7 85 90 f3 ff ff 05 	movl   $0x5,-0xc70(%rbp)
   15d86:	00 00 00 
   15d89:	eb 36                	jmp    15dc1 <func_76+0xd1a>
   15d8b:	48 c7 85 68 f5 ff ff 	movq   $0x0,-0xa98(%rbp)
   15d92:	00 00 00 00 
   15d96:	48 8d 05 43 83 00 00 	lea    0x8343(%rip),%rax        # 1e0e0 <g_225>
   15d9d:	48 89 85 58 f4 ff ff 	mov    %rax,-0xba8(%rbp)
   15da4:	48 8d 85 58 f4 ff ff 	lea    -0xba8(%rbp),%rax
   15dab:	48 89 85 70 f5 ff ff 	mov    %rax,-0xa90(%rbp)
   15db2:	8b 85 90 f3 ff ff    	mov    -0xc70(%rbp),%eax
   15db8:	83 e8 01             	sub    $0x1,%eax
   15dbb:	89 85 90 f3 ff ff    	mov    %eax,-0xc70(%rbp)
   15dc1:	8b 85 90 f3 ff ff    	mov    -0xc70(%rbp),%eax
   15dc7:	85 c0                	test   %eax,%eax
   15dc9:	79 c0                	jns    15d8b <func_76+0xce4>
   15dcb:	0f b6 05 c8 82 00 00 	movzbl 0x82c8(%rip),%eax        # 1e09a <g_109>
   15dd2:	0f b6 c0             	movzbl %al,%eax
   15dd5:	be 09 00 00 00       	mov    $0x9,%esi
   15dda:	89 c7                	mov    %eax,%edi
   15ddc:	e8 79 2d ff ff       	callq  8b5a <safe_add_func_uint8_t_u_u>
   15de1:	88 05 b3 82 00 00    	mov    %al,0x82b3(%rip)        # 1e09a <g_109>
   15de7:	0f b6 05 ac 82 00 00 	movzbl 0x82ac(%rip),%eax        # 1e09a <g_109>
   15dee:	3c f1                	cmp    $0xf1,%al
   15df0:	0f 85 96 fa ff ff    	jne    1588c <func_76+0x7e5>
   15df6:	c7 05 d8 82 00 00 00 	movl   $0x0,0x82d8(%rip)        # 1e0d8 <g_221>
   15dfd:	00 00 00 
   15e00:	e9 a7 04 00 00       	jmpq   162ac <func_76+0x1205>
   15e05:	48 c7 85 48 f5 ff ff 	movq   $0x1,-0xab8(%rbp)
   15e0c:	01 00 00 00 
   15e10:	c7 85 00 f4 ff ff 4c 	movl   $0xe3ac004c,-0xc00(%rbp)
   15e17:	00 ac e3 
   15e1a:	c7 85 40 f6 ff ff ff 	movl   $0xffffffff,-0x9c0(%rbp)
   15e21:	ff ff ff 
   15e24:	c7 85 44 f6 ff ff ff 	movl   $0xffffffff,-0x9bc(%rbp)
   15e2b:	ff ff ff 
   15e2e:	c7 85 48 f6 ff ff ff 	movl   $0xffffffff,-0x9b8(%rbp)
   15e35:	ff ff ff 
   15e38:	c7 85 4c f6 ff ff ff 	movl   $0xffffffff,-0x9b4(%rbp)
   15e3f:	ff ff ff 
   15e42:	c7 85 50 f6 ff ff ff 	movl   $0xffffffff,-0x9b0(%rbp)
   15e49:	ff ff ff 
   15e4c:	c7 85 54 f6 ff ff ff 	movl   $0xffffffff,-0x9ac(%rbp)
   15e53:	ff ff ff 
   15e56:	c7 85 58 f6 ff ff ff 	movl   $0xffffffff,-0x9a8(%rbp)
   15e5d:	ff ff ff 
   15e60:	c7 85 5c f6 ff ff ff 	movl   $0xffffffff,-0x9a4(%rbp)
   15e67:	ff ff ff 
   15e6a:	c7 85 04 f4 ff ff 00 	movl   $0x0,-0xbfc(%rbp)
   15e71:	00 00 00 
   15e74:	48 8d 85 30 f8 ff ff 	lea    -0x7d0(%rbp),%rax
   15e7b:	48 8d 15 1e b4 00 00 	lea    0xb41e(%rip),%rdx        # 212a0 <g_2204+0x2580>
   15e82:	b9 f3 00 00 00       	mov    $0xf3,%ecx
   15e87:	48 89 c7             	mov    %rax,%rdi
   15e8a:	48 89 d6             	mov    %rdx,%rsi
   15e8d:	f3 48 a5             	rep movsq %ds:(%rsi),%es:(%rdi)
   15e90:	c7 85 a4 f3 ff ff 00 	movl   $0x0,-0xc5c(%rbp)
   15e97:	00 00 00 
   15e9a:	eb 1a                	jmp    15eb6 <func_76+0xe0f>
   15e9c:	8b 85 a4 f3 ff ff    	mov    -0xc5c(%rbp),%eax
   15ea2:	48 98                	cltq   
   15ea4:	c7 84 85 a0 f5 ff ff 	movl   $0x86131417,-0xa60(%rbp,%rax,4)
   15eab:	17 14 13 86 
   15eaf:	83 85 a4 f3 ff ff 01 	addl   $0x1,-0xc5c(%rbp)
   15eb6:	83 bd a4 f3 ff ff 04 	cmpl   $0x4,-0xc5c(%rbp)
   15ebd:	7e dd                	jle    15e9c <func_76+0xdf5>
   15ebf:	c7 85 90 f3 ff ff 06 	movl   $0x6,-0xc70(%rbp)
   15ec6:	00 00 00 
   15ec9:	e9 c1 03 00 00       	jmpq   1628f <func_76+0x11e8>
   15ece:	c7 85 08 f4 ff ff ff 	movl   $0xffffffff,-0xbf8(%rbp)
   15ed5:	ff ff ff 
   15ed8:	c7 85 0c f4 ff ff 00 	movl   $0x0,-0xbf4(%rbp)
   15edf:	00 00 00 
   15ee2:	c7 85 10 f4 ff ff f4 	movl   $0x6ed50cf4,-0xbf0(%rbp)
   15ee9:	0c d5 6e 
   15eec:	c7 85 14 f4 ff ff 54 	movl   $0x7ad6a654,-0xbec(%rbp)
   15ef3:	a6 d6 7a 
   15ef6:	c7 85 60 f6 ff ff bb 	movl   $0x3bb86bb,-0x9a0(%rbp)
   15efd:	86 bb 03 
   15f00:	c7 85 64 f6 ff ff 38 	movl   $0xc1d68438,-0x99c(%rbp)
   15f07:	84 d6 c1 
   15f0a:	c7 85 68 f6 ff ff f1 	movl   $0x92071bf1,-0x998(%rbp)
   15f11:	1b 07 92 
   15f14:	c7 85 6c f6 ff ff ff 	movl   $0xffffffff,-0x994(%rbp)
   15f1b:	ff ff ff 
   15f1e:	c7 85 70 f6 ff ff 60 	movl   $0xabcdbc60,-0x990(%rbp)
   15f25:	bc cd ab 
   15f28:	c7 85 74 f6 ff ff 00 	movl   $0x0,-0x98c(%rbp)
   15f2f:	00 00 00 
   15f32:	c7 85 78 f6 ff ff 60 	movl   $0xabcdbc60,-0x988(%rbp)
   15f39:	bc cd ab 
   15f3c:	c7 85 7c f6 ff ff bb 	movl   $0x3bb86bb,-0x984(%rbp)
   15f43:	86 bb 03 
   15f46:	c7 85 80 f6 ff ff 60 	movl   $0xabcdbc60,-0x980(%rbp)
   15f4d:	bc cd ab 
   15f50:	c7 85 84 f6 ff ff 60 	movl   $0xabcdbc60,-0x97c(%rbp)
   15f57:	bc cd ab 
   15f5a:	c7 85 88 f6 ff ff bb 	movl   $0x3bb86bb,-0x978(%rbp)
   15f61:	86 bb 03 
   15f64:	c7 85 8c f6 ff ff 04 	movl   $0x65512604,-0x974(%rbp)
   15f6b:	26 51 65 
   15f6e:	c7 85 90 f6 ff ff ff 	movl   $0xffffffff,-0x970(%rbp)
   15f75:	ff ff ff 
   15f78:	c7 85 94 f6 ff ff 04 	movl   $0x9a852904,-0x96c(%rbp)
   15f7f:	29 85 9a 
   15f82:	c7 85 98 f6 ff ff 71 	movl   $0x35ac3371,-0x968(%rbp)
   15f89:	33 ac 35 
   15f8c:	c7 85 9c f6 ff ff ff 	movl   $0xffffffff,-0x964(%rbp)
   15f93:	ff ff ff 
   15f96:	c7 85 a0 f6 ff ff f1 	movl   $0x92071bf1,-0x960(%rbp)
   15f9d:	1b 07 92 
   15fa0:	c7 85 a4 f6 ff ff 04 	movl   $0x65512604,-0x95c(%rbp)
   15fa7:	26 51 65 
   15faa:	c7 85 a8 f6 ff ff 04 	movl   $0x65512604,-0x958(%rbp)
   15fb1:	26 51 65 
   15fb4:	c7 85 ac f6 ff ff f1 	movl   $0x92071bf1,-0x954(%rbp)
   15fbb:	1b 07 92 
   15fbe:	c7 85 b0 f6 ff ff ff 	movl   $0xffffffff,-0x950(%rbp)
   15fc5:	ff ff ff 
   15fc8:	c7 85 b4 f6 ff ff 04 	movl   $0x65512604,-0x94c(%rbp)
   15fcf:	26 51 65 
   15fd2:	c7 85 b8 f6 ff ff 71 	movl   $0x35ac3371,-0x948(%rbp)
   15fd9:	33 ac 35 
   15fdc:	c7 85 bc f6 ff ff 00 	movl   $0x0,-0x944(%rbp)
   15fe3:	00 00 00 
   15fe6:	c7 85 c0 f6 ff ff 38 	movl   $0xc1d68438,-0x940(%rbp)
   15fed:	84 d6 c1 
   15ff0:	c7 85 c4 f6 ff ff 60 	movl   $0xabcdbc60,-0x93c(%rbp)
   15ff7:	bc cd ab 
   15ffa:	c7 85 c8 f6 ff ff 04 	movl   $0x9a852904,-0x938(%rbp)
   16001:	29 85 9a 
   16004:	c7 85 cc f6 ff ff 04 	movl   $0x9a852904,-0x934(%rbp)
   1600b:	29 85 9a 
   1600e:	c7 05 a4 80 00 00 02 	movl   $0x2,0x80a4(%rip)        # 1e0bc <g_127>
   16015:	00 00 00 
   16018:	e9 34 01 00 00       	jmpq   16151 <func_76+0x10aa>
   1601d:	48 c7 85 d0 f6 ff ff 	movq   $0x0,-0x930(%rbp)
   16024:	00 00 00 00 
   16028:	48 8d 85 94 f3 ff ff 	lea    -0xc6c(%rbp),%rax
   1602f:	48 89 85 d8 f6 ff ff 	mov    %rax,-0x928(%rbp)
   16036:	48 8d 85 94 f3 ff ff 	lea    -0xc6c(%rbp),%rax
   1603d:	48 89 85 e0 f6 ff ff 	mov    %rax,-0x920(%rbp)
   16044:	48 c7 85 e8 f6 ff ff 	movq   $0x0,-0x918(%rbp)
   1604b:	00 00 00 00 
   1604f:	48 c7 85 f0 f6 ff ff 	movq   $0x0,-0x910(%rbp)
   16056:	00 00 00 00 
   1605a:	48 8d 85 94 f3 ff ff 	lea    -0xc6c(%rbp),%rax
   16061:	48 89 85 f8 f6 ff ff 	mov    %rax,-0x908(%rbp)
   16068:	48 8d 85 94 f3 ff ff 	lea    -0xc6c(%rbp),%rax
   1606f:	48 89 85 00 f7 ff ff 	mov    %rax,-0x900(%rbp)
   16076:	48 c7 85 08 f7 ff ff 	movq   $0x0,-0x8f8(%rbp)
   1607d:	00 00 00 00 
   16081:	48 c7 85 10 f7 ff ff 	movq   $0x0,-0x8f0(%rbp)
   16088:	00 00 00 00 
   1608c:	48 8d 85 94 f3 ff ff 	lea    -0xc6c(%rbp),%rax
   16093:	48 89 85 18 f7 ff ff 	mov    %rax,-0x8e8(%rbp)
   1609a:	48 8d 85 94 f3 ff ff 	lea    -0xc6c(%rbp),%rax
   160a1:	48 89 85 20 f7 ff ff 	mov    %rax,-0x8e0(%rbp)
   160a8:	48 c7 85 28 f7 ff ff 	movq   $0x0,-0x8d8(%rbp)
   160af:	00 00 00 00 
   160b3:	48 c7 85 30 f7 ff ff 	movq   $0x0,-0x8d0(%rbp)
   160ba:	00 00 00 00 
   160be:	48 8d 85 94 f3 ff ff 	lea    -0xc6c(%rbp),%rax
   160c5:	48 89 85 38 f7 ff ff 	mov    %rax,-0x8c8(%rbp)
   160cc:	48 8d 85 94 f3 ff ff 	lea    -0xc6c(%rbp),%rax
   160d3:	48 89 85 40 f7 ff ff 	mov    %rax,-0x8c0(%rbp)
   160da:	48 c7 85 48 f7 ff ff 	movq   $0x0,-0x8b8(%rbp)
   160e1:	00 00 00 00 
   160e5:	c7 85 a8 f3 ff ff 00 	movl   $0x0,-0xc58(%rbp)
   160ec:	00 00 00 
   160ef:	eb 1a                	jmp    1610b <func_76+0x1064>
   160f1:	8b 85 a8 f3 ff ff    	mov    -0xc58(%rbp),%eax
   160f7:	48 98                	cltq   
   160f9:	c7 84 85 94 f5 ff ff 	movl   $0xffffffff,-0xa6c(%rbp,%rax,4)
   16100:	ff ff ff ff 
   16104:	83 85 a8 f3 ff ff 01 	addl   $0x1,-0xc58(%rbp)
   1610b:	83 bd a8 f3 ff ff 00 	cmpl   $0x0,-0xc58(%rbp)
   16112:	7e dd                	jle    160f1 <func_76+0x104a>
   16114:	83 bd 08 f4 ff ff 00 	cmpl   $0x0,-0xbf8(%rbp)
   1611b:	75 45                	jne    16162 <func_76+0x10bb>
   1611d:	8b 85 94 f5 ff ff    	mov    -0xa6c(%rbp),%eax
   16123:	83 e8 01             	sub    $0x1,%eax
   16126:	89 85 94 f5 ff ff    	mov    %eax,-0xa6c(%rbp)
   1612c:	8b 85 e4 f5 ff ff    	mov    -0xa1c(%rbp),%eax
   16132:	89 85 58 f6 ff ff    	mov    %eax,-0x9a8(%rbp)
   16138:	c7 05 5e 7f 00 00 97 	movl   $0xddfa2f97,0x7f5e(%rip)        # 1e0a0 <g_115>
   1613f:	2f fa dd 
   16142:	8b 05 74 7f 00 00    	mov    0x7f74(%rip),%eax        # 1e0bc <g_127>
   16148:	83 c0 01             	add    $0x1,%eax
   1614b:	89 05 6b 7f 00 00    	mov    %eax,0x7f6b(%rip)        # 1e0bc <g_127>
   16151:	8b 05 65 7f 00 00    	mov    0x7f65(%rip),%eax        # 1e0bc <g_127>
   16157:	83 f8 06             	cmp    $0x6,%eax
   1615a:	0f 86 bd fe ff ff    	jbe    1601d <func_76+0xf76>
   16160:	eb 01                	jmp    16163 <func_76+0x10bc>
   16162:	90                   	nop
   16163:	c7 05 63 7f 00 00 00 	movl   $0x0,0x7f63(%rip)        # 1e0d0 <g_216>
   1616a:	00 00 00 
   1616d:	90                   	nop
   1616e:	8b 05 5c 7f 00 00    	mov    0x7f5c(%rip),%eax        # 1e0d0 <g_216>
   16174:	83 f8 06             	cmp    $0x6,%eax
   16177:	0f 87 03 01 00 00    	ja     16280 <func_76+0x11d9>
   1617d:	48 8d 05 f4 d1 00 00 	lea    0xd1f4(%rip),%rax        # 23378 <g_359>
   16184:	48 89 85 50 f5 ff ff 	mov    %rax,-0xab0(%rbp)
   1618b:	c7 85 b4 f3 ff ff 00 	movl   $0x0,-0xc4c(%rbp)
   16192:	00 00 00 
   16195:	eb 22                	jmp    161b9 <func_76+0x1112>
   16197:	8b 85 b4 f3 ff ff    	mov    -0xc4c(%rbp),%eax
   1619d:	48 98                	cltq   
   1619f:	48 8d 95 a0 f5 ff ff 	lea    -0xa60(%rbp),%rdx
   161a6:	48 83 c2 0c          	add    $0xc,%rdx
   161aa:	48 89 94 c5 d0 f6 ff 	mov    %rdx,-0x930(%rbp,%rax,8)
   161b1:	ff 
   161b2:	83 85 b4 f3 ff ff 01 	addl   $0x1,-0xc4c(%rbp)
   161b9:	83 bd b4 f3 ff ff 04 	cmpl   $0x4,-0xc4c(%rbp)
   161c0:	7e d5                	jle    16197 <func_76+0x10f0>
   161c2:	8b 05 c8 7e 00 00    	mov    0x7ec8(%rip),%eax        # 1e090 <g_92>
   161c8:	25 ff ff ff 3f       	and    $0x3fffffff,%eax
   161cd:	85 c0                	test   %eax,%eax
   161cf:	0f 85 89 00 00 00    	jne    1625e <func_76+0x11b7>
   161d5:	c7 85 70 f6 ff ff 00 	movl   $0x0,-0x990(%rbp)
   161dc:	00 00 00 
   161df:	8b 85 dc f3 ff ff    	mov    -0xc24(%rbp),%eax
   161e5:	0f bf d8             	movswl %ax,%ebx
   161e8:	0f b6 05 ab 7e 00 00 	movzbl 0x7eab(%rip),%eax        # 1e09a <g_109>
   161ef:	0f be d0             	movsbl %al,%edx
   161f2:	48 8b 85 a0 fe ff ff 	mov    -0x160(%rbp),%rax
   161f9:	48 89 85 50 f5 ff ff 	mov    %rax,-0xab0(%rbp)
   16200:	48 8b 05 59 b8 00 00 	mov    0xb859(%rip),%rax        # 21a60 <g_228>
   16207:	48 39 85 50 f5 ff ff 	cmp    %rax,-0xab0(%rbp)
   1620e:	0f 95 c0             	setne  %al
   16211:	0f b6 c0             	movzbl %al,%eax
   16214:	89 d6                	mov    %edx,%esi
   16216:	89 c7                	mov    %eax,%edi
   16218:	e8 96 21 ff ff       	callq  83b3 <safe_add_func_int16_t_s_s>
   1621d:	98                   	cwtl   
   1621e:	89 de                	mov    %ebx,%esi
   16220:	89 c7                	mov    %eax,%edi
   16222:	e8 ac 21 ff ff       	callq  83d3 <safe_sub_func_int16_t_s_s>
   16227:	98                   	cwtl   
   16228:	89 85 a0 f5 ff ff    	mov    %eax,-0xa60(%rbp)
   1622e:	8b 85 a0 f5 ff ff    	mov    -0xa60(%rbp),%eax
   16234:	85 c0                	test   %eax,%eax
   16236:	74 07                	je     1623f <func_76+0x1198>
   16238:	b8 01 00 00 00       	mov    $0x1,%eax
   1623d:	eb 05                	jmp    16244 <func_76+0x119d>
   1623f:	b8 00 00 00 00       	mov    $0x0,%eax
   16244:	48 98                	cltq   
   16246:	48 39 85 48 f5 ff ff 	cmp    %rax,-0xab8(%rbp)
   1624d:	0f 94 c0             	sete   %al
   16250:	0f b6 d0             	movzbl %al,%edx
   16253:	48 8b 05 e6 b7 00 00 	mov    0xb7e6(%rip),%rax        # 21a40 <g_132>
   1625a:	8b 00                	mov    (%rax),%eax
   1625c:	39 c2                	cmp    %eax,%edx
   1625e:	8b 05 2c 7e 00 00    	mov    0x7e2c(%rip),%eax        # 1e090 <g_92>
   16264:	25 00 00 00 c0       	and    $0xc0000000,%eax
   16269:	0d 73 ff f7 19       	or     $0x19f7ff73,%eax
   1626e:	89 05 1c 7e 00 00    	mov    %eax,0x7e1c(%rip)        # 1e090 <g_92>
   16274:	48 8b 85 40 f5 ff ff 	mov    -0xac0(%rbp),%rax
   1627b:	e9 84 0d 00 00       	jmpq   17004 <func_76+0x1f5d>
   16280:	8b 85 90 f3 ff ff    	mov    -0xc70(%rbp),%eax
   16286:	83 e8 01             	sub    $0x1,%eax
   16289:	89 85 90 f3 ff ff    	mov    %eax,-0xc70(%rbp)
   1628f:	8b 85 90 f3 ff ff    	mov    -0xc70(%rbp),%eax
   16295:	85 c0                	test   %eax,%eax
   16297:	0f 8f 31 fc ff ff    	jg     15ece <func_76+0xe27>
   1629d:	8b 05 35 7e 00 00    	mov    0x7e35(%rip),%eax        # 1e0d8 <g_221>
   162a3:	83 c0 01             	add    $0x1,%eax
   162a6:	89 05 2c 7e 00 00    	mov    %eax,0x7e2c(%rip)        # 1e0d8 <g_221>
   162ac:	8b 05 26 7e 00 00    	mov    0x7e26(%rip),%eax        # 1e0d8 <g_221>
   162b2:	83 f8 16             	cmp    $0x16,%eax
   162b5:	0f 84 4a fb ff ff    	je     15e05 <func_76+0xd5e>
   162bb:	e9 29 0d 00 00       	jmpq   16fe9 <func_76+0x1f42>
   162c0:	48 8d 85 94 f3 ff ff 	lea    -0xc6c(%rbp),%rax
   162c7:	48 89 85 a0 f4 ff ff 	mov    %rax,-0xb60(%rbp)
   162ce:	48 8d 05 c5 7d 00 00 	lea    0x7dc5(%rip),%rax        # 1e09a <g_109>
   162d5:	48 89 85 a8 f4 ff ff 	mov    %rax,-0xb58(%rbp)
   162dc:	48 8d 85 60 f6 ff ff 	lea    -0x9a0(%rbp),%rax
   162e3:	48 83 c0 28          	add    $0x28,%rax
   162e7:	48 89 85 48 f4 ff ff 	mov    %rax,-0xbb8(%rbp)
   162ee:	48 8d 85 48 f4 ff ff 	lea    -0xbb8(%rbp),%rax
   162f5:	48 89 85 b0 f4 ff ff 	mov    %rax,-0xb50(%rbp)
   162fc:	48 8d 05 7d 7e 00 00 	lea    0x7e7d(%rip),%rax        # 1e180 <g_401>
   16303:	48 89 85 b8 f4 ff ff 	mov    %rax,-0xb48(%rbp)
   1630a:	c7 85 e4 f3 ff ff 19 	movl   $0x4ad08619,-0xc1c(%rbp)
   16311:	86 d0 4a 
   16314:	48 8d 85 98 f3 ff ff 	lea    -0xc68(%rbp),%rax
   1631b:	48 89 85 c0 f4 ff ff 	mov    %rax,-0xb40(%rbp)
   16322:	48 8d 85 90 f3 ff ff 	lea    -0xc70(%rbp),%rax
   16329:	48 89 85 c8 f4 ff ff 	mov    %rax,-0xb38(%rbp)
   16330:	c7 85 e8 f3 ff ff 9b 	movl   $0xcc4d1d9b,-0xc18(%rbp)
   16337:	1d 4d cc 
   1633a:	48 b8 9b 9d f6 17 f5 	movabs $0x477d9df517f69d9b,%rax
   16341:	9d 7d 47 
   16344:	48 89 85 d0 f4 ff ff 	mov    %rax,-0xb30(%rbp)
   1634b:	c7 85 b8 f3 ff ff 00 	movl   $0x0,-0xc48(%rbp)
   16352:	00 00 00 
   16355:	eb 50                	jmp    163a7 <func_76+0x1300>
   16357:	c7 85 bc f3 ff ff 00 	movl   $0x0,-0xc44(%rbp)
   1635e:	00 00 00 
   16361:	eb 34                	jmp    16397 <func_76+0x12f0>
   16363:	8b 85 bc f3 ff ff    	mov    -0xc44(%rbp),%eax
   16369:	48 63 c8             	movslq %eax,%rcx
   1636c:	8b 85 b8 f3 ff ff    	mov    -0xc48(%rbp),%eax
   16372:	48 63 d0             	movslq %eax,%rdx
   16375:	48 89 d0             	mov    %rdx,%rax
   16378:	48 01 c0             	add    %rax,%rax
   1637b:	48 01 d0             	add    %rdx,%rax
   1637e:	48 01 c0             	add    %rax,%rax
   16381:	48 01 c8             	add    %rcx,%rax
   16384:	48 c7 84 c5 60 f6 ff 	movq   $0x0,-0x9a0(%rbp,%rax,8)
   1638b:	ff 00 00 00 00 
   16390:	83 85 bc f3 ff ff 01 	addl   $0x1,-0xc44(%rbp)
   16397:	83 bd bc f3 ff ff 05 	cmpl   $0x5,-0xc44(%rbp)
   1639e:	7e c3                	jle    16363 <func_76+0x12bc>
   163a0:	83 85 b8 f3 ff ff 01 	addl   $0x1,-0xc48(%rbp)
   163a7:	83 bd b8 f3 ff ff 00 	cmpl   $0x0,-0xc48(%rbp)
   163ae:	7e a7                	jle    16357 <func_76+0x12b0>
   163b0:	c7 85 b8 f3 ff ff 00 	movl   $0x0,-0xc48(%rbp)
   163b7:	00 00 00 
   163ba:	eb 1e                	jmp    163da <func_76+0x1333>
   163bc:	8b 85 b8 f3 ff ff    	mov    -0xc48(%rbp),%eax
   163c2:	48 98                	cltq   
   163c4:	48 8d 15 d5 7c 00 00 	lea    0x7cd5(%rip),%rdx        # 1e0a0 <g_115>
   163cb:	48 89 94 c5 d0 f6 ff 	mov    %rdx,-0x930(%rbp,%rax,8)
   163d2:	ff 
   163d3:	83 85 b8 f3 ff ff 01 	addl   $0x1,-0xc48(%rbp)
   163da:	83 bd b8 f3 ff ff 05 	cmpl   $0x5,-0xc48(%rbp)
   163e1:	7e d9                	jle    163bc <func_76+0x1315>
   163e3:	48 8b 85 a0 f4 ff ff 	mov    -0xb60(%rbp),%rax
   163ea:	c7 00 00 00 00 00    	movl   $0x0,(%rax)
   163f0:	48 8b 85 a0 f4 ff ff 	mov    -0xb60(%rbp),%rax
   163f7:	c7 00 26 6c 88 4a    	movl   $0x4a886c26,(%rax)
   163fd:	c6 05 b4 7c 00 00 00 	movb   $0x0,0x7cb4(%rip)        # 1e0b8 <g_124>
   16404:	e9 c2 0b 00 00       	jmpq   16fcb <func_76+0x1f24>
   16409:	48 c7 85 d8 f4 ff ff 	movq   $0x0,-0xb28(%rbp)
   16410:	00 00 00 00 
   16414:	48 8d 05 b5 7c 00 00 	lea    0x7cb5(%rip),%rax        # 1e0d0 <g_216>
   1641b:	48 89 85 e0 f4 ff ff 	mov    %rax,-0xb20(%rbp)
   16422:	48 c7 85 e8 f4 ff ff 	movq   $0x0,-0xb18(%rbp)
   16429:	00 00 00 00 
   1642d:	48 8d 85 38 f4 ff ff 	lea    -0xbc8(%rbp),%rax
   16434:	48 89 85 f0 f4 ff ff 	mov    %rax,-0xb10(%rbp)
   1643b:	c6 85 8d f3 ff ff 04 	movb   $0x4,-0xc73(%rbp)
   16442:	c7 85 ec f3 ff ff 19 	movl   $0xfe222a19,-0xc14(%rbp)
   16449:	2a 22 fe 
   1644c:	48 c7 85 50 f4 ff ff 	movq   $0xfffffffffffffffc,-0xbb0(%rbp)
   16453:	fc ff ff ff 
   16457:	48 8d 05 02 7d 00 00 	lea    0x7d02(%rip),%rax        # 1e160 <g_398+0x20>
   1645e:	48 89 85 58 f4 ff ff 	mov    %rax,-0xba8(%rbp)
   16465:	c7 85 f0 f3 ff ff 6b 	movl   $0x863aa56b,-0xc10(%rbp)
   1646c:	a5 3a 86 
   1646f:	48 8b 85 a0 f4 ff ff 	mov    -0xb60(%rbp),%rax
   16476:	8b 10                	mov    (%rax),%edx
   16478:	48 83 bd a8 f4 ff ff 	cmpq   $0x0,-0xb58(%rbp)
   1647f:	00 
   16480:	0f 95 c0             	setne  %al
   16483:	0f b6 c0             	movzbl %al,%eax
   16486:	31 c2                	xor    %eax,%edx
   16488:	48 8b 85 a0 f4 ff ff 	mov    -0xb60(%rbp),%rax
   1648f:	89 10                	mov    %edx,(%rax)
   16491:	48 83 bd b0 f4 ff ff 	cmpq   $0x0,-0xb50(%rbp)
   16498:	00 
   16499:	0f 85 97 01 00 00    	jne    16636 <func_76+0x158f>
   1649f:	48 8b 85 a0 f4 ff ff 	mov    -0xb60(%rbp),%rax
   164a6:	8b 18                	mov    (%rax),%ebx
   164a8:	8b 05 e2 7b 00 00    	mov    0x7be2(%rip),%eax        # 1e090 <g_92>
   164ae:	c1 e0 02             	shl    $0x2,%eax
   164b1:	c1 f8 02             	sar    $0x2,%eax
   164b4:	89 c7                	mov    %eax,%edi
   164b6:	48 8b 35 c3 ce 00 00 	mov    0xcec3(%rip),%rsi        # 23380 <g_362>
   164bd:	48 8b 85 e0 f4 ff ff 	mov    -0xb20(%rbp),%rax
   164c4:	8b 00                	mov    (%rax),%eax
   164c6:	8d 48 01             	lea    0x1(%rax),%ecx
   164c9:	48 8b 95 e0 f4 ff ff 	mov    -0xb20(%rbp),%rdx
   164d0:	89 0a                	mov    %ecx,(%rdx)
   164d2:	3d 59 7f b4 7d       	cmp    $0x7db47f59,%eax
   164d7:	0f 96 c0             	setbe  %al
   164da:	0f b6 c0             	movzbl %al,%eax
   164dd:	48 39 c6             	cmp    %rax,%rsi
   164e0:	0f 94 c0             	sete   %al
   164e3:	0f b6 c0             	movzbl %al,%eax
   164e6:	39 c7                	cmp    %eax,%edi
   164e8:	75 6b                	jne    16555 <func_76+0x14ae>
   164ea:	0f b6 05 a9 7b 00 00 	movzbl 0x7ba9(%rip),%eax        # 1e09a <g_109>
   164f1:	44 0f b6 e0          	movzbl %al,%r12d
   164f5:	0f b6 05 45 7b 00 00 	movzbl 0x7b45(%rip),%eax        # 1e041 <g_5+0x1>
   164fc:	3c 4c                	cmp    $0x4c,%al
   164fe:	0f 94 c0             	sete   %al
   16501:	0f b6 d0             	movzbl %al,%edx
   16504:	48 8b 85 f0 f4 ff ff 	mov    -0xb10(%rbp),%rax
   1650b:	48 89 10             	mov    %rdx,(%rax)
   1650e:	48 8b 85 f0 f4 ff ff 	mov    -0xb10(%rbp),%rax
   16515:	48 8b 10             	mov    (%rax),%rdx
   16518:	0f b6 85 8d f3 ff ff 	movzbl -0xc73(%rbp),%eax
   1651f:	48 39 c2             	cmp    %rax,%rdx
   16522:	0f 9c c0             	setl   %al
   16525:	0f b6 c0             	movzbl %al,%eax
   16528:	be 65 b7 ff ff       	mov    $0xffffb765,%esi
   1652d:	89 c7                	mov    %eax,%edi
   1652f:	e8 7f 1e ff ff       	callq  83b3 <safe_add_func_int16_t_s_s>
   16534:	0f b6 c0             	movzbl %al,%eax
   16537:	44 89 e6             	mov    %r12d,%esi
   1653a:	89 c7                	mov    %eax,%edi
   1653c:	e8 37 26 ff ff       	callq  8b78 <safe_sub_func_uint8_t_u_u>
   16541:	0f b6 c0             	movzbl %al,%eax
   16544:	be 03 00 00 00       	mov    $0x3,%esi
   16549:	89 c7                	mov    %eax,%edi
   1654b:	e8 b6 28 ff ff       	callq  8e06 <safe_lshift_func_uint16_t_u_u>
   16550:	66 85 c0             	test   %ax,%ax
   16553:	74 07                	je     1655c <func_76+0x14b5>
   16555:	ba 01 00 00 00       	mov    $0x1,%edx
   1655a:	eb 05                	jmp    16561 <func_76+0x14ba>
   1655c:	ba 00 00 00 00       	mov    $0x0,%edx
   16561:	8b 05 21 7b 00 00    	mov    0x7b21(%rip),%eax        # 1e088 <g_90>
   16567:	09 c2                	or     %eax,%edx
   16569:	8b 05 31 7b 00 00    	mov    0x7b31(%rip),%eax        # 1e0a0 <g_115>
   1656f:	09 d0                	or     %edx,%eax
   16571:	89 85 ec f3 ff ff    	mov    %eax,-0xc14(%rbp)
   16577:	48 8b 05 e2 b4 00 00 	mov    0xb4e2(%rip),%rax        # 21a60 <g_228>
   1657e:	48 39 85 d8 f4 ff ff 	cmp    %rax,-0xb28(%rbp)
   16585:	0f 94 c0             	sete   %al
   16588:	0f b6 d0             	movzbl %al,%edx
   1658b:	0f b6 05 26 7b 00 00 	movzbl 0x7b26(%rip),%eax        # 1e0b8 <g_124>
   16592:	0f b6 c0             	movzbl %al,%eax
   16595:	39 c2                	cmp    %eax,%edx
   16597:	0f 95 c0             	setne  %al
   1659a:	44 0f b6 e0          	movzbl %al,%r12d
   1659e:	0f b6 05 13 7b 00 00 	movzbl 0x7b13(%rip),%eax        # 1e0b8 <g_124>
   165a5:	0f b6 c0             	movzbl %al,%eax
   165a8:	48 98                	cltq   
   165aa:	8b 84 85 98 f5 ff ff 	mov    -0xa68(%rbp,%rax,4),%eax
   165b1:	0f b6 c0             	movzbl %al,%eax
   165b4:	be 01 00 00 00       	mov    $0x1,%esi
   165b9:	89 c7                	mov    %eax,%edi
   165bb:	e8 cd 26 ff ff       	callq  8c8d <safe_rshift_func_uint8_t_u_s>
   165c0:	0f b6 c0             	movzbl %al,%eax
   165c3:	0f b6 15 ee 7a 00 00 	movzbl 0x7aee(%rip),%edx        # 1e0b8 <g_124>
   165ca:	0f b6 d2             	movzbl %dl,%edx
   165cd:	48 63 d2             	movslq %edx,%rdx
   165d0:	8b 94 95 98 f5 ff ff 	mov    -0xa68(%rbp,%rdx,4),%edx
   165d7:	89 c6                	mov    %eax,%esi
   165d9:	89 d7                	mov    %edx,%edi
   165db:	e8 d8 28 ff ff       	callq  8eb8 <safe_add_func_uint32_t_u_u>
   165e0:	44 89 e6             	mov    %r12d,%esi
   165e3:	89 c7                	mov    %eax,%edi
   165e5:	e8 ce 28 ff ff       	callq  8eb8 <safe_add_func_uint32_t_u_u>
   165ea:	0f b6 05 c7 7a 00 00 	movzbl 0x7ac7(%rip),%eax        # 1e0b8 <g_124>
   165f1:	0f b6 c0             	movzbl %al,%eax
   165f4:	48 98                	cltq   
   165f6:	8b 84 85 98 f5 ff ff 	mov    -0xa68(%rbp,%rax,4),%eax
   165fd:	85 c0                	test   %eax,%eax
   165ff:	0f 9f c0             	setg   %al
   16602:	0f b6 c0             	movzbl %al,%eax
   16605:	89 de                	mov    %ebx,%esi
   16607:	89 c7                	mov    %eax,%edi
   16609:	e8 b0 27 ff ff       	callq  8dbe <safe_lshift_func_uint16_t_u_s>
   1660e:	0f b7 d0             	movzwl %ax,%edx
   16611:	0f b7 05 80 7a 00 00 	movzwl 0x7a80(%rip),%eax        # 1e098 <g_106>
   16618:	98                   	cwtl   
   16619:	39 c2                	cmp    %eax,%edx
   1661b:	0f 9d c0             	setge  %al
   1661e:	88 05 04 7b 00 00    	mov    %al,0x7b04(%rip)        # 1e128 <g_390>
   16624:	0f b6 05 fd 7a 00 00 	movzbl 0x7afd(%rip),%eax        # 1e128 <g_390>
   1662b:	84 c0                	test   %al,%al
   1662d:	74 07                	je     16636 <func_76+0x158f>
   1662f:	ba 01 00 00 00       	mov    $0x1,%edx
   16634:	eb 05                	jmp    1663b <func_76+0x1594>
   16636:	ba 00 00 00 00       	mov    $0x0,%edx
   1663b:	8b 85 9c f5 ff ff    	mov    -0xa64(%rbp),%eax
   16641:	39 c2                	cmp    %eax,%edx
   16643:	0f 9f c0             	setg   %al
   16646:	0f b6 d0             	movzbl %al,%edx
   16649:	8b 05 91 7a 00 00    	mov    0x7a91(%rip),%eax        # 1e0e0 <g_225>
   1664f:	31 d0                	xor    %edx,%eax
   16651:	89 05 89 7a 00 00    	mov    %eax,0x7a89(%rip)        # 1e0e0 <g_225>
   16657:	48 8b 05 e2 b3 00 00 	mov    0xb3e2(%rip),%rax        # 21a40 <g_132>
   1665e:	8b 00                	mov    (%rax),%eax
   16660:	85 c0                	test   %eax,%eax
   16662:	0f 85 52 09 00 00    	jne    16fba <func_76+0x1f13>
   16668:	c7 85 98 f3 ff ff 00 	movl   $0x0,-0xc68(%rbp)
   1666f:	00 00 00 
   16672:	e9 32 09 00 00       	jmpq   16fa9 <func_76+0x1f02>
   16677:	48 8d 85 30 f4 ff ff 	lea    -0xbd0(%rbp),%rax
   1667e:	48 89 85 30 f8 ff ff 	mov    %rax,-0x7d0(%rbp)
   16685:	48 c7 85 38 f8 ff ff 	movq   $0x0,-0x7c8(%rbp)
   1668c:	00 00 00 00 
   16690:	48 8d 85 30 f4 ff ff 	lea    -0xbd0(%rbp),%rax
   16697:	48 89 85 40 f8 ff ff 	mov    %rax,-0x7c0(%rbp)
   1669e:	48 8d 85 30 f4 ff ff 	lea    -0xbd0(%rbp),%rax
   166a5:	48 89 85 48 f8 ff ff 	mov    %rax,-0x7b8(%rbp)
   166ac:	48 8d 85 30 f4 ff ff 	lea    -0xbd0(%rbp),%rax
   166b3:	48 89 85 50 f8 ff ff 	mov    %rax,-0x7b0(%rbp)
   166ba:	48 8d 85 30 f4 ff ff 	lea    -0xbd0(%rbp),%rax
   166c1:	48 89 85 58 f8 ff ff 	mov    %rax,-0x7a8(%rbp)
   166c8:	48 8d 85 30 f4 ff ff 	lea    -0xbd0(%rbp),%rax
   166cf:	48 89 85 60 f8 ff ff 	mov    %rax,-0x7a0(%rbp)
   166d6:	48 c7 85 68 f8 ff ff 	movq   $0x0,-0x798(%rbp)
   166dd:	00 00 00 00 
   166e1:	48 c7 85 70 f8 ff ff 	movq   $0x0,-0x790(%rbp)
   166e8:	00 00 00 00 
   166ec:	48 8d 85 58 f4 ff ff 	lea    -0xba8(%rbp),%rax
   166f3:	48 89 85 78 f8 ff ff 	mov    %rax,-0x788(%rbp)
   166fa:	48 8d 05 47 b3 00 00 	lea    0xb347(%rip),%rax        # 21a48 <g_197>
   16701:	48 89 85 80 f8 ff ff 	mov    %rax,-0x780(%rbp)
   16708:	48 8d 85 58 f4 ff ff 	lea    -0xba8(%rbp),%rax
   1670f:	48 89 85 88 f8 ff ff 	mov    %rax,-0x778(%rbp)
   16716:	48 8d 85 30 f4 ff ff 	lea    -0xbd0(%rbp),%rax
   1671d:	48 89 85 90 f8 ff ff 	mov    %rax,-0x770(%rbp)
   16724:	48 8d 05 1d b3 00 00 	lea    0xb31d(%rip),%rax        # 21a48 <g_197>
   1672b:	48 89 85 98 f8 ff ff 	mov    %rax,-0x768(%rbp)
   16732:	48 c7 85 a0 f8 ff ff 	movq   $0x0,-0x760(%rbp)
   16739:	00 00 00 00 
   1673d:	48 8d 85 30 f4 ff ff 	lea    -0xbd0(%rbp),%rax
   16744:	48 89 85 a8 f8 ff ff 	mov    %rax,-0x758(%rbp)
   1674b:	48 c7 85 b0 f8 ff ff 	movq   $0x0,-0x750(%rbp)
   16752:	00 00 00 00 
   16756:	48 c7 85 b8 f8 ff ff 	movq   $0x0,-0x748(%rbp)
   1675d:	00 00 00 00 
   16761:	48 c7 85 c0 f8 ff ff 	movq   $0x0,-0x740(%rbp)
   16768:	00 00 00 00 
   1676c:	48 c7 85 c8 f8 ff ff 	movq   $0x0,-0x738(%rbp)
   16773:	00 00 00 00 
   16777:	48 c7 85 d0 f8 ff ff 	movq   $0x0,-0x730(%rbp)
   1677e:	00 00 00 00 
   16782:	48 8d 85 30 f4 ff ff 	lea    -0xbd0(%rbp),%rax
   16789:	48 89 85 d8 f8 ff ff 	mov    %rax,-0x728(%rbp)
   16790:	48 c7 85 e0 f8 ff ff 	movq   $0x0,-0x720(%rbp)
   16797:	00 00 00 00 
   1679b:	48 c7 85 e8 f8 ff ff 	movq   $0x0,-0x718(%rbp)
   167a2:	00 00 00 00 
   167a6:	48 8d 85 30 f4 ff ff 	lea    -0xbd0(%rbp),%rax
   167ad:	48 89 85 f0 f8 ff ff 	mov    %rax,-0x710(%rbp)
   167b4:	48 c7 85 f8 f8 ff ff 	movq   $0x0,-0x708(%rbp)
   167bb:	00 00 00 00 
   167bf:	48 8d 05 82 b2 00 00 	lea    0xb282(%rip),%rax        # 21a48 <g_197>
   167c6:	48 89 85 00 f9 ff ff 	mov    %rax,-0x700(%rbp)
   167cd:	48 8d 05 74 b2 00 00 	lea    0xb274(%rip),%rax        # 21a48 <g_197>
   167d4:	48 89 85 08 f9 ff ff 	mov    %rax,-0x6f8(%rbp)
   167db:	48 c7 85 10 f9 ff ff 	movq   $0x0,-0x6f0(%rbp)
   167e2:	00 00 00 00 
   167e6:	48 8d 85 30 f4 ff ff 	lea    -0xbd0(%rbp),%rax
   167ed:	48 89 85 18 f9 ff ff 	mov    %rax,-0x6e8(%rbp)
   167f4:	48 8d 85 30 f4 ff ff 	lea    -0xbd0(%rbp),%rax
   167fb:	48 89 85 20 f9 ff ff 	mov    %rax,-0x6e0(%rbp)
   16802:	48 c7 85 28 f9 ff ff 	movq   $0x0,-0x6d8(%rbp)
   16809:	00 00 00 00 
   1680d:	48 c7 85 30 f9 ff ff 	movq   $0x0,-0x6d0(%rbp)
   16814:	00 00 00 00 
   16818:	48 8d 85 30 f4 ff ff 	lea    -0xbd0(%rbp),%rax
   1681f:	48 89 85 38 f9 ff ff 	mov    %rax,-0x6c8(%rbp)
   16826:	48 8d 85 30 f4 ff ff 	lea    -0xbd0(%rbp),%rax
   1682d:	48 89 85 40 f9 ff ff 	mov    %rax,-0x6c0(%rbp)
   16834:	48 c7 85 48 f9 ff ff 	movq   $0x0,-0x6b8(%rbp)
   1683b:	00 00 00 00 
   1683f:	48 8d 85 30 f4 ff ff 	lea    -0xbd0(%rbp),%rax
   16846:	48 89 85 50 f9 ff ff 	mov    %rax,-0x6b0(%rbp)
   1684d:	48 8d 05 f4 b1 00 00 	lea    0xb1f4(%rip),%rax        # 21a48 <g_197>
   16854:	48 89 85 58 f9 ff ff 	mov    %rax,-0x6a8(%rbp)
   1685b:	48 8d 85 58 f4 ff ff 	lea    -0xba8(%rbp),%rax
   16862:	48 89 85 60 f9 ff ff 	mov    %rax,-0x6a0(%rbp)
   16869:	48 8d 85 30 f4 ff ff 	lea    -0xbd0(%rbp),%rax
   16870:	48 89 85 68 f9 ff ff 	mov    %rax,-0x698(%rbp)
   16877:	48 c7 85 70 f9 ff ff 	movq   $0x0,-0x690(%rbp)
   1687e:	00 00 00 00 
   16882:	48 c7 85 78 f9 ff ff 	movq   $0x0,-0x688(%rbp)
   16889:	00 00 00 00 
   1688d:	48 c7 85 80 f9 ff ff 	movq   $0x0,-0x680(%rbp)
   16894:	00 00 00 00 
   16898:	48 c7 85 88 f9 ff ff 	movq   $0x0,-0x678(%rbp)
   1689f:	00 00 00 00 
   168a3:	48 c7 85 90 f9 ff ff 	movq   $0x0,-0x670(%rbp)
   168aa:	00 00 00 00 
   168ae:	48 8d 05 93 b1 00 00 	lea    0xb193(%rip),%rax        # 21a48 <g_197>
   168b5:	48 89 85 98 f9 ff ff 	mov    %rax,-0x668(%rbp)
   168bc:	48 c7 85 a0 f9 ff ff 	movq   $0x0,-0x660(%rbp)
   168c3:	00 00 00 00 
   168c7:	48 c7 85 a8 f9 ff ff 	movq   $0x0,-0x658(%rbp)
   168ce:	00 00 00 00 
   168d2:	48 8d 85 58 f4 ff ff 	lea    -0xba8(%rbp),%rax
   168d9:	48 89 85 b0 f9 ff ff 	mov    %rax,-0x650(%rbp)
   168e0:	48 c7 85 b8 f9 ff ff 	movq   $0x0,-0x648(%rbp)
   168e7:	00 00 00 00 
   168eb:	48 8d 85 58 f4 ff ff 	lea    -0xba8(%rbp),%rax
   168f2:	48 89 85 c0 f9 ff ff 	mov    %rax,-0x640(%rbp)
   168f9:	48 8d 05 48 b1 00 00 	lea    0xb148(%rip),%rax        # 21a48 <g_197>
   16900:	48 89 85 c8 f9 ff ff 	mov    %rax,-0x638(%rbp)
   16907:	48 8d 85 58 f4 ff ff 	lea    -0xba8(%rbp),%rax
   1690e:	48 89 85 d0 f9 ff ff 	mov    %rax,-0x630(%rbp)
   16915:	48 8d 85 30 f4 ff ff 	lea    -0xbd0(%rbp),%rax
   1691c:	48 89 85 d8 f9 ff ff 	mov    %rax,-0x628(%rbp)
   16923:	48 8d 05 1e b1 00 00 	lea    0xb11e(%rip),%rax        # 21a48 <g_197>
   1692a:	48 89 85 e0 f9 ff ff 	mov    %rax,-0x620(%rbp)
   16931:	48 c7 85 e8 f9 ff ff 	movq   $0x0,-0x618(%rbp)
   16938:	00 00 00 00 
   1693c:	48 c7 85 f0 f9 ff ff 	movq   $0x0,-0x610(%rbp)
   16943:	00 00 00 00 
   16947:	48 8d 85 30 f4 ff ff 	lea    -0xbd0(%rbp),%rax
   1694e:	48 89 85 f8 f9 ff ff 	mov    %rax,-0x608(%rbp)
   16955:	48 8d 85 30 f4 ff ff 	lea    -0xbd0(%rbp),%rax
   1695c:	48 89 85 00 fa ff ff 	mov    %rax,-0x600(%rbp)
   16963:	48 c7 85 08 fa ff ff 	movq   $0x0,-0x5f8(%rbp)
   1696a:	00 00 00 00 
   1696e:	48 8d 85 30 f4 ff ff 	lea    -0xbd0(%rbp),%rax
   16975:	48 89 85 10 fa ff ff 	mov    %rax,-0x5f0(%rbp)
   1697c:	48 8d 85 30 f4 ff ff 	lea    -0xbd0(%rbp),%rax
   16983:	48 89 85 18 fa ff ff 	mov    %rax,-0x5e8(%rbp)
   1698a:	48 8d 85 58 f4 ff ff 	lea    -0xba8(%rbp),%rax
   16991:	48 89 85 20 fa ff ff 	mov    %rax,-0x5e0(%rbp)
   16998:	48 8d 85 30 f4 ff ff 	lea    -0xbd0(%rbp),%rax
   1699f:	48 89 85 28 fa ff ff 	mov    %rax,-0x5d8(%rbp)
   169a6:	48 c7 85 30 fa ff ff 	movq   $0x0,-0x5d0(%rbp)
   169ad:	00 00 00 00 
   169b1:	48 c7 85 38 fa ff ff 	movq   $0x0,-0x5c8(%rbp)
   169b8:	00 00 00 00 
   169bc:	48 8d 85 30 f4 ff ff 	lea    -0xbd0(%rbp),%rax
   169c3:	48 89 85 40 fa ff ff 	mov    %rax,-0x5c0(%rbp)
   169ca:	48 8d 85 58 f4 ff ff 	lea    -0xba8(%rbp),%rax
   169d1:	48 89 85 48 fa ff ff 	mov    %rax,-0x5b8(%rbp)
   169d8:	48 8d 85 58 f4 ff ff 	lea    -0xba8(%rbp),%rax
   169df:	48 89 85 50 fa ff ff 	mov    %rax,-0x5b0(%rbp)
   169e6:	48 8d 85 30 f4 ff ff 	lea    -0xbd0(%rbp),%rax
   169ed:	48 89 85 58 fa ff ff 	mov    %rax,-0x5a8(%rbp)
   169f4:	48 c7 85 60 fa ff ff 	movq   $0x0,-0x5a0(%rbp)
   169fb:	00 00 00 00 
   169ff:	48 c7 85 68 fa ff ff 	movq   $0x0,-0x598(%rbp)
   16a06:	00 00 00 00 
   16a0a:	48 8d 85 58 f4 ff ff 	lea    -0xba8(%rbp),%rax
   16a11:	48 89 85 70 fa ff ff 	mov    %rax,-0x590(%rbp)
   16a18:	48 c7 85 78 fa ff ff 	movq   $0x0,-0x588(%rbp)
   16a1f:	00 00 00 00 
   16a23:	48 8d 85 30 f4 ff ff 	lea    -0xbd0(%rbp),%rax
   16a2a:	48 89 85 80 fa ff ff 	mov    %rax,-0x580(%rbp)
   16a31:	48 8d 85 30 f4 ff ff 	lea    -0xbd0(%rbp),%rax
   16a38:	48 89 85 88 fa ff ff 	mov    %rax,-0x578(%rbp)
   16a3f:	48 c7 85 90 fa ff ff 	movq   $0x0,-0x570(%rbp)
   16a46:	00 00 00 00 
   16a4a:	48 8d 85 30 f4 ff ff 	lea    -0xbd0(%rbp),%rax
   16a51:	48 89 85 98 fa ff ff 	mov    %rax,-0x568(%rbp)
   16a58:	48 8d 85 58 f4 ff ff 	lea    -0xba8(%rbp),%rax
   16a5f:	48 89 85 a0 fa ff ff 	mov    %rax,-0x560(%rbp)
   16a66:	48 8d 85 30 f4 ff ff 	lea    -0xbd0(%rbp),%rax
   16a6d:	48 89 85 a8 fa ff ff 	mov    %rax,-0x558(%rbp)
   16a74:	48 8d 85 58 f4 ff ff 	lea    -0xba8(%rbp),%rax
   16a7b:	48 89 85 b0 fa ff ff 	mov    %rax,-0x550(%rbp)
   16a82:	48 8d 85 30 f4 ff ff 	lea    -0xbd0(%rbp),%rax
   16a89:	48 89 85 b8 fa ff ff 	mov    %rax,-0x548(%rbp)
   16a90:	48 8d 05 b1 af 00 00 	lea    0xafb1(%rip),%rax        # 21a48 <g_197>
   16a97:	48 89 85 c0 fa ff ff 	mov    %rax,-0x540(%rbp)
   16a9e:	48 8d 85 30 f4 ff ff 	lea    -0xbd0(%rbp),%rax
   16aa5:	48 89 85 c8 fa ff ff 	mov    %rax,-0x538(%rbp)
   16aac:	48 8d 85 30 f4 ff ff 	lea    -0xbd0(%rbp),%rax
   16ab3:	48 89 85 d0 fa ff ff 	mov    %rax,-0x530(%rbp)
   16aba:	48 c7 85 d8 fa ff ff 	movq   $0x0,-0x528(%rbp)
   16ac1:	00 00 00 00 
   16ac5:	48 8d 85 30 f4 ff ff 	lea    -0xbd0(%rbp),%rax
   16acc:	48 89 85 e0 fa ff ff 	mov    %rax,-0x520(%rbp)
   16ad3:	48 c7 85 e8 fa ff ff 	movq   $0x0,-0x518(%rbp)
   16ada:	00 00 00 00 
   16ade:	48 8d 05 63 af 00 00 	lea    0xaf63(%rip),%rax        # 21a48 <g_197>
   16ae5:	48 89 85 f0 fa ff ff 	mov    %rax,-0x510(%rbp)
   16aec:	48 8d 85 58 f4 ff ff 	lea    -0xba8(%rbp),%rax
   16af3:	48 89 85 f8 fa ff ff 	mov    %rax,-0x508(%rbp)
   16afa:	48 c7 85 00 fb ff ff 	movq   $0x0,-0x500(%rbp)
   16b01:	00 00 00 00 
   16b05:	48 8d 85 58 f4 ff ff 	lea    -0xba8(%rbp),%rax
   16b0c:	48 89 85 08 fb ff ff 	mov    %rax,-0x4f8(%rbp)
   16b13:	48 8d 05 2e af 00 00 	lea    0xaf2e(%rip),%rax        # 21a48 <g_197>
   16b1a:	48 89 85 10 fb ff ff 	mov    %rax,-0x4f0(%rbp)
   16b21:	48 8d 85 58 f4 ff ff 	lea    -0xba8(%rbp),%rax
   16b28:	48 89 85 18 fb ff ff 	mov    %rax,-0x4e8(%rbp)
   16b2f:	48 8d 85 30 f4 ff ff 	lea    -0xbd0(%rbp),%rax
   16b36:	48 89 85 20 fb ff ff 	mov    %rax,-0x4e0(%rbp)
   16b3d:	48 8d 05 04 af 00 00 	lea    0xaf04(%rip),%rax        # 21a48 <g_197>
   16b44:	48 89 85 28 fb ff ff 	mov    %rax,-0x4d8(%rbp)
   16b4b:	c7 85 f4 f3 ff ff 03 	movl   $0x8fa73403,-0xc0c(%rbp)
   16b52:	34 a7 8f 
   16b55:	c7 85 f8 f3 ff ff ee 	movl   $0x2fa366ee,-0xc08(%rbp)
   16b5c:	66 a3 2f 
   16b5f:	c7 85 fc f3 ff ff 21 	movl   $0x2d0ab421,-0xc04(%rbp)
   16b66:	b4 0a 2d 
   16b69:	48 8b 85 58 f4 ff ff 	mov    -0xba8(%rbp),%rax
   16b70:	48 89 05 d1 ae 00 00 	mov    %rax,0xaed1(%rip)        # 21a48 <g_197>
   16b77:	48 8b 05 ca ae 00 00 	mov    0xaeca(%rip),%rax        # 21a48 <g_197>
   16b7e:	48 89 85 b8 f4 ff ff 	mov    %rax,-0xb48(%rbp)
   16b85:	48 8b 85 28 f6 ff ff 	mov    -0x9d8(%rbp),%rax
   16b8c:	48 39 85 b8 f4 ff ff 	cmp    %rax,-0xb48(%rbp)
   16b93:	75 13                	jne    16ba8 <func_76+0x1b01>
   16b95:	48 8b 05 e4 c7 00 00 	mov    0xc7e4(%rip),%rax        # 23380 <g_362>
   16b9c:	48 85 c0             	test   %rax,%rax
   16b9f:	74 07                	je     16ba8 <func_76+0x1b01>
   16ba1:	b8 01 00 00 00       	mov    $0x1,%eax
   16ba6:	eb 05                	jmp    16bad <func_76+0x1b06>
   16ba8:	b8 00 00 00 00       	mov    $0x0,%eax
   16bad:	f7 d0                	not    %eax
   16baf:	89 c2                	mov    %eax,%edx
   16bb1:	48 8b 85 a0 f4 ff ff 	mov    -0xb60(%rbp),%rax
   16bb8:	8b 00                	mov    (%rax),%eax
   16bba:	21 d0                	and    %edx,%eax
   16bbc:	48 63 d8             	movslq %eax,%rbx
   16bbf:	0f b6 05 f2 74 00 00 	movzbl 0x74f2(%rip),%eax        # 1e0b8 <g_124>
   16bc6:	0f b6 c0             	movzbl %al,%eax
   16bc9:	48 98                	cltq   
   16bcb:	8b 84 85 98 f5 ff ff 	mov    -0xa68(%rbp,%rax,4),%eax
   16bd2:	89 c2                	mov    %eax,%edx
   16bd4:	48 8b 85 78 f4 ff ff 	mov    -0xb88(%rbp),%rax
   16bdb:	88 10                	mov    %dl,(%rax)
   16bdd:	48 8b 85 78 f4 ff ff 	mov    -0xb88(%rbp),%rax
   16be4:	0f b6 00             	movzbl (%rax),%eax
   16be7:	0f be c0             	movsbl %al,%eax
   16bea:	89 c7                	mov    %eax,%edi
   16bec:	e8 ce 15 ff ff       	callq  81bf <safe_unary_minus_func_int8_t_s>
   16bf1:	48 0f be c0          	movsbq %al,%rax
   16bf5:	48 89 de             	mov    %rbx,%rsi
   16bf8:	48 89 c7             	mov    %rax,%rdi
   16bfb:	e8 af 24 ff ff       	callq  90af <safe_div_func_uint64_t_u_u>
   16c00:	48 8b 85 28 f4 ff ff 	mov    -0xbd8(%rbp),%rax
   16c07:	8b 00                	mov    (%rax),%eax
   16c09:	83 f8 01             	cmp    $0x1,%eax
   16c0c:	0f 94 c0             	sete   %al
   16c0f:	0f b6 d0             	movzbl %al,%edx
   16c12:	48 8b 85 a0 f4 ff ff 	mov    -0xb60(%rbp),%rax
   16c19:	89 10                	mov    %edx,(%rax)
   16c1b:	c7 85 ac f3 ff ff 00 	movl   $0x0,-0xc54(%rbp)
   16c22:	00 00 00 
   16c25:	eb 1c                	jmp    16c43 <func_76+0x1b9c>
   16c27:	48 8d 05 12 ae 00 00 	lea    0xae12(%rip),%rax        # 21a40 <g_132>
   16c2e:	48 8b 00             	mov    (%rax),%rax
   16c31:	8b 10                	mov    (%rax),%edx
   16c33:	48 8b 85 a0 f4 ff ff 	mov    -0xb60(%rbp),%rax
   16c3a:	89 10                	mov    %edx,(%rax)
   16c3c:	83 85 ac f3 ff ff 01 	addl   $0x1,-0xc54(%rbp)
   16c43:	83 bd ac f3 ff ff 01 	cmpl   $0x1,-0xc54(%rbp)
   16c4a:	7e db                	jle    16c27 <func_76+0x1b80>
   16c4c:	48 c7 85 88 f4 ff ff 	movq   $0x1,-0xb78(%rbp)
   16c53:	01 00 00 00 
   16c57:	48 83 bd 88 f4 ff ff 	cmpq   $0x0,-0xb78(%rbp)
   16c5e:	00 
   16c5f:	0f 88 35 03 00 00    	js     16f9a <func_76+0x1ef3>
   16c65:	48 8d 05 5c b9 00 00 	lea    0xb95c(%rip),%rax        # 225c8 <g_282>
   16c6c:	48 89 85 f8 f4 ff ff 	mov    %rax,-0xb08(%rbp)
   16c73:	48 c7 85 00 f5 ff ff 	movq   $0x0,-0xb00(%rbp)
   16c7a:	00 00 00 00 
   16c7e:	48 8d 05 73 c5 00 00 	lea    0xc573(%rip),%rax        # 231f8 <g_328>
   16c85:	48 89 85 08 f5 ff ff 	mov    %rax,-0xaf8(%rbp)
   16c8c:	48 8d 05 75 ba 00 00 	lea    0xba75(%rip),%rax        # 22708 <g_301>
   16c93:	48 89 85 10 f5 ff ff 	mov    %rax,-0xaf0(%rbp)
   16c9a:	48 8d 05 17 c6 00 00 	lea    0xc617(%rip),%rax        # 232b8 <g_343>
   16ca1:	48 89 85 18 f5 ff ff 	mov    %rax,-0xae8(%rbp)
   16ca8:	48 8d 05 41 c4 00 00 	lea    0xc441(%rip),%rax        # 230f0 <g_317>
   16caf:	48 89 85 20 f5 ff ff 	mov    %rax,-0xae0(%rbp)
   16cb6:	48 c7 85 28 f5 ff ff 	movq   $0x0,-0xad8(%rbp)
   16cbd:	00 00 00 00 
   16cc1:	48 8d 05 58 ba 00 00 	lea    0xba58(%rip),%rax        # 22720 <g_304>
   16cc8:	48 89 85 30 f5 ff ff 	mov    %rax,-0xad0(%rbp)
   16ccf:	48 8d 05 8a b8 00 00 	lea    0xb88a(%rip),%rax        # 22560 <g_269>
   16cd6:	48 89 85 38 f5 ff ff 	mov    %rax,-0xac8(%rbp)
   16cdd:	48 8d 85 50 f4 ff ff 	lea    -0xbb0(%rbp),%rax
   16ce4:	48 89 85 50 f7 ff ff 	mov    %rax,-0x8b0(%rbp)
   16ceb:	48 8d 05 3e bd 00 00 	lea    0xbd3e(%rip),%rax        # 22a30 <g_315+0x70>
   16cf2:	48 89 85 58 f7 ff ff 	mov    %rax,-0x8a8(%rbp)
   16cf9:	48 8d 05 30 bd 00 00 	lea    0xbd30(%rip),%rax        # 22a30 <g_315+0x70>
   16d00:	48 89 85 60 f7 ff ff 	mov    %rax,-0x8a0(%rbp)
   16d07:	48 8d 85 50 f4 ff ff 	lea    -0xbb0(%rbp),%rax
   16d0e:	48 89 85 68 f7 ff ff 	mov    %rax,-0x898(%rbp)
   16d15:	48 8d 85 50 f4 ff ff 	lea    -0xbb0(%rbp),%rax
   16d1c:	48 89 85 70 f7 ff ff 	mov    %rax,-0x890(%rbp)
   16d23:	48 8d 85 50 f4 ff ff 	lea    -0xbb0(%rbp),%rax
   16d2a:	48 89 85 78 f7 ff ff 	mov    %rax,-0x888(%rbp)
   16d31:	48 8d 85 50 f4 ff ff 	lea    -0xbb0(%rbp),%rax
   16d38:	48 89 85 80 f7 ff ff 	mov    %rax,-0x880(%rbp)
   16d3f:	48 8d 85 50 f4 ff ff 	lea    -0xbb0(%rbp),%rax
   16d46:	48 89 85 88 f7 ff ff 	mov    %rax,-0x878(%rbp)
   16d4d:	48 8d 05 dc bc 00 00 	lea    0xbcdc(%rip),%rax        # 22a30 <g_315+0x70>
   16d54:	48 89 85 90 f7 ff ff 	mov    %rax,-0x870(%rbp)
   16d5b:	48 8d 05 ce bc 00 00 	lea    0xbcce(%rip),%rax        # 22a30 <g_315+0x70>
   16d62:	48 89 85 98 f7 ff ff 	mov    %rax,-0x868(%rbp)
   16d69:	48 8d 85 50 f4 ff ff 	lea    -0xbb0(%rbp),%rax
   16d70:	48 89 85 a0 f7 ff ff 	mov    %rax,-0x860(%rbp)
   16d77:	48 8d 85 50 f4 ff ff 	lea    -0xbb0(%rbp),%rax
   16d7e:	48 89 85 a8 f7 ff ff 	mov    %rax,-0x858(%rbp)
   16d85:	48 8d 85 50 f4 ff ff 	lea    -0xbb0(%rbp),%rax
   16d8c:	48 89 85 b0 f7 ff ff 	mov    %rax,-0x850(%rbp)
   16d93:	48 8d 85 50 f4 ff ff 	lea    -0xbb0(%rbp),%rax
   16d9a:	48 89 85 b8 f7 ff ff 	mov    %rax,-0x848(%rbp)
   16da1:	48 8d 85 50 f4 ff ff 	lea    -0xbb0(%rbp),%rax
   16da8:	48 89 85 c0 f7 ff ff 	mov    %rax,-0x840(%rbp)
   16daf:	48 8d 05 7a bc 00 00 	lea    0xbc7a(%rip),%rax        # 22a30 <g_315+0x70>
   16db6:	48 89 85 c8 f7 ff ff 	mov    %rax,-0x838(%rbp)
   16dbd:	48 8d 05 6c bc 00 00 	lea    0xbc6c(%rip),%rax        # 22a30 <g_315+0x70>
   16dc4:	48 89 85 d0 f7 ff ff 	mov    %rax,-0x830(%rbp)
   16dcb:	48 8d 85 50 f4 ff ff 	lea    -0xbb0(%rbp),%rax
   16dd2:	48 89 85 d8 f7 ff ff 	mov    %rax,-0x828(%rbp)
   16dd9:	48 8d 85 50 f4 ff ff 	lea    -0xbb0(%rbp),%rax
   16de0:	48 89 85 e0 f7 ff ff 	mov    %rax,-0x820(%rbp)
   16de7:	48 8d 85 50 f4 ff ff 	lea    -0xbb0(%rbp),%rax
   16dee:	48 89 85 e8 f7 ff ff 	mov    %rax,-0x818(%rbp)
   16df5:	48 8d 85 50 f4 ff ff 	lea    -0xbb0(%rbp),%rax
   16dfc:	48 89 85 f0 f7 ff ff 	mov    %rax,-0x810(%rbp)
   16e03:	48 8d 85 50 f4 ff ff 	lea    -0xbb0(%rbp),%rax
   16e0a:	48 89 85 f8 f7 ff ff 	mov    %rax,-0x808(%rbp)
   16e11:	48 8d 05 18 bc 00 00 	lea    0xbc18(%rip),%rax        # 22a30 <g_315+0x70>
   16e18:	48 89 85 00 f8 ff ff 	mov    %rax,-0x800(%rbp)
   16e1f:	48 8d 05 0a bc 00 00 	lea    0xbc0a(%rip),%rax        # 22a30 <g_315+0x70>
   16e26:	48 89 85 08 f8 ff ff 	mov    %rax,-0x7f8(%rbp)
   16e2d:	48 8d 85 50 f4 ff ff 	lea    -0xbb0(%rbp),%rax
   16e34:	48 89 85 10 f8 ff ff 	mov    %rax,-0x7f0(%rbp)
   16e3b:	48 8d 85 50 f4 ff ff 	lea    -0xbb0(%rbp),%rax
   16e42:	48 89 85 18 f8 ff ff 	mov    %rax,-0x7e8(%rbp)
   16e49:	48 8d 85 50 f4 ff ff 	lea    -0xbb0(%rbp),%rax
   16e50:	48 89 85 20 f8 ff ff 	mov    %rax,-0x7e0(%rbp)
   16e57:	48 8d 85 50 f4 ff ff 	lea    -0xbb0(%rbp),%rax
   16e5e:	48 89 85 28 f8 ff ff 	mov    %rax,-0x7d8(%rbp)
   16e65:	80 bd 8d f3 ff ff 00 	cmpb   $0x0,-0xc73(%rbp)
   16e6c:	0f 85 27 01 00 00    	jne    16f99 <func_76+0x1ef2>
   16e72:	8b 05 10 72 00 00    	mov    0x7210(%rip),%eax        # 1e088 <g_90>
   16e78:	83 f8 01             	cmp    $0x1,%eax
   16e7b:	0f 94 c0             	sete   %al
   16e7e:	44 0f b6 f0          	movzbl %al,%r14d
   16e82:	8b 85 f4 f3 ff ff    	mov    -0xc0c(%rbp),%eax
   16e88:	0f be d8             	movsbl %al,%ebx
   16e8b:	0f b6 05 b8 71 00 00 	movzbl 0x71b8(%rip),%eax        # 1e04a <g_5+0xa>
   16e92:	66 98                	cbtw   
   16e94:	44 0f b7 e0          	movzwl %ax,%r12d
   16e98:	8b 85 9c f5 ff ff    	mov    -0xa64(%rbp),%eax
   16e9e:	44 0f bf e8          	movswl %ax,%r13d
   16ea2:	0f b6 05 0f 72 00 00 	movzbl 0x720f(%rip),%eax        # 1e0b8 <g_124>
   16ea9:	0f b6 d0             	movzbl %al,%edx
   16eac:	8b 05 2e 72 00 00    	mov    0x722e(%rip),%eax        # 1e0e0 <g_225>
   16eb2:	0b 85 f4 f3 ff ff    	or     -0xc0c(%rbp),%eax
   16eb8:	39 c2                	cmp    %eax,%edx
   16eba:	0f b6 05 67 72 00 00 	movzbl 0x7267(%rip),%eax        # 1e128 <g_390>
   16ec1:	0f b6 c0             	movzbl %al,%eax
   16ec4:	09 85 f8 f3 ff ff    	or     %eax,-0xc08(%rbp)
   16eca:	83 bd f8 f3 ff ff 00 	cmpl   $0x0,-0xc08(%rbp)
   16ed1:	74 3b                	je     16f0e <func_76+0x1e67>
   16ed3:	48 8b 85 50 f4 ff ff 	mov    -0xbb0(%rbp),%rax
   16eda:	48 85 c0             	test   %rax,%rax
   16edd:	75 0f                	jne    16eee <func_76+0x1e47>
   16edf:	8b 05 7b 72 00 00    	mov    0x727b(%rip),%eax        # 1e160 <g_398+0x20>
   16ee5:	25 ff ff ff 3f       	and    $0x3fffffff,%eax
   16eea:	85 c0                	test   %eax,%eax
   16eec:	74 07                	je     16ef5 <func_76+0x1e4e>
   16eee:	ba 01 00 00 00       	mov    $0x1,%edx
   16ef3:	eb 05                	jmp    16efa <func_76+0x1e53>
   16ef5:	ba 00 00 00 00       	mov    $0x0,%edx
   16efa:	48 8b 85 a0 f4 ff ff 	mov    -0xb60(%rbp),%rax
   16f01:	8b 00                	mov    (%rax),%eax
   16f03:	39 c2                	cmp    %eax,%edx
   16f05:	74 07                	je     16f0e <func_76+0x1e67>
   16f07:	ba 01 00 00 00       	mov    $0x1,%edx
   16f0c:	eb 05                	jmp    16f13 <func_76+0x1e6c>
   16f0e:	ba 00 00 00 00       	mov    $0x0,%edx
   16f13:	8b 05 67 72 00 00    	mov    0x7267(%rip),%eax        # 1e180 <g_401>
   16f19:	c1 e0 02             	shl    $0x2,%eax
   16f1c:	c1 f8 02             	sar    $0x2,%eax
   16f1f:	31 c2                	xor    %eax,%edx
   16f21:	48 8b 85 a0 f4 ff ff 	mov    -0xb60(%rbp),%rax
   16f28:	8b 00                	mov    (%rax),%eax
   16f2a:	39 c2                	cmp    %eax,%edx
   16f2c:	0f 94 c0             	sete   %al
   16f2f:	0f b6 c0             	movzbl %al,%eax
   16f32:	be 03 00 00 00       	mov    $0x3,%esi
   16f37:	89 c7                	mov    %eax,%edi
   16f39:	e8 f7 13 ff ff       	callq  8335 <safe_rshift_func_int8_t_s_s>
   16f3e:	44 89 ee             	mov    %r13d,%esi
   16f41:	bf 32 1e 00 00       	mov    $0x1e32,%edi
   16f46:	e8 0a 15 ff ff       	callq  8455 <safe_div_func_int16_t_s_s>
   16f4b:	98                   	cwtl   
   16f4c:	39 85 f0 f3 ff ff    	cmp    %eax,-0xc10(%rbp)
   16f52:	0f 95 c0             	setne  %al
   16f55:	0f b6 c0             	movzbl %al,%eax
   16f58:	44 89 e6             	mov    %r12d,%esi
   16f5b:	89 c7                	mov    %eax,%edi
   16f5d:	e8 fa 1d ff ff       	callq  8d5c <safe_mod_func_uint16_t_u_u>
   16f62:	0f be c0             	movsbl %al,%eax
   16f65:	89 de                	mov    %ebx,%esi
   16f67:	89 c7                	mov    %eax,%edi
   16f69:	e8 a4 12 ff ff       	callq  8212 <safe_mul_func_int8_t_s_s>
   16f6e:	66 0f be d0          	movsbw %al,%dx
   16f72:	48 8b 85 90 f4 ff ff 	mov    -0xb70(%rbp),%rax
   16f79:	66 89 10             	mov    %dx,(%rax)
   16f7c:	48 8b 85 90 f4 ff ff 	mov    -0xb70(%rbp),%rax
   16f83:	0f b7 00             	movzwl (%rax),%eax
   16f86:	98                   	cwtl   
   16f87:	44 09 f0             	or     %r14d,%eax
   16f8a:	09 85 fc f3 ff ff    	or     %eax,-0xc04(%rbp)
   16f90:	48 8d 05 a9 aa 00 00 	lea    0xaaa9(%rip),%rax        # 21a40 <g_132>
   16f97:	eb 6b                	jmp    17004 <func_76+0x1f5d>
   16f99:	90                   	nop
   16f9a:	8b 85 98 f3 ff ff    	mov    -0xc68(%rbp),%eax
   16fa0:	83 c0 01             	add    $0x1,%eax
   16fa3:	89 85 98 f3 ff ff    	mov    %eax,-0xc68(%rbp)
   16fa9:	8b 85 98 f3 ff ff    	mov    -0xc68(%rbp),%eax
   16faf:	83 f8 01             	cmp    $0x1,%eax
   16fb2:	0f 8e bf f6 ff ff    	jle    16677 <func_76+0x15d0>
   16fb8:	eb 01                	jmp    16fbb <func_76+0x1f14>
   16fba:	90                   	nop
   16fbb:	0f b6 05 f6 70 00 00 	movzbl 0x70f6(%rip),%eax        # 1e0b8 <g_124>
   16fc2:	83 c0 01             	add    $0x1,%eax
   16fc5:	88 05 ed 70 00 00    	mov    %al,0x70ed(%rip)        # 1e0b8 <g_124>
   16fcb:	0f b6 05 e6 70 00 00 	movzbl 0x70e6(%rip),%eax        # 1e0b8 <g_124>
   16fd2:	3c 01                	cmp    $0x1,%al
   16fd4:	0f 86 2f f4 ff ff    	jbe    16409 <func_76+0x1362>
   16fda:	8b 85 cc f5 ff ff    	mov    -0xa34(%rbp),%eax
   16fe0:	83 e8 01             	sub    $0x1,%eax
   16fe3:	89 85 cc f5 ff ff    	mov    %eax,-0xa34(%rbp)
   16fe9:	8b 05 91 71 00 00    	mov    0x7191(%rip),%eax        # 1e180 <g_401>
   16fef:	25 ff ff ff 3f       	and    $0x3fffffff,%eax
   16ff4:	85 c0                	test   %eax,%eax
   16ff6:	74 05                	je     16ffd <func_76+0x1f56>
   16ff8:	e9 30 e2 ff ff       	jmpq   1522d <func_76+0x186>
   16ffd:	48 8d 05 54 aa 00 00 	lea    0xaa54(%rip),%rax        # 21a58 <g_214>
   17004:	48 8b 5d c8          	mov    -0x38(%rbp),%rbx
   17008:	64 48 33 1c 25 28 00 	xor    %fs:0x28,%rbx
   1700f:	00 00 
   17011:	74 05                	je     17018 <func_76+0x1f71>
   17013:	e8 58 10 ff ff       	callq  8070 <__stack_chk_fail@plt>
   17018:	48 81 c4 88 0c 00 00 	add    $0xc88,%rsp
   1701f:	5b                   	pop    %rbx
   17020:	41 5c                	pop    %r12
   17022:	41 5d                	pop    %r13
   17024:	41 5e                	pop    %r14
   17026:	41 5f                	pop    %r15
   17028:	5d                   	pop    %rbp
   17029:	c3                   	retq   

000000000001702a <func_79>:
   1702a:	f3 0f 1e fa          	endbr64 
   1702e:	55                   	push   %rbp
   1702f:	48 89 e5             	mov    %rsp,%rbp
   17032:	48 83 ec 40          	sub    $0x40,%rsp
   17036:	48 89 7d c8          	mov    %rdi,-0x38(%rbp)
   1703a:	64 48 8b 04 25 28 00 	mov    %fs:0x28,%rax
   17041:	00 00 
   17043:	48 89 45 f8          	mov    %rax,-0x8(%rbp)
   17047:	31 c0                	xor    %eax,%eax
   17049:	48 c7 45 d8 00 00 00 	movq   $0x0,-0x28(%rbp)
   17050:	00 
   17051:	48 8d 45 d8          	lea    -0x28(%rbp),%rax
   17055:	48 89 45 e0          	mov    %rax,-0x20(%rbp)
   17059:	48 b8 e4 b1 c4 78 57 	movabs $0xb667d15778c4b1e4,%rax
   17060:	d1 67 b6 
   17063:	48 89 45 e8          	mov    %rax,-0x18(%rbp)
   17067:	48 c7 45 f0 00 00 00 	movq   $0x0,-0x10(%rbp)
   1706e:	00 
   1706f:	48 8b 45 e0          	mov    -0x20(%rbp),%rax
   17073:	48 8b 55 c8          	mov    -0x38(%rbp),%rdx
   17077:	48 89 10             	mov    %rdx,(%rax)
   1707a:	48 83 6d e8 01       	subq   $0x1,-0x18(%rbp)
   1707f:	48 8b 45 f0          	mov    -0x10(%rbp),%rax
   17083:	48 8b 4d f8          	mov    -0x8(%rbp),%rcx
   17087:	64 48 33 0c 25 28 00 	xor    %fs:0x28,%rcx
   1708e:	00 00 
   17090:	74 05                	je     17097 <func_79+0x6d>
   17092:	e8 d9 0f ff ff       	callq  8070 <__stack_chk_fail@plt>
   17097:	c9                   	leaveq 
   17098:	c3                   	retq   

0000000000017099 <main>:
   17099:	f3 0f 1e fa          	endbr64 
   1709d:	55                   	push   %rbp
   1709e:	48 89 e5             	mov    %rsp,%rbp
   170a1:	48 83 ec 20          	sub    $0x20,%rsp
   170a5:	89 7d ec             	mov    %edi,-0x14(%rbp)
   170a8:	48 89 75 e0          	mov    %rsi,-0x20(%rbp)
   170ac:	c7 45 fc 00 00 00 00 	movl   $0x0,-0x4(%rbp)
   170b3:	83 7d ec 02          	cmpl   $0x2,-0x14(%rbp)
   170b7:	75 25                	jne    170de <main+0x45>
   170b9:	48 8b 45 e0          	mov    -0x20(%rbp),%rax
   170bd:	48 83 c0 08          	add    $0x8,%rax
   170c1:	48 8b 00             	mov    (%rax),%rax
   170c4:	48 8d 35 b9 35 00 00 	lea    0x35b9(%rip),%rsi        # 1a684 <g_2228+0x1484>
   170cb:	48 89 c7             	mov    %rax,%rdi
   170ce:	e8 bd 0f ff ff       	callq  8090 <strcmp@plt>
   170d3:	85 c0                	test   %eax,%eax
   170d5:	75 07                	jne    170de <main+0x45>
   170d7:	c7 45 fc 01 00 00 00 	movl   $0x1,-0x4(%rbp)
   170de:	e8 a6 10 ff ff       	callq  8189 <platform_main_begin>
   170e3:	e8 b0 24 ff ff       	callq  9598 <crc32_gentab>
   170e8:	e8 c8 26 ff ff       	callq  97b5 <func_1>
   170ed:	8b 05 31 6f 00 00    	mov    0x6f31(%rip),%eax        # 1e024 <g_2>
   170f3:	48 98                	cltq   
   170f5:	8b 55 fc             	mov    -0x4(%rbp),%edx
   170f8:	48 8d 35 87 35 00 00 	lea    0x3587(%rip),%rsi        # 1a686 <g_2228+0x1486>
   170ff:	48 89 c7             	mov    %rax,%rdi
   17102:	e8 ec 25 ff ff       	callq  96f3 <transparent_crc>
   17107:	c7 45 f0 00 00 00 00 	movl   $0x0,-0x10(%rbp)
   1710e:	e9 9c 00 00 00       	jmpq   171af <main+0x116>
   17113:	c7 45 f4 00 00 00 00 	movl   $0x0,-0xc(%rbp)
   1711a:	e9 82 00 00 00       	jmpq   171a1 <main+0x108>
   1711f:	c7 45 f8 00 00 00 00 	movl   $0x0,-0x8(%rbp)
   17126:	eb 6f                	jmp    17197 <main+0xfe>
   17128:	8b 45 f8             	mov    -0x8(%rbp),%eax
   1712b:	48 63 c8             	movslq %eax,%rcx
   1712e:	8b 45 f0             	mov    -0x10(%rbp),%eax
   17131:	48 63 d0             	movslq %eax,%rdx
   17134:	8b 45 f4             	mov    -0xc(%rbp),%eax
   17137:	48 63 f0             	movslq %eax,%rsi
   1713a:	48 89 d0             	mov    %rdx,%rax
   1713d:	48 c1 e0 03          	shl    $0x3,%rax
   17141:	48 29 d0             	sub    %rdx,%rax
   17144:	48 01 f0             	add    %rsi,%rax
   17147:	48 01 c0             	add    %rax,%rax
   1714a:	48 8d 14 08          	lea    (%rax,%rcx,1),%rdx
   1714e:	48 8d 05 eb 6e 00 00 	lea    0x6eeb(%rip),%rax        # 1e040 <g_5>
   17155:	48 01 d0             	add    %rdx,%rax
   17158:	0f b6 00             	movzbl (%rax),%eax
   1715b:	48 0f be c0          	movsbq %al,%rax
   1715f:	8b 55 fc             	mov    -0x4(%rbp),%edx
   17162:	48 8d 35 21 35 00 00 	lea    0x3521(%rip),%rsi        # 1a68a <g_2228+0x148a>
   17169:	48 89 c7             	mov    %rax,%rdi
   1716c:	e8 82 25 ff ff       	callq  96f3 <transparent_crc>
   17171:	83 7d fc 00          	cmpl   $0x0,-0x4(%rbp)
   17175:	74 1c                	je     17193 <main+0xfa>
   17177:	8b 4d f8             	mov    -0x8(%rbp),%ecx
   1717a:	8b 55 f4             	mov    -0xc(%rbp),%edx
   1717d:	8b 45 f0             	mov    -0x10(%rbp),%eax
   17180:	89 c6                	mov    %eax,%esi
   17182:	48 8d 3d 0e 35 00 00 	lea    0x350e(%rip),%rdi        # 1a697 <g_2228+0x1497>
   17189:	b8 00 00 00 00       	mov    $0x0,%eax
   1718e:	e8 ed 0e ff ff       	callq  8080 <printf@plt>
   17193:	83 45 f8 01          	addl   $0x1,-0x8(%rbp)
   17197:	83 7d f8 01          	cmpl   $0x1,-0x8(%rbp)
   1719b:	7e 8b                	jle    17128 <main+0x8f>
   1719d:	83 45 f4 01          	addl   $0x1,-0xc(%rbp)
   171a1:	83 7d f4 06          	cmpl   $0x6,-0xc(%rbp)
   171a5:	0f 8e 74 ff ff ff    	jle    1711f <main+0x86>
   171ab:	83 45 f0 01          	addl   $0x1,-0x10(%rbp)
   171af:	83 7d f0 03          	cmpl   $0x3,-0x10(%rbp)
   171b3:	0f 8e 5a ff ff ff    	jle    17113 <main+0x7a>
   171b9:	8b 05 b9 6e 00 00    	mov    0x6eb9(%rip),%eax        # 1e078 <g_6>
   171bf:	48 98                	cltq   
   171c1:	8b 55 fc             	mov    -0x4(%rbp),%edx
   171c4:	48 8d 35 e2 34 00 00 	lea    0x34e2(%rip),%rsi        # 1a6ad <g_2228+0x14ad>
   171cb:	48 89 c7             	mov    %rax,%rdi
   171ce:	e8 20 25 ff ff       	callq  96f3 <transparent_crc>
   171d3:	8b 05 2f b3 00 00    	mov    0xb32f(%rip),%eax        # 22508 <g_9>
   171d9:	48 98                	cltq   
   171db:	8b 55 fc             	mov    -0x4(%rbp),%edx
   171de:	48 8d 35 cc 34 00 00 	lea    0x34cc(%rip),%rsi        # 1a6b1 <g_2228+0x14b1>
   171e5:	48 89 c7             	mov    %rax,%rdi
   171e8:	e8 06 25 ff ff       	callq  96f3 <transparent_crc>
   171ed:	8b 05 89 6e 00 00    	mov    0x6e89(%rip),%eax        # 1e07c <g_10>
   171f3:	48 98                	cltq   
   171f5:	8b 55 fc             	mov    -0x4(%rbp),%edx
   171f8:	48 8d 35 b6 34 00 00 	lea    0x34b6(%rip),%rsi        # 1a6b5 <g_2228+0x14b5>
   171ff:	48 89 c7             	mov    %rax,%rdi
   17202:	e8 ec 24 ff ff       	callq  96f3 <transparent_crc>
   17207:	8b 05 ff b2 00 00    	mov    0xb2ff(%rip),%eax        # 2250c <g_11>
   1720d:	48 98                	cltq   
   1720f:	8b 55 fc             	mov    -0x4(%rbp),%edx
   17212:	48 8d 35 a1 34 00 00 	lea    0x34a1(%rip),%rsi        # 1a6ba <g_2228+0x14ba>
   17219:	48 89 c7             	mov    %rax,%rdi
   1721c:	e8 d2 24 ff ff       	callq  96f3 <transparent_crc>
   17221:	8b 05 59 6e 00 00    	mov    0x6e59(%rip),%eax        # 1e080 <g_14>
   17227:	48 98                	cltq   
   17229:	8b 55 fc             	mov    -0x4(%rbp),%edx
   1722c:	48 8d 35 8c 34 00 00 	lea    0x348c(%rip),%rsi        # 1a6bf <g_2228+0x14bf>
   17233:	48 89 c7             	mov    %rax,%rdi
   17236:	e8 b8 24 ff ff       	callq  96f3 <transparent_crc>
   1723b:	8b 05 43 6e 00 00    	mov    0x6e43(%rip),%eax        # 1e084 <g_51>
   17241:	48 98                	cltq   
   17243:	8b 55 fc             	mov    -0x4(%rbp),%edx
   17246:	48 8d 35 77 34 00 00 	lea    0x3477(%rip),%rsi        # 1a6c4 <g_2228+0x14c4>
   1724d:	48 89 c7             	mov    %rax,%rdi
   17250:	e8 9e 24 ff ff       	callq  96f3 <transparent_crc>
   17255:	8b 05 2d 6e 00 00    	mov    0x6e2d(%rip),%eax        # 1e088 <g_90>
   1725b:	48 98                	cltq   
   1725d:	8b 55 fc             	mov    -0x4(%rbp),%edx
   17260:	48 8d 35 62 34 00 00 	lea    0x3462(%rip),%rsi        # 1a6c9 <g_2228+0x14c9>
   17267:	48 89 c7             	mov    %rax,%rdi
   1726a:	e8 84 24 ff ff       	callq  96f3 <transparent_crc>
   1726f:	8b 05 1b 6e 00 00    	mov    0x6e1b(%rip),%eax        # 1e090 <g_92>
   17275:	c1 e0 02             	shl    $0x2,%eax
   17278:	c1 f8 02             	sar    $0x2,%eax
   1727b:	48 98                	cltq   
   1727d:	8b 55 fc             	mov    -0x4(%rbp),%edx
   17280:	48 8d 35 47 34 00 00 	lea    0x3447(%rip),%rsi        # 1a6ce <g_2228+0x14ce>
   17287:	48 89 c7             	mov    %rax,%rdi
   1728a:	e8 64 24 ff ff       	callq  96f3 <transparent_crc>
   1728f:	0f b7 05 02 6e 00 00 	movzwl 0x6e02(%rip),%eax        # 1e098 <g_106>
   17296:	48 0f bf c0          	movswq %ax,%rax
   1729a:	8b 55 fc             	mov    -0x4(%rbp),%edx
   1729d:	48 8d 35 32 34 00 00 	lea    0x3432(%rip),%rsi        # 1a6d6 <g_2228+0x14d6>
   172a4:	48 89 c7             	mov    %rax,%rdi
   172a7:	e8 47 24 ff ff       	callq  96f3 <transparent_crc>
   172ac:	0f b6 05 e7 6d 00 00 	movzbl 0x6de7(%rip),%eax        # 1e09a <g_109>
   172b3:	48 0f be c0          	movsbq %al,%rax
   172b7:	8b 55 fc             	mov    -0x4(%rbp),%edx
   172ba:	48 8d 35 1b 34 00 00 	lea    0x341b(%rip),%rsi        # 1a6dc <g_2228+0x14dc>
   172c1:	48 89 c7             	mov    %rax,%rdi
   172c4:	e8 2a 24 ff ff       	callq  96f3 <transparent_crc>
   172c9:	c7 45 f0 00 00 00 00 	movl   $0x0,-0x10(%rbp)
   172d0:	eb 4b                	jmp    1731d <main+0x284>
   172d2:	8b 45 f0             	mov    -0x10(%rbp),%eax
   172d5:	48 98                	cltq   
   172d7:	48 8d 14 85 00 00 00 	lea    0x0(,%rax,4),%rdx
   172de:	00 
   172df:	48 8d 05 ba 6d 00 00 	lea    0x6dba(%rip),%rax        # 1e0a0 <g_115>
   172e6:	8b 04 02             	mov    (%rdx,%rax,1),%eax
   172e9:	48 98                	cltq   
   172eb:	8b 55 fc             	mov    -0x4(%rbp),%edx
   172ee:	48 8d 35 ed 33 00 00 	lea    0x33ed(%rip),%rsi        # 1a6e2 <g_2228+0x14e2>
   172f5:	48 89 c7             	mov    %rax,%rdi
   172f8:	e8 f6 23 ff ff       	callq  96f3 <transparent_crc>
   172fd:	83 7d fc 00          	cmpl   $0x0,-0x4(%rbp)
   17301:	74 16                	je     17319 <main+0x280>
   17303:	8b 45 f0             	mov    -0x10(%rbp),%eax
   17306:	89 c6                	mov    %eax,%esi
   17308:	48 8d 3d dc 33 00 00 	lea    0x33dc(%rip),%rdi        # 1a6eb <g_2228+0x14eb>
   1730f:	b8 00 00 00 00       	mov    $0x0,%eax
   17314:	e8 67 0d ff ff       	callq  8080 <printf@plt>
   17319:	83 45 f0 01          	addl   $0x1,-0x10(%rbp)
   1731d:	83 7d f0 05          	cmpl   $0x5,-0x10(%rbp)
   17321:	7e af                	jle    172d2 <main+0x239>
   17323:	0f b6 05 8e 6d 00 00 	movzbl 0x6d8e(%rip),%eax        # 1e0b8 <g_124>
   1732a:	0f b6 c0             	movzbl %al,%eax
   1732d:	8b 55 fc             	mov    -0x4(%rbp),%edx
   17330:	48 8d 35 c2 33 00 00 	lea    0x33c2(%rip),%rsi        # 1a6f9 <g_2228+0x14f9>
   17337:	48 89 c7             	mov    %rax,%rdi
   1733a:	e8 b4 23 ff ff       	callq  96f3 <transparent_crc>
   1733f:	8b 05 77 6d 00 00    	mov    0x6d77(%rip),%eax        # 1e0bc <g_127>
   17345:	89 c1                	mov    %eax,%ecx
   17347:	8b 45 fc             	mov    -0x4(%rbp),%eax
   1734a:	89 c2                	mov    %eax,%edx
   1734c:	48 8d 35 ac 33 00 00 	lea    0x33ac(%rip),%rsi        # 1a6ff <g_2228+0x14ff>
   17353:	48 89 cf             	mov    %rcx,%rdi
   17356:	e8 98 23 ff ff       	callq  96f3 <transparent_crc>
   1735b:	8b 05 5f 6d 00 00    	mov    0x6d5f(%rip),%eax        # 1e0c0 <g_198>
   17361:	c1 e0 02             	shl    $0x2,%eax
   17364:	c1 f8 02             	sar    $0x2,%eax
   17367:	48 98                	cltq   
   17369:	8b 55 fc             	mov    -0x4(%rbp),%edx
   1736c:	48 8d 35 92 33 00 00 	lea    0x3392(%rip),%rsi        # 1a705 <g_2228+0x1505>
   17373:	48 89 c7             	mov    %rax,%rdi
   17376:	e8 78 23 ff ff       	callq  96f3 <transparent_crc>
   1737b:	8b 05 47 6d 00 00    	mov    0x6d47(%rip),%eax        # 1e0c8 <g_201>
   17381:	48 98                	cltq   
   17383:	8b 55 fc             	mov    -0x4(%rbp),%edx
   17386:	48 8d 35 81 33 00 00 	lea    0x3381(%rip),%rsi        # 1a70e <g_2228+0x150e>
   1738d:	48 89 c7             	mov    %rax,%rdi
   17390:	e8 5e 23 ff ff       	callq  96f3 <transparent_crc>
   17395:	8b 05 35 6d 00 00    	mov    0x6d35(%rip),%eax        # 1e0d0 <g_216>
   1739b:	89 c1                	mov    %eax,%ecx
   1739d:	8b 45 fc             	mov    -0x4(%rbp),%eax
   173a0:	89 c2                	mov    %eax,%edx
   173a2:	48 8d 35 6e 33 00 00 	lea    0x336e(%rip),%rsi        # 1a717 <g_2228+0x1517>
   173a9:	48 89 cf             	mov    %rcx,%rdi
   173ac:	e8 42 23 ff ff       	callq  96f3 <transparent_crc>
   173b1:	8b 05 21 6d 00 00    	mov    0x6d21(%rip),%eax        # 1e0d8 <g_221>
   173b7:	48 98                	cltq   
   173b9:	8b 55 fc             	mov    -0x4(%rbp),%edx
   173bc:	48 8d 35 5a 33 00 00 	lea    0x335a(%rip),%rsi        # 1a71d <g_2228+0x151d>
   173c3:	48 89 c7             	mov    %rax,%rdi
   173c6:	e8 28 23 ff ff       	callq  96f3 <transparent_crc>
   173cb:	c7 45 f0 00 00 00 00 	movl   $0x0,-0x10(%rbp)
   173d2:	eb 4b                	jmp    1741f <main+0x386>
   173d4:	8b 45 f0             	mov    -0x10(%rbp),%eax
   173d7:	48 98                	cltq   
   173d9:	48 8d 14 c5 00 00 00 	lea    0x0(,%rax,8),%rdx
   173e0:	00 
   173e1:	48 8d 05 f8 6c 00 00 	lea    0x6cf8(%rip),%rax        # 1e0e0 <g_225>
   173e8:	8b 04 02             	mov    (%rdx,%rax,1),%eax
   173eb:	48 98                	cltq   
   173ed:	8b 55 fc             	mov    -0x4(%rbp),%edx
   173f0:	48 8d 35 2f 33 00 00 	lea    0x332f(%rip),%rsi        # 1a726 <g_2228+0x1526>
   173f7:	48 89 c7             	mov    %rax,%rdi
   173fa:	e8 f4 22 ff ff       	callq  96f3 <transparent_crc>
   173ff:	83 7d fc 00          	cmpl   $0x0,-0x4(%rbp)
   17403:	74 16                	je     1741b <main+0x382>
   17405:	8b 45 f0             	mov    -0x10(%rbp),%eax
   17408:	89 c6                	mov    %eax,%esi
   1740a:	48 8d 3d da 32 00 00 	lea    0x32da(%rip),%rdi        # 1a6eb <g_2228+0x14eb>
   17411:	b8 00 00 00 00       	mov    $0x0,%eax
   17416:	e8 65 0c ff ff       	callq  8080 <printf@plt>
   1741b:	83 45 f0 01          	addl   $0x1,-0x10(%rbp)
   1741f:	83 7d f0 08          	cmpl   $0x8,-0x10(%rbp)
   17423:	7e af                	jle    173d4 <main+0x33b>
   17425:	48 8b 05 54 bf 00 00 	mov    0xbf54(%rip),%rax        # 23380 <g_362>
   1742c:	48 89 c1             	mov    %rax,%rcx
   1742f:	8b 45 fc             	mov    -0x4(%rbp),%eax
   17432:	89 c2                	mov    %eax,%edx
   17434:	48 8d 35 f7 32 00 00 	lea    0x32f7(%rip),%rsi        # 1a732 <g_2228+0x1532>
   1743b:	48 89 cf             	mov    %rcx,%rdi
   1743e:	e8 b0 22 ff ff       	callq  96f3 <transparent_crc>
   17443:	0f b6 05 de 6c 00 00 	movzbl 0x6cde(%rip),%eax        # 1e128 <g_390>
   1744a:	0f b6 c0             	movzbl %al,%eax
   1744d:	8b 55 fc             	mov    -0x4(%rbp),%edx
   17450:	48 8d 35 e4 32 00 00 	lea    0x32e4(%rip),%rsi        # 1a73b <g_2228+0x153b>
   17457:	48 89 c7             	mov    %rax,%rdi
   1745a:	e8 94 22 ff ff       	callq  96f3 <transparent_crc>
   1745f:	c7 45 f0 00 00 00 00 	movl   $0x0,-0x10(%rbp)
   17466:	eb 70                	jmp    174d8 <main+0x43f>
   17468:	c7 45 f4 00 00 00 00 	movl   $0x0,-0xc(%rbp)
   1746f:	eb 5d                	jmp    174ce <main+0x435>
   17471:	8b 45 f4             	mov    -0xc(%rbp),%eax
   17474:	48 63 d0             	movslq %eax,%rdx
   17477:	8b 45 f0             	mov    -0x10(%rbp),%eax
   1747a:	48 98                	cltq   
   1747c:	48 01 d0             	add    %rdx,%rax
   1747f:	48 8d 14 c5 00 00 00 	lea    0x0(,%rax,8),%rdx
   17486:	00 
   17487:	48 8d 05 b2 6c 00 00 	lea    0x6cb2(%rip),%rax        # 1e140 <g_398>
   1748e:	8b 04 02             	mov    (%rdx,%rax,1),%eax
   17491:	c1 e0 02             	shl    $0x2,%eax
   17494:	c1 f8 02             	sar    $0x2,%eax
   17497:	48 98                	cltq   
   17499:	8b 55 fc             	mov    -0x4(%rbp),%edx
   1749c:	48 8d 35 9e 32 00 00 	lea    0x329e(%rip),%rsi        # 1a741 <g_2228+0x1541>
   174a3:	48 89 c7             	mov    %rax,%rdi
   174a6:	e8 48 22 ff ff       	callq  96f3 <transparent_crc>
   174ab:	83 7d fc 00          	cmpl   $0x0,-0x4(%rbp)
   174af:	74 19                	je     174ca <main+0x431>
   174b1:	8b 55 f4             	mov    -0xc(%rbp),%edx
   174b4:	8b 45 f0             	mov    -0x10(%rbp),%eax
   174b7:	89 c6                	mov    %eax,%esi
   174b9:	48 8d 3d 90 32 00 00 	lea    0x3290(%rip),%rdi        # 1a750 <g_2228+0x1550>
   174c0:	b8 00 00 00 00       	mov    $0x0,%eax
   174c5:	e8 b6 0b ff ff       	callq  8080 <printf@plt>
   174ca:	83 45 f4 01          	addl   $0x1,-0xc(%rbp)
   174ce:	83 7d f4 00          	cmpl   $0x0,-0xc(%rbp)
   174d2:	7e 9d                	jle    17471 <main+0x3d8>
   174d4:	83 45 f0 01          	addl   $0x1,-0x10(%rbp)
   174d8:	83 7d f0 07          	cmpl   $0x7,-0x10(%rbp)
   174dc:	7e 8a                	jle    17468 <main+0x3cf>
   174de:	8b 05 9c 6c 00 00    	mov    0x6c9c(%rip),%eax        # 1e180 <g_401>
   174e4:	c1 e0 02             	shl    $0x2,%eax
   174e7:	c1 f8 02             	sar    $0x2,%eax
   174ea:	48 98                	cltq   
   174ec:	8b 55 fc             	mov    -0x4(%rbp),%edx
   174ef:	48 8d 35 6c 32 00 00 	lea    0x326c(%rip),%rsi        # 1a762 <g_2228+0x1562>
   174f6:	48 89 c7             	mov    %rax,%rdi
   174f9:	e8 f5 21 ff ff       	callq  96f3 <transparent_crc>
   174fe:	8b 05 84 6c 00 00    	mov    0x6c84(%rip),%eax        # 1e188 <g_403>
   17504:	c1 e0 02             	shl    $0x2,%eax
   17507:	c1 f8 02             	sar    $0x2,%eax
   1750a:	48 98                	cltq   
   1750c:	8b 55 fc             	mov    -0x4(%rbp),%edx
   1750f:	48 8d 35 55 32 00 00 	lea    0x3255(%rip),%rsi        # 1a76b <g_2228+0x156b>
   17516:	48 89 c7             	mov    %rax,%rdi
   17519:	e8 d5 21 ff ff       	callq  96f3 <transparent_crc>
   1751e:	8b 05 64 be 00 00    	mov    0xbe64(%rip),%eax        # 23388 <g_404>
   17524:	c1 e0 02             	shl    $0x2,%eax
   17527:	c1 f8 02             	sar    $0x2,%eax
   1752a:	48 98                	cltq   
   1752c:	8b 55 fc             	mov    -0x4(%rbp),%edx
   1752f:	48 8d 35 3e 32 00 00 	lea    0x323e(%rip),%rsi        # 1a774 <g_2228+0x1574>
   17536:	48 89 c7             	mov    %rax,%rdi
   17539:	e8 b5 21 ff ff       	callq  96f3 <transparent_crc>
   1753e:	8b 05 4c 6c 00 00    	mov    0x6c4c(%rip),%eax        # 1e190 <g_508>
   17544:	48 98                	cltq   
   17546:	8b 55 fc             	mov    -0x4(%rbp),%edx
   17549:	48 8d 35 2d 32 00 00 	lea    0x322d(%rip),%rsi        # 1a77d <g_2228+0x157d>
   17550:	48 89 c7             	mov    %rax,%rdi
   17553:	e8 9b 21 ff ff       	callq  96f3 <transparent_crc>
   17558:	8b 05 3a 6c 00 00    	mov    0x6c3a(%rip),%eax        # 1e198 <g_559>
   1755e:	48 98                	cltq   
   17560:	8b 55 fc             	mov    -0x4(%rbp),%edx
   17563:	48 8d 35 1c 32 00 00 	lea    0x321c(%rip),%rsi        # 1a786 <g_2228+0x1586>
   1756a:	48 89 c7             	mov    %rax,%rdi
   1756d:	e8 81 21 ff ff       	callq  96f3 <transparent_crc>
   17572:	8b 05 28 6c 00 00    	mov    0x6c28(%rip),%eax        # 1e1a0 <g_628>
   17578:	48 98                	cltq   
   1757a:	8b 55 fc             	mov    -0x4(%rbp),%edx
   1757d:	48 8d 35 0b 32 00 00 	lea    0x320b(%rip),%rsi        # 1a78f <g_2228+0x158f>
   17584:	48 89 c7             	mov    %rax,%rdi
   17587:	e8 67 21 ff ff       	callq  96f3 <transparent_crc>
   1758c:	8b 05 16 6c 00 00    	mov    0x6c16(%rip),%eax        # 1e1a8 <g_630>
   17592:	48 98                	cltq   
   17594:	8b 55 fc             	mov    -0x4(%rbp),%edx
   17597:	48 8d 35 fa 31 00 00 	lea    0x31fa(%rip),%rsi        # 1a798 <g_2228+0x1598>
   1759e:	48 89 c7             	mov    %rax,%rdi
   175a1:	e8 4d 21 ff ff       	callq  96f3 <transparent_crc>
   175a6:	8b 05 04 6c 00 00    	mov    0x6c04(%rip),%eax        # 1e1b0 <g_632>
   175ac:	48 98                	cltq   
   175ae:	8b 55 fc             	mov    -0x4(%rbp),%edx
   175b1:	48 8d 35 e9 31 00 00 	lea    0x31e9(%rip),%rsi        # 1a7a1 <g_2228+0x15a1>
   175b8:	48 89 c7             	mov    %rax,%rdi
   175bb:	e8 33 21 ff ff       	callq  96f3 <transparent_crc>
   175c0:	8b 05 f2 6b 00 00    	mov    0x6bf2(%rip),%eax        # 1e1b8 <g_730>
   175c6:	48 98                	cltq   
   175c8:	8b 55 fc             	mov    -0x4(%rbp),%edx
   175cb:	48 8d 35 d8 31 00 00 	lea    0x31d8(%rip),%rsi        # 1a7aa <g_2228+0x15aa>
   175d2:	48 89 c7             	mov    %rax,%rdi
   175d5:	e8 19 21 ff ff       	callq  96f3 <transparent_crc>
   175da:	c7 45 f0 00 00 00 00 	movl   $0x0,-0x10(%rbp)
   175e1:	e9 96 00 00 00       	jmpq   1767c <main+0x5e3>
   175e6:	c7 45 f4 00 00 00 00 	movl   $0x0,-0xc(%rbp)
   175ed:	eb 7f                	jmp    1766e <main+0x5d5>
   175ef:	c7 45 f8 00 00 00 00 	movl   $0x0,-0x8(%rbp)
   175f6:	eb 6c                	jmp    17664 <main+0x5cb>
   175f8:	8b 45 f8             	mov    -0x8(%rbp),%eax
   175fb:	48 98                	cltq   
   175fd:	8b 55 f0             	mov    -0x10(%rbp),%edx
   17600:	48 63 ca             	movslq %edx,%rcx
   17603:	8b 55 f4             	mov    -0xc(%rbp),%edx
   17606:	48 63 d2             	movslq %edx,%rdx
   17609:	48 01 c9             	add    %rcx,%rcx
   1760c:	48 01 ca             	add    %rcx,%rdx
   1760f:	48 c1 e2 03          	shl    $0x3,%rdx
   17613:	48 01 d0             	add    %rdx,%rax
   17616:	48 8d 14 85 00 00 00 	lea    0x0(,%rax,4),%rdx
   1761d:	00 
   1761e:	48 8d 05 9b 6b 00 00 	lea    0x6b9b(%rip),%rax        # 1e1c0 <g_740>
   17625:	8b 04 02             	mov    (%rdx,%rax,1),%eax
   17628:	89 c1                	mov    %eax,%ecx
   1762a:	8b 45 fc             	mov    -0x4(%rbp),%eax
   1762d:	89 c2                	mov    %eax,%edx
   1762f:	48 8d 35 7d 31 00 00 	lea    0x317d(%rip),%rsi        # 1a7b3 <g_2228+0x15b3>
   17636:	48 89 cf             	mov    %rcx,%rdi
   17639:	e8 b5 20 ff ff       	callq  96f3 <transparent_crc>
   1763e:	83 7d fc 00          	cmpl   $0x0,-0x4(%rbp)
   17642:	74 1c                	je     17660 <main+0x5c7>
   17644:	8b 4d f8             	mov    -0x8(%rbp),%ecx
   17647:	8b 55 f4             	mov    -0xc(%rbp),%edx
   1764a:	8b 45 f0             	mov    -0x10(%rbp),%eax
   1764d:	89 c6                	mov    %eax,%esi
   1764f:	48 8d 3d 41 30 00 00 	lea    0x3041(%rip),%rdi        # 1a697 <g_2228+0x1497>
   17656:	b8 00 00 00 00       	mov    $0x0,%eax
   1765b:	e8 20 0a ff ff       	callq  8080 <printf@plt>
   17660:	83 45 f8 01          	addl   $0x1,-0x8(%rbp)
   17664:	83 7d f8 07          	cmpl   $0x7,-0x8(%rbp)
   17668:	7e 8e                	jle    175f8 <main+0x55f>
   1766a:	83 45 f4 01          	addl   $0x1,-0xc(%rbp)
   1766e:	83 7d f4 01          	cmpl   $0x1,-0xc(%rbp)
   17672:	0f 8e 77 ff ff ff    	jle    175ef <main+0x556>
   17678:	83 45 f0 01          	addl   $0x1,-0x10(%rbp)
   1767c:	83 7d f0 01          	cmpl   $0x1,-0x10(%rbp)
   17680:	0f 8e 60 ff ff ff    	jle    175e6 <main+0x54d>
   17686:	b8 ff ff ff ff       	mov    $0xffffffff,%eax
   1768b:	48 0f bf c0          	movswq %ax,%rax
   1768f:	8b 55 fc             	mov    -0x4(%rbp),%edx
   17692:	48 8d 35 29 31 00 00 	lea    0x3129(%rip),%rsi        # 1a7c2 <g_2228+0x15c2>
   17699:	48 89 c7             	mov    %rax,%rdi
   1769c:	e8 52 20 ff ff       	callq  96f3 <transparent_crc>
   176a1:	0f b6 05 98 6b 00 00 	movzbl 0x6b98(%rip),%eax        # 1e240 <g_820>
   176a8:	48 0f be c0          	movsbq %al,%rax
   176ac:	8b 55 fc             	mov    -0x4(%rbp),%edx
   176af:	48 8d 35 12 31 00 00 	lea    0x3112(%rip),%rsi        # 1a7c8 <g_2228+0x15c8>
   176b6:	48 89 c7             	mov    %rax,%rdi
   176b9:	e8 35 20 ff ff       	callq  96f3 <transparent_crc>
   176be:	8b 05 80 6b 00 00    	mov    0x6b80(%rip),%eax        # 1e244 <g_823>
   176c4:	89 c1                	mov    %eax,%ecx
   176c6:	8b 45 fc             	mov    -0x4(%rbp),%eax
   176c9:	89 c2                	mov    %eax,%edx
   176cb:	48 8d 35 fc 30 00 00 	lea    0x30fc(%rip),%rsi        # 1a7ce <g_2228+0x15ce>
   176d2:	48 89 cf             	mov    %rcx,%rdi
   176d5:	e8 19 20 ff ff       	callq  96f3 <transparent_crc>
   176da:	8b 05 68 6b 00 00    	mov    0x6b68(%rip),%eax        # 1e248 <g_915>
   176e0:	89 c1                	mov    %eax,%ecx
   176e2:	8b 45 fc             	mov    -0x4(%rbp),%eax
   176e5:	89 c2                	mov    %eax,%edx
   176e7:	48 8d 35 e6 30 00 00 	lea    0x30e6(%rip),%rsi        # 1a7d4 <g_2228+0x15d4>
   176ee:	48 89 cf             	mov    %rcx,%rdi
   176f1:	e8 fd 1f ff ff       	callq  96f3 <transparent_crc>
   176f6:	8b 05 4c 6b 00 00    	mov    0x6b4c(%rip),%eax        # 1e248 <g_915>
   176fc:	48 98                	cltq   
   176fe:	8b 55 fc             	mov    -0x4(%rbp),%edx
   17701:	48 8d 35 d5 30 00 00 	lea    0x30d5(%rip),%rsi        # 1a7dd <g_2228+0x15dd>
   17708:	48 89 c7             	mov    %rax,%rdi
   1770b:	e8 e3 1f ff ff       	callq  96f3 <transparent_crc>
   17710:	0f b7 05 31 6b 00 00 	movzwl 0x6b31(%rip),%eax        # 1e248 <g_915>
   17717:	48 0f bf c0          	movswq %ax,%rax
   1771b:	8b 55 fc             	mov    -0x4(%rbp),%edx
   1771e:	48 8d 35 c1 30 00 00 	lea    0x30c1(%rip),%rsi        # 1a7e6 <g_2228+0x15e6>
   17725:	48 89 c7             	mov    %rax,%rdi
   17728:	e8 c6 1f ff ff       	callq  96f3 <transparent_crc>
   1772d:	0f b6 05 14 6b 00 00 	movzbl 0x6b14(%rip),%eax        # 1e248 <g_915>
   17734:	0f b6 c0             	movzbl %al,%eax
   17737:	8b 55 fc             	mov    -0x4(%rbp),%edx
   1773a:	48 8d 35 ae 30 00 00 	lea    0x30ae(%rip),%rsi        # 1a7ef <g_2228+0x15ef>
   17741:	48 89 c7             	mov    %rax,%rdi
   17744:	e8 aa 1f ff ff       	callq  96f3 <transparent_crc>
   17749:	0f b7 05 00 6b 00 00 	movzwl 0x6b00(%rip),%eax        # 1e250 <g_930>
   17750:	0f b7 c0             	movzwl %ax,%eax
   17753:	8b 55 fc             	mov    -0x4(%rbp),%edx
   17756:	48 8d 35 9b 30 00 00 	lea    0x309b(%rip),%rsi        # 1a7f8 <g_2228+0x15f8>
   1775d:	48 89 c7             	mov    %rax,%rdi
   17760:	e8 8e 1f ff ff       	callq  96f3 <transparent_crc>
   17765:	48 8b 05 ec 6a 00 00 	mov    0x6aec(%rip),%rax        # 1e258 <g_1004>
   1776c:	8b 55 fc             	mov    -0x4(%rbp),%edx
   1776f:	48 8d 35 88 30 00 00 	lea    0x3088(%rip),%rsi        # 1a7fe <g_2228+0x15fe>
   17776:	48 89 c7             	mov    %rax,%rdi
   17779:	e8 75 1f ff ff       	callq  96f3 <transparent_crc>
   1777e:	0f b6 05 83 c5 00 00 	movzbl 0xc583(%rip),%eax        # 23d08 <g_1049>
   17785:	48 0f be c0          	movsbq %al,%rax
   17789:	8b 55 fc             	mov    -0x4(%rbp),%edx
   1778c:	48 8d 35 72 30 00 00 	lea    0x3072(%rip),%rsi        # 1a805 <g_2228+0x1605>
   17793:	48 89 c7             	mov    %rax,%rdi
   17796:	e8 58 1f ff ff       	callq  96f3 <transparent_crc>
   1779b:	0f b7 05 be 6a 00 00 	movzwl 0x6abe(%rip),%eax        # 1e260 <g_1064>
   177a2:	48 0f bf c0          	movswq %ax,%rax
   177a6:	8b 55 fc             	mov    -0x4(%rbp),%edx
   177a9:	48 8d 35 5c 30 00 00 	lea    0x305c(%rip),%rsi        # 1a80c <g_2228+0x160c>
   177b0:	48 89 c7             	mov    %rax,%rdi
   177b3:	e8 3b 1f ff ff       	callq  96f3 <transparent_crc>
   177b8:	8b 05 a6 6a 00 00    	mov    0x6aa6(%rip),%eax        # 1e264 <g_1090>
   177be:	48 98                	cltq   
   177c0:	8b 55 fc             	mov    -0x4(%rbp),%edx
   177c3:	48 8d 35 49 30 00 00 	lea    0x3049(%rip),%rsi        # 1a813 <g_2228+0x1613>
   177ca:	48 89 c7             	mov    %rax,%rdi
   177cd:	e8 21 1f ff ff       	callq  96f3 <transparent_crc>
   177d2:	c7 45 f0 00 00 00 00 	movl   $0x0,-0x10(%rbp)
   177d9:	eb 6c                	jmp    17847 <main+0x7ae>
   177db:	c7 45 f4 00 00 00 00 	movl   $0x0,-0xc(%rbp)
   177e2:	eb 59                	jmp    1783d <main+0x7a4>
   177e4:	8b 45 f4             	mov    -0xc(%rbp),%eax
   177e7:	48 98                	cltq   
   177e9:	8b 55 f0             	mov    -0x10(%rbp),%edx
   177ec:	48 63 d2             	movslq %edx,%rdx
   177ef:	48 01 d2             	add    %rdx,%rdx
   177f2:	48 01 d0             	add    %rdx,%rax
   177f5:	48 8d 14 c5 00 00 00 	lea    0x0(,%rax,8),%rdx
   177fc:	00 
   177fd:	48 8d 05 1c c5 00 00 	lea    0xc51c(%rip),%rax        # 23d20 <g_1111>
   17804:	48 8b 04 02          	mov    (%rdx,%rax,1),%rax
   17808:	8b 55 fc             	mov    -0x4(%rbp),%edx
   1780b:	48 8d 35 08 30 00 00 	lea    0x3008(%rip),%rsi        # 1a81a <g_2228+0x161a>
   17812:	48 89 c7             	mov    %rax,%rdi
   17815:	e8 d9 1e ff ff       	callq  96f3 <transparent_crc>
   1781a:	83 7d fc 00          	cmpl   $0x0,-0x4(%rbp)
   1781e:	74 19                	je     17839 <main+0x7a0>
   17820:	8b 55 f4             	mov    -0xc(%rbp),%edx
   17823:	8b 45 f0             	mov    -0x10(%rbp),%eax
   17826:	89 c6                	mov    %eax,%esi
   17828:	48 8d 3d 21 2f 00 00 	lea    0x2f21(%rip),%rdi        # 1a750 <g_2228+0x1550>
   1782f:	b8 00 00 00 00       	mov    $0x0,%eax
   17834:	e8 47 08 ff ff       	callq  8080 <printf@plt>
   17839:	83 45 f4 01          	addl   $0x1,-0xc(%rbp)
   1783d:	83 7d f4 01          	cmpl   $0x1,-0xc(%rbp)
   17841:	7e a1                	jle    177e4 <main+0x74b>
   17843:	83 45 f0 01          	addl   $0x1,-0x10(%rbp)
   17847:	83 7d f0 05          	cmpl   $0x5,-0x10(%rbp)
   1784b:	7e 8e                	jle    177db <main+0x742>
   1784d:	8b 05 15 6a 00 00    	mov    0x6a15(%rip),%eax        # 1e268 <g_1209>
   17853:	48 98                	cltq   
   17855:	8b 55 fc             	mov    -0x4(%rbp),%edx
   17858:	48 8d 35 c8 2f 00 00 	lea    0x2fc8(%rip),%rsi        # 1a827 <g_2228+0x1627>
   1785f:	48 89 c7             	mov    %rax,%rdi
   17862:	e8 8c 1e ff ff       	callq  96f3 <transparent_crc>
   17867:	8b 05 03 6a 00 00    	mov    0x6a03(%rip),%eax        # 1e270 <g_1231>
   1786d:	c1 e0 02             	shl    $0x2,%eax
   17870:	c1 f8 02             	sar    $0x2,%eax
   17873:	48 98                	cltq   
   17875:	8b 55 fc             	mov    -0x4(%rbp),%edx
   17878:	48 8d 35 b2 2f 00 00 	lea    0x2fb2(%rip),%rsi        # 1a831 <g_2228+0x1631>
   1787f:	48 89 c7             	mov    %rax,%rdi
   17882:	e8 6c 1e ff ff       	callq  96f3 <transparent_crc>
   17887:	8b 05 eb 69 00 00    	mov    0x69eb(%rip),%eax        # 1e278 <g_1232>
   1788d:	c1 e0 02             	shl    $0x2,%eax
   17890:	c1 f8 02             	sar    $0x2,%eax
   17893:	48 98                	cltq   
   17895:	8b 55 fc             	mov    -0x4(%rbp),%edx
   17898:	48 8d 35 9c 2f 00 00 	lea    0x2f9c(%rip),%rsi        # 1a83b <g_2228+0x163b>
   1789f:	48 89 c7             	mov    %rax,%rdi
   178a2:	e8 4c 1e ff ff       	callq  96f3 <transparent_crc>
   178a7:	c7 45 f0 00 00 00 00 	movl   $0x0,-0x10(%rbp)
   178ae:	eb 4a                	jmp    178fa <main+0x861>
   178b0:	8b 45 f0             	mov    -0x10(%rbp),%eax
   178b3:	48 98                	cltq   
   178b5:	48 8d 14 00          	lea    (%rax,%rax,1),%rdx
   178b9:	48 8d 05 c0 69 00 00 	lea    0x69c0(%rip),%rax        # 1e280 <g_1311>
   178c0:	0f b7 04 02          	movzwl (%rdx,%rax,1),%eax
   178c4:	48 0f bf c0          	movswq %ax,%rax
   178c8:	8b 55 fc             	mov    -0x4(%rbp),%edx
   178cb:	48 8d 35 73 2f 00 00 	lea    0x2f73(%rip),%rsi        # 1a845 <g_2228+0x1645>
   178d2:	48 89 c7             	mov    %rax,%rdi
   178d5:	e8 19 1e ff ff       	callq  96f3 <transparent_crc>
   178da:	83 7d fc 00          	cmpl   $0x0,-0x4(%rbp)
   178de:	74 16                	je     178f6 <main+0x85d>
   178e0:	8b 45 f0             	mov    -0x10(%rbp),%eax
   178e3:	89 c6                	mov    %eax,%esi
   178e5:	48 8d 3d ff 2d 00 00 	lea    0x2dff(%rip),%rdi        # 1a6eb <g_2228+0x14eb>
   178ec:	b8 00 00 00 00       	mov    $0x0,%eax
   178f1:	e8 8a 07 ff ff       	callq  8080 <printf@plt>
   178f6:	83 45 f0 01          	addl   $0x1,-0x10(%rbp)
   178fa:	83 7d f0 00          	cmpl   $0x0,-0x10(%rbp)
   178fe:	7e b0                	jle    178b0 <main+0x817>
   17900:	8b 05 7e 69 00 00    	mov    0x697e(%rip),%eax        # 1e284 <g_1329>
   17906:	89 c1                	mov    %eax,%ecx
   17908:	8b 45 fc             	mov    -0x4(%rbp),%eax
   1790b:	89 c2                	mov    %eax,%edx
   1790d:	48 8d 35 3b 2f 00 00 	lea    0x2f3b(%rip),%rsi        # 1a84f <g_2228+0x164f>
   17914:	48 89 cf             	mov    %rcx,%rdi
   17917:	e8 d7 1d ff ff       	callq  96f3 <transparent_crc>
   1791c:	48 8b 05 65 69 00 00 	mov    0x6965(%rip),%rax        # 1e288 <g_1347>
   17923:	48 89 c1             	mov    %rax,%rcx
   17926:	8b 45 fc             	mov    -0x4(%rbp),%eax
   17929:	89 c2                	mov    %eax,%edx
   1792b:	48 8d 35 24 2f 00 00 	lea    0x2f24(%rip),%rsi        # 1a856 <g_2228+0x1656>
   17932:	48 89 cf             	mov    %rcx,%rdi
   17935:	e8 b9 1d ff ff       	callq  96f3 <transparent_crc>
   1793a:	8b 05 50 69 00 00    	mov    0x6950(%rip),%eax        # 1e290 <g_1526>
   17940:	48 98                	cltq   
   17942:	8b 55 fc             	mov    -0x4(%rbp),%edx
   17945:	48 8d 35 11 2f 00 00 	lea    0x2f11(%rip),%rsi        # 1a85d <g_2228+0x165d>
   1794c:	48 89 c7             	mov    %rax,%rdi
   1794f:	e8 9f 1d ff ff       	callq  96f3 <transparent_crc>
   17954:	8b 05 3e 69 00 00    	mov    0x693e(%rip),%eax        # 1e298 <g_1528>
   1795a:	48 98                	cltq   
   1795c:	8b 55 fc             	mov    -0x4(%rbp),%edx
   1795f:	48 8d 35 01 2f 00 00 	lea    0x2f01(%rip),%rsi        # 1a867 <g_2228+0x1667>
   17966:	48 89 c7             	mov    %rax,%rdi
   17969:	e8 85 1d ff ff       	callq  96f3 <transparent_crc>
   1796e:	8b 05 2c 69 00 00    	mov    0x692c(%rip),%eax        # 1e2a0 <g_1579>
   17974:	48 98                	cltq   
   17976:	8b 55 fc             	mov    -0x4(%rbp),%edx
   17979:	48 8d 35 f1 2e 00 00 	lea    0x2ef1(%rip),%rsi        # 1a871 <g_2228+0x1671>
   17980:	48 89 c7             	mov    %rax,%rdi
   17983:	e8 6b 1d ff ff       	callq  96f3 <transparent_crc>
   17988:	8b 05 1a 69 00 00    	mov    0x691a(%rip),%eax        # 1e2a8 <g_1638>
   1798e:	89 c1                	mov    %eax,%ecx
   17990:	8b 45 fc             	mov    -0x4(%rbp),%eax
   17993:	89 c2                	mov    %eax,%edx
   17995:	48 8d 35 dc 2e 00 00 	lea    0x2edc(%rip),%rsi        # 1a878 <g_2228+0x1678>
   1799c:	48 89 cf             	mov    %rcx,%rdi
   1799f:	e8 4f 1d ff ff       	callq  96f3 <transparent_crc>
   179a4:	8b 05 fe 68 00 00    	mov    0x68fe(%rip),%eax        # 1e2a8 <g_1638>
   179aa:	48 98                	cltq   
   179ac:	8b 55 fc             	mov    -0x4(%rbp),%edx
   179af:	48 8d 35 cc 2e 00 00 	lea    0x2ecc(%rip),%rsi        # 1a882 <g_2228+0x1682>
   179b6:	48 89 c7             	mov    %rax,%rdi
   179b9:	e8 35 1d ff ff       	callq  96f3 <transparent_crc>
   179be:	0f b7 05 e3 68 00 00 	movzwl 0x68e3(%rip),%eax        # 1e2a8 <g_1638>
   179c5:	48 0f bf c0          	movswq %ax,%rax
   179c9:	8b 55 fc             	mov    -0x4(%rbp),%edx
   179cc:	48 8d 35 b9 2e 00 00 	lea    0x2eb9(%rip),%rsi        # 1a88c <g_2228+0x168c>
   179d3:	48 89 c7             	mov    %rax,%rdi
   179d6:	e8 18 1d ff ff       	callq  96f3 <transparent_crc>
   179db:	0f b6 05 c6 68 00 00 	movzbl 0x68c6(%rip),%eax        # 1e2a8 <g_1638>
   179e2:	0f b6 c0             	movzbl %al,%eax
   179e5:	8b 55 fc             	mov    -0x4(%rbp),%edx
   179e8:	48 8d 35 a7 2e 00 00 	lea    0x2ea7(%rip),%rsi        # 1a896 <g_2228+0x1696>
   179ef:	48 89 c7             	mov    %rax,%rdi
   179f2:	e8 fc 1c ff ff       	callq  96f3 <transparent_crc>
   179f7:	8b 05 b3 68 00 00    	mov    0x68b3(%rip),%eax        # 1e2b0 <g_1642>
   179fd:	c1 e0 02             	shl    $0x2,%eax
   17a00:	c1 f8 02             	sar    $0x2,%eax
   17a03:	48 98                	cltq   
   17a05:	8b 55 fc             	mov    -0x4(%rbp),%edx
   17a08:	48 8d 35 91 2e 00 00 	lea    0x2e91(%rip),%rsi        # 1a8a0 <g_2228+0x16a0>
   17a0f:	48 89 c7             	mov    %rax,%rdi
   17a12:	e8 dc 1c ff ff       	callq  96f3 <transparent_crc>
   17a17:	48 8b 05 9a 68 00 00 	mov    0x689a(%rip),%rax        # 1e2b8 <g_1682>
   17a1e:	8b 55 fc             	mov    -0x4(%rbp),%edx
   17a21:	48 8d 35 82 2e 00 00 	lea    0x2e82(%rip),%rsi        # 1a8aa <g_2228+0x16aa>
   17a28:	48 89 c7             	mov    %rax,%rdi
   17a2b:	e8 c3 1c ff ff       	callq  96f3 <transparent_crc>
   17a30:	c7 45 f0 00 00 00 00 	movl   $0x0,-0x10(%rbp)
   17a37:	e9 93 00 00 00       	jmpq   17acf <main+0xa36>
   17a3c:	c7 45 f4 00 00 00 00 	movl   $0x0,-0xc(%rbp)
   17a43:	eb 7c                	jmp    17ac1 <main+0xa28>
   17a45:	c7 45 f8 00 00 00 00 	movl   $0x0,-0x8(%rbp)
   17a4c:	eb 69                	jmp    17ab7 <main+0xa1e>
   17a4e:	8b 45 f8             	mov    -0x8(%rbp),%eax
   17a51:	48 63 d0             	movslq %eax,%rdx
   17a54:	8b 45 f4             	mov    -0xc(%rbp),%eax
   17a57:	48 98                	cltq   
   17a59:	8b 4d f0             	mov    -0x10(%rbp),%ecx
   17a5c:	48 63 c9             	movslq %ecx,%rcx
   17a5f:	48 c1 e1 03          	shl    $0x3,%rcx
   17a63:	48 01 ca             	add    %rcx,%rdx
   17a66:	48 01 d0             	add    %rdx,%rax
   17a69:	48 8d 14 85 00 00 00 	lea    0x0(,%rax,4),%rdx
   17a70:	00 
   17a71:	48 8d 05 48 68 00 00 	lea    0x6848(%rip),%rax        # 1e2c0 <g_1694>
   17a78:	8b 04 02             	mov    (%rdx,%rax,1),%eax
   17a7b:	89 c1                	mov    %eax,%ecx
   17a7d:	8b 45 fc             	mov    -0x4(%rbp),%eax
   17a80:	89 c2                	mov    %eax,%edx
   17a82:	48 8d 35 28 2e 00 00 	lea    0x2e28(%rip),%rsi        # 1a8b1 <g_2228+0x16b1>
   17a89:	48 89 cf             	mov    %rcx,%rdi
   17a8c:	e8 62 1c ff ff       	callq  96f3 <transparent_crc>
   17a91:	83 7d fc 00          	cmpl   $0x0,-0x4(%rbp)
   17a95:	74 1c                	je     17ab3 <main+0xa1a>
   17a97:	8b 4d f8             	mov    -0x8(%rbp),%ecx
   17a9a:	8b 55 f4             	mov    -0xc(%rbp),%edx
   17a9d:	8b 45 f0             	mov    -0x10(%rbp),%eax
   17aa0:	89 c6                	mov    %eax,%esi
   17aa2:	48 8d 3d ee 2b 00 00 	lea    0x2bee(%rip),%rdi        # 1a697 <g_2228+0x1497>
   17aa9:	b8 00 00 00 00       	mov    $0x0,%eax
   17aae:	e8 cd 05 ff ff       	callq  8080 <printf@plt>
   17ab3:	83 45 f8 01          	addl   $0x1,-0x8(%rbp)
   17ab7:	83 7d f8 00          	cmpl   $0x0,-0x8(%rbp)
   17abb:	7e 91                	jle    17a4e <main+0x9b5>
   17abd:	83 45 f4 01          	addl   $0x1,-0xc(%rbp)
   17ac1:	83 7d f4 07          	cmpl   $0x7,-0xc(%rbp)
   17ac5:	0f 8e 7a ff ff ff    	jle    17a45 <main+0x9ac>
   17acb:	83 45 f0 01          	addl   $0x1,-0x10(%rbp)
   17acf:	83 7d f0 03          	cmpl   $0x3,-0x10(%rbp)
   17ad3:	0f 8e 63 ff ff ff    	jle    17a3c <main+0x9a3>
   17ad9:	c7 45 f0 00 00 00 00 	movl   $0x0,-0x10(%rbp)
   17ae0:	e9 ad 00 00 00       	jmpq   17b92 <main+0xaf9>
   17ae5:	c7 45 f4 00 00 00 00 	movl   $0x0,-0xc(%rbp)
   17aec:	e9 93 00 00 00       	jmpq   17b84 <main+0xaeb>
   17af1:	c7 45 f8 00 00 00 00 	movl   $0x0,-0x8(%rbp)
   17af8:	eb 7c                	jmp    17b76 <main+0xadd>
   17afa:	8b 45 f8             	mov    -0x8(%rbp),%eax
   17afd:	48 63 f0             	movslq %eax,%rsi
   17b00:	8b 45 f0             	mov    -0x10(%rbp),%eax
   17b03:	48 63 d0             	movslq %eax,%rdx
   17b06:	8b 45 f4             	mov    -0xc(%rbp),%eax
   17b09:	48 63 c8             	movslq %eax,%rcx
   17b0c:	48 89 d0             	mov    %rdx,%rax
   17b0f:	48 c1 e0 02          	shl    $0x2,%rax
   17b13:	48 01 d0             	add    %rdx,%rax
   17b16:	48 c1 e0 02          	shl    $0x2,%rax
   17b1a:	48 01 d0             	add    %rdx,%rax
   17b1d:	48 89 ca             	mov    %rcx,%rdx
   17b20:	48 c1 e2 03          	shl    $0x3,%rdx
   17b24:	48 29 ca             	sub    %rcx,%rdx
   17b27:	48 01 d0             	add    %rdx,%rax
   17b2a:	48 8d 14 30          	lea    (%rax,%rsi,1),%rdx
   17b2e:	48 8d 05 0b 68 00 00 	lea    0x680b(%rip),%rax        # 1e340 <g_1712>
   17b35:	48 01 d0             	add    %rdx,%rax
   17b38:	0f b6 00             	movzbl (%rax),%eax
   17b3b:	0f b6 c0             	movzbl %al,%eax
   17b3e:	8b 55 fc             	mov    -0x4(%rbp),%edx
   17b41:	48 8d 35 79 2d 00 00 	lea    0x2d79(%rip),%rsi        # 1a8c1 <g_2228+0x16c1>
   17b48:	48 89 c7             	mov    %rax,%rdi
   17b4b:	e8 a3 1b ff ff       	callq  96f3 <transparent_crc>
   17b50:	83 7d fc 00          	cmpl   $0x0,-0x4(%rbp)
   17b54:	74 1c                	je     17b72 <main+0xad9>
   17b56:	8b 4d f8             	mov    -0x8(%rbp),%ecx
   17b59:	8b 55 f4             	mov    -0xc(%rbp),%edx
   17b5c:	8b 45 f0             	mov    -0x10(%rbp),%eax
   17b5f:	89 c6                	mov    %eax,%esi
   17b61:	48 8d 3d 2f 2b 00 00 	lea    0x2b2f(%rip),%rdi        # 1a697 <g_2228+0x1497>
   17b68:	b8 00 00 00 00       	mov    $0x0,%eax
   17b6d:	e8 0e 05 ff ff       	callq  8080 <printf@plt>
   17b72:	83 45 f8 01          	addl   $0x1,-0x8(%rbp)
   17b76:	83 7d f8 06          	cmpl   $0x6,-0x8(%rbp)
   17b7a:	0f 8e 7a ff ff ff    	jle    17afa <main+0xa61>
   17b80:	83 45 f4 01          	addl   $0x1,-0xc(%rbp)
   17b84:	83 7d f4 02          	cmpl   $0x2,-0xc(%rbp)
   17b88:	0f 8e 63 ff ff ff    	jle    17af1 <main+0xa58>
   17b8e:	83 45 f0 01          	addl   $0x1,-0x10(%rbp)
   17b92:	83 7d f0 04          	cmpl   $0x4,-0x10(%rbp)
   17b96:	0f 8e 49 ff ff ff    	jle    17ae5 <main+0xa4c>
   17b9c:	8b 05 7e c2 00 00    	mov    0xc27e(%rip),%eax        # 23e20 <g_1734>
   17ba2:	c1 e0 02             	shl    $0x2,%eax
   17ba5:	c1 f8 02             	sar    $0x2,%eax
   17ba8:	48 98                	cltq   
   17baa:	8b 55 fc             	mov    -0x4(%rbp),%edx
   17bad:	48 8d 35 1d 2d 00 00 	lea    0x2d1d(%rip),%rsi        # 1a8d1 <g_2228+0x16d1>
   17bb4:	48 89 c7             	mov    %rax,%rdi
   17bb7:	e8 37 1b ff ff       	callq  96f3 <transparent_crc>
   17bbc:	48 8b 05 ed 67 00 00 	mov    0x67ed(%rip),%rax        # 1e3b0 <g_1757>
   17bc3:	8b 55 fc             	mov    -0x4(%rbp),%edx
   17bc6:	48 8d 35 0e 2d 00 00 	lea    0x2d0e(%rip),%rsi        # 1a8db <g_2228+0x16db>
   17bcd:	48 89 c7             	mov    %rax,%rdi
   17bd0:	e8 1e 1b ff ff       	callq  96f3 <transparent_crc>
   17bd5:	48 8b 05 d4 67 00 00 	mov    0x67d4(%rip),%rax        # 1e3b0 <g_1757>
   17bdc:	8b 55 fc             	mov    -0x4(%rbp),%edx
   17bdf:	48 8d 35 ff 2c 00 00 	lea    0x2cff(%rip),%rsi        # 1a8e5 <g_2228+0x16e5>
   17be6:	48 89 c7             	mov    %rax,%rdi
   17be9:	e8 05 1b ff ff       	callq  96f3 <transparent_crc>
   17bee:	48 8b 05 c3 67 00 00 	mov    0x67c3(%rip),%rax        # 1e3b8 <g_1765>
   17bf5:	8b 55 fc             	mov    -0x4(%rbp),%edx
   17bf8:	48 8d 35 f0 2c 00 00 	lea    0x2cf0(%rip),%rsi        # 1a8ef <g_2228+0x16ef>
   17bff:	48 89 c7             	mov    %rax,%rdi
   17c02:	e8 ec 1a ff ff       	callq  96f3 <transparent_crc>
   17c07:	48 8b 05 aa 67 00 00 	mov    0x67aa(%rip),%rax        # 1e3b8 <g_1765>
   17c0e:	8b 55 fc             	mov    -0x4(%rbp),%edx
   17c11:	48 8d 35 e1 2c 00 00 	lea    0x2ce1(%rip),%rsi        # 1a8f9 <g_2228+0x16f9>
   17c18:	48 89 c7             	mov    %rax,%rdi
   17c1b:	e8 d3 1a ff ff       	callq  96f3 <transparent_crc>
   17c20:	c7 45 f0 00 00 00 00 	movl   $0x0,-0x10(%rbp)
   17c27:	e9 ab 00 00 00       	jmpq   17cd7 <main+0xc3e>
   17c2c:	c7 45 f4 00 00 00 00 	movl   $0x0,-0xc(%rbp)
   17c33:	e9 91 00 00 00       	jmpq   17cc9 <main+0xc30>
   17c38:	8b 45 f4             	mov    -0xc(%rbp),%eax
   17c3b:	48 98                	cltq   
   17c3d:	8b 55 f0             	mov    -0x10(%rbp),%edx
   17c40:	48 63 d2             	movslq %edx,%rdx
   17c43:	48 c1 e2 03          	shl    $0x3,%rdx
   17c47:	48 01 d0             	add    %rdx,%rax
   17c4a:	48 8d 14 c5 00 00 00 	lea    0x0(,%rax,8),%rdx
   17c51:	00 
   17c52:	48 8d 05 67 67 00 00 	lea    0x6767(%rip),%rax        # 1e3c0 <g_1766>
   17c59:	48 8b 04 02          	mov    (%rdx,%rax,1),%rax
   17c5d:	8b 55 fc             	mov    -0x4(%rbp),%edx
   17c60:	48 8d 35 9c 2c 00 00 	lea    0x2c9c(%rip),%rsi        # 1a903 <g_2228+0x1703>
   17c67:	48 89 c7             	mov    %rax,%rdi
   17c6a:	e8 84 1a ff ff       	callq  96f3 <transparent_crc>
   17c6f:	8b 45 f4             	mov    -0xc(%rbp),%eax
   17c72:	48 98                	cltq   
   17c74:	8b 55 f0             	mov    -0x10(%rbp),%edx
   17c77:	48 63 d2             	movslq %edx,%rdx
   17c7a:	48 c1 e2 03          	shl    $0x3,%rdx
   17c7e:	48 01 d0             	add    %rdx,%rax
   17c81:	48 8d 14 c5 00 00 00 	lea    0x0(,%rax,8),%rdx
   17c88:	00 
   17c89:	48 8d 05 30 67 00 00 	lea    0x6730(%rip),%rax        # 1e3c0 <g_1766>
   17c90:	48 8b 04 02          	mov    (%rdx,%rax,1),%rax
   17c94:	8b 55 fc             	mov    -0x4(%rbp),%edx
   17c97:	48 8d 35 75 2c 00 00 	lea    0x2c75(%rip),%rsi        # 1a913 <g_2228+0x1713>
   17c9e:	48 89 c7             	mov    %rax,%rdi
   17ca1:	e8 4d 1a ff ff       	callq  96f3 <transparent_crc>
   17ca6:	83 7d fc 00          	cmpl   $0x0,-0x4(%rbp)
   17caa:	74 19                	je     17cc5 <main+0xc2c>
   17cac:	8b 55 f4             	mov    -0xc(%rbp),%edx
   17caf:	8b 45 f0             	mov    -0x10(%rbp),%eax
   17cb2:	89 c6                	mov    %eax,%esi
   17cb4:	48 8d 3d 95 2a 00 00 	lea    0x2a95(%rip),%rdi        # 1a750 <g_2228+0x1550>
   17cbb:	b8 00 00 00 00       	mov    $0x0,%eax
   17cc0:	e8 bb 03 ff ff       	callq  8080 <printf@plt>
   17cc5:	83 45 f4 01          	addl   $0x1,-0xc(%rbp)
   17cc9:	83 7d f4 07          	cmpl   $0x7,-0xc(%rbp)
   17ccd:	0f 8e 65 ff ff ff    	jle    17c38 <main+0xb9f>
   17cd3:	83 45 f0 01          	addl   $0x1,-0x10(%rbp)
   17cd7:	83 7d f0 01          	cmpl   $0x1,-0x10(%rbp)
   17cdb:	0f 8e 4b ff ff ff    	jle    17c2c <main+0xb93>
   17ce1:	48 8b 05 58 67 00 00 	mov    0x6758(%rip),%rax        # 1e440 <g_1767>
   17ce8:	8b 55 fc             	mov    -0x4(%rbp),%edx
   17ceb:	48 8d 35 31 2c 00 00 	lea    0x2c31(%rip),%rsi        # 1a923 <g_2228+0x1723>
   17cf2:	48 89 c7             	mov    %rax,%rdi
   17cf5:	e8 f9 19 ff ff       	callq  96f3 <transparent_crc>
   17cfa:	48 8b 05 3f 67 00 00 	mov    0x673f(%rip),%rax        # 1e440 <g_1767>
   17d01:	8b 55 fc             	mov    -0x4(%rbp),%edx
   17d04:	48 8d 35 22 2c 00 00 	lea    0x2c22(%rip),%rsi        # 1a92d <g_2228+0x172d>
   17d0b:	48 89 c7             	mov    %rax,%rdi
   17d0e:	e8 e0 19 ff ff       	callq  96f3 <transparent_crc>
   17d13:	c7 45 f0 00 00 00 00 	movl   $0x0,-0x10(%rbp)
   17d1a:	eb 4b                	jmp    17d67 <main+0xcce>
   17d1c:	8b 45 f0             	mov    -0x10(%rbp),%eax
   17d1f:	48 98                	cltq   
   17d21:	48 8d 14 c5 00 00 00 	lea    0x0(,%rax,8),%rdx
   17d28:	00 
   17d29:	48 8d 05 30 67 00 00 	lea    0x6730(%rip),%rax        # 1e460 <g_1951>
   17d30:	8b 04 02             	mov    (%rdx,%rax,1),%eax
   17d33:	48 98                	cltq   
   17d35:	8b 55 fc             	mov    -0x4(%rbp),%edx
   17d38:	48 8d 35 f8 2b 00 00 	lea    0x2bf8(%rip),%rsi        # 1a937 <g_2228+0x1737>
   17d3f:	48 89 c7             	mov    %rax,%rdi
   17d42:	e8 ac 19 ff ff       	callq  96f3 <transparent_crc>
   17d47:	83 7d fc 00          	cmpl   $0x0,-0x4(%rbp)
   17d4b:	74 16                	je     17d63 <main+0xcca>
   17d4d:	8b 45 f0             	mov    -0x10(%rbp),%eax
   17d50:	89 c6                	mov    %eax,%esi
   17d52:	48 8d 3d 92 29 00 00 	lea    0x2992(%rip),%rdi        # 1a6eb <g_2228+0x14eb>
   17d59:	b8 00 00 00 00       	mov    $0x0,%eax
   17d5e:	e8 1d 03 ff ff       	callq  8080 <printf@plt>
   17d63:	83 45 f0 01          	addl   $0x1,-0x10(%rbp)
   17d67:	83 7d f0 05          	cmpl   $0x5,-0x10(%rbp)
   17d6b:	7e af                	jle    17d1c <main+0xc83>
   17d6d:	8b 05 1d 67 00 00    	mov    0x671d(%rip),%eax        # 1e490 <g_1952>
   17d73:	48 98                	cltq   
   17d75:	8b 55 fc             	mov    -0x4(%rbp),%edx
   17d78:	48 8d 35 c5 2b 00 00 	lea    0x2bc5(%rip),%rsi        # 1a944 <g_2228+0x1744>
   17d7f:	48 89 c7             	mov    %rax,%rdi
   17d82:	e8 6c 19 ff ff       	callq  96f3 <transparent_crc>
   17d87:	8b 05 0b 67 00 00    	mov    0x670b(%rip),%eax        # 1e498 <g_1953>
   17d8d:	48 98                	cltq   
   17d8f:	8b 55 fc             	mov    -0x4(%rbp),%edx
   17d92:	48 8d 35 b5 2b 00 00 	lea    0x2bb5(%rip),%rsi        # 1a94e <g_2228+0x174e>
   17d99:	48 89 c7             	mov    %rax,%rdi
   17d9c:	e8 52 19 ff ff       	callq  96f3 <transparent_crc>
   17da1:	8b 05 f9 66 00 00    	mov    0x66f9(%rip),%eax        # 1e4a0 <g_1954>
   17da7:	48 98                	cltq   
   17da9:	8b 55 fc             	mov    -0x4(%rbp),%edx
   17dac:	48 8d 35 a5 2b 00 00 	lea    0x2ba5(%rip),%rsi        # 1a958 <g_2228+0x1758>
   17db3:	48 89 c7             	mov    %rax,%rdi
   17db6:	e8 38 19 ff ff       	callq  96f3 <transparent_crc>
   17dbb:	c7 45 f0 00 00 00 00 	movl   $0x0,-0x10(%rbp)
   17dc2:	eb 4b                	jmp    17e0f <main+0xd76>
   17dc4:	8b 45 f0             	mov    -0x10(%rbp),%eax
   17dc7:	48 98                	cltq   
   17dc9:	48 8d 14 c5 00 00 00 	lea    0x0(,%rax,8),%rdx
   17dd0:	00 
   17dd1:	48 8d 05 d0 66 00 00 	lea    0x66d0(%rip),%rax        # 1e4a8 <g_1955>
   17dd8:	8b 04 02             	mov    (%rdx,%rax,1),%eax
   17ddb:	48 98                	cltq   
   17ddd:	8b 55 fc             	mov    -0x4(%rbp),%edx
   17de0:	48 8d 35 7b 2b 00 00 	lea    0x2b7b(%rip),%rsi        # 1a962 <g_2228+0x1762>
   17de7:	48 89 c7             	mov    %rax,%rdi
   17dea:	e8 04 19 ff ff       	callq  96f3 <transparent_crc>
   17def:	83 7d fc 00          	cmpl   $0x0,-0x4(%rbp)
   17df3:	74 16                	je     17e0b <main+0xd72>
   17df5:	8b 45 f0             	mov    -0x10(%rbp),%eax
   17df8:	89 c6                	mov    %eax,%esi
   17dfa:	48 8d 3d ea 28 00 00 	lea    0x28ea(%rip),%rdi        # 1a6eb <g_2228+0x14eb>
   17e01:	b8 00 00 00 00       	mov    $0x0,%eax
   17e06:	e8 75 02 ff ff       	callq  8080 <printf@plt>
   17e0b:	83 45 f0 01          	addl   $0x1,-0x10(%rbp)
   17e0f:	83 7d f0 00          	cmpl   $0x0,-0x10(%rbp)
   17e13:	7e af                	jle    17dc4 <main+0xd2b>
   17e15:	8b 05 95 66 00 00    	mov    0x6695(%rip),%eax        # 1e4b0 <g_1956>
   17e1b:	48 98                	cltq   
   17e1d:	8b 55 fc             	mov    -0x4(%rbp),%edx
   17e20:	48 8d 35 48 2b 00 00 	lea    0x2b48(%rip),%rsi        # 1a96f <g_2228+0x176f>
   17e27:	48 89 c7             	mov    %rax,%rdi
   17e2a:	e8 c4 18 ff ff       	callq  96f3 <transparent_crc>
   17e2f:	c7 45 f0 00 00 00 00 	movl   $0x0,-0x10(%rbp)
   17e36:	e9 b7 00 00 00       	jmpq   17ef2 <main+0xe59>
   17e3b:	c7 45 f4 00 00 00 00 	movl   $0x0,-0xc(%rbp)
   17e42:	e9 9d 00 00 00       	jmpq   17ee4 <main+0xe4b>
   17e47:	c7 45 f8 00 00 00 00 	movl   $0x0,-0x8(%rbp)
   17e4e:	e9 83 00 00 00       	jmpq   17ed6 <main+0xe3d>
   17e53:	8b 45 f8             	mov    -0x8(%rbp),%eax
   17e56:	48 63 f0             	movslq %eax,%rsi
   17e59:	8b 45 f0             	mov    -0x10(%rbp),%eax
   17e5c:	48 98                	cltq   
   17e5e:	8b 55 f4             	mov    -0xc(%rbp),%edx
   17e61:	48 63 ca             	movslq %edx,%rcx
   17e64:	48 89 c2             	mov    %rax,%rdx
   17e67:	48 01 d2             	add    %rdx,%rdx
   17e6a:	48 01 c2             	add    %rax,%rdx
   17e6d:	48 8d 04 d5 00 00 00 	lea    0x0(,%rdx,8),%rax
   17e74:	00 
   17e75:	48 89 c2             	mov    %rax,%rdx
   17e78:	48 89 c8             	mov    %rcx,%rax
   17e7b:	48 01 c0             	add    %rax,%rax
   17e7e:	48 01 c8             	add    %rcx,%rax
   17e81:	48 01 c0             	add    %rax,%rax
   17e84:	48 01 d0             	add    %rdx,%rax
   17e87:	48 01 f0             	add    %rsi,%rax
   17e8a:	48 8d 14 c5 00 00 00 	lea    0x0(,%rax,8),%rdx
   17e91:	00 
   17e92:	48 8d 05 27 66 00 00 	lea    0x6627(%rip),%rax        # 1e4c0 <g_1957>
   17e99:	8b 04 02             	mov    (%rdx,%rax,1),%eax
   17e9c:	48 98                	cltq   
   17e9e:	8b 55 fc             	mov    -0x4(%rbp),%edx
   17ea1:	48 8d 35 d1 2a 00 00 	lea    0x2ad1(%rip),%rsi        # 1a979 <g_2228+0x1779>
   17ea8:	48 89 c7             	mov    %rax,%rdi
   17eab:	e8 43 18 ff ff       	callq  96f3 <transparent_crc>
   17eb0:	83 7d fc 00          	cmpl   $0x0,-0x4(%rbp)
   17eb4:	74 1c                	je     17ed2 <main+0xe39>
   17eb6:	8b 4d f8             	mov    -0x8(%rbp),%ecx
   17eb9:	8b 55 f4             	mov    -0xc(%rbp),%edx
   17ebc:	8b 45 f0             	mov    -0x10(%rbp),%eax
   17ebf:	89 c6                	mov    %eax,%esi
   17ec1:	48 8d 3d cf 27 00 00 	lea    0x27cf(%rip),%rdi        # 1a697 <g_2228+0x1497>
   17ec8:	b8 00 00 00 00       	mov    $0x0,%eax
   17ecd:	e8 ae 01 ff ff       	callq  8080 <printf@plt>
   17ed2:	83 45 f8 01          	addl   $0x1,-0x8(%rbp)
   17ed6:	83 7d f8 05          	cmpl   $0x5,-0x8(%rbp)
   17eda:	0f 8e 73 ff ff ff    	jle    17e53 <main+0xdba>
   17ee0:	83 45 f4 01          	addl   $0x1,-0xc(%rbp)
   17ee4:	83 7d f4 03          	cmpl   $0x3,-0xc(%rbp)
   17ee8:	0f 8e 59 ff ff ff    	jle    17e47 <main+0xdae>
   17eee:	83 45 f0 01          	addl   $0x1,-0x10(%rbp)
   17ef2:	83 7d f0 09          	cmpl   $0x9,-0x10(%rbp)
   17ef6:	0f 8e 3f ff ff ff    	jle    17e3b <main+0xda2>
   17efc:	8b 05 3e 6d 00 00    	mov    0x6d3e(%rip),%eax        # 1ec40 <g_1958>
   17f02:	48 98                	cltq   
   17f04:	8b 55 fc             	mov    -0x4(%rbp),%edx
   17f07:	48 8d 35 7e 2a 00 00 	lea    0x2a7e(%rip),%rsi        # 1a98c <g_2228+0x178c>
   17f0e:	48 89 c7             	mov    %rax,%rdi
   17f11:	e8 dd 17 ff ff       	callq  96f3 <transparent_crc>
   17f16:	8b 05 2c 6d 00 00    	mov    0x6d2c(%rip),%eax        # 1ec48 <g_1959>
   17f1c:	48 98                	cltq   
   17f1e:	8b 55 fc             	mov    -0x4(%rbp),%edx
   17f21:	48 8d 35 6e 2a 00 00 	lea    0x2a6e(%rip),%rsi        # 1a996 <g_2228+0x1796>
   17f28:	48 89 c7             	mov    %rax,%rdi
   17f2b:	e8 c3 17 ff ff       	callq  96f3 <transparent_crc>
   17f30:	8b 05 1a 6d 00 00    	mov    0x6d1a(%rip),%eax        # 1ec50 <g_1960>
   17f36:	48 98                	cltq   
   17f38:	8b 55 fc             	mov    -0x4(%rbp),%edx
   17f3b:	48 8d 35 5e 2a 00 00 	lea    0x2a5e(%rip),%rsi        # 1a9a0 <g_2228+0x17a0>
   17f42:	48 89 c7             	mov    %rax,%rdi
   17f45:	e8 a9 17 ff ff       	callq  96f3 <transparent_crc>
   17f4a:	8b 05 08 6d 00 00    	mov    0x6d08(%rip),%eax        # 1ec58 <g_1961>
   17f50:	48 98                	cltq   
   17f52:	8b 55 fc             	mov    -0x4(%rbp),%edx
   17f55:	48 8d 35 4e 2a 00 00 	lea    0x2a4e(%rip),%rsi        # 1a9aa <g_2228+0x17aa>
   17f5c:	48 89 c7             	mov    %rax,%rdi
   17f5f:	e8 8f 17 ff ff       	callq  96f3 <transparent_crc>
   17f64:	8b 05 f6 6c 00 00    	mov    0x6cf6(%rip),%eax        # 1ec60 <g_1962>
   17f6a:	48 98                	cltq   
   17f6c:	8b 55 fc             	mov    -0x4(%rbp),%edx
   17f6f:	48 8d 35 3e 2a 00 00 	lea    0x2a3e(%rip),%rsi        # 1a9b4 <g_2228+0x17b4>
   17f76:	48 89 c7             	mov    %rax,%rdi
   17f79:	e8 75 17 ff ff       	callq  96f3 <transparent_crc>
   17f7e:	48 8b 05 e3 6c 00 00 	mov    0x6ce3(%rip),%rax        # 1ec68 <g_2019>
   17f85:	8b 55 fc             	mov    -0x4(%rbp),%edx
   17f88:	48 8d 35 2f 2a 00 00 	lea    0x2a2f(%rip),%rsi        # 1a9be <g_2228+0x17be>
   17f8f:	48 89 c7             	mov    %rax,%rdi
   17f92:	e8 5c 17 ff ff       	callq  96f3 <transparent_crc>
   17f97:	48 8b 05 ca 6c 00 00 	mov    0x6cca(%rip),%rax        # 1ec68 <g_2019>
   17f9e:	8b 55 fc             	mov    -0x4(%rbp),%edx
   17fa1:	48 8d 35 20 2a 00 00 	lea    0x2a20(%rip),%rsi        # 1a9c8 <g_2228+0x17c8>
   17fa8:	48 89 c7             	mov    %rax,%rdi
   17fab:	e8 43 17 ff ff       	callq  96f3 <transparent_crc>
   17fb0:	48 8b 05 a1 10 00 00 	mov    0x10a1(%rip),%rax        # 19058 <g_2021>
   17fb7:	8b 55 fc             	mov    -0x4(%rbp),%edx
   17fba:	48 8d 35 11 2a 00 00 	lea    0x2a11(%rip),%rsi        # 1a9d2 <g_2228+0x17d2>
   17fc1:	48 89 c7             	mov    %rax,%rdi
   17fc4:	e8 2a 17 ff ff       	callq  96f3 <transparent_crc>
   17fc9:	48 8b 05 88 10 00 00 	mov    0x1088(%rip),%rax        # 19058 <g_2021>
   17fd0:	8b 55 fc             	mov    -0x4(%rbp),%edx
   17fd3:	48 8d 35 02 2a 00 00 	lea    0x2a02(%rip),%rsi        # 1a9dc <g_2228+0x17dc>
   17fda:	48 89 c7             	mov    %rax,%rdi
   17fdd:	e8 11 17 ff ff       	callq  96f3 <transparent_crc>
   17fe2:	48 8b 05 87 6c 00 00 	mov    0x6c87(%rip),%rax        # 1ec70 <g_2022>
   17fe9:	8b 55 fc             	mov    -0x4(%rbp),%edx
   17fec:	48 8d 35 f3 29 00 00 	lea    0x29f3(%rip),%rsi        # 1a9e6 <g_2228+0x17e6>
   17ff3:	48 89 c7             	mov    %rax,%rdi
   17ff6:	e8 f8 16 ff ff       	callq  96f3 <transparent_crc>
   17ffb:	48 8b 05 6e 6c 00 00 	mov    0x6c6e(%rip),%rax        # 1ec70 <g_2022>
   18002:	8b 55 fc             	mov    -0x4(%rbp),%edx
   18005:	48 8d 35 e4 29 00 00 	lea    0x29e4(%rip),%rsi        # 1a9f0 <g_2228+0x17f0>
   1800c:	48 89 c7             	mov    %rax,%rdi
   1800f:	e8 df 16 ff ff       	callq  96f3 <transparent_crc>
   18014:	c7 45 f0 00 00 00 00 	movl   $0x0,-0x10(%rbp)
   1801b:	eb 74                	jmp    18091 <main+0xff8>
   1801d:	8b 45 f0             	mov    -0x10(%rbp),%eax
   18020:	48 98                	cltq   
   18022:	48 8d 14 c5 00 00 00 	lea    0x0(,%rax,8),%rdx
   18029:	00 
   1802a:	48 8d 05 2f 10 00 00 	lea    0x102f(%rip),%rax        # 19060 <g_2023>
   18031:	48 8b 04 02          	mov    (%rdx,%rax,1),%rax
   18035:	8b 55 fc             	mov    -0x4(%rbp),%edx
   18038:	48 8d 35 bb 29 00 00 	lea    0x29bb(%rip),%rsi        # 1a9fa <g_2228+0x17fa>
   1803f:	48 89 c7             	mov    %rax,%rdi
   18042:	e8 ac 16 ff ff       	callq  96f3 <transparent_crc>
   18047:	8b 45 f0             	mov    -0x10(%rbp),%eax
   1804a:	48 98                	cltq   
   1804c:	48 8d 14 c5 00 00 00 	lea    0x0(,%rax,8),%rdx
   18053:	00 
   18054:	48 8d 05 05 10 00 00 	lea    0x1005(%rip),%rax        # 19060 <g_2023>
   1805b:	48 8b 04 02          	mov    (%rdx,%rax,1),%rax
   1805f:	8b 55 fc             	mov    -0x4(%rbp),%edx
   18062:	48 8d 35 9e 29 00 00 	lea    0x299e(%rip),%rsi        # 1aa07 <g_2228+0x1807>
   18069:	48 89 c7             	mov    %rax,%rdi
   1806c:	e8 82 16 ff ff       	callq  96f3 <transparent_crc>
   18071:	83 7d fc 00          	cmpl   $0x0,-0x4(%rbp)
   18075:	74 16                	je     1808d <main+0xff4>
   18077:	8b 45 f0             	mov    -0x10(%rbp),%eax
   1807a:	89 c6                	mov    %eax,%esi
   1807c:	48 8d 3d 68 26 00 00 	lea    0x2668(%rip),%rdi        # 1a6eb <g_2228+0x14eb>
   18083:	b8 00 00 00 00       	mov    $0x0,%eax
   18088:	e8 f3 ff fe ff       	callq  8080 <printf@plt>
   1808d:	83 45 f0 01          	addl   $0x1,-0x10(%rbp)
   18091:	83 7d f0 08          	cmpl   $0x8,-0x10(%rbp)
   18095:	7e 86                	jle    1801d <main+0xf84>
   18097:	48 8b 05 da 6b 00 00 	mov    0x6bda(%rip),%rax        # 1ec78 <g_2024>
   1809e:	8b 55 fc             	mov    -0x4(%rbp),%edx
   180a1:	48 8d 35 6c 29 00 00 	lea    0x296c(%rip),%rsi        # 1aa14 <g_2228+0x1814>
   180a8:	48 89 c7             	mov    %rax,%rdi
   180ab:	e8 43 16 ff ff       	callq  96f3 <transparent_crc>
   180b0:	48 8b 05 c1 6b 00 00 	mov    0x6bc1(%rip),%rax        # 1ec78 <g_2024>
   180b7:	8b 55 fc             	mov    -0x4(%rbp),%edx
   180ba:	48 8d 35 5d 29 00 00 	lea    0x295d(%rip),%rsi        # 1aa1e <g_2228+0x181e>
   180c1:	48 89 c7             	mov    %rax,%rdi
   180c4:	e8 2a 16 ff ff       	callq  96f3 <transparent_crc>
   180c9:	c7 45 f0 00 00 00 00 	movl   $0x0,-0x10(%rbp)
   180d0:	e9 ab 00 00 00       	jmpq   18180 <main+0x10e7>
   180d5:	c7 45 f4 00 00 00 00 	movl   $0x0,-0xc(%rbp)
   180dc:	e9 91 00 00 00       	jmpq   18172 <main+0x10d9>
   180e1:	8b 45 f4             	mov    -0xc(%rbp),%eax
   180e4:	48 98                	cltq   
   180e6:	8b 55 f0             	mov    -0x10(%rbp),%edx
   180e9:	48 63 d2             	movslq %edx,%rdx
   180ec:	48 c1 e2 02          	shl    $0x2,%rdx
   180f0:	48 01 d0             	add    %rdx,%rax
   180f3:	48 8d 14 c5 00 00 00 	lea    0x0(,%rax,8),%rdx
   180fa:	00 
   180fb:	48 8d 05 be 0f 00 00 	lea    0xfbe(%rip),%rax        # 190c0 <g_2025>
   18102:	48 8b 04 02          	mov    (%rdx,%rax,1),%rax
   18106:	8b 55 fc             	mov    -0x4(%rbp),%edx
   18109:	48 8d 35 18 29 00 00 	lea    0x2918(%rip),%rsi        # 1aa28 <g_2228+0x1828>
   18110:	48 89 c7             	mov    %rax,%rdi
   18113:	e8 db 15 ff ff       	callq  96f3 <transparent_crc>
   18118:	8b 45 f4             	mov    -0xc(%rbp),%eax
   1811b:	48 98                	cltq   
   1811d:	8b 55 f0             	mov    -0x10(%rbp),%edx
   18120:	48 63 d2             	movslq %edx,%rdx
   18123:	48 c1 e2 02          	shl    $0x2,%rdx
   18127:	48 01 d0             	add    %rdx,%rax
   1812a:	48 8d 14 c5 00 00 00 	lea    0x0(,%rax,8),%rdx
   18131:	00 
   18132:	48 8d 05 87 0f 00 00 	lea    0xf87(%rip),%rax        # 190c0 <g_2025>
   18139:	48 8b 04 02          	mov    (%rdx,%rax,1),%rax
   1813d:	8b 55 fc             	mov    -0x4(%rbp),%edx
   18140:	48 8d 35 f1 28 00 00 	lea    0x28f1(%rip),%rsi        # 1aa38 <g_2228+0x1838>
   18147:	48 89 c7             	mov    %rax,%rdi
   1814a:	e8 a4 15 ff ff       	callq  96f3 <transparent_crc>
   1814f:	83 7d fc 00          	cmpl   $0x0,-0x4(%rbp)
   18153:	74 19                	je     1816e <main+0x10d5>
   18155:	8b 55 f4             	mov    -0xc(%rbp),%edx
   18158:	8b 45 f0             	mov    -0x10(%rbp),%eax
   1815b:	89 c6                	mov    %eax,%esi
   1815d:	48 8d 3d ec 25 00 00 	lea    0x25ec(%rip),%rdi        # 1a750 <g_2228+0x1550>
   18164:	b8 00 00 00 00       	mov    $0x0,%eax
   18169:	e8 12 ff fe ff       	callq  8080 <printf@plt>
   1816e:	83 45 f4 01          	addl   $0x1,-0xc(%rbp)
   18172:	83 7d f4 03          	cmpl   $0x3,-0xc(%rbp)
   18176:	0f 8e 65 ff ff ff    	jle    180e1 <main+0x1048>
   1817c:	83 45 f0 01          	addl   $0x1,-0x10(%rbp)
   18180:	83 7d f0 08          	cmpl   $0x8,-0x10(%rbp)
   18184:	0f 8e 4b ff ff ff    	jle    180d5 <main+0x103c>
   1818a:	48 8b 05 ef 6a 00 00 	mov    0x6aef(%rip),%rax        # 1ec80 <g_2026>
   18191:	8b 55 fc             	mov    -0x4(%rbp),%edx
   18194:	48 8d 35 ad 28 00 00 	lea    0x28ad(%rip),%rsi        # 1aa48 <g_2228+0x1848>
   1819b:	48 89 c7             	mov    %rax,%rdi
   1819e:	e8 50 15 ff ff       	callq  96f3 <transparent_crc>
   181a3:	48 8b 05 d6 6a 00 00 	mov    0x6ad6(%rip),%rax        # 1ec80 <g_2026>
   181aa:	8b 55 fc             	mov    -0x4(%rbp),%edx
   181ad:	48 8d 35 9e 28 00 00 	lea    0x289e(%rip),%rsi        # 1aa52 <g_2228+0x1852>
   181b4:	48 89 c7             	mov    %rax,%rdi
   181b7:	e8 37 15 ff ff       	callq  96f3 <transparent_crc>
   181bc:	c7 45 f0 00 00 00 00 	movl   $0x0,-0x10(%rbp)
   181c3:	eb 74                	jmp    18239 <main+0x11a0>
   181c5:	8b 45 f0             	mov    -0x10(%rbp),%eax
   181c8:	48 98                	cltq   
   181ca:	48 8d 14 c5 00 00 00 	lea    0x0(,%rax,8),%rdx
   181d1:	00 
   181d2:	48 8d 05 c7 6a 00 00 	lea    0x6ac7(%rip),%rax        # 1eca0 <g_2027>
   181d9:	48 8b 04 02          	mov    (%rdx,%rax,1),%rax
   181dd:	8b 55 fc             	mov    -0x4(%rbp),%edx
   181e0:	48 8d 35 75 28 00 00 	lea    0x2875(%rip),%rsi        # 1aa5c <g_2228+0x185c>
   181e7:	48 89 c7             	mov    %rax,%rdi
   181ea:	e8 04 15 ff ff       	callq  96f3 <transparent_crc>
   181ef:	8b 45 f0             	mov    -0x10(%rbp),%eax
   181f2:	48 98                	cltq   
   181f4:	48 8d 14 c5 00 00 00 	lea    0x0(,%rax,8),%rdx
   181fb:	00 
   181fc:	48 8d 05 9d 6a 00 00 	lea    0x6a9d(%rip),%rax        # 1eca0 <g_2027>
   18203:	48 8b 04 02          	mov    (%rdx,%rax,1),%rax
   18207:	8b 55 fc             	mov    -0x4(%rbp),%edx
   1820a:	48 8d 35 58 28 00 00 	lea    0x2858(%rip),%rsi        # 1aa69 <g_2228+0x1869>
   18211:	48 89 c7             	mov    %rax,%rdi
   18214:	e8 da 14 ff ff       	callq  96f3 <transparent_crc>
   18219:	83 7d fc 00          	cmpl   $0x0,-0x4(%rbp)
   1821d:	74 16                	je     18235 <main+0x119c>
   1821f:	8b 45 f0             	mov    -0x10(%rbp),%eax
   18222:	89 c6                	mov    %eax,%esi
   18224:	48 8d 3d c0 24 00 00 	lea    0x24c0(%rip),%rdi        # 1a6eb <g_2228+0x14eb>
   1822b:	b8 00 00 00 00       	mov    $0x0,%eax
   18230:	e8 4b fe fe ff       	callq  8080 <printf@plt>
   18235:	83 45 f0 01          	addl   $0x1,-0x10(%rbp)
   18239:	83 7d f0 05          	cmpl   $0x5,-0x10(%rbp)
   1823d:	7e 86                	jle    181c5 <main+0x112c>
   1823f:	48 8b 05 8a 6a 00 00 	mov    0x6a8a(%rip),%rax        # 1ecd0 <g_2028>
   18246:	8b 55 fc             	mov    -0x4(%rbp),%edx
   18249:	48 8d 35 26 28 00 00 	lea    0x2826(%rip),%rsi        # 1aa76 <g_2228+0x1876>
   18250:	48 89 c7             	mov    %rax,%rdi
   18253:	e8 9b 14 ff ff       	callq  96f3 <transparent_crc>
   18258:	48 8b 05 71 6a 00 00 	mov    0x6a71(%rip),%rax        # 1ecd0 <g_2028>
   1825f:	8b 55 fc             	mov    -0x4(%rbp),%edx
   18262:	48 8d 35 17 28 00 00 	lea    0x2817(%rip),%rsi        # 1aa80 <g_2228+0x1880>
   18269:	48 89 c7             	mov    %rax,%rdi
   1826c:	e8 82 14 ff ff       	callq  96f3 <transparent_crc>
   18271:	c7 45 f0 00 00 00 00 	movl   $0x0,-0x10(%rbp)
   18278:	eb 74                	jmp    182ee <main+0x1255>
   1827a:	8b 45 f0             	mov    -0x10(%rbp),%eax
   1827d:	48 98                	cltq   
   1827f:	48 8d 14 c5 00 00 00 	lea    0x0(,%rax,8),%rdx
   18286:	00 
   18287:	48 8d 05 52 0f 00 00 	lea    0xf52(%rip),%rax        # 191e0 <g_2029>
   1828e:	48 8b 04 02          	mov    (%rdx,%rax,1),%rax
   18292:	8b 55 fc             	mov    -0x4(%rbp),%edx
   18295:	48 8d 35 ee 27 00 00 	lea    0x27ee(%rip),%rsi        # 1aa8a <g_2228+0x188a>
   1829c:	48 89 c7             	mov    %rax,%rdi
   1829f:	e8 4f 14 ff ff       	callq  96f3 <transparent_crc>
   182a4:	8b 45 f0             	mov    -0x10(%rbp),%eax
   182a7:	48 98                	cltq   
   182a9:	48 8d 14 c5 00 00 00 	lea    0x0(,%rax,8),%rdx
   182b0:	00 
   182b1:	48 8d 05 28 0f 00 00 	lea    0xf28(%rip),%rax        # 191e0 <g_2029>
   182b8:	48 8b 04 02          	mov    (%rdx,%rax,1),%rax
   182bc:	8b 55 fc             	mov    -0x4(%rbp),%edx
   182bf:	48 8d 35 d1 27 00 00 	lea    0x27d1(%rip),%rsi        # 1aa97 <g_2228+0x1897>
   182c6:	48 89 c7             	mov    %rax,%rdi
   182c9:	e8 25 14 ff ff       	callq  96f3 <transparent_crc>
   182ce:	83 7d fc 00          	cmpl   $0x0,-0x4(%rbp)
   182d2:	74 16                	je     182ea <main+0x1251>
   182d4:	8b 45 f0             	mov    -0x10(%rbp),%eax
   182d7:	89 c6                	mov    %eax,%esi
   182d9:	48 8d 3d 0b 24 00 00 	lea    0x240b(%rip),%rdi        # 1a6eb <g_2228+0x14eb>
   182e0:	b8 00 00 00 00       	mov    $0x0,%eax
   182e5:	e8 96 fd fe ff       	callq  8080 <printf@plt>
   182ea:	83 45 f0 01          	addl   $0x1,-0x10(%rbp)
   182ee:	83 7d f0 02          	cmpl   $0x2,-0x10(%rbp)
   182f2:	7e 86                	jle    1827a <main+0x11e1>
   182f4:	48 8b 05 dd 69 00 00 	mov    0x69dd(%rip),%rax        # 1ecd8 <g_2030>
   182fb:	8b 55 fc             	mov    -0x4(%rbp),%edx
   182fe:	48 8d 35 9f 27 00 00 	lea    0x279f(%rip),%rsi        # 1aaa4 <g_2228+0x18a4>
   18305:	48 89 c7             	mov    %rax,%rdi
   18308:	e8 e6 13 ff ff       	callq  96f3 <transparent_crc>
   1830d:	48 8b 05 c4 69 00 00 	mov    0x69c4(%rip),%rax        # 1ecd8 <g_2030>
   18314:	8b 55 fc             	mov    -0x4(%rbp),%edx
   18317:	48 8d 35 90 27 00 00 	lea    0x2790(%rip),%rsi        # 1aaae <g_2228+0x18ae>
   1831e:	48 89 c7             	mov    %rax,%rdi
   18321:	e8 cd 13 ff ff       	callq  96f3 <transparent_crc>
   18326:	48 8b 05 cb 0e 00 00 	mov    0xecb(%rip),%rax        # 191f8 <g_2031>
   1832d:	8b 55 fc             	mov    -0x4(%rbp),%edx
   18330:	48 8d 35 81 27 00 00 	lea    0x2781(%rip),%rsi        # 1aab8 <g_2228+0x18b8>
   18337:	48 89 c7             	mov    %rax,%rdi
   1833a:	e8 b4 13 ff ff       	callq  96f3 <transparent_crc>
   1833f:	48 8b 05 b2 0e 00 00 	mov    0xeb2(%rip),%rax        # 191f8 <g_2031>
   18346:	8b 55 fc             	mov    -0x4(%rbp),%edx
   18349:	48 8d 35 72 27 00 00 	lea    0x2772(%rip),%rsi        # 1aac2 <g_2228+0x18c2>
   18350:	48 89 c7             	mov    %rax,%rdi
   18353:	e8 9b 13 ff ff       	callq  96f3 <transparent_crc>
   18358:	8b 05 82 69 00 00    	mov    0x6982(%rip),%eax        # 1ece0 <g_2054>
   1835e:	48 98                	cltq   
   18360:	8b 55 fc             	mov    -0x4(%rbp),%edx
   18363:	48 8d 35 62 27 00 00 	lea    0x2762(%rip),%rsi        # 1aacc <g_2228+0x18cc>
   1836a:	48 89 c7             	mov    %rax,%rdi
   1836d:	e8 81 13 ff ff       	callq  96f3 <transparent_crc>
   18372:	48 8b 05 6f 69 00 00 	mov    0x696f(%rip),%rax        # 1ece8 <g_2088>
   18379:	8b 55 fc             	mov    -0x4(%rbp),%edx
   1837c:	48 8d 35 53 27 00 00 	lea    0x2753(%rip),%rsi        # 1aad6 <g_2228+0x18d6>
   18383:	48 89 c7             	mov    %rax,%rdi
   18386:	e8 68 13 ff ff       	callq  96f3 <transparent_crc>
   1838b:	48 8b 05 56 69 00 00 	mov    0x6956(%rip),%rax        # 1ece8 <g_2088>
   18392:	8b 55 fc             	mov    -0x4(%rbp),%edx
   18395:	48 8d 35 44 27 00 00 	lea    0x2744(%rip),%rsi        # 1aae0 <g_2228+0x18e0>
   1839c:	48 89 c7             	mov    %rax,%rdi
   1839f:	e8 4f 13 ff ff       	callq  96f3 <transparent_crc>
   183a4:	48 8b 05 45 69 00 00 	mov    0x6945(%rip),%rax        # 1ecf0 <g_2100>
   183ab:	48 89 c1             	mov    %rax,%rcx
   183ae:	8b 45 fc             	mov    -0x4(%rbp),%eax
   183b1:	89 c2                	mov    %eax,%edx
   183b3:	48 8d 35 30 27 00 00 	lea    0x2730(%rip),%rsi        # 1aaea <g_2228+0x18ea>
   183ba:	48 89 cf             	mov    %rcx,%rdi
   183bd:	e8 31 13 ff ff       	callq  96f3 <transparent_crc>
   183c2:	c7 45 f0 00 00 00 00 	movl   $0x0,-0x10(%rbp)
   183c9:	e9 d3 00 00 00       	jmpq   184a1 <main+0x1408>
   183ce:	8b 45 f0             	mov    -0x10(%rbp),%eax
   183d1:	48 98                	cltq   
   183d3:	48 8d 14 c5 00 00 00 	lea    0x0(,%rax,8),%rdx
   183da:	00 
   183db:	48 8d 05 1e 69 00 00 	lea    0x691e(%rip),%rax        # 1ed00 <g_2113>
   183e2:	8b 04 02             	mov    (%rdx,%rax,1),%eax
   183e5:	89 c1                	mov    %eax,%ecx
   183e7:	8b 45 fc             	mov    -0x4(%rbp),%eax
   183ea:	89 c2                	mov    %eax,%edx
   183ec:	48 8d 35 fe 26 00 00 	lea    0x26fe(%rip),%rsi        # 1aaf1 <g_2228+0x18f1>
   183f3:	48 89 cf             	mov    %rcx,%rdi
   183f6:	e8 f8 12 ff ff       	callq  96f3 <transparent_crc>
   183fb:	8b 45 f0             	mov    -0x10(%rbp),%eax
   183fe:	48 98                	cltq   
   18400:	48 8d 14 c5 00 00 00 	lea    0x0(,%rax,8),%rdx
   18407:	00 
   18408:	48 8d 05 f1 68 00 00 	lea    0x68f1(%rip),%rax        # 1ed00 <g_2113>
   1840f:	8b 04 02             	mov    (%rdx,%rax,1),%eax
   18412:	48 98                	cltq   
   18414:	8b 55 fc             	mov    -0x4(%rbp),%edx
   18417:	48 8d 35 e0 26 00 00 	lea    0x26e0(%rip),%rsi        # 1aafe <g_2228+0x18fe>
   1841e:	48 89 c7             	mov    %rax,%rdi
   18421:	e8 cd 12 ff ff       	callq  96f3 <transparent_crc>
   18426:	8b 45 f0             	mov    -0x10(%rbp),%eax
   18429:	48 98                	cltq   
   1842b:	48 8d 14 c5 00 00 00 	lea    0x0(,%rax,8),%rdx
   18432:	00 
   18433:	48 8d 05 c6 68 00 00 	lea    0x68c6(%rip),%rax        # 1ed00 <g_2113>
   1843a:	0f b7 04 02          	movzwl (%rdx,%rax,1),%eax
   1843e:	48 0f bf c0          	movswq %ax,%rax
   18442:	8b 55 fc             	mov    -0x4(%rbp),%edx
   18445:	48 8d 35 bf 26 00 00 	lea    0x26bf(%rip),%rsi        # 1ab0b <g_2228+0x190b>
   1844c:	48 89 c7             	mov    %rax,%rdi
   1844f:	e8 9f 12 ff ff       	callq  96f3 <transparent_crc>
   18454:	8b 45 f0             	mov    -0x10(%rbp),%eax
   18457:	48 98                	cltq   
   18459:	48 8d 14 c5 00 00 00 	lea    0x0(,%rax,8),%rdx
   18460:	00 
   18461:	48 8d 05 98 68 00 00 	lea    0x6898(%rip),%rax        # 1ed00 <g_2113>
   18468:	0f b6 04 02          	movzbl (%rdx,%rax,1),%eax
   1846c:	0f b6 c0             	movzbl %al,%eax
   1846f:	8b 55 fc             	mov    -0x4(%rbp),%edx
   18472:	48 8d 35 9f 26 00 00 	lea    0x269f(%rip),%rsi        # 1ab18 <g_2228+0x1918>
   18479:	48 89 c7             	mov    %rax,%rdi
   1847c:	e8 72 12 ff ff       	callq  96f3 <transparent_crc>
   18481:	83 7d fc 00          	cmpl   $0x0,-0x4(%rbp)
   18485:	74 16                	je     1849d <main+0x1404>
   18487:	8b 45 f0             	mov    -0x10(%rbp),%eax
   1848a:	89 c6                	mov    %eax,%esi
   1848c:	48 8d 3d 58 22 00 00 	lea    0x2258(%rip),%rdi        # 1a6eb <g_2228+0x14eb>
   18493:	b8 00 00 00 00       	mov    $0x0,%eax
   18498:	e8 e3 fb fe ff       	callq  8080 <printf@plt>
   1849d:	83 45 f0 01          	addl   $0x1,-0x10(%rbp)
   184a1:	83 7d f0 02          	cmpl   $0x2,-0x10(%rbp)
   184a5:	0f 8e 23 ff ff ff    	jle    183ce <main+0x1335>
   184ab:	c7 45 f0 00 00 00 00 	movl   $0x0,-0x10(%rbp)
   184b2:	e9 24 01 00 00       	jmpq   185db <main+0x1542>
   184b7:	c7 45 f4 00 00 00 00 	movl   $0x0,-0xc(%rbp)
   184be:	e9 0a 01 00 00       	jmpq   185cd <main+0x1534>
   184c3:	8b 45 f4             	mov    -0xc(%rbp),%eax
   184c6:	48 98                	cltq   
   184c8:	8b 55 f0             	mov    -0x10(%rbp),%edx
   184cb:	48 63 d2             	movslq %edx,%rdx
   184ce:	48 c1 e2 03          	shl    $0x3,%rdx
   184d2:	48 01 d0             	add    %rdx,%rax
   184d5:	48 8d 14 c5 00 00 00 	lea    0x0(,%rax,8),%rdx
   184dc:	00 
   184dd:	48 8d 05 3c 68 00 00 	lea    0x683c(%rip),%rax        # 1ed20 <g_2204>
   184e4:	8b 04 02             	mov    (%rdx,%rax,1),%eax
   184e7:	89 c1                	mov    %eax,%ecx
   184e9:	8b 45 fc             	mov    -0x4(%rbp),%eax
   184ec:	89 c2                	mov    %eax,%edx
   184ee:	48 8d 35 30 26 00 00 	lea    0x2630(%rip),%rsi        # 1ab25 <g_2228+0x1925>
   184f5:	48 89 cf             	mov    %rcx,%rdi
   184f8:	e8 f6 11 ff ff       	callq  96f3 <transparent_crc>
   184fd:	8b 45 f4             	mov    -0xc(%rbp),%eax
   18500:	48 98                	cltq   
   18502:	8b 55 f0             	mov    -0x10(%rbp),%edx
   18505:	48 63 d2             	movslq %edx,%rdx
   18508:	48 c1 e2 03          	shl    $0x3,%rdx
   1850c:	48 01 d0             	add    %rdx,%rax
   1850f:	48 8d 14 c5 00 00 00 	lea    0x0(,%rax,8),%rdx
   18516:	00 
   18517:	48 8d 05 02 68 00 00 	lea    0x6802(%rip),%rax        # 1ed20 <g_2204>
   1851e:	8b 04 02             	mov    (%rdx,%rax,1),%eax
   18521:	48 98                	cltq   
   18523:	8b 55 fc             	mov    -0x4(%rbp),%edx
   18526:	48 8d 35 08 26 00 00 	lea    0x2608(%rip),%rsi        # 1ab35 <g_2228+0x1935>
   1852d:	48 89 c7             	mov    %rax,%rdi
   18530:	e8 be 11 ff ff       	callq  96f3 <transparent_crc>
   18535:	8b 45 f4             	mov    -0xc(%rbp),%eax
   18538:	48 98                	cltq   
   1853a:	8b 55 f0             	mov    -0x10(%rbp),%edx
   1853d:	48 63 d2             	movslq %edx,%rdx
   18540:	48 c1 e2 03          	shl    $0x3,%rdx
   18544:	48 01 d0             	add    %rdx,%rax
   18547:	48 8d 14 c5 00 00 00 	lea    0x0(,%rax,8),%rdx
   1854e:	00 
   1854f:	48 8d 05 ca 67 00 00 	lea    0x67ca(%rip),%rax        # 1ed20 <g_2204>
   18556:	0f b7 04 02          	movzwl (%rdx,%rax,1),%eax
   1855a:	48 0f bf c0          	movswq %ax,%rax
   1855e:	8b 55 fc             	mov    -0x4(%rbp),%edx
   18561:	48 8d 35 dd 25 00 00 	lea    0x25dd(%rip),%rsi        # 1ab45 <g_2228+0x1945>
   18568:	48 89 c7             	mov    %rax,%rdi
   1856b:	e8 83 11 ff ff       	callq  96f3 <transparent_crc>
   18570:	8b 45 f4             	mov    -0xc(%rbp),%eax
   18573:	48 98                	cltq   
   18575:	8b 55 f0             	mov    -0x10(%rbp),%edx
   18578:	48 63 d2             	movslq %edx,%rdx
   1857b:	48 c1 e2 03          	shl    $0x3,%rdx
   1857f:	48 01 d0             	add    %rdx,%rax
   18582:	48 8d 14 c5 00 00 00 	lea    0x0(,%rax,8),%rdx
   18589:	00 
   1858a:	48 8d 05 8f 67 00 00 	lea    0x678f(%rip),%rax        # 1ed20 <g_2204>
   18591:	0f b6 04 02          	movzbl (%rdx,%rax,1),%eax
   18595:	0f b6 c0             	movzbl %al,%eax
   18598:	8b 55 fc             	mov    -0x4(%rbp),%edx
   1859b:	48 8d 35 b3 25 00 00 	lea    0x25b3(%rip),%rsi        # 1ab55 <g_2228+0x1955>
   185a2:	48 89 c7             	mov    %rax,%rdi
   185a5:	e8 49 11 ff ff       	callq  96f3 <transparent_crc>
   185aa:	83 7d fc 00          	cmpl   $0x0,-0x4(%rbp)
   185ae:	74 19                	je     185c9 <main+0x1530>
   185b0:	8b 55 f4             	mov    -0xc(%rbp),%edx
   185b3:	8b 45 f0             	mov    -0x10(%rbp),%eax
   185b6:	89 c6                	mov    %eax,%esi
   185b8:	48 8d 3d 91 21 00 00 	lea    0x2191(%rip),%rdi        # 1a750 <g_2228+0x1550>
   185bf:	b8 00 00 00 00       	mov    $0x0,%eax
   185c4:	e8 b7 fa fe ff       	callq  8080 <printf@plt>
   185c9:	83 45 f4 01          	addl   $0x1,-0xc(%rbp)
   185cd:	83 7d f4 07          	cmpl   $0x7,-0xc(%rbp)
   185d1:	0f 8e ec fe ff ff    	jle    184c3 <main+0x142a>
   185d7:	83 45 f0 01          	addl   $0x1,-0x10(%rbp)
   185db:	83 7d f0 09          	cmpl   $0x9,-0x10(%rbp)
   185df:	0f 8e d2 fe ff ff    	jle    184b7 <main+0x141e>
   185e5:	b8 ec d8 60 45       	mov    $0x4560d8ec,%eax
   185ea:	48 98                	cltq   
   185ec:	8b 55 fc             	mov    -0x4(%rbp),%edx
   185ef:	48 8d 35 6f 25 00 00 	lea    0x256f(%rip),%rsi        # 1ab65 <g_2228+0x1965>
   185f6:	48 89 c7             	mov    %rax,%rdi
   185f9:	e8 f5 10 ff ff       	callq  96f3 <transparent_crc>
   185fe:	8b 05 1c 5a 00 00    	mov    0x5a1c(%rip),%eax        # 1e020 <crc32_context>
   18604:	f7 d0                	not    %eax
   18606:	89 c2                	mov    %eax,%edx
   18608:	8b 45 fc             	mov    -0x4(%rbp),%eax
   1860b:	89 c6                	mov    %eax,%esi
   1860d:	89 d7                	mov    %edx,%edi
   1860f:	e8 80 fb fe ff       	callq  8194 <platform_main_end>
   18614:	b8 00 00 00 00       	mov    $0x0,%eax
   18619:	c9                   	leaveq 
   1861a:	c3                   	retq   
   1861b:	0f 1f 44 00 00       	nopl   0x0(%rax,%rax,1)

0000000000018620 <__libc_csu_init>:
   18620:	f3 0f 1e fa          	endbr64 
   18624:	41 57                	push   %r15
   18626:	4c 8d 3d 63 55 00 00 	lea    0x5563(%rip),%r15        # 1db90 <__frame_dummy_init_array_entry>
   1862d:	41 56                	push   %r14
   1862f:	49 89 d6             	mov    %rdx,%r14
   18632:	41 55                	push   %r13
   18634:	49 89 f5             	mov    %rsi,%r13
   18637:	41 54                	push   %r12
   18639:	41 89 fc             	mov    %edi,%r12d
   1863c:	55                   	push   %rbp
   1863d:	48 8d 2d 54 55 00 00 	lea    0x5554(%rip),%rbp        # 1db98 <__do_global_dtors_aux_fini_array_entry>
   18644:	53                   	push   %rbx
   18645:	4c 29 fd             	sub    %r15,%rbp
   18648:	48 83 ec 08          	sub    $0x8,%rsp
   1864c:	e8 af f9 fe ff       	callq  8000 <_init>
   18651:	48 c1 fd 03          	sar    $0x3,%rbp
   18655:	74 1f                	je     18676 <__libc_csu_init+0x56>
   18657:	31 db                	xor    %ebx,%ebx
   18659:	0f 1f 80 00 00 00 00 	nopl   0x0(%rax)
   18660:	4c 89 f2             	mov    %r14,%rdx
   18663:	4c 89 ee             	mov    %r13,%rsi
   18666:	44 89 e7             	mov    %r12d,%edi
   18669:	41 ff 14 df          	callq  *(%r15,%rbx,8)
   1866d:	48 83 c3 01          	add    $0x1,%rbx
   18671:	48 39 dd             	cmp    %rbx,%rbp
   18674:	75 ea                	jne    18660 <__libc_csu_init+0x40>
   18676:	48 83 c4 08          	add    $0x8,%rsp
   1867a:	5b                   	pop    %rbx
   1867b:	5d                   	pop    %rbp
   1867c:	41 5c                	pop    %r12
   1867e:	41 5d                	pop    %r13
   18680:	41 5e                	pop    %r14
   18682:	41 5f                	pop    %r15
   18684:	c3                   	retq   
   18685:	66 66 2e 0f 1f 84 00 	data16 nopw %cs:0x0(%rax,%rax,1)
   1868c:	00 00 00 00 

0000000000018690 <__libc_csu_fini>:
   18690:	f3 0f 1e fa          	endbr64 
   18694:	c3                   	retq   
