


Disassembly of section .text:

000000000000a0a0 <_start>:
    a0a0:	f3 0f 1e fa          	endbr64 
    a0a4:	31 ed                	xor    %ebp,%ebp
    a0a6:	49 89 d1             	mov    %rdx,%r9
    a0a9:	5e                   	pop    %rsi
    a0aa:	48 89 e2             	mov    %rsp,%rdx
    a0ad:	48 83 e4 f0          	and    $0xfffffffffffffff0,%rsp
    a0b1:	50                   	push   %rax
    a0b2:	54                   	push   %rsp
    a0b3:	4c 8d 05 86 d3 00 00 	lea    0xd386(%rip),%r8        # 17440 <__libc_csu_fini>
    a0ba:	48 8d 0d 0f d3 00 00 	lea    0xd30f(%rip),%rcx        # 173d0 <__libc_csu_init>
    a0c1:	48 8d 3d f4 ab 00 00 	lea    0xabf4(%rip),%rdi        # 14cbc <main>
    a0c8:	ff 15 12 2f 01 00    	callq  *0x12f12(%rip)        # 1cfe0 <__libc_start_main@GLIBC_2.2.5>
    a0ce:	f4                   	hlt    
    a0cf:	90                   	nop

000000000000a0d0 <deregister_tm_clones>:
    a0d0:	48 8d 3d 29 7a 01 00 	lea    0x17a29(%rip),%rdi        # 21b00 <__TMC_END__>
    a0d7:	48 8d 05 22 7a 01 00 	lea    0x17a22(%rip),%rax        # 21b00 <__TMC_END__>
    a0de:	48 39 f8             	cmp    %rdi,%rax
    a0e1:	74 15                	je     a0f8 <deregister_tm_clones+0x28>
    a0e3:	48 8b 05 ee 2e 01 00 	mov    0x12eee(%rip),%rax        # 1cfd8 <_ITM_deregisterTMCloneTable>
    a0ea:	48 85 c0             	test   %rax,%rax
    a0ed:	74 09                	je     a0f8 <deregister_tm_clones+0x28>
    a0ef:	ff e0                	jmpq   *%rax
    a0f1:	0f 1f 80 00 00 00 00 	nopl   0x0(%rax)
    a0f8:	c3                   	retq   
    a0f9:	0f 1f 80 00 00 00 00 	nopl   0x0(%rax)

000000000000a100 <register_tm_clones>:
    a100:	48 8d 3d f9 79 01 00 	lea    0x179f9(%rip),%rdi        # 21b00 <__TMC_END__>
    a107:	48 8d 35 f2 79 01 00 	lea    0x179f2(%rip),%rsi        # 21b00 <__TMC_END__>
    a10e:	48 29 fe             	sub    %rdi,%rsi
    a111:	48 89 f0             	mov    %rsi,%rax
    a114:	48 c1 ee 3f          	shr    $0x3f,%rsi
    a118:	48 c1 f8 03          	sar    $0x3,%rax
    a11c:	48 01 c6             	add    %rax,%rsi
    a11f:	48 d1 fe             	sar    %rsi
    a122:	74 14                	je     a138 <register_tm_clones+0x38>
    a124:	48 8b 05 c5 2e 01 00 	mov    0x12ec5(%rip),%rax        # 1cff0 <_ITM_registerTMCloneTable>
    a12b:	48 85 c0             	test   %rax,%rax
    a12e:	74 08                	je     a138 <register_tm_clones+0x38>
    a130:	ff e0                	jmpq   *%rax
    a132:	66 0f 1f 44 00 00    	nopw   0x0(%rax,%rax,1)
    a138:	c3                   	retq   
    a139:	0f 1f 80 00 00 00 00 	nopl   0x0(%rax)

000000000000a140 <__do_global_dtors_aux>:
    a140:	f3 0f 1e fa          	endbr64 
    a144:	80 3d b5 79 01 00 00 	cmpb   $0x0,0x179b5(%rip)        # 21b00 <__TMC_END__>
    a14b:	75 2b                	jne    a178 <__do_global_dtors_aux+0x38>
    a14d:	55                   	push   %rbp
    a14e:	48 83 3d a2 2e 01 00 	cmpq   $0x0,0x12ea2(%rip)        # 1cff8 <__cxa_finalize@GLIBC_2.2.5>
    a155:	00 
    a156:	48 89 e5             	mov    %rsp,%rbp
    a159:	74 0c                	je     a167 <__do_global_dtors_aux+0x27>
    a15b:	48 8b 3d a6 2e 01 00 	mov    0x12ea6(%rip),%rdi        # 1d008 <__dso_handle>
    a162:	e8 f9 fe ff ff       	callq  a060 <__cxa_finalize@plt>
    a167:	e8 64 ff ff ff       	callq  a0d0 <deregister_tm_clones>
    a16c:	c6 05 8d 79 01 00 01 	movb   $0x1,0x1798d(%rip)        # 21b00 <__TMC_END__>
    a173:	5d                   	pop    %rbp
    a174:	c3                   	retq   
    a175:	0f 1f 00             	nopl   (%rax)
    a178:	c3                   	retq   
    a179:	0f 1f 80 00 00 00 00 	nopl   0x0(%rax)

000000000000a180 <frame_dummy>:
    a180:	f3 0f 1e fa          	endbr64 
    a184:	e9 77 ff ff ff       	jmpq   a100 <register_tm_clones>

000000000000a189 <platform_main_begin>:
    a189:	f3 0f 1e fa          	endbr64 
    a18d:	55                   	push   %rbp
    a18e:	48 89 e5             	mov    %rsp,%rbp
    a191:	90                   	nop
    a192:	5d                   	pop    %rbp
    a193:	c3                   	retq   

000000000000a194 <platform_main_end>:
    a194:	f3 0f 1e fa          	endbr64 
    a198:	55                   	push   %rbp
    a199:	48 89 e5             	mov    %rsp,%rbp
    a19c:	48 83 ec 10          	sub    $0x10,%rsp
    a1a0:	89 7d fc             	mov    %edi,-0x4(%rbp)
    a1a3:	89 75 f8             	mov    %esi,-0x8(%rbp)
    a1a6:	8b 45 fc             	mov    -0x4(%rbp),%eax
    a1a9:	89 c6                	mov    %eax,%esi
    a1ab:	48 8d 3d 6e de 00 00 	lea    0xde6e(%rip),%rdi        # 18020 <_IO_stdin_used+0x20>
    a1b2:	b8 00 00 00 00       	mov    $0x0,%eax
    a1b7:	e8 c4 fe ff ff       	callq  a080 <printf@plt>
    a1bc:	90                   	nop
    a1bd:	c9                   	leaveq 
    a1be:	c3                   	retq   

000000000000a1bf <safe_unary_minus_func_int8_t_s>:
    a1bf:	f3 0f 1e fa          	endbr64 
    a1c3:	55                   	push   %rbp
    a1c4:	48 89 e5             	mov    %rsp,%rbp
    a1c7:	89 f8                	mov    %edi,%eax
    a1c9:	88 45 fc             	mov    %al,-0x4(%rbp)
    a1cc:	0f b6 45 fc          	movzbl -0x4(%rbp),%eax
    a1d0:	f7 d8                	neg    %eax
    a1d2:	5d                   	pop    %rbp
    a1d3:	c3                   	retq   

000000000000a1d4 <safe_add_func_int8_t_s_s>:
    a1d4:	f3 0f 1e fa          	endbr64 
    a1d8:	55                   	push   %rbp
    a1d9:	48 89 e5             	mov    %rsp,%rbp
    a1dc:	89 fa                	mov    %edi,%edx
    a1de:	89 f0                	mov    %esi,%eax
    a1e0:	88 55 fc             	mov    %dl,-0x4(%rbp)
    a1e3:	88 45 f8             	mov    %al,-0x8(%rbp)
    a1e6:	0f b6 55 fc          	movzbl -0x4(%rbp),%edx
    a1ea:	0f b6 45 f8          	movzbl -0x8(%rbp),%eax
    a1ee:	01 d0                	add    %edx,%eax
    a1f0:	5d                   	pop    %rbp
    a1f1:	c3                   	retq   

000000000000a1f2 <safe_sub_func_int8_t_s_s>:
    a1f2:	f3 0f 1e fa          	endbr64 
    a1f6:	55                   	push   %rbp
    a1f7:	48 89 e5             	mov    %rsp,%rbp
    a1fa:	89 fa                	mov    %edi,%edx
    a1fc:	89 f0                	mov    %esi,%eax
    a1fe:	88 55 fc             	mov    %dl,-0x4(%rbp)
    a201:	88 45 f8             	mov    %al,-0x8(%rbp)
    a204:	0f b6 55 fc          	movzbl -0x4(%rbp),%edx
    a208:	0f b6 45 f8          	movzbl -0x8(%rbp),%eax
    a20c:	29 c2                	sub    %eax,%edx
    a20e:	89 d0                	mov    %edx,%eax
    a210:	5d                   	pop    %rbp
    a211:	c3                   	retq   

000000000000a212 <safe_mul_func_int8_t_s_s>:
    a212:	f3 0f 1e fa          	endbr64 
    a216:	55                   	push   %rbp
    a217:	48 89 e5             	mov    %rsp,%rbp
    a21a:	89 fa                	mov    %edi,%edx
    a21c:	89 f0                	mov    %esi,%eax
    a21e:	88 55 fc             	mov    %dl,-0x4(%rbp)
    a221:	88 45 f8             	mov    %al,-0x8(%rbp)
    a224:	0f b6 45 fc          	movzbl -0x4(%rbp),%eax
    a228:	0f b6 55 f8          	movzbl -0x8(%rbp),%edx
    a22c:	0f af c2             	imul   %edx,%eax
    a22f:	5d                   	pop    %rbp
    a230:	c3                   	retq   

000000000000a231 <safe_mod_func_int8_t_s_s>:
    a231:	f3 0f 1e fa          	endbr64 
    a235:	55                   	push   %rbp
    a236:	48 89 e5             	mov    %rsp,%rbp
    a239:	89 fa                	mov    %edi,%edx
    a23b:	89 f0                	mov    %esi,%eax
    a23d:	88 55 fc             	mov    %dl,-0x4(%rbp)
    a240:	88 45 f8             	mov    %al,-0x8(%rbp)
    a243:	80 7d f8 00          	cmpb   $0x0,-0x8(%rbp)
    a247:	74 1b                	je     a264 <safe_mod_func_int8_t_s_s+0x33>
    a249:	80 7d fc 80          	cmpb   $0x80,-0x4(%rbp)
    a24d:	75 06                	jne    a255 <safe_mod_func_int8_t_s_s+0x24>
    a24f:	80 7d f8 ff          	cmpb   $0xff,-0x8(%rbp)
    a253:	74 0f                	je     a264 <safe_mod_func_int8_t_s_s+0x33>
    a255:	0f be 45 fc          	movsbl -0x4(%rbp),%eax
    a259:	0f be 4d f8          	movsbl -0x8(%rbp),%ecx
    a25d:	99                   	cltd   
    a25e:	f7 f9                	idiv   %ecx
    a260:	89 d0                	mov    %edx,%eax
    a262:	eb 04                	jmp    a268 <safe_mod_func_int8_t_s_s+0x37>
    a264:	0f b6 45 fc          	movzbl -0x4(%rbp),%eax
    a268:	5d                   	pop    %rbp
    a269:	c3                   	retq   

000000000000a26a <safe_div_func_int8_t_s_s>:
    a26a:	f3 0f 1e fa          	endbr64 
    a26e:	55                   	push   %rbp
    a26f:	48 89 e5             	mov    %rsp,%rbp
    a272:	89 fa                	mov    %edi,%edx
    a274:	89 f0                	mov    %esi,%eax
    a276:	88 55 fc             	mov    %dl,-0x4(%rbp)
    a279:	88 45 f8             	mov    %al,-0x8(%rbp)
    a27c:	80 7d f8 00          	cmpb   $0x0,-0x8(%rbp)
    a280:	74 19                	je     a29b <safe_div_func_int8_t_s_s+0x31>
    a282:	80 7d fc 80          	cmpb   $0x80,-0x4(%rbp)
    a286:	75 06                	jne    a28e <safe_div_func_int8_t_s_s+0x24>
    a288:	80 7d f8 ff          	cmpb   $0xff,-0x8(%rbp)
    a28c:	74 0d                	je     a29b <safe_div_func_int8_t_s_s+0x31>
    a28e:	0f be 45 fc          	movsbl -0x4(%rbp),%eax
    a292:	0f be 4d f8          	movsbl -0x8(%rbp),%ecx
    a296:	99                   	cltd   
    a297:	f7 f9                	idiv   %ecx
    a299:	eb 04                	jmp    a29f <safe_div_func_int8_t_s_s+0x35>
    a29b:	0f b6 45 fc          	movzbl -0x4(%rbp),%eax
    a29f:	5d                   	pop    %rbp
    a2a0:	c3                   	retq   

000000000000a2a1 <safe_lshift_func_int8_t_s_s>:
    a2a1:	f3 0f 1e fa          	endbr64 
    a2a5:	55                   	push   %rbp
    a2a6:	48 89 e5             	mov    %rsp,%rbp
    a2a9:	89 f8                	mov    %edi,%eax
    a2ab:	89 75 f8             	mov    %esi,-0x8(%rbp)
    a2ae:	88 45 fc             	mov    %al,-0x4(%rbp)
    a2b1:	80 7d fc 00          	cmpb   $0x0,-0x4(%rbp)
    a2b5:	78 31                	js     a2e8 <safe_lshift_func_int8_t_s_s+0x47>
    a2b7:	83 7d f8 00          	cmpl   $0x0,-0x8(%rbp)
    a2bb:	78 2b                	js     a2e8 <safe_lshift_func_int8_t_s_s+0x47>
    a2bd:	83 7d f8 1f          	cmpl   $0x1f,-0x8(%rbp)
    a2c1:	7f 25                	jg     a2e8 <safe_lshift_func_int8_t_s_s+0x47>
    a2c3:	0f be 55 fc          	movsbl -0x4(%rbp),%edx
    a2c7:	8b 45 f8             	mov    -0x8(%rbp),%eax
    a2ca:	be 7f 00 00 00       	mov    $0x7f,%esi
    a2cf:	89 c1                	mov    %eax,%ecx
    a2d1:	d3 fe                	sar    %cl,%esi
    a2d3:	89 f0                	mov    %esi,%eax
    a2d5:	39 c2                	cmp    %eax,%edx
    a2d7:	7f 0f                	jg     a2e8 <safe_lshift_func_int8_t_s_s+0x47>
    a2d9:	0f be 55 fc          	movsbl -0x4(%rbp),%edx
    a2dd:	8b 45 f8             	mov    -0x8(%rbp),%eax
    a2e0:	89 c1                	mov    %eax,%ecx
    a2e2:	d3 e2                	shl    %cl,%edx
    a2e4:	89 d0                	mov    %edx,%eax
    a2e6:	eb 04                	jmp    a2ec <safe_lshift_func_int8_t_s_s+0x4b>
    a2e8:	0f b6 45 fc          	movzbl -0x4(%rbp),%eax
    a2ec:	5d                   	pop    %rbp
    a2ed:	c3                   	retq   

000000000000a2ee <safe_lshift_func_int8_t_s_u>:
    a2ee:	f3 0f 1e fa          	endbr64 
    a2f2:	55                   	push   %rbp
    a2f3:	48 89 e5             	mov    %rsp,%rbp
    a2f6:	89 f8                	mov    %edi,%eax
    a2f8:	89 75 f8             	mov    %esi,-0x8(%rbp)
    a2fb:	88 45 fc             	mov    %al,-0x4(%rbp)
    a2fe:	80 7d fc 00          	cmpb   $0x0,-0x4(%rbp)
    a302:	78 2b                	js     a32f <safe_lshift_func_int8_t_s_u+0x41>
    a304:	83 7d f8 1f          	cmpl   $0x1f,-0x8(%rbp)
    a308:	77 25                	ja     a32f <safe_lshift_func_int8_t_s_u+0x41>
    a30a:	0f be 55 fc          	movsbl -0x4(%rbp),%edx
    a30e:	8b 45 f8             	mov    -0x8(%rbp),%eax
    a311:	be 7f 00 00 00       	mov    $0x7f,%esi
    a316:	89 c1                	mov    %eax,%ecx
    a318:	d3 fe                	sar    %cl,%esi
    a31a:	89 f0                	mov    %esi,%eax
    a31c:	39 c2                	cmp    %eax,%edx
    a31e:	7f 0f                	jg     a32f <safe_lshift_func_int8_t_s_u+0x41>
    a320:	0f be 55 fc          	movsbl -0x4(%rbp),%edx
    a324:	8b 45 f8             	mov    -0x8(%rbp),%eax
    a327:	89 c1                	mov    %eax,%ecx
    a329:	d3 e2                	shl    %cl,%edx
    a32b:	89 d0                	mov    %edx,%eax
    a32d:	eb 04                	jmp    a333 <safe_lshift_func_int8_t_s_u+0x45>
    a32f:	0f b6 45 fc          	movzbl -0x4(%rbp),%eax
    a333:	5d                   	pop    %rbp
    a334:	c3                   	retq   

000000000000a335 <safe_rshift_func_int8_t_s_s>:
    a335:	f3 0f 1e fa          	endbr64 
    a339:	55                   	push   %rbp
    a33a:	48 89 e5             	mov    %rsp,%rbp
    a33d:	89 f8                	mov    %edi,%eax
    a33f:	89 75 f8             	mov    %esi,-0x8(%rbp)
    a342:	88 45 fc             	mov    %al,-0x4(%rbp)
    a345:	80 7d fc 00          	cmpb   $0x0,-0x4(%rbp)
    a349:	78 1b                	js     a366 <safe_rshift_func_int8_t_s_s+0x31>
    a34b:	83 7d f8 00          	cmpl   $0x0,-0x8(%rbp)
    a34f:	78 15                	js     a366 <safe_rshift_func_int8_t_s_s+0x31>
    a351:	83 7d f8 1f          	cmpl   $0x1f,-0x8(%rbp)
    a355:	7f 0f                	jg     a366 <safe_rshift_func_int8_t_s_s+0x31>
    a357:	0f be 55 fc          	movsbl -0x4(%rbp),%edx
    a35b:	8b 45 f8             	mov    -0x8(%rbp),%eax
    a35e:	89 c1                	mov    %eax,%ecx
    a360:	d3 fa                	sar    %cl,%edx
    a362:	89 d0                	mov    %edx,%eax
    a364:	eb 04                	jmp    a36a <safe_rshift_func_int8_t_s_s+0x35>
    a366:	0f b6 45 fc          	movzbl -0x4(%rbp),%eax
    a36a:	5d                   	pop    %rbp
    a36b:	c3                   	retq   

000000000000a36c <safe_rshift_func_int8_t_s_u>:
    a36c:	f3 0f 1e fa          	endbr64 
    a370:	55                   	push   %rbp
    a371:	48 89 e5             	mov    %rsp,%rbp
    a374:	89 f8                	mov    %edi,%eax
    a376:	89 75 f8             	mov    %esi,-0x8(%rbp)
    a379:	88 45 fc             	mov    %al,-0x4(%rbp)
    a37c:	80 7d fc 00          	cmpb   $0x0,-0x4(%rbp)
    a380:	78 15                	js     a397 <safe_rshift_func_int8_t_s_u+0x2b>
    a382:	83 7d f8 1f          	cmpl   $0x1f,-0x8(%rbp)
    a386:	77 0f                	ja     a397 <safe_rshift_func_int8_t_s_u+0x2b>
    a388:	0f be 55 fc          	movsbl -0x4(%rbp),%edx
    a38c:	8b 45 f8             	mov    -0x8(%rbp),%eax
    a38f:	89 c1                	mov    %eax,%ecx
    a391:	d3 fa                	sar    %cl,%edx
    a393:	89 d0                	mov    %edx,%eax
    a395:	eb 04                	jmp    a39b <safe_rshift_func_int8_t_s_u+0x2f>
    a397:	0f b6 45 fc          	movzbl -0x4(%rbp),%eax
    a39b:	5d                   	pop    %rbp
    a39c:	c3                   	retq   

000000000000a39d <safe_unary_minus_func_int16_t_s>:
    a39d:	f3 0f 1e fa          	endbr64 
    a3a1:	55                   	push   %rbp
    a3a2:	48 89 e5             	mov    %rsp,%rbp
    a3a5:	89 f8                	mov    %edi,%eax
    a3a7:	66 89 45 fc          	mov    %ax,-0x4(%rbp)
    a3ab:	0f b7 45 fc          	movzwl -0x4(%rbp),%eax
    a3af:	f7 d8                	neg    %eax
    a3b1:	5d                   	pop    %rbp
    a3b2:	c3                   	retq   

000000000000a3b3 <safe_add_func_int16_t_s_s>:
    a3b3:	f3 0f 1e fa          	endbr64 
    a3b7:	55                   	push   %rbp
    a3b8:	48 89 e5             	mov    %rsp,%rbp
    a3bb:	89 fa                	mov    %edi,%edx
    a3bd:	89 f0                	mov    %esi,%eax
    a3bf:	66 89 55 fc          	mov    %dx,-0x4(%rbp)
    a3c3:	66 89 45 f8          	mov    %ax,-0x8(%rbp)
    a3c7:	0f b7 55 fc          	movzwl -0x4(%rbp),%edx
    a3cb:	0f b7 45 f8          	movzwl -0x8(%rbp),%eax
    a3cf:	01 d0                	add    %edx,%eax
    a3d1:	5d                   	pop    %rbp
    a3d2:	c3                   	retq   

000000000000a3d3 <safe_sub_func_int16_t_s_s>:
    a3d3:	f3 0f 1e fa          	endbr64 
    a3d7:	55                   	push   %rbp
    a3d8:	48 89 e5             	mov    %rsp,%rbp
    a3db:	89 fa                	mov    %edi,%edx
    a3dd:	89 f0                	mov    %esi,%eax
    a3df:	66 89 55 fc          	mov    %dx,-0x4(%rbp)
    a3e3:	66 89 45 f8          	mov    %ax,-0x8(%rbp)
    a3e7:	0f b7 55 fc          	movzwl -0x4(%rbp),%edx
    a3eb:	0f b7 45 f8          	movzwl -0x8(%rbp),%eax
    a3ef:	29 c2                	sub    %eax,%edx
    a3f1:	89 d0                	mov    %edx,%eax
    a3f3:	5d                   	pop    %rbp
    a3f4:	c3                   	retq   

000000000000a3f5 <safe_mul_func_int16_t_s_s>:
    a3f5:	f3 0f 1e fa          	endbr64 
    a3f9:	55                   	push   %rbp
    a3fa:	48 89 e5             	mov    %rsp,%rbp
    a3fd:	89 fa                	mov    %edi,%edx
    a3ff:	89 f0                	mov    %esi,%eax
    a401:	66 89 55 fc          	mov    %dx,-0x4(%rbp)
    a405:	66 89 45 f8          	mov    %ax,-0x8(%rbp)
    a409:	0f b7 55 fc          	movzwl -0x4(%rbp),%edx
    a40d:	0f b7 45 f8          	movzwl -0x8(%rbp),%eax
    a411:	0f af c2             	imul   %edx,%eax
    a414:	5d                   	pop    %rbp
    a415:	c3                   	retq   

000000000000a416 <safe_mod_func_int16_t_s_s>:
    a416:	f3 0f 1e fa          	endbr64 
    a41a:	55                   	push   %rbp
    a41b:	48 89 e5             	mov    %rsp,%rbp
    a41e:	89 fa                	mov    %edi,%edx
    a420:	89 f0                	mov    %esi,%eax
    a422:	66 89 55 fc          	mov    %dx,-0x4(%rbp)
    a426:	66 89 45 f8          	mov    %ax,-0x8(%rbp)
    a42a:	66 83 7d f8 00       	cmpw   $0x0,-0x8(%rbp)
    a42f:	74 1e                	je     a44f <safe_mod_func_int16_t_s_s+0x39>
    a431:	66 81 7d fc 00 80    	cmpw   $0x8000,-0x4(%rbp)
    a437:	75 07                	jne    a440 <safe_mod_func_int16_t_s_s+0x2a>
    a439:	66 83 7d f8 ff       	cmpw   $0xffff,-0x8(%rbp)
    a43e:	74 0f                	je     a44f <safe_mod_func_int16_t_s_s+0x39>
    a440:	0f bf 45 fc          	movswl -0x4(%rbp),%eax
    a444:	0f bf 4d f8          	movswl -0x8(%rbp),%ecx
    a448:	99                   	cltd   
    a449:	f7 f9                	idiv   %ecx
    a44b:	89 d0                	mov    %edx,%eax
    a44d:	eb 04                	jmp    a453 <safe_mod_func_int16_t_s_s+0x3d>
    a44f:	0f b7 45 fc          	movzwl -0x4(%rbp),%eax
    a453:	5d                   	pop    %rbp
    a454:	c3                   	retq   

000000000000a455 <safe_div_func_int16_t_s_s>:
    a455:	f3 0f 1e fa          	endbr64 
    a459:	55                   	push   %rbp
    a45a:	48 89 e5             	mov    %rsp,%rbp
    a45d:	89 fa                	mov    %edi,%edx
    a45f:	89 f0                	mov    %esi,%eax
    a461:	66 89 55 fc          	mov    %dx,-0x4(%rbp)
    a465:	66 89 45 f8          	mov    %ax,-0x8(%rbp)
    a469:	66 83 7d f8 00       	cmpw   $0x0,-0x8(%rbp)
    a46e:	74 1c                	je     a48c <safe_div_func_int16_t_s_s+0x37>
    a470:	66 81 7d fc 00 80    	cmpw   $0x8000,-0x4(%rbp)
    a476:	75 07                	jne    a47f <safe_div_func_int16_t_s_s+0x2a>
    a478:	66 83 7d f8 ff       	cmpw   $0xffff,-0x8(%rbp)
    a47d:	74 0d                	je     a48c <safe_div_func_int16_t_s_s+0x37>
    a47f:	0f bf 45 fc          	movswl -0x4(%rbp),%eax
    a483:	0f bf 4d f8          	movswl -0x8(%rbp),%ecx
    a487:	99                   	cltd   
    a488:	f7 f9                	idiv   %ecx
    a48a:	eb 04                	jmp    a490 <safe_div_func_int16_t_s_s+0x3b>
    a48c:	0f b7 45 fc          	movzwl -0x4(%rbp),%eax
    a490:	5d                   	pop    %rbp
    a491:	c3                   	retq   

000000000000a492 <safe_lshift_func_int16_t_s_s>:
    a492:	f3 0f 1e fa          	endbr64 
    a496:	55                   	push   %rbp
    a497:	48 89 e5             	mov    %rsp,%rbp
    a49a:	89 f8                	mov    %edi,%eax
    a49c:	89 75 f8             	mov    %esi,-0x8(%rbp)
    a49f:	66 89 45 fc          	mov    %ax,-0x4(%rbp)
    a4a3:	66 83 7d fc 00       	cmpw   $0x0,-0x4(%rbp)
    a4a8:	78 31                	js     a4db <safe_lshift_func_int16_t_s_s+0x49>
    a4aa:	83 7d f8 00          	cmpl   $0x0,-0x8(%rbp)
    a4ae:	78 2b                	js     a4db <safe_lshift_func_int16_t_s_s+0x49>
    a4b0:	83 7d f8 1f          	cmpl   $0x1f,-0x8(%rbp)
    a4b4:	7f 25                	jg     a4db <safe_lshift_func_int16_t_s_s+0x49>
    a4b6:	0f bf 55 fc          	movswl -0x4(%rbp),%edx
    a4ba:	8b 45 f8             	mov    -0x8(%rbp),%eax
    a4bd:	be ff 7f 00 00       	mov    $0x7fff,%esi
    a4c2:	89 c1                	mov    %eax,%ecx
    a4c4:	d3 fe                	sar    %cl,%esi
    a4c6:	89 f0                	mov    %esi,%eax
    a4c8:	39 c2                	cmp    %eax,%edx
    a4ca:	7f 0f                	jg     a4db <safe_lshift_func_int16_t_s_s+0x49>
    a4cc:	0f bf 55 fc          	movswl -0x4(%rbp),%edx
    a4d0:	8b 45 f8             	mov    -0x8(%rbp),%eax
    a4d3:	89 c1                	mov    %eax,%ecx
    a4d5:	d3 e2                	shl    %cl,%edx
    a4d7:	89 d0                	mov    %edx,%eax
    a4d9:	eb 04                	jmp    a4df <safe_lshift_func_int16_t_s_s+0x4d>
    a4db:	0f b7 45 fc          	movzwl -0x4(%rbp),%eax
    a4df:	5d                   	pop    %rbp
    a4e0:	c3                   	retq   

000000000000a4e1 <safe_lshift_func_int16_t_s_u>:
    a4e1:	f3 0f 1e fa          	endbr64 
    a4e5:	55                   	push   %rbp
    a4e6:	48 89 e5             	mov    %rsp,%rbp
    a4e9:	89 f8                	mov    %edi,%eax
    a4eb:	89 75 f8             	mov    %esi,-0x8(%rbp)
    a4ee:	66 89 45 fc          	mov    %ax,-0x4(%rbp)
    a4f2:	66 83 7d fc 00       	cmpw   $0x0,-0x4(%rbp)
    a4f7:	78 2b                	js     a524 <safe_lshift_func_int16_t_s_u+0x43>
    a4f9:	83 7d f8 1f          	cmpl   $0x1f,-0x8(%rbp)
    a4fd:	77 25                	ja     a524 <safe_lshift_func_int16_t_s_u+0x43>
    a4ff:	0f bf 55 fc          	movswl -0x4(%rbp),%edx
    a503:	8b 45 f8             	mov    -0x8(%rbp),%eax
    a506:	be ff 7f 00 00       	mov    $0x7fff,%esi
    a50b:	89 c1                	mov    %eax,%ecx
    a50d:	d3 fe                	sar    %cl,%esi
    a50f:	89 f0                	mov    %esi,%eax
    a511:	39 c2                	cmp    %eax,%edx
    a513:	7f 0f                	jg     a524 <safe_lshift_func_int16_t_s_u+0x43>
    a515:	0f bf 55 fc          	movswl -0x4(%rbp),%edx
    a519:	8b 45 f8             	mov    -0x8(%rbp),%eax
    a51c:	89 c1                	mov    %eax,%ecx
    a51e:	d3 e2                	shl    %cl,%edx
    a520:	89 d0                	mov    %edx,%eax
    a522:	eb 04                	jmp    a528 <safe_lshift_func_int16_t_s_u+0x47>
    a524:	0f b7 45 fc          	movzwl -0x4(%rbp),%eax
    a528:	5d                   	pop    %rbp
    a529:	c3                   	retq   

000000000000a52a <safe_rshift_func_int16_t_s_s>:
    a52a:	f3 0f 1e fa          	endbr64 
    a52e:	55                   	push   %rbp
    a52f:	48 89 e5             	mov    %rsp,%rbp
    a532:	89 f8                	mov    %edi,%eax
    a534:	89 75 f8             	mov    %esi,-0x8(%rbp)
    a537:	66 89 45 fc          	mov    %ax,-0x4(%rbp)
    a53b:	66 83 7d fc 00       	cmpw   $0x0,-0x4(%rbp)
    a540:	78 1b                	js     a55d <safe_rshift_func_int16_t_s_s+0x33>
    a542:	83 7d f8 00          	cmpl   $0x0,-0x8(%rbp)
    a546:	78 15                	js     a55d <safe_rshift_func_int16_t_s_s+0x33>
    a548:	83 7d f8 1f          	cmpl   $0x1f,-0x8(%rbp)
    a54c:	7f 0f                	jg     a55d <safe_rshift_func_int16_t_s_s+0x33>
    a54e:	0f bf 55 fc          	movswl -0x4(%rbp),%edx
    a552:	8b 45 f8             	mov    -0x8(%rbp),%eax
    a555:	89 c1                	mov    %eax,%ecx
    a557:	d3 fa                	sar    %cl,%edx
    a559:	89 d0                	mov    %edx,%eax
    a55b:	eb 04                	jmp    a561 <safe_rshift_func_int16_t_s_s+0x37>
    a55d:	0f b7 45 fc          	movzwl -0x4(%rbp),%eax
    a561:	5d                   	pop    %rbp
    a562:	c3                   	retq   

000000000000a563 <safe_rshift_func_int16_t_s_u>:
    a563:	f3 0f 1e fa          	endbr64 
    a567:	55                   	push   %rbp
    a568:	48 89 e5             	mov    %rsp,%rbp
    a56b:	89 f8                	mov    %edi,%eax
    a56d:	89 75 f8             	mov    %esi,-0x8(%rbp)
    a570:	66 89 45 fc          	mov    %ax,-0x4(%rbp)
    a574:	66 83 7d fc 00       	cmpw   $0x0,-0x4(%rbp)
    a579:	78 15                	js     a590 <safe_rshift_func_int16_t_s_u+0x2d>
    a57b:	83 7d f8 1f          	cmpl   $0x1f,-0x8(%rbp)
    a57f:	77 0f                	ja     a590 <safe_rshift_func_int16_t_s_u+0x2d>
    a581:	0f bf 55 fc          	movswl -0x4(%rbp),%edx
    a585:	8b 45 f8             	mov    -0x8(%rbp),%eax
    a588:	89 c1                	mov    %eax,%ecx
    a58a:	d3 fa                	sar    %cl,%edx
    a58c:	89 d0                	mov    %edx,%eax
    a58e:	eb 04                	jmp    a594 <safe_rshift_func_int16_t_s_u+0x31>
    a590:	0f b7 45 fc          	movzwl -0x4(%rbp),%eax
    a594:	5d                   	pop    %rbp
    a595:	c3                   	retq   

000000000000a596 <safe_unary_minus_func_int32_t_s>:
    a596:	f3 0f 1e fa          	endbr64 
    a59a:	55                   	push   %rbp
    a59b:	48 89 e5             	mov    %rsp,%rbp
    a59e:	89 7d fc             	mov    %edi,-0x4(%rbp)
    a5a1:	81 7d fc 00 00 00 80 	cmpl   $0x80000000,-0x4(%rbp)
    a5a8:	74 07                	je     a5b1 <safe_unary_minus_func_int32_t_s+0x1b>
    a5aa:	8b 45 fc             	mov    -0x4(%rbp),%eax
    a5ad:	f7 d8                	neg    %eax
    a5af:	eb 03                	jmp    a5b4 <safe_unary_minus_func_int32_t_s+0x1e>
    a5b1:	8b 45 fc             	mov    -0x4(%rbp),%eax
    a5b4:	5d                   	pop    %rbp
    a5b5:	c3                   	retq   

000000000000a5b6 <safe_add_func_int32_t_s_s>:
    a5b6:	f3 0f 1e fa          	endbr64 
    a5ba:	55                   	push   %rbp
    a5bb:	48 89 e5             	mov    %rsp,%rbp
    a5be:	89 7d fc             	mov    %edi,-0x4(%rbp)
    a5c1:	89 75 f8             	mov    %esi,-0x8(%rbp)
    a5c4:	83 7d fc 00          	cmpl   $0x0,-0x4(%rbp)
    a5c8:	7e 13                	jle    a5dd <safe_add_func_int32_t_s_s+0x27>
    a5ca:	83 7d f8 00          	cmpl   $0x0,-0x8(%rbp)
    a5ce:	7e 0d                	jle    a5dd <safe_add_func_int32_t_s_s+0x27>
    a5d0:	b8 ff ff ff 7f       	mov    $0x7fffffff,%eax
    a5d5:	2b 45 f8             	sub    -0x8(%rbp),%eax
    a5d8:	39 45 fc             	cmp    %eax,-0x4(%rbp)
    a5db:	7f 23                	jg     a600 <safe_add_func_int32_t_s_s+0x4a>
    a5dd:	83 7d fc 00          	cmpl   $0x0,-0x4(%rbp)
    a5e1:	79 13                	jns    a5f6 <safe_add_func_int32_t_s_s+0x40>
    a5e3:	83 7d f8 00          	cmpl   $0x0,-0x8(%rbp)
    a5e7:	79 0d                	jns    a5f6 <safe_add_func_int32_t_s_s+0x40>
    a5e9:	b8 00 00 00 80       	mov    $0x80000000,%eax
    a5ee:	2b 45 f8             	sub    -0x8(%rbp),%eax
    a5f1:	39 45 fc             	cmp    %eax,-0x4(%rbp)
    a5f4:	7c 0a                	jl     a600 <safe_add_func_int32_t_s_s+0x4a>
    a5f6:	8b 55 fc             	mov    -0x4(%rbp),%edx
    a5f9:	8b 45 f8             	mov    -0x8(%rbp),%eax
    a5fc:	01 d0                	add    %edx,%eax
    a5fe:	eb 03                	jmp    a603 <safe_add_func_int32_t_s_s+0x4d>
    a600:	8b 45 fc             	mov    -0x4(%rbp),%eax
    a603:	5d                   	pop    %rbp
    a604:	c3                   	retq   

000000000000a605 <safe_sub_func_int32_t_s_s>:
    a605:	f3 0f 1e fa          	endbr64 
    a609:	55                   	push   %rbp
    a60a:	48 89 e5             	mov    %rsp,%rbp
    a60d:	89 7d fc             	mov    %edi,-0x4(%rbp)
    a610:	89 75 f8             	mov    %esi,-0x8(%rbp)
    a613:	8b 45 fc             	mov    -0x4(%rbp),%eax
    a616:	33 45 f8             	xor    -0x8(%rbp),%eax
    a619:	89 c2                	mov    %eax,%edx
    a61b:	8b 45 fc             	mov    -0x4(%rbp),%eax
    a61e:	33 45 f8             	xor    -0x8(%rbp),%eax
    a621:	25 00 00 00 80       	and    $0x80000000,%eax
    a626:	33 45 fc             	xor    -0x4(%rbp),%eax
    a629:	2b 45 f8             	sub    -0x8(%rbp),%eax
    a62c:	33 45 f8             	xor    -0x8(%rbp),%eax
    a62f:	21 d0                	and    %edx,%eax
    a631:	85 c0                	test   %eax,%eax
    a633:	78 08                	js     a63d <safe_sub_func_int32_t_s_s+0x38>
    a635:	8b 45 fc             	mov    -0x4(%rbp),%eax
    a638:	2b 45 f8             	sub    -0x8(%rbp),%eax
    a63b:	eb 03                	jmp    a640 <safe_sub_func_int32_t_s_s+0x3b>
    a63d:	8b 45 fc             	mov    -0x4(%rbp),%eax
    a640:	5d                   	pop    %rbp
    a641:	c3                   	retq   

000000000000a642 <safe_mul_func_int32_t_s_s>:
    a642:	f3 0f 1e fa          	endbr64 
    a646:	55                   	push   %rbp
    a647:	48 89 e5             	mov    %rsp,%rbp
    a64a:	89 7d fc             	mov    %edi,-0x4(%rbp)
    a64d:	89 75 f8             	mov    %esi,-0x8(%rbp)
    a650:	83 7d fc 00          	cmpl   $0x0,-0x4(%rbp)
    a654:	7e 14                	jle    a66a <safe_mul_func_int32_t_s_s+0x28>
    a656:	83 7d f8 00          	cmpl   $0x0,-0x8(%rbp)
    a65a:	7e 0e                	jle    a66a <safe_mul_func_int32_t_s_s+0x28>
    a65c:	b8 ff ff ff 7f       	mov    $0x7fffffff,%eax
    a661:	99                   	cltd   
    a662:	f7 7d f8             	idivl  -0x8(%rbp)
    a665:	39 45 fc             	cmp    %eax,-0x4(%rbp)
    a668:	7f 5d                	jg     a6c7 <safe_mul_func_int32_t_s_s+0x85>
    a66a:	83 7d fc 00          	cmpl   $0x0,-0x4(%rbp)
    a66e:	7e 14                	jle    a684 <safe_mul_func_int32_t_s_s+0x42>
    a670:	83 7d f8 00          	cmpl   $0x0,-0x8(%rbp)
    a674:	7f 0e                	jg     a684 <safe_mul_func_int32_t_s_s+0x42>
    a676:	b8 00 00 00 80       	mov    $0x80000000,%eax
    a67b:	99                   	cltd   
    a67c:	f7 7d fc             	idivl  -0x4(%rbp)
    a67f:	39 45 f8             	cmp    %eax,-0x8(%rbp)
    a682:	7c 43                	jl     a6c7 <safe_mul_func_int32_t_s_s+0x85>
    a684:	83 7d fc 00          	cmpl   $0x0,-0x4(%rbp)
    a688:	7f 14                	jg     a69e <safe_mul_func_int32_t_s_s+0x5c>
    a68a:	83 7d f8 00          	cmpl   $0x0,-0x8(%rbp)
    a68e:	7e 0e                	jle    a69e <safe_mul_func_int32_t_s_s+0x5c>
    a690:	b8 00 00 00 80       	mov    $0x80000000,%eax
    a695:	99                   	cltd   
    a696:	f7 7d f8             	idivl  -0x8(%rbp)
    a699:	39 45 fc             	cmp    %eax,-0x4(%rbp)
    a69c:	7c 29                	jl     a6c7 <safe_mul_func_int32_t_s_s+0x85>
    a69e:	83 7d fc 00          	cmpl   $0x0,-0x4(%rbp)
    a6a2:	7f 1a                	jg     a6be <safe_mul_func_int32_t_s_s+0x7c>
    a6a4:	83 7d f8 00          	cmpl   $0x0,-0x8(%rbp)
    a6a8:	7f 14                	jg     a6be <safe_mul_func_int32_t_s_s+0x7c>
    a6aa:	83 7d fc 00          	cmpl   $0x0,-0x4(%rbp)
    a6ae:	74 0e                	je     a6be <safe_mul_func_int32_t_s_s+0x7c>
    a6b0:	b8 ff ff ff 7f       	mov    $0x7fffffff,%eax
    a6b5:	99                   	cltd   
    a6b6:	f7 7d fc             	idivl  -0x4(%rbp)
    a6b9:	39 45 f8             	cmp    %eax,-0x8(%rbp)
    a6bc:	7c 09                	jl     a6c7 <safe_mul_func_int32_t_s_s+0x85>
    a6be:	8b 45 fc             	mov    -0x4(%rbp),%eax
    a6c1:	0f af 45 f8          	imul   -0x8(%rbp),%eax
    a6c5:	eb 03                	jmp    a6ca <safe_mul_func_int32_t_s_s+0x88>
    a6c7:	8b 45 fc             	mov    -0x4(%rbp),%eax
    a6ca:	5d                   	pop    %rbp
    a6cb:	c3                   	retq   

000000000000a6cc <safe_mod_func_int32_t_s_s>:
    a6cc:	f3 0f 1e fa          	endbr64 
    a6d0:	55                   	push   %rbp
    a6d1:	48 89 e5             	mov    %rsp,%rbp
    a6d4:	89 7d fc             	mov    %edi,-0x4(%rbp)
    a6d7:	89 75 f8             	mov    %esi,-0x8(%rbp)
    a6da:	83 7d f8 00          	cmpl   $0x0,-0x8(%rbp)
    a6de:	74 1a                	je     a6fa <safe_mod_func_int32_t_s_s+0x2e>
    a6e0:	81 7d fc 00 00 00 80 	cmpl   $0x80000000,-0x4(%rbp)
    a6e7:	75 06                	jne    a6ef <safe_mod_func_int32_t_s_s+0x23>
    a6e9:	83 7d f8 ff          	cmpl   $0xffffffff,-0x8(%rbp)
    a6ed:	74 0b                	je     a6fa <safe_mod_func_int32_t_s_s+0x2e>
    a6ef:	8b 45 fc             	mov    -0x4(%rbp),%eax
    a6f2:	99                   	cltd   
    a6f3:	f7 7d f8             	idivl  -0x8(%rbp)
    a6f6:	89 d0                	mov    %edx,%eax
    a6f8:	eb 03                	jmp    a6fd <safe_mod_func_int32_t_s_s+0x31>
    a6fa:	8b 45 fc             	mov    -0x4(%rbp),%eax
    a6fd:	5d                   	pop    %rbp
    a6fe:	c3                   	retq   

000000000000a6ff <safe_div_func_int32_t_s_s>:
    a6ff:	f3 0f 1e fa          	endbr64 
    a703:	55                   	push   %rbp
    a704:	48 89 e5             	mov    %rsp,%rbp
    a707:	89 7d fc             	mov    %edi,-0x4(%rbp)
    a70a:	89 75 f8             	mov    %esi,-0x8(%rbp)
    a70d:	83 7d f8 00          	cmpl   $0x0,-0x8(%rbp)
    a711:	74 18                	je     a72b <safe_div_func_int32_t_s_s+0x2c>
    a713:	81 7d fc 00 00 00 80 	cmpl   $0x80000000,-0x4(%rbp)
    a71a:	75 06                	jne    a722 <safe_div_func_int32_t_s_s+0x23>
    a71c:	83 7d f8 ff          	cmpl   $0xffffffff,-0x8(%rbp)
    a720:	74 09                	je     a72b <safe_div_func_int32_t_s_s+0x2c>
    a722:	8b 45 fc             	mov    -0x4(%rbp),%eax
    a725:	99                   	cltd   
    a726:	f7 7d f8             	idivl  -0x8(%rbp)
    a729:	eb 03                	jmp    a72e <safe_div_func_int32_t_s_s+0x2f>
    a72b:	8b 45 fc             	mov    -0x4(%rbp),%eax
    a72e:	5d                   	pop    %rbp
    a72f:	c3                   	retq   

000000000000a730 <safe_lshift_func_int32_t_s_s>:
    a730:	f3 0f 1e fa          	endbr64 
    a734:	55                   	push   %rbp
    a735:	48 89 e5             	mov    %rsp,%rbp
    a738:	89 7d fc             	mov    %edi,-0x4(%rbp)
    a73b:	89 75 f8             	mov    %esi,-0x8(%rbp)
    a73e:	83 7d fc 00          	cmpl   $0x0,-0x4(%rbp)
    a742:	78 2d                	js     a771 <safe_lshift_func_int32_t_s_s+0x41>
    a744:	83 7d f8 00          	cmpl   $0x0,-0x8(%rbp)
    a748:	78 27                	js     a771 <safe_lshift_func_int32_t_s_s+0x41>
    a74a:	83 7d f8 1f          	cmpl   $0x1f,-0x8(%rbp)
    a74e:	7f 21                	jg     a771 <safe_lshift_func_int32_t_s_s+0x41>
    a750:	8b 45 f8             	mov    -0x8(%rbp),%eax
    a753:	ba ff ff ff 7f       	mov    $0x7fffffff,%edx
    a758:	89 c1                	mov    %eax,%ecx
    a75a:	d3 fa                	sar    %cl,%edx
    a75c:	89 d0                	mov    %edx,%eax
    a75e:	39 45 fc             	cmp    %eax,-0x4(%rbp)
    a761:	7f 0e                	jg     a771 <safe_lshift_func_int32_t_s_s+0x41>
    a763:	8b 45 f8             	mov    -0x8(%rbp),%eax
    a766:	8b 55 fc             	mov    -0x4(%rbp),%edx
    a769:	89 c1                	mov    %eax,%ecx
    a76b:	d3 e2                	shl    %cl,%edx
    a76d:	89 d0                	mov    %edx,%eax
    a76f:	eb 03                	jmp    a774 <safe_lshift_func_int32_t_s_s+0x44>
    a771:	8b 45 fc             	mov    -0x4(%rbp),%eax
    a774:	5d                   	pop    %rbp
    a775:	c3                   	retq   

000000000000a776 <safe_lshift_func_int32_t_s_u>:
    a776:	f3 0f 1e fa          	endbr64 
    a77a:	55                   	push   %rbp
    a77b:	48 89 e5             	mov    %rsp,%rbp
    a77e:	89 7d fc             	mov    %edi,-0x4(%rbp)
    a781:	89 75 f8             	mov    %esi,-0x8(%rbp)
    a784:	83 7d fc 00          	cmpl   $0x0,-0x4(%rbp)
    a788:	78 27                	js     a7b1 <safe_lshift_func_int32_t_s_u+0x3b>
    a78a:	83 7d f8 1f          	cmpl   $0x1f,-0x8(%rbp)
    a78e:	77 21                	ja     a7b1 <safe_lshift_func_int32_t_s_u+0x3b>
    a790:	8b 45 f8             	mov    -0x8(%rbp),%eax
    a793:	ba ff ff ff 7f       	mov    $0x7fffffff,%edx
    a798:	89 c1                	mov    %eax,%ecx
    a79a:	d3 fa                	sar    %cl,%edx
    a79c:	89 d0                	mov    %edx,%eax
    a79e:	39 45 fc             	cmp    %eax,-0x4(%rbp)
    a7a1:	7f 0e                	jg     a7b1 <safe_lshift_func_int32_t_s_u+0x3b>
    a7a3:	8b 45 f8             	mov    -0x8(%rbp),%eax
    a7a6:	8b 55 fc             	mov    -0x4(%rbp),%edx
    a7a9:	89 c1                	mov    %eax,%ecx
    a7ab:	d3 e2                	shl    %cl,%edx
    a7ad:	89 d0                	mov    %edx,%eax
    a7af:	eb 03                	jmp    a7b4 <safe_lshift_func_int32_t_s_u+0x3e>
    a7b1:	8b 45 fc             	mov    -0x4(%rbp),%eax
    a7b4:	5d                   	pop    %rbp
    a7b5:	c3                   	retq   

000000000000a7b6 <safe_rshift_func_int32_t_s_s>:
    a7b6:	f3 0f 1e fa          	endbr64 
    a7ba:	55                   	push   %rbp
    a7bb:	48 89 e5             	mov    %rsp,%rbp
    a7be:	89 7d fc             	mov    %edi,-0x4(%rbp)
    a7c1:	89 75 f8             	mov    %esi,-0x8(%rbp)
    a7c4:	83 7d fc 00          	cmpl   $0x0,-0x4(%rbp)
    a7c8:	78 1a                	js     a7e4 <safe_rshift_func_int32_t_s_s+0x2e>
    a7ca:	83 7d f8 00          	cmpl   $0x0,-0x8(%rbp)
    a7ce:	78 14                	js     a7e4 <safe_rshift_func_int32_t_s_s+0x2e>
    a7d0:	83 7d f8 1f          	cmpl   $0x1f,-0x8(%rbp)
    a7d4:	7f 0e                	jg     a7e4 <safe_rshift_func_int32_t_s_s+0x2e>
    a7d6:	8b 45 f8             	mov    -0x8(%rbp),%eax
    a7d9:	8b 55 fc             	mov    -0x4(%rbp),%edx
    a7dc:	89 c1                	mov    %eax,%ecx
    a7de:	d3 fa                	sar    %cl,%edx
    a7e0:	89 d0                	mov    %edx,%eax
    a7e2:	eb 03                	jmp    a7e7 <safe_rshift_func_int32_t_s_s+0x31>
    a7e4:	8b 45 fc             	mov    -0x4(%rbp),%eax
    a7e7:	5d                   	pop    %rbp
    a7e8:	c3                   	retq   

000000000000a7e9 <safe_rshift_func_int32_t_s_u>:
    a7e9:	f3 0f 1e fa          	endbr64 
    a7ed:	55                   	push   %rbp
    a7ee:	48 89 e5             	mov    %rsp,%rbp
    a7f1:	89 7d fc             	mov    %edi,-0x4(%rbp)
    a7f4:	89 75 f8             	mov    %esi,-0x8(%rbp)
    a7f7:	83 7d fc 00          	cmpl   $0x0,-0x4(%rbp)
    a7fb:	78 14                	js     a811 <safe_rshift_func_int32_t_s_u+0x28>
    a7fd:	83 7d f8 1f          	cmpl   $0x1f,-0x8(%rbp)
    a801:	77 0e                	ja     a811 <safe_rshift_func_int32_t_s_u+0x28>
    a803:	8b 45 f8             	mov    -0x8(%rbp),%eax
    a806:	8b 55 fc             	mov    -0x4(%rbp),%edx
    a809:	89 c1                	mov    %eax,%ecx
    a80b:	d3 fa                	sar    %cl,%edx
    a80d:	89 d0                	mov    %edx,%eax
    a80f:	eb 03                	jmp    a814 <safe_rshift_func_int32_t_s_u+0x2b>
    a811:	8b 45 fc             	mov    -0x4(%rbp),%eax
    a814:	5d                   	pop    %rbp
    a815:	c3                   	retq   

000000000000a816 <safe_unary_minus_func_int64_t_s>:
    a816:	f3 0f 1e fa          	endbr64 
    a81a:	55                   	push   %rbp
    a81b:	48 89 e5             	mov    %rsp,%rbp
    a81e:	48 89 7d f8          	mov    %rdi,-0x8(%rbp)
    a822:	48 b8 00 00 00 00 00 	movabs $0x8000000000000000,%rax
    a829:	00 00 80 
    a82c:	48 39 45 f8          	cmp    %rax,-0x8(%rbp)
    a830:	74 09                	je     a83b <safe_unary_minus_func_int64_t_s+0x25>
    a832:	48 8b 45 f8          	mov    -0x8(%rbp),%rax
    a836:	48 f7 d8             	neg    %rax
    a839:	eb 04                	jmp    a83f <safe_unary_minus_func_int64_t_s+0x29>
    a83b:	48 8b 45 f8          	mov    -0x8(%rbp),%rax
    a83f:	5d                   	pop    %rbp
    a840:	c3                   	retq   

000000000000a841 <safe_add_func_int64_t_s_s>:
    a841:	f3 0f 1e fa          	endbr64 
    a845:	55                   	push   %rbp
    a846:	48 89 e5             	mov    %rsp,%rbp
    a849:	48 89 7d f8          	mov    %rdi,-0x8(%rbp)
    a84d:	48 89 75 f0          	mov    %rsi,-0x10(%rbp)
    a851:	48 83 7d f8 00       	cmpq   $0x0,-0x8(%rbp)
    a856:	7e 1b                	jle    a873 <safe_add_func_int64_t_s_s+0x32>
    a858:	48 83 7d f0 00       	cmpq   $0x0,-0x10(%rbp)
    a85d:	7e 14                	jle    a873 <safe_add_func_int64_t_s_s+0x32>
    a85f:	48 b8 ff ff ff ff ff 	movabs $0x7fffffffffffffff,%rax
    a866:	ff ff 7f 
    a869:	48 2b 45 f0          	sub    -0x10(%rbp),%rax
    a86d:	48 39 45 f8          	cmp    %rax,-0x8(%rbp)
    a871:	7f 2f                	jg     a8a2 <safe_add_func_int64_t_s_s+0x61>
    a873:	48 83 7d f8 00       	cmpq   $0x0,-0x8(%rbp)
    a878:	79 1b                	jns    a895 <safe_add_func_int64_t_s_s+0x54>
    a87a:	48 83 7d f0 00       	cmpq   $0x0,-0x10(%rbp)
    a87f:	79 14                	jns    a895 <safe_add_func_int64_t_s_s+0x54>
    a881:	48 b8 00 00 00 00 00 	movabs $0x8000000000000000,%rax
    a888:	00 00 80 
    a88b:	48 2b 45 f0          	sub    -0x10(%rbp),%rax
    a88f:	48 39 45 f8          	cmp    %rax,-0x8(%rbp)
    a893:	7c 0d                	jl     a8a2 <safe_add_func_int64_t_s_s+0x61>
    a895:	48 8b 55 f8          	mov    -0x8(%rbp),%rdx
    a899:	48 8b 45 f0          	mov    -0x10(%rbp),%rax
    a89d:	48 01 d0             	add    %rdx,%rax
    a8a0:	eb 04                	jmp    a8a6 <safe_add_func_int64_t_s_s+0x65>
    a8a2:	48 8b 45 f8          	mov    -0x8(%rbp),%rax
    a8a6:	5d                   	pop    %rbp
    a8a7:	c3                   	retq   

000000000000a8a8 <safe_sub_func_int64_t_s_s>:
    a8a8:	f3 0f 1e fa          	endbr64 
    a8ac:	55                   	push   %rbp
    a8ad:	48 89 e5             	mov    %rsp,%rbp
    a8b0:	48 89 7d f8          	mov    %rdi,-0x8(%rbp)
    a8b4:	48 89 75 f0          	mov    %rsi,-0x10(%rbp)
    a8b8:	48 8b 45 f8          	mov    -0x8(%rbp),%rax
    a8bc:	48 33 45 f0          	xor    -0x10(%rbp),%rax
    a8c0:	48 89 c2             	mov    %rax,%rdx
    a8c3:	48 8b 45 f8          	mov    -0x8(%rbp),%rax
    a8c7:	48 33 45 f0          	xor    -0x10(%rbp),%rax
    a8cb:	48 b9 00 00 00 00 00 	movabs $0x8000000000000000,%rcx
    a8d2:	00 00 80 
    a8d5:	48 21 c8             	and    %rcx,%rax
    a8d8:	48 33 45 f8          	xor    -0x8(%rbp),%rax
    a8dc:	48 2b 45 f0          	sub    -0x10(%rbp),%rax
    a8e0:	48 33 45 f0          	xor    -0x10(%rbp),%rax
    a8e4:	48 21 d0             	and    %rdx,%rax
    a8e7:	48 85 c0             	test   %rax,%rax
    a8ea:	78 0a                	js     a8f6 <safe_sub_func_int64_t_s_s+0x4e>
    a8ec:	48 8b 45 f8          	mov    -0x8(%rbp),%rax
    a8f0:	48 2b 45 f0          	sub    -0x10(%rbp),%rax
    a8f4:	eb 04                	jmp    a8fa <safe_sub_func_int64_t_s_s+0x52>
    a8f6:	48 8b 45 f8          	mov    -0x8(%rbp),%rax
    a8fa:	5d                   	pop    %rbp
    a8fb:	c3                   	retq   

000000000000a8fc <safe_mul_func_int64_t_s_s>:
    a8fc:	f3 0f 1e fa          	endbr64 
    a900:	55                   	push   %rbp
    a901:	48 89 e5             	mov    %rsp,%rbp
    a904:	48 89 7d f8          	mov    %rdi,-0x8(%rbp)
    a908:	48 89 75 f0          	mov    %rsi,-0x10(%rbp)
    a90c:	48 83 7d f8 00       	cmpq   $0x0,-0x8(%rbp)
    a911:	7e 1d                	jle    a930 <safe_mul_func_int64_t_s_s+0x34>
    a913:	48 83 7d f0 00       	cmpq   $0x0,-0x10(%rbp)
    a918:	7e 16                	jle    a930 <safe_mul_func_int64_t_s_s+0x34>
    a91a:	48 b8 ff ff ff ff ff 	movabs $0x7fffffffffffffff,%rax
    a921:	ff ff 7f 
    a924:	48 99                	cqto   
    a926:	48 f7 7d f0          	idivq  -0x10(%rbp)
    a92a:	48 39 45 f8          	cmp    %rax,-0x8(%rbp)
    a92e:	7f 7e                	jg     a9ae <safe_mul_func_int64_t_s_s+0xb2>
    a930:	48 83 7d f8 00       	cmpq   $0x0,-0x8(%rbp)
    a935:	7e 1d                	jle    a954 <safe_mul_func_int64_t_s_s+0x58>
    a937:	48 83 7d f0 00       	cmpq   $0x0,-0x10(%rbp)
    a93c:	7f 16                	jg     a954 <safe_mul_func_int64_t_s_s+0x58>
    a93e:	48 b8 00 00 00 00 00 	movabs $0x8000000000000000,%rax
    a945:	00 00 80 
    a948:	48 99                	cqto   
    a94a:	48 f7 7d f8          	idivq  -0x8(%rbp)
    a94e:	48 39 45 f0          	cmp    %rax,-0x10(%rbp)
    a952:	7c 5a                	jl     a9ae <safe_mul_func_int64_t_s_s+0xb2>
    a954:	48 83 7d f8 00       	cmpq   $0x0,-0x8(%rbp)
    a959:	7f 1d                	jg     a978 <safe_mul_func_int64_t_s_s+0x7c>
    a95b:	48 83 7d f0 00       	cmpq   $0x0,-0x10(%rbp)
    a960:	7e 16                	jle    a978 <safe_mul_func_int64_t_s_s+0x7c>
    a962:	48 b8 00 00 00 00 00 	movabs $0x8000000000000000,%rax
    a969:	00 00 80 
    a96c:	48 99                	cqto   
    a96e:	48 f7 7d f0          	idivq  -0x10(%rbp)
    a972:	48 39 45 f8          	cmp    %rax,-0x8(%rbp)
    a976:	7c 36                	jl     a9ae <safe_mul_func_int64_t_s_s+0xb2>
    a978:	48 83 7d f8 00       	cmpq   $0x0,-0x8(%rbp)
    a97d:	7f 24                	jg     a9a3 <safe_mul_func_int64_t_s_s+0xa7>
    a97f:	48 83 7d f0 00       	cmpq   $0x0,-0x10(%rbp)
    a984:	7f 1d                	jg     a9a3 <safe_mul_func_int64_t_s_s+0xa7>
    a986:	48 83 7d f8 00       	cmpq   $0x0,-0x8(%rbp)
    a98b:	74 16                	je     a9a3 <safe_mul_func_int64_t_s_s+0xa7>
    a98d:	48 b8 ff ff ff ff ff 	movabs $0x7fffffffffffffff,%rax
    a994:	ff ff 7f 
    a997:	48 99                	cqto   
    a999:	48 f7 7d f8          	idivq  -0x8(%rbp)
    a99d:	48 39 45 f0          	cmp    %rax,-0x10(%rbp)
    a9a1:	7c 0b                	jl     a9ae <safe_mul_func_int64_t_s_s+0xb2>
    a9a3:	48 8b 45 f8          	mov    -0x8(%rbp),%rax
    a9a7:	48 0f af 45 f0       	imul   -0x10(%rbp),%rax
    a9ac:	eb 04                	jmp    a9b2 <safe_mul_func_int64_t_s_s+0xb6>
    a9ae:	48 8b 45 f8          	mov    -0x8(%rbp),%rax
    a9b2:	5d                   	pop    %rbp
    a9b3:	c3                   	retq   

000000000000a9b4 <safe_mod_func_int64_t_s_s>:
    a9b4:	f3 0f 1e fa          	endbr64 
    a9b8:	55                   	push   %rbp
    a9b9:	48 89 e5             	mov    %rsp,%rbp
    a9bc:	48 89 7d f8          	mov    %rdi,-0x8(%rbp)
    a9c0:	48 89 75 f0          	mov    %rsi,-0x10(%rbp)
    a9c4:	48 83 7d f0 00       	cmpq   $0x0,-0x10(%rbp)
    a9c9:	74 26                	je     a9f1 <safe_mod_func_int64_t_s_s+0x3d>
    a9cb:	48 b8 00 00 00 00 00 	movabs $0x8000000000000000,%rax
    a9d2:	00 00 80 
    a9d5:	48 39 45 f8          	cmp    %rax,-0x8(%rbp)
    a9d9:	75 07                	jne    a9e2 <safe_mod_func_int64_t_s_s+0x2e>
    a9db:	48 83 7d f0 ff       	cmpq   $0xffffffffffffffff,-0x10(%rbp)
    a9e0:	74 0f                	je     a9f1 <safe_mod_func_int64_t_s_s+0x3d>
    a9e2:	48 8b 45 f8          	mov    -0x8(%rbp),%rax
    a9e6:	48 99                	cqto   
    a9e8:	48 f7 7d f0          	idivq  -0x10(%rbp)
    a9ec:	48 89 d0             	mov    %rdx,%rax
    a9ef:	eb 04                	jmp    a9f5 <safe_mod_func_int64_t_s_s+0x41>
    a9f1:	48 8b 45 f8          	mov    -0x8(%rbp),%rax
    a9f5:	5d                   	pop    %rbp
    a9f6:	c3                   	retq   

000000000000a9f7 <safe_div_func_int64_t_s_s>:
    a9f7:	f3 0f 1e fa          	endbr64 
    a9fb:	55                   	push   %rbp
    a9fc:	48 89 e5             	mov    %rsp,%rbp
    a9ff:	48 89 7d f8          	mov    %rdi,-0x8(%rbp)
    aa03:	48 89 75 f0          	mov    %rsi,-0x10(%rbp)
    aa07:	48 83 7d f0 00       	cmpq   $0x0,-0x10(%rbp)
    aa0c:	74 23                	je     aa31 <safe_div_func_int64_t_s_s+0x3a>
    aa0e:	48 b8 00 00 00 00 00 	movabs $0x8000000000000000,%rax
    aa15:	00 00 80 
    aa18:	48 39 45 f8          	cmp    %rax,-0x8(%rbp)
    aa1c:	75 07                	jne    aa25 <safe_div_func_int64_t_s_s+0x2e>
    aa1e:	48 83 7d f0 ff       	cmpq   $0xffffffffffffffff,-0x10(%rbp)
    aa23:	74 0c                	je     aa31 <safe_div_func_int64_t_s_s+0x3a>
    aa25:	48 8b 45 f8          	mov    -0x8(%rbp),%rax
    aa29:	48 99                	cqto   
    aa2b:	48 f7 7d f0          	idivq  -0x10(%rbp)
    aa2f:	eb 04                	jmp    aa35 <safe_div_func_int64_t_s_s+0x3e>
    aa31:	48 8b 45 f8          	mov    -0x8(%rbp),%rax
    aa35:	5d                   	pop    %rbp
    aa36:	c3                   	retq   

000000000000aa37 <safe_lshift_func_int64_t_s_s>:
    aa37:	f3 0f 1e fa          	endbr64 
    aa3b:	55                   	push   %rbp
    aa3c:	48 89 e5             	mov    %rsp,%rbp
    aa3f:	48 89 7d f8          	mov    %rdi,-0x8(%rbp)
    aa43:	89 75 f4             	mov    %esi,-0xc(%rbp)
    aa46:	48 83 7d f8 00       	cmpq   $0x0,-0x8(%rbp)
    aa4b:	78 38                	js     aa85 <safe_lshift_func_int64_t_s_s+0x4e>
    aa4d:	83 7d f4 00          	cmpl   $0x0,-0xc(%rbp)
    aa51:	78 32                	js     aa85 <safe_lshift_func_int64_t_s_s+0x4e>
    aa53:	83 7d f4 1f          	cmpl   $0x1f,-0xc(%rbp)
    aa57:	7f 2c                	jg     aa85 <safe_lshift_func_int64_t_s_s+0x4e>
    aa59:	8b 45 f4             	mov    -0xc(%rbp),%eax
    aa5c:	48 ba ff ff ff ff ff 	movabs $0x7fffffffffffffff,%rdx
    aa63:	ff ff 7f 
    aa66:	89 c1                	mov    %eax,%ecx
    aa68:	48 d3 fa             	sar    %cl,%rdx
    aa6b:	48 89 d0             	mov    %rdx,%rax
    aa6e:	48 39 45 f8          	cmp    %rax,-0x8(%rbp)
    aa72:	7f 11                	jg     aa85 <safe_lshift_func_int64_t_s_s+0x4e>
    aa74:	8b 45 f4             	mov    -0xc(%rbp),%eax
    aa77:	48 8b 55 f8          	mov    -0x8(%rbp),%rdx
    aa7b:	89 c1                	mov    %eax,%ecx
    aa7d:	48 d3 e2             	shl    %cl,%rdx
    aa80:	48 89 d0             	mov    %rdx,%rax
    aa83:	eb 04                	jmp    aa89 <safe_lshift_func_int64_t_s_s+0x52>
    aa85:	48 8b 45 f8          	mov    -0x8(%rbp),%rax
    aa89:	5d                   	pop    %rbp
    aa8a:	c3                   	retq   

000000000000aa8b <safe_lshift_func_int64_t_s_u>:
    aa8b:	f3 0f 1e fa          	endbr64 
    aa8f:	55                   	push   %rbp
    aa90:	48 89 e5             	mov    %rsp,%rbp
    aa93:	48 89 7d f8          	mov    %rdi,-0x8(%rbp)
    aa97:	89 75 f4             	mov    %esi,-0xc(%rbp)
    aa9a:	48 83 7d f8 00       	cmpq   $0x0,-0x8(%rbp)
    aa9f:	78 32                	js     aad3 <safe_lshift_func_int64_t_s_u+0x48>
    aaa1:	83 7d f4 1f          	cmpl   $0x1f,-0xc(%rbp)
    aaa5:	77 2c                	ja     aad3 <safe_lshift_func_int64_t_s_u+0x48>
    aaa7:	8b 45 f4             	mov    -0xc(%rbp),%eax
    aaaa:	48 ba ff ff ff ff ff 	movabs $0x7fffffffffffffff,%rdx
    aab1:	ff ff 7f 
    aab4:	89 c1                	mov    %eax,%ecx
    aab6:	48 d3 fa             	sar    %cl,%rdx
    aab9:	48 89 d0             	mov    %rdx,%rax
    aabc:	48 39 45 f8          	cmp    %rax,-0x8(%rbp)
    aac0:	7f 11                	jg     aad3 <safe_lshift_func_int64_t_s_u+0x48>
    aac2:	8b 45 f4             	mov    -0xc(%rbp),%eax
    aac5:	48 8b 55 f8          	mov    -0x8(%rbp),%rdx
    aac9:	89 c1                	mov    %eax,%ecx
    aacb:	48 d3 e2             	shl    %cl,%rdx
    aace:	48 89 d0             	mov    %rdx,%rax
    aad1:	eb 04                	jmp    aad7 <safe_lshift_func_int64_t_s_u+0x4c>
    aad3:	48 8b 45 f8          	mov    -0x8(%rbp),%rax
    aad7:	5d                   	pop    %rbp
    aad8:	c3                   	retq   

000000000000aad9 <safe_rshift_func_int64_t_s_s>:
    aad9:	f3 0f 1e fa          	endbr64 
    aadd:	55                   	push   %rbp
    aade:	48 89 e5             	mov    %rsp,%rbp
    aae1:	48 89 7d f8          	mov    %rdi,-0x8(%rbp)
    aae5:	89 75 f4             	mov    %esi,-0xc(%rbp)
    aae8:	48 83 7d f8 00       	cmpq   $0x0,-0x8(%rbp)
    aaed:	78 1d                	js     ab0c <safe_rshift_func_int64_t_s_s+0x33>
    aaef:	83 7d f4 00          	cmpl   $0x0,-0xc(%rbp)
    aaf3:	78 17                	js     ab0c <safe_rshift_func_int64_t_s_s+0x33>
    aaf5:	83 7d f4 1f          	cmpl   $0x1f,-0xc(%rbp)
    aaf9:	7f 11                	jg     ab0c <safe_rshift_func_int64_t_s_s+0x33>
    aafb:	8b 45 f4             	mov    -0xc(%rbp),%eax
    aafe:	48 8b 55 f8          	mov    -0x8(%rbp),%rdx
    ab02:	89 c1                	mov    %eax,%ecx
    ab04:	48 d3 fa             	sar    %cl,%rdx
    ab07:	48 89 d0             	mov    %rdx,%rax
    ab0a:	eb 04                	jmp    ab10 <safe_rshift_func_int64_t_s_s+0x37>
    ab0c:	48 8b 45 f8          	mov    -0x8(%rbp),%rax
    ab10:	5d                   	pop    %rbp
    ab11:	c3                   	retq   

000000000000ab12 <safe_rshift_func_int64_t_s_u>:
    ab12:	f3 0f 1e fa          	endbr64 
    ab16:	55                   	push   %rbp
    ab17:	48 89 e5             	mov    %rsp,%rbp
    ab1a:	48 89 7d f8          	mov    %rdi,-0x8(%rbp)
    ab1e:	89 75 f4             	mov    %esi,-0xc(%rbp)
    ab21:	48 83 7d f8 00       	cmpq   $0x0,-0x8(%rbp)
    ab26:	78 17                	js     ab3f <safe_rshift_func_int64_t_s_u+0x2d>
    ab28:	83 7d f4 1f          	cmpl   $0x1f,-0xc(%rbp)
    ab2c:	77 11                	ja     ab3f <safe_rshift_func_int64_t_s_u+0x2d>
    ab2e:	8b 45 f4             	mov    -0xc(%rbp),%eax
    ab31:	48 8b 55 f8          	mov    -0x8(%rbp),%rdx
    ab35:	89 c1                	mov    %eax,%ecx
    ab37:	48 d3 fa             	sar    %cl,%rdx
    ab3a:	48 89 d0             	mov    %rdx,%rax
    ab3d:	eb 04                	jmp    ab43 <safe_rshift_func_int64_t_s_u+0x31>
    ab3f:	48 8b 45 f8          	mov    -0x8(%rbp),%rax
    ab43:	5d                   	pop    %rbp
    ab44:	c3                   	retq   

000000000000ab45 <safe_unary_minus_func_uint8_t_u>:
    ab45:	f3 0f 1e fa          	endbr64 
    ab49:	55                   	push   %rbp
    ab4a:	48 89 e5             	mov    %rsp,%rbp
    ab4d:	89 f8                	mov    %edi,%eax
    ab4f:	88 45 fc             	mov    %al,-0x4(%rbp)
    ab52:	0f b6 45 fc          	movzbl -0x4(%rbp),%eax
    ab56:	f7 d8                	neg    %eax
    ab58:	5d                   	pop    %rbp
    ab59:	c3                   	retq   

000000000000ab5a <safe_add_func_uint8_t_u_u>:
    ab5a:	f3 0f 1e fa          	endbr64 
    ab5e:	55                   	push   %rbp
    ab5f:	48 89 e5             	mov    %rsp,%rbp
    ab62:	89 fa                	mov    %edi,%edx
    ab64:	89 f0                	mov    %esi,%eax
    ab66:	88 55 fc             	mov    %dl,-0x4(%rbp)
    ab69:	88 45 f8             	mov    %al,-0x8(%rbp)
    ab6c:	0f b6 55 fc          	movzbl -0x4(%rbp),%edx
    ab70:	0f b6 45 f8          	movzbl -0x8(%rbp),%eax
    ab74:	01 d0                	add    %edx,%eax
    ab76:	5d                   	pop    %rbp
    ab77:	c3                   	retq   

000000000000ab78 <safe_sub_func_uint8_t_u_u>:
    ab78:	f3 0f 1e fa          	endbr64 
    ab7c:	55                   	push   %rbp
    ab7d:	48 89 e5             	mov    %rsp,%rbp
    ab80:	89 fa                	mov    %edi,%edx
    ab82:	89 f0                	mov    %esi,%eax
    ab84:	88 55 fc             	mov    %dl,-0x4(%rbp)
    ab87:	88 45 f8             	mov    %al,-0x8(%rbp)
    ab8a:	0f b6 45 fc          	movzbl -0x4(%rbp),%eax
    ab8e:	2a 45 f8             	sub    -0x8(%rbp),%al
    ab91:	5d                   	pop    %rbp
    ab92:	c3                   	retq   

000000000000ab93 <safe_mul_func_uint8_t_u_u>:
    ab93:	f3 0f 1e fa          	endbr64 
    ab97:	55                   	push   %rbp
    ab98:	48 89 e5             	mov    %rsp,%rbp
    ab9b:	89 fa                	mov    %edi,%edx
    ab9d:	89 f0                	mov    %esi,%eax
    ab9f:	88 55 fc             	mov    %dl,-0x4(%rbp)
    aba2:	88 45 f8             	mov    %al,-0x8(%rbp)
    aba5:	0f b6 45 fc          	movzbl -0x4(%rbp),%eax
    aba9:	f6 65 f8             	mulb   -0x8(%rbp)
    abac:	5d                   	pop    %rbp
    abad:	c3                   	retq   

000000000000abae <safe_mod_func_uint8_t_u_u>:
    abae:	f3 0f 1e fa          	endbr64 
    abb2:	55                   	push   %rbp
    abb3:	48 89 e5             	mov    %rsp,%rbp
    abb6:	89 fa                	mov    %edi,%edx
    abb8:	89 f0                	mov    %esi,%eax
    abba:	88 55 fc             	mov    %dl,-0x4(%rbp)
    abbd:	88 45 f8             	mov    %al,-0x8(%rbp)
    abc0:	80 7d f8 00          	cmpb   $0x0,-0x8(%rbp)
    abc4:	74 0f                	je     abd5 <safe_mod_func_uint8_t_u_u+0x27>
    abc6:	0f b6 45 fc          	movzbl -0x4(%rbp),%eax
    abca:	0f b6 c0             	movzbl %al,%eax
    abcd:	f6 75 f8             	divb   -0x8(%rbp)
    abd0:	0f b6 c4             	movzbl %ah,%eax
    abd3:	eb 04                	jmp    abd9 <safe_mod_func_uint8_t_u_u+0x2b>
    abd5:	0f b6 45 fc          	movzbl -0x4(%rbp),%eax
    abd9:	5d                   	pop    %rbp
    abda:	c3                   	retq   

000000000000abdb <safe_div_func_uint8_t_u_u>:
    abdb:	f3 0f 1e fa          	endbr64 
    abdf:	55                   	push   %rbp
    abe0:	48 89 e5             	mov    %rsp,%rbp
    abe3:	89 fa                	mov    %edi,%edx
    abe5:	89 f0                	mov    %esi,%eax
    abe7:	88 55 fc             	mov    %dl,-0x4(%rbp)
    abea:	88 45 f8             	mov    %al,-0x8(%rbp)
    abed:	80 7d f8 00          	cmpb   $0x0,-0x8(%rbp)
    abf1:	74 0c                	je     abff <safe_div_func_uint8_t_u_u+0x24>
    abf3:	0f b6 45 fc          	movzbl -0x4(%rbp),%eax
    abf7:	0f b6 c0             	movzbl %al,%eax
    abfa:	f6 75 f8             	divb   -0x8(%rbp)
    abfd:	eb 04                	jmp    ac03 <safe_div_func_uint8_t_u_u+0x28>
    abff:	0f b6 45 fc          	movzbl -0x4(%rbp),%eax
    ac03:	5d                   	pop    %rbp
    ac04:	c3                   	retq   

000000000000ac05 <safe_lshift_func_uint8_t_u_s>:
    ac05:	f3 0f 1e fa          	endbr64 
    ac09:	55                   	push   %rbp
    ac0a:	48 89 e5             	mov    %rsp,%rbp
    ac0d:	89 f8                	mov    %edi,%eax
    ac0f:	89 75 f8             	mov    %esi,-0x8(%rbp)
    ac12:	88 45 fc             	mov    %al,-0x4(%rbp)
    ac15:	83 7d f8 00          	cmpl   $0x0,-0x8(%rbp)
    ac19:	78 2b                	js     ac46 <safe_lshift_func_uint8_t_u_s+0x41>
    ac1b:	83 7d f8 1f          	cmpl   $0x1f,-0x8(%rbp)
    ac1f:	7f 25                	jg     ac46 <safe_lshift_func_uint8_t_u_s+0x41>
    ac21:	0f b6 55 fc          	movzbl -0x4(%rbp),%edx
    ac25:	8b 45 f8             	mov    -0x8(%rbp),%eax
    ac28:	be ff 00 00 00       	mov    $0xff,%esi
    ac2d:	89 c1                	mov    %eax,%ecx
    ac2f:	d3 fe                	sar    %cl,%esi
    ac31:	89 f0                	mov    %esi,%eax
    ac33:	39 c2                	cmp    %eax,%edx
    ac35:	7f 0f                	jg     ac46 <safe_lshift_func_uint8_t_u_s+0x41>
    ac37:	0f b6 55 fc          	movzbl -0x4(%rbp),%edx
    ac3b:	8b 45 f8             	mov    -0x8(%rbp),%eax
    ac3e:	89 c1                	mov    %eax,%ecx
    ac40:	d3 e2                	shl    %cl,%edx
    ac42:	89 d0                	mov    %edx,%eax
    ac44:	eb 04                	jmp    ac4a <safe_lshift_func_uint8_t_u_s+0x45>
    ac46:	0f b6 45 fc          	movzbl -0x4(%rbp),%eax
    ac4a:	5d                   	pop    %rbp
    ac4b:	c3                   	retq   

000000000000ac4c <safe_lshift_func_uint8_t_u_u>:
    ac4c:	f3 0f 1e fa          	endbr64 
    ac50:	55                   	push   %rbp
    ac51:	48 89 e5             	mov    %rsp,%rbp
    ac54:	89 f8                	mov    %edi,%eax
    ac56:	89 75 f8             	mov    %esi,-0x8(%rbp)
    ac59:	88 45 fc             	mov    %al,-0x4(%rbp)
    ac5c:	83 7d f8 1f          	cmpl   $0x1f,-0x8(%rbp)
    ac60:	77 25                	ja     ac87 <safe_lshift_func_uint8_t_u_u+0x3b>
    ac62:	0f b6 55 fc          	movzbl -0x4(%rbp),%edx
    ac66:	8b 45 f8             	mov    -0x8(%rbp),%eax
    ac69:	be ff 00 00 00       	mov    $0xff,%esi
    ac6e:	89 c1                	mov    %eax,%ecx
    ac70:	d3 fe                	sar    %cl,%esi
    ac72:	89 f0                	mov    %esi,%eax
    ac74:	39 c2                	cmp    %eax,%edx
    ac76:	7f 0f                	jg     ac87 <safe_lshift_func_uint8_t_u_u+0x3b>
    ac78:	0f b6 55 fc          	movzbl -0x4(%rbp),%edx
    ac7c:	8b 45 f8             	mov    -0x8(%rbp),%eax
    ac7f:	89 c1                	mov    %eax,%ecx
    ac81:	d3 e2                	shl    %cl,%edx
    ac83:	89 d0                	mov    %edx,%eax
    ac85:	eb 04                	jmp    ac8b <safe_lshift_func_uint8_t_u_u+0x3f>
    ac87:	0f b6 45 fc          	movzbl -0x4(%rbp),%eax
    ac8b:	5d                   	pop    %rbp
    ac8c:	c3                   	retq   

000000000000ac8d <safe_rshift_func_uint8_t_u_s>:
    ac8d:	f3 0f 1e fa          	endbr64 
    ac91:	55                   	push   %rbp
    ac92:	48 89 e5             	mov    %rsp,%rbp
    ac95:	89 f8                	mov    %edi,%eax
    ac97:	89 75 f8             	mov    %esi,-0x8(%rbp)
    ac9a:	88 45 fc             	mov    %al,-0x4(%rbp)
    ac9d:	83 7d f8 00          	cmpl   $0x0,-0x8(%rbp)
    aca1:	78 15                	js     acb8 <safe_rshift_func_uint8_t_u_s+0x2b>
    aca3:	83 7d f8 1f          	cmpl   $0x1f,-0x8(%rbp)
    aca7:	7f 0f                	jg     acb8 <safe_rshift_func_uint8_t_u_s+0x2b>
    aca9:	0f b6 55 fc          	movzbl -0x4(%rbp),%edx
    acad:	8b 45 f8             	mov    -0x8(%rbp),%eax
    acb0:	89 c1                	mov    %eax,%ecx
    acb2:	d3 fa                	sar    %cl,%edx
    acb4:	89 d0                	mov    %edx,%eax
    acb6:	eb 04                	jmp    acbc <safe_rshift_func_uint8_t_u_s+0x2f>
    acb8:	0f b6 45 fc          	movzbl -0x4(%rbp),%eax
    acbc:	5d                   	pop    %rbp
    acbd:	c3                   	retq   

000000000000acbe <safe_rshift_func_uint8_t_u_u>:
    acbe:	f3 0f 1e fa          	endbr64 
    acc2:	55                   	push   %rbp
    acc3:	48 89 e5             	mov    %rsp,%rbp
    acc6:	89 f8                	mov    %edi,%eax
    acc8:	89 75 f8             	mov    %esi,-0x8(%rbp)
    accb:	88 45 fc             	mov    %al,-0x4(%rbp)
    acce:	83 7d f8 1f          	cmpl   $0x1f,-0x8(%rbp)
    acd2:	77 0f                	ja     ace3 <safe_rshift_func_uint8_t_u_u+0x25>
    acd4:	0f b6 55 fc          	movzbl -0x4(%rbp),%edx
    acd8:	8b 45 f8             	mov    -0x8(%rbp),%eax
    acdb:	89 c1                	mov    %eax,%ecx
    acdd:	d3 fa                	sar    %cl,%edx
    acdf:	89 d0                	mov    %edx,%eax
    ace1:	eb 04                	jmp    ace7 <safe_rshift_func_uint8_t_u_u+0x29>
    ace3:	0f b6 45 fc          	movzbl -0x4(%rbp),%eax
    ace7:	5d                   	pop    %rbp
    ace8:	c3                   	retq   

000000000000ace9 <safe_unary_minus_func_uint16_t_u>:
    ace9:	f3 0f 1e fa          	endbr64 
    aced:	55                   	push   %rbp
    acee:	48 89 e5             	mov    %rsp,%rbp
    acf1:	89 f8                	mov    %edi,%eax
    acf3:	66 89 45 fc          	mov    %ax,-0x4(%rbp)
    acf7:	0f b7 45 fc          	movzwl -0x4(%rbp),%eax
    acfb:	f7 d8                	neg    %eax
    acfd:	5d                   	pop    %rbp
    acfe:	c3                   	retq   

000000000000acff <safe_add_func_uint16_t_u_u>:
    acff:	f3 0f 1e fa          	endbr64 
    ad03:	55                   	push   %rbp
    ad04:	48 89 e5             	mov    %rsp,%rbp
    ad07:	89 fa                	mov    %edi,%edx
    ad09:	89 f0                	mov    %esi,%eax
    ad0b:	66 89 55 fc          	mov    %dx,-0x4(%rbp)
    ad0f:	66 89 45 f8          	mov    %ax,-0x8(%rbp)
    ad13:	0f b7 55 fc          	movzwl -0x4(%rbp),%edx
    ad17:	0f b7 45 f8          	movzwl -0x8(%rbp),%eax
    ad1b:	01 d0                	add    %edx,%eax
    ad1d:	5d                   	pop    %rbp
    ad1e:	c3                   	retq   

000000000000ad1f <safe_sub_func_uint16_t_u_u>:
    ad1f:	f3 0f 1e fa          	endbr64 
    ad23:	55                   	push   %rbp
    ad24:	48 89 e5             	mov    %rsp,%rbp
    ad27:	89 fa                	mov    %edi,%edx
    ad29:	89 f0                	mov    %esi,%eax
    ad2b:	66 89 55 fc          	mov    %dx,-0x4(%rbp)
    ad2f:	66 89 45 f8          	mov    %ax,-0x8(%rbp)
    ad33:	0f b7 45 fc          	movzwl -0x4(%rbp),%eax
    ad37:	66 2b 45 f8          	sub    -0x8(%rbp),%ax
    ad3b:	5d                   	pop    %rbp
    ad3c:	c3                   	retq   

000000000000ad3d <safe_mul_func_uint16_t_u_u>:
    ad3d:	f3 0f 1e fa          	endbr64 
    ad41:	55                   	push   %rbp
    ad42:	48 89 e5             	mov    %rsp,%rbp
    ad45:	89 fa                	mov    %edi,%edx
    ad47:	89 f0                	mov    %esi,%eax
    ad49:	66 89 55 fc          	mov    %dx,-0x4(%rbp)
    ad4d:	66 89 45 f8          	mov    %ax,-0x8(%rbp)
    ad51:	0f b7 45 fc          	movzwl -0x4(%rbp),%eax
    ad55:	66 0f af 45 f8       	imul   -0x8(%rbp),%ax
    ad5a:	5d                   	pop    %rbp
    ad5b:	c3                   	retq   

000000000000ad5c <safe_mod_func_uint16_t_u_u>:
    ad5c:	f3 0f 1e fa          	endbr64 
    ad60:	55                   	push   %rbp
    ad61:	48 89 e5             	mov    %rsp,%rbp
    ad64:	89 fa                	mov    %edi,%edx
    ad66:	89 f0                	mov    %esi,%eax
    ad68:	66 89 55 fc          	mov    %dx,-0x4(%rbp)
    ad6c:	66 89 45 f8          	mov    %ax,-0x8(%rbp)
    ad70:	66 83 7d f8 00       	cmpw   $0x0,-0x8(%rbp)
    ad75:	74 11                	je     ad88 <safe_mod_func_uint16_t_u_u+0x2c>
    ad77:	0f b7 45 fc          	movzwl -0x4(%rbp),%eax
    ad7b:	ba 00 00 00 00       	mov    $0x0,%edx
    ad80:	66 f7 75 f8          	divw   -0x8(%rbp)
    ad84:	89 d0                	mov    %edx,%eax
    ad86:	eb 04                	jmp    ad8c <safe_mod_func_uint16_t_u_u+0x30>
    ad88:	0f b7 45 fc          	movzwl -0x4(%rbp),%eax
    ad8c:	5d                   	pop    %rbp
    ad8d:	c3                   	retq   

000000000000ad8e <safe_div_func_uint16_t_u_u>:
    ad8e:	f3 0f 1e fa          	endbr64 
    ad92:	55                   	push   %rbp
    ad93:	48 89 e5             	mov    %rsp,%rbp
    ad96:	89 fa                	mov    %edi,%edx
    ad98:	89 f0                	mov    %esi,%eax
    ad9a:	66 89 55 fc          	mov    %dx,-0x4(%rbp)
    ad9e:	66 89 45 f8          	mov    %ax,-0x8(%rbp)
    ada2:	66 83 7d f8 00       	cmpw   $0x0,-0x8(%rbp)
    ada7:	74 0f                	je     adb8 <safe_div_func_uint16_t_u_u+0x2a>
    ada9:	0f b7 45 fc          	movzwl -0x4(%rbp),%eax
    adad:	ba 00 00 00 00       	mov    $0x0,%edx
    adb2:	66 f7 75 f8          	divw   -0x8(%rbp)
    adb6:	eb 04                	jmp    adbc <safe_div_func_uint16_t_u_u+0x2e>
    adb8:	0f b7 45 fc          	movzwl -0x4(%rbp),%eax
    adbc:	5d                   	pop    %rbp
    adbd:	c3                   	retq   

000000000000adbe <safe_lshift_func_uint16_t_u_s>:
    adbe:	f3 0f 1e fa          	endbr64 
    adc2:	55                   	push   %rbp
    adc3:	48 89 e5             	mov    %rsp,%rbp
    adc6:	89 f8                	mov    %edi,%eax
    adc8:	89 75 f8             	mov    %esi,-0x8(%rbp)
    adcb:	66 89 45 fc          	mov    %ax,-0x4(%rbp)
    adcf:	83 7d f8 00          	cmpl   $0x0,-0x8(%rbp)
    add3:	78 2b                	js     ae00 <safe_lshift_func_uint16_t_u_s+0x42>
    add5:	83 7d f8 1f          	cmpl   $0x1f,-0x8(%rbp)
    add9:	7f 25                	jg     ae00 <safe_lshift_func_uint16_t_u_s+0x42>
    addb:	0f b7 55 fc          	movzwl -0x4(%rbp),%edx
    addf:	8b 45 f8             	mov    -0x8(%rbp),%eax
    ade2:	be ff ff 00 00       	mov    $0xffff,%esi
    ade7:	89 c1                	mov    %eax,%ecx
    ade9:	d3 fe                	sar    %cl,%esi
    adeb:	89 f0                	mov    %esi,%eax
    aded:	39 c2                	cmp    %eax,%edx
    adef:	7f 0f                	jg     ae00 <safe_lshift_func_uint16_t_u_s+0x42>
    adf1:	0f b7 55 fc          	movzwl -0x4(%rbp),%edx
    adf5:	8b 45 f8             	mov    -0x8(%rbp),%eax
    adf8:	89 c1                	mov    %eax,%ecx
    adfa:	d3 e2                	shl    %cl,%edx
    adfc:	89 d0                	mov    %edx,%eax
    adfe:	eb 04                	jmp    ae04 <safe_lshift_func_uint16_t_u_s+0x46>
    ae00:	0f b7 45 fc          	movzwl -0x4(%rbp),%eax
    ae04:	5d                   	pop    %rbp
    ae05:	c3                   	retq   

000000000000ae06 <safe_lshift_func_uint16_t_u_u>:
    ae06:	f3 0f 1e fa          	endbr64 
    ae0a:	55                   	push   %rbp
    ae0b:	48 89 e5             	mov    %rsp,%rbp
    ae0e:	89 f8                	mov    %edi,%eax
    ae10:	89 75 f8             	mov    %esi,-0x8(%rbp)
    ae13:	66 89 45 fc          	mov    %ax,-0x4(%rbp)
    ae17:	83 7d f8 1f          	cmpl   $0x1f,-0x8(%rbp)
    ae1b:	77 25                	ja     ae42 <safe_lshift_func_uint16_t_u_u+0x3c>
    ae1d:	0f b7 55 fc          	movzwl -0x4(%rbp),%edx
    ae21:	8b 45 f8             	mov    -0x8(%rbp),%eax
    ae24:	be ff ff 00 00       	mov    $0xffff,%esi
    ae29:	89 c1                	mov    %eax,%ecx
    ae2b:	d3 fe                	sar    %cl,%esi
    ae2d:	89 f0                	mov    %esi,%eax
    ae2f:	39 c2                	cmp    %eax,%edx
    ae31:	7f 0f                	jg     ae42 <safe_lshift_func_uint16_t_u_u+0x3c>
    ae33:	0f b7 55 fc          	movzwl -0x4(%rbp),%edx
    ae37:	8b 45 f8             	mov    -0x8(%rbp),%eax
    ae3a:	89 c1                	mov    %eax,%ecx
    ae3c:	d3 e2                	shl    %cl,%edx
    ae3e:	89 d0                	mov    %edx,%eax
    ae40:	eb 04                	jmp    ae46 <safe_lshift_func_uint16_t_u_u+0x40>
    ae42:	0f b7 45 fc          	movzwl -0x4(%rbp),%eax
    ae46:	5d                   	pop    %rbp
    ae47:	c3                   	retq   

000000000000ae48 <safe_rshift_func_uint16_t_u_s>:
    ae48:	f3 0f 1e fa          	endbr64 
    ae4c:	55                   	push   %rbp
    ae4d:	48 89 e5             	mov    %rsp,%rbp
    ae50:	89 f8                	mov    %edi,%eax
    ae52:	89 75 f8             	mov    %esi,-0x8(%rbp)
    ae55:	66 89 45 fc          	mov    %ax,-0x4(%rbp)
    ae59:	83 7d f8 00          	cmpl   $0x0,-0x8(%rbp)
    ae5d:	78 15                	js     ae74 <safe_rshift_func_uint16_t_u_s+0x2c>
    ae5f:	83 7d f8 1f          	cmpl   $0x1f,-0x8(%rbp)
    ae63:	7f 0f                	jg     ae74 <safe_rshift_func_uint16_t_u_s+0x2c>
    ae65:	0f b7 55 fc          	movzwl -0x4(%rbp),%edx
    ae69:	8b 45 f8             	mov    -0x8(%rbp),%eax
    ae6c:	89 c1                	mov    %eax,%ecx
    ae6e:	d3 fa                	sar    %cl,%edx
    ae70:	89 d0                	mov    %edx,%eax
    ae72:	eb 04                	jmp    ae78 <safe_rshift_func_uint16_t_u_s+0x30>
    ae74:	0f b7 45 fc          	movzwl -0x4(%rbp),%eax
    ae78:	5d                   	pop    %rbp
    ae79:	c3                   	retq   

000000000000ae7a <safe_rshift_func_uint16_t_u_u>:
    ae7a:	f3 0f 1e fa          	endbr64 
    ae7e:	55                   	push   %rbp
    ae7f:	48 89 e5             	mov    %rsp,%rbp
    ae82:	89 f8                	mov    %edi,%eax
    ae84:	89 75 f8             	mov    %esi,-0x8(%rbp)
    ae87:	66 89 45 fc          	mov    %ax,-0x4(%rbp)
    ae8b:	83 7d f8 1f          	cmpl   $0x1f,-0x8(%rbp)
    ae8f:	77 0f                	ja     aea0 <safe_rshift_func_uint16_t_u_u+0x26>
    ae91:	0f b7 55 fc          	movzwl -0x4(%rbp),%edx
    ae95:	8b 45 f8             	mov    -0x8(%rbp),%eax
    ae98:	89 c1                	mov    %eax,%ecx
    ae9a:	d3 fa                	sar    %cl,%edx
    ae9c:	89 d0                	mov    %edx,%eax
    ae9e:	eb 04                	jmp    aea4 <safe_rshift_func_uint16_t_u_u+0x2a>
    aea0:	0f b7 45 fc          	movzwl -0x4(%rbp),%eax
    aea4:	5d                   	pop    %rbp
    aea5:	c3                   	retq   

000000000000aea6 <safe_unary_minus_func_uint32_t_u>:
    aea6:	f3 0f 1e fa          	endbr64 
    aeaa:	55                   	push   %rbp
    aeab:	48 89 e5             	mov    %rsp,%rbp
    aeae:	89 7d fc             	mov    %edi,-0x4(%rbp)
    aeb1:	8b 45 fc             	mov    -0x4(%rbp),%eax
    aeb4:	f7 d8                	neg    %eax
    aeb6:	5d                   	pop    %rbp
    aeb7:	c3                   	retq   

000000000000aeb8 <safe_add_func_uint32_t_u_u>:
    aeb8:	f3 0f 1e fa          	endbr64 
    aebc:	55                   	push   %rbp
    aebd:	48 89 e5             	mov    %rsp,%rbp
    aec0:	89 7d fc             	mov    %edi,-0x4(%rbp)
    aec3:	89 75 f8             	mov    %esi,-0x8(%rbp)
    aec6:	8b 55 fc             	mov    -0x4(%rbp),%edx
    aec9:	8b 45 f8             	mov    -0x8(%rbp),%eax
    aecc:	01 d0                	add    %edx,%eax
    aece:	5d                   	pop    %rbp
    aecf:	c3                   	retq   

000000000000aed0 <safe_sub_func_uint32_t_u_u>:
    aed0:	f3 0f 1e fa          	endbr64 
    aed4:	55                   	push   %rbp
    aed5:	48 89 e5             	mov    %rsp,%rbp
    aed8:	89 7d fc             	mov    %edi,-0x4(%rbp)
    aedb:	89 75 f8             	mov    %esi,-0x8(%rbp)
    aede:	8b 45 fc             	mov    -0x4(%rbp),%eax
    aee1:	2b 45 f8             	sub    -0x8(%rbp),%eax
    aee4:	5d                   	pop    %rbp
    aee5:	c3                   	retq   

000000000000aee6 <safe_mul_func_uint32_t_u_u>:
    aee6:	f3 0f 1e fa          	endbr64 
    aeea:	55                   	push   %rbp
    aeeb:	48 89 e5             	mov    %rsp,%rbp
    aeee:	89 7d fc             	mov    %edi,-0x4(%rbp)
    aef1:	89 75 f8             	mov    %esi,-0x8(%rbp)
    aef4:	8b 45 fc             	mov    -0x4(%rbp),%eax
    aef7:	0f af 45 f8          	imul   -0x8(%rbp),%eax
    aefb:	5d                   	pop    %rbp
    aefc:	c3                   	retq   

000000000000aefd <safe_mod_func_uint32_t_u_u>:
    aefd:	f3 0f 1e fa          	endbr64 
    af01:	55                   	push   %rbp
    af02:	48 89 e5             	mov    %rsp,%rbp
    af05:	89 7d fc             	mov    %edi,-0x4(%rbp)
    af08:	89 75 f8             	mov    %esi,-0x8(%rbp)
    af0b:	83 7d f8 00          	cmpl   $0x0,-0x8(%rbp)
    af0f:	74 0f                	je     af20 <safe_mod_func_uint32_t_u_u+0x23>
    af11:	8b 45 fc             	mov    -0x4(%rbp),%eax
    af14:	ba 00 00 00 00       	mov    $0x0,%edx
    af19:	f7 75 f8             	divl   -0x8(%rbp)
    af1c:	89 d0                	mov    %edx,%eax
    af1e:	eb 03                	jmp    af23 <safe_mod_func_uint32_t_u_u+0x26>
    af20:	8b 45 fc             	mov    -0x4(%rbp),%eax
    af23:	5d                   	pop    %rbp
    af24:	c3                   	retq   

000000000000af25 <safe_div_func_uint32_t_u_u>:
    af25:	f3 0f 1e fa          	endbr64 
    af29:	55                   	push   %rbp
    af2a:	48 89 e5             	mov    %rsp,%rbp
    af2d:	89 7d fc             	mov    %edi,-0x4(%rbp)
    af30:	89 75 f8             	mov    %esi,-0x8(%rbp)
    af33:	83 7d f8 00          	cmpl   $0x0,-0x8(%rbp)
    af37:	74 0d                	je     af46 <safe_div_func_uint32_t_u_u+0x21>
    af39:	8b 45 fc             	mov    -0x4(%rbp),%eax
    af3c:	ba 00 00 00 00       	mov    $0x0,%edx
    af41:	f7 75 f8             	divl   -0x8(%rbp)
    af44:	eb 03                	jmp    af49 <safe_div_func_uint32_t_u_u+0x24>
    af46:	8b 45 fc             	mov    -0x4(%rbp),%eax
    af49:	5d                   	pop    %rbp
    af4a:	c3                   	retq   

000000000000af4b <safe_lshift_func_uint32_t_u_s>:
    af4b:	f3 0f 1e fa          	endbr64 
    af4f:	55                   	push   %rbp
    af50:	48 89 e5             	mov    %rsp,%rbp
    af53:	89 7d fc             	mov    %edi,-0x4(%rbp)
    af56:	89 75 f8             	mov    %esi,-0x8(%rbp)
    af59:	83 7d f8 00          	cmpl   $0x0,-0x8(%rbp)
    af5d:	78 27                	js     af86 <safe_lshift_func_uint32_t_u_s+0x3b>
    af5f:	83 7d f8 1f          	cmpl   $0x1f,-0x8(%rbp)
    af63:	7f 21                	jg     af86 <safe_lshift_func_uint32_t_u_s+0x3b>
    af65:	8b 45 f8             	mov    -0x8(%rbp),%eax
    af68:	ba ff ff ff ff       	mov    $0xffffffff,%edx
    af6d:	89 c1                	mov    %eax,%ecx
    af6f:	d3 ea                	shr    %cl,%edx
    af71:	89 d0                	mov    %edx,%eax
    af73:	39 45 fc             	cmp    %eax,-0x4(%rbp)
    af76:	77 0e                	ja     af86 <safe_lshift_func_uint32_t_u_s+0x3b>
    af78:	8b 45 f8             	mov    -0x8(%rbp),%eax
    af7b:	8b 55 fc             	mov    -0x4(%rbp),%edx
    af7e:	89 c1                	mov    %eax,%ecx
    af80:	d3 e2                	shl    %cl,%edx
    af82:	89 d0                	mov    %edx,%eax
    af84:	eb 03                	jmp    af89 <safe_lshift_func_uint32_t_u_s+0x3e>
    af86:	8b 45 fc             	mov    -0x4(%rbp),%eax
    af89:	5d                   	pop    %rbp
    af8a:	c3                   	retq   

000000000000af8b <safe_lshift_func_uint32_t_u_u>:
    af8b:	f3 0f 1e fa          	endbr64 
    af8f:	55                   	push   %rbp
    af90:	48 89 e5             	mov    %rsp,%rbp
    af93:	89 7d fc             	mov    %edi,-0x4(%rbp)
    af96:	89 75 f8             	mov    %esi,-0x8(%rbp)
    af99:	83 7d f8 1f          	cmpl   $0x1f,-0x8(%rbp)
    af9d:	77 21                	ja     afc0 <safe_lshift_func_uint32_t_u_u+0x35>
    af9f:	8b 45 f8             	mov    -0x8(%rbp),%eax
    afa2:	ba ff ff ff ff       	mov    $0xffffffff,%edx
    afa7:	89 c1                	mov    %eax,%ecx
    afa9:	d3 ea                	shr    %cl,%edx
    afab:	89 d0                	mov    %edx,%eax
    afad:	39 45 fc             	cmp    %eax,-0x4(%rbp)
    afb0:	77 0e                	ja     afc0 <safe_lshift_func_uint32_t_u_u+0x35>
    afb2:	8b 45 f8             	mov    -0x8(%rbp),%eax
    afb5:	8b 55 fc             	mov    -0x4(%rbp),%edx
    afb8:	89 c1                	mov    %eax,%ecx
    afba:	d3 e2                	shl    %cl,%edx
    afbc:	89 d0                	mov    %edx,%eax
    afbe:	eb 03                	jmp    afc3 <safe_lshift_func_uint32_t_u_u+0x38>
    afc0:	8b 45 fc             	mov    -0x4(%rbp),%eax
    afc3:	5d                   	pop    %rbp
    afc4:	c3                   	retq   

000000000000afc5 <safe_rshift_func_uint32_t_u_s>:
    afc5:	f3 0f 1e fa          	endbr64 
    afc9:	55                   	push   %rbp
    afca:	48 89 e5             	mov    %rsp,%rbp
    afcd:	89 7d fc             	mov    %edi,-0x4(%rbp)
    afd0:	89 75 f8             	mov    %esi,-0x8(%rbp)
    afd3:	83 7d f8 00          	cmpl   $0x0,-0x8(%rbp)
    afd7:	78 14                	js     afed <safe_rshift_func_uint32_t_u_s+0x28>
    afd9:	83 7d f8 1f          	cmpl   $0x1f,-0x8(%rbp)
    afdd:	7f 0e                	jg     afed <safe_rshift_func_uint32_t_u_s+0x28>
    afdf:	8b 45 f8             	mov    -0x8(%rbp),%eax
    afe2:	8b 55 fc             	mov    -0x4(%rbp),%edx
    afe5:	89 c1                	mov    %eax,%ecx
    afe7:	d3 ea                	shr    %cl,%edx
    afe9:	89 d0                	mov    %edx,%eax
    afeb:	eb 03                	jmp    aff0 <safe_rshift_func_uint32_t_u_s+0x2b>
    afed:	8b 45 fc             	mov    -0x4(%rbp),%eax
    aff0:	5d                   	pop    %rbp
    aff1:	c3                   	retq   

000000000000aff2 <safe_rshift_func_uint32_t_u_u>:
    aff2:	f3 0f 1e fa          	endbr64 
    aff6:	55                   	push   %rbp
    aff7:	48 89 e5             	mov    %rsp,%rbp
    affa:	89 7d fc             	mov    %edi,-0x4(%rbp)
    affd:	89 75 f8             	mov    %esi,-0x8(%rbp)
    b000:	83 7d f8 1f          	cmpl   $0x1f,-0x8(%rbp)
    b004:	77 0e                	ja     b014 <safe_rshift_func_uint32_t_u_u+0x22>
    b006:	8b 45 f8             	mov    -0x8(%rbp),%eax
    b009:	8b 55 fc             	mov    -0x4(%rbp),%edx
    b00c:	89 c1                	mov    %eax,%ecx
    b00e:	d3 ea                	shr    %cl,%edx
    b010:	89 d0                	mov    %edx,%eax
    b012:	eb 03                	jmp    b017 <safe_rshift_func_uint32_t_u_u+0x25>
    b014:	8b 45 fc             	mov    -0x4(%rbp),%eax
    b017:	5d                   	pop    %rbp
    b018:	c3                   	retq   

000000000000b019 <safe_unary_minus_func_uint64_t_u>:
    b019:	f3 0f 1e fa          	endbr64 
    b01d:	55                   	push   %rbp
    b01e:	48 89 e5             	mov    %rsp,%rbp
    b021:	48 89 7d f8          	mov    %rdi,-0x8(%rbp)
    b025:	48 8b 45 f8          	mov    -0x8(%rbp),%rax
    b029:	48 f7 d8             	neg    %rax
    b02c:	5d                   	pop    %rbp
    b02d:	c3                   	retq   

000000000000b02e <safe_add_func_uint64_t_u_u>:
    b02e:	f3 0f 1e fa          	endbr64 
    b032:	55                   	push   %rbp
    b033:	48 89 e5             	mov    %rsp,%rbp
    b036:	48 89 7d f8          	mov    %rdi,-0x8(%rbp)
    b03a:	48 89 75 f0          	mov    %rsi,-0x10(%rbp)
    b03e:	48 8b 55 f8          	mov    -0x8(%rbp),%rdx
    b042:	48 8b 45 f0          	mov    -0x10(%rbp),%rax
    b046:	48 01 d0             	add    %rdx,%rax
    b049:	5d                   	pop    %rbp
    b04a:	c3                   	retq   

000000000000b04b <safe_sub_func_uint64_t_u_u>:
    b04b:	f3 0f 1e fa          	endbr64 
    b04f:	55                   	push   %rbp
    b050:	48 89 e5             	mov    %rsp,%rbp
    b053:	48 89 7d f8          	mov    %rdi,-0x8(%rbp)
    b057:	48 89 75 f0          	mov    %rsi,-0x10(%rbp)
    b05b:	48 8b 45 f8          	mov    -0x8(%rbp),%rax
    b05f:	48 2b 45 f0          	sub    -0x10(%rbp),%rax
    b063:	5d                   	pop    %rbp
    b064:	c3                   	retq   

000000000000b065 <safe_mul_func_uint64_t_u_u>:
    b065:	f3 0f 1e fa          	endbr64 
    b069:	55                   	push   %rbp
    b06a:	48 89 e5             	mov    %rsp,%rbp
    b06d:	48 89 7d f8          	mov    %rdi,-0x8(%rbp)
    b071:	48 89 75 f0          	mov    %rsi,-0x10(%rbp)
    b075:	48 8b 45 f8          	mov    -0x8(%rbp),%rax
    b079:	48 0f af 45 f0       	imul   -0x10(%rbp),%rax
    b07e:	5d                   	pop    %rbp
    b07f:	c3                   	retq   

000000000000b080 <safe_mod_func_uint64_t_u_u>:
    b080:	f3 0f 1e fa          	endbr64 
    b084:	55                   	push   %rbp
    b085:	48 89 e5             	mov    %rsp,%rbp
    b088:	48 89 7d f8          	mov    %rdi,-0x8(%rbp)
    b08c:	48 89 75 f0          	mov    %rsi,-0x10(%rbp)
    b090:	48 83 7d f0 00       	cmpq   $0x0,-0x10(%rbp)
    b095:	74 12                	je     b0a9 <safe_mod_func_uint64_t_u_u+0x29>
    b097:	48 8b 45 f8          	mov    -0x8(%rbp),%rax
    b09b:	ba 00 00 00 00       	mov    $0x0,%edx
    b0a0:	48 f7 75 f0          	divq   -0x10(%rbp)
    b0a4:	48 89 d0             	mov    %rdx,%rax
    b0a7:	eb 04                	jmp    b0ad <safe_mod_func_uint64_t_u_u+0x2d>
    b0a9:	48 8b 45 f8          	mov    -0x8(%rbp),%rax
    b0ad:	5d                   	pop    %rbp
    b0ae:	c3                   	retq   

000000000000b0af <safe_div_func_uint64_t_u_u>:
    b0af:	f3 0f 1e fa          	endbr64 
    b0b3:	55                   	push   %rbp
    b0b4:	48 89 e5             	mov    %rsp,%rbp
    b0b7:	48 89 7d f8          	mov    %rdi,-0x8(%rbp)
    b0bb:	48 89 75 f0          	mov    %rsi,-0x10(%rbp)
    b0bf:	48 83 7d f0 00       	cmpq   $0x0,-0x10(%rbp)
    b0c4:	74 0f                	je     b0d5 <safe_div_func_uint64_t_u_u+0x26>
    b0c6:	48 8b 45 f8          	mov    -0x8(%rbp),%rax
    b0ca:	ba 00 00 00 00       	mov    $0x0,%edx
    b0cf:	48 f7 75 f0          	divq   -0x10(%rbp)
    b0d3:	eb 04                	jmp    b0d9 <safe_div_func_uint64_t_u_u+0x2a>
    b0d5:	48 8b 45 f8          	mov    -0x8(%rbp),%rax
    b0d9:	5d                   	pop    %rbp
    b0da:	c3                   	retq   

000000000000b0db <safe_lshift_func_uint64_t_u_s>:
    b0db:	f3 0f 1e fa          	endbr64 
    b0df:	55                   	push   %rbp
    b0e0:	48 89 e5             	mov    %rsp,%rbp
    b0e3:	48 89 7d f8          	mov    %rdi,-0x8(%rbp)
    b0e7:	89 75 f4             	mov    %esi,-0xc(%rbp)
    b0ea:	83 7d f4 00          	cmpl   $0x0,-0xc(%rbp)
    b0ee:	78 2f                	js     b11f <safe_lshift_func_uint64_t_u_s+0x44>
    b0f0:	83 7d f4 1f          	cmpl   $0x1f,-0xc(%rbp)
    b0f4:	7f 29                	jg     b11f <safe_lshift_func_uint64_t_u_s+0x44>
    b0f6:	8b 45 f4             	mov    -0xc(%rbp),%eax
    b0f9:	48 c7 c2 ff ff ff ff 	mov    $0xffffffffffffffff,%rdx
    b100:	89 c1                	mov    %eax,%ecx
    b102:	48 d3 ea             	shr    %cl,%rdx
    b105:	48 89 d0             	mov    %rdx,%rax
    b108:	48 39 45 f8          	cmp    %rax,-0x8(%rbp)
    b10c:	77 11                	ja     b11f <safe_lshift_func_uint64_t_u_s+0x44>
    b10e:	8b 45 f4             	mov    -0xc(%rbp),%eax
    b111:	48 8b 55 f8          	mov    -0x8(%rbp),%rdx
    b115:	89 c1                	mov    %eax,%ecx
    b117:	48 d3 e2             	shl    %cl,%rdx
    b11a:	48 89 d0             	mov    %rdx,%rax
    b11d:	eb 04                	jmp    b123 <safe_lshift_func_uint64_t_u_s+0x48>
    b11f:	48 8b 45 f8          	mov    -0x8(%rbp),%rax
    b123:	5d                   	pop    %rbp
    b124:	c3                   	retq   

000000000000b125 <safe_lshift_func_uint64_t_u_u>:
    b125:	f3 0f 1e fa          	endbr64 
    b129:	55                   	push   %rbp
    b12a:	48 89 e5             	mov    %rsp,%rbp
    b12d:	48 89 7d f8          	mov    %rdi,-0x8(%rbp)
    b131:	89 75 f4             	mov    %esi,-0xc(%rbp)
    b134:	83 7d f4 1f          	cmpl   $0x1f,-0xc(%rbp)
    b138:	77 29                	ja     b163 <safe_lshift_func_uint64_t_u_u+0x3e>
    b13a:	8b 45 f4             	mov    -0xc(%rbp),%eax
    b13d:	48 c7 c2 ff ff ff ff 	mov    $0xffffffffffffffff,%rdx
    b144:	89 c1                	mov    %eax,%ecx
    b146:	48 d3 ea             	shr    %cl,%rdx
    b149:	48 89 d0             	mov    %rdx,%rax
    b14c:	48 39 45 f8          	cmp    %rax,-0x8(%rbp)
    b150:	77 11                	ja     b163 <safe_lshift_func_uint64_t_u_u+0x3e>
    b152:	8b 45 f4             	mov    -0xc(%rbp),%eax
    b155:	48 8b 55 f8          	mov    -0x8(%rbp),%rdx
    b159:	89 c1                	mov    %eax,%ecx
    b15b:	48 d3 e2             	shl    %cl,%rdx
    b15e:	48 89 d0             	mov    %rdx,%rax
    b161:	eb 04                	jmp    b167 <safe_lshift_func_uint64_t_u_u+0x42>
    b163:	48 8b 45 f8          	mov    -0x8(%rbp),%rax
    b167:	5d                   	pop    %rbp
    b168:	c3                   	retq   

000000000000b169 <safe_rshift_func_uint64_t_u_s>:
    b169:	f3 0f 1e fa          	endbr64 
    b16d:	55                   	push   %rbp
    b16e:	48 89 e5             	mov    %rsp,%rbp
    b171:	48 89 7d f8          	mov    %rdi,-0x8(%rbp)
    b175:	89 75 f4             	mov    %esi,-0xc(%rbp)
    b178:	83 7d f4 00          	cmpl   $0x0,-0xc(%rbp)
    b17c:	78 17                	js     b195 <safe_rshift_func_uint64_t_u_s+0x2c>
    b17e:	83 7d f4 1f          	cmpl   $0x1f,-0xc(%rbp)
    b182:	7f 11                	jg     b195 <safe_rshift_func_uint64_t_u_s+0x2c>
    b184:	8b 45 f4             	mov    -0xc(%rbp),%eax
    b187:	48 8b 55 f8          	mov    -0x8(%rbp),%rdx
    b18b:	89 c1                	mov    %eax,%ecx
    b18d:	48 d3 ea             	shr    %cl,%rdx
    b190:	48 89 d0             	mov    %rdx,%rax
    b193:	eb 04                	jmp    b199 <safe_rshift_func_uint64_t_u_s+0x30>
    b195:	48 8b 45 f8          	mov    -0x8(%rbp),%rax
    b199:	5d                   	pop    %rbp
    b19a:	c3                   	retq   

000000000000b19b <safe_rshift_func_uint64_t_u_u>:
    b19b:	f3 0f 1e fa          	endbr64 
    b19f:	55                   	push   %rbp
    b1a0:	48 89 e5             	mov    %rsp,%rbp
    b1a3:	48 89 7d f8          	mov    %rdi,-0x8(%rbp)
    b1a7:	89 75 f4             	mov    %esi,-0xc(%rbp)
    b1aa:	83 7d f4 1f          	cmpl   $0x1f,-0xc(%rbp)
    b1ae:	77 11                	ja     b1c1 <safe_rshift_func_uint64_t_u_u+0x26>
    b1b0:	8b 45 f4             	mov    -0xc(%rbp),%eax
    b1b3:	48 8b 55 f8          	mov    -0x8(%rbp),%rdx
    b1b7:	89 c1                	mov    %eax,%ecx
    b1b9:	48 d3 ea             	shr    %cl,%rdx
    b1bc:	48 89 d0             	mov    %rdx,%rax
    b1bf:	eb 04                	jmp    b1c5 <safe_rshift_func_uint64_t_u_u+0x2a>
    b1c1:	48 8b 45 f8          	mov    -0x8(%rbp),%rax
    b1c5:	5d                   	pop    %rbp
    b1c6:	c3                   	retq   

000000000000b1c7 <safe_add_func_float_f_f>:
    b1c7:	f3 0f 1e fa          	endbr64 
    b1cb:	55                   	push   %rbp
    b1cc:	48 89 e5             	mov    %rsp,%rbp
    b1cf:	f3 0f 11 45 fc       	movss  %xmm0,-0x4(%rbp)
    b1d4:	f3 0f 11 4d f8       	movss  %xmm1,-0x8(%rbp)
    b1d9:	f3 0f 10 4d fc       	movss  -0x4(%rbp),%xmm1
    b1de:	f3 0f 10 05 66 ee 00 	movss  0xee66(%rip),%xmm0        # 1a04c <l_2286.4842+0x6c>
    b1e5:	00 
    b1e6:	f3 0f 59 c8          	mulss  %xmm0,%xmm1
    b1ea:	f3 0f 10 55 f8       	movss  -0x8(%rbp),%xmm2
    b1ef:	f3 0f 10 05 55 ee 00 	movss  0xee55(%rip),%xmm0        # 1a04c <l_2286.4842+0x6c>
    b1f6:	00 
    b1f7:	f3 0f 59 c2          	mulss  %xmm2,%xmm0
    b1fb:	f3 0f 58 c1          	addss  %xmm1,%xmm0
    b1ff:	f3 0f 10 0d 49 ee 00 	movss  0xee49(%rip),%xmm1        # 1a050 <l_2286.4842+0x70>
    b206:	00 
    b207:	0f 54 c1             	andps  %xmm1,%xmm0
    b20a:	0f 2f 05 4f ee 00 00 	comiss 0xee4f(%rip),%xmm0        # 1a060 <l_2286.4842+0x80>
    b211:	76 07                	jbe    b21a <safe_add_func_float_f_f+0x53>
    b213:	f3 0f 10 45 fc       	movss  -0x4(%rbp),%xmm0
    b218:	eb 0a                	jmp    b224 <safe_add_func_float_f_f+0x5d>
    b21a:	f3 0f 10 45 fc       	movss  -0x4(%rbp),%xmm0
    b21f:	f3 0f 58 45 f8       	addss  -0x8(%rbp),%xmm0
    b224:	5d                   	pop    %rbp
    b225:	c3                   	retq   

000000000000b226 <safe_sub_func_float_f_f>:
    b226:	f3 0f 1e fa          	endbr64 
    b22a:	55                   	push   %rbp
    b22b:	48 89 e5             	mov    %rsp,%rbp
    b22e:	f3 0f 11 45 fc       	movss  %xmm0,-0x4(%rbp)
    b233:	f3 0f 11 4d f8       	movss  %xmm1,-0x8(%rbp)
    b238:	f3 0f 10 4d fc       	movss  -0x4(%rbp),%xmm1
    b23d:	f3 0f 10 05 07 ee 00 	movss  0xee07(%rip),%xmm0        # 1a04c <l_2286.4842+0x6c>
    b244:	00 
    b245:	f3 0f 59 c1          	mulss  %xmm1,%xmm0
    b249:	f3 0f 10 55 f8       	movss  -0x8(%rbp),%xmm2
    b24e:	f3 0f 10 0d f6 ed 00 	movss  0xedf6(%rip),%xmm1        # 1a04c <l_2286.4842+0x6c>
    b255:	00 
    b256:	f3 0f 59 ca          	mulss  %xmm2,%xmm1
    b25a:	f3 0f 5c c1          	subss  %xmm1,%xmm0
    b25e:	f3 0f 10 0d ea ed 00 	movss  0xedea(%rip),%xmm1        # 1a050 <l_2286.4842+0x70>
    b265:	00 
    b266:	0f 54 c1             	andps  %xmm1,%xmm0
    b269:	0f 2f 05 f0 ed 00 00 	comiss 0xedf0(%rip),%xmm0        # 1a060 <l_2286.4842+0x80>
    b270:	76 07                	jbe    b279 <safe_sub_func_float_f_f+0x53>
    b272:	f3 0f 10 45 fc       	movss  -0x4(%rbp),%xmm0
    b277:	eb 0a                	jmp    b283 <safe_sub_func_float_f_f+0x5d>
    b279:	f3 0f 10 45 fc       	movss  -0x4(%rbp),%xmm0
    b27e:	f3 0f 5c 45 f8       	subss  -0x8(%rbp),%xmm0
    b283:	5d                   	pop    %rbp
    b284:	c3                   	retq   

000000000000b285 <safe_mul_func_float_f_f>:
    b285:	f3 0f 1e fa          	endbr64 
    b289:	55                   	push   %rbp
    b28a:	48 89 e5             	mov    %rsp,%rbp
    b28d:	f3 0f 11 45 fc       	movss  %xmm0,-0x4(%rbp)
    b292:	f3 0f 11 4d f8       	movss  %xmm1,-0x8(%rbp)
    b297:	f3 0f 10 4d fc       	movss  -0x4(%rbp),%xmm1
    b29c:	f3 0f 10 05 c0 ed 00 	movss  0xedc0(%rip),%xmm0        # 1a064 <l_2286.4842+0x84>
    b2a3:	00 
    b2a4:	f3 0f 59 c8          	mulss  %xmm0,%xmm1
    b2a8:	f3 0f 10 55 f8       	movss  -0x8(%rbp),%xmm2
    b2ad:	f3 0f 10 05 b3 ed 00 	movss  0xedb3(%rip),%xmm0        # 1a068 <l_2286.4842+0x88>
    b2b4:	00 
    b2b5:	f3 0f 59 c2          	mulss  %xmm2,%xmm0
    b2b9:	f3 0f 59 c1          	mulss  %xmm1,%xmm0
    b2bd:	f3 0f 10 0d 8b ed 00 	movss  0xed8b(%rip),%xmm1        # 1a050 <l_2286.4842+0x70>
    b2c4:	00 
    b2c5:	0f 54 c1             	andps  %xmm1,%xmm0
    b2c8:	0f 2f 05 9d ed 00 00 	comiss 0xed9d(%rip),%xmm0        # 1a06c <l_2286.4842+0x8c>
    b2cf:	76 07                	jbe    b2d8 <safe_mul_func_float_f_f+0x53>
    b2d1:	f3 0f 10 45 fc       	movss  -0x4(%rbp),%xmm0
    b2d6:	eb 0a                	jmp    b2e2 <safe_mul_func_float_f_f+0x5d>
    b2d8:	f3 0f 10 45 fc       	movss  -0x4(%rbp),%xmm0
    b2dd:	f3 0f 59 45 f8       	mulss  -0x8(%rbp),%xmm0
    b2e2:	5d                   	pop    %rbp
    b2e3:	c3                   	retq   

000000000000b2e4 <safe_div_func_float_f_f>:
    b2e4:	f3 0f 1e fa          	endbr64 
    b2e8:	55                   	push   %rbp
    b2e9:	48 89 e5             	mov    %rsp,%rbp
    b2ec:	f3 0f 11 45 fc       	movss  %xmm0,-0x4(%rbp)
    b2f1:	f3 0f 11 4d f8       	movss  %xmm1,-0x8(%rbp)
    b2f6:	f3 0f 10 45 f8       	movss  -0x8(%rbp),%xmm0
    b2fb:	f3 0f 10 0d 4d ed 00 	movss  0xed4d(%rip),%xmm1        # 1a050 <l_2286.4842+0x70>
    b302:	00 
    b303:	0f 54 c8             	andps  %xmm0,%xmm1
    b306:	f3 0f 10 05 62 ed 00 	movss  0xed62(%rip),%xmm0        # 1a070 <l_2286.4842+0x90>
    b30d:	00 
    b30e:	0f 2f c1             	comiss %xmm1,%xmm0
    b311:	0f 97 c0             	seta   %al
    b314:	83 f0 01             	xor    $0x1,%eax
    b317:	84 c0                	test   %al,%al
    b319:	75 56                	jne    b371 <safe_div_func_float_f_f+0x8d>
    b31b:	66 0f ef c0          	pxor   %xmm0,%xmm0
    b31f:	0f 2e 45 f8          	ucomiss -0x8(%rbp),%xmm0
    b323:	7a 0a                	jp     b32f <safe_div_func_float_f_f+0x4b>
    b325:	66 0f ef c0          	pxor   %xmm0,%xmm0
    b329:	0f 2e 45 f8          	ucomiss -0x8(%rbp),%xmm0
    b32d:	74 4e                	je     b37d <safe_div_func_float_f_f+0x99>
    b32f:	f3 0f 10 4d fc       	movss  -0x4(%rbp),%xmm1
    b334:	f3 0f 10 05 38 ed 00 	movss  0xed38(%rip),%xmm0        # 1a074 <l_2286.4842+0x94>
    b33b:	00 
    b33c:	f3 0f 59 c1          	mulss  %xmm1,%xmm0
    b340:	f3 0f 10 55 f8       	movss  -0x8(%rbp),%xmm2
    b345:	f3 0f 10 0d 2b ed 00 	movss  0xed2b(%rip),%xmm1        # 1a078 <l_2286.4842+0x98>
    b34c:	00 
    b34d:	f3 0f 59 ca          	mulss  %xmm2,%xmm1
    b351:	f3 0f 5e c1          	divss  %xmm1,%xmm0
    b355:	f3 0f 10 0d f3 ec 00 	movss  0xecf3(%rip),%xmm1        # 1a050 <l_2286.4842+0x70>
    b35c:	00 
    b35d:	0f 54 c1             	andps  %xmm1,%xmm0
    b360:	0f 2f 05 15 ed 00 00 	comiss 0xed15(%rip),%xmm0        # 1a07c <l_2286.4842+0x9c>
    b367:	0f 97 c0             	seta   %al
    b36a:	83 f0 01             	xor    $0x1,%eax
    b36d:	84 c0                	test   %al,%al
    b36f:	74 0c                	je     b37d <safe_div_func_float_f_f+0x99>
    b371:	f3 0f 10 45 fc       	movss  -0x4(%rbp),%xmm0
    b376:	f3 0f 5e 45 f8       	divss  -0x8(%rbp),%xmm0
    b37b:	eb 05                	jmp    b382 <safe_div_func_float_f_f+0x9e>
    b37d:	f3 0f 10 45 fc       	movss  -0x4(%rbp),%xmm0
    b382:	5d                   	pop    %rbp
    b383:	c3                   	retq   

000000000000b384 <safe_add_func_double_f_f>:
    b384:	f3 0f 1e fa          	endbr64 
    b388:	55                   	push   %rbp
    b389:	48 89 e5             	mov    %rsp,%rbp
    b38c:	f2 0f 11 45 f8       	movsd  %xmm0,-0x8(%rbp)
    b391:	f2 0f 11 4d f0       	movsd  %xmm1,-0x10(%rbp)
    b396:	f2 0f 10 4d f8       	movsd  -0x8(%rbp),%xmm1
    b39b:	f2 0f 10 05 dd ec 00 	movsd  0xecdd(%rip),%xmm0        # 1a080 <l_2286.4842+0xa0>
    b3a2:	00 
    b3a3:	f2 0f 59 c8          	mulsd  %xmm0,%xmm1
    b3a7:	f2 0f 10 55 f0       	movsd  -0x10(%rbp),%xmm2
    b3ac:	f2 0f 10 05 cc ec 00 	movsd  0xeccc(%rip),%xmm0        # 1a080 <l_2286.4842+0xa0>
    b3b3:	00 
    b3b4:	f2 0f 59 c2          	mulsd  %xmm2,%xmm0
    b3b8:	f2 0f 58 c1          	addsd  %xmm1,%xmm0
    b3bc:	f3 0f 7e 0d cc ec 00 	movq   0xeccc(%rip),%xmm1        # 1a090 <l_2286.4842+0xb0>
    b3c3:	00 
    b3c4:	66 0f 54 c1          	andpd  %xmm1,%xmm0
    b3c8:	66 0f 2f 05 d0 ec 00 	comisd 0xecd0(%rip),%xmm0        # 1a0a0 <l_2286.4842+0xc0>
    b3cf:	00 
    b3d0:	76 07                	jbe    b3d9 <safe_add_func_double_f_f+0x55>
    b3d2:	f2 0f 10 45 f8       	movsd  -0x8(%rbp),%xmm0
    b3d7:	eb 0a                	jmp    b3e3 <safe_add_func_double_f_f+0x5f>
    b3d9:	f2 0f 10 45 f8       	movsd  -0x8(%rbp),%xmm0
    b3de:	f2 0f 58 45 f0       	addsd  -0x10(%rbp),%xmm0
    b3e3:	5d                   	pop    %rbp
    b3e4:	c3                   	retq   

000000000000b3e5 <safe_sub_func_double_f_f>:
    b3e5:	f3 0f 1e fa          	endbr64 
    b3e9:	55                   	push   %rbp
    b3ea:	48 89 e5             	mov    %rsp,%rbp
    b3ed:	f2 0f 11 45 f8       	movsd  %xmm0,-0x8(%rbp)
    b3f2:	f2 0f 11 4d f0       	movsd  %xmm1,-0x10(%rbp)
    b3f7:	f2 0f 10 4d f8       	movsd  -0x8(%rbp),%xmm1
    b3fc:	f2 0f 10 05 7c ec 00 	movsd  0xec7c(%rip),%xmm0        # 1a080 <l_2286.4842+0xa0>
    b403:	00 
    b404:	f2 0f 59 c1          	mulsd  %xmm1,%xmm0
    b408:	f2 0f 10 55 f0       	movsd  -0x10(%rbp),%xmm2
    b40d:	f2 0f 10 0d 6b ec 00 	movsd  0xec6b(%rip),%xmm1        # 1a080 <l_2286.4842+0xa0>
    b414:	00 
    b415:	f2 0f 59 ca          	mulsd  %xmm2,%xmm1
    b419:	f2 0f 5c c1          	subsd  %xmm1,%xmm0
    b41d:	f3 0f 7e 0d 6b ec 00 	movq   0xec6b(%rip),%xmm1        # 1a090 <l_2286.4842+0xb0>
    b424:	00 
    b425:	66 0f 54 c1          	andpd  %xmm1,%xmm0
    b429:	66 0f 2f 05 6f ec 00 	comisd 0xec6f(%rip),%xmm0        # 1a0a0 <l_2286.4842+0xc0>
    b430:	00 
    b431:	76 07                	jbe    b43a <safe_sub_func_double_f_f+0x55>
    b433:	f2 0f 10 45 f8       	movsd  -0x8(%rbp),%xmm0
    b438:	eb 0a                	jmp    b444 <safe_sub_func_double_f_f+0x5f>
    b43a:	f2 0f 10 45 f8       	movsd  -0x8(%rbp),%xmm0
    b43f:	f2 0f 5c 45 f0       	subsd  -0x10(%rbp),%xmm0
    b444:	5d                   	pop    %rbp
    b445:	c3                   	retq   

000000000000b446 <safe_mul_func_double_f_f>:
    b446:	f3 0f 1e fa          	endbr64 
    b44a:	55                   	push   %rbp
    b44b:	48 89 e5             	mov    %rsp,%rbp
    b44e:	f2 0f 11 45 f8       	movsd  %xmm0,-0x8(%rbp)
    b453:	f2 0f 11 4d f0       	movsd  %xmm1,-0x10(%rbp)
    b458:	f2 0f 10 4d f8       	movsd  -0x8(%rbp),%xmm1
    b45d:	f2 0f 10 05 43 ec 00 	movsd  0xec43(%rip),%xmm0        # 1a0a8 <l_2286.4842+0xc8>
    b464:	00 
    b465:	f2 0f 59 c8          	mulsd  %xmm0,%xmm1
    b469:	f2 0f 10 55 f0       	movsd  -0x10(%rbp),%xmm2
    b46e:	f2 0f 10 05 3a ec 00 	movsd  0xec3a(%rip),%xmm0        # 1a0b0 <l_2286.4842+0xd0>
    b475:	00 
    b476:	f2 0f 59 c2          	mulsd  %xmm2,%xmm0
    b47a:	f2 0f 59 c1          	mulsd  %xmm1,%xmm0
    b47e:	f3 0f 7e 0d 0a ec 00 	movq   0xec0a(%rip),%xmm1        # 1a090 <l_2286.4842+0xb0>
    b485:	00 
    b486:	66 0f 54 c1          	andpd  %xmm1,%xmm0
    b48a:	66 0f 2f 05 26 ec 00 	comisd 0xec26(%rip),%xmm0        # 1a0b8 <l_2286.4842+0xd8>
    b491:	00 
    b492:	76 07                	jbe    b49b <safe_mul_func_double_f_f+0x55>
    b494:	f2 0f 10 45 f8       	movsd  -0x8(%rbp),%xmm0
    b499:	eb 0a                	jmp    b4a5 <safe_mul_func_double_f_f+0x5f>
    b49b:	f2 0f 10 45 f8       	movsd  -0x8(%rbp),%xmm0
    b4a0:	f2 0f 59 45 f0       	mulsd  -0x10(%rbp),%xmm0
    b4a5:	5d                   	pop    %rbp
    b4a6:	c3                   	retq   

000000000000b4a7 <safe_div_func_double_f_f>:
    b4a7:	f3 0f 1e fa          	endbr64 
    b4ab:	55                   	push   %rbp
    b4ac:	48 89 e5             	mov    %rsp,%rbp
    b4af:	f2 0f 11 45 f8       	movsd  %xmm0,-0x8(%rbp)
    b4b4:	f2 0f 11 4d f0       	movsd  %xmm1,-0x10(%rbp)
    b4b9:	f2 0f 10 45 f0       	movsd  -0x10(%rbp),%xmm0
    b4be:	f3 0f 7e 0d ca eb 00 	movq   0xebca(%rip),%xmm1        # 1a090 <l_2286.4842+0xb0>
    b4c5:	00 
    b4c6:	66 0f 54 c8          	andpd  %xmm0,%xmm1
    b4ca:	f2 0f 10 05 ee eb 00 	movsd  0xebee(%rip),%xmm0        # 1a0c0 <l_2286.4842+0xe0>
    b4d1:	00 
    b4d2:	66 0f 2f c1          	comisd %xmm1,%xmm0
    b4d6:	0f 97 c0             	seta   %al
    b4d9:	83 f0 01             	xor    $0x1,%eax
    b4dc:	84 c0                	test   %al,%al
    b4de:	75 5a                	jne    b53a <safe_div_func_double_f_f+0x93>
    b4e0:	66 0f ef c0          	pxor   %xmm0,%xmm0
    b4e4:	66 0f 2e 45 f0       	ucomisd -0x10(%rbp),%xmm0
    b4e9:	7a 0b                	jp     b4f6 <safe_div_func_double_f_f+0x4f>
    b4eb:	66 0f ef c0          	pxor   %xmm0,%xmm0
    b4ef:	66 0f 2e 45 f0       	ucomisd -0x10(%rbp),%xmm0
    b4f4:	74 50                	je     b546 <safe_div_func_double_f_f+0x9f>
    b4f6:	f2 0f 10 4d f8       	movsd  -0x8(%rbp),%xmm1
    b4fb:	f2 0f 10 05 c5 eb 00 	movsd  0xebc5(%rip),%xmm0        # 1a0c8 <l_2286.4842+0xe8>
    b502:	00 
    b503:	f2 0f 59 c1          	mulsd  %xmm1,%xmm0
    b507:	f2 0f 10 55 f0       	movsd  -0x10(%rbp),%xmm2
    b50c:	f2 0f 10 0d bc eb 00 	movsd  0xebbc(%rip),%xmm1        # 1a0d0 <l_2286.4842+0xf0>
    b513:	00 
    b514:	f2 0f 59 ca          	mulsd  %xmm2,%xmm1
    b518:	f2 0f 5e c1          	divsd  %xmm1,%xmm0
    b51c:	f3 0f 7e 0d 6c eb 00 	movq   0xeb6c(%rip),%xmm1        # 1a090 <l_2286.4842+0xb0>
    b523:	00 
    b524:	66 0f 54 c1          	andpd  %xmm1,%xmm0
    b528:	66 0f 2f 05 a8 eb 00 	comisd 0xeba8(%rip),%xmm0        # 1a0d8 <l_2286.4842+0xf8>
    b52f:	00 
    b530:	0f 97 c0             	seta   %al
    b533:	83 f0 01             	xor    $0x1,%eax
    b536:	84 c0                	test   %al,%al
    b538:	74 0c                	je     b546 <safe_div_func_double_f_f+0x9f>
    b53a:	f2 0f 10 45 f8       	movsd  -0x8(%rbp),%xmm0
    b53f:	f2 0f 5e 45 f0       	divsd  -0x10(%rbp),%xmm0
    b544:	eb 05                	jmp    b54b <safe_div_func_double_f_f+0xa4>
    b546:	f2 0f 10 45 f8       	movsd  -0x8(%rbp),%xmm0
    b54b:	5d                   	pop    %rbp
    b54c:	c3                   	retq   

000000000000b54d <safe_convert_func_float_to_int32_t>:
    b54d:	f3 0f 1e fa          	endbr64 
    b551:	55                   	push   %rbp
    b552:	48 89 e5             	mov    %rsp,%rbp
    b555:	f3 0f 11 45 fc       	movss  %xmm0,-0x4(%rbp)
    b55a:	f3 0f 10 05 7e eb 00 	movss  0xeb7e(%rip),%xmm0        # 1a0e0 <l_2286.4842+0x100>
    b561:	00 
    b562:	0f 2f 45 fc          	comiss -0x4(%rbp),%xmm0
    b566:	0f 93 c0             	setae  %al
    b569:	83 f0 01             	xor    $0x1,%eax
    b56c:	84 c0                	test   %al,%al
    b56e:	74 21                	je     b591 <safe_convert_func_float_to_int32_t+0x44>
    b570:	f3 0f 10 45 fc       	movss  -0x4(%rbp),%xmm0
    b575:	0f 2f 05 68 eb 00 00 	comiss 0xeb68(%rip),%xmm0        # 1a0e4 <l_2286.4842+0x104>
    b57c:	0f 93 c0             	setae  %al
    b57f:	83 f0 01             	xor    $0x1,%eax
    b582:	84 c0                	test   %al,%al
    b584:	74 0b                	je     b591 <safe_convert_func_float_to_int32_t+0x44>
    b586:	f3 0f 10 45 fc       	movss  -0x4(%rbp),%xmm0
    b58b:	f3 0f 2c c0          	cvttss2si %xmm0,%eax
    b58f:	eb 05                	jmp    b596 <safe_convert_func_float_to_int32_t+0x49>
    b591:	b8 ff ff ff 7f       	mov    $0x7fffffff,%eax
    b596:	5d                   	pop    %rbp
    b597:	c3                   	retq   

000000000000b598 <crc32_gentab>:
    b598:	f3 0f 1e fa          	endbr64 
    b59c:	55                   	push   %rbp
    b59d:	48 89 e5             	mov    %rsp,%rbp
    b5a0:	c7 45 fc 20 83 b8 ed 	movl   $0xedb88320,-0x4(%rbp)
    b5a7:	c7 45 f4 00 00 00 00 	movl   $0x0,-0xc(%rbp)
    b5ae:	eb 51                	jmp    b601 <crc32_gentab+0x69>
    b5b0:	8b 45 f4             	mov    -0xc(%rbp),%eax
    b5b3:	89 45 f0             	mov    %eax,-0x10(%rbp)
    b5b6:	c7 45 f8 08 00 00 00 	movl   $0x8,-0x8(%rbp)
    b5bd:	eb 1e                	jmp    b5dd <crc32_gentab+0x45>
    b5bf:	8b 45 f0             	mov    -0x10(%rbp),%eax
    b5c2:	83 e0 01             	and    $0x1,%eax
    b5c5:	85 c0                	test   %eax,%eax
    b5c7:	74 0d                	je     b5d6 <crc32_gentab+0x3e>
    b5c9:	8b 45 f0             	mov    -0x10(%rbp),%eax
    b5cc:	d1 e8                	shr    %eax
    b5ce:	33 45 fc             	xor    -0x4(%rbp),%eax
    b5d1:	89 45 f0             	mov    %eax,-0x10(%rbp)
    b5d4:	eb 03                	jmp    b5d9 <crc32_gentab+0x41>
    b5d6:	d1 6d f0             	shrl   -0x10(%rbp)
    b5d9:	83 6d f8 01          	subl   $0x1,-0x8(%rbp)
    b5dd:	83 7d f8 00          	cmpl   $0x0,-0x8(%rbp)
    b5e1:	7f dc                	jg     b5bf <crc32_gentab+0x27>
    b5e3:	8b 45 f4             	mov    -0xc(%rbp),%eax
    b5e6:	48 98                	cltq   
    b5e8:	48 8d 0c 85 00 00 00 	lea    0x0(,%rax,4),%rcx
    b5ef:	00 
    b5f0:	48 8d 15 29 65 01 00 	lea    0x16529(%rip),%rdx        # 21b20 <crc32_tab>
    b5f7:	8b 45 f0             	mov    -0x10(%rbp),%eax
    b5fa:	89 04 11             	mov    %eax,(%rcx,%rdx,1)
    b5fd:	83 45 f4 01          	addl   $0x1,-0xc(%rbp)
    b601:	81 7d f4 ff 00 00 00 	cmpl   $0xff,-0xc(%rbp)
    b608:	7e a6                	jle    b5b0 <crc32_gentab+0x18>
    b60a:	90                   	nop
    b60b:	90                   	nop
    b60c:	5d                   	pop    %rbp
    b60d:	c3                   	retq   

000000000000b60e <crc32_byte>:
    b60e:	f3 0f 1e fa          	endbr64 
    b612:	55                   	push   %rbp
    b613:	48 89 e5             	mov    %rsp,%rbp
    b616:	89 f8                	mov    %edi,%eax
    b618:	88 45 fc             	mov    %al,-0x4(%rbp)
    b61b:	8b 05 ff 19 01 00    	mov    0x119ff(%rip),%eax        # 1d020 <crc32_context>
    b621:	c1 e8 08             	shr    $0x8,%eax
    b624:	89 c1                	mov    %eax,%ecx
    b626:	0f b6 55 fc          	movzbl -0x4(%rbp),%edx
    b62a:	8b 05 f0 19 01 00    	mov    0x119f0(%rip),%eax        # 1d020 <crc32_context>
    b630:	31 d0                	xor    %edx,%eax
    b632:	0f b6 c0             	movzbl %al,%eax
    b635:	89 c0                	mov    %eax,%eax
    b637:	48 8d 14 85 00 00 00 	lea    0x0(,%rax,4),%rdx
    b63e:	00 
    b63f:	48 8d 05 da 64 01 00 	lea    0x164da(%rip),%rax        # 21b20 <crc32_tab>
    b646:	8b 04 02             	mov    (%rdx,%rax,1),%eax
    b649:	31 c8                	xor    %ecx,%eax
    b64b:	89 05 cf 19 01 00    	mov    %eax,0x119cf(%rip)        # 1d020 <crc32_context>
    b651:	90                   	nop
    b652:	5d                   	pop    %rbp
    b653:	c3                   	retq   

000000000000b654 <crc32_8bytes>:
    b654:	f3 0f 1e fa          	endbr64 
    b658:	55                   	push   %rbp
    b659:	48 89 e5             	mov    %rsp,%rbp
    b65c:	48 83 ec 08          	sub    $0x8,%rsp
    b660:	48 89 7d f8          	mov    %rdi,-0x8(%rbp)
    b664:	48 8b 45 f8          	mov    -0x8(%rbp),%rax
    b668:	0f b6 c0             	movzbl %al,%eax
    b66b:	89 c7                	mov    %eax,%edi
    b66d:	e8 9c ff ff ff       	callq  b60e <crc32_byte>
    b672:	48 8b 45 f8          	mov    -0x8(%rbp),%rax
    b676:	48 c1 e8 08          	shr    $0x8,%rax
    b67a:	0f b6 c0             	movzbl %al,%eax
    b67d:	89 c7                	mov    %eax,%edi
    b67f:	e8 8a ff ff ff       	callq  b60e <crc32_byte>
    b684:	48 8b 45 f8          	mov    -0x8(%rbp),%rax
    b688:	48 c1 e8 10          	shr    $0x10,%rax
    b68c:	0f b6 c0             	movzbl %al,%eax
    b68f:	89 c7                	mov    %eax,%edi
    b691:	e8 78 ff ff ff       	callq  b60e <crc32_byte>
    b696:	48 8b 45 f8          	mov    -0x8(%rbp),%rax
    b69a:	48 c1 e8 18          	shr    $0x18,%rax
    b69e:	0f b6 c0             	movzbl %al,%eax
    b6a1:	89 c7                	mov    %eax,%edi
    b6a3:	e8 66 ff ff ff       	callq  b60e <crc32_byte>
    b6a8:	48 8b 45 f8          	mov    -0x8(%rbp),%rax
    b6ac:	48 c1 e8 20          	shr    $0x20,%rax
    b6b0:	0f b6 c0             	movzbl %al,%eax
    b6b3:	89 c7                	mov    %eax,%edi
    b6b5:	e8 54 ff ff ff       	callq  b60e <crc32_byte>
    b6ba:	48 8b 45 f8          	mov    -0x8(%rbp),%rax
    b6be:	48 c1 e8 28          	shr    $0x28,%rax
    b6c2:	0f b6 c0             	movzbl %al,%eax
    b6c5:	89 c7                	mov    %eax,%edi
    b6c7:	e8 42 ff ff ff       	callq  b60e <crc32_byte>
    b6cc:	48 8b 45 f8          	mov    -0x8(%rbp),%rax
    b6d0:	48 c1 e8 30          	shr    $0x30,%rax
    b6d4:	0f b6 c0             	movzbl %al,%eax
    b6d7:	89 c7                	mov    %eax,%edi
    b6d9:	e8 30 ff ff ff       	callq  b60e <crc32_byte>
    b6de:	48 8b 45 f8          	mov    -0x8(%rbp),%rax
    b6e2:	48 c1 e8 38          	shr    $0x38,%rax
    b6e6:	0f b6 c0             	movzbl %al,%eax
    b6e9:	89 c7                	mov    %eax,%edi
    b6eb:	e8 1e ff ff ff       	callq  b60e <crc32_byte>
    b6f0:	90                   	nop
    b6f1:	c9                   	leaveq 
    b6f2:	c3                   	retq   

000000000000b6f3 <transparent_crc>:
    b6f3:	f3 0f 1e fa          	endbr64 
    b6f7:	55                   	push   %rbp
    b6f8:	48 89 e5             	mov    %rsp,%rbp
    b6fb:	48 83 ec 20          	sub    $0x20,%rsp
    b6ff:	48 89 7d f8          	mov    %rdi,-0x8(%rbp)
    b703:	48 89 75 f0          	mov    %rsi,-0x10(%rbp)
    b707:	89 55 ec             	mov    %edx,-0x14(%rbp)
    b70a:	48 8b 45 f8          	mov    -0x8(%rbp),%rax
    b70e:	48 89 c7             	mov    %rax,%rdi
    b711:	e8 3e ff ff ff       	callq  b654 <crc32_8bytes>
    b716:	83 7d ec 00          	cmpl   $0x0,-0x14(%rbp)
    b71a:	74 22                	je     b73e <transparent_crc+0x4b>
    b71c:	8b 05 fe 18 01 00    	mov    0x118fe(%rip),%eax        # 1d020 <crc32_context>
    b722:	f7 d0                	not    %eax
    b724:	89 c2                	mov    %eax,%edx
    b726:	48 8b 45 f0          	mov    -0x10(%rbp),%rax
    b72a:	48 89 c6             	mov    %rax,%rsi
    b72d:	48 8d 3d fc c8 00 00 	lea    0xc8fc(%rip),%rdi        # 18030 <_IO_stdin_used+0x30>
    b734:	b8 00 00 00 00       	mov    $0x0,%eax
    b739:	e8 42 e9 ff ff       	callq  a080 <printf@plt>
    b73e:	90                   	nop
    b73f:	c9                   	leaveq 
    b740:	c3                   	retq   

000000000000b741 <transparent_crc_bytes>:
    b741:	f3 0f 1e fa          	endbr64 
    b745:	55                   	push   %rbp
    b746:	48 89 e5             	mov    %rsp,%rbp
    b749:	48 83 ec 30          	sub    $0x30,%rsp
    b74d:	48 89 7d e8          	mov    %rdi,-0x18(%rbp)
    b751:	89 75 e4             	mov    %esi,-0x1c(%rbp)
    b754:	48 89 55 d8          	mov    %rdx,-0x28(%rbp)
    b758:	89 4d e0             	mov    %ecx,-0x20(%rbp)
    b75b:	c7 45 fc 00 00 00 00 	movl   $0x0,-0x4(%rbp)
    b762:	eb 1e                	jmp    b782 <transparent_crc_bytes+0x41>
    b764:	8b 45 fc             	mov    -0x4(%rbp),%eax
    b767:	48 63 d0             	movslq %eax,%rdx
    b76a:	48 8b 45 e8          	mov    -0x18(%rbp),%rax
    b76e:	48 01 d0             	add    %rdx,%rax
    b771:	0f b6 00             	movzbl (%rax),%eax
    b774:	0f b6 c0             	movzbl %al,%eax
    b777:	89 c7                	mov    %eax,%edi
    b779:	e8 90 fe ff ff       	callq  b60e <crc32_byte>
    b77e:	83 45 fc 01          	addl   $0x1,-0x4(%rbp)
    b782:	8b 45 fc             	mov    -0x4(%rbp),%eax
    b785:	3b 45 e4             	cmp    -0x1c(%rbp),%eax
    b788:	7c da                	jl     b764 <transparent_crc_bytes+0x23>
    b78a:	83 7d e0 00          	cmpl   $0x0,-0x20(%rbp)
    b78e:	74 22                	je     b7b2 <transparent_crc_bytes+0x71>
    b790:	8b 05 8a 18 01 00    	mov    0x1188a(%rip),%eax        # 1d020 <crc32_context>
    b796:	f7 d0                	not    %eax
    b798:	89 c2                	mov    %eax,%edx
    b79a:	48 8b 45 d8          	mov    -0x28(%rbp),%rax
    b79e:	48 89 c6             	mov    %rax,%rsi
    b7a1:	48 8d 3d 88 c8 00 00 	lea    0xc888(%rip),%rdi        # 18030 <_IO_stdin_used+0x30>
    b7a8:	b8 00 00 00 00       	mov    $0x0,%eax
    b7ad:	e8 ce e8 ff ff       	callq  a080 <printf@plt>
    b7b2:	90                   	nop
    b7b3:	c9                   	leaveq 
    b7b4:	c3                   	retq   

000000000000b7b5 <func_1>:
    b7b5:	f3 0f 1e fa          	endbr64 
    b7b9:	55                   	push   %rbp
    b7ba:	48 89 e5             	mov    %rsp,%rbp
    b7bd:	41 57                	push   %r15
    b7bf:	41 56                	push   %r14
    b7c1:	41 55                	push   %r13
    b7c3:	41 54                	push   %r12
    b7c5:	53                   	push   %rbx
    b7c6:	48 81 ec 78 0c 00 00 	sub    $0xc78,%rsp
    b7cd:	64 48 8b 04 25 28 00 	mov    %fs:0x28,%rax
    b7d4:	00 00 
    b7d6:	48 89 45 c8          	mov    %rax,-0x38(%rbp)
    b7da:	31 c0                	xor    %eax,%eax
    b7dc:	66 c7 85 7e f3 ff ff 	movw   $0xe71f,-0xc82(%rbp)
    b7e3:	1f e7 
    b7e5:	c7 85 a0 f3 ff ff 49 	movl   $0x840eb449,-0xc60(%rbp)
    b7ec:	b4 0e 84 
    b7ef:	48 c7 85 c0 f3 ff ff 	movq   $0x0,-0xc40(%rbp)
    b7f6:	00 00 00 00 
    b7fa:	c7 85 80 f3 ff ff 0d 	movl   $0x41de260d,-0xc80(%rbp)
    b801:	26 de 41 
    b804:	c6 85 79 f3 ff ff 01 	movb   $0x1,-0xc87(%rbp)
    b80b:	48 b8 af 46 d2 e6 84 	movabs $0x6db59084e6d246af,%rax
    b812:	90 b5 6d 
    b815:	48 89 85 c8 f3 ff ff 	mov    %rax,-0xc38(%rbp)
    b81c:	48 c7 85 b0 f3 ff ff 	movq   $0x0,-0xc50(%rbp)
    b823:	00 00 00 00 
    b827:	66 c7 85 70 f4 ff ff 	movw   $0x0,-0xb90(%rbp)
    b82e:	00 00 
    b830:	66 c7 85 72 f4 ff ff 	movw   $0x3,-0xb8e(%rbp)
    b837:	03 00 
    b839:	66 c7 85 74 f4 ff ff 	movw   $0x0,-0xb8c(%rbp)
    b840:	00 00 
    b842:	66 c7 85 76 f4 ff ff 	movw   $0xffff,-0xb8a(%rbp)
    b849:	ff ff 
    b84b:	66 c7 85 78 f4 ff ff 	movw   $0xec25,-0xb88(%rbp)
    b852:	25 ec 
    b854:	66 c7 85 7a f4 ff ff 	movw   $0x0,-0xb86(%rbp)
    b85b:	00 00 
    b85d:	66 c7 85 7c f4 ff ff 	movw   $0xffff,-0xb84(%rbp)
    b864:	ff ff 
    b866:	66 c7 85 7e f4 ff ff 	movw   $0xec25,-0xb82(%rbp)
    b86d:	25 ec 
    b86f:	66 c7 85 80 f4 ff ff 	movw   $0x1,-0xb80(%rbp)
    b876:	01 00 
    b878:	66 c7 85 82 f4 ff ff 	movw   $0x60d0,-0xb7e(%rbp)
    b87f:	d0 60 
    b881:	66 c7 85 84 f4 ff ff 	movw   $0x1,-0xb7c(%rbp)
    b888:	01 00 
    b88a:	66 c7 85 86 f4 ff ff 	movw   $0xec25,-0xb7a(%rbp)
    b891:	25 ec 
    b893:	66 c7 85 88 f4 ff ff 	movw   $0xffff,-0xb78(%rbp)
    b89a:	ff ff 
    b89c:	66 c7 85 8a f4 ff ff 	movw   $0x0,-0xb76(%rbp)
    b8a3:	00 00 
    b8a5:	66 c7 85 8c f4 ff ff 	movw   $0xec25,-0xb74(%rbp)
    b8ac:	25 ec 
    b8ae:	66 c7 85 8e f4 ff ff 	movw   $0xffff,-0xb72(%rbp)
    b8b5:	ff ff 
    b8b7:	66 c7 85 90 f4 ff ff 	movw   $0x0,-0xb70(%rbp)
    b8be:	00 00 
    b8c0:	66 c7 85 92 f4 ff ff 	movw   $0x3,-0xb6e(%rbp)
    b8c7:	03 00 
    b8c9:	66 c7 85 94 f4 ff ff 	movw   $0x0,-0xb6c(%rbp)
    b8d0:	00 00 
    b8d2:	66 c7 85 96 f4 ff ff 	movw   $0xfffe,-0xb6a(%rbp)
    b8d9:	fe ff 
    b8db:	66 c7 85 98 f4 ff ff 	movw   $0xfffe,-0xb68(%rbp)
    b8e2:	fe ff 
    b8e4:	66 c7 85 9a f4 ff ff 	movw   $0xfff9,-0xb66(%rbp)
    b8eb:	f9 ff 
    b8ed:	66 c7 85 9c f4 ff ff 	movw   $0x2,-0xb64(%rbp)
    b8f4:	02 00 
    b8f6:	66 c7 85 9e f4 ff ff 	movw   $0x9c6c,-0xb62(%rbp)
    b8fd:	6c 9c 
    b8ff:	66 c7 85 a0 f4 ff ff 	movw   $0x5,-0xb60(%rbp)
    b906:	05 00 
    b908:	66 c7 85 a2 f4 ff ff 	movw   $0x1,-0xb5e(%rbp)
    b90f:	01 00 
    b911:	66 c7 85 a4 f4 ff ff 	movw   $0x6d39,-0xb5c(%rbp)
    b918:	39 6d 
    b91a:	66 c7 85 a6 f4 ff ff 	movw   $0x727,-0xb5a(%rbp)
    b921:	27 07 
    b923:	66 c7 85 a8 f4 ff ff 	movw   $0x3,-0xb58(%rbp)
    b92a:	03 00 
    b92c:	66 c7 85 aa f4 ff ff 	movw   $0x0,-0xb56(%rbp)
    b933:	00 00 
    b935:	66 c7 85 ac f4 ff ff 	movw   $0xfff9,-0xb54(%rbp)
    b93c:	f9 ff 
    b93e:	66 c7 85 ae f4 ff ff 	movw   $0x221b,-0xb52(%rbp)
    b945:	1b 22 
    b947:	66 c7 85 b0 f4 ff ff 	movw   $0x727,-0xb50(%rbp)
    b94e:	27 07 
    b950:	66 c7 85 b2 f4 ff ff 	movw   $0x221b,-0xb4e(%rbp)
    b957:	1b 22 
    b959:	66 c7 85 b4 f4 ff ff 	movw   $0xfff9,-0xb4c(%rbp)
    b960:	f9 ff 
    b962:	66 c7 85 b6 f4 ff ff 	movw   $0x0,-0xb4a(%rbp)
    b969:	00 00 
    b96b:	66 c7 85 b8 f4 ff ff 	movw   $0x3,-0xb48(%rbp)
    b972:	03 00 
    b974:	66 c7 85 ba f4 ff ff 	movw   $0x727,-0xb46(%rbp)
    b97b:	27 07 
    b97d:	66 c7 85 bc f4 ff ff 	movw   $0x6d39,-0xb44(%rbp)
    b984:	39 6d 
    b986:	66 c7 85 be f4 ff ff 	movw   $0x1,-0xb42(%rbp)
    b98d:	01 00 
    b98f:	66 c7 85 c0 f4 ff ff 	movw   $0x5,-0xb40(%rbp)
    b996:	05 00 
    b998:	66 c7 85 c2 f4 ff ff 	movw   $0x9c6c,-0xb3e(%rbp)
    b99f:	6c 9c 
    b9a1:	66 c7 85 c4 f4 ff ff 	movw   $0x2,-0xb3c(%rbp)
    b9a8:	02 00 
    b9aa:	66 c7 85 c6 f4 ff ff 	movw   $0xfff9,-0xb3a(%rbp)
    b9b1:	f9 ff 
    b9b3:	66 c7 85 c8 f4 ff ff 	movw   $0xfffe,-0xb38(%rbp)
    b9ba:	fe ff 
    b9bc:	66 c7 85 ca f4 ff ff 	movw   $0xfffe,-0xb36(%rbp)
    b9c3:	fe ff 
    b9c5:	66 c7 85 cc f4 ff ff 	movw   $0x0,-0xb34(%rbp)
    b9cc:	00 00 
    b9ce:	66 c7 85 ce f4 ff ff 	movw   $0x3,-0xb32(%rbp)
    b9d5:	03 00 
    b9d7:	66 c7 85 d0 f4 ff ff 	movw   $0x0,-0xb30(%rbp)
    b9de:	00 00 
    b9e0:	66 c7 85 d2 f4 ff ff 	movw   $0xffff,-0xb2e(%rbp)
    b9e7:	ff ff 
    b9e9:	66 c7 85 d4 f4 ff ff 	movw   $0xec25,-0xb2c(%rbp)
    b9f0:	25 ec 
    b9f2:	66 c7 85 d6 f4 ff ff 	movw   $0x0,-0xb2a(%rbp)
    b9f9:	00 00 
    b9fb:	66 c7 85 d8 f4 ff ff 	movw   $0xffff,-0xb28(%rbp)
    ba02:	ff ff 
    ba04:	66 c7 85 da f4 ff ff 	movw   $0xec25,-0xb26(%rbp)
    ba0b:	25 ec 
    ba0d:	66 c7 85 dc f4 ff ff 	movw   $0x1,-0xb24(%rbp)
    ba14:	01 00 
    ba16:	66 c7 85 de f4 ff ff 	movw   $0x60d0,-0xb22(%rbp)
    ba1d:	d0 60 
    ba1f:	66 c7 85 e0 f4 ff ff 	movw   $0x1,-0xb20(%rbp)
    ba26:	01 00 
    ba28:	66 c7 85 e2 f4 ff ff 	movw   $0xec25,-0xb1e(%rbp)
    ba2f:	25 ec 
    ba31:	66 c7 85 e4 f4 ff ff 	movw   $0xffff,-0xb1c(%rbp)
    ba38:	ff ff 
    ba3a:	66 c7 85 e6 f4 ff ff 	movw   $0x0,-0xb1a(%rbp)
    ba41:	00 00 
    ba43:	66 c7 85 e8 f4 ff ff 	movw   $0xec25,-0xb18(%rbp)
    ba4a:	25 ec 
    ba4c:	66 c7 85 ea f4 ff ff 	movw   $0xffff,-0xb16(%rbp)
    ba53:	ff ff 
    ba55:	66 c7 85 ec f4 ff ff 	movw   $0x0,-0xb14(%rbp)
    ba5c:	00 00 
    ba5e:	66 c7 85 ee f4 ff ff 	movw   $0x3,-0xb12(%rbp)
    ba65:	03 00 
    ba67:	66 c7 85 f0 f4 ff ff 	movw   $0x0,-0xb10(%rbp)
    ba6e:	00 00 
    ba70:	66 c7 85 f2 f4 ff ff 	movw   $0xfffe,-0xb0e(%rbp)
    ba77:	fe ff 
    ba79:	66 c7 85 f4 f4 ff ff 	movw   $0xfffe,-0xb0c(%rbp)
    ba80:	fe ff 
    ba82:	66 c7 85 f6 f4 ff ff 	movw   $0xfff9,-0xb0a(%rbp)
    ba89:	f9 ff 
    ba8b:	66 c7 85 f8 f4 ff ff 	movw   $0x2,-0xb08(%rbp)
    ba92:	02 00 
    ba94:	66 c7 85 fa f4 ff ff 	movw   $0x9c6c,-0xb06(%rbp)
    ba9b:	6c 9c 
    ba9d:	66 c7 85 fc f4 ff ff 	movw   $0x5,-0xb04(%rbp)
    baa4:	05 00 
    baa6:	66 c7 85 fe f4 ff ff 	movw   $0x1,-0xb02(%rbp)
    baad:	01 00 
    baaf:	66 c7 85 00 f5 ff ff 	movw   $0x6d39,-0xb00(%rbp)
    bab6:	39 6d 
    bab8:	66 c7 85 02 f5 ff ff 	movw   $0x727,-0xafe(%rbp)
    babf:	27 07 
    bac1:	66 c7 85 04 f5 ff ff 	movw   $0x3,-0xafc(%rbp)
    bac8:	03 00 
    baca:	66 c7 85 06 f5 ff ff 	movw   $0x0,-0xafa(%rbp)
    bad1:	00 00 
    bad3:	66 c7 85 08 f5 ff ff 	movw   $0xfff9,-0xaf8(%rbp)
    bada:	f9 ff 
    badc:	66 c7 85 0a f5 ff ff 	movw   $0x221b,-0xaf6(%rbp)
    bae3:	1b 22 
    bae5:	66 c7 85 0c f5 ff ff 	movw   $0x727,-0xaf4(%rbp)
    baec:	27 07 
    baee:	66 c7 85 0e f5 ff ff 	movw   $0x221b,-0xaf2(%rbp)
    baf5:	1b 22 
    baf7:	66 c7 85 10 f5 ff ff 	movw   $0xfff9,-0xaf0(%rbp)
    bafe:	f9 ff 
    bb00:	66 c7 85 12 f5 ff ff 	movw   $0x0,-0xaee(%rbp)
    bb07:	00 00 
    bb09:	66 c7 85 14 f5 ff ff 	movw   $0x3,-0xaec(%rbp)
    bb10:	03 00 
    bb12:	66 c7 85 16 f5 ff ff 	movw   $0x727,-0xaea(%rbp)
    bb19:	27 07 
    bb1b:	c7 85 88 f3 ff ff 00 	movl   $0x0,-0xc78(%rbp)
    bb22:	00 00 00 
    bb25:	eb 21                	jmp    bb48 <func_1+0x393>
    bb27:	8b 85 88 f3 ff ff    	mov    -0xc78(%rbp),%eax
    bb2d:	48 98                	cltq   
    bb2f:	48 bb 80 f6 00 8e a8 	movabs $0x1a4d63a88e00f680,%rbx
    bb36:	63 4d 1a 
    bb39:	48 89 9c c5 10 f4 ff 	mov    %rbx,-0xbf0(%rbp,%rax,8)
    bb40:	ff 
    bb41:	83 85 88 f3 ff ff 01 	addl   $0x1,-0xc78(%rbp)
    bb48:	83 bd 88 f3 ff ff 01 	cmpl   $0x1,-0xc78(%rbp)
    bb4f:	7e d6                	jle    bb27 <func_1+0x372>
    bb51:	c7 85 88 f3 ff ff 00 	movl   $0x0,-0xc78(%rbp)
    bb58:	00 00 00 
    bb5b:	e9 86 00 00 00       	jmpq   bbe6 <func_1+0x431>
    bb60:	c7 85 8c f3 ff ff 00 	movl   $0x0,-0xc74(%rbp)
    bb67:	00 00 00 
    bb6a:	eb 6a                	jmp    bbd6 <func_1+0x421>
    bb6c:	c7 85 90 f3 ff ff 00 	movl   $0x0,-0xc70(%rbp)
    bb73:	00 00 00 
    bb76:	eb 4e                	jmp    bbc6 <func_1+0x411>
    bb78:	8b 85 90 f3 ff ff    	mov    -0xc70(%rbp),%eax
    bb7e:	48 63 f0             	movslq %eax,%rsi
    bb81:	8b 85 88 f3 ff ff    	mov    -0xc78(%rbp),%eax
    bb87:	48 63 d0             	movslq %eax,%rdx
    bb8a:	8b 85 8c f3 ff ff    	mov    -0xc74(%rbp),%eax
    bb90:	48 63 c8             	movslq %eax,%rcx
    bb93:	48 89 d0             	mov    %rdx,%rax
    bb96:	48 c1 e0 04          	shl    $0x4,%rax
    bb9a:	48 29 d0             	sub    %rdx,%rax
    bb9d:	48 01 c0             	add    %rax,%rax
    bba0:	48 89 ca             	mov    %rcx,%rdx
    bba3:	48 c1 e2 02          	shl    $0x2,%rdx
    bba7:	48 01 ca             	add    %rcx,%rdx
    bbaa:	48 01 d0             	add    %rdx,%rax
    bbad:	48 01 f0             	add    %rsi,%rax
    bbb0:	48 8d 15 6d 14 01 00 	lea    0x1146d(%rip),%rdx        # 1d024 <g_5>
    bbb7:	48 89 94 c5 40 f8 ff 	mov    %rdx,-0x7c0(%rbp,%rax,8)
    bbbe:	ff 
    bbbf:	83 85 90 f3 ff ff 01 	addl   $0x1,-0xc70(%rbp)
    bbc6:	83 bd 90 f3 ff ff 04 	cmpl   $0x4,-0xc70(%rbp)
    bbcd:	7e a9                	jle    bb78 <func_1+0x3c3>
    bbcf:	83 85 8c f3 ff ff 01 	addl   $0x1,-0xc74(%rbp)
    bbd6:	83 bd 8c f3 ff ff 05 	cmpl   $0x5,-0xc74(%rbp)
    bbdd:	7e 8d                	jle    bb6c <func_1+0x3b7>
    bbdf:	83 85 88 f3 ff ff 01 	addl   $0x1,-0xc78(%rbp)
    bbe6:	83 bd 88 f3 ff ff 07 	cmpl   $0x7,-0xc78(%rbp)
    bbed:	0f 8e 6d ff ff ff    	jle    bb60 <func_1+0x3ab>
    bbf3:	c7 85 88 f3 ff ff 00 	movl   $0x0,-0xc78(%rbp)
    bbfa:	00 00 00 
    bbfd:	eb 14                	jmp    bc13 <func_1+0x45e>
    bbff:	8b 85 88 f3 ff ff    	mov    -0xc78(%rbp),%eax
    bc05:	48 98                	cltq   
    bc07:	c6 44 05 c2 b2       	movb   $0xb2,-0x3e(%rbp,%rax,1)
    bc0c:	83 85 88 f3 ff ff 01 	addl   $0x1,-0xc78(%rbp)
    bc13:	83 bd 88 f3 ff ff 05 	cmpl   $0x5,-0xc78(%rbp)
    bc1a:	7e e3                	jle    bbff <func_1+0x44a>
    bc1c:	90                   	nop
    bc1d:	48 8b 85 10 f4 ff ff 	mov    -0xbf0(%rbp),%rax
    bc24:	66 89 85 7e f3 ff ff 	mov    %ax,-0xc82(%rbp)
    bc2b:	48 8b 9d 18 f4 ff ff 	mov    -0xbe8(%rbp),%rbx
    bc32:	8b 05 ec 13 01 00    	mov    0x113ec(%rip),%eax        # 1d024 <g_5>
    bc38:	89 c2                	mov    %eax,%edx
    bc3a:	b8 c7 fb ff ff       	mov    $0xfffffbc7,%eax
    bc3f:	98                   	cwtl   
    bc40:	8b 8d a0 f3 ff ff    	mov    -0xc60(%rbp),%ecx
    bc46:	89 ce                	mov    %ecx,%esi
    bc48:	89 c7                	mov    %eax,%edi
    bc4a:	e8 8f 10 00 00       	callq  ccde <func_7>
    bc4f:	0f b7 c0             	movzwl %ax,%eax
    bc52:	48 31 c3             	xor    %rax,%rbx
    bc55:	48 89 da             	mov    %rbx,%rdx
    bc58:	48 8b 05 c1 5b 01 00 	mov    0x15bc1(%rip),%rax        # 21820 <g_3553>
    bc5f:	48 8b 00             	mov    (%rax),%rax
    bc62:	48 8b 00             	mov    (%rax),%rax
    bc65:	48 8b 00             	mov    (%rax),%rax
    bc68:	8b 00                	mov    (%rax),%eax
    bc6a:	83 f8 01             	cmp    $0x1,%eax
    bc6d:	0f 94 c0             	sete   %al
    bc70:	0f b6 c0             	movzbl %al,%eax
    bc73:	48 39 c2             	cmp    %rax,%rdx
    bc76:	0f 92 c2             	setb   %dl
    bc79:	48 8b 05 68 44 01 00 	mov    0x14468(%rip),%rax        # 200e8 <g_882>
    bc80:	0f b6 d2             	movzbl %dl,%edx
    bc83:	89 10                	mov    %edx,(%rax)
    bc85:	c6 05 9c 19 01 00 11 	movb   $0x11,0x1199c(%rip)        # 1d628 <g_1791>
    bc8c:	e9 bb 0f 00 00       	jmpq   cc4c <func_1+0x1497>
    bc91:	48 8d 05 50 15 01 00 	lea    0x11550(%rip),%rax        # 1d1e8 <g_1255>
    bc98:	48 89 85 d0 f3 ff ff 	mov    %rax,-0xc30(%rbp)
    bc9f:	c7 85 84 f3 ff ff ff 	movl   $0xffffffff,-0xc7c(%rbp)
    bca6:	ff ff ff 
    bca9:	c7 85 94 f3 ff ff 00 	movl   $0x0,-0xc6c(%rbp)
    bcb0:	00 00 00 
    bcb3:	eb 1a                	jmp    bccf <func_1+0x51a>
    bcb5:	8b 85 94 f3 ff ff    	mov    -0xc6c(%rbp),%eax
    bcbb:	48 98                	cltq   
    bcbd:	c7 84 85 20 f4 ff ff 	movl   $0x2f001c6b,-0xbe0(%rbp,%rax,4)
    bcc4:	6b 1c 00 2f 
    bcc8:	83 85 94 f3 ff ff 01 	addl   $0x1,-0xc6c(%rbp)
    bccf:	83 bd 94 f3 ff ff 05 	cmpl   $0x5,-0xc6c(%rbp)
    bcd6:	7e dd                	jle    bcb5 <func_1+0x500>
    bcd8:	48 8b 05 b1 4f 01 00 	mov    0x14fb1(%rip),%rax        # 20c90 <g_2124>
    bcdf:	48 8b 05 82 41 01 00 	mov    0x14182(%rip),%rax        # 1fe68 <g_152>
    bce6:	0f b7 00             	movzwl (%rax),%eax
    bce9:	0f b7 d8             	movzwl %ax,%ebx
    bcec:	48 8b 05 15 5a 01 00 	mov    0x15a15(%rip),%rax        # 21708 <g_2839>
    bcf3:	48 8b 00             	mov    (%rax),%rax
    bcf6:	48 85 c0             	test   %rax,%rax
    bcf9:	75 5d                	jne    bd58 <func_1+0x5a3>
    bcfb:	8b 85 2c f4 ff ff    	mov    -0xbd4(%rbp),%eax
    bd01:	0f be d0             	movsbl %al,%edx
    bd04:	8b 85 2c f4 ff ff    	mov    -0xbd4(%rbp),%eax
    bd0a:	89 c1                	mov    %eax,%ecx
    bd0c:	8b 85 34 f4 ff ff    	mov    -0xbcc(%rbp),%eax
    bd12:	21 c8                	and    %ecx,%eax
    bd14:	0f be c0             	movsbl %al,%eax
    bd17:	89 d6                	mov    %edx,%esi
    bd19:	89 c7                	mov    %eax,%edi
    bd1b:	e8 d2 e4 ff ff       	callq  a1f2 <safe_sub_func_int8_t_s_s>
    bd20:	0f be c0             	movsbl %al,%eax
    bd23:	89 85 80 f3 ff ff    	mov    %eax,-0xc80(%rbp)
    bd29:	8b 85 80 f3 ff ff    	mov    -0xc80(%rbp),%eax
    bd2f:	89 c2                	mov    %eax,%edx
    bd31:	48 8b 85 d0 f3 ff ff 	mov    -0xc30(%rbp),%rax
    bd38:	66 89 10             	mov    %dx,(%rax)
    bd3b:	48 8b 05 d6 5a 01 00 	mov    0x15ad6(%rip),%rax        # 21818 <g_3554>
    bd42:	48 8b 00             	mov    (%rax),%rax
    bd45:	48 8b 00             	mov    (%rax),%rax
    bd48:	8b 00                	mov    (%rax),%eax
    bd4a:	89 c0                	mov    %eax,%eax
    bd4c:	48 0b 85 c8 f3 ff ff 	or     -0xc38(%rbp),%rax
    bd53:	48 85 c0             	test   %rax,%rax
    bd56:	74 07                	je     bd5f <func_1+0x5aa>
    bd58:	b8 01 00 00 00       	mov    $0x1,%eax
    bd5d:	eb 05                	jmp    bd64 <func_1+0x5af>
    bd5f:	b8 00 00 00 00       	mov    $0x0,%eax
    bd64:	0f be c0             	movsbl %al,%eax
    bd67:	be 08 00 00 00       	mov    $0x8,%esi
    bd6c:	89 c7                	mov    %eax,%edi
    bd6e:	e8 9f e4 ff ff       	callq  a212 <safe_mul_func_int8_t_s_s>
    bd73:	0f be c0             	movsbl %al,%eax
    bd76:	39 85 a0 f3 ff ff    	cmp    %eax,-0xc60(%rbp)
    bd7c:	0f 93 c0             	setae  %al
    bd7f:	0f b6 c0             	movzbl %al,%eax
    bd82:	be 00 00 00 00       	mov    $0x0,%esi
    bd87:	89 c7                	mov    %eax,%edi
    bd89:	e8 ea ed ff ff       	callq  ab78 <safe_sub_func_uint8_t_u_u>
    bd8e:	84 c0                	test   %al,%al
    bd90:	75 1b                	jne    bdad <func_1+0x5f8>
    bd92:	48 8b 85 18 f4 ff ff 	mov    -0xbe8(%rbp),%rax
    bd99:	48 85 c0             	test   %rax,%rax
    bd9c:	75 0f                	jne    bdad <func_1+0x5f8>
    bd9e:	48 8b 05 4b 43 01 00 	mov    0x1434b(%rip),%rax        # 200f0 <g_984>
    bda5:	0f b7 00             	movzwl (%rax),%eax
    bda8:	66 85 c0             	test   %ax,%ax
    bdab:	74 07                	je     bdb4 <func_1+0x5ff>
    bdad:	ba 01 00 00 00       	mov    $0x1,%edx
    bdb2:	eb 05                	jmp    bdb9 <func_1+0x604>
    bdb4:	ba 00 00 00 00       	mov    $0x0,%edx
    bdb9:	8b 85 84 f3 ff ff    	mov    -0xc7c(%rbp),%eax
    bdbf:	31 d0                	xor    %edx,%eax
    bdc1:	89 85 84 f3 ff ff    	mov    %eax,-0xc7c(%rbp)
    bdc7:	8b 85 84 f3 ff ff    	mov    -0xc7c(%rbp),%eax
    bdcd:	89 c2                	mov    %eax,%edx
    bdcf:	48 8b 05 92 40 01 00 	mov    0x14092(%rip),%rax        # 1fe68 <g_152>
    bdd6:	0f b7 00             	movzwl (%rax),%eax
    bdd9:	0f b7 c0             	movzwl %ax,%eax
    bddc:	89 d6                	mov    %edx,%esi
    bdde:	89 c7                	mov    %eax,%edi
    bde0:	e8 21 f0 ff ff       	callq  ae06 <safe_lshift_func_uint16_t_u_u>
    bde5:	89 c2                	mov    %eax,%edx
    bde7:	48 8b 05 b2 43 01 00 	mov    0x143b2(%rip),%rax        # 201a0 <g_1323>
    bdee:	48 8b 00             	mov    (%rax),%rax
    bdf1:	8b 00                	mov    (%rax),%eax
    bdf3:	21 d0                	and    %edx,%eax
    bdf5:	0f be c0             	movsbl %al,%eax
    bdf8:	be 06 00 00 00       	mov    $0x6,%esi
    bdfd:	89 c7                	mov    %eax,%edi
    bdff:	e8 66 e4 ff ff       	callq  a26a <safe_div_func_int8_t_s_s>
    be04:	0f be d0             	movsbl %al,%edx
    be07:	0f b6 45 c7          	movzbl -0x39(%rbp),%eax
    be0b:	0f b6 c0             	movzbl %al,%eax
    be0e:	39 c2                	cmp    %eax,%edx
    be10:	0f 9d c0             	setge  %al
    be13:	0f b6 c0             	movzbl %al,%eax
    be16:	89 de                	mov    %ebx,%esi
    be18:	89 c7                	mov    %eax,%edi
    be1a:	e8 c2 e6 ff ff       	callq  a4e1 <safe_lshift_func_int16_t_s_u>
    be1f:	66 85 c0             	test   %ax,%ax
    be22:	74 07                	je     be2b <func_1+0x676>
    be24:	b8 01 00 00 00       	mov    $0x1,%eax
    be29:	eb 05                	jmp    be30 <func_1+0x67b>
    be2b:	b8 00 00 00 00       	mov    $0x0,%eax
    be30:	0f bf d0             	movswl %ax,%edx
    be33:	48 8b 05 b6 42 01 00 	mov    0x142b6(%rip),%rax        # 200f0 <g_984>
    be3a:	0f b7 00             	movzwl (%rax),%eax
    be3d:	98                   	cwtl   
    be3e:	89 d6                	mov    %edx,%esi
    be40:	89 c7                	mov    %eax,%edi
    be42:	e8 ae e5 ff ff       	callq  a3f5 <safe_mul_func_int16_t_s_s>
    be47:	0f bf d0             	movswl %ax,%edx
    be4a:	48 8b 05 17 40 01 00 	mov    0x14017(%rip),%rax        # 1fe68 <g_152>
    be51:	0f b7 00             	movzwl (%rax),%eax
    be54:	0f b7 c0             	movzwl %ax,%eax
    be57:	39 c2                	cmp    %eax,%edx
    be59:	0f 9f c0             	setg   %al
    be5c:	0f b6 c0             	movzbl %al,%eax
    be5f:	be 0d 00 00 00       	mov    $0xd,%esi
    be64:	89 c7                	mov    %eax,%edi
    be66:	e8 27 e6 ff ff       	callq  a492 <safe_lshift_func_int16_t_s_s>
    be6b:	98                   	cwtl   
    be6c:	be 93 dc ff ff       	mov    $0xffffdc93,%esi
    be71:	89 c7                	mov    %eax,%edi
    be73:	e8 dd e5 ff ff       	callq  a455 <safe_div_func_int16_t_s_s>
    be78:	66 85 c0             	test   %ax,%ax
    be7b:	0f 84 87 0d 00 00    	je     cc08 <func_1+0x1453>
    be81:	c6 85 7a f3 ff ff ff 	movb   $0xff,-0xc86(%rbp)
    be88:	c6 85 7b f3 ff ff 20 	movb   $0x20,-0xc85(%rbp)
    be8f:	c7 85 a4 f3 ff ff 00 	movl   $0x0,-0xc5c(%rbp)
    be96:	00 00 00 
    be99:	0f b6 45 c7          	movzbl -0x39(%rbp),%eax
    be9d:	84 c0                	test   %al,%al
    be9f:	0f 84 2a 05 00 00    	je     c3cf <func_1+0xc1a>
    bea5:	66 c7 85 20 f5 ff ff 	movw   $0xffff,-0xae0(%rbp)
    beac:	ff ff 
    beae:	66 c7 85 22 f5 ff ff 	movw   $0xffff,-0xade(%rbp)
    beb5:	ff ff 
    beb7:	66 c7 85 24 f5 ff ff 	movw   $0xfff6,-0xadc(%rbp)
    bebe:	f6 ff 
    bec0:	66 c7 85 26 f5 ff ff 	movw   $0xec03,-0xada(%rbp)
    bec7:	03 ec 
    bec9:	66 c7 85 28 f5 ff ff 	movw   $0x7c25,-0xad8(%rbp)
    bed0:	25 7c 
    bed2:	66 c7 85 2a f5 ff ff 	movw   $0xec03,-0xad6(%rbp)
    bed9:	03 ec 
    bedb:	66 c7 85 2c f5 ff ff 	movw   $0xffff,-0xad4(%rbp)
    bee2:	ff ff 
    bee4:	66 c7 85 2e f5 ff ff 	movw   $0xfff6,-0xad2(%rbp)
    beeb:	f6 ff 
    beed:	66 c7 85 30 f5 ff ff 	movw   $0xfff6,-0xad0(%rbp)
    bef4:	f6 ff 
    bef6:	66 c7 85 32 f5 ff ff 	movw   $0xfff9,-0xace(%rbp)
    befd:	f9 ff 
    beff:	66 c7 85 34 f5 ff ff 	movw   $0x7c25,-0xacc(%rbp)
    bf06:	25 7c 
    bf08:	66 c7 85 36 f5 ff ff 	movw   $0xfff9,-0xaca(%rbp)
    bf0f:	f9 ff 
    bf11:	66 c7 85 38 f5 ff ff 	movw   $0xffff,-0xac8(%rbp)
    bf18:	ff ff 
    bf1a:	66 c7 85 3a f5 ff ff 	movw   $0xffff,-0xac6(%rbp)
    bf21:	ff ff 
    bf23:	66 c7 85 3c f5 ff ff 	movw   $0xfff6,-0xac4(%rbp)
    bf2a:	f6 ff 
    bf2c:	66 c7 85 3e f5 ff ff 	movw   $0xec03,-0xac2(%rbp)
    bf33:	03 ec 
    bf35:	66 c7 85 40 f5 ff ff 	movw   $0x7c25,-0xac0(%rbp)
    bf3c:	25 7c 
    bf3e:	66 c7 85 42 f5 ff ff 	movw   $0xec03,-0xabe(%rbp)
    bf45:	03 ec 
    bf47:	66 c7 85 44 f5 ff ff 	movw   $0xffff,-0xabc(%rbp)
    bf4e:	ff ff 
    bf50:	66 c7 85 46 f5 ff ff 	movw   $0xfff6,-0xaba(%rbp)
    bf57:	f6 ff 
    bf59:	66 c7 85 48 f5 ff ff 	movw   $0xfff6,-0xab8(%rbp)
    bf60:	f6 ff 
    bf62:	66 c7 85 4a f5 ff ff 	movw   $0xfff9,-0xab6(%rbp)
    bf69:	f9 ff 
    bf6b:	66 c7 85 4c f5 ff ff 	movw   $0x7c25,-0xab4(%rbp)
    bf72:	25 7c 
    bf74:	66 c7 85 4e f5 ff ff 	movw   $0xfff9,-0xab2(%rbp)
    bf7b:	f9 ff 
    bf7d:	c7 85 98 f3 ff ff 00 	movl   $0x0,-0xc68(%rbp)
    bf84:	00 00 00 
    bf87:	eb 1a                	jmp    bfa3 <func_1+0x7ee>
    bf89:	8b 85 98 f3 ff ff    	mov    -0xc68(%rbp),%eax
    bf8f:	48 98                	cltq   
    bf91:	c7 84 85 0c f4 ff ff 	movl   $0x0,-0xbf4(%rbp,%rax,4)
    bf98:	00 00 00 00 
    bf9c:	83 85 98 f3 ff ff 01 	addl   $0x1,-0xc68(%rbp)
    bfa3:	83 bd 98 f3 ff ff 00 	cmpl   $0x0,-0xc68(%rbp)
    bfaa:	7e dd                	jle    bf89 <func_1+0x7d4>
    bfac:	c7 85 84 f3 ff ff 04 	movl   $0x4,-0xc7c(%rbp)
    bfb3:	00 00 00 
    bfb6:	90                   	nop
    bfb7:	8b 85 84 f3 ff ff    	mov    -0xc7c(%rbp),%eax
    bfbd:	85 c0                	test   %eax,%eax
    bfbf:	7e 43                	jle    c004 <func_1+0x84f>
    bfc1:	66 c7 05 6a 16 01 00 	movw   $0x1,0x1166a(%rip)        # 1d634 <g_1849>
    bfc8:	01 00 
    bfca:	eb 1b                	jmp    bfe7 <func_1+0x832>
    bfcc:	8b 85 0c f4 ff ff    	mov    -0xbf4(%rbp),%eax
    bfd2:	85 c0                	test   %eax,%eax
    bfd4:	75 1f                	jne    bff5 <func_1+0x840>
    bfd6:	0f b7 05 57 16 01 00 	movzwl 0x11657(%rip),%eax        # 1d634 <g_1849>
    bfdd:	83 e8 01             	sub    $0x1,%eax
    bfe0:	66 89 05 4d 16 01 00 	mov    %ax,0x1164d(%rip)        # 1d634 <g_1849>
    bfe7:	0f b7 05 46 16 01 00 	movzwl 0x11646(%rip),%eax        # 1d634 <g_1849>
    bfee:	66 85 c0             	test   %ax,%ax
    bff1:	79 d9                	jns    bfcc <func_1+0x817>
    bff3:	eb 01                	jmp    bff6 <func_1+0x841>
    bff5:	90                   	nop
    bff6:	48 8b 05 63 3e 01 00 	mov    0x13e63(%rip),%rax        # 1fe60 <g_66>
    bffd:	8b 00                	mov    (%rax),%eax
    bfff:	e9 b4 0c 00 00       	jmpq   ccb8 <func_1+0x1503>
    c004:	8b 85 30 f4 ff ff    	mov    -0xbd0(%rbp),%eax
    c00a:	85 c0                	test   %eax,%eax
    c00c:	0f 85 49 0c 00 00    	jne    cc5b <func_1+0x14a6>
    c012:	c7 05 c0 16 01 00 01 	movl   $0x1,0x116c0(%rip)        # 1d6dc <g_2794>
    c019:	00 00 00 
    c01c:	e9 9a 03 00 00       	jmpq   c3bb <func_1+0xc06>
    c021:	48 8d 05 c8 40 01 00 	lea    0x140c8(%rip),%rax        # 200f0 <g_984>
    c028:	48 89 85 f8 f3 ff ff 	mov    %rax,-0xc08(%rbp)
    c02f:	48 8d 85 b0 f3 ff ff 	lea    -0xc50(%rbp),%rax
    c036:	48 89 85 00 f4 ff ff 	mov    %rax,-0xc00(%rbp)
    c03d:	c7 85 a8 f3 ff ff a0 	movl   $0x4bc688a0,-0xc58(%rbp)
    c044:	88 c6 4b 
    c047:	c6 85 7d f3 ff ff d1 	movb   $0xd1,-0xc83(%rbp)
    c04e:	c7 85 ac f3 ff ff b3 	movl   $0x89ee98b3,-0xc54(%rbp)
    c055:	98 ee 89 
    c058:	48 8b 85 f8 f3 ff ff 	mov    -0xc08(%rbp),%rax
    c05f:	48 8d 15 e8 10 01 00 	lea    0x110e8(%rip),%rdx        # 1d14e <g_399>
    c066:	48 89 10             	mov    %rdx,(%rax)
    c069:	48 8b 85 f8 f3 ff ff 	mov    -0xc08(%rbp),%rax
    c070:	48 8b 08             	mov    (%rax),%rcx
    c073:	48 8b 95 b0 f3 ff ff 	mov    -0xc50(%rbp),%rdx
    c07a:	48 8b 85 00 f4 ff ff 	mov    -0xc00(%rbp),%rax
    c081:	48 89 10             	mov    %rdx,(%rax)
    c084:	48 8b 85 00 f4 ff ff 	mov    -0xc00(%rbp),%rax
    c08b:	48 8b 00             	mov    (%rax),%rax
    c08e:	48 39 c1             	cmp    %rax,%rcx
    c091:	0f 94 c2             	sete   %dl
    c094:	48 8b 05 d5 3d 01 00 	mov    0x13dd5(%rip),%rax        # 1fe70 <g_166>
    c09b:	0f b6 d2             	movzbl %dl,%edx
    c09e:	89 10                	mov    %edx,(%rax)
    c0a0:	c6 05 09 16 01 00 00 	movb   $0x0,0x11609(%rip)        # 1d6b0 <g_2696>
    c0a7:	e9 ee 02 00 00       	jmpq   c39a <func_1+0xbe5>
    c0ac:	c7 85 9c f3 ff ff 00 	movl   $0x0,-0xc64(%rbp)
    c0b3:	00 00 00 
    c0b6:	eb 1e                	jmp    c0d6 <func_1+0x921>
    c0b8:	8b 85 9c f3 ff ff    	mov    -0xc64(%rbp),%eax
    c0be:	48 98                	cltq   
    c0c0:	48 8d 95 84 f3 ff ff 	lea    -0xc7c(%rbp),%rdx
    c0c7:	48 89 94 c5 40 f4 ff 	mov    %rdx,-0xbc0(%rbp,%rax,8)
    c0ce:	ff 
    c0cf:	83 85 9c f3 ff ff 01 	addl   $0x1,-0xc64(%rbp)
    c0d6:	83 bd 9c f3 ff ff 04 	cmpl   $0x4,-0xc64(%rbp)
    c0dd:	7e d9                	jle    c0b8 <func_1+0x903>
    c0df:	8b 85 a8 f3 ff ff    	mov    -0xc58(%rbp),%eax
    c0e5:	0f b6 d8             	movzbl %al,%ebx
    c0e8:	44 0f b6 a5 7a f3 ff 	movzbl -0xc86(%rbp),%r12d
    c0ef:	ff 
    c0f0:	0f b6 05 b9 15 01 00 	movzbl 0x115b9(%rip),%eax        # 1d6b0 <g_2696>
    c0f7:	0f be c0             	movsbl %al,%eax
    c0fa:	83 c0 01             	add    $0x1,%eax
    c0fd:	48 98                	cltq   
    c0ff:	48 8d 14 85 00 00 00 	lea    0x0(,%rax,4),%rdx
    c106:	00 
    c107:	48 8d 05 82 10 01 00 	lea    0x11082(%rip),%rax        # 1d190 <g_860>
    c10e:	8b 04 02             	mov    (%rdx,%rax,1),%eax
    c111:	0f b6 c8             	movzbl %al,%ecx
    c114:	48 8b 05 bd 3d 01 00 	mov    0x13dbd(%rip),%rax        # 1fed8 <g_533>
    c11b:	0f b6 10             	movzbl (%rax),%edx
    c11e:	8d 72 ff             	lea    -0x1(%rdx),%esi
    c121:	40 88 30             	mov    %sil,(%rax)
    c124:	0f b6 c2             	movzbl %dl,%eax
    c127:	89 ce                	mov    %ecx,%esi
    c129:	89 c7                	mov    %eax,%edi
    c12b:	e8 2a ea ff ff       	callq  ab5a <safe_add_func_uint8_t_u_u>
    c130:	3c 9c                	cmp    $0x9c,%al
    c132:	0f 96 c0             	setbe  %al
    c135:	44 0f b6 f8          	movzbl %al,%r15d
    c139:	0f b6 95 7a f3 ff ff 	movzbl -0xc86(%rbp),%edx
    c140:	8b 85 0c f4 ff ff    	mov    -0xbf4(%rbp),%eax
    c146:	39 c2                	cmp    %eax,%edx
    c148:	0f 94 c0             	sete   %al
    c14b:	0f b6 c0             	movzbl %al,%eax
    c14e:	89 85 6c f3 ff ff    	mov    %eax,-0xc94(%rbp)
    c154:	8b 85 0c f4 ff ff    	mov    -0xbf4(%rbp),%eax
    c15a:	44 0f be e8          	movsbl %al,%r13d
    c15e:	0f b6 05 4b 15 01 00 	movzbl 0x1154b(%rip),%eax        # 1d6b0 <g_2696>
    c165:	0f be c0             	movsbl %al,%eax
    c168:	83 c0 01             	add    $0x1,%eax
    c16b:	48 98                	cltq   
    c16d:	48 8d 14 85 00 00 00 	lea    0x0(,%rax,4),%rdx
    c174:	00 
    c175:	48 8d 05 14 10 01 00 	lea    0x11014(%rip),%rax        # 1d190 <g_860>
    c17c:	8b 04 02             	mov    (%rdx,%rax,1),%eax
    c17f:	4c 63 f0             	movslq %eax,%r14
    c182:	48 8b 05 07 40 01 00 	mov    0x14007(%rip),%rax        # 20190 <g_1100>
    c189:	48 8b 00             	mov    (%rax),%rax
    c18c:	8b 00                	mov    (%rax),%eax
    c18e:	89 c6                	mov    %eax,%esi
    c190:	bf 00 00 00 00       	mov    $0x0,%edi
    c195:	e8 65 e5 ff ff       	callq  a6ff <safe_div_func_int32_t_s_s>
    c19a:	48 98                	cltq   
    c19c:	4c 89 f6             	mov    %r14,%rsi
    c19f:	48 89 c7             	mov    %rax,%rdi
    c1a2:	e8 87 ee ff ff       	callq  b02e <safe_add_func_uint64_t_u_u>
    c1a7:	f7 d0                	not    %eax
    c1a9:	0f b7 c0             	movzwl %ax,%eax
    c1ac:	89 c6                	mov    %eax,%esi
    c1ae:	bf 00 00 00 00       	mov    $0x0,%edi
    c1b3:	e8 67 eb ff ff       	callq  ad1f <safe_sub_func_uint16_t_u_u>
    c1b8:	44 89 ee             	mov    %r13d,%esi
    c1bb:	bf 01 00 00 00       	mov    $0x1,%edi
    c1c0:	e8 2d e0 ff ff       	callq  a1f2 <safe_sub_func_int8_t_s_s>
    c1c5:	0f be c0             	movsbl %al,%eax
    c1c8:	39 85 6c f3 ff ff    	cmp    %eax,-0xc94(%rbp)
    c1ce:	0f b6 05 db 14 01 00 	movzbl 0x114db(%rip),%eax        # 1d6b0 <g_2696>
    c1d5:	0f be c0             	movsbl %al,%eax
    c1d8:	83 c0 01             	add    $0x1,%eax
    c1db:	48 98                	cltq   
    c1dd:	48 8d 14 85 00 00 00 	lea    0x0(,%rax,4),%rdx
    c1e4:	00 
    c1e5:	48 8d 05 a4 0f 01 00 	lea    0x10fa4(%rip),%rax        # 1d190 <g_860>
    c1ec:	8b 04 02             	mov    (%rdx,%rax,1),%eax
    c1ef:	83 f8 02             	cmp    $0x2,%eax
    c1f2:	0f 9f c0             	setg   %al
    c1f5:	88 85 7d f3 ff ff    	mov    %al,-0xc83(%rbp)
    c1fb:	0f be 85 7d f3 ff ff 	movsbl -0xc83(%rbp),%eax
    c202:	41 39 c7             	cmp    %eax,%r15d
    c205:	0f 94 c0             	sete   %al
    c208:	0f b6 c0             	movzbl %al,%eax
    c20b:	4c 89 e6             	mov    %r12,%rsi
    c20e:	48 89 c7             	mov    %rax,%rdi
    c211:	e8 92 e6 ff ff       	callq  a8a8 <safe_sub_func_int64_t_s_s>
    c216:	48 89 c1             	mov    %rax,%rcx
    c219:	48 8d 85 20 f4 ff ff 	lea    -0xbe0(%rbp),%rax
    c220:	48 83 c0 10          	add    $0x10,%rax
    c224:	48 89 c2             	mov    %rax,%rdx
    c227:	89 de                	mov    %ebx,%esi
    c229:	48 89 cf             	mov    %rcx,%rdi
    c22c:	e8 a6 73 00 00       	callq  135d7 <func_45>
    c231:	48 89 c2             	mov    %rax,%rdx
    c234:	48 8b 1d 6d 40 01 00 	mov    0x1406d(%rip),%rbx        # 202a8 <g_1441>
    c23b:	48 8d 85 20 f4 ff ff 	lea    -0xbe0(%rbp),%rax
    c242:	48 83 c0 10          	add    $0x10,%rax
    c246:	48 89 c6             	mov    %rax,%rsi
    c249:	48 89 d7             	mov    %rdx,%rdi
    c24c:	e8 41 58 00 00       	callq  11a92 <func_31>
    c251:	48 89 03             	mov    %rax,(%rbx)
    c254:	0f b7 85 4c f5 ff ff 	movzwl -0xab4(%rbp),%eax
    c25b:	83 e8 01             	sub    $0x1,%eax
    c25e:	66 89 85 4c f5 ff ff 	mov    %ax,-0xab4(%rbp)
    c265:	83 bd a0 f3 ff ff 00 	cmpl   $0x0,-0xc60(%rbp)
    c26c:	0f 85 39 01 00 00    	jne    c3ab <func_1+0xbf6>
    c272:	44 0f b6 ad 7b f3 ff 	movzbl -0xc85(%rbp),%r13d
    c279:	ff 
    c27a:	0f be 9d 79 f3 ff ff 	movsbl -0xc87(%rbp),%ebx
    c281:	48 8b 05 68 3e 01 00 	mov    0x13e68(%rip),%rax        # 200f0 <g_984>
    c288:	0f b7 00             	movzwl (%rax),%eax
    c28b:	0f bf d0             	movswl %ax,%edx
    c28e:	48 8b 05 d3 3b 01 00 	mov    0x13bd3(%rip),%rax        # 1fe68 <g_152>
    c295:	0f b7 00             	movzwl (%rax),%eax
    c298:	0f b7 c0             	movzwl %ax,%eax
    c29b:	39 c2                	cmp    %eax,%edx
    c29d:	0f 95 c0             	setne  %al
    c2a0:	0f b6 c8             	movzbl %al,%ecx
    c2a3:	48 8b 05 5e 48 01 00 	mov    0x1485e(%rip),%rax        # 20b08 <g_1917>
    c2aa:	48 8b 10             	mov    (%rax),%rdx
    c2ad:	48 8b 05 f4 3e 01 00 	mov    0x13ef4(%rip),%rax        # 201a8 <g_1327>
    c2b4:	48 8b 12             	mov    (%rdx),%rdx
    c2b7:	48 89 10             	mov    %rdx,(%rax)
    c2ba:	48 8b 00             	mov    (%rax),%rax
    c2bd:	48 39 c1             	cmp    %rax,%rcx
    c2c0:	0f 9e c0             	setle  %al
    c2c3:	0f b6 c0             	movzbl %al,%eax
    c2c6:	89 c7                	mov    %eax,%edi
    c2c8:	e8 f2 de ff ff       	callq  a1bf <safe_unary_minus_func_int8_t_s>
    c2cd:	48 8b 05 1c 3e 01 00 	mov    0x13e1c(%rip),%rax        # 200f0 <g_984>
    c2d4:	0f b7 00             	movzwl (%rax),%eax
    c2d7:	44 0f b7 e0          	movzwl %ax,%r12d
    c2db:	8b 85 28 f4 ff ff    	mov    -0xbd8(%rbp),%eax
    c2e1:	0f b7 d0             	movzwl %ax,%edx
    c2e4:	0f b6 85 7a f3 ff ff 	movzbl -0xc86(%rbp),%eax
    c2eb:	89 d6                	mov    %edx,%esi
    c2ed:	89 c7                	mov    %eax,%edi
    c2ef:	e8 49 ea ff ff       	callq  ad3d <safe_mul_func_uint16_t_u_u>
    c2f4:	0f b7 d0             	movzwl %ax,%edx
    c2f7:	0f b7 85 7e f3 ff ff 	movzwl -0xc82(%rbp),%eax
    c2fe:	48 89 d6             	mov    %rdx,%rsi
    c301:	48 89 c7             	mov    %rax,%rdi
    c304:	e8 77 ed ff ff       	callq  b080 <safe_mod_func_uint64_t_u_u>
    c309:	0f b7 95 2c f5 ff ff 	movzwl -0xad4(%rbp),%edx
    c310:	0f b7 d2             	movzwl %dx,%edx
    c313:	48 39 d0             	cmp    %rdx,%rax
    c316:	0f 93 c0             	setae  %al
    c319:	0f b6 c0             	movzbl %al,%eax
    c31c:	44 89 e6             	mov    %r12d,%esi
    c31f:	89 c7                	mov    %eax,%edi
    c321:	e8 68 ea ff ff       	callq  ad8e <safe_div_func_uint16_t_u_u>
    c326:	0f b7 c0             	movzwl %ax,%eax
    c329:	48 ba b4 ce c5 91 60 	movabs $0x8e1f2b6091c5ceb4,%rdx
    c330:	2b 1f 8e 
    c333:	48 09 c2             	or     %rax,%rdx
    c336:	48 0f be 85 7d f3 ff 	movsbq -0xc83(%rbp),%rax
    c33d:	ff 
    c33e:	48 39 c2             	cmp    %rax,%rdx
    c341:	76 0c                	jbe    c34f <func_1+0xb9a>
    c343:	0f b7 85 4c f5 ff ff 	movzwl -0xab4(%rbp),%eax
    c34a:	66 85 c0             	test   %ax,%ax
    c34d:	74 07                	je     c356 <func_1+0xba1>
    c34f:	b8 01 00 00 00       	mov    $0x1,%eax
    c354:	eb 05                	jmp    c35b <func_1+0xba6>
    c356:	b8 00 00 00 00       	mov    $0x0,%eax
    c35b:	89 de                	mov    %ebx,%esi
    c35d:	89 c7                	mov    %eax,%edi
    c35f:	e8 c1 eb ff ff       	callq  af25 <safe_div_func_uint32_t_u_u>
    c364:	41 39 c5             	cmp    %eax,%r13d
    c367:	48 83 bd d0 f3 ff ff 	cmpq   $0x0,-0xc30(%rbp)
    c36e:	00 
    c36f:	0f 95 c0             	setne  %al
    c372:	0f b6 c8             	movzbl %al,%ecx
    c375:	0f b7 85 36 f5 ff ff 	movzwl -0xaca(%rbp),%eax
    c37c:	0f b7 d0             	movzwl %ax,%edx
    c37f:	48 8b 05 ea 3a 01 00 	mov    0x13aea(%rip),%rax        # 1fe70 <g_166>
    c386:	31 ca                	xor    %ecx,%edx
    c388:	89 10                	mov    %edx,(%rax)
    c38a:	0f b6 05 1f 13 01 00 	movzbl 0x1131f(%rip),%eax        # 1d6b0 <g_2696>
    c391:	83 c0 01             	add    $0x1,%eax
    c394:	88 05 16 13 01 00    	mov    %al,0x11316(%rip)        # 1d6b0 <g_2696>
    c39a:	0f b6 05 0f 13 01 00 	movzbl 0x1130f(%rip),%eax        # 1d6b0 <g_2696>
    c3a1:	3c 04                	cmp    $0x4,%al
    c3a3:	0f 8e 03 fd ff ff    	jle    c0ac <func_1+0x8f7>
    c3a9:	eb 01                	jmp    c3ac <func_1+0xbf7>
    c3ab:	90                   	nop
    c3ac:	8b 05 2a 13 01 00    	mov    0x1132a(%rip),%eax        # 1d6dc <g_2794>
    c3b2:	83 c0 01             	add    $0x1,%eax
    c3b5:	89 05 21 13 01 00    	mov    %eax,0x11321(%rip)        # 1d6dc <g_2794>
    c3bb:	8b 05 1b 13 01 00    	mov    0x1131b(%rip),%eax        # 1d6dc <g_2794>
    c3c1:	83 f8 04             	cmp    $0x4,%eax
    c3c4:	0f 86 57 fc ff ff    	jbe    c021 <func_1+0x86c>
    c3ca:	e9 2a 08 00 00       	jmpq   cbf9 <func_1+0x1444>
    c3cf:	48 c7 85 e0 f3 ff ff 	movq   $0x0,-0xc20(%rbp)
    c3d6:	00 00 00 00 
    c3da:	48 8d 05 f7 11 01 00 	lea    0x111f7(%rip),%rax        # 1d5d8 <g_1515>
    c3e1:	48 89 85 20 f5 ff ff 	mov    %rax,-0xae0(%rbp)
    c3e8:	48 8d 85 84 f3 ff ff 	lea    -0xc7c(%rbp),%rax
    c3ef:	48 89 85 28 f5 ff ff 	mov    %rax,-0xad8(%rbp)
    c3f6:	48 8d 05 5f 12 01 00 	lea    0x1125f(%rip),%rax        # 1d65c <g_2177>
    c3fd:	48 89 85 30 f5 ff ff 	mov    %rax,-0xad0(%rbp)
    c404:	48 8d 05 cd 11 01 00 	lea    0x111cd(%rip),%rax        # 1d5d8 <g_1515>
    c40b:	48 89 85 38 f5 ff ff 	mov    %rax,-0xac8(%rbp)
    c412:	48 8d 05 43 12 01 00 	lea    0x11243(%rip),%rax        # 1d65c <g_2177>
    c419:	48 89 85 40 f5 ff ff 	mov    %rax,-0xac0(%rbp)
    c420:	48 8d 85 80 f3 ff ff 	lea    -0xc80(%rbp),%rax
    c427:	48 89 85 48 f5 ff ff 	mov    %rax,-0xab8(%rbp)
    c42e:	48 8d 85 84 f3 ff ff 	lea    -0xc7c(%rbp),%rax
    c435:	48 89 85 50 f5 ff ff 	mov    %rax,-0xab0(%rbp)
    c43c:	48 8d 85 84 f3 ff ff 	lea    -0xc7c(%rbp),%rax
    c443:	48 89 85 58 f5 ff ff 	mov    %rax,-0xaa8(%rbp)
    c44a:	48 c7 85 60 f5 ff ff 	movq   $0x0,-0xaa0(%rbp)
    c451:	00 00 00 00 
    c455:	48 8d 05 30 0c 01 00 	lea    0x10c30(%rip),%rax        # 1d08c <g_85>
    c45c:	48 89 85 68 f5 ff ff 	mov    %rax,-0xa98(%rbp)
    c463:	48 8d 05 36 14 01 00 	lea    0x11436(%rip),%rax        # 1d8a0 <g_3841>
    c46a:	48 89 85 70 f5 ff ff 	mov    %rax,-0xa90(%rbp)
    c471:	48 8d 05 e4 11 01 00 	lea    0x111e4(%rip),%rax        # 1d65c <g_2177>
    c478:	48 89 85 78 f5 ff ff 	mov    %rax,-0xa88(%rbp)
    c47f:	48 8d 05 52 11 01 00 	lea    0x11152(%rip),%rax        # 1d5d8 <g_1515>
    c486:	48 89 85 80 f5 ff ff 	mov    %rax,-0xa80(%rbp)
    c48d:	48 c7 85 88 f5 ff ff 	movq   $0x0,-0xa78(%rbp)
    c494:	00 00 00 00 
    c498:	48 8d 85 84 f3 ff ff 	lea    -0xc7c(%rbp),%rax
    c49f:	48 89 85 90 f5 ff ff 	mov    %rax,-0xa70(%rbp)
    c4a6:	48 8d 05 df 0b 01 00 	lea    0x10bdf(%rip),%rax        # 1d08c <g_85>
    c4ad:	48 89 85 98 f5 ff ff 	mov    %rax,-0xa68(%rbp)
    c4b4:	48 8d 05 d1 0b 01 00 	lea    0x10bd1(%rip),%rax        # 1d08c <g_85>
    c4bb:	48 89 85 a0 f5 ff ff 	mov    %rax,-0xa60(%rbp)
    c4c2:	48 8d 05 0f 11 01 00 	lea    0x1110f(%rip),%rax        # 1d5d8 <g_1515>
    c4c9:	48 89 85 a8 f5 ff ff 	mov    %rax,-0xa58(%rbp)
    c4d0:	48 8d 05 b5 0b 01 00 	lea    0x10bb5(%rip),%rax        # 1d08c <g_85>
    c4d7:	48 89 85 b0 f5 ff ff 	mov    %rax,-0xa50(%rbp)
    c4de:	48 8d 05 f3 10 01 00 	lea    0x110f3(%rip),%rax        # 1d5d8 <g_1515>
    c4e5:	48 89 85 b8 f5 ff ff 	mov    %rax,-0xa48(%rbp)
    c4ec:	48 8d 05 99 0b 01 00 	lea    0x10b99(%rip),%rax        # 1d08c <g_85>
    c4f3:	48 89 85 c0 f5 ff ff 	mov    %rax,-0xa40(%rbp)
    c4fa:	48 8d 05 8b 0b 01 00 	lea    0x10b8b(%rip),%rax        # 1d08c <g_85>
    c501:	48 89 85 c8 f5 ff ff 	mov    %rax,-0xa38(%rbp)
    c508:	48 c7 85 d0 f5 ff ff 	movq   $0x0,-0xa30(%rbp)
    c50f:	00 00 00 00 
    c513:	48 8d 85 84 f3 ff ff 	lea    -0xc7c(%rbp),%rax
    c51a:	48 89 85 d8 f5 ff ff 	mov    %rax,-0xa28(%rbp)
    c521:	48 8d 05 34 11 01 00 	lea    0x11134(%rip),%rax        # 1d65c <g_2177>
    c528:	48 89 85 e0 f5 ff ff 	mov    %rax,-0xa20(%rbp)
    c52f:	48 8d 05 6a 13 01 00 	lea    0x1136a(%rip),%rax        # 1d8a0 <g_3841>
    c536:	48 89 85 e8 f5 ff ff 	mov    %rax,-0xa18(%rbp)
    c53d:	48 8d 05 5c 13 01 00 	lea    0x1135c(%rip),%rax        # 1d8a0 <g_3841>
    c544:	48 89 85 f0 f5 ff ff 	mov    %rax,-0xa10(%rbp)
    c54b:	48 8d 05 86 10 01 00 	lea    0x11086(%rip),%rax        # 1d5d8 <g_1515>
    c552:	48 89 85 f8 f5 ff ff 	mov    %rax,-0xa08(%rbp)
    c559:	48 8d 05 78 10 01 00 	lea    0x11078(%rip),%rax        # 1d5d8 <g_1515>
    c560:	48 89 85 00 f6 ff ff 	mov    %rax,-0xa00(%rbp)
    c567:	48 8d 05 32 13 01 00 	lea    0x11332(%rip),%rax        # 1d8a0 <g_3841>
    c56e:	48 89 85 08 f6 ff ff 	mov    %rax,-0x9f8(%rbp)
    c575:	48 8d 05 10 0b 01 00 	lea    0x10b10(%rip),%rax        # 1d08c <g_85>
    c57c:	48 89 85 10 f6 ff ff 	mov    %rax,-0x9f0(%rbp)
    c583:	48 8d 85 84 f3 ff ff 	lea    -0xc7c(%rbp),%rax
    c58a:	48 89 85 18 f6 ff ff 	mov    %rax,-0x9e8(%rbp)
    c591:	48 c7 85 20 f6 ff ff 	movq   $0x0,-0x9e0(%rbp)
    c598:	00 00 00 00 
    c59c:	48 8d 05 fd 12 01 00 	lea    0x112fd(%rip),%rax        # 1d8a0 <g_3841>
    c5a3:	48 89 85 28 f6 ff ff 	mov    %rax,-0x9d8(%rbp)
    c5aa:	48 8d 05 27 10 01 00 	lea    0x11027(%rip),%rax        # 1d5d8 <g_1515>
    c5b1:	48 89 85 30 f6 ff ff 	mov    %rax,-0x9d0(%rbp)
    c5b8:	48 8d 05 9d 10 01 00 	lea    0x1109d(%rip),%rax        # 1d65c <g_2177>
    c5bf:	48 89 85 38 f6 ff ff 	mov    %rax,-0x9c8(%rbp)
    c5c6:	48 8d 05 d3 12 01 00 	lea    0x112d3(%rip),%rax        # 1d8a0 <g_3841>
    c5cd:	48 89 85 40 f6 ff ff 	mov    %rax,-0x9c0(%rbp)
    c5d4:	48 c7 85 48 f6 ff ff 	movq   $0x0,-0x9b8(%rbp)
    c5db:	00 00 00 00 
    c5df:	48 8d 05 76 10 01 00 	lea    0x11076(%rip),%rax        # 1d65c <g_2177>
    c5e6:	48 89 85 50 f6 ff ff 	mov    %rax,-0x9b0(%rbp)
    c5ed:	48 8d 85 84 f3 ff ff 	lea    -0xc7c(%rbp),%rax
    c5f4:	48 89 85 58 f6 ff ff 	mov    %rax,-0x9a8(%rbp)
    c5fb:	48 8d 05 d6 0f 01 00 	lea    0x10fd6(%rip),%rax        # 1d5d8 <g_1515>
    c602:	48 89 85 60 f6 ff ff 	mov    %rax,-0x9a0(%rbp)
    c609:	48 8d 05 7c 0a 01 00 	lea    0x10a7c(%rip),%rax        # 1d08c <g_85>
    c610:	48 89 85 68 f6 ff ff 	mov    %rax,-0x998(%rbp)
    c617:	48 8d 05 6e 0a 01 00 	lea    0x10a6e(%rip),%rax        # 1d08c <g_85>
    c61e:	48 89 85 70 f6 ff ff 	mov    %rax,-0x990(%rbp)
    c625:	48 8d 05 ac 0f 01 00 	lea    0x10fac(%rip),%rax        # 1d5d8 <g_1515>
    c62c:	48 89 85 78 f6 ff ff 	mov    %rax,-0x988(%rbp)
    c633:	48 8d 05 52 0a 01 00 	lea    0x10a52(%rip),%rax        # 1d08c <g_85>
    c63a:	48 89 85 80 f6 ff ff 	mov    %rax,-0x980(%rbp)
    c641:	48 8d 85 84 f3 ff ff 	lea    -0xc7c(%rbp),%rax
    c648:	48 89 85 88 f6 ff ff 	mov    %rax,-0x978(%rbp)
    c64f:	48 8d 05 36 0a 01 00 	lea    0x10a36(%rip),%rax        # 1d08c <g_85>
    c656:	48 89 85 90 f6 ff ff 	mov    %rax,-0x970(%rbp)
    c65d:	48 8d 05 28 0a 01 00 	lea    0x10a28(%rip),%rax        # 1d08c <g_85>
    c664:	48 89 85 98 f6 ff ff 	mov    %rax,-0x968(%rbp)
    c66b:	48 8d 85 84 f3 ff ff 	lea    -0xc7c(%rbp),%rax
    c672:	48 89 85 a0 f6 ff ff 	mov    %rax,-0x960(%rbp)
    c679:	48 c7 85 a8 f6 ff ff 	movq   $0x0,-0x958(%rbp)
    c680:	00 00 00 00 
    c684:	48 8d 05 d1 0f 01 00 	lea    0x10fd1(%rip),%rax        # 1d65c <g_2177>
    c68b:	48 89 85 b0 f6 ff ff 	mov    %rax,-0x950(%rbp)
    c692:	48 8d 05 c3 0f 01 00 	lea    0x10fc3(%rip),%rax        # 1d65c <g_2177>
    c699:	48 89 85 b8 f6 ff ff 	mov    %rax,-0x948(%rbp)
    c6a0:	48 c7 85 c0 f6 ff ff 	movq   $0x0,-0x940(%rbp)
    c6a7:	00 00 00 00 
    c6ab:	48 8d 05 da 09 01 00 	lea    0x109da(%rip),%rax        # 1d08c <g_85>
    c6b2:	48 89 85 c8 f6 ff ff 	mov    %rax,-0x938(%rbp)
    c6b9:	48 c7 85 d0 f6 ff ff 	movq   $0x0,-0x930(%rbp)
    c6c0:	00 00 00 00 
    c6c4:	48 8d 05 d5 11 01 00 	lea    0x111d5(%rip),%rax        # 1d8a0 <g_3841>
    c6cb:	48 89 85 d8 f6 ff ff 	mov    %rax,-0x928(%rbp)
    c6d2:	48 8d 85 84 f3 ff ff 	lea    -0xc7c(%rbp),%rax
    c6d9:	48 89 85 e0 f6 ff ff 	mov    %rax,-0x920(%rbp)
    c6e0:	48 c7 85 e8 f6 ff ff 	movq   $0x0,-0x918(%rbp)
    c6e7:	00 00 00 00 
    c6eb:	48 c7 85 f0 f6 ff ff 	movq   $0x0,-0x910(%rbp)
    c6f2:	00 00 00 00 
    c6f6:	48 8d 05 5f 0f 01 00 	lea    0x10f5f(%rip),%rax        # 1d65c <g_2177>
    c6fd:	48 89 85 f8 f6 ff ff 	mov    %rax,-0x908(%rbp)
    c704:	48 c7 85 00 f7 ff ff 	movq   $0x0,-0x900(%rbp)
    c70b:	00 00 00 00 
    c70f:	48 8d 05 76 09 01 00 	lea    0x10976(%rip),%rax        # 1d08c <g_85>
    c716:	48 89 85 08 f7 ff ff 	mov    %rax,-0x8f8(%rbp)
    c71d:	48 8d 05 b4 0e 01 00 	lea    0x10eb4(%rip),%rax        # 1d5d8 <g_1515>
    c724:	48 89 85 10 f7 ff ff 	mov    %rax,-0x8f0(%rbp)
    c72b:	48 8d 05 5a 09 01 00 	lea    0x1095a(%rip),%rax        # 1d08c <g_85>
    c732:	48 89 85 18 f7 ff ff 	mov    %rax,-0x8e8(%rbp)
    c739:	48 8d 05 98 0e 01 00 	lea    0x10e98(%rip),%rax        # 1d5d8 <g_1515>
    c740:	48 89 85 20 f7 ff ff 	mov    %rax,-0x8e0(%rbp)
    c747:	48 8d 05 3e 09 01 00 	lea    0x1093e(%rip),%rax        # 1d08c <g_85>
    c74e:	48 89 85 28 f7 ff ff 	mov    %rax,-0x8d8(%rbp)
    c755:	48 c7 85 30 f7 ff ff 	movq   $0x0,-0x8d0(%rbp)
    c75c:	00 00 00 00 
    c760:	48 c7 85 38 f7 ff ff 	movq   $0x0,-0x8c8(%rbp)
    c767:	00 00 00 00 
    c76b:	48 8d 85 84 f3 ff ff 	lea    -0xc7c(%rbp),%rax
    c772:	48 89 85 40 f7 ff ff 	mov    %rax,-0x8c0(%rbp)
    c779:	48 8d 05 0c 09 01 00 	lea    0x1090c(%rip),%rax        # 1d08c <g_85>
    c780:	48 89 85 48 f7 ff ff 	mov    %rax,-0x8b8(%rbp)
    c787:	48 8d 05 12 11 01 00 	lea    0x11112(%rip),%rax        # 1d8a0 <g_3841>
    c78e:	48 89 85 50 f7 ff ff 	mov    %rax,-0x8b0(%rbp)
    c795:	48 8d 05 f0 08 01 00 	lea    0x108f0(%rip),%rax        # 1d08c <g_85>
    c79c:	48 89 85 58 f7 ff ff 	mov    %rax,-0x8a8(%rbp)
    c7a3:	48 8d 05 2e 0e 01 00 	lea    0x10e2e(%rip),%rax        # 1d5d8 <g_1515>
    c7aa:	48 89 85 60 f7 ff ff 	mov    %rax,-0x8a0(%rbp)
    c7b1:	48 8d 05 20 0e 01 00 	lea    0x10e20(%rip),%rax        # 1d5d8 <g_1515>
    c7b8:	48 89 85 68 f7 ff ff 	mov    %rax,-0x898(%rbp)
    c7bf:	48 8d 05 c6 08 01 00 	lea    0x108c6(%rip),%rax        # 1d08c <g_85>
    c7c6:	48 89 85 70 f7 ff ff 	mov    %rax,-0x890(%rbp)
    c7cd:	48 8d 05 cc 10 01 00 	lea    0x110cc(%rip),%rax        # 1d8a0 <g_3841>
    c7d4:	48 89 85 78 f7 ff ff 	mov    %rax,-0x888(%rbp)
    c7db:	48 8d 85 84 f3 ff ff 	lea    -0xc7c(%rbp),%rax
    c7e2:	48 89 85 80 f7 ff ff 	mov    %rax,-0x880(%rbp)
    c7e9:	48 8d 05 e8 0d 01 00 	lea    0x10de8(%rip),%rax        # 1d5d8 <g_1515>
    c7f0:	48 89 85 88 f7 ff ff 	mov    %rax,-0x878(%rbp)
    c7f7:	48 8d 05 5e 0e 01 00 	lea    0x10e5e(%rip),%rax        # 1d65c <g_2177>
    c7fe:	48 89 85 90 f7 ff ff 	mov    %rax,-0x870(%rbp)
    c805:	48 8d 05 cc 0d 01 00 	lea    0x10dcc(%rip),%rax        # 1d5d8 <g_1515>
    c80c:	48 89 85 98 f7 ff ff 	mov    %rax,-0x868(%rbp)
    c813:	48 8d 85 84 f3 ff ff 	lea    -0xc7c(%rbp),%rax
    c81a:	48 89 85 a0 f7 ff ff 	mov    %rax,-0x860(%rbp)
    c821:	48 8d 05 34 0e 01 00 	lea    0x10e34(%rip),%rax        # 1d65c <g_2177>
    c828:	48 89 85 a8 f7 ff ff 	mov    %rax,-0x858(%rbp)
    c82f:	48 c7 85 b0 f7 ff ff 	movq   $0x0,-0x850(%rbp)
    c836:	00 00 00 00 
    c83a:	48 8d 05 5f 10 01 00 	lea    0x1105f(%rip),%rax        # 1d8a0 <g_3841>
    c841:	48 89 85 b8 f7 ff ff 	mov    %rax,-0x848(%rbp)
    c848:	48 8d 05 0d 0e 01 00 	lea    0x10e0d(%rip),%rax        # 1d65c <g_2177>
    c84f:	48 89 85 c0 f7 ff ff 	mov    %rax,-0x840(%rbp)
    c856:	48 8d 05 7b 0d 01 00 	lea    0x10d7b(%rip),%rax        # 1d5d8 <g_1515>
    c85d:	48 89 85 c8 f7 ff ff 	mov    %rax,-0x838(%rbp)
    c864:	48 8d 05 21 08 01 00 	lea    0x10821(%rip),%rax        # 1d08c <g_85>
    c86b:	48 89 85 d0 f7 ff ff 	mov    %rax,-0x830(%rbp)
    c872:	48 8d 85 84 f3 ff ff 	lea    -0xc7c(%rbp),%rax
    c879:	48 89 85 d8 f7 ff ff 	mov    %rax,-0x828(%rbp)
    c880:	48 8d 05 51 0d 01 00 	lea    0x10d51(%rip),%rax        # 1d5d8 <g_1515>
    c887:	48 89 85 e0 f7 ff ff 	mov    %rax,-0x820(%rbp)
    c88e:	48 c7 85 e8 f7 ff ff 	movq   $0x0,-0x818(%rbp)
    c895:	00 00 00 00 
    c899:	48 8d 85 84 f3 ff ff 	lea    -0xc7c(%rbp),%rax
    c8a0:	48 89 85 f0 f7 ff ff 	mov    %rax,-0x810(%rbp)
    c8a7:	48 8d 05 de 07 01 00 	lea    0x107de(%rip),%rax        # 1d08c <g_85>
    c8ae:	48 89 85 f8 f7 ff ff 	mov    %rax,-0x808(%rbp)
    c8b5:	48 8d 05 a0 0d 01 00 	lea    0x10da0(%rip),%rax        # 1d65c <g_2177>
    c8bc:	48 89 85 00 f8 ff ff 	mov    %rax,-0x800(%rbp)
    c8c3:	48 8d 85 84 f3 ff ff 	lea    -0xc7c(%rbp),%rax
    c8ca:	48 89 85 08 f8 ff ff 	mov    %rax,-0x7f8(%rbp)
    c8d1:	48 c7 85 10 f8 ff ff 	movq   $0x0,-0x7f0(%rbp)
    c8d8:	00 00 00 00 
    c8dc:	48 8d 05 bd 0f 01 00 	lea    0x10fbd(%rip),%rax        # 1d8a0 <g_3841>
    c8e3:	48 89 85 18 f8 ff ff 	mov    %rax,-0x7e8(%rbp)
    c8ea:	48 8d 85 84 f3 ff ff 	lea    -0xc7c(%rbp),%rax
    c8f1:	48 89 85 20 f8 ff ff 	mov    %rax,-0x7e0(%rbp)
    c8f8:	48 c7 85 28 f8 ff ff 	movq   $0x0,-0x7d8(%rbp)
    c8ff:	00 00 00 00 
    c903:	48 8d 05 82 07 01 00 	lea    0x10782(%rip),%rax        # 1d08c <g_85>
    c90a:	48 89 85 30 f8 ff ff 	mov    %rax,-0x7d0(%rbp)
    c911:	48 8d 05 74 07 01 00 	lea    0x10774(%rip),%rax        # 1d08c <g_85>
    c918:	48 89 85 38 f8 ff ff 	mov    %rax,-0x7c8(%rbp)
    c91f:	48 b8 a2 4f b3 dc 73 	movabs $0x2fa60273dcb34fa2,%rax
    c926:	02 a6 2f 
    c929:	48 89 85 e8 f3 ff ff 	mov    %rax,-0xc18(%rbp)
    c930:	0f b7 85 f6 f4 ff ff 	movzwl -0xb0a(%rbp),%eax
    c937:	83 e8 01             	sub    $0x1,%eax
    c93a:	66 89 85 f6 f4 ff ff 	mov    %ax,-0xb0a(%rbp)
    c941:	48 8b 85 e8 f3 ff ff 	mov    -0xc18(%rbp),%rax
    c948:	89 85 a4 f3 ff ff    	mov    %eax,-0xc5c(%rbp)
    c94e:	c6 05 5b 0a 01 00 07 	movb   $0x7,0x10a5b(%rip)        # 1d3b0 <g_1293>
    c955:	e9 90 02 00 00       	jmpq   cbea <func_1+0x1435>
    c95a:	48 c7 85 f0 f3 ff ff 	movq   $0x0,-0xc10(%rbp)
    c961:	00 00 00 00 
    c965:	c7 05 81 0e 01 00 00 	movl   $0x0,0x10e81(%rip)        # 1d7f0 <g_3446>
    c96c:	00 00 00 
    c96f:	eb 66                	jmp    c9d7 <func_1+0x1222>
    c971:	c7 85 84 f3 ff ff 00 	movl   $0x0,-0xc7c(%rbp)
    c978:	00 00 00 
    c97b:	eb 40                	jmp    c9bd <func_1+0x1208>
    c97d:	8b 15 6d 0e 01 00    	mov    0x10e6d(%rip),%edx        # 1d7f0 <g_3446>
    c983:	8b 85 84 f3 ff ff    	mov    -0xc7c(%rbp),%eax
    c989:	48 98                	cltq   
    c98b:	89 d2                	mov    %edx,%edx
    c98d:	48 c1 e2 03          	shl    $0x3,%rdx
    c991:	48 01 d0             	add    %rdx,%rax
    c994:	48 8d 14 c5 00 00 00 	lea    0x0(,%rax,8),%rdx
    c99b:	00 
    c99c:	48 8d 05 1d 36 01 00 	lea    0x1361d(%rip),%rax        # 1ffc0 <g_687>
    c9a3:	48 8d 0d 9a ba 00 00 	lea    0xba9a(%rip),%rcx        # 18444 <g_1650>
    c9aa:	48 89 0c 02          	mov    %rcx,(%rdx,%rax,1)
    c9ae:	8b 85 84 f3 ff ff    	mov    -0xc7c(%rbp),%eax
    c9b4:	83 c0 01             	add    $0x1,%eax
    c9b7:	89 85 84 f3 ff ff    	mov    %eax,-0xc7c(%rbp)
    c9bd:	8b 85 84 f3 ff ff    	mov    -0xc7c(%rbp),%eax
    c9c3:	83 f8 07             	cmp    $0x7,%eax
    c9c6:	7e b5                	jle    c97d <func_1+0x11c8>
    c9c8:	8b 05 22 0e 01 00    	mov    0x10e22(%rip),%eax        # 1d7f0 <g_3446>
    c9ce:	83 c0 01             	add    $0x1,%eax
    c9d1:	89 05 19 0e 01 00    	mov    %eax,0x10e19(%rip)        # 1d7f0 <g_3446>
    c9d7:	8b 05 13 0e 01 00    	mov    0x10e13(%rip),%eax        # 1d7f0 <g_3446>
    c9dd:	83 f8 03             	cmp    $0x3,%eax
    c9e0:	76 8f                	jbe    c971 <func_1+0x11bc>
    c9e2:	48 8b 05 7f 34 01 00 	mov    0x1347f(%rip),%rax        # 1fe68 <g_152>
    c9e9:	0f b7 10             	movzwl (%rax),%edx
    c9ec:	8d 4a 01             	lea    0x1(%rdx),%ecx
    c9ef:	66 89 08             	mov    %cx,(%rax)
    c9f2:	0f b7 c2             	movzwl %dx,%eax
    c9f5:	89 c7                	mov    %eax,%edi
    c9f7:	e8 ed e2 ff ff       	callq  ace9 <safe_unary_minus_func_uint16_t_u>
    c9fc:	89 c2                	mov    %eax,%edx
    c9fe:	48 8b 05 a3 37 01 00 	mov    0x137a3(%rip),%rax        # 201a8 <g_1327>
    ca05:	0f b7 d2             	movzwl %dx,%edx
    ca08:	48 89 10             	mov    %rdx,(%rax)
    ca0b:	be 06 00 00 00       	mov    $0x6,%esi
    ca10:	bf fa 00 00 00       	mov    $0xfa,%edi
    ca15:	e8 32 e2 ff ff       	callq  ac4c <safe_lshift_func_uint8_t_u_u>
    ca1a:	0f b6 55 c7          	movzbl -0x39(%rbp),%edx
    ca1e:	21 d0                	and    %edx,%eax
    ca20:	0f b6 c0             	movzbl %al,%eax
    ca23:	be 1f 46 35 67       	mov    $0x6735461f,%esi
    ca28:	89 c7                	mov    %eax,%edi
    ca2a:	e8 9d dc ff ff       	callq  a6cc <safe_mod_func_int32_t_s_s>
    ca2f:	8b 05 57 11 01 00    	mov    0x11157(%rip),%eax        # 1db8c <g_4102>
    ca35:	8b 85 2c f4 ff ff    	mov    -0xbd4(%rbp),%eax
    ca3b:	0f b7 d8             	movzwl %ax,%ebx
    ca3e:	0f b7 05 4b 11 01 00 	movzwl 0x1114b(%rip),%eax        # 1db90 <g_4118>
    ca45:	48 0f bf d0          	movswq %ax,%rdx
    ca49:	48 8b 85 10 f4 ff ff 	mov    -0xbf0(%rbp),%rax
    ca50:	48 39 c2             	cmp    %rax,%rdx
    ca53:	0f 93 c0             	setae  %al
    ca56:	44 0f b6 e0          	movzbl %al,%r12d
    ca5a:	48 8b 05 a7 40 01 00 	mov    0x140a7(%rip),%rax        # 20b08 <g_1917>
    ca61:	48 8b 00             	mov    (%rax),%rax
    ca64:	48 8b 00             	mov    (%rax),%rax
    ca67:	48 89 c2             	mov    %rax,%rdx
    ca6a:	0f b7 85 f6 f4 ff ff 	movzwl -0xb0a(%rbp),%eax
    ca71:	0f b7 c0             	movzwl %ax,%eax
    ca74:	48 33 85 f0 f3 ff ff 	xor    -0xc10(%rbp),%rax
    ca7b:	48 89 d6             	mov    %rdx,%rsi
    ca7e:	48 89 c7             	mov    %rax,%rdi
    ca81:	e8 29 e6 ff ff       	callq  b0af <safe_div_func_uint64_t_u_u>
    ca86:	4c 09 e0             	or     %r12,%rax
    ca89:	48 89 c7             	mov    %rax,%rdi
    ca8c:	e8 85 dd ff ff       	callq  a816 <safe_unary_minus_func_int64_t_s>
    ca91:	89 c2                	mov    %eax,%edx
    ca93:	0f b6 05 6c 11 01 00 	movzbl 0x1116c(%rip),%eax        # 1dc06 <g_4122+0x66>
    ca9a:	0f b6 c0             	movzbl %al,%eax
    ca9d:	09 d0                	or     %edx,%eax
    ca9f:	0f b7 c0             	movzwl %ax,%eax
    caa2:	89 de                	mov    %ebx,%esi
    caa4:	89 c7                	mov    %eax,%edi
    caa6:	e8 b1 e2 ff ff       	callq  ad5c <safe_mod_func_uint16_t_u_u>
    caab:	0f b7 d0             	movzwl %ax,%edx
    caae:	8b 85 84 f3 ff ff    	mov    -0xc7c(%rbp),%eax
    cab4:	39 c2                	cmp    %eax,%edx
    cab6:	0f 95 c0             	setne  %al
    cab9:	0f b6 c0             	movzbl %al,%eax
    cabc:	be 05 00 00 00       	mov    $0x5,%esi
    cac1:	89 c7                	mov    %eax,%edi
    cac3:	e8 3d e1 ff ff       	callq  ac05 <safe_lshift_func_uint8_t_u_s>
    cac8:	0f b6 c0             	movzbl %al,%eax
    cacb:	be 02 00 00 00       	mov    $0x2,%esi
    cad0:	89 c7                	mov    %eax,%edi
    cad2:	e8 75 e1 ff ff       	callq  ac4c <safe_lshift_func_uint8_t_u_u>
    cad7:	b9 01 00 00 00       	mov    $0x1,%ecx
    cadc:	48 8b 05 cd 36 01 00 	mov    0x136cd(%rip),%rax        # 201b0 <g_1366>
    cae3:	48 8b 00             	mov    (%rax),%rax
    cae6:	48 8b 00             	mov    (%rax),%rax
    cae9:	0f b6 10             	movzbl (%rax),%edx
    caec:	48 8b 05 bd 36 01 00 	mov    0x136bd(%rip),%rax        # 201b0 <g_1366>
    caf3:	48 8b 00             	mov    (%rax),%rax
    caf6:	48 8b 00             	mov    (%rax),%rax
    caf9:	09 ca                	or     %ecx,%edx
    cafb:	88 10                	mov    %dl,(%rax)
    cafd:	0f b6 00             	movzbl (%rax),%eax
    cb00:	48 0f be c0          	movsbq %al,%rax
    cb04:	83 e0 40             	and    $0x40,%eax
    cb07:	48 85 c0             	test   %rax,%rax
    cb0a:	0f 94 c0             	sete   %al
    cb0d:	0f b6 c0             	movzbl %al,%eax
    cb10:	48 39 85 f0 f3 ff ff 	cmp    %rax,-0xc10(%rbp)
    cb17:	0f 9e c2             	setle  %dl
    cb1a:	48 8b 05 4f 33 01 00 	mov    0x1334f(%rip),%rax        # 1fe70 <g_166>
    cb21:	0f b6 d2             	movzbl %dl,%edx
    cb24:	89 10                	mov    %edx,(%rax)
    cb26:	c7 05 c0 0c 01 00 00 	movl   $0x0,0x10cc0(%rip)        # 1d7f0 <g_3446>
    cb2d:	00 00 00 
    cb30:	e9 96 00 00 00       	jmpq   cbcb <func_1+0x1416>
    cb35:	c6 85 7c f3 ff ff 04 	movb   $0x4,-0xc84(%rbp)
    cb3c:	48 8b 85 f0 f3 ff ff 	mov    -0xc10(%rbp),%rax
    cb43:	08 85 7c f3 ff ff    	or     %al,-0xc84(%rbp)
    cb49:	48 8b 05 30 41 01 00 	mov    0x14130(%rip),%rax        # 20c80 <g_2042>
    cb50:	48 8b 00             	mov    (%rax),%rax
    cb53:	8b 00                	mov    (%rax),%eax
    cb55:	85 c0                	test   %eax,%eax
    cb57:	75 53                	jne    cbac <func_1+0x13f7>
    cb59:	48 8b 05 10 33 01 00 	mov    0x13310(%rip),%rax        # 1fe70 <g_166>
    cb60:	c7 00 01 00 00 00    	movl   $0x1,(%rax)
    cb66:	48 8b 05 43 37 01 00 	mov    0x13743(%rip),%rax        # 202b0 <g_1482>
    cb6d:	48 8b 00             	mov    (%rax),%rax
    cb70:	48 8b 00             	mov    (%rax),%rax
    cb73:	48 89 c1             	mov    %rax,%rcx
    cb76:	48 8b 05 5b 43 01 00 	mov    0x1435b(%rip),%rax        # 20ed8 <g_2541>
    cb7d:	48 8b 00             	mov    (%rax),%rax
    cb80:	48 8b 00             	mov    (%rax),%rax
    cb83:	48 8b 00             	mov    (%rax),%rax
    cb86:	48 8b 00             	mov    (%rax),%rax
    cb89:	8b 00                	mov    (%rax),%eax
    cb8b:	8b 95 84 f3 ff ff    	mov    -0xc7c(%rbp),%edx
    cb91:	39 d0                	cmp    %edx,%eax
    cb93:	0f 94 c0             	sete   %al
    cb96:	0f b6 c0             	movzbl %al,%eax
    cb99:	48 89 ce             	mov    %rcx,%rsi
    cb9c:	48 89 c7             	mov    %rax,%rdi
    cb9f:	e8 10 de ff ff       	callq  a9b4 <safe_mod_func_int64_t_s_s>
    cba4:	89 85 80 f3 ff ff    	mov    %eax,-0xc80(%rbp)
    cbaa:	eb 01                	jmp    cbad <func_1+0x13f8>
    cbac:	90                   	nop
    cbad:	8b 05 3d 0c 01 00    	mov    0x10c3d(%rip),%eax        # 1d7f0 <g_3446>
    cbb3:	0f be c0             	movsbl %al,%eax
    cbb6:	be 01 00 00 00       	mov    $0x1,%esi
    cbbb:	89 c7                	mov    %eax,%edi
    cbbd:	e8 12 d6 ff ff       	callq  a1d4 <safe_add_func_int8_t_s_s>
    cbc2:	0f be c0             	movsbl %al,%eax
    cbc5:	89 05 25 0c 01 00    	mov    %eax,0x10c25(%rip)        # 1d7f0 <g_3446>
    cbcb:	8b 05 1f 0c 01 00    	mov    0x10c1f(%rip),%eax        # 1d7f0 <g_3446>
    cbd1:	83 f8 1a             	cmp    $0x1a,%eax
    cbd4:	0f 87 5b ff ff ff    	ja     cb35 <func_1+0x1380>
    cbda:	0f b6 05 cf 07 01 00 	movzbl 0x107cf(%rip),%eax        # 1d3b0 <g_1293>
    cbe1:	83 c0 01             	add    $0x1,%eax
    cbe4:	88 05 c6 07 01 00    	mov    %al,0x107c6(%rip)        # 1d3b0 <g_1293>
    cbea:	0f b6 05 bf 07 01 00 	movzbl 0x107bf(%rip),%eax        # 1d3b0 <g_1293>
    cbf1:	3c 0a                	cmp    $0xa,%al
    cbf3:	0f 85 61 fd ff ff    	jne    c95a <func_1+0x11a5>
    cbf9:	66 83 bd 7e f3 ff ff 	cmpw   $0x0,-0xc82(%rbp)
    cc00:	00 
    cc01:	74 2d                	je     cc30 <func_1+0x147b>
    cc03:	e9 15 f0 ff ff       	jmpq   bc1d <func_1+0x468>
    cc08:	48 c7 85 b8 f3 ff ff 	movq   $0x0,-0xc48(%rbp)
    cc0f:	00 00 00 00 
    cc13:	48 8d 85 b8 f3 ff ff 	lea    -0xc48(%rbp),%rax
    cc1a:	48 89 85 d8 f3 ff ff 	mov    %rax,-0xc28(%rbp)
    cc21:	ba 00 00 00 00       	mov    $0x0,%edx
    cc26:	48 8b 85 d8 f3 ff ff 	mov    -0xc28(%rbp),%rax
    cc2d:	48 89 10             	mov    %rdx,(%rax)
    cc30:	0f b6 05 f1 09 01 00 	movzbl 0x109f1(%rip),%eax        # 1d628 <g_1791>
    cc37:	0f b6 c0             	movzbl %al,%eax
    cc3a:	be 05 00 00 00       	mov    $0x5,%esi
    cc3f:	89 c7                	mov    %eax,%edi
    cc41:	e8 6d d7 ff ff       	callq  a3b3 <safe_add_func_int16_t_s_s>
    cc46:	88 05 dc 09 01 00    	mov    %al,0x109dc(%rip)        # 1d628 <g_1791>
    cc4c:	0f b6 05 d5 09 01 00 	movzbl 0x109d5(%rip),%eax        # 1d628 <g_1791>
    cc53:	3c 34                	cmp    $0x34,%al
    cc55:	0f 85 36 f0 ff ff    	jne    bc91 <func_1+0x4dc>
    cc5b:	48 8b 85 10 f4 ff ff 	mov    -0xbf0(%rbp),%rax
    cc62:	89 c1                	mov    %eax,%ecx
    cc64:	48 8b 05 85 3e 01 00 	mov    0x13e85(%rip),%rax        # 20af0 <g_1911>
    cc6b:	48 8b 00             	mov    (%rax),%rax
    cc6e:	48 8b 00             	mov    (%rax),%rax
    cc71:	0f b6 10             	movzbl (%rax),%edx
    cc74:	48 8b 05 2d 33 01 00 	mov    0x1332d(%rip),%rax        # 1ffa8 <g_608>
    cc7b:	48 8b 00             	mov    (%rax),%rax
    cc7e:	09 ca                	or     %ecx,%edx
    cc80:	88 10                	mov    %dl,(%rax)
    cc82:	0f b6 00             	movzbl (%rax),%eax
    cc85:	0f b6 d0             	movzbl %al,%edx
    cc88:	8b 85 a0 f3 ff ff    	mov    -0xc60(%rbp),%eax
    cc8e:	0f b6 c0             	movzbl %al,%eax
    cc91:	89 d6                	mov    %edx,%esi
    cc93:	89 c7                	mov    %eax,%edi
    cc95:	e8 41 df ff ff       	callq  abdb <safe_div_func_uint8_t_u_u>
    cc9a:	48 8b 15 cf 31 01 00 	mov    0x131cf(%rip),%rdx        # 1fe70 <g_166>
    cca1:	8b 0a                	mov    (%rdx),%ecx
    cca3:	0f b6 d0             	movzbl %al,%edx
    cca6:	48 8b 05 c3 31 01 00 	mov    0x131c3(%rip),%rax        # 1fe70 <g_166>
    ccad:	31 ca                	xor    %ecx,%edx
    ccaf:	89 10                	mov    %edx,(%rax)
    ccb1:	48 8b 85 10 f4 ff ff 	mov    -0xbf0(%rbp),%rax
    ccb8:	48 8b 5d c8          	mov    -0x38(%rbp),%rbx
    ccbc:	64 48 33 1c 25 28 00 	xor    %fs:0x28,%rbx
    ccc3:	00 00 
    ccc5:	74 05                	je     cccc <func_1+0x1517>
    ccc7:	e8 a4 d3 ff ff       	callq  a070 <__stack_chk_fail@plt>
    cccc:	48 81 c4 78 0c 00 00 	add    $0xc78,%rsp
    ccd3:	5b                   	pop    %rbx
    ccd4:	41 5c                	pop    %r12
    ccd6:	41 5d                	pop    %r13
    ccd8:	41 5e                	pop    %r14
    ccda:	41 5f                	pop    %r15
    ccdc:	5d                   	pop    %rbp
    ccdd:	c3                   	retq   

000000000000ccde <func_7>:
    ccde:	f3 0f 1e fa          	endbr64 
    cce2:	55                   	push   %rbp
    cce3:	48 89 e5             	mov    %rsp,%rbp
    cce6:	41 57                	push   %r15
    cce8:	41 56                	push   %r14
    ccea:	41 55                	push   %r13
    ccec:	41 54                	push   %r12
    ccee:	53                   	push   %rbx
    ccef:	48 81 ec 00 10 00 00 	sub    $0x1000,%rsp
    ccf6:	48 83 0c 24 00       	orq    $0x0,(%rsp)
    ccfb:	48 81 ec 98 06 00 00 	sub    $0x698,%rsp
    cd02:	89 f8                	mov    %edi,%eax
    cd04:	89 b5 78 e9 ff ff    	mov    %esi,-0x1688(%rbp)
    cd0a:	89 95 74 e9 ff ff    	mov    %edx,-0x168c(%rbp)
    cd10:	66 89 85 7c e9 ff ff 	mov    %ax,-0x1684(%rbp)
    cd17:	64 48 8b 04 25 28 00 	mov    %fs:0x28,%rax
    cd1e:	00 00 
    cd20:	48 89 45 c8          	mov    %rax,-0x38(%rbp)
    cd24:	31 c0                	xor    %eax,%eax
    cd26:	c7 85 9c e9 ff ff fc 	movl   $0xe58f2bfc,-0x1664(%rbp)
    cd2d:	2b 8f e5 
    cd30:	48 8d 05 b9 0a 01 00 	lea    0x10ab9(%rip),%rax        # 1d7f0 <g_3446>
    cd37:	48 89 85 18 eb ff ff 	mov    %rax,-0x14e8(%rbp)
    cd3e:	c7 85 a0 e9 ff ff 4d 	movl   $0x323d894d,-0x1660(%rbp)
    cd45:	89 3d 32 
    cd48:	c7 85 a4 e9 ff ff fd 	movl   $0xfffffffd,-0x165c(%rbp)
    cd4f:	ff ff ff 
    cd52:	c7 85 a8 e9 ff ff 00 	movl   $0x0,-0x1658(%rbp)
    cd59:	00 00 00 
    cd5c:	48 8d 05 65 35 01 00 	lea    0x13565(%rip),%rax        # 202c8 <g_1623>
    cd63:	48 89 85 20 eb ff ff 	mov    %rax,-0x14e0(%rbp)
    cd6a:	c6 85 86 e9 ff ff fc 	movb   $0xfc,-0x167a(%rbp)
    cd71:	c6 85 87 e9 ff ff 01 	movb   $0x1,-0x1679(%rbp)
    cd78:	48 8d 85 40 ed ff ff 	lea    -0x12c0(%rbp),%rax
    cd7f:	48 83 c0 18          	add    $0x18,%rax
    cd83:	48 89 85 28 eb ff ff 	mov    %rax,-0x14d8(%rbp)
    cd8a:	c6 85 85 e9 ff ff f6 	movb   $0xf6,-0x167b(%rbp)
    cd91:	48 8d 05 60 41 01 00 	lea    0x14160(%rip),%rax        # 20ef8 <g_2589+0x8>
    cd98:	48 89 85 10 eb ff ff 	mov    %rax,-0x14f0(%rbp)
    cd9f:	48 8d 05 8a 49 01 00 	lea    0x1498a(%rip),%rax        # 21730 <g_3242>
    cda6:	48 89 85 30 eb ff ff 	mov    %rax,-0x14d0(%rbp)
    cdad:	48 c7 85 38 eb ff ff 	movq   $0x0,-0x14c8(%rbp)
    cdb4:	00 00 00 00 
    cdb8:	48 8d 05 11 0a 01 00 	lea    0x10a11(%rip),%rax        # 1d7d0 <g_3303>
    cdbf:	48 89 85 40 eb ff ff 	mov    %rax,-0x14c0(%rbp)
    cdc6:	48 8d 05 0b 31 01 00 	lea    0x1310b(%rip),%rax        # 1fed8 <g_533>
    cdcd:	48 89 85 48 eb ff ff 	mov    %rax,-0x14b8(%rbp)
    cdd4:	48 8d 05 19 0a 01 00 	lea    0x10a19(%rip),%rax        # 1d7f4 <g_3496>
    cddb:	48 89 85 90 ea ff ff 	mov    %rax,-0x1570(%rbp)
    cde2:	48 8d 85 90 ea ff ff 	lea    -0x1570(%rbp),%rax
    cde9:	48 89 85 98 ea ff ff 	mov    %rax,-0x1568(%rbp)
    cdf0:	48 8d 85 98 ea ff ff 	lea    -0x1568(%rbp),%rax
    cdf7:	48 89 85 50 eb ff ff 	mov    %rax,-0x14b0(%rbp)
    cdfe:	c7 85 f8 e9 ff ff 7a 	movl   $0xa89bb97a,-0x1608(%rbp)
    ce05:	b9 9b a8 
    ce08:	66 c7 85 92 e9 ff ff 	movw   $0xfffc,-0x166e(%rbp)
    ce0f:	fc ff 
    ce11:	c6 85 88 e9 ff ff ac 	movb   $0xac,-0x1678(%rbp)
    ce18:	c7 85 bc e9 ff ff 00 	movl   $0x0,-0x1644(%rbp)
    ce1f:	00 00 00 
    ce22:	eb 1a                	jmp    ce3e <func_7+0x160>
    ce24:	8b 85 bc e9 ff ff    	mov    -0x1644(%rbp),%eax
    ce2a:	48 98                	cltq   
    ce2c:	c7 84 85 18 ed ff ff 	movl   $0xbeab1d6a,-0x12e8(%rbp,%rax,4)
    ce33:	6a 1d ab be 
    ce37:	83 85 bc e9 ff ff 01 	addl   $0x1,-0x1644(%rbp)
    ce3e:	83 bd bc e9 ff ff 00 	cmpl   $0x0,-0x1644(%rbp)
    ce45:	7e dd                	jle    ce24 <func_7+0x146>
    ce47:	c7 85 bc e9 ff ff 00 	movl   $0x0,-0x1644(%rbp)
    ce4e:	00 00 00 
    ce51:	eb 1a                	jmp    ce6d <func_7+0x18f>
    ce53:	8b 85 bc e9 ff ff    	mov    -0x1644(%rbp),%eax
    ce59:	48 98                	cltq   
    ce5b:	c7 84 85 1c ed ff ff 	movl   $0x478f9810,-0x12e4(%rbp,%rax,4)
    ce62:	10 98 8f 47 
    ce66:	83 85 bc e9 ff ff 01 	addl   $0x1,-0x1644(%rbp)
    ce6d:	83 bd bc e9 ff ff 00 	cmpl   $0x0,-0x1644(%rbp)
    ce74:	7e dd                	jle    ce53 <func_7+0x175>
    ce76:	c7 85 bc e9 ff ff 00 	movl   $0x0,-0x1644(%rbp)
    ce7d:	00 00 00 
    ce80:	eb 1e                	jmp    cea0 <func_7+0x1c2>
    ce82:	8b 85 bc e9 ff ff    	mov    -0x1644(%rbp),%eax
    ce88:	48 98                	cltq   
    ce8a:	48 8d 15 1f 33 01 00 	lea    0x1331f(%rip),%rdx        # 201b0 <g_1366>
    ce91:	48 89 94 c5 40 ed ff 	mov    %rdx,-0x12c0(%rbp,%rax,8)
    ce98:	ff 
    ce99:	83 85 bc e9 ff ff 01 	addl   $0x1,-0x1644(%rbp)
    cea0:	83 bd bc e9 ff ff 03 	cmpl   $0x3,-0x1644(%rbp)
    cea7:	7e d9                	jle    ce82 <func_7+0x1a4>
    cea9:	c7 85 74 e9 ff ff 00 	movl   $0x0,-0x168c(%rbp)
    ceb0:	00 00 00 
    ceb3:	eb 6c                	jmp    cf21 <func_7+0x243>
    ceb5:	48 c7 85 f8 ec ff ff 	movq   $0x0,-0x1308(%rbp)
    cebc:	00 00 00 00 
    cec0:	48 8d 05 81 07 01 00 	lea    0x10781(%rip),%rax        # 1d648 <g_1923>
    cec7:	48 89 85 00 ed ff ff 	mov    %rax,-0x1300(%rbp)
    cece:	48 8d 05 33 02 01 00 	lea    0x10233(%rip),%rax        # 1d108 <g_274>
    ced5:	48 89 85 08 ed ff ff 	mov    %rax,-0x12f8(%rbp)
    cedc:	48 8d 05 81 07 01 00 	lea    0x10781(%rip),%rax        # 1d664 <g_2297>
    cee3:	48 89 85 10 ed ff ff 	mov    %rax,-0x12f0(%rbp)
    ceea:	c7 85 c0 e9 ff ff 00 	movl   $0x0,-0x1640(%rbp)
    cef1:	00 00 00 
    cef4:	eb 1b                	jmp    cf11 <func_7+0x233>
    cef6:	8b 85 c0 e9 ff ff    	mov    -0x1640(%rbp),%eax
    cefc:	48 98                	cltq   
    cefe:	48 c7 84 c5 e0 f7 ff 	movq   $0x0,-0x820(%rbp,%rax,8)
    cf05:	ff 00 00 00 00 
    cf0a:	83 85 c0 e9 ff ff 01 	addl   $0x1,-0x1640(%rbp)
    cf11:	83 bd c0 e9 ff ff 01 	cmpl   $0x1,-0x1640(%rbp)
    cf18:	7e dc                	jle    cef6 <func_7+0x218>
    cf1a:	83 85 74 e9 ff ff 01 	addl   $0x1,-0x168c(%rbp)
    cf21:	83 bd 74 e9 ff ff 00 	cmpl   $0x0,-0x168c(%rbp)
    cf28:	7e 8b                	jle    ceb5 <func_7+0x1d7>
    cf2a:	c7 05 44 07 01 00 f2 	movl   $0xfffffff2,0x10744(%rip)        # 1d678 <g_2343>
    cf31:	ff ff ff 
    cf34:	e9 69 43 00 00       	jmpq   112a2 <func_7+0x45c4>
    cf39:	c7 85 fc e9 ff ff 01 	movl   $0x1,-0x1604(%rbp)
    cf40:	00 00 00 
    cf43:	48 8d 05 7e 2f 01 00 	lea    0x12f7e(%rip),%rax        # 1fec8 <g_388>
    cf4a:	48 89 85 58 eb ff ff 	mov    %rax,-0x14a8(%rbp)
    cf51:	48 8d 05 78 3f 01 00 	lea    0x13f78(%rip),%rax        # 20ed0 <g_2542>
    cf58:	48 89 85 60 eb ff ff 	mov    %rax,-0x14a0(%rbp)
    cf5f:	c7 85 ac e9 ff ff 00 	movl   $0x0,-0x1654(%rbp)
    cf66:	00 00 00 
    cf69:	c7 85 b0 e9 ff ff 01 	movl   $0x1,-0x1650(%rbp)
    cf70:	00 00 00 
    cf73:	c7 85 f0 ed ff ff ab 	movl   $0xad2fccab,-0x1210(%rbp)
    cf7a:	cc 2f ad 
    cf7d:	c7 85 f4 ed ff ff 24 	movl   $0x37ff4e24,-0x120c(%rbp)
    cf84:	4e ff 37 
    cf87:	c7 85 f8 ed ff ff ab 	movl   $0xad2fccab,-0x1208(%rbp)
    cf8e:	cc 2f ad 
    cf91:	c7 85 fc ed ff ff ab 	movl   $0xad2fccab,-0x1204(%rbp)
    cf98:	cc 2f ad 
    cf9b:	c7 85 00 ee ff ff 24 	movl   $0x37ff4e24,-0x1200(%rbp)
    cfa2:	4e ff 37 
    cfa5:	c7 85 04 ee ff ff 24 	movl   $0x37ff4e24,-0x11fc(%rbp)
    cfac:	4e ff 37 
    cfaf:	c7 85 08 ee ff ff ab 	movl   $0xad2fccab,-0x11f8(%rbp)
    cfb6:	cc 2f ad 
    cfb9:	c7 85 0c ee ff ff ab 	movl   $0xad2fccab,-0x11f4(%rbp)
    cfc0:	cc 2f ad 
    cfc3:	c7 85 10 ee ff ff 24 	movl   $0x37ff4e24,-0x11f0(%rbp)
    cfca:	4e ff 37 
    cfcd:	c7 85 14 ee ff ff ab 	movl   $0xad2fccab,-0x11ec(%rbp)
    cfd4:	cc 2f ad 
    cfd7:	48 c7 85 a0 ea ff ff 	movq   $0x0,-0x1560(%rbp)
    cfde:	00 00 00 00 
    cfe2:	48 8d 85 ac e9 ff ff 	lea    -0x1654(%rbp),%rax
    cfe9:	48 89 85 a8 ea ff ff 	mov    %rax,-0x1558(%rbp)
    cff0:	48 b8 8c 14 d3 31 e0 	movabs $0x46014fe031d3148c,%rax
    cff7:	4f 01 46 
    cffa:	48 89 85 68 eb ff ff 	mov    %rax,-0x1498(%rbp)
    d001:	c6 85 89 e9 ff ff ff 	movb   $0xff,-0x1677(%rbp)
    d008:	c7 85 c0 ed ff ff 11 	movl   $0x1ddc0811,-0x1240(%rbp)
    d00f:	08 dc 1d 
    d012:	c7 85 c4 ed ff ff 11 	movl   $0x1ddc0811,-0x123c(%rbp)
    d019:	08 dc 1d 
    d01c:	c7 85 c8 ed ff ff 11 	movl   $0x1ddc0811,-0x1238(%rbp)
    d023:	08 dc 1d 
    d026:	c7 85 cc ed ff ff 11 	movl   $0x1ddc0811,-0x1234(%rbp)
    d02d:	08 dc 1d 
    d030:	c7 85 d0 ed ff ff 11 	movl   $0x1ddc0811,-0x1230(%rbp)
    d037:	08 dc 1d 
    d03a:	c7 85 d4 ed ff ff 11 	movl   $0x1ddc0811,-0x122c(%rbp)
    d041:	08 dc 1d 
    d044:	c7 85 d8 ed ff ff 11 	movl   $0x1ddc0811,-0x1228(%rbp)
    d04b:	08 dc 1d 
    d04e:	c7 85 dc ed ff ff 11 	movl   $0x1ddc0811,-0x1224(%rbp)
    d055:	08 dc 1d 
    d058:	c7 85 e0 ed ff ff 11 	movl   $0x1ddc0811,-0x1220(%rbp)
    d05f:	08 dc 1d 
    d062:	48 8d 85 1c ed ff ff 	lea    -0x12e4(%rbp),%rax
    d069:	48 89 85 b0 ea ff ff 	mov    %rax,-0x1550(%rbp)
    d070:	48 8d 85 b0 ea ff ff 	lea    -0x1550(%rbp),%rax
    d077:	48 89 85 b8 ea ff ff 	mov    %rax,-0x1548(%rbp)
    d07e:	48 8d 85 b8 ea ff ff 	lea    -0x1548(%rbp),%rax
    d085:	48 89 85 c0 ea ff ff 	mov    %rax,-0x1540(%rbp)
    d08c:	48 8d 85 c0 ea ff ff 	lea    -0x1540(%rbp),%rax
    d093:	48 89 85 c8 ea ff ff 	mov    %rax,-0x1538(%rbp)
    d09a:	48 8d 85 c8 ea ff ff 	lea    -0x1538(%rbp),%rax
    d0a1:	48 89 85 70 eb ff ff 	mov    %rax,-0x1490(%rbp)
    d0a8:	48 8d 05 09 32 01 00 	lea    0x13209(%rip),%rax        # 202b8 <g_1481>
    d0af:	48 89 85 00 ef ff ff 	mov    %rax,-0x1100(%rbp)
    d0b6:	48 8d 05 fb 31 01 00 	lea    0x131fb(%rip),%rax        # 202b8 <g_1481>
    d0bd:	48 89 85 08 ef ff ff 	mov    %rax,-0x10f8(%rbp)
    d0c4:	48 8d 05 ed 31 01 00 	lea    0x131ed(%rip),%rax        # 202b8 <g_1481>
    d0cb:	48 89 85 10 ef ff ff 	mov    %rax,-0x10f0(%rbp)
    d0d2:	48 8d 05 df 31 01 00 	lea    0x131df(%rip),%rax        # 202b8 <g_1481>
    d0d9:	48 89 85 18 ef ff ff 	mov    %rax,-0x10e8(%rbp)
    d0e0:	48 8d 05 d1 31 01 00 	lea    0x131d1(%rip),%rax        # 202b8 <g_1481>
    d0e7:	48 89 85 20 ef ff ff 	mov    %rax,-0x10e0(%rbp)
    d0ee:	48 8d 05 c3 31 01 00 	lea    0x131c3(%rip),%rax        # 202b8 <g_1481>
    d0f5:	48 89 85 28 ef ff ff 	mov    %rax,-0x10d8(%rbp)
    d0fc:	48 8d 05 b5 31 01 00 	lea    0x131b5(%rip),%rax        # 202b8 <g_1481>
    d103:	48 89 85 30 ef ff ff 	mov    %rax,-0x10d0(%rbp)
    d10a:	48 8d 05 a7 31 01 00 	lea    0x131a7(%rip),%rax        # 202b8 <g_1481>
    d111:	48 89 85 38 ef ff ff 	mov    %rax,-0x10c8(%rbp)
    d118:	48 8d 05 99 31 01 00 	lea    0x13199(%rip),%rax        # 202b8 <g_1481>
    d11f:	48 89 85 40 ef ff ff 	mov    %rax,-0x10c0(%rbp)
    d126:	48 c7 85 48 ef ff ff 	movq   $0x0,-0x10b8(%rbp)
    d12d:	00 00 00 00 
    d131:	48 8d 05 80 31 01 00 	lea    0x13180(%rip),%rax        # 202b8 <g_1481>
    d138:	48 89 85 50 ef ff ff 	mov    %rax,-0x10b0(%rbp)
    d13f:	48 c7 85 58 ef ff ff 	movq   $0x0,-0x10a8(%rbp)
    d146:	00 00 00 00 
    d14a:	48 c7 85 60 ef ff ff 	movq   $0x0,-0x10a0(%rbp)
    d151:	00 00 00 00 
    d155:	48 8d 05 5c 31 01 00 	lea    0x1315c(%rip),%rax        # 202b8 <g_1481>
    d15c:	48 89 85 68 ef ff ff 	mov    %rax,-0x1098(%rbp)
    d163:	48 8d 05 4e 31 01 00 	lea    0x1314e(%rip),%rax        # 202b8 <g_1481>
    d16a:	48 89 85 70 ef ff ff 	mov    %rax,-0x1090(%rbp)
    d171:	48 8d 05 40 31 01 00 	lea    0x13140(%rip),%rax        # 202b8 <g_1481>
    d178:	48 89 85 78 ef ff ff 	mov    %rax,-0x1088(%rbp)
    d17f:	48 c7 85 80 ef ff ff 	movq   $0x0,-0x1080(%rbp)
    d186:	00 00 00 00 
    d18a:	48 c7 85 88 ef ff ff 	movq   $0x0,-0x1078(%rbp)
    d191:	00 00 00 00 
    d195:	48 8d 05 1c 31 01 00 	lea    0x1311c(%rip),%rax        # 202b8 <g_1481>
    d19c:	48 89 85 90 ef ff ff 	mov    %rax,-0x1070(%rbp)
    d1a3:	48 c7 85 98 ef ff ff 	movq   $0x0,-0x1068(%rbp)
    d1aa:	00 00 00 00 
    d1ae:	48 8d 05 03 31 01 00 	lea    0x13103(%rip),%rax        # 202b8 <g_1481>
    d1b5:	48 89 85 a0 ef ff ff 	mov    %rax,-0x1060(%rbp)
    d1bc:	48 8d 05 f5 30 01 00 	lea    0x130f5(%rip),%rax        # 202b8 <g_1481>
    d1c3:	48 89 85 a8 ef ff ff 	mov    %rax,-0x1058(%rbp)
    d1ca:	48 8d 05 e7 30 01 00 	lea    0x130e7(%rip),%rax        # 202b8 <g_1481>
    d1d1:	48 89 85 b0 ef ff ff 	mov    %rax,-0x1050(%rbp)
    d1d8:	48 8d 05 d9 30 01 00 	lea    0x130d9(%rip),%rax        # 202b8 <g_1481>
    d1df:	48 89 85 b8 ef ff ff 	mov    %rax,-0x1048(%rbp)
    d1e6:	48 c7 85 78 eb ff ff 	movq   $0x0,-0x1488(%rbp)
    d1ed:	00 00 00 00 
    d1f1:	48 c7 85 d0 ea ff ff 	movq   $0x0,-0x1530(%rbp)
    d1f8:	00 00 00 00 
    d1fc:	48 8d 85 d0 ea ff ff 	lea    -0x1530(%rbp),%rax
    d203:	48 89 85 80 eb ff ff 	mov    %rax,-0x1480(%rbp)
    d20a:	48 8d 85 a0 ea ff ff 	lea    -0x1560(%rbp),%rax
    d211:	48 89 85 88 eb ff ff 	mov    %rax,-0x1478(%rbp)
    d218:	48 c7 85 d8 ea ff ff 	movq   $0x0,-0x1528(%rbp)
    d21f:	00 00 00 00 
    d223:	48 8d 85 d8 ea ff ff 	lea    -0x1528(%rbp),%rax
    d22a:	48 89 85 90 eb ff ff 	mov    %rax,-0x1470(%rbp)
    d231:	48 8d 05 f0 44 01 00 	lea    0x144f0(%rip),%rax        # 21728 <g_3198>
    d238:	48 89 85 98 eb ff ff 	mov    %rax,-0x1468(%rbp)
    d23f:	66 c7 85 94 e9 ff ff 	movw   $0x398d,-0x166c(%rbp)
    d246:	8d 39 
    d248:	c6 85 8a e9 ff ff bc 	movb   $0xbc,-0x1676(%rbp)
    d24f:	c7 85 c4 e9 ff ff 00 	movl   $0x0,-0x163c(%rbp)
    d256:	00 00 00 
    d259:	eb 1e                	jmp    d279 <func_7+0x59b>
    d25b:	8b 85 c4 e9 ff ff    	mov    -0x163c(%rbp),%eax
    d261:	48 98                	cltq   
    d263:	48 8d 15 66 4d 01 00 	lea    0x14d66(%rip),%rdx        # 21fd0 <g_2669>
    d26a:	48 89 94 c5 60 ed ff 	mov    %rdx,-0x12a0(%rbp,%rax,8)
    d271:	ff 
    d272:	83 85 c4 e9 ff ff 01 	addl   $0x1,-0x163c(%rbp)
    d279:	83 bd c4 e9 ff ff 03 	cmpl   $0x3,-0x163c(%rbp)
    d280:	7e d9                	jle    d25b <func_7+0x57d>
    d282:	c7 05 d8 03 01 00 00 	movl   $0x0,0x103d8(%rip)        # 1d664 <g_2297>
    d289:	00 00 00 
    d28c:	e9 45 26 00 00       	jmpq   f8d6 <func_7+0x2bf8>
    d291:	c7 85 38 ea ff ff fc 	movl   $0xfffffffc,-0x15c8(%rbp)
    d298:	ff ff ff 
    d29b:	c6 85 8c e9 ff ff 09 	movb   $0x9,-0x1674(%rbp)
    d2a2:	c7 85 c8 e9 ff ff fd 	movl   $0xfffffffd,-0x1638(%rbp)
    d2a9:	ff ff ff 
    d2ac:	48 8d 85 c0 ef ff ff 	lea    -0x1040(%rbp),%rax
    d2b3:	48 8d 15 e6 b1 00 00 	lea    0xb1e6(%rip),%rdx        # 184a0 <g_4129+0x20>
    d2ba:	b9 24 00 00 00       	mov    $0x24,%ecx
    d2bf:	48 89 c7             	mov    %rax,%rdi
    d2c2:	48 89 d6             	mov    %rdx,%rsi
    d2c5:	f3 48 a5             	rep movsq %ds:(%rsi),%es:(%rdi)
    d2c8:	c7 85 cc e9 ff ff fb 	movl   $0xfffffffb,-0x1634(%rbp)
    d2cf:	ff ff ff 
    d2d2:	48 8d 05 cf 2e 01 00 	lea    0x12ecf(%rip),%rax        # 201a8 <g_1327>
    d2d9:	48 89 85 e0 eb ff ff 	mov    %rax,-0x1420(%rbp)
    d2e0:	48 8d 05 09 05 01 00 	lea    0x10509(%rip),%rax        # 1d7f0 <g_3446>
    d2e7:	48 89 85 e8 eb ff ff 	mov    %rax,-0x1418(%rbp)
    d2ee:	48 c7 85 f0 eb ff ff 	movq   $0x0,-0x1410(%rbp)
    d2f5:	00 00 00 00 
    d2f9:	48 8d 85 a8 ea ff ff 	lea    -0x1558(%rbp),%rax
    d300:	48 89 85 e0 ea ff ff 	mov    %rax,-0x1520(%rbp)
    d307:	48 8d 85 e0 ea ff ff 	lea    -0x1520(%rbp),%rax
    d30e:	48 89 85 f8 eb ff ff 	mov    %rax,-0x1408(%rbp)
    d315:	c6 85 8d e9 ff ff ee 	movb   $0xee,-0x1673(%rbp)
    d31c:	c6 85 8e e9 ff ff 00 	movb   $0x0,-0x1672(%rbp)
    d323:	48 8d 05 b6 2b 01 00 	lea    0x12bb6(%rip),%rax        # 1fee0 <g_568>
    d32a:	48 89 85 00 ec ff ff 	mov    %rax,-0x1400(%rbp)
    d331:	48 c7 85 08 ec ff ff 	movq   $0x0,-0x13f8(%rbp)
    d338:	00 00 00 00 
    d33c:	c7 85 d0 e9 ff ff 00 	movl   $0x0,-0x1630(%rbp)
    d343:	00 00 00 
    d346:	eb 1e                	jmp    d366 <func_7+0x688>
    d348:	8b 85 d0 e9 ff ff    	mov    -0x1630(%rbp),%eax
    d34e:	48 98                	cltq   
    d350:	48 8d 15 c9 44 01 00 	lea    0x144c9(%rip),%rdx        # 21820 <g_3553>
    d357:	48 89 94 c5 80 ed ff 	mov    %rdx,-0x1280(%rbp,%rax,8)
    d35e:	ff 
    d35f:	83 85 d0 e9 ff ff 01 	addl   $0x1,-0x1630(%rbp)
    d366:	83 bd d0 e9 ff ff 03 	cmpl   $0x3,-0x1630(%rbp)
    d36d:	7e d9                	jle    d348 <func_7+0x66a>
    d36f:	c7 85 d0 e9 ff ff 00 	movl   $0x0,-0x1630(%rbp)
    d376:	00 00 00 
    d379:	eb 21                	jmp    d39c <func_7+0x6be>
    d37b:	8b 85 d0 e9 ff ff    	mov    -0x1630(%rbp),%eax
    d381:	48 98                	cltq   
    d383:	48 bb b3 95 6b 64 20 	movabs $0x65faae20646b95b3,%rbx
    d38a:	ae fa 65 
    d38d:	48 89 9c c5 a0 ed ff 	mov    %rbx,-0x1260(%rbp,%rax,8)
    d394:	ff 
    d395:	83 85 d0 e9 ff ff 01 	addl   $0x1,-0x1630(%rbp)
    d39c:	83 bd d0 e9 ff ff 03 	cmpl   $0x3,-0x1630(%rbp)
    d3a3:	7e d6                	jle    d37b <func_7+0x69d>
    d3a5:	c6 05 6c fd 00 00 00 	movb   $0x0,0xfd6c(%rip)        # 1d118 <g_277>
    d3ac:	e9 dd 11 00 00       	jmpq   e58e <func_7+0x18b0>
    d3b1:	66 c7 85 98 e9 ff ff 	movw   $0xdbe1,-0x1668(%rbp)
    d3b8:	e1 db 
    d3ba:	48 8d 05 e5 fc 00 00 	lea    0xfce5(%rip),%rax        # 1d0a6 <g_153+0x6>
    d3c1:	48 89 85 10 ec ff ff 	mov    %rax,-0x13f0(%rbp)
    d3c8:	48 c7 85 18 ec ff ff 	movq   $0x0,-0x13e8(%rbp)
    d3cf:	00 00 00 00 
    d3d3:	48 8d 05 86 3b 01 00 	lea    0x13b86(%rip),%rax        # 20f60 <g_2668>
    d3da:	48 89 85 20 ec ff ff 	mov    %rax,-0x13e0(%rbp)
    d3e1:	48 8d 05 c0 2d 01 00 	lea    0x12dc0(%rip),%rax        # 201a8 <g_1327>
    d3e8:	48 89 85 28 ec ff ff 	mov    %rax,-0x13d8(%rbp)
    d3ef:	48 8d 05 66 01 01 00 	lea    0x10166(%rip),%rax        # 1d55c <g_1374+0xfc>
    d3f6:	48 89 85 f8 ea ff ff 	mov    %rax,-0x1508(%rbp)
    d3fd:	48 8d 85 f8 ea ff ff 	lea    -0x1508(%rbp),%rax
    d404:	48 89 85 00 eb ff ff 	mov    %rax,-0x1500(%rbp)
    d40b:	48 c7 85 30 ec ff ff 	movq   $0x7,-0x13d0(%rbp)
    d412:	07 00 00 00 
    d416:	48 8d 05 93 4b 01 00 	lea    0x14b93(%rip),%rax        # 21fb0 <g_2579>
    d41d:	48 89 85 38 ec ff ff 	mov    %rax,-0x13c8(%rbp)
    d424:	c6 85 8f e9 ff ff 4b 	movb   $0x4b,-0x1671(%rbp)
    d42b:	48 8d 85 40 ed ff ff 	lea    -0x12c0(%rbp),%rax
    d432:	48 83 c0 08          	add    $0x8,%rax
    d436:	48 89 85 40 ec ff ff 	mov    %rax,-0x13c0(%rbp)
    d43d:	c7 85 d4 e9 ff ff 00 	movl   $0x0,-0x162c(%rbp)
    d444:	00 00 00 
    d447:	eb 1e                	jmp    d467 <func_7+0x789>
    d449:	8b 85 d4 e9 ff ff    	mov    -0x162c(%rbp),%eax
    d44f:	48 98                	cltq   
    d451:	48 8d 15 80 01 01 00 	lea    0x10180(%rip),%rdx        # 1d5d8 <g_1515>
    d458:	48 89 94 c5 20 ed ff 	mov    %rdx,-0x12e0(%rbp,%rax,8)
    d45f:	ff 
    d460:	83 85 d4 e9 ff ff 01 	addl   $0x1,-0x162c(%rbp)
    d467:	83 bd d4 e9 ff ff 00 	cmpl   $0x0,-0x162c(%rbp)
    d46e:	7e d9                	jle    d449 <func_7+0x76b>
    d470:	c7 85 d4 e9 ff ff 00 	movl   $0x0,-0x162c(%rbp)
    d477:	00 00 00 
    d47a:	eb 46                	jmp    d4c2 <func_7+0x7e4>
    d47c:	c7 85 d8 e9 ff ff 00 	movl   $0x0,-0x1628(%rbp)
    d483:	00 00 00 
    d486:	eb 2a                	jmp    d4b2 <func_7+0x7d4>
    d488:	8b 85 d8 e9 ff ff    	mov    -0x1628(%rbp),%eax
    d48e:	48 63 d0             	movslq %eax,%rdx
    d491:	8b 85 d4 e9 ff ff    	mov    -0x162c(%rbp),%eax
    d497:	48 98                	cltq   
    d499:	48 01 c2             	add    %rax,%rdx
    d49c:	48 8d 85 00 eb ff ff 	lea    -0x1500(%rbp),%rax
    d4a3:	48 89 84 d5 20 ee ff 	mov    %rax,-0x11e0(%rbp,%rdx,8)
    d4aa:	ff 
    d4ab:	83 85 d8 e9 ff ff 01 	addl   $0x1,-0x1628(%rbp)
    d4b2:	83 bd d8 e9 ff ff 00 	cmpl   $0x0,-0x1628(%rbp)
    d4b9:	7e cd                	jle    d488 <func_7+0x7aa>
    d4bb:	83 85 d4 e9 ff ff 01 	addl   $0x1,-0x162c(%rbp)
    d4c2:	83 bd d4 e9 ff ff 00 	cmpl   $0x0,-0x162c(%rbp)
    d4c9:	7e b1                	jle    d47c <func_7+0x79e>
    d4cb:	8b 9d 78 e9 ff ff    	mov    -0x1688(%rbp),%ebx
    d4d1:	0f bf 85 7c e9 ff ff 	movswl -0x1684(%rbp),%eax
    d4d8:	f7 d0                	not    %eax
    d4da:	89 c2                	mov    %eax,%edx
    d4dc:	48 83 bd 58 eb ff ff 	cmpq   $0x0,-0x14a8(%rbp)
    d4e3:	00 
    d4e4:	0f 95 c0             	setne  %al
    d4e7:	0f b6 c0             	movzbl %al,%eax
    d4ea:	09 d0                	or     %edx,%eax
    d4ec:	85 c0                	test   %eax,%eax
    d4ee:	75 10                	jne    d500 <func_7+0x822>
    d4f0:	48 8b 05 91 37 01 00 	mov    0x13791(%rip),%rax        # 20c88 <g_2043>
    d4f7:	48 8b 00             	mov    (%rax),%rax
    d4fa:	8b 00                	mov    (%rax),%eax
    d4fc:	85 c0                	test   %eax,%eax
    d4fe:	74 07                	je     d507 <func_7+0x829>
    d500:	b8 01 00 00 00       	mov    $0x1,%eax
    d505:	eb 05                	jmp    d50c <func_7+0x82e>
    d507:	b8 00 00 00 00       	mov    $0x0,%eax
    d50c:	83 c8 06             	or     $0x6,%eax
    d50f:	89 c2                	mov    %eax,%edx
    d511:	0f bf 85 98 e9 ff ff 	movswl -0x1668(%rbp),%eax
    d518:	39 c2                	cmp    %eax,%edx
    d51a:	0f 95 c0             	setne  %al
    d51d:	0f b6 c0             	movzbl %al,%eax
    d520:	be 08 00 00 00       	mov    $0x8,%esi
    d525:	89 c7                	mov    %eax,%edi
    d527:	e8 37 d0 ff ff       	callq  a563 <safe_rshift_func_int16_t_s_u>
    d52c:	66 85 c0             	test   %ax,%ax
    d52f:	75 0a                	jne    d53b <func_7+0x85d>
    d531:	8b 85 18 ed ff ff    	mov    -0x12e8(%rbp),%eax
    d537:	85 c0                	test   %eax,%eax
    d539:	74 07                	je     d542 <func_7+0x864>
    d53b:	b8 01 00 00 00       	mov    $0x1,%eax
    d540:	eb 05                	jmp    d547 <func_7+0x869>
    d542:	b8 00 00 00 00       	mov    $0x0,%eax
    d547:	39 85 fc e9 ff ff    	cmp    %eax,-0x1604(%rbp)
    d54d:	0f 97 c2             	seta   %dl
    d550:	48 8b 05 79 29 01 00 	mov    0x12979(%rip),%rax        # 1fed0 <g_435>
    d557:	48 8b 00             	mov    (%rax),%rax
    d55a:	88 10                	mov    %dl,(%rax)
    d55c:	0f b6 00             	movzbl (%rax),%eax
    d55f:	84 c0                	test   %al,%al
    d561:	74 10                	je     d573 <func_7+0x895>
    d563:	83 bd 78 e9 ff ff 00 	cmpl   $0x0,-0x1688(%rbp)
    d56a:	74 07                	je     d573 <func_7+0x895>
    d56c:	b8 01 00 00 00       	mov    $0x1,%eax
    d571:	eb 05                	jmp    d578 <func_7+0x89a>
    d573:	b8 00 00 00 00       	mov    $0x0,%eax
    d578:	3b 85 38 ea ff ff    	cmp    -0x15c8(%rbp),%eax
    d57e:	7e 09                	jle    d589 <func_7+0x8ab>
    d580:	83 bd 78 e9 ff ff 00 	cmpl   $0x0,-0x1688(%rbp)
    d587:	74 07                	je     d590 <func_7+0x8b2>
    d589:	b8 01 00 00 00       	mov    $0x1,%eax
    d58e:	eb 05                	jmp    d595 <func_7+0x8b7>
    d590:	b8 00 00 00 00       	mov    $0x0,%eax
    d595:	39 85 78 e9 ff ff    	cmp    %eax,-0x1688(%rbp)
    d59b:	0f 96 c0             	setbe  %al
    d59e:	0f b6 d0             	movzbl %al,%edx
    d5a1:	48 8b 05 c0 28 01 00 	mov    0x128c0(%rip),%rax        # 1fe68 <g_152>
    d5a8:	0f b7 8d 7c e9 ff ff 	movzwl -0x1684(%rbp),%ecx
    d5af:	66 89 08             	mov    %cx,(%rax)
    d5b2:	0f b7 00             	movzwl (%rax),%eax
    d5b5:	0f b7 c0             	movzwl %ax,%eax
    d5b8:	89 d6                	mov    %edx,%esi
    d5ba:	89 c7                	mov    %eax,%edi
    d5bc:	e8 5e d7 ff ff       	callq  ad1f <safe_sub_func_uint16_t_u_u>
    d5c1:	48 8d 05 de fa 00 00 	lea    0xfade(%rip),%rax        # 1d0a6 <g_153+0x6>
    d5c8:	48 39 85 10 ec ff ff 	cmp    %rax,-0x13f0(%rbp)
    d5cf:	0f 94 c0             	sete   %al
    d5d2:	0f b6 c0             	movzbl %al,%eax
    d5d5:	be fa ff 00 00       	mov    $0xfffa,%esi
    d5da:	89 c7                	mov    %eax,%edi
    d5dc:	e8 ad d7 ff ff       	callq  ad8e <safe_div_func_uint16_t_u_u>
    d5e1:	48 89 de             	mov    %rbx,%rsi
    d5e4:	bf 01 00 00 00       	mov    $0x1,%edi
    d5e9:	e8 c6 d3 ff ff       	callq  a9b4 <safe_mod_func_int64_t_s_s>
    d5ee:	89 c2                	mov    %eax,%edx
    d5f0:	8b 85 9c e9 ff ff    	mov    -0x1664(%rbp),%eax
    d5f6:	09 d0                	or     %edx,%eax
    d5f8:	89 85 9c e9 ff ff    	mov    %eax,-0x1664(%rbp)
    d5fe:	48 8b 05 ab 28 01 00 	mov    0x128ab(%rip),%rax        # 1feb0 <g_327>
    d605:	0f b6 00             	movzbl (%rax),%eax
    d608:	0f be d8             	movsbl %al,%ebx
    d60b:	48 8b 85 20 ec ff ff 	mov    -0x13e0(%rbp),%rax
    d612:	48 c7 00 00 00 00 00 	movq   $0x0,(%rax)
    d619:	48 8b 05 b0 28 01 00 	mov    0x128b0(%rip),%rax        # 1fed0 <g_435>
    d620:	48 8b 00             	mov    (%rax),%rax
    d623:	0f b6 00             	movzbl (%rax),%eax
    d626:	0f be c0             	movsbl %al,%eax
    d629:	89 85 68 e9 ff ff    	mov    %eax,-0x1698(%rbp)
    d62f:	48 8b 05 7a 28 01 00 	mov    0x1287a(%rip),%rax        # 1feb0 <g_327>
    d636:	0f b6 00             	movzbl (%rax),%eax
    d639:	44 0f b6 e0          	movzbl %al,%r12d
    d63d:	48 8b 05 2c 28 01 00 	mov    0x1282c(%rip),%rax        # 1fe70 <g_166>
    d644:	44 8b 28             	mov    (%rax),%r13d
    d647:	44 8b b5 9c e9 ff ff 	mov    -0x1664(%rbp),%r14d
    d64e:	8b 85 78 e9 ff ff    	mov    -0x1688(%rbp),%eax
    d654:	44 0f b6 f8          	movzbl %al,%r15d
    d658:	48 8b 05 a9 34 01 00 	mov    0x134a9(%rip),%rax        # 20b08 <g_1917>
    d65f:	48 8b 00             	mov    (%rax),%rax
    d662:	48 8b 00             	mov    (%rax),%rax
    d665:	48 85 c0             	test   %rax,%rax
    d668:	75 3f                	jne    d6a9 <func_7+0x9cb>
    d66a:	48 8b 05 7f 2a 01 00 	mov    0x12a7f(%rip),%rax        # 200f0 <g_984>
    d671:	0f b7 00             	movzwl (%rax),%eax
    d674:	0f b7 d0             	movzwl %ax,%edx
    d677:	48 8b 05 a2 40 01 00 	mov    0x140a2(%rip),%rax        # 21720 <g_3153>
    d67e:	48 8b 00             	mov    (%rax),%rax
    d681:	48 8b 08             	mov    (%rax),%rcx
    d684:	48 8b 05 35 2c 01 00 	mov    0x12c35(%rip),%rax        # 202c0 <g_1480>
    d68b:	48 8b 00             	mov    (%rax),%rax
    d68e:	48 8b 09             	mov    (%rcx),%rcx
    d691:	48 89 08             	mov    %rcx,(%rax)
    d694:	48 8b 00             	mov    (%rax),%rax
    d697:	48 85 c0             	test   %rax,%rax
    d69a:	0f 94 c0             	sete   %al
    d69d:	0f b6 c0             	movzbl %al,%eax
    d6a0:	89 d6                	mov    %edx,%esi
    d6a2:	89 c7                	mov    %eax,%edi
    d6a4:	e8 76 d6 ff ff       	callq  ad1f <safe_sub_func_uint16_t_u_u>
    d6a9:	b8 01 00 00 00       	mov    $0x1,%eax
    d6ae:	3d fa 00 00 00       	cmp    $0xfa,%eax
    d6b3:	be f9 56 00 00       	mov    $0x56f9,%esi
    d6b8:	bf 9a bf 00 00       	mov    $0xbf9a,%edi
    d6bd:	e8 7b d6 ff ff       	callq  ad3d <safe_mul_func_uint16_t_u_u>
    d6c2:	0f b6 c0             	movzbl %al,%eax
    d6c5:	44 89 fe             	mov    %r15d,%esi
    d6c8:	89 c7                	mov    %eax,%edi
    d6ca:	e8 a9 d4 ff ff       	callq  ab78 <safe_sub_func_uint8_t_u_u>
    d6cf:	0f b6 c0             	movzbl %al,%eax
    d6d2:	44 89 f6             	mov    %r14d,%esi
    d6d5:	89 c7                	mov    %eax,%edi
    d6d7:	e8 29 cf ff ff       	callq  a605 <safe_sub_func_int32_t_s_s>
    d6dc:	44 89 ee             	mov    %r13d,%esi
    d6df:	89 c7                	mov    %eax,%edi
    d6e1:	e8 d0 ce ff ff       	callq  a5b6 <safe_add_func_int32_t_s_s>
    d6e6:	39 85 fc e9 ff ff    	cmp    %eax,-0x1604(%rbp)
    d6ec:	0f 93 c0             	setae  %al
    d6ef:	0f b6 c0             	movzbl %al,%eax
    d6f2:	44 89 e6             	mov    %r12d,%esi
    d6f5:	89 c7                	mov    %eax,%edi
    d6f7:	e8 97 d4 ff ff       	callq  ab93 <safe_mul_func_uint8_t_u_u>
    d6fc:	0f b6 c0             	movzbl %al,%eax
    d6ff:	0b 85 68 e9 ff ff    	or     -0x1698(%rbp),%eax
    d705:	39 85 78 e9 ff ff    	cmp    %eax,-0x1688(%rbp)
    d70b:	75 07                	jne    d714 <func_7+0xa36>
    d70d:	83 bd 74 e9 ff ff 00 	cmpl   $0x0,-0x168c(%rbp)
    d714:	48 8b 05 7d 2a 01 00 	mov    0x12a7d(%rip),%rax        # 20198 <g_1239>
    d71b:	8b 10                	mov    (%rax),%edx
    d71d:	48 8b 05 74 35 01 00 	mov    0x13574(%rip),%rax        # 20c98 <g_2222>
    d724:	8b 00                	mov    (%rax),%eax
    d726:	39 c2                	cmp    %eax,%edx
    d728:	0f 9e c0             	setle  %al
    d72b:	0f b6 c0             	movzbl %al,%eax
    d72e:	89 de                	mov    %ebx,%esi
    d730:	89 c7                	mov    %eax,%edi
    d732:	e8 db ca ff ff       	callq  a212 <safe_mul_func_int8_t_s_s>
    d737:	84 c0                	test   %al,%al
    d739:	74 13                	je     d74e <func_7+0xa70>
    d73b:	66 83 bd 7c e9 ff ff 	cmpw   $0x0,-0x1684(%rbp)
    d742:	00 
    d743:	0f 84 b4 06 00 00    	je     ddfd <func_7+0x111f>
    d749:	e9 4f 0e 00 00       	jmpq   e59d <func_7+0x18bf>
    d74e:	48 8d 85 e0 f7 ff ff 	lea    -0x820(%rbp),%rax
    d755:	48 8d 15 44 05 01 00 	lea    0x10544(%rip),%rdx        # 1dca0 <g_4132+0x10>
    d75c:	b9 d8 00 00 00       	mov    $0xd8,%ecx
    d761:	48 89 c7             	mov    %rax,%rdi
    d764:	48 89 d6             	mov    %rdx,%rsi
    d767:	f3 48 a5             	rep movsq %ds:(%rsi),%es:(%rdi)
    d76a:	48 8d 85 e0 f7 ff ff 	lea    -0x820(%rbp),%rax
    d771:	48 83 c0 20          	add    $0x20,%rax
    d775:	48 89 85 48 ec ff ff 	mov    %rax,-0x13b8(%rbp)
    d77c:	c7 85 3c ea ff ff 00 	movl   $0x0,-0x15c4(%rbp)
    d783:	00 00 00 
    d786:	c7 85 40 ea ff ff 01 	movl   $0x1,-0x15c0(%rbp)
    d78d:	00 00 00 
    d790:	c7 85 60 ee ff ff 02 	movl   $0x2,-0x11a0(%rbp)
    d797:	00 00 00 
    d79a:	c7 85 64 ee ff ff 02 	movl   $0x2,-0x119c(%rbp)
    d7a1:	00 00 00 
    d7a4:	c7 85 68 ee ff ff b7 	movl   $0x4c17b5b7,-0x1198(%rbp)
    d7ab:	b5 17 4c 
    d7ae:	c7 85 6c ee ff ff 02 	movl   $0x2,-0x1194(%rbp)
    d7b5:	00 00 00 
    d7b8:	c7 85 70 ee ff ff 02 	movl   $0x2,-0x1190(%rbp)
    d7bf:	00 00 00 
    d7c2:	c7 85 74 ee ff ff b7 	movl   $0x4c17b5b7,-0x118c(%rbp)
    d7c9:	b5 17 4c 
    d7cc:	c7 85 e0 f0 ff ff 27 	movl   $0xa4f9c627,-0xf20(%rbp)
    d7d3:	c6 f9 a4 
    d7d6:	66 c7 85 e4 f0 ff ff 	movw   $0xc6f9,-0xf1c(%rbp)
    d7dd:	f9 c6 
    d7df:	c7 85 e6 f0 ff ff fd 	movl   $0x65f927fd,-0xf1a(%rbp)
    d7e6:	27 f9 65 
    d7e9:	66 c7 85 ea f0 ff ff 	movw   $0xa4ff,-0xf16(%rbp)
    d7f0:	ff a4 
    d7f2:	c7 85 ec f0 ff ff ef 	movl   $0xc6c665ef,-0xf14(%rbp)
    d7f9:	65 c6 c6 
    d7fc:	66 c7 85 f0 f0 ff ff 	movw   $0xef65,-0xf10(%rbp)
    d803:	65 ef 
    d805:	c7 85 f2 f0 ff ff c6 	movl   $0xffef65c6,-0xf0e(%rbp)
    d80c:	65 ef ff 
    d80f:	66 c7 85 f6 f0 ff ff 	movw   $0xf9ff,-0xf0a(%rbp)
    d816:	ff f9 
    d818:	c7 85 f8 f0 ff ff f9 	movl   $0x27fd27f9,-0xf08(%rbp)
    d81f:	27 fd 27 
    d822:	66 c7 85 fc f0 ff ff 	movw   $0x65f9,-0xf04(%rbp)
    d829:	f9 65 
    d82b:	c7 85 fe f0 ff ff f9 	movl   $0xff27c6f9,-0xf02(%rbp)
    d832:	c6 27 ff 
    d835:	66 c7 85 02 f1 ff ff 	movw   $0xfbfb,-0xefe(%rbp)
    d83c:	fb fb 
    d83e:	c7 85 04 f1 ff ff c6 	movl   $0xc6ffffc6,-0xefc(%rbp)
    d845:	ff ff c6 
    d848:	66 c7 85 08 f1 ff ff 	movw   $0xfbfd,-0xef8(%rbp)
    d84f:	fd fb 
    d851:	c7 85 0a f1 ff ff ef 	movl   $0x6527fbef,-0xef6(%rbp)
    d858:	fb 27 65 
    d85b:	66 c7 85 0e f1 ff ff 	movw   $0x65ff,-0xef2(%rbp)
    d862:	ff 65 
    d864:	c7 85 10 f1 ff ff fd 	movl   $0xa4fd75fd,-0xef0(%rbp)
    d86b:	75 fd a4 
    d86e:	66 c7 85 14 f1 ff ff 	movw   $0xf9ff,-0xeec(%rbp)
    d875:	ff f9 
    d877:	c7 85 16 f1 ff ff 27 	movl   $0xfdeffb27,-0xeea(%rbp)
    d87e:	fb ef fd 
    d881:	66 c7 85 1a f1 ff ff 	movw   $0xeffd,-0xee6(%rbp)
    d888:	fd ef 
    d88a:	48 8d 05 87 fd 00 00 	lea    0xfd87(%rip),%rax        # 1d618 <g_1751>
    d891:	48 89 85 50 ec ff ff 	mov    %rax,-0x13b0(%rbp)
    d898:	48 8d 85 00 eb ff ff 	lea    -0x1500(%rbp),%rax
    d89f:	48 89 85 58 ec ff ff 	mov    %rax,-0x13a8(%rbp)
    d8a6:	8b 9d 38 ea ff ff    	mov    -0x15c8(%rbp),%ebx
    d8ac:	48 8b 85 60 eb ff ff 	mov    -0x14a0(%rbp),%rax
    d8b3:	48 89 05 06 3f 01 00 	mov    %rax,0x13f06(%rip)        # 217c0 <g_3495>
    d8ba:	48 8b 05 ff 3e 01 00 	mov    0x13eff(%rip),%rax        # 217c0 <g_3495>
    d8c1:	48 8d 15 08 36 01 00 	lea    0x13608(%rip),%rdx        # 20ed0 <g_2542>
    d8c8:	48 39 d0             	cmp    %rdx,%rax
    d8cb:	0f 94 c0             	sete   %al
    d8ce:	0f b6 d0             	movzbl %al,%edx
    d8d1:	8b 85 fc e9 ff ff    	mov    -0x1604(%rbp),%eax
    d8d7:	0f b6 c0             	movzbl %al,%eax
    d8da:	89 d6                	mov    %edx,%esi
    d8dc:	89 c7                	mov    %eax,%edi
    d8de:	e8 db d3 ff ff       	callq  acbe <safe_rshift_func_uint8_t_u_u>
    d8e3:	0f b6 c0             	movzbl %al,%eax
    d8e6:	89 c6                	mov    %eax,%esi
    d8e8:	bf 41 00 00 00       	mov    $0x41,%edi
    d8ed:	e8 fc c9 ff ff       	callq  a2ee <safe_lshift_func_int8_t_s_u>
    d8f2:	0f be c0             	movsbl %al,%eax
    d8f5:	89 de                	mov    %ebx,%esi
    d8f7:	89 c7                	mov    %eax,%edi
    d8f9:	e8 ba d5 ff ff       	callq  aeb8 <safe_add_func_uint32_t_u_u>
    d8fe:	8b 95 74 e9 ff ff    	mov    -0x168c(%rbp),%edx
    d904:	39 d0                	cmp    %edx,%eax
    d906:	0f 93 c0             	setae  %al
    d909:	0f b6 d8             	movzbl %al,%ebx
    d90c:	48 8b 85 48 ec ff ff 	mov    -0x13b8(%rbp),%rax
    d913:	48 8d 15 be 27 01 00 	lea    0x127be(%rip),%rdx        # 200d8 <g_732>
    d91a:	48 89 10             	mov    %rdx,(%rax)
    d91d:	48 8b 85 48 ec ff ff 	mov    -0x13b8(%rbp),%rax
    d924:	48 8b 00             	mov    (%rax),%rax
    d927:	48 8d 15 aa 27 01 00 	lea    0x127aa(%rip),%rdx        # 200d8 <g_732>
    d92e:	48 39 d0             	cmp    %rdx,%rax
    d931:	0f 95 c2             	setne  %dl
    d934:	48 8b 05 6d 28 01 00 	mov    0x1286d(%rip),%rax        # 201a8 <g_1327>
    d93b:	0f b6 d2             	movzbl %dl,%edx
    d93e:	48 89 10             	mov    %rdx,(%rax)
    d941:	48 8b 00             	mov    (%rax),%rax
    d944:	48 85 c0             	test   %rax,%rax
    d947:	75 0d                	jne    d956 <func_7+0xc78>
    d949:	48 8b 05 58 28 01 00 	mov    0x12858(%rip),%rax        # 201a8 <g_1327>
    d950:	48 8b 00             	mov    (%rax),%rax
    d953:	48 85 c0             	test   %rax,%rax
    d956:	48 8b 05 8b 33 01 00 	mov    0x1338b(%rip),%rax        # 20ce8 <g_2273>
    d95d:	48 8b 00             	mov    (%rax),%rax
    d960:	0f b7 95 7c e9 ff ff 	movzwl -0x1684(%rbp),%edx
    d967:	88 10                	mov    %dl,(%rax)
    d969:	0f b6 00             	movzbl (%rax),%eax
    d96c:	0f b6 c0             	movzbl %al,%eax
    d96f:	89 c6                	mov    %eax,%esi
    d971:	bf ff 00 00 00       	mov    $0xff,%edi
    d976:	e8 fd d1 ff ff       	callq  ab78 <safe_sub_func_uint8_t_u_u>
    d97b:	0f b6 c0             	movzbl %al,%eax
    d97e:	48 35 24 5d 00 00    	xor    $0x5d24,%rax
    d984:	48 39 c3             	cmp    %rax,%rbx
    d987:	0f 8c 6b 01 00 00    	jl     daf8 <func_7+0xe1a>
    d98d:	c7 85 44 ea ff ff d0 	movl   $0xaa2b71d0,-0x15bc(%rbp)
    d994:	71 2b aa 
    d997:	8b 85 fc e9 ff ff    	mov    -0x1604(%rbp),%eax
    d99d:	0f b6 d8             	movzbl %al,%ebx
    d9a0:	44 0f be ad 8c e9 ff 	movsbl -0x1674(%rbp),%r13d
    d9a7:	ff 
    d9a8:	48 8b 05 01 28 01 00 	mov    0x12801(%rip),%rax        # 201b0 <g_1366>
    d9af:	48 8b 00             	mov    (%rax),%rax
    d9b2:	48 8b 00             	mov    (%rax),%rax
    d9b5:	0f b6 00             	movzbl (%rax),%eax
    d9b8:	44 0f be e0          	movsbl %al,%r12d
    d9bc:	8b 85 78 e9 ff ff    	mov    -0x1688(%rbp),%eax
    d9c2:	0f b7 d0             	movzwl %ax,%edx
    d9c5:	8b 85 9c e9 ff ff    	mov    -0x1664(%rbp),%eax
    d9cb:	0f b7 c0             	movzwl %ax,%eax
    d9ce:	89 d6                	mov    %edx,%esi
    d9d0:	89 c7                	mov    %eax,%edi
    d9d2:	e8 b7 d3 ff ff       	callq  ad8e <safe_div_func_uint16_t_u_u>
    d9d7:	83 bd 74 e9 ff ff fe 	cmpl   $0xfffffffe,-0x168c(%rbp)
    d9de:	0f 9c c0             	setl   %al
    d9e1:	0f b6 c0             	movzbl %al,%eax
    d9e4:	44 89 e6             	mov    %r12d,%esi
    d9e7:	89 c7                	mov    %eax,%edi
    d9e9:	e8 24 c8 ff ff       	callq  a212 <safe_mul_func_int8_t_s_s>
    d9ee:	ba 01 00 00 00       	mov    $0x1,%edx
    d9f3:	48 8b 05 d6 34 01 00 	mov    0x134d6(%rip),%rax        # 20ed0 <g_2542>
    d9fa:	48 8b 00             	mov    (%rax),%rax
    d9fd:	48 8b 00             	mov    (%rax),%rax
    da00:	48 8b 00             	mov    (%rax),%rax
    da03:	89 10                	mov    %edx,(%rax)
    da05:	8b 00                	mov    (%rax),%eax
    da07:	89 85 9c e9 ff ff    	mov    %eax,-0x1664(%rbp)
    da0d:	8b 85 9c e9 ff ff    	mov    -0x1664(%rbp),%eax
    da13:	f7 d0                	not    %eax
    da15:	c1 e8 1f             	shr    $0x1f,%eax
    da18:	0f b6 c0             	movzbl %al,%eax
    da1b:	23 85 74 e9 ff ff    	and    -0x168c(%rbp),%eax
    da21:	25 ea cf 81 64       	and    $0x6481cfea,%eax
    da26:	89 c6                	mov    %eax,%esi
    da28:	bf 7f 38 7b 27       	mov    $0x277b387f,%edi
    da2d:	e8 cd cc ff ff       	callq  a6ff <safe_div_func_int32_t_s_s>
    da32:	44 89 ea             	mov    %r13d,%edx
    da35:	09 c2                	or     %eax,%edx
    da37:	0f be 85 8c e9 ff ff 	movsbl -0x1674(%rbp),%eax
    da3e:	39 c2                	cmp    %eax,%edx
    da40:	0f 9f c0             	setg   %al
    da43:	0f b6 c0             	movzbl %al,%eax
    da46:	89 de                	mov    %ebx,%esi
    da48:	89 c7                	mov    %eax,%edi
    da4a:	e8 8c d1 ff ff       	callq  abdb <safe_div_func_uint8_t_u_u>
    da4f:	be cf ff ff ff       	mov    $0xffffffcf,%esi
    da54:	bf 00 00 00 00       	mov    $0x0,%edi
    da59:	e8 b4 c7 ff ff       	callq  a212 <safe_mul_func_int8_t_s_s>
    da5e:	0f be c0             	movsbl %al,%eax
    da61:	be 09 00 00 00       	mov    $0x9,%esi
    da66:	89 c7                	mov    %eax,%edi
    da68:	e8 bd ca ff ff       	callq  a52a <safe_rshift_func_int16_t_s_s>
    da6d:	48 8b 15 fc 23 01 00 	mov    0x123fc(%rip),%rdx        # 1fe70 <g_166>
    da74:	8b 0a                	mov    (%rdx),%ecx
    da76:	0f bf d0             	movswl %ax,%edx
    da79:	48 8b 05 f0 23 01 00 	mov    0x123f0(%rip),%rax        # 1fe70 <g_166>
    da80:	09 ca                	or     %ecx,%edx
    da82:	89 10                	mov    %edx,(%rax)
    da84:	83 bd 44 ea ff ff 00 	cmpl   $0x0,-0x15bc(%rbp)
    da8b:	0f 85 60 03 00 00    	jne    ddf1 <func_7+0x1113>
    da91:	48 8b 05 10 27 01 00 	mov    0x12710(%rip),%rax        # 201a8 <g_1327>
    da98:	48 8b 00             	mov    (%rax),%rax
    da9b:	48 89 c6             	mov    %rax,%rsi
    da9e:	48 bf 52 0e d9 a7 5d 	movabs $0x4f98455da7d90e52,%rdi
    daa5:	45 98 4f 
    daa8:	e8 fb cd ff ff       	callq  a8a8 <safe_sub_func_int64_t_s_s>
    daad:	48 89 c3             	mov    %rax,%rbx
    dab0:	8b 85 18 ed ff ff    	mov    -0x12e8(%rbp),%eax
    dab6:	48 63 d0             	movslq %eax,%rdx
    dab9:	48 8b 85 60 eb ff ff 	mov    -0x14a0(%rbp),%rax
    dac0:	48 8b 00             	mov    (%rax),%rax
    dac3:	48 8b 00             	mov    (%rax),%rax
    dac6:	48 8b 00             	mov    (%rax),%rax
    dac9:	48 8b 00             	mov    (%rax),%rax
    dacc:	48 39 85 18 eb ff ff 	cmp    %rax,-0x14e8(%rbp)
    dad3:	0f 95 c0             	setne  %al
    dad6:	0f b6 c0             	movzbl %al,%eax
    dad9:	48 89 d6             	mov    %rdx,%rsi
    dadc:	48 89 c7             	mov    %rax,%rdi
    dadf:	e8 13 cf ff ff       	callq  a9f7 <safe_div_func_int64_t_s_s>
    dae4:	48 39 c3             	cmp    %rax,%rbx
    dae7:	0f 94 c2             	sete   %dl
    daea:	48 8b 05 7f 23 01 00 	mov    0x1237f(%rip),%rax        # 1fe70 <g_166>
    daf1:	0f b6 d2             	movzbl %dl,%edx
    daf4:	89 10                	mov    %edx,(%rax)
    daf6:	eb 14                	jmp    db0c <func_7+0xe2e>
    daf8:	48 8b 05 a1 26 01 00 	mov    0x126a1(%rip),%rax        # 201a0 <g_1323>
    daff:	48 8b 00             	mov    (%rax),%rax
    db02:	8b 00                	mov    (%rax),%eax
    db04:	85 c0                	test   %eax,%eax
    db06:	0f 85 eb 02 00 00    	jne    ddf7 <func_7+0x1119>
    db0c:	48 8b 05 7d 26 01 00 	mov    0x1267d(%rip),%rax        # 20190 <g_1100>
    db13:	48 8b 00             	mov    (%rax),%rax
    db16:	8b 00                	mov    (%rax),%eax
    db18:	85 c0                	test   %eax,%eax
    db1a:	74 74                	je     db90 <func_7+0xeb2>
    db1c:	c7 85 48 ea ff ff 00 	movl   $0x0,-0x15b8(%rbp)
    db23:	00 00 00 
    db26:	c6 85 91 e9 ff ff 00 	movb   $0x0,-0x166f(%rbp)
    db2d:	c7 85 4c ea ff ff 5e 	movl   $0x786bf65e,-0x15b4(%rbp)
    db34:	f6 6b 78 
    db37:	c7 85 b0 ee ff ff 01 	movl   $0x1,-0x1150(%rbp)
    db3e:	00 00 00 
    db41:	c7 85 b4 ee ff ff 01 	movl   $0x1,-0x114c(%rbp)
    db48:	00 00 00 
    db4b:	c7 85 b8 ee ff ff f7 	movl   $0xfffffff7,-0x1148(%rbp)
    db52:	ff ff ff 
    db55:	c7 85 bc ee ff ff 01 	movl   $0x1,-0x1144(%rbp)
    db5c:	00 00 00 
    db5f:	c7 85 c0 ee ff ff 01 	movl   $0x1,-0x1140(%rbp)
    db66:	00 00 00 
    db69:	c7 85 c4 ee ff ff f7 	movl   $0xfffffff7,-0x113c(%rbp)
    db70:	ff ff ff 
    db73:	c7 85 c8 ee ff ff 01 	movl   $0x1,-0x1138(%rbp)
    db7a:	00 00 00 
    db7d:	80 85 91 e9 ff ff 01 	addb   $0x1,-0x166f(%rbp)
    db84:	83 ad cc e9 ff ff 01 	subl   $0x1,-0x1634(%rbp)
    db8b:	e9 47 02 00 00       	jmpq   ddd7 <func_7+0x10f9>
    db90:	c6 85 90 e9 ff ff ff 	movb   $0xff,-0x1670(%rbp)
    db97:	c7 85 08 eb ff ff 08 	movl   $0xc81f808,-0x14f8(%rbp)
    db9e:	f8 81 0c 
    dba1:	8b 9d b0 e9 ff ff    	mov    -0x1650(%rbp),%ebx
    dba7:	8b 85 78 e9 ff ff    	mov    -0x1688(%rbp),%eax
    dbad:	48 89 85 68 e9 ff ff 	mov    %rax,-0x1698(%rbp)
    dbb4:	4c 0f bf a5 7c e9 ff 	movswq -0x1684(%rbp),%r12
    dbbb:	ff 
    dbbc:	8b 85 74 e9 ff ff    	mov    -0x168c(%rbp),%eax
    dbc2:	48 98                	cltq   
    dbc4:	48 89 85 60 e9 ff ff 	mov    %rax,-0x16a0(%rbp)
    dbcb:	4c 0f be bd 90 e9 ff 	movsbq -0x1670(%rbp),%r15
    dbd2:	ff 
    dbd3:	48 8b 05 e6 32 01 00 	mov    0x132e6(%rip),%rax        # 20ec0 <g_2544>
    dbda:	4c 8b 30             	mov    (%rax),%r14
    dbdd:	4c 8b ad 20 ed ff ff 	mov    -0x12e0(%rbp),%r13
    dbe4:	48 8b 85 30 ec ff ff 	mov    -0x13d0(%rbp),%rax
    dbeb:	0f be c0             	movsbl %al,%eax
    dbee:	89 85 70 e9 ff ff    	mov    %eax,-0x1690(%rbp)
    dbf4:	8b 85 3c ea ff ff    	mov    -0x15c4(%rbp),%eax
    dbfa:	48 98                	cltq   
    dbfc:	48 89 85 58 e9 ff ff 	mov    %rax,-0x16a8(%rbp)
    dc03:	48 8b 05 9e 25 01 00 	mov    0x1259e(%rip),%rax        # 201a8 <g_1327>
    dc0a:	48 0f bf 95 7c e9 ff 	movswq -0x1684(%rbp),%rdx
    dc11:	ff 
    dc12:	48 89 10             	mov    %rdx,(%rax)
    dc15:	48 8b 00             	mov    (%rax),%rax
    dc18:	48 85 c0             	test   %rax,%rax
    dc1b:	0f 84 cc 00 00 00    	je     dced <func_7+0x100f>
    dc21:	8b 85 38 ea ff ff    	mov    -0x15c8(%rbp),%eax
    dc27:	48 98                	cltq   
    dc29:	48 89 85 50 e9 ff ff 	mov    %rax,-0x16b0(%rbp)
    dc30:	8b 8d 78 e9 ff ff    	mov    -0x1688(%rbp),%ecx
    dc36:	48 89 8d 48 e9 ff ff 	mov    %rcx,-0x16b8(%rbp)
    dc3d:	8b 85 1c ed ff ff    	mov    -0x12e4(%rbp),%eax
    dc43:	0f b6 c8             	movzbl %al,%ecx
    dc46:	48 8b 85 e0 eb ff ff 	mov    -0x1420(%rbp),%rax
    dc4d:	48 3b 85 28 ec ff ff 	cmp    -0x13d8(%rbp),%rax
    dc54:	0f 94 c0             	sete   %al
    dc57:	0f b6 c0             	movzbl %al,%eax
    dc5a:	48 8b 95 e8 eb ff ff 	mov    -0x1418(%rbp),%rdx
    dc61:	89 ce                	mov    %ecx,%esi
    dc63:	48 89 c7             	mov    %rax,%rdi
    dc66:	e8 6c 59 00 00       	callq  135d7 <func_45>
    dc6b:	48 89 c2             	mov    %rax,%rdx
    dc6e:	48 8b 85 60 eb ff ff 	mov    -0x14a0(%rbp),%rax
    dc75:	48 8b 00             	mov    (%rax),%rax
    dc78:	48 8b 00             	mov    (%rax),%rax
    dc7b:	48 8b 00             	mov    (%rax),%rax
    dc7e:	48 8b 30             	mov    (%rax),%rsi
    dc81:	48 8b 05 38 3b 01 00 	mov    0x13b38(%rip),%rax        # 217c0 <g_3495>
    dc88:	48 8b 00             	mov    (%rax),%rax
    dc8b:	48 8b 00             	mov    (%rax),%rax
    dc8e:	48 8b 00             	mov    (%rax),%rax
    dc91:	48 8b 00             	mov    (%rax),%rax
    dc94:	4c 8b 85 50 e9 ff ff 	mov    -0x16b0(%rbp),%r8
    dc9b:	48 8b 8d 48 e9 ff ff 	mov    -0x16b8(%rbp),%rcx
    dca2:	48 89 c7             	mov    %rax,%rdi
    dca5:	e8 22 61 00 00       	callq  13dcc <func_58>
    dcaa:	48 8b 05 c7 3d 01 00 	mov    0x13dc7(%rip),%rax        # 21a78 <g_3552+0x238>
    dcb1:	48 89 85 98 ed ff ff 	mov    %rax,-0x1268(%rbp)
    dcb8:	48 8b 85 98 ed ff ff 	mov    -0x1268(%rbp),%rax
    dcbf:	48 8d 15 0a 32 01 00 	lea    0x1320a(%rip),%rdx        # 20ed0 <g_2542>
    dcc6:	48 39 d0             	cmp    %rdx,%rax
    dcc9:	0f 95 c2             	setne  %dl
    dccc:	48 8b 85 58 eb ff ff 	mov    -0x14a8(%rbp),%rax
    dcd3:	48 8b 00             	mov    (%rax),%rax
    dcd6:	0f b6 d2             	movzbl %dl,%edx
    dcd9:	48 89 10             	mov    %rdx,(%rax)
    dcdc:	48 8b 00             	mov    (%rax),%rax
    dcdf:	89 85 30 f0 ff ff    	mov    %eax,-0xfd0(%rbp)
    dce5:	8b 85 30 f0 ff ff    	mov    -0xfd0(%rbp),%eax
    dceb:	85 c0                	test   %eax,%eax
    dced:	be 0c 00 00 00       	mov    $0xc,%esi
    dcf2:	bf 00 00 00 00       	mov    $0x0,%edi
    dcf7:	e8 7e d1 ff ff       	callq  ae7a <safe_rshift_func_uint16_t_u_u>
    dcfc:	0f b6 c0             	movzbl %al,%eax
    dcff:	8b 95 70 e9 ff ff    	mov    -0x1690(%rbp),%edx
    dd05:	48 8b b5 58 e9 ff ff 	mov    -0x16a8(%rbp),%rsi
    dd0c:	89 c7                	mov    %eax,%edi
    dd0e:	e8 59 40 00 00       	callq  11d6c <func_34>
    dd13:	48 89 85 a0 ea ff ff 	mov    %rax,-0x1560(%rbp)
    dd1a:	48 8b 85 a0 ea ff ff 	mov    -0x1560(%rbp),%rax
    dd21:	4c 8b 85 60 e9 ff ff 	mov    -0x16a0(%rbp),%r8
    dd28:	4c 89 f9             	mov    %r15,%rcx
    dd2b:	4c 89 f2             	mov    %r14,%rdx
    dd2e:	4c 89 ee             	mov    %r13,%rsi
    dd31:	48 89 c7             	mov    %rax,%rdi
    dd34:	e8 93 60 00 00       	callq  13dcc <func_58>
    dd39:	be 01 00 00 00       	mov    $0x1,%esi
    dd3e:	bf fd 00 00 00       	mov    $0xfd,%edi
    dd43:	e8 12 ce ff ff       	callq  ab5a <safe_add_func_uint8_t_u_u>
    dd48:	48 8b 05 91 31 01 00 	mov    0x13191(%rip),%rax        # 20ee0 <g_2590>
    dd4f:	48 8b 00             	mov    (%rax),%rax
    dd52:	48 8b 10             	mov    (%rax),%rdx
    dd55:	48 8b 85 60 eb ff ff 	mov    -0x14a0(%rbp),%rax
    dd5c:	48 8b 00             	mov    (%rax),%rax
    dd5f:	48 8b 00             	mov    (%rax),%rax
    dd62:	48 8b 00             	mov    (%rax),%rax
    dd65:	48 8b 30             	mov    (%rax),%rsi
    dd68:	48 8b 85 50 ec ff ff 	mov    -0x13b0(%rbp),%rax
    dd6f:	4c 8b 85 68 e9 ff ff 	mov    -0x1698(%rbp),%r8
    dd76:	4c 89 e1             	mov    %r12,%rcx
    dd79:	48 89 c7             	mov    %rax,%rdi
    dd7c:	e8 4b 60 00 00       	callq  13dcc <func_58>
    dd81:	8b 85 cc f0 ff ff    	mov    -0xf34(%rbp),%eax
    dd87:	89 de                	mov    %ebx,%esi
    dd89:	89 c7                	mov    %eax,%edi
    dd8b:	e8 75 c8 ff ff       	callq  a605 <safe_sub_func_int32_t_s_s>
    dd90:	48 8b 15 59 23 01 00 	mov    0x12359(%rip),%rdx        # 200f0 <g_984>
    dd97:	0f b7 12             	movzwl (%rdx),%edx
    dd9a:	0f bf d2             	movswl %dx,%edx
    dd9d:	39 d0                	cmp    %edx,%eax
    dd9f:	0f 9e c0             	setle  %al
    dda2:	0f b6 d0             	movzbl %al,%edx
    dda5:	8b 85 08 eb ff ff    	mov    -0x14f8(%rbp),%eax
    ddab:	21 d0                	and    %edx,%eax
    ddad:	89 85 08 eb ff ff    	mov    %eax,-0x14f8(%rbp)
    ddb3:	48 8d 85 08 eb ff ff 	lea    -0x14f8(%rbp),%rax
    ddba:	48 89 85 a8 ea ff ff 	mov    %rax,-0x1558(%rbp)
    ddc1:	48 8b 05 f8 2c 01 00 	mov    0x12cf8(%rip),%rax        # 20ac0 <g_1661>
    ddc8:	48 8b 00             	mov    (%rax),%rax
    ddcb:	8b 00                	mov    (%rax),%eax
    ddcd:	85 c0                	test   %eax,%eax
    ddcf:	74 06                	je     ddd7 <func_7+0x10f9>
    ddd1:	90                   	nop
    ddd2:	e9 c6 07 00 00       	jmpq   e59d <func_7+0x18bf>
    ddd7:	48 8b 05 92 20 01 00 	mov    0x12092(%rip),%rax        # 1fe70 <g_166>
    ddde:	8b 10                	mov    (%rax),%edx
    dde0:	48 8b 05 89 20 01 00 	mov    0x12089(%rip),%rax        # 1fe70 <g_166>
    dde7:	81 ca a5 cf 26 6a    	or     $0x6a26cfa5,%edx
    dded:	89 10                	mov    %edx,(%rax)
    ddef:	eb 0c                	jmp    ddfd <func_7+0x111f>
    ddf1:	90                   	nop
    ddf2:	e9 a6 07 00 00       	jmpq   e59d <func_7+0x18bf>
    ddf7:	90                   	nop
    ddf8:	e9 a0 07 00 00       	jmpq   e59d <func_7+0x18bf>
    ddfd:	48 8b 05 6c 20 01 00 	mov    0x1206c(%rip),%rax        # 1fe70 <g_166>
    de04:	8b 10                	mov    (%rax),%edx
    de06:	48 8b 05 63 20 01 00 	mov    0x12063(%rip),%rax        # 1fe70 <g_166>
    de0d:	33 95 74 e9 ff ff    	xor    -0x168c(%rbp),%edx
    de13:	89 10                	mov    %edx,(%rax)
    de15:	8b 00                	mov    (%rax),%eax
    de17:	85 c0                	test   %eax,%eax
    de19:	74 13                	je     de2e <func_7+0x1150>
    de1b:	8b 85 a8 e9 ff ff    	mov    -0x1658(%rbp),%eax
    de21:	85 c0                	test   %eax,%eax
    de23:	0f 84 49 02 00 00    	je     e072 <func_7+0x1394>
    de29:	e9 6f 07 00 00       	jmpq   e59d <func_7+0x18bf>
    de2e:	48 c7 85 e0 f0 ff ff 	movq   $0x7,-0xf20(%rbp)
    de35:	07 00 00 00 
    de39:	48 c7 85 e8 f0 ff ff 	movq   $0x7,-0xf18(%rbp)
    de40:	07 00 00 00 
    de44:	48 c7 85 f0 f0 ff ff 	movq   $0x7,-0xf10(%rbp)
    de4b:	07 00 00 00 
    de4f:	48 c7 85 f8 f0 ff ff 	movq   $0x7,-0xf08(%rbp)
    de56:	07 00 00 00 
    de5a:	48 c7 85 00 f1 ff ff 	movq   $0x7,-0xf00(%rbp)
    de61:	07 00 00 00 
    de65:	48 c7 85 08 f1 ff ff 	movq   $0x7,-0xef8(%rbp)
    de6c:	07 00 00 00 
    de70:	48 c7 85 10 f1 ff ff 	movq   $0x7,-0xef0(%rbp)
    de77:	07 00 00 00 
    de7b:	48 c7 85 18 f1 ff ff 	movq   $0x7,-0xee8(%rbp)
    de82:	07 00 00 00 
    de86:	48 c7 85 20 f1 ff ff 	movq   $0x7,-0xee0(%rbp)
    de8d:	07 00 00 00 
    de91:	48 8d 85 e0 f7 ff ff 	lea    -0x820(%rbp),%rax
    de98:	48 8d 15 c1 04 01 00 	lea    0x104c1(%rip),%rdx        # 1e360 <g_4132+0x6d0>
    de9f:	b9 fc 00 00 00       	mov    $0xfc,%ecx
    dea4:	48 89 c7             	mov    %rax,%rdi
    dea7:	48 89 d6             	mov    %rdx,%rsi
    deaa:	f3 48 a5             	rep movsq %ds:(%rsi),%es:(%rdi)
    dead:	48 8d 05 a8 f7 00 00 	lea    0xf7a8(%rip),%rax        # 1d65c <g_2177>
    deb4:	48 89 85 60 ec ff ff 	mov    %rax,-0x13a0(%rbp)
    debb:	48 8d 85 20 ed ff ff 	lea    -0x12e0(%rbp),%rax
    dec2:	48 89 85 68 ec ff ff 	mov    %rax,-0x1398(%rbp)
    dec9:	c7 85 50 ea ff ff 6d 	movl   $0x7ab8116d,-0x15b0(%rbp)
    ded0:	11 b8 7a 
    ded3:	c7 85 54 ea ff ff ff 	movl   $0xffffffff,-0x15ac(%rbp)
    deda:	ff ff ff 
    dedd:	c7 85 58 ea ff ff 82 	movl   $0x3f2ecc82,-0x15a8(%rbp)
    dee4:	cc 2e 3f 
    dee7:	c7 85 5c ea ff ff 01 	movl   $0x1,-0x15a4(%rbp)
    deee:	00 00 00 
    def1:	48 8b 05 f8 21 01 00 	mov    0x121f8(%rip),%rax        # 200f0 <g_984>
    def8:	0f b7 00             	movzwl (%rax),%eax
    defb:	0f bf d8             	movswl %ax,%ebx
    defe:	48 8b 05 c3 1f 01 00 	mov    0x11fc3(%rip),%rax        # 1fec8 <g_388>
    df05:	48 8b 00             	mov    (%rax),%rax
    df08:	49 89 c6             	mov    %rax,%r14
    df0b:	44 8b a5 74 e9 ff ff 	mov    -0x168c(%rbp),%r12d
    df12:	8b 85 1c ed ff ff    	mov    -0x12e4(%rbp),%eax
    df18:	83 c8 01             	or     $0x1,%eax
    df1b:	89 85 1c ed ff ff    	mov    %eax,-0x12e4(%rbp)
    df21:	8b 85 1c ed ff ff    	mov    -0x12e4(%rbp),%eax
    df27:	4c 63 e8             	movslq %eax,%r13
    df2a:	48 8b 05 ef 37 01 00 	mov    0x137ef(%rip),%rax        # 21720 <g_3153>
    df31:	48 8b 00             	mov    (%rax),%rax
    df34:	48 8b 00             	mov    (%rax),%rax
    df37:	48 8b 00             	mov    (%rax),%rax
    df3a:	48 8b 00             	mov    (%rax),%rax
    df3d:	48 8b 00             	mov    (%rax),%rax
    df40:	49 89 c7             	mov    %rax,%r15
    df43:	8b 85 cc f0 ff ff    	mov    -0xf34(%rbp),%eax
    df49:	48 63 d0             	movslq %eax,%rdx
    df4c:	48 8b 85 20 ed ff ff 	mov    -0x12e0(%rbp),%rax
    df53:	48 85 c0             	test   %rax,%rax
    df56:	0f 94 c0             	sete   %al
    df59:	0f b6 c0             	movzbl %al,%eax
    df5c:	48 89 d6             	mov    %rdx,%rsi
    df5f:	48 89 c7             	mov    %rax,%rdi
    df62:	e8 48 d1 ff ff       	callq  b0af <safe_div_func_uint64_t_u_u>
    df67:	48 8b 15 42 2f 01 00 	mov    0x12f42(%rip),%rdx        # 20eb0 <g_2352>
    df6e:	48 8b 12             	mov    (%rdx),%rdx
    df71:	8b 12                	mov    (%rdx),%edx
    df73:	48 63 d2             	movslq %edx,%rdx
    df76:	48 09 d0             	or     %rdx,%rax
    df79:	4c 89 fe             	mov    %r15,%rsi
    df7c:	48 89 c7             	mov    %rax,%rdi
    df7f:	e8 73 ca ff ff       	callq  a9f7 <safe_div_func_int64_t_s_s>
    df84:	49 39 c5             	cmp    %rax,%r13
    df87:	7f 10                	jg     df99 <func_7+0x12bb>
    df89:	83 bd 78 e9 ff ff 00 	cmpl   $0x0,-0x1688(%rbp)
    df90:	74 07                	je     df99 <func_7+0x12bb>
    df92:	b8 01 00 00 00       	mov    $0x1,%eax
    df97:	eb 05                	jmp    df9e <func_7+0x12c0>
    df99:	b8 00 00 00 00       	mov    $0x0,%eax
    df9e:	44 89 e6             	mov    %r12d,%esi
    dfa1:	89 c7                	mov    %eax,%edi
    dfa3:	e8 28 cf ff ff       	callq  aed0 <safe_sub_func_uint32_t_u_u>
    dfa8:	0f b7 c0             	movzwl %ax,%eax
    dfab:	be ca 1e 00 00       	mov    $0x1eca,%esi
    dfb0:	89 c7                	mov    %eax,%edi
    dfb2:	e8 68 cd ff ff       	callq  ad1f <safe_sub_func_uint16_t_u_u>
    dfb7:	0f b7 c0             	movzwl %ax,%eax
    dfba:	4c 89 f6             	mov    %r14,%rsi
    dfbd:	48 89 c7             	mov    %rax,%rdi
    dfc0:	e8 ef c9 ff ff       	callq  a9b4 <safe_mod_func_int64_t_s_s>
    dfc5:	48 89 c2             	mov    %rax,%rdx
    dfc8:	48 8b 05 f9 1e 01 00 	mov    0x11ef9(%rip),%rax        # 1fec8 <g_388>
    dfcf:	48 8b 00             	mov    (%rax),%rax
    dfd2:	48 89 d6             	mov    %rdx,%rsi
    dfd5:	48 89 c7             	mov    %rax,%rdi
    dfd8:	e8 a3 d0 ff ff       	callq  b080 <safe_mod_func_uint64_t_u_u>
    dfdd:	48 0f be 95 86 e9 ff 	movsbq -0x167a(%rbp),%rdx
    dfe4:	ff 
    dfe5:	48 39 d0             	cmp    %rdx,%rax
    dfe8:	0f 94 c0             	sete   %al
    dfeb:	0f b6 c0             	movzbl %al,%eax
    dfee:	be 01 00 00 00       	mov    $0x1,%esi
    dff3:	89 c7                	mov    %eax,%edi
    dff5:	e8 d9 c3 ff ff       	callq  a3d3 <safe_sub_func_int16_t_s_s>
    dffa:	0f be 85 8c e9 ff ff 	movsbl -0x1674(%rbp),%eax
    e001:	89 de                	mov    %ebx,%esi
    e003:	89 c7                	mov    %eax,%edi
    e005:	e8 20 c5 ff ff       	callq  a52a <safe_rshift_func_int16_t_s_s>
    e00a:	48 8b 85 08 f1 ff ff 	mov    -0xef8(%rbp),%rax
    e011:	48 89 c2             	mov    %rax,%rdx
    e014:	48 b8 d5 27 d6 66 77 	movabs $0xeec2f67766d627d5,%rax
    e01b:	f6 c2 ee 
    e01e:	48 39 c2             	cmp    %rax,%rdx
    e021:	0f 96 c0             	setbe  %al
    e024:	0f b6 d0             	movzbl %al,%edx
    e027:	48 8b 05 c2 20 01 00 	mov    0x120c2(%rip),%rax        # 200f0 <g_984>
    e02e:	0f b7 00             	movzwl (%rax),%eax
    e031:	98                   	cwtl   
    e032:	09 d0                	or     %edx,%eax
    e034:	39 85 cc e9 ff ff    	cmp    %eax,-0x1634(%rbp)
    e03a:	48 8b 85 68 ec ff ff 	mov    -0x1398(%rbp),%rax
    e041:	48 8b 95 60 ec ff ff 	mov    -0x13a0(%rbp),%rdx
    e048:	48 89 10             	mov    %rdx,(%rax)
    e04b:	83 ad 5c ea ff ff 01 	subl   $0x1,-0x15a4(%rbp)
    e052:	8b 05 a0 f7 00 00    	mov    0xf7a0(%rip),%eax        # 1d7f8 <g_3601>
    e058:	83 c0 01             	add    $0x1,%eax
    e05b:	89 05 97 f7 00 00    	mov    %eax,0xf797(%rip)        # 1d7f8 <g_3601>
    e061:	48 8b 05 80 20 01 00 	mov    0x12080(%rip),%rax        # 200e8 <g_882>
    e068:	8b 00                	mov    (%rax),%eax
    e06a:	85 c0                	test   %eax,%eax
    e06c:	0f 85 0c 05 00 00    	jne    e57e <func_7+0x18a0>
    e072:	48 8b 05 67 20 01 00 	mov    0x12067(%rip),%rax        # 200e0 <g_731>
    e079:	48 8b 00             	mov    (%rax),%rax
    e07c:	48 83 bd 38 ec ff ff 	cmpq   $0x0,-0x13c8(%rbp)
    e083:	00 
    e084:	0f 95 c2             	setne  %dl
    e087:	48 c7 85 40 ec ff ff 	movq   $0x0,-0x13c0(%rbp)
    e08e:	00 00 00 00 
    e092:	48 8b 85 40 ec ff ff 	mov    -0x13c0(%rbp),%rax
    e099:	48 3b 85 28 eb ff ff 	cmp    -0x14d8(%rbp),%rax
    e0a0:	0f 95 c0             	setne  %al
    e0a3:	09 d0                	or     %edx,%eax
    e0a5:	84 c0                	test   %al,%al
    e0a7:	0f 85 81 00 00 00    	jne    e12e <func_7+0x1450>
    e0ad:	0f b6 9d 85 e9 ff ff 	movzbl -0x167b(%rbp),%ebx
    e0b4:	8b 85 a4 e9 ff ff    	mov    -0x165c(%rbp),%eax
    e0ba:	44 0f b6 e0          	movzbl %al,%r12d
    e0be:	4c 0f bf ad 7c e9 ff 	movswq -0x1684(%rbp),%r13
    e0c5:	ff 
    e0c6:	66 83 bd 7c e9 ff ff 	cmpw   $0x0,-0x1684(%rbp)
    e0cd:	00 
    e0ce:	0f 95 c0             	setne  %al
    e0d1:	0f b6 d0             	movzbl %al,%edx
    e0d4:	48 8b 05 15 20 01 00 	mov    0x12015(%rip),%rax        # 200f0 <g_984>
    e0db:	0f b7 00             	movzwl (%rax),%eax
    e0de:	98                   	cwtl   
    e0df:	89 d6                	mov    %edx,%esi
    e0e1:	89 c7                	mov    %eax,%edi
    e0e3:	e8 eb c2 ff ff       	callq  a3d3 <safe_sub_func_int16_t_s_s>
    e0e8:	48 0f bf c0          	movswq %ax,%rax
    e0ec:	4c 89 ee             	mov    %r13,%rsi
    e0ef:	48 89 c7             	mov    %rax,%rdi
    e0f2:	e8 4a c7 ff ff       	callq  a841 <safe_add_func_int64_t_s_s>
    e0f7:	48 3d ae aa 00 00    	cmp    $0xaaae,%rax
    e0fd:	0f 94 c2             	sete   %dl
    e100:	48 8b 05 a1 20 01 00 	mov    0x120a1(%rip),%rax        # 201a8 <g_1327>
    e107:	0f b6 d2             	movzbl %dl,%edx
    e10a:	48 89 10             	mov    %rdx,(%rax)
    e10d:	44 89 e6             	mov    %r12d,%esi
    e110:	bf 01 00 00 00       	mov    $0x1,%edi
    e115:	e8 94 ca ff ff       	callq  abae <safe_mod_func_uint8_t_u_u>
    e11a:	0f b6 c0             	movzbl %al,%eax
    e11d:	48 89 de             	mov    %rbx,%rsi
    e120:	48 89 c7             	mov    %rax,%rdi
    e123:	e8 80 c7 ff ff       	callq  a8a8 <safe_sub_func_int64_t_s_s>
    e128:	48 3d 9a 00 00 00    	cmp    $0x9a,%rax
    e12e:	48 83 bd 58 eb ff ff 	cmpq   $0x0,-0x14a8(%rbp)
    e135:	00 
    e136:	74 0a                	je     e142 <func_7+0x1464>
    e138:	8b 85 a4 e9 ff ff    	mov    -0x165c(%rbp),%eax
    e13e:	85 c0                	test   %eax,%eax
    e140:	74 07                	je     e149 <func_7+0x146b>
    e142:	ba 01 00 00 00       	mov    $0x1,%edx
    e147:	eb 05                	jmp    e14e <func_7+0x1470>
    e149:	ba 00 00 00 00       	mov    $0x0,%edx
    e14e:	8b 85 00 ee ff ff    	mov    -0x1200(%rbp),%eax
    e154:	39 c2                	cmp    %eax,%edx
    e156:	0f 8f 67 02 00 00    	jg     e3c3 <func_7+0x16e5>
    e15c:	48 8d 05 65 2d 01 00 	lea    0x12d65(%rip),%rax        # 20ec8 <g_2543>
    e163:	48 89 85 80 ec ff ff 	mov    %rax,-0x1380(%rbp)
    e16a:	c7 85 68 ea ff ff 21 	movl   $0x740f621,-0x1598(%rbp)
    e171:	f6 40 07 
    e174:	c6 05 ad f4 00 00 00 	movb   $0x0,0xf4ad(%rip)        # 1d628 <g_1791>
    e17b:	e9 2f 02 00 00       	jmpq   e3af <func_7+0x16d1>
    e180:	48 c7 85 88 ec ff ff 	movq   $0x0,-0x1378(%rbp)
    e187:	00 00 00 00 
    e18b:	c7 85 6c ea ff ff 56 	movl   $0x3e40a056,-0x1594(%rbp)
    e192:	a0 40 3e 
    e195:	c7 85 70 ea ff ff ff 	movl   $0xffffffff,-0x1590(%rbp)
    e19c:	ff ff ff 
    e19f:	44 8b a5 78 e9 ff ff 	mov    -0x1688(%rbp),%r12d
    e1a6:	8b 05 ac ef 00 00    	mov    0xefac(%rip),%eax        # 1d158 <g_441>
    e1ac:	83 e8 01             	sub    $0x1,%eax
    e1af:	89 05 a3 ef 00 00    	mov    %eax,0xefa3(%rip)        # 1d158 <g_441>
    e1b5:	8b 85 a4 e9 ff ff    	mov    -0x165c(%rbp),%eax
    e1bb:	85 c0                	test   %eax,%eax
    e1bd:	8b 85 38 ea ff ff    	mov    -0x15c8(%rbp),%eax
    e1c3:	48 63 c8             	movslq %eax,%rcx
    e1c6:	0f b6 85 8c e9 ff ff 	movzbl -0x1674(%rbp),%eax
    e1cd:	0f b6 c0             	movzbl %al,%eax
    e1d0:	48 8b 1d f1 1e 01 00 	mov    0x11ef1(%rip),%rbx        # 200c8 <g_689>
    e1d7:	ba 59 00 00 00       	mov    $0x59,%edx
    e1dc:	48 89 ce             	mov    %rcx,%rsi
    e1df:	89 c7                	mov    %eax,%edi
    e1e1:	e8 86 3b 00 00       	callq  11d6c <func_34>
    e1e6:	48 89 03             	mov    %rax,(%rbx)
    e1e9:	48 8b 13             	mov    (%rbx),%rdx
    e1ec:	48 8b 05 15 35 01 00 	mov    0x13515(%rip),%rax        # 21708 <g_2839>
    e1f3:	48 8b 00             	mov    (%rax),%rax
    e1f6:	48 8b 00             	mov    (%rax),%rax
    e1f9:	48 8b 00             	mov    (%rax),%rax
    e1fc:	48 8b 00             	mov    (%rax),%rax
    e1ff:	48 39 c2             	cmp    %rax,%rdx
    e202:	0f 94 c0             	sete   %al
    e205:	0f b6 c0             	movzbl %al,%eax
    e208:	4c 89 e6             	mov    %r12,%rsi
    e20b:	48 89 c7             	mov    %rax,%rdi
    e20e:	e8 95 c6 ff ff       	callq  a8a8 <safe_sub_func_int64_t_s_s>
    e213:	48 0f be 95 86 e9 ff 	movsbq -0x167a(%rbp),%rdx
    e21a:	ff 
    e21b:	48 31 d0             	xor    %rdx,%rax
    e21e:	31 85 70 ea ff ff    	xor    %eax,-0x1590(%rbp)
    e224:	8b 8d 70 ea ff ff    	mov    -0x1590(%rbp),%ecx
    e22a:	48 8b 05 3f 1c 01 00 	mov    0x11c3f(%rip),%rax        # 1fe70 <g_166>
    e231:	8b 10                	mov    (%rax),%edx
    e233:	48 8b 05 36 1c 01 00 	mov    0x11c36(%rip),%rax        # 1fe70 <g_166>
    e23a:	09 ca                	or     %ecx,%edx
    e23c:	89 10                	mov    %edx,(%rax)
    e23e:	0f be 9d 8c e9 ff ff 	movsbl -0x1674(%rbp),%ebx
    e245:	44 8b a5 74 e9 ff ff 	mov    -0x168c(%rbp),%r12d
    e24c:	8b 85 74 e9 ff ff    	mov    -0x168c(%rbp),%eax
    e252:	44 0f b6 e8          	movzbl %al,%r13d
    e256:	44 0f be b5 8c e9 ff 	movsbl -0x1674(%rbp),%r14d
    e25d:	ff 
    e25e:	48 8b 05 0b 1c 01 00 	mov    0x11c0b(%rip),%rax        # 1fe70 <g_166>
    e265:	8b 95 9c e9 ff ff    	mov    -0x1664(%rbp),%edx
    e26b:	89 10                	mov    %edx,(%rax)
    e26d:	44 8b 38             	mov    (%rax),%r15d
    e270:	48 8b 05 49 1e 01 00 	mov    0x11e49(%rip),%rax        # 200c0 <g_686>
    e277:	8b 85 74 e9 ff ff    	mov    -0x168c(%rbp),%eax
    e27d:	98                   	cwtl   
    e27e:	be 5c 4e 00 00       	mov    $0x4e5c,%esi
    e283:	89 c7                	mov    %eax,%edi
    e285:	e8 8c c1 ff ff       	callq  a416 <safe_mod_func_int16_t_s_s>
    e28a:	0f b7 c0             	movzwl %ax,%eax
    e28d:	be 6e dc 00 00       	mov    $0xdc6e,%esi
    e292:	89 c7                	mov    %eax,%edi
    e294:	e8 f5 ca ff ff       	callq  ad8e <safe_div_func_uint16_t_u_u>
    e299:	0f b7 d0             	movzwl %ax,%edx
    e29c:	0f be 85 87 e9 ff ff 	movsbl -0x1679(%rbp),%eax
    e2a3:	09 d0                	or     %edx,%eax
    e2a5:	41 39 c7             	cmp    %eax,%r15d
    e2a8:	0f 9f c0             	setg   %al
    e2ab:	0f b6 d0             	movzbl %al,%edx
    e2ae:	0f b6 85 85 e9 ff ff 	movzbl -0x167b(%rbp),%eax
    e2b5:	48 39 c2             	cmp    %rax,%rdx
    e2b8:	48 8d 05 39 2c 01 00 	lea    0x12c39(%rip),%rax        # 20ef8 <g_2589+0x8>
    e2bf:	48 89 85 10 eb ff ff 	mov    %rax,-0x14f0(%rbp)
    e2c6:	48 8b 85 f0 eb ff ff 	mov    -0x1410(%rbp),%rax
    e2cd:	48 89 05 ec 34 01 00 	mov    %rax,0x134ec(%rip)        # 217c0 <g_3495>
    e2d4:	48 8b 05 e5 34 01 00 	mov    0x134e5(%rip),%rax        # 217c0 <g_3495>
    e2db:	48 8d 15 16 2c 01 00 	lea    0x12c16(%rip),%rdx        # 20ef8 <g_2589+0x8>
    e2e2:	48 39 d0             	cmp    %rdx,%rax
    e2e5:	0f 94 c2             	sete   %dl
    e2e8:	48 8b 05 c1 1b 01 00 	mov    0x11bc1(%rip),%rax        # 1feb0 <g_327>
    e2ef:	88 10                	mov    %dl,(%rax)
    e2f1:	0f b6 00             	movzbl (%rax),%eax
    e2f4:	0f be c0             	movsbl %al,%eax
    e2f7:	39 85 70 ea ff ff    	cmp    %eax,-0x1590(%rbp)
    e2fd:	0f 9c c0             	setl   %al
    e300:	89 c2                	mov    %eax,%edx
    e302:	8b 85 78 e9 ff ff    	mov    -0x1688(%rbp),%eax
    e308:	31 d0                	xor    %edx,%eax
    e30a:	0f b6 c0             	movzbl %al,%eax
    e30d:	44 89 f6             	mov    %r14d,%esi
    e310:	89 c7                	mov    %eax,%edi
    e312:	e8 ee c8 ff ff       	callq  ac05 <safe_lshift_func_uint8_t_u_s>
    e317:	8b 85 70 ea ff ff    	mov    -0x1590(%rbp),%eax
    e31d:	0f b6 c0             	movzbl %al,%eax
    e320:	44 89 ee             	mov    %r13d,%esi
    e323:	89 c7                	mov    %eax,%edi
    e325:	e8 b1 c8 ff ff       	callq  abdb <safe_div_func_uint8_t_u_u>
    e32a:	0f b6 c0             	movzbl %al,%eax
    e32d:	be 57 f4 00 00       	mov    $0xf457,%esi
    e332:	89 c7                	mov    %eax,%edi
    e334:	e8 c6 c9 ff ff       	callq  acff <safe_add_func_uint16_t_u_u>
    e339:	0f b6 c0             	movzbl %al,%eax
    e33c:	8b 95 68 ea ff ff    	mov    -0x1598(%rbp),%edx
    e342:	89 d6                	mov    %edx,%esi
    e344:	89 c7                	mov    %eax,%edi
    e346:	e8 42 c9 ff ff       	callq  ac8d <safe_rshift_func_uint8_t_u_s>
    e34b:	0f b6 c0             	movzbl %al,%eax
    e34e:	89 c7                	mov    %eax,%edi
    e350:	e8 48 c0 ff ff       	callq  a39d <safe_unary_minus_func_int16_t_s>
    e355:	0f be c0             	movsbl %al,%eax
    e358:	44 89 e6             	mov    %r12d,%esi
    e35b:	89 c7                	mov    %eax,%edi
    e35d:	e8 8c bf ff ff       	callq  a2ee <safe_lshift_func_int8_t_s_u>
    e362:	66 98                	cbtw   
    e364:	66 39 85 7c e9 ff ff 	cmp    %ax,-0x1684(%rbp)
    e36b:	0f 9d c0             	setge  %al
    e36e:	0f b6 c0             	movzbl %al,%eax
    e371:	8b 95 74 e9 ff ff    	mov    -0x168c(%rbp),%edx
    e377:	89 d6                	mov    %edx,%esi
    e379:	89 c7                	mov    %eax,%edi
    e37b:	e8 36 c2 ff ff       	callq  a5b6 <safe_add_func_int32_t_s_s>
    e380:	0f b7 c0             	movzwl %ax,%eax
    e383:	89 de                	mov    %ebx,%esi
    e385:	89 c7                	mov    %eax,%edi
    e387:	e8 bc ca ff ff       	callq  ae48 <safe_rshift_func_uint16_t_u_s>
    e38c:	83 bd 74 e9 ff ff 00 	cmpl   $0x0,-0x168c(%rbp)
    e393:	0f 95 c0             	setne  %al
    e396:	0f b6 c0             	movzbl %al,%eax
    e399:	31 85 6c ea ff ff    	xor    %eax,-0x1594(%rbp)
    e39f:	0f b6 05 82 f2 00 00 	movzbl 0xf282(%rip),%eax        # 1d628 <g_1791>
    e3a6:	83 c0 01             	add    $0x1,%eax
    e3a9:	88 05 79 f2 00 00    	mov    %al,0xf279(%rip)        # 1d628 <g_1791>
    e3af:	0f b6 05 72 f2 00 00 	movzbl 0xf272(%rip),%eax        # 1d628 <g_1791>
    e3b6:	3c 01                	cmp    $0x1,%al
    e3b8:	0f 8e c2 fd ff ff    	jle    e180 <func_7+0x14a2>
    e3be:	e9 bb 01 00 00       	jmpq   e57e <func_7+0x18a0>
    e3c3:	c7 85 60 ea ff ff 01 	movl   $0x1,-0x15a0(%rbp)
    e3ca:	00 00 00 
    e3cd:	48 c7 85 08 eb ff ff 	movq   $0x0,-0x14f8(%rbp)
    e3d4:	00 00 00 00 
    e3d8:	48 8d 85 08 eb ff ff 	lea    -0x14f8(%rbp),%rax
    e3df:	48 89 85 70 ec ff ff 	mov    %rax,-0x1390(%rbp)
    e3e6:	c7 85 64 ea ff ff f9 	movl   $0xfffffff9,-0x159c(%rbp)
    e3ed:	ff ff ff 
    e3f0:	48 8d 85 f8 ea ff ff 	lea    -0x1508(%rbp),%rax
    e3f7:	48 89 85 78 ec ff ff 	mov    %rax,-0x1388(%rbp)
    e3fe:	48 8b 85 60 eb ff ff 	mov    -0x14a0(%rbp),%rax
    e405:	48 8b 10             	mov    (%rax),%rdx
    e408:	48 8b 85 60 eb ff ff 	mov    -0x14a0(%rbp),%rax
    e40f:	48 89 10             	mov    %rdx,(%rax)
    e412:	48 8b 85 60 eb ff ff 	mov    -0x14a0(%rbp),%rax
    e419:	48 8b 10             	mov    (%rax),%rdx
    e41c:	48 8b 05 6d 36 01 00 	mov    0x1366d(%rip),%rax        # 21a90 <g_3668>
    e423:	48 89 05 66 36 01 00 	mov    %rax,0x13666(%rip)        # 21a90 <g_3668>
    e42a:	48 8b 05 5f 36 01 00 	mov    0x1365f(%rip),%rax        # 21a90 <g_3668>
    e431:	48 39 c2             	cmp    %rax,%rdx
    e434:	0f 95 c0             	setne  %al
    e437:	0f b6 c0             	movzbl %al,%eax
    e43a:	89 85 64 ea ff ff    	mov    %eax,-0x159c(%rbp)
    e440:	48 8b 85 78 ec ff ff 	mov    -0x1388(%rbp),%rax
    e447:	48 89 05 52 36 01 00 	mov    %rax,0x13652(%rip)        # 21aa0 <g_3673>
    e44e:	48 8b 05 4b 36 01 00 	mov    0x1364b(%rip),%rax        # 21aa0 <g_3673>
    e455:	48 85 c0             	test   %rax,%rax
    e458:	0f 95 c0             	setne  %al
    e45b:	0f b6 d8             	movzbl %al,%ebx
    e45e:	48 8b 85 58 eb ff ff 	mov    -0x14a8(%rbp),%rax
    e465:	48 8b 00             	mov    (%rax),%rax
    e468:	48 8b 10             	mov    (%rax),%rdx
    e46b:	48 8d 4a ff          	lea    -0x1(%rdx),%rcx
    e46f:	48 89 08             	mov    %rcx,(%rax)
    e472:	89 d0                	mov    %edx,%eax
    e474:	0f b7 c0             	movzwl %ax,%eax
    e477:	be 01 00 00 00       	mov    $0x1,%esi
    e47c:	89 c7                	mov    %eax,%edi
    e47e:	e8 3b c9 ff ff       	callq  adbe <safe_lshift_func_uint16_t_u_s>
    e483:	89 c2                	mov    %eax,%edx
    e485:	48 8b 05 54 28 01 00 	mov    0x12854(%rip),%rax        # 20ce0 <g_2243>
    e48c:	48 8b 00             	mov    (%rax),%rax
    e48f:	48 8b 00             	mov    (%rax),%rax
    e492:	0f b6 08             	movzbl (%rax),%ecx
    e495:	48 8b 05 44 28 01 00 	mov    0x12844(%rip),%rax        # 20ce0 <g_2243>
    e49c:	48 8b 00             	mov    (%rax),%rax
    e49f:	48 8b 00             	mov    (%rax),%rax
    e4a2:	31 ca                	xor    %ecx,%edx
    e4a4:	88 10                	mov    %dl,(%rax)
    e4a6:	0f b6 00             	movzbl (%rax),%eax
    e4a9:	0f b6 c8             	movzbl %al,%ecx
    e4ac:	48 8b 95 08 eb ff ff 	mov    -0x14f8(%rbp),%rdx
    e4b3:	48 8b 85 70 ec ff ff 	mov    -0x1390(%rbp),%rax
    e4ba:	48 89 10             	mov    %rdx,(%rax)
    e4bd:	48 8b 85 70 ec ff ff 	mov    -0x1390(%rbp),%rax
    e4c4:	48 8b 00             	mov    (%rax),%rax
    e4c7:	48 85 c0             	test   %rax,%rax
    e4ca:	0f 95 c0             	setne  %al
    e4cd:	0f b6 c0             	movzbl %al,%eax
    e4d0:	33 85 60 ea ff ff    	xor    -0x15a0(%rbp),%eax
    e4d6:	39 c1                	cmp    %eax,%ecx
    e4d8:	0f 94 c0             	sete   %al
    e4db:	0f b6 c0             	movzbl %al,%eax
    e4de:	48 89 de             	mov    %rbx,%rsi
    e4e1:	48 89 c7             	mov    %rax,%rdi
    e4e4:	e8 58 c3 ff ff       	callq  a841 <safe_add_func_int64_t_s_s>
    e4e9:	8b 95 1c ed ff ff    	mov    -0x12e4(%rbp),%edx
    e4ef:	09 d0                	or     %edx,%eax
    e4f1:	89 85 1c ed ff ff    	mov    %eax,-0x12e4(%rbp)
    e4f7:	8b 85 cc f0 ff ff    	mov    -0xf34(%rbp),%eax
    e4fd:	85 c0                	test   %eax,%eax
    e4ff:	0f b6 85 89 e9 ff ff 	movzbl -0x1677(%rbp),%eax
    e506:	48 8b 1d 63 19 01 00 	mov    0x11963(%rip),%rbx        # 1fe70 <g_166>
    e50d:	be fe ff ff ff       	mov    $0xfffffffe,%esi
    e512:	89 c7                	mov    %eax,%edi
    e514:	e8 b3 c1 ff ff       	callq  a6cc <safe_mod_func_int32_t_s_s>
    e519:	89 03                	mov    %eax,(%rbx)
    e51b:	48 8b 05 66 1c 01 00 	mov    0x11c66(%rip),%rax        # 20188 <g_1077>
    e522:	48 8b 00             	mov    (%rax),%rax
    e525:	8b 10                	mov    (%rax),%edx
    e527:	8b 85 c8 f0 ff ff    	mov    -0xf38(%rbp),%eax
    e52d:	31 d0                	xor    %edx,%eax
    e52f:	89 85 c8 f0 ff ff    	mov    %eax,-0xf38(%rbp)
    e535:	c6 05 74 ee 00 00 00 	movb   $0x0,0xee74(%rip)        # 1d3b0 <g_1293>
    e53c:	eb 32                	jmp    e570 <func_7+0x1892>
    e53e:	48 8b 05 2b 19 01 00 	mov    0x1192b(%rip),%rax        # 1fe70 <g_166>
    e545:	c7 00 65 1e 17 f0    	movl   $0xf0171e65,(%rax)
    e54b:	83 bd 78 e9 ff ff 00 	cmpl   $0x0,-0x1688(%rbp)
    e552:	75 0b                	jne    e55f <func_7+0x1881>
    e554:	83 bd 74 e9 ff ff 00 	cmpl   $0x0,-0x168c(%rbp)
    e55b:	75 20                	jne    e57d <func_7+0x189f>
    e55d:	eb 01                	jmp    e560 <func_7+0x1882>
    e55f:	90                   	nop
    e560:	0f b6 05 49 ee 00 00 	movzbl 0xee49(%rip),%eax        # 1d3b0 <g_1293>
    e567:	83 c0 01             	add    $0x1,%eax
    e56a:	88 05 40 ee 00 00    	mov    %al,0xee40(%rip)        # 1d3b0 <g_1293>
    e570:	0f b6 05 39 ee 00 00 	movzbl 0xee39(%rip),%eax        # 1d3b0 <g_1293>
    e577:	3c 01                	cmp    $0x1,%al
    e579:	76 c3                	jbe    e53e <func_7+0x1860>
    e57b:	eb 01                	jmp    e57e <func_7+0x18a0>
    e57d:	90                   	nop
    e57e:	0f b6 05 93 eb 00 00 	movzbl 0xeb93(%rip),%eax        # 1d118 <g_277>
    e585:	83 c0 01             	add    $0x1,%eax
    e588:	88 05 8a eb 00 00    	mov    %al,0xeb8a(%rip)        # 1d118 <g_277>
    e58e:	0f b6 05 83 eb 00 00 	movzbl 0xeb83(%rip),%eax        # 1d118 <g_277>
    e595:	3c 01                	cmp    $0x1,%al
    e597:	0f 86 14 ee ff ff    	jbe    d3b1 <func_7+0x6d3>
    e59d:	48 c7 05 e0 f0 00 00 	movq   $0x0,0xf0e0(%rip)        # 1d688 <g_2569>
    e5a4:	00 00 00 00 
    e5a8:	e9 09 13 00 00       	jmpq   f8b6 <func_7+0x2bd8>
    e5ad:	48 c7 85 90 ec ff ff 	movq   $0x0,-0x1370(%rbp)
    e5b4:	00 00 00 00 
    e5b8:	48 c7 85 98 ec ff ff 	movq   $0x0,-0x1368(%rbp)
    e5bf:	00 00 00 00 
    e5c3:	48 8d 05 d6 f2 00 00 	lea    0xf2d6(%rip),%rax        # 1d8a0 <g_3841>
    e5ca:	48 89 85 e8 ea ff ff 	mov    %rax,-0x1518(%rbp)
    e5d1:	48 8d 85 e8 ea ff ff 	lea    -0x1518(%rbp),%rax
    e5d8:	48 89 85 f0 ea ff ff 	mov    %rax,-0x1510(%rbp)
    e5df:	48 8d 85 f0 ea ff ff 	lea    -0x1510(%rbp),%rax
    e5e6:	48 89 85 a0 ec ff ff 	mov    %rax,-0x1360(%rbp)
    e5ed:	c7 85 20 ed ff ff 40 	movl   $0xfe409540,-0x12e0(%rbp)
    e5f4:	95 40 fe 
    e5f7:	66 c7 85 24 ed ff ff 	movw   $0x4d4d,-0x12dc(%rbp)
    e5fe:	4d 4d 
    e600:	c6 85 26 ed ff ff fe 	movb   $0xfe,-0x12da(%rbp)
    e607:	c7 85 27 ed ff ff 40 	movl   $0xfe409540,-0x12d9(%rbp)
    e60e:	95 40 fe 
    e611:	66 c7 85 2b ed ff ff 	movw   $0x4d4d,-0x12d5(%rbp)
    e618:	4d 4d 
    e61a:	c6 85 2d ed ff ff fe 	movb   $0xfe,-0x12d3(%rbp)
    e621:	c7 85 2e ed ff ff 40 	movl   $0xfe409540,-0x12d2(%rbp)
    e628:	95 40 fe 
    e62b:	66 c7 85 32 ed ff ff 	movw   $0x4d4d,-0x12ce(%rbp)
    e632:	4d 4d 
    e634:	c6 85 34 ed ff ff fe 	movb   $0xfe,-0x12cc(%rbp)
    e63b:	c7 85 dc e9 ff ff 00 	movl   $0x0,-0x1624(%rbp)
    e642:	00 00 00 
    e645:	eb 51                	jmp    e698 <func_7+0x19ba>
    e647:	c7 85 e0 e9 ff ff 00 	movl   $0x0,-0x1620(%rbp)
    e64e:	00 00 00 
    e651:	eb 35                	jmp    e688 <func_7+0x19aa>
    e653:	8b 85 e0 e9 ff ff    	mov    -0x1620(%rbp),%eax
    e659:	48 63 c8             	movslq %eax,%rcx
    e65c:	8b 85 dc e9 ff ff    	mov    -0x1624(%rbp),%eax
    e662:	48 63 d0             	movslq %eax,%rdx
    e665:	48 89 d0             	mov    %rdx,%rax
    e668:	48 c1 e0 02          	shl    $0x2,%rax
    e66c:	48 01 d0             	add    %rdx,%rax
    e66f:	48 01 c8             	add    %rcx,%rax
    e672:	48 8d 15 b7 30 01 00 	lea    0x130b7(%rip),%rdx        # 21730 <g_3242>
    e679:	48 89 94 c5 b0 ee ff 	mov    %rdx,-0x1150(%rbp,%rax,8)
    e680:	ff 
    e681:	83 85 e0 e9 ff ff 01 	addl   $0x1,-0x1620(%rbp)
    e688:	83 bd e0 e9 ff ff 04 	cmpl   $0x4,-0x1620(%rbp)
    e68f:	7e c2                	jle    e653 <func_7+0x1975>
    e691:	83 85 dc e9 ff ff 01 	addl   $0x1,-0x1624(%rbp)
    e698:	83 bd dc e9 ff ff 01 	cmpl   $0x1,-0x1624(%rbp)
    e69f:	7e a6                	jle    e647 <func_7+0x1969>
    e6a1:	8b 85 78 e9 ff ff    	mov    -0x1688(%rbp),%eax
    e6a7:	0f be c0             	movsbl %al,%eax
    e6aa:	89 c7                	mov    %eax,%edi
    e6ac:	e8 0e bb ff ff       	callq  a1bf <safe_unary_minus_func_int8_t_s>
    e6b1:	b8 e9 50 42 56       	mov    $0x564250e9,%eax
    e6b6:	0f b6 d8             	movzbl %al,%ebx
    e6b9:	48 0f bf 95 7c e9 ff 	movswq -0x1684(%rbp),%rdx
    e6c0:	ff 
    e6c1:	0f b6 8d 85 e9 ff ff 	movzbl -0x167b(%rbp),%ecx
    e6c8:	8b 85 a8 e9 ff ff    	mov    -0x1658(%rbp),%eax
    e6ce:	21 c8                	and    %ecx,%eax
    e6d0:	89 85 a8 e9 ff ff    	mov    %eax,-0x1658(%rbp)
    e6d6:	8b 85 a8 e9 ff ff    	mov    -0x1658(%rbp),%eax
    e6dc:	48 98                	cltq   
    e6de:	48 89 d6             	mov    %rdx,%rsi
    e6e1:	48 89 c7             	mov    %rax,%rdi
    e6e4:	e8 bf c1 ff ff       	callq  a8a8 <safe_sub_func_int64_t_s_s>
    e6e9:	8b 95 74 e9 ff ff    	mov    -0x168c(%rbp),%edx
    e6ef:	8b 85 78 e9 ff ff    	mov    -0x1688(%rbp),%eax
    e6f5:	0f be c0             	movsbl %al,%eax
    e6f8:	89 d6                	mov    %edx,%esi
    e6fa:	89 c7                	mov    %eax,%edi
    e6fc:	e8 6b bc ff ff       	callq  a36c <safe_rshift_func_int8_t_s_u>
    e701:	84 c0                	test   %al,%al
    e703:	0f 9f c2             	setg   %dl
    e706:	48 8b 05 d3 25 01 00 	mov    0x125d3(%rip),%rax        # 20ce0 <g_2243>
    e70d:	48 8b 00             	mov    (%rax),%rax
    e710:	48 8b 00             	mov    (%rax),%rax
    e713:	88 10                	mov    %dl,(%rax)
    e715:	0f b6 00             	movzbl (%rax),%eax
    e718:	88 05 c2 ef 00 00    	mov    %al,0xefc2(%rip)        # 1d6e0 <g_2881>
    e71e:	0f b6 05 bb ef 00 00 	movzbl 0xefbb(%rip),%eax        # 1d6e0 <g_2881>
    e725:	0f b6 c0             	movzbl %al,%eax
    e728:	89 de                	mov    %ebx,%esi
    e72a:	89 c7                	mov    %eax,%edi
    e72c:	e8 47 c4 ff ff       	callq  ab78 <safe_sub_func_uint8_t_u_u>
    e731:	83 bd 78 e9 ff ff 01 	cmpl   $0x1,-0x1688(%rbp)
    e738:	0f 95 c0             	setne  %al
    e73b:	0f b6 d0             	movzbl %al,%edx
    e73e:	0f bf 85 7c e9 ff ff 	movswl -0x1684(%rbp),%eax
    e745:	39 c2                	cmp    %eax,%edx
    e747:	7d 0d                	jge    e756 <func_7+0x1a78>
    e749:	48 8b 05 18 17 01 00 	mov    0x11718(%rip),%rax        # 1fe68 <g_152>
    e750:	0f b7 00             	movzwl (%rax),%eax
    e753:	66 85 c0             	test   %ax,%ax
    e756:	48 8b 05 93 19 01 00 	mov    0x11993(%rip),%rax        # 200f0 <g_984>
    e75d:	0f b7 00             	movzwl (%rax),%eax
    e760:	83 e0 01             	and    $0x1,%eax
    e763:	48 8b 95 e0 ee ff ff 	mov    -0x1120(%rbp),%rdx
    e76a:	48 89 95 30 eb ff ff 	mov    %rdx,-0x14d0(%rbp)
    e771:	48 8d 15 b8 2f 01 00 	lea    0x12fb8(%rip),%rdx        # 21730 <g_3242>
    e778:	48 39 95 30 eb ff ff 	cmp    %rdx,-0x14d0(%rbp)
    e77f:	0f 94 c2             	sete   %dl
    e782:	31 d0                	xor    %edx,%eax
    e784:	0f b6 c8             	movzbl %al,%ecx
    e787:	48 8b 05 e2 16 01 00 	mov    0x116e2(%rip),%rax        # 1fe70 <g_166>
    e78e:	8b 10                	mov    (%rax),%edx
    e790:	48 8b 05 d9 16 01 00 	mov    0x116d9(%rip),%rax        # 1fe70 <g_166>
    e797:	21 ca                	and    %ecx,%edx
    e799:	89 10                	mov    %edx,(%rax)
    e79b:	c6 05 86 ee 00 00 00 	movb   $0x0,0xee86(%rip)        # 1d628 <g_1791>
    e7a2:	90                   	nop
    e7a3:	0f b6 05 7e ee 00 00 	movzbl 0xee7e(%rip),%eax        # 1d628 <g_1791>
    e7aa:	3c 02                	cmp    $0x2,%al
    e7ac:	0f 8f 82 04 00 00    	jg     ec34 <func_7+0x1f56>
    e7b2:	48 8d 05 07 1b 01 00 	lea    0x11b07(%rip),%rax        # 202c0 <g_1480>
    e7b9:	48 89 85 20 ee ff ff 	mov    %rax,-0x11e0(%rbp)
    e7c0:	48 8d 05 f9 1a 01 00 	lea    0x11af9(%rip),%rax        # 202c0 <g_1480>
    e7c7:	48 89 85 28 ee ff ff 	mov    %rax,-0x11d8(%rbp)
    e7ce:	48 8d 05 eb 1a 01 00 	lea    0x11aeb(%rip),%rax        # 202c0 <g_1480>
    e7d5:	48 89 85 30 ee ff ff 	mov    %rax,-0x11d0(%rbp)
    e7dc:	48 8d 05 dd 1a 01 00 	lea    0x11add(%rip),%rax        # 202c0 <g_1480>
    e7e3:	48 89 85 38 ee ff ff 	mov    %rax,-0x11c8(%rbp)
    e7ea:	48 8d 05 cf 1a 01 00 	lea    0x11acf(%rip),%rax        # 202c0 <g_1480>
    e7f1:	48 89 85 40 ee ff ff 	mov    %rax,-0x11c0(%rbp)
    e7f8:	48 8d 05 c1 1a 01 00 	lea    0x11ac1(%rip),%rax        # 202c0 <g_1480>
    e7ff:	48 89 85 48 ee ff ff 	mov    %rax,-0x11b8(%rbp)
    e806:	48 8d 05 b3 1a 01 00 	lea    0x11ab3(%rip),%rax        # 202c0 <g_1480>
    e80d:	48 89 85 50 ee ff ff 	mov    %rax,-0x11b0(%rbp)
    e814:	c7 85 7c ea ff ff fb 	movl   $0x5a53f9fb,-0x1584(%rbp)
    e81b:	f9 53 5a 
    e81e:	c7 85 80 ea ff ff ff 	movl   $0xffffffff,-0x1580(%rbp)
    e825:	ff ff ff 
    e828:	48 c7 85 60 ee ff ff 	movq   $0x0,-0x11a0(%rbp)
    e82f:	00 00 00 00 
    e833:	48 8d 05 8e 18 01 00 	lea    0x1188e(%rip),%rax        # 200c8 <g_689>
    e83a:	48 89 85 68 ee ff ff 	mov    %rax,-0x1198(%rbp)
    e841:	48 c7 85 70 ee ff ff 	movq   $0x0,-0x1190(%rbp)
    e848:	00 00 00 00 
    e84c:	48 8d 05 75 18 01 00 	lea    0x11875(%rip),%rax        # 200c8 <g_689>
    e853:	48 89 85 78 ee ff ff 	mov    %rax,-0x1188(%rbp)
    e85a:	48 c7 85 80 ee ff ff 	movq   $0x0,-0x1180(%rbp)
    e861:	00 00 00 00 
    e865:	48 8d 05 5c 18 01 00 	lea    0x1185c(%rip),%rax        # 200c8 <g_689>
    e86c:	48 89 85 88 ee ff ff 	mov    %rax,-0x1178(%rbp)
    e873:	48 c7 85 90 ee ff ff 	movq   $0x0,-0x1170(%rbp)
    e87a:	00 00 00 00 
    e87e:	48 8d 05 43 18 01 00 	lea    0x11843(%rip),%rax        # 200c8 <g_689>
    e885:	48 89 85 98 ee ff ff 	mov    %rax,-0x1168(%rbp)
    e88c:	48 c7 85 a0 ee ff ff 	movq   $0x0,-0x1160(%rbp)
    e893:	00 00 00 00 
    e897:	48 8d 85 60 ee ff ff 	lea    -0x11a0(%rbp),%rax
    e89e:	48 89 85 08 eb ff ff 	mov    %rax,-0x14f8(%rbp)
    e8a5:	48 8d 85 08 eb ff ff 	lea    -0x14f8(%rbp),%rax
    e8ac:	48 89 85 d8 ec ff ff 	mov    %rax,-0x1328(%rbp)
    e8b3:	48 c7 85 e0 ec ff ff 	movq   $0x8,-0x1320(%rbp)
    e8ba:	08 00 00 00 
    e8be:	c7 85 84 ea ff ff 04 	movl   $0x4,-0x157c(%rbp)
    e8c5:	00 00 00 
    e8c8:	c7 85 88 ea ff ff 01 	movl   $0x1,-0x1578(%rbp)
    e8cf:	00 00 00 
    e8d2:	48 8d 05 83 ec 00 00 	lea    0xec83(%rip),%rax        # 1d55c <g_1374+0xfc>
    e8d9:	48 89 85 e8 ec ff ff 	mov    %rax,-0x1318(%rbp)
    e8e0:	8b 85 74 e9 ff ff    	mov    -0x168c(%rbp),%eax
    e8e6:	48 63 d0             	movslq %eax,%rdx
    e8e9:	8b 85 74 e9 ff ff    	mov    -0x168c(%rbp),%eax
    e8ef:	48 98                	cltq   
    e8f1:	48 89 d6             	mov    %rdx,%rsi
    e8f4:	48 89 c7             	mov    %rax,%rdi
    e8f7:	e8 32 c7 ff ff       	callq  b02e <safe_add_func_uint64_t_u_u>
    e8fc:	49 89 c5             	mov    %rax,%r13
    e8ff:	8b 9d 78 e9 ff ff    	mov    -0x1688(%rbp),%ebx
    e905:	8b 85 78 e9 ff ff    	mov    -0x1688(%rbp),%eax
    e90b:	44 0f be e0          	movsbl %al,%r12d
    e90f:	48 8b 05 9a 15 01 00 	mov    0x1159a(%rip),%rax        # 1feb0 <g_327>
    e916:	0f b6 00             	movzbl (%rax),%eax
    e919:	89 c2                	mov    %eax,%edx
    e91b:	8b 85 cc e9 ff ff    	mov    -0x1634(%rbp),%eax
    e921:	21 c2                	and    %eax,%edx
    e923:	48 8b 05 86 15 01 00 	mov    0x11586(%rip),%rax        # 1feb0 <g_327>
    e92a:	88 10                	mov    %dl,(%rax)
    e92c:	0f b6 00             	movzbl (%rax),%eax
    e92f:	0f be c0             	movsbl %al,%eax
    e932:	89 85 7c ea ff ff    	mov    %eax,-0x1584(%rbp)
    e938:	83 bd 7c ea ff ff 00 	cmpl   $0x0,-0x1584(%rbp)
    e93f:	75 4f                	jne    e990 <func_7+0x1cb2>
    e941:	80 bd 8c e9 ff ff 00 	cmpb   $0x0,-0x1674(%rbp)
    e948:	74 2e                	je     e978 <func_7+0x1c9a>
    e94a:	48 8b 05 67 18 01 00 	mov    0x11867(%rip),%rax        # 201b8 <g_1417>
    e951:	48 8b 00             	mov    (%rax),%rax
    e954:	8b 95 74 e9 ff ff    	mov    -0x168c(%rbp),%edx
    e95a:	89 10                	mov    %edx,(%rax)
    e95c:	48 83 bd f8 eb ff ff 	cmpq   $0x0,-0x1408(%rbp)
    e963:	00 
    e964:	0f 94 c0             	sete   %al
    e967:	0f b6 c0             	movzbl %al,%eax
    e96a:	89 c7                	mov    %eax,%edi
    e96c:	e8 d4 c1 ff ff       	callq  ab45 <safe_unary_minus_func_uint8_t_u>
    e971:	b8 00 00 00 00       	mov    $0x0,%eax
    e976:	eb 05                	jmp    e97d <func_7+0x1c9f>
    e978:	b8 01 00 00 00       	mov    $0x1,%eax
    e97d:	0f b6 c0             	movzbl %al,%eax
    e980:	be 07 00 00 00       	mov    $0x7,%esi
    e985:	89 c7                	mov    %eax,%edi
    e987:	e8 c0 c2 ff ff       	callq  ac4c <safe_lshift_func_uint8_t_u_u>
    e98c:	84 c0                	test   %al,%al
    e98e:	74 07                	je     e997 <func_7+0x1cb9>
    e990:	b8 01 00 00 00       	mov    $0x1,%eax
    e995:	eb 05                	jmp    e99c <func_7+0x1cbe>
    e997:	b8 00 00 00 00       	mov    $0x0,%eax
    e99c:	0f be c0             	movsbl %al,%eax
    e99f:	44 89 e6             	mov    %r12d,%esi
    e9a2:	89 c7                	mov    %eax,%edi
    e9a4:	e8 c1 b8 ff ff       	callq  a26a <safe_div_func_int8_t_s_s>
    e9a9:	48 0f be c0          	movsbq %al,%rax
    e9ad:	48 89 de             	mov    %rbx,%rsi
    e9b0:	48 89 c7             	mov    %rax,%rdi
    e9b3:	e8 fc bf ff ff       	callq  a9b4 <safe_mod_func_int64_t_s_s>
    e9b8:	49 39 c5             	cmp    %rax,%r13
    e9bb:	0f 92 c0             	setb   %al
    e9be:	0f b6 c0             	movzbl %al,%eax
    e9c1:	89 85 cc f0 ff ff    	mov    %eax,-0xf34(%rbp)
    e9c7:	8b 85 cc f0 ff ff    	mov    -0xf34(%rbp),%eax
    e9cd:	89 85 80 ea ff ff    	mov    %eax,-0x1580(%rbp)
    e9d3:	8b 85 80 ea ff ff    	mov    -0x1580(%rbp),%eax
    e9d9:	0f be c0             	movsbl %al,%eax
    e9dc:	be 34 00 00 00       	mov    $0x34,%esi
    e9e1:	89 c7                	mov    %eax,%edi
    e9e3:	e8 0a b8 ff ff       	callq  a1f2 <safe_sub_func_int8_t_s_s>
    e9e8:	48 8d 85 e0 f7 ff ff 	lea    -0x820(%rbp),%rax
    e9ef:	48 8d 15 4a 01 01 00 	lea    0x1014a(%rip),%rdx        # 1eb40 <g_4132+0xeb0>
    e9f6:	b9 f3 00 00 00       	mov    $0xf3,%ecx
    e9fb:	48 89 c7             	mov    %rax,%rdi
    e9fe:	48 89 d6             	mov    %rdx,%rsi
    ea01:	f3 48 a5             	rep movsq %ds:(%rsi),%es:(%rdi)
    ea04:	48 8d 85 e0 f7 ff ff 	lea    -0x820(%rbp),%rax
    ea0b:	48 05 c0 05 00 00    	add    $0x5c0,%rax
    ea11:	48 89 85 f0 ec ff ff 	mov    %rax,-0x1310(%rbp)
    ea18:	c7 85 8c ea ff ff fd 	movl   $0xfffffffd,-0x1574(%rbp)
    ea1f:	ff ff ff 
    ea22:	48 8d 85 e0 f0 ff ff 	lea    -0xf20(%rbp),%rax
    ea29:	48 8d 15 90 9b 00 00 	lea    0x9b90(%rip),%rdx        # 185c0 <g_4129+0x140>
    ea30:	b9 e0 00 00 00       	mov    $0xe0,%ecx
    ea35:	48 89 c7             	mov    %rax,%rdi
    ea38:	48 89 d6             	mov    %rdx,%rsi
    ea3b:	f3 48 a5             	rep movsq %ds:(%rsi),%es:(%rdi)
    ea3e:	48 8b 85 f0 ec ff ff 	mov    -0x1310(%rbp),%rax
    ea45:	48 8d 15 1c 14 01 00 	lea    0x1141c(%rip),%rdx        # 1fe68 <g_152>
    ea4c:	48 89 10             	mov    %rdx,(%rax)
    ea4f:	48 8b 85 f0 ec ff ff 	mov    -0x1310(%rbp),%rax
    ea56:	48 8b 00             	mov    (%rax),%rax
    ea59:	48 8d 15 08 14 01 00 	lea    0x11408(%rip),%rdx        # 1fe68 <g_152>
    ea60:	48 39 d0             	cmp    %rdx,%rax
    ea63:	0f 95 c0             	setne  %al
    ea66:	0f b6 c0             	movzbl %al,%eax
    ea69:	09 85 7c ea ff ff    	or     %eax,-0x1584(%rbp)
    ea6f:	48 8b 85 60 f3 ff ff 	mov    -0xca0(%rbp),%rax
    ea76:	48 83 e8 01          	sub    $0x1,%rax
    ea7a:	48 89 85 60 f3 ff ff 	mov    %rax,-0xca0(%rbp)
    ea81:	83 bd 78 e9 ff ff 00 	cmpl   $0x0,-0x1688(%rbp)
    ea88:	75 0e                	jne    ea98 <func_7+0x1dba>
    ea8a:	48 8b 05 27 14 01 00 	mov    0x11427(%rip),%rax        # 1feb8 <g_329>
    ea91:	0f b6 00             	movzbl (%rax),%eax
    ea94:	84 c0                	test   %al,%al
    ea96:	74 07                	je     ea9f <func_7+0x1dc1>
    ea98:	b8 01 00 00 00       	mov    $0x1,%eax
    ea9d:	eb 05                	jmp    eaa4 <func_7+0x1dc6>
    ea9f:	b8 00 00 00 00       	mov    $0x0,%eax
    eaa4:	89 c2                	mov    %eax,%edx
    eaa6:	48 8b 05 23 14 01 00 	mov    0x11423(%rip),%rax        # 1fed0 <g_435>
    eaad:	48 8b 00             	mov    (%rax),%rax
    eab0:	0f b6 00             	movzbl (%rax),%eax
    eab3:	83 f0 15             	xor    $0x15,%eax
    eab6:	31 d0                	xor    %edx,%eax
    eab8:	0f b6 c0             	movzbl %al,%eax
    eabb:	be f8 00 00 00       	mov    $0xf8,%esi
    eac0:	89 c7                	mov    %eax,%edi
    eac2:	e8 cc c0 ff ff       	callq  ab93 <safe_mul_func_uint8_t_u_u>
    eac7:	48 8b 15 22 16 01 00 	mov    0x11622(%rip),%rdx        # 200f0 <g_984>
    eace:	48 8b 05 1b 16 01 00 	mov    0x1161b(%rip),%rax        # 200f0 <g_984>
    ead5:	0f b7 12             	movzwl (%rdx),%edx
    ead8:	66 89 10             	mov    %dx,(%rax)
    eadb:	0f b7 00             	movzwl (%rax),%eax
    eade:	0f bf d0             	movswl %ax,%edx
    eae1:	48 8b 85 60 f3 ff ff 	mov    -0xca0(%rbp),%rax
    eae8:	98                   	cwtl   
    eae9:	89 d6                	mov    %edx,%esi
    eaeb:	89 c7                	mov    %eax,%edi
    eaed:	e8 38 ba ff ff       	callq  a52a <safe_rshift_func_int16_t_s_s>
    eaf2:	83 c8 06             	or     $0x6,%eax
    eaf5:	98                   	cwtl   
    eaf6:	39 85 74 e9 ff ff    	cmp    %eax,-0x168c(%rbp)
    eafc:	74 18                	je     eb16 <func_7+0x1e38>
    eafe:	48 8b 05 cb 13 01 00 	mov    0x113cb(%rip),%rax        # 1fed0 <g_435>
    eb05:	48 8b 00             	mov    (%rax),%rax
    eb08:	0f b6 00             	movzbl (%rax),%eax
    eb0b:	84 c0                	test   %al,%al
    eb0d:	74 07                	je     eb16 <func_7+0x1e38>
    eb0f:	b8 01 00 00 00       	mov    $0x1,%eax
    eb14:	eb 05                	jmp    eb1b <func_7+0x1e3d>
    eb16:	b8 00 00 00 00       	mov    $0x0,%eax
    eb1b:	98                   	cwtl   
    eb1c:	be d1 8f ff ff       	mov    $0xffff8fd1,%esi
    eb21:	89 c7                	mov    %eax,%edi
    eb23:	e8 2d b9 ff ff       	callq  a455 <safe_div_func_int16_t_s_s>
    eb28:	48 8b 85 38 eb ff ff 	mov    -0x14c8(%rbp),%rax
    eb2f:	48 89 85 70 eb ff ff 	mov    %rax,-0x1490(%rbp)
    eb36:	48 8b 05 73 16 01 00 	mov    0x11673(%rip),%rax        # 201b0 <g_1366>
    eb3d:	48 8b 00             	mov    (%rax),%rax
    eb40:	48 8b 00             	mov    (%rax),%rax
    eb43:	0f b6 00             	movzbl (%rax),%eax
    eb46:	0f be c0             	movsbl %al,%eax
    eb49:	89 c6                	mov    %eax,%esi
    eb4b:	bf 01 00 00 00       	mov    $0x1,%edi
    eb50:	e8 aa bb ff ff       	callq  a6ff <safe_div_func_int32_t_s_s>
    eb55:	39 85 74 e9 ff ff    	cmp    %eax,-0x168c(%rbp)
    eb5b:	0f 95 c0             	setne  %al
    eb5e:	0f b6 c8             	movzbl %al,%ecx
    eb61:	48 8b 05 60 13 01 00 	mov    0x11360(%rip),%rax        # 1fec8 <g_388>
    eb68:	48 8b 00             	mov    (%rax),%rax
    eb6b:	48 8b 95 c0 ea ff ff 	mov    -0x1540(%rbp),%rdx
    eb72:	48 8b 1a             	mov    (%rdx),%rbx
    eb75:	48 8b 95 e8 ec ff ff 	mov    -0x1318(%rbp),%rdx
    eb7c:	89 ce                	mov    %ecx,%esi
    eb7e:	48 89 c7             	mov    %rax,%rdi
    eb81:	e8 51 4a 00 00       	callq  135d7 <func_45>
    eb86:	48 89 03             	mov    %rax,(%rbx)
    eb89:	48 8b 05 90 2b 01 00 	mov    0x12b90(%rip),%rax        # 21720 <g_3153>
    eb90:	48 8b 00             	mov    (%rax),%rax
    eb93:	48 89 85 88 ef ff ff 	mov    %rax,-0x1078(%rbp)
    eb9a:	48 8b 95 88 ef ff ff 	mov    -0x1078(%rbp),%rdx
    eba1:	48 8b 05 78 2b 01 00 	mov    0x12b78(%rip),%rax        # 21720 <g_3153>
    eba8:	48 8b 00             	mov    (%rax),%rax
    ebab:	48 39 c2             	cmp    %rax,%rdx
    ebae:	0f 94 c0             	sete   %al
    ebb1:	0f b6 c0             	movzbl %al,%eax
    ebb4:	48 8b 15 35 15 01 00 	mov    0x11535(%rip),%rdx        # 200f0 <g_984>
    ebbb:	66 c7 02 01 00       	movw   $0x1,(%rdx)
    ebc0:	89 c6                	mov    %eax,%esi
    ebc2:	bf 01 00 00 00       	mov    $0x1,%edi
    ebc7:	e8 29 b8 ff ff       	callq  a3f5 <safe_mul_func_int16_t_s_s>
    ebcc:	89 c2                	mov    %eax,%edx
    ebce:	48 8b 85 e0 eb ff ff 	mov    -0x1420(%rbp),%rax
    ebd5:	48 8b 00             	mov    (%rax),%rax
    ebd8:	48 0f bf d2          	movswq %dx,%rdx
    ebdc:	48 89 10             	mov    %rdx,(%rax)
    ebdf:	48 8b 18             	mov    (%rax),%rbx
    ebe2:	8b 95 74 e9 ff ff    	mov    -0x168c(%rbp),%edx
    ebe8:	48 8b 05 b9 2e 01 00 	mov    0x12eb9(%rip),%rax        # 21aa8 <g_3756>
    ebef:	48 39 85 00 ec ff ff 	cmp    %rax,-0x1400(%rbp)
    ebf6:	0f 94 c0             	sete   %al
    ebf9:	0f b6 c0             	movzbl %al,%eax
    ebfc:	89 d6                	mov    %edx,%esi
    ebfe:	89 c7                	mov    %eax,%edi
    ec00:	e8 dc b8 ff ff       	callq  a4e1 <safe_lshift_func_int16_t_s_u>
    ec05:	98                   	cwtl   
    ec06:	23 85 78 e9 ff ff    	and    -0x1688(%rbp),%eax
    ec0c:	89 c0                	mov    %eax,%eax
    ec0e:	48 39 c3             	cmp    %rax,%rbx
    ec11:	0f 9c c2             	setl   %dl
    ec14:	48 8b 85 c8 ea ff ff 	mov    -0x1538(%rbp),%rax
    ec1b:	48 8b 00             	mov    (%rax),%rax
    ec1e:	48 8b 00             	mov    (%rax),%rax
    ec21:	48 8b 00             	mov    (%rax),%rax
    ec24:	0f b6 d2             	movzbl %dl,%edx
    ec27:	89 10                	mov    %edx,(%rax)
    ec29:	8b 85 88 ea ff ff    	mov    -0x1578(%rbp),%eax
    ec2f:	e9 83 26 00 00       	jmpq   112b7 <func_7+0x45d9>
    ec34:	c7 05 82 eb 00 00 00 	movl   $0x0,0xeb82(%rip)        # 1d7c0 <g_3253>
    ec3b:	00 00 00 
    ec3e:	eb 1c                	jmp    ec5c <func_7+0x1f7e>
    ec40:	48 8b 85 b0 ea ff ff 	mov    -0x1550(%rbp),%rax
    ec47:	c7 00 c7 c3 58 41    	movl   $0x4158c3c7,(%rax)
    ec4d:	8b 05 6d eb 00 00    	mov    0xeb6d(%rip),%eax        # 1d7c0 <g_3253>
    ec53:	83 c0 01             	add    $0x1,%eax
    ec56:	89 05 64 eb 00 00    	mov    %eax,0xeb64(%rip)        # 1d7c0 <g_3253>
    ec5c:	8b 05 5e eb 00 00    	mov    0xeb5e(%rip),%eax        # 1d7c0 <g_3253>
    ec62:	83 f8 02             	cmp    $0x2,%eax
    ec65:	76 d9                	jbe    ec40 <func_7+0x1f62>
    ec67:	48 8b 05 52 12 01 00 	mov    0x11252(%rip),%rax        # 1fec0 <g_352>
    ec6e:	48 8b 00             	mov    (%rax),%rax
    ec71:	8b 00                	mov    (%rax),%eax
    ec73:	85 c0                	test   %eax,%eax
    ec75:	0f 84 54 05 00 00    	je     f1cf <func_7+0x24f1>
    ec7b:	66 c7 85 9a e9 ff ff 	movw   $0x6bc5,-0x1666(%rbp)
    ec82:	c5 6b 
    ec84:	48 8d 05 c5 e4 00 00 	lea    0xe4c5(%rip),%rax        # 1d150 <g_419>
    ec8b:	48 89 85 b0 ec ff ff 	mov    %rax,-0x1350(%rbp)
    ec92:	48 8b 05 2f 2b 01 00 	mov    0x12b2f(%rip),%rax        # 217c8 <g_3556>
    ec99:	8b 00                	mov    (%rax),%eax
    ec9b:	83 f8 01             	cmp    $0x1,%eax
    ec9e:	0f 84 27 03 00 00    	je     efcb <func_7+0x22ed>
    eca4:	48 8d 05 fb e3 00 00 	lea    0xe3fb(%rip),%rax        # 1d0a6 <g_153+0x6>
    ecab:	48 89 85 d0 ec ff ff 	mov    %rax,-0x1330(%rbp)
    ecb2:	c7 85 78 ea ff ff 09 	movl   $0x1f245a09,-0x1588(%rbp)
    ecb9:	5a 24 1f 
    ecbc:	4c 0f bf b5 7c e9 ff 	movswq -0x1684(%rbp),%r14
    ecc3:	ff 
    ecc4:	48 8b 05 ed 15 01 00 	mov    0x115ed(%rip),%rax        # 202b8 <g_1481>
    eccb:	48 8b 00             	mov    (%rax),%rax
    ecce:	48 8b 00             	mov    (%rax),%rax
    ecd1:	48 8b 18             	mov    (%rax),%rbx
    ecd4:	44 0f bf a5 7c e9 ff 	movswl -0x1684(%rbp),%r12d
    ecdb:	ff 
    ecdc:	44 8b ad 78 e9 ff ff 	mov    -0x1688(%rbp),%r13d
    ece3:	48 8b 85 b8 ea ff ff 	mov    -0x1548(%rbp),%rax
    ecea:	48 8b 00             	mov    (%rax),%rax
    eced:	8b 00                	mov    (%rax),%eax
    ecef:	89 c6                	mov    %eax,%esi
    ecf1:	bf 00 00 00 00       	mov    $0x0,%edi
    ecf6:	e8 f3 b5 ff ff       	callq  a2ee <safe_lshift_func_int8_t_s_u>
    ecfb:	48 8b 85 70 eb ff ff 	mov    -0x1490(%rbp),%rax
    ed02:	48 8b 00             	mov    (%rax),%rax
    ed05:	48 8b 00             	mov    (%rax),%rax
    ed08:	48 8b 00             	mov    (%rax),%rax
    ed0b:	48 8b 00             	mov    (%rax),%rax
    ed0e:	8b 00                	mov    (%rax),%eax
    ed10:	3d 0c f2 00 00       	cmp    $0xf20c,%eax
    ed15:	0f 9f c0             	setg   %al
    ed18:	0f b6 c0             	movzbl %al,%eax
    ed1b:	4c 89 ee             	mov    %r13,%rsi
    ed1e:	48 89 c7             	mov    %rax,%rdi
    ed21:	e8 89 c3 ff ff       	callq  b0af <safe_div_func_uint64_t_u_u>
    ed26:	48 8b 05 63 14 01 00 	mov    0x11463(%rip),%rax        # 20190 <g_1100>
    ed2d:	48 8b 00             	mov    (%rax),%rax
    ed30:	8b 30                	mov    (%rax),%esi
    ed32:	0f bf 95 7c e9 ff ff 	movswl -0x1684(%rbp),%edx
    ed39:	48 8d 05 66 e3 00 00 	lea    0xe366(%rip),%rax        # 1d0a6 <g_153+0x6>
    ed40:	48 39 85 d0 ec ff ff 	cmp    %rax,-0x1330(%rbp)
    ed47:	0f 95 c0             	setne  %al
    ed4a:	0f b6 c8             	movzbl %al,%ecx
    ed4d:	8b 85 9c e9 ff ff    	mov    -0x1664(%rbp),%eax
    ed53:	31 f0                	xor    %esi,%eax
    ed55:	89 85 9c e9 ff ff    	mov    %eax,-0x1664(%rbp)
    ed5b:	8b 85 9c e9 ff ff    	mov    -0x1664(%rbp),%eax
    ed61:	23 85 78 e9 ff ff    	and    -0x1688(%rbp),%eax
    ed67:	39 c1                	cmp    %eax,%ecx
    ed69:	0f 96 c0             	setbe  %al
    ed6c:	0f b6 c0             	movzbl %al,%eax
    ed6f:	09 d0                	or     %edx,%eax
    ed71:	44 89 e6             	mov    %r12d,%esi
    ed74:	89 c7                	mov    %eax,%edi
    ed76:	e8 3d c1 ff ff       	callq  aeb8 <safe_add_func_uint32_t_u_u>
    ed7b:	48 89 de             	mov    %rbx,%rsi
    ed7e:	48 bf 5b db c5 ec 49 	movabs $0x794ab749ecc5db5b,%rdi
    ed85:	b7 4a 79 
    ed88:	e8 f3 c2 ff ff       	callq  b080 <safe_mod_func_uint64_t_u_u>
    ed8d:	49 39 c6             	cmp    %rax,%r14
    ed90:	0f 94 c2             	sete   %dl
    ed93:	48 8b 05 0e 14 01 00 	mov    0x1140e(%rip),%rax        # 201a8 <g_1327>
    ed9a:	0f b6 d2             	movzbl %dl,%edx
    ed9d:	48 89 10             	mov    %rdx,(%rax)
    eda0:	48 8b 00             	mov    (%rax),%rax
    eda3:	89 c2                	mov    %eax,%edx
    eda5:	8b 85 74 e9 ff ff    	mov    -0x168c(%rbp),%eax
    edab:	09 d0                	or     %edx,%eax
    edad:	0f b6 c0             	movzbl %al,%eax
    edb0:	83 e0 02             	and    $0x2,%eax
    edb3:	89 c6                	mov    %eax,%esi
    edb5:	bf 36 00 00 00       	mov    $0x36,%edi
    edba:	e8 ef bd ff ff       	callq  abae <safe_mod_func_uint8_t_u_u>
    edbf:	0f b6 c0             	movzbl %al,%eax
    edc2:	66 31 85 9a e9 ff ff 	xor    %ax,-0x1666(%rbp)
    edc9:	48 8b 85 10 eb ff ff 	mov    -0x14f0(%rbp),%rax
    edd0:	48 8b 00             	mov    (%rax),%rax
    edd3:	48 8b 00             	mov    (%rax),%rax
    edd6:	48 8b 00             	mov    (%rax),%rax
    edd9:	4c 8b 20             	mov    (%rax),%r12
    eddc:	8b 85 78 e9 ff ff    	mov    -0x1688(%rbp),%eax
    ede2:	0f b6 d8             	movzbl %al,%ebx
    ede5:	8b 85 78 e9 ff ff    	mov    -0x1688(%rbp),%eax
    edeb:	44 0f be e8          	movsbl %al,%r13d
    edef:	48 8b 85 78 eb ff ff 	mov    -0x1488(%rbp),%rax
    edf6:	48 3b 85 40 eb ff ff 	cmp    -0x14c0(%rbp),%rax
    edfd:	0f 94 c0             	sete   %al
    ee00:	0f b6 c0             	movzbl %al,%eax
    ee03:	be 07 00 00 00       	mov    $0x7,%esi
    ee08:	89 c7                	mov    %eax,%edi
    ee0a:	e8 d2 b6 ff ff       	callq  a4e1 <safe_lshift_func_int16_t_s_u>
    ee0f:	44 0f b7 f0          	movzwl %ax,%r14d
    ee13:	48 8b 85 c8 ea ff ff 	mov    -0x1538(%rbp),%rax
    ee1a:	48 8b 00             	mov    (%rax),%rax
    ee1d:	48 8b 00             	mov    (%rax),%rax
    ee20:	48 8b 00             	mov    (%rax),%rax
    ee23:	8b 00                	mov    (%rax),%eax
    ee25:	3d 9e 27 00 00       	cmp    $0x279e,%eax
    ee2a:	0f 9e c0             	setle  %al
    ee2d:	0f b6 c0             	movzbl %al,%eax
    ee30:	89 c6                	mov    %eax,%esi
    ee32:	bf 00 00 00 00       	mov    $0x0,%edi
    ee37:	e8 01 bf ff ff       	callq  ad3d <safe_mul_func_uint16_t_u_u>
    ee3c:	0f b7 c0             	movzwl %ax,%eax
    ee3f:	44 89 f6             	mov    %r14d,%esi
    ee42:	89 c7                	mov    %eax,%edi
    ee44:	e8 13 bf ff ff       	callq  ad5c <safe_mod_func_uint16_t_u_u>
    ee49:	0f b7 c0             	movzwl %ax,%eax
    ee4c:	39 85 74 e9 ff ff    	cmp    %eax,-0x168c(%rbp)
    ee52:	0f 9f c0             	setg   %al
    ee55:	0f b6 c8             	movzbl %al,%ecx
    ee58:	48 8b 05 79 10 01 00 	mov    0x11079(%rip),%rax        # 1fed8 <g_533>
    ee5f:	0f b6 10             	movzbl (%rax),%edx
    ee62:	83 ea 01             	sub    $0x1,%edx
    ee65:	88 10                	mov    %dl,(%rax)
    ee67:	0f b6 00             	movzbl (%rax),%eax
    ee6a:	0f b6 c0             	movzbl %al,%eax
    ee6d:	44 89 ea             	mov    %r13d,%edx
    ee70:	48 89 ce             	mov    %rcx,%rsi
    ee73:	89 c7                	mov    %eax,%edi
    ee75:	e8 f2 2e 00 00       	callq  11d6c <func_34>
    ee7a:	48 8b 85 c0 ea ff ff 	mov    -0x1540(%rbp),%rax
    ee81:	4c 8b 28             	mov    (%rax),%r13
    ee84:	4c 89 e2             	mov    %r12,%rdx
    ee87:	89 de                	mov    %ebx,%esi
    ee89:	bf 00 00 00 00       	mov    $0x0,%edi
    ee8e:	e8 44 47 00 00       	callq  135d7 <func_45>
    ee93:	49 89 45 00          	mov    %rax,0x0(%r13)
    ee97:	48 8b 05 2a 10 01 00 	mov    0x1102a(%rip),%rax        # 1fec8 <g_388>
    ee9e:	48 8b 18             	mov    (%rax),%rbx
    eea1:	8b 85 78 e9 ff ff    	mov    -0x1688(%rbp),%eax
    eea7:	0f b6 d0             	movzbl %al,%edx
    eeaa:	8b 85 74 e9 ff ff    	mov    -0x168c(%rbp),%eax
    eeb0:	0f b6 c0             	movzbl %al,%eax
    eeb3:	89 d6                	mov    %edx,%esi
    eeb5:	89 c7                	mov    %eax,%edi
    eeb7:	e8 bc bc ff ff       	callq  ab78 <safe_sub_func_uint8_t_u_u>
    eebc:	8b 85 74 e9 ff ff    	mov    -0x168c(%rbp),%eax
    eec2:	0f b7 c0             	movzwl %ax,%eax
    eec5:	be 0b 00 00 00       	mov    $0xb,%esi
    eeca:	89 c7                	mov    %eax,%edi
    eecc:	e8 ed be ff ff       	callq  adbe <safe_lshift_func_uint16_t_u_s>
    eed1:	0f b7 c0             	movzwl %ax,%eax
    eed4:	48 89 de             	mov    %rbx,%rsi
    eed7:	48 89 c7             	mov    %rax,%rdi
    eeda:	e8 d0 c1 ff ff       	callq  b0af <safe_div_func_uint64_t_u_u>
    eedf:	0f bf d8             	movswl %ax,%ebx
    eee2:	48 83 bd b0 ec ff ff 	cmpq   $0x0,-0x1350(%rbp)
    eee9:	00 
    eeea:	0f 94 c0             	sete   %al
    eeed:	44 0f b6 e0          	movzbl %al,%r12d
    eef1:	be 01 00 00 00       	mov    $0x1,%esi
    eef6:	bf 00 00 00 00       	mov    $0x0,%edi
    eefb:	e8 93 bc ff ff       	callq  ab93 <safe_mul_func_uint8_t_u_u>
    ef00:	0f b6 d0             	movzbl %al,%edx
    ef03:	83 bd 74 e9 ff ff 00 	cmpl   $0x0,-0x168c(%rbp)
    ef0a:	74 11                	je     ef1d <func_7+0x223f>
    ef0c:	66 83 bd 7c e9 ff ff 	cmpw   $0x0,-0x1684(%rbp)
    ef13:	00 
    ef14:	74 07                	je     ef1d <func_7+0x223f>
    ef16:	b8 01 00 00 00       	mov    $0x1,%eax
    ef1b:	eb 05                	jmp    ef22 <func_7+0x2244>
    ef1d:	b8 00 00 00 00       	mov    $0x0,%eax
    ef22:	0f b6 c0             	movzbl %al,%eax
    ef25:	89 d6                	mov    %edx,%esi
    ef27:	89 c7                	mov    %eax,%edi
    ef29:	e8 2c bc ff ff       	callq  ab5a <safe_add_func_uint8_t_u_u>
    ef2e:	0f b6 c0             	movzbl %al,%eax
    ef31:	41 39 c4             	cmp    %eax,%r12d
    ef34:	0f 94 c0             	sete   %al
    ef37:	0f b6 c0             	movzbl %al,%eax
    ef3a:	89 de                	mov    %ebx,%esi
    ef3c:	89 c7                	mov    %eax,%edi
    ef3e:	e8 d3 b4 ff ff       	callq  a416 <safe_mod_func_int16_t_s_s>
    ef43:	98                   	cwtl   
    ef44:	89 c7                	mov    %eax,%edi
    ef46:	e8 52 b4 ff ff       	callq  a39d <safe_unary_minus_func_int16_t_s>
    ef4b:	0f bf d0             	movswl %ax,%edx
    ef4e:	48 8b 05 53 10 01 00 	mov    0x11053(%rip),%rax        # 1ffa8 <g_608>
    ef55:	48 8b 00             	mov    (%rax),%rax
    ef58:	0f b6 00             	movzbl (%rax),%eax
    ef5b:	0f b6 c0             	movzbl %al,%eax
    ef5e:	09 d0                	or     %edx,%eax
    ef60:	48 98                	cltq   
    ef62:	48 c7 c6 ff ff ff ff 	mov    $0xffffffffffffffff,%rsi
    ef69:	48 89 c7             	mov    %rax,%rdi
    ef6c:	e8 d0 b8 ff ff       	callq  a841 <safe_add_func_int64_t_s_s>
    ef71:	89 c2                	mov    %eax,%edx
    ef73:	48 8b 05 2e 12 01 00 	mov    0x1122e(%rip),%rax        # 201a8 <g_1327>
    ef7a:	48 8b 00             	mov    (%rax),%rax
    ef7d:	09 d0                	or     %edx,%eax
    ef7f:	0f be c0             	movsbl %al,%eax
    ef82:	be 06 00 00 00       	mov    $0x6,%esi
    ef87:	89 c7                	mov    %eax,%edi
    ef89:	e8 13 b3 ff ff       	callq  a2a1 <safe_lshift_func_int8_t_s_s>
    ef8e:	0f be c0             	movsbl %al,%eax
    ef91:	0b 85 74 e9 ff ff    	or     -0x168c(%rbp),%eax
    ef97:	83 f8 fa             	cmp    $0xfffffffa,%eax
    ef9a:	0f 95 c0             	setne  %al
    ef9d:	0f b6 c8             	movzbl %al,%ecx
    efa0:	48 8b 85 c0 ea ff ff 	mov    -0x1540(%rbp),%rax
    efa7:	48 8b 00             	mov    (%rax),%rax
    efaa:	48 8b 00             	mov    (%rax),%rax
    efad:	8b 10                	mov    (%rax),%edx
    efaf:	48 8b 85 c0 ea ff ff 	mov    -0x1540(%rbp),%rax
    efb6:	48 8b 00             	mov    (%rax),%rax
    efb9:	48 8b 00             	mov    (%rax),%rax
    efbc:	21 ca                	and    %ecx,%edx
    efbe:	89 10                	mov    %edx,(%rax)
    efc0:	8b 85 78 ea ff ff    	mov    -0x1588(%rbp),%eax
    efc6:	e9 ec 22 00 00       	jmpq   112b7 <func_7+0x45d9>
    efcb:	48 8d 05 c6 2f 01 00 	lea    0x12fc6(%rip),%rax        # 21f98 <g_2438>
    efd2:	48 89 85 b8 ec ff ff 	mov    %rax,-0x1348(%rbp)
    efd9:	c7 85 74 ea ff ff 00 	movl   $0x0,-0x158c(%rbp)
    efe0:	00 00 00 
    efe3:	48 8d 05 3a 94 00 00 	lea    0x943a(%rip),%rax        # 18424 <g_1421>
    efea:	48 89 85 f8 ea ff ff 	mov    %rax,-0x1508(%rbp)
    eff1:	48 8d 85 f8 ea ff ff 	lea    -0x1508(%rbp),%rax
    eff8:	48 89 85 00 eb ff ff 	mov    %rax,-0x1500(%rbp)
    efff:	48 8d 85 00 eb ff ff 	lea    -0x1500(%rbp),%rax
    f006:	48 89 85 08 eb ff ff 	mov    %rax,-0x14f8(%rbp)
    f00d:	48 c7 85 c0 ec ff ff 	movq   $0x0,-0x1340(%rbp)
    f014:	00 00 00 00 
    f018:	48 8d 85 08 eb ff ff 	lea    -0x14f8(%rbp),%rax
    f01f:	48 89 85 c8 ec ff ff 	mov    %rax,-0x1338(%rbp)
    f026:	48 8b 05 b3 1c 01 00 	mov    0x11cb3(%rip),%rax        # 20ce0 <g_2243>
    f02d:	48 8b 95 48 eb ff ff 	mov    -0x14b8(%rbp),%rdx
    f034:	48 89 10             	mov    %rdx,(%rax)
    f037:	48 8b 05 7a 1e 01 00 	mov    0x11e7a(%rip),%rax        # 20eb8 <g_2437>
    f03e:	48 8b 10             	mov    (%rax),%rdx
    f041:	48 8b 85 b8 ec ff ff 	mov    -0x1348(%rbp),%rax
    f048:	48 89 10             	mov    %rdx,(%rax)
    f04b:	0f b7 85 7c e9 ff ff 	movzwl -0x1684(%rbp),%eax
    f052:	0f b6 d8             	movzbl %al,%ebx
    f055:	48 8b 85 b8 ea ff ff 	mov    -0x1548(%rbp),%rax
    f05c:	48 8b 00             	mov    (%rax),%rax
    f05f:	8b 00                	mov    (%rax),%eax
    f061:	41 89 c5             	mov    %eax,%r13d
    f064:	48 8b 05 2d 1c 01 00 	mov    0x11c2d(%rip),%rax        # 20c98 <g_2222>
    f06b:	44 8b 20             	mov    (%rax),%r12d
    f06e:	83 bd 74 ea ff ff 00 	cmpl   $0x0,-0x158c(%rbp)
    f075:	74 22                	je     f099 <func_7+0x23bb>
    f077:	48 8b 95 08 eb ff ff 	mov    -0x14f8(%rbp),%rdx
    f07e:	48 8b 85 c8 ec ff ff 	mov    -0x1338(%rbp),%rax
    f085:	48 89 10             	mov    %rdx,(%rax)
    f088:	48 83 bd 80 eb ff ff 	cmpq   $0x0,-0x1480(%rbp)
    f08f:	00 
    f090:	75 07                	jne    f099 <func_7+0x23bb>
    f092:	b8 01 00 00 00       	mov    $0x1,%eax
    f097:	eb 05                	jmp    f09e <func_7+0x23c0>
    f099:	b8 00 00 00 00       	mov    $0x0,%eax
    f09e:	0f be c0             	movsbl %al,%eax
    f0a1:	89 c6                	mov    %eax,%esi
    f0a3:	bf ff ff ff ff       	mov    $0xffffffff,%edi
    f0a8:	e8 45 b1 ff ff       	callq  a1f2 <safe_sub_func_int8_t_s_s>
    f0ad:	0f be c0             	movsbl %al,%eax
    f0b0:	44 89 e6             	mov    %r12d,%esi
    f0b3:	89 c7                	mov    %eax,%edi
    f0b5:	e8 45 b6 ff ff       	callq  a6ff <safe_div_func_int32_t_s_s>
    f0ba:	89 c2                	mov    %eax,%edx
    f0bc:	8b 85 74 ea ff ff    	mov    -0x158c(%rbp),%eax
    f0c2:	21 d0                	and    %edx,%eax
    f0c4:	98                   	cwtl   
    f0c5:	44 89 ee             	mov    %r13d,%esi
    f0c8:	89 c7                	mov    %eax,%edi
    f0ca:	e8 94 b4 ff ff       	callq  a563 <safe_rshift_func_int16_t_s_u>
    f0cf:	48 8b 05 c2 1b 01 00 	mov    0x11bc2(%rip),%rax        # 20c98 <g_2222>
    f0d6:	8b 10                	mov    (%rax),%edx
    f0d8:	0f bf 85 7c e9 ff ff 	movswl -0x1684(%rbp),%eax
    f0df:	39 c2                	cmp    %eax,%edx
    f0e1:	0f 94 c0             	sete   %al
    f0e4:	0f b6 c0             	movzbl %al,%eax
    f0e7:	be 05 00 00 00       	mov    $0x5,%esi
    f0ec:	89 c7                	mov    %eax,%edi
    f0ee:	e8 ae b1 ff ff       	callq  a2a1 <safe_lshift_func_int8_t_s_s>
    f0f3:	0f be c0             	movsbl %al,%eax
    f0f6:	39 85 78 e9 ff ff    	cmp    %eax,-0x1688(%rbp)
    f0fc:	0f 93 c2             	setae  %dl
    f0ff:	48 8b 05 d2 0d 01 00 	mov    0x10dd2(%rip),%rax        # 1fed8 <g_533>
    f106:	88 10                	mov    %dl,(%rax)
    f108:	0f b6 00             	movzbl (%rax),%eax
    f10b:	0f b6 c0             	movzbl %al,%eax
    f10e:	89 de                	mov    %ebx,%esi
    f110:	89 c7                	mov    %eax,%edi
    f112:	e8 c4 ba ff ff       	callq  abdb <safe_div_func_uint8_t_u_u>
    f117:	0f b6 c0             	movzbl %al,%eax
    f11a:	8b 95 78 e9 ff ff    	mov    -0x1688(%rbp),%edx
    f120:	21 d0                	and    %edx,%eax
    f122:	0f b7 d0             	movzwl %ax,%edx
    f125:	48 8b 05 3c 0d 01 00 	mov    0x10d3c(%rip),%rax        # 1fe68 <g_152>
    f12c:	0f b7 00             	movzwl (%rax),%eax
    f12f:	0f b7 c0             	movzwl %ax,%eax
    f132:	89 d6                	mov    %edx,%esi
    f134:	89 c7                	mov    %eax,%edi
    f136:	e8 02 bc ff ff       	callq  ad3d <safe_mul_func_uint16_t_u_u>
    f13b:	66 85 c0             	test   %ax,%ax
    f13e:	0f 95 c0             	setne  %al
    f141:	0f b6 d0             	movzbl %al,%edx
    f144:	48 8b 85 58 eb ff ff 	mov    -0x14a8(%rbp),%rax
    f14b:	48 8b 00             	mov    (%rax),%rax
    f14e:	48 8b 08             	mov    (%rax),%rcx
    f151:	48 63 d2             	movslq %edx,%rdx
    f154:	48 8b 85 58 eb ff ff 	mov    -0x14a8(%rbp),%rax
    f15b:	48 8b 00             	mov    (%rax),%rax
    f15e:	48 21 ca             	and    %rcx,%rdx
    f161:	48 89 10             	mov    %rdx,(%rax)
    f164:	48 8b 00             	mov    (%rax),%rax
    f167:	48 c7 c6 f6 ff ff ff 	mov    $0xfffffffffffffff6,%rsi
    f16e:	48 89 c7             	mov    %rax,%rdi
    f171:	e8 0a bf ff ff       	callq  b080 <safe_mod_func_uint64_t_u_u>
    f176:	89 c2                	mov    %eax,%edx
    f178:	8b 85 c8 e9 ff ff    	mov    -0x1638(%rbp),%eax
    f17e:	09 d0                	or     %edx,%eax
    f180:	89 85 c8 e9 ff ff    	mov    %eax,-0x1638(%rbp)
    f186:	48 8b 85 c8 ea ff ff 	mov    -0x1538(%rbp),%rax
    f18d:	48 8b 00             	mov    (%rax),%rax
    f190:	48 8b 10             	mov    (%rax),%rdx
    f193:	48 8b 85 70 eb ff ff 	mov    -0x1490(%rbp),%rax
    f19a:	48 8b 00             	mov    (%rax),%rax
    f19d:	48 8b 00             	mov    (%rax),%rax
    f1a0:	48 8b 00             	mov    (%rax),%rax
    f1a3:	48 8b 12             	mov    (%rdx),%rdx
    f1a6:	48 89 10             	mov    %rdx,(%rax)
    f1a9:	48 8b 05 f0 0f 01 00 	mov    0x10ff0(%rip),%rax        # 201a0 <g_1323>
    f1b0:	48 8b 00             	mov    (%rax),%rax
    f1b3:	8b 00                	mov    (%rax),%eax
    f1b5:	85 c0                	test   %eax,%eax
    f1b7:	0f 85 e7 06 00 00    	jne    f8a4 <func_7+0x2bc6>
    f1bd:	48 8b 05 ac 0c 01 00 	mov    0x10cac(%rip),%rax        # 1fe70 <g_166>
    f1c4:	c7 00 e8 c6 38 18    	movl   $0x1838c6e8,(%rax)
    f1ca:	e9 d5 06 00 00       	jmpq   f8a4 <func_7+0x2bc6>
    f1cf:	c7 05 f7 e5 00 00 00 	movl   $0x0,0xe5f7(%rip)        # 1d7d0 <g_3303>
    f1d6:	00 00 00 
    f1d9:	e9 af 05 00 00       	jmpq   f78d <func_7+0x2aaf>
    f1de:	48 c7 85 f8 ea ff ff 	movq   $0x0,-0x1508(%rbp)
    f1e5:	00 00 00 00 
    f1e9:	48 8d 85 f8 ea ff ff 	lea    -0x1508(%rbp),%rax
    f1f0:	48 89 85 e0 f0 ff ff 	mov    %rax,-0xf20(%rbp)
    f1f7:	48 8d 85 f8 ea ff ff 	lea    -0x1508(%rbp),%rax
    f1fe:	48 89 85 e8 f0 ff ff 	mov    %rax,-0xf18(%rbp)
    f205:	48 8d 85 f8 ea ff ff 	lea    -0x1508(%rbp),%rax
    f20c:	48 89 85 f0 f0 ff ff 	mov    %rax,-0xf10(%rbp)
    f213:	48 8d 85 f8 ea ff ff 	lea    -0x1508(%rbp),%rax
    f21a:	48 89 85 f8 f0 ff ff 	mov    %rax,-0xf08(%rbp)
    f221:	48 8d 85 f8 ea ff ff 	lea    -0x1508(%rbp),%rax
    f228:	48 89 85 00 f1 ff ff 	mov    %rax,-0xf00(%rbp)
    f22f:	48 8d 85 f8 ea ff ff 	lea    -0x1508(%rbp),%rax
    f236:	48 89 85 08 f1 ff ff 	mov    %rax,-0xef8(%rbp)
    f23d:	48 8d 85 f8 ea ff ff 	lea    -0x1508(%rbp),%rax
    f244:	48 89 85 10 f1 ff ff 	mov    %rax,-0xef0(%rbp)
    f24b:	48 8d 85 f8 ea ff ff 	lea    -0x1508(%rbp),%rax
    f252:	48 89 85 18 f1 ff ff 	mov    %rax,-0xee8(%rbp)
    f259:	48 8d 85 f8 ea ff ff 	lea    -0x1508(%rbp),%rax
    f260:	48 89 85 20 f1 ff ff 	mov    %rax,-0xee0(%rbp)
    f267:	48 8d 85 f8 ea ff ff 	lea    -0x1508(%rbp),%rax
    f26e:	48 89 85 28 f1 ff ff 	mov    %rax,-0xed8(%rbp)
    f275:	48 8d 85 f8 ea ff ff 	lea    -0x1508(%rbp),%rax
    f27c:	48 89 85 30 f1 ff ff 	mov    %rax,-0xed0(%rbp)
    f283:	48 8d 85 f8 ea ff ff 	lea    -0x1508(%rbp),%rax
    f28a:	48 89 85 38 f1 ff ff 	mov    %rax,-0xec8(%rbp)
    f291:	48 8d 85 f8 ea ff ff 	lea    -0x1508(%rbp),%rax
    f298:	48 89 85 40 f1 ff ff 	mov    %rax,-0xec0(%rbp)
    f29f:	48 8d 85 f8 ea ff ff 	lea    -0x1508(%rbp),%rax
    f2a6:	48 89 85 48 f1 ff ff 	mov    %rax,-0xeb8(%rbp)
    f2ad:	48 8d 85 f8 ea ff ff 	lea    -0x1508(%rbp),%rax
    f2b4:	48 89 85 50 f1 ff ff 	mov    %rax,-0xeb0(%rbp)
    f2bb:	48 8d 85 f8 ea ff ff 	lea    -0x1508(%rbp),%rax
    f2c2:	48 89 85 58 f1 ff ff 	mov    %rax,-0xea8(%rbp)
    f2c9:	48 8d 85 f8 ea ff ff 	lea    -0x1508(%rbp),%rax
    f2d0:	48 89 85 60 f1 ff ff 	mov    %rax,-0xea0(%rbp)
    f2d7:	48 8d 85 f8 ea ff ff 	lea    -0x1508(%rbp),%rax
    f2de:	48 89 85 68 f1 ff ff 	mov    %rax,-0xe98(%rbp)
    f2e5:	48 8d 85 f8 ea ff ff 	lea    -0x1508(%rbp),%rax
    f2ec:	48 89 85 70 f1 ff ff 	mov    %rax,-0xe90(%rbp)
    f2f3:	48 8d 85 f8 ea ff ff 	lea    -0x1508(%rbp),%rax
    f2fa:	48 89 85 78 f1 ff ff 	mov    %rax,-0xe88(%rbp)
    f301:	48 8d 85 f8 ea ff ff 	lea    -0x1508(%rbp),%rax
    f308:	48 89 85 80 f1 ff ff 	mov    %rax,-0xe80(%rbp)
    f30f:	48 8d 85 f8 ea ff ff 	lea    -0x1508(%rbp),%rax
    f316:	48 89 85 88 f1 ff ff 	mov    %rax,-0xe78(%rbp)
    f31d:	48 8d 85 f8 ea ff ff 	lea    -0x1508(%rbp),%rax
    f324:	48 89 85 90 f1 ff ff 	mov    %rax,-0xe70(%rbp)
    f32b:	48 8d 85 f8 ea ff ff 	lea    -0x1508(%rbp),%rax
    f332:	48 89 85 98 f1 ff ff 	mov    %rax,-0xe68(%rbp)
    f339:	48 8d 85 f8 ea ff ff 	lea    -0x1508(%rbp),%rax
    f340:	48 89 85 a0 f1 ff ff 	mov    %rax,-0xe60(%rbp)
    f347:	48 8d 85 f8 ea ff ff 	lea    -0x1508(%rbp),%rax
    f34e:	48 89 85 a8 f1 ff ff 	mov    %rax,-0xe58(%rbp)
    f355:	48 8d 85 f8 ea ff ff 	lea    -0x1508(%rbp),%rax
    f35c:	48 89 85 b0 f1 ff ff 	mov    %rax,-0xe50(%rbp)
    f363:	48 8d 85 f8 ea ff ff 	lea    -0x1508(%rbp),%rax
    f36a:	48 89 85 b8 f1 ff ff 	mov    %rax,-0xe48(%rbp)
    f371:	48 8d 85 f8 ea ff ff 	lea    -0x1508(%rbp),%rax
    f378:	48 89 85 c0 f1 ff ff 	mov    %rax,-0xe40(%rbp)
    f37f:	48 8d 85 f8 ea ff ff 	lea    -0x1508(%rbp),%rax
    f386:	48 89 85 c8 f1 ff ff 	mov    %rax,-0xe38(%rbp)
    f38d:	48 8d 85 f8 ea ff ff 	lea    -0x1508(%rbp),%rax
    f394:	48 89 85 d0 f1 ff ff 	mov    %rax,-0xe30(%rbp)
    f39b:	48 8d 85 f8 ea ff ff 	lea    -0x1508(%rbp),%rax
    f3a2:	48 89 85 d8 f1 ff ff 	mov    %rax,-0xe28(%rbp)
    f3a9:	48 8d 85 f8 ea ff ff 	lea    -0x1508(%rbp),%rax
    f3b0:	48 89 85 e0 f1 ff ff 	mov    %rax,-0xe20(%rbp)
    f3b7:	48 8d 85 f8 ea ff ff 	lea    -0x1508(%rbp),%rax
    f3be:	48 89 85 e8 f1 ff ff 	mov    %rax,-0xe18(%rbp)
    f3c5:	48 8d 85 f8 ea ff ff 	lea    -0x1508(%rbp),%rax
    f3cc:	48 89 85 f0 f1 ff ff 	mov    %rax,-0xe10(%rbp)
    f3d3:	48 8d 85 f8 ea ff ff 	lea    -0x1508(%rbp),%rax
    f3da:	48 89 85 f8 f1 ff ff 	mov    %rax,-0xe08(%rbp)
    f3e1:	48 8d 85 f8 ea ff ff 	lea    -0x1508(%rbp),%rax
    f3e8:	48 89 85 00 f2 ff ff 	mov    %rax,-0xe00(%rbp)
    f3ef:	48 8d 85 f8 ea ff ff 	lea    -0x1508(%rbp),%rax
    f3f6:	48 89 85 08 f2 ff ff 	mov    %rax,-0xdf8(%rbp)
    f3fd:	48 8d 85 f8 ea ff ff 	lea    -0x1508(%rbp),%rax
    f404:	48 89 85 10 f2 ff ff 	mov    %rax,-0xdf0(%rbp)
    f40b:	48 8d 85 f8 ea ff ff 	lea    -0x1508(%rbp),%rax
    f412:	48 89 85 18 f2 ff ff 	mov    %rax,-0xde8(%rbp)
    f419:	48 8d 85 e0 f0 ff ff 	lea    -0xf20(%rbp),%rax
    f420:	48 05 e0 00 00 00    	add    $0xe0,%rax
    f426:	48 89 85 00 eb ff ff 	mov    %rax,-0x1500(%rbp)
    f42d:	48 c7 85 e0 f7 ff ff 	movq   $0x0,-0x820(%rbp)
    f434:	00 00 00 00 
    f438:	48 8d 85 00 eb ff ff 	lea    -0x1500(%rbp),%rax
    f43f:	48 89 85 e8 f7 ff ff 	mov    %rax,-0x818(%rbp)
    f446:	48 c7 85 f0 f7 ff ff 	movq   $0x0,-0x810(%rbp)
    f44d:	00 00 00 00 
    f451:	48 8d 85 00 eb ff ff 	lea    -0x1500(%rbp),%rax
    f458:	48 89 85 f8 f7 ff ff 	mov    %rax,-0x808(%rbp)
    f45f:	48 8d 85 00 eb ff ff 	lea    -0x1500(%rbp),%rax
    f466:	48 89 85 00 f8 ff ff 	mov    %rax,-0x800(%rbp)
    f46d:	48 8d 85 00 eb ff ff 	lea    -0x1500(%rbp),%rax
    f474:	48 89 85 08 f8 ff ff 	mov    %rax,-0x7f8(%rbp)
    f47b:	48 8d 85 00 eb ff ff 	lea    -0x1500(%rbp),%rax
    f482:	48 89 85 10 f8 ff ff 	mov    %rax,-0x7f0(%rbp)
    f489:	48 8d 85 00 eb ff ff 	lea    -0x1500(%rbp),%rax
    f490:	48 89 85 18 f8 ff ff 	mov    %rax,-0x7e8(%rbp)
    f497:	48 8d 85 00 eb ff ff 	lea    -0x1500(%rbp),%rax
    f49e:	48 89 85 20 f8 ff ff 	mov    %rax,-0x7e0(%rbp)
    f4a5:	48 8d 85 00 eb ff ff 	lea    -0x1500(%rbp),%rax
    f4ac:	48 89 85 28 f8 ff ff 	mov    %rax,-0x7d8(%rbp)
    f4b3:	48 8d 85 00 eb ff ff 	lea    -0x1500(%rbp),%rax
    f4ba:	48 89 85 30 f8 ff ff 	mov    %rax,-0x7d0(%rbp)
    f4c1:	48 8d 85 00 eb ff ff 	lea    -0x1500(%rbp),%rax
    f4c8:	48 89 85 38 f8 ff ff 	mov    %rax,-0x7c8(%rbp)
    f4cf:	48 c7 85 40 f8 ff ff 	movq   $0x0,-0x7c0(%rbp)
    f4d6:	00 00 00 00 
    f4da:	48 8d 85 00 eb ff ff 	lea    -0x1500(%rbp),%rax
    f4e1:	48 89 85 48 f8 ff ff 	mov    %rax,-0x7b8(%rbp)
    f4e8:	48 8d 85 00 eb ff ff 	lea    -0x1500(%rbp),%rax
    f4ef:	48 89 85 50 f8 ff ff 	mov    %rax,-0x7b0(%rbp)
    f4f6:	48 c7 85 58 f8 ff ff 	movq   $0x0,-0x7a8(%rbp)
    f4fd:	00 00 00 00 
    f501:	48 8d 85 00 eb ff ff 	lea    -0x1500(%rbp),%rax
    f508:	48 89 85 60 f8 ff ff 	mov    %rax,-0x7a0(%rbp)
    f50f:	48 8d 85 00 eb ff ff 	lea    -0x1500(%rbp),%rax
    f516:	48 89 85 68 f8 ff ff 	mov    %rax,-0x798(%rbp)
    f51d:	48 8d 85 00 eb ff ff 	lea    -0x1500(%rbp),%rax
    f524:	48 89 85 70 f8 ff ff 	mov    %rax,-0x790(%rbp)
    f52b:	48 8d 85 00 eb ff ff 	lea    -0x1500(%rbp),%rax
    f532:	48 89 85 78 f8 ff ff 	mov    %rax,-0x788(%rbp)
    f539:	48 8d 85 00 eb ff ff 	lea    -0x1500(%rbp),%rax
    f540:	48 89 85 80 f8 ff ff 	mov    %rax,-0x780(%rbp)
    f547:	48 8d 85 00 eb ff ff 	lea    -0x1500(%rbp),%rax
    f54e:	48 89 85 88 f8 ff ff 	mov    %rax,-0x778(%rbp)
    f555:	48 c7 85 90 f8 ff ff 	movq   $0x0,-0x770(%rbp)
    f55c:	00 00 00 00 
    f560:	48 8d 85 00 eb ff ff 	lea    -0x1500(%rbp),%rax
    f567:	48 89 85 98 f8 ff ff 	mov    %rax,-0x768(%rbp)
    f56e:	48 8d 85 00 eb ff ff 	lea    -0x1500(%rbp),%rax
    f575:	48 89 85 a0 f8 ff ff 	mov    %rax,-0x760(%rbp)
    f57c:	48 8d 85 00 eb ff ff 	lea    -0x1500(%rbp),%rax
    f583:	48 89 85 a8 f8 ff ff 	mov    %rax,-0x758(%rbp)
    f58a:	48 8d 85 00 eb ff ff 	lea    -0x1500(%rbp),%rax
    f591:	48 89 85 b0 f8 ff ff 	mov    %rax,-0x750(%rbp)
    f598:	48 c7 85 b8 f8 ff ff 	movq   $0x0,-0x748(%rbp)
    f59f:	00 00 00 00 
    f5a3:	48 8d 85 00 eb ff ff 	lea    -0x1500(%rbp),%rax
    f5aa:	48 89 85 c0 f8 ff ff 	mov    %rax,-0x740(%rbp)
    f5b1:	48 8d 85 00 eb ff ff 	lea    -0x1500(%rbp),%rax
    f5b8:	48 89 85 c8 f8 ff ff 	mov    %rax,-0x738(%rbp)
    f5bf:	48 c7 85 d0 f8 ff ff 	movq   $0x0,-0x730(%rbp)
    f5c6:	00 00 00 00 
    f5ca:	48 8d 85 00 eb ff ff 	lea    -0x1500(%rbp),%rax
    f5d1:	48 89 85 d8 f8 ff ff 	mov    %rax,-0x728(%rbp)
    f5d8:	48 8d 85 00 eb ff ff 	lea    -0x1500(%rbp),%rax
    f5df:	48 89 85 e0 f8 ff ff 	mov    %rax,-0x720(%rbp)
    f5e6:	48 8d 85 00 eb ff ff 	lea    -0x1500(%rbp),%rax
    f5ed:	48 89 85 e8 f8 ff ff 	mov    %rax,-0x718(%rbp)
    f5f4:	48 8d 85 00 eb ff ff 	lea    -0x1500(%rbp),%rax
    f5fb:	48 89 85 f0 f8 ff ff 	mov    %rax,-0x710(%rbp)
    f602:	48 8d 85 00 eb ff ff 	lea    -0x1500(%rbp),%rax
    f609:	48 89 85 f8 f8 ff ff 	mov    %rax,-0x708(%rbp)
    f610:	48 8d 85 00 eb ff ff 	lea    -0x1500(%rbp),%rax
    f617:	48 89 85 00 f9 ff ff 	mov    %rax,-0x700(%rbp)
    f61e:	48 8d 85 00 eb ff ff 	lea    -0x1500(%rbp),%rax
    f625:	48 89 85 08 f9 ff ff 	mov    %rax,-0x6f8(%rbp)
    f62c:	48 8d 85 00 eb ff ff 	lea    -0x1500(%rbp),%rax
    f633:	48 89 85 10 f9 ff ff 	mov    %rax,-0x6f0(%rbp)
    f63a:	48 8d 85 00 eb ff ff 	lea    -0x1500(%rbp),%rax
    f641:	48 89 85 18 f9 ff ff 	mov    %rax,-0x6e8(%rbp)
    f648:	48 8d 85 00 eb ff ff 	lea    -0x1500(%rbp),%rax
    f64f:	48 89 85 20 f9 ff ff 	mov    %rax,-0x6e0(%rbp)
    f656:	48 8d 85 00 eb ff ff 	lea    -0x1500(%rbp),%rax
    f65d:	48 89 85 28 f9 ff ff 	mov    %rax,-0x6d8(%rbp)
    f664:	48 c7 85 30 f9 ff ff 	movq   $0x0,-0x6d0(%rbp)
    f66b:	00 00 00 00 
    f66f:	48 8d 85 00 eb ff ff 	lea    -0x1500(%rbp),%rax
    f676:	48 89 85 38 f9 ff ff 	mov    %rax,-0x6c8(%rbp)
    f67d:	48 8d 85 00 eb ff ff 	lea    -0x1500(%rbp),%rax
    f684:	48 89 85 40 f9 ff ff 	mov    %rax,-0x6c0(%rbp)
    f68b:	48 8d 05 36 0a 01 00 	lea    0x10a36(%rip),%rax        # 200c8 <g_689>
    f692:	48 89 85 08 eb ff ff 	mov    %rax,-0x14f8(%rbp)
    f699:	48 8d 85 08 eb ff ff 	lea    -0x14f8(%rbp),%rax
    f6a0:	48 89 85 a8 ec ff ff 	mov    %rax,-0x1358(%rbp)
    f6a7:	48 8b 05 42 0a 01 00 	mov    0x10a42(%rip),%rax        # 200f0 <g_984>
    f6ae:	0f b7 00             	movzwl (%rax),%eax
    f6b1:	0f bf d8             	movswl %ax,%ebx
    f6b4:	8b 85 74 e9 ff ff    	mov    -0x168c(%rbp),%eax
    f6ba:	44 0f bf e0          	movswl %ax,%r12d
    f6be:	48 8b 05 2b 0a 01 00 	mov    0x10a2b(%rip),%rax        # 200f0 <g_984>
    f6c5:	0f b7 00             	movzwl (%rax),%eax
    f6c8:	44 0f b7 e8          	movzwl %ax,%r13d
    f6cc:	48 c7 85 a0 ec ff ff 	movq   $0x0,-0x1360(%rbp)
    f6d3:	00 00 00 00 
    f6d7:	44 0f bf b5 7c e9 ff 	movswl -0x1684(%rbp),%r14d
    f6de:	ff 
    f6df:	48 8b 85 a8 ec ff ff 	mov    -0x1358(%rbp),%rax
    f6e6:	48 c7 00 00 00 00 00 	movq   $0x0,(%rax)
    f6ed:	0f b7 85 7c e9 ff ff 	movzwl -0x1684(%rbp),%eax
    f6f4:	0f be c0             	movsbl %al,%eax
    f6f7:	be 01 00 00 00       	mov    $0x1,%esi
    f6fc:	89 c7                	mov    %eax,%edi
    f6fe:	e8 d1 aa ff ff       	callq  a1d4 <safe_add_func_int8_t_s_s>
    f703:	66 98                	cbtw   
    f705:	8b 95 74 e9 ff ff    	mov    -0x168c(%rbp),%edx
    f70b:	09 c2                	or     %eax,%edx
    f70d:	48 8b 05 54 07 01 00 	mov    0x10754(%rip),%rax        # 1fe68 <g_152>
    f714:	66 89 10             	mov    %dx,(%rax)
    f717:	0f b7 00             	movzwl (%rax),%eax
    f71a:	0f b7 c0             	movzwl %ax,%eax
    f71d:	44 89 f2             	mov    %r14d,%edx
    f720:	31 c2                	xor    %eax,%edx
    f722:	48 8b 85 58 eb ff ff 	mov    -0x14a8(%rbp),%rax
    f729:	48 8b 00             	mov    (%rax),%rax
    f72c:	48 63 d2             	movslq %edx,%rdx
    f72f:	48 89 10             	mov    %rdx,(%rax)
    f732:	44 89 ee             	mov    %r13d,%esi
    f735:	bf 01 00 00 00       	mov    $0x1,%edi
    f73a:	e8 c0 b5 ff ff       	callq  acff <safe_add_func_uint16_t_u_u>
    f73f:	98                   	cwtl   
    f740:	44 89 e6             	mov    %r12d,%esi
    f743:	89 c7                	mov    %eax,%edi
    f745:	e8 89 ac ff ff       	callq  a3d3 <safe_sub_func_int16_t_s_s>
    f74a:	48 8b 05 87 07 01 00 	mov    0x10787(%rip),%rax        # 1fed8 <g_533>
    f751:	0f b6 00             	movzbl (%rax),%eax
    f754:	3c a0                	cmp    $0xa0,%al
    f756:	0f 97 c0             	seta   %al
    f759:	0f b6 c0             	movzbl %al,%eax
    f75c:	89 de                	mov    %ebx,%esi
    f75e:	89 c7                	mov    %eax,%edi
    f760:	e8 c5 ad ff ff       	callq  a52a <safe_rshift_func_int16_t_s_s>
    f765:	b9 01 00 00 00       	mov    $0x1,%ecx
    f76a:	48 8b 05 ff 06 01 00 	mov    0x106ff(%rip),%rax        # 1fe70 <g_166>
    f771:	8b 10                	mov    (%rax),%edx
    f773:	48 8b 05 f6 06 01 00 	mov    0x106f6(%rip),%rax        # 1fe70 <g_166>
    f77a:	21 ca                	and    %ecx,%edx
    f77c:	89 10                	mov    %edx,(%rax)
    f77e:	8b 05 4c e0 00 00    	mov    0xe04c(%rip),%eax        # 1d7d0 <g_3303>
    f784:	83 c0 01             	add    $0x1,%eax
    f787:	89 05 43 e0 00 00    	mov    %eax,0xe043(%rip)        # 1d7d0 <g_3303>
    f78d:	8b 05 3d e0 00 00    	mov    0xe03d(%rip),%eax        # 1d7d0 <g_3303>
    f793:	83 f8 02             	cmp    $0x2,%eax
    f796:	0f 86 42 fa ff ff    	jbe    f1de <func_7+0x2500>
    f79c:	8b 05 62 e1 00 00    	mov    0xe162(%rip),%eax        # 1d904 <g_3850>
    f7a2:	8b 85 78 e9 ff ff    	mov    -0x1688(%rbp),%eax
    f7a8:	44 0f be e0          	movsbl %al,%r12d
    f7ac:	8b 85 74 e9 ff ff    	mov    -0x168c(%rbp),%eax
    f7b2:	48 63 d8             	movslq %eax,%rbx
    f7b5:	48 8b 05 fc 0a 01 00 	mov    0x10afc(%rip),%rax        # 202b8 <g_1481>
    f7bc:	48 8b 00             	mov    (%rax),%rax
    f7bf:	48 8b 00             	mov    (%rax),%rax
    f7c2:	48 8b 08             	mov    (%rax),%rcx
    f7c5:	8b 95 78 e9 ff ff    	mov    -0x1688(%rbp),%edx
    f7cb:	48 8b 05 e6 0a 01 00 	mov    0x10ae6(%rip),%rax        # 202b8 <g_1481>
    f7d2:	48 8b 00             	mov    (%rax),%rax
    f7d5:	48 8b 00             	mov    (%rax),%rax
    f7d8:	48 09 ca             	or     %rcx,%rdx
    f7db:	48 89 10             	mov    %rdx,(%rax)
    f7de:	8b 85 78 e9 ff ff    	mov    -0x1688(%rbp),%eax
    f7e4:	44 0f b7 e8          	movzwl %ax,%r13d
    f7e8:	44 8b b5 74 e9 ff ff 	mov    -0x168c(%rbp),%r14d
    f7ef:	8b 85 74 e9 ff ff    	mov    -0x168c(%rbp),%eax
    f7f5:	0f be c0             	movsbl %al,%eax
    f7f8:	89 c6                	mov    %eax,%esi
    f7fa:	bf ff ff ff ff       	mov    $0xffffffff,%edi
    f7ff:	e8 0e aa ff ff       	callq  a212 <safe_mul_func_int8_t_s_s>
    f804:	0f be c0             	movsbl %al,%eax
    f807:	44 89 f6             	mov    %r14d,%esi
    f80a:	89 c7                	mov    %eax,%edi
    f80c:	e8 dd aa ff ff       	callq  a2ee <safe_lshift_func_int8_t_s_u>
    f811:	0f be d0             	movsbl %al,%edx
    f814:	8b 85 78 e9 ff ff    	mov    -0x1688(%rbp),%eax
    f81a:	0f be c0             	movsbl %al,%eax
    f81d:	89 d6                	mov    %edx,%esi
    f81f:	89 c7                	mov    %eax,%edi
    f821:	e8 44 aa ff ff       	callq  a26a <safe_div_func_int8_t_s_s>
    f826:	0f be c0             	movsbl %al,%eax
    f829:	8b 95 78 e9 ff ff    	mov    -0x1688(%rbp),%edx
    f82f:	89 d6                	mov    %edx,%esi
    f831:	89 c7                	mov    %eax,%edi
    f833:	e8 80 b6 ff ff       	callq  aeb8 <safe_add_func_uint32_t_u_u>
    f838:	89 c1                	mov    %eax,%ecx
    f83a:	48 8b 15 af 08 01 00 	mov    0x108af(%rip),%rdx        # 200f0 <g_984>
    f841:	48 8b 05 a8 08 01 00 	mov    0x108a8(%rip),%rax        # 200f0 <g_984>
    f848:	0f b7 12             	movzwl (%rdx),%edx
    f84b:	66 89 10             	mov    %dx,(%rax)
    f84e:	0f b7 00             	movzwl (%rax),%eax
    f851:	98                   	cwtl   
    f852:	89 ce                	mov    %ecx,%esi
    f854:	89 c7                	mov    %eax,%edi
    f856:	e8 08 ad ff ff       	callq  a563 <safe_rshift_func_int16_t_s_u>
    f85b:	0f b7 c0             	movzwl %ax,%eax
    f85e:	44 89 ee             	mov    %r13d,%esi
    f861:	89 c7                	mov    %eax,%edi
    f863:	e8 d5 b4 ff ff       	callq  ad3d <safe_mul_func_uint16_t_u_u>
    f868:	66 85 c0             	test   %ax,%ax
    f86b:	75 0b                	jne    f878 <func_7+0x2b9a>
    f86d:	0f b6 85 33 ed ff ff 	movzbl -0x12cd(%rbp),%eax
    f874:	84 c0                	test   %al,%al
    f876:	74 07                	je     f87f <func_7+0x2ba1>
    f878:	b8 01 00 00 00       	mov    $0x1,%eax
    f87d:	eb 05                	jmp    f884 <func_7+0x2ba6>
    f87f:	b8 00 00 00 00       	mov    $0x0,%eax
    f884:	f7 d0                	not    %eax
    f886:	0f b6 c0             	movzbl %al,%eax
    f889:	48 8b 95 c0 ea ff ff 	mov    -0x1540(%rbp),%rdx
    f890:	4c 8b 2a             	mov    (%rdx),%r13
    f893:	44 89 e2             	mov    %r12d,%edx
    f896:	48 89 de             	mov    %rbx,%rsi
    f899:	89 c7                	mov    %eax,%edi
    f89b:	e8 cc 24 00 00       	callq  11d6c <func_34>
    f8a0:	49 89 45 00          	mov    %rax,0x0(%r13)
    f8a4:	48 8b 05 dd dd 00 00 	mov    0xdddd(%rip),%rax        # 1d688 <g_2569>
    f8ab:	48 83 c0 01          	add    $0x1,%rax
    f8af:	48 89 05 d2 dd 00 00 	mov    %rax,0xddd2(%rip)        # 1d688 <g_2569>
    f8b6:	48 8b 05 cb dd 00 00 	mov    0xddcb(%rip),%rax        # 1d688 <g_2569>
    f8bd:	48 83 f8 02          	cmp    $0x2,%rax
    f8c1:	0f 8e e6 ec ff ff    	jle    e5ad <func_7+0x18cf>
    f8c7:	8b 05 97 dd 00 00    	mov    0xdd97(%rip),%eax        # 1d664 <g_2297>
    f8cd:	83 c0 01             	add    $0x1,%eax
    f8d0:	89 05 8e dd 00 00    	mov    %eax,0xdd8e(%rip)        # 1d664 <g_2297>
    f8d6:	8b 05 88 dd 00 00    	mov    0xdd88(%rip),%eax        # 1d664 <g_2297>
    f8dc:	83 f8 11             	cmp    $0x11,%eax
    f8df:	0f 8e ac d9 ff ff    	jle    d291 <func_7+0x5b3>
    f8e5:	48 8b 05 7c 05 01 00 	mov    0x1057c(%rip),%rax        # 1fe68 <g_152>
    f8ec:	0f b7 00             	movzwl (%rax),%eax
    f8ef:	0f b7 d8             	movzwl %ax,%ebx
    f8f2:	48 8b 85 b8 ea ff ff 	mov    -0x1548(%rbp),%rax
    f8f9:	48 8b 00             	mov    (%rax),%rax
    f8fc:	44 8b 20             	mov    (%rax),%r12d
    f8ff:	be 0c 00 00 00       	mov    $0xc,%esi
    f904:	bf 08 00 00 00       	mov    $0x8,%edi
    f909:	e8 6c b5 ff ff       	callq  ae7a <safe_rshift_func_uint16_t_u_u>
    f90e:	0f b7 c0             	movzwl %ax,%eax
    f911:	0d 11 05 e6 aa       	or     $0xaae60511,%eax
    f916:	89 c2                	mov    %eax,%edx
    f918:	48 8b 05 d1 07 01 00 	mov    0x107d1(%rip),%rax        # 200f0 <g_984>
    f91f:	0f b7 00             	movzwl (%rax),%eax
    f922:	98                   	cwtl   
    f923:	89 d6                	mov    %edx,%esi
    f925:	89 c7                	mov    %eax,%edi
    f927:	e8 b5 ab ff ff       	callq  a4e1 <safe_lshift_func_int16_t_s_u>
    f92c:	48 8b 85 70 eb ff ff 	mov    -0x1490(%rbp),%rax
    f933:	48 8b 00             	mov    (%rax),%rax
    f936:	48 8b 00             	mov    (%rax),%rax
    f939:	48 8b 00             	mov    (%rax),%rax
    f93c:	48 8b 00             	mov    (%rax),%rax
    f93f:	8b 10                	mov    (%rax),%edx
    f941:	48 8b 05 a8 07 01 00 	mov    0x107a8(%rip),%rax        # 200f0 <g_984>
    f948:	0f b7 00             	movzwl (%rax),%eax
    f94b:	98                   	cwtl   
    f94c:	39 c2                	cmp    %eax,%edx
    f94e:	0f 9c c0             	setl   %al
    f951:	44 0f b6 e8          	movzbl %al,%r13d
    f955:	48 8b 85 48 eb ff ff 	mov    -0x14b8(%rbp),%rax
    f95c:	48 8b 00             	mov    (%rax),%rax
    f95f:	0f b6 10             	movzbl (%rax),%edx
    f962:	48 8b 85 48 eb ff ff 	mov    -0x14b8(%rbp),%rax
    f969:	48 8b 00             	mov    (%rax),%rax
    f96c:	83 f2 3a             	xor    $0x3a,%edx
    f96f:	88 10                	mov    %dl,(%rax)
    f971:	0f b6 00             	movzbl (%rax),%eax
    f974:	0f be c0             	movsbl %al,%eax
    f977:	89 c6                	mov    %eax,%esi
    f979:	bf f9 ff ff ff       	mov    $0xfffffff9,%edi
    f97e:	e8 ae a8 ff ff       	callq  a231 <safe_mod_func_int8_t_s_s>
    f983:	0f be c0             	movsbl %al,%eax
    f986:	44 89 ee             	mov    %r13d,%esi
    f989:	89 c7                	mov    %eax,%edi
    f98b:	e8 75 ac ff ff       	callq  a605 <safe_sub_func_int32_t_s_s>
    f990:	0f b6 c0             	movzbl %al,%eax
    f993:	be 01 00 00 00       	mov    $0x1,%esi
    f998:	89 c7                	mov    %eax,%edi
    f99a:	e8 bb b1 ff ff       	callq  ab5a <safe_add_func_uint8_t_u_u>
    f99f:	0f b6 d0             	movzbl %al,%edx
    f9a2:	48 8b 85 10 eb ff ff 	mov    -0x14f0(%rbp),%rax
    f9a9:	48 8b 00             	mov    (%rax),%rax
    f9ac:	48 8b 00             	mov    (%rax),%rax
    f9af:	48 8b 00             	mov    (%rax),%rax
    f9b2:	48 8b 30             	mov    (%rax),%rsi
    f9b5:	48 8b 85 60 eb ff ff 	mov    -0x14a0(%rbp),%rax
    f9bc:	48 8b 00             	mov    (%rax),%rax
    f9bf:	48 8b 00             	mov    (%rax),%rax
    f9c2:	48 8b 00             	mov    (%rax),%rax
    f9c5:	48 8b 08             	mov    (%rax),%rcx
    f9c8:	48 8b 85 88 eb ff ff 	mov    -0x1478(%rbp),%rax
    f9cf:	48 89 08             	mov    %rcx,(%rax)
    f9d2:	48 8b 85 88 eb ff ff 	mov    -0x1478(%rbp),%rax
    f9d9:	48 8b 00             	mov    (%rax),%rax
    f9dc:	48 39 c6             	cmp    %rax,%rsi
    f9df:	0f 95 c0             	setne  %al
    f9e2:	0f b6 c0             	movzbl %al,%eax
    f9e5:	89 d6                	mov    %edx,%esi
    f9e7:	89 c7                	mov    %eax,%edi
    f9e9:	e8 a5 b1 ff ff       	callq  ab93 <safe_mul_func_uint8_t_u_u>
    f9ee:	48 8b 05 0b 11 01 00 	mov    0x1110b(%rip),%rax        # 20b00 <g_1918>
    f9f5:	48 8b 10             	mov    (%rax),%rdx
    f9f8:	48 8b 85 b0 ea ff ff 	mov    -0x1550(%rbp),%rax
    f9ff:	8b 00                	mov    (%rax),%eax
    fa01:	48 98                	cltq   
    fa03:	48 39 c2             	cmp    %rax,%rdx
    fa06:	0f 95 c0             	setne  %al
    fa09:	0f b6 c0             	movzbl %al,%eax
    fa0c:	44 89 e6             	mov    %r12d,%esi
    fa0f:	89 c7                	mov    %eax,%edi
    fa11:	e8 a0 ab ff ff       	callq  a5b6 <safe_add_func_int32_t_s_s>
    fa16:	89 c2                	mov    %eax,%edx
    fa18:	8b 85 74 e9 ff ff    	mov    -0x168c(%rbp),%eax
    fa1e:	21 d0                	and    %edx,%eax
    fa20:	0f b7 c0             	movzwl %ax,%eax
    fa23:	89 de                	mov    %ebx,%esi
    fa25:	89 c7                	mov    %eax,%edi
    fa27:	e8 d3 b2 ff ff       	callq  acff <safe_add_func_uint16_t_u_u>
    fa2c:	8b 85 74 e9 ff ff    	mov    -0x168c(%rbp),%eax
    fa32:	89 c6                	mov    %eax,%esi
    fa34:	bf f8 ff ff ff       	mov    $0xfffffff8,%edi
    fa39:	e8 f7 a8 ff ff       	callq  a335 <safe_rshift_func_int8_t_s_s>
    fa3e:	48 8b 05 ab 06 01 00 	mov    0x106ab(%rip),%rax        # 200f0 <g_984>
    fa45:	0f b7 00             	movzwl (%rax),%eax
    fa48:	0f bf d0             	movswl %ax,%edx
    fa4b:	48 8b 05 16 04 01 00 	mov    0x10416(%rip),%rax        # 1fe68 <g_152>
    fa52:	0f b7 00             	movzwl (%rax),%eax
    fa55:	0f b7 c0             	movzwl %ax,%eax
    fa58:	39 c2                	cmp    %eax,%edx
    fa5a:	0f 9e c0             	setle  %al
    fa5d:	0f b6 c0             	movzbl %al,%eax
    fa60:	be 05 00 00 00       	mov    $0x5,%esi
    fa65:	89 c7                	mov    %eax,%edi
    fa67:	e8 75 aa ff ff       	callq  a4e1 <safe_lshift_func_int16_t_s_u>
    fa6c:	89 c2                	mov    %eax,%edx
    fa6e:	48 8b 85 c0 ea ff ff 	mov    -0x1540(%rbp),%rax
    fa75:	48 8b 00             	mov    (%rax),%rax
    fa78:	48 8b 00             	mov    (%rax),%rax
    fa7b:	0f bf d2             	movswl %dx,%edx
    fa7e:	89 10                	mov    %edx,(%rax)
    fa80:	8b 00                	mov    (%rax),%eax
    fa82:	23 85 78 e9 ff ff    	and    -0x1688(%rbp),%eax
    fa88:	85 c0                	test   %eax,%eax
    fa8a:	74 18                	je     faa4 <func_7+0x2dc6>
    fa8c:	48 8b 05 55 12 01 00 	mov    0x11255(%rip),%rax        # 20ce8 <g_2273>
    fa93:	48 8b 00             	mov    (%rax),%rax
    fa96:	0f b6 00             	movzbl (%rax),%eax
    fa99:	84 c0                	test   %al,%al
    fa9b:	74 07                	je     faa4 <func_7+0x2dc6>
    fa9d:	b8 01 00 00 00       	mov    $0x1,%eax
    faa2:	eb 05                	jmp    faa9 <func_7+0x2dcb>
    faa4:	b8 00 00 00 00       	mov    $0x0,%eax
    faa9:	83 f8 05             	cmp    $0x5,%eax
    faac:	76 07                	jbe    fab5 <func_7+0x2dd7>
    faae:	ba 1e df d1 2c       	mov    $0x2cd1df1e,%edx
    fab3:	eb 05                	jmp    faba <func_7+0x2ddc>
    fab5:	ba 1f df d1 2c       	mov    $0x2cd1df1f,%edx
    faba:	48 8b 05 af 03 01 00 	mov    0x103af(%rip),%rax        # 1fe70 <g_166>
    fac1:	89 10                	mov    %edx,(%rax)
    fac3:	c7 05 97 db 00 00 01 	movl   $0x1,0xdb97(%rip)        # 1d664 <g_2297>
    faca:	00 00 00 
    facd:	e9 33 16 00 00       	jmpq   11105 <func_7+0x4427>
    fad2:	48 8d 05 d7 07 01 00 	lea    0x107d7(%rip),%rax        # 202b0 <g_1482>
    fad9:	48 89 85 e0 ea ff ff 	mov    %rax,-0x1520(%rbp)
    fae0:	c7 85 b4 e9 ff ff ff 	movl   $0xffffffff,-0x164c(%rbp)
    fae7:	ff ff ff 
    faea:	48 8d 05 df 03 01 00 	lea    0x103df(%rip),%rax        # 1fed0 <g_435>
    faf1:	48 89 85 a0 eb ff ff 	mov    %rax,-0x1460(%rbp)
    faf8:	c7 85 00 ea ff ff b2 	movl   $0x9315d1b2,-0x1600(%rbp)
    faff:	d1 15 93 
    fb02:	c7 85 04 ea ff ff ff 	movl   $0xffffffff,-0x15fc(%rbp)
    fb09:	ff ff ff 
    fb0c:	c7 85 08 ea ff ff 74 	movl   $0x48225f74,-0x15f8(%rbp)
    fb13:	5f 22 48 
    fb16:	48 8d 05 53 89 00 00 	lea    0x8953(%rip),%rax        # 18470 <g_3558>
    fb1d:	48 89 85 e8 ea ff ff 	mov    %rax,-0x1518(%rbp)
    fb24:	48 8d 85 e8 ea ff ff 	lea    -0x1518(%rbp),%rax
    fb2b:	48 89 85 f0 ea ff ff 	mov    %rax,-0x1510(%rbp)
    fb32:	48 8d 85 f0 ea ff ff 	lea    -0x1510(%rbp),%rax
    fb39:	48 89 85 f8 ea ff ff 	mov    %rax,-0x1508(%rbp)
    fb40:	48 8d 85 f8 ea ff ff 	lea    -0x1508(%rbp),%rax
    fb47:	48 89 85 00 eb ff ff 	mov    %rax,-0x1500(%rbp)
    fb4e:	c6 05 b3 d5 00 00 00 	movb   $0x0,0xd5b3(%rip)        # 1d108 <g_274>
    fb55:	eb 6a                	jmp    fbc1 <func_7+0x2ee3>
    fb57:	c7 85 34 ea ff ff 81 	movl   $0x905a5581,-0x15cc(%rbp)
    fb5e:	55 5a 90 
    fb61:	c7 85 e4 e9 ff ff 4d 	movl   $0xda6aa54d,-0x161c(%rbp)
    fb68:	a5 6a da 
    fb6b:	48 8b 05 3e 1f 01 00 	mov    0x11f3e(%rip),%rax        # 21ab0 <g_3888>
    fb72:	48 8d 15 2f 04 01 00 	lea    0x1042f(%rip),%rdx        # 1ffa8 <g_608>
    fb79:	48 89 10             	mov    %rdx,(%rax)
    fb7c:	8b 85 74 e9 ff ff    	mov    -0x168c(%rbp),%eax
    fb82:	21 85 34 ea ff ff    	and    %eax,-0x15cc(%rbp)
    fb88:	c6 85 85 e9 ff ff 00 	movb   $0x0,-0x167b(%rbp)
    fb8f:	eb 17                	jmp    fba8 <func_7+0x2eca>
    fb91:	66 c7 85 96 e9 ff ff 	movw   $0x0,-0x166a(%rbp)
    fb98:	00 00 
    fb9a:	83 ad e4 e9 ff ff 01 	subl   $0x1,-0x161c(%rbp)
    fba1:	80 85 85 e9 ff ff 01 	addb   $0x1,-0x167b(%rbp)
    fba8:	80 bd 85 e9 ff ff 03 	cmpb   $0x3,-0x167b(%rbp)
    fbaf:	76 e0                	jbe    fb91 <func_7+0x2eb3>
    fbb1:	0f b6 05 50 d5 00 00 	movzbl 0xd550(%rip),%eax        # 1d108 <g_274>
    fbb8:	83 c0 01             	add    $0x1,%eax
    fbbb:	88 05 47 d5 00 00    	mov    %al,0xd547(%rip)        # 1d108 <g_274>
    fbc1:	0f b6 05 40 d5 00 00 	movzbl 0xd540(%rip),%eax        # 1d108 <g_274>
    fbc8:	3c 03                	cmp    $0x3,%al
    fbca:	7e 8b                	jle    fb57 <func_7+0x2e79>
    fbcc:	48 8b 85 70 eb ff ff 	mov    -0x1490(%rbp),%rax
    fbd3:	48 8b 00             	mov    (%rax),%rax
    fbd6:	48 8b 00             	mov    (%rax),%rax
    fbd9:	48 8b 10             	mov    (%rax),%rdx
    fbdc:	48 8b 85 70 eb ff ff 	mov    -0x1490(%rbp),%rax
    fbe3:	48 8b 00             	mov    (%rax),%rax
    fbe6:	48 8b 00             	mov    (%rax),%rax
    fbe9:	48 8b 00             	mov    (%rax),%rax
    fbec:	48 8b 12             	mov    (%rdx),%rdx
    fbef:	48 89 10             	mov    %rdx,(%rax)
    fbf2:	c6 05 b7 da 00 00 1d 	movb   $0x1d,0xdab7(%rip)        # 1d6b0 <g_2696>
    fbf9:	e9 8d 14 00 00       	jmpq   1108b <func_7+0x43ad>
    fbfe:	c7 85 0c ea ff ff ff 	movl   $0xffffffff,-0x15f4(%rbp)
    fc05:	ff ff ff 
    fc08:	48 8d 05 a1 db 00 00 	lea    0xdba1(%rip),%rax        # 1d7b0 <g_3149>
    fc0f:	48 89 85 08 eb ff ff 	mov    %rax,-0x14f8(%rbp)
    fc16:	48 8d 85 e0 f0 ff ff 	lea    -0xf20(%rbp),%rax
    fc1d:	48 83 c0 10          	add    $0x10,%rax
    fc21:	48 89 85 a8 eb ff ff 	mov    %rax,-0x1458(%rbp)
    fc28:	c7 85 b8 e9 ff ff 05 	movl   $0x755d6d05,-0x1648(%rbp)
    fc2f:	6d 5d 75 
    fc32:	48 8d 05 7f 06 01 00 	lea    0x1067f(%rip),%rax        # 202b8 <g_1481>
    fc39:	48 89 85 b0 eb ff ff 	mov    %rax,-0x1450(%rbp)
    fc40:	48 8d 05 89 0e 01 00 	lea    0x10e89(%rip),%rax        # 20ad0 <g_1893>
    fc47:	48 89 85 b8 eb ff ff 	mov    %rax,-0x1448(%rbp)
    fc4e:	48 c7 85 c0 eb ff ff 	movq   $0x0,-0x1440(%rbp)
    fc55:	00 00 00 00 
    fc59:	c7 85 10 ea ff ff f5 	movl   $0x1cd770f5,-0x15f0(%rbp)
    fc60:	70 d7 1c 
    fc63:	c7 85 14 ea ff ff 06 	movl   $0x6,-0x15ec(%rbp)
    fc6a:	00 00 00 
    fc6d:	c7 85 18 ea ff ff 00 	movl   $0x0,-0x15e8(%rbp)
    fc74:	00 00 00 
    fc77:	c7 85 e8 e9 ff ff 00 	movl   $0x0,-0x1618(%rbp)
    fc7e:	00 00 00 
    fc81:	eb 1e                	jmp    fca1 <func_7+0x2fc3>
    fc83:	8b 85 e8 e9 ff ff    	mov    -0x1618(%rbp),%eax
    fc89:	48 98                	cltq   
    fc8b:	48 8d 95 08 eb ff ff 	lea    -0x14f8(%rbp),%rdx
    fc92:	48 89 94 c5 e0 f0 ff 	mov    %rdx,-0xf20(%rbp,%rax,8)
    fc99:	ff 
    fc9a:	83 85 e8 e9 ff ff 01 	addl   $0x1,-0x1618(%rbp)
    fca1:	83 bd e8 e9 ff ff 07 	cmpl   $0x7,-0x1618(%rbp)
    fca8:	7e d9                	jle    fc83 <func_7+0x2fa5>
    fcaa:	48 8b 05 b7 01 01 00 	mov    0x101b7(%rip),%rax        # 1fe68 <g_152>
    fcb1:	0f b7 00             	movzwl (%rax),%eax
    fcb4:	0f b7 c0             	movzwl %ax,%eax
    fcb7:	be 00 00 00 00       	mov    $0x0,%esi
    fcbc:	89 c7                	mov    %eax,%edi
    fcbe:	e8 3c b0 ff ff       	callq  acff <safe_add_func_uint16_t_u_u>
    fcc3:	b9 01 00 00 00       	mov    $0x1,%ecx
    fcc8:	48 8b 85 c8 ea ff ff 	mov    -0x1538(%rbp),%rax
    fccf:	48 8b 00             	mov    (%rax),%rax
    fcd2:	48 8b 00             	mov    (%rax),%rax
    fcd5:	48 8b 00             	mov    (%rax),%rax
    fcd8:	8b 10                	mov    (%rax),%edx
    fcda:	48 8b 85 c8 ea ff ff 	mov    -0x1538(%rbp),%rax
    fce1:	48 8b 00             	mov    (%rax),%rax
    fce4:	48 8b 00             	mov    (%rax),%rax
    fce7:	48 8b 00             	mov    (%rax),%rax
    fcea:	21 ca                	and    %ecx,%edx
    fcec:	89 10                	mov    %edx,(%rax)
    fcee:	c7 85 9c e9 ff ff 02 	movl   $0x2,-0x1664(%rbp)
    fcf5:	00 00 00 
    fcf8:	eb 55                	jmp    fd4f <func_7+0x3071>
    fcfa:	48 b8 d0 dd ca cb 05 	movabs $0x45d9af05cbcaddd0,%rax
    fd01:	af d9 45 
    fd04:	48 89 85 d8 eb ff ff 	mov    %rax,-0x1428(%rbp)
    fd0b:	48 8b 85 70 eb ff ff 	mov    -0x1490(%rbp),%rax
    fd12:	48 8b 00             	mov    (%rax),%rax
    fd15:	48 8b 00             	mov    (%rax),%rax
    fd18:	48 8b 00             	mov    (%rax),%rax
    fd1b:	48 8b 00             	mov    (%rax),%rax
    fd1e:	8b 10                	mov    (%rax),%edx
    fd20:	48 8b 85 70 eb ff ff 	mov    -0x1490(%rbp),%rax
    fd27:	48 8b 00             	mov    (%rax),%rax
    fd2a:	48 8b 00             	mov    (%rax),%rax
    fd2d:	48 8b 00             	mov    (%rax),%rax
    fd30:	48 8b 00             	mov    (%rax),%rax
    fd33:	83 e2 01             	and    $0x1,%edx
    fd36:	89 10                	mov    %edx,(%rax)
    fd38:	48 83 ad d8 eb ff ff 	subq   $0x1,-0x1428(%rbp)
    fd3f:	01 
    fd40:	8b 85 9c e9 ff ff    	mov    -0x1664(%rbp),%eax
    fd46:	83 e8 01             	sub    $0x1,%eax
    fd49:	89 85 9c e9 ff ff    	mov    %eax,-0x1664(%rbp)
    fd4f:	8b 85 9c e9 ff ff    	mov    -0x1664(%rbp),%eax
    fd55:	85 c0                	test   %eax,%eax
    fd57:	79 a1                	jns    fcfa <func_7+0x301c>
    fd59:	66 83 bd 7c e9 ff ff 	cmpw   $0x0,-0x1684(%rbp)
    fd60:	00 
    fd61:	0f 84 cf 04 00 00    	je     10236 <func_7+0x3558>
    fd67:	c6 85 8b e9 ff ff 00 	movb   $0x0,-0x1675(%rbp)
    fd6e:	c7 85 24 ea ff ff 06 	movl   $0xb893a706,-0x15dc(%rbp)
    fd75:	a7 93 b8 
    fd78:	c7 85 28 ea ff ff 02 	movl   $0x2,-0x15d8(%rbp)
    fd7f:	00 00 00 
    fd82:	0f bf 9d 7c e9 ff ff 	movswl -0x1684(%rbp),%ebx
    fd89:	8b 85 74 e9 ff ff    	mov    -0x168c(%rbp),%eax
    fd8f:	44 0f bf e0          	movswl %ax,%r12d
    fd93:	48 8b 05 26 05 01 00 	mov    0x10526(%rip),%rax        # 202c0 <g_1480>
    fd9a:	48 8b 95 e0 ea ff ff 	mov    -0x1520(%rbp),%rdx
    fda1:	48 89 10             	mov    %rdx,(%rax)
    fda4:	44 0f b6 ad 8b e9 ff 	movzbl -0x1675(%rbp),%r13d
    fdab:	ff 
    fdac:	48 8b 05 e5 0e 01 00 	mov    0x10ee5(%rip),%rax        # 20c98 <g_2222>
    fdb3:	8b 00                	mov    (%rax),%eax
    fdb5:	85 c0                	test   %eax,%eax
    fdb7:	0f 94 c0             	sete   %al
    fdba:	0f b6 c0             	movzbl %al,%eax
    fdbd:	be 04 00 00 00       	mov    $0x4,%esi
    fdc2:	89 c7                	mov    %eax,%edi
    fdc4:	e8 f5 ae ff ff       	callq  acbe <safe_rshift_func_uint8_t_u_u>
    fdc9:	0f b6 d0             	movzbl %al,%edx
    fdcc:	48 83 bd 90 eb ff ff 	cmpq   $0x0,-0x1470(%rbp)
    fdd3:	00 
    fdd4:	0f 94 c0             	sete   %al
    fdd7:	0f b6 c0             	movzbl %al,%eax
    fdda:	89 d6                	mov    %edx,%esi
    fddc:	89 c7                	mov    %eax,%edi
    fdde:	e8 af a6 ff ff       	callq  a492 <safe_lshift_func_int16_t_s_s>
    fde3:	48 0f bf c0          	movswq %ax,%rax
    fde7:	4c 89 ee             	mov    %r13,%rsi
    fdea:	48 89 c7             	mov    %rax,%rdi
    fded:	e8 59 b2 ff ff       	callq  b04b <safe_sub_func_uint64_t_u_u>
    fdf2:	49 89 c5             	mov    %rax,%r13
    fdf5:	8b 85 b4 e9 ff ff    	mov    -0x164c(%rbp),%eax
    fdfb:	3d d5 8b 4e 60       	cmp    $0x604e8bd5,%eax
    fe00:	7e 07                	jle    fe09 <func_7+0x312b>
    fe02:	ba 31 00 00 00       	mov    $0x31,%edx
    fe07:	eb 05                	jmp    fe0e <func_7+0x3130>
    fe09:	ba 30 00 00 00       	mov    $0x30,%edx
    fe0e:	48 8b 85 28 eb ff ff 	mov    -0x14d8(%rbp),%rax
    fe15:	48 8b 00             	mov    (%rax),%rax
    fe18:	48 8b 00             	mov    (%rax),%rax
    fe1b:	48 8b 00             	mov    (%rax),%rax
    fe1e:	48 8b 00             	mov    (%rax),%rax
    fe21:	88 10                	mov    %dl,(%rax)
    fe23:	48 8b 05 c6 02 01 00 	mov    0x102c6(%rip),%rax        # 200f0 <g_984>
    fe2a:	0f b7 00             	movzwl (%rax),%eax
    fe2d:	98                   	cwtl   
    fe2e:	39 85 74 e9 ff ff    	cmp    %eax,-0x168c(%rbp)
    fe34:	7e 07                	jle    fe3d <func_7+0x315f>
    fe36:	b8 01 00 00 00       	mov    $0x1,%eax
    fe3b:	eb 05                	jmp    fe42 <func_7+0x3164>
    fe3d:	b8 00 00 00 00       	mov    $0x0,%eax
    fe42:	f7 d0                	not    %eax
    fe44:	be 40 99 11 8a       	mov    $0x8a119940,%esi
    fe49:	89 c7                	mov    %eax,%edi
    fe4b:	e8 d5 b0 ff ff       	callq  af25 <safe_div_func_uint32_t_u_u>
    fe50:	be 04 00 00 00       	mov    $0x4,%esi
    fe55:	bf 18 3a 00 00       	mov    $0x3a18,%edi
    fe5a:	e8 04 a7 ff ff       	callq  a563 <safe_rshift_func_int16_t_s_u>
    fe5f:	48 0f bf c0          	movswq %ax,%rax
    fe63:	49 39 c5             	cmp    %rax,%r13
    fe66:	0f 95 c0             	setne  %al
    fe69:	0f b6 c0             	movzbl %al,%eax
    fe6c:	44 89 e6             	mov    %r12d,%esi
    fe6f:	89 c7                	mov    %eax,%edi
    fe71:	e8 7f a5 ff ff       	callq  a3f5 <safe_mul_func_int16_t_s_s>
    fe76:	0f be c0             	movsbl %al,%eax
    fe79:	89 de                	mov    %ebx,%esi
    fe7b:	89 c7                	mov    %eax,%edi
    fe7d:	e8 1f a4 ff ff       	callq  a2a1 <safe_lshift_func_int8_t_s_s>
    fe82:	48 8b 15 0f 03 01 00 	mov    0x1030f(%rip),%rdx        # 20198 <g_1239>
    fe89:	48 8b 85 b8 ea ff ff 	mov    -0x1548(%rbp),%rax
    fe90:	48 8b 00             	mov    (%rax),%rax
    fe93:	8b 12                	mov    (%rdx),%edx
    fe95:	89 10                	mov    %edx,(%rax)
    fe97:	48 8b 05 12 10 01 00 	mov    0x11012(%rip),%rax        # 20eb0 <g_2352>
    fe9e:	48 8b 00             	mov    (%rax),%rax
    fea1:	8b 00                	mov    (%rax),%eax
    fea3:	85 c0                	test   %eax,%eax
    fea5:	0f 84 8e 01 00 00    	je     10039 <func_7+0x335b>
    feab:	c7 85 30 ea ff ff ff 	movl   $0xffffffff,-0x15d0(%rbp)
    feb2:	ff ff ff 
    feb5:	c7 85 ec e9 ff ff 00 	movl   $0x0,-0x1614(%rbp)
    febc:	00 00 00 
    febf:	eb 1e                	jmp    fedf <func_7+0x3201>
    fec1:	8b 85 ec e9 ff ff    	mov    -0x1614(%rbp),%eax
    fec7:	48 98                	cltq   
    fec9:	48 8d 95 a0 e9 ff ff 	lea    -0x1660(%rbp),%rdx
    fed0:	48 89 94 c5 e0 f7 ff 	mov    %rdx,-0x820(%rbp,%rax,8)
    fed7:	ff 
    fed8:	83 85 ec e9 ff ff 01 	addl   $0x1,-0x1614(%rbp)
    fedf:	83 bd ec e9 ff ff 06 	cmpl   $0x6,-0x1614(%rbp)
    fee6:	7e d9                	jle    fec1 <func_7+0x31e3>
    fee8:	48 8b 85 70 eb ff ff 	mov    -0x1490(%rbp),%rax
    feef:	48 8b 00             	mov    (%rax),%rax
    fef2:	48 8b 00             	mov    (%rax),%rax
    fef5:	48 8b 00             	mov    (%rax),%rax
    fef8:	48 8b 00             	mov    (%rax),%rax
    fefb:	8b 18                	mov    (%rax),%ebx
    fefd:	c7 85 30 ea ff ff 65 	movl   $0x65,-0x15d0(%rbp)
    ff04:	00 00 00 
    ff07:	83 bd 74 e9 ff ff 00 	cmpl   $0x0,-0x168c(%rbp)
    ff0e:	74 07                	je     ff17 <func_7+0x3239>
    ff10:	b8 01 00 00 00       	mov    $0x1,%eax
    ff15:	eb 05                	jmp    ff1c <func_7+0x323e>
    ff17:	b8 00 00 00 00       	mov    $0x0,%eax
    ff1c:	89 c6                	mov    %eax,%esi
    ff1e:	bf 21 92 9d cd       	mov    $0xcd9d9221,%edi
    ff23:	e8 a8 af ff ff       	callq  aed0 <safe_sub_func_uint32_t_u_u>
    ff28:	41 89 c4             	mov    %eax,%r12d
    ff2b:	48 8b 05 36 ff 00 00 	mov    0xff36(%rip),%rax        # 1fe68 <g_152>
    ff32:	0f b7 00             	movzwl (%rax),%eax
    ff35:	0f b7 c0             	movzwl %ax,%eax
    ff38:	be 06 00 00 00       	mov    $0x6,%esi
    ff3d:	89 c7                	mov    %eax,%edi
    ff3f:	e8 04 af ff ff       	callq  ae48 <safe_rshift_func_uint16_t_u_s>
    ff44:	98                   	cwtl   
    ff45:	44 89 e6             	mov    %r12d,%esi
    ff48:	89 c7                	mov    %eax,%edi
    ff4a:	e8 14 a6 ff ff       	callq  a563 <safe_rshift_func_int16_t_s_u>
    ff4f:	48 8b 95 a0 eb ff ff 	mov    -0x1460(%rbp),%rdx
    ff56:	48 3b 95 a8 eb ff ff 	cmp    -0x1458(%rbp),%rdx
    ff5d:	0f 94 c2             	sete   %dl
    ff60:	0f b6 ca             	movzbl %dl,%ecx
    ff63:	48 8b 95 c8 ea ff ff 	mov    -0x1538(%rbp),%rdx
    ff6a:	48 8b 12             	mov    (%rdx),%rdx
    ff6d:	48 8b 12             	mov    (%rdx),%rdx
    ff70:	48 8b 12             	mov    (%rdx),%rdx
    ff73:	8b 12                	mov    (%rdx),%edx
    ff75:	09 ca                	or     %ecx,%edx
    ff77:	83 fa 05             	cmp    $0x5,%edx
    ff7a:	0f 9f c2             	setg   %dl
    ff7d:	0f b6 d2             	movzbl %dl,%edx
    ff80:	31 d0                	xor    %edx,%eax
    ff82:	0f bf d0             	movswl %ax,%edx
    ff85:	0f bf 85 7c e9 ff ff 	movswl -0x1684(%rbp),%eax
    ff8c:	89 d6                	mov    %edx,%esi
    ff8e:	89 c7                	mov    %eax,%edi
    ff90:	e8 60 a4 ff ff       	callq  a3f5 <safe_mul_func_int16_t_s_s>
    ff95:	0f bf d0             	movswl %ax,%edx
    ff98:	0f b6 85 8b e9 ff ff 	movzbl -0x1675(%rbp),%eax
    ff9f:	39 c2                	cmp    %eax,%edx
    ffa1:	0f 95 c0             	setne  %al
    ffa4:	0f b6 c0             	movzbl %al,%eax
    ffa7:	09 c3                	or     %eax,%ebx
    ffa9:	89 da                	mov    %ebx,%edx
    ffab:	48 8b 05 b6 fe 00 00 	mov    0xfeb6(%rip),%rax        # 1fe68 <g_152>
    ffb2:	0f b7 00             	movzwl (%rax),%eax
    ffb5:	0f b7 c0             	movzwl %ax,%eax
    ffb8:	39 c2                	cmp    %eax,%edx
    ffba:	0f 94 c0             	sete   %al
    ffbd:	0f b6 c0             	movzbl %al,%eax
    ffc0:	be 22 00 00 00       	mov    $0x22,%esi
    ffc5:	89 c7                	mov    %eax,%edi
    ffc7:	e8 65 a2 ff ff       	callq  a231 <safe_mod_func_int8_t_s_s>
    ffcc:	84 c0                	test   %al,%al
    ffce:	be e3 d3 ff ff       	mov    $0xffffd3e3,%esi
    ffd3:	bf fe ff ff ff       	mov    $0xfffffffe,%edi
    ffd8:	e8 f6 a3 ff ff       	callq  a3d3 <safe_sub_func_int16_t_s_s>
    ffdd:	48 8b 85 70 eb ff ff 	mov    -0x1490(%rbp),%rax
    ffe4:	48 8b 00             	mov    (%rax),%rax
    ffe7:	48 8b 00             	mov    (%rax),%rax
    ffea:	48 8b 00             	mov    (%rax),%rax
    ffed:	48 8b 00             	mov    (%rax),%rax
    fff0:	c7 00 00 00 00 00    	movl   $0x0,(%rax)
    fff6:	83 bd 0c ea ff ff 00 	cmpl   $0x0,-0x15f4(%rbp)
    fffd:	0f 85 97 10 00 00    	jne    1109a <func_7+0x43bc>
   10003:	be 01 00 00 00       	mov    $0x1,%esi
   10008:	bf ff ff ff ff       	mov    $0xffffffff,%edi
   1000d:	e8 c2 a1 ff ff       	callq  a1d4 <safe_add_func_int8_t_s_s>
   10012:	89 c2                	mov    %eax,%edx
   10014:	48 8b 05 6d 0c 01 00 	mov    0x10c6d(%rip),%rax        # 20c88 <g_2043>
   1001b:	48 8b 00             	mov    (%rax),%rax
   1001e:	0f be d2             	movsbl %dl,%edx
   10021:	89 10                	mov    %edx,(%rax)
   10023:	0f b7 05 00 d9 00 00 	movzwl 0xd900(%rip),%eax        # 1d92a <g_3950+0xa>
   1002a:	83 c0 01             	add    $0x1,%eax
   1002d:	66 89 05 f6 d8 00 00 	mov    %ax,0xd8f6(%rip)        # 1d92a <g_3950+0xa>
   10034:	e9 f2 01 00 00       	jmpq   1022b <func_7+0x354d>
   10039:	c7 85 2c ea ff ff 5f 	movl   $0xbcf36f5f,-0x15d4(%rbp)
   10040:	6f f3 bc 
   10043:	48 8d 05 a6 d7 00 00 	lea    0xd7a6(%rip),%rax        # 1d7f0 <g_3446>
   1004a:	48 89 85 d0 eb ff ff 	mov    %rax,-0x1430(%rbp)
   10051:	c7 85 f0 e9 ff ff 00 	movl   $0x0,-0x1610(%rbp)
   10058:	00 00 00 
   1005b:	eb 46                	jmp    100a3 <func_7+0x33c5>
   1005d:	c7 85 f4 e9 ff ff 00 	movl   $0x0,-0x160c(%rbp)
   10064:	00 00 00 
   10067:	eb 2a                	jmp    10093 <func_7+0x33b5>
   10069:	8b 85 f4 e9 ff ff    	mov    -0x160c(%rbp),%eax
   1006f:	48 63 d0             	movslq %eax,%rdx
   10072:	8b 85 f0 e9 ff ff    	mov    -0x1610(%rbp),%eax
   10078:	48 98                	cltq   
   1007a:	48 01 d0             	add    %rdx,%rax
   1007d:	48 8d 15 5c 0c 01 00 	lea    0x10c5c(%rip),%rdx        # 20ce0 <g_2243>
   10084:	48 89 94 c5 e0 f7 ff 	mov    %rdx,-0x820(%rbp,%rax,8)
   1008b:	ff 
   1008c:	83 85 f4 e9 ff ff 01 	addl   $0x1,-0x160c(%rbp)
   10093:	83 bd f4 e9 ff ff 00 	cmpl   $0x0,-0x160c(%rbp)
   1009a:	7e cd                	jle    10069 <func_7+0x338b>
   1009c:	83 85 f0 e9 ff ff 01 	addl   $0x1,-0x1610(%rbp)
   100a3:	83 bd f0 e9 ff ff 03 	cmpl   $0x3,-0x1610(%rbp)
   100aa:	7e b1                	jle    1005d <func_7+0x337f>
   100ac:	8b 9d 74 e9 ff ff    	mov    -0x168c(%rbp),%ebx
   100b2:	8b 85 b8 e9 ff ff    	mov    -0x1648(%rbp),%eax
   100b8:	4c 63 e0             	movslq %eax,%r12
   100bb:	48 8b 85 10 eb ff ff 	mov    -0x14f0(%rbp),%rax
   100c2:	48 8b 00             	mov    (%rax),%rax
   100c5:	48 8b 00             	mov    (%rax),%rax
   100c8:	48 8b 00             	mov    (%rax),%rax
   100cb:	48 8b 38             	mov    (%rax),%rdi
   100ce:	48 8b 05 13 0a 01 00 	mov    0x10a13(%rip),%rax        # 20ae8 <g_1890>
   100d5:	48 8b 00             	mov    (%rax),%rax
   100d8:	48 8b 00             	mov    (%rax),%rax
   100db:	48 8b 00             	mov    (%rax),%rax
   100de:	8b 08                	mov    (%rax),%ecx
   100e0:	48 8b 05 c1 fe 00 00 	mov    0xfec1(%rip),%rax        # 1ffa8 <g_608>
   100e7:	48 8b 00             	mov    (%rax),%rax
   100ea:	c6 00 01             	movb   $0x1,(%rax)
   100ed:	8b 85 b4 e9 ff ff    	mov    -0x164c(%rbp),%eax
   100f3:	83 f0 01             	xor    $0x1,%eax
   100f6:	88 05 6c d6 00 00    	mov    %al,0xd66c(%rip)        # 1d768 <g_2943>
   100fc:	0f b6 05 65 d6 00 00 	movzbl 0xd665(%rip),%eax        # 1d768 <g_2943>
   10103:	0f b6 f0             	movzbl %al,%esi
   10106:	48 8b 15 a3 19 01 00 	mov    0x119a3(%rip),%rdx        # 21ab0 <g_3888>
   1010d:	48 8b 05 9c 19 01 00 	mov    0x1199c(%rip),%rax        # 21ab0 <g_3888>
   10114:	48 8b 12             	mov    (%rdx),%rdx
   10117:	48 89 10             	mov    %rdx,(%rax)
   1011a:	48 8b 00             	mov    (%rax),%rax
   1011d:	48 39 85 98 eb ff ff 	cmp    %rax,-0x1468(%rbp)
   10124:	0f 94 c0             	sete   %al
   10127:	0f b6 c0             	movzbl %al,%eax
   1012a:	8b 95 2c ea ff ff    	mov    -0x15d4(%rbp),%edx
   10130:	49 89 f8             	mov    %rdi,%r8
   10133:	89 c7                	mov    %eax,%edi
   10135:	e8 a3 11 00 00       	callq  112dd <func_23>
   1013a:	8b 85 78 e9 ff ff    	mov    -0x1688(%rbp),%eax
   10140:	4c 89 e6             	mov    %r12,%rsi
   10143:	48 89 c7             	mov    %rax,%rdi
   10146:	e8 5d a7 ff ff       	callq  a8a8 <safe_sub_func_int64_t_s_s>
   1014b:	48 89 c2             	mov    %rax,%rdx
   1014e:	48 8b 05 5b 01 01 00 	mov    0x1015b(%rip),%rax        # 202b0 <g_1482>
   10155:	48 8b 00             	mov    (%rax),%rax
   10158:	48 8b 00             	mov    (%rax),%rax
   1015b:	48 89 d6             	mov    %rdx,%rsi
   1015e:	48 89 c7             	mov    %rax,%rdi
   10161:	e8 49 af ff ff       	callq  b0af <safe_div_func_uint64_t_u_u>
   10166:	0f b7 c0             	movzwl %ax,%eax
   10169:	89 de                	mov    %ebx,%esi
   1016b:	89 c7                	mov    %eax,%edi
   1016d:	e8 94 ac ff ff       	callq  ae06 <safe_lshift_func_uint16_t_u_u>
   10172:	0f b7 c0             	movzwl %ax,%eax
   10175:	39 85 74 e9 ff ff    	cmp    %eax,-0x168c(%rbp)
   1017b:	0f 9e c0             	setle  %al
   1017e:	0f b6 c0             	movzbl %al,%eax
   10181:	be 9c a7 ff ff       	mov    $0xffffa79c,%esi
   10186:	89 c7                	mov    %eax,%edi
   10188:	e8 68 a2 ff ff       	callq  a3f5 <safe_mul_func_int16_t_s_s>
   1018d:	98                   	cwtl   
   1018e:	39 85 78 e9 ff ff    	cmp    %eax,-0x1688(%rbp)
   10194:	0f 92 c0             	setb   %al
   10197:	0f b6 c8             	movzbl %al,%ecx
   1019a:	48 8b 85 b8 ea ff ff 	mov    -0x1548(%rbp),%rax
   101a1:	48 8b 00             	mov    (%rax),%rax
   101a4:	8b 00                	mov    (%rax),%eax
   101a6:	48 98                	cltq   
   101a8:	48 8b 95 c0 ea ff ff 	mov    -0x1540(%rbp),%rdx
   101af:	48 8b 1a             	mov    (%rdx),%rbx
   101b2:	48 8b 95 d0 eb ff ff 	mov    -0x1430(%rbp),%rdx
   101b9:	89 ce                	mov    %ecx,%esi
   101bb:	48 89 c7             	mov    %rax,%rdi
   101be:	e8 14 34 00 00       	callq  135d7 <func_45>
   101c3:	48 89 03             	mov    %rax,(%rbx)
   101c6:	48 8d 85 e0 ea ff ff 	lea    -0x1520(%rbp),%rax
   101cd:	48 89 85 b0 eb ff ff 	mov    %rax,-0x1450(%rbp)
   101d4:	48 8b 05 45 15 01 00 	mov    0x11545(%rip),%rax        # 21720 <g_3153>
   101db:	48 8b 00             	mov    (%rax),%rax
   101de:	48 39 85 b0 eb ff ff 	cmp    %rax,-0x1450(%rbp)
   101e5:	0f 94 c0             	sete   %al
   101e8:	0f b6 c0             	movzbl %al,%eax
   101eb:	be 09 00 00 00       	mov    $0x9,%esi
   101f0:	89 c7                	mov    %eax,%edi
   101f2:	e8 6c a3 ff ff       	callq  a563 <safe_rshift_func_int16_t_s_u>
   101f7:	48 8b 95 c0 ea ff ff 	mov    -0x1540(%rbp),%rdx
   101fe:	48 8b 12             	mov    (%rdx),%rdx
   10201:	48 8b 12             	mov    (%rdx),%rdx
   10204:	8b 0a                	mov    (%rdx),%ecx
   10206:	0f bf d0             	movswl %ax,%edx
   10209:	48 8b 85 c0 ea ff ff 	mov    -0x1540(%rbp),%rax
   10210:	48 8b 00             	mov    (%rax),%rax
   10213:	48 8b 00             	mov    (%rax),%rax
   10216:	21 ca                	and    %ecx,%edx
   10218:	89 10                	mov    %edx,(%rax)
   1021a:	48 8b 05 bf 08 01 00 	mov    0x108bf(%rip),%rax        # 20ae0 <g_1891>
   10221:	48 8b 00             	mov    (%rax),%rax
   10224:	48 89 85 b8 eb ff ff 	mov    %rax,-0x1448(%rbp)
   1022b:	8b 85 28 ea ff ff    	mov    -0x15d8(%rbp),%eax
   10231:	e9 81 10 00 00       	jmpq   112b7 <func_7+0x45d9>
   10236:	48 8d 85 9c e9 ff ff 	lea    -0x1664(%rbp),%rax
   1023d:	48 89 85 e0 f7 ff ff 	mov    %rax,-0x820(%rbp)
   10244:	48 8d 85 b8 e9 ff ff 	lea    -0x1648(%rbp),%rax
   1024b:	48 89 85 e8 f7 ff ff 	mov    %rax,-0x818(%rbp)
   10252:	48 8d 85 1c ed ff ff 	lea    -0x12e4(%rbp),%rax
   10259:	48 89 85 f0 f7 ff ff 	mov    %rax,-0x810(%rbp)
   10260:	48 8d 85 f0 ed ff ff 	lea    -0x1210(%rbp),%rax
   10267:	48 83 c0 18          	add    $0x18,%rax
   1026b:	48 89 85 f8 f7 ff ff 	mov    %rax,-0x808(%rbp)
   10272:	48 8d 85 9c e9 ff ff 	lea    -0x1664(%rbp),%rax
   10279:	48 89 85 00 f8 ff ff 	mov    %rax,-0x800(%rbp)
   10280:	48 8d 85 f0 ed ff ff 	lea    -0x1210(%rbp),%rax
   10287:	48 83 c0 20          	add    $0x20,%rax
   1028b:	48 89 85 08 f8 ff ff 	mov    %rax,-0x7f8(%rbp)
   10292:	48 c7 85 10 f8 ff ff 	movq   $0x0,-0x7f0(%rbp)
   10299:	00 00 00 00 
   1029d:	48 8d 05 c0 d3 00 00 	lea    0xd3c0(%rip),%rax        # 1d664 <g_2297>
   102a4:	48 89 85 18 f8 ff ff 	mov    %rax,-0x7e8(%rbp)
   102ab:	48 c7 85 20 f8 ff ff 	movq   $0x0,-0x7e0(%rbp)
   102b2:	00 00 00 00 
   102b6:	48 8d 05 1b d3 00 00 	lea    0xd31b(%rip),%rax        # 1d5d8 <g_1515>
   102bd:	48 89 85 28 f8 ff ff 	mov    %rax,-0x7d8(%rbp)
   102c4:	48 8d 85 9c e9 ff ff 	lea    -0x1664(%rbp),%rax
   102cb:	48 89 85 30 f8 ff ff 	mov    %rax,-0x7d0(%rbp)
   102d2:	48 c7 85 38 f8 ff ff 	movq   $0x0,-0x7c8(%rbp)
   102d9:	00 00 00 00 
   102dd:	48 8d 85 9c e9 ff ff 	lea    -0x1664(%rbp),%rax
   102e4:	48 89 85 40 f8 ff ff 	mov    %rax,-0x7c0(%rbp)
   102eb:	48 8d 05 e6 d2 00 00 	lea    0xd2e6(%rip),%rax        # 1d5d8 <g_1515>
   102f2:	48 89 85 48 f8 ff ff 	mov    %rax,-0x7b8(%rbp)
   102f9:	48 8d 85 f0 ed ff ff 	lea    -0x1210(%rbp),%rax
   10300:	48 83 c0 20          	add    $0x20,%rax
   10304:	48 89 85 50 f8 ff ff 	mov    %rax,-0x7b0(%rbp)
   1030b:	48 8d 85 f0 ed ff ff 	lea    -0x1210(%rbp),%rax
   10312:	48 83 c0 20          	add    $0x20,%rax
   10316:	48 89 85 58 f8 ff ff 	mov    %rax,-0x7a8(%rbp)
   1031d:	48 c7 85 60 f8 ff ff 	movq   $0x0,-0x7a0(%rbp)
   10324:	00 00 00 00 
   10328:	48 8d 85 f0 ed ff ff 	lea    -0x1210(%rbp),%rax
   1032f:	48 83 c0 20          	add    $0x20,%rax
   10333:	48 89 85 68 f8 ff ff 	mov    %rax,-0x798(%rbp)
   1033a:	48 8d 85 9c e9 ff ff 	lea    -0x1664(%rbp),%rax
   10341:	48 89 85 70 f8 ff ff 	mov    %rax,-0x790(%rbp)
   10348:	48 8d 85 f0 ed ff ff 	lea    -0x1210(%rbp),%rax
   1034f:	48 83 c0 18          	add    $0x18,%rax
   10353:	48 89 85 78 f8 ff ff 	mov    %rax,-0x788(%rbp)
   1035a:	48 8d 85 1c ed ff ff 	lea    -0x12e4(%rbp),%rax
   10361:	48 89 85 80 f8 ff ff 	mov    %rax,-0x780(%rbp)
   10368:	48 c7 85 88 f8 ff ff 	movq   $0x0,-0x778(%rbp)
   1036f:	00 00 00 00 
   10373:	48 8d 05 ea d2 00 00 	lea    0xd2ea(%rip),%rax        # 1d664 <g_2297>
   1037a:	48 89 85 90 f8 ff ff 	mov    %rax,-0x770(%rbp)
   10381:	48 8d 85 1c ed ff ff 	lea    -0x12e4(%rbp),%rax
   10388:	48 89 85 98 f8 ff ff 	mov    %rax,-0x768(%rbp)
   1038f:	48 c7 85 a0 f8 ff ff 	movq   $0x0,-0x760(%rbp)
   10396:	00 00 00 00 
   1039a:	48 c7 85 a8 f8 ff ff 	movq   $0x0,-0x758(%rbp)
   103a1:	00 00 00 00 
   103a5:	48 8d 05 b0 d2 00 00 	lea    0xd2b0(%rip),%rax        # 1d65c <g_2177>
   103ac:	48 89 85 b0 f8 ff ff 	mov    %rax,-0x750(%rbp)
   103b3:	48 8d 85 b0 e9 ff ff 	lea    -0x1650(%rbp),%rax
   103ba:	48 89 85 b8 f8 ff ff 	mov    %rax,-0x748(%rbp)
   103c1:	48 8d 85 b8 e9 ff ff 	lea    -0x1648(%rbp),%rax
   103c8:	48 89 85 c0 f8 ff ff 	mov    %rax,-0x740(%rbp)
   103cf:	48 8d 85 9c e9 ff ff 	lea    -0x1664(%rbp),%rax
   103d6:	48 89 85 c8 f8 ff ff 	mov    %rax,-0x738(%rbp)
   103dd:	48 8d 85 1c ed ff ff 	lea    -0x12e4(%rbp),%rax
   103e4:	48 89 85 d0 f8 ff ff 	mov    %rax,-0x730(%rbp)
   103eb:	48 c7 85 d8 f8 ff ff 	movq   $0x0,-0x728(%rbp)
   103f2:	00 00 00 00 
   103f6:	48 8d 85 9c e9 ff ff 	lea    -0x1664(%rbp),%rax
   103fd:	48 89 85 e0 f8 ff ff 	mov    %rax,-0x720(%rbp)
   10404:	48 8d 85 c0 ed ff ff 	lea    -0x1240(%rbp),%rax
   1040b:	48 83 c0 08          	add    $0x8,%rax
   1040f:	48 89 85 e8 f8 ff ff 	mov    %rax,-0x718(%rbp)
   10416:	48 c7 85 f0 f8 ff ff 	movq   $0x0,-0x710(%rbp)
   1041d:	00 00 00 00 
   10421:	48 c7 85 f8 f8 ff ff 	movq   $0x0,-0x708(%rbp)
   10428:	00 00 00 00 
   1042c:	48 8d 85 b8 e9 ff ff 	lea    -0x1648(%rbp),%rax
   10433:	48 89 85 00 f9 ff ff 	mov    %rax,-0x700(%rbp)
   1043a:	48 8d 85 9c e9 ff ff 	lea    -0x1664(%rbp),%rax
   10441:	48 89 85 08 f9 ff ff 	mov    %rax,-0x6f8(%rbp)
   10448:	48 8d 85 c0 ed ff ff 	lea    -0x1240(%rbp),%rax
   1044f:	48 83 c0 14          	add    $0x14,%rax
   10453:	48 89 85 10 f9 ff ff 	mov    %rax,-0x6f0(%rbp)
   1045a:	48 c7 85 18 f9 ff ff 	movq   $0x0,-0x6e8(%rbp)
   10461:	00 00 00 00 
   10465:	48 8d 85 f0 ed ff ff 	lea    -0x1210(%rbp),%rax
   1046c:	48 83 c0 24          	add    $0x24,%rax
   10470:	48 89 85 20 f9 ff ff 	mov    %rax,-0x6e0(%rbp)
   10477:	48 8d 05 de d1 00 00 	lea    0xd1de(%rip),%rax        # 1d65c <g_2177>
   1047e:	48 89 85 28 f9 ff ff 	mov    %rax,-0x6d8(%rbp)
   10485:	48 8d 85 1c ed ff ff 	lea    -0x12e4(%rbp),%rax
   1048c:	48 89 85 30 f9 ff ff 	mov    %rax,-0x6d0(%rbp)
   10493:	48 8d 85 a0 e9 ff ff 	lea    -0x1660(%rbp),%rax
   1049a:	48 89 85 38 f9 ff ff 	mov    %rax,-0x6c8(%rbp)
   104a1:	48 8d 05 30 d1 00 00 	lea    0xd130(%rip),%rax        # 1d5d8 <g_1515>
   104a8:	48 89 85 40 f9 ff ff 	mov    %rax,-0x6c0(%rbp)
   104af:	48 8d 85 1c ed ff ff 	lea    -0x12e4(%rbp),%rax
   104b6:	48 89 85 48 f9 ff ff 	mov    %rax,-0x6b8(%rbp)
   104bd:	48 8d 85 9c e9 ff ff 	lea    -0x1664(%rbp),%rax
   104c4:	48 89 85 50 f9 ff ff 	mov    %rax,-0x6b0(%rbp)
   104cb:	48 8d 85 b4 e9 ff ff 	lea    -0x164c(%rbp),%rax
   104d2:	48 89 85 58 f9 ff ff 	mov    %rax,-0x6a8(%rbp)
   104d9:	48 8d 85 a8 e9 ff ff 	lea    -0x1658(%rbp),%rax
   104e0:	48 89 85 60 f9 ff ff 	mov    %rax,-0x6a0(%rbp)
   104e7:	48 8d 85 c0 ed ff ff 	lea    -0x1240(%rbp),%rax
   104ee:	48 83 c0 20          	add    $0x20,%rax
   104f2:	48 89 85 68 f9 ff ff 	mov    %rax,-0x698(%rbp)
   104f9:	48 8d 85 a8 e9 ff ff 	lea    -0x1658(%rbp),%rax
   10500:	48 89 85 70 f9 ff ff 	mov    %rax,-0x690(%rbp)
   10507:	48 8d 85 9c e9 ff ff 	lea    -0x1664(%rbp),%rax
   1050e:	48 89 85 78 f9 ff ff 	mov    %rax,-0x688(%rbp)
   10515:	48 8d 85 f0 ed ff ff 	lea    -0x1210(%rbp),%rax
   1051c:	48 83 c0 1c          	add    $0x1c,%rax
   10520:	48 89 85 80 f9 ff ff 	mov    %rax,-0x680(%rbp)
   10527:	48 c7 85 88 f9 ff ff 	movq   $0x0,-0x678(%rbp)
   1052e:	00 00 00 00 
   10532:	48 8d 05 9f d0 00 00 	lea    0xd09f(%rip),%rax        # 1d5d8 <g_1515>
   10539:	48 89 85 90 f9 ff ff 	mov    %rax,-0x670(%rbp)
   10540:	48 c7 85 98 f9 ff ff 	movq   $0x0,-0x668(%rbp)
   10547:	00 00 00 00 
   1054b:	48 8d 85 9c e9 ff ff 	lea    -0x1664(%rbp),%rax
   10552:	48 89 85 a0 f9 ff ff 	mov    %rax,-0x660(%rbp)
   10559:	48 8d 85 b0 e9 ff ff 	lea    -0x1650(%rbp),%rax
   10560:	48 89 85 a8 f9 ff ff 	mov    %rax,-0x658(%rbp)
   10567:	48 8d 05 f6 d0 00 00 	lea    0xd0f6(%rip),%rax        # 1d664 <g_2297>
   1056e:	48 89 85 b0 f9 ff ff 	mov    %rax,-0x650(%rbp)
   10575:	48 8d 85 9c e9 ff ff 	lea    -0x1664(%rbp),%rax
   1057c:	48 89 85 b8 f9 ff ff 	mov    %rax,-0x648(%rbp)
   10583:	48 8d 85 9c e9 ff ff 	lea    -0x1664(%rbp),%rax
   1058a:	48 89 85 c0 f9 ff ff 	mov    %rax,-0x640(%rbp)
   10591:	48 8d 85 9c e9 ff ff 	lea    -0x1664(%rbp),%rax
   10598:	48 89 85 c8 f9 ff ff 	mov    %rax,-0x638(%rbp)
   1059f:	48 8d 05 be d0 00 00 	lea    0xd0be(%rip),%rax        # 1d664 <g_2297>
   105a6:	48 89 85 d0 f9 ff ff 	mov    %rax,-0x630(%rbp)
   105ad:	48 8d 85 9c e9 ff ff 	lea    -0x1664(%rbp),%rax
   105b4:	48 89 85 d8 f9 ff ff 	mov    %rax,-0x628(%rbp)
   105bb:	48 8d 85 9c e9 ff ff 	lea    -0x1664(%rbp),%rax
   105c2:	48 89 85 e0 f9 ff ff 	mov    %rax,-0x620(%rbp)
   105c9:	48 c7 85 e8 f9 ff ff 	movq   $0x0,-0x618(%rbp)
   105d0:	00 00 00 00 
   105d4:	48 8d 05 fd cf 00 00 	lea    0xcffd(%rip),%rax        # 1d5d8 <g_1515>
   105db:	48 89 85 f0 f9 ff ff 	mov    %rax,-0x610(%rbp)
   105e2:	48 c7 85 f8 f9 ff ff 	movq   $0x0,-0x608(%rbp)
   105e9:	00 00 00 00 
   105ed:	48 8d 85 f0 ed ff ff 	lea    -0x1210(%rbp),%rax
   105f4:	48 83 c0 1c          	add    $0x1c,%rax
   105f8:	48 89 85 00 fa ff ff 	mov    %rax,-0x600(%rbp)
   105ff:	48 8d 85 9c e9 ff ff 	lea    -0x1664(%rbp),%rax
   10606:	48 89 85 08 fa ff ff 	mov    %rax,-0x5f8(%rbp)
   1060d:	48 8d 85 b0 e9 ff ff 	lea    -0x1650(%rbp),%rax
   10614:	48 89 85 10 fa ff ff 	mov    %rax,-0x5f0(%rbp)
   1061b:	48 8d 85 9c e9 ff ff 	lea    -0x1664(%rbp),%rax
   10622:	48 89 85 18 fa ff ff 	mov    %rax,-0x5e8(%rbp)
   10629:	48 8d 85 a8 e9 ff ff 	lea    -0x1658(%rbp),%rax
   10630:	48 89 85 20 fa ff ff 	mov    %rax,-0x5e0(%rbp)
   10637:	48 8d 85 b4 e9 ff ff 	lea    -0x164c(%rbp),%rax
   1063e:	48 89 85 28 fa ff ff 	mov    %rax,-0x5d8(%rbp)
   10645:	48 8d 85 9c e9 ff ff 	lea    -0x1664(%rbp),%rax
   1064c:	48 89 85 30 fa ff ff 	mov    %rax,-0x5d0(%rbp)
   10653:	48 8d 85 1c ed ff ff 	lea    -0x12e4(%rbp),%rax
   1065a:	48 89 85 38 fa ff ff 	mov    %rax,-0x5c8(%rbp)
   10661:	48 8d 85 f0 ed ff ff 	lea    -0x1210(%rbp),%rax
   10668:	48 83 c0 20          	add    $0x20,%rax
   1066c:	48 89 85 40 fa ff ff 	mov    %rax,-0x5c0(%rbp)
   10673:	48 c7 85 48 fa ff ff 	movq   $0x0,-0x5b8(%rbp)
   1067a:	00 00 00 00 
   1067e:	48 c7 85 50 fa ff ff 	movq   $0x0,-0x5b0(%rbp)
   10685:	00 00 00 00 
   10689:	48 8d 05 d4 cf 00 00 	lea    0xcfd4(%rip),%rax        # 1d664 <g_2297>
   10690:	48 89 85 58 fa ff ff 	mov    %rax,-0x5a8(%rbp)
   10697:	48 8d 85 9c e9 ff ff 	lea    -0x1664(%rbp),%rax
   1069e:	48 89 85 60 fa ff ff 	mov    %rax,-0x5a0(%rbp)
   106a5:	48 8d 85 1c ed ff ff 	lea    -0x12e4(%rbp),%rax
   106ac:	48 89 85 68 fa ff ff 	mov    %rax,-0x598(%rbp)
   106b3:	48 c7 85 70 fa ff ff 	movq   $0x0,-0x590(%rbp)
   106ba:	00 00 00 00 
   106be:	48 c7 85 78 fa ff ff 	movq   $0x0,-0x588(%rbp)
   106c5:	00 00 00 00 
   106c9:	48 8d 85 f0 ed ff ff 	lea    -0x1210(%rbp),%rax
   106d0:	48 83 c0 20          	add    $0x20,%rax
   106d4:	48 89 85 80 fa ff ff 	mov    %rax,-0x580(%rbp)
   106db:	48 8d 85 a4 e9 ff ff 	lea    -0x165c(%rbp),%rax
   106e2:	48 89 85 88 fa ff ff 	mov    %rax,-0x578(%rbp)
   106e9:	48 8d 85 a0 e9 ff ff 	lea    -0x1660(%rbp),%rax
   106f0:	48 89 85 90 fa ff ff 	mov    %rax,-0x570(%rbp)
   106f7:	48 8d 85 c0 ed ff ff 	lea    -0x1240(%rbp),%rax
   106fe:	48 83 c0 08          	add    $0x8,%rax
   10702:	48 89 85 98 fa ff ff 	mov    %rax,-0x568(%rbp)
   10709:	48 8d 05 c8 ce 00 00 	lea    0xcec8(%rip),%rax        # 1d5d8 <g_1515>
   10710:	48 89 85 a0 fa ff ff 	mov    %rax,-0x560(%rbp)
   10717:	48 c7 85 a8 fa ff ff 	movq   $0x0,-0x558(%rbp)
   1071e:	00 00 00 00 
   10722:	48 8d 85 9c e9 ff ff 	lea    -0x1664(%rbp),%rax
   10729:	48 89 85 b0 fa ff ff 	mov    %rax,-0x550(%rbp)
   10730:	48 c7 85 b8 fa ff ff 	movq   $0x0,-0x548(%rbp)
   10737:	00 00 00 00 
   1073b:	48 8d 85 ac e9 ff ff 	lea    -0x1654(%rbp),%rax
   10742:	48 89 85 c0 fa ff ff 	mov    %rax,-0x540(%rbp)
   10749:	48 8d 85 9c e9 ff ff 	lea    -0x1664(%rbp),%rax
   10750:	48 89 85 c8 fa ff ff 	mov    %rax,-0x538(%rbp)
   10757:	48 8d 05 7a ce 00 00 	lea    0xce7a(%rip),%rax        # 1d5d8 <g_1515>
   1075e:	48 89 85 d0 fa ff ff 	mov    %rax,-0x530(%rbp)
   10765:	48 8d 85 1c ed ff ff 	lea    -0x12e4(%rbp),%rax
   1076c:	48 89 85 d8 fa ff ff 	mov    %rax,-0x528(%rbp)
   10773:	48 c7 85 e0 fa ff ff 	movq   $0x0,-0x520(%rbp)
   1077a:	00 00 00 00 
   1077e:	48 8d 85 a8 e9 ff ff 	lea    -0x1658(%rbp),%rax
   10785:	48 89 85 e8 fa ff ff 	mov    %rax,-0x518(%rbp)
   1078c:	48 8d 85 9c e9 ff ff 	lea    -0x1664(%rbp),%rax
   10793:	48 89 85 f0 fa ff ff 	mov    %rax,-0x510(%rbp)
   1079a:	48 8d 85 b0 e9 ff ff 	lea    -0x1650(%rbp),%rax
   107a1:	48 89 85 f8 fa ff ff 	mov    %rax,-0x508(%rbp)
   107a8:	48 8d 85 1c ed ff ff 	lea    -0x12e4(%rbp),%rax
   107af:	48 89 85 00 fb ff ff 	mov    %rax,-0x500(%rbp)
   107b6:	48 c7 85 08 fb ff ff 	movq   $0x0,-0x4f8(%rbp)
   107bd:	00 00 00 00 
   107c1:	48 8d 05 10 ce 00 00 	lea    0xce10(%rip),%rax        # 1d5d8 <g_1515>
   107c8:	48 89 85 10 fb ff ff 	mov    %rax,-0x4f0(%rbp)
   107cf:	48 8d 85 b4 e9 ff ff 	lea    -0x164c(%rbp),%rax
   107d6:	48 89 85 18 fb ff ff 	mov    %rax,-0x4e8(%rbp)
   107dd:	48 8d 85 9c e9 ff ff 	lea    -0x1664(%rbp),%rax
   107e4:	48 89 85 20 fb ff ff 	mov    %rax,-0x4e0(%rbp)
   107eb:	48 8d 85 a8 e9 ff ff 	lea    -0x1658(%rbp),%rax
   107f2:	48 89 85 28 fb ff ff 	mov    %rax,-0x4d8(%rbp)
   107f9:	48 8d 85 a8 e9 ff ff 	lea    -0x1658(%rbp),%rax
   10800:	48 89 85 30 fb ff ff 	mov    %rax,-0x4d0(%rbp)
   10807:	48 c7 85 38 fb ff ff 	movq   $0x0,-0x4c8(%rbp)
   1080e:	00 00 00 00 
   10812:	48 8d 05 73 c8 00 00 	lea    0xc873(%rip),%rax        # 1d08c <g_85>
   10819:	48 89 85 40 fb ff ff 	mov    %rax,-0x4c0(%rbp)
   10820:	48 8d 85 1c ed ff ff 	lea    -0x12e4(%rbp),%rax
   10827:	48 89 85 48 fb ff ff 	mov    %rax,-0x4b8(%rbp)
   1082e:	48 8d 05 57 c8 00 00 	lea    0xc857(%rip),%rax        # 1d08c <g_85>
   10835:	48 89 85 50 fb ff ff 	mov    %rax,-0x4b0(%rbp)
   1083c:	48 c7 85 58 fb ff ff 	movq   $0x0,-0x4a8(%rbp)
   10843:	00 00 00 00 
   10847:	48 8d 85 c0 ed ff ff 	lea    -0x1240(%rbp),%rax
   1084e:	48 83 c0 08          	add    $0x8,%rax
   10852:	48 89 85 60 fb ff ff 	mov    %rax,-0x4a0(%rbp)
   10859:	48 8d 85 c0 ed ff ff 	lea    -0x1240(%rbp),%rax
   10860:	48 83 c0 08          	add    $0x8,%rax
   10864:	48 89 85 68 fb ff ff 	mov    %rax,-0x498(%rbp)
   1086b:	48 8d 85 9c e9 ff ff 	lea    -0x1664(%rbp),%rax
   10872:	48 89 85 70 fb ff ff 	mov    %rax,-0x490(%rbp)
   10879:	48 8d 85 b4 e9 ff ff 	lea    -0x164c(%rbp),%rax
   10880:	48 89 85 78 fb ff ff 	mov    %rax,-0x488(%rbp)
   10887:	48 8d 05 4a cd 00 00 	lea    0xcd4a(%rip),%rax        # 1d5d8 <g_1515>
   1088e:	48 89 85 80 fb ff ff 	mov    %rax,-0x480(%rbp)
   10895:	48 c7 85 88 fb ff ff 	movq   $0x0,-0x478(%rbp)
   1089c:	00 00 00 00 
   108a0:	48 8d 85 1c ed ff ff 	lea    -0x12e4(%rbp),%rax
   108a7:	48 89 85 90 fb ff ff 	mov    %rax,-0x470(%rbp)
   108ae:	48 8d 85 a8 e9 ff ff 	lea    -0x1658(%rbp),%rax
   108b5:	48 89 85 98 fb ff ff 	mov    %rax,-0x468(%rbp)
   108bc:	48 8d 85 a8 e9 ff ff 	lea    -0x1658(%rbp),%rax
   108c3:	48 89 85 a0 fb ff ff 	mov    %rax,-0x460(%rbp)
   108ca:	48 8d 85 a8 e9 ff ff 	lea    -0x1658(%rbp),%rax
   108d1:	48 89 85 a8 fb ff ff 	mov    %rax,-0x458(%rbp)
   108d8:	48 c7 85 b0 fb ff ff 	movq   $0x0,-0x450(%rbp)
   108df:	00 00 00 00 
   108e3:	48 8d 85 1c ed ff ff 	lea    -0x12e4(%rbp),%rax
   108ea:	48 89 85 b8 fb ff ff 	mov    %rax,-0x448(%rbp)
   108f1:	48 8d 05 e0 cc 00 00 	lea    0xcce0(%rip),%rax        # 1d5d8 <g_1515>
   108f8:	48 89 85 c0 fb ff ff 	mov    %rax,-0x440(%rbp)
   108ff:	48 8d 85 9c e9 ff ff 	lea    -0x1664(%rbp),%rax
   10906:	48 89 85 c8 fb ff ff 	mov    %rax,-0x438(%rbp)
   1090d:	48 8d 85 b0 e9 ff ff 	lea    -0x1650(%rbp),%rax
   10914:	48 89 85 d0 fb ff ff 	mov    %rax,-0x430(%rbp)
   1091b:	48 8d 85 9c e9 ff ff 	lea    -0x1664(%rbp),%rax
   10922:	48 89 85 d8 fb ff ff 	mov    %rax,-0x428(%rbp)
   10929:	48 8d 85 9c e9 ff ff 	lea    -0x1664(%rbp),%rax
   10930:	48 89 85 e0 fb ff ff 	mov    %rax,-0x420(%rbp)
   10937:	48 c7 85 e8 fb ff ff 	movq   $0x0,-0x418(%rbp)
   1093e:	00 00 00 00 
   10942:	48 8d 05 8f cc 00 00 	lea    0xcc8f(%rip),%rax        # 1d5d8 <g_1515>
   10949:	48 89 85 f0 fb ff ff 	mov    %rax,-0x410(%rbp)
   10950:	48 8d 85 c0 ed ff ff 	lea    -0x1240(%rbp),%rax
   10957:	48 83 c0 08          	add    $0x8,%rax
   1095b:	48 89 85 f8 fb ff ff 	mov    %rax,-0x408(%rbp)
   10962:	48 8d 85 a0 e9 ff ff 	lea    -0x1660(%rbp),%rax
   10969:	48 89 85 00 fc ff ff 	mov    %rax,-0x400(%rbp)
   10970:	48 8d 85 ac e9 ff ff 	lea    -0x1654(%rbp),%rax
   10977:	48 89 85 08 fc ff ff 	mov    %rax,-0x3f8(%rbp)
   1097e:	48 c7 85 10 fc ff ff 	movq   $0x0,-0x3f0(%rbp)
   10985:	00 00 00 00 
   10989:	48 c7 85 18 fc ff ff 	movq   $0x0,-0x3e8(%rbp)
   10990:	00 00 00 00 
   10994:	48 c7 85 20 fc ff ff 	movq   $0x0,-0x3e0(%rbp)
   1099b:	00 00 00 00 
   1099f:	48 8d 85 1c ed ff ff 	lea    -0x12e4(%rbp),%rax
   109a6:	48 89 85 28 fc ff ff 	mov    %rax,-0x3d8(%rbp)
   109ad:	48 8d 85 9c e9 ff ff 	lea    -0x1664(%rbp),%rax
   109b4:	48 89 85 30 fc ff ff 	mov    %rax,-0x3d0(%rbp)
   109bb:	48 8d 05 a2 cc 00 00 	lea    0xcca2(%rip),%rax        # 1d664 <g_2297>
   109c2:	48 89 85 38 fc ff ff 	mov    %rax,-0x3c8(%rbp)
   109c9:	48 8d 85 a4 e9 ff ff 	lea    -0x165c(%rbp),%rax
   109d0:	48 89 85 40 fc ff ff 	mov    %rax,-0x3c0(%rbp)
   109d7:	48 8d 85 f0 ed ff ff 	lea    -0x1210(%rbp),%rax
   109de:	48 83 c0 20          	add    $0x20,%rax
   109e2:	48 89 85 48 fc ff ff 	mov    %rax,-0x3b8(%rbp)
   109e9:	48 8d 85 f0 ed ff ff 	lea    -0x1210(%rbp),%rax
   109f0:	48 83 c0 20          	add    $0x20,%rax
   109f4:	48 89 85 50 fc ff ff 	mov    %rax,-0x3b0(%rbp)
   109fb:	48 c7 85 58 fc ff ff 	movq   $0x0,-0x3a8(%rbp)
   10a02:	00 00 00 00 
   10a06:	48 8d 05 cb cb 00 00 	lea    0xcbcb(%rip),%rax        # 1d5d8 <g_1515>
   10a0d:	48 89 85 60 fc ff ff 	mov    %rax,-0x3a0(%rbp)
   10a14:	48 c7 85 68 fc ff ff 	movq   $0x0,-0x398(%rbp)
   10a1b:	00 00 00 00 
   10a1f:	48 8d 85 b8 e9 ff ff 	lea    -0x1648(%rbp),%rax
   10a26:	48 89 85 70 fc ff ff 	mov    %rax,-0x390(%rbp)
   10a2d:	48 c7 85 78 fc ff ff 	movq   $0x0,-0x388(%rbp)
   10a34:	00 00 00 00 
   10a38:	48 c7 85 80 fc ff ff 	movq   $0x0,-0x380(%rbp)
   10a3f:	00 00 00 00 
   10a43:	48 8d 85 b8 e9 ff ff 	lea    -0x1648(%rbp),%rax
   10a4a:	48 89 85 88 fc ff ff 	mov    %rax,-0x378(%rbp)
   10a51:	48 8d 85 1c ed ff ff 	lea    -0x12e4(%rbp),%rax
   10a58:	48 89 85 90 fc ff ff 	mov    %rax,-0x370(%rbp)
   10a5f:	48 8d 85 1c ed ff ff 	lea    -0x12e4(%rbp),%rax
   10a66:	48 89 85 98 fc ff ff 	mov    %rax,-0x368(%rbp)
   10a6d:	48 c7 85 a0 fc ff ff 	movq   $0x0,-0x360(%rbp)
   10a74:	00 00 00 00 
   10a78:	48 8d 85 c0 ed ff ff 	lea    -0x1240(%rbp),%rax
   10a7f:	48 83 c0 20          	add    $0x20,%rax
   10a83:	48 89 85 a8 fc ff ff 	mov    %rax,-0x358(%rbp)
   10a8a:	48 8d 85 b4 e9 ff ff 	lea    -0x164c(%rbp),%rax
   10a91:	48 89 85 b0 fc ff ff 	mov    %rax,-0x350(%rbp)
   10a98:	48 8d 05 01 ce 00 00 	lea    0xce01(%rip),%rax        # 1d8a0 <g_3841>
   10a9f:	48 89 85 b8 fc ff ff 	mov    %rax,-0x348(%rbp)
   10aa6:	48 8d 85 b0 e9 ff ff 	lea    -0x1650(%rbp),%rax
   10aad:	48 89 85 c0 fc ff ff 	mov    %rax,-0x340(%rbp)
   10ab4:	48 8d 85 c0 ed ff ff 	lea    -0x1240(%rbp),%rax
   10abb:	48 83 c0 0c          	add    $0xc,%rax
   10abf:	48 89 85 c8 fc ff ff 	mov    %rax,-0x338(%rbp)
   10ac6:	48 8d 05 0b cb 00 00 	lea    0xcb0b(%rip),%rax        # 1d5d8 <g_1515>
   10acd:	48 89 85 d0 fc ff ff 	mov    %rax,-0x330(%rbp)
   10ad4:	48 8d 85 c0 ed ff ff 	lea    -0x1240(%rbp),%rax
   10adb:	48 83 c0 0c          	add    $0xc,%rax
   10adf:	48 89 85 d8 fc ff ff 	mov    %rax,-0x328(%rbp)
   10ae6:	48 8d 85 b0 e9 ff ff 	lea    -0x1650(%rbp),%rax
   10aed:	48 89 85 e0 fc ff ff 	mov    %rax,-0x320(%rbp)
   10af4:	48 8d 05 a5 cd 00 00 	lea    0xcda5(%rip),%rax        # 1d8a0 <g_3841>
   10afb:	48 89 85 e8 fc ff ff 	mov    %rax,-0x318(%rbp)
   10b02:	48 8d 05 97 cd 00 00 	lea    0xcd97(%rip),%rax        # 1d8a0 <g_3841>
   10b09:	48 89 85 f0 fc ff ff 	mov    %rax,-0x310(%rbp)
   10b10:	48 8d 85 c0 ed ff ff 	lea    -0x1240(%rbp),%rax
   10b17:	48 83 c0 20          	add    $0x20,%rax
   10b1b:	48 89 85 f8 fc ff ff 	mov    %rax,-0x308(%rbp)
   10b22:	48 c7 85 00 fd ff ff 	movq   $0x0,-0x300(%rbp)
   10b29:	00 00 00 00 
   10b2d:	48 8d 85 1c ed ff ff 	lea    -0x12e4(%rbp),%rax
   10b34:	48 89 85 08 fd ff ff 	mov    %rax,-0x2f8(%rbp)
   10b3b:	48 8d 85 1c ed ff ff 	lea    -0x12e4(%rbp),%rax
   10b42:	48 89 85 10 fd ff ff 	mov    %rax,-0x2f0(%rbp)
   10b49:	48 8d 85 b8 e9 ff ff 	lea    -0x1648(%rbp),%rax
   10b50:	48 89 85 18 fd ff ff 	mov    %rax,-0x2e8(%rbp)
   10b57:	48 8d 05 42 cd 00 00 	lea    0xcd42(%rip),%rax        # 1d8a0 <g_3841>
   10b5e:	48 89 85 20 fd ff ff 	mov    %rax,-0x2e0(%rbp)
   10b65:	48 8d 85 b4 e9 ff ff 	lea    -0x164c(%rbp),%rax
   10b6c:	48 89 85 28 fd ff ff 	mov    %rax,-0x2d8(%rbp)
   10b73:	48 8d 85 b8 e9 ff ff 	lea    -0x1648(%rbp),%rax
   10b7a:	48 89 85 30 fd ff ff 	mov    %rax,-0x2d0(%rbp)
   10b81:	48 c7 85 38 fd ff ff 	movq   $0x0,-0x2c8(%rbp)
   10b88:	00 00 00 00 
   10b8c:	48 8d 05 45 ca 00 00 	lea    0xca45(%rip),%rax        # 1d5d8 <g_1515>
   10b93:	48 89 85 40 fd ff ff 	mov    %rax,-0x2c0(%rbp)
   10b9a:	48 c7 85 48 fd ff ff 	movq   $0x0,-0x2b8(%rbp)
   10ba1:	00 00 00 00 
   10ba5:	48 8d 85 f0 ed ff ff 	lea    -0x1210(%rbp),%rax
   10bac:	48 83 c0 20          	add    $0x20,%rax
   10bb0:	48 89 85 50 fd ff ff 	mov    %rax,-0x2b0(%rbp)
   10bb7:	48 c7 85 58 fd ff ff 	movq   $0x0,-0x2a8(%rbp)
   10bbe:	00 00 00 00 
   10bc2:	48 c7 85 60 fd ff ff 	movq   $0x0,-0x2a0(%rbp)
   10bc9:	00 00 00 00 
   10bcd:	48 8d 05 90 ca 00 00 	lea    0xca90(%rip),%rax        # 1d664 <g_2297>
   10bd4:	48 89 85 68 fd ff ff 	mov    %rax,-0x298(%rbp)
   10bdb:	48 8d 85 9c e9 ff ff 	lea    -0x1664(%rbp),%rax
   10be2:	48 89 85 70 fd ff ff 	mov    %rax,-0x290(%rbp)
   10be9:	48 8d 85 1c ed ff ff 	lea    -0x12e4(%rbp),%rax
   10bf0:	48 89 85 78 fd ff ff 	mov    %rax,-0x288(%rbp)
   10bf7:	48 c7 85 80 fd ff ff 	movq   $0x0,-0x280(%rbp)
   10bfe:	00 00 00 00 
   10c02:	48 c7 85 88 fd ff ff 	movq   $0x0,-0x278(%rbp)
   10c09:	00 00 00 00 
   10c0d:	48 8d 85 f0 ed ff ff 	lea    -0x1210(%rbp),%rax
   10c14:	48 83 c0 20          	add    $0x20,%rax
   10c18:	48 89 85 90 fd ff ff 	mov    %rax,-0x270(%rbp)
   10c1f:	48 8d 85 a4 e9 ff ff 	lea    -0x165c(%rbp),%rax
   10c26:	48 89 85 98 fd ff ff 	mov    %rax,-0x268(%rbp)
   10c2d:	48 8d 85 a0 e9 ff ff 	lea    -0x1660(%rbp),%rax
   10c34:	48 89 85 a0 fd ff ff 	mov    %rax,-0x260(%rbp)
   10c3b:	48 8d 85 c0 ed ff ff 	lea    -0x1240(%rbp),%rax
   10c42:	48 83 c0 08          	add    $0x8,%rax
   10c46:	48 89 85 a8 fd ff ff 	mov    %rax,-0x258(%rbp)
   10c4d:	48 8d 05 84 c9 00 00 	lea    0xc984(%rip),%rax        # 1d5d8 <g_1515>
   10c54:	48 89 85 b0 fd ff ff 	mov    %rax,-0x250(%rbp)
   10c5b:	48 c7 85 b8 fd ff ff 	movq   $0x0,-0x248(%rbp)
   10c62:	00 00 00 00 
   10c66:	48 8d 85 9c e9 ff ff 	lea    -0x1664(%rbp),%rax
   10c6d:	48 89 85 c0 fd ff ff 	mov    %rax,-0x240(%rbp)
   10c74:	48 c7 85 c8 fd ff ff 	movq   $0x0,-0x238(%rbp)
   10c7b:	00 00 00 00 
   10c7f:	48 8d 85 ac e9 ff ff 	lea    -0x1654(%rbp),%rax
   10c86:	48 89 85 d0 fd ff ff 	mov    %rax,-0x230(%rbp)
   10c8d:	48 8d 85 9c e9 ff ff 	lea    -0x1664(%rbp),%rax
   10c94:	48 89 85 d8 fd ff ff 	mov    %rax,-0x228(%rbp)
   10c9b:	48 8d 05 36 c9 00 00 	lea    0xc936(%rip),%rax        # 1d5d8 <g_1515>
   10ca2:	48 89 85 e0 fd ff ff 	mov    %rax,-0x220(%rbp)
   10ca9:	48 8d 85 1c ed ff ff 	lea    -0x12e4(%rbp),%rax
   10cb0:	48 89 85 e8 fd ff ff 	mov    %rax,-0x218(%rbp)
   10cb7:	48 c7 85 f0 fd ff ff 	movq   $0x0,-0x210(%rbp)
   10cbe:	00 00 00 00 
   10cc2:	48 8d 85 a8 e9 ff ff 	lea    -0x1658(%rbp),%rax
   10cc9:	48 89 85 f8 fd ff ff 	mov    %rax,-0x208(%rbp)
   10cd0:	48 8d 85 9c e9 ff ff 	lea    -0x1664(%rbp),%rax
   10cd7:	48 89 85 00 fe ff ff 	mov    %rax,-0x200(%rbp)
   10cde:	48 8d 85 b0 e9 ff ff 	lea    -0x1650(%rbp),%rax
   10ce5:	48 89 85 08 fe ff ff 	mov    %rax,-0x1f8(%rbp)
   10cec:	48 8d 85 1c ed ff ff 	lea    -0x12e4(%rbp),%rax
   10cf3:	48 89 85 10 fe ff ff 	mov    %rax,-0x1f0(%rbp)
   10cfa:	48 c7 85 18 fe ff ff 	movq   $0x0,-0x1e8(%rbp)
   10d01:	00 00 00 00 
   10d05:	48 8d 05 cc c8 00 00 	lea    0xc8cc(%rip),%rax        # 1d5d8 <g_1515>
   10d0c:	48 89 85 20 fe ff ff 	mov    %rax,-0x1e0(%rbp)
   10d13:	48 8d 85 b4 e9 ff ff 	lea    -0x164c(%rbp),%rax
   10d1a:	48 89 85 28 fe ff ff 	mov    %rax,-0x1d8(%rbp)
   10d21:	48 8d 85 9c e9 ff ff 	lea    -0x1664(%rbp),%rax
   10d28:	48 89 85 30 fe ff ff 	mov    %rax,-0x1d0(%rbp)
   10d2f:	48 8d 85 a8 e9 ff ff 	lea    -0x1658(%rbp),%rax
   10d36:	48 89 85 38 fe ff ff 	mov    %rax,-0x1c8(%rbp)
   10d3d:	48 8d 85 a8 e9 ff ff 	lea    -0x1658(%rbp),%rax
   10d44:	48 89 85 40 fe ff ff 	mov    %rax,-0x1c0(%rbp)
   10d4b:	48 c7 85 48 fe ff ff 	movq   $0x0,-0x1b8(%rbp)
   10d52:	00 00 00 00 
   10d56:	48 8d 05 2f c3 00 00 	lea    0xc32f(%rip),%rax        # 1d08c <g_85>
   10d5d:	48 89 85 50 fe ff ff 	mov    %rax,-0x1b0(%rbp)
   10d64:	48 8d 85 1c ed ff ff 	lea    -0x12e4(%rbp),%rax
   10d6b:	48 89 85 58 fe ff ff 	mov    %rax,-0x1a8(%rbp)
   10d72:	48 8d 05 13 c3 00 00 	lea    0xc313(%rip),%rax        # 1d08c <g_85>
   10d79:	48 89 85 60 fe ff ff 	mov    %rax,-0x1a0(%rbp)
   10d80:	48 c7 85 68 fe ff ff 	movq   $0x0,-0x198(%rbp)
   10d87:	00 00 00 00 
   10d8b:	48 8d 85 c0 ed ff ff 	lea    -0x1240(%rbp),%rax
   10d92:	48 83 c0 08          	add    $0x8,%rax
   10d96:	48 89 85 70 fe ff ff 	mov    %rax,-0x190(%rbp)
   10d9d:	48 8d 85 c0 ed ff ff 	lea    -0x1240(%rbp),%rax
   10da4:	48 83 c0 08          	add    $0x8,%rax
   10da8:	48 89 85 78 fe ff ff 	mov    %rax,-0x188(%rbp)
   10daf:	48 8d 85 9c e9 ff ff 	lea    -0x1664(%rbp),%rax
   10db6:	48 89 85 80 fe ff ff 	mov    %rax,-0x180(%rbp)
   10dbd:	48 8d 85 b4 e9 ff ff 	lea    -0x164c(%rbp),%rax
   10dc4:	48 89 85 88 fe ff ff 	mov    %rax,-0x178(%rbp)
   10dcb:	48 8d 05 06 c8 00 00 	lea    0xc806(%rip),%rax        # 1d5d8 <g_1515>
   10dd2:	48 89 85 90 fe ff ff 	mov    %rax,-0x170(%rbp)
   10dd9:	48 c7 85 98 fe ff ff 	movq   $0x0,-0x168(%rbp)
   10de0:	00 00 00 00 
   10de4:	48 8d 85 1c ed ff ff 	lea    -0x12e4(%rbp),%rax
   10deb:	48 89 85 a0 fe ff ff 	mov    %rax,-0x160(%rbp)
   10df2:	48 8d 85 a8 e9 ff ff 	lea    -0x1658(%rbp),%rax
   10df9:	48 89 85 a8 fe ff ff 	mov    %rax,-0x158(%rbp)
   10e00:	48 8d 85 a8 e9 ff ff 	lea    -0x1658(%rbp),%rax
   10e07:	48 89 85 b0 fe ff ff 	mov    %rax,-0x150(%rbp)
   10e0e:	48 8d 85 a8 e9 ff ff 	lea    -0x1658(%rbp),%rax
   10e15:	48 89 85 b8 fe ff ff 	mov    %rax,-0x148(%rbp)
   10e1c:	48 c7 85 c0 fe ff ff 	movq   $0x0,-0x140(%rbp)
   10e23:	00 00 00 00 
   10e27:	48 8d 85 1c ed ff ff 	lea    -0x12e4(%rbp),%rax
   10e2e:	48 89 85 c8 fe ff ff 	mov    %rax,-0x138(%rbp)
   10e35:	48 8d 05 9c c7 00 00 	lea    0xc79c(%rip),%rax        # 1d5d8 <g_1515>
   10e3c:	48 89 85 d0 fe ff ff 	mov    %rax,-0x130(%rbp)
   10e43:	48 8d 85 9c e9 ff ff 	lea    -0x1664(%rbp),%rax
   10e4a:	48 89 85 d8 fe ff ff 	mov    %rax,-0x128(%rbp)
   10e51:	48 8d 85 b0 e9 ff ff 	lea    -0x1650(%rbp),%rax
   10e58:	48 89 85 e0 fe ff ff 	mov    %rax,-0x120(%rbp)
   10e5f:	48 8d 85 9c e9 ff ff 	lea    -0x1664(%rbp),%rax
   10e66:	48 89 85 e8 fe ff ff 	mov    %rax,-0x118(%rbp)
   10e6d:	48 8d 85 9c e9 ff ff 	lea    -0x1664(%rbp),%rax
   10e74:	48 89 85 f0 fe ff ff 	mov    %rax,-0x110(%rbp)
   10e7b:	48 c7 85 f8 fe ff ff 	movq   $0x0,-0x108(%rbp)
   10e82:	00 00 00 00 
   10e86:	48 8d 05 4b c7 00 00 	lea    0xc74b(%rip),%rax        # 1d5d8 <g_1515>
   10e8d:	48 89 85 00 ff ff ff 	mov    %rax,-0x100(%rbp)
   10e94:	48 8d 85 c0 ed ff ff 	lea    -0x1240(%rbp),%rax
   10e9b:	48 83 c0 08          	add    $0x8,%rax
   10e9f:	48 89 85 08 ff ff ff 	mov    %rax,-0xf8(%rbp)
   10ea6:	48 8d 85 a0 e9 ff ff 	lea    -0x1660(%rbp),%rax
   10ead:	48 89 85 10 ff ff ff 	mov    %rax,-0xf0(%rbp)
   10eb4:	48 8d 85 ac e9 ff ff 	lea    -0x1654(%rbp),%rax
   10ebb:	48 89 85 18 ff ff ff 	mov    %rax,-0xe8(%rbp)
   10ec2:	48 c7 85 20 ff ff ff 	movq   $0x0,-0xe0(%rbp)
   10ec9:	00 00 00 00 
   10ecd:	48 c7 85 28 ff ff ff 	movq   $0x0,-0xd8(%rbp)
   10ed4:	00 00 00 00 
   10ed8:	48 c7 85 30 ff ff ff 	movq   $0x0,-0xd0(%rbp)
   10edf:	00 00 00 00 
   10ee3:	48 8d 85 1c ed ff ff 	lea    -0x12e4(%rbp),%rax
   10eea:	48 89 85 38 ff ff ff 	mov    %rax,-0xc8(%rbp)
   10ef1:	48 8d 85 9c e9 ff ff 	lea    -0x1664(%rbp),%rax
   10ef8:	48 89 85 40 ff ff ff 	mov    %rax,-0xc0(%rbp)
   10eff:	48 8d 05 5e c7 00 00 	lea    0xc75e(%rip),%rax        # 1d664 <g_2297>
   10f06:	48 89 85 48 ff ff ff 	mov    %rax,-0xb8(%rbp)
   10f0d:	48 8d 85 a4 e9 ff ff 	lea    -0x165c(%rbp),%rax
   10f14:	48 89 85 50 ff ff ff 	mov    %rax,-0xb0(%rbp)
   10f1b:	48 8d 85 f0 ed ff ff 	lea    -0x1210(%rbp),%rax
   10f22:	48 83 c0 20          	add    $0x20,%rax
   10f26:	48 89 85 58 ff ff ff 	mov    %rax,-0xa8(%rbp)
   10f2d:	48 8d 85 f0 ed ff ff 	lea    -0x1210(%rbp),%rax
   10f34:	48 83 c0 20          	add    $0x20,%rax
   10f38:	48 89 85 60 ff ff ff 	mov    %rax,-0xa0(%rbp)
   10f3f:	48 c7 85 68 ff ff ff 	movq   $0x0,-0x98(%rbp)
   10f46:	00 00 00 00 
   10f4a:	48 8d 05 87 c6 00 00 	lea    0xc687(%rip),%rax        # 1d5d8 <g_1515>
   10f51:	48 89 85 70 ff ff ff 	mov    %rax,-0x90(%rbp)
   10f58:	48 c7 85 78 ff ff ff 	movq   $0x0,-0x88(%rbp)
   10f5f:	00 00 00 00 
   10f63:	48 8d 85 b8 e9 ff ff 	lea    -0x1648(%rbp),%rax
   10f6a:	48 89 45 80          	mov    %rax,-0x80(%rbp)
   10f6e:	48 c7 45 88 00 00 00 	movq   $0x0,-0x78(%rbp)
   10f75:	00 
   10f76:	48 c7 45 90 00 00 00 	movq   $0x0,-0x70(%rbp)
   10f7d:	00 
   10f7e:	48 8d 85 b8 e9 ff ff 	lea    -0x1648(%rbp),%rax
   10f85:	48 89 45 98          	mov    %rax,-0x68(%rbp)
   10f89:	48 8d 85 1c ed ff ff 	lea    -0x12e4(%rbp),%rax
   10f90:	48 89 45 a0          	mov    %rax,-0x60(%rbp)
   10f94:	48 8d 85 1c ed ff ff 	lea    -0x12e4(%rbp),%rax
   10f9b:	48 89 45 a8          	mov    %rax,-0x58(%rbp)
   10f9f:	48 c7 45 b0 00 00 00 	movq   $0x0,-0x50(%rbp)
   10fa6:	00 
   10fa7:	48 8d 85 c0 ed ff ff 	lea    -0x1240(%rbp),%rax
   10fae:	48 83 c0 20          	add    $0x20,%rax
   10fb2:	48 89 45 b8          	mov    %rax,-0x48(%rbp)
   10fb6:	c7 85 1c ea ff ff fe 	movl   $0xfffffffe,-0x15e4(%rbp)
   10fbd:	ff ff ff 
   10fc0:	c7 85 20 ea ff ff 60 	movl   $0x7a170c60,-0x15e0(%rbp)
   10fc7:	0c 17 7a 
   10fca:	48 8b 85 c0 eb ff ff 	mov    -0x1440(%rbp),%rax
   10fd1:	48 89 05 20 0b 01 00 	mov    %rax,0x10b20(%rip)        # 21af8 <g_3972+0x38>
   10fd8:	83 ad 20 ea ff ff 01 	subl   $0x1,-0x15e0(%rbp)
   10fdf:	c7 05 2f c1 00 00 00 	movl   $0x0,0xc12f(%rip)        # 1d118 <g_277>
   10fe6:	00 00 00 
   10fe9:	eb 75                	jmp    11060 <func_7+0x4382>
   10feb:	48 8d 85 00 eb ff ff 	lea    -0x1500(%rbp),%rax
   10ff2:	48 89 85 c8 eb ff ff 	mov    %rax,-0x1438(%rbp)
   10ff9:	48 8b 95 00 eb ff ff 	mov    -0x1500(%rbp),%rdx
   11000:	48 8b 85 c8 eb ff ff 	mov    -0x1438(%rbp),%rax
   11007:	48 89 10             	mov    %rdx,(%rax)
   1100a:	be 01 00 00 00       	mov    $0x1,%esi
   1100f:	bf f8 ff ff ff       	mov    $0xfffffff8,%edi
   11014:	e8 79 94 ff ff       	callq  a492 <safe_lshift_func_int16_t_s_s>
   11019:	0f bf d0             	movswl %ax,%edx
   1101c:	48 8b 05 bd fc 00 00 	mov    0xfcbd(%rip),%rax        # 20ce0 <g_2243>
   11023:	48 8b 00             	mov    (%rax),%rax
   11026:	48 8b 00             	mov    (%rax),%rax
   11029:	0f b6 08             	movzbl (%rax),%ecx
   1102c:	83 c1 01             	add    $0x1,%ecx
   1102f:	88 08                	mov    %cl,(%rax)
   11031:	0f b6 00             	movzbl (%rax),%eax
   11034:	0f b6 c0             	movzbl %al,%eax
   11037:	89 d6                	mov    %edx,%esi
   11039:	89 c7                	mov    %eax,%edi
   1103b:	e8 7e 9c ff ff       	callq  acbe <safe_rshift_func_uint8_t_u_u>
   11040:	89 c2                	mov    %eax,%edx
   11042:	48 8b 85 b8 ea ff ff 	mov    -0x1548(%rbp),%rax
   11049:	48 8b 00             	mov    (%rax),%rax
   1104c:	0f b6 d2             	movzbl %dl,%edx
   1104f:	89 10                	mov    %edx,(%rax)
   11051:	8b 05 c1 c0 00 00    	mov    0xc0c1(%rip),%eax        # 1d118 <g_277>
   11057:	83 c0 01             	add    $0x1,%eax
   1105a:	89 05 b8 c0 00 00    	mov    %eax,0xc0b8(%rip)        # 1d118 <g_277>
   11060:	8b 05 b2 c0 00 00    	mov    0xc0b2(%rip),%eax        # 1d118 <g_277>
   11066:	85 c0                	test   %eax,%eax
   11068:	74 81                	je     10feb <func_7+0x430d>
   1106a:	0f b7 85 92 e9 ff ff 	movzwl -0x166e(%rbp),%eax
   11071:	83 e8 01             	sub    $0x1,%eax
   11074:	66 89 85 92 e9 ff ff 	mov    %ax,-0x166e(%rbp)
   1107b:	0f b6 05 2e c6 00 00 	movzbl 0xc62e(%rip),%eax        # 1d6b0 <g_2696>
   11082:	83 c0 01             	add    $0x1,%eax
   11085:	88 05 25 c6 00 00    	mov    %al,0xc625(%rip)        # 1d6b0 <g_2696>
   1108b:	0f b6 05 1e c6 00 00 	movzbl 0xc61e(%rip),%eax        # 1d6b0 <g_2696>
   11092:	3c 27                	cmp    $0x27,%al
   11094:	0f 85 64 eb ff ff    	jne    fbfe <func_7+0x2f20>
   1109a:	48 8b 85 c8 ea ff ff 	mov    -0x1538(%rbp),%rax
   110a1:	48 8b 00             	mov    (%rax),%rax
   110a4:	48 8b 00             	mov    (%rax),%rax
   110a7:	48 8b 00             	mov    (%rax),%rax
   110aa:	0f bf 95 7c e9 ff ff 	movswl -0x1684(%rbp),%edx
   110b1:	89 10                	mov    %edx,(%rax)
   110b3:	8b 00                	mov    (%rax),%eax
   110b5:	83 f8 06             	cmp    $0x6,%eax
   110b8:	0f 9e c0             	setle  %al
   110bb:	0f b6 d0             	movzbl %al,%edx
   110be:	48 8b 0d a3 ed 00 00 	mov    0xeda3(%rip),%rcx        # 1fe68 <g_152>
   110c5:	48 8b 05 9c ed 00 00 	mov    0xed9c(%rip),%rax        # 1fe68 <g_152>
   110cc:	0f b7 09             	movzwl (%rcx),%ecx
   110cf:	66 89 08             	mov    %cx,(%rax)
   110d2:	0f b7 00             	movzwl (%rax),%eax
   110d5:	0f b7 c0             	movzwl %ax,%eax
   110d8:	89 d6                	mov    %edx,%esi
   110da:	89 c7                	mov    %eax,%edi
   110dc:	e8 5c 9c ff ff       	callq  ad3d <safe_mul_func_uint16_t_u_u>
   110e1:	0f b7 c0             	movzwl %ax,%eax
   110e4:	89 85 08 ea ff ff    	mov    %eax,-0x15f8(%rbp)
   110ea:	8b 05 74 c5 00 00    	mov    0xc574(%rip),%eax        # 1d664 <g_2297>
   110f0:	48 98                	cltq   
   110f2:	be 02 00 00 00       	mov    $0x2,%esi
   110f7:	48 89 c7             	mov    %rax,%rdi
   110fa:	e8 a9 97 ff ff       	callq  a8a8 <safe_sub_func_int64_t_s_s>
   110ff:	89 05 5f c5 00 00    	mov    %eax,0xc55f(%rip)        # 1d664 <g_2297>
   11105:	8b 05 59 c5 00 00    	mov    0xc559(%rip),%eax        # 1d664 <g_2297>
   1110b:	85 c0                	test   %eax,%eax
   1110d:	0f 88 bf e9 ff ff    	js     fad2 <func_7+0x2df4>
   11113:	48 8b 05 8e f0 00 00 	mov    0xf08e(%rip),%rax        # 201a8 <g_1327>
   1111a:	48 8b 08             	mov    (%rax),%rcx
   1111d:	8b 85 74 e9 ff ff    	mov    -0x168c(%rbp),%eax
   11123:	48 63 d0             	movslq %eax,%rdx
   11126:	48 8b 05 7b f0 00 00 	mov    0xf07b(%rip),%rax        # 201a8 <g_1327>
   1112d:	48 21 ca             	and    %rcx,%rdx
   11130:	48 89 10             	mov    %rdx,(%rax)
   11133:	48 8b 00             	mov    (%rax),%rax
   11136:	48 89 c6             	mov    %rax,%rsi
   11139:	48 c7 c7 f9 ff ff ff 	mov    $0xfffffffffffffff9,%rdi
   11140:	e8 b2 98 ff ff       	callq  a9f7 <safe_div_func_int64_t_s_s>
   11145:	0f b6 05 9e 8a 00 00 	movzbl 0x8a9e(%rip),%eax        # 19bea <l_4020.4432+0xea>
   1114c:	0f be d8             	movsbl %al,%ebx
   1114f:	48 8b 05 9a ef 00 00 	mov    0xef9a(%rip),%rax        # 200f0 <g_984>
   11156:	0f b7 00             	movzwl (%rax),%eax
   11159:	98                   	cwtl   
   1115a:	be 0f 00 00 00       	mov    $0xf,%esi
   1115f:	89 c7                	mov    %eax,%edi
   11161:	e8 7b 93 ff ff       	callq  a4e1 <safe_lshift_func_int16_t_s_u>
   11166:	41 89 c4             	mov    %eax,%r12d
   11169:	0f bf 95 7c e9 ff ff 	movswl -0x1684(%rbp),%edx
   11170:	48 8b 85 b8 ea ff ff 	mov    -0x1548(%rbp),%rax
   11177:	48 8b 00             	mov    (%rax),%rax
   1117a:	48 85 c0             	test   %rax,%rax
   1117d:	0f 95 c0             	setne  %al
   11180:	0f b6 c0             	movzbl %al,%eax
   11183:	89 d6                	mov    %edx,%esi
   11185:	89 c7                	mov    %eax,%edi
   11187:	e8 06 93 ff ff       	callq  a492 <safe_lshift_func_int16_t_s_s>
   1118c:	48 8b 05 5d ef 00 00 	mov    0xef5d(%rip),%rax        # 200f0 <g_984>
   11193:	0f b7 00             	movzwl (%rax),%eax
   11196:	66 85 c0             	test   %ax,%ax
   11199:	7e 18                	jle    111b3 <func_7+0x44d5>
   1119b:	48 8b 05 2e ed 00 00 	mov    0xed2e(%rip),%rax        # 1fed0 <g_435>
   111a2:	48 8b 00             	mov    (%rax),%rax
   111a5:	0f b6 00             	movzbl (%rax),%eax
   111a8:	84 c0                	test   %al,%al
   111aa:	74 07                	je     111b3 <func_7+0x44d5>
   111ac:	b8 01 00 00 00       	mov    $0x1,%eax
   111b1:	eb 05                	jmp    111b8 <func_7+0x44da>
   111b3:	b8 00 00 00 00       	mov    $0x0,%eax
   111b8:	0f b7 c0             	movzwl %ax,%eax
   111bb:	89 c6                	mov    %eax,%esi
   111bd:	bf 4f 88 00 00       	mov    $0x884f,%edi
   111c2:	e8 76 9b ff ff       	callq  ad3d <safe_mul_func_uint16_t_u_u>
   111c7:	0f b7 85 94 e9 ff ff 	movzwl -0x166c(%rbp),%eax
   111ce:	89 c1                	mov    %eax,%ecx
   111d0:	0f b6 95 88 e9 ff ff 	movzbl -0x1678(%rbp),%edx
   111d7:	48 8b 05 0a fb 00 00 	mov    0xfb0a(%rip),%rax        # 20ce8 <g_2273>
   111de:	48 8b 00             	mov    (%rax),%rax
   111e1:	09 ca                	or     %ecx,%edx
   111e3:	88 10                	mov    %dl,(%rax)
   111e5:	0f b6 00             	movzbl (%rax),%eax
   111e8:	44 09 e0             	or     %r12d,%eax
   111eb:	0f be c0             	movsbl %al,%eax
   111ee:	89 de                	mov    %ebx,%esi
   111f0:	89 c7                	mov    %eax,%edi
   111f2:	e8 1b 90 ff ff       	callq  a212 <safe_mul_func_int8_t_s_s>
   111f7:	83 c8 20             	or     $0x20,%eax
   111fa:	89 c2                	mov    %eax,%edx
   111fc:	0f b6 85 8a e9 ff ff 	movzbl -0x1676(%rbp),%eax
   11203:	21 d0                	and    %edx,%eax
   11205:	0f be d8             	movsbl %al,%ebx
   11208:	48 8b 05 a9 ec 00 00 	mov    0xeca9(%rip),%rax        # 1feb8 <g_329>
   1120f:	0f b6 00             	movzbl (%rax),%eax
   11212:	0f b6 d0             	movzbl %al,%edx
   11215:	48 8b 05 d4 ee 00 00 	mov    0xeed4(%rip),%rax        # 200f0 <g_984>
   1121c:	0f b7 00             	movzwl (%rax),%eax
   1121f:	66 85 c0             	test   %ax,%ax
   11222:	74 1f                	je     11243 <func_7+0x4565>
   11224:	48 8b 05 3d ec 00 00 	mov    0xec3d(%rip),%rax        # 1fe68 <g_152>
   1122b:	0f b7 08             	movzwl (%rax),%ecx
   1122e:	83 c1 01             	add    $0x1,%ecx
   11231:	66 89 08             	mov    %cx,(%rax)
   11234:	0f b7 00             	movzwl (%rax),%eax
   11237:	66 85 c0             	test   %ax,%ax
   1123a:	74 07                	je     11243 <func_7+0x4565>
   1123c:	b8 01 00 00 00       	mov    $0x1,%eax
   11241:	eb 05                	jmp    11248 <func_7+0x456a>
   11243:	b8 00 00 00 00       	mov    $0x0,%eax
   11248:	0f b6 c0             	movzbl %al,%eax
   1124b:	89 d6                	mov    %edx,%esi
   1124d:	89 c7                	mov    %eax,%edi
   1124f:	e8 06 99 ff ff       	callq  ab5a <safe_add_func_uint8_t_u_u>
   11254:	89 c2                	mov    %eax,%edx
   11256:	48 8b 85 c0 ea ff ff 	mov    -0x1540(%rbp),%rax
   1125d:	48 8b 00             	mov    (%rax),%rax
   11260:	48 8b 00             	mov    (%rax),%rax
   11263:	0f b6 d2             	movzbl %dl,%edx
   11266:	89 10                	mov    %edx,(%rax)
   11268:	8b 00                	mov    (%rax),%eax
   1126a:	0f be c0             	movsbl %al,%eax
   1126d:	89 de                	mov    %ebx,%esi
   1126f:	89 c7                	mov    %eax,%edi
   11271:	e8 f4 8f ff ff       	callq  a26a <safe_div_func_int8_t_s_s>
   11276:	89 c2                	mov    %eax,%edx
   11278:	48 8b 05 f1 eb 00 00 	mov    0xebf1(%rip),%rax        # 1fe70 <g_166>
   1127f:	0f be d2             	movsbl %dl,%edx
   11282:	89 10                	mov    %edx,(%rax)
   11284:	8b 05 ee c3 00 00    	mov    0xc3ee(%rip),%eax        # 1d678 <g_2343>
   1128a:	0f b6 c0             	movzbl %al,%eax
   1128d:	be 03 00 00 00       	mov    $0x3,%esi
   11292:	89 c7                	mov    %eax,%edi
   11294:	e8 c1 98 ff ff       	callq  ab5a <safe_add_func_uint8_t_u_u>
   11299:	0f b6 c0             	movzbl %al,%eax
   1129c:	89 05 d6 c3 00 00    	mov    %eax,0xc3d6(%rip)        # 1d678 <g_2343>
   112a2:	8b 05 d0 c3 00 00    	mov    0xc3d0(%rip),%eax        # 1d678 <g_2343>
   112a8:	83 f8 10             	cmp    $0x10,%eax
   112ab:	0f 86 88 bc ff ff    	jbe    cf39 <func_7+0x25b>
   112b1:	8b 85 74 e9 ff ff    	mov    -0x168c(%rbp),%eax
   112b7:	48 8b 5d c8          	mov    -0x38(%rbp),%rbx
   112bb:	64 48 33 1c 25 28 00 	xor    %fs:0x28,%rbx
   112c2:	00 00 
   112c4:	74 05                	je     112cb <func_7+0x45ed>
   112c6:	e8 a5 8d ff ff       	callq  a070 <__stack_chk_fail@plt>
   112cb:	48 81 c4 98 16 00 00 	add    $0x1698,%rsp
   112d2:	5b                   	pop    %rbx
   112d3:	41 5c                	pop    %r12
   112d5:	41 5d                	pop    %r13
   112d7:	41 5e                	pop    %r14
   112d9:	41 5f                	pop    %r15
   112db:	5d                   	pop    %rbp
   112dc:	c3                   	retq   

00000000000112dd <func_23>:
   112dd:	f3 0f 1e fa          	endbr64 
   112e1:	55                   	push   %rbp
   112e2:	48 89 e5             	mov    %rsp,%rbp
   112e5:	53                   	push   %rbx
   112e6:	48 81 ec c8 00 00 00 	sub    $0xc8,%rsp
   112ed:	89 f0                	mov    %esi,%eax
   112ef:	89 95 44 ff ff ff    	mov    %edx,-0xbc(%rbp)
   112f5:	89 8d 40 ff ff ff    	mov    %ecx,-0xc0(%rbp)
   112fb:	4c 89 85 38 ff ff ff 	mov    %r8,-0xc8(%rbp)
   11302:	89 fa                	mov    %edi,%edx
   11304:	88 95 4c ff ff ff    	mov    %dl,-0xb4(%rbp)
   1130a:	88 85 48 ff ff ff    	mov    %al,-0xb8(%rbp)
   11310:	64 48 8b 04 25 28 00 	mov    %fs:0x28,%rax
   11317:	00 00 
   11319:	48 89 45 e8          	mov    %rax,-0x18(%rbp)
   1131d:	31 c0                	xor    %eax,%eax
   1131f:	c7 85 60 ff ff ff 87 	movl   $0xe0ef2287,-0xa0(%rbp)
   11326:	22 ef e0 
   11329:	48 c7 85 68 ff ff ff 	movq   $0x0,-0x98(%rbp)
   11330:	00 00 00 00 
   11334:	48 c7 85 70 ff ff ff 	movq   $0x0,-0x90(%rbp)
   1133b:	00 00 00 00 
   1133f:	48 8d 05 72 ef 00 00 	lea    0xef72(%rip),%rax        # 202b8 <g_1481>
   11346:	48 89 85 78 ff ff ff 	mov    %rax,-0x88(%rbp)
   1134d:	48 8d 05 1c eb 00 00 	lea    0xeb1c(%rip),%rax        # 1fe70 <g_166>
   11354:	48 89 45 80          	mov    %rax,-0x80(%rbp)
   11358:	48 c7 45 88 00 00 00 	movq   $0x0,-0x78(%rbp)
   1135f:	00 
   11360:	48 c7 45 90 00 00 00 	movq   $0x0,-0x70(%rbp)
   11367:	00 
   11368:	48 c7 45 98 00 00 00 	movq   $0x0,-0x68(%rbp)
   1136f:	00 
   11370:	48 8d 05 f1 ea 00 00 	lea    0xeaf1(%rip),%rax        # 1fe68 <g_152>
   11377:	48 89 45 a0          	mov    %rax,-0x60(%rbp)
   1137b:	48 8d 45 d0          	lea    -0x30(%rbp),%rax
   1137f:	48 83 c0 08          	add    $0x8,%rax
   11383:	48 89 45 a8          	mov    %rax,-0x58(%rbp)
   11387:	c7 85 5c ff ff ff 00 	movl   $0x0,-0xa4(%rbp)
   1138e:	00 00 00 
   11391:	eb 18                	jmp    113ab <func_23+0xce>
   11393:	8b 85 5c ff ff ff    	mov    -0xa4(%rbp),%eax
   11399:	48 98                	cltq   
   1139b:	48 c7 44 c5 d0 00 00 	movq   $0x0,-0x30(%rbp,%rax,8)
   113a2:	00 00 
   113a4:	83 85 5c ff ff ff 01 	addl   $0x1,-0xa4(%rbp)
   113ab:	83 bd 5c ff ff ff 01 	cmpl   $0x1,-0xa4(%rbp)
   113b2:	7e df                	jle    11393 <func_23+0xb6>
   113b4:	0f b6 85 4c ff ff ff 	movzbl -0xb4(%rbp),%eax
   113bb:	0f b6 c0             	movzbl %al,%eax
   113be:	48 8b 95 78 ff ff ff 	mov    -0x88(%rbp),%rdx
   113c5:	48 89 15 8c 03 01 00 	mov    %rdx,0x1038c(%rip)        # 21758 <g_3362+0x18>
   113cc:	48 8b 95 70 ff ff ff 	mov    -0x90(%rbp),%rdx
   113d3:	89 c6                	mov    %eax,%esi
   113d5:	bf 05 00 00 00       	mov    $0x5,%edi
   113da:	e8 f8 21 00 00       	callq  135d7 <func_45>
   113df:	48 89 c3             	mov    %rax,%rbx
   113e2:	48 8b 95 70 ff ff ff 	mov    -0x90(%rbp),%rdx
   113e9:	48 8b 85 68 ff ff ff 	mov    -0x98(%rbp),%rax
   113f0:	48 89 d6             	mov    %rdx,%rsi
   113f3:	48 89 c7             	mov    %rax,%rdi
   113f6:	e8 97 06 00 00       	callq  11a92 <func_31>
   113fb:	48 89 c2             	mov    %rax,%rdx
   113fe:	48 8b 05 d3 ea 00 00 	mov    0xead3(%rip),%rax        # 1fed8 <g_533>
   11405:	0f b6 00             	movzbl (%rax),%eax
   11408:	0f b6 c8             	movzbl %al,%ecx
   1140b:	8b 85 60 ff ff ff    	mov    -0xa0(%rbp),%eax
   11411:	89 ce                	mov    %ecx,%esi
   11413:	48 89 c7             	mov    %rax,%rdi
   11416:	e8 bc 21 00 00       	callq  135d7 <func_45>
   1141b:	48 89 de             	mov    %rbx,%rsi
   1141e:	48 89 c7             	mov    %rax,%rdi
   11421:	e8 6c 06 00 00       	callq  11a92 <func_31>
   11426:	48 8b 55 80          	mov    -0x80(%rbp),%rdx
   1142a:	48 89 02             	mov    %rax,(%rdx)
   1142d:	c6 05 9c c3 00 00 02 	movb   $0x2,0xc39c(%rip)        # 1d7d0 <g_3303>
   11434:	eb 43                	jmp    11479 <func_23+0x19c>
   11436:	c7 85 64 ff ff ff 40 	movl   $0xe019a940,-0x9c(%rbp)
   1143d:	a9 19 e0 
   11440:	48 8d 05 c1 bc 00 00 	lea    0xbcc1(%rip),%rax        # 1d108 <g_274>
   11447:	48 89 45 b0          	mov    %rax,-0x50(%rbp)
   1144b:	48 c7 45 b8 00 00 00 	movq   $0x0,-0x48(%rbp)
   11452:	00 
   11453:	48 8d 05 ae f6 00 00 	lea    0xf6ae(%rip),%rax        # 20b08 <g_1917>
   1145a:	48 89 45 c0          	mov    %rax,-0x40(%rbp)
   1145e:	48 8d 05 4b ee 00 00 	lea    0xee4b(%rip),%rax        # 202b0 <g_1482>
   11465:	48 89 45 c8          	mov    %rax,-0x38(%rbp)
   11469:	0f b6 05 60 c3 00 00 	movzbl 0xc360(%rip),%eax        # 1d7d0 <g_3303>
   11470:	83 e8 01             	sub    $0x1,%eax
   11473:	88 05 57 c3 00 00    	mov    %al,0xc357(%rip)        # 1d7d0 <g_3303>
   11479:	0f b6 05 50 c3 00 00 	movzbl 0xc350(%rip),%eax        # 1d7d0 <g_3303>
   11480:	84 c0                	test   %al,%al
   11482:	79 b2                	jns    11436 <func_23+0x159>
   11484:	48 8b 05 3d ee 00 00 	mov    0xee3d(%rip),%rax        # 202c8 <g_1623>
   1148b:	8b 00                	mov    (%rax),%eax
   1148d:	48 8b 5d e8          	mov    -0x18(%rbp),%rbx
   11491:	64 48 33 1c 25 28 00 	xor    %fs:0x28,%rbx
   11498:	00 00 
   1149a:	74 05                	je     114a1 <func_23+0x1c4>
   1149c:	e8 cf 8b ff ff       	callq  a070 <__stack_chk_fail@plt>
   114a1:	48 81 c4 c8 00 00 00 	add    $0xc8,%rsp
   114a8:	5b                   	pop    %rbx
   114a9:	5d                   	pop    %rbp
   114aa:	c3                   	retq   

00000000000114ab <func_29>:
   114ab:	f3 0f 1e fa          	endbr64 
   114af:	55                   	push   %rbp
   114b0:	48 89 e5             	mov    %rsp,%rbp
   114b3:	48 81 ec a0 02 00 00 	sub    $0x2a0,%rsp
   114ba:	48 89 bd 68 fd ff ff 	mov    %rdi,-0x298(%rbp)
   114c1:	64 48 8b 04 25 28 00 	mov    %fs:0x28,%rax
   114c8:	00 00 
   114ca:	48 89 45 f8          	mov    %rax,-0x8(%rbp)
   114ce:	31 c0                	xor    %eax,%eax
   114d0:	48 8d 05 01 c1 00 00 	lea    0xc101(%rip),%rax        # 1d5d8 <g_1515>
   114d7:	48 89 85 b0 fd ff ff 	mov    %rax,-0x250(%rbp)
   114de:	c6 85 72 fd ff ff f9 	movb   $0xf9,-0x28e(%rbp)
   114e5:	c7 85 30 fe ff ff fc 	movl   $0xfffffffc,-0x1d0(%rbp)
   114ec:	ff ff ff 
   114ef:	c7 85 34 fe ff ff fc 	movl   $0xfffffffc,-0x1cc(%rbp)
   114f6:	ff ff ff 
   114f9:	c7 85 38 fe ff ff fc 	movl   $0xfffffffc,-0x1c8(%rbp)
   11500:	ff ff ff 
   11503:	c7 85 3c fe ff ff fc 	movl   $0xfffffffc,-0x1c4(%rbp)
   1150a:	ff ff ff 
   1150d:	c7 85 88 fd ff ff 9b 	movl   $0x5ef0559b,-0x278(%rbp)
   11514:	55 f0 5e 
   11517:	48 8d 05 c2 f5 00 00 	lea    0xf5c2(%rip),%rax        # 20ae0 <g_1891>
   1151e:	48 89 85 b8 fd ff ff 	mov    %rax,-0x248(%rbp)
   11525:	48 c7 85 98 fd ff ff 	movq   $0x0,-0x268(%rbp)
   1152c:	00 00 00 00 
   11530:	48 8d 85 98 fd ff ff 	lea    -0x268(%rbp),%rax
   11537:	48 89 85 c0 fd ff ff 	mov    %rax,-0x240(%rbp)
   1153e:	c6 85 73 fd ff ff f8 	movb   $0xf8,-0x28d(%rbp)
   11545:	48 8d 05 7c ed 00 00 	lea    0xed7c(%rip),%rax        # 202c8 <g_1623>
   1154c:	48 89 85 a0 fd ff ff 	mov    %rax,-0x260(%rbp)
   11553:	48 8d 85 a0 fd ff ff 	lea    -0x260(%rbp),%rax
   1155a:	48 89 85 c8 fd ff ff 	mov    %rax,-0x238(%rbp)
   11561:	48 c7 85 d0 fe ff ff 	movq   $0x0,-0x130(%rbp)
   11568:	00 00 00 00 
   1156c:	48 c7 85 d8 fe ff ff 	movq   $0x0,-0x128(%rbp)
   11573:	00 00 00 00 
   11577:	48 c7 85 e0 fe ff ff 	movq   $0x0,-0x120(%rbp)
   1157e:	00 00 00 00 
   11582:	48 c7 85 e8 fe ff ff 	movq   $0x0,-0x118(%rbp)
   11589:	00 00 00 00 
   1158d:	48 c7 85 f0 fe ff ff 	movq   $0x0,-0x110(%rbp)
   11594:	00 00 00 00 
   11598:	48 c7 85 f8 fe ff ff 	movq   $0x0,-0x108(%rbp)
   1159f:	00 00 00 00 
   115a3:	48 c7 85 00 ff ff ff 	movq   $0x0,-0x100(%rbp)
   115aa:	00 00 00 00 
   115ae:	48 c7 85 08 ff ff ff 	movq   $0x0,-0xf8(%rbp)
   115b5:	00 00 00 00 
   115b9:	48 8d 05 e8 eb 00 00 	lea    0xebe8(%rip),%rax        # 201a8 <g_1327>
   115c0:	48 89 85 d0 fd ff ff 	mov    %rax,-0x230(%rbp)
   115c7:	66 c7 85 7a fd ff ff 	movw   $0x7e97,-0x286(%rbp)
   115ce:	97 7e 
   115d0:	48 8d 05 e1 ec 00 00 	lea    0xece1(%rip),%rax        # 202b8 <g_1481>
   115d7:	48 89 85 d8 fd ff ff 	mov    %rax,-0x228(%rbp)
   115de:	48 c7 85 e0 fd ff ff 	movq   $0x0,-0x220(%rbp)
   115e5:	00 00 00 00 
   115e9:	48 8d 05 c0 09 01 00 	lea    0x109c0(%rip),%rax        # 21fb0 <g_2579>
   115f0:	48 89 85 e8 fd ff ff 	mov    %rax,-0x218(%rbp)
   115f7:	66 c7 85 7c fd ff ff 	movw   $0x7d55,-0x284(%rbp)
   115fe:	55 7d 
   11600:	48 8d 05 e5 bf 00 00 	lea    0xbfe5(%rip),%rax        # 1d5ec <g_1580>
   11607:	48 89 85 f0 fd ff ff 	mov    %rax,-0x210(%rbp)
   1160e:	48 b8 2d f9 a3 e2 e3 	movabs $0xa10da5e3e2a3f92d,%rax
   11615:	a5 0d a1 
   11618:	48 89 85 f8 fd ff ff 	mov    %rax,-0x208(%rbp)
   1161f:	c7 85 90 fe ff ff 03 	movl   $0xb9e7e803,-0x170(%rbp)
   11626:	e8 e7 b9 
   11629:	c7 85 94 fe ff ff f8 	movl   $0xfffffff8,-0x16c(%rbp)
   11630:	ff ff ff 
   11633:	c7 85 98 fe ff ff f8 	movl   $0xfffffff8,-0x168(%rbp)
   1163a:	ff ff ff 
   1163d:	c7 85 9c fe ff ff 3b 	movl   $0x7992603b,-0x164(%rbp)
   11644:	60 92 79 
   11647:	c7 85 a0 fe ff ff 65 	movl   $0x23d24b65,-0x160(%rbp)
   1164e:	4b d2 23 
   11651:	c7 85 a4 fe ff ff 3b 	movl   $0x7992603b,-0x15c(%rbp)
   11658:	60 92 79 
   1165b:	c7 85 a8 fe ff ff 03 	movl   $0xb9e7e803,-0x158(%rbp)
   11662:	e8 e7 b9 
   11665:	c7 85 ac fe ff ff f8 	movl   $0xfffffff8,-0x154(%rbp)
   1166c:	ff ff ff 
   1166f:	c7 85 b0 fe ff ff f8 	movl   $0xfffffff8,-0x150(%rbp)
   11676:	ff ff ff 
   11679:	c7 85 b4 fe ff ff 03 	movl   $0xb9e7e803,-0x14c(%rbp)
   11680:	e8 e7 b9 
   11683:	c7 85 b8 fe ff ff bf 	movl   $0x46e384bf,-0x148(%rbp)
   1168a:	84 e3 46 
   1168d:	c7 85 bc fe ff ff 03 	movl   $0xb9e7e803,-0x144(%rbp)
   11694:	e8 e7 b9 
   11697:	c7 85 c0 fe ff ff f8 	movl   $0xfffffff8,-0x140(%rbp)
   1169e:	ff ff ff 
   116a1:	c7 85 c4 fe ff ff f8 	movl   $0xfffffff8,-0x13c(%rbp)
   116a8:	ff ff ff 
   116ab:	48 c7 85 00 fe ff ff 	movq   $0x0,-0x200(%rbp)
   116b2:	00 00 00 00 
   116b6:	c6 85 74 fd ff ff 53 	movb   $0x53,-0x28c(%rbp)
   116bd:	c7 85 8c fd ff ff f7 	movl   $0xfffffff7,-0x274(%rbp)
   116c4:	ff ff ff 
   116c7:	48 c7 85 08 fe ff ff 	movq   $0xfffffffffffffffa,-0x1f8(%rbp)
   116ce:	fa ff ff ff 
   116d2:	c7 85 10 ff ff ff c2 	movl   $0xc2c2,-0xf0(%rbp)
   116d9:	c2 00 00 
   116dc:	c7 85 14 ff ff ff c2 	movl   $0xc22a01c2,-0xec(%rbp)
   116e3:	01 2a c2 
   116e6:	c7 85 18 ff ff ff f9 	movl   $0x2af900f9,-0xe8(%rbp)
   116ed:	00 f9 2a 
   116f0:	c7 85 1c ff ff ff 2a 	movl   $0xc200002a,-0xe4(%rbp)
   116f7:	00 00 c2 
   116fa:	c7 85 20 ff ff ff 00 	movl   $0x10100,-0xe0(%rbp)
   11701:	01 01 00 
   11704:	c7 85 24 ff ff ff f9 	movl   $0x2a01c2f9,-0xdc(%rbp)
   1170b:	c2 01 2a 
   1170e:	c7 85 28 ff ff ff 00 	movl   $0x2a002a00,-0xd8(%rbp)
   11715:	2a 00 2a 
   11718:	c7 85 2c ff ff ff 2a 	movl   $0x2af9012a,-0xd4(%rbp)
   1171f:	01 f9 2a 
   11722:	c7 85 30 ff ff ff f9 	movl   $0x2a2a2af9,-0xd0(%rbp)
   11729:	2a 2a 2a 
   1172c:	c7 85 34 ff ff ff c2 	movl   $0xc2c2,-0xcc(%rbp)
   11733:	c2 00 00 
   11736:	c7 85 38 ff ff ff c2 	movl   $0xc22a01c2,-0xc8(%rbp)
   1173d:	01 2a c2 
   11740:	c7 85 3c ff ff ff f9 	movl   $0x2af900f9,-0xc4(%rbp)
   11747:	00 f9 2a 
   1174a:	c7 85 40 ff ff ff 2a 	movl   $0xc200002a,-0xc0(%rbp)
   11751:	00 00 c2 
   11754:	c7 85 44 ff ff ff 00 	movl   $0x10100,-0xbc(%rbp)
   1175b:	01 01 00 
   1175e:	c7 85 48 ff ff ff f9 	movl   $0x2a01c2f9,-0xb8(%rbp)
   11765:	c2 01 2a 
   11768:	c7 85 4c ff ff ff 00 	movl   $0x2a002a00,-0xb4(%rbp)
   1176f:	2a 00 2a 
   11772:	c7 85 50 ff ff ff 2a 	movl   $0x2af9012a,-0xb0(%rbp)
   11779:	01 f9 2a 
   1177c:	c7 85 54 ff ff ff f9 	movl   $0x2a2a2af9,-0xac(%rbp)
   11783:	2a 2a 2a 
   11786:	c7 85 58 ff ff ff c2 	movl   $0xc2c2,-0xa8(%rbp)
   1178d:	c2 00 00 
   11790:	c7 85 5c ff ff ff c2 	movl   $0xc22a01c2,-0xa4(%rbp)
   11797:	01 2a c2 
   1179a:	c7 85 60 ff ff ff f9 	movl   $0x2af900f9,-0xa0(%rbp)
   117a1:	00 f9 2a 
   117a4:	c7 85 64 ff ff ff 2a 	movl   $0xc200002a,-0x9c(%rbp)
   117ab:	00 00 c2 
   117ae:	c7 85 68 ff ff ff 00 	movl   $0x10100,-0x98(%rbp)
   117b5:	01 01 00 
   117b8:	c7 85 6c ff ff ff f9 	movl   $0x2a01c2f9,-0x94(%rbp)
   117bf:	c2 01 2a 
   117c2:	c7 85 70 ff ff ff 00 	movl   $0x2a002a00,-0x90(%rbp)
   117c9:	2a 00 2a 
   117cc:	c7 85 74 ff ff ff 2a 	movl   $0x2af9012a,-0x8c(%rbp)
   117d3:	01 f9 2a 
   117d6:	c7 85 78 ff ff ff f9 	movl   $0x2a2a2af9,-0x88(%rbp)
   117dd:	2a 2a 2a 
   117e0:	c7 85 7c ff ff ff c2 	movl   $0xc2c2,-0x84(%rbp)
   117e7:	c2 00 00 
   117ea:	c7 45 80 c2 01 2a c2 	movl   $0xc22a01c2,-0x80(%rbp)
   117f1:	c7 45 84 f9 00 f9 2a 	movl   $0x2af900f9,-0x7c(%rbp)
   117f8:	c7 45 88 2a 00 00 c2 	movl   $0xc200002a,-0x78(%rbp)
   117ff:	c7 45 8c 00 01 01 00 	movl   $0x10100,-0x74(%rbp)
   11806:	c7 45 90 f9 c2 01 2a 	movl   $0x2a01c2f9,-0x70(%rbp)
   1180d:	c7 45 94 00 2a 00 2a 	movl   $0x2a002a00,-0x6c(%rbp)
   11814:	c7 45 98 2a 01 f9 2a 	movl   $0x2af9012a,-0x68(%rbp)
   1181b:	c7 45 9c f9 2a 2a 2a 	movl   $0x2a2a2af9,-0x64(%rbp)
   11822:	c7 45 a0 c2 c2 00 00 	movl   $0xc2c2,-0x60(%rbp)
   11829:	c7 45 a4 c2 01 2a c2 	movl   $0xc22a01c2,-0x5c(%rbp)
   11830:	c7 45 a8 f9 00 f9 2a 	movl   $0x2af900f9,-0x58(%rbp)
   11837:	c7 45 ac 2a 00 00 c2 	movl   $0xc200002a,-0x54(%rbp)
   1183e:	c7 45 b0 00 01 01 00 	movl   $0x10100,-0x50(%rbp)
   11845:	c7 45 b4 f9 c2 01 2a 	movl   $0x2a01c2f9,-0x4c(%rbp)
   1184c:	c7 45 b8 00 2a 00 2a 	movl   $0x2a002a00,-0x48(%rbp)
   11853:	c7 45 bc 2a 01 f9 2a 	movl   $0x2af9012a,-0x44(%rbp)
   1185a:	c7 45 c0 f9 2a 2a 2a 	movl   $0x2a2a2af9,-0x40(%rbp)
   11861:	c7 45 c4 f9 f9 c2 01 	movl   $0x1c2f9f9,-0x3c(%rbp)
   11868:	c7 45 c8 f9 00 73 f9 	movl   $0xf97300f9,-0x38(%rbp)
   1186f:	c7 45 cc fc 01 fc 73 	movl   $0x73fc01fc,-0x34(%rbp)
   11876:	c7 45 d0 2a 01 c2 f9 	movl   $0xf9c2012a,-0x30(%rbp)
   1187d:	c7 45 d4 01 00 00 01 	movl   $0x1000001,-0x2c(%rbp)
   11884:	c7 45 d8 fc f9 00 73 	movl   $0x7300f9fc,-0x28(%rbp)
   1188b:	c7 45 dc 01 2a c2 2a 	movl   $0x2ac22a01,-0x24(%rbp)
   11892:	c7 45 e0 2a 00 fc 2a 	movl   $0x2afc002a,-0x20(%rbp)
   11899:	c7 45 e4 fc 2a 73 73 	movl   $0x73732afc,-0x1c(%rbp)
   118a0:	c7 45 e8 f9 f9 c2 01 	movl   $0x1c2f9f9,-0x18(%rbp)
   118a7:	c7 45 ec f9 00 73 f9 	movl   $0xf97300f9,-0x14(%rbp)
   118ae:	c6 85 75 fd ff ff 00 	movb   $0x0,-0x28b(%rbp)
   118b5:	c6 85 76 fd ff ff c7 	movb   $0xc7,-0x28a(%rbp)
   118bc:	48 8d 05 1d f4 00 00 	lea    0xf41d(%rip),%rax        # 20ce0 <g_2243>
   118c3:	48 89 85 a8 fd ff ff 	mov    %rax,-0x258(%rbp)
   118ca:	48 8d 85 a8 fd ff ff 	lea    -0x258(%rbp),%rax
   118d1:	48 89 85 10 fe ff ff 	mov    %rax,-0x1f0(%rbp)
   118d8:	c7 85 90 fd ff ff ff 	movl   $0xffffffff,-0x270(%rbp)
   118df:	ff ff ff 
   118e2:	c6 85 77 fd ff ff f9 	movb   $0xf9,-0x289(%rbp)
   118e9:	66 c7 85 7e fd ff ff 	movw   $0x0,-0x282(%rbp)
   118f0:	00 00 
   118f2:	c7 85 94 fd ff ff 01 	movl   $0x1,-0x26c(%rbp)
   118f9:	00 00 00 
   118fc:	c6 85 78 fd ff ff f6 	movb   $0xf6,-0x288(%rbp)
   11903:	c6 85 79 fd ff ff 22 	movb   $0x22,-0x287(%rbp)
   1190a:	c7 85 80 fd ff ff 00 	movl   $0x0,-0x280(%rbp)
   11911:	00 00 00 
   11914:	eb 1e                	jmp    11934 <func_29+0x489>
   11916:	8b 85 80 fd ff ff    	mov    -0x280(%rbp),%eax
   1191c:	48 98                	cltq   
   1191e:	48 8d 15 b3 bc 00 00 	lea    0xbcb3(%rip),%rdx        # 1d5d8 <g_1515>
   11925:	48 89 94 c5 60 fe ff 	mov    %rdx,-0x1a0(%rbp,%rax,8)
   1192c:	ff 
   1192d:	83 85 80 fd ff ff 01 	addl   $0x1,-0x280(%rbp)
   11934:	83 bd 80 fd ff ff 05 	cmpl   $0x5,-0x280(%rbp)
   1193b:	7e d9                	jle    11916 <func_29+0x46b>
   1193d:	c7 85 80 fd ff ff 00 	movl   $0x0,-0x280(%rbp)
   11944:	00 00 00 
   11947:	eb 1e                	jmp    11967 <func_29+0x4bc>
   11949:	8b 85 80 fd ff ff    	mov    -0x280(%rbp),%eax
   1194f:	48 98                	cltq   
   11951:	48 8d 15 80 e7 00 00 	lea    0xe780(%rip),%rdx        # 200d8 <g_732>
   11958:	48 89 94 c5 18 fe ff 	mov    %rdx,-0x1e8(%rbp,%rax,8)
   1195f:	ff 
   11960:	83 85 80 fd ff ff 01 	addl   $0x1,-0x280(%rbp)
   11967:	83 bd 80 fd ff ff 00 	cmpl   $0x0,-0x280(%rbp)
   1196e:	7e d9                	jle    11949 <func_29+0x49e>
   11970:	c7 85 80 fd ff ff 00 	movl   $0x0,-0x280(%rbp)
   11977:	00 00 00 
   1197a:	eb 4c                	jmp    119c8 <func_29+0x51d>
   1197c:	c7 85 84 fd ff ff 00 	movl   $0x0,-0x27c(%rbp)
   11983:	00 00 00 
   11986:	eb 30                	jmp    119b8 <func_29+0x50d>
   11988:	8b 85 84 fd ff ff    	mov    -0x27c(%rbp),%eax
   1198e:	48 98                	cltq   
   11990:	8b 95 80 fd ff ff    	mov    -0x280(%rbp),%edx
   11996:	48 63 d2             	movslq %edx,%rdx
   11999:	48 01 d2             	add    %rdx,%rdx
   1199c:	48 01 d0             	add    %rdx,%rax
   1199f:	48 b9 65 e1 47 0f 54 	movabs $0x9b02c6540f47e165,%rcx
   119a6:	c6 02 9b 
   119a9:	48 89 8c c5 40 fe ff 	mov    %rcx,-0x1c0(%rbp,%rax,8)
   119b0:	ff 
   119b1:	83 85 84 fd ff ff 01 	addl   $0x1,-0x27c(%rbp)
   119b8:	83 bd 84 fd ff ff 01 	cmpl   $0x1,-0x27c(%rbp)
   119bf:	7e c7                	jle    11988 <func_29+0x4dd>
   119c1:	83 85 80 fd ff ff 01 	addl   $0x1,-0x280(%rbp)
   119c8:	83 bd 80 fd ff ff 01 	cmpl   $0x1,-0x280(%rbp)
   119cf:	7e ab                	jle    1197c <func_29+0x4d1>
   119d1:	c7 85 80 fd ff ff 00 	movl   $0x0,-0x280(%rbp)
   119d8:	00 00 00 
   119db:	eb 1a                	jmp    119f7 <func_29+0x54c>
   119dd:	8b 85 80 fd ff ff    	mov    -0x280(%rbp),%eax
   119e3:	48 98                	cltq   
   119e5:	c7 84 85 28 fe ff ff 	movl   $0xfffffff9,-0x1d8(%rbp,%rax,4)
   119ec:	f9 ff ff ff 
   119f0:	83 85 80 fd ff ff 01 	addl   $0x1,-0x280(%rbp)
   119f7:	83 bd 80 fd ff ff 01 	cmpl   $0x1,-0x280(%rbp)
   119fe:	7e dd                	jle    119dd <func_29+0x532>
   11a00:	c7 85 80 fd ff ff 00 	movl   $0x0,-0x280(%rbp)
   11a07:	00 00 00 
   11a0a:	eb 14                	jmp    11a20 <func_29+0x575>
   11a0c:	8b 85 80 fd ff ff    	mov    -0x280(%rbp),%eax
   11a12:	48 98                	cltq   
   11a14:	c6 44 05 f7 00       	movb   $0x0,-0x9(%rbp,%rax,1)
   11a19:	83 85 80 fd ff ff 01 	addl   $0x1,-0x280(%rbp)
   11a20:	83 bd 80 fd ff ff 00 	cmpl   $0x0,-0x280(%rbp)
   11a27:	7e e3                	jle    11a0c <func_29+0x561>
   11a29:	c7 85 80 fd ff ff 00 	movl   $0x0,-0x280(%rbp)
   11a30:	00 00 00 
   11a33:	eb 21                	jmp    11a56 <func_29+0x5ab>
   11a35:	8b 85 80 fd ff ff    	mov    -0x280(%rbp),%eax
   11a3b:	48 98                	cltq   
   11a3d:	48 be 83 a9 f0 91 8e 	movabs $0x3e20718e91f0a983,%rsi
   11a44:	71 20 3e 
   11a47:	48 89 b4 c5 20 fe ff 	mov    %rsi,-0x1e0(%rbp,%rax,8)
   11a4e:	ff 
   11a4f:	83 85 80 fd ff ff 01 	addl   $0x1,-0x280(%rbp)
   11a56:	83 bd 80 fd ff ff 00 	cmpl   $0x0,-0x280(%rbp)
   11a5d:	7e d6                	jle    11a35 <func_29+0x58a>
   11a5f:	0f b6 85 72 fd ff ff 	movzbl -0x28e(%rbp),%eax
   11a66:	83 e8 01             	sub    $0x1,%eax
   11a69:	88 85 72 fd ff ff    	mov    %al,-0x28e(%rbp)
   11a6f:	48 8b 05 32 e5 00 00 	mov    0xe532(%rip),%rax        # 1ffa8 <g_608>
   11a76:	48 8b 00             	mov    (%rax),%rax
   11a79:	0f b6 00             	movzbl (%rax),%eax
   11a7c:	48 8b 7d f8          	mov    -0x8(%rbp),%rdi
   11a80:	64 48 33 3c 25 28 00 	xor    %fs:0x28,%rdi
   11a87:	00 00 
   11a89:	74 05                	je     11a90 <func_29+0x5e5>
   11a8b:	e8 e0 85 ff ff       	callq  a070 <__stack_chk_fail@plt>
   11a90:	c9                   	leaveq 
   11a91:	c3                   	retq   

0000000000011a92 <func_31>:
   11a92:	f3 0f 1e fa          	endbr64 
   11a96:	55                   	push   %rbp
   11a97:	48 89 e5             	mov    %rsp,%rbp
   11a9a:	48 81 ec a0 06 00 00 	sub    $0x6a0,%rsp
   11aa1:	48 89 bd 68 f9 ff ff 	mov    %rdi,-0x698(%rbp)
   11aa8:	48 89 b5 60 f9 ff ff 	mov    %rsi,-0x6a0(%rbp)
   11aaf:	64 48 8b 04 25 28 00 	mov    %fs:0x28,%rax
   11ab6:	00 00 
   11ab8:	48 89 45 f8          	mov    %rax,-0x8(%rbp)
   11abc:	31 c0                	xor    %eax,%eax
   11abe:	48 8d 05 1b b7 00 00 	lea    0xb71b(%rip),%rax        # 1d1e0 <g_1162>
   11ac5:	48 89 85 e0 f9 ff ff 	mov    %rax,-0x620(%rbp)
   11acc:	48 8d 05 0d b7 00 00 	lea    0xb70d(%rip),%rax        # 1d1e0 <g_1162>
   11ad3:	48 89 85 e8 f9 ff ff 	mov    %rax,-0x618(%rbp)
   11ada:	48 8d 05 ff b6 00 00 	lea    0xb6ff(%rip),%rax        # 1d1e0 <g_1162>
   11ae1:	48 89 85 f0 f9 ff ff 	mov    %rax,-0x610(%rbp)
   11ae8:	48 8d 05 f1 b6 00 00 	lea    0xb6f1(%rip),%rax        # 1d1e0 <g_1162>
   11aef:	48 89 85 f8 f9 ff ff 	mov    %rax,-0x608(%rbp)
   11af6:	48 8d 05 9f b5 00 00 	lea    0xb59f(%rip),%rax        # 1d09c <g_128>
   11afd:	48 89 85 88 f9 ff ff 	mov    %rax,-0x678(%rbp)
   11b04:	48 8d 85 88 f9 ff ff 	lea    -0x678(%rbp),%rax
   11b0b:	48 89 85 00 fa ff ff 	mov    %rax,-0x600(%rbp)
   11b12:	48 c7 85 08 fa ff ff 	movq   $0x0,-0x5f8(%rbp)
   11b19:	00 00 00 00 
   11b1d:	48 c7 85 10 fa ff ff 	movq   $0x0,-0x5f0(%rbp)
   11b24:	00 00 00 00 
   11b28:	48 8d 85 88 f9 ff ff 	lea    -0x678(%rbp),%rax
   11b2f:	48 89 85 18 fa ff ff 	mov    %rax,-0x5e8(%rbp)
   11b36:	48 8d 85 88 f9 ff ff 	lea    -0x678(%rbp),%rax
   11b3d:	48 89 85 20 fa ff ff 	mov    %rax,-0x5e0(%rbp)
   11b44:	48 8d 85 88 f9 ff ff 	lea    -0x678(%rbp),%rax
   11b4b:	48 89 85 28 fa ff ff 	mov    %rax,-0x5d8(%rbp)
   11b52:	48 c7 85 30 fa ff ff 	movq   $0x0,-0x5d0(%rbp)
   11b59:	00 00 00 00 
   11b5d:	48 c7 85 38 fa ff ff 	movq   $0x0,-0x5c8(%rbp)
   11b64:	00 00 00 00 
   11b68:	48 8d 85 88 f9 ff ff 	lea    -0x678(%rbp),%rax
   11b6f:	48 89 85 40 fa ff ff 	mov    %rax,-0x5c0(%rbp)
   11b76:	48 8d 85 88 f9 ff ff 	lea    -0x678(%rbp),%rax
   11b7d:	48 89 85 48 fa ff ff 	mov    %rax,-0x5b8(%rbp)
   11b84:	48 8d 05 d1 ba 00 00 	lea    0xbad1(%rip),%rax        # 1d65c <g_2177>
   11b8b:	48 89 85 98 f9 ff ff 	mov    %rax,-0x668(%rbp)
   11b92:	48 8d 05 f3 b4 00 00 	lea    0xb4f3(%rip),%rax        # 1d08c <g_85>
   11b99:	48 89 85 a0 f9 ff ff 	mov    %rax,-0x660(%rbp)
   11ba0:	48 8d 05 bd ba 00 00 	lea    0xbabd(%rip),%rax        # 1d664 <g_2297>
   11ba7:	48 89 85 a8 f9 ff ff 	mov    %rax,-0x658(%rbp)
   11bae:	48 8d 05 a7 ba 00 00 	lea    0xbaa7(%rip),%rax        # 1d65c <g_2177>
   11bb5:	48 89 85 b0 f9 ff ff 	mov    %rax,-0x650(%rbp)
   11bbc:	48 8d 85 50 fa ff ff 	lea    -0x5b0(%rbp),%rax
   11bc3:	48 8d 15 f6 70 00 00 	lea    0x70f6(%rip),%rdx        # 18cc0 <g_4129+0x840>
   11bca:	b9 23 00 00 00       	mov    $0x23,%ecx
   11bcf:	48 89 c7             	mov    %rax,%rdi
   11bd2:	48 89 d6             	mov    %rdx,%rsi
   11bd5:	f3 48 a5             	rep movsq %ds:(%rsi),%es:(%rdi)
   11bd8:	48 8d 05 7d ba 00 00 	lea    0xba7d(%rip),%rax        # 1d65c <g_2177>
   11bdf:	48 89 85 b8 f9 ff ff 	mov    %rax,-0x648(%rbp)
   11be6:	c6 85 75 f9 ff ff f9 	movb   $0xf9,-0x68b(%rbp)
   11bed:	48 8d 85 70 fb ff ff 	lea    -0x490(%rbp),%rax
   11bf4:	48 05 70 02 00 00    	add    $0x270,%rax
   11bfa:	48 89 85 c0 f9 ff ff 	mov    %rax,-0x640(%rbp)
   11c01:	66 c7 85 76 f9 ff ff 	movw   $0xa5ea,-0x68a(%rbp)
   11c08:	ea a5 
   11c0a:	c7 85 78 f9 ff ff 00 	movl   $0x0,-0x688(%rbp)
   11c11:	00 00 00 
   11c14:	e9 80 00 00 00       	jmpq   11c99 <func_31+0x207>
   11c19:	c7 85 7c f9 ff ff 00 	movl   $0x0,-0x684(%rbp)
   11c20:	00 00 00 
   11c23:	eb 64                	jmp    11c89 <func_31+0x1f7>
   11c25:	c7 85 80 f9 ff ff 00 	movl   $0x0,-0x680(%rbp)
   11c2c:	00 00 00 
   11c2f:	eb 48                	jmp    11c79 <func_31+0x1e7>
   11c31:	8b 85 80 f9 ff ff    	mov    -0x680(%rbp),%eax
   11c37:	48 63 c8             	movslq %eax,%rcx
   11c3a:	8b 85 78 f9 ff ff    	mov    -0x688(%rbp),%eax
   11c40:	48 63 d0             	movslq %eax,%rdx
   11c43:	8b 85 7c f9 ff ff    	mov    -0x684(%rbp),%eax
   11c49:	48 63 f0             	movslq %eax,%rsi
   11c4c:	48 89 d0             	mov    %rdx,%rax
   11c4f:	48 c1 e0 03          	shl    $0x3,%rax
   11c53:	48 01 d0             	add    %rdx,%rax
   11c56:	48 01 f0             	add    %rsi,%rax
   11c59:	48 01 c0             	add    %rax,%rax
   11c5c:	48 01 c8             	add    %rcx,%rax
   11c5f:	48 8d 95 50 fa ff ff 	lea    -0x5b0(%rbp),%rdx
   11c66:	48 83 c2 18          	add    $0x18,%rdx
   11c6a:	48 89 94 c5 70 fb ff 	mov    %rdx,-0x490(%rbp,%rax,8)
   11c71:	ff 
   11c72:	83 85 80 f9 ff ff 01 	addl   $0x1,-0x680(%rbp)
   11c79:	83 bd 80 f9 ff ff 01 	cmpl   $0x1,-0x680(%rbp)
   11c80:	7e af                	jle    11c31 <func_31+0x19f>
   11c82:	83 85 7c f9 ff ff 01 	addl   $0x1,-0x684(%rbp)
   11c89:	83 bd 7c f9 ff ff 08 	cmpl   $0x8,-0x684(%rbp)
   11c90:	7e 93                	jle    11c25 <func_31+0x193>
   11c92:	83 85 78 f9 ff ff 01 	addl   $0x1,-0x688(%rbp)
   11c99:	83 bd 78 f9 ff ff 07 	cmpl   $0x7,-0x688(%rbp)
   11ca0:	0f 8e 73 ff ff ff    	jle    11c19 <func_31+0x187>
   11ca6:	c7 05 68 b4 00 00 15 	movl   $0x15,0xb468(%rip)        # 1d118 <g_277>
   11cad:	00 00 00 
   11cb0:	eb 65                	jmp    11d17 <func_31+0x285>
   11cb2:	48 c7 85 90 f9 ff ff 	movq   $0x0,-0x670(%rbp)
   11cb9:	00 00 00 00 
   11cbd:	48 8d 05 14 b9 00 00 	lea    0xb914(%rip),%rax        # 1d5d8 <g_1515>
   11cc4:	48 89 85 c8 f9 ff ff 	mov    %rax,-0x638(%rbp)
   11ccb:	48 8d 05 a6 b9 00 00 	lea    0xb9a6(%rip),%rax        # 1d678 <g_2343>
   11cd2:	48 89 85 d0 f9 ff ff 	mov    %rax,-0x630(%rbp)
   11cd9:	c7 85 84 f9 ff ff 00 	movl   $0x0,-0x67c(%rbp)
   11ce0:	00 00 00 
   11ce3:	eb 1a                	jmp    11cff <func_31+0x26d>
   11ce5:	8b 85 84 f9 ff ff    	mov    -0x67c(%rbp),%eax
   11ceb:	48 98                	cltq   
   11ced:	c7 84 85 dc f9 ff ff 	movl   $0xfffffffd,-0x624(%rbp,%rax,4)
   11cf4:	fd ff ff ff 
   11cf8:	83 85 84 f9 ff ff 01 	addl   $0x1,-0x67c(%rbp)
   11cff:	83 bd 84 f9 ff ff 00 	cmpl   $0x0,-0x67c(%rbp)
   11d06:	7e dd                	jle    11ce5 <func_31+0x253>
   11d08:	8b 05 0a b4 00 00    	mov    0xb40a(%rip),%eax        # 1d118 <g_277>
   11d0e:	83 e8 01             	sub    $0x1,%eax
   11d11:	89 05 01 b4 00 00    	mov    %eax,0xb401(%rip)        # 1d118 <g_277>
   11d17:	8b 05 fb b3 00 00    	mov    0xb3fb(%rip),%eax        # 1d118 <g_277>
   11d1d:	83 f8 06             	cmp    $0x6,%eax
   11d20:	74 90                	je     11cb2 <func_31+0x220>
   11d22:	80 85 75 f9 ff ff 01 	addb   $0x1,-0x68b(%rbp)
   11d29:	48 8b 85 c0 f9 ff ff 	mov    -0x640(%rbp),%rax
   11d30:	48 8d 95 50 fa ff ff 	lea    -0x5b0(%rbp),%rdx
   11d37:	48 83 c2 18          	add    $0x18,%rdx
   11d3b:	48 89 10             	mov    %rdx,(%rax)
   11d3e:	0f b7 85 76 f9 ff ff 	movzwl -0x68a(%rbp),%eax
   11d45:	83 c0 01             	add    $0x1,%eax
   11d48:	66 89 85 76 f9 ff ff 	mov    %ax,-0x68a(%rbp)
   11d4f:	48 8b 85 68 f9 ff ff 	mov    -0x698(%rbp),%rax
   11d56:	48 8b 7d f8          	mov    -0x8(%rbp),%rdi
   11d5a:	64 48 33 3c 25 28 00 	xor    %fs:0x28,%rdi
   11d61:	00 00 
   11d63:	74 05                	je     11d6a <func_31+0x2d8>
   11d65:	e8 06 83 ff ff       	callq  a070 <__stack_chk_fail@plt>
   11d6a:	c9                   	leaveq 
   11d6b:	c3                   	retq   

0000000000011d6c <func_34>:
   11d6c:	f3 0f 1e fa          	endbr64 
   11d70:	55                   	push   %rbp
   11d71:	48 89 e5             	mov    %rsp,%rbp
   11d74:	89 f9                	mov    %edi,%ecx
   11d76:	48 89 75 e0          	mov    %rsi,-0x20(%rbp)
   11d7a:	89 d0                	mov    %edx,%eax
   11d7c:	89 ca                	mov    %ecx,%edx
   11d7e:	88 55 ec             	mov    %dl,-0x14(%rbp)
   11d81:	88 45 e8             	mov    %al,-0x18(%rbp)
   11d84:	48 8d 05 65 b8 00 00 	lea    0xb865(%rip),%rax        # 1d5f0 <g_1593>
   11d8b:	48 89 45 f8          	mov    %rax,-0x8(%rbp)
   11d8f:	48 8b 45 f8          	mov    -0x8(%rbp),%rax
   11d93:	5d                   	pop    %rbp
   11d94:	c3                   	retq   

0000000000011d95 <func_40>:
   11d95:	f3 0f 1e fa          	endbr64 
   11d99:	55                   	push   %rbp
   11d9a:	48 89 e5             	mov    %rsp,%rbp
   11d9d:	41 57                	push   %r15
   11d9f:	41 56                	push   %r14
   11da1:	41 55                	push   %r13
   11da3:	41 54                	push   %r12
   11da5:	53                   	push   %rbx
   11da6:	48 81 ec 98 0a 00 00 	sub    $0xa98,%rsp
   11dad:	48 89 bd 68 f5 ff ff 	mov    %rdi,-0xa98(%rbp)
   11db4:	89 f0                	mov    %esi,%eax
   11db6:	48 89 95 58 f5 ff ff 	mov    %rdx,-0xaa8(%rbp)
   11dbd:	48 89 8d 50 f5 ff ff 	mov    %rcx,-0xab0(%rbp)
   11dc4:	66 89 85 64 f5 ff ff 	mov    %ax,-0xa9c(%rbp)
   11dcb:	64 48 8b 04 25 28 00 	mov    %fs:0x28,%rax
   11dd2:	00 00 
   11dd4:	48 89 45 c8          	mov    %rax,-0x38(%rbp)
   11dd8:	31 c0                	xor    %eax,%eax
   11dda:	48 c7 85 d0 f7 ff ff 	movq   $0x4,-0x830(%rbp)
   11de1:	04 00 00 00 
   11de5:	48 b8 29 5a 96 d7 e0 	movabs $0xa706dde0d7965a29,%rax
   11dec:	dd 06 a7 
   11def:	48 89 85 d8 f7 ff ff 	mov    %rax,-0x828(%rbp)
   11df6:	48 c7 85 e0 f7 ff ff 	movq   $0x4,-0x820(%rbp)
   11dfd:	04 00 00 00 
   11e01:	48 c7 85 e8 f7 ff ff 	movq   $0x4,-0x818(%rbp)
   11e08:	04 00 00 00 
   11e0c:	48 89 85 f0 f7 ff ff 	mov    %rax,-0x810(%rbp)
   11e13:	48 c7 85 f8 f7 ff ff 	movq   $0x4,-0x808(%rbp)
   11e1a:	04 00 00 00 
   11e1e:	48 c7 85 00 f8 ff ff 	movq   $0x4,-0x800(%rbp)
   11e25:	04 00 00 00 
   11e29:	48 89 85 08 f8 ff ff 	mov    %rax,-0x7f8(%rbp)
   11e30:	c7 85 b4 f5 ff ff c3 	movl   $0x29df50c3,-0xa4c(%rbp)
   11e37:	50 df 29 
   11e3a:	48 8d 05 2f e0 00 00 	lea    0xe02f(%rip),%rax        # 1fe70 <g_166>
   11e41:	48 89 85 e8 f5 ff ff 	mov    %rax,-0xa18(%rbp)
   11e48:	48 8d 85 e8 f5 ff ff 	lea    -0xa18(%rbp),%rax
   11e4f:	48 89 85 10 f6 ff ff 	mov    %rax,-0x9f0(%rbp)
   11e56:	c7 85 88 f5 ff ff 03 	movl   $0x3,-0xa78(%rbp)
   11e5d:	00 00 00 
   11e60:	c7 85 50 f7 ff ff 84 	movl   $0x2acf0a84,-0x8b0(%rbp)
   11e67:	0a cf 2a 
   11e6a:	c7 85 54 f7 ff ff 27 	movl   $0xdebd4327,-0x8ac(%rbp)
   11e71:	43 bd de 
   11e74:	c7 85 58 f7 ff ff 27 	movl   $0xdebd4327,-0x8a8(%rbp)
   11e7b:	43 bd de 
   11e7e:	c7 85 5c f7 ff ff 84 	movl   $0x2acf0a84,-0x8a4(%rbp)
   11e85:	0a cf 2a 
   11e88:	c7 85 60 f7 ff ff 27 	movl   $0xdebd4327,-0x8a0(%rbp)
   11e8f:	43 bd de 
   11e92:	c7 85 64 f7 ff ff 27 	movl   $0xdebd4327,-0x89c(%rbp)
   11e99:	43 bd de 
   11e9c:	c7 85 68 f7 ff ff 84 	movl   $0x2acf0a84,-0x898(%rbp)
   11ea3:	0a cf 2a 
   11ea6:	c7 85 6c f7 ff ff 27 	movl   $0xdebd4327,-0x894(%rbp)
   11ead:	43 bd de 
   11eb0:	48 8d 05 29 b3 00 00 	lea    0xb329(%rip),%rax        # 1d1e0 <g_1162>
   11eb7:	48 89 85 10 f8 ff ff 	mov    %rax,-0x7f0(%rbp)
   11ebe:	48 c7 85 18 f8 ff ff 	movq   $0x0,-0x7e8(%rbp)
   11ec5:	00 00 00 00 
   11ec9:	48 c7 85 20 f8 ff ff 	movq   $0x0,-0x7e0(%rbp)
   11ed0:	00 00 00 00 
   11ed4:	48 8d 05 05 b3 00 00 	lea    0xb305(%rip),%rax        # 1d1e0 <g_1162>
   11edb:	48 89 85 28 f8 ff ff 	mov    %rax,-0x7d8(%rbp)
   11ee2:	48 8d 05 3b b1 00 00 	lea    0xb13b(%rip),%rax        # 1d024 <g_5>
   11ee9:	48 89 85 30 f8 ff ff 	mov    %rax,-0x7d0(%rbp)
   11ef0:	48 8d 05 e9 b2 00 00 	lea    0xb2e9(%rip),%rax        # 1d1e0 <g_1162>
   11ef7:	48 89 85 38 f8 ff ff 	mov    %rax,-0x7c8(%rbp)
   11efe:	48 c7 85 40 f8 ff ff 	movq   $0x0,-0x7c0(%rbp)
   11f05:	00 00 00 00 
   11f09:	48 c7 85 48 f8 ff ff 	movq   $0x0,-0x7b8(%rbp)
   11f10:	00 00 00 00 
   11f14:	48 8d 05 c5 b2 00 00 	lea    0xb2c5(%rip),%rax        # 1d1e0 <g_1162>
   11f1b:	48 89 85 50 f8 ff ff 	mov    %rax,-0x7b0(%rbp)
   11f22:	48 8d 05 fb b0 00 00 	lea    0xb0fb(%rip),%rax        # 1d024 <g_5>
   11f29:	48 89 85 58 f8 ff ff 	mov    %rax,-0x7a8(%rbp)
   11f30:	48 8d 05 a9 b2 00 00 	lea    0xb2a9(%rip),%rax        # 1d1e0 <g_1162>
   11f37:	48 89 85 60 f8 ff ff 	mov    %rax,-0x7a0(%rbp)
   11f3e:	48 c7 85 68 f8 ff ff 	movq   $0x0,-0x798(%rbp)
   11f45:	00 00 00 00 
   11f49:	48 c7 85 70 f8 ff ff 	movq   $0x0,-0x790(%rbp)
   11f50:	00 00 00 00 
   11f54:	48 8d 05 85 b2 00 00 	lea    0xb285(%rip),%rax        # 1d1e0 <g_1162>
   11f5b:	48 89 85 78 f8 ff ff 	mov    %rax,-0x788(%rbp)
   11f62:	48 8d 05 bb b0 00 00 	lea    0xb0bb(%rip),%rax        # 1d024 <g_5>
   11f69:	48 89 85 80 f8 ff ff 	mov    %rax,-0x780(%rbp)
   11f70:	48 8d 05 69 b2 00 00 	lea    0xb269(%rip),%rax        # 1d1e0 <g_1162>
   11f77:	48 89 85 88 f8 ff ff 	mov    %rax,-0x778(%rbp)
   11f7e:	48 c7 85 90 f8 ff ff 	movq   $0x0,-0x770(%rbp)
   11f85:	00 00 00 00 
   11f89:	48 c7 85 98 f8 ff ff 	movq   $0x0,-0x768(%rbp)
   11f90:	00 00 00 00 
   11f94:	48 8d 05 45 b2 00 00 	lea    0xb245(%rip),%rax        # 1d1e0 <g_1162>
   11f9b:	48 89 85 a0 f8 ff ff 	mov    %rax,-0x760(%rbp)
   11fa2:	48 8d 05 b3 b5 00 00 	lea    0xb5b3(%rip),%rax        # 1d55c <g_1374+0xfc>
   11fa9:	48 89 85 a8 f8 ff ff 	mov    %rax,-0x758(%rbp)
   11fb0:	48 8d 05 91 b6 00 00 	lea    0xb691(%rip),%rax        # 1d648 <g_1923>
   11fb7:	48 89 85 b0 f8 ff ff 	mov    %rax,-0x750(%rbp)
   11fbe:	48 8d 05 1b b2 00 00 	lea    0xb21b(%rip),%rax        # 1d1e0 <g_1162>
   11fc5:	48 89 85 b8 f8 ff ff 	mov    %rax,-0x748(%rbp)
   11fcc:	48 8d 05 0d b2 00 00 	lea    0xb20d(%rip),%rax        # 1d1e0 <g_1162>
   11fd3:	48 89 85 c0 f8 ff ff 	mov    %rax,-0x740(%rbp)
   11fda:	48 8d 05 67 b6 00 00 	lea    0xb667(%rip),%rax        # 1d648 <g_1923>
   11fe1:	48 89 85 c8 f8 ff ff 	mov    %rax,-0x738(%rbp)
   11fe8:	48 8d 05 6d b5 00 00 	lea    0xb56d(%rip),%rax        # 1d55c <g_1374+0xfc>
   11fef:	48 89 85 d0 f8 ff ff 	mov    %rax,-0x730(%rbp)
   11ff6:	48 8d 05 4b b6 00 00 	lea    0xb64b(%rip),%rax        # 1d648 <g_1923>
   11ffd:	48 89 85 d8 f8 ff ff 	mov    %rax,-0x728(%rbp)
   12004:	48 8d 05 d5 b1 00 00 	lea    0xb1d5(%rip),%rax        # 1d1e0 <g_1162>
   1200b:	48 89 85 e0 f8 ff ff 	mov    %rax,-0x720(%rbp)
   12012:	48 8d 05 c7 b1 00 00 	lea    0xb1c7(%rip),%rax        # 1d1e0 <g_1162>
   12019:	48 89 85 e8 f8 ff ff 	mov    %rax,-0x718(%rbp)
   12020:	48 8d 05 21 b6 00 00 	lea    0xb621(%rip),%rax        # 1d648 <g_1923>
   12027:	48 89 85 f0 f8 ff ff 	mov    %rax,-0x710(%rbp)
   1202e:	48 8d 05 27 b5 00 00 	lea    0xb527(%rip),%rax        # 1d55c <g_1374+0xfc>
   12035:	48 89 85 f8 f8 ff ff 	mov    %rax,-0x708(%rbp)
   1203c:	48 8d 05 6d b1 00 00 	lea    0xb16d(%rip),%rax        # 1d1b0 <g_1026>
   12043:	48 89 85 18 f6 ff ff 	mov    %rax,-0x9e8(%rbp)
   1204a:	48 8d 05 7f b5 00 00 	lea    0xb57f(%rip),%rax        # 1d5d0 <g_1513>
   12051:	48 89 85 20 f6 ff ff 	mov    %rax,-0x9e0(%rbp)
   12058:	c7 85 b8 f5 ff ff 01 	movl   $0x1,-0xa48(%rbp)
   1205f:	00 00 00 
   12062:	48 c7 85 28 f6 ff ff 	movq   $0x0,-0x9d8(%rbp)
   12069:	00 00 00 00 
   1206d:	c7 85 ac f5 ff ff 00 	movl   $0x0,-0xa54(%rbp)
   12074:	00 00 00 
   12077:	eb 21                	jmp    1209a <func_40+0x305>
   12079:	8b 85 ac f5 ff ff    	mov    -0xa54(%rbp),%eax
   1207f:	48 98                	cltq   
   12081:	48 bb 43 ff 0f 45 9a 	movabs $0x361d9d9a450fff43,%rbx
   12088:	9d 1d 36 
   1208b:	48 89 9c c5 20 f7 ff 	mov    %rbx,-0x8e0(%rbp,%rax,8)
   12092:	ff 
   12093:	83 85 ac f5 ff ff 01 	addl   $0x1,-0xa54(%rbp)
   1209a:	83 bd ac f5 ff ff 00 	cmpl   $0x0,-0xa54(%rbp)
   120a1:	7e d6                	jle    12079 <func_40+0x2e4>
   120a3:	66 c7 05 a8 b0 00 00 	movw   $0x0,0xb0a8(%rip)        # 1d154 <g_440>
   120aa:	00 00 
   120ac:	e9 ca 14 00 00       	jmpq   1357b <func_40+0x17e6>
   120b1:	48 8d 05 20 b5 00 00 	lea    0xb520(%rip),%rax        # 1d5d8 <g_1515>
   120b8:	48 89 85 30 f6 ff ff 	mov    %rax,-0x9d0(%rbp)
   120bf:	48 8d 05 3a b5 00 00 	lea    0xb53a(%rip),%rax        # 1d600 <g_1626>
   120c6:	48 89 85 38 f6 ff ff 	mov    %rax,-0x9c8(%rbp)
   120cd:	48 8d 85 20 fa ff ff 	lea    -0x5e0(%rbp),%rax
   120d4:	48 8d 15 05 d2 00 00 	lea    0xd205(%rip),%rdx        # 1f2e0 <g_4132+0x1650>
   120db:	b9 5a 00 00 00       	mov    $0x5a,%ecx
   120e0:	48 89 c7             	mov    %rax,%rdi
   120e3:	48 89 d6             	mov    %rdx,%rsi
   120e6:	f3 48 a5             	rep movsq %ds:(%rsi),%es:(%rdi)
   120e9:	66 c7 85 82 f5 ff ff 	movw   $0x243a,-0xa7e(%rbp)
   120f0:	3a 24 
   120f2:	c7 85 bc f5 ff ff 79 	movl   $0x9d6d6379,-0xa44(%rbp)
   120f9:	63 6d 9d 
   120fc:	c7 85 8c f5 ff ff 9b 	movl   $0xb432019b,-0xa74(%rbp)
   12103:	01 32 b4 
   12106:	48 8d 85 00 f9 ff ff 	lea    -0x700(%rbp),%rax
   1210d:	48 8d 15 ac d4 00 00 	lea    0xd4ac(%rip),%rdx        # 1f5c0 <g_4132+0x1930>
   12114:	b9 24 00 00 00       	mov    $0x24,%ecx
   12119:	48 89 c7             	mov    %rax,%rdi
   1211c:	48 89 d6             	mov    %rdx,%rsi
   1211f:	f3 48 a5             	rep movsq %ds:(%rsi),%es:(%rdi)
   12122:	66 c7 85 84 f5 ff ff 	movw   $0x7b8a,-0xa7c(%rbp)
   12129:	8a 7b 
   1212b:	c7 85 90 f5 ff ff ca 	movl   $0xb79524ca,-0xa70(%rbp)
   12132:	24 95 b7 
   12135:	c7 85 94 f5 ff ff f8 	movl   $0xfffffff8,-0xa6c(%rbp)
   1213c:	ff ff ff 
   1213f:	c7 85 98 f5 ff ff 7e 	movl   $0xc480797e,-0xa68(%rbp)
   12146:	79 80 c4 
   12149:	48 8d 05 10 dd 00 00 	lea    0xdd10(%rip),%rax        # 1fe60 <g_66>
   12150:	48 89 85 f0 f5 ff ff 	mov    %rax,-0xa10(%rbp)
   12157:	66 c7 85 86 f5 ff ff 	movw   $0x5,-0xa7a(%rbp)
   1215e:	05 00 
   12160:	c7 85 9c f5 ff ff 6e 	movl   $0xbb86c56e,-0xa64(%rbp)
   12167:	c5 86 bb 
   1216a:	48 8d 05 57 e1 00 00 	lea    0xe157(%rip),%rax        # 202c8 <g_1623>
   12171:	48 89 85 40 f6 ff ff 	mov    %rax,-0x9c0(%rbp)
   12178:	48 8d 05 59 dd 00 00 	lea    0xdd59(%rip),%rax        # 1fed8 <g_533>
   1217f:	48 89 85 f8 f5 ff ff 	mov    %rax,-0xa08(%rbp)
   12186:	48 8d 85 f8 f5 ff ff 	lea    -0xa08(%rbp),%rax
   1218d:	48 89 85 48 f6 ff ff 	mov    %rax,-0x9b8(%rbp)
   12194:	c7 85 c0 f5 ff ff 01 	movl   $0x1,-0xa40(%rbp)
   1219b:	00 00 00 
   1219e:	c7 85 30 f7 ff ff 00 	movl   $0x0,-0x8d0(%rbp)
   121a5:	00 00 00 
   121a8:	c7 85 34 f7 ff ff 00 	movl   $0x0,-0x8cc(%rbp)
   121af:	00 00 00 
   121b2:	c7 85 38 f7 ff ff 8c 	movl   $0x565de28c,-0x8c8(%rbp)
   121b9:	e2 5d 56 
   121bc:	c7 85 3c f7 ff ff 00 	movl   $0x0,-0x8c4(%rbp)
   121c3:	00 00 00 
   121c6:	c7 85 40 f7 ff ff 00 	movl   $0x0,-0x8c0(%rbp)
   121cd:	00 00 00 
   121d0:	c7 85 44 f7 ff ff 8c 	movl   $0x565de28c,-0x8bc(%rbp)
   121d7:	e2 5d 56 
   121da:	c7 85 48 f7 ff ff 00 	movl   $0x0,-0x8b8(%rbp)
   121e1:	00 00 00 
   121e4:	c7 85 c4 f5 ff ff ff 	movl   $0xffffffff,-0xa3c(%rbp)
   121eb:	ff ff ff 
   121ee:	c7 85 b0 f5 ff ff 00 	movl   $0x0,-0xa50(%rbp)
   121f5:	00 00 00 
   121f8:	eb 1e                	jmp    12218 <func_40+0x483>
   121fa:	8b 85 b0 f5 ff ff    	mov    -0xa50(%rbp),%eax
   12200:	48 98                	cltq   
   12202:	48 8d 95 f0 f5 ff ff 	lea    -0xa10(%rbp),%rdx
   12209:	48 89 94 c5 70 f7 ff 	mov    %rdx,-0x890(%rbp,%rax,8)
   12210:	ff 
   12211:	83 85 b0 f5 ff ff 01 	addl   $0x1,-0xa50(%rbp)
   12218:	83 bd b0 f5 ff ff 03 	cmpl   $0x3,-0xa50(%rbp)
   1221f:	7e d9                	jle    121fa <func_40+0x465>
   12221:	0f b7 05 2c af 00 00 	movzwl 0xaf2c(%rip),%eax        # 1d154 <g_440>
   12228:	98                   	cwtl   
   12229:	83 c0 06             	add    $0x6,%eax
   1222c:	48 98                	cltq   
   1222e:	48 8d 14 00          	lea    (%rax,%rax,1),%rdx
   12232:	48 8d 05 67 ae 00 00 	lea    0xae67(%rip),%rax        # 1d0a0 <g_153>
   12239:	0f b7 04 02          	movzwl (%rdx,%rax,1),%eax
   1223d:	44 0f b7 e0          	movzwl %ax,%r12d
   12241:	48 8b 05 58 e0 00 00 	mov    0xe058(%rip),%rax        # 202a0 <g_1418>
   12248:	44 8b 28             	mov    (%rax),%r13d
   1224b:	b8 67 b4 ff ff       	mov    $0xffffb467,%eax
   12250:	0f bf d8             	movswl %ax,%ebx
   12253:	48 8b 95 d8 f7 ff ff 	mov    -0x828(%rbp),%rdx
   1225a:	48 8b 05 8f de 00 00 	mov    0xde8f(%rip),%rax        # 200f0 <g_984>
   12261:	66 89 10             	mov    %dx,(%rax)
   12264:	0f b7 00             	movzwl (%rax),%eax
   12267:	44 0f bf f0          	movswl %ax,%r14d
   1226b:	48 8b 05 ee db 00 00 	mov    0xdbee(%rip),%rax        # 1fe60 <g_66>
   12272:	8b 00                	mov    (%rax),%eax
   12274:	41 89 c7             	mov    %eax,%r15d
   12277:	48 8b 85 30 f6 ff ff 	mov    -0x9d0(%rbp),%rax
   1227e:	c7 00 01 00 00 00    	movl   $0x1,(%rax)
   12284:	be d0 33 99 fc       	mov    $0xfc9933d0,%esi
   12289:	bf ef 56 e8 d1       	mov    $0xd1e856ef,%edi
   1228e:	e8 92 8c ff ff       	callq  af25 <safe_div_func_uint32_t_u_u>
   12293:	44 89 fe             	mov    %r15d,%esi
   12296:	89 c7                	mov    %eax,%edi
   12298:	e8 2f 84 ff ff       	callq  a6cc <safe_mod_func_int32_t_s_s>
   1229d:	48 8b 95 38 f6 ff ff 	mov    -0x9c8(%rbp),%rdx
   122a4:	0f b7 12             	movzwl (%rdx),%edx
   122a7:	21 c2                	and    %eax,%edx
   122a9:	48 8b 85 38 f6 ff ff 	mov    -0x9c8(%rbp),%rax
   122b0:	66 89 10             	mov    %dx,(%rax)
   122b3:	48 8b 85 38 f6 ff ff 	mov    -0x9c8(%rbp),%rax
   122ba:	0f b7 10             	movzwl (%rax),%edx
   122bd:	0f b6 05 94 ad 00 00 	movzbl 0xad94(%rip),%eax        # 1d058 <g_57+0x18>
   122c4:	66 98                	cbtw   
   122c6:	66 39 c2             	cmp    %ax,%dx
   122c9:	0f 9f c0             	setg   %al
   122cc:	0f b6 c0             	movzbl %al,%eax
   122cf:	66 89 05 12 af 00 00 	mov    %ax,0xaf12(%rip)        # 1d1e8 <g_1255>
   122d6:	0f b7 05 0b af 00 00 	movzwl 0xaf0b(%rip),%eax        # 1d1e8 <g_1255>
   122dd:	66 85 c0             	test   %ax,%ax
   122e0:	74 11                	je     122f3 <func_40+0x55e>
   122e2:	66 83 bd 64 f5 ff ff 	cmpw   $0x0,-0xa9c(%rbp)
   122e9:	00 
   122ea:	74 07                	je     122f3 <func_40+0x55e>
   122ec:	b8 01 00 00 00       	mov    $0x1,%eax
   122f1:	eb 05                	jmp    122f8 <func_40+0x563>
   122f3:	b8 00 00 00 00       	mov    $0x0,%eax
   122f8:	66 89 05 4f ae 00 00 	mov    %ax,0xae4f(%rip)        # 1d14e <g_399>
   122ff:	0f b7 05 48 ae 00 00 	movzwl 0xae48(%rip),%eax        # 1d14e <g_399>
   12306:	66 85 c0             	test   %ax,%ax
   12309:	74 11                	je     1231c <func_40+0x587>
   1230b:	66 83 bd 82 f5 ff ff 	cmpw   $0x0,-0xa7e(%rbp)
   12312:	00 
   12313:	74 07                	je     1231c <func_40+0x587>
   12315:	ba 01 00 00 00       	mov    $0x1,%edx
   1231a:	eb 05                	jmp    12321 <func_40+0x58c>
   1231c:	ba 00 00 00 00       	mov    $0x0,%edx
   12321:	48 8b 85 50 f5 ff ff 	mov    -0xab0(%rbp),%rax
   12328:	8b 00                	mov    (%rax),%eax
   1232a:	83 f8 01             	cmp    $0x1,%eax
   1232d:	0f 96 c0             	setbe  %al
   12330:	0f b6 c0             	movzbl %al,%eax
   12333:	89 d6                	mov    %edx,%esi
   12335:	89 c7                	mov    %eax,%edi
   12337:	e8 65 7f ff ff       	callq  a2a1 <safe_lshift_func_int8_t_s_s>
   1233c:	84 c0                	test   %al,%al
   1233e:	75 0c                	jne    1234c <func_40+0x5b7>
   12340:	48 8b 85 f0 f7 ff ff 	mov    -0x810(%rbp),%rax
   12347:	48 85 c0             	test   %rax,%rax
   1234a:	74 07                	je     12353 <func_40+0x5be>
   1234c:	b8 01 00 00 00       	mov    $0x1,%eax
   12351:	eb 05                	jmp    12358 <func_40+0x5c3>
   12353:	b8 00 00 00 00       	mov    $0x0,%eax
   12358:	44 39 f0             	cmp    %r14d,%eax
   1235b:	0f 9c c0             	setl   %al
   1235e:	0f b6 c0             	movzbl %al,%eax
   12361:	89 de                	mov    %ebx,%esi
   12363:	89 c7                	mov    %eax,%edi
   12365:	e8 28 81 ff ff       	callq  a492 <safe_lshift_func_int16_t_s_s>
   1236a:	98                   	cwtl   
   1236b:	41 39 c5             	cmp    %eax,%r13d
   1236e:	0f 9e c0             	setle  %al
   12371:	0f b6 d0             	movzbl %al,%edx
   12374:	48 8b 85 d8 f7 ff ff 	mov    -0x828(%rbp),%rax
   1237b:	48 39 c2             	cmp    %rax,%rdx
   1237e:	0f 95 c0             	setne  %al
   12381:	0f b6 c0             	movzbl %al,%eax
   12384:	44 89 e1             	mov    %r12d,%ecx
   12387:	09 c1                	or     %eax,%ecx
   12389:	0f b6 05 c8 b2 00 00 	movzbl 0xb2c8(%rip),%eax        # 1d658 <g_2068+0x4>
   12390:	89 c2                	mov    %eax,%edx
   12392:	89 c8                	mov    %ecx,%eax
   12394:	21 d0                	and    %edx,%eax
   12396:	88 05 bc b2 00 00    	mov    %al,0xb2bc(%rip)        # 1d658 <g_2068+0x4>
   1239c:	66 c7 05 5b b2 00 00 	movw   $0x0,0xb25b(%rip)        # 1d600 <g_1626>
   123a3:	00 00 
   123a5:	e9 85 0c 00 00       	jmpq   1302f <func_40+0x129a>
   123aa:	66 c7 85 28 f7 ff ff 	movw   $0x0,-0x8d8(%rbp)
   123b1:	00 00 
   123b3:	66 c7 85 2a f7 ff ff 	movw   $0x0,-0x8d6(%rbp)
   123ba:	00 00 
   123bc:	66 c7 85 2c f7 ff ff 	movw   $0x0,-0x8d4(%rbp)
   123c3:	00 00 
   123c5:	66 c7 85 2e f7 ff ff 	movw   $0x0,-0x8d2(%rbp)
   123cc:	00 00 
   123ce:	48 8d 85 d0 f7 ff ff 	lea    -0x830(%rbp),%rax
   123d5:	48 83 c0 08          	add    $0x8,%rax
   123d9:	48 89 85 00 f6 ff ff 	mov    %rax,-0xa00(%rbp)
   123e0:	c7 85 cc f5 ff ff 6c 	movl   $0xf5b56c6c,-0xa34(%rbp)
   123e7:	6c b5 f5 
   123ea:	48 8d 05 b7 dd 00 00 	lea    0xddb7(%rip),%rax        # 201a8 <g_1327>
   123f1:	48 89 85 f0 fc ff ff 	mov    %rax,-0x310(%rbp)
   123f8:	48 8d 05 a9 dd 00 00 	lea    0xdda9(%rip),%rax        # 201a8 <g_1327>
   123ff:	48 89 85 f8 fc ff ff 	mov    %rax,-0x308(%rbp)
   12406:	48 c7 85 00 fd ff ff 	movq   $0x0,-0x300(%rbp)
   1240d:	00 00 00 00 
   12411:	48 8d 05 90 dd 00 00 	lea    0xdd90(%rip),%rax        # 201a8 <g_1327>
   12418:	48 89 85 08 fd ff ff 	mov    %rax,-0x2f8(%rbp)
   1241f:	48 8d 05 82 dd 00 00 	lea    0xdd82(%rip),%rax        # 201a8 <g_1327>
   12426:	48 89 85 10 fd ff ff 	mov    %rax,-0x2f0(%rbp)
   1242d:	48 8d 05 74 dd 00 00 	lea    0xdd74(%rip),%rax        # 201a8 <g_1327>
   12434:	48 89 85 18 fd ff ff 	mov    %rax,-0x2e8(%rbp)
   1243b:	48 8d 05 66 dd 00 00 	lea    0xdd66(%rip),%rax        # 201a8 <g_1327>
   12442:	48 89 85 20 fd ff ff 	mov    %rax,-0x2e0(%rbp)
   12449:	48 c7 85 28 fd ff ff 	movq   $0x0,-0x2d8(%rbp)
   12450:	00 00 00 00 
   12454:	48 8d 05 4d dd 00 00 	lea    0xdd4d(%rip),%rax        # 201a8 <g_1327>
   1245b:	48 89 85 30 fd ff ff 	mov    %rax,-0x2d0(%rbp)
   12462:	48 c7 85 38 fd ff ff 	movq   $0x0,-0x2c8(%rbp)
   12469:	00 00 00 00 
   1246d:	48 8d 05 34 dd 00 00 	lea    0xdd34(%rip),%rax        # 201a8 <g_1327>
   12474:	48 89 85 40 fd ff ff 	mov    %rax,-0x2c0(%rbp)
   1247b:	48 8d 05 26 dd 00 00 	lea    0xdd26(%rip),%rax        # 201a8 <g_1327>
   12482:	48 89 85 48 fd ff ff 	mov    %rax,-0x2b8(%rbp)
   12489:	48 8d 05 18 dd 00 00 	lea    0xdd18(%rip),%rax        # 201a8 <g_1327>
   12490:	48 89 85 50 fd ff ff 	mov    %rax,-0x2b0(%rbp)
   12497:	48 8d 05 0a dd 00 00 	lea    0xdd0a(%rip),%rax        # 201a8 <g_1327>
   1249e:	48 89 85 58 fd ff ff 	mov    %rax,-0x2a8(%rbp)
   124a5:	48 8d 05 fc dc 00 00 	lea    0xdcfc(%rip),%rax        # 201a8 <g_1327>
   124ac:	48 89 85 60 fd ff ff 	mov    %rax,-0x2a0(%rbp)
   124b3:	48 8d 05 ee dc 00 00 	lea    0xdcee(%rip),%rax        # 201a8 <g_1327>
   124ba:	48 89 85 68 fd ff ff 	mov    %rax,-0x298(%rbp)
   124c1:	48 8d 05 e0 dc 00 00 	lea    0xdce0(%rip),%rax        # 201a8 <g_1327>
   124c8:	48 89 85 70 fd ff ff 	mov    %rax,-0x290(%rbp)
   124cf:	48 c7 85 78 fd ff ff 	movq   $0x0,-0x288(%rbp)
   124d6:	00 00 00 00 
   124da:	48 8d 05 c7 dc 00 00 	lea    0xdcc7(%rip),%rax        # 201a8 <g_1327>
   124e1:	48 89 85 80 fd ff ff 	mov    %rax,-0x280(%rbp)
   124e8:	48 8d 05 b9 dc 00 00 	lea    0xdcb9(%rip),%rax        # 201a8 <g_1327>
   124ef:	48 89 85 88 fd ff ff 	mov    %rax,-0x278(%rbp)
   124f6:	48 8d 05 ab dc 00 00 	lea    0xdcab(%rip),%rax        # 201a8 <g_1327>
   124fd:	48 89 85 90 fd ff ff 	mov    %rax,-0x270(%rbp)
   12504:	48 8d 05 9d dc 00 00 	lea    0xdc9d(%rip),%rax        # 201a8 <g_1327>
   1250b:	48 89 85 98 fd ff ff 	mov    %rax,-0x268(%rbp)
   12512:	48 c7 85 a0 fd ff ff 	movq   $0x0,-0x260(%rbp)
   12519:	00 00 00 00 
   1251d:	48 8d 05 84 dc 00 00 	lea    0xdc84(%rip),%rax        # 201a8 <g_1327>
   12524:	48 89 85 a8 fd ff ff 	mov    %rax,-0x258(%rbp)
   1252b:	48 c7 85 b0 fd ff ff 	movq   $0x0,-0x250(%rbp)
   12532:	00 00 00 00 
   12536:	48 8d 05 6b dc 00 00 	lea    0xdc6b(%rip),%rax        # 201a8 <g_1327>
   1253d:	48 89 85 b8 fd ff ff 	mov    %rax,-0x248(%rbp)
   12544:	48 8d 05 5d dc 00 00 	lea    0xdc5d(%rip),%rax        # 201a8 <g_1327>
   1254b:	48 89 85 c0 fd ff ff 	mov    %rax,-0x240(%rbp)
   12552:	48 8d 05 4f dc 00 00 	lea    0xdc4f(%rip),%rax        # 201a8 <g_1327>
   12559:	48 89 85 c8 fd ff ff 	mov    %rax,-0x238(%rbp)
   12560:	48 8d 05 41 dc 00 00 	lea    0xdc41(%rip),%rax        # 201a8 <g_1327>
   12567:	48 89 85 d0 fd ff ff 	mov    %rax,-0x230(%rbp)
   1256e:	48 8d 05 33 dc 00 00 	lea    0xdc33(%rip),%rax        # 201a8 <g_1327>
   12575:	48 89 85 d8 fd ff ff 	mov    %rax,-0x228(%rbp)
   1257c:	48 8d 85 f0 fc ff ff 	lea    -0x310(%rbp),%rax
   12583:	48 05 d0 00 00 00    	add    $0xd0,%rax
   12589:	48 89 85 68 f6 ff ff 	mov    %rax,-0x998(%rbp)
   12590:	c7 85 a0 f5 ff ff f9 	movl   $0xfffffff9,-0xa60(%rbp)
   12597:	ff ff ff 
   1259a:	c7 85 a4 f5 ff ff 05 	movl   $0xcf7f1d05,-0xa5c(%rbp)
   125a1:	1d 7f cf 
   125a4:	c7 85 d0 f5 ff ff 1e 	movl   $0xe4e8f21e,-0xa30(%rbp)
   125ab:	f2 e8 e4 
   125ae:	48 b8 51 dc 62 07 06 	movabs $0x99c5d6060762dc51,%rax
   125b5:	d6 c5 99 
   125b8:	48 89 85 08 f6 ff ff 	mov    %rax,-0x9f8(%rbp)
   125bf:	48 8b 85 30 f6 ff ff 	mov    -0x9d0(%rbp),%rax
   125c6:	8b 18                	mov    (%rax),%ebx
   125c8:	0f b7 85 2c f7 ff ff 	movzwl -0x8d4(%rbp),%eax
   125cf:	44 0f bf f8          	movswl %ax,%r15d
   125d3:	48 8b 05 c6 dc 00 00 	mov    0xdcc6(%rip),%rax        # 202a0 <g_1418>
   125da:	8b 00                	mov    (%rax),%eax
   125dc:	89 85 60 f5 ff ff    	mov    %eax,-0xaa0(%rbp)
   125e2:	44 0f b7 a5 64 f5 ff 	movzwl -0xa9c(%rbp),%r12d
   125e9:	ff 
   125ea:	0f b7 85 64 f5 ff ff 	movzwl -0xa9c(%rbp),%eax
   125f1:	89 c6                	mov    %eax,%esi
   125f3:	48 8b 85 68 f5 ff ff 	mov    -0xa98(%rbp),%rax
   125fa:	8b 00                	mov    (%rax),%eax
   125fc:	8d 48 ff             	lea    -0x1(%rax),%ecx
   125ff:	48 8b 95 68 f5 ff ff 	mov    -0xa98(%rbp),%rdx
   12606:	89 0a                	mov    %ecx,(%rdx)
   12608:	09 f0                	or     %esi,%eax
   1260a:	44 0f be e8          	movsbl %al,%r13d
   1260e:	0f b7 85 28 f7 ff ff 	movzwl -0x8d8(%rbp),%eax
   12615:	98                   	cwtl   
   12616:	be 02 00 00 00       	mov    $0x2,%esi
   1261b:	89 c7                	mov    %eax,%edi
   1261d:	e8 bf 7e ff ff       	callq  a4e1 <safe_lshift_func_int16_t_s_u>
   12622:	89 c2                	mov    %eax,%edx
   12624:	48 8b 05 8d dc 00 00 	mov    0xdc8d(%rip),%rax        # 202b8 <g_1481>
   1262b:	48 8b 00             	mov    (%rax),%rax
   1262e:	48 8b 00             	mov    (%rax),%rax
   12631:	48 0f bf d2          	movswq %dx,%rdx
   12635:	48 89 10             	mov    %rdx,(%rax)
   12638:	48 8b 30             	mov    (%rax),%rsi
   1263b:	48 8b 85 00 f6 ff ff 	mov    -0xa00(%rbp),%rax
   12642:	48 8b 10             	mov    (%rax),%rdx
   12645:	48 8d 4a 01          	lea    0x1(%rdx),%rcx
   12649:	48 89 08             	mov    %rcx,(%rax)
   1264c:	48 39 d6             	cmp    %rdx,%rsi
   1264f:	0f 96 c0             	setbe  %al
   12652:	0f b6 c0             	movzbl %al,%eax
   12655:	44 89 ee             	mov    %r13d,%esi
   12658:	89 c7                	mov    %eax,%edi
   1265a:	e8 b3 7b ff ff       	callq  a212 <safe_mul_func_int8_t_s_s>
   1265f:	48 0f be c8          	movsbq %al,%rcx
   12663:	48 89 8d 48 f5 ff ff 	mov    %rcx,-0xab8(%rbp)
   1266a:	8b 85 b4 f5 ff ff    	mov    -0xa4c(%rbp),%eax
   12670:	4c 63 e8             	movslq %eax,%r13
   12673:	0f b7 bd 64 f5 ff ff 	movzwl -0xa9c(%rbp),%edi
   1267a:	89 bd 44 f5 ff ff    	mov    %edi,-0xabc(%rbp)
   12680:	48 8b 15 69 da 00 00 	mov    0xda69(%rip),%rdx        # 200f0 <g_984>
   12687:	48 8b 05 62 da 00 00 	mov    0xda62(%rip),%rax        # 200f0 <g_984>
   1268e:	0f b7 12             	movzwl (%rdx),%edx
   12691:	66 89 10             	mov    %dx,(%rax)
   12694:	44 8b b5 bc f5 ff ff 	mov    -0xa44(%rbp),%r14d
   1269b:	48 8b 85 30 f6 ff ff 	mov    -0x9d0(%rbp),%rax
   126a2:	8b 00                	mov    (%rax),%eax
   126a4:	0f be d0             	movsbl %al,%edx
   126a7:	48 8b 05 ba d7 00 00 	mov    0xd7ba(%rip),%rax        # 1fe68 <g_152>
   126ae:	0f b7 00             	movzwl (%rax),%eax
   126b1:	0f b7 c0             	movzwl %ax,%eax
   126b4:	39 85 b4 f5 ff ff    	cmp    %eax,-0xa4c(%rbp)
   126ba:	0f 94 c0             	sete   %al
   126bd:	0f b6 c0             	movzbl %al,%eax
   126c0:	89 d6                	mov    %edx,%esi
   126c2:	89 c7                	mov    %eax,%edi
   126c4:	e8 68 7b ff ff       	callq  a231 <safe_mod_func_int8_t_s_s>
   126c9:	0f be c0             	movsbl %al,%eax
   126cc:	44 89 f6             	mov    %r14d,%esi
   126cf:	89 c7                	mov    %eax,%edi
   126d1:	e8 fa 87 ff ff       	callq  aed0 <safe_sub_func_uint32_t_u_u>
   126d6:	48 8b 05 d3 d7 00 00 	mov    0xd7d3(%rip),%rax        # 1feb0 <g_327>
   126dd:	c6 00 00             	movb   $0x0,(%rax)
   126e0:	0f b6 00             	movzbl (%rax),%eax
   126e3:	0f be c0             	movsbl %al,%eax
   126e6:	39 85 44 f5 ff ff    	cmp    %eax,-0xabc(%rbp)
   126ec:	0f 9f c0             	setg   %al
   126ef:	0f b6 d0             	movzbl %al,%edx
   126f2:	48 8b 85 50 f5 ff ff 	mov    -0xab0(%rbp),%rax
   126f9:	8b 00                	mov    (%rax),%eax
   126fb:	39 c2                	cmp    %eax,%edx
   126fd:	0f 95 c0             	setne  %al
   12700:	0f b6 c0             	movzbl %al,%eax
   12703:	4c 89 ee             	mov    %r13,%rsi
   12706:	48 89 c7             	mov    %rax,%rdi
   12709:	e8 72 89 ff ff       	callq  b080 <safe_mod_func_uint64_t_u_u>
   1270e:	48 39 85 48 f5 ff ff 	cmp    %rax,-0xab8(%rbp)
   12715:	0f 97 c0             	seta   %al
   12718:	0f b6 c0             	movzbl %al,%eax
   1271b:	44 89 e6             	mov    %r12d,%esi
   1271e:	89 c7                	mov    %eax,%edi
   12720:	e8 d8 87 ff ff       	callq  aefd <safe_mod_func_uint32_t_u_u>
   12725:	0f b7 c0             	movzwl %ax,%eax
   12728:	be 0b 00 00 00       	mov    $0xb,%esi
   1272d:	89 c7                	mov    %eax,%edi
   1272f:	e8 46 87 ff ff       	callq  ae7a <safe_rshift_func_uint16_t_u_u>
   12734:	0f b7 c0             	movzwl %ax,%eax
   12737:	8b b5 60 f5 ff ff    	mov    -0xaa0(%rbp),%esi
   1273d:	89 c7                	mov    %eax,%edi
   1273f:	e8 74 87 ff ff       	callq  aeb8 <safe_add_func_uint32_t_u_u>
   12744:	41 39 c7             	cmp    %eax,%r15d
   12747:	0f 93 c0             	setae  %al
   1274a:	0f b6 d0             	movzbl %al,%edx
   1274d:	48 8b 85 30 f6 ff ff 	mov    -0x9d0(%rbp),%rax
   12754:	8b 00                	mov    (%rax),%eax
   12756:	39 c2                	cmp    %eax,%edx
   12758:	0f 94 c0             	sete   %al
   1275b:	0f b6 c0             	movzbl %al,%eax
   1275e:	89 de                	mov    %ebx,%esi
   12760:	89 c7                	mov    %eax,%edi
   12762:	e8 26 85 ff ff       	callq  ac8d <safe_rshift_func_uint8_t_u_s>
   12767:	0f b6 c0             	movzbl %al,%eax
   1276a:	89 c6                	mov    %eax,%esi
   1276c:	bf ff ff 00 00       	mov    $0xffff,%edi
   12771:	e8 d2 86 ff ff       	callq  ae48 <safe_rshift_func_uint16_t_u_s>
   12776:	66 0d 40 2c          	or     $0x2c40,%ax
   1277a:	0f b7 c0             	movzwl %ax,%eax
   1277d:	89 c2                	mov    %eax,%edx
   1277f:	8b 85 8c f5 ff ff    	mov    -0xa74(%rbp),%eax
   12785:	09 d0                	or     %edx,%eax
   12787:	89 85 8c f5 ff ff    	mov    %eax,-0xa74(%rbp)
   1278d:	be 01 00 00 00       	mov    $0x1,%esi
   12792:	bf 02 00 00 00       	mov    $0x2,%edi
   12797:	e8 30 7f ff ff       	callq  a6cc <safe_mod_func_int32_t_s_s>
   1279c:	25 f6 f7 8e 15       	and    $0x158ef7f6,%eax
   127a1:	85 c0                	test   %eax,%eax
   127a3:	48 8b 05 be d6 00 00 	mov    0xd6be(%rip),%rax        # 1fe68 <g_152>
   127aa:	0f b7 00             	movzwl (%rax),%eax
   127ad:	66 85 c0             	test   %ax,%ax
   127b0:	0f 94 c0             	sete   %al
   127b3:	0f b6 d8             	movzbl %al,%ebx
   127b6:	48 8b 85 30 f6 ff ff 	mov    -0x9d0(%rbp),%rax
   127bd:	8b 00                	mov    (%rax),%eax
   127bf:	98                   	cwtl   
   127c0:	89 c6                	mov    %eax,%esi
   127c2:	bf fd ff ff ff       	mov    $0xfffffffd,%edi
   127c7:	e8 29 7c ff ff       	callq  a3f5 <safe_mul_func_int16_t_s_s>
   127cc:	48 8b 85 50 f5 ff ff 	mov    -0xab0(%rbp),%rax
   127d3:	8b 00                	mov    (%rax),%eax
   127d5:	8d 50 ff             	lea    -0x1(%rax),%edx
   127d8:	48 8b 85 50 f5 ff ff 	mov    -0xab0(%rbp),%rax
   127df:	89 10                	mov    %edx,(%rax)
   127e1:	48 8b 05 08 e3 00 00 	mov    0xe308(%rip),%rax        # 20af0 <g_1911>
   127e8:	48 8b 10             	mov    (%rax),%rdx
   127eb:	48 8b 85 40 f9 ff ff 	mov    -0x6c0(%rbp),%rax
   127f2:	48 39 c2             	cmp    %rax,%rdx
   127f5:	0f 95 c0             	setne  %al
   127f8:	0f b6 c0             	movzbl %al,%eax
   127fb:	89 de                	mov    %ebx,%esi
   127fd:	89 c7                	mov    %eax,%edi
   127ff:	e8 f1 7b ff ff       	callq  a3f5 <safe_mul_func_int16_t_s_s>
   12804:	0f bf d0             	movswl %ax,%edx
   12807:	48 8b 85 30 f6 ff ff 	mov    -0x9d0(%rbp),%rax
   1280e:	89 10                	mov    %edx,(%rax)
   12810:	48 8b 85 30 f6 ff ff 	mov    -0x9d0(%rbp),%rax
   12817:	8b 00                	mov    (%rax),%eax
   12819:	4c 63 f8             	movslq %eax,%r15
   1281c:	8b 05 ce ad 00 00    	mov    0xadce(%rip),%eax        # 1d5f0 <g_1593>
   12822:	44 0f b7 e8          	movzwl %ax,%r13d
   12826:	0f b7 85 64 f5 ff ff 	movzwl -0xa9c(%rbp),%eax
   1282d:	44 0f b6 e0          	movzbl %al,%r12d
   12831:	48 8b 85 30 f6 ff ff 	mov    -0x9d0(%rbp),%rax
   12838:	8b 00                	mov    (%rax),%eax
   1283a:	48 63 d8             	movslq %eax,%rbx
   1283d:	48 8b 85 30 f6 ff ff 	mov    -0x9d0(%rbp),%rax
   12844:	8b 00                	mov    (%rax),%eax
   12846:	be 01 00 00 00       	mov    $0x1,%esi
   1284b:	89 c7                	mov    %eax,%edi
   1284d:	e8 7e 86 ff ff       	callq  aed0 <safe_sub_func_uint32_t_u_u>
   12852:	0f b7 95 64 f5 ff ff 	movzwl -0xa9c(%rbp),%edx
   12859:	0f b7 85 64 f5 ff ff 	movzwl -0xa9c(%rbp),%eax
   12860:	89 d6                	mov    %edx,%esi
   12862:	89 c7                	mov    %eax,%edi
   12864:	e8 55 85 ff ff       	callq  adbe <safe_lshift_func_uint16_t_u_s>
   12869:	66 39 85 64 f5 ff ff 	cmp    %ax,-0xa9c(%rbp)
   12870:	0f 93 c0             	setae  %al
   12873:	0f b6 c0             	movzbl %al,%eax
   12876:	4c 8b 35 13 e4 00 00 	mov    0xe413(%rip),%r14        # 20c90 <g_2124>
   1287d:	4d 89 f8             	mov    %r15,%r8
   12880:	44 89 e9             	mov    %r13d,%ecx
   12883:	44 89 e2             	mov    %r12d,%edx
   12886:	48 89 de             	mov    %rbx,%rsi
   12889:	89 c7                	mov    %eax,%edi
   1288b:	e8 ac 0f 00 00       	callq  1383c <func_50>
   12890:	49 89 06             	mov    %rax,(%r14)
   12893:	c6 05 16 ab 00 00 09 	movb   $0x9,0xab16(%rip)        # 1d3b0 <g_1293>
   1289a:	e9 bc 05 00 00       	jmpq   12e5b <func_40+0x10c6>
   1289f:	c6 85 80 f5 ff ff ba 	movb   $0xba,-0xa80(%rbp)
   128a6:	c6 85 81 f5 ff ff e1 	movb   $0xe1,-0xa7f(%rbp)
   128ad:	c7 85 d8 f5 ff ff 04 	movl   $0x45150c04,-0xa28(%rbp)
   128b4:	0c 15 45 
   128b7:	c7 85 dc f5 ff ff 79 	movl   $0xafb0dc79,-0xa24(%rbp)
   128be:	dc b0 af 
   128c1:	48 8d 85 00 f6 ff ff 	lea    -0xa00(%rbp),%rax
   128c8:	48 89 85 d8 f6 ff ff 	mov    %rax,-0x928(%rbp)
   128cf:	48 8b 05 9a d5 00 00 	mov    0xd59a(%rip),%rax        # 1fe70 <g_166>
   128d6:	0f be 95 80 f5 ff ff 	movsbl -0xa80(%rbp),%edx
   128dd:	89 10                	mov    %edx,(%rax)
   128df:	8b 18                	mov    (%rax),%ebx
   128e1:	0f b7 05 6c a8 00 00 	movzwl 0xa86c(%rip),%eax        # 1d154 <g_440>
   128e8:	98                   	cwtl   
   128e9:	8d 50 03             	lea    0x3(%rax),%edx
   128ec:	0f b7 05 0d ad 00 00 	movzwl 0xad0d(%rip),%eax        # 1d600 <g_1626>
   128f3:	98                   	cwtl   
   128f4:	8d 70 02             	lea    0x2(%rax),%esi
   128f7:	0f b7 05 56 a8 00 00 	movzwl 0xa856(%rip),%eax        # 1d154 <g_440>
   128fe:	98                   	cwtl   
   128ff:	83 c0 01             	add    $0x1,%eax
   12902:	48 63 c8             	movslq %eax,%rcx
   12905:	48 63 d2             	movslq %edx,%rdx
   12908:	48 63 f6             	movslq %esi,%rsi
   1290b:	48 89 d0             	mov    %rdx,%rax
   1290e:	48 c1 e0 03          	shl    $0x3,%rax
   12912:	48 01 d0             	add    %rdx,%rax
   12915:	48 01 f0             	add    %rsi,%rax
   12918:	48 c1 e0 02          	shl    $0x2,%rax
   1291c:	48 01 c8             	add    %rcx,%rax
   1291f:	48 8d 14 c5 00 00 00 	lea    0x0(,%rax,8),%rdx
   12926:	00 
   12927:	48 8d 05 b2 d9 00 00 	lea    0xd9b2(%rip),%rax        # 202e0 <g_1648>
   1292e:	48 8b 04 02          	mov    (%rdx,%rax,1),%rax
   12932:	48 85 c0             	test   %rax,%rax
   12935:	0f 95 c0             	setne  %al
   12938:	44 0f b6 e0          	movzbl %al,%r12d
   1293c:	0f b7 85 2c f7 ff ff 	movzwl -0x8d4(%rbp),%eax
   12943:	66 85 c0             	test   %ax,%ax
   12946:	74 61                	je     129a9 <func_40+0xc14>
   12948:	48 8b 85 00 f8 ff ff 	mov    -0x800(%rbp),%rax
   1294f:	41 89 c5             	mov    %eax,%r13d
   12952:	48 8b 85 30 f6 ff ff 	mov    -0x9d0(%rbp),%rax
   12959:	8b 00                	mov    (%rax),%eax
   1295b:	89 c2                	mov    %eax,%edx
   1295d:	48 8b 05 fc d4 00 00 	mov    0xd4fc(%rip),%rax        # 1fe60 <g_66>
   12964:	8b 00                	mov    (%rax),%eax
   12966:	39 c2                	cmp    %eax,%edx
   12968:	0f 92 c0             	setb   %al
   1296b:	0f b6 c0             	movzbl %al,%eax
   1296e:	be 04 00 00 00       	mov    $0x4,%esi
   12973:	89 c7                	mov    %eax,%edi
   12975:	e8 8b 82 ff ff       	callq  ac05 <safe_lshift_func_uint8_t_u_s>
   1297a:	0f be c0             	movsbl %al,%eax
   1297d:	44 89 ee             	mov    %r13d,%esi
   12980:	89 c7                	mov    %eax,%edi
   12982:	e8 ae 79 ff ff       	callq  a335 <safe_rshift_func_int8_t_s_s>
   12987:	48 0f be d0          	movsbq %al,%rdx
   1298b:	0f b6 85 81 f5 ff ff 	movzbl -0xa7f(%rbp),%eax
   12992:	48 89 d6             	mov    %rdx,%rsi
   12995:	48 89 c7             	mov    %rax,%rdi
   12998:	e8 12 87 ff ff       	callq  b0af <safe_div_func_uint64_t_u_u>
   1299d:	48 85 c0             	test   %rax,%rax
   129a0:	75 07                	jne    129a9 <func_40+0xc14>
   129a2:	b8 01 00 00 00       	mov    $0x1,%eax
   129a7:	eb 05                	jmp    129ae <func_40+0xc19>
   129a9:	b8 00 00 00 00       	mov    $0x0,%eax
   129ae:	44 39 e0             	cmp    %r12d,%eax
   129b1:	0f 9f c0             	setg   %al
   129b4:	0f b6 d0             	movzbl %al,%edx
   129b7:	0f b7 85 64 f5 ff ff 	movzwl -0xa9c(%rbp),%eax
   129be:	39 c2                	cmp    %eax,%edx
   129c0:	0f 9c c0             	setl   %al
   129c3:	0f b6 d0             	movzbl %al,%edx
   129c6:	0f b7 85 84 f5 ff ff 	movzwl -0xa7c(%rbp),%eax
   129cd:	21 d0                	and    %edx,%eax
   129cf:	0f b7 c0             	movzwl %ax,%eax
   129d2:	89 c6                	mov    %eax,%esi
   129d4:	bf 34 c6 00 00       	mov    $0xc634,%edi
   129d9:	e8 21 83 ff ff       	callq  acff <safe_add_func_uint16_t_u_u>
   129de:	0f b7 c0             	movzwl %ax,%eax
   129e1:	39 c3                	cmp    %eax,%ebx
   129e3:	0f 9f c0             	setg   %al
   129e6:	0f b6 c0             	movzbl %al,%eax
   129e9:	be 04 00 00 00       	mov    $0x4,%esi
   129ee:	89 c7                	mov    %eax,%edi
   129f0:	e8 85 84 ff ff       	callq  ae7a <safe_rshift_func_uint16_t_u_u>
   129f5:	48 8b 05 f4 d6 00 00 	mov    0xd6f4(%rip),%rax        # 200f0 <g_984>
   129fc:	0f b7 00             	movzwl (%rax),%eax
   129ff:	0f b7 c0             	movzwl %ax,%eax
   12a02:	89 c6                	mov    %eax,%esi
   12a04:	bf fd ff 00 00       	mov    $0xfffd,%edi
   12a09:	e8 f1 82 ff ff       	callq  acff <safe_add_func_uint16_t_u_u>
   12a0e:	0f b7 d0             	movzwl %ax,%edx
   12a11:	48 8b 85 30 f6 ff ff 	mov    -0x9d0(%rbp),%rax
   12a18:	89 10                	mov    %edx,(%rax)
   12a1a:	66 83 bd 64 f5 ff ff 	cmpw   $0x0,-0xa9c(%rbp)
   12a21:	00 
   12a22:	0f 84 66 03 00 00    	je     12d8e <func_40+0xff9>
   12a28:	48 8d 85 8c f5 ff ff 	lea    -0xa74(%rbp),%rax
   12a2f:	48 89 85 e8 f6 ff ff 	mov    %rax,-0x918(%rbp)
   12a36:	c7 85 e0 f5 ff ff 52 	movl   $0x87d67652,-0xa20(%rbp)
   12a3d:	76 d6 87 
   12a40:	c7 85 e4 f5 ff ff 18 	movl   $0x46996518,-0xa1c(%rbp)
   12a47:	65 99 46 
   12a4a:	c6 05 d7 ab 00 00 00 	movb   $0x0,0xabd7(%rip)        # 1d628 <g_1791>
   12a51:	90                   	nop
   12a52:	0f b6 05 cf ab 00 00 	movzbl 0xabcf(%rip),%eax        # 1d628 <g_1791>
   12a59:	3c 09                	cmp    $0x9,%al
   12a5b:	77 24                	ja     12a81 <func_40+0xcec>
   12a5d:	0f b7 05 9c ab 00 00 	movzwl 0xab9c(%rip),%eax        # 1d600 <g_1626>
   12a64:	98                   	cwtl   
   12a65:	83 c0 05             	add    $0x5,%eax
   12a68:	48 98                	cltq   
   12a6a:	48 8d 14 00          	lea    (%rax,%rax,1),%rdx
   12a6e:	48 8d 05 2b a6 00 00 	lea    0xa62b(%rip),%rax        # 1d0a0 <g_153>
   12a75:	0f b7 04 02          	movzwl (%rdx,%rax,1),%eax
   12a79:	0f b7 c0             	movzwl %ax,%eax
   12a7c:	e9 30 0b 00 00       	jmpq   135b1 <func_40+0x181c>
   12a81:	48 8b 85 d8 f7 ff ff 	mov    -0x828(%rbp),%rax
   12a88:	0f bf d8             	movswl %ax,%ebx
   12a8b:	48 8b 85 68 f5 ff ff 	mov    -0xa98(%rbp),%rax
   12a92:	8b 10                	mov    (%rax),%edx
   12a94:	48 8b 85 58 f5 ff ff 	mov    -0xaa8(%rbp),%rax
   12a9b:	8b 00                	mov    (%rax),%eax
   12a9d:	89 85 d8 f5 ff ff    	mov    %eax,-0xa28(%rbp)
   12aa3:	8b 85 d8 f5 ff ff    	mov    -0xa28(%rbp),%eax
   12aa9:	89 d6                	mov    %edx,%esi
   12aab:	89 c7                	mov    %eax,%edi
   12aad:	e8 1e 84 ff ff       	callq  aed0 <safe_sub_func_uint32_t_u_u>
   12ab2:	98                   	cwtl   
   12ab3:	89 de                	mov    %ebx,%esi
   12ab5:	89 c7                	mov    %eax,%edi
   12ab7:	e8 5a 79 ff ff       	callq  a416 <safe_mod_func_int16_t_s_s>
   12abc:	0f bf d8             	movswl %ax,%ebx
   12abf:	48 8d 85 f0 fc ff ff 	lea    -0x310(%rbp),%rax
   12ac6:	48 83 c0 38          	add    $0x38,%rax
   12aca:	48 39 85 68 f6 ff ff 	cmp    %rax,-0x998(%rbp)
   12ad1:	0f 94 c0             	sete   %al
   12ad4:	0f b6 c0             	movzbl %al,%eax
   12ad7:	89 c6                	mov    %eax,%esi
   12ad9:	bf f9 ff ff ff       	mov    $0xfffffff9,%edi
   12ade:	e8 52 78 ff ff       	callq  a335 <safe_rshift_func_int8_t_s_s>
   12ae3:	66 0f be d0          	movsbw %al,%dx
   12ae7:	0f b7 05 66 a6 00 00 	movzwl 0xa666(%rip),%eax        # 1d154 <g_440>
   12aee:	98                   	cwtl   
   12aef:	83 c0 09             	add    $0x9,%eax
   12af2:	89 d6                	mov    %edx,%esi
   12af4:	f7 d6                	not    %esi
   12af6:	48 63 d0             	movslq %eax,%rdx
   12af9:	48 8d 0c 12          	lea    (%rdx,%rdx,1),%rcx
   12afd:	48 8d 15 9c a5 00 00 	lea    0xa59c(%rip),%rdx        # 1d0a0 <g_153>
   12b04:	66 89 34 11          	mov    %si,(%rcx,%rdx,1)
   12b08:	48 98                	cltq   
   12b0a:	48 8d 14 00          	lea    (%rax,%rax,1),%rdx
   12b0e:	48 8d 05 8b a5 00 00 	lea    0xa58b(%rip),%rax        # 1d0a0 <g_153>
   12b15:	0f b7 04 02          	movzwl (%rdx,%rax,1),%eax
   12b19:	0f b7 c0             	movzwl %ax,%eax
   12b1c:	39 c3                	cmp    %eax,%ebx
   12b1e:	0f 9c c0             	setl   %al
   12b21:	0f b6 c0             	movzbl %al,%eax
   12b24:	be 00 00 00 00       	mov    $0x0,%esi
   12b29:	89 c7                	mov    %eax,%edi
   12b2b:	e8 71 77 ff ff       	callq  a2a1 <safe_lshift_func_int8_t_s_s>
   12b30:	0f be c8             	movsbl %al,%ecx
   12b33:	48 8b 15 b6 d5 00 00 	mov    0xd5b6(%rip),%rdx        # 200f0 <g_984>
   12b3a:	48 8b 05 af d5 00 00 	mov    0xd5af(%rip),%rax        # 200f0 <g_984>
   12b41:	0f b7 12             	movzwl (%rdx),%edx
   12b44:	66 89 10             	mov    %dx,(%rax)
   12b47:	0f b7 00             	movzwl (%rax),%eax
   12b4a:	98                   	cwtl   
   12b4b:	09 c8                	or     %ecx,%eax
   12b4d:	85 c0                	test   %eax,%eax
   12b4f:	75 0f                	jne    12b60 <func_40+0xdcb>
   12b51:	48 8b 05 50 d6 00 00 	mov    0xd650(%rip),%rax        # 201a8 <g_1327>
   12b58:	48 8b 00             	mov    (%rax),%rax
   12b5b:	48 85 c0             	test   %rax,%rax
   12b5e:	74 07                	je     12b67 <func_40+0xdd2>
   12b60:	ba 01 00 00 00       	mov    $0x1,%edx
   12b65:	eb 05                	jmp    12b6c <func_40+0xdd7>
   12b67:	ba 00 00 00 00       	mov    $0x0,%edx
   12b6c:	48 8b 05 5d d3 00 00 	mov    0xd35d(%rip),%rax        # 1fed0 <g_435>
   12b73:	48 8b 00             	mov    (%rax),%rax
   12b76:	88 10                	mov    %dl,(%rax)
   12b78:	0f b6 00             	movzbl (%rax),%eax
   12b7b:	0f be c0             	movsbl %al,%eax
   12b7e:	be ff ff ff ff       	mov    $0xffffffff,%esi
   12b83:	89 c7                	mov    %eax,%edi
   12b85:	e8 a7 76 ff ff       	callq  a231 <safe_mod_func_int8_t_s_s>
   12b8a:	48 8b 05 ef e0 00 00 	mov    0xe0ef(%rip),%rax        # 20c80 <g_2042>
   12b91:	48 8b 85 50 f5 ff ff 	mov    -0xab0(%rbp),%rax
   12b98:	8b 00                	mov    (%rax),%eax
   12b9a:	85 c0                	test   %eax,%eax
   12b9c:	0f 95 c0             	setne  %al
   12b9f:	0f b6 d0             	movzbl %al,%edx
   12ba2:	48 8b 85 e8 f6 ff ff 	mov    -0x918(%rbp),%rax
   12ba9:	8b 00                	mov    (%rax),%eax
   12bab:	21 c2                	and    %eax,%edx
   12bad:	48 8b 85 e8 f6 ff ff 	mov    -0x918(%rbp),%rax
   12bb4:	89 10                	mov    %edx,(%rax)
   12bb6:	c6 05 4b a5 00 00 00 	movb   $0x0,0xa54b(%rip)        # 1d108 <g_274>
   12bbd:	e9 d7 00 00 00       	jmpq   12c99 <func_40+0xf04>
   12bc2:	48 c7 85 f0 f6 ff ff 	movq   $0x0,-0x910(%rbp)
   12bc9:	00 00 00 00 
   12bcd:	48 8d 05 b8 a4 00 00 	lea    0xa4b8(%rip),%rax        # 1d08c <g_85>
   12bd4:	48 89 85 f8 f6 ff ff 	mov    %rax,-0x908(%rbp)
   12bdb:	48 c7 85 00 f7 ff ff 	movq   $0x0,-0x900(%rbp)
   12be2:	00 00 00 00 
   12be6:	48 8d 05 9f a4 00 00 	lea    0xa49f(%rip),%rax        # 1d08c <g_85>
   12bed:	48 89 85 08 f7 ff ff 	mov    %rax,-0x8f8(%rbp)
   12bf4:	48 8d 05 dd a9 00 00 	lea    0xa9dd(%rip),%rax        # 1d5d8 <g_1515>
   12bfb:	48 89 85 10 f7 ff ff 	mov    %rax,-0x8f0(%rbp)
   12c02:	48 c7 85 18 f7 ff ff 	movq   $0x0,-0x8e8(%rbp)
   12c09:	00 00 00 00 
   12c0d:	48 c7 85 90 f7 ff ff 	movq   $0x0,-0x870(%rbp)
   12c14:	00 00 00 00 
   12c18:	48 8d 85 8c f5 ff ff 	lea    -0xa74(%rbp),%rax
   12c1f:	48 89 85 98 f7 ff ff 	mov    %rax,-0x868(%rbp)
   12c26:	48 c7 85 a0 f7 ff ff 	movq   $0x0,-0x860(%rbp)
   12c2d:	00 00 00 00 
   12c31:	48 c7 85 a8 f7 ff ff 	movq   $0x0,-0x858(%rbp)
   12c38:	00 00 00 00 
   12c3c:	48 8d 85 8c f5 ff ff 	lea    -0xa74(%rbp),%rax
   12c43:	48 89 85 b0 f7 ff ff 	mov    %rax,-0x850(%rbp)
   12c4a:	48 c7 85 b8 f7 ff ff 	movq   $0x0,-0x848(%rbp)
   12c51:	00 00 00 00 
   12c55:	48 c7 85 c0 f7 ff ff 	movq   $0x0,-0x840(%rbp)
   12c5c:	00 00 00 00 
   12c60:	48 83 ad 08 f6 ff ff 	subq   $0x1,-0x9f8(%rbp)
   12c67:	01 
   12c68:	0f b7 05 e5 a4 00 00 	movzwl 0xa4e5(%rip),%eax        # 1d154 <g_440>
   12c6f:	98                   	cwtl   
   12c70:	83 c0 02             	add    $0x2,%eax
   12c73:	48 98                	cltq   
   12c75:	48 8d 14 85 00 00 00 	lea    0x0(,%rax,4),%rdx
   12c7c:	00 
   12c7d:	48 8d 05 64 a4 00 00 	lea    0xa464(%rip),%rax        # 1d0e8 <g_232>
   12c84:	8b 04 02             	mov    (%rdx,%rax,1),%eax
   12c87:	85 c0                	test   %eax,%eax
   12c89:	0f b6 05 78 a4 00 00 	movzbl 0xa478(%rip),%eax        # 1d108 <g_274>
   12c90:	83 c0 01             	add    $0x1,%eax
   12c93:	88 05 6f a4 00 00    	mov    %al,0xa46f(%rip)        # 1d108 <g_274>
   12c99:	0f b6 05 68 a4 00 00 	movzbl 0xa468(%rip),%eax        # 1d108 <g_274>
   12ca0:	3c 07                	cmp    $0x7,%al
   12ca2:	0f 86 1a ff ff ff    	jbe    12bc2 <func_40+0xe2d>
   12ca8:	48 8b 85 f0 f5 ff ff 	mov    -0xa10(%rbp),%rax
   12caf:	48 8b 00             	mov    (%rax),%rax
   12cb2:	8b 10                	mov    (%rax),%edx
   12cb4:	8b 05 a2 a9 00 00    	mov    0xa9a2(%rip),%eax        # 1d65c <g_2177>
   12cba:	89 c1                	mov    %eax,%ecx
   12cbc:	48 8b 85 f0 f5 ff ff 	mov    -0xa10(%rbp),%rax
   12cc3:	48 8b 00             	mov    (%rax),%rax
   12cc6:	31 ca                	xor    %ecx,%edx
   12cc8:	89 10                	mov    %edx,(%rax)
   12cca:	8b 10                	mov    (%rax),%edx
   12ccc:	48 8b 85 70 f7 ff ff 	mov    -0x890(%rbp),%rax
   12cd3:	48 85 c0             	test   %rax,%rax
   12cd6:	75 09                	jne    12ce1 <func_40+0xf4c>
   12cd8:	48 c7 c6 fd ff ff ff 	mov    $0xfffffffffffffffd,%rsi
   12cdf:	eb 07                	jmp    12ce8 <func_40+0xf53>
   12ce1:	48 c7 c6 fc ff ff ff 	mov    $0xfffffffffffffffc,%rsi
   12ce8:	48 8b 85 68 f5 ff ff 	mov    -0xa98(%rbp),%rax
   12cef:	8b 00                	mov    (%rax),%eax
   12cf1:	21 c2                	and    %eax,%edx
   12cf3:	48 8b 85 68 f5 ff ff 	mov    -0xa98(%rbp),%rax
   12cfa:	89 10                	mov    %edx,(%rax)
   12cfc:	48 8b 85 68 f5 ff ff 	mov    -0xa98(%rbp),%rax
   12d03:	8b 10                	mov    (%rax),%edx
   12d05:	8b 85 b4 f5 ff ff    	mov    -0xa4c(%rbp),%eax
   12d0b:	39 c2                	cmp    %eax,%edx
   12d0d:	0f 97 c0             	seta   %al
   12d10:	0f b6 d0             	movzbl %al,%edx
   12d13:	0f b7 85 2c f7 ff ff 	movzwl -0x8d4(%rbp),%eax
   12d1a:	0f bf c8             	movswl %ax,%ecx
   12d1d:	48 8b 85 50 f5 ff ff 	mov    -0xab0(%rbp),%rax
   12d24:	8b 00                	mov    (%rax),%eax
   12d26:	39 c1                	cmp    %eax,%ecx
   12d28:	0f 94 c0             	sete   %al
   12d2b:	0f b6 c0             	movzbl %al,%eax
   12d2e:	39 c2                	cmp    %eax,%edx
   12d30:	7c 07                	jl     12d39 <func_40+0xfa4>
   12d32:	b8 33 b6 81 97       	mov    $0x9781b633,%eax
   12d37:	eb 05                	jmp    12d3e <func_40+0xfa9>
   12d39:	b8 32 b6 81 97       	mov    $0x9781b632,%eax
   12d3e:	48 31 f0             	xor    %rsi,%rax
   12d41:	48 89 c2             	mov    %rax,%rdx
   12d44:	48 b8 7d 3f d5 d4 41 	movabs $0xe1d6df41d4d53f7d,%rax
   12d4b:	df d6 e1 
   12d4e:	48 39 c2             	cmp    %rax,%rdx
   12d51:	0f 97 c0             	seta   %al
   12d54:	0f b6 d0             	movzbl %al,%edx
   12d57:	48 8b 05 1a df 00 00 	mov    0xdf1a(%rip),%rax        # 20c78 <g_2041>
   12d5e:	48 8b 00             	mov    (%rax),%rax
   12d61:	8b 00                	mov    (%rax),%eax
   12d63:	39 c2                	cmp    %eax,%edx
   12d65:	0f 9f c0             	setg   %al
   12d68:	0f b6 d0             	movzbl %al,%edx
   12d6b:	0f b7 85 2a f7 ff ff 	movzwl -0x8d6(%rbp),%eax
   12d72:	98                   	cwtl   
   12d73:	21 c2                	and    %eax,%edx
   12d75:	48 8b 85 30 f6 ff ff 	mov    -0x9d0(%rbp),%rax
   12d7c:	8b 00                	mov    (%rax),%eax
   12d7e:	31 c2                	xor    %eax,%edx
   12d80:	48 8b 85 30 f6 ff ff 	mov    -0x9d0(%rbp),%rax
   12d87:	89 10                	mov    %edx,(%rax)
   12d89:	e9 bd 00 00 00       	jmpq   12e4b <func_40+0x10b6>
   12d8e:	48 8d 85 e8 f5 ff ff 	lea    -0xa18(%rbp),%rax
   12d95:	48 89 85 e0 f6 ff ff 	mov    %rax,-0x920(%rbp)
   12d9c:	48 8b 85 10 f6 ff ff 	mov    -0x9f0(%rbp),%rax
   12da3:	48 89 85 e0 f6 ff ff 	mov    %rax,-0x920(%rbp)
   12daa:	48 8b 85 e8 f5 ff ff 	mov    -0xa18(%rbp),%rax
   12db1:	48 8b 00             	mov    (%rax),%rax
   12db4:	0f b7 95 64 f5 ff ff 	movzwl -0xa9c(%rbp),%edx
   12dbb:	89 10                	mov    %edx,(%rax)
   12dbd:	8b 10                	mov    (%rax),%edx
   12dbf:	0f b7 85 64 f5 ff ff 	movzwl -0xa9c(%rbp),%eax
   12dc6:	39 c2                	cmp    %eax,%edx
   12dc8:	48 8b 05 99 d0 00 00 	mov    0xd099(%rip),%rax        # 1fe68 <g_152>
   12dcf:	0f b7 00             	movzwl (%rax),%eax
   12dd2:	0f b7 c0             	movzwl %ax,%eax
   12dd5:	25 ab ba 00 00       	and    $0xbaab,%eax
   12dda:	48 85 c0             	test   %rax,%rax
   12ddd:	75 0a                	jne    12de9 <func_40+0x1054>
   12ddf:	8b 85 a0 f5 ff ff    	mov    -0xa60(%rbp),%eax
   12de5:	85 c0                	test   %eax,%eax
   12de7:	74 07                	je     12df0 <func_40+0x105b>
   12de9:	b8 01 00 00 00       	mov    $0x1,%eax
   12dee:	eb 05                	jmp    12df5 <func_40+0x1060>
   12df0:	b8 00 00 00 00       	mov    $0x0,%eax
   12df5:	89 c7                	mov    %eax,%edi
   12df7:	e8 9a 77 ff ff       	callq  a596 <safe_unary_minus_func_int32_t_s>
   12dfc:	0f b7 95 86 f5 ff ff 	movzwl -0xa7a(%rbp),%edx
   12e03:	48 89 d1             	mov    %rdx,%rcx
   12e06:	83 e1 40             	and    $0x40,%ecx
   12e09:	0f b7 95 64 f5 ff ff 	movzwl -0xa9c(%rbp),%edx
   12e10:	48 39 d1             	cmp    %rdx,%rcx
   12e13:	0f 9d c2             	setge  %dl
   12e16:	0f b6 ca             	movzbl %dl,%ecx
   12e19:	8b 95 a4 f5 ff ff    	mov    -0xa5c(%rbp),%edx
   12e1f:	39 d1                	cmp    %edx,%ecx
   12e21:	0f 9c c2             	setl   %dl
   12e24:	0f b6 ca             	movzbl %dl,%ecx
   12e27:	48 8b 15 82 d3 00 00 	mov    0xd382(%rip),%rdx        # 201b0 <g_1366>
   12e2e:	48 8b 12             	mov    (%rdx),%rdx
   12e31:	48 8b 12             	mov    (%rdx),%rdx
   12e34:	0f b6 12             	movzbl (%rdx),%edx
   12e37:	0f be d2             	movsbl %dl,%edx
   12e3a:	31 ca                	xor    %ecx,%edx
   12e3c:	39 d0                	cmp    %edx,%eax
   12e3e:	48 8b 85 30 f6 ff ff 	mov    -0x9d0(%rbp),%rax
   12e45:	c7 00 00 00 00 00    	movl   $0x0,(%rax)
   12e4b:	0f b6 05 5e a5 00 00 	movzbl 0xa55e(%rip),%eax        # 1d3b0 <g_1293>
   12e52:	83 e8 01             	sub    $0x1,%eax
   12e55:	88 05 55 a5 00 00    	mov    %al,0xa555(%rip)        # 1d3b0 <g_1293>
   12e5b:	0f b6 05 4e a5 00 00 	movzbl 0xa54e(%rip),%eax        # 1d3b0 <g_1293>
   12e62:	3c 02                	cmp    $0x2,%al
   12e64:	0f 8f 35 fa ff ff    	jg     1289f <func_40+0xb0a>
   12e6a:	c7 85 d0 f5 ff ff 00 	movl   $0x0,-0xa30(%rbp)
   12e71:	00 00 00 
   12e74:	83 bd d0 f5 ff ff 00 	cmpl   $0x0,-0xa30(%rbp)
   12e7b:	0f 8f 9d 01 00 00    	jg     1301e <func_40+0x1289>
   12e81:	c6 85 7f f5 ff ff 72 	movb   $0x72,-0xa81(%rbp)
   12e88:	c7 85 d4 f5 ff ff 3a 	movl   $0x8d669f3a,-0xa2c(%rbp)
   12e8f:	9f 66 8d 
   12e92:	c7 05 b4 a2 00 00 00 	movl   $0x0,0xa2b4(%rip)        # 1d150 <g_419>
   12e99:	00 00 00 
   12e9c:	e9 35 01 00 00       	jmpq   12fd6 <func_40+0x1241>
   12ea1:	48 8d 85 a0 f5 ff ff 	lea    -0xa60(%rbp),%rax
   12ea8:	48 89 85 70 f6 ff ff 	mov    %rax,-0x990(%rbp)
   12eaf:	c7 85 a8 f5 ff ff fc 	movl   $0xfffffffc,-0xa58(%rbp)
   12eb6:	ff ff ff 
   12eb9:	48 8d 85 a0 f5 ff ff 	lea    -0xa60(%rbp),%rax
   12ec0:	48 89 85 78 f6 ff ff 	mov    %rax,-0x988(%rbp)
   12ec7:	48 c7 85 80 f6 ff ff 	movq   $0x0,-0x980(%rbp)
   12ece:	00 00 00 00 
   12ed2:	48 c7 85 88 f6 ff ff 	movq   $0x0,-0x978(%rbp)
   12ed9:	00 00 00 00 
   12edd:	48 8d 85 a4 f5 ff ff 	lea    -0xa5c(%rbp),%rax
   12ee4:	48 89 85 90 f6 ff ff 	mov    %rax,-0x970(%rbp)
   12eeb:	48 8d 05 e6 a6 00 00 	lea    0xa6e6(%rip),%rax        # 1d5d8 <g_1515>
   12ef2:	48 89 85 98 f6 ff ff 	mov    %rax,-0x968(%rbp)
   12ef9:	48 8d 85 a8 f5 ff ff 	lea    -0xa58(%rbp),%rax
   12f00:	48 89 85 a0 f6 ff ff 	mov    %rax,-0x960(%rbp)
   12f07:	48 8d 05 4e a7 00 00 	lea    0xa74e(%rip),%rax        # 1d65c <g_2177>
   12f0e:	48 89 85 a8 f6 ff ff 	mov    %rax,-0x958(%rbp)
   12f15:	48 8d 85 a0 f5 ff ff 	lea    -0xa60(%rbp),%rax
   12f1c:	48 89 85 b0 f6 ff ff 	mov    %rax,-0x950(%rbp)
   12f23:	48 8d 85 94 f5 ff ff 	lea    -0xa6c(%rbp),%rax
   12f2a:	48 89 85 b8 f6 ff ff 	mov    %rax,-0x948(%rbp)
   12f31:	48 c7 85 c0 f6 ff ff 	movq   $0x0,-0x940(%rbp)
   12f38:	00 00 00 00 
   12f3c:	48 8d 85 98 f5 ff ff 	lea    -0xa68(%rbp),%rax
   12f43:	48 89 85 c8 f6 ff ff 	mov    %rax,-0x938(%rbp)
   12f4a:	48 8d 85 8c f5 ff ff 	lea    -0xa74(%rbp),%rax
   12f51:	48 89 85 d0 f6 ff ff 	mov    %rax,-0x930(%rbp)
   12f58:	48 8d 05 79 a6 00 00 	lea    0xa679(%rip),%rax        # 1d5d8 <g_1515>
   12f5f:	48 89 85 90 f7 ff ff 	mov    %rax,-0x870(%rbp)
   12f66:	48 8d 05 6b a6 00 00 	lea    0xa66b(%rip),%rax        # 1d5d8 <g_1515>
   12f6d:	48 89 85 98 f7 ff ff 	mov    %rax,-0x868(%rbp)
   12f74:	48 8d 05 5d a6 00 00 	lea    0xa65d(%rip),%rax        # 1d5d8 <g_1515>
   12f7b:	48 89 85 a0 f7 ff ff 	mov    %rax,-0x860(%rbp)
   12f82:	48 8d 05 4f a6 00 00 	lea    0xa64f(%rip),%rax        # 1d5d8 <g_1515>
   12f89:	48 89 85 a8 f7 ff ff 	mov    %rax,-0x858(%rbp)
   12f90:	48 8b 85 30 f6 ff ff 	mov    -0x9d0(%rbp),%rax
   12f97:	8b 10                	mov    (%rax),%edx
   12f99:	8b 85 9c f5 ff ff    	mov    -0xa64(%rbp),%eax
   12f9f:	21 c2                	and    %eax,%edx
   12fa1:	48 8b 85 30 f6 ff ff 	mov    -0x9d0(%rbp),%rax
   12fa8:	89 10                	mov    %edx,(%rax)
   12faa:	48 8b 85 30 f6 ff ff 	mov    -0x9d0(%rbp),%rax
   12fb1:	8b 00                	mov    (%rax),%eax
   12fb3:	85 c0                	test   %eax,%eax
   12fb5:	75 30                	jne    12fe7 <func_40+0x1252>
   12fb7:	0f b6 85 7f f5 ff ff 	movzbl -0xa81(%rbp),%eax
   12fbe:	83 c0 01             	add    $0x1,%eax
   12fc1:	88 85 7f f5 ff ff    	mov    %al,-0xa81(%rbp)
   12fc7:	8b 05 83 a1 00 00    	mov    0xa183(%rip),%eax        # 1d150 <g_419>
   12fcd:	83 c0 01             	add    $0x1,%eax
   12fd0:	89 05 7a a1 00 00    	mov    %eax,0xa17a(%rip)        # 1d150 <g_419>
   12fd6:	8b 05 74 a1 00 00    	mov    0xa174(%rip),%eax        # 1d150 <g_419>
   12fdc:	83 f8 03             	cmp    $0x3,%eax
   12fdf:	0f 86 bc fe ff ff    	jbe    12ea1 <func_40+0x110c>
   12fe5:	eb 01                	jmp    12fe8 <func_40+0x1253>
   12fe7:	90                   	nop
   12fe8:	48 8b 05 f9 d0 00 00 	mov    0xd0f9(%rip),%rax        # 200e8 <g_882>
   12fef:	8b 00                	mov    (%rax),%eax
   12ff1:	89 85 d4 f5 ff ff    	mov    %eax,-0xa2c(%rbp)
   12ff7:	48 8b 05 72 ce 00 00 	mov    0xce72(%rip),%rax        # 1fe70 <g_166>
   12ffe:	8b 08                	mov    (%rax),%ecx
   13000:	0f b7 95 64 f5 ff ff 	movzwl -0xa9c(%rbp),%edx
   13007:	48 8b 05 62 ce 00 00 	mov    0xce62(%rip),%rax        # 1fe70 <g_166>
   1300e:	21 ca                	and    %ecx,%edx
   13010:	89 10                	mov    %edx,(%rax)
   13012:	0f b7 85 64 f5 ff ff 	movzwl -0xa9c(%rbp),%eax
   13019:	e9 93 05 00 00       	jmpq   135b1 <func_40+0x181c>
   1301e:	0f b7 05 db a5 00 00 	movzwl 0xa5db(%rip),%eax        # 1d600 <g_1626>
   13025:	83 e8 01             	sub    $0x1,%eax
   13028:	66 89 05 d1 a5 00 00 	mov    %ax,0xa5d1(%rip)        # 1d600 <g_1626>
   1302f:	0f b7 05 ca a5 00 00 	movzwl 0xa5ca(%rip),%eax        # 1d600 <g_1626>
   13036:	66 85 c0             	test   %ax,%ax
   13039:	0f 89 6b f3 ff ff    	jns    123aa <func_40+0x615>
   1303f:	66 c7 05 b8 a5 00 00 	movw   $0x0,0xa5b8(%rip)        # 1d600 <g_1626>
   13046:	00 00 
   13048:	e9 0d 05 00 00       	jmpq   1355a <func_40+0x17c5>
   1304d:	48 8d 05 54 d1 00 00 	lea    0xd154(%rip),%rax        # 201a8 <g_1327>
   13054:	48 89 85 50 f6 ff ff 	mov    %rax,-0x9b0(%rbp)
   1305b:	c7 85 c8 f5 ff ff 68 	movl   $0x35e8f168,-0xa38(%rbp)
   13062:	f1 e8 35 
   13065:	48 8d 85 90 f5 ff ff 	lea    -0xa70(%rbp),%rax
   1306c:	48 89 85 58 f6 ff ff 	mov    %rax,-0x9a8(%rbp)
   13073:	48 8d 85 94 f5 ff ff 	lea    -0xa6c(%rbp),%rax
   1307a:	48 89 85 60 f6 ff ff 	mov    %rax,-0x9a0(%rbp)
   13081:	48 8d 85 50 f7 ff ff 	lea    -0x8b0(%rbp),%rax
   13088:	48 83 c0 14          	add    $0x14,%rax
   1308c:	48 89 85 f0 fc ff ff 	mov    %rax,-0x310(%rbp)
   13093:	48 8d 85 90 f5 ff ff 	lea    -0xa70(%rbp),%rax
   1309a:	48 89 85 f8 fc ff ff 	mov    %rax,-0x308(%rbp)
   130a1:	48 c7 85 00 fd ff ff 	movq   $0x0,-0x300(%rbp)
   130a8:	00 00 00 00 
   130ac:	48 8d 05 25 a5 00 00 	lea    0xa525(%rip),%rax        # 1d5d8 <g_1515>
   130b3:	48 89 85 08 fd ff ff 	mov    %rax,-0x2f8(%rbp)
   130ba:	48 8d 85 94 f5 ff ff 	lea    -0xa6c(%rbp),%rax
   130c1:	48 89 85 10 fd ff ff 	mov    %rax,-0x2f0(%rbp)
   130c8:	48 8d 85 50 f7 ff ff 	lea    -0x8b0(%rbp),%rax
   130cf:	48 83 c0 14          	add    $0x14,%rax
   130d3:	48 89 85 18 fd ff ff 	mov    %rax,-0x2e8(%rbp)
   130da:	48 8d 05 ab 9f 00 00 	lea    0x9fab(%rip),%rax        # 1d08c <g_85>
   130e1:	48 89 85 20 fd ff ff 	mov    %rax,-0x2e0(%rbp)
   130e8:	48 8d 85 94 f5 ff ff 	lea    -0xa6c(%rbp),%rax
   130ef:	48 89 85 28 fd ff ff 	mov    %rax,-0x2d8(%rbp)
   130f6:	48 8d 85 90 f5 ff ff 	lea    -0xa70(%rbp),%rax
   130fd:	48 89 85 30 fd ff ff 	mov    %rax,-0x2d0(%rbp)
   13104:	48 8d 85 90 f5 ff ff 	lea    -0xa70(%rbp),%rax
   1310b:	48 89 85 38 fd ff ff 	mov    %rax,-0x2c8(%rbp)
   13112:	48 8d 85 94 f5 ff ff 	lea    -0xa6c(%rbp),%rax
   13119:	48 89 85 40 fd ff ff 	mov    %rax,-0x2c0(%rbp)
   13120:	48 c7 85 48 fd ff ff 	movq   $0x0,-0x2b8(%rbp)
   13127:	00 00 00 00 
   1312b:	48 8d 85 50 f7 ff ff 	lea    -0x8b0(%rbp),%rax
   13132:	48 83 c0 14          	add    $0x14,%rax
   13136:	48 89 85 50 fd ff ff 	mov    %rax,-0x2b0(%rbp)
   1313d:	48 c7 85 58 fd ff ff 	movq   $0x0,-0x2a8(%rbp)
   13144:	00 00 00 00 
   13148:	48 c7 85 60 fd ff ff 	movq   $0x0,-0x2a0(%rbp)
   1314f:	00 00 00 00 
   13153:	48 8d 85 50 f7 ff ff 	lea    -0x8b0(%rbp),%rax
   1315a:	48 83 c0 14          	add    $0x14,%rax
   1315e:	48 89 85 68 fd ff ff 	mov    %rax,-0x298(%rbp)
   13165:	48 c7 85 70 fd ff ff 	movq   $0x0,-0x290(%rbp)
   1316c:	00 00 00 00 
   13170:	48 8d 85 94 f5 ff ff 	lea    -0xa6c(%rbp),%rax
   13177:	48 89 85 78 fd ff ff 	mov    %rax,-0x288(%rbp)
   1317e:	48 8d 85 94 f5 ff ff 	lea    -0xa6c(%rbp),%rax
   13185:	48 89 85 80 fd ff ff 	mov    %rax,-0x280(%rbp)
   1318c:	48 8d 85 98 f5 ff ff 	lea    -0xa68(%rbp),%rax
   13193:	48 89 85 88 fd ff ff 	mov    %rax,-0x278(%rbp)
   1319a:	48 8d 85 50 f7 ff ff 	lea    -0x8b0(%rbp),%rax
   131a1:	48 83 c0 14          	add    $0x14,%rax
   131a5:	48 89 85 90 fd ff ff 	mov    %rax,-0x270(%rbp)
   131ac:	48 8d 85 9c f5 ff ff 	lea    -0xa64(%rbp),%rax
   131b3:	48 89 85 98 fd ff ff 	mov    %rax,-0x268(%rbp)
   131ba:	48 c7 85 a0 fd ff ff 	movq   $0x0,-0x260(%rbp)
   131c1:	00 00 00 00 
   131c5:	48 8d 85 50 f7 ff ff 	lea    -0x8b0(%rbp),%rax
   131cc:	48 83 c0 14          	add    $0x14,%rax
   131d0:	48 89 85 a8 fd ff ff 	mov    %rax,-0x258(%rbp)
   131d7:	48 8d 85 50 f7 ff ff 	lea    -0x8b0(%rbp),%rax
   131de:	48 83 c0 1c          	add    $0x1c,%rax
   131e2:	48 89 85 b0 fd ff ff 	mov    %rax,-0x250(%rbp)
   131e9:	48 c7 85 b8 fd ff ff 	movq   $0x0,-0x248(%rbp)
   131f0:	00 00 00 00 
   131f4:	48 8d 85 98 f5 ff ff 	lea    -0xa68(%rbp),%rax
   131fb:	48 89 85 c0 fd ff ff 	mov    %rax,-0x240(%rbp)
   13202:	48 8d 85 98 f5 ff ff 	lea    -0xa68(%rbp),%rax
   13209:	48 89 85 c8 fd ff ff 	mov    %rax,-0x238(%rbp)
   13210:	48 8d 85 9c f5 ff ff 	lea    -0xa64(%rbp),%rax
   13217:	48 89 85 d0 fd ff ff 	mov    %rax,-0x230(%rbp)
   1321e:	48 c7 85 d8 fd ff ff 	movq   $0x0,-0x228(%rbp)
   13225:	00 00 00 00 
   13229:	48 8d 85 50 f7 ff ff 	lea    -0x8b0(%rbp),%rax
   13230:	48 83 c0 14          	add    $0x14,%rax
   13234:	48 89 85 e0 fd ff ff 	mov    %rax,-0x220(%rbp)
   1323b:	48 8d 85 9c f5 ff ff 	lea    -0xa64(%rbp),%rax
   13242:	48 89 85 e8 fd ff ff 	mov    %rax,-0x218(%rbp)
   13249:	48 8d 05 3c 9e 00 00 	lea    0x9e3c(%rip),%rax        # 1d08c <g_85>
   13250:	48 89 85 f0 fd ff ff 	mov    %rax,-0x210(%rbp)
   13257:	48 8d 85 50 f7 ff ff 	lea    -0x8b0(%rbp),%rax
   1325e:	48 83 c0 18          	add    $0x18,%rax
   13262:	48 89 85 f8 fd ff ff 	mov    %rax,-0x208(%rbp)
   13269:	48 8d 05 1c 9e 00 00 	lea    0x9e1c(%rip),%rax        # 1d08c <g_85>
   13270:	48 89 85 00 fe ff ff 	mov    %rax,-0x200(%rbp)
   13277:	48 8d 85 9c f5 ff ff 	lea    -0xa64(%rbp),%rax
   1327e:	48 89 85 08 fe ff ff 	mov    %rax,-0x1f8(%rbp)
   13285:	48 8d 05 4c a3 00 00 	lea    0xa34c(%rip),%rax        # 1d5d8 <g_1515>
   1328c:	48 89 85 10 fe ff ff 	mov    %rax,-0x1f0(%rbp)
   13293:	48 8d 85 98 f5 ff ff 	lea    -0xa68(%rbp),%rax
   1329a:	48 89 85 18 fe ff ff 	mov    %rax,-0x1e8(%rbp)
   132a1:	48 8d 85 98 f5 ff ff 	lea    -0xa68(%rbp),%rax
   132a8:	48 89 85 20 fe ff ff 	mov    %rax,-0x1e0(%rbp)
   132af:	48 8d 05 22 a3 00 00 	lea    0xa322(%rip),%rax        # 1d5d8 <g_1515>
   132b6:	48 89 85 28 fe ff ff 	mov    %rax,-0x1d8(%rbp)
   132bd:	48 c7 85 30 fe ff ff 	movq   $0x0,-0x1d0(%rbp)
   132c4:	00 00 00 00 
   132c8:	48 8d 85 94 f5 ff ff 	lea    -0xa6c(%rbp),%rax
   132cf:	48 89 85 38 fe ff ff 	mov    %rax,-0x1c8(%rbp)
   132d6:	48 8d 85 94 f5 ff ff 	lea    -0xa6c(%rbp),%rax
   132dd:	48 89 85 40 fe ff ff 	mov    %rax,-0x1c0(%rbp)
   132e4:	48 8d 85 90 f5 ff ff 	lea    -0xa70(%rbp),%rax
   132eb:	48 89 85 48 fe ff ff 	mov    %rax,-0x1b8(%rbp)
   132f2:	48 8d 85 98 f5 ff ff 	lea    -0xa68(%rbp),%rax
   132f9:	48 89 85 50 fe ff ff 	mov    %rax,-0x1b0(%rbp)
   13300:	48 8d 85 90 f5 ff ff 	lea    -0xa70(%rbp),%rax
   13307:	48 89 85 58 fe ff ff 	mov    %rax,-0x1a8(%rbp)
   1330e:	48 8d 85 94 f5 ff ff 	lea    -0xa6c(%rbp),%rax
   13315:	48 89 85 60 fe ff ff 	mov    %rax,-0x1a0(%rbp)
   1331c:	48 c7 85 68 fe ff ff 	movq   $0x0,-0x198(%rbp)
   13323:	00 00 00 00 
   13327:	48 8d 85 88 f5 ff ff 	lea    -0xa78(%rbp),%rax
   1332e:	48 89 85 70 fe ff ff 	mov    %rax,-0x190(%rbp)
   13335:	48 c7 85 78 fe ff ff 	movq   $0x0,-0x188(%rbp)
   1333c:	00 00 00 00 
   13340:	48 8d 85 9c f5 ff ff 	lea    -0xa64(%rbp),%rax
   13347:	48 89 85 80 fe ff ff 	mov    %rax,-0x180(%rbp)
   1334e:	48 8d 85 50 f7 ff ff 	lea    -0x8b0(%rbp),%rax
   13355:	48 83 c0 18          	add    $0x18,%rax
   13359:	48 89 85 88 fe ff ff 	mov    %rax,-0x178(%rbp)
   13360:	48 8d 85 94 f5 ff ff 	lea    -0xa6c(%rbp),%rax
   13367:	48 89 85 90 fe ff ff 	mov    %rax,-0x170(%rbp)
   1336e:	48 8d 85 94 f5 ff ff 	lea    -0xa6c(%rbp),%rax
   13375:	48 89 85 98 fe ff ff 	mov    %rax,-0x168(%rbp)
   1337c:	48 8d 85 50 f7 ff ff 	lea    -0x8b0(%rbp),%rax
   13383:	48 83 c0 1c          	add    $0x1c,%rax
   13387:	48 89 85 a0 fe ff ff 	mov    %rax,-0x160(%rbp)
   1338e:	48 8d 85 90 f5 ff ff 	lea    -0xa70(%rbp),%rax
   13395:	48 89 85 a8 fe ff ff 	mov    %rax,-0x158(%rbp)
   1339c:	48 c7 85 b0 fe ff ff 	movq   $0x0,-0x150(%rbp)
   133a3:	00 00 00 00 
   133a7:	48 8d 85 9c f5 ff ff 	lea    -0xa64(%rbp),%rax
   133ae:	48 89 85 b8 fe ff ff 	mov    %rax,-0x148(%rbp)
   133b5:	48 c7 85 c0 fe ff ff 	movq   $0x0,-0x140(%rbp)
   133bc:	00 00 00 00 
   133c0:	48 8d 85 90 f5 ff ff 	lea    -0xa70(%rbp),%rax
   133c7:	48 89 85 c8 fe ff ff 	mov    %rax,-0x138(%rbp)
   133ce:	48 8d 85 50 f7 ff ff 	lea    -0x8b0(%rbp),%rax
   133d5:	48 83 c0 1c          	add    $0x1c,%rax
   133d9:	48 89 85 d0 fe ff ff 	mov    %rax,-0x130(%rbp)
   133e0:	48 8d 85 98 f5 ff ff 	lea    -0xa68(%rbp),%rax
   133e7:	48 89 85 d8 fe ff ff 	mov    %rax,-0x128(%rbp)
   133ee:	48 8d 85 90 f5 ff ff 	lea    -0xa70(%rbp),%rax
   133f5:	48 89 85 e0 fe ff ff 	mov    %rax,-0x120(%rbp)
   133fc:	48 8d 85 88 f5 ff ff 	lea    -0xa78(%rbp),%rax
   13403:	48 89 85 e8 fe ff ff 	mov    %rax,-0x118(%rbp)
   1340a:	48 8d 05 7b 9c 00 00 	lea    0x9c7b(%rip),%rax        # 1d08c <g_85>
   13411:	48 89 85 f0 fe ff ff 	mov    %rax,-0x110(%rbp)
   13418:	48 c7 85 f8 fe ff ff 	movq   $0x0,-0x108(%rbp)
   1341f:	00 00 00 00 
   13423:	48 8d 85 98 f5 ff ff 	lea    -0xa68(%rbp),%rax
   1342a:	48 89 85 00 ff ff ff 	mov    %rax,-0x100(%rbp)
   13431:	48 8d 85 9c f5 ff ff 	lea    -0xa64(%rbp),%rax
   13438:	48 89 85 08 ff ff ff 	mov    %rax,-0xf8(%rbp)
   1343f:	48 c7 85 10 ff ff ff 	movq   $0x0,-0xf0(%rbp)
   13446:	00 00 00 00 
   1344a:	48 8d 85 50 f7 ff ff 	lea    -0x8b0(%rbp),%rax
   13451:	48 83 c0 14          	add    $0x14,%rax
   13455:	48 89 85 18 ff ff ff 	mov    %rax,-0xe8(%rbp)
   1345c:	48 8d 85 9c f5 ff ff 	lea    -0xa64(%rbp),%rax
   13463:	48 89 85 20 ff ff ff 	mov    %rax,-0xe0(%rbp)
   1346a:	48 8d 05 1b 9c 00 00 	lea    0x9c1b(%rip),%rax        # 1d08c <g_85>
   13471:	48 89 85 28 ff ff ff 	mov    %rax,-0xd8(%rbp)
   13478:	48 8d 85 50 f7 ff ff 	lea    -0x8b0(%rbp),%rax
   1347f:	48 83 c0 1c          	add    $0x1c,%rax
   13483:	48 89 85 30 ff ff ff 	mov    %rax,-0xd0(%rbp)
   1348a:	48 c7 85 38 ff ff ff 	movq   $0x0,-0xc8(%rbp)
   13491:	00 00 00 00 
   13495:	48 8d 85 98 f5 ff ff 	lea    -0xa68(%rbp),%rax
   1349c:	48 89 85 40 ff ff ff 	mov    %rax,-0xc0(%rbp)
   134a3:	48 8d 05 e2 9b 00 00 	lea    0x9be2(%rip),%rax        # 1d08c <g_85>
   134aa:	48 89 85 48 ff ff ff 	mov    %rax,-0xb8(%rbp)
   134b1:	48 c7 85 50 ff ff ff 	movq   $0x0,-0xb0(%rbp)
   134b8:	00 00 00 00 
   134bc:	48 c7 85 58 ff ff ff 	movq   $0x0,-0xa8(%rbp)
   134c3:	00 00 00 00 
   134c7:	48 8d 05 be 9b 00 00 	lea    0x9bbe(%rip),%rax        # 1d08c <g_85>
   134ce:	48 89 85 60 ff ff ff 	mov    %rax,-0xa0(%rbp)
   134d5:	48 8d 85 98 f5 ff ff 	lea    -0xa68(%rbp),%rax
   134dc:	48 89 85 68 ff ff ff 	mov    %rax,-0x98(%rbp)
   134e3:	48 c7 85 70 ff ff ff 	movq   $0x0,-0x90(%rbp)
   134ea:	00 00 00 00 
   134ee:	48 8d 85 90 f5 ff ff 	lea    -0xa70(%rbp),%rax
   134f5:	48 89 85 78 ff ff ff 	mov    %rax,-0x88(%rbp)
   134fc:	48 c7 45 80 00 00 00 	movq   $0x0,-0x80(%rbp)
   13503:	00 
   13504:	48 c7 45 88 00 00 00 	movq   $0x0,-0x78(%rbp)
   1350b:	00 
   1350c:	48 8d 85 50 f7 ff ff 	lea    -0x8b0(%rbp),%rax
   13513:	48 83 c0 18          	add    $0x18,%rax
   13517:	48 89 45 90          	mov    %rax,-0x70(%rbp)
   1351b:	48 c7 45 98 00 00 00 	movq   $0x0,-0x68(%rbp)
   13522:	00 
   13523:	48 c7 45 a0 00 00 00 	movq   $0x0,-0x60(%rbp)
   1352a:	00 
   1352b:	48 8d 85 90 f5 ff ff 	lea    -0xa70(%rbp),%rax
   13532:	48 89 45 a8          	mov    %rax,-0x58(%rbp)
   13536:	48 8d 85 94 f5 ff ff 	lea    -0xa6c(%rbp),%rax
   1353d:	48 89 45 b0          	mov    %rax,-0x50(%rbp)
   13541:	48 c7 45 b8 00 00 00 	movq   $0x0,-0x48(%rbp)
   13548:	00 
   13549:	0f b7 05 b0 a0 00 00 	movzwl 0xa0b0(%rip),%eax        # 1d600 <g_1626>
   13550:	83 c0 01             	add    $0x1,%eax
   13553:	66 89 05 a6 a0 00 00 	mov    %ax,0xa0a6(%rip)        # 1d600 <g_1626>
   1355a:	0f b7 05 9f a0 00 00 	movzwl 0xa09f(%rip),%eax        # 1d600 <g_1626>
   13561:	66 85 c0             	test   %ax,%ax
   13564:	0f 8e e3 fa ff ff    	jle    1304d <func_40+0x12b8>
   1356a:	0f b7 05 e3 9b 00 00 	movzwl 0x9be3(%rip),%eax        # 1d154 <g_440>
   13571:	83 e8 01             	sub    $0x1,%eax
   13574:	66 89 05 d9 9b 00 00 	mov    %ax,0x9bd9(%rip)        # 1d154 <g_440>
   1357b:	0f b7 05 d2 9b 00 00 	movzwl 0x9bd2(%rip),%eax        # 1d154 <g_440>
   13582:	66 85 c0             	test   %ax,%ax
   13585:	0f 89 26 eb ff ff    	jns    120b1 <func_40+0x31c>
   1358b:	c7 05 ab 9b 00 00 0a 	movl   $0xa,0x9bab(%rip)        # 1d140 <g_359>
   13592:	00 00 00 
   13595:	90                   	nop
   13596:	8b 05 a4 9b 00 00    	mov    0x9ba4(%rip),%eax        # 1d140 <g_359>
   1359c:	83 f8 0a             	cmp    $0xa,%eax
   1359f:	74 09                	je     135aa <func_40+0x1815>
   135a1:	0f b7 85 64 f5 ff ff 	movzwl -0xa9c(%rbp),%eax
   135a8:	eb 07                	jmp    135b1 <func_40+0x181c>
   135aa:	48 8b 85 20 f7 ff ff 	mov    -0x8e0(%rbp),%rax
   135b1:	48 8b 5d c8          	mov    -0x38(%rbp),%rbx
   135b5:	64 48 33 1c 25 28 00 	xor    %fs:0x28,%rbx
   135bc:	00 00 
   135be:	74 05                	je     135c5 <func_40+0x1830>
   135c0:	e8 ab 6a ff ff       	callq  a070 <__stack_chk_fail@plt>
   135c5:	48 81 c4 98 0a 00 00 	add    $0xa98,%rsp
   135cc:	5b                   	pop    %rbx
   135cd:	41 5c                	pop    %r12
   135cf:	41 5d                	pop    %r13
   135d1:	41 5e                	pop    %r14
   135d3:	41 5f                	pop    %r15
   135d5:	5d                   	pop    %rbp
   135d6:	c3                   	retq   

00000000000135d7 <func_45>:
   135d7:	f3 0f 1e fa          	endbr64 
   135db:	55                   	push   %rbp
   135dc:	48 89 e5             	mov    %rsp,%rbp
   135df:	48 81 ec 90 08 00 00 	sub    $0x890,%rsp
   135e6:	48 89 bd 88 f7 ff ff 	mov    %rdi,-0x878(%rbp)
   135ed:	89 f0                	mov    %esi,%eax
   135ef:	48 89 95 78 f7 ff ff 	mov    %rdx,-0x888(%rbp)
   135f6:	88 85 84 f7 ff ff    	mov    %al,-0x87c(%rbp)
   135fc:	64 48 8b 04 25 28 00 	mov    %fs:0x28,%rax
   13603:	00 00 
   13605:	48 89 45 f8          	mov    %rax,-0x8(%rbp)
   13609:	31 c0                	xor    %eax,%eax
   1360b:	c6 85 93 f7 ff ff f7 	movb   $0xf7,-0x86d(%rbp)
   13612:	c7 85 c0 f7 ff ff 02 	movl   $0x2,-0x840(%rbp)
   13619:	00 00 00 
   1361c:	c7 85 c4 f7 ff ff 02 	movl   $0x2,-0x83c(%rbp)
   13623:	00 00 00 
   13626:	c7 85 c8 f7 ff ff 02 	movl   $0x2,-0x838(%rbp)
   1362d:	00 00 00 
   13630:	c7 85 cc f7 ff ff 02 	movl   $0x2,-0x834(%rbp)
   13637:	00 00 00 
   1363a:	c7 85 d0 f7 ff ff 02 	movl   $0x2,-0x830(%rbp)
   13641:	00 00 00 
   13644:	c7 85 d4 f7 ff ff 02 	movl   $0x2,-0x82c(%rbp)
   1364b:	00 00 00 
   1364e:	c7 85 d8 f7 ff ff 02 	movl   $0x2,-0x828(%rbp)
   13655:	00 00 00 
   13658:	c7 85 dc f7 ff ff 02 	movl   $0x2,-0x824(%rbp)
   1365f:	00 00 00 
   13662:	c7 85 e0 f7 ff ff 02 	movl   $0x2,-0x820(%rbp)
   13669:	00 00 00 
   1366c:	c7 85 e4 f7 ff ff 02 	movl   $0x2,-0x81c(%rbp)
   13673:	00 00 00 
   13676:	c7 85 e8 f7 ff ff 02 	movl   $0x2,-0x818(%rbp)
   1367d:	00 00 00 
   13680:	c7 85 ec f7 ff ff 02 	movl   $0x2,-0x814(%rbp)
   13687:	00 00 00 
   1368a:	c7 85 f0 f7 ff ff 02 	movl   $0x2,-0x810(%rbp)
   13691:	00 00 00 
   13694:	c7 85 f4 f7 ff ff 02 	movl   $0x2,-0x80c(%rbp)
   1369b:	00 00 00 
   1369e:	c7 85 f8 f7 ff ff 02 	movl   $0x2,-0x808(%rbp)
   136a5:	00 00 00 
   136a8:	c7 85 fc f7 ff ff 02 	movl   $0x2,-0x804(%rbp)
   136af:	00 00 00 
   136b2:	c7 85 00 f8 ff ff 02 	movl   $0x2,-0x800(%rbp)
   136b9:	00 00 00 
   136bc:	c7 85 04 f8 ff ff 02 	movl   $0x2,-0x7fc(%rbp)
   136c3:	00 00 00 
   136c6:	c7 85 08 f8 ff ff 02 	movl   $0x2,-0x7f8(%rbp)
   136cd:	00 00 00 
   136d0:	c7 85 0c f8 ff ff 02 	movl   $0x2,-0x7f4(%rbp)
   136d7:	00 00 00 
   136da:	c7 85 10 f8 ff ff 02 	movl   $0x2,-0x7f0(%rbp)
   136e1:	00 00 00 
   136e4:	c7 85 14 f8 ff ff 02 	movl   $0x2,-0x7ec(%rbp)
   136eb:	00 00 00 
   136ee:	c7 85 18 f8 ff ff 02 	movl   $0x2,-0x7e8(%rbp)
   136f5:	00 00 00 
   136f8:	c7 85 1c f8 ff ff 02 	movl   $0x2,-0x7e4(%rbp)
   136ff:	00 00 00 
   13702:	c7 85 20 f8 ff ff 02 	movl   $0x2,-0x7e0(%rbp)
   13709:	00 00 00 
   1370c:	c7 85 24 f8 ff ff 02 	movl   $0x2,-0x7dc(%rbp)
   13713:	00 00 00 
   13716:	c7 85 28 f8 ff ff 02 	movl   $0x2,-0x7d8(%rbp)
   1371d:	00 00 00 
   13720:	c7 85 2c f8 ff ff 02 	movl   $0x2,-0x7d4(%rbp)
   13727:	00 00 00 
   1372a:	c7 85 30 f8 ff ff 02 	movl   $0x2,-0x7d0(%rbp)
   13731:	00 00 00 
   13734:	c7 85 34 f8 ff ff 02 	movl   $0x2,-0x7cc(%rbp)
   1373b:	00 00 00 
   1373e:	c7 85 38 f8 ff ff 02 	movl   $0x2,-0x7c8(%rbp)
   13745:	00 00 00 
   13748:	c7 85 3c f8 ff ff 02 	movl   $0x2,-0x7c4(%rbp)
   1374f:	00 00 00 
   13752:	c7 85 40 f8 ff ff 02 	movl   $0x2,-0x7c0(%rbp)
   13759:	00 00 00 
   1375c:	c7 85 44 f8 ff ff 02 	movl   $0x2,-0x7bc(%rbp)
   13763:	00 00 00 
   13766:	c7 85 48 f8 ff ff 02 	movl   $0x2,-0x7b8(%rbp)
   1376d:	00 00 00 
   13770:	c7 85 4c f8 ff ff 02 	movl   $0x2,-0x7b4(%rbp)
   13777:	00 00 00 
   1377a:	c7 85 50 f8 ff ff 02 	movl   $0x2,-0x7b0(%rbp)
   13781:	00 00 00 
   13784:	c7 85 54 f8 ff ff 02 	movl   $0x2,-0x7ac(%rbp)
   1378b:	00 00 00 
   1378e:	c7 85 58 f8 ff ff 02 	movl   $0x2,-0x7a8(%rbp)
   13795:	00 00 00 
   13798:	c7 85 5c f8 ff ff 02 	movl   $0x2,-0x7a4(%rbp)
   1379f:	00 00 00 
   137a2:	c7 85 60 f8 ff ff 02 	movl   $0x2,-0x7a0(%rbp)
   137a9:	00 00 00 
   137ac:	c7 85 64 f8 ff ff 02 	movl   $0x2,-0x79c(%rbp)
   137b3:	00 00 00 
   137b6:	48 8d 85 70 f8 ff ff 	lea    -0x790(%rbp),%rax
   137bd:	48 8d 15 1c bf 00 00 	lea    0xbf1c(%rip),%rdx        # 1f6e0 <g_4132+0x1a50>
   137c4:	b9 f0 00 00 00       	mov    $0xf0,%ecx
   137c9:	48 89 c7             	mov    %rax,%rdi
   137cc:	48 89 d6             	mov    %rdx,%rsi
   137cf:	f3 48 a5             	rep movsq %ds:(%rsi),%es:(%rdi)
   137d2:	c7 85 94 f7 ff ff cd 	movl   $0x9d94b9cd,-0x86c(%rbp)
   137d9:	b9 94 9d 
   137dc:	48 c7 85 a0 f7 ff ff 	movq   $0x0,-0x860(%rbp)
   137e3:	00 00 00 00 
   137e7:	48 8d 05 da c8 00 00 	lea    0xc8da(%rip),%rax        # 200c8 <g_689>
   137ee:	48 89 85 a8 f7 ff ff 	mov    %rax,-0x858(%rbp)
   137f5:	48 c7 85 b0 f7 ff ff 	movq   $0x1,-0x850(%rbp)
   137fc:	01 00 00 00 
   13800:	c7 85 98 f7 ff ff fb 	movl   $0xfffffffb,-0x868(%rbp)
   13807:	ff ff ff 
   1380a:	c7 85 9c f7 ff ff 30 	movl   $0x79d34a30,-0x864(%rbp)
   13811:	4a d3 79 
   13814:	48 c7 85 b8 f7 ff ff 	movq   $0x0,-0x848(%rbp)
   1381b:	00 00 00 00 
   1381f:	48 8d 05 0a 99 00 00 	lea    0x990a(%rip),%rax        # 1d130 <g_301>
   13826:	48 8b 4d f8          	mov    -0x8(%rbp),%rcx
   1382a:	64 48 33 0c 25 28 00 	xor    %fs:0x28,%rcx
   13831:	00 00 
   13833:	74 05                	je     1383a <func_45+0x263>
   13835:	e8 36 68 ff ff       	callq  a070 <__stack_chk_fail@plt>
   1383a:	c9                   	leaveq 
   1383b:	c3                   	retq   

000000000001383c <func_50>:
   1383c:	f3 0f 1e fa          	endbr64 
   13840:	55                   	push   %rbp
   13841:	48 89 e5             	mov    %rsp,%rbp
   13844:	41 55                	push   %r13
   13846:	41 54                	push   %r12
   13848:	53                   	push   %rbx
   13849:	48 81 ec a8 04 00 00 	sub    $0x4a8,%rsp
   13850:	89 bd 5c fb ff ff    	mov    %edi,-0x4a4(%rbp)
   13856:	48 89 b5 50 fb ff ff 	mov    %rsi,-0x4b0(%rbp)
   1385d:	89 c8                	mov    %ecx,%eax
   1385f:	4c 89 85 40 fb ff ff 	mov    %r8,-0x4c0(%rbp)
   13866:	88 95 58 fb ff ff    	mov    %dl,-0x4a8(%rbp)
   1386c:	66 89 85 4c fb ff ff 	mov    %ax,-0x4b4(%rbp)
   13873:	64 48 8b 04 25 28 00 	mov    %fs:0x28,%rax
   1387a:	00 00 
   1387c:	48 89 45 d8          	mov    %rax,-0x28(%rbp)
   13880:	31 c0                	xor    %eax,%eax
   13882:	c7 85 70 fb ff ff fd 	movl   $0xfffffffd,-0x490(%rbp)
   13889:	ff ff ff 
   1388c:	c6 85 6d fb ff ff 01 	movb   $0x1,-0x493(%rbp)
   13893:	48 b8 f7 ff 70 43 ff 	movabs $0x7043ffff4370fff7,%rax
   1389a:	ff 43 70 
   1389d:	48 89 85 d0 fb ff ff 	mov    %rax,-0x430(%rbp)
   138a4:	66 c7 85 d8 fb ff ff 	movw   $0xf7ff,-0x428(%rbp)
   138ab:	ff f7 
   138ad:	48 b8 ff 70 01 00 ff 	movabs $0xff0101ff000170ff,%rax
   138b4:	01 01 ff 
   138b7:	48 89 85 da fb ff ff 	mov    %rax,-0x426(%rbp)
   138be:	66 c7 85 e2 fb ff ff 	movw   $0x100,-0x41e(%rbp)
   138c5:	00 01 
   138c7:	48 b8 ff ff 43 70 ff 	movabs $0x7070f7ff7043ffff,%rax
   138ce:	f7 70 70 
   138d1:	48 89 85 e4 fb ff ff 	mov    %rax,-0x41c(%rbp)
   138d8:	66 c7 85 ec fb ff ff 	movw   $0xfff7,-0x414(%rbp)
   138df:	f7 ff 
   138e1:	48 b9 ff 01 01 ff 00 	movabs $0x700100ff0101ff,%rcx
   138e8:	01 70 00 
   138eb:	48 89 8d ee fb ff ff 	mov    %rcx,-0x412(%rbp)
   138f2:	66 c7 85 f6 fb ff ff 	movw   $0x7000,-0x40a(%rbp)
   138f9:	00 70 
   138fb:	48 bb 00 ff 01 01 ff 	movabs $0x700100ff0101ff00,%rbx
   13902:	00 01 70 
   13905:	48 89 9d f8 fb ff ff 	mov    %rbx,-0x408(%rbp)
   1390c:	66 c7 85 00 fc ff ff 	movw   $0x0,-0x400(%rbp)
   13913:	00 00 
   13915:	48 be ff 70 43 ff ff 	movabs $0xff7043ffff4370ff,%rsi
   1391c:	43 70 ff 
   1391f:	48 89 b5 02 fc ff ff 	mov    %rsi,-0x3fe(%rbp)
   13926:	66 c7 85 0a fc ff ff 	movw   $0x70f7,-0x3f6(%rbp)
   1392d:	f7 70 
   1392f:	48 bf ff 00 01 70 00 	movabs $0x1700000700100ff,%rdi
   13936:	00 70 01 
   13939:	48 89 bd 0c fc ff ff 	mov    %rdi,-0x3f4(%rbp)
   13940:	66 c7 85 14 fc ff ff 	movw   $0xff00,-0x3ec(%rbp)
   13947:	00 ff 
   13949:	48 bf 00 70 01 00 ff 	movabs $0xff0101ff00017000,%rdi
   13950:	01 01 ff 
   13953:	48 89 bd 16 fc ff ff 	mov    %rdi,-0x3ea(%rbp)
   1395a:	66 c7 85 1e fc ff ff 	movw   $0x100,-0x3e2(%rbp)
   13961:	00 01 
   13963:	48 89 85 20 fc ff ff 	mov    %rax,-0x3e0(%rbp)
   1396a:	66 c7 85 28 fc ff ff 	movw   $0xfff7,-0x3d8(%rbp)
   13971:	f7 ff 
   13973:	48 89 8d 2a fc ff ff 	mov    %rcx,-0x3d6(%rbp)
   1397a:	66 c7 85 32 fc ff ff 	movw   $0x7000,-0x3ce(%rbp)
   13981:	00 70 
   13983:	48 89 9d 34 fc ff ff 	mov    %rbx,-0x3cc(%rbp)
   1398a:	66 c7 85 3c fc ff ff 	movw   $0x0,-0x3c4(%rbp)
   13991:	00 00 
   13993:	48 89 b5 3e fc ff ff 	mov    %rsi,-0x3c2(%rbp)
   1399a:	66 c7 85 46 fc ff ff 	movw   $0x70f7,-0x3ba(%rbp)
   139a1:	f7 70 
   139a3:	48 8d 05 fe c7 00 00 	lea    0xc7fe(%rip),%rax        # 201a8 <g_1327>
   139aa:	48 89 85 88 fb ff ff 	mov    %rax,-0x478(%rbp)
   139b1:	48 8d 85 88 fb ff ff 	lea    -0x478(%rbp),%rax
   139b8:	48 89 85 a8 fb ff ff 	mov    %rax,-0x458(%rbp)
   139bf:	48 8d 05 36 9c 00 00 	lea    0x9c36(%rip),%rax        # 1d5fc <g_1624>
   139c6:	48 89 85 b0 fb ff ff 	mov    %rax,-0x450(%rbp)
   139cd:	48 c7 85 b8 fb ff ff 	movq   $0x0,-0x448(%rbp)
   139d4:	00 00 00 00 
   139d8:	c6 85 6e fb ff ff ae 	movb   $0xae,-0x492(%rbp)
   139df:	c7 85 74 fb ff ff 4c 	movl   $0xbc9db04c,-0x48c(%rbp)
   139e6:	b0 9d bc 
   139e9:	c7 85 78 fb ff ff 22 	movl   $0xf3837322,-0x488(%rbp)
   139f0:	73 83 f3 
   139f3:	c7 85 7c fb ff ff bf 	movl   $0x6a42f4bf,-0x484(%rbp)
   139fa:	f4 42 6a 
   139fd:	c7 85 80 fb ff ff 15 	movl   $0x9bacd415,-0x480(%rbp)
   13a04:	d4 ac 9b 
   13a07:	48 8d 85 50 fc ff ff 	lea    -0x3b0(%rbp),%rax
   13a0e:	48 8d 15 cb 53 00 00 	lea    0x53cb(%rip),%rdx        # 18de0 <g_4129+0x960>
   13a15:	b9 70 00 00 00       	mov    $0x70,%ecx
   13a1a:	48 89 c7             	mov    %rax,%rdi
   13a1d:	48 89 d6             	mov    %rdx,%rsi
   13a20:	f3 48 a5             	rep movsq %ds:(%rsi),%es:(%rdi)
   13a23:	c6 85 6f fb ff ff e2 	movb   $0xe2,-0x491(%rbp)
   13a2a:	48 8d 05 7f c4 00 00 	lea    0xc47f(%rip),%rax        # 1feb0 <g_327>
   13a31:	48 89 85 c0 fb ff ff 	mov    %rax,-0x440(%rbp)
   13a38:	48 b8 52 55 68 9d 4a 	movabs $0x22427c4a9d685552,%rax
   13a3f:	7c 42 22 
   13a42:	48 89 85 c8 fb ff ff 	mov    %rax,-0x438(%rbp)
   13a49:	48 8d 05 40 96 00 00 	lea    0x9640(%rip),%rax        # 1d090 <g_122>
   13a50:	48 89 85 90 fb ff ff 	mov    %rax,-0x470(%rbp)
   13a57:	48 8d 85 78 fb ff ff 	lea    -0x488(%rbp),%rax
   13a5e:	48 89 85 98 fb ff ff 	mov    %rax,-0x468(%rbp)
   13a65:	48 8d 05 04 96 00 00 	lea    0x9604(%rip),%rax        # 1d070 <g_57+0x30>
   13a6c:	48 89 85 a0 fb ff ff 	mov    %rax,-0x460(%rbp)
   13a73:	c7 05 df 96 00 00 00 	movl   $0x0,0x96df(%rip)        # 1d15c <g_461>
   13a7a:	00 00 00 
   13a7d:	eb 40                	jmp    13abf <func_50+0x283>
   13a7f:	c7 85 84 fb ff ff 1f 	movl   $0x4b47f11f,-0x47c(%rbp)
   13a86:	f1 47 4b 
   13a89:	83 85 84 fb ff ff 01 	addl   $0x1,-0x47c(%rbp)
   13a90:	48 8b 15 f1 c6 00 00 	mov    0xc6f1(%rip),%rdx        # 20188 <g_1077>
   13a97:	48 8b 05 22 d0 00 00 	mov    0xd022(%rip),%rax        # 20ac0 <g_1661>
   13a9e:	48 8b 12             	mov    (%rdx),%rdx
   13aa1:	48 89 10             	mov    %rdx,(%rax)
   13aa4:	8b 05 b2 96 00 00    	mov    0x96b2(%rip),%eax        # 1d15c <g_461>
   13aaa:	89 c0                	mov    %eax,%eax
   13aac:	be 01 00 00 00       	mov    $0x1,%esi
   13ab1:	48 89 c7             	mov    %rax,%rdi
   13ab4:	e8 88 6d ff ff       	callq  a841 <safe_add_func_int64_t_s_s>
   13ab9:	89 05 9d 96 00 00    	mov    %eax,0x969d(%rip)        # 1d15c <g_461>
   13abf:	8b 05 97 96 00 00    	mov    0x9697(%rip),%eax        # 1d15c <g_461>
   13ac5:	83 f8 31             	cmp    $0x31,%eax
   13ac8:	76 b5                	jbe    13a7f <func_50+0x243>
   13aca:	0f b6 85 6d fb ff ff 	movzbl -0x493(%rbp),%eax
   13ad1:	66 98                	cbtw   
   13ad3:	0f b7 d8             	movzwl %ax,%ebx
   13ad6:	8b 85 70 fb ff ff    	mov    -0x490(%rbp),%eax
   13adc:	48 98                	cltq   
   13ade:	48 39 85 50 fb ff ff 	cmp    %rax,-0x4b0(%rbp)
   13ae5:	0f 92 c0             	setb   %al
   13ae8:	44 0f b6 e0          	movzbl %al,%r12d
   13aec:	48 8b 85 50 fb ff ff 	mov    -0x4b0(%rbp),%rax
   13af3:	0f be c0             	movsbl %al,%eax
   13af6:	be 01 00 00 00       	mov    $0x1,%esi
   13afb:	89 c7                	mov    %eax,%edi
   13afd:	e8 6a 68 ff ff       	callq  a36c <safe_rshift_func_int8_t_s_u>
   13b02:	89 c2                	mov    %eax,%edx
   13b04:	48 8b 05 5d c3 00 00 	mov    0xc35d(%rip),%rax        # 1fe68 <g_152>
   13b0b:	66 0f be d2          	movsbw %dl,%dx
   13b0f:	66 89 10             	mov    %dx,(%rax)
   13b12:	0f b7 00             	movzwl (%rax),%eax
   13b15:	0f b7 c0             	movzwl %ax,%eax
   13b18:	44 89 e6             	mov    %r12d,%esi
   13b1b:	89 c7                	mov    %eax,%edi
   13b1d:	e8 1b 72 ff ff       	callq  ad3d <safe_mul_func_uint16_t_u_u>
   13b22:	0f b7 d0             	movzwl %ax,%edx
   13b25:	0f b7 85 4c fb ff ff 	movzwl -0x4b4(%rbp),%eax
   13b2c:	0f be c0             	movsbl %al,%eax
   13b2f:	89 d6                	mov    %edx,%esi
   13b31:	89 c7                	mov    %eax,%edi
   13b33:	e8 34 68 ff ff       	callq  a36c <safe_rshift_func_int8_t_s_u>
   13b38:	48 8b 05 81 c5 00 00 	mov    0xc581(%rip),%rax        # 200c0 <g_686>
   13b3f:	b8 01 00 00 00       	mov    $0x1,%eax
   13b44:	0f b7 c0             	movzwl %ax,%eax
   13b47:	89 de                	mov    %ebx,%esi
   13b49:	89 c7                	mov    %eax,%edi
   13b4b:	e8 3e 72 ff ff       	callq  ad8e <safe_div_func_uint16_t_u_u>
   13b50:	89 c2                	mov    %eax,%edx
   13b52:	48 8b 05 17 c3 00 00 	mov    0xc317(%rip),%rax        # 1fe70 <g_166>
   13b59:	0f b7 d2             	movzwl %dx,%edx
   13b5c:	89 10                	mov    %edx,(%rax)
   13b5e:	0f b6 85 20 fc ff ff 	movzbl -0x3e0(%rbp),%eax
   13b65:	0f b6 d8             	movzbl %al,%ebx
   13b68:	48 83 bd b0 fb ff ff 	cmpq   $0x0,-0x450(%rbp)
   13b6f:	00 
   13b70:	0f 94 c0             	sete   %al
   13b73:	0f b6 d0             	movzbl %al,%edx
   13b76:	48 8b 85 b0 fb ff ff 	mov    -0x450(%rbp),%rax
   13b7d:	66 89 10             	mov    %dx,(%rax)
   13b80:	48 83 bd a8 fb ff ff 	cmpq   $0x0,-0x458(%rbp)
   13b87:	00 
   13b88:	0f 95 c0             	setne  %al
   13b8b:	0f b6 c0             	movzbl %al,%eax
   13b8e:	89 c6                	mov    %eax,%esi
   13b90:	bf 2f 00 00 00       	mov    $0x2f,%edi
   13b95:	e8 58 66 ff ff       	callq  a1f2 <safe_sub_func_int8_t_s_s>
   13b9a:	0f be c0             	movsbl %al,%eax
   13b9d:	21 d8                	and    %ebx,%eax
   13b9f:	85 c0                	test   %eax,%eax
   13ba1:	0f 85 84 00 00 00    	jne    13c2b <func_50+0x3ef>
   13ba7:	48 83 bd b8 fb ff ff 	cmpq   $0x0,-0x448(%rbp)
   13bae:	00 
   13baf:	48 8b 85 40 fb ff ff 	mov    -0x4c0(%rbp),%rax
   13bb6:	0f bf d8             	movswl %ax,%ebx
   13bb9:	44 0f b6 a5 6e fb ff 	movzbl -0x492(%rbp),%r12d
   13bc0:	ff 
   13bc1:	0f b6 85 6d fb ff ff 	movzbl -0x493(%rbp),%eax
   13bc8:	66 98                	cbtw   
   13bca:	0f b7 c0             	movzwl %ax,%eax
   13bcd:	89 c6                	mov    %eax,%esi
   13bcf:	bf 00 00 00 00       	mov    $0x0,%edi
   13bd4:	e8 46 71 ff ff       	callq  ad1f <safe_sub_func_uint16_t_u_u>
   13bd9:	0f be c0             	movsbl %al,%eax
   13bdc:	44 89 e6             	mov    %r12d,%esi
   13bdf:	89 c7                	mov    %eax,%edi
   13be1:	e8 08 67 ff ff       	callq  a2ee <safe_lshift_func_int8_t_s_u>
   13be6:	66 0f be c8          	movsbw %al,%cx
   13bea:	0f b6 95 6e fb ff ff 	movzbl -0x492(%rbp),%edx
   13bf1:	48 8b 05 f8 c4 00 00 	mov    0xc4f8(%rip),%rax        # 200f0 <g_984>
   13bf8:	09 ca                	or     %ecx,%edx
   13bfa:	66 89 10             	mov    %dx,(%rax)
   13bfd:	0f b7 00             	movzwl (%rax),%eax
   13c00:	98                   	cwtl   
   13c01:	89 de                	mov    %ebx,%esi
   13c03:	89 c7                	mov    %eax,%edi
   13c05:	e8 c9 67 ff ff       	callq  a3d3 <safe_sub_func_int16_t_s_s>
   13c0a:	89 c2                	mov    %eax,%edx
   13c0c:	48 8b 05 95 c5 00 00 	mov    0xc595(%rip),%rax        # 201a8 <g_1327>
   13c13:	48 0f bf d2          	movswq %dx,%rdx
   13c17:	48 89 10             	mov    %rdx,(%rax)
   13c1a:	48 b8 25 89 74 a8 a0 	movabs $0xf5b205a0a8748925,%rax
   13c21:	05 b2 f5 
   13c24:	48 39 85 50 fb ff ff 	cmp    %rax,-0x4b0(%rbp)
   13c2b:	48 8b 15 7e c5 00 00 	mov    0xc57e(%rip),%rdx        # 201b0 <g_1366>
   13c32:	48 8b 05 77 c5 00 00 	mov    0xc577(%rip),%rax        # 201b0 <g_1366>
   13c39:	48 8b 12             	mov    (%rdx),%rdx
   13c3c:	48 89 10             	mov    %rdx,(%rax)
   13c3f:	48 8b 85 c8 fb ff ff 	mov    -0x438(%rbp),%rax
   13c46:	0f b7 d8             	movzwl %ax,%ebx
   13c49:	48 8b 05 80 c2 00 00 	mov    0xc280(%rip),%rax        # 1fed0 <g_435>
   13c50:	48 8b 00             	mov    (%rax),%rax
   13c53:	0f b6 00             	movzbl (%rax),%eax
   13c56:	44 0f b6 e0          	movzbl %al,%r12d
   13c5a:	48 8b 85 50 fb ff ff 	mov    -0x4b0(%rbp),%rax
   13c61:	41 89 c5             	mov    %eax,%r13d
   13c64:	be 07 00 00 00       	mov    $0x7,%esi
   13c69:	bf 7a 00 00 00       	mov    $0x7a,%edi
   13c6e:	e8 2e 66 ff ff       	callq  a2a1 <safe_lshift_func_int8_t_s_s>
   13c73:	48 0f be c0          	movsbq %al,%rax
   13c77:	48 be e6 ce 4c 04 57 	movabs $0xec334057044ccee6,%rsi
   13c7e:	40 33 ec 
   13c81:	48 89 c7             	mov    %rax,%rdi
   13c84:	e8 1f 6c ff ff       	callq  a8a8 <safe_sub_func_int64_t_s_s>
   13c89:	48 8b 05 48 c2 00 00 	mov    0xc248(%rip),%rax        # 1fed8 <g_533>
   13c90:	0f b6 00             	movzbl (%rax),%eax
   13c93:	0f b6 c0             	movzbl %al,%eax
   13c96:	be 1a 00 00 00       	mov    $0x1a,%esi
   13c9b:	89 c7                	mov    %eax,%edi
   13c9d:	e8 d6 6e ff ff       	callq  ab78 <safe_sub_func_uint8_t_u_u>
   13ca2:	48 83 bd c0 fb ff ff 	cmpq   $0x0,-0x440(%rbp)
   13ca9:	00 
   13caa:	0f 95 c0             	setne  %al
   13cad:	0f b6 c8             	movzbl %al,%ecx
   13cb0:	48 8b 05 b9 c1 00 00 	mov    0xc1b9(%rip),%rax        # 1fe70 <g_166>
   13cb7:	8b 10                	mov    (%rax),%edx
   13cb9:	48 8b 05 b0 c1 00 00 	mov    0xc1b0(%rip),%rax        # 1fe70 <g_166>
   13cc0:	09 ca                	or     %ecx,%edx
   13cc2:	89 10                	mov    %edx,(%rax)
   13cc4:	8b 00                	mov    (%rax),%eax
   13cc6:	44 89 ee             	mov    %r13d,%esi
   13cc9:	89 c7                	mov    %eax,%edi
   13ccb:	e8 e6 68 ff ff       	callq  a5b6 <safe_add_func_int32_t_s_s>
   13cd0:	98                   	cwtl   
   13cd1:	be 09 00 00 00       	mov    $0x9,%esi
   13cd6:	89 c7                	mov    %eax,%edi
   13cd8:	e8 4d 68 ff ff       	callq  a52a <safe_rshift_func_int16_t_s_s>
   13cdd:	f7 d0                	not    %eax
   13cdf:	66 c1 e8 0f          	shr    $0xf,%ax
   13ce3:	0f b6 c0             	movzbl %al,%eax
   13ce6:	be 05 00 00 00       	mov    $0x5,%esi
   13ceb:	89 c7                	mov    %eax,%edi
   13ced:	e8 af 65 ff ff       	callq  a2a1 <safe_lshift_func_int8_t_s_s>
   13cf2:	48 8b 05 af c2 00 00 	mov    0xc2af(%rip),%rax        # 1ffa8 <g_608>
   13cf9:	48 8b 00             	mov    (%rax),%rax
   13cfc:	0f b6 00             	movzbl (%rax),%eax
   13cff:	0f b6 c0             	movzbl %al,%eax
   13d02:	44 89 e6             	mov    %r12d,%esi
   13d05:	89 c7                	mov    %eax,%edi
   13d07:	e8 6c 6e ff ff       	callq  ab78 <safe_sub_func_uint8_t_u_u>
   13d0c:	0f b6 d0             	movzbl %al,%edx
   13d0f:	48 8b 05 da c3 00 00 	mov    0xc3da(%rip),%rax        # 200f0 <g_984>
   13d16:	0f b7 00             	movzwl (%rax),%eax
   13d19:	98                   	cwtl   
   13d1a:	39 c2                	cmp    %eax,%edx
   13d1c:	0f 9c c0             	setl   %al
   13d1f:	0f b6 c0             	movzbl %al,%eax
   13d22:	be 76 00 00 00       	mov    $0x76,%esi
   13d27:	89 c7                	mov    %eax,%edi
   13d29:	e8 3c 65 ff ff       	callq  a26a <safe_div_func_int8_t_s_s>
   13d2e:	66 98                	cbtw   
   13d30:	0f b7 d0             	movzwl %ax,%edx
   13d33:	8b 85 5c fb ff ff    	mov    -0x4a4(%rbp),%eax
   13d39:	0f b7 c0             	movzwl %ax,%eax
   13d3c:	89 d6                	mov    %edx,%esi
   13d3e:	89 c7                	mov    %eax,%edi
   13d40:	e8 49 70 ff ff       	callq  ad8e <safe_div_func_uint16_t_u_u>
   13d45:	48 8b 85 50 fb ff ff 	mov    -0x4b0(%rbp),%rax
   13d4c:	0f b7 c0             	movzwl %ax,%eax
   13d4f:	89 de                	mov    %ebx,%esi
   13d51:	89 c7                	mov    %eax,%edi
   13d53:	e8 e5 6f ff ff       	callq  ad3d <safe_mul_func_uint16_t_u_u>
   13d58:	0f b6 c0             	movzbl %al,%eax
   13d5b:	be 01 00 00 00       	mov    $0x1,%esi
   13d60:	89 c7                	mov    %eax,%edi
   13d62:	e8 2c 6e ff ff       	callq  ab93 <safe_mul_func_uint8_t_u_u>
   13d67:	0f b6 c0             	movzbl %al,%eax
   13d6a:	be fb ff 00 00       	mov    $0xfffb,%esi
   13d6f:	89 c7                	mov    %eax,%edi
   13d71:	e8 18 70 ff ff       	callq  ad8e <safe_div_func_uint16_t_u_u>
   13d76:	0f b7 d0             	movzwl %ax,%edx
   13d79:	48 8b 85 90 fb ff ff 	mov    -0x470(%rbp),%rax
   13d80:	89 10                	mov    %edx,(%rax)
   13d82:	48 8b 85 90 fb ff ff 	mov    -0x470(%rbp),%rax
   13d89:	8b 10                	mov    (%rax),%edx
   13d8b:	0f b6 85 6e fb ff ff 	movzbl -0x492(%rbp),%eax
   13d92:	39 c2                	cmp    %eax,%edx
   13d94:	0f 92 c0             	setb   %al
   13d97:	0f b6 d0             	movzbl %al,%edx
   13d9a:	48 8b 85 98 fb ff ff 	mov    -0x468(%rbp),%rax
   13da1:	89 10                	mov    %edx,(%rax)
   13da3:	48 8b 85 a0 fb ff ff 	mov    -0x460(%rbp),%rax
   13daa:	48 8b 4d d8          	mov    -0x28(%rbp),%rcx
   13dae:	64 48 33 0c 25 28 00 	xor    %fs:0x28,%rcx
   13db5:	00 00 
   13db7:	74 05                	je     13dbe <func_50+0x582>
   13db9:	e8 b2 62 ff ff       	callq  a070 <__stack_chk_fail@plt>
   13dbe:	48 81 c4 a8 04 00 00 	add    $0x4a8,%rsp
   13dc5:	5b                   	pop    %rbx
   13dc6:	41 5c                	pop    %r12
   13dc8:	41 5d                	pop    %r13
   13dca:	5d                   	pop    %rbp
   13dcb:	c3                   	retq   

0000000000013dcc <func_58>:
   13dcc:	f3 0f 1e fa          	endbr64 
   13dd0:	55                   	push   %rbp
   13dd1:	48 89 e5             	mov    %rsp,%rbp
   13dd4:	41 55                	push   %r13
   13dd6:	41 54                	push   %r12
   13dd8:	53                   	push   %rbx
   13dd9:	48 81 ec 68 07 00 00 	sub    $0x768,%rsp
   13de0:	48 89 bd a8 f8 ff ff 	mov    %rdi,-0x758(%rbp)
   13de7:	48 89 b5 a0 f8 ff ff 	mov    %rsi,-0x760(%rbp)
   13dee:	48 89 95 98 f8 ff ff 	mov    %rdx,-0x768(%rbp)
   13df5:	48 89 8d 90 f8 ff ff 	mov    %rcx,-0x770(%rbp)
   13dfc:	4c 89 85 88 f8 ff ff 	mov    %r8,-0x778(%rbp)
   13e03:	64 48 8b 04 25 28 00 	mov    %fs:0x28,%rax
   13e0a:	00 00 
   13e0c:	48 89 45 d8          	mov    %rax,-0x28(%rbp)
   13e10:	31 c0                	xor    %eax,%eax
   13e12:	c7 85 00 fa ff ff ff 	movl   $0xffffffff,-0x600(%rbp)
   13e19:	ff ff ff 
   13e1c:	c7 85 04 fa ff ff 8d 	movl   $0x14daae8d,-0x5fc(%rbp)
   13e23:	ae da 14 
   13e26:	c7 85 08 fa ff ff ff 	movl   $0xffffffff,-0x5f8(%rbp)
   13e2d:	ff ff ff 
   13e30:	c7 85 0c fa ff ff 01 	movl   $0x1,-0x5f4(%rbp)
   13e37:	00 00 00 
   13e3a:	c7 85 10 fa ff ff 8e 	movl   $0x2603458e,-0x5f0(%rbp)
   13e41:	45 03 26 
   13e44:	c7 85 14 fa ff ff 01 	movl   $0x1,-0x5ec(%rbp)
   13e4b:	00 00 00 
   13e4e:	c7 85 18 fa ff ff ff 	movl   $0xffffffff,-0x5e8(%rbp)
   13e55:	ff ff ff 
   13e58:	c7 85 1c fa ff ff 8d 	movl   $0x14daae8d,-0x5e4(%rbp)
   13e5f:	ae da 14 
   13e62:	c7 85 20 fa ff ff ff 	movl   $0xffffffff,-0x5e0(%rbp)
   13e69:	ff ff ff 
   13e6c:	c7 85 24 fa ff ff 01 	movl   $0x1,-0x5dc(%rbp)
   13e73:	00 00 00 
   13e76:	c7 85 28 fa ff ff 8e 	movl   $0x2603458e,-0x5d8(%rbp)
   13e7d:	45 03 26 
   13e80:	c7 85 2c fa ff ff 01 	movl   $0x1,-0x5d4(%rbp)
   13e87:	00 00 00 
   13e8a:	48 8d 05 c7 91 00 00 	lea    0x91c7(%rip),%rax        # 1d058 <g_57+0x18>
   13e91:	48 89 85 c0 f9 ff ff 	mov    %rax,-0x640(%rbp)
   13e98:	48 8d 05 b9 91 00 00 	lea    0x91b9(%rip),%rax        # 1d058 <g_57+0x18>
   13e9f:	48 89 85 c8 f9 ff ff 	mov    %rax,-0x638(%rbp)
   13ea6:	48 8d 05 ab 91 00 00 	lea    0x91ab(%rip),%rax        # 1d058 <g_57+0x18>
   13ead:	48 89 85 d0 f9 ff ff 	mov    %rax,-0x630(%rbp)
   13eb4:	48 8d 05 9d 91 00 00 	lea    0x919d(%rip),%rax        # 1d058 <g_57+0x18>
   13ebb:	48 89 85 d8 f9 ff ff 	mov    %rax,-0x628(%rbp)
   13ec2:	c7 85 c4 f8 ff ff 8f 	movl   $0x2de648f,-0x73c(%rbp)
   13ec9:	64 de 02 
   13ecc:	48 8d 85 00 fa ff ff 	lea    -0x600(%rbp),%rax
   13ed3:	48 83 c0 14          	add    $0x14,%rax
   13ed7:	48 89 85 00 f9 ff ff 	mov    %rax,-0x700(%rbp)
   13ede:	48 c7 85 08 f9 ff ff 	movq   $0x0,-0x6f8(%rbp)
   13ee5:	00 00 00 00 
   13ee9:	48 c7 85 10 f9 ff ff 	movq   $0x0,-0x6f0(%rbp)
   13ef0:	00 00 00 00 
   13ef4:	48 8d 05 8d 91 00 00 	lea    0x918d(%rip),%rax        # 1d088 <g_83>
   13efb:	48 89 85 30 fa ff ff 	mov    %rax,-0x5d0(%rbp)
   13f02:	48 8d 05 7f 91 00 00 	lea    0x917f(%rip),%rax        # 1d088 <g_83>
   13f09:	48 89 85 38 fa ff ff 	mov    %rax,-0x5c8(%rbp)
   13f10:	48 8d 05 71 91 00 00 	lea    0x9171(%rip),%rax        # 1d088 <g_83>
   13f17:	48 89 85 40 fa ff ff 	mov    %rax,-0x5c0(%rbp)
   13f1e:	48 c7 85 48 fa ff ff 	movq   $0x0,-0x5b8(%rbp)
   13f25:	00 00 00 00 
   13f29:	48 c7 85 50 fa ff ff 	movq   $0x0,-0x5b0(%rbp)
   13f30:	00 00 00 00 
   13f34:	48 c7 85 58 fa ff ff 	movq   $0x0,-0x5a8(%rbp)
   13f3b:	00 00 00 00 
   13f3f:	48 8d 05 42 91 00 00 	lea    0x9142(%rip),%rax        # 1d088 <g_83>
   13f46:	48 89 85 60 fa ff ff 	mov    %rax,-0x5a0(%rbp)
   13f4d:	48 8d 05 34 91 00 00 	lea    0x9134(%rip),%rax        # 1d088 <g_83>
   13f54:	48 89 85 68 fa ff ff 	mov    %rax,-0x598(%rbp)
   13f5b:	48 8d 05 26 91 00 00 	lea    0x9126(%rip),%rax        # 1d088 <g_83>
   13f62:	48 89 85 70 fa ff ff 	mov    %rax,-0x590(%rbp)
   13f69:	48 8d 05 1c 91 00 00 	lea    0x911c(%rip),%rax        # 1d08c <g_85>
   13f70:	48 89 85 18 f9 ff ff 	mov    %rax,-0x6e8(%rbp)
   13f77:	48 8d 05 7a 91 00 00 	lea    0x917a(%rip),%rax        # 1d0f8 <g_273>
   13f7e:	48 89 85 e0 f9 ff ff 	mov    %rax,-0x620(%rbp)
   13f85:	48 8d 05 6c 91 00 00 	lea    0x916c(%rip),%rax        # 1d0f8 <g_273>
   13f8c:	48 89 85 e8 f9 ff ff 	mov    %rax,-0x618(%rbp)
   13f93:	48 8d 05 5e 91 00 00 	lea    0x915e(%rip),%rax        # 1d0f8 <g_273>
   13f9a:	48 89 85 f0 f9 ff ff 	mov    %rax,-0x610(%rbp)
   13fa1:	48 8d 05 50 91 00 00 	lea    0x9150(%rip),%rax        # 1d0f8 <g_273>
   13fa8:	48 89 85 f8 f9 ff ff 	mov    %rax,-0x608(%rbp)
   13faf:	48 b8 a9 85 b5 fa 7a 	movabs $0x5132427afab585a9,%rax
   13fb6:	42 32 51 
   13fb9:	48 89 85 20 f9 ff ff 	mov    %rax,-0x6e0(%rbp)
   13fc0:	48 8d 05 99 be 00 00 	lea    0xbe99(%rip),%rax        # 1fe60 <g_66>
   13fc7:	48 89 85 28 f9 ff ff 	mov    %rax,-0x6d8(%rbp)
   13fce:	48 b8 e0 b2 62 cd 8c 	movabs $0xbb5e838ccd62b2e0,%rax
   13fd5:	83 5e bb 
   13fd8:	48 89 85 30 f9 ff ff 	mov    %rax,-0x6d0(%rbp)
   13fdf:	48 b8 eb fd 76 a0 03 	movabs $0xe089e603a076fdeb,%rax
   13fe6:	e6 89 e0 
   13fe9:	48 89 85 38 f9 ff ff 	mov    %rax,-0x6c8(%rbp)
   13ff0:	c7 85 c8 f8 ff ff 02 	movl   $0x2,-0x738(%rbp)
   13ff7:	00 00 00 
   13ffa:	48 b8 ef f5 ce c7 95 	movabs $0x36187295c7cef5ef,%rax
   14001:	72 18 36 
   14004:	48 89 85 40 f9 ff ff 	mov    %rax,-0x6c0(%rbp)
   1400b:	c7 85 b8 f8 ff ff 13 	movl   $0x78a55613,-0x748(%rbp)
   14012:	56 a5 78 
   14015:	48 c7 85 d8 f8 ff ff 	movq   $0x0,-0x728(%rbp)
   1401c:	00 00 00 00 
   14020:	48 8d 85 b8 f8 ff ff 	lea    -0x748(%rbp),%rax
   14027:	48 89 85 d0 fa ff ff 	mov    %rax,-0x530(%rbp)
   1402e:	48 8d 05 03 91 00 00 	lea    0x9103(%rip),%rax        # 1d138 <g_331>
   14035:	48 89 85 d8 fa ff ff 	mov    %rax,-0x528(%rbp)
   1403c:	48 8d 85 b8 f8 ff ff 	lea    -0x748(%rbp),%rax
   14043:	48 89 85 e0 fa ff ff 	mov    %rax,-0x520(%rbp)
   1404a:	48 8d 85 b8 f8 ff ff 	lea    -0x748(%rbp),%rax
   14051:	48 89 85 e8 fa ff ff 	mov    %rax,-0x518(%rbp)
   14058:	48 8d 85 b8 f8 ff ff 	lea    -0x748(%rbp),%rax
   1405f:	48 89 85 f0 fa ff ff 	mov    %rax,-0x510(%rbp)
   14066:	48 8d 85 b8 f8 ff ff 	lea    -0x748(%rbp),%rax
   1406d:	48 89 85 f8 fa ff ff 	mov    %rax,-0x508(%rbp)
   14074:	48 8d 85 b8 f8 ff ff 	lea    -0x748(%rbp),%rax
   1407b:	48 89 85 00 fb ff ff 	mov    %rax,-0x500(%rbp)
   14082:	48 8d 85 b8 f8 ff ff 	lea    -0x748(%rbp),%rax
   14089:	48 89 85 08 fb ff ff 	mov    %rax,-0x4f8(%rbp)
   14090:	48 c7 85 10 fb ff ff 	movq   $0x0,-0x4f0(%rbp)
   14097:	00 00 00 00 
   1409b:	48 c7 85 18 fb ff ff 	movq   $0x0,-0x4e8(%rbp)
   140a2:	00 00 00 00 
   140a6:	48 8d 85 b8 f8 ff ff 	lea    -0x748(%rbp),%rax
   140ad:	48 89 85 20 fb ff ff 	mov    %rax,-0x4e0(%rbp)
   140b4:	48 8d 05 6d de 00 00 	lea    0xde6d(%rip),%rax        # 21f28 <g_228>
   140bb:	48 89 85 28 fb ff ff 	mov    %rax,-0x4d8(%rbp)
   140c2:	48 8d 05 17 90 00 00 	lea    0x9017(%rip),%rax        # 1d0e0 <g_227>
   140c9:	48 89 85 30 fb ff ff 	mov    %rax,-0x4d0(%rbp)
   140d0:	48 8d 05 09 90 00 00 	lea    0x9009(%rip),%rax        # 1d0e0 <g_227>
   140d7:	48 89 85 38 fb ff ff 	mov    %rax,-0x4c8(%rbp)
   140de:	48 8d 05 53 90 00 00 	lea    0x9053(%rip),%rax        # 1d138 <g_331>
   140e5:	48 89 85 40 fb ff ff 	mov    %rax,-0x4c0(%rbp)
   140ec:	48 8d 85 b8 f8 ff ff 	lea    -0x748(%rbp),%rax
   140f3:	48 89 85 48 fb ff ff 	mov    %rax,-0x4b8(%rbp)
   140fa:	48 8d 85 b8 f8 ff ff 	lea    -0x748(%rbp),%rax
   14101:	48 89 85 50 fb ff ff 	mov    %rax,-0x4b0(%rbp)
   14108:	48 8d 05 29 90 00 00 	lea    0x9029(%rip),%rax        # 1d138 <g_331>
   1410f:	48 89 85 58 fb ff ff 	mov    %rax,-0x4a8(%rbp)
   14116:	48 8d 85 b8 f8 ff ff 	lea    -0x748(%rbp),%rax
   1411d:	48 89 85 60 fb ff ff 	mov    %rax,-0x4a0(%rbp)
   14124:	48 c7 85 68 fb ff ff 	movq   $0x0,-0x498(%rbp)
   1412b:	00 00 00 00 
   1412f:	48 8d 85 b8 f8 ff ff 	lea    -0x748(%rbp),%rax
   14136:	48 89 85 70 fb ff ff 	mov    %rax,-0x490(%rbp)
   1413d:	48 8d 05 f4 8f 00 00 	lea    0x8ff4(%rip),%rax        # 1d138 <g_331>
   14144:	48 89 85 78 fb ff ff 	mov    %rax,-0x488(%rbp)
   1414b:	48 8d 85 b8 f8 ff ff 	lea    -0x748(%rbp),%rax
   14152:	48 89 85 80 fb ff ff 	mov    %rax,-0x480(%rbp)
   14159:	48 8d 85 b8 f8 ff ff 	lea    -0x748(%rbp),%rax
   14160:	48 89 85 88 fb ff ff 	mov    %rax,-0x478(%rbp)
   14167:	48 8d 05 ca 8f 00 00 	lea    0x8fca(%rip),%rax        # 1d138 <g_331>
   1416e:	48 89 85 90 fb ff ff 	mov    %rax,-0x470(%rbp)
   14175:	48 8d 05 64 8f 00 00 	lea    0x8f64(%rip),%rax        # 1d0e0 <g_227>
   1417c:	48 89 85 98 fb ff ff 	mov    %rax,-0x468(%rbp)
   14183:	48 8d 05 56 8f 00 00 	lea    0x8f56(%rip),%rax        # 1d0e0 <g_227>
   1418a:	48 89 85 a0 fb ff ff 	mov    %rax,-0x460(%rbp)
   14191:	48 8d 05 90 dd 00 00 	lea    0xdd90(%rip),%rax        # 21f28 <g_228>
   14198:	48 89 85 a8 fb ff ff 	mov    %rax,-0x458(%rbp)
   1419f:	48 8d 85 b8 f8 ff ff 	lea    -0x748(%rbp),%rax
   141a6:	48 89 85 b0 fb ff ff 	mov    %rax,-0x450(%rbp)
   141ad:	48 c7 85 b8 fb ff ff 	movq   $0x0,-0x448(%rbp)
   141b4:	00 00 00 00 
   141b8:	48 c7 85 c0 fb ff ff 	movq   $0x0,-0x440(%rbp)
   141bf:	00 00 00 00 
   141c3:	48 8d 85 b8 f8 ff ff 	lea    -0x748(%rbp),%rax
   141ca:	48 89 85 c8 fb ff ff 	mov    %rax,-0x438(%rbp)
   141d1:	48 8d 85 b8 f8 ff ff 	lea    -0x748(%rbp),%rax
   141d8:	48 89 85 d0 fb ff ff 	mov    %rax,-0x430(%rbp)
   141df:	48 8d 85 b8 f8 ff ff 	lea    -0x748(%rbp),%rax
   141e6:	48 89 85 d8 fb ff ff 	mov    %rax,-0x428(%rbp)
   141ed:	48 8d 85 b8 f8 ff ff 	lea    -0x748(%rbp),%rax
   141f4:	48 89 85 e0 fb ff ff 	mov    %rax,-0x420(%rbp)
   141fb:	48 8d 85 b8 f8 ff ff 	lea    -0x748(%rbp),%rax
   14202:	48 89 85 e8 fb ff ff 	mov    %rax,-0x418(%rbp)
   14209:	48 8d 85 b8 f8 ff ff 	lea    -0x748(%rbp),%rax
   14210:	48 89 85 f0 fb ff ff 	mov    %rax,-0x410(%rbp)
   14217:	48 8d 05 1a 8f 00 00 	lea    0x8f1a(%rip),%rax        # 1d138 <g_331>
   1421e:	48 89 85 f8 fb ff ff 	mov    %rax,-0x408(%rbp)
   14225:	48 8d 85 b8 f8 ff ff 	lea    -0x748(%rbp),%rax
   1422c:	48 89 85 00 fc ff ff 	mov    %rax,-0x400(%rbp)
   14233:	48 c7 85 08 fc ff ff 	movq   $0x0,-0x3f8(%rbp)
   1423a:	00 00 00 00 
   1423e:	48 8d 05 f3 8e 00 00 	lea    0x8ef3(%rip),%rax        # 1d138 <g_331>
   14245:	48 89 85 10 fc ff ff 	mov    %rax,-0x3f0(%rbp)
   1424c:	48 c7 85 18 fc ff ff 	movq   $0x0,-0x3e8(%rbp)
   14253:	00 00 00 00 
   14257:	48 c7 85 20 fc ff ff 	movq   $0x0,-0x3e0(%rbp)
   1425e:	00 00 00 00 
   14262:	48 8d 85 b8 f8 ff ff 	lea    -0x748(%rbp),%rax
   14269:	48 89 85 28 fc ff ff 	mov    %rax,-0x3d8(%rbp)
   14270:	48 8d 85 b8 f8 ff ff 	lea    -0x748(%rbp),%rax
   14277:	48 89 85 30 fc ff ff 	mov    %rax,-0x3d0(%rbp)
   1427e:	48 8d 85 b8 f8 ff ff 	lea    -0x748(%rbp),%rax
   14285:	48 89 85 38 fc ff ff 	mov    %rax,-0x3c8(%rbp)
   1428c:	48 c7 85 40 fc ff ff 	movq   $0x0,-0x3c0(%rbp)
   14293:	00 00 00 00 
   14297:	48 c7 85 48 fc ff ff 	movq   $0x0,-0x3b8(%rbp)
   1429e:	00 00 00 00 
   142a2:	48 8d 85 b8 f8 ff ff 	lea    -0x748(%rbp),%rax
   142a9:	48 89 85 50 fc ff ff 	mov    %rax,-0x3b0(%rbp)
   142b0:	48 c7 85 58 fc ff ff 	movq   $0x0,-0x3a8(%rbp)
   142b7:	00 00 00 00 
   142bb:	48 c7 85 60 fc ff ff 	movq   $0x0,-0x3a0(%rbp)
   142c2:	00 00 00 00 
   142c6:	48 c7 85 68 fc ff ff 	movq   $0x0,-0x398(%rbp)
   142cd:	00 00 00 00 
   142d1:	48 8d 05 08 8e 00 00 	lea    0x8e08(%rip),%rax        # 1d0e0 <g_227>
   142d8:	48 89 85 70 fc ff ff 	mov    %rax,-0x390(%rbp)
   142df:	48 8d 05 52 8e 00 00 	lea    0x8e52(%rip),%rax        # 1d138 <g_331>
   142e6:	48 89 85 78 fc ff ff 	mov    %rax,-0x388(%rbp)
   142ed:	48 8d 05 34 dc 00 00 	lea    0xdc34(%rip),%rax        # 21f28 <g_228>
   142f4:	48 89 85 80 fc ff ff 	mov    %rax,-0x380(%rbp)
   142fb:	48 8d 05 26 dc 00 00 	lea    0xdc26(%rip),%rax        # 21f28 <g_228>
   14302:	48 89 85 88 fc ff ff 	mov    %rax,-0x378(%rbp)
   14309:	48 c7 85 90 fc ff ff 	movq   $0x0,-0x370(%rbp)
   14310:	00 00 00 00 
   14314:	48 8d 85 b8 f8 ff ff 	lea    -0x748(%rbp),%rax
   1431b:	48 89 85 98 fc ff ff 	mov    %rax,-0x368(%rbp)
   14322:	48 8d 05 b7 8d 00 00 	lea    0x8db7(%rip),%rax        # 1d0e0 <g_227>
   14329:	48 89 85 a0 fc ff ff 	mov    %rax,-0x360(%rbp)
   14330:	48 8d 05 a9 8d 00 00 	lea    0x8da9(%rip),%rax        # 1d0e0 <g_227>
   14337:	48 89 85 a8 fc ff ff 	mov    %rax,-0x358(%rbp)
   1433e:	48 8d 85 b8 f8 ff ff 	lea    -0x748(%rbp),%rax
   14345:	48 89 85 b0 fc ff ff 	mov    %rax,-0x350(%rbp)
   1434c:	48 c7 85 b8 fc ff ff 	movq   $0x0,-0x348(%rbp)
   14353:	00 00 00 00 
   14357:	48 8d 05 ca db 00 00 	lea    0xdbca(%rip),%rax        # 21f28 <g_228>
   1435e:	48 89 85 c0 fc ff ff 	mov    %rax,-0x340(%rbp)
   14365:	48 8d 85 b8 f8 ff ff 	lea    -0x748(%rbp),%rax
   1436c:	48 89 85 c8 fc ff ff 	mov    %rax,-0x338(%rbp)
   14373:	48 8d 85 b8 f8 ff ff 	lea    -0x748(%rbp),%rax
   1437a:	48 89 85 d0 fc ff ff 	mov    %rax,-0x330(%rbp)
   14381:	48 8d 05 58 8d 00 00 	lea    0x8d58(%rip),%rax        # 1d0e0 <g_227>
   14388:	48 89 85 d8 fc ff ff 	mov    %rax,-0x328(%rbp)
   1438f:	48 c7 85 e0 fc ff ff 	movq   $0x0,-0x320(%rbp)
   14396:	00 00 00 00 
   1439a:	48 8d 05 97 8d 00 00 	lea    0x8d97(%rip),%rax        # 1d138 <g_331>
   143a1:	48 89 85 e8 fc ff ff 	mov    %rax,-0x318(%rbp)
   143a8:	48 c7 85 f0 fc ff ff 	movq   $0x0,-0x310(%rbp)
   143af:	00 00 00 00 
   143b3:	48 8d 05 7e 8d 00 00 	lea    0x8d7e(%rip),%rax        # 1d138 <g_331>
   143ba:	48 89 85 f8 fc ff ff 	mov    %rax,-0x308(%rbp)
   143c1:	48 c7 85 00 fd ff ff 	movq   $0x0,-0x300(%rbp)
   143c8:	00 00 00 00 
   143cc:	48 8d 05 65 8d 00 00 	lea    0x8d65(%rip),%rax        # 1d138 <g_331>
   143d3:	48 89 85 08 fd ff ff 	mov    %rax,-0x2f8(%rbp)
   143da:	48 c7 85 10 fd ff ff 	movq   $0x0,-0x2f0(%rbp)
   143e1:	00 00 00 00 
   143e5:	48 8d 05 4c 8d 00 00 	lea    0x8d4c(%rip),%rax        # 1d138 <g_331>
   143ec:	48 89 85 18 fd ff ff 	mov    %rax,-0x2e8(%rbp)
   143f3:	48 c7 85 20 fd ff ff 	movq   $0x0,-0x2e0(%rbp)
   143fa:	00 00 00 00 
   143fe:	48 8d 05 33 8d 00 00 	lea    0x8d33(%rip),%rax        # 1d138 <g_331>
   14405:	48 89 85 28 fd ff ff 	mov    %rax,-0x2d8(%rbp)
   1440c:	48 c7 85 30 fd ff ff 	movq   $0x0,-0x2d0(%rbp)
   14413:	00 00 00 00 
   14417:	48 8d 05 c2 8c 00 00 	lea    0x8cc2(%rip),%rax        # 1d0e0 <g_227>
   1441e:	48 89 85 38 fd ff ff 	mov    %rax,-0x2c8(%rbp)
   14425:	48 8d 85 b8 f8 ff ff 	lea    -0x748(%rbp),%rax
   1442c:	48 89 85 40 fd ff ff 	mov    %rax,-0x2c0(%rbp)
   14433:	48 8d 85 b8 f8 ff ff 	lea    -0x748(%rbp),%rax
   1443a:	48 89 85 48 fd ff ff 	mov    %rax,-0x2b8(%rbp)
   14441:	48 8d 85 d0 fa ff ff 	lea    -0x530(%rbp),%rax
   14448:	48 05 08 02 00 00    	add    $0x208,%rax
   1444e:	48 89 85 50 fd ff ff 	mov    %rax,-0x2b0(%rbp)
   14455:	48 8d 85 d8 f8 ff ff 	lea    -0x728(%rbp),%rax
   1445c:	48 89 85 58 fd ff ff 	mov    %rax,-0x2a8(%rbp)
   14463:	48 8d 85 d0 fa ff ff 	lea    -0x530(%rbp),%rax
   1446a:	48 05 50 01 00 00    	add    $0x150,%rax
   14470:	48 89 85 60 fd ff ff 	mov    %rax,-0x2a0(%rbp)
   14477:	48 8d 85 d8 f8 ff ff 	lea    -0x728(%rbp),%rax
   1447e:	48 89 85 68 fd ff ff 	mov    %rax,-0x298(%rbp)
   14485:	48 8d 85 d0 fa ff ff 	lea    -0x530(%rbp),%rax
   1448c:	48 05 08 02 00 00    	add    $0x208,%rax
   14492:	48 89 85 70 fd ff ff 	mov    %rax,-0x290(%rbp)
   14499:	48 8d 85 d0 fa ff ff 	lea    -0x530(%rbp),%rax
   144a0:	48 05 50 01 00 00    	add    $0x150,%rax
   144a6:	48 89 85 78 fd ff ff 	mov    %rax,-0x288(%rbp)
   144ad:	48 8d 85 d8 f8 ff ff 	lea    -0x728(%rbp),%rax
   144b4:	48 89 85 80 fd ff ff 	mov    %rax,-0x280(%rbp)
   144bb:	48 8d 85 d8 f8 ff ff 	lea    -0x728(%rbp),%rax
   144c2:	48 89 85 88 fd ff ff 	mov    %rax,-0x278(%rbp)
   144c9:	48 8d 85 d0 fa ff ff 	lea    -0x530(%rbp),%rax
   144d0:	48 05 50 01 00 00    	add    $0x150,%rax
   144d6:	48 89 85 90 fd ff ff 	mov    %rax,-0x270(%rbp)
   144dd:	48 8d 85 d0 fa ff ff 	lea    -0x530(%rbp),%rax
   144e4:	48 05 08 02 00 00    	add    $0x208,%rax
   144ea:	48 89 85 98 fd ff ff 	mov    %rax,-0x268(%rbp)
   144f1:	48 8d 85 d0 fa ff ff 	lea    -0x530(%rbp),%rax
   144f8:	48 05 08 02 00 00    	add    $0x208,%rax
   144fe:	48 89 85 a0 fd ff ff 	mov    %rax,-0x260(%rbp)
   14505:	48 8d 85 d0 fa ff ff 	lea    -0x530(%rbp),%rax
   1450c:	48 05 20 01 00 00    	add    $0x120,%rax
   14512:	48 89 85 a8 fd ff ff 	mov    %rax,-0x258(%rbp)
   14519:	48 8d 85 d0 fa ff ff 	lea    -0x530(%rbp),%rax
   14520:	48 05 20 01 00 00    	add    $0x120,%rax
   14526:	48 89 85 b0 fd ff ff 	mov    %rax,-0x250(%rbp)
   1452d:	48 8d 85 d0 fa ff ff 	lea    -0x530(%rbp),%rax
   14534:	48 05 08 02 00 00    	add    $0x208,%rax
   1453a:	48 89 85 b8 fd ff ff 	mov    %rax,-0x248(%rbp)
   14541:	48 8d 85 d8 f8 ff ff 	lea    -0x728(%rbp),%rax
   14548:	48 89 85 c0 fd ff ff 	mov    %rax,-0x240(%rbp)
   1454f:	48 8d 85 d0 fa ff ff 	lea    -0x530(%rbp),%rax
   14556:	48 05 60 02 00 00    	add    $0x260,%rax
   1455c:	48 89 85 c8 fd ff ff 	mov    %rax,-0x238(%rbp)
   14563:	48 8d 85 d0 fa ff ff 	lea    -0x530(%rbp),%rax
   1456a:	48 05 08 02 00 00    	add    $0x208,%rax
   14570:	48 89 85 d0 fd ff ff 	mov    %rax,-0x230(%rbp)
   14577:	48 8d 85 d0 fa ff ff 	lea    -0x530(%rbp),%rax
   1457e:	48 05 60 02 00 00    	add    $0x260,%rax
   14584:	48 89 85 d8 fd ff ff 	mov    %rax,-0x228(%rbp)
   1458b:	48 8d 85 d8 f8 ff ff 	lea    -0x728(%rbp),%rax
   14592:	48 89 85 e0 fd ff ff 	mov    %rax,-0x220(%rbp)
   14599:	48 8d 85 d0 fa ff ff 	lea    -0x530(%rbp),%rax
   145a0:	48 05 08 02 00 00    	add    $0x208,%rax
   145a6:	48 89 85 e8 fd ff ff 	mov    %rax,-0x218(%rbp)
   145ad:	48 8d 85 d0 fa ff ff 	lea    -0x530(%rbp),%rax
   145b4:	48 05 60 02 00 00    	add    $0x260,%rax
   145ba:	48 89 85 f0 fd ff ff 	mov    %rax,-0x210(%rbp)
   145c1:	48 8d 85 d0 fa ff ff 	lea    -0x530(%rbp),%rax
   145c8:	48 05 08 02 00 00    	add    $0x208,%rax
   145ce:	48 89 85 f8 fd ff ff 	mov    %rax,-0x208(%rbp)
   145d5:	48 8d 85 d0 fa ff ff 	lea    -0x530(%rbp),%rax
   145dc:	48 05 60 02 00 00    	add    $0x260,%rax
   145e2:	48 89 85 00 fe ff ff 	mov    %rax,-0x200(%rbp)
   145e9:	48 8d 85 d8 f8 ff ff 	lea    -0x728(%rbp),%rax
   145f0:	48 89 85 08 fe ff ff 	mov    %rax,-0x1f8(%rbp)
   145f7:	48 8d 85 d0 fa ff ff 	lea    -0x530(%rbp),%rax
   145fe:	48 05 08 02 00 00    	add    $0x208,%rax
   14604:	48 89 85 10 fe ff ff 	mov    %rax,-0x1f0(%rbp)
   1460b:	48 8d 85 d0 fa ff ff 	lea    -0x530(%rbp),%rax
   14612:	48 05 20 01 00 00    	add    $0x120,%rax
   14618:	48 89 85 18 fe ff ff 	mov    %rax,-0x1e8(%rbp)
   1461f:	48 8d 85 d0 fa ff ff 	lea    -0x530(%rbp),%rax
   14626:	48 05 20 01 00 00    	add    $0x120,%rax
   1462c:	48 89 85 20 fe ff ff 	mov    %rax,-0x1e0(%rbp)
   14633:	48 8d 85 d0 fa ff ff 	lea    -0x530(%rbp),%rax
   1463a:	48 05 08 02 00 00    	add    $0x208,%rax
   14640:	48 89 85 28 fe ff ff 	mov    %rax,-0x1d8(%rbp)
   14647:	48 8d 85 d8 f8 ff ff 	lea    -0x728(%rbp),%rax
   1464e:	48 89 85 30 fe ff ff 	mov    %rax,-0x1d0(%rbp)
   14655:	48 8d 85 d0 fa ff ff 	lea    -0x530(%rbp),%rax
   1465c:	48 05 60 02 00 00    	add    $0x260,%rax
   14662:	48 89 85 38 fe ff ff 	mov    %rax,-0x1c8(%rbp)
   14669:	48 8d 85 d8 f8 ff ff 	lea    -0x728(%rbp),%rax
   14670:	48 89 85 40 fe ff ff 	mov    %rax,-0x1c0(%rbp)
   14677:	48 8d 85 d8 f8 ff ff 	lea    -0x728(%rbp),%rax
   1467e:	48 89 85 48 fe ff ff 	mov    %rax,-0x1b8(%rbp)
   14685:	48 8d 85 d0 fa ff ff 	lea    -0x530(%rbp),%rax
   1468c:	48 05 50 01 00 00    	add    $0x150,%rax
   14692:	48 89 85 50 fe ff ff 	mov    %rax,-0x1b0(%rbp)
   14699:	48 8d 85 d0 fa ff ff 	lea    -0x530(%rbp),%rax
   146a0:	48 05 08 02 00 00    	add    $0x208,%rax
   146a6:	48 89 85 58 fe ff ff 	mov    %rax,-0x1a8(%rbp)
   146ad:	48 8d 85 d8 f8 ff ff 	lea    -0x728(%rbp),%rax
   146b4:	48 89 85 60 fe ff ff 	mov    %rax,-0x1a0(%rbp)
   146bb:	48 8d 85 d0 fa ff ff 	lea    -0x530(%rbp),%rax
   146c2:	48 05 50 01 00 00    	add    $0x150,%rax
   146c8:	48 89 85 68 fe ff ff 	mov    %rax,-0x198(%rbp)
   146cf:	48 8d 85 d8 f8 ff ff 	lea    -0x728(%rbp),%rax
   146d6:	48 89 85 70 fe ff ff 	mov    %rax,-0x190(%rbp)
   146dd:	48 8d 85 d0 fa ff ff 	lea    -0x530(%rbp),%rax
   146e4:	48 05 08 02 00 00    	add    $0x208,%rax
   146ea:	48 89 85 78 fe ff ff 	mov    %rax,-0x188(%rbp)
   146f1:	48 8d 85 d0 fa ff ff 	lea    -0x530(%rbp),%rax
   146f8:	48 05 50 01 00 00    	add    $0x150,%rax
   146fe:	48 89 85 80 fe ff ff 	mov    %rax,-0x180(%rbp)
   14705:	48 8d 85 d8 f8 ff ff 	lea    -0x728(%rbp),%rax
   1470c:	48 89 85 88 fe ff ff 	mov    %rax,-0x178(%rbp)
   14713:	48 8d 85 d8 f8 ff ff 	lea    -0x728(%rbp),%rax
   1471a:	48 89 85 90 fe ff ff 	mov    %rax,-0x170(%rbp)
   14721:	48 8d 85 d0 fa ff ff 	lea    -0x530(%rbp),%rax
   14728:	48 05 20 01 00 00    	add    $0x120,%rax
   1472e:	48 89 85 98 fe ff ff 	mov    %rax,-0x168(%rbp)
   14735:	48 8d 85 d0 fa ff ff 	lea    -0x530(%rbp),%rax
   1473c:	48 05 60 02 00 00    	add    $0x260,%rax
   14742:	48 89 85 a0 fe ff ff 	mov    %rax,-0x160(%rbp)
   14749:	48 8d 85 d8 f8 ff ff 	lea    -0x728(%rbp),%rax
   14750:	48 89 85 a8 fe ff ff 	mov    %rax,-0x158(%rbp)
   14757:	48 8d 85 d8 f8 ff ff 	lea    -0x728(%rbp),%rax
   1475e:	48 89 85 b0 fe ff ff 	mov    %rax,-0x150(%rbp)
   14765:	48 8d 85 d8 f8 ff ff 	lea    -0x728(%rbp),%rax
   1476c:	48 89 85 b8 fe ff ff 	mov    %rax,-0x148(%rbp)
   14773:	48 8d 85 d8 f8 ff ff 	lea    -0x728(%rbp),%rax
   1477a:	48 89 85 c0 fe ff ff 	mov    %rax,-0x140(%rbp)
   14781:	48 8d 85 d0 fa ff ff 	lea    -0x530(%rbp),%rax
   14788:	48 05 60 02 00 00    	add    $0x260,%rax
   1478e:	48 89 85 c8 fe ff ff 	mov    %rax,-0x138(%rbp)
   14795:	48 8d 85 d0 fa ff ff 	lea    -0x530(%rbp),%rax
   1479c:	48 05 20 01 00 00    	add    $0x120,%rax
   147a2:	48 89 85 d0 fe ff ff 	mov    %rax,-0x130(%rbp)
   147a9:	48 8d 85 d8 f8 ff ff 	lea    -0x728(%rbp),%rax
   147b0:	48 89 85 d8 fe ff ff 	mov    %rax,-0x128(%rbp)
   147b7:	48 8d 85 d0 fa ff ff 	lea    -0x530(%rbp),%rax
   147be:	48 05 60 02 00 00    	add    $0x260,%rax
   147c4:	48 89 85 e0 fe ff ff 	mov    %rax,-0x120(%rbp)
   147cb:	48 8d 85 d8 f8 ff ff 	lea    -0x728(%rbp),%rax
   147d2:	48 89 85 e8 fe ff ff 	mov    %rax,-0x118(%rbp)
   147d9:	48 8d 85 d0 fa ff ff 	lea    -0x530(%rbp),%rax
   147e0:	48 05 20 01 00 00    	add    $0x120,%rax
   147e6:	48 89 85 f0 fe ff ff 	mov    %rax,-0x110(%rbp)
   147ed:	48 8d 85 d8 f8 ff ff 	lea    -0x728(%rbp),%rax
   147f4:	48 89 85 f8 fe ff ff 	mov    %rax,-0x108(%rbp)
   147fb:	48 8d 85 d8 f8 ff ff 	lea    -0x728(%rbp),%rax
   14802:	48 89 85 00 ff ff ff 	mov    %rax,-0x100(%rbp)
   14809:	48 8d 85 d8 f8 ff ff 	lea    -0x728(%rbp),%rax
   14810:	48 89 85 08 ff ff ff 	mov    %rax,-0xf8(%rbp)
   14817:	48 8d 85 d0 fa ff ff 	lea    -0x530(%rbp),%rax
   1481e:	48 05 20 01 00 00    	add    $0x120,%rax
   14824:	48 89 85 10 ff ff ff 	mov    %rax,-0xf0(%rbp)
   1482b:	48 8d 85 d8 f8 ff ff 	lea    -0x728(%rbp),%rax
   14832:	48 89 85 18 ff ff ff 	mov    %rax,-0xe8(%rbp)
   14839:	48 8d 85 d0 fa ff ff 	lea    -0x530(%rbp),%rax
   14840:	48 05 60 02 00 00    	add    $0x260,%rax
   14846:	48 89 85 20 ff ff ff 	mov    %rax,-0xe0(%rbp)
   1484d:	48 8d 85 d0 fa ff ff 	lea    -0x530(%rbp),%rax
   14854:	48 05 60 02 00 00    	add    $0x260,%rax
   1485a:	48 89 85 28 ff ff ff 	mov    %rax,-0xd8(%rbp)
   14861:	48 8d 85 d8 f8 ff ff 	lea    -0x728(%rbp),%rax
   14868:	48 89 85 30 ff ff ff 	mov    %rax,-0xd0(%rbp)
   1486f:	48 8d 85 d0 fa ff ff 	lea    -0x530(%rbp),%rax
   14876:	48 05 08 02 00 00    	add    $0x208,%rax
   1487c:	48 89 85 38 ff ff ff 	mov    %rax,-0xc8(%rbp)
   14883:	48 8d 85 d0 fa ff ff 	lea    -0x530(%rbp),%rax
   1488a:	48 05 50 01 00 00    	add    $0x150,%rax
   14890:	48 89 85 40 ff ff ff 	mov    %rax,-0xc0(%rbp)
   14897:	48 8d 85 d8 f8 ff ff 	lea    -0x728(%rbp),%rax
   1489e:	48 89 85 48 ff ff ff 	mov    %rax,-0xb8(%rbp)
   148a5:	48 8d 85 d8 f8 ff ff 	lea    -0x728(%rbp),%rax
   148ac:	48 89 85 50 ff ff ff 	mov    %rax,-0xb0(%rbp)
   148b3:	48 8d 85 d0 fa ff ff 	lea    -0x530(%rbp),%rax
   148ba:	48 05 50 01 00 00    	add    $0x150,%rax
   148c0:	48 89 85 58 ff ff ff 	mov    %rax,-0xa8(%rbp)
   148c7:	48 8d 85 d0 fa ff ff 	lea    -0x530(%rbp),%rax
   148ce:	48 05 08 02 00 00    	add    $0x208,%rax
   148d4:	48 89 85 60 ff ff ff 	mov    %rax,-0xa0(%rbp)
   148db:	48 8d 85 d8 f8 ff ff 	lea    -0x728(%rbp),%rax
   148e2:	48 89 85 68 ff ff ff 	mov    %rax,-0x98(%rbp)
   148e9:	48 8d 85 d0 fa ff ff 	lea    -0x530(%rbp),%rax
   148f0:	48 05 50 01 00 00    	add    $0x150,%rax
   148f6:	48 89 85 70 ff ff ff 	mov    %rax,-0x90(%rbp)
   148fd:	48 8d 85 d8 f8 ff ff 	lea    -0x728(%rbp),%rax
   14904:	48 89 85 78 ff ff ff 	mov    %rax,-0x88(%rbp)
   1490b:	48 8d 85 d8 f8 ff ff 	lea    -0x728(%rbp),%rax
   14912:	48 89 45 80          	mov    %rax,-0x80(%rbp)
   14916:	48 8d 85 d0 fa ff ff 	lea    -0x530(%rbp),%rax
   1491d:	48 05 20 01 00 00    	add    $0x120,%rax
   14923:	48 89 45 88          	mov    %rax,-0x78(%rbp)
   14927:	48 8d 85 d8 f8 ff ff 	lea    -0x728(%rbp),%rax
   1492e:	48 89 45 90          	mov    %rax,-0x70(%rbp)
   14932:	48 8d 85 d8 f8 ff ff 	lea    -0x728(%rbp),%rax
   14939:	48 89 45 98          	mov    %rax,-0x68(%rbp)
   1493d:	48 8d 85 d8 f8 ff ff 	lea    -0x728(%rbp),%rax
   14944:	48 89 45 a0          	mov    %rax,-0x60(%rbp)
   14948:	48 8d 85 d0 fa ff ff 	lea    -0x530(%rbp),%rax
   1494f:	48 05 20 01 00 00    	add    $0x120,%rax
   14955:	48 89 45 a8          	mov    %rax,-0x58(%rbp)
   14959:	48 8d 85 d8 f8 ff ff 	lea    -0x728(%rbp),%rax
   14960:	48 89 45 b0          	mov    %rax,-0x50(%rbp)
   14964:	48 8d 85 d0 fa ff ff 	lea    -0x530(%rbp),%rax
   1496b:	48 05 60 02 00 00    	add    $0x260,%rax
   14971:	48 89 45 b8          	mov    %rax,-0x48(%rbp)
   14975:	48 8d 85 d0 fa ff ff 	lea    -0x530(%rbp),%rax
   1497c:	48 05 60 02 00 00    	add    $0x260,%rax
   14982:	48 89 45 c0          	mov    %rax,-0x40(%rbp)
   14986:	48 8d 85 d8 f8 ff ff 	lea    -0x728(%rbp),%rax
   1498d:	48 89 45 c8          	mov    %rax,-0x38(%rbp)
   14991:	48 c7 85 48 f9 ff ff 	movq   $0x0,-0x6b8(%rbp)
   14998:	00 00 00 00 
   1499c:	48 8d 05 35 b5 00 00 	lea    0xb535(%rip),%rax        # 1fed8 <g_533>
   149a3:	48 89 85 e0 f8 ff ff 	mov    %rax,-0x720(%rbp)
   149aa:	c6 85 b1 f8 ff ff 03 	movb   $0x3,-0x74f(%rbp)
   149b1:	48 c7 85 50 f9 ff ff 	movq   $0x0,-0x6b0(%rbp)
   149b8:	00 00 00 00 
   149bc:	c6 85 b2 f8 ff ff 00 	movb   $0x0,-0x74e(%rbp)
   149c3:	48 8d 05 06 b5 00 00 	lea    0xb506(%rip),%rax        # 1fed0 <g_435>
   149ca:	48 89 85 58 f9 ff ff 	mov    %rax,-0x6a8(%rbp)
   149d1:	c7 85 cc f8 ff ff e5 	movl   $0xbf88e7e5,-0x734(%rbp)
   149d8:	e7 88 bf 
   149db:	c6 85 b3 f8 ff ff fe 	movb   $0xfe,-0x74d(%rbp)
   149e2:	48 8d 85 e0 f8 ff ff 	lea    -0x720(%rbp),%rax
   149e9:	48 89 85 e8 f8 ff ff 	mov    %rax,-0x718(%rbp)
   149f0:	48 8d 85 e8 f8 ff ff 	lea    -0x718(%rbp),%rax
   149f7:	48 89 85 60 f9 ff ff 	mov    %rax,-0x6a0(%rbp)
   149fe:	48 8d 05 4f 87 00 00 	lea    0x874f(%rip),%rax        # 1d154 <g_440>
   14a05:	48 89 85 f0 f8 ff ff 	mov    %rax,-0x710(%rbp)
   14a0c:	48 8d 85 f0 f8 ff ff 	lea    -0x710(%rbp),%rax
   14a13:	48 89 85 68 f9 ff ff 	mov    %rax,-0x698(%rbp)
   14a1a:	48 8d 05 a7 b4 00 00 	lea    0xb4a7(%rip),%rax        # 1fec8 <g_388>
   14a21:	48 89 85 70 f9 ff ff 	mov    %rax,-0x690(%rbp)
   14a28:	48 8d 05 99 b4 00 00 	lea    0xb499(%rip),%rax        # 1fec8 <g_388>
   14a2f:	48 89 85 78 f9 ff ff 	mov    %rax,-0x688(%rbp)
   14a36:	c7 85 d0 f8 ff ff 09 	movl   $0x9,-0x730(%rbp)
   14a3d:	00 00 00 
   14a40:	c7 85 a0 f9 ff ff 65 	movl   $0x6bfa5265,-0x660(%rbp)
   14a47:	52 fa 6b 
   14a4a:	c7 85 a4 f9 ff ff 65 	movl   $0x6bfa5265,-0x65c(%rbp)
   14a51:	52 fa 6b 
   14a54:	c7 85 a8 f9 ff ff 65 	movl   $0x6bfa5265,-0x658(%rbp)
   14a5b:	52 fa 6b 
   14a5e:	c7 85 ac f9 ff ff 65 	movl   $0x6bfa5265,-0x654(%rbp)
   14a65:	52 fa 6b 
   14a68:	c7 85 b0 f9 ff ff 65 	movl   $0x6bfa5265,-0x650(%rbp)
   14a6f:	52 fa 6b 
   14a72:	c7 85 b4 f9 ff ff 65 	movl   $0x6bfa5265,-0x64c(%rbp)
   14a79:	52 fa 6b 
   14a7c:	48 c7 85 f8 f8 ff ff 	movq   $0x0,-0x708(%rbp)
   14a83:	00 00 00 00 
   14a87:	48 8d 85 f8 f8 ff ff 	lea    -0x708(%rbp),%rax
   14a8e:	48 89 85 80 f9 ff ff 	mov    %rax,-0x680(%rbp)
   14a95:	66 c7 85 b4 f8 ff ff 	movw   $0xa1f3,-0x74c(%rbp)
   14a9c:	f3 a1 
   14a9e:	48 8d 05 53 86 00 00 	lea    0x8653(%rip),%rax        # 1d0f8 <g_273>
   14aa5:	48 89 85 88 f9 ff ff 	mov    %rax,-0x678(%rbp)
   14aac:	48 8d 05 85 86 00 00 	lea    0x8685(%rip),%rax        # 1d138 <g_331>
   14ab3:	48 89 85 90 f9 ff ff 	mov    %rax,-0x670(%rbp)
   14aba:	c7 85 d4 f8 ff ff 5d 	movl   $0x48a7395d,-0x72c(%rbp)
   14ac1:	39 a7 48 
   14ac4:	66 c7 85 b6 f8 ff ff 	movw   $0xbfb5,-0x74a(%rbp)
   14acb:	b5 bf 
   14acd:	c7 85 bc f8 ff ff 00 	movl   $0x0,-0x744(%rbp)
   14ad4:	00 00 00 
   14ad7:	eb 45                	jmp    14b1e <func_58+0xd52>
   14ad9:	c7 85 c0 f8 ff ff 00 	movl   $0x0,-0x740(%rbp)
   14ae0:	00 00 00 
   14ae3:	eb 29                	jmp    14b0e <func_58+0xd42>
   14ae5:	8b 85 c0 f8 ff ff    	mov    -0x740(%rbp),%eax
   14aeb:	48 98                	cltq   
   14aed:	8b 95 bc f8 ff ff    	mov    -0x744(%rbp),%edx
   14af3:	48 63 d2             	movslq %edx,%rdx
   14af6:	48 01 d2             	add    %rdx,%rdx
   14af9:	48 01 d0             	add    %rdx,%rax
   14afc:	c7 84 85 80 fa ff ff 	movl   $0xd86165ce,-0x580(%rbp,%rax,4)
   14b03:	ce 65 61 d8 
   14b07:	83 85 c0 f8 ff ff 01 	addl   $0x1,-0x740(%rbp)
   14b0e:	83 bd c0 f8 ff ff 01 	cmpl   $0x1,-0x740(%rbp)
   14b15:	7e ce                	jle    14ae5 <func_58+0xd19>
   14b17:	83 85 bc f8 ff ff 01 	addl   $0x1,-0x744(%rbp)
   14b1e:	83 bd bc f8 ff ff 08 	cmpl   $0x8,-0x744(%rbp)
   14b25:	7e b2                	jle    14ad9 <func_58+0xd0d>
   14b27:	c7 85 bc f8 ff ff 00 	movl   $0x0,-0x744(%rbp)
   14b2e:	00 00 00 
   14b31:	eb 42                	jmp    14b75 <func_58+0xda9>
   14b33:	c7 85 c0 f8 ff ff 00 	movl   $0x0,-0x740(%rbp)
   14b3a:	00 00 00 
   14b3d:	eb 26                	jmp    14b65 <func_58+0xd99>
   14b3f:	8b 85 c0 f8 ff ff    	mov    -0x740(%rbp),%eax
   14b45:	48 63 d0             	movslq %eax,%rdx
   14b48:	8b 85 bc f8 ff ff    	mov    -0x744(%rbp),%eax
   14b4e:	48 98                	cltq   
   14b50:	48 01 d0             	add    %rdx,%rax
   14b53:	c7 84 85 9c f9 ff ff 	movl   $0x94ebc715,-0x664(%rbp,%rax,4)
   14b5a:	15 c7 eb 94 
   14b5e:	83 85 c0 f8 ff ff 01 	addl   $0x1,-0x740(%rbp)
   14b65:	83 bd c0 f8 ff ff 00 	cmpl   $0x0,-0x740(%rbp)
   14b6c:	7e d1                	jle    14b3f <func_58+0xd73>
   14b6e:	83 85 bc f8 ff ff 01 	addl   $0x1,-0x744(%rbp)
   14b75:	83 bd bc f8 ff ff 00 	cmpl   $0x0,-0x744(%rbp)
   14b7c:	7e b5                	jle    14b33 <func_58+0xd67>
   14b7e:	c7 05 9c 84 00 00 00 	movl   $0x0,0x849c(%rip)        # 1d024 <g_5>
   14b85:	00 00 00 
   14b88:	90                   	nop
   14b89:	8b 05 95 84 00 00    	mov    0x8495(%rip),%eax        # 1d024 <g_5>
   14b8f:	83 f8 02             	cmp    $0x2,%eax
   14b92:	77 0e                	ja     14ba2 <func_58+0xdd6>
   14b94:	b8 00 00 00 00       	mov    $0x0,%eax
   14b99:	66 b8 09 00          	mov    $0x9,%ax
   14b9d:	e9 f8 00 00 00       	jmpq   14c9a <func_58+0xece>
   14ba2:	48 8b 85 90 f8 ff ff 	mov    -0x770(%rbp),%rax
   14ba9:	0f b6 d8             	movzbl %al,%ebx
   14bac:	48 8b 85 88 f8 ff ff 	mov    -0x778(%rbp),%rax
   14bb3:	41 89 c4             	mov    %eax,%r12d
   14bb6:	48 8b 85 90 f8 ff ff 	mov    -0x770(%rbp),%rax
   14bbd:	41 89 c5             	mov    %eax,%r13d
   14bc0:	0f b6 05 91 84 00 00 	movzbl 0x8491(%rip),%eax        # 1d058 <g_57+0x18>
   14bc7:	0f b6 c0             	movzbl %al,%eax
   14bca:	89 85 c4 f8 ff ff    	mov    %eax,-0x73c(%rbp)
   14bd0:	83 bd c4 f8 ff ff 00 	cmpl   $0x0,-0x73c(%rbp)
   14bd7:	75 1d                	jne    14bf6 <func_58+0xe2a>
   14bd9:	48 c7 c6 f9 ff ff ff 	mov    $0xfffffffffffffff9,%rsi
   14be0:	bf 02 00 00 00       	mov    $0x2,%edi
   14be5:	e8 96 64 ff ff       	callq  b080 <safe_mod_func_uint64_t_u_u>
   14bea:	48 8b 95 90 f8 ff ff 	mov    -0x770(%rbp),%rdx
   14bf1:	48 39 d0             	cmp    %rdx,%rax
   14bf4:	76 07                	jbe    14bfd <func_58+0xe31>
   14bf6:	b8 01 00 00 00       	mov    $0x1,%eax
   14bfb:	eb 05                	jmp    14c02 <func_58+0xe36>
   14bfd:	b8 00 00 00 00       	mov    $0x0,%eax
   14c02:	83 f8 ff             	cmp    $0xffffffff,%eax
   14c05:	0f 9d c0             	setge  %al
   14c08:	88 05 4a 84 00 00    	mov    %al,0x844a(%rip)        # 1d058 <g_57+0x18>
   14c0e:	0f b6 05 43 84 00 00 	movzbl 0x8443(%rip),%eax        # 1d058 <g_57+0x18>
   14c15:	0f b6 c0             	movzbl %al,%eax
   14c18:	44 89 ee             	mov    %r13d,%esi
   14c1b:	89 c7                	mov    %eax,%edi
   14c1d:	e8 9c 60 ff ff       	callq  acbe <safe_rshift_func_uint8_t_u_u>
   14c22:	0f b6 c0             	movzbl %al,%eax
   14c25:	89 c6                	mov    %eax,%esi
   14c27:	bf 6e dc 00 00       	mov    $0xdc6e,%edi
   14c2c:	e8 2b 61 ff ff       	callq  ad5c <safe_mod_func_uint16_t_u_u>
   14c31:	0f b6 c0             	movzbl %al,%eax
   14c34:	89 c6                	mov    %eax,%esi
   14c36:	bf 01 00 00 00       	mov    $0x1,%edi
   14c3b:	e8 9b 5f ff ff       	callq  abdb <safe_div_func_uint8_t_u_u>
   14c40:	0f b6 d0             	movzbl %al,%edx
   14c43:	b8 c7 fb ff ff       	mov    $0xfffffbc7,%eax
   14c48:	98                   	cwtl   
   14c49:	89 d6                	mov    %edx,%esi
   14c4b:	89 c7                	mov    %eax,%edi
   14c4d:	e8 40 58 ff ff       	callq  a492 <safe_lshift_func_int16_t_s_s>
   14c52:	98                   	cwtl   
   14c53:	44 89 e6             	mov    %r12d,%esi
   14c56:	89 c7                	mov    %eax,%edi
   14c58:	e8 84 58 ff ff       	callq  a4e1 <safe_lshift_func_int16_t_s_u>
   14c5d:	0f bf d0             	movswl %ax,%edx
   14c60:	48 8b 85 90 f8 ff ff 	mov    -0x770(%rbp),%rax
   14c67:	98                   	cwtl   
   14c68:	89 d6                	mov    %edx,%esi
   14c6a:	89 c7                	mov    %eax,%edi
   14c6c:	e8 f2 58 ff ff       	callq  a563 <safe_rshift_func_int16_t_s_u>
   14c71:	0f b6 c0             	movzbl %al,%eax
   14c74:	89 de                	mov    %ebx,%esi
   14c76:	89 c7                	mov    %eax,%edi
   14c78:	e8 16 5f ff ff       	callq  ab93 <safe_mul_func_uint8_t_u_u>
   14c7d:	0f b6 d0             	movzbl %al,%edx
   14c80:	8b 85 00 fa ff ff    	mov    -0x600(%rbp),%eax
   14c86:	31 c2                	xor    %eax,%edx
   14c88:	48 8b 85 00 f9 ff ff 	mov    -0x700(%rbp),%rax
   14c8f:	89 10                	mov    %edx,(%rax)
   14c91:	b8 00 00 00 00       	mov    $0x0,%eax
   14c96:	66 b8 ff ff          	mov    $0xffff,%ax
   14c9a:	48 8b 4d d8          	mov    -0x28(%rbp),%rcx
   14c9e:	64 48 33 0c 25 28 00 	xor    %fs:0x28,%rcx
   14ca5:	00 00 
   14ca7:	74 05                	je     14cae <func_58+0xee2>
   14ca9:	e8 c2 53 ff ff       	callq  a070 <__stack_chk_fail@plt>
   14cae:	48 81 c4 68 07 00 00 	add    $0x768,%rsp
   14cb5:	5b                   	pop    %rbx
   14cb6:	41 5c                	pop    %r12
   14cb8:	41 5d                	pop    %r13
   14cba:	5d                   	pop    %rbp
   14cbb:	c3                   	retq   

0000000000014cbc <main>:
   14cbc:	f3 0f 1e fa          	endbr64 
   14cc0:	55                   	push   %rbp
   14cc1:	48 89 e5             	mov    %rsp,%rbp
   14cc4:	48 83 ec 20          	sub    $0x20,%rsp
   14cc8:	89 7d ec             	mov    %edi,-0x14(%rbp)
   14ccb:	48 89 75 e0          	mov    %rsi,-0x20(%rbp)
   14ccf:	c7 45 fc 00 00 00 00 	movl   $0x0,-0x4(%rbp)
   14cd6:	83 7d ec 02          	cmpl   $0x2,-0x14(%rbp)
   14cda:	75 25                	jne    14d01 <main+0x45>
   14cdc:	48 8b 45 e0          	mov    -0x20(%rbp),%rax
   14ce0:	48 83 c0 08          	add    $0x8,%rax
   14ce4:	48 8b 00             	mov    (%rax),%rax
   14ce7:	48 8d 35 72 44 00 00 	lea    0x4472(%rip),%rsi        # 19160 <g_4129+0xce0>
   14cee:	48 89 c7             	mov    %rax,%rdi
   14cf1:	e8 9a 53 ff ff       	callq  a090 <strcmp@plt>
   14cf6:	85 c0                	test   %eax,%eax
   14cf8:	75 07                	jne    14d01 <main+0x45>
   14cfa:	c7 45 fc 01 00 00 00 	movl   $0x1,-0x4(%rbp)
   14d01:	e8 83 54 ff ff       	callq  a189 <platform_main_begin>
   14d06:	e8 8d 68 ff ff       	callq  b598 <crc32_gentab>
   14d0b:	e8 a5 6a ff ff       	callq  b7b5 <func_1>
   14d10:	b8 c7 fb ff ff       	mov    $0xfffffbc7,%eax
   14d15:	48 0f bf c0          	movswq %ax,%rax
   14d19:	8b 55 fc             	mov    -0x4(%rbp),%edx
   14d1c:	48 8d 35 3f 44 00 00 	lea    0x443f(%rip),%rsi        # 19162 <g_4129+0xce2>
   14d23:	48 89 c7             	mov    %rax,%rdi
   14d26:	e8 c8 69 ff ff       	callq  b6f3 <transparent_crc>
   14d2b:	8b 05 f3 82 00 00    	mov    0x82f3(%rip),%eax        # 1d024 <g_5>
   14d31:	89 c1                	mov    %eax,%ecx
   14d33:	8b 45 fc             	mov    -0x4(%rbp),%eax
   14d36:	89 c2                	mov    %eax,%edx
   14d38:	48 8d 35 27 44 00 00 	lea    0x4427(%rip),%rsi        # 19166 <g_4129+0xce6>
   14d3f:	48 89 cf             	mov    %rcx,%rdi
   14d42:	e8 ac 69 ff ff       	callq  b6f3 <transparent_crc>
   14d47:	c7 45 f0 00 00 00 00 	movl   $0x0,-0x10(%rbp)
   14d4e:	e9 c4 00 00 00       	jmpq   14e17 <main+0x15b>
   14d53:	8b 45 f0             	mov    -0x10(%rbp),%eax
   14d56:	48 63 d0             	movslq %eax,%rdx
   14d59:	48 89 d0             	mov    %rdx,%rax
   14d5c:	48 01 c0             	add    %rax,%rax
   14d5f:	48 01 d0             	add    %rdx,%rax
   14d62:	48 c1 e0 02          	shl    $0x2,%rax
   14d66:	48 89 c2             	mov    %rax,%rdx
   14d69:	48 8d 05 d0 82 00 00 	lea    0x82d0(%rip),%rax        # 1d040 <g_57>
   14d70:	0f b6 04 02          	movzbl (%rdx,%rax,1),%eax
   14d74:	0f b6 c0             	movzbl %al,%eax
   14d77:	8b 55 fc             	mov    -0x4(%rbp),%edx
   14d7a:	48 8d 35 e9 43 00 00 	lea    0x43e9(%rip),%rsi        # 1916a <g_4129+0xcea>
   14d81:	48 89 c7             	mov    %rax,%rdi
   14d84:	e8 6a 69 ff ff       	callq  b6f3 <transparent_crc>
   14d89:	8b 45 f0             	mov    -0x10(%rbp),%eax
   14d8c:	48 63 d0             	movslq %eax,%rdx
   14d8f:	48 89 d0             	mov    %rdx,%rax
   14d92:	48 01 c0             	add    %rax,%rax
   14d95:	48 01 d0             	add    %rdx,%rax
   14d98:	48 c1 e0 02          	shl    $0x2,%rax
   14d9c:	48 89 c2             	mov    %rax,%rdx
   14d9f:	48 8d 05 9a 82 00 00 	lea    0x829a(%rip),%rax        # 1d040 <g_57>
   14da6:	0f b6 04 02          	movzbl (%rdx,%rax,1),%eax
   14daa:	48 0f be c0          	movsbq %al,%rax
   14dae:	8b 55 fc             	mov    -0x4(%rbp),%edx
   14db1:	48 8d 35 bd 43 00 00 	lea    0x43bd(%rip),%rsi        # 19175 <g_4129+0xcf5>
   14db8:	48 89 c7             	mov    %rax,%rdi
   14dbb:	e8 33 69 ff ff       	callq  b6f3 <transparent_crc>
   14dc0:	8b 45 f0             	mov    -0x10(%rbp),%eax
   14dc3:	48 63 d0             	movslq %eax,%rdx
   14dc6:	48 89 d0             	mov    %rdx,%rax
   14dc9:	48 01 c0             	add    %rax,%rax
   14dcc:	48 01 d0             	add    %rdx,%rax
   14dcf:	48 c1 e0 02          	shl    $0x2,%rax
   14dd3:	48 89 c2             	mov    %rax,%rdx
   14dd6:	48 8d 05 63 82 00 00 	lea    0x8263(%rip),%rax        # 1d040 <g_57>
   14ddd:	0f b6 04 02          	movzbl (%rdx,%rax,1),%eax
   14de1:	48 0f be c0          	movsbq %al,%rax
   14de5:	8b 55 fc             	mov    -0x4(%rbp),%edx
   14de8:	48 8d 35 91 43 00 00 	lea    0x4391(%rip),%rsi        # 19180 <g_4129+0xd00>
   14def:	48 89 c7             	mov    %rax,%rdi
   14df2:	e8 fc 68 ff ff       	callq  b6f3 <transparent_crc>
   14df7:	83 7d fc 00          	cmpl   $0x0,-0x4(%rbp)
   14dfb:	74 16                	je     14e13 <main+0x157>
   14dfd:	8b 45 f0             	mov    -0x10(%rbp),%eax
   14e00:	89 c6                	mov    %eax,%esi
   14e02:	48 8d 3d 82 43 00 00 	lea    0x4382(%rip),%rdi        # 1918b <g_4129+0xd0b>
   14e09:	b8 00 00 00 00       	mov    $0x0,%eax
   14e0e:	e8 6d 52 ff ff       	callq  a080 <printf@plt>
   14e13:	83 45 f0 01          	addl   $0x1,-0x10(%rbp)
   14e17:	83 7d f0 05          	cmpl   $0x5,-0x10(%rbp)
   14e1b:	0f 8e 32 ff ff ff    	jle    14d53 <main+0x97>
   14e21:	0f b7 05 60 82 00 00 	movzwl 0x8260(%rip),%eax        # 1d088 <g_83>
   14e28:	48 0f bf c0          	movswq %ax,%rax
   14e2c:	8b 55 fc             	mov    -0x4(%rbp),%edx
   14e2f:	48 8d 35 63 43 00 00 	lea    0x4363(%rip),%rsi        # 19199 <g_4129+0xd19>
   14e36:	48 89 c7             	mov    %rax,%rdi
   14e39:	e8 b5 68 ff ff       	callq  b6f3 <transparent_crc>
   14e3e:	8b 05 48 82 00 00    	mov    0x8248(%rip),%eax        # 1d08c <g_85>
   14e44:	48 98                	cltq   
   14e46:	8b 55 fc             	mov    -0x4(%rbp),%edx
   14e49:	48 8d 35 4e 43 00 00 	lea    0x434e(%rip),%rsi        # 1919e <g_4129+0xd1e>
   14e50:	48 89 c7             	mov    %rax,%rdi
   14e53:	e8 9b 68 ff ff       	callq  b6f3 <transparent_crc>
   14e58:	b8 09 00 00 00       	mov    $0x9,%eax
   14e5d:	48 0f bf c0          	movswq %ax,%rax
   14e61:	8b 55 fc             	mov    -0x4(%rbp),%edx
   14e64:	48 8d 35 38 43 00 00 	lea    0x4338(%rip),%rsi        # 191a3 <g_4129+0xd23>
   14e6b:	48 89 c7             	mov    %rax,%rdi
   14e6e:	e8 80 68 ff ff       	callq  b6f3 <transparent_crc>
   14e73:	8b 05 17 82 00 00    	mov    0x8217(%rip),%eax        # 1d090 <g_122>
   14e79:	89 c1                	mov    %eax,%ecx
   14e7b:	8b 45 fc             	mov    -0x4(%rbp),%eax
   14e7e:	89 c2                	mov    %eax,%edx
   14e80:	48 8d 35 24 43 00 00 	lea    0x4324(%rip),%rsi        # 191ab <g_4129+0xd2b>
   14e87:	48 89 cf             	mov    %rcx,%rdi
   14e8a:	e8 64 68 ff ff       	callq  b6f3 <transparent_crc>
   14e8f:	8b 05 ff 81 00 00    	mov    0x81ff(%rip),%eax        # 1d094 <g_122+0x4>
   14e95:	48 98                	cltq   
   14e97:	8b 55 fc             	mov    -0x4(%rbp),%edx
   14e9a:	48 8d 35 13 43 00 00 	lea    0x4313(%rip),%rsi        # 191b4 <g_4129+0xd34>
   14ea1:	48 89 c7             	mov    %rax,%rdi
   14ea4:	e8 4a 68 ff ff       	callq  b6f3 <transparent_crc>
   14ea9:	8b 05 e9 81 00 00    	mov    0x81e9(%rip),%eax        # 1d098 <g_122+0x8>
   14eaf:	48 98                	cltq   
   14eb1:	8b 55 fc             	mov    -0x4(%rbp),%edx
   14eb4:	48 8d 35 02 43 00 00 	lea    0x4302(%rip),%rsi        # 191bd <g_4129+0xd3d>
   14ebb:	48 89 c7             	mov    %rax,%rdi
   14ebe:	e8 30 68 ff ff       	callq  b6f3 <transparent_crc>
   14ec3:	0f b7 05 d2 81 00 00 	movzwl 0x81d2(%rip),%eax        # 1d09c <g_128>
   14eca:	0f b7 c0             	movzwl %ax,%eax
   14ecd:	8b 55 fc             	mov    -0x4(%rbp),%edx
   14ed0:	48 8d 35 ef 42 00 00 	lea    0x42ef(%rip),%rsi        # 191c6 <g_4129+0xd46>
   14ed7:	48 89 c7             	mov    %rax,%rdi
   14eda:	e8 14 68 ff ff       	callq  b6f3 <transparent_crc>
   14edf:	c7 45 f0 00 00 00 00 	movl   $0x0,-0x10(%rbp)
   14ee6:	eb 49                	jmp    14f31 <main+0x275>
   14ee8:	8b 45 f0             	mov    -0x10(%rbp),%eax
   14eeb:	48 98                	cltq   
   14eed:	48 8d 14 00          	lea    (%rax,%rax,1),%rdx
   14ef1:	48 8d 05 a8 81 00 00 	lea    0x81a8(%rip),%rax        # 1d0a0 <g_153>
   14ef8:	0f b7 04 02          	movzwl (%rdx,%rax,1),%eax
   14efc:	0f b7 c0             	movzwl %ax,%eax
   14eff:	8b 55 fc             	mov    -0x4(%rbp),%edx
   14f02:	48 8d 35 c3 42 00 00 	lea    0x42c3(%rip),%rsi        # 191cc <g_4129+0xd4c>
   14f09:	48 89 c7             	mov    %rax,%rdi
   14f0c:	e8 e2 67 ff ff       	callq  b6f3 <transparent_crc>
   14f11:	83 7d fc 00          	cmpl   $0x0,-0x4(%rbp)
   14f15:	74 16                	je     14f2d <main+0x271>
   14f17:	8b 45 f0             	mov    -0x10(%rbp),%eax
   14f1a:	89 c6                	mov    %eax,%esi
   14f1c:	48 8d 3d 68 42 00 00 	lea    0x4268(%rip),%rdi        # 1918b <g_4129+0xd0b>
   14f23:	b8 00 00 00 00       	mov    $0x0,%eax
   14f28:	e8 53 51 ff ff       	callq  a080 <printf@plt>
   14f2d:	83 45 f0 01          	addl   $0x1,-0x10(%rbp)
   14f31:	83 7d f0 09          	cmpl   $0x9,-0x10(%rbp)
   14f35:	7e b1                	jle    14ee8 <main+0x22c>
   14f37:	b8 8d 86 ff ff       	mov    $0xffff868d,%eax
   14f3c:	48 0f bf c0          	movswq %ax,%rax
   14f40:	8b 55 fc             	mov    -0x4(%rbp),%edx
   14f43:	48 8d 35 8b 42 00 00 	lea    0x428b(%rip),%rsi        # 191d5 <g_4129+0xd55>
   14f4a:	48 89 c7             	mov    %rax,%rdi
   14f4d:	e8 a1 67 ff ff       	callq  b6f3 <transparent_crc>
   14f52:	c7 45 f0 00 00 00 00 	movl   $0x0,-0x10(%rbp)
   14f59:	e9 be 00 00 00       	jmpq   1501c <main+0x360>
   14f5e:	8b 45 f0             	mov    -0x10(%rbp),%eax
   14f61:	48 63 d0             	movslq %eax,%rdx
   14f64:	48 89 d0             	mov    %rdx,%rax
   14f67:	48 01 c0             	add    %rax,%rax
   14f6a:	48 01 d0             	add    %rdx,%rax
   14f6d:	48 c1 e0 02          	shl    $0x2,%rax
   14f71:	48 89 c2             	mov    %rax,%rdx
   14f74:	48 8d 05 45 81 00 00 	lea    0x8145(%rip),%rax        # 1d0c0 <g_173>
   14f7b:	8b 04 02             	mov    (%rdx,%rax,1),%eax
   14f7e:	89 c1                	mov    %eax,%ecx
   14f80:	8b 45 fc             	mov    -0x4(%rbp),%eax
   14f83:	89 c2                	mov    %eax,%edx
   14f85:	48 8d 35 52 42 00 00 	lea    0x4252(%rip),%rsi        # 191de <g_4129+0xd5e>
   14f8c:	48 89 cf             	mov    %rcx,%rdi
   14f8f:	e8 5f 67 ff ff       	callq  b6f3 <transparent_crc>
   14f94:	8b 45 f0             	mov    -0x10(%rbp),%eax
   14f97:	48 63 d0             	movslq %eax,%rdx
   14f9a:	48 89 d0             	mov    %rdx,%rax
   14f9d:	48 01 c0             	add    %rax,%rax
   14fa0:	48 01 d0             	add    %rdx,%rax
   14fa3:	48 c1 e0 02          	shl    $0x2,%rax
   14fa7:	48 89 c2             	mov    %rax,%rdx
   14faa:	48 8d 05 13 81 00 00 	lea    0x8113(%rip),%rax        # 1d0c4 <g_173+0x4>
   14fb1:	8b 04 02             	mov    (%rdx,%rax,1),%eax
   14fb4:	48 98                	cltq   
   14fb6:	8b 55 fc             	mov    -0x4(%rbp),%edx
   14fb9:	48 8d 35 2a 42 00 00 	lea    0x422a(%rip),%rsi        # 191ea <g_4129+0xd6a>
   14fc0:	48 89 c7             	mov    %rax,%rdi
   14fc3:	e8 2b 67 ff ff       	callq  b6f3 <transparent_crc>
   14fc8:	8b 45 f0             	mov    -0x10(%rbp),%eax
   14fcb:	48 63 d0             	movslq %eax,%rdx
   14fce:	48 89 d0             	mov    %rdx,%rax
   14fd1:	48 01 c0             	add    %rax,%rax
   14fd4:	48 01 d0             	add    %rdx,%rax
   14fd7:	48 c1 e0 02          	shl    $0x2,%rax
   14fdb:	48 89 c2             	mov    %rax,%rdx
   14fde:	48 8d 05 e3 80 00 00 	lea    0x80e3(%rip),%rax        # 1d0c8 <g_173+0x8>
   14fe5:	8b 04 02             	mov    (%rdx,%rax,1),%eax
   14fe8:	48 98                	cltq   
   14fea:	8b 55 fc             	mov    -0x4(%rbp),%edx
   14fed:	48 8d 35 02 42 00 00 	lea    0x4202(%rip),%rsi        # 191f6 <g_4129+0xd76>
   14ff4:	48 89 c7             	mov    %rax,%rdi
   14ff7:	e8 f7 66 ff ff       	callq  b6f3 <transparent_crc>
   14ffc:	83 7d fc 00          	cmpl   $0x0,-0x4(%rbp)
   15000:	74 16                	je     15018 <main+0x35c>
   15002:	8b 45 f0             	mov    -0x10(%rbp),%eax
   15005:	89 c6                	mov    %eax,%esi
   15007:	48 8d 3d 7d 41 00 00 	lea    0x417d(%rip),%rdi        # 1918b <g_4129+0xd0b>
   1500e:	b8 00 00 00 00       	mov    $0x0,%eax
   15013:	e8 68 50 ff ff       	callq  a080 <printf@plt>
   15018:	83 45 f0 01          	addl   $0x1,-0x10(%rbp)
   1501c:	83 7d f0 01          	cmpl   $0x1,-0x10(%rbp)
   15020:	0f 8e 38 ff ff ff    	jle    14f5e <main+0x2a2>
   15026:	c7 45 f0 00 00 00 00 	movl   $0x0,-0x10(%rbp)
   1502d:	eb 4e                	jmp    1507d <main+0x3c1>
   1502f:	8b 45 f0             	mov    -0x10(%rbp),%eax
   15032:	48 98                	cltq   
   15034:	48 8d 14 85 00 00 00 	lea    0x0(,%rax,4),%rdx
   1503b:	00 
   1503c:	48 8d 05 1d 30 00 00 	lea    0x301d(%rip),%rax        # 18060 <g_202>
   15043:	0f b7 04 02          	movzwl (%rdx,%rax,1),%eax
   15047:	48 0f bf c0          	movswq %ax,%rax
   1504b:	8b 55 fc             	mov    -0x4(%rbp),%edx
   1504e:	48 8d 35 ad 41 00 00 	lea    0x41ad(%rip),%rsi        # 19202 <g_4129+0xd82>
   15055:	48 89 c7             	mov    %rax,%rdi
   15058:	e8 96 66 ff ff       	callq  b6f3 <transparent_crc>
   1505d:	83 7d fc 00          	cmpl   $0x0,-0x4(%rbp)
   15061:	74 16                	je     15079 <main+0x3bd>
   15063:	8b 45 f0             	mov    -0x10(%rbp),%eax
   15066:	89 c6                	mov    %eax,%esi
   15068:	48 8d 3d 1c 41 00 00 	lea    0x411c(%rip),%rdi        # 1918b <g_4129+0xd0b>
   1506f:	b8 00 00 00 00       	mov    $0x0,%eax
   15074:	e8 07 50 ff ff       	callq  a080 <printf@plt>
   15079:	83 45 f0 01          	addl   $0x1,-0x10(%rbp)
   1507d:	83 7d f0 07          	cmpl   $0x7,-0x10(%rbp)
   15081:	7e ac                	jle    1502f <main+0x373>
   15083:	48 8b 05 4e 80 00 00 	mov    0x804e(%rip),%rax        # 1d0d8 <g_216>
   1508a:	8b 55 fc             	mov    -0x4(%rbp),%edx
   1508d:	48 8d 35 7a 41 00 00 	lea    0x417a(%rip),%rsi        # 1920e <g_4129+0xd8e>
   15094:	48 89 c7             	mov    %rax,%rdi
   15097:	e8 57 66 ff ff       	callq  b6f3 <transparent_crc>
   1509c:	8b 05 3e 80 00 00    	mov    0x803e(%rip),%eax        # 1d0e0 <g_227>
   150a2:	48 98                	cltq   
   150a4:	8b 55 fc             	mov    -0x4(%rbp),%edx
   150a7:	48 8d 35 66 41 00 00 	lea    0x4166(%rip),%rsi        # 19214 <g_4129+0xd94>
   150ae:	48 89 c7             	mov    %rax,%rdi
   150b1:	e8 3d 66 ff ff       	callq  b6f3 <transparent_crc>
   150b6:	8b 05 6c ce 00 00    	mov    0xce6c(%rip),%eax        # 21f28 <g_228>
   150bc:	48 98                	cltq   
   150be:	8b 55 fc             	mov    -0x4(%rbp),%edx
   150c1:	48 8d 35 52 41 00 00 	lea    0x4152(%rip),%rsi        # 1921a <g_4129+0xd9a>
   150c8:	48 89 c7             	mov    %rax,%rdi
   150cb:	e8 23 66 ff ff       	callq  b6f3 <transparent_crc>
   150d0:	c7 45 f0 00 00 00 00 	movl   $0x0,-0x10(%rbp)
   150d7:	eb 4d                	jmp    15126 <main+0x46a>
   150d9:	8b 45 f0             	mov    -0x10(%rbp),%eax
   150dc:	48 98                	cltq   
   150de:	48 8d 14 85 00 00 00 	lea    0x0(,%rax,4),%rdx
   150e5:	00 
   150e6:	48 8d 05 fb 7f 00 00 	lea    0x7ffb(%rip),%rax        # 1d0e8 <g_232>
   150ed:	8b 04 02             	mov    (%rdx,%rax,1),%eax
   150f0:	89 c1                	mov    %eax,%ecx
   150f2:	8b 45 fc             	mov    -0x4(%rbp),%eax
   150f5:	89 c2                	mov    %eax,%edx
   150f7:	48 8d 35 22 41 00 00 	lea    0x4122(%rip),%rsi        # 19220 <g_4129+0xda0>
   150fe:	48 89 cf             	mov    %rcx,%rdi
   15101:	e8 ed 65 ff ff       	callq  b6f3 <transparent_crc>
   15106:	83 7d fc 00          	cmpl   $0x0,-0x4(%rbp)
   1510a:	74 16                	je     15122 <main+0x466>
   1510c:	8b 45 f0             	mov    -0x10(%rbp),%eax
   1510f:	89 c6                	mov    %eax,%esi
   15111:	48 8d 3d 73 40 00 00 	lea    0x4073(%rip),%rdi        # 1918b <g_4129+0xd0b>
   15118:	b8 00 00 00 00       	mov    $0x0,%eax
   1511d:	e8 5e 4f ff ff       	callq  a080 <printf@plt>
   15122:	83 45 f0 01          	addl   $0x1,-0x10(%rbp)
   15126:	83 7d f0 02          	cmpl   $0x2,-0x10(%rbp)
   1512a:	7e ad                	jle    150d9 <main+0x41d>
   1512c:	0f b6 05 c5 7f 00 00 	movzbl 0x7fc5(%rip),%eax        # 1d0f8 <g_273>
   15133:	0f b6 c0             	movzbl %al,%eax
   15136:	8b 55 fc             	mov    -0x4(%rbp),%edx
   15139:	48 8d 35 e9 40 00 00 	lea    0x40e9(%rip),%rsi        # 19229 <g_4129+0xda9>
   15140:	48 89 c7             	mov    %rax,%rdi
   15143:	e8 ab 65 ff ff       	callq  b6f3 <transparent_crc>
   15148:	0f b6 05 a9 7f 00 00 	movzbl 0x7fa9(%rip),%eax        # 1d0f8 <g_273>
   1514f:	48 0f be c0          	movsbq %al,%rax
   15153:	8b 55 fc             	mov    -0x4(%rbp),%edx
   15156:	48 8d 35 d5 40 00 00 	lea    0x40d5(%rip),%rsi        # 19232 <g_4129+0xdb2>
   1515d:	48 89 c7             	mov    %rax,%rdi
   15160:	e8 8e 65 ff ff       	callq  b6f3 <transparent_crc>
   15165:	0f b6 05 8c 7f 00 00 	movzbl 0x7f8c(%rip),%eax        # 1d0f8 <g_273>
   1516c:	48 0f be c0          	movsbq %al,%rax
   15170:	8b 55 fc             	mov    -0x4(%rbp),%edx
   15173:	48 8d 35 c1 40 00 00 	lea    0x40c1(%rip),%rsi        # 1923b <g_4129+0xdbb>
   1517a:	48 89 c7             	mov    %rax,%rdi
   1517d:	e8 71 65 ff ff       	callq  b6f3 <transparent_crc>
   15182:	0f b6 05 7f 7f 00 00 	movzbl 0x7f7f(%rip),%eax        # 1d108 <g_274>
   15189:	0f b6 c0             	movzbl %al,%eax
   1518c:	8b 55 fc             	mov    -0x4(%rbp),%edx
   1518f:	48 8d 35 ae 40 00 00 	lea    0x40ae(%rip),%rsi        # 19244 <g_4129+0xdc4>
   15196:	48 89 c7             	mov    %rax,%rdi
   15199:	e8 55 65 ff ff       	callq  b6f3 <transparent_crc>
   1519e:	0f b6 05 63 7f 00 00 	movzbl 0x7f63(%rip),%eax        # 1d108 <g_274>
   151a5:	48 0f be c0          	movsbq %al,%rax
   151a9:	8b 55 fc             	mov    -0x4(%rbp),%edx
   151ac:	48 8d 35 9a 40 00 00 	lea    0x409a(%rip),%rsi        # 1924d <g_4129+0xdcd>
   151b3:	48 89 c7             	mov    %rax,%rdi
   151b6:	e8 38 65 ff ff       	callq  b6f3 <transparent_crc>
   151bb:	0f b6 05 46 7f 00 00 	movzbl 0x7f46(%rip),%eax        # 1d108 <g_274>
   151c2:	48 0f be c0          	movsbq %al,%rax
   151c6:	8b 55 fc             	mov    -0x4(%rbp),%edx
   151c9:	48 8d 35 86 40 00 00 	lea    0x4086(%rip),%rsi        # 19256 <g_4129+0xdd6>
   151d0:	48 89 c7             	mov    %rax,%rdi
   151d3:	e8 1b 65 ff ff       	callq  b6f3 <transparent_crc>
   151d8:	0f b6 05 39 7f 00 00 	movzbl 0x7f39(%rip),%eax        # 1d118 <g_277>
   151df:	0f b6 c0             	movzbl %al,%eax
   151e2:	8b 55 fc             	mov    -0x4(%rbp),%edx
   151e5:	48 8d 35 73 40 00 00 	lea    0x4073(%rip),%rsi        # 1925f <g_4129+0xddf>
   151ec:	48 89 c7             	mov    %rax,%rdi
   151ef:	e8 ff 64 ff ff       	callq  b6f3 <transparent_crc>
   151f4:	0f b6 05 1d 7f 00 00 	movzbl 0x7f1d(%rip),%eax        # 1d118 <g_277>
   151fb:	48 0f be c0          	movsbq %al,%rax
   151ff:	8b 55 fc             	mov    -0x4(%rbp),%edx
   15202:	48 8d 35 5f 40 00 00 	lea    0x405f(%rip),%rsi        # 19268 <g_4129+0xde8>
   15209:	48 89 c7             	mov    %rax,%rdi
   1520c:	e8 e2 64 ff ff       	callq  b6f3 <transparent_crc>
   15211:	0f b6 05 00 7f 00 00 	movzbl 0x7f00(%rip),%eax        # 1d118 <g_277>
   15218:	48 0f be c0          	movsbq %al,%rax
   1521c:	8b 55 fc             	mov    -0x4(%rbp),%edx
   1521f:	48 8d 35 4b 40 00 00 	lea    0x404b(%rip),%rsi        # 19271 <g_4129+0xdf1>
   15226:	48 89 c7             	mov    %rax,%rdi
   15229:	e8 c5 64 ff ff       	callq  b6f3 <transparent_crc>
   1522e:	48 8b 05 f3 7e 00 00 	mov    0x7ef3(%rip),%rax        # 1d128 <g_291>
   15235:	8b 55 fc             	mov    -0x4(%rbp),%edx
   15238:	48 8d 35 3b 40 00 00 	lea    0x403b(%rip),%rsi        # 1927a <g_4129+0xdfa>
   1523f:	48 89 c7             	mov    %rax,%rdi
   15242:	e8 ac 64 ff ff       	callq  b6f3 <transparent_crc>
   15247:	b8 01 00 00 00       	mov    $0x1,%eax
   1524c:	48 0f bf c0          	movswq %ax,%rax
   15250:	8b 55 fc             	mov    -0x4(%rbp),%edx
   15253:	48 8d 35 26 40 00 00 	lea    0x4026(%rip),%rsi        # 19280 <g_4129+0xe00>
   1525a:	48 89 c7             	mov    %rax,%rdi
   1525d:	e8 91 64 ff ff       	callq  b6f3 <transparent_crc>
   15262:	8b 05 c8 7e 00 00    	mov    0x7ec8(%rip),%eax        # 1d130 <g_301>
   15268:	89 c1                	mov    %eax,%ecx
   1526a:	8b 45 fc             	mov    -0x4(%rbp),%eax
   1526d:	89 c2                	mov    %eax,%edx
   1526f:	48 8d 35 13 40 00 00 	lea    0x4013(%rip),%rsi        # 19289 <g_4129+0xe09>
   15276:	48 89 cf             	mov    %rcx,%rdi
   15279:	e8 75 64 ff ff       	callq  b6f3 <transparent_crc>
   1527e:	0f b6 05 af 7e 00 00 	movzbl 0x7eaf(%rip),%eax        # 1d134 <g_330>
   15285:	48 0f be c0          	movsbq %al,%rax
   15289:	8b 55 fc             	mov    -0x4(%rbp),%edx
   1528c:	48 8d 35 fc 3f 00 00 	lea    0x3ffc(%rip),%rsi        # 1928f <g_4129+0xe0f>
   15293:	48 89 c7             	mov    %rax,%rdi
   15296:	e8 58 64 ff ff       	callq  b6f3 <transparent_crc>
   1529b:	8b 05 97 7e 00 00    	mov    0x7e97(%rip),%eax        # 1d138 <g_331>
   152a1:	48 98                	cltq   
   152a3:	8b 55 fc             	mov    -0x4(%rbp),%edx
   152a6:	48 8d 35 e8 3f 00 00 	lea    0x3fe8(%rip),%rsi        # 19295 <g_4129+0xe15>
   152ad:	48 89 c7             	mov    %rax,%rdi
   152b0:	e8 3e 64 ff ff       	callq  b6f3 <transparent_crc>
   152b5:	b8 e6 b3 ff ff       	mov    $0xffffb3e6,%eax
   152ba:	48 0f bf c0          	movswq %ax,%rax
   152be:	8b 55 fc             	mov    -0x4(%rbp),%edx
   152c1:	48 8d 35 d3 3f 00 00 	lea    0x3fd3(%rip),%rsi        # 1929b <g_4129+0xe1b>
   152c8:	48 89 c7             	mov    %rax,%rdi
   152cb:	e8 23 64 ff ff       	callq  b6f3 <transparent_crc>
   152d0:	b8 37 b9 ff ff       	mov    $0xffffb937,%eax
   152d5:	48 0f bf c0          	movswq %ax,%rax
   152d9:	8b 55 fc             	mov    -0x4(%rbp),%edx
   152dc:	48 8d 35 c1 3f 00 00 	lea    0x3fc1(%rip),%rsi        # 192a4 <g_4129+0xe24>
   152e3:	48 89 c7             	mov    %rax,%rdi
   152e6:	e8 08 64 ff ff       	callq  b6f3 <transparent_crc>
   152eb:	8b 05 4f 7e 00 00    	mov    0x7e4f(%rip),%eax        # 1d140 <g_359>
   152f1:	89 c1                	mov    %eax,%ecx
   152f3:	8b 45 fc             	mov    -0x4(%rbp),%eax
   152f6:	89 c2                	mov    %eax,%edx
   152f8:	48 8d 35 ae 3f 00 00 	lea    0x3fae(%rip),%rsi        # 192ad <g_4129+0xe2d>
   152ff:	48 89 cf             	mov    %rcx,%rdi
   15302:	e8 ec 63 ff ff       	callq  b6f3 <transparent_crc>
   15307:	8b 05 37 7e 00 00    	mov    0x7e37(%rip),%eax        # 1d144 <g_359+0x4>
   1530d:	48 98                	cltq   
   1530f:	8b 55 fc             	mov    -0x4(%rbp),%edx
   15312:	48 8d 35 9d 3f 00 00 	lea    0x3f9d(%rip),%rsi        # 192b6 <g_4129+0xe36>
   15319:	48 89 c7             	mov    %rax,%rdi
   1531c:	e8 d2 63 ff ff       	callq  b6f3 <transparent_crc>
   15321:	8b 05 21 7e 00 00    	mov    0x7e21(%rip),%eax        # 1d148 <g_359+0x8>
   15327:	48 98                	cltq   
   15329:	8b 55 fc             	mov    -0x4(%rbp),%edx
   1532c:	48 8d 35 8c 3f 00 00 	lea    0x3f8c(%rip),%rsi        # 192bf <g_4129+0xe3f>
   15333:	48 89 c7             	mov    %rax,%rdi
   15336:	e8 b8 63 ff ff       	callq  b6f3 <transparent_crc>
   1533b:	0f b6 05 0a 7e 00 00 	movzbl 0x7e0a(%rip),%eax        # 1d14c <g_384>
   15342:	48 0f be c0          	movsbq %al,%rax
   15346:	8b 55 fc             	mov    -0x4(%rbp),%edx
   15349:	48 8d 35 78 3f 00 00 	lea    0x3f78(%rip),%rsi        # 192c8 <g_4129+0xe48>
   15350:	48 89 c7             	mov    %rax,%rdi
   15353:	e8 9b 63 ff ff       	callq  b6f3 <transparent_crc>
   15358:	0f b7 05 ef 7d 00 00 	movzwl 0x7def(%rip),%eax        # 1d14e <g_399>
   1535f:	48 0f bf c0          	movswq %ax,%rax
   15363:	8b 55 fc             	mov    -0x4(%rbp),%edx
   15366:	48 8d 35 61 3f 00 00 	lea    0x3f61(%rip),%rsi        # 192ce <g_4129+0xe4e>
   1536d:	48 89 c7             	mov    %rax,%rdi
   15370:	e8 7e 63 ff ff       	callq  b6f3 <transparent_crc>
   15375:	c7 45 f0 00 00 00 00 	movl   $0x0,-0x10(%rbp)
   1537c:	e9 b7 00 00 00       	jmpq   15438 <main+0x77c>
   15381:	c7 45 f4 00 00 00 00 	movl   $0x0,-0xc(%rbp)
   15388:	e9 9d 00 00 00       	jmpq   1542a <main+0x76e>
   1538d:	c7 45 f8 00 00 00 00 	movl   $0x0,-0x8(%rbp)
   15394:	e9 83 00 00 00       	jmpq   1541c <main+0x760>
   15399:	8b 45 f8             	mov    -0x8(%rbp),%eax
   1539c:	48 63 f0             	movslq %eax,%rsi
   1539f:	8b 45 f0             	mov    -0x10(%rbp),%eax
   153a2:	48 98                	cltq   
   153a4:	8b 55 f4             	mov    -0xc(%rbp),%edx
   153a7:	48 63 ca             	movslq %edx,%rcx
   153aa:	48 89 c2             	mov    %rax,%rdx
   153ad:	48 c1 e2 04          	shl    $0x4,%rdx
   153b1:	48 29 c2             	sub    %rax,%rdx
   153b4:	48 8d 04 12          	lea    (%rdx,%rdx,1),%rax
   153b8:	48 89 c2             	mov    %rax,%rdx
   153bb:	48 89 c8             	mov    %rcx,%rax
   153be:	48 01 c0             	add    %rax,%rax
   153c1:	48 01 c8             	add    %rcx,%rax
   153c4:	48 01 c0             	add    %rax,%rax
   153c7:	48 01 d0             	add    %rdx,%rax
   153ca:	48 01 f0             	add    %rsi,%rax
   153cd:	48 8d 14 85 00 00 00 	lea    0x0(,%rax,4),%rdx
   153d4:	00 
   153d5:	48 8d 05 c4 2c 00 00 	lea    0x2cc4(%rip),%rax        # 180a0 <g_401>
   153dc:	0f b7 04 02          	movzwl (%rdx,%rax,1),%eax
   153e0:	48 0f bf c0          	movswq %ax,%rax
   153e4:	8b 55 fc             	mov    -0x4(%rbp),%edx
   153e7:	48 8d 35 e6 3e 00 00 	lea    0x3ee6(%rip),%rsi        # 192d4 <g_4129+0xe54>
   153ee:	48 89 c7             	mov    %rax,%rdi
   153f1:	e8 fd 62 ff ff       	callq  b6f3 <transparent_crc>
   153f6:	83 7d fc 00          	cmpl   $0x0,-0x4(%rbp)
   153fa:	74 1c                	je     15418 <main+0x75c>
   153fc:	8b 4d f8             	mov    -0x8(%rbp),%ecx
   153ff:	8b 55 f4             	mov    -0xc(%rbp),%edx
   15402:	8b 45 f0             	mov    -0x10(%rbp),%eax
   15405:	89 c6                	mov    %eax,%esi
   15407:	48 8d 3d d8 3e 00 00 	lea    0x3ed8(%rip),%rdi        # 192e6 <g_4129+0xe66>
   1540e:	b8 00 00 00 00       	mov    $0x0,%eax
   15413:	e8 68 4c ff ff       	callq  a080 <printf@plt>
   15418:	83 45 f8 01          	addl   $0x1,-0x8(%rbp)
   1541c:	83 7d f8 05          	cmpl   $0x5,-0x8(%rbp)
   15420:	0f 8e 73 ff ff ff    	jle    15399 <main+0x6dd>
   15426:	83 45 f4 01          	addl   $0x1,-0xc(%rbp)
   1542a:	83 7d f4 04          	cmpl   $0x4,-0xc(%rbp)
   1542e:	0f 8e 59 ff ff ff    	jle    1538d <main+0x6d1>
   15434:	83 45 f0 01          	addl   $0x1,-0x10(%rbp)
   15438:	83 7d f0 06          	cmpl   $0x6,-0x10(%rbp)
   1543c:	0f 8e 3f ff ff ff    	jle    15381 <main+0x6c5>
   15442:	8b 05 08 7d 00 00    	mov    0x7d08(%rip),%eax        # 1d150 <g_419>
   15448:	89 c1                	mov    %eax,%ecx
   1544a:	8b 45 fc             	mov    -0x4(%rbp),%eax
   1544d:	89 c2                	mov    %eax,%edx
   1544f:	48 8d 35 a6 3e 00 00 	lea    0x3ea6(%rip),%rsi        # 192fc <g_4129+0xe7c>
   15456:	48 89 cf             	mov    %rcx,%rdi
   15459:	e8 95 62 ff ff       	callq  b6f3 <transparent_crc>
   1545e:	0f b7 05 ef 7c 00 00 	movzwl 0x7cef(%rip),%eax        # 1d154 <g_440>
   15465:	48 0f bf c0          	movswq %ax,%rax
   15469:	8b 55 fc             	mov    -0x4(%rbp),%edx
   1546c:	48 8d 35 8f 3e 00 00 	lea    0x3e8f(%rip),%rsi        # 19302 <g_4129+0xe82>
   15473:	48 89 c7             	mov    %rax,%rdi
   15476:	e8 78 62 ff ff       	callq  b6f3 <transparent_crc>
   1547b:	8b 05 d7 7c 00 00    	mov    0x7cd7(%rip),%eax        # 1d158 <g_441>
   15481:	89 c1                	mov    %eax,%ecx
   15483:	8b 45 fc             	mov    -0x4(%rbp),%eax
   15486:	89 c2                	mov    %eax,%edx
   15488:	48 8d 35 7c 3e 00 00 	lea    0x3e7c(%rip),%rsi        # 1930b <g_4129+0xe8b>
   1548f:	48 89 cf             	mov    %rcx,%rdi
   15492:	e8 5c 62 ff ff       	callq  b6f3 <transparent_crc>
   15497:	8b 05 bf 7c 00 00    	mov    0x7cbf(%rip),%eax        # 1d15c <g_461>
   1549d:	89 c1                	mov    %eax,%ecx
   1549f:	8b 45 fc             	mov    -0x4(%rbp),%eax
   154a2:	89 c2                	mov    %eax,%edx
   154a4:	48 8d 35 66 3e 00 00 	lea    0x3e66(%rip),%rsi        # 19311 <g_4129+0xe91>
   154ab:	48 89 cf             	mov    %rcx,%rdi
   154ae:	e8 40 62 ff ff       	callq  b6f3 <transparent_crc>
   154b3:	c7 45 f0 00 00 00 00 	movl   $0x0,-0x10(%rbp)
   154ba:	eb 4a                	jmp    15506 <main+0x84a>
   154bc:	8b 45 f0             	mov    -0x10(%rbp),%eax
   154bf:	48 98                	cltq   
   154c1:	48 8d 14 c5 00 00 00 	lea    0x0(,%rax,8),%rdx
   154c8:	00 
   154c9:	48 8d 05 90 7c 00 00 	lea    0x7c90(%rip),%rax        # 1d160 <g_480>
   154d0:	48 8b 04 02          	mov    (%rdx,%rax,1),%rax
   154d4:	8b 55 fc             	mov    -0x4(%rbp),%edx
   154d7:	48 8d 35 39 3e 00 00 	lea    0x3e39(%rip),%rsi        # 19317 <g_4129+0xe97>
   154de:	48 89 c7             	mov    %rax,%rdi
   154e1:	e8 0d 62 ff ff       	callq  b6f3 <transparent_crc>
   154e6:	83 7d fc 00          	cmpl   $0x0,-0x4(%rbp)
   154ea:	74 16                	je     15502 <main+0x846>
   154ec:	8b 45 f0             	mov    -0x10(%rbp),%eax
   154ef:	89 c6                	mov    %eax,%esi
   154f1:	48 8d 3d 93 3c 00 00 	lea    0x3c93(%rip),%rdi        # 1918b <g_4129+0xd0b>
   154f8:	b8 00 00 00 00       	mov    $0x0,%eax
   154fd:	e8 7e 4b ff ff       	callq  a080 <printf@plt>
   15502:	83 45 f0 01          	addl   $0x1,-0x10(%rbp)
   15506:	83 7d f0 02          	cmpl   $0x2,-0x10(%rbp)
   1550a:	7e b0                	jle    154bc <main+0x800>
   1550c:	b8 1d 53 4f 77       	mov    $0x774f531d,%eax
   15511:	89 c1                	mov    %eax,%ecx
   15513:	8b 45 fc             	mov    -0x4(%rbp),%eax
   15516:	89 c2                	mov    %eax,%edx
   15518:	48 8d 35 01 3e 00 00 	lea    0x3e01(%rip),%rsi        # 19320 <g_4129+0xea0>
   1551f:	48 89 cf             	mov    %rcx,%rdi
   15522:	e8 cc 61 ff ff       	callq  b6f3 <transparent_crc>
   15527:	b8 00 00 00 00       	mov    $0x0,%eax
   1552c:	48 98                	cltq   
   1552e:	8b 55 fc             	mov    -0x4(%rbp),%edx
   15531:	48 8d 35 f1 3d 00 00 	lea    0x3df1(%rip),%rsi        # 19329 <g_4129+0xea9>
   15538:	48 89 c7             	mov    %rax,%rdi
   1553b:	e8 b3 61 ff ff       	callq  b6f3 <transparent_crc>
   15540:	8b 05 aa 2e 00 00    	mov    0x2eaa(%rip),%eax        # 183f0 <g_578+0x8>
   15546:	48 98                	cltq   
   15548:	8b 55 fc             	mov    -0x4(%rbp),%edx
   1554b:	48 8d 35 e0 3d 00 00 	lea    0x3de0(%rip),%rsi        # 19332 <g_4129+0xeb2>
   15552:	48 89 c7             	mov    %rax,%rdi
   15555:	e8 99 61 ff ff       	callq  b6f3 <transparent_crc>
   1555a:	48 8b 05 17 7c 00 00 	mov    0x7c17(%rip),%rax        # 1d178 <g_620>
   15561:	8b 55 fc             	mov    -0x4(%rbp),%edx
   15564:	48 8d 35 d0 3d 00 00 	lea    0x3dd0(%rip),%rsi        # 1933b <g_4129+0xebb>
   1556b:	48 89 c7             	mov    %rax,%rdi
   1556e:	e8 80 61 ff ff       	callq  b6f3 <transparent_crc>
   15573:	8b 05 07 7c 00 00    	mov    0x7c07(%rip),%eax        # 1d180 <g_683>
   15579:	89 c1                	mov    %eax,%ecx
   1557b:	8b 45 fc             	mov    -0x4(%rbp),%eax
   1557e:	89 c2                	mov    %eax,%edx
   15580:	48 8d 35 ba 3d 00 00 	lea    0x3dba(%rip),%rsi        # 19341 <g_4129+0xec1>
   15587:	48 89 cf             	mov    %rcx,%rdi
   1558a:	e8 64 61 ff ff       	callq  b6f3 <transparent_crc>
   1558f:	b8 b6 cf ff ff       	mov    $0xffffcfb6,%eax
   15594:	48 0f bf c0          	movswq %ax,%rax
   15598:	8b 55 fc             	mov    -0x4(%rbp),%edx
   1559b:	48 8d 35 a5 3d 00 00 	lea    0x3da5(%rip),%rsi        # 19347 <g_4129+0xec7>
   155a2:	48 89 c7             	mov    %rax,%rdi
   155a5:	e8 49 61 ff ff       	callq  b6f3 <transparent_crc>
   155aa:	0f b7 05 d3 7b 00 00 	movzwl 0x7bd3(%rip),%eax        # 1d184 <g_818>
   155b1:	48 0f bf c0          	movswq %ax,%rax
   155b5:	8b 55 fc             	mov    -0x4(%rbp),%edx
   155b8:	48 8d 35 91 3d 00 00 	lea    0x3d91(%rip),%rsi        # 19350 <g_4129+0xed0>
   155bf:	48 89 c7             	mov    %rax,%rdi
   155c2:	e8 2c 61 ff ff       	callq  b6f3 <transparent_crc>
   155c7:	c7 45 f0 00 00 00 00 	movl   $0x0,-0x10(%rbp)
   155ce:	eb 4b                	jmp    1561b <main+0x95f>
   155d0:	8b 45 f0             	mov    -0x10(%rbp),%eax
   155d3:	48 98                	cltq   
   155d5:	48 8d 14 85 00 00 00 	lea    0x0(,%rax,4),%rdx
   155dc:	00 
   155dd:	48 8d 05 ac 7b 00 00 	lea    0x7bac(%rip),%rax        # 1d190 <g_860>
   155e4:	8b 04 02             	mov    (%rdx,%rax,1),%eax
   155e7:	48 98                	cltq   
   155e9:	8b 55 fc             	mov    -0x4(%rbp),%edx
   155ec:	48 8d 35 66 3d 00 00 	lea    0x3d66(%rip),%rsi        # 19359 <g_4129+0xed9>
   155f3:	48 89 c7             	mov    %rax,%rdi
   155f6:	e8 f8 60 ff ff       	callq  b6f3 <transparent_crc>
   155fb:	83 7d fc 00          	cmpl   $0x0,-0x4(%rbp)
   155ff:	74 16                	je     15617 <main+0x95b>
   15601:	8b 45 f0             	mov    -0x10(%rbp),%eax
   15604:	89 c6                	mov    %eax,%esi
   15606:	48 8d 3d 7e 3b 00 00 	lea    0x3b7e(%rip),%rdi        # 1918b <g_4129+0xd0b>
   1560d:	b8 00 00 00 00       	mov    $0x0,%eax
   15612:	e8 69 4a ff ff       	callq  a080 <printf@plt>
   15617:	83 45 f0 01          	addl   $0x1,-0x10(%rbp)
   1561b:	83 7d f0 05          	cmpl   $0x5,-0x10(%rbp)
   1561f:	7e af                	jle    155d0 <main+0x914>
   15621:	0f b7 05 80 7b 00 00 	movzwl 0x7b80(%rip),%eax        # 1d1a8 <g_875>
   15628:	48 0f bf c0          	movswq %ax,%rax
   1562c:	8b 55 fc             	mov    -0x4(%rbp),%edx
   1562f:	48 8d 35 2c 3d 00 00 	lea    0x3d2c(%rip),%rsi        # 19362 <g_4129+0xee2>
   15636:	48 89 c7             	mov    %rax,%rdi
   15639:	e8 b5 60 ff ff       	callq  b6f3 <transparent_crc>
   1563e:	8b 05 f4 c8 00 00    	mov    0xc8f4(%rip),%eax        # 21f38 <g_912>
   15644:	48 98                	cltq   
   15646:	8b 55 fc             	mov    -0x4(%rbp),%edx
   15649:	48 8d 35 1b 3d 00 00 	lea    0x3d1b(%rip),%rsi        # 1936b <g_4129+0xeeb>
   15650:	48 89 c7             	mov    %rax,%rdi
   15653:	e8 9b 60 ff ff       	callq  b6f3 <transparent_crc>
   15658:	c7 45 f0 00 00 00 00 	movl   $0x0,-0x10(%rbp)
   1565f:	eb 73                	jmp    156d4 <main+0xa18>
   15661:	c7 45 f4 00 00 00 00 	movl   $0x0,-0xc(%rbp)
   15668:	eb 60                	jmp    156ca <main+0xa0e>
   1566a:	8b 45 f4             	mov    -0xc(%rbp),%eax
   1566d:	48 63 c8             	movslq %eax,%rcx
   15670:	8b 45 f0             	mov    -0x10(%rbp),%eax
   15673:	48 63 d0             	movslq %eax,%rdx
   15676:	48 89 d0             	mov    %rdx,%rax
   15679:	48 c1 e0 02          	shl    $0x2,%rax
   1567d:	48 01 d0             	add    %rdx,%rax
   15680:	48 8d 14 08          	lea    (%rax,%rcx,1),%rdx
   15684:	48 8d 05 b1 c8 00 00 	lea    0xc8b1(%rip),%rax        # 21f3c <g_917>
   1568b:	48 01 d0             	add    %rdx,%rax
   1568e:	0f b6 00             	movzbl (%rax),%eax
   15691:	48 0f be c0          	movsbq %al,%rax
   15695:	8b 55 fc             	mov    -0x4(%rbp),%edx
   15698:	48 8d 35 d2 3c 00 00 	lea    0x3cd2(%rip),%rsi        # 19371 <g_4129+0xef1>
   1569f:	48 89 c7             	mov    %rax,%rdi
   156a2:	e8 4c 60 ff ff       	callq  b6f3 <transparent_crc>
   156a7:	83 7d fc 00          	cmpl   $0x0,-0x4(%rbp)
   156ab:	74 19                	je     156c6 <main+0xa0a>
   156ad:	8b 55 f4             	mov    -0xc(%rbp),%edx
   156b0:	8b 45 f0             	mov    -0x10(%rbp),%eax
   156b3:	89 c6                	mov    %eax,%esi
   156b5:	48 8d 3d c1 3c 00 00 	lea    0x3cc1(%rip),%rdi        # 1937d <g_4129+0xefd>
   156bc:	b8 00 00 00 00       	mov    $0x0,%eax
   156c1:	e8 ba 49 ff ff       	callq  a080 <printf@plt>
   156c6:	83 45 f4 01          	addl   $0x1,-0xc(%rbp)
   156ca:	83 7d f4 04          	cmpl   $0x4,-0xc(%rbp)
   156ce:	7e 9a                	jle    1566a <main+0x9ae>
   156d0:	83 45 f0 01          	addl   $0x1,-0x10(%rbp)
   156d4:	83 7d f0 00          	cmpl   $0x0,-0x10(%rbp)
   156d8:	7e 87                	jle    15661 <main+0x9a5>
   156da:	0f b7 05 cb 7a 00 00 	movzwl 0x7acb(%rip),%eax        # 1d1ac <g_956>
   156e1:	0f b7 c0             	movzwl %ax,%eax
   156e4:	8b 55 fc             	mov    -0x4(%rbp),%edx
   156e7:	48 8d 35 a1 3c 00 00 	lea    0x3ca1(%rip),%rsi        # 1938f <g_4129+0xf0f>
   156ee:	48 89 c7             	mov    %rax,%rdi
   156f1:	e8 fd 5f ff ff       	callq  b6f3 <transparent_crc>
   156f6:	8b 05 b4 7a 00 00    	mov    0x7ab4(%rip),%eax        # 1d1b0 <g_1026>
   156fc:	89 c1                	mov    %eax,%ecx
   156fe:	8b 45 fc             	mov    -0x4(%rbp),%eax
   15701:	89 c2                	mov    %eax,%edx
   15703:	48 8d 35 8b 3c 00 00 	lea    0x3c8b(%rip),%rsi        # 19395 <g_4129+0xf15>
   1570a:	48 89 cf             	mov    %rcx,%rdi
   1570d:	e8 e1 5f ff ff       	callq  b6f3 <transparent_crc>
   15712:	8b 05 9c 7a 00 00    	mov    0x7a9c(%rip),%eax        # 1d1b4 <g_1026+0x4>
   15718:	48 98                	cltq   
   1571a:	8b 55 fc             	mov    -0x4(%rbp),%edx
   1571d:	48 8d 35 7b 3c 00 00 	lea    0x3c7b(%rip),%rsi        # 1939f <g_4129+0xf1f>
   15724:	48 89 c7             	mov    %rax,%rdi
   15727:	e8 c7 5f ff ff       	callq  b6f3 <transparent_crc>
   1572c:	8b 05 86 7a 00 00    	mov    0x7a86(%rip),%eax        # 1d1b8 <g_1026+0x8>
   15732:	48 98                	cltq   
   15734:	8b 55 fc             	mov    -0x4(%rbp),%edx
   15737:	48 8d 35 6b 3c 00 00 	lea    0x3c6b(%rip),%rsi        # 193a9 <g_4129+0xf29>
   1573e:	48 89 c7             	mov    %rax,%rdi
   15741:	e8 ad 5f ff ff       	callq  b6f3 <transparent_crc>
   15746:	c7 45 f0 00 00 00 00 	movl   $0x0,-0x10(%rbp)
   1574d:	eb 4e                	jmp    1579d <main+0xae1>
   1574f:	8b 45 f0             	mov    -0x10(%rbp),%eax
   15752:	48 98                	cltq   
   15754:	48 8d 14 85 00 00 00 	lea    0x0(,%rax,4),%rdx
   1575b:	00 
   1575c:	48 8d 05 5d 7a 00 00 	lea    0x7a5d(%rip),%rax        # 1d1c0 <g_1064>
   15763:	0f b7 04 02          	movzwl (%rdx,%rax,1),%eax
   15767:	48 0f bf c0          	movswq %ax,%rax
   1576b:	8b 55 fc             	mov    -0x4(%rbp),%edx
   1576e:	48 8d 35 3e 3c 00 00 	lea    0x3c3e(%rip),%rsi        # 193b3 <g_4129+0xf33>
   15775:	48 89 c7             	mov    %rax,%rdi
   15778:	e8 76 5f ff ff       	callq  b6f3 <transparent_crc>
   1577d:	83 7d fc 00          	cmpl   $0x0,-0x4(%rbp)
   15781:	74 16                	je     15799 <main+0xadd>
   15783:	8b 45 f0             	mov    -0x10(%rbp),%eax
   15786:	89 c6                	mov    %eax,%esi
   15788:	48 8d 3d fc 39 00 00 	lea    0x39fc(%rip),%rdi        # 1918b <g_4129+0xd0b>
   1578f:	b8 00 00 00 00       	mov    $0x0,%eax
   15794:	e8 e7 48 ff ff       	callq  a080 <printf@plt>
   15799:	83 45 f0 01          	addl   $0x1,-0x10(%rbp)
   1579d:	83 7d f0 05          	cmpl   $0x5,-0x10(%rbp)
   157a1:	7e ac                	jle    1574f <main+0xa93>
   157a3:	0f b7 05 2e 7a 00 00 	movzwl 0x7a2e(%rip),%eax        # 1d1d8 <g_1083>
   157aa:	48 0f bf c0          	movswq %ax,%rax
   157ae:	8b 55 fc             	mov    -0x4(%rbp),%edx
   157b1:	48 8d 35 08 3c 00 00 	lea    0x3c08(%rip),%rsi        # 193c0 <g_4129+0xf40>
   157b8:	48 89 c7             	mov    %rax,%rdi
   157bb:	e8 33 5f ff ff       	callq  b6f3 <transparent_crc>
   157c0:	b8 67 b4 ff ff       	mov    $0xffffb467,%eax
   157c5:	48 0f bf c0          	movswq %ax,%rax
   157c9:	8b 55 fc             	mov    -0x4(%rbp),%edx
   157cc:	48 8d 35 f7 3b 00 00 	lea    0x3bf7(%rip),%rsi        # 193ca <g_4129+0xf4a>
   157d3:	48 89 c7             	mov    %rax,%rdi
   157d6:	e8 18 5f ff ff       	callq  b6f3 <transparent_crc>
   157db:	0f b7 05 fa 79 00 00 	movzwl 0x79fa(%rip),%eax        # 1d1dc <g_1148>
   157e2:	48 0f bf c0          	movswq %ax,%rax
   157e6:	8b 55 fc             	mov    -0x4(%rbp),%edx
   157e9:	48 8d 35 e4 3b 00 00 	lea    0x3be4(%rip),%rsi        # 193d4 <g_4129+0xf54>
   157f0:	48 89 c7             	mov    %rax,%rdi
   157f3:	e8 fb 5e ff ff       	callq  b6f3 <transparent_crc>
   157f8:	8b 05 e2 79 00 00    	mov    0x79e2(%rip),%eax        # 1d1e0 <g_1162>
   157fe:	89 c1                	mov    %eax,%ecx
   15800:	8b 45 fc             	mov    -0x4(%rbp),%eax
   15803:	89 c2                	mov    %eax,%edx
   15805:	48 8d 35 d2 3b 00 00 	lea    0x3bd2(%rip),%rsi        # 193de <g_4129+0xf5e>
   1580c:	48 89 cf             	mov    %rcx,%rdi
   1580f:	e8 df 5e ff ff       	callq  b6f3 <transparent_crc>
   15814:	8b 05 ca 79 00 00    	mov    0x79ca(%rip),%eax        # 1d1e4 <g_1174>
   1581a:	89 c1                	mov    %eax,%ecx
   1581c:	8b 45 fc             	mov    -0x4(%rbp),%eax
   1581f:	89 c2                	mov    %eax,%edx
   15821:	48 8d 35 bd 3b 00 00 	lea    0x3bbd(%rip),%rsi        # 193e5 <g_4129+0xf65>
   15828:	48 89 cf             	mov    %rcx,%rdi
   1582b:	e8 c3 5e ff ff       	callq  b6f3 <transparent_crc>
   15830:	0f b7 05 b1 79 00 00 	movzwl 0x79b1(%rip),%eax        # 1d1e8 <g_1255>
   15837:	48 0f bf c0          	movswq %ax,%rax
   1583b:	8b 55 fc             	mov    -0x4(%rbp),%edx
   1583e:	48 8d 35 a7 3b 00 00 	lea    0x3ba7(%rip),%rsi        # 193ec <g_4129+0xf6c>
   15845:	48 89 c7             	mov    %rax,%rdi
   15848:	e8 a6 5e ff ff       	callq  b6f3 <transparent_crc>
   1584d:	c7 45 f0 00 00 00 00 	movl   $0x0,-0x10(%rbp)
   15854:	e9 a2 00 00 00       	jmpq   158fb <main+0xc3f>
   15859:	c7 45 f4 00 00 00 00 	movl   $0x0,-0xc(%rbp)
   15860:	e9 88 00 00 00       	jmpq   158ed <main+0xc31>
   15865:	c7 45 f8 00 00 00 00 	movl   $0x0,-0x8(%rbp)
   1586c:	eb 75                	jmp    158e3 <main+0xc27>
   1586e:	8b 45 f8             	mov    -0x8(%rbp),%eax
   15871:	48 63 c8             	movslq %eax,%rcx
   15874:	8b 45 f0             	mov    -0x10(%rbp),%eax
   15877:	48 63 d0             	movslq %eax,%rdx
   1587a:	8b 45 f4             	mov    -0xc(%rbp),%eax
   1587d:	48 63 f0             	movslq %eax,%rsi
   15880:	48 89 d0             	mov    %rdx,%rax
   15883:	48 c1 e0 03          	shl    $0x3,%rax
   15887:	48 01 d0             	add    %rdx,%rax
   1588a:	48 01 f0             	add    %rsi,%rax
   1588d:	48 c1 e0 02          	shl    $0x2,%rax
   15891:	48 01 c8             	add    %rcx,%rax
   15894:	48 8d 14 85 00 00 00 	lea    0x0(,%rax,4),%rdx
   1589b:	00 
   1589c:	48 8d 05 5d 79 00 00 	lea    0x795d(%rip),%rax        # 1d200 <g_1290>
   158a3:	0f b7 04 02          	movzwl (%rdx,%rax,1),%eax
   158a7:	48 0f bf c0          	movswq %ax,%rax
   158ab:	8b 55 fc             	mov    -0x4(%rbp),%edx
   158ae:	48 8d 35 41 3b 00 00 	lea    0x3b41(%rip),%rsi        # 193f6 <g_4129+0xf76>
   158b5:	48 89 c7             	mov    %rax,%rdi
   158b8:	e8 36 5e ff ff       	callq  b6f3 <transparent_crc>
   158bd:	83 7d fc 00          	cmpl   $0x0,-0x4(%rbp)
   158c1:	74 1c                	je     158df <main+0xc23>
   158c3:	8b 4d f8             	mov    -0x8(%rbp),%ecx
   158c6:	8b 55 f4             	mov    -0xc(%rbp),%edx
   158c9:	8b 45 f0             	mov    -0x10(%rbp),%eax
   158cc:	89 c6                	mov    %eax,%esi
   158ce:	48 8d 3d 11 3a 00 00 	lea    0x3a11(%rip),%rdi        # 192e6 <g_4129+0xe66>
   158d5:	b8 00 00 00 00       	mov    $0x0,%eax
   158da:	e8 a1 47 ff ff       	callq  a080 <printf@plt>
   158df:	83 45 f8 01          	addl   $0x1,-0x8(%rbp)
   158e3:	83 7d f8 03          	cmpl   $0x3,-0x8(%rbp)
   158e7:	7e 85                	jle    1586e <main+0xbb2>
   158e9:	83 45 f4 01          	addl   $0x1,-0xc(%rbp)
   158ed:	83 7d f4 08          	cmpl   $0x8,-0xc(%rbp)
   158f1:	0f 8e 6e ff ff ff    	jle    15865 <main+0xba9>
   158f7:	83 45 f0 01          	addl   $0x1,-0x10(%rbp)
   158fb:	83 7d f0 02          	cmpl   $0x2,-0x10(%rbp)
   158ff:	0f 8e 54 ff ff ff    	jle    15859 <main+0xb9d>
   15905:	0f b6 05 a4 7a 00 00 	movzbl 0x7aa4(%rip),%eax        # 1d3b0 <g_1293>
   1590c:	0f b6 c0             	movzbl %al,%eax
   1590f:	8b 55 fc             	mov    -0x4(%rbp),%edx
   15912:	48 8d 35 f0 3a 00 00 	lea    0x3af0(%rip),%rsi        # 19409 <g_4129+0xf89>
   15919:	48 89 c7             	mov    %rax,%rdi
   1591c:	e8 d2 5d ff ff       	callq  b6f3 <transparent_crc>
   15921:	0f b6 05 88 7a 00 00 	movzbl 0x7a88(%rip),%eax        # 1d3b0 <g_1293>
   15928:	48 0f be c0          	movsbq %al,%rax
   1592c:	8b 55 fc             	mov    -0x4(%rbp),%edx
   1592f:	48 8d 35 dd 3a 00 00 	lea    0x3add(%rip),%rsi        # 19413 <g_4129+0xf93>
   15936:	48 89 c7             	mov    %rax,%rdi
   15939:	e8 b5 5d ff ff       	callq  b6f3 <transparent_crc>
   1593e:	0f b6 05 6b 7a 00 00 	movzbl 0x7a6b(%rip),%eax        # 1d3b0 <g_1293>
   15945:	48 0f be c0          	movsbq %al,%rax
   15949:	8b 55 fc             	mov    -0x4(%rbp),%edx
   1594c:	48 8d 35 ca 3a 00 00 	lea    0x3aca(%rip),%rsi        # 1941d <g_4129+0xf9d>
   15953:	48 89 c7             	mov    %rax,%rdi
   15956:	e8 98 5d ff ff       	callq  b6f3 <transparent_crc>
   1595b:	b8 00 00 00 00       	mov    $0x0,%eax
   15960:	48 0f bf c0          	movswq %ax,%rax
   15964:	8b 55 fc             	mov    -0x4(%rbp),%edx
   15967:	48 8d 35 b9 3a 00 00 	lea    0x3ab9(%rip),%rsi        # 19427 <g_4129+0xfa7>
   1596e:	48 89 c7             	mov    %rax,%rdi
   15971:	e8 7d 5d ff ff       	callq  b6f3 <transparent_crc>
   15976:	48 8b 05 43 7a 00 00 	mov    0x7a43(%rip),%rax        # 1d3c0 <g_1328>
   1597d:	48 89 c1             	mov    %rax,%rcx
   15980:	8b 45 fc             	mov    -0x4(%rbp),%eax
   15983:	89 c2                	mov    %eax,%edx
   15985:	48 8d 35 a5 3a 00 00 	lea    0x3aa5(%rip),%rsi        # 19431 <g_4129+0xfb1>
   1598c:	48 89 cf             	mov    %rcx,%rdi
   1598f:	e8 5f 5d ff ff       	callq  b6f3 <transparent_crc>
   15994:	b8 2e 1f 00 00       	mov    $0x1f2e,%eax
   15999:	48 0f bf c0          	movswq %ax,%rax
   1599d:	8b 55 fc             	mov    -0x4(%rbp),%edx
   159a0:	48 8d 35 91 3a 00 00 	lea    0x3a91(%rip),%rsi        # 19438 <g_4129+0xfb8>
   159a7:	48 89 c7             	mov    %rax,%rdi
   159aa:	e8 44 5d ff ff       	callq  b6f3 <transparent_crc>
   159af:	c7 45 f0 00 00 00 00 	movl   $0x0,-0x10(%rbp)
   159b6:	eb 4e                	jmp    15a06 <main+0xd4a>
   159b8:	8b 45 f0             	mov    -0x10(%rbp),%eax
   159bb:	48 98                	cltq   
   159bd:	48 8d 14 85 00 00 00 	lea    0x0(,%rax,4),%rdx
   159c4:	00 
   159c5:	48 8d 05 44 2a 00 00 	lea    0x2a44(%rip),%rax        # 18410 <g_1330>
   159cc:	0f b7 04 02          	movzwl (%rdx,%rax,1),%eax
   159d0:	48 0f bf c0          	movswq %ax,%rax
   159d4:	8b 55 fc             	mov    -0x4(%rbp),%edx
   159d7:	48 8d 35 64 3a 00 00 	lea    0x3a64(%rip),%rsi        # 19442 <g_4129+0xfc2>
   159de:	48 89 c7             	mov    %rax,%rdi
   159e1:	e8 0d 5d ff ff       	callq  b6f3 <transparent_crc>
   159e6:	83 7d fc 00          	cmpl   $0x0,-0x4(%rbp)
   159ea:	74 16                	je     15a02 <main+0xd46>
   159ec:	8b 45 f0             	mov    -0x10(%rbp),%eax
   159ef:	89 c6                	mov    %eax,%esi
   159f1:	48 8d 3d 93 37 00 00 	lea    0x3793(%rip),%rdi        # 1918b <g_4129+0xd0b>
   159f8:	b8 00 00 00 00       	mov    $0x0,%eax
   159fd:	e8 7e 46 ff ff       	callq  a080 <printf@plt>
   15a02:	83 45 f0 01          	addl   $0x1,-0x10(%rbp)
   15a06:	83 7d f0 04          	cmpl   $0x4,-0x10(%rbp)
   15a0a:	7e ac                	jle    159b8 <main+0xcfc>
   15a0c:	c7 45 f0 00 00 00 00 	movl   $0x0,-0x10(%rbp)
   15a13:	e9 2b 01 00 00       	jmpq   15b43 <main+0xe87>
   15a18:	c7 45 f4 00 00 00 00 	movl   $0x0,-0xc(%rbp)
   15a1f:	e9 11 01 00 00       	jmpq   15b35 <main+0xe79>
   15a24:	c7 45 f8 00 00 00 00 	movl   $0x0,-0x8(%rbp)
   15a2b:	e9 f7 00 00 00       	jmpq   15b27 <main+0xe6b>
   15a30:	8b 45 f8             	mov    -0x8(%rbp),%eax
   15a33:	48 63 c8             	movslq %eax,%rcx
   15a36:	8b 45 f4             	mov    -0xc(%rbp),%eax
   15a39:	48 63 d0             	movslq %eax,%rdx
   15a3c:	8b 45 f0             	mov    -0x10(%rbp),%eax
   15a3f:	48 98                	cltq   
   15a41:	48 01 ca             	add    %rcx,%rdx
   15a44:	48 01 c2             	add    %rax,%rdx
   15a47:	48 89 d0             	mov    %rdx,%rax
   15a4a:	48 01 c0             	add    %rax,%rax
   15a4d:	48 01 d0             	add    %rdx,%rax
   15a50:	48 c1 e0 02          	shl    $0x2,%rax
   15a54:	48 89 c2             	mov    %rax,%rdx
   15a57:	48 8d 05 82 79 00 00 	lea    0x7982(%rip),%rax        # 1d3e0 <g_1339>
   15a5e:	8b 04 02             	mov    (%rdx,%rax,1),%eax
   15a61:	89 c1                	mov    %eax,%ecx
   15a63:	8b 45 fc             	mov    -0x4(%rbp),%eax
   15a66:	89 c2                	mov    %eax,%edx
   15a68:	48 8d 35 e0 39 00 00 	lea    0x39e0(%rip),%rsi        # 1944f <g_4129+0xfcf>
   15a6f:	48 89 cf             	mov    %rcx,%rdi
   15a72:	e8 7c 5c ff ff       	callq  b6f3 <transparent_crc>
   15a77:	8b 45 f8             	mov    -0x8(%rbp),%eax
   15a7a:	48 63 c8             	movslq %eax,%rcx
   15a7d:	8b 45 f4             	mov    -0xc(%rbp),%eax
   15a80:	48 63 d0             	movslq %eax,%rdx
   15a83:	8b 45 f0             	mov    -0x10(%rbp),%eax
   15a86:	48 98                	cltq   
   15a88:	48 01 ca             	add    %rcx,%rdx
   15a8b:	48 01 c2             	add    %rax,%rdx
   15a8e:	48 89 d0             	mov    %rdx,%rax
   15a91:	48 01 c0             	add    %rax,%rax
   15a94:	48 01 d0             	add    %rdx,%rax
   15a97:	48 c1 e0 02          	shl    $0x2,%rax
   15a9b:	48 89 c2             	mov    %rax,%rdx
   15a9e:	48 8d 05 3f 79 00 00 	lea    0x793f(%rip),%rax        # 1d3e4 <g_1339+0x4>
   15aa5:	8b 04 02             	mov    (%rdx,%rax,1),%eax
   15aa8:	48 98                	cltq   
   15aaa:	8b 55 fc             	mov    -0x4(%rbp),%edx
   15aad:	48 8d 35 ae 39 00 00 	lea    0x39ae(%rip),%rsi        # 19462 <g_4129+0xfe2>
   15ab4:	48 89 c7             	mov    %rax,%rdi
   15ab7:	e8 37 5c ff ff       	callq  b6f3 <transparent_crc>
   15abc:	8b 45 f8             	mov    -0x8(%rbp),%eax
   15abf:	48 63 c8             	movslq %eax,%rcx
   15ac2:	8b 45 f4             	mov    -0xc(%rbp),%eax
   15ac5:	48 63 d0             	movslq %eax,%rdx
   15ac8:	8b 45 f0             	mov    -0x10(%rbp),%eax
   15acb:	48 98                	cltq   
   15acd:	48 01 ca             	add    %rcx,%rdx
   15ad0:	48 01 c2             	add    %rax,%rdx
   15ad3:	48 89 d0             	mov    %rdx,%rax
   15ad6:	48 01 c0             	add    %rax,%rax
   15ad9:	48 01 d0             	add    %rdx,%rax
   15adc:	48 c1 e0 02          	shl    $0x2,%rax
   15ae0:	48 89 c2             	mov    %rax,%rdx
   15ae3:	48 8d 05 fe 78 00 00 	lea    0x78fe(%rip),%rax        # 1d3e8 <g_1339+0x8>
   15aea:	8b 04 02             	mov    (%rdx,%rax,1),%eax
   15aed:	48 98                	cltq   
   15aef:	8b 55 fc             	mov    -0x4(%rbp),%edx
   15af2:	48 8d 35 7c 39 00 00 	lea    0x397c(%rip),%rsi        # 19475 <g_4129+0xff5>
   15af9:	48 89 c7             	mov    %rax,%rdi
   15afc:	e8 f2 5b ff ff       	callq  b6f3 <transparent_crc>
   15b01:	83 7d fc 00          	cmpl   $0x0,-0x4(%rbp)
   15b05:	74 1c                	je     15b23 <main+0xe67>
   15b07:	8b 4d f8             	mov    -0x8(%rbp),%ecx
   15b0a:	8b 55 f4             	mov    -0xc(%rbp),%edx
   15b0d:	8b 45 f0             	mov    -0x10(%rbp),%eax
   15b10:	89 c6                	mov    %eax,%esi
   15b12:	48 8d 3d cd 37 00 00 	lea    0x37cd(%rip),%rdi        # 192e6 <g_4129+0xe66>
   15b19:	b8 00 00 00 00       	mov    $0x0,%eax
   15b1e:	e8 5d 45 ff ff       	callq  a080 <printf@plt>
   15b23:	83 45 f8 01          	addl   $0x1,-0x8(%rbp)
   15b27:	83 7d f8 00          	cmpl   $0x0,-0x8(%rbp)
   15b2b:	0f 8e ff fe ff ff    	jle    15a30 <main+0xd74>
   15b31:	83 45 f4 01          	addl   $0x1,-0xc(%rbp)
   15b35:	83 7d f4 00          	cmpl   $0x0,-0xc(%rbp)
   15b39:	0f 8e e5 fe ff ff    	jle    15a24 <main+0xd68>
   15b3f:	83 45 f0 01          	addl   $0x1,-0x10(%rbp)
   15b43:	83 7d f0 08          	cmpl   $0x8,-0x10(%rbp)
   15b47:	0f 8e cb fe ff ff    	jle    15a18 <main+0xd5c>
   15b4d:	0f b6 05 f8 78 00 00 	movzbl 0x78f8(%rip),%eax        # 1d44c <g_1372>
   15b54:	0f b6 c0             	movzbl %al,%eax
   15b57:	8b 55 fc             	mov    -0x4(%rbp),%edx
   15b5a:	48 8d 35 27 39 00 00 	lea    0x3927(%rip),%rsi        # 19488 <g_4129+0x1008>
   15b61:	48 89 c7             	mov    %rax,%rdi
   15b64:	e8 8a 5b ff ff       	callq  b6f3 <transparent_crc>
   15b69:	c7 45 f0 00 00 00 00 	movl   $0x0,-0x10(%rbp)
   15b70:	e9 44 01 00 00       	jmpq   15cb9 <main+0xffd>
   15b75:	c7 45 f4 00 00 00 00 	movl   $0x0,-0xc(%rbp)
   15b7c:	e9 2a 01 00 00       	jmpq   15cab <main+0xfef>
   15b81:	8b 45 f4             	mov    -0xc(%rbp),%eax
   15b84:	48 98                	cltq   
   15b86:	8b 55 f0             	mov    -0x10(%rbp),%edx
   15b89:	48 63 ca             	movslq %edx,%rcx
   15b8c:	48 89 c2             	mov    %rax,%rdx
   15b8f:	48 01 d2             	add    %rdx,%rdx
   15b92:	48 01 c2             	add    %rax,%rdx
   15b95:	48 8d 04 95 00 00 00 	lea    0x0(,%rdx,4),%rax
   15b9c:	00 
   15b9d:	48 89 c2             	mov    %rax,%rdx
   15ba0:	48 89 c8             	mov    %rcx,%rax
   15ba3:	48 c1 e0 02          	shl    $0x2,%rax
   15ba7:	48 01 c8             	add    %rcx,%rax
   15baa:	48 c1 e0 02          	shl    $0x2,%rax
   15bae:	48 01 c8             	add    %rcx,%rax
   15bb1:	48 c1 e0 02          	shl    $0x2,%rax
   15bb5:	48 01 c2             	add    %rax,%rdx
   15bb8:	48 8d 05 a1 78 00 00 	lea    0x78a1(%rip),%rax        # 1d460 <g_1374>
   15bbf:	48 01 d0             	add    %rdx,%rax
   15bc2:	8b 00                	mov    (%rax),%eax
   15bc4:	89 c1                	mov    %eax,%ecx
   15bc6:	8b 45 fc             	mov    -0x4(%rbp),%eax
   15bc9:	89 c2                	mov    %eax,%edx
   15bcb:	48 8d 35 bd 38 00 00 	lea    0x38bd(%rip),%rsi        # 1948f <g_4129+0x100f>
   15bd2:	48 89 cf             	mov    %rcx,%rdi
   15bd5:	e8 19 5b ff ff       	callq  b6f3 <transparent_crc>
   15bda:	8b 45 f4             	mov    -0xc(%rbp),%eax
   15bdd:	48 98                	cltq   
   15bdf:	8b 55 f0             	mov    -0x10(%rbp),%edx
   15be2:	48 63 ca             	movslq %edx,%rcx
   15be5:	48 89 c2             	mov    %rax,%rdx
   15be8:	48 01 d2             	add    %rdx,%rdx
   15beb:	48 01 c2             	add    %rax,%rdx
   15bee:	48 8d 04 95 00 00 00 	lea    0x0(,%rdx,4),%rax
   15bf5:	00 
   15bf6:	48 89 c2             	mov    %rax,%rdx
   15bf9:	48 89 c8             	mov    %rcx,%rax
   15bfc:	48 c1 e0 02          	shl    $0x2,%rax
   15c00:	48 01 c8             	add    %rcx,%rax
   15c03:	48 c1 e0 02          	shl    $0x2,%rax
   15c07:	48 01 c8             	add    %rcx,%rax
   15c0a:	48 c1 e0 02          	shl    $0x2,%rax
   15c0e:	48 01 c2             	add    %rax,%rdx
   15c11:	48 8d 05 4c 78 00 00 	lea    0x784c(%rip),%rax        # 1d464 <g_1374+0x4>
   15c18:	48 01 d0             	add    %rdx,%rax
   15c1b:	8b 00                	mov    (%rax),%eax
   15c1d:	48 98                	cltq   
   15c1f:	8b 55 fc             	mov    -0x4(%rbp),%edx
   15c22:	48 8d 35 76 38 00 00 	lea    0x3876(%rip),%rsi        # 1949f <g_4129+0x101f>
   15c29:	48 89 c7             	mov    %rax,%rdi
   15c2c:	e8 c2 5a ff ff       	callq  b6f3 <transparent_crc>
   15c31:	8b 45 f4             	mov    -0xc(%rbp),%eax
   15c34:	48 98                	cltq   
   15c36:	8b 55 f0             	mov    -0x10(%rbp),%edx
   15c39:	48 63 ca             	movslq %edx,%rcx
   15c3c:	48 89 c2             	mov    %rax,%rdx
   15c3f:	48 01 d2             	add    %rdx,%rdx
   15c42:	48 01 c2             	add    %rax,%rdx
   15c45:	48 8d 04 95 00 00 00 	lea    0x0(,%rdx,4),%rax
   15c4c:	00 
   15c4d:	48 89 c2             	mov    %rax,%rdx
   15c50:	48 89 c8             	mov    %rcx,%rax
   15c53:	48 c1 e0 02          	shl    $0x2,%rax
   15c57:	48 01 c8             	add    %rcx,%rax
   15c5a:	48 c1 e0 02          	shl    $0x2,%rax
   15c5e:	48 01 c8             	add    %rcx,%rax
   15c61:	48 c1 e0 02          	shl    $0x2,%rax
   15c65:	48 01 c2             	add    %rax,%rdx
   15c68:	48 8d 05 f9 77 00 00 	lea    0x77f9(%rip),%rax        # 1d468 <g_1374+0x8>
   15c6f:	48 01 d0             	add    %rdx,%rax
   15c72:	8b 00                	mov    (%rax),%eax
   15c74:	48 98                	cltq   
   15c76:	8b 55 fc             	mov    -0x4(%rbp),%edx
   15c79:	48 8d 35 2f 38 00 00 	lea    0x382f(%rip),%rsi        # 194af <g_4129+0x102f>
   15c80:	48 89 c7             	mov    %rax,%rdi
   15c83:	e8 6b 5a ff ff       	callq  b6f3 <transparent_crc>
   15c88:	83 7d fc 00          	cmpl   $0x0,-0x4(%rbp)
   15c8c:	74 19                	je     15ca7 <main+0xfeb>
   15c8e:	8b 55 f4             	mov    -0xc(%rbp),%edx
   15c91:	8b 45 f0             	mov    -0x10(%rbp),%eax
   15c94:	89 c6                	mov    %eax,%esi
   15c96:	48 8d 3d e0 36 00 00 	lea    0x36e0(%rip),%rdi        # 1937d <g_4129+0xefd>
   15c9d:	b8 00 00 00 00       	mov    $0x0,%eax
   15ca2:	e8 d9 43 ff ff       	callq  a080 <printf@plt>
   15ca7:	83 45 f4 01          	addl   $0x1,-0xc(%rbp)
   15cab:	83 7d f4 06          	cmpl   $0x6,-0xc(%rbp)
   15caf:	0f 8e cc fe ff ff    	jle    15b81 <main+0xec5>
   15cb5:	83 45 f0 01          	addl   $0x1,-0x10(%rbp)
   15cb9:	83 7d f0 03          	cmpl   $0x3,-0x10(%rbp)
   15cbd:	0f 8e b2 fe ff ff    	jle    15b75 <main+0xeb9>
   15cc3:	8b 05 e7 78 00 00    	mov    0x78e7(%rip),%eax        # 1d5b0 <g_1381>
   15cc9:	89 c1                	mov    %eax,%ecx
   15ccb:	8b 45 fc             	mov    -0x4(%rbp),%eax
   15cce:	89 c2                	mov    %eax,%edx
   15cd0:	48 8d 35 e8 37 00 00 	lea    0x37e8(%rip),%rsi        # 194bf <g_4129+0x103f>
   15cd7:	48 89 cf             	mov    %rcx,%rdi
   15cda:	e8 14 5a ff ff       	callq  b6f3 <transparent_crc>
   15cdf:	8b 05 cf 78 00 00    	mov    0x78cf(%rip),%eax        # 1d5b4 <g_1381+0x4>
   15ce5:	48 98                	cltq   
   15ce7:	8b 55 fc             	mov    -0x4(%rbp),%edx
   15cea:	48 8d 35 d8 37 00 00 	lea    0x37d8(%rip),%rsi        # 194c9 <g_4129+0x1049>
   15cf1:	48 89 c7             	mov    %rax,%rdi
   15cf4:	e8 fa 59 ff ff       	callq  b6f3 <transparent_crc>
   15cf9:	8b 05 b9 78 00 00    	mov    0x78b9(%rip),%eax        # 1d5b8 <g_1381+0x8>
   15cff:	48 98                	cltq   
   15d01:	8b 55 fc             	mov    -0x4(%rbp),%edx
   15d04:	48 8d 35 c8 37 00 00 	lea    0x37c8(%rip),%rsi        # 194d3 <g_4129+0x1053>
   15d0b:	48 89 c7             	mov    %rax,%rdi
   15d0e:	e8 e0 59 ff ff       	callq  b6f3 <transparent_crc>
   15d13:	b8 fb ff ff ff       	mov    $0xfffffffb,%eax
   15d18:	48 0f bf c0          	movswq %ax,%rax
   15d1c:	8b 55 fc             	mov    -0x4(%rbp),%edx
   15d1f:	48 8d 35 b7 37 00 00 	lea    0x37b7(%rip),%rsi        # 194dd <g_4129+0x105d>
   15d26:	48 89 c7             	mov    %rax,%rdi
   15d29:	e8 c5 59 ff ff       	callq  b6f3 <transparent_crc>
   15d2e:	b8 23 8f ff ff       	mov    $0xffff8f23,%eax
   15d33:	48 0f bf c0          	movswq %ax,%rax
   15d37:	8b 55 fc             	mov    -0x4(%rbp),%edx
   15d3a:	48 8d 35 a6 37 00 00 	lea    0x37a6(%rip),%rsi        # 194e7 <g_4129+0x1067>
   15d41:	48 89 c7             	mov    %rax,%rdi
   15d44:	e8 aa 59 ff ff       	callq  b6f3 <transparent_crc>
   15d49:	8b 05 71 78 00 00    	mov    0x7871(%rip),%eax        # 1d5c0 <g_1433>
   15d4f:	89 c1                	mov    %eax,%ecx
   15d51:	8b 45 fc             	mov    -0x4(%rbp),%eax
   15d54:	89 c2                	mov    %eax,%edx
   15d56:	48 8d 35 94 37 00 00 	lea    0x3794(%rip),%rsi        # 194f1 <g_4129+0x1071>
   15d5d:	48 89 cf             	mov    %rcx,%rdi
   15d60:	e8 8e 59 ff ff       	callq  b6f3 <transparent_crc>
   15d65:	8b 05 59 78 00 00    	mov    0x7859(%rip),%eax        # 1d5c4 <g_1433+0x4>
   15d6b:	48 98                	cltq   
   15d6d:	8b 55 fc             	mov    -0x4(%rbp),%edx
   15d70:	48 8d 35 84 37 00 00 	lea    0x3784(%rip),%rsi        # 194fb <g_4129+0x107b>
   15d77:	48 89 c7             	mov    %rax,%rdi
   15d7a:	e8 74 59 ff ff       	callq  b6f3 <transparent_crc>
   15d7f:	8b 05 43 78 00 00    	mov    0x7843(%rip),%eax        # 1d5c8 <g_1433+0x8>
   15d85:	48 98                	cltq   
   15d87:	8b 55 fc             	mov    -0x4(%rbp),%edx
   15d8a:	48 8d 35 74 37 00 00 	lea    0x3774(%rip),%rsi        # 19505 <g_4129+0x1085>
   15d91:	48 89 c7             	mov    %rax,%rdi
   15d94:	e8 5a 59 ff ff       	callq  b6f3 <transparent_crc>
   15d99:	b8 04 70 00 00       	mov    $0x7004,%eax
   15d9e:	48 0f bf c0          	movswq %ax,%rax
   15da2:	8b 55 fc             	mov    -0x4(%rbp),%edx
   15da5:	48 8d 35 63 37 00 00 	lea    0x3763(%rip),%rsi        # 1950f <g_4129+0x108f>
   15dac:	48 89 c7             	mov    %rax,%rdi
   15daf:	e8 3f 59 ff ff       	callq  b6f3 <transparent_crc>
   15db4:	0f b7 05 11 78 00 00 	movzwl 0x7811(%rip),%eax        # 1d5cc <g_1485>
   15dbb:	48 0f bf c0          	movswq %ax,%rax
   15dbf:	8b 55 fc             	mov    -0x4(%rbp),%edx
   15dc2:	48 8d 35 50 37 00 00 	lea    0x3750(%rip),%rsi        # 19519 <g_4129+0x1099>
   15dc9:	48 89 c7             	mov    %rax,%rdi
   15dcc:	e8 22 59 ff ff       	callq  b6f3 <transparent_crc>
   15dd1:	48 8b 05 f8 77 00 00 	mov    0x77f8(%rip),%rax        # 1d5d0 <g_1513>
   15dd8:	48 89 c1             	mov    %rax,%rcx
   15ddb:	8b 45 fc             	mov    -0x4(%rbp),%eax
   15dde:	89 c2                	mov    %eax,%edx
   15de0:	48 8d 35 3c 37 00 00 	lea    0x373c(%rip),%rsi        # 19523 <g_4129+0x10a3>
   15de7:	48 89 cf             	mov    %rcx,%rdi
   15dea:	e8 04 59 ff ff       	callq  b6f3 <transparent_crc>
   15def:	8b 05 e3 77 00 00    	mov    0x77e3(%rip),%eax        # 1d5d8 <g_1515>
   15df5:	48 98                	cltq   
   15df7:	8b 55 fc             	mov    -0x4(%rbp),%edx
   15dfa:	48 8d 35 29 37 00 00 	lea    0x3729(%rip),%rsi        # 1952a <g_4129+0x10aa>
   15e01:	48 89 c7             	mov    %rax,%rdi
   15e04:	e8 ea 58 ff ff       	callq  b6f3 <transparent_crc>
   15e09:	b8 8c 7c 0f 02       	mov    $0x20f7c8c,%eax
   15e0e:	48 98                	cltq   
   15e10:	8b 55 fc             	mov    -0x4(%rbp),%edx
   15e13:	48 8d 35 17 37 00 00 	lea    0x3717(%rip),%rsi        # 19531 <g_4129+0x10b1>
   15e1a:	48 89 c7             	mov    %rax,%rdi
   15e1d:	e8 d1 58 ff ff       	callq  b6f3 <transparent_crc>
   15e22:	0f b6 05 b7 77 00 00 	movzbl 0x77b7(%rip),%eax        # 1d5e0 <g_1529>
   15e29:	0f b6 c0             	movzbl %al,%eax
   15e2c:	8b 55 fc             	mov    -0x4(%rbp),%edx
   15e2f:	48 8d 35 02 37 00 00 	lea    0x3702(%rip),%rsi        # 19538 <g_4129+0x10b8>
   15e36:	48 89 c7             	mov    %rax,%rdi
   15e39:	e8 b5 58 ff ff       	callq  b6f3 <transparent_crc>
   15e3e:	0f b6 05 9b 77 00 00 	movzbl 0x779b(%rip),%eax        # 1d5e0 <g_1529>
   15e45:	48 0f be c0          	movsbq %al,%rax
   15e49:	8b 55 fc             	mov    -0x4(%rbp),%edx
   15e4c:	48 8d 35 ef 36 00 00 	lea    0x36ef(%rip),%rsi        # 19542 <g_4129+0x10c2>
   15e53:	48 89 c7             	mov    %rax,%rdi
   15e56:	e8 98 58 ff ff       	callq  b6f3 <transparent_crc>
   15e5b:	0f b6 05 7e 77 00 00 	movzbl 0x777e(%rip),%eax        # 1d5e0 <g_1529>
   15e62:	48 0f be c0          	movsbq %al,%rax
   15e66:	8b 55 fc             	mov    -0x4(%rbp),%edx
   15e69:	48 8d 35 dc 36 00 00 	lea    0x36dc(%rip),%rsi        # 1954c <g_4129+0x10cc>
   15e70:	48 89 c7             	mov    %rax,%rdi
   15e73:	e8 7b 58 ff ff       	callq  b6f3 <transparent_crc>
   15e78:	b8 75 3d 00 00       	mov    $0x3d75,%eax
   15e7d:	48 0f bf c0          	movswq %ax,%rax
   15e81:	8b 55 fc             	mov    -0x4(%rbp),%edx
   15e84:	48 8d 35 cb 36 00 00 	lea    0x36cb(%rip),%rsi        # 19556 <g_4129+0x10d6>
   15e8b:	48 89 c7             	mov    %rax,%rdi
   15e8e:	e8 60 58 ff ff       	callq  b6f3 <transparent_crc>
   15e93:	0f b7 05 52 77 00 00 	movzwl 0x7752(%rip),%eax        # 1d5ec <g_1580>
   15e9a:	48 0f bf c0          	movswq %ax,%rax
   15e9e:	8b 55 fc             	mov    -0x4(%rbp),%edx
   15ea1:	48 8d 35 b8 36 00 00 	lea    0x36b8(%rip),%rsi        # 19560 <g_4129+0x10e0>
   15ea8:	48 89 c7             	mov    %rax,%rdi
   15eab:	e8 43 58 ff ff       	callq  b6f3 <transparent_crc>
   15eb0:	8b 05 3a 77 00 00    	mov    0x773a(%rip),%eax        # 1d5f0 <g_1593>
   15eb6:	89 c1                	mov    %eax,%ecx
   15eb8:	8b 45 fc             	mov    -0x4(%rbp),%eax
   15ebb:	89 c2                	mov    %eax,%edx
   15ebd:	48 8d 35 a6 36 00 00 	lea    0x36a6(%rip),%rsi        # 1956a <g_4129+0x10ea>
   15ec4:	48 89 cf             	mov    %rcx,%rdi
   15ec7:	e8 27 58 ff ff       	callq  b6f3 <transparent_crc>
   15ecc:	8b 05 22 77 00 00    	mov    0x7722(%rip),%eax        # 1d5f4 <g_1593+0x4>
   15ed2:	48 98                	cltq   
   15ed4:	8b 55 fc             	mov    -0x4(%rbp),%edx
   15ed7:	48 8d 35 96 36 00 00 	lea    0x3696(%rip),%rsi        # 19574 <g_4129+0x10f4>
   15ede:	48 89 c7             	mov    %rax,%rdi
   15ee1:	e8 0d 58 ff ff       	callq  b6f3 <transparent_crc>
   15ee6:	8b 05 0c 77 00 00    	mov    0x770c(%rip),%eax        # 1d5f8 <g_1593+0x8>
   15eec:	48 98                	cltq   
   15eee:	8b 55 fc             	mov    -0x4(%rbp),%edx
   15ef1:	48 8d 35 86 36 00 00 	lea    0x3686(%rip),%rsi        # 1957e <g_4129+0x10fe>
   15ef8:	48 89 c7             	mov    %rax,%rdi
   15efb:	e8 f3 57 ff ff       	callq  b6f3 <transparent_crc>
   15f00:	0f b7 05 f5 76 00 00 	movzwl 0x76f5(%rip),%eax        # 1d5fc <g_1624>
   15f07:	48 0f bf c0          	movswq %ax,%rax
   15f0b:	8b 55 fc             	mov    -0x4(%rbp),%edx
   15f0e:	48 8d 35 73 36 00 00 	lea    0x3673(%rip),%rsi        # 19588 <g_4129+0x1108>
   15f15:	48 89 c7             	mov    %rax,%rdi
   15f18:	e8 d6 57 ff ff       	callq  b6f3 <transparent_crc>
   15f1d:	0f b7 05 dc 76 00 00 	movzwl 0x76dc(%rip),%eax        # 1d600 <g_1626>
   15f24:	48 0f bf c0          	movswq %ax,%rax
   15f28:	8b 55 fc             	mov    -0x4(%rbp),%edx
   15f2b:	48 8d 35 60 36 00 00 	lea    0x3660(%rip),%rsi        # 19592 <g_4129+0x1112>
   15f32:	48 89 c7             	mov    %rax,%rdi
   15f35:	e8 b9 57 ff ff       	callq  b6f3 <transparent_crc>
   15f3a:	b8 f9 8e 75 cb       	mov    $0xcb758ef9,%eax
   15f3f:	89 c1                	mov    %eax,%ecx
   15f41:	8b 45 fc             	mov    -0x4(%rbp),%eax
   15f44:	89 c2                	mov    %eax,%edx
   15f46:	48 8d 35 4f 36 00 00 	lea    0x364f(%rip),%rsi        # 1959c <g_4129+0x111c>
   15f4d:	48 89 cf             	mov    %rcx,%rdi
   15f50:	e8 9e 57 ff ff       	callq  b6f3 <transparent_crc>
   15f55:	b8 c5 fb de c4       	mov    $0xc4defbc5,%eax
   15f5a:	48 98                	cltq   
   15f5c:	8b 55 fc             	mov    -0x4(%rbp),%edx
   15f5f:	48 8d 35 40 36 00 00 	lea    0x3640(%rip),%rsi        # 195a6 <g_4129+0x1126>
   15f66:	48 89 c7             	mov    %rax,%rdi
   15f69:	e8 85 57 ff ff       	callq  b6f3 <transparent_crc>
   15f6e:	8b 05 cc 24 00 00    	mov    0x24cc(%rip),%eax        # 18440 <g_1639+0x8>
   15f74:	48 98                	cltq   
   15f76:	8b 55 fc             	mov    -0x4(%rbp),%edx
   15f79:	48 8d 35 30 36 00 00 	lea    0x3630(%rip),%rsi        # 195b0 <g_4129+0x1130>
   15f80:	48 89 c7             	mov    %rax,%rdi
   15f83:	e8 6b 57 ff ff       	callq  b6f3 <transparent_crc>
   15f88:	b8 ff ff ff ff       	mov    $0xffffffff,%eax
   15f8d:	48 0f bf c0          	movswq %ax,%rax
   15f91:	8b 55 fc             	mov    -0x4(%rbp),%edx
   15f94:	48 8d 35 1f 36 00 00 	lea    0x361f(%rip),%rsi        # 195ba <g_4129+0x113a>
   15f9b:	48 89 c7             	mov    %rax,%rdi
   15f9e:	e8 50 57 ff ff       	callq  b6f3 <transparent_crc>
   15fa3:	8b 05 5f 76 00 00    	mov    0x765f(%rip),%eax        # 1d608 <g_1668>
   15fa9:	89 c1                	mov    %eax,%ecx
   15fab:	8b 45 fc             	mov    -0x4(%rbp),%eax
   15fae:	89 c2                	mov    %eax,%edx
   15fb0:	48 8d 35 0d 36 00 00 	lea    0x360d(%rip),%rsi        # 195c4 <g_4129+0x1144>
   15fb7:	48 89 cf             	mov    %rcx,%rdi
   15fba:	e8 34 57 ff ff       	callq  b6f3 <transparent_crc>
   15fbf:	8b 05 47 76 00 00    	mov    0x7647(%rip),%eax        # 1d60c <g_1668+0x4>
   15fc5:	48 98                	cltq   
   15fc7:	8b 55 fc             	mov    -0x4(%rbp),%edx
   15fca:	48 8d 35 fd 35 00 00 	lea    0x35fd(%rip),%rsi        # 195ce <g_4129+0x114e>
   15fd1:	48 89 c7             	mov    %rax,%rdi
   15fd4:	e8 1a 57 ff ff       	callq  b6f3 <transparent_crc>
   15fd9:	8b 05 31 76 00 00    	mov    0x7631(%rip),%eax        # 1d610 <g_1668+0x8>
   15fdf:	48 98                	cltq   
   15fe1:	8b 55 fc             	mov    -0x4(%rbp),%edx
   15fe4:	48 8d 35 ed 35 00 00 	lea    0x35ed(%rip),%rsi        # 195d8 <g_4129+0x1158>
   15feb:	48 89 c7             	mov    %rax,%rdi
   15fee:	e8 00 57 ff ff       	callq  b6f3 <transparent_crc>
   15ff3:	8b 05 1f 76 00 00    	mov    0x761f(%rip),%eax        # 1d618 <g_1751>
   15ff9:	89 c1                	mov    %eax,%ecx
   15ffb:	8b 45 fc             	mov    -0x4(%rbp),%eax
   15ffe:	89 c2                	mov    %eax,%edx
   16000:	48 8d 35 db 35 00 00 	lea    0x35db(%rip),%rsi        # 195e2 <g_4129+0x1162>
   16007:	48 89 cf             	mov    %rcx,%rdi
   1600a:	e8 e4 56 ff ff       	callq  b6f3 <transparent_crc>
   1600f:	8b 05 07 76 00 00    	mov    0x7607(%rip),%eax        # 1d61c <g_1751+0x4>
   16015:	48 98                	cltq   
   16017:	8b 55 fc             	mov    -0x4(%rbp),%edx
   1601a:	48 8d 35 cb 35 00 00 	lea    0x35cb(%rip),%rsi        # 195ec <g_4129+0x116c>
   16021:	48 89 c7             	mov    %rax,%rdi
   16024:	e8 ca 56 ff ff       	callq  b6f3 <transparent_crc>
   16029:	8b 05 f1 75 00 00    	mov    0x75f1(%rip),%eax        # 1d620 <g_1751+0x8>
   1602f:	48 98                	cltq   
   16031:	8b 55 fc             	mov    -0x4(%rbp),%edx
   16034:	48 8d 35 bb 35 00 00 	lea    0x35bb(%rip),%rsi        # 195f6 <g_4129+0x1176>
   1603b:	48 89 c7             	mov    %rax,%rdi
   1603e:	e8 b0 56 ff ff       	callq  b6f3 <transparent_crc>
   16043:	0f b6 05 de 75 00 00 	movzbl 0x75de(%rip),%eax        # 1d628 <g_1791>
   1604a:	0f b6 c0             	movzbl %al,%eax
   1604d:	8b 55 fc             	mov    -0x4(%rbp),%edx
   16050:	48 8d 35 a9 35 00 00 	lea    0x35a9(%rip),%rsi        # 19600 <g_4129+0x1180>
   16057:	48 89 c7             	mov    %rax,%rdi
   1605a:	e8 94 56 ff ff       	callq  b6f3 <transparent_crc>
   1605f:	0f b6 05 c2 75 00 00 	movzbl 0x75c2(%rip),%eax        # 1d628 <g_1791>
   16066:	48 0f be c0          	movsbq %al,%rax
   1606a:	8b 55 fc             	mov    -0x4(%rbp),%edx
   1606d:	48 8d 35 96 35 00 00 	lea    0x3596(%rip),%rsi        # 1960a <g_4129+0x118a>
   16074:	48 89 c7             	mov    %rax,%rdi
   16077:	e8 77 56 ff ff       	callq  b6f3 <transparent_crc>
   1607c:	0f b6 05 a5 75 00 00 	movzbl 0x75a5(%rip),%eax        # 1d628 <g_1791>
   16083:	48 0f be c0          	movsbq %al,%rax
   16087:	8b 55 fc             	mov    -0x4(%rbp),%edx
   1608a:	48 8d 35 83 35 00 00 	lea    0x3583(%rip),%rsi        # 19614 <g_4129+0x1194>
   16091:	48 89 c7             	mov    %rax,%rdi
   16094:	e8 5a 56 ff ff       	callq  b6f3 <transparent_crc>
   16099:	0f b7 05 94 75 00 00 	movzwl 0x7594(%rip),%eax        # 1d634 <g_1849>
   160a0:	48 0f bf c0          	movswq %ax,%rax
   160a4:	8b 55 fc             	mov    -0x4(%rbp),%edx
   160a7:	48 8d 35 70 35 00 00 	lea    0x3570(%rip),%rsi        # 1961e <g_4129+0x119e>
   160ae:	48 89 c7             	mov    %rax,%rdi
   160b1:	e8 3d 56 ff ff       	callq  b6f3 <transparent_crc>
   160b6:	8b 05 7c 75 00 00    	mov    0x757c(%rip),%eax        # 1d638 <g_1852>
   160bc:	89 c1                	mov    %eax,%ecx
   160be:	8b 45 fc             	mov    -0x4(%rbp),%eax
   160c1:	89 c2                	mov    %eax,%edx
   160c3:	48 8d 35 5b 35 00 00 	lea    0x355b(%rip),%rsi        # 19625 <g_4129+0x11a5>
   160ca:	48 89 cf             	mov    %rcx,%rdi
   160cd:	e8 21 56 ff ff       	callq  b6f3 <transparent_crc>
   160d2:	8b 05 64 75 00 00    	mov    0x7564(%rip),%eax        # 1d63c <g_1852+0x4>
   160d8:	48 98                	cltq   
   160da:	8b 55 fc             	mov    -0x4(%rbp),%edx
   160dd:	48 8d 35 4b 35 00 00 	lea    0x354b(%rip),%rsi        # 1962f <g_4129+0x11af>
   160e4:	48 89 c7             	mov    %rax,%rdi
   160e7:	e8 07 56 ff ff       	callq  b6f3 <transparent_crc>
   160ec:	8b 05 4e 75 00 00    	mov    0x754e(%rip),%eax        # 1d640 <g_1852+0x8>
   160f2:	48 98                	cltq   
   160f4:	8b 55 fc             	mov    -0x4(%rbp),%edx
   160f7:	48 8d 35 3b 35 00 00 	lea    0x353b(%rip),%rsi        # 19639 <g_4129+0x11b9>
   160fe:	48 89 c7             	mov    %rax,%rdi
   16101:	e8 ed 55 ff ff       	callq  b6f3 <transparent_crc>
   16106:	48 b8 1a 10 32 45 d8 	movabs $0x6add94d84532101a,%rax
   1610d:	94 dd 6a 
   16110:	48 89 c1             	mov    %rax,%rcx
   16113:	8b 45 fc             	mov    -0x4(%rbp),%eax
   16116:	89 c2                	mov    %eax,%edx
   16118:	48 8d 35 24 35 00 00 	lea    0x3524(%rip),%rsi        # 19643 <g_4129+0x11c3>
   1611f:	48 89 cf             	mov    %rcx,%rdi
   16122:	e8 cc 55 ff ff       	callq  b6f3 <transparent_crc>
   16127:	8b 05 1b 75 00 00    	mov    0x751b(%rip),%eax        # 1d648 <g_1923>
   1612d:	89 c1                	mov    %eax,%ecx
   1612f:	8b 45 fc             	mov    -0x4(%rbp),%eax
   16132:	89 c2                	mov    %eax,%edx
   16134:	48 8d 35 0f 35 00 00 	lea    0x350f(%rip),%rsi        # 1964a <g_4129+0x11ca>
   1613b:	48 89 cf             	mov    %rcx,%rdi
   1613e:	e8 b0 55 ff ff       	callq  b6f3 <transparent_crc>
   16143:	8b 05 03 75 00 00    	mov    0x7503(%rip),%eax        # 1d64c <g_1923+0x4>
   16149:	48 98                	cltq   
   1614b:	8b 55 fc             	mov    -0x4(%rbp),%edx
   1614e:	48 8d 35 ff 34 00 00 	lea    0x34ff(%rip),%rsi        # 19654 <g_4129+0x11d4>
   16155:	48 89 c7             	mov    %rax,%rdi
   16158:	e8 96 55 ff ff       	callq  b6f3 <transparent_crc>
   1615d:	8b 05 ed 74 00 00    	mov    0x74ed(%rip),%eax        # 1d650 <g_1923+0x8>
   16163:	48 98                	cltq   
   16165:	8b 55 fc             	mov    -0x4(%rbp),%edx
   16168:	48 8d 35 ef 34 00 00 	lea    0x34ef(%rip),%rsi        # 1965e <g_4129+0x11de>
   1616f:	48 89 c7             	mov    %rax,%rdi
   16172:	e8 7c 55 ff ff       	callq  b6f3 <transparent_crc>
   16177:	b8 e0 d8 26 a2       	mov    $0xa226d8e0,%eax
   1617c:	48 98                	cltq   
   1617e:	8b 55 fc             	mov    -0x4(%rbp),%edx
   16181:	48 8d 35 e0 34 00 00 	lea    0x34e0(%rip),%rsi        # 19668 <g_4129+0x11e8>
   16188:	48 89 c7             	mov    %rax,%rdi
   1618b:	e8 63 55 ff ff       	callq  b6f3 <transparent_crc>
   16190:	b8 05 00 00 00       	mov    $0x5,%eax
   16195:	48 98                	cltq   
   16197:	8b 55 fc             	mov    -0x4(%rbp),%edx
   1619a:	48 8d 35 ce 34 00 00 	lea    0x34ce(%rip),%rsi        # 1966f <g_4129+0x11ef>
   161a1:	48 89 c7             	mov    %rax,%rdi
   161a4:	e8 4a 55 ff ff       	callq  b6f3 <transparent_crc>
   161a9:	c7 45 f0 00 00 00 00 	movl   $0x0,-0x10(%rbp)
   161b0:	eb 45                	jmp    161f7 <main+0x153b>
   161b2:	8b 45 f0             	mov    -0x10(%rbp),%eax
   161b5:	48 98                	cltq   
   161b7:	48 8d 15 96 74 00 00 	lea    0x7496(%rip),%rdx        # 1d654 <g_2068>
   161be:	0f b6 04 10          	movzbl (%rax,%rdx,1),%eax
   161c2:	0f b6 c0             	movzbl %al,%eax
   161c5:	8b 55 fc             	mov    -0x4(%rbp),%edx
   161c8:	48 8d 35 a7 34 00 00 	lea    0x34a7(%rip),%rsi        # 19676 <g_4129+0x11f6>
   161cf:	48 89 c7             	mov    %rax,%rdi
   161d2:	e8 1c 55 ff ff       	callq  b6f3 <transparent_crc>
   161d7:	83 7d fc 00          	cmpl   $0x0,-0x4(%rbp)
   161db:	74 16                	je     161f3 <main+0x1537>
   161dd:	8b 45 f0             	mov    -0x10(%rbp),%eax
   161e0:	89 c6                	mov    %eax,%esi
   161e2:	48 8d 3d a2 2f 00 00 	lea    0x2fa2(%rip),%rdi        # 1918b <g_4129+0xd0b>
   161e9:	b8 00 00 00 00       	mov    $0x0,%eax
   161ee:	e8 8d 3e ff ff       	callq  a080 <printf@plt>
   161f3:	83 45 f0 01          	addl   $0x1,-0x10(%rbp)
   161f7:	83 7d f0 04          	cmpl   $0x4,-0x10(%rbp)
   161fb:	7e b5                	jle    161b2 <main+0x14f6>
   161fd:	8b 05 59 74 00 00    	mov    0x7459(%rip),%eax        # 1d65c <g_2177>
   16203:	48 98                	cltq   
   16205:	8b 55 fc             	mov    -0x4(%rbp),%edx
   16208:	48 8d 35 71 34 00 00 	lea    0x3471(%rip),%rsi        # 19680 <g_4129+0x1200>
   1620f:	48 89 c7             	mov    %rax,%rdi
   16212:	e8 dc 54 ff ff       	callq  b6f3 <transparent_crc>
   16217:	8b 05 63 bd 00 00    	mov    0xbd63(%rip),%eax        # 21f80 <g_2256>
   1621d:	48 98                	cltq   
   1621f:	8b 55 fc             	mov    -0x4(%rbp),%edx
   16222:	48 8d 35 5e 34 00 00 	lea    0x345e(%rip),%rsi        # 19687 <g_4129+0x1207>
   16229:	48 89 c7             	mov    %rax,%rdi
   1622c:	e8 c2 54 ff ff       	callq  b6f3 <transparent_crc>
   16231:	8b 05 29 74 00 00    	mov    0x7429(%rip),%eax        # 1d660 <g_2259>
   16237:	89 c1                	mov    %eax,%ecx
   16239:	8b 45 fc             	mov    -0x4(%rbp),%eax
   1623c:	89 c2                	mov    %eax,%edx
   1623e:	48 8d 35 49 34 00 00 	lea    0x3449(%rip),%rsi        # 1968e <g_4129+0x120e>
   16245:	48 89 cf             	mov    %rcx,%rdi
   16248:	e8 a6 54 ff ff       	callq  b6f3 <transparent_crc>
   1624d:	8b 05 11 74 00 00    	mov    0x7411(%rip),%eax        # 1d664 <g_2297>
   16253:	48 98                	cltq   
   16255:	8b 55 fc             	mov    -0x4(%rbp),%edx
   16258:	48 8d 35 36 34 00 00 	lea    0x3436(%rip),%rsi        # 19695 <g_4129+0x1215>
   1625f:	48 89 c7             	mov    %rax,%rdi
   16262:	e8 8c 54 ff ff       	callq  b6f3 <transparent_crc>
   16267:	8b 05 fb 73 00 00    	mov    0x73fb(%rip),%eax        # 1d668 <g_2336>
   1626d:	89 c1                	mov    %eax,%ecx
   1626f:	8b 45 fc             	mov    -0x4(%rbp),%eax
   16272:	89 c2                	mov    %eax,%edx
   16274:	48 8d 35 21 34 00 00 	lea    0x3421(%rip),%rsi        # 1969c <g_4129+0x121c>
   1627b:	48 89 cf             	mov    %rcx,%rdi
   1627e:	e8 70 54 ff ff       	callq  b6f3 <transparent_crc>
   16283:	8b 05 e3 73 00 00    	mov    0x73e3(%rip),%eax        # 1d66c <g_2336+0x4>
   16289:	48 98                	cltq   
   1628b:	8b 55 fc             	mov    -0x4(%rbp),%edx
   1628e:	48 8d 35 11 34 00 00 	lea    0x3411(%rip),%rsi        # 196a6 <g_4129+0x1226>
   16295:	48 89 c7             	mov    %rax,%rdi
   16298:	e8 56 54 ff ff       	callq  b6f3 <transparent_crc>
   1629d:	8b 05 cd 73 00 00    	mov    0x73cd(%rip),%eax        # 1d670 <g_2336+0x8>
   162a3:	48 98                	cltq   
   162a5:	8b 55 fc             	mov    -0x4(%rbp),%edx
   162a8:	48 8d 35 01 34 00 00 	lea    0x3401(%rip),%rsi        # 196b0 <g_4129+0x1230>
   162af:	48 89 c7             	mov    %rax,%rdi
   162b2:	e8 3c 54 ff ff       	callq  b6f3 <transparent_crc>
   162b7:	0f b6 05 ba 73 00 00 	movzbl 0x73ba(%rip),%eax        # 1d678 <g_2343>
   162be:	0f b6 c0             	movzbl %al,%eax
   162c1:	8b 55 fc             	mov    -0x4(%rbp),%edx
   162c4:	48 8d 35 ef 33 00 00 	lea    0x33ef(%rip),%rsi        # 196ba <g_4129+0x123a>
   162cb:	48 89 c7             	mov    %rax,%rdi
   162ce:	e8 20 54 ff ff       	callq  b6f3 <transparent_crc>
   162d3:	0f b6 05 9e 73 00 00 	movzbl 0x739e(%rip),%eax        # 1d678 <g_2343>
   162da:	48 0f be c0          	movsbq %al,%rax
   162de:	8b 55 fc             	mov    -0x4(%rbp),%edx
   162e1:	48 8d 35 dc 33 00 00 	lea    0x33dc(%rip),%rsi        # 196c4 <g_4129+0x1244>
   162e8:	48 89 c7             	mov    %rax,%rdi
   162eb:	e8 03 54 ff ff       	callq  b6f3 <transparent_crc>
   162f0:	0f b6 05 81 73 00 00 	movzbl 0x7381(%rip),%eax        # 1d678 <g_2343>
   162f7:	48 0f be c0          	movsbq %al,%rax
   162fb:	8b 55 fc             	mov    -0x4(%rbp),%edx
   162fe:	48 8d 35 c9 33 00 00 	lea    0x33c9(%rip),%rsi        # 196ce <g_4129+0x124e>
   16305:	48 89 c7             	mov    %rax,%rdi
   16308:	e8 e6 53 ff ff       	callq  b6f3 <transparent_crc>
   1630d:	0f b6 05 8c bc 00 00 	movzbl 0xbc8c(%rip),%eax        # 21fa0 <g_2498>
   16314:	0f b6 c0             	movzbl %al,%eax
   16317:	8b 55 fc             	mov    -0x4(%rbp),%edx
   1631a:	48 8d 35 b7 33 00 00 	lea    0x33b7(%rip),%rsi        # 196d8 <g_4129+0x1258>
   16321:	48 89 c7             	mov    %rax,%rdi
   16324:	e8 ca 53 ff ff       	callq  b6f3 <transparent_crc>
   16329:	0f b6 05 70 bc 00 00 	movzbl 0xbc70(%rip),%eax        # 21fa0 <g_2498>
   16330:	48 0f be c0          	movsbq %al,%rax
   16334:	8b 55 fc             	mov    -0x4(%rbp),%edx
   16337:	48 8d 35 a4 33 00 00 	lea    0x33a4(%rip),%rsi        # 196e2 <g_4129+0x1262>
   1633e:	48 89 c7             	mov    %rax,%rdi
   16341:	e8 ad 53 ff ff       	callq  b6f3 <transparent_crc>
   16346:	0f b6 05 53 bc 00 00 	movzbl 0xbc53(%rip),%eax        # 21fa0 <g_2498>
   1634d:	48 0f be c0          	movsbq %al,%rax
   16351:	8b 55 fc             	mov    -0x4(%rbp),%edx
   16354:	48 8d 35 91 33 00 00 	lea    0x3391(%rip),%rsi        # 196ec <g_4129+0x126c>
   1635b:	48 89 c7             	mov    %rax,%rdi
   1635e:	e8 90 53 ff ff       	callq  b6f3 <transparent_crc>
   16363:	48 8b 05 1e 73 00 00 	mov    0x731e(%rip),%rax        # 1d688 <g_2569>
   1636a:	48 89 c1             	mov    %rax,%rcx
   1636d:	8b 45 fc             	mov    -0x4(%rbp),%eax
   16370:	89 c2                	mov    %eax,%edx
   16372:	48 8d 35 7d 33 00 00 	lea    0x337d(%rip),%rsi        # 196f6 <g_4129+0x1276>
   16379:	48 89 cf             	mov    %rcx,%rdi
   1637c:	e8 72 53 ff ff       	callq  b6f3 <transparent_crc>
   16381:	0f b7 05 40 bc 00 00 	movzwl 0xbc40(%rip),%eax        # 21fc8 <g_2583>
   16388:	48 0f bf c0          	movswq %ax,%rax
   1638c:	8b 55 fc             	mov    -0x4(%rbp),%edx
   1638f:	48 8d 35 67 33 00 00 	lea    0x3367(%rip),%rsi        # 196fd <g_4129+0x127d>
   16396:	48 89 c7             	mov    %rax,%rdi
   16399:	e8 55 53 ff ff       	callq  b6f3 <transparent_crc>
   1639e:	0f b7 05 eb 72 00 00 	movzwl 0x72eb(%rip),%eax        # 1d690 <g_2651>
   163a5:	48 0f bf c0          	movswq %ax,%rax
   163a9:	8b 55 fc             	mov    -0x4(%rbp),%edx
   163ac:	48 8d 35 54 33 00 00 	lea    0x3354(%rip),%rsi        # 19707 <g_4129+0x1287>
   163b3:	48 89 c7             	mov    %rax,%rdi
   163b6:	e8 38 53 ff ff       	callq  b6f3 <transparent_crc>
   163bb:	0f b7 05 d2 72 00 00 	movzwl 0x72d2(%rip),%eax        # 1d694 <g_2664>
   163c2:	48 0f bf c0          	movswq %ax,%rax
   163c6:	8b 55 fc             	mov    -0x4(%rbp),%edx
   163c9:	48 8d 35 41 33 00 00 	lea    0x3341(%rip),%rsi        # 19711 <g_4129+0x1291>
   163d0:	48 89 c7             	mov    %rax,%rdi
   163d3:	e8 1b 53 ff ff       	callq  b6f3 <transparent_crc>
   163d8:	c7 45 f0 00 00 00 00 	movl   $0x0,-0x10(%rbp)
   163df:	eb 45                	jmp    16426 <main+0x176a>
   163e1:	8b 45 f0             	mov    -0x10(%rbp),%eax
   163e4:	48 98                	cltq   
   163e6:	48 8d 15 ab 72 00 00 	lea    0x72ab(%rip),%rdx        # 1d698 <g_2678>
   163ed:	0f b6 04 10          	movzbl (%rax,%rdx,1),%eax
   163f1:	0f b6 c0             	movzbl %al,%eax
   163f4:	8b 55 fc             	mov    -0x4(%rbp),%edx
   163f7:	48 8d 35 1d 33 00 00 	lea    0x331d(%rip),%rsi        # 1971b <g_4129+0x129b>
   163fe:	48 89 c7             	mov    %rax,%rdi
   16401:	e8 ed 52 ff ff       	callq  b6f3 <transparent_crc>
   16406:	83 7d fc 00          	cmpl   $0x0,-0x4(%rbp)
   1640a:	74 16                	je     16422 <main+0x1766>
   1640c:	8b 45 f0             	mov    -0x10(%rbp),%eax
   1640f:	89 c6                	mov    %eax,%esi
   16411:	48 8d 3d 73 2d 00 00 	lea    0x2d73(%rip),%rdi        # 1918b <g_4129+0xd0b>
   16418:	b8 00 00 00 00       	mov    $0x0,%eax
   1641d:	e8 5e 3c ff ff       	callq  a080 <printf@plt>
   16422:	83 45 f0 01          	addl   $0x1,-0x10(%rbp)
   16426:	83 7d f0 00          	cmpl   $0x0,-0x10(%rbp)
   1642a:	7e b5                	jle    163e1 <main+0x1725>
   1642c:	8b 05 6e 72 00 00    	mov    0x726e(%rip),%eax        # 1d6a0 <g_2683>
   16432:	89 c1                	mov    %eax,%ecx
   16434:	8b 45 fc             	mov    -0x4(%rbp),%eax
   16437:	89 c2                	mov    %eax,%edx
   16439:	48 8d 35 e5 32 00 00 	lea    0x32e5(%rip),%rsi        # 19725 <g_4129+0x12a5>
   16440:	48 89 cf             	mov    %rcx,%rdi
   16443:	e8 ab 52 ff ff       	callq  b6f3 <transparent_crc>
   16448:	8b 05 56 72 00 00    	mov    0x7256(%rip),%eax        # 1d6a4 <g_2683+0x4>
   1644e:	48 98                	cltq   
   16450:	8b 55 fc             	mov    -0x4(%rbp),%edx
   16453:	48 8d 35 d5 32 00 00 	lea    0x32d5(%rip),%rsi        # 1972f <g_4129+0x12af>
   1645a:	48 89 c7             	mov    %rax,%rdi
   1645d:	e8 91 52 ff ff       	callq  b6f3 <transparent_crc>
   16462:	8b 05 40 72 00 00    	mov    0x7240(%rip),%eax        # 1d6a8 <g_2683+0x8>
   16468:	48 98                	cltq   
   1646a:	8b 55 fc             	mov    -0x4(%rbp),%edx
   1646d:	48 8d 35 c5 32 00 00 	lea    0x32c5(%rip),%rsi        # 19739 <g_4129+0x12b9>
   16474:	48 89 c7             	mov    %rax,%rdi
   16477:	e8 77 52 ff ff       	callq  b6f3 <transparent_crc>
   1647c:	0f b6 05 2d 72 00 00 	movzbl 0x722d(%rip),%eax        # 1d6b0 <g_2696>
   16483:	0f b6 c0             	movzbl %al,%eax
   16486:	8b 55 fc             	mov    -0x4(%rbp),%edx
   16489:	48 8d 35 b3 32 00 00 	lea    0x32b3(%rip),%rsi        # 19743 <g_4129+0x12c3>
   16490:	48 89 c7             	mov    %rax,%rdi
   16493:	e8 5b 52 ff ff       	callq  b6f3 <transparent_crc>
   16498:	0f b6 05 11 72 00 00 	movzbl 0x7211(%rip),%eax        # 1d6b0 <g_2696>
   1649f:	48 0f be c0          	movsbq %al,%rax
   164a3:	8b 55 fc             	mov    -0x4(%rbp),%edx
   164a6:	48 8d 35 a0 32 00 00 	lea    0x32a0(%rip),%rsi        # 1974d <g_4129+0x12cd>
   164ad:	48 89 c7             	mov    %rax,%rdi
   164b0:	e8 3e 52 ff ff       	callq  b6f3 <transparent_crc>
   164b5:	0f b6 05 f4 71 00 00 	movzbl 0x71f4(%rip),%eax        # 1d6b0 <g_2696>
   164bc:	48 0f be c0          	movsbq %al,%rax
   164c0:	8b 55 fc             	mov    -0x4(%rbp),%edx
   164c3:	48 8d 35 8d 32 00 00 	lea    0x328d(%rip),%rsi        # 19757 <g_4129+0x12d7>
   164ca:	48 89 c7             	mov    %rax,%rdi
   164cd:	e8 21 52 ff ff       	callq  b6f3 <transparent_crc>
   164d2:	0f b6 05 e7 71 00 00 	movzbl 0x71e7(%rip),%eax        # 1d6c0 <g_2716>
   164d9:	0f b6 c0             	movzbl %al,%eax
   164dc:	8b 55 fc             	mov    -0x4(%rbp),%edx
   164df:	48 8d 35 7b 32 00 00 	lea    0x327b(%rip),%rsi        # 19761 <g_4129+0x12e1>
   164e6:	48 89 c7             	mov    %rax,%rdi
   164e9:	e8 05 52 ff ff       	callq  b6f3 <transparent_crc>
   164ee:	0f b6 05 cb 71 00 00 	movzbl 0x71cb(%rip),%eax        # 1d6c0 <g_2716>
   164f5:	48 0f be c0          	movsbq %al,%rax
   164f9:	8b 55 fc             	mov    -0x4(%rbp),%edx
   164fc:	48 8d 35 68 32 00 00 	lea    0x3268(%rip),%rsi        # 1976b <g_4129+0x12eb>
   16503:	48 89 c7             	mov    %rax,%rdi
   16506:	e8 e8 51 ff ff       	callq  b6f3 <transparent_crc>
   1650b:	0f b6 05 ae 71 00 00 	movzbl 0x71ae(%rip),%eax        # 1d6c0 <g_2716>
   16512:	48 0f be c0          	movsbq %al,%rax
   16516:	8b 55 fc             	mov    -0x4(%rbp),%edx
   16519:	48 8d 35 55 32 00 00 	lea    0x3255(%rip),%rsi        # 19775 <g_4129+0x12f5>
   16520:	48 89 c7             	mov    %rax,%rdi
   16523:	e8 cb 51 ff ff       	callq  b6f3 <transparent_crc>
   16528:	8b 05 a2 71 00 00    	mov    0x71a2(%rip),%eax        # 1d6d0 <g_2788>
   1652e:	89 c1                	mov    %eax,%ecx
   16530:	8b 45 fc             	mov    -0x4(%rbp),%eax
   16533:	89 c2                	mov    %eax,%edx
   16535:	48 8d 35 43 32 00 00 	lea    0x3243(%rip),%rsi        # 1977f <g_4129+0x12ff>
   1653c:	48 89 cf             	mov    %rcx,%rdi
   1653f:	e8 af 51 ff ff       	callq  b6f3 <transparent_crc>
   16544:	8b 05 8a 71 00 00    	mov    0x718a(%rip),%eax        # 1d6d4 <g_2788+0x4>
   1654a:	48 98                	cltq   
   1654c:	8b 55 fc             	mov    -0x4(%rbp),%edx
   1654f:	48 8d 35 33 32 00 00 	lea    0x3233(%rip),%rsi        # 19789 <g_4129+0x1309>
   16556:	48 89 c7             	mov    %rax,%rdi
   16559:	e8 95 51 ff ff       	callq  b6f3 <transparent_crc>
   1655e:	8b 05 74 71 00 00    	mov    0x7174(%rip),%eax        # 1d6d8 <g_2788+0x8>
   16564:	48 98                	cltq   
   16566:	8b 55 fc             	mov    -0x4(%rbp),%edx
   16569:	48 8d 35 23 32 00 00 	lea    0x3223(%rip),%rsi        # 19793 <g_4129+0x1313>
   16570:	48 89 c7             	mov    %rax,%rdi
   16573:	e8 7b 51 ff ff       	callq  b6f3 <transparent_crc>
   16578:	8b 05 5e 71 00 00    	mov    0x715e(%rip),%eax        # 1d6dc <g_2794>
   1657e:	89 c1                	mov    %eax,%ecx
   16580:	8b 45 fc             	mov    -0x4(%rbp),%eax
   16583:	89 c2                	mov    %eax,%edx
   16585:	48 8d 35 11 32 00 00 	lea    0x3211(%rip),%rsi        # 1979d <g_4129+0x131d>
   1658c:	48 89 cf             	mov    %rcx,%rdi
   1658f:	e8 5f 51 ff ff       	callq  b6f3 <transparent_crc>
   16594:	0f b6 05 45 71 00 00 	movzbl 0x7145(%rip),%eax        # 1d6e0 <g_2881>
   1659b:	0f b6 c0             	movzbl %al,%eax
   1659e:	8b 55 fc             	mov    -0x4(%rbp),%edx
   165a1:	48 8d 35 fc 31 00 00 	lea    0x31fc(%rip),%rsi        # 197a4 <g_4129+0x1324>
   165a8:	48 89 c7             	mov    %rax,%rdi
   165ab:	e8 43 51 ff ff       	callq  b6f3 <transparent_crc>
   165b0:	0f b6 05 29 71 00 00 	movzbl 0x7129(%rip),%eax        # 1d6e0 <g_2881>
   165b7:	48 0f be c0          	movsbq %al,%rax
   165bb:	8b 55 fc             	mov    -0x4(%rbp),%edx
   165be:	48 8d 35 e9 31 00 00 	lea    0x31e9(%rip),%rsi        # 197ae <g_4129+0x132e>
   165c5:	48 89 c7             	mov    %rax,%rdi
   165c8:	e8 26 51 ff ff       	callq  b6f3 <transparent_crc>
   165cd:	0f b6 05 0c 71 00 00 	movzbl 0x710c(%rip),%eax        # 1d6e0 <g_2881>
   165d4:	48 0f be c0          	movsbq %al,%rax
   165d8:	8b 55 fc             	mov    -0x4(%rbp),%edx
   165db:	48 8d 35 d6 31 00 00 	lea    0x31d6(%rip),%rsi        # 197b8 <g_4129+0x1338>
   165e2:	48 89 c7             	mov    %rax,%rdi
   165e5:	e8 09 51 ff ff       	callq  b6f3 <transparent_crc>
   165ea:	c7 45 f0 00 00 00 00 	movl   $0x0,-0x10(%rbp)
   165f1:	e9 a7 00 00 00       	jmpq   1669d <main+0x19e1>
   165f6:	c7 45 f4 00 00 00 00 	movl   $0x0,-0xc(%rbp)
   165fd:	e9 8d 00 00 00       	jmpq   1668f <main+0x19d3>
   16602:	c7 45 f8 00 00 00 00 	movl   $0x0,-0x8(%rbp)
   16609:	eb 7a                	jmp    16685 <main+0x19c9>
   1660b:	8b 45 f8             	mov    -0x8(%rbp),%eax
   1660e:	48 63 f0             	movslq %eax,%rsi
   16611:	8b 45 f0             	mov    -0x10(%rbp),%eax
   16614:	48 63 d0             	movslq %eax,%rdx
   16617:	8b 45 f4             	mov    -0xc(%rbp),%eax
   1661a:	48 63 c8             	movslq %eax,%rcx
   1661d:	48 89 d0             	mov    %rdx,%rax
   16620:	48 c1 e0 02          	shl    $0x2,%rax
   16624:	48 01 d0             	add    %rdx,%rax
   16627:	48 c1 e0 02          	shl    $0x2,%rax
   1662b:	48 89 ca             	mov    %rcx,%rdx
   1662e:	48 c1 e2 02          	shl    $0x2,%rdx
   16632:	48 01 ca             	add    %rcx,%rdx
   16635:	48 01 d0             	add    %rdx,%rax
   16638:	48 8d 14 30          	lea    (%rax,%rsi,1),%rdx
   1663c:	48 8d 05 bd 70 00 00 	lea    0x70bd(%rip),%rax        # 1d700 <g_2895>
   16643:	48 01 d0             	add    %rdx,%rax
   16646:	0f b6 00             	movzbl (%rax),%eax
   16649:	48 0f be c0          	movsbq %al,%rax
   1664d:	8b 55 fc             	mov    -0x4(%rbp),%edx
   16650:	48 8d 35 6b 31 00 00 	lea    0x316b(%rip),%rsi        # 197c2 <g_4129+0x1342>
   16657:	48 89 c7             	mov    %rax,%rdi
   1665a:	e8 94 50 ff ff       	callq  b6f3 <transparent_crc>
   1665f:	83 7d fc 00          	cmpl   $0x0,-0x4(%rbp)
   16663:	74 1c                	je     16681 <main+0x19c5>
   16665:	8b 4d f8             	mov    -0x8(%rbp),%ecx
   16668:	8b 55 f4             	mov    -0xc(%rbp),%edx
   1666b:	8b 45 f0             	mov    -0x10(%rbp),%eax
   1666e:	89 c6                	mov    %eax,%esi
   16670:	48 8d 3d 6f 2c 00 00 	lea    0x2c6f(%rip),%rdi        # 192e6 <g_4129+0xe66>
   16677:	b8 00 00 00 00       	mov    $0x0,%eax
   1667c:	e8 ff 39 ff ff       	callq  a080 <printf@plt>
   16681:	83 45 f8 01          	addl   $0x1,-0x8(%rbp)
   16685:	83 7d f8 04          	cmpl   $0x4,-0x8(%rbp)
   16689:	7e 80                	jle    1660b <main+0x194f>
   1668b:	83 45 f4 01          	addl   $0x1,-0xc(%rbp)
   1668f:	83 7d f4 03          	cmpl   $0x3,-0xc(%rbp)
   16693:	0f 8e 69 ff ff ff    	jle    16602 <main+0x1946>
   16699:	83 45 f0 01          	addl   $0x1,-0x10(%rbp)
   1669d:	83 7d f0 04          	cmpl   $0x4,-0x10(%rbp)
   166a1:	0f 8e 4f ff ff ff    	jle    165f6 <main+0x193a>
   166a7:	0f b6 05 ba 70 00 00 	movzbl 0x70ba(%rip),%eax        # 1d768 <g_2943>
   166ae:	0f b6 c0             	movzbl %al,%eax
   166b1:	8b 55 fc             	mov    -0x4(%rbp),%edx
   166b4:	48 8d 35 17 31 00 00 	lea    0x3117(%rip),%rsi        # 197d2 <g_4129+0x1352>
   166bb:	48 89 c7             	mov    %rax,%rdi
   166be:	e8 30 50 ff ff       	callq  b6f3 <transparent_crc>
   166c3:	0f b6 05 9e 70 00 00 	movzbl 0x709e(%rip),%eax        # 1d768 <g_2943>
   166ca:	48 0f be c0          	movsbq %al,%rax
   166ce:	8b 55 fc             	mov    -0x4(%rbp),%edx
   166d1:	48 8d 35 04 31 00 00 	lea    0x3104(%rip),%rsi        # 197dc <g_4129+0x135c>
   166d8:	48 89 c7             	mov    %rax,%rdi
   166db:	e8 13 50 ff ff       	callq  b6f3 <transparent_crc>
   166e0:	0f b6 05 81 70 00 00 	movzbl 0x7081(%rip),%eax        # 1d768 <g_2943>
   166e7:	48 0f be c0          	movsbq %al,%rax
   166eb:	8b 55 fc             	mov    -0x4(%rbp),%edx
   166ee:	48 8d 35 f1 30 00 00 	lea    0x30f1(%rip),%rsi        # 197e6 <g_4129+0x1366>
   166f5:	48 89 c7             	mov    %rax,%rdi
   166f8:	e8 f6 4f ff ff       	callq  b6f3 <transparent_crc>
   166fd:	0f b6 05 74 70 00 00 	movzbl 0x7074(%rip),%eax        # 1d778 <g_2945>
   16704:	0f b6 c0             	movzbl %al,%eax
   16707:	8b 55 fc             	mov    -0x4(%rbp),%edx
   1670a:	48 8d 35 df 30 00 00 	lea    0x30df(%rip),%rsi        # 197f0 <g_4129+0x1370>
   16711:	48 89 c7             	mov    %rax,%rdi
   16714:	e8 da 4f ff ff       	callq  b6f3 <transparent_crc>
   16719:	0f b6 05 58 70 00 00 	movzbl 0x7058(%rip),%eax        # 1d778 <g_2945>
   16720:	48 0f be c0          	movsbq %al,%rax
   16724:	8b 55 fc             	mov    -0x4(%rbp),%edx
   16727:	48 8d 35 cc 30 00 00 	lea    0x30cc(%rip),%rsi        # 197fa <g_4129+0x137a>
   1672e:	48 89 c7             	mov    %rax,%rdi
   16731:	e8 bd 4f ff ff       	callq  b6f3 <transparent_crc>
   16736:	0f b6 05 3b 70 00 00 	movzbl 0x703b(%rip),%eax        # 1d778 <g_2945>
   1673d:	48 0f be c0          	movsbq %al,%rax
   16741:	8b 55 fc             	mov    -0x4(%rbp),%edx
   16744:	48 8d 35 b9 30 00 00 	lea    0x30b9(%rip),%rsi        # 19804 <g_4129+0x1384>
   1674b:	48 89 c7             	mov    %rax,%rdi
   1674e:	e8 a0 4f ff ff       	callq  b6f3 <transparent_crc>
   16753:	c7 45 f0 00 00 00 00 	movl   $0x0,-0x10(%rbp)
   1675a:	eb 4e                	jmp    167aa <main+0x1aee>
   1675c:	8b 45 f0             	mov    -0x10(%rbp),%eax
   1675f:	48 98                	cltq   
   16761:	48 8d 14 85 00 00 00 	lea    0x0(,%rax,4),%rdx
   16768:	00 
   16769:	48 8d 05 20 70 00 00 	lea    0x7020(%rip),%rax        # 1d790 <g_2963>
   16770:	0f b7 04 02          	movzwl (%rdx,%rax,1),%eax
   16774:	48 0f bf c0          	movswq %ax,%rax
   16778:	8b 55 fc             	mov    -0x4(%rbp),%edx
   1677b:	48 8d 35 8c 30 00 00 	lea    0x308c(%rip),%rsi        # 1980e <g_4129+0x138e>
   16782:	48 89 c7             	mov    %rax,%rdi
   16785:	e8 69 4f ff ff       	callq  b6f3 <transparent_crc>
   1678a:	83 7d fc 00          	cmpl   $0x0,-0x4(%rbp)
   1678e:	74 16                	je     167a6 <main+0x1aea>
   16790:	8b 45 f0             	mov    -0x10(%rbp),%eax
   16793:	89 c6                	mov    %eax,%esi
   16795:	48 8d 3d ef 29 00 00 	lea    0x29ef(%rip),%rdi        # 1918b <g_4129+0xd0b>
   1679c:	b8 00 00 00 00       	mov    $0x0,%eax
   167a1:	e8 da 38 ff ff       	callq  a080 <printf@plt>
   167a6:	83 45 f0 01          	addl   $0x1,-0x10(%rbp)
   167aa:	83 7d f0 03          	cmpl   $0x3,-0x10(%rbp)
   167ae:	7e ac                	jle    1675c <main+0x1aa0>
   167b0:	8b 05 ea 6f 00 00    	mov    0x6fea(%rip),%eax        # 1d7a0 <g_3007>
   167b6:	89 c1                	mov    %eax,%ecx
   167b8:	8b 45 fc             	mov    -0x4(%rbp),%eax
   167bb:	89 c2                	mov    %eax,%edx
   167bd:	48 8d 35 57 30 00 00 	lea    0x3057(%rip),%rsi        # 1981b <g_4129+0x139b>
   167c4:	48 89 cf             	mov    %rcx,%rdi
   167c7:	e8 27 4f ff ff       	callq  b6f3 <transparent_crc>
   167cc:	8b 05 d2 6f 00 00    	mov    0x6fd2(%rip),%eax        # 1d7a4 <g_3007+0x4>
   167d2:	48 98                	cltq   
   167d4:	8b 55 fc             	mov    -0x4(%rbp),%edx
   167d7:	48 8d 35 47 30 00 00 	lea    0x3047(%rip),%rsi        # 19825 <g_4129+0x13a5>
   167de:	48 89 c7             	mov    %rax,%rdi
   167e1:	e8 0d 4f ff ff       	callq  b6f3 <transparent_crc>
   167e6:	8b 05 bc 6f 00 00    	mov    0x6fbc(%rip),%eax        # 1d7a8 <g_3007+0x8>
   167ec:	48 98                	cltq   
   167ee:	8b 55 fc             	mov    -0x4(%rbp),%edx
   167f1:	48 8d 35 37 30 00 00 	lea    0x3037(%rip),%rsi        # 1982f <g_4129+0x13af>
   167f8:	48 89 c7             	mov    %rax,%rdi
   167fb:	e8 f3 4e ff ff       	callq  b6f3 <transparent_crc>
   16800:	0f b6 05 a9 6f 00 00 	movzbl 0x6fa9(%rip),%eax        # 1d7b0 <g_3149>
   16807:	0f b6 c0             	movzbl %al,%eax
   1680a:	8b 55 fc             	mov    -0x4(%rbp),%edx
   1680d:	48 8d 35 25 30 00 00 	lea    0x3025(%rip),%rsi        # 19839 <g_4129+0x13b9>
   16814:	48 89 c7             	mov    %rax,%rdi
   16817:	e8 d7 4e ff ff       	callq  b6f3 <transparent_crc>
   1681c:	0f b6 05 8d 6f 00 00 	movzbl 0x6f8d(%rip),%eax        # 1d7b0 <g_3149>
   16823:	48 0f be c0          	movsbq %al,%rax
   16827:	8b 55 fc             	mov    -0x4(%rbp),%edx
   1682a:	48 8d 35 12 30 00 00 	lea    0x3012(%rip),%rsi        # 19843 <g_4129+0x13c3>
   16831:	48 89 c7             	mov    %rax,%rdi
   16834:	e8 ba 4e ff ff       	callq  b6f3 <transparent_crc>
   16839:	0f b6 05 70 6f 00 00 	movzbl 0x6f70(%rip),%eax        # 1d7b0 <g_3149>
   16840:	48 0f be c0          	movsbq %al,%rax
   16844:	8b 55 fc             	mov    -0x4(%rbp),%edx
   16847:	48 8d 35 ff 2f 00 00 	lea    0x2fff(%rip),%rsi        # 1984d <g_4129+0x13cd>
   1684e:	48 89 c7             	mov    %rax,%rdi
   16851:	e8 9d 4e ff ff       	callq  b6f3 <transparent_crc>
   16856:	b8 2c 00 00 00       	mov    $0x2c,%eax
   1685b:	0f b6 c0             	movzbl %al,%eax
   1685e:	8b 55 fc             	mov    -0x4(%rbp),%edx
   16861:	48 8d 35 ef 2f 00 00 	lea    0x2fef(%rip),%rsi        # 19857 <g_4129+0x13d7>
   16868:	48 89 c7             	mov    %rax,%rdi
   1686b:	e8 83 4e ff ff       	callq  b6f3 <transparent_crc>
   16870:	b8 2c 00 00 00       	mov    $0x2c,%eax
   16875:	48 0f be c0          	movsbq %al,%rax
   16879:	8b 55 fc             	mov    -0x4(%rbp),%edx
   1687c:	48 8d 35 de 2f 00 00 	lea    0x2fde(%rip),%rsi        # 19861 <g_4129+0x13e1>
   16883:	48 89 c7             	mov    %rax,%rdi
   16886:	e8 68 4e ff ff       	callq  b6f3 <transparent_crc>
   1688b:	b8 2c 00 00 00       	mov    $0x2c,%eax
   16890:	48 0f be c0          	movsbq %al,%rax
   16894:	8b 55 fc             	mov    -0x4(%rbp),%edx
   16897:	48 8d 35 cd 2f 00 00 	lea    0x2fcd(%rip),%rsi        # 1986b <g_4129+0x13eb>
   1689e:	48 89 c7             	mov    %rax,%rdi
   168a1:	e8 4d 4e ff ff       	callq  b6f3 <transparent_crc>
   168a6:	0f b7 05 0f 6f 00 00 	movzwl 0x6f0f(%rip),%eax        # 1d7bc <g_3235>
   168ad:	48 0f bf c0          	movswq %ax,%rax
   168b1:	8b 55 fc             	mov    -0x4(%rbp),%edx
   168b4:	48 8d 35 ba 2f 00 00 	lea    0x2fba(%rip),%rsi        # 19875 <g_4129+0x13f5>
   168bb:	48 89 c7             	mov    %rax,%rdi
   168be:	e8 30 4e ff ff       	callq  b6f3 <transparent_crc>
   168c3:	8b 05 f7 6e 00 00    	mov    0x6ef7(%rip),%eax        # 1d7c0 <g_3253>
   168c9:	89 c1                	mov    %eax,%ecx
   168cb:	8b 45 fc             	mov    -0x4(%rbp),%eax
   168ce:	89 c2                	mov    %eax,%edx
   168d0:	48 8d 35 a8 2f 00 00 	lea    0x2fa8(%rip),%rsi        # 1987f <g_4129+0x13ff>
   168d7:	48 89 cf             	mov    %rcx,%rdi
   168da:	e8 14 4e ff ff       	callq  b6f3 <transparent_crc>
   168df:	8b 05 df 6e 00 00    	mov    0x6edf(%rip),%eax        # 1d7c4 <g_3253+0x4>
   168e5:	48 98                	cltq   
   168e7:	8b 55 fc             	mov    -0x4(%rbp),%edx
   168ea:	48 8d 35 98 2f 00 00 	lea    0x2f98(%rip),%rsi        # 19889 <g_4129+0x1409>
   168f1:	48 89 c7             	mov    %rax,%rdi
   168f4:	e8 fa 4d ff ff       	callq  b6f3 <transparent_crc>
   168f9:	8b 05 c9 6e 00 00    	mov    0x6ec9(%rip),%eax        # 1d7c8 <g_3253+0x8>
   168ff:	48 98                	cltq   
   16901:	8b 55 fc             	mov    -0x4(%rbp),%edx
   16904:	48 8d 35 88 2f 00 00 	lea    0x2f88(%rip),%rsi        # 19893 <g_4129+0x1413>
   1690b:	48 89 c7             	mov    %rax,%rdi
   1690e:	e8 e0 4d ff ff       	callq  b6f3 <transparent_crc>
   16913:	0f b6 05 b6 6e 00 00 	movzbl 0x6eb6(%rip),%eax        # 1d7d0 <g_3303>
   1691a:	0f b6 c0             	movzbl %al,%eax
   1691d:	8b 55 fc             	mov    -0x4(%rbp),%edx
   16920:	48 8d 35 76 2f 00 00 	lea    0x2f76(%rip),%rsi        # 1989d <g_4129+0x141d>
   16927:	48 89 c7             	mov    %rax,%rdi
   1692a:	e8 c4 4d ff ff       	callq  b6f3 <transparent_crc>
   1692f:	0f b6 05 9a 6e 00 00 	movzbl 0x6e9a(%rip),%eax        # 1d7d0 <g_3303>
   16936:	48 0f be c0          	movsbq %al,%rax
   1693a:	8b 55 fc             	mov    -0x4(%rbp),%edx
   1693d:	48 8d 35 63 2f 00 00 	lea    0x2f63(%rip),%rsi        # 198a7 <g_4129+0x1427>
   16944:	48 89 c7             	mov    %rax,%rdi
   16947:	e8 a7 4d ff ff       	callq  b6f3 <transparent_crc>
   1694c:	0f b6 05 7d 6e 00 00 	movzbl 0x6e7d(%rip),%eax        # 1d7d0 <g_3303>
   16953:	48 0f be c0          	movsbq %al,%rax
   16957:	8b 55 fc             	mov    -0x4(%rbp),%edx
   1695a:	48 8d 35 50 2f 00 00 	lea    0x2f50(%rip),%rsi        # 198b1 <g_4129+0x1431>
   16961:	48 89 c7             	mov    %rax,%rdi
   16964:	e8 8a 4d ff ff       	callq  b6f3 <transparent_crc>
   16969:	0f b6 05 70 6e 00 00 	movzbl 0x6e70(%rip),%eax        # 1d7e0 <g_3333>
   16970:	0f b6 c0             	movzbl %al,%eax
   16973:	8b 55 fc             	mov    -0x4(%rbp),%edx
   16976:	48 8d 35 3e 2f 00 00 	lea    0x2f3e(%rip),%rsi        # 198bb <g_4129+0x143b>
   1697d:	48 89 c7             	mov    %rax,%rdi
   16980:	e8 6e 4d ff ff       	callq  b6f3 <transparent_crc>
   16985:	0f b6 05 54 6e 00 00 	movzbl 0x6e54(%rip),%eax        # 1d7e0 <g_3333>
   1698c:	48 0f be c0          	movsbq %al,%rax
   16990:	8b 55 fc             	mov    -0x4(%rbp),%edx
   16993:	48 8d 35 2b 2f 00 00 	lea    0x2f2b(%rip),%rsi        # 198c5 <g_4129+0x1445>
   1699a:	48 89 c7             	mov    %rax,%rdi
   1699d:	e8 51 4d ff ff       	callq  b6f3 <transparent_crc>
   169a2:	0f b6 05 37 6e 00 00 	movzbl 0x6e37(%rip),%eax        # 1d7e0 <g_3333>
   169a9:	48 0f be c0          	movsbq %al,%rax
   169ad:	8b 55 fc             	mov    -0x4(%rbp),%edx
   169b0:	48 8d 35 18 2f 00 00 	lea    0x2f18(%rip),%rsi        # 198cf <g_4129+0x144f>
   169b7:	48 89 c7             	mov    %rax,%rdi
   169ba:	e8 34 4d ff ff       	callq  b6f3 <transparent_crc>
   169bf:	0f b7 05 26 6e 00 00 	movzwl 0x6e26(%rip),%eax        # 1d7ec <g_3438>
   169c6:	48 0f bf c0          	movswq %ax,%rax
   169ca:	8b 55 fc             	mov    -0x4(%rbp),%edx
   169cd:	48 8d 35 05 2f 00 00 	lea    0x2f05(%rip),%rsi        # 198d9 <g_4129+0x1459>
   169d4:	48 89 c7             	mov    %rax,%rdi
   169d7:	e8 17 4d ff ff       	callq  b6f3 <transparent_crc>
   169dc:	8b 05 0e 6e 00 00    	mov    0x6e0e(%rip),%eax        # 1d7f0 <g_3446>
   169e2:	89 c1                	mov    %eax,%ecx
   169e4:	8b 45 fc             	mov    -0x4(%rbp),%eax
   169e7:	89 c2                	mov    %eax,%edx
   169e9:	48 8d 35 f3 2e 00 00 	lea    0x2ef3(%rip),%rsi        # 198e3 <g_4129+0x1463>
   169f0:	48 89 cf             	mov    %rcx,%rdi
   169f3:	e8 fb 4c ff ff       	callq  b6f3 <transparent_crc>
   169f8:	c7 45 f0 00 00 00 00 	movl   $0x0,-0x10(%rbp)
   169ff:	eb 4e                	jmp    16a4f <main+0x1d93>
   16a01:	8b 45 f0             	mov    -0x10(%rbp),%eax
   16a04:	48 98                	cltq   
   16a06:	48 8d 14 85 00 00 00 	lea    0x0(,%rax,4),%rdx
   16a0d:	00 
   16a0e:	48 8d 05 df 6d 00 00 	lea    0x6ddf(%rip),%rax        # 1d7f4 <g_3496>
   16a15:	0f b7 04 02          	movzwl (%rdx,%rax,1),%eax
   16a19:	48 0f bf c0          	movswq %ax,%rax
   16a1d:	8b 55 fc             	mov    -0x4(%rbp),%edx
   16a20:	48 8d 35 c3 2e 00 00 	lea    0x2ec3(%rip),%rsi        # 198ea <g_4129+0x146a>
   16a27:	48 89 c7             	mov    %rax,%rdi
   16a2a:	e8 c4 4c ff ff       	callq  b6f3 <transparent_crc>
   16a2f:	83 7d fc 00          	cmpl   $0x0,-0x4(%rbp)
   16a33:	74 16                	je     16a4b <main+0x1d8f>
   16a35:	8b 45 f0             	mov    -0x10(%rbp),%eax
   16a38:	89 c6                	mov    %eax,%esi
   16a3a:	48 8d 3d 4a 27 00 00 	lea    0x274a(%rip),%rdi        # 1918b <g_4129+0xd0b>
   16a41:	b8 00 00 00 00       	mov    $0x0,%eax
   16a46:	e8 35 36 ff ff       	callq  a080 <printf@plt>
   16a4b:	83 45 f0 01          	addl   $0x1,-0x10(%rbp)
   16a4f:	83 7d f0 00          	cmpl   $0x0,-0x10(%rbp)
   16a53:	7e ac                	jle    16a01 <main+0x1d45>
   16a55:	b8 00 00 00 00       	mov    $0x0,%eax
   16a5a:	0f b6 c0             	movzbl %al,%eax
   16a5d:	8b 55 fc             	mov    -0x4(%rbp),%edx
   16a60:	48 8d 35 90 2e 00 00 	lea    0x2e90(%rip),%rsi        # 198f7 <g_4129+0x1477>
   16a67:	48 89 c7             	mov    %rax,%rdi
   16a6a:	e8 84 4c ff ff       	callq  b6f3 <transparent_crc>
   16a6f:	b8 00 00 00 00       	mov    $0x0,%eax
   16a74:	48 0f be c0          	movsbq %al,%rax
   16a78:	8b 55 fc             	mov    -0x4(%rbp),%edx
   16a7b:	48 8d 35 7f 2e 00 00 	lea    0x2e7f(%rip),%rsi        # 19901 <g_4129+0x1481>
   16a82:	48 89 c7             	mov    %rax,%rdi
   16a85:	e8 69 4c ff ff       	callq  b6f3 <transparent_crc>
   16a8a:	b8 00 00 00 00       	mov    $0x0,%eax
   16a8f:	48 0f be c0          	movsbq %al,%rax
   16a93:	8b 55 fc             	mov    -0x4(%rbp),%edx
   16a96:	48 8d 35 6e 2e 00 00 	lea    0x2e6e(%rip),%rsi        # 1990b <g_4129+0x148b>
   16a9d:	48 89 c7             	mov    %rax,%rdi
   16aa0:	e8 4e 4c ff ff       	callq  b6f3 <transparent_crc>
   16aa5:	8b 05 4d 6d 00 00    	mov    0x6d4d(%rip),%eax        # 1d7f8 <g_3601>
   16aab:	89 c1                	mov    %eax,%ecx
   16aad:	8b 45 fc             	mov    -0x4(%rbp),%eax
   16ab0:	89 c2                	mov    %eax,%edx
   16ab2:	48 8d 35 5c 2e 00 00 	lea    0x2e5c(%rip),%rsi        # 19915 <g_4129+0x1495>
   16ab9:	48 89 cf             	mov    %rcx,%rdi
   16abc:	e8 32 4c ff ff       	callq  b6f3 <transparent_crc>
   16ac1:	c7 45 f0 00 00 00 00 	movl   $0x0,-0x10(%rbp)
   16ac8:	eb 4f                	jmp    16b19 <main+0x1e5d>
   16aca:	8b 45 f0             	mov    -0x10(%rbp),%eax
   16acd:	48 98                	cltq   
   16acf:	48 8d 14 c5 00 00 00 	lea    0x0(,%rax,8),%rdx
   16ad6:	00 
   16ad7:	48 8d 05 22 6d 00 00 	lea    0x6d22(%rip),%rax        # 1d800 <g_3626>
   16ade:	48 8b 04 02          	mov    (%rdx,%rax,1),%rax
   16ae2:	48 89 c1             	mov    %rax,%rcx
   16ae5:	8b 45 fc             	mov    -0x4(%rbp),%eax
   16ae8:	89 c2                	mov    %eax,%edx
   16aea:	48 8d 35 2b 2e 00 00 	lea    0x2e2b(%rip),%rsi        # 1991c <g_4129+0x149c>
   16af1:	48 89 cf             	mov    %rcx,%rdi
   16af4:	e8 fa 4b ff ff       	callq  b6f3 <transparent_crc>
   16af9:	83 7d fc 00          	cmpl   $0x0,-0x4(%rbp)
   16afd:	74 16                	je     16b15 <main+0x1e59>
   16aff:	8b 45 f0             	mov    -0x10(%rbp),%eax
   16b02:	89 c6                	mov    %eax,%esi
   16b04:	48 8d 3d 80 26 00 00 	lea    0x2680(%rip),%rdi        # 1918b <g_4129+0xd0b>
   16b0b:	b8 00 00 00 00       	mov    $0x0,%eax
   16b10:	e8 6b 35 ff ff       	callq  a080 <printf@plt>
   16b15:	83 45 f0 01          	addl   $0x1,-0x10(%rbp)
   16b19:	83 7d f0 01          	cmpl   $0x1,-0x10(%rbp)
   16b1d:	7e ab                	jle    16aca <main+0x1e0e>
   16b1f:	8b 05 eb 6c 00 00    	mov    0x6ceb(%rip),%eax        # 1d810 <g_3659>
   16b25:	89 c1                	mov    %eax,%ecx
   16b27:	8b 45 fc             	mov    -0x4(%rbp),%eax
   16b2a:	89 c2                	mov    %eax,%edx
   16b2c:	48 8d 35 f3 2d 00 00 	lea    0x2df3(%rip),%rsi        # 19926 <g_4129+0x14a6>
   16b33:	48 89 cf             	mov    %rcx,%rdi
   16b36:	e8 b8 4b ff ff       	callq  b6f3 <transparent_crc>
   16b3b:	8b 05 d3 6c 00 00    	mov    0x6cd3(%rip),%eax        # 1d814 <g_3659+0x4>
   16b41:	48 98                	cltq   
   16b43:	8b 55 fc             	mov    -0x4(%rbp),%edx
   16b46:	48 8d 35 e3 2d 00 00 	lea    0x2de3(%rip),%rsi        # 19930 <g_4129+0x14b0>
   16b4d:	48 89 c7             	mov    %rax,%rdi
   16b50:	e8 9e 4b ff ff       	callq  b6f3 <transparent_crc>
   16b55:	8b 05 bd 6c 00 00    	mov    0x6cbd(%rip),%eax        # 1d818 <g_3659+0x8>
   16b5b:	48 98                	cltq   
   16b5d:	8b 55 fc             	mov    -0x4(%rbp),%edx
   16b60:	48 8d 35 d3 2d 00 00 	lea    0x2dd3(%rip),%rsi        # 1993a <g_4129+0x14ba>
   16b67:	48 89 c7             	mov    %rax,%rdi
   16b6a:	e8 84 4b ff ff       	callq  b6f3 <transparent_crc>
   16b6f:	c7 45 f0 00 00 00 00 	movl   $0x0,-0x10(%rbp)
   16b76:	e9 f3 00 00 00       	jmpq   16c6e <main+0x1fb2>
   16b7b:	c7 45 f4 00 00 00 00 	movl   $0x0,-0xc(%rbp)
   16b82:	e9 d9 00 00 00       	jmpq   16c60 <main+0x1fa4>
   16b87:	8b 45 f4             	mov    -0xc(%rbp),%eax
   16b8a:	48 63 d0             	movslq %eax,%rdx
   16b8d:	8b 45 f0             	mov    -0x10(%rbp),%eax
   16b90:	48 98                	cltq   
   16b92:	48 01 c2             	add    %rax,%rdx
   16b95:	48 89 d0             	mov    %rdx,%rax
   16b98:	48 01 c0             	add    %rax,%rax
   16b9b:	48 01 d0             	add    %rdx,%rax
   16b9e:	48 c1 e0 02          	shl    $0x2,%rax
   16ba2:	48 89 c2             	mov    %rax,%rdx
   16ba5:	48 8d 05 74 6c 00 00 	lea    0x6c74(%rip),%rax        # 1d820 <g_3675>
   16bac:	8b 04 02             	mov    (%rdx,%rax,1),%eax
   16baf:	89 c1                	mov    %eax,%ecx
   16bb1:	8b 45 fc             	mov    -0x4(%rbp),%eax
   16bb4:	89 c2                	mov    %eax,%edx
   16bb6:	48 8d 35 87 2d 00 00 	lea    0x2d87(%rip),%rsi        # 19944 <g_4129+0x14c4>
   16bbd:	48 89 cf             	mov    %rcx,%rdi
   16bc0:	e8 2e 4b ff ff       	callq  b6f3 <transparent_crc>
   16bc5:	8b 45 f4             	mov    -0xc(%rbp),%eax
   16bc8:	48 63 d0             	movslq %eax,%rdx
   16bcb:	8b 45 f0             	mov    -0x10(%rbp),%eax
   16bce:	48 98                	cltq   
   16bd0:	48 01 c2             	add    %rax,%rdx
   16bd3:	48 89 d0             	mov    %rdx,%rax
   16bd6:	48 01 c0             	add    %rax,%rax
   16bd9:	48 01 d0             	add    %rdx,%rax
   16bdc:	48 c1 e0 02          	shl    $0x2,%rax
   16be0:	48 89 c2             	mov    %rax,%rdx
   16be3:	48 8d 05 3a 6c 00 00 	lea    0x6c3a(%rip),%rax        # 1d824 <g_3675+0x4>
   16bea:	8b 04 02             	mov    (%rdx,%rax,1),%eax
   16bed:	48 98                	cltq   
   16bef:	8b 55 fc             	mov    -0x4(%rbp),%edx
   16bf2:	48 8d 35 5b 2d 00 00 	lea    0x2d5b(%rip),%rsi        # 19954 <g_4129+0x14d4>
   16bf9:	48 89 c7             	mov    %rax,%rdi
   16bfc:	e8 f2 4a ff ff       	callq  b6f3 <transparent_crc>
   16c01:	8b 45 f4             	mov    -0xc(%rbp),%eax
   16c04:	48 63 d0             	movslq %eax,%rdx
   16c07:	8b 45 f0             	mov    -0x10(%rbp),%eax
   16c0a:	48 98                	cltq   
   16c0c:	48 01 c2             	add    %rax,%rdx
   16c0f:	48 89 d0             	mov    %rdx,%rax
   16c12:	48 01 c0             	add    %rax,%rax
   16c15:	48 01 d0             	add    %rdx,%rax
   16c18:	48 c1 e0 02          	shl    $0x2,%rax
   16c1c:	48 89 c2             	mov    %rax,%rdx
   16c1f:	48 8d 05 02 6c 00 00 	lea    0x6c02(%rip),%rax        # 1d828 <g_3675+0x8>
   16c26:	8b 04 02             	mov    (%rdx,%rax,1),%eax
   16c29:	48 98                	cltq   
   16c2b:	8b 55 fc             	mov    -0x4(%rbp),%edx
   16c2e:	48 8d 35 2f 2d 00 00 	lea    0x2d2f(%rip),%rsi        # 19964 <g_4129+0x14e4>
   16c35:	48 89 c7             	mov    %rax,%rdi
   16c38:	e8 b6 4a ff ff       	callq  b6f3 <transparent_crc>
   16c3d:	83 7d fc 00          	cmpl   $0x0,-0x4(%rbp)
   16c41:	74 19                	je     16c5c <main+0x1fa0>
   16c43:	8b 55 f4             	mov    -0xc(%rbp),%edx
   16c46:	8b 45 f0             	mov    -0x10(%rbp),%eax
   16c49:	89 c6                	mov    %eax,%esi
   16c4b:	48 8d 3d 2b 27 00 00 	lea    0x272b(%rip),%rdi        # 1937d <g_4129+0xefd>
   16c52:	b8 00 00 00 00       	mov    $0x0,%eax
   16c57:	e8 24 34 ff ff       	callq  a080 <printf@plt>
   16c5c:	83 45 f4 01          	addl   $0x1,-0xc(%rbp)
   16c60:	83 7d f4 00          	cmpl   $0x0,-0xc(%rbp)
   16c64:	0f 8e 1d ff ff ff    	jle    16b87 <main+0x1ecb>
   16c6a:	83 45 f0 01          	addl   $0x1,-0x10(%rbp)
   16c6e:	83 7d f0 08          	cmpl   $0x8,-0x10(%rbp)
   16c72:	0f 8e 03 ff ff ff    	jle    16b7b <main+0x1ebf>
   16c78:	8b 05 12 6c 00 00    	mov    0x6c12(%rip),%eax        # 1d890 <g_3679>
   16c7e:	89 c1                	mov    %eax,%ecx
   16c80:	8b 45 fc             	mov    -0x4(%rbp),%eax
   16c83:	89 c2                	mov    %eax,%edx
   16c85:	48 8d 35 e8 2c 00 00 	lea    0x2ce8(%rip),%rsi        # 19974 <g_4129+0x14f4>
   16c8c:	48 89 cf             	mov    %rcx,%rdi
   16c8f:	e8 5f 4a ff ff       	callq  b6f3 <transparent_crc>
   16c94:	8b 05 fa 6b 00 00    	mov    0x6bfa(%rip),%eax        # 1d894 <g_3679+0x4>
   16c9a:	48 98                	cltq   
   16c9c:	8b 55 fc             	mov    -0x4(%rbp),%edx
   16c9f:	48 8d 35 d8 2c 00 00 	lea    0x2cd8(%rip),%rsi        # 1997e <g_4129+0x14fe>
   16ca6:	48 89 c7             	mov    %rax,%rdi
   16ca9:	e8 45 4a ff ff       	callq  b6f3 <transparent_crc>
   16cae:	8b 05 e4 6b 00 00    	mov    0x6be4(%rip),%eax        # 1d898 <g_3679+0x8>
   16cb4:	48 98                	cltq   
   16cb6:	8b 55 fc             	mov    -0x4(%rbp),%edx
   16cb9:	48 8d 35 c8 2c 00 00 	lea    0x2cc8(%rip),%rsi        # 19988 <g_4129+0x1508>
   16cc0:	48 89 c7             	mov    %rax,%rdi
   16cc3:	e8 2b 4a ff ff       	callq  b6f3 <transparent_crc>
   16cc8:	b8 e9 50 42 56       	mov    $0x564250e9,%eax
   16ccd:	48 98                	cltq   
   16ccf:	8b 55 fc             	mov    -0x4(%rbp),%edx
   16cd2:	48 8d 35 b9 2c 00 00 	lea    0x2cb9(%rip),%rsi        # 19992 <g_4129+0x1512>
   16cd9:	48 89 c7             	mov    %rax,%rdi
   16cdc:	e8 12 4a ff ff       	callq  b6f3 <transparent_crc>
   16ce1:	0f b7 05 b4 6b 00 00 	movzwl 0x6bb4(%rip),%eax        # 1d89c <g_3799>
   16ce8:	48 0f bf c0          	movswq %ax,%rax
   16cec:	8b 55 fc             	mov    -0x4(%rbp),%edx
   16cef:	48 8d 35 a3 2c 00 00 	lea    0x2ca3(%rip),%rsi        # 19999 <g_4129+0x1519>
   16cf6:	48 89 c7             	mov    %rax,%rdi
   16cf9:	e8 f5 49 ff ff       	callq  b6f3 <transparent_crc>
   16cfe:	8b 05 9c 6b 00 00    	mov    0x6b9c(%rip),%eax        # 1d8a0 <g_3841>
   16d04:	48 98                	cltq   
   16d06:	8b 55 fc             	mov    -0x4(%rbp),%edx
   16d09:	48 8d 35 93 2c 00 00 	lea    0x2c93(%rip),%rsi        # 199a3 <g_4129+0x1523>
   16d10:	48 89 c7             	mov    %rax,%rdi
   16d13:	e8 db 49 ff ff       	callq  b6f3 <transparent_crc>
   16d18:	c7 45 f0 00 00 00 00 	movl   $0x0,-0x10(%rbp)
   16d1f:	e9 c4 00 00 00       	jmpq   16de8 <main+0x212c>
   16d24:	8b 45 f0             	mov    -0x10(%rbp),%eax
   16d27:	48 63 d0             	movslq %eax,%rdx
   16d2a:	48 89 d0             	mov    %rdx,%rax
   16d2d:	48 01 c0             	add    %rax,%rax
   16d30:	48 01 d0             	add    %rdx,%rax
   16d33:	48 c1 e0 02          	shl    $0x2,%rax
   16d37:	48 89 c2             	mov    %rax,%rdx
   16d3a:	48 8d 05 7f 6b 00 00 	lea    0x6b7f(%rip),%rax        # 1d8c0 <g_3842>
   16d41:	0f b6 04 02          	movzbl (%rdx,%rax,1),%eax
   16d45:	0f b6 c0             	movzbl %al,%eax
   16d48:	8b 55 fc             	mov    -0x4(%rbp),%edx
   16d4b:	48 8d 35 58 2c 00 00 	lea    0x2c58(%rip),%rsi        # 199aa <g_4129+0x152a>
   16d52:	48 89 c7             	mov    %rax,%rdi
   16d55:	e8 99 49 ff ff       	callq  b6f3 <transparent_crc>
   16d5a:	8b 45 f0             	mov    -0x10(%rbp),%eax
   16d5d:	48 63 d0             	movslq %eax,%rdx
   16d60:	48 89 d0             	mov    %rdx,%rax
   16d63:	48 01 c0             	add    %rax,%rax
   16d66:	48 01 d0             	add    %rdx,%rax
   16d69:	48 c1 e0 02          	shl    $0x2,%rax
   16d6d:	48 89 c2             	mov    %rax,%rdx
   16d70:	48 8d 05 49 6b 00 00 	lea    0x6b49(%rip),%rax        # 1d8c0 <g_3842>
   16d77:	0f b6 04 02          	movzbl (%rdx,%rax,1),%eax
   16d7b:	48 0f be c0          	movsbq %al,%rax
   16d7f:	8b 55 fc             	mov    -0x4(%rbp),%edx
   16d82:	48 8d 35 2e 2c 00 00 	lea    0x2c2e(%rip),%rsi        # 199b7 <g_4129+0x1537>
   16d89:	48 89 c7             	mov    %rax,%rdi
   16d8c:	e8 62 49 ff ff       	callq  b6f3 <transparent_crc>
   16d91:	8b 45 f0             	mov    -0x10(%rbp),%eax
   16d94:	48 63 d0             	movslq %eax,%rdx
   16d97:	48 89 d0             	mov    %rdx,%rax
   16d9a:	48 01 c0             	add    %rax,%rax
   16d9d:	48 01 d0             	add    %rdx,%rax
   16da0:	48 c1 e0 02          	shl    $0x2,%rax
   16da4:	48 89 c2             	mov    %rax,%rdx
   16da7:	48 8d 05 12 6b 00 00 	lea    0x6b12(%rip),%rax        # 1d8c0 <g_3842>
   16dae:	0f b6 04 02          	movzbl (%rdx,%rax,1),%eax
   16db2:	48 0f be c0          	movsbq %al,%rax
   16db6:	8b 55 fc             	mov    -0x4(%rbp),%edx
   16db9:	48 8d 35 04 2c 00 00 	lea    0x2c04(%rip),%rsi        # 199c4 <g_4129+0x1544>
   16dc0:	48 89 c7             	mov    %rax,%rdi
   16dc3:	e8 2b 49 ff ff       	callq  b6f3 <transparent_crc>
   16dc8:	83 7d fc 00          	cmpl   $0x0,-0x4(%rbp)
   16dcc:	74 16                	je     16de4 <main+0x2128>
   16dce:	8b 45 f0             	mov    -0x10(%rbp),%eax
   16dd1:	89 c6                	mov    %eax,%esi
   16dd3:	48 8d 3d b1 23 00 00 	lea    0x23b1(%rip),%rdi        # 1918b <g_4129+0xd0b>
   16dda:	b8 00 00 00 00       	mov    $0x0,%eax
   16ddf:	e8 9c 32 ff ff       	callq  a080 <printf@plt>
   16de4:	83 45 f0 01          	addl   $0x1,-0x10(%rbp)
   16de8:	83 7d f0 02          	cmpl   $0x2,-0x10(%rbp)
   16dec:	0f 8e 32 ff ff ff    	jle    16d24 <main+0x2068>
   16df2:	0f b6 05 ef 6a 00 00 	movzbl 0x6aef(%rip),%eax        # 1d8e8 <g_3843>
   16df9:	0f b6 c0             	movzbl %al,%eax
   16dfc:	8b 55 fc             	mov    -0x4(%rbp),%edx
   16dff:	48 8d 35 cb 2b 00 00 	lea    0x2bcb(%rip),%rsi        # 199d1 <g_4129+0x1551>
   16e06:	48 89 c7             	mov    %rax,%rdi
   16e09:	e8 e5 48 ff ff       	callq  b6f3 <transparent_crc>
   16e0e:	0f b6 05 d3 6a 00 00 	movzbl 0x6ad3(%rip),%eax        # 1d8e8 <g_3843>
   16e15:	48 0f be c0          	movsbq %al,%rax
   16e19:	8b 55 fc             	mov    -0x4(%rbp),%edx
   16e1c:	48 8d 35 b8 2b 00 00 	lea    0x2bb8(%rip),%rsi        # 199db <g_4129+0x155b>
   16e23:	48 89 c7             	mov    %rax,%rdi
   16e26:	e8 c8 48 ff ff       	callq  b6f3 <transparent_crc>
   16e2b:	0f b6 05 b6 6a 00 00 	movzbl 0x6ab6(%rip),%eax        # 1d8e8 <g_3843>
   16e32:	48 0f be c0          	movsbq %al,%rax
   16e36:	8b 55 fc             	mov    -0x4(%rbp),%edx
   16e39:	48 8d 35 a5 2b 00 00 	lea    0x2ba5(%rip),%rsi        # 199e5 <g_4129+0x1565>
   16e40:	48 89 c7             	mov    %rax,%rdi
   16e43:	e8 ab 48 ff ff       	callq  b6f3 <transparent_crc>
   16e48:	0f b6 05 a9 6a 00 00 	movzbl 0x6aa9(%rip),%eax        # 1d8f8 <g_3848>
   16e4f:	0f b6 c0             	movzbl %al,%eax
   16e52:	8b 55 fc             	mov    -0x4(%rbp),%edx
   16e55:	48 8d 35 93 2b 00 00 	lea    0x2b93(%rip),%rsi        # 199ef <g_4129+0x156f>
   16e5c:	48 89 c7             	mov    %rax,%rdi
   16e5f:	e8 8f 48 ff ff       	callq  b6f3 <transparent_crc>
   16e64:	0f b6 05 8d 6a 00 00 	movzbl 0x6a8d(%rip),%eax        # 1d8f8 <g_3848>
   16e6b:	48 0f be c0          	movsbq %al,%rax
   16e6f:	8b 55 fc             	mov    -0x4(%rbp),%edx
   16e72:	48 8d 35 80 2b 00 00 	lea    0x2b80(%rip),%rsi        # 199f9 <g_4129+0x1579>
   16e79:	48 89 c7             	mov    %rax,%rdi
   16e7c:	e8 72 48 ff ff       	callq  b6f3 <transparent_crc>
   16e81:	0f b6 05 70 6a 00 00 	movzbl 0x6a70(%rip),%eax        # 1d8f8 <g_3848>
   16e88:	48 0f be c0          	movsbq %al,%rax
   16e8c:	8b 55 fc             	mov    -0x4(%rbp),%edx
   16e8f:	48 8d 35 6d 2b 00 00 	lea    0x2b6d(%rip),%rsi        # 19a03 <g_4129+0x1583>
   16e96:	48 89 c7             	mov    %rax,%rdi
   16e99:	e8 55 48 ff ff       	callq  b6f3 <transparent_crc>
   16e9e:	0f b7 05 5f 6a 00 00 	movzwl 0x6a5f(%rip),%eax        # 1d904 <g_3850>
   16ea5:	48 0f bf c0          	movswq %ax,%rax
   16ea9:	8b 55 fc             	mov    -0x4(%rbp),%edx
   16eac:	48 8d 35 5a 2b 00 00 	lea    0x2b5a(%rip),%rsi        # 19a0d <g_4129+0x158d>
   16eb3:	48 89 c7             	mov    %rax,%rdi
   16eb6:	e8 38 48 ff ff       	callq  b6f3 <transparent_crc>
   16ebb:	8b 05 47 6a 00 00    	mov    0x6a47(%rip),%eax        # 1d908 <g_3902>
   16ec1:	89 c1                	mov    %eax,%ecx
   16ec3:	8b 45 fc             	mov    -0x4(%rbp),%eax
   16ec6:	89 c2                	mov    %eax,%edx
   16ec8:	48 8d 35 48 2b 00 00 	lea    0x2b48(%rip),%rsi        # 19a17 <g_4129+0x1597>
   16ecf:	48 89 cf             	mov    %rcx,%rdi
   16ed2:	e8 1c 48 ff ff       	callq  b6f3 <transparent_crc>
   16ed7:	8b 05 2f 6a 00 00    	mov    0x6a2f(%rip),%eax        # 1d90c <g_3902+0x4>
   16edd:	48 98                	cltq   
   16edf:	8b 55 fc             	mov    -0x4(%rbp),%edx
   16ee2:	48 8d 35 38 2b 00 00 	lea    0x2b38(%rip),%rsi        # 19a21 <g_4129+0x15a1>
   16ee9:	48 89 c7             	mov    %rax,%rdi
   16eec:	e8 02 48 ff ff       	callq  b6f3 <transparent_crc>
   16ef1:	8b 05 19 6a 00 00    	mov    0x6a19(%rip),%eax        # 1d910 <g_3902+0x8>
   16ef7:	48 98                	cltq   
   16ef9:	8b 55 fc             	mov    -0x4(%rbp),%edx
   16efc:	48 8d 35 28 2b 00 00 	lea    0x2b28(%rip),%rsi        # 19a2b <g_4129+0x15ab>
   16f03:	48 89 c7             	mov    %rax,%rdi
   16f06:	e8 e8 47 ff ff       	callq  b6f3 <transparent_crc>
   16f0b:	c7 45 f0 00 00 00 00 	movl   $0x0,-0x10(%rbp)
   16f12:	eb 49                	jmp    16f5d <main+0x22a1>
   16f14:	8b 45 f0             	mov    -0x10(%rbp),%eax
   16f17:	48 98                	cltq   
   16f19:	48 8d 14 00          	lea    (%rax,%rax,1),%rdx
   16f1d:	48 8d 05 fc 69 00 00 	lea    0x69fc(%rip),%rax        # 1d920 <g_3950>
   16f24:	0f b7 04 02          	movzwl (%rdx,%rax,1),%eax
   16f28:	0f b7 c0             	movzwl %ax,%eax
   16f2b:	8b 55 fc             	mov    -0x4(%rbp),%edx
   16f2e:	48 8d 35 00 2b 00 00 	lea    0x2b00(%rip),%rsi        # 19a35 <g_4129+0x15b5>
   16f35:	48 89 c7             	mov    %rax,%rdi
   16f38:	e8 b6 47 ff ff       	callq  b6f3 <transparent_crc>
   16f3d:	83 7d fc 00          	cmpl   $0x0,-0x4(%rbp)
   16f41:	74 16                	je     16f59 <main+0x229d>
   16f43:	8b 45 f0             	mov    -0x10(%rbp),%eax
   16f46:	89 c6                	mov    %eax,%esi
   16f48:	48 8d 3d 3c 22 00 00 	lea    0x223c(%rip),%rdi        # 1918b <g_4129+0xd0b>
   16f4f:	b8 00 00 00 00       	mov    $0x0,%eax
   16f54:	e8 27 31 ff ff       	callq  a080 <printf@plt>
   16f59:	83 45 f0 01          	addl   $0x1,-0x10(%rbp)
   16f5d:	83 7d f0 07          	cmpl   $0x7,-0x10(%rbp)
   16f61:	7e b1                	jle    16f14 <main+0x2258>
   16f63:	c7 45 f0 00 00 00 00 	movl   $0x0,-0x10(%rbp)
   16f6a:	e9 91 01 00 00       	jmpq   17100 <main+0x2444>
   16f6f:	c7 45 f4 00 00 00 00 	movl   $0x0,-0xc(%rbp)
   16f76:	e9 77 01 00 00       	jmpq   170f2 <main+0x2436>
   16f7b:	c7 45 f8 00 00 00 00 	movl   $0x0,-0x8(%rbp)
   16f82:	e9 5d 01 00 00       	jmpq   170e4 <main+0x2428>
   16f87:	8b 45 f8             	mov    -0x8(%rbp),%eax
   16f8a:	48 98                	cltq   
   16f8c:	8b 55 f4             	mov    -0xc(%rbp),%edx
   16f8f:	48 63 f2             	movslq %edx,%rsi
   16f92:	8b 55 f0             	mov    -0x10(%rbp),%edx
   16f95:	48 63 ca             	movslq %edx,%rcx
   16f98:	48 89 c2             	mov    %rax,%rdx
   16f9b:	48 01 d2             	add    %rdx,%rdx
   16f9e:	48 01 c2             	add    %rax,%rdx
   16fa1:	48 8d 04 95 00 00 00 	lea    0x0(,%rdx,4),%rax
   16fa8:	00 
   16fa9:	48 89 c2             	mov    %rax,%rdx
   16fac:	48 89 f0             	mov    %rsi,%rax
   16faf:	48 01 c0             	add    %rax,%rax
   16fb2:	48 01 f0             	add    %rsi,%rax
   16fb5:	48 c1 e0 05          	shl    $0x5,%rax
   16fb9:	48 01 c2             	add    %rax,%rdx
   16fbc:	48 89 c8             	mov    %rcx,%rax
   16fbf:	48 01 c0             	add    %rax,%rax
   16fc2:	48 01 c8             	add    %rcx,%rax
   16fc5:	48 c1 e0 05          	shl    $0x5,%rax
   16fc9:	48 01 c2             	add    %rax,%rdx
   16fcc:	48 8d 05 6d 69 00 00 	lea    0x696d(%rip),%rax        # 1d940 <g_3961>
   16fd3:	48 01 d0             	add    %rdx,%rax
   16fd6:	0f b6 00             	movzbl (%rax),%eax
   16fd9:	0f b6 c0             	movzbl %al,%eax
   16fdc:	8b 55 fc             	mov    -0x4(%rbp),%edx
   16fdf:	48 8d 35 59 2a 00 00 	lea    0x2a59(%rip),%rsi        # 19a3f <g_4129+0x15bf>
   16fe6:	48 89 c7             	mov    %rax,%rdi
   16fe9:	e8 05 47 ff ff       	callq  b6f3 <transparent_crc>
   16fee:	8b 45 f8             	mov    -0x8(%rbp),%eax
   16ff1:	48 98                	cltq   
   16ff3:	8b 55 f4             	mov    -0xc(%rbp),%edx
   16ff6:	48 63 f2             	movslq %edx,%rsi
   16ff9:	8b 55 f0             	mov    -0x10(%rbp),%edx
   16ffc:	48 63 ca             	movslq %edx,%rcx
   16fff:	48 89 c2             	mov    %rax,%rdx
   17002:	48 01 d2             	add    %rdx,%rdx
   17005:	48 01 c2             	add    %rax,%rdx
   17008:	48 8d 04 95 00 00 00 	lea    0x0(,%rdx,4),%rax
   1700f:	00 
   17010:	48 89 c2             	mov    %rax,%rdx
   17013:	48 89 f0             	mov    %rsi,%rax
   17016:	48 01 c0             	add    %rax,%rax
   17019:	48 01 f0             	add    %rsi,%rax
   1701c:	48 c1 e0 05          	shl    $0x5,%rax
   17020:	48 01 c2             	add    %rax,%rdx
   17023:	48 89 c8             	mov    %rcx,%rax
   17026:	48 01 c0             	add    %rax,%rax
   17029:	48 01 c8             	add    %rcx,%rax
   1702c:	48 c1 e0 05          	shl    $0x5,%rax
   17030:	48 01 c2             	add    %rax,%rdx
   17033:	48 8d 05 06 69 00 00 	lea    0x6906(%rip),%rax        # 1d940 <g_3961>
   1703a:	48 01 d0             	add    %rdx,%rax
   1703d:	0f b6 00             	movzbl (%rax),%eax
   17040:	48 0f be c0          	movsbq %al,%rax
   17044:	8b 55 fc             	mov    -0x4(%rbp),%edx
   17047:	48 8d 35 04 2a 00 00 	lea    0x2a04(%rip),%rsi        # 19a52 <g_4129+0x15d2>
   1704e:	48 89 c7             	mov    %rax,%rdi
   17051:	e8 9d 46 ff ff       	callq  b6f3 <transparent_crc>
   17056:	8b 45 f8             	mov    -0x8(%rbp),%eax
   17059:	48 98                	cltq   
   1705b:	8b 55 f4             	mov    -0xc(%rbp),%edx
   1705e:	48 63 f2             	movslq %edx,%rsi
   17061:	8b 55 f0             	mov    -0x10(%rbp),%edx
   17064:	48 63 ca             	movslq %edx,%rcx
   17067:	48 89 c2             	mov    %rax,%rdx
   1706a:	48 01 d2             	add    %rdx,%rdx
   1706d:	48 01 c2             	add    %rax,%rdx
   17070:	48 8d 04 95 00 00 00 	lea    0x0(,%rdx,4),%rax
   17077:	00 
   17078:	48 89 c2             	mov    %rax,%rdx
   1707b:	48 89 f0             	mov    %rsi,%rax
   1707e:	48 01 c0             	add    %rax,%rax
   17081:	48 01 f0             	add    %rsi,%rax
   17084:	48 c1 e0 05          	shl    $0x5,%rax
   17088:	48 01 c2             	add    %rax,%rdx
   1708b:	48 89 c8             	mov    %rcx,%rax
   1708e:	48 01 c0             	add    %rax,%rax
   17091:	48 01 c8             	add    %rcx,%rax
   17094:	48 c1 e0 05          	shl    $0x5,%rax
   17098:	48 01 c2             	add    %rax,%rdx
   1709b:	48 8d 05 9e 68 00 00 	lea    0x689e(%rip),%rax        # 1d940 <g_3961>
   170a2:	48 01 d0             	add    %rdx,%rax
   170a5:	0f b6 00             	movzbl (%rax),%eax
   170a8:	48 0f be c0          	movsbq %al,%rax
   170ac:	8b 55 fc             	mov    -0x4(%rbp),%edx
   170af:	48 8d 35 af 29 00 00 	lea    0x29af(%rip),%rsi        # 19a65 <g_4129+0x15e5>
   170b6:	48 89 c7             	mov    %rax,%rdi
   170b9:	e8 35 46 ff ff       	callq  b6f3 <transparent_crc>
   170be:	83 7d fc 00          	cmpl   $0x0,-0x4(%rbp)
   170c2:	74 1c                	je     170e0 <main+0x2424>
   170c4:	8b 4d f8             	mov    -0x8(%rbp),%ecx
   170c7:	8b 55 f4             	mov    -0xc(%rbp),%edx
   170ca:	8b 45 f0             	mov    -0x10(%rbp),%eax
   170cd:	89 c6                	mov    %eax,%esi
   170cf:	48 8d 3d 10 22 00 00 	lea    0x2210(%rip),%rdi        # 192e6 <g_4129+0xe66>
   170d6:	b8 00 00 00 00       	mov    $0x0,%eax
   170db:	e8 a0 2f ff ff       	callq  a080 <printf@plt>
   170e0:	83 45 f8 01          	addl   $0x1,-0x8(%rbp)
   170e4:	83 7d f8 07          	cmpl   $0x7,-0x8(%rbp)
   170e8:	0f 8e 99 fe ff ff    	jle    16f87 <main+0x22cb>
   170ee:	83 45 f4 01          	addl   $0x1,-0xc(%rbp)
   170f2:	83 7d f4 00          	cmpl   $0x0,-0xc(%rbp)
   170f6:	0f 8e 7f fe ff ff    	jle    16f7b <main+0x22bf>
   170fc:	83 45 f0 01          	addl   $0x1,-0x10(%rbp)
   17100:	83 7d f0 02          	cmpl   $0x2,-0x10(%rbp)
   17104:	0f 8e 65 fe ff ff    	jle    16f6f <main+0x22b3>
   1710a:	c7 45 f0 00 00 00 00 	movl   $0x0,-0x10(%rbp)
   17111:	e9 2c 01 00 00       	jmpq   17242 <main+0x2586>
   17116:	c7 45 f4 00 00 00 00 	movl   $0x0,-0xc(%rbp)
   1711d:	e9 12 01 00 00       	jmpq   17234 <main+0x2578>
   17122:	8b 45 f4             	mov    -0xc(%rbp),%eax
   17125:	48 98                	cltq   
   17127:	8b 55 f0             	mov    -0x10(%rbp),%edx
   1712a:	48 63 ca             	movslq %edx,%rcx
   1712d:	48 89 c2             	mov    %rax,%rdx
   17130:	48 01 d2             	add    %rdx,%rdx
   17133:	48 01 c2             	add    %rax,%rdx
   17136:	48 8d 04 95 00 00 00 	lea    0x0(,%rdx,4),%rax
   1713d:	00 
   1713e:	48 89 c2             	mov    %rax,%rdx
   17141:	48 89 c8             	mov    %rcx,%rax
   17144:	48 01 c0             	add    %rax,%rax
   17147:	48 01 c8             	add    %rcx,%rax
   1714a:	48 c1 e0 05          	shl    $0x5,%rax
   1714e:	48 01 c2             	add    %rax,%rdx
   17151:	48 8d 05 08 69 00 00 	lea    0x6908(%rip),%rax        # 1da60 <g_3990>
   17158:	48 01 d0             	add    %rdx,%rax
   1715b:	8b 00                	mov    (%rax),%eax
   1715d:	89 c1                	mov    %eax,%ecx
   1715f:	8b 45 fc             	mov    -0x4(%rbp),%eax
   17162:	89 c2                	mov    %eax,%edx
   17164:	48 8d 35 0d 29 00 00 	lea    0x290d(%rip),%rsi        # 19a78 <g_4129+0x15f8>
   1716b:	48 89 cf             	mov    %rcx,%rdi
   1716e:	e8 80 45 ff ff       	callq  b6f3 <transparent_crc>
   17173:	8b 45 f4             	mov    -0xc(%rbp),%eax
   17176:	48 98                	cltq   
   17178:	8b 55 f0             	mov    -0x10(%rbp),%edx
   1717b:	48 63 ca             	movslq %edx,%rcx
   1717e:	48 89 c2             	mov    %rax,%rdx
   17181:	48 01 d2             	add    %rdx,%rdx
   17184:	48 01 c2             	add    %rax,%rdx
   17187:	48 8d 04 95 00 00 00 	lea    0x0(,%rdx,4),%rax
   1718e:	00 
   1718f:	48 89 c2             	mov    %rax,%rdx
   17192:	48 89 c8             	mov    %rcx,%rax
   17195:	48 01 c0             	add    %rax,%rax
   17198:	48 01 c8             	add    %rcx,%rax
   1719b:	48 c1 e0 05          	shl    $0x5,%rax
   1719f:	48 01 c2             	add    %rax,%rdx
   171a2:	48 8d 05 bb 68 00 00 	lea    0x68bb(%rip),%rax        # 1da64 <g_3990+0x4>
   171a9:	48 01 d0             	add    %rdx,%rax
   171ac:	8b 00                	mov    (%rax),%eax
   171ae:	48 98                	cltq   
   171b0:	8b 55 fc             	mov    -0x4(%rbp),%edx
   171b3:	48 8d 35 ce 28 00 00 	lea    0x28ce(%rip),%rsi        # 19a88 <g_4129+0x1608>
   171ba:	48 89 c7             	mov    %rax,%rdi
   171bd:	e8 31 45 ff ff       	callq  b6f3 <transparent_crc>
   171c2:	8b 45 f4             	mov    -0xc(%rbp),%eax
   171c5:	48 98                	cltq   
   171c7:	8b 55 f0             	mov    -0x10(%rbp),%edx
   171ca:	48 63 ca             	movslq %edx,%rcx
   171cd:	48 89 c2             	mov    %rax,%rdx
   171d0:	48 01 d2             	add    %rdx,%rdx
   171d3:	48 01 c2             	add    %rax,%rdx
   171d6:	48 8d 04 95 00 00 00 	lea    0x0(,%rdx,4),%rax
   171dd:	00 
   171de:	48 89 c2             	mov    %rax,%rdx
   171e1:	48 89 c8             	mov    %rcx,%rax
   171e4:	48 01 c0             	add    %rax,%rax
   171e7:	48 01 c8             	add    %rcx,%rax
   171ea:	48 c1 e0 05          	shl    $0x5,%rax
   171ee:	48 01 c2             	add    %rax,%rdx
   171f1:	48 8d 05 70 68 00 00 	lea    0x6870(%rip),%rax        # 1da68 <g_3990+0x8>
   171f8:	48 01 d0             	add    %rdx,%rax
   171fb:	8b 00                	mov    (%rax),%eax
   171fd:	48 98                	cltq   
   171ff:	8b 55 fc             	mov    -0x4(%rbp),%edx
   17202:	48 8d 35 8f 28 00 00 	lea    0x288f(%rip),%rsi        # 19a98 <g_4129+0x1618>
   17209:	48 89 c7             	mov    %rax,%rdi
   1720c:	e8 e2 44 ff ff       	callq  b6f3 <transparent_crc>
   17211:	83 7d fc 00          	cmpl   $0x0,-0x4(%rbp)
   17215:	74 19                	je     17230 <main+0x2574>
   17217:	8b 55 f4             	mov    -0xc(%rbp),%edx
   1721a:	8b 45 f0             	mov    -0x10(%rbp),%eax
   1721d:	89 c6                	mov    %eax,%esi
   1721f:	48 8d 3d 57 21 00 00 	lea    0x2157(%rip),%rdi        # 1937d <g_4129+0xefd>
   17226:	b8 00 00 00 00       	mov    $0x0,%eax
   1722b:	e8 50 2e ff ff       	callq  a080 <printf@plt>
   17230:	83 45 f4 01          	addl   $0x1,-0xc(%rbp)
   17234:	83 7d f4 07          	cmpl   $0x7,-0xc(%rbp)
   17238:	0f 8e e4 fe ff ff    	jle    17122 <main+0x2466>
   1723e:	83 45 f0 01          	addl   $0x1,-0x10(%rbp)
   17242:	83 7d f0 02          	cmpl   $0x2,-0x10(%rbp)
   17246:	0f 8e ca fe ff ff    	jle    17116 <main+0x245a>
   1724c:	0f b6 05 2d 69 00 00 	movzbl 0x692d(%rip),%eax        # 1db80 <g_4055>
   17253:	0f b6 c0             	movzbl %al,%eax
   17256:	8b 55 fc             	mov    -0x4(%rbp),%edx
   17259:	48 8d 35 48 28 00 00 	lea    0x2848(%rip),%rsi        # 19aa8 <g_4129+0x1628>
   17260:	48 89 c7             	mov    %rax,%rdi
   17263:	e8 8b 44 ff ff       	callq  b6f3 <transparent_crc>
   17268:	0f b6 05 11 69 00 00 	movzbl 0x6911(%rip),%eax        # 1db80 <g_4055>
   1726f:	48 0f be c0          	movsbq %al,%rax
   17273:	8b 55 fc             	mov    -0x4(%rbp),%edx
   17276:	48 8d 35 35 28 00 00 	lea    0x2835(%rip),%rsi        # 19ab2 <g_4129+0x1632>
   1727d:	48 89 c7             	mov    %rax,%rdi
   17280:	e8 6e 44 ff ff       	callq  b6f3 <transparent_crc>
   17285:	0f b6 05 f4 68 00 00 	movzbl 0x68f4(%rip),%eax        # 1db80 <g_4055>
   1728c:	48 0f be c0          	movsbq %al,%rax
   17290:	8b 55 fc             	mov    -0x4(%rbp),%edx
   17293:	48 8d 35 22 28 00 00 	lea    0x2822(%rip),%rsi        # 19abc <g_4129+0x163c>
   1729a:	48 89 c7             	mov    %rax,%rdi
   1729d:	e8 51 44 ff ff       	callq  b6f3 <transparent_crc>
   172a2:	8b 05 e4 68 00 00    	mov    0x68e4(%rip),%eax        # 1db8c <g_4102>
   172a8:	48 98                	cltq   
   172aa:	8b 55 fc             	mov    -0x4(%rbp),%edx
   172ad:	48 8d 35 12 28 00 00 	lea    0x2812(%rip),%rsi        # 19ac6 <g_4129+0x1646>
   172b4:	48 89 c7             	mov    %rax,%rdi
   172b7:	e8 37 44 ff ff       	callq  b6f3 <transparent_crc>
   172bc:	0f b7 05 cd 68 00 00 	movzwl 0x68cd(%rip),%eax        # 1db90 <g_4118>
   172c3:	48 0f bf c0          	movswq %ax,%rax
   172c7:	8b 55 fc             	mov    -0x4(%rbp),%edx
   172ca:	48 8d 35 fc 27 00 00 	lea    0x27fc(%rip),%rsi        # 19acd <g_4129+0x164d>
   172d1:	48 89 c7             	mov    %rax,%rdi
   172d4:	e8 1a 44 ff ff       	callq  b6f3 <transparent_crc>
   172d9:	c7 45 f0 00 00 00 00 	movl   $0x0,-0x10(%rbp)
   172e0:	e9 a4 00 00 00       	jmpq   17389 <main+0x26cd>
   172e5:	c7 45 f4 00 00 00 00 	movl   $0x0,-0xc(%rbp)
   172ec:	e9 8a 00 00 00       	jmpq   1737b <main+0x26bf>
   172f1:	c7 45 f8 00 00 00 00 	movl   $0x0,-0x8(%rbp)
   172f8:	eb 77                	jmp    17371 <main+0x26b5>
   172fa:	8b 45 f8             	mov    -0x8(%rbp),%eax
   172fd:	48 63 f0             	movslq %eax,%rsi
   17300:	8b 45 f0             	mov    -0x10(%rbp),%eax
   17303:	48 63 d0             	movslq %eax,%rdx
   17306:	8b 45 f4             	mov    -0xc(%rbp),%eax
   17309:	48 63 c8             	movslq %eax,%rcx
   1730c:	48 89 d0             	mov    %rdx,%rax
   1730f:	48 01 c0             	add    %rax,%rax
   17312:	48 01 d0             	add    %rdx,%rax
   17315:	48 c1 e0 03          	shl    $0x3,%rax
   17319:	48 89 ca             	mov    %rcx,%rdx
   1731c:	48 01 d2             	add    %rdx,%rdx
   1731f:	48 01 ca             	add    %rcx,%rdx
   17322:	48 01 d0             	add    %rdx,%rax
   17325:	48 8d 14 30          	lea    (%rax,%rsi,1),%rdx
   17329:	48 8d 05 70 68 00 00 	lea    0x6870(%rip),%rax        # 1dba0 <g_4122>
   17330:	48 01 d0             	add    %rdx,%rax
   17333:	0f b6 00             	movzbl (%rax),%eax
   17336:	0f b6 c0             	movzbl %al,%eax
   17339:	8b 55 fc             	mov    -0x4(%rbp),%edx
   1733c:	48 8d 35 91 27 00 00 	lea    0x2791(%rip),%rsi        # 19ad4 <g_4129+0x1654>
   17343:	48 89 c7             	mov    %rax,%rdi
   17346:	e8 a8 43 ff ff       	callq  b6f3 <transparent_crc>
   1734b:	83 7d fc 00          	cmpl   $0x0,-0x4(%rbp)
   1734f:	74 1c                	je     1736d <main+0x26b1>
   17351:	8b 4d f8             	mov    -0x8(%rbp),%ecx
   17354:	8b 55 f4             	mov    -0xc(%rbp),%edx
   17357:	8b 45 f0             	mov    -0x10(%rbp),%eax
   1735a:	89 c6                	mov    %eax,%esi
   1735c:	48 8d 3d 83 1f 00 00 	lea    0x1f83(%rip),%rdi        # 192e6 <g_4129+0xe66>
   17363:	b8 00 00 00 00       	mov    $0x0,%eax
   17368:	e8 13 2d ff ff       	callq  a080 <printf@plt>
   1736d:	83 45 f8 01          	addl   $0x1,-0x8(%rbp)
   17371:	83 7d f8 02          	cmpl   $0x2,-0x8(%rbp)
   17375:	7e 83                	jle    172fa <main+0x263e>
   17377:	83 45 f4 01          	addl   $0x1,-0xc(%rbp)
   1737b:	83 7d f4 07          	cmpl   $0x7,-0xc(%rbp)
   1737f:	0f 8e 6c ff ff ff    	jle    172f1 <main+0x2635>
   17385:	83 45 f0 01          	addl   $0x1,-0x10(%rbp)
   17389:	83 7d f0 09          	cmpl   $0x9,-0x10(%rbp)
   1738d:	0f 8e 52 ff ff ff    	jle    172e5 <main+0x2629>
   17393:	0f b7 05 f6 68 00 00 	movzwl 0x68f6(%rip),%eax        # 1dc90 <g_4132>
   1739a:	48 0f bf c0          	movswq %ax,%rax
   1739e:	8b 55 fc             	mov    -0x4(%rbp),%edx
   173a1:	48 8d 35 3c 27 00 00 	lea    0x273c(%rip),%rsi        # 19ae4 <g_4129+0x1664>
   173a8:	48 89 c7             	mov    %rax,%rdi
   173ab:	e8 43 43 ff ff       	callq  b6f3 <transparent_crc>
   173b0:	8b 05 6a 5c 00 00    	mov    0x5c6a(%rip),%eax        # 1d020 <crc32_context>
   173b6:	f7 d0                	not    %eax
   173b8:	89 c2                	mov    %eax,%edx
   173ba:	8b 45 fc             	mov    -0x4(%rbp),%eax
   173bd:	89 c6                	mov    %eax,%esi
   173bf:	89 d7                	mov    %edx,%edi
   173c1:	e8 ce 2d ff ff       	callq  a194 <platform_main_end>
   173c6:	b8 00 00 00 00       	mov    $0x0,%eax
   173cb:	c9                   	leaveq 
   173cc:	c3                   	retq   
   173cd:	0f 1f 00             	nopl   (%rax)

00000000000173d0 <__libc_csu_init>:
   173d0:	f3 0f 1e fa          	endbr64 
   173d4:	41 57                	push   %r15
   173d6:	4c 8d 3d c3 59 00 00 	lea    0x59c3(%rip),%r15        # 1cda0 <__frame_dummy_init_array_entry>
   173dd:	41 56                	push   %r14
   173df:	49 89 d6             	mov    %rdx,%r14
   173e2:	41 55                	push   %r13
   173e4:	49 89 f5             	mov    %rsi,%r13
   173e7:	41 54                	push   %r12
   173e9:	41 89 fc             	mov    %edi,%r12d
   173ec:	55                   	push   %rbp
   173ed:	48 8d 2d b4 59 00 00 	lea    0x59b4(%rip),%rbp        # 1cda8 <__do_global_dtors_aux_fini_array_entry>
   173f4:	53                   	push   %rbx
   173f5:	4c 29 fd             	sub    %r15,%rbp
   173f8:	48 83 ec 08          	sub    $0x8,%rsp
   173fc:	e8 ff 2b ff ff       	callq  a000 <_init>
   17401:	48 c1 fd 03          	sar    $0x3,%rbp
   17405:	74 1f                	je     17426 <__libc_csu_init+0x56>
   17407:	31 db                	xor    %ebx,%ebx
   17409:	0f 1f 80 00 00 00 00 	nopl   0x0(%rax)
   17410:	4c 89 f2             	mov    %r14,%rdx
   17413:	4c 89 ee             	mov    %r13,%rsi
   17416:	44 89 e7             	mov    %r12d,%edi
   17419:	41 ff 14 df          	callq  *(%r15,%rbx,8)
   1741d:	48 83 c3 01          	add    $0x1,%rbx
   17421:	48 39 dd             	cmp    %rbx,%rbp
   17424:	75 ea                	jne    17410 <__libc_csu_init+0x40>
   17426:	48 83 c4 08          	add    $0x8,%rsp
   1742a:	5b                   	pop    %rbx
   1742b:	5d                   	pop    %rbp
   1742c:	41 5c                	pop    %r12
   1742e:	41 5d                	pop    %r13
   17430:	41 5e                	pop    %r14
   17432:	41 5f                	pop    %r15
   17434:	c3                   	retq   
   17435:	66 66 2e 0f 1f 84 00 	data16 nopw %cs:0x0(%rax,%rax,1)
   1743c:	00 00 00 00 

0000000000017440 <__libc_csu_fini>:
   17440:	f3 0f 1e fa          	endbr64 
   17444:	c3                   	retq   
