


Disassembly of section .text:

000000000000a0a0 <_start>:
    a0a0:	f3 0f 1e fa          	endbr64 
    a0a4:	31 ed                	xor    %ebp,%ebp
    a0a6:	49 89 d1             	mov    %rdx,%r9
    a0a9:	5e                   	pop    %rsi
    a0aa:	48 89 e2             	mov    %rsp,%rdx
    a0ad:	48 83 e4 f0          	and    $0xfffffffffffffff0,%rsp
    a0b1:	50                   	push   %rax
    a0b2:	54                   	push   %rsp
    a0b3:	4c 8d 05 46 fa 00 00 	lea    0xfa46(%rip),%r8        # 19b00 <__libc_csu_fini>
    a0ba:	48 8d 0d cf f9 00 00 	lea    0xf9cf(%rip),%rcx        # 19a90 <__libc_csu_init>
    a0c1:	48 8d 3d 6c f1 00 00 	lea    0xf16c(%rip),%rdi        # 19234 <main>
    a0c8:	ff 15 0a 4f 01 00    	callq  *0x14f0a(%rip)        # 1efd8 <__libc_start_main@GLIBC_2.2.5>
    a0ce:	f4                   	hlt    
    a0cf:	90                   	nop

000000000000a0d0 <deregister_tm_clones>:
    a0d0:	48 8d 3d 99 8c 01 00 	lea    0x18c99(%rip),%rdi        # 22d70 <__TMC_END__>
    a0d7:	48 8d 05 92 8c 01 00 	lea    0x18c92(%rip),%rax        # 22d70 <__TMC_END__>
    a0de:	48 39 f8             	cmp    %rdi,%rax
    a0e1:	74 15                	je     a0f8 <deregister_tm_clones+0x28>
    a0e3:	48 8b 05 e6 4e 01 00 	mov    0x14ee6(%rip),%rax        # 1efd0 <_ITM_deregisterTMCloneTable>
    a0ea:	48 85 c0             	test   %rax,%rax
    a0ed:	74 09                	je     a0f8 <deregister_tm_clones+0x28>
    a0ef:	ff e0                	jmpq   *%rax
    a0f1:	0f 1f 80 00 00 00 00 	nopl   0x0(%rax)
    a0f8:	c3                   	retq   
    a0f9:	0f 1f 80 00 00 00 00 	nopl   0x0(%rax)

000000000000a100 <register_tm_clones>:
    a100:	48 8d 3d 69 8c 01 00 	lea    0x18c69(%rip),%rdi        # 22d70 <__TMC_END__>
    a107:	48 8d 35 62 8c 01 00 	lea    0x18c62(%rip),%rsi        # 22d70 <__TMC_END__>
    a10e:	48 29 fe             	sub    %rdi,%rsi
    a111:	48 89 f0             	mov    %rsi,%rax
    a114:	48 c1 ee 3f          	shr    $0x3f,%rsi
    a118:	48 c1 f8 03          	sar    $0x3,%rax
    a11c:	48 01 c6             	add    %rax,%rsi
    a11f:	48 d1 fe             	sar    %rsi
    a122:	74 14                	je     a138 <register_tm_clones+0x38>
    a124:	48 8b 05 bd 4e 01 00 	mov    0x14ebd(%rip),%rax        # 1efe8 <_ITM_registerTMCloneTable>
    a12b:	48 85 c0             	test   %rax,%rax
    a12e:	74 08                	je     a138 <register_tm_clones+0x38>
    a130:	ff e0                	jmpq   *%rax
    a132:	66 0f 1f 44 00 00    	nopw   0x0(%rax,%rax,1)
    a138:	c3                   	retq   
    a139:	0f 1f 80 00 00 00 00 	nopl   0x0(%rax)

000000000000a140 <__do_global_dtors_aux>:
    a140:	f3 0f 1e fa          	endbr64 
    a144:	80 3d 35 8c 01 00 00 	cmpb   $0x0,0x18c35(%rip)        # 22d80 <completed.8061>
    a14b:	75 2b                	jne    a178 <__do_global_dtors_aux+0x38>
    a14d:	55                   	push   %rbp
    a14e:	48 83 3d 9a 4e 01 00 	cmpq   $0x0,0x14e9a(%rip)        # 1eff0 <__cxa_finalize@GLIBC_2.2.5>
    a155:	00 
    a156:	48 89 e5             	mov    %rsp,%rbp
    a159:	74 0c                	je     a167 <__do_global_dtors_aux+0x27>
    a15b:	48 8b 3d a6 4e 01 00 	mov    0x14ea6(%rip),%rdi        # 1f008 <__dso_handle>
    a162:	e8 f9 fe ff ff       	callq  a060 <__cxa_finalize@plt>
    a167:	e8 64 ff ff ff       	callq  a0d0 <deregister_tm_clones>
    a16c:	c6 05 0d 8c 01 00 01 	movb   $0x1,0x18c0d(%rip)        # 22d80 <completed.8061>
    a173:	5d                   	pop    %rbp
    a174:	c3                   	retq   
    a175:	0f 1f 00             	nopl   (%rax)
    a178:	c3                   	retq   
    a179:	0f 1f 80 00 00 00 00 	nopl   0x0(%rax)

000000000000a180 <frame_dummy>:
    a180:	f3 0f 1e fa          	endbr64 
    a184:	e9 77 ff ff ff       	jmpq   a100 <register_tm_clones>

000000000000a189 <platform_main_begin>:
    a189:	f3 0f 1e fa          	endbr64 
    a18d:	55                   	push   %rbp
    a18e:	48 89 e5             	mov    %rsp,%rbp
    a191:	90                   	nop
    a192:	5d                   	pop    %rbp
    a193:	c3                   	retq   

000000000000a194 <platform_main_end>:
    a194:	f3 0f 1e fa          	endbr64 
    a198:	55                   	push   %rbp
    a199:	48 89 e5             	mov    %rsp,%rbp
    a19c:	48 83 ec 10          	sub    $0x10,%rsp
    a1a0:	89 7d fc             	mov    %edi,-0x4(%rbp)
    a1a3:	89 75 f8             	mov    %esi,-0x8(%rbp)
    a1a6:	8b 45 fc             	mov    -0x4(%rbp),%eax
    a1a9:	89 c6                	mov    %eax,%esi
    a1ab:	48 8d 3d 6e fe 00 00 	lea    0xfe6e(%rip),%rdi        # 1a020 <_IO_stdin_used+0x20>
    a1b2:	b8 00 00 00 00       	mov    $0x0,%eax
    a1b7:	e8 c4 fe ff ff       	callq  a080 <printf@plt>
    a1bc:	90                   	nop
    a1bd:	c9                   	leaveq 
    a1be:	c3                   	retq   

000000000000a1bf <safe_unary_minus_func_int8_t_s>:
    a1bf:	f3 0f 1e fa          	endbr64 
    a1c3:	55                   	push   %rbp
    a1c4:	48 89 e5             	mov    %rsp,%rbp
    a1c7:	89 f8                	mov    %edi,%eax
    a1c9:	88 45 fc             	mov    %al,-0x4(%rbp)
    a1cc:	0f b6 45 fc          	movzbl -0x4(%rbp),%eax
    a1d0:	f7 d8                	neg    %eax
    a1d2:	5d                   	pop    %rbp
    a1d3:	c3                   	retq   

000000000000a1d4 <safe_add_func_int8_t_s_s>:
    a1d4:	f3 0f 1e fa          	endbr64 
    a1d8:	55                   	push   %rbp
    a1d9:	48 89 e5             	mov    %rsp,%rbp
    a1dc:	89 fa                	mov    %edi,%edx
    a1de:	89 f0                	mov    %esi,%eax
    a1e0:	88 55 fc             	mov    %dl,-0x4(%rbp)
    a1e3:	88 45 f8             	mov    %al,-0x8(%rbp)
    a1e6:	0f b6 55 fc          	movzbl -0x4(%rbp),%edx
    a1ea:	0f b6 45 f8          	movzbl -0x8(%rbp),%eax
    a1ee:	01 d0                	add    %edx,%eax
    a1f0:	5d                   	pop    %rbp
    a1f1:	c3                   	retq   

000000000000a1f2 <safe_sub_func_int8_t_s_s>:
    a1f2:	f3 0f 1e fa          	endbr64 
    a1f6:	55                   	push   %rbp
    a1f7:	48 89 e5             	mov    %rsp,%rbp
    a1fa:	89 fa                	mov    %edi,%edx
    a1fc:	89 f0                	mov    %esi,%eax
    a1fe:	88 55 fc             	mov    %dl,-0x4(%rbp)
    a201:	88 45 f8             	mov    %al,-0x8(%rbp)
    a204:	0f b6 55 fc          	movzbl -0x4(%rbp),%edx
    a208:	0f b6 45 f8          	movzbl -0x8(%rbp),%eax
    a20c:	29 c2                	sub    %eax,%edx
    a20e:	89 d0                	mov    %edx,%eax
    a210:	5d                   	pop    %rbp
    a211:	c3                   	retq   

000000000000a212 <safe_mul_func_int8_t_s_s>:
    a212:	f3 0f 1e fa          	endbr64 
    a216:	55                   	push   %rbp
    a217:	48 89 e5             	mov    %rsp,%rbp
    a21a:	89 fa                	mov    %edi,%edx
    a21c:	89 f0                	mov    %esi,%eax
    a21e:	88 55 fc             	mov    %dl,-0x4(%rbp)
    a221:	88 45 f8             	mov    %al,-0x8(%rbp)
    a224:	0f b6 45 fc          	movzbl -0x4(%rbp),%eax
    a228:	0f b6 55 f8          	movzbl -0x8(%rbp),%edx
    a22c:	0f af c2             	imul   %edx,%eax
    a22f:	5d                   	pop    %rbp
    a230:	c3                   	retq   

000000000000a231 <safe_mod_func_int8_t_s_s>:
    a231:	f3 0f 1e fa          	endbr64 
    a235:	55                   	push   %rbp
    a236:	48 89 e5             	mov    %rsp,%rbp
    a239:	89 fa                	mov    %edi,%edx
    a23b:	89 f0                	mov    %esi,%eax
    a23d:	88 55 fc             	mov    %dl,-0x4(%rbp)
    a240:	88 45 f8             	mov    %al,-0x8(%rbp)
    a243:	80 7d f8 00          	cmpb   $0x0,-0x8(%rbp)
    a247:	74 1b                	je     a264 <safe_mod_func_int8_t_s_s+0x33>
    a249:	80 7d fc 80          	cmpb   $0x80,-0x4(%rbp)
    a24d:	75 06                	jne    a255 <safe_mod_func_int8_t_s_s+0x24>
    a24f:	80 7d f8 ff          	cmpb   $0xff,-0x8(%rbp)
    a253:	74 0f                	je     a264 <safe_mod_func_int8_t_s_s+0x33>
    a255:	0f be 45 fc          	movsbl -0x4(%rbp),%eax
    a259:	0f be 4d f8          	movsbl -0x8(%rbp),%ecx
    a25d:	99                   	cltd   
    a25e:	f7 f9                	idiv   %ecx
    a260:	89 d0                	mov    %edx,%eax
    a262:	eb 04                	jmp    a268 <safe_mod_func_int8_t_s_s+0x37>
    a264:	0f b6 45 fc          	movzbl -0x4(%rbp),%eax
    a268:	5d                   	pop    %rbp
    a269:	c3                   	retq   

000000000000a26a <safe_div_func_int8_t_s_s>:
    a26a:	f3 0f 1e fa          	endbr64 
    a26e:	55                   	push   %rbp
    a26f:	48 89 e5             	mov    %rsp,%rbp
    a272:	89 fa                	mov    %edi,%edx
    a274:	89 f0                	mov    %esi,%eax
    a276:	88 55 fc             	mov    %dl,-0x4(%rbp)
    a279:	88 45 f8             	mov    %al,-0x8(%rbp)
    a27c:	80 7d f8 00          	cmpb   $0x0,-0x8(%rbp)
    a280:	74 19                	je     a29b <safe_div_func_int8_t_s_s+0x31>
    a282:	80 7d fc 80          	cmpb   $0x80,-0x4(%rbp)
    a286:	75 06                	jne    a28e <safe_div_func_int8_t_s_s+0x24>
    a288:	80 7d f8 ff          	cmpb   $0xff,-0x8(%rbp)
    a28c:	74 0d                	je     a29b <safe_div_func_int8_t_s_s+0x31>
    a28e:	0f be 45 fc          	movsbl -0x4(%rbp),%eax
    a292:	0f be 4d f8          	movsbl -0x8(%rbp),%ecx
    a296:	99                   	cltd   
    a297:	f7 f9                	idiv   %ecx
    a299:	eb 04                	jmp    a29f <safe_div_func_int8_t_s_s+0x35>
    a29b:	0f b6 45 fc          	movzbl -0x4(%rbp),%eax
    a29f:	5d                   	pop    %rbp
    a2a0:	c3                   	retq   

000000000000a2a1 <safe_lshift_func_int8_t_s_s>:
    a2a1:	f3 0f 1e fa          	endbr64 
    a2a5:	55                   	push   %rbp
    a2a6:	48 89 e5             	mov    %rsp,%rbp
    a2a9:	89 f8                	mov    %edi,%eax
    a2ab:	89 75 f8             	mov    %esi,-0x8(%rbp)
    a2ae:	88 45 fc             	mov    %al,-0x4(%rbp)
    a2b1:	80 7d fc 00          	cmpb   $0x0,-0x4(%rbp)
    a2b5:	78 31                	js     a2e8 <safe_lshift_func_int8_t_s_s+0x47>
    a2b7:	83 7d f8 00          	cmpl   $0x0,-0x8(%rbp)
    a2bb:	78 2b                	js     a2e8 <safe_lshift_func_int8_t_s_s+0x47>
    a2bd:	83 7d f8 1f          	cmpl   $0x1f,-0x8(%rbp)
    a2c1:	7f 25                	jg     a2e8 <safe_lshift_func_int8_t_s_s+0x47>
    a2c3:	0f be 55 fc          	movsbl -0x4(%rbp),%edx
    a2c7:	8b 45 f8             	mov    -0x8(%rbp),%eax
    a2ca:	be 7f 00 00 00       	mov    $0x7f,%esi
    a2cf:	89 c1                	mov    %eax,%ecx
    a2d1:	d3 fe                	sar    %cl,%esi
    a2d3:	89 f0                	mov    %esi,%eax
    a2d5:	39 c2                	cmp    %eax,%edx
    a2d7:	7f 0f                	jg     a2e8 <safe_lshift_func_int8_t_s_s+0x47>
    a2d9:	0f be 55 fc          	movsbl -0x4(%rbp),%edx
    a2dd:	8b 45 f8             	mov    -0x8(%rbp),%eax
    a2e0:	89 c1                	mov    %eax,%ecx
    a2e2:	d3 e2                	shl    %cl,%edx
    a2e4:	89 d0                	mov    %edx,%eax
    a2e6:	eb 04                	jmp    a2ec <safe_lshift_func_int8_t_s_s+0x4b>
    a2e8:	0f b6 45 fc          	movzbl -0x4(%rbp),%eax
    a2ec:	5d                   	pop    %rbp
    a2ed:	c3                   	retq   

000000000000a2ee <safe_lshift_func_int8_t_s_u>:
    a2ee:	f3 0f 1e fa          	endbr64 
    a2f2:	55                   	push   %rbp
    a2f3:	48 89 e5             	mov    %rsp,%rbp
    a2f6:	89 f8                	mov    %edi,%eax
    a2f8:	89 75 f8             	mov    %esi,-0x8(%rbp)
    a2fb:	88 45 fc             	mov    %al,-0x4(%rbp)
    a2fe:	80 7d fc 00          	cmpb   $0x0,-0x4(%rbp)
    a302:	78 2b                	js     a32f <safe_lshift_func_int8_t_s_u+0x41>
    a304:	83 7d f8 1f          	cmpl   $0x1f,-0x8(%rbp)
    a308:	77 25                	ja     a32f <safe_lshift_func_int8_t_s_u+0x41>
    a30a:	0f be 55 fc          	movsbl -0x4(%rbp),%edx
    a30e:	8b 45 f8             	mov    -0x8(%rbp),%eax
    a311:	be 7f 00 00 00       	mov    $0x7f,%esi
    a316:	89 c1                	mov    %eax,%ecx
    a318:	d3 fe                	sar    %cl,%esi
    a31a:	89 f0                	mov    %esi,%eax
    a31c:	39 c2                	cmp    %eax,%edx
    a31e:	7f 0f                	jg     a32f <safe_lshift_func_int8_t_s_u+0x41>
    a320:	0f be 55 fc          	movsbl -0x4(%rbp),%edx
    a324:	8b 45 f8             	mov    -0x8(%rbp),%eax
    a327:	89 c1                	mov    %eax,%ecx
    a329:	d3 e2                	shl    %cl,%edx
    a32b:	89 d0                	mov    %edx,%eax
    a32d:	eb 04                	jmp    a333 <safe_lshift_func_int8_t_s_u+0x45>
    a32f:	0f b6 45 fc          	movzbl -0x4(%rbp),%eax
    a333:	5d                   	pop    %rbp
    a334:	c3                   	retq   

000000000000a335 <safe_rshift_func_int8_t_s_s>:
    a335:	f3 0f 1e fa          	endbr64 
    a339:	55                   	push   %rbp
    a33a:	48 89 e5             	mov    %rsp,%rbp
    a33d:	89 f8                	mov    %edi,%eax
    a33f:	89 75 f8             	mov    %esi,-0x8(%rbp)
    a342:	88 45 fc             	mov    %al,-0x4(%rbp)
    a345:	80 7d fc 00          	cmpb   $0x0,-0x4(%rbp)
    a349:	78 1b                	js     a366 <safe_rshift_func_int8_t_s_s+0x31>
    a34b:	83 7d f8 00          	cmpl   $0x0,-0x8(%rbp)
    a34f:	78 15                	js     a366 <safe_rshift_func_int8_t_s_s+0x31>
    a351:	83 7d f8 1f          	cmpl   $0x1f,-0x8(%rbp)
    a355:	7f 0f                	jg     a366 <safe_rshift_func_int8_t_s_s+0x31>
    a357:	0f be 55 fc          	movsbl -0x4(%rbp),%edx
    a35b:	8b 45 f8             	mov    -0x8(%rbp),%eax
    a35e:	89 c1                	mov    %eax,%ecx
    a360:	d3 fa                	sar    %cl,%edx
    a362:	89 d0                	mov    %edx,%eax
    a364:	eb 04                	jmp    a36a <safe_rshift_func_int8_t_s_s+0x35>
    a366:	0f b6 45 fc          	movzbl -0x4(%rbp),%eax
    a36a:	5d                   	pop    %rbp
    a36b:	c3                   	retq   

000000000000a36c <safe_rshift_func_int8_t_s_u>:
    a36c:	f3 0f 1e fa          	endbr64 
    a370:	55                   	push   %rbp
    a371:	48 89 e5             	mov    %rsp,%rbp
    a374:	89 f8                	mov    %edi,%eax
    a376:	89 75 f8             	mov    %esi,-0x8(%rbp)
    a379:	88 45 fc             	mov    %al,-0x4(%rbp)
    a37c:	80 7d fc 00          	cmpb   $0x0,-0x4(%rbp)
    a380:	78 15                	js     a397 <safe_rshift_func_int8_t_s_u+0x2b>
    a382:	83 7d f8 1f          	cmpl   $0x1f,-0x8(%rbp)
    a386:	77 0f                	ja     a397 <safe_rshift_func_int8_t_s_u+0x2b>
    a388:	0f be 55 fc          	movsbl -0x4(%rbp),%edx
    a38c:	8b 45 f8             	mov    -0x8(%rbp),%eax
    a38f:	89 c1                	mov    %eax,%ecx
    a391:	d3 fa                	sar    %cl,%edx
    a393:	89 d0                	mov    %edx,%eax
    a395:	eb 04                	jmp    a39b <safe_rshift_func_int8_t_s_u+0x2f>
    a397:	0f b6 45 fc          	movzbl -0x4(%rbp),%eax
    a39b:	5d                   	pop    %rbp
    a39c:	c3                   	retq   

000000000000a39d <safe_unary_minus_func_int16_t_s>:
    a39d:	f3 0f 1e fa          	endbr64 
    a3a1:	55                   	push   %rbp
    a3a2:	48 89 e5             	mov    %rsp,%rbp
    a3a5:	89 f8                	mov    %edi,%eax
    a3a7:	66 89 45 fc          	mov    %ax,-0x4(%rbp)
    a3ab:	0f b7 45 fc          	movzwl -0x4(%rbp),%eax
    a3af:	f7 d8                	neg    %eax
    a3b1:	5d                   	pop    %rbp
    a3b2:	c3                   	retq   

000000000000a3b3 <safe_add_func_int16_t_s_s>:
    a3b3:	f3 0f 1e fa          	endbr64 
    a3b7:	55                   	push   %rbp
    a3b8:	48 89 e5             	mov    %rsp,%rbp
    a3bb:	89 fa                	mov    %edi,%edx
    a3bd:	89 f0                	mov    %esi,%eax
    a3bf:	66 89 55 fc          	mov    %dx,-0x4(%rbp)
    a3c3:	66 89 45 f8          	mov    %ax,-0x8(%rbp)
    a3c7:	0f b7 55 fc          	movzwl -0x4(%rbp),%edx
    a3cb:	0f b7 45 f8          	movzwl -0x8(%rbp),%eax
    a3cf:	01 d0                	add    %edx,%eax
    a3d1:	5d                   	pop    %rbp
    a3d2:	c3                   	retq   

000000000000a3d3 <safe_sub_func_int16_t_s_s>:
    a3d3:	f3 0f 1e fa          	endbr64 
    a3d7:	55                   	push   %rbp
    a3d8:	48 89 e5             	mov    %rsp,%rbp
    a3db:	89 fa                	mov    %edi,%edx
    a3dd:	89 f0                	mov    %esi,%eax
    a3df:	66 89 55 fc          	mov    %dx,-0x4(%rbp)
    a3e3:	66 89 45 f8          	mov    %ax,-0x8(%rbp)
    a3e7:	0f b7 55 fc          	movzwl -0x4(%rbp),%edx
    a3eb:	0f b7 45 f8          	movzwl -0x8(%rbp),%eax
    a3ef:	29 c2                	sub    %eax,%edx
    a3f1:	89 d0                	mov    %edx,%eax
    a3f3:	5d                   	pop    %rbp
    a3f4:	c3                   	retq   

000000000000a3f5 <safe_mul_func_int16_t_s_s>:
    a3f5:	f3 0f 1e fa          	endbr64 
    a3f9:	55                   	push   %rbp
    a3fa:	48 89 e5             	mov    %rsp,%rbp
    a3fd:	89 fa                	mov    %edi,%edx
    a3ff:	89 f0                	mov    %esi,%eax
    a401:	66 89 55 fc          	mov    %dx,-0x4(%rbp)
    a405:	66 89 45 f8          	mov    %ax,-0x8(%rbp)
    a409:	0f b7 55 fc          	movzwl -0x4(%rbp),%edx
    a40d:	0f b7 45 f8          	movzwl -0x8(%rbp),%eax
    a411:	0f af c2             	imul   %edx,%eax
    a414:	5d                   	pop    %rbp
    a415:	c3                   	retq   

000000000000a416 <safe_mod_func_int16_t_s_s>:
    a416:	f3 0f 1e fa          	endbr64 
    a41a:	55                   	push   %rbp
    a41b:	48 89 e5             	mov    %rsp,%rbp
    a41e:	89 fa                	mov    %edi,%edx
    a420:	89 f0                	mov    %esi,%eax
    a422:	66 89 55 fc          	mov    %dx,-0x4(%rbp)
    a426:	66 89 45 f8          	mov    %ax,-0x8(%rbp)
    a42a:	66 83 7d f8 00       	cmpw   $0x0,-0x8(%rbp)
    a42f:	74 1e                	je     a44f <safe_mod_func_int16_t_s_s+0x39>
    a431:	66 81 7d fc 00 80    	cmpw   $0x8000,-0x4(%rbp)
    a437:	75 07                	jne    a440 <safe_mod_func_int16_t_s_s+0x2a>
    a439:	66 83 7d f8 ff       	cmpw   $0xffff,-0x8(%rbp)
    a43e:	74 0f                	je     a44f <safe_mod_func_int16_t_s_s+0x39>
    a440:	0f bf 45 fc          	movswl -0x4(%rbp),%eax
    a444:	0f bf 4d f8          	movswl -0x8(%rbp),%ecx
    a448:	99                   	cltd   
    a449:	f7 f9                	idiv   %ecx
    a44b:	89 d0                	mov    %edx,%eax
    a44d:	eb 04                	jmp    a453 <safe_mod_func_int16_t_s_s+0x3d>
    a44f:	0f b7 45 fc          	movzwl -0x4(%rbp),%eax
    a453:	5d                   	pop    %rbp
    a454:	c3                   	retq   

000000000000a455 <safe_div_func_int16_t_s_s>:
    a455:	f3 0f 1e fa          	endbr64 
    a459:	55                   	push   %rbp
    a45a:	48 89 e5             	mov    %rsp,%rbp
    a45d:	89 fa                	mov    %edi,%edx
    a45f:	89 f0                	mov    %esi,%eax
    a461:	66 89 55 fc          	mov    %dx,-0x4(%rbp)
    a465:	66 89 45 f8          	mov    %ax,-0x8(%rbp)
    a469:	66 83 7d f8 00       	cmpw   $0x0,-0x8(%rbp)
    a46e:	74 1c                	je     a48c <safe_div_func_int16_t_s_s+0x37>
    a470:	66 81 7d fc 00 80    	cmpw   $0x8000,-0x4(%rbp)
    a476:	75 07                	jne    a47f <safe_div_func_int16_t_s_s+0x2a>
    a478:	66 83 7d f8 ff       	cmpw   $0xffff,-0x8(%rbp)
    a47d:	74 0d                	je     a48c <safe_div_func_int16_t_s_s+0x37>
    a47f:	0f bf 45 fc          	movswl -0x4(%rbp),%eax
    a483:	0f bf 4d f8          	movswl -0x8(%rbp),%ecx
    a487:	99                   	cltd   
    a488:	f7 f9                	idiv   %ecx
    a48a:	eb 04                	jmp    a490 <safe_div_func_int16_t_s_s+0x3b>
    a48c:	0f b7 45 fc          	movzwl -0x4(%rbp),%eax
    a490:	5d                   	pop    %rbp
    a491:	c3                   	retq   

000000000000a492 <safe_lshift_func_int16_t_s_s>:
    a492:	f3 0f 1e fa          	endbr64 
    a496:	55                   	push   %rbp
    a497:	48 89 e5             	mov    %rsp,%rbp
    a49a:	89 f8                	mov    %edi,%eax
    a49c:	89 75 f8             	mov    %esi,-0x8(%rbp)
    a49f:	66 89 45 fc          	mov    %ax,-0x4(%rbp)
    a4a3:	66 83 7d fc 00       	cmpw   $0x0,-0x4(%rbp)
    a4a8:	78 31                	js     a4db <safe_lshift_func_int16_t_s_s+0x49>
    a4aa:	83 7d f8 00          	cmpl   $0x0,-0x8(%rbp)
    a4ae:	78 2b                	js     a4db <safe_lshift_func_int16_t_s_s+0x49>
    a4b0:	83 7d f8 1f          	cmpl   $0x1f,-0x8(%rbp)
    a4b4:	7f 25                	jg     a4db <safe_lshift_func_int16_t_s_s+0x49>
    a4b6:	0f bf 55 fc          	movswl -0x4(%rbp),%edx
    a4ba:	8b 45 f8             	mov    -0x8(%rbp),%eax
    a4bd:	be ff 7f 00 00       	mov    $0x7fff,%esi
    a4c2:	89 c1                	mov    %eax,%ecx
    a4c4:	d3 fe                	sar    %cl,%esi
    a4c6:	89 f0                	mov    %esi,%eax
    a4c8:	39 c2                	cmp    %eax,%edx
    a4ca:	7f 0f                	jg     a4db <safe_lshift_func_int16_t_s_s+0x49>
    a4cc:	0f bf 55 fc          	movswl -0x4(%rbp),%edx
    a4d0:	8b 45 f8             	mov    -0x8(%rbp),%eax
    a4d3:	89 c1                	mov    %eax,%ecx
    a4d5:	d3 e2                	shl    %cl,%edx
    a4d7:	89 d0                	mov    %edx,%eax
    a4d9:	eb 04                	jmp    a4df <safe_lshift_func_int16_t_s_s+0x4d>
    a4db:	0f b7 45 fc          	movzwl -0x4(%rbp),%eax
    a4df:	5d                   	pop    %rbp
    a4e0:	c3                   	retq   

000000000000a4e1 <safe_lshift_func_int16_t_s_u>:
    a4e1:	f3 0f 1e fa          	endbr64 
    a4e5:	55                   	push   %rbp
    a4e6:	48 89 e5             	mov    %rsp,%rbp
    a4e9:	89 f8                	mov    %edi,%eax
    a4eb:	89 75 f8             	mov    %esi,-0x8(%rbp)
    a4ee:	66 89 45 fc          	mov    %ax,-0x4(%rbp)
    a4f2:	66 83 7d fc 00       	cmpw   $0x0,-0x4(%rbp)
    a4f7:	78 2b                	js     a524 <safe_lshift_func_int16_t_s_u+0x43>
    a4f9:	83 7d f8 1f          	cmpl   $0x1f,-0x8(%rbp)
    a4fd:	77 25                	ja     a524 <safe_lshift_func_int16_t_s_u+0x43>
    a4ff:	0f bf 55 fc          	movswl -0x4(%rbp),%edx
    a503:	8b 45 f8             	mov    -0x8(%rbp),%eax
    a506:	be ff 7f 00 00       	mov    $0x7fff,%esi
    a50b:	89 c1                	mov    %eax,%ecx
    a50d:	d3 fe                	sar    %cl,%esi
    a50f:	89 f0                	mov    %esi,%eax
    a511:	39 c2                	cmp    %eax,%edx
    a513:	7f 0f                	jg     a524 <safe_lshift_func_int16_t_s_u+0x43>
    a515:	0f bf 55 fc          	movswl -0x4(%rbp),%edx
    a519:	8b 45 f8             	mov    -0x8(%rbp),%eax
    a51c:	89 c1                	mov    %eax,%ecx
    a51e:	d3 e2                	shl    %cl,%edx
    a520:	89 d0                	mov    %edx,%eax
    a522:	eb 04                	jmp    a528 <safe_lshift_func_int16_t_s_u+0x47>
    a524:	0f b7 45 fc          	movzwl -0x4(%rbp),%eax
    a528:	5d                   	pop    %rbp
    a529:	c3                   	retq   

000000000000a52a <safe_rshift_func_int16_t_s_s>:
    a52a:	f3 0f 1e fa          	endbr64 
    a52e:	55                   	push   %rbp
    a52f:	48 89 e5             	mov    %rsp,%rbp
    a532:	89 f8                	mov    %edi,%eax
    a534:	89 75 f8             	mov    %esi,-0x8(%rbp)
    a537:	66 89 45 fc          	mov    %ax,-0x4(%rbp)
    a53b:	66 83 7d fc 00       	cmpw   $0x0,-0x4(%rbp)
    a540:	78 1b                	js     a55d <safe_rshift_func_int16_t_s_s+0x33>
    a542:	83 7d f8 00          	cmpl   $0x0,-0x8(%rbp)
    a546:	78 15                	js     a55d <safe_rshift_func_int16_t_s_s+0x33>
    a548:	83 7d f8 1f          	cmpl   $0x1f,-0x8(%rbp)
    a54c:	7f 0f                	jg     a55d <safe_rshift_func_int16_t_s_s+0x33>
    a54e:	0f bf 55 fc          	movswl -0x4(%rbp),%edx
    a552:	8b 45 f8             	mov    -0x8(%rbp),%eax
    a555:	89 c1                	mov    %eax,%ecx
    a557:	d3 fa                	sar    %cl,%edx
    a559:	89 d0                	mov    %edx,%eax
    a55b:	eb 04                	jmp    a561 <safe_rshift_func_int16_t_s_s+0x37>
    a55d:	0f b7 45 fc          	movzwl -0x4(%rbp),%eax
    a561:	5d                   	pop    %rbp
    a562:	c3                   	retq   

000000000000a563 <safe_rshift_func_int16_t_s_u>:
    a563:	f3 0f 1e fa          	endbr64 
    a567:	55                   	push   %rbp
    a568:	48 89 e5             	mov    %rsp,%rbp
    a56b:	89 f8                	mov    %edi,%eax
    a56d:	89 75 f8             	mov    %esi,-0x8(%rbp)
    a570:	66 89 45 fc          	mov    %ax,-0x4(%rbp)
    a574:	66 83 7d fc 00       	cmpw   $0x0,-0x4(%rbp)
    a579:	78 15                	js     a590 <safe_rshift_func_int16_t_s_u+0x2d>
    a57b:	83 7d f8 1f          	cmpl   $0x1f,-0x8(%rbp)
    a57f:	77 0f                	ja     a590 <safe_rshift_func_int16_t_s_u+0x2d>
    a581:	0f bf 55 fc          	movswl -0x4(%rbp),%edx
    a585:	8b 45 f8             	mov    -0x8(%rbp),%eax
    a588:	89 c1                	mov    %eax,%ecx
    a58a:	d3 fa                	sar    %cl,%edx
    a58c:	89 d0                	mov    %edx,%eax
    a58e:	eb 04                	jmp    a594 <safe_rshift_func_int16_t_s_u+0x31>
    a590:	0f b7 45 fc          	movzwl -0x4(%rbp),%eax
    a594:	5d                   	pop    %rbp
    a595:	c3                   	retq   

000000000000a596 <safe_unary_minus_func_int32_t_s>:
    a596:	f3 0f 1e fa          	endbr64 
    a59a:	55                   	push   %rbp
    a59b:	48 89 e5             	mov    %rsp,%rbp
    a59e:	89 7d fc             	mov    %edi,-0x4(%rbp)
    a5a1:	81 7d fc 00 00 00 80 	cmpl   $0x80000000,-0x4(%rbp)
    a5a8:	74 07                	je     a5b1 <safe_unary_minus_func_int32_t_s+0x1b>
    a5aa:	8b 45 fc             	mov    -0x4(%rbp),%eax
    a5ad:	f7 d8                	neg    %eax
    a5af:	eb 03                	jmp    a5b4 <safe_unary_minus_func_int32_t_s+0x1e>
    a5b1:	8b 45 fc             	mov    -0x4(%rbp),%eax
    a5b4:	5d                   	pop    %rbp
    a5b5:	c3                   	retq   

000000000000a5b6 <safe_add_func_int32_t_s_s>:
    a5b6:	f3 0f 1e fa          	endbr64 
    a5ba:	55                   	push   %rbp
    a5bb:	48 89 e5             	mov    %rsp,%rbp
    a5be:	89 7d fc             	mov    %edi,-0x4(%rbp)
    a5c1:	89 75 f8             	mov    %esi,-0x8(%rbp)
    a5c4:	83 7d fc 00          	cmpl   $0x0,-0x4(%rbp)
    a5c8:	7e 13                	jle    a5dd <safe_add_func_int32_t_s_s+0x27>
    a5ca:	83 7d f8 00          	cmpl   $0x0,-0x8(%rbp)
    a5ce:	7e 0d                	jle    a5dd <safe_add_func_int32_t_s_s+0x27>
    a5d0:	b8 ff ff ff 7f       	mov    $0x7fffffff,%eax
    a5d5:	2b 45 f8             	sub    -0x8(%rbp),%eax
    a5d8:	39 45 fc             	cmp    %eax,-0x4(%rbp)
    a5db:	7f 23                	jg     a600 <safe_add_func_int32_t_s_s+0x4a>
    a5dd:	83 7d fc 00          	cmpl   $0x0,-0x4(%rbp)
    a5e1:	79 13                	jns    a5f6 <safe_add_func_int32_t_s_s+0x40>
    a5e3:	83 7d f8 00          	cmpl   $0x0,-0x8(%rbp)
    a5e7:	79 0d                	jns    a5f6 <safe_add_func_int32_t_s_s+0x40>
    a5e9:	b8 00 00 00 80       	mov    $0x80000000,%eax
    a5ee:	2b 45 f8             	sub    -0x8(%rbp),%eax
    a5f1:	39 45 fc             	cmp    %eax,-0x4(%rbp)
    a5f4:	7c 0a                	jl     a600 <safe_add_func_int32_t_s_s+0x4a>
    a5f6:	8b 55 fc             	mov    -0x4(%rbp),%edx
    a5f9:	8b 45 f8             	mov    -0x8(%rbp),%eax
    a5fc:	01 d0                	add    %edx,%eax
    a5fe:	eb 03                	jmp    a603 <safe_add_func_int32_t_s_s+0x4d>
    a600:	8b 45 fc             	mov    -0x4(%rbp),%eax
    a603:	5d                   	pop    %rbp
    a604:	c3                   	retq   

000000000000a605 <safe_sub_func_int32_t_s_s>:
    a605:	f3 0f 1e fa          	endbr64 
    a609:	55                   	push   %rbp
    a60a:	48 89 e5             	mov    %rsp,%rbp
    a60d:	89 7d fc             	mov    %edi,-0x4(%rbp)
    a610:	89 75 f8             	mov    %esi,-0x8(%rbp)
    a613:	8b 45 fc             	mov    -0x4(%rbp),%eax
    a616:	33 45 f8             	xor    -0x8(%rbp),%eax
    a619:	89 c2                	mov    %eax,%edx
    a61b:	8b 45 fc             	mov    -0x4(%rbp),%eax
    a61e:	33 45 f8             	xor    -0x8(%rbp),%eax
    a621:	25 00 00 00 80       	and    $0x80000000,%eax
    a626:	33 45 fc             	xor    -0x4(%rbp),%eax
    a629:	2b 45 f8             	sub    -0x8(%rbp),%eax
    a62c:	33 45 f8             	xor    -0x8(%rbp),%eax
    a62f:	21 d0                	and    %edx,%eax
    a631:	85 c0                	test   %eax,%eax
    a633:	78 08                	js     a63d <safe_sub_func_int32_t_s_s+0x38>
    a635:	8b 45 fc             	mov    -0x4(%rbp),%eax
    a638:	2b 45 f8             	sub    -0x8(%rbp),%eax
    a63b:	eb 03                	jmp    a640 <safe_sub_func_int32_t_s_s+0x3b>
    a63d:	8b 45 fc             	mov    -0x4(%rbp),%eax
    a640:	5d                   	pop    %rbp
    a641:	c3                   	retq   

000000000000a642 <safe_mul_func_int32_t_s_s>:
    a642:	f3 0f 1e fa          	endbr64 
    a646:	55                   	push   %rbp
    a647:	48 89 e5             	mov    %rsp,%rbp
    a64a:	89 7d fc             	mov    %edi,-0x4(%rbp)
    a64d:	89 75 f8             	mov    %esi,-0x8(%rbp)
    a650:	83 7d fc 00          	cmpl   $0x0,-0x4(%rbp)
    a654:	7e 14                	jle    a66a <safe_mul_func_int32_t_s_s+0x28>
    a656:	83 7d f8 00          	cmpl   $0x0,-0x8(%rbp)
    a65a:	7e 0e                	jle    a66a <safe_mul_func_int32_t_s_s+0x28>
    a65c:	b8 ff ff ff 7f       	mov    $0x7fffffff,%eax
    a661:	99                   	cltd   
    a662:	f7 7d f8             	idivl  -0x8(%rbp)
    a665:	39 45 fc             	cmp    %eax,-0x4(%rbp)
    a668:	7f 5d                	jg     a6c7 <safe_mul_func_int32_t_s_s+0x85>
    a66a:	83 7d fc 00          	cmpl   $0x0,-0x4(%rbp)
    a66e:	7e 14                	jle    a684 <safe_mul_func_int32_t_s_s+0x42>
    a670:	83 7d f8 00          	cmpl   $0x0,-0x8(%rbp)
    a674:	7f 0e                	jg     a684 <safe_mul_func_int32_t_s_s+0x42>
    a676:	b8 00 00 00 80       	mov    $0x80000000,%eax
    a67b:	99                   	cltd   
    a67c:	f7 7d fc             	idivl  -0x4(%rbp)
    a67f:	39 45 f8             	cmp    %eax,-0x8(%rbp)
    a682:	7c 43                	jl     a6c7 <safe_mul_func_int32_t_s_s+0x85>
    a684:	83 7d fc 00          	cmpl   $0x0,-0x4(%rbp)
    a688:	7f 14                	jg     a69e <safe_mul_func_int32_t_s_s+0x5c>
    a68a:	83 7d f8 00          	cmpl   $0x0,-0x8(%rbp)
    a68e:	7e 0e                	jle    a69e <safe_mul_func_int32_t_s_s+0x5c>
    a690:	b8 00 00 00 80       	mov    $0x80000000,%eax
    a695:	99                   	cltd   
    a696:	f7 7d f8             	idivl  -0x8(%rbp)
    a699:	39 45 fc             	cmp    %eax,-0x4(%rbp)
    a69c:	7c 29                	jl     a6c7 <safe_mul_func_int32_t_s_s+0x85>
    a69e:	83 7d fc 00          	cmpl   $0x0,-0x4(%rbp)
    a6a2:	7f 1a                	jg     a6be <safe_mul_func_int32_t_s_s+0x7c>
    a6a4:	83 7d f8 00          	cmpl   $0x0,-0x8(%rbp)
    a6a8:	7f 14                	jg     a6be <safe_mul_func_int32_t_s_s+0x7c>
    a6aa:	83 7d fc 00          	cmpl   $0x0,-0x4(%rbp)
    a6ae:	74 0e                	je     a6be <safe_mul_func_int32_t_s_s+0x7c>
    a6b0:	b8 ff ff ff 7f       	mov    $0x7fffffff,%eax
    a6b5:	99                   	cltd   
    a6b6:	f7 7d fc             	idivl  -0x4(%rbp)
    a6b9:	39 45 f8             	cmp    %eax,-0x8(%rbp)
    a6bc:	7c 09                	jl     a6c7 <safe_mul_func_int32_t_s_s+0x85>
    a6be:	8b 45 fc             	mov    -0x4(%rbp),%eax
    a6c1:	0f af 45 f8          	imul   -0x8(%rbp),%eax
    a6c5:	eb 03                	jmp    a6ca <safe_mul_func_int32_t_s_s+0x88>
    a6c7:	8b 45 fc             	mov    -0x4(%rbp),%eax
    a6ca:	5d                   	pop    %rbp
    a6cb:	c3                   	retq   

000000000000a6cc <safe_mod_func_int32_t_s_s>:
    a6cc:	f3 0f 1e fa          	endbr64 
    a6d0:	55                   	push   %rbp
    a6d1:	48 89 e5             	mov    %rsp,%rbp
    a6d4:	89 7d fc             	mov    %edi,-0x4(%rbp)
    a6d7:	89 75 f8             	mov    %esi,-0x8(%rbp)
    a6da:	83 7d f8 00          	cmpl   $0x0,-0x8(%rbp)
    a6de:	74 1a                	je     a6fa <safe_mod_func_int32_t_s_s+0x2e>
    a6e0:	81 7d fc 00 00 00 80 	cmpl   $0x80000000,-0x4(%rbp)
    a6e7:	75 06                	jne    a6ef <safe_mod_func_int32_t_s_s+0x23>
    a6e9:	83 7d f8 ff          	cmpl   $0xffffffff,-0x8(%rbp)
    a6ed:	74 0b                	je     a6fa <safe_mod_func_int32_t_s_s+0x2e>
    a6ef:	8b 45 fc             	mov    -0x4(%rbp),%eax
    a6f2:	99                   	cltd   
    a6f3:	f7 7d f8             	idivl  -0x8(%rbp)
    a6f6:	89 d0                	mov    %edx,%eax
    a6f8:	eb 03                	jmp    a6fd <safe_mod_func_int32_t_s_s+0x31>
    a6fa:	8b 45 fc             	mov    -0x4(%rbp),%eax
    a6fd:	5d                   	pop    %rbp
    a6fe:	c3                   	retq   

000000000000a6ff <safe_div_func_int32_t_s_s>:
    a6ff:	f3 0f 1e fa          	endbr64 
    a703:	55                   	push   %rbp
    a704:	48 89 e5             	mov    %rsp,%rbp
    a707:	89 7d fc             	mov    %edi,-0x4(%rbp)
    a70a:	89 75 f8             	mov    %esi,-0x8(%rbp)
    a70d:	83 7d f8 00          	cmpl   $0x0,-0x8(%rbp)
    a711:	74 18                	je     a72b <safe_div_func_int32_t_s_s+0x2c>
    a713:	81 7d fc 00 00 00 80 	cmpl   $0x80000000,-0x4(%rbp)
    a71a:	75 06                	jne    a722 <safe_div_func_int32_t_s_s+0x23>
    a71c:	83 7d f8 ff          	cmpl   $0xffffffff,-0x8(%rbp)
    a720:	74 09                	je     a72b <safe_div_func_int32_t_s_s+0x2c>
    a722:	8b 45 fc             	mov    -0x4(%rbp),%eax
    a725:	99                   	cltd   
    a726:	f7 7d f8             	idivl  -0x8(%rbp)
    a729:	eb 03                	jmp    a72e <safe_div_func_int32_t_s_s+0x2f>
    a72b:	8b 45 fc             	mov    -0x4(%rbp),%eax
    a72e:	5d                   	pop    %rbp
    a72f:	c3                   	retq   

000000000000a730 <safe_lshift_func_int32_t_s_s>:
    a730:	f3 0f 1e fa          	endbr64 
    a734:	55                   	push   %rbp
    a735:	48 89 e5             	mov    %rsp,%rbp
    a738:	89 7d fc             	mov    %edi,-0x4(%rbp)
    a73b:	89 75 f8             	mov    %esi,-0x8(%rbp)
    a73e:	83 7d fc 00          	cmpl   $0x0,-0x4(%rbp)
    a742:	78 2d                	js     a771 <safe_lshift_func_int32_t_s_s+0x41>
    a744:	83 7d f8 00          	cmpl   $0x0,-0x8(%rbp)
    a748:	78 27                	js     a771 <safe_lshift_func_int32_t_s_s+0x41>
    a74a:	83 7d f8 1f          	cmpl   $0x1f,-0x8(%rbp)
    a74e:	7f 21                	jg     a771 <safe_lshift_func_int32_t_s_s+0x41>
    a750:	8b 45 f8             	mov    -0x8(%rbp),%eax
    a753:	ba ff ff ff 7f       	mov    $0x7fffffff,%edx
    a758:	89 c1                	mov    %eax,%ecx
    a75a:	d3 fa                	sar    %cl,%edx
    a75c:	89 d0                	mov    %edx,%eax
    a75e:	39 45 fc             	cmp    %eax,-0x4(%rbp)
    a761:	7f 0e                	jg     a771 <safe_lshift_func_int32_t_s_s+0x41>
    a763:	8b 45 f8             	mov    -0x8(%rbp),%eax
    a766:	8b 55 fc             	mov    -0x4(%rbp),%edx
    a769:	89 c1                	mov    %eax,%ecx
    a76b:	d3 e2                	shl    %cl,%edx
    a76d:	89 d0                	mov    %edx,%eax
    a76f:	eb 03                	jmp    a774 <safe_lshift_func_int32_t_s_s+0x44>
    a771:	8b 45 fc             	mov    -0x4(%rbp),%eax
    a774:	5d                   	pop    %rbp
    a775:	c3                   	retq   

000000000000a776 <safe_lshift_func_int32_t_s_u>:
    a776:	f3 0f 1e fa          	endbr64 
    a77a:	55                   	push   %rbp
    a77b:	48 89 e5             	mov    %rsp,%rbp
    a77e:	89 7d fc             	mov    %edi,-0x4(%rbp)
    a781:	89 75 f8             	mov    %esi,-0x8(%rbp)
    a784:	83 7d fc 00          	cmpl   $0x0,-0x4(%rbp)
    a788:	78 27                	js     a7b1 <safe_lshift_func_int32_t_s_u+0x3b>
    a78a:	83 7d f8 1f          	cmpl   $0x1f,-0x8(%rbp)
    a78e:	77 21                	ja     a7b1 <safe_lshift_func_int32_t_s_u+0x3b>
    a790:	8b 45 f8             	mov    -0x8(%rbp),%eax
    a793:	ba ff ff ff 7f       	mov    $0x7fffffff,%edx
    a798:	89 c1                	mov    %eax,%ecx
    a79a:	d3 fa                	sar    %cl,%edx
    a79c:	89 d0                	mov    %edx,%eax
    a79e:	39 45 fc             	cmp    %eax,-0x4(%rbp)
    a7a1:	7f 0e                	jg     a7b1 <safe_lshift_func_int32_t_s_u+0x3b>
    a7a3:	8b 45 f8             	mov    -0x8(%rbp),%eax
    a7a6:	8b 55 fc             	mov    -0x4(%rbp),%edx
    a7a9:	89 c1                	mov    %eax,%ecx
    a7ab:	d3 e2                	shl    %cl,%edx
    a7ad:	89 d0                	mov    %edx,%eax
    a7af:	eb 03                	jmp    a7b4 <safe_lshift_func_int32_t_s_u+0x3e>
    a7b1:	8b 45 fc             	mov    -0x4(%rbp),%eax
    a7b4:	5d                   	pop    %rbp
    a7b5:	c3                   	retq   

000000000000a7b6 <safe_rshift_func_int32_t_s_s>:
    a7b6:	f3 0f 1e fa          	endbr64 
    a7ba:	55                   	push   %rbp
    a7bb:	48 89 e5             	mov    %rsp,%rbp
    a7be:	89 7d fc             	mov    %edi,-0x4(%rbp)
    a7c1:	89 75 f8             	mov    %esi,-0x8(%rbp)
    a7c4:	83 7d fc 00          	cmpl   $0x0,-0x4(%rbp)
    a7c8:	78 1a                	js     a7e4 <safe_rshift_func_int32_t_s_s+0x2e>
    a7ca:	83 7d f8 00          	cmpl   $0x0,-0x8(%rbp)
    a7ce:	78 14                	js     a7e4 <safe_rshift_func_int32_t_s_s+0x2e>
    a7d0:	83 7d f8 1f          	cmpl   $0x1f,-0x8(%rbp)
    a7d4:	7f 0e                	jg     a7e4 <safe_rshift_func_int32_t_s_s+0x2e>
    a7d6:	8b 45 f8             	mov    -0x8(%rbp),%eax
    a7d9:	8b 55 fc             	mov    -0x4(%rbp),%edx
    a7dc:	89 c1                	mov    %eax,%ecx
    a7de:	d3 fa                	sar    %cl,%edx
    a7e0:	89 d0                	mov    %edx,%eax
    a7e2:	eb 03                	jmp    a7e7 <safe_rshift_func_int32_t_s_s+0x31>
    a7e4:	8b 45 fc             	mov    -0x4(%rbp),%eax
    a7e7:	5d                   	pop    %rbp
    a7e8:	c3                   	retq   

000000000000a7e9 <safe_rshift_func_int32_t_s_u>:
    a7e9:	f3 0f 1e fa          	endbr64 
    a7ed:	55                   	push   %rbp
    a7ee:	48 89 e5             	mov    %rsp,%rbp
    a7f1:	89 7d fc             	mov    %edi,-0x4(%rbp)
    a7f4:	89 75 f8             	mov    %esi,-0x8(%rbp)
    a7f7:	83 7d fc 00          	cmpl   $0x0,-0x4(%rbp)
    a7fb:	78 14                	js     a811 <safe_rshift_func_int32_t_s_u+0x28>
    a7fd:	83 7d f8 1f          	cmpl   $0x1f,-0x8(%rbp)
    a801:	77 0e                	ja     a811 <safe_rshift_func_int32_t_s_u+0x28>
    a803:	8b 45 f8             	mov    -0x8(%rbp),%eax
    a806:	8b 55 fc             	mov    -0x4(%rbp),%edx
    a809:	89 c1                	mov    %eax,%ecx
    a80b:	d3 fa                	sar    %cl,%edx
    a80d:	89 d0                	mov    %edx,%eax
    a80f:	eb 03                	jmp    a814 <safe_rshift_func_int32_t_s_u+0x2b>
    a811:	8b 45 fc             	mov    -0x4(%rbp),%eax
    a814:	5d                   	pop    %rbp
    a815:	c3                   	retq   

000000000000a816 <safe_unary_minus_func_int64_t_s>:
    a816:	f3 0f 1e fa          	endbr64 
    a81a:	55                   	push   %rbp
    a81b:	48 89 e5             	mov    %rsp,%rbp
    a81e:	48 89 7d f8          	mov    %rdi,-0x8(%rbp)
    a822:	48 b8 00 00 00 00 00 	movabs $0x8000000000000000,%rax
    a829:	00 00 80 
    a82c:	48 39 45 f8          	cmp    %rax,-0x8(%rbp)
    a830:	74 09                	je     a83b <safe_unary_minus_func_int64_t_s+0x25>
    a832:	48 8b 45 f8          	mov    -0x8(%rbp),%rax
    a836:	48 f7 d8             	neg    %rax
    a839:	eb 04                	jmp    a83f <safe_unary_minus_func_int64_t_s+0x29>
    a83b:	48 8b 45 f8          	mov    -0x8(%rbp),%rax
    a83f:	5d                   	pop    %rbp
    a840:	c3                   	retq   

000000000000a841 <safe_add_func_int64_t_s_s>:
    a841:	f3 0f 1e fa          	endbr64 
    a845:	55                   	push   %rbp
    a846:	48 89 e5             	mov    %rsp,%rbp
    a849:	48 89 7d f8          	mov    %rdi,-0x8(%rbp)
    a84d:	48 89 75 f0          	mov    %rsi,-0x10(%rbp)
    a851:	48 83 7d f8 00       	cmpq   $0x0,-0x8(%rbp)
    a856:	7e 1b                	jle    a873 <safe_add_func_int64_t_s_s+0x32>
    a858:	48 83 7d f0 00       	cmpq   $0x0,-0x10(%rbp)
    a85d:	7e 14                	jle    a873 <safe_add_func_int64_t_s_s+0x32>
    a85f:	48 b8 ff ff ff ff ff 	movabs $0x7fffffffffffffff,%rax
    a866:	ff ff 7f 
    a869:	48 2b 45 f0          	sub    -0x10(%rbp),%rax
    a86d:	48 39 45 f8          	cmp    %rax,-0x8(%rbp)
    a871:	7f 2f                	jg     a8a2 <safe_add_func_int64_t_s_s+0x61>
    a873:	48 83 7d f8 00       	cmpq   $0x0,-0x8(%rbp)
    a878:	79 1b                	jns    a895 <safe_add_func_int64_t_s_s+0x54>
    a87a:	48 83 7d f0 00       	cmpq   $0x0,-0x10(%rbp)
    a87f:	79 14                	jns    a895 <safe_add_func_int64_t_s_s+0x54>
    a881:	48 b8 00 00 00 00 00 	movabs $0x8000000000000000,%rax
    a888:	00 00 80 
    a88b:	48 2b 45 f0          	sub    -0x10(%rbp),%rax
    a88f:	48 39 45 f8          	cmp    %rax,-0x8(%rbp)
    a893:	7c 0d                	jl     a8a2 <safe_add_func_int64_t_s_s+0x61>
    a895:	48 8b 55 f8          	mov    -0x8(%rbp),%rdx
    a899:	48 8b 45 f0          	mov    -0x10(%rbp),%rax
    a89d:	48 01 d0             	add    %rdx,%rax
    a8a0:	eb 04                	jmp    a8a6 <safe_add_func_int64_t_s_s+0x65>
    a8a2:	48 8b 45 f8          	mov    -0x8(%rbp),%rax
    a8a6:	5d                   	pop    %rbp
    a8a7:	c3                   	retq   

000000000000a8a8 <safe_sub_func_int64_t_s_s>:
    a8a8:	f3 0f 1e fa          	endbr64 
    a8ac:	55                   	push   %rbp
    a8ad:	48 89 e5             	mov    %rsp,%rbp
    a8b0:	48 89 7d f8          	mov    %rdi,-0x8(%rbp)
    a8b4:	48 89 75 f0          	mov    %rsi,-0x10(%rbp)
    a8b8:	48 8b 45 f8          	mov    -0x8(%rbp),%rax
    a8bc:	48 33 45 f0          	xor    -0x10(%rbp),%rax
    a8c0:	48 89 c2             	mov    %rax,%rdx
    a8c3:	48 8b 45 f8          	mov    -0x8(%rbp),%rax
    a8c7:	48 33 45 f0          	xor    -0x10(%rbp),%rax
    a8cb:	48 b9 00 00 00 00 00 	movabs $0x8000000000000000,%rcx
    a8d2:	00 00 80 
    a8d5:	48 21 c8             	and    %rcx,%rax
    a8d8:	48 33 45 f8          	xor    -0x8(%rbp),%rax
    a8dc:	48 2b 45 f0          	sub    -0x10(%rbp),%rax
    a8e0:	48 33 45 f0          	xor    -0x10(%rbp),%rax
    a8e4:	48 21 d0             	and    %rdx,%rax
    a8e7:	48 85 c0             	test   %rax,%rax
    a8ea:	78 0a                	js     a8f6 <safe_sub_func_int64_t_s_s+0x4e>
    a8ec:	48 8b 45 f8          	mov    -0x8(%rbp),%rax
    a8f0:	48 2b 45 f0          	sub    -0x10(%rbp),%rax
    a8f4:	eb 04                	jmp    a8fa <safe_sub_func_int64_t_s_s+0x52>
    a8f6:	48 8b 45 f8          	mov    -0x8(%rbp),%rax
    a8fa:	5d                   	pop    %rbp
    a8fb:	c3                   	retq   

000000000000a8fc <safe_mul_func_int64_t_s_s>:
    a8fc:	f3 0f 1e fa          	endbr64 
    a900:	55                   	push   %rbp
    a901:	48 89 e5             	mov    %rsp,%rbp
    a904:	48 89 7d f8          	mov    %rdi,-0x8(%rbp)
    a908:	48 89 75 f0          	mov    %rsi,-0x10(%rbp)
    a90c:	48 83 7d f8 00       	cmpq   $0x0,-0x8(%rbp)
    a911:	7e 1d                	jle    a930 <safe_mul_func_int64_t_s_s+0x34>
    a913:	48 83 7d f0 00       	cmpq   $0x0,-0x10(%rbp)
    a918:	7e 16                	jle    a930 <safe_mul_func_int64_t_s_s+0x34>
    a91a:	48 b8 ff ff ff ff ff 	movabs $0x7fffffffffffffff,%rax
    a921:	ff ff 7f 
    a924:	48 99                	cqto   
    a926:	48 f7 7d f0          	idivq  -0x10(%rbp)
    a92a:	48 39 45 f8          	cmp    %rax,-0x8(%rbp)
    a92e:	7f 7e                	jg     a9ae <safe_mul_func_int64_t_s_s+0xb2>
    a930:	48 83 7d f8 00       	cmpq   $0x0,-0x8(%rbp)
    a935:	7e 1d                	jle    a954 <safe_mul_func_int64_t_s_s+0x58>
    a937:	48 83 7d f0 00       	cmpq   $0x0,-0x10(%rbp)
    a93c:	7f 16                	jg     a954 <safe_mul_func_int64_t_s_s+0x58>
    a93e:	48 b8 00 00 00 00 00 	movabs $0x8000000000000000,%rax
    a945:	00 00 80 
    a948:	48 99                	cqto   
    a94a:	48 f7 7d f8          	idivq  -0x8(%rbp)
    a94e:	48 39 45 f0          	cmp    %rax,-0x10(%rbp)
    a952:	7c 5a                	jl     a9ae <safe_mul_func_int64_t_s_s+0xb2>
    a954:	48 83 7d f8 00       	cmpq   $0x0,-0x8(%rbp)
    a959:	7f 1d                	jg     a978 <safe_mul_func_int64_t_s_s+0x7c>
    a95b:	48 83 7d f0 00       	cmpq   $0x0,-0x10(%rbp)
    a960:	7e 16                	jle    a978 <safe_mul_func_int64_t_s_s+0x7c>
    a962:	48 b8 00 00 00 00 00 	movabs $0x8000000000000000,%rax
    a969:	00 00 80 
    a96c:	48 99                	cqto   
    a96e:	48 f7 7d f0          	idivq  -0x10(%rbp)
    a972:	48 39 45 f8          	cmp    %rax,-0x8(%rbp)
    a976:	7c 36                	jl     a9ae <safe_mul_func_int64_t_s_s+0xb2>
    a978:	48 83 7d f8 00       	cmpq   $0x0,-0x8(%rbp)
    a97d:	7f 24                	jg     a9a3 <safe_mul_func_int64_t_s_s+0xa7>
    a97f:	48 83 7d f0 00       	cmpq   $0x0,-0x10(%rbp)
    a984:	7f 1d                	jg     a9a3 <safe_mul_func_int64_t_s_s+0xa7>
    a986:	48 83 7d f8 00       	cmpq   $0x0,-0x8(%rbp)
    a98b:	74 16                	je     a9a3 <safe_mul_func_int64_t_s_s+0xa7>
    a98d:	48 b8 ff ff ff ff ff 	movabs $0x7fffffffffffffff,%rax
    a994:	ff ff 7f 
    a997:	48 99                	cqto   
    a999:	48 f7 7d f8          	idivq  -0x8(%rbp)
    a99d:	48 39 45 f0          	cmp    %rax,-0x10(%rbp)
    a9a1:	7c 0b                	jl     a9ae <safe_mul_func_int64_t_s_s+0xb2>
    a9a3:	48 8b 45 f8          	mov    -0x8(%rbp),%rax
    a9a7:	48 0f af 45 f0       	imul   -0x10(%rbp),%rax
    a9ac:	eb 04                	jmp    a9b2 <safe_mul_func_int64_t_s_s+0xb6>
    a9ae:	48 8b 45 f8          	mov    -0x8(%rbp),%rax
    a9b2:	5d                   	pop    %rbp
    a9b3:	c3                   	retq   

000000000000a9b4 <safe_mod_func_int64_t_s_s>:
    a9b4:	f3 0f 1e fa          	endbr64 
    a9b8:	55                   	push   %rbp
    a9b9:	48 89 e5             	mov    %rsp,%rbp
    a9bc:	48 89 7d f8          	mov    %rdi,-0x8(%rbp)
    a9c0:	48 89 75 f0          	mov    %rsi,-0x10(%rbp)
    a9c4:	48 83 7d f0 00       	cmpq   $0x0,-0x10(%rbp)
    a9c9:	74 26                	je     a9f1 <safe_mod_func_int64_t_s_s+0x3d>
    a9cb:	48 b8 00 00 00 00 00 	movabs $0x8000000000000000,%rax
    a9d2:	00 00 80 
    a9d5:	48 39 45 f8          	cmp    %rax,-0x8(%rbp)
    a9d9:	75 07                	jne    a9e2 <safe_mod_func_int64_t_s_s+0x2e>
    a9db:	48 83 7d f0 ff       	cmpq   $0xffffffffffffffff,-0x10(%rbp)
    a9e0:	74 0f                	je     a9f1 <safe_mod_func_int64_t_s_s+0x3d>
    a9e2:	48 8b 45 f8          	mov    -0x8(%rbp),%rax
    a9e6:	48 99                	cqto   
    a9e8:	48 f7 7d f0          	idivq  -0x10(%rbp)
    a9ec:	48 89 d0             	mov    %rdx,%rax
    a9ef:	eb 04                	jmp    a9f5 <safe_mod_func_int64_t_s_s+0x41>
    a9f1:	48 8b 45 f8          	mov    -0x8(%rbp),%rax
    a9f5:	5d                   	pop    %rbp
    a9f6:	c3                   	retq   

000000000000a9f7 <safe_div_func_int64_t_s_s>:
    a9f7:	f3 0f 1e fa          	endbr64 
    a9fb:	55                   	push   %rbp
    a9fc:	48 89 e5             	mov    %rsp,%rbp
    a9ff:	48 89 7d f8          	mov    %rdi,-0x8(%rbp)
    aa03:	48 89 75 f0          	mov    %rsi,-0x10(%rbp)
    aa07:	48 83 7d f0 00       	cmpq   $0x0,-0x10(%rbp)
    aa0c:	74 23                	je     aa31 <safe_div_func_int64_t_s_s+0x3a>
    aa0e:	48 b8 00 00 00 00 00 	movabs $0x8000000000000000,%rax
    aa15:	00 00 80 
    aa18:	48 39 45 f8          	cmp    %rax,-0x8(%rbp)
    aa1c:	75 07                	jne    aa25 <safe_div_func_int64_t_s_s+0x2e>
    aa1e:	48 83 7d f0 ff       	cmpq   $0xffffffffffffffff,-0x10(%rbp)
    aa23:	74 0c                	je     aa31 <safe_div_func_int64_t_s_s+0x3a>
    aa25:	48 8b 45 f8          	mov    -0x8(%rbp),%rax
    aa29:	48 99                	cqto   
    aa2b:	48 f7 7d f0          	idivq  -0x10(%rbp)
    aa2f:	eb 04                	jmp    aa35 <safe_div_func_int64_t_s_s+0x3e>
    aa31:	48 8b 45 f8          	mov    -0x8(%rbp),%rax
    aa35:	5d                   	pop    %rbp
    aa36:	c3                   	retq   

000000000000aa37 <safe_lshift_func_int64_t_s_s>:
    aa37:	f3 0f 1e fa          	endbr64 
    aa3b:	55                   	push   %rbp
    aa3c:	48 89 e5             	mov    %rsp,%rbp
    aa3f:	48 89 7d f8          	mov    %rdi,-0x8(%rbp)
    aa43:	89 75 f4             	mov    %esi,-0xc(%rbp)
    aa46:	48 83 7d f8 00       	cmpq   $0x0,-0x8(%rbp)
    aa4b:	78 38                	js     aa85 <safe_lshift_func_int64_t_s_s+0x4e>
    aa4d:	83 7d f4 00          	cmpl   $0x0,-0xc(%rbp)
    aa51:	78 32                	js     aa85 <safe_lshift_func_int64_t_s_s+0x4e>
    aa53:	83 7d f4 1f          	cmpl   $0x1f,-0xc(%rbp)
    aa57:	7f 2c                	jg     aa85 <safe_lshift_func_int64_t_s_s+0x4e>
    aa59:	8b 45 f4             	mov    -0xc(%rbp),%eax
    aa5c:	48 ba ff ff ff ff ff 	movabs $0x7fffffffffffffff,%rdx
    aa63:	ff ff 7f 
    aa66:	89 c1                	mov    %eax,%ecx
    aa68:	48 d3 fa             	sar    %cl,%rdx
    aa6b:	48 89 d0             	mov    %rdx,%rax
    aa6e:	48 39 45 f8          	cmp    %rax,-0x8(%rbp)
    aa72:	7f 11                	jg     aa85 <safe_lshift_func_int64_t_s_s+0x4e>
    aa74:	8b 45 f4             	mov    -0xc(%rbp),%eax
    aa77:	48 8b 55 f8          	mov    -0x8(%rbp),%rdx
    aa7b:	89 c1                	mov    %eax,%ecx
    aa7d:	48 d3 e2             	shl    %cl,%rdx
    aa80:	48 89 d0             	mov    %rdx,%rax
    aa83:	eb 04                	jmp    aa89 <safe_lshift_func_int64_t_s_s+0x52>
    aa85:	48 8b 45 f8          	mov    -0x8(%rbp),%rax
    aa89:	5d                   	pop    %rbp
    aa8a:	c3                   	retq   

000000000000aa8b <safe_lshift_func_int64_t_s_u>:
    aa8b:	f3 0f 1e fa          	endbr64 
    aa8f:	55                   	push   %rbp
    aa90:	48 89 e5             	mov    %rsp,%rbp
    aa93:	48 89 7d f8          	mov    %rdi,-0x8(%rbp)
    aa97:	89 75 f4             	mov    %esi,-0xc(%rbp)
    aa9a:	48 83 7d f8 00       	cmpq   $0x0,-0x8(%rbp)
    aa9f:	78 32                	js     aad3 <safe_lshift_func_int64_t_s_u+0x48>
    aaa1:	83 7d f4 1f          	cmpl   $0x1f,-0xc(%rbp)
    aaa5:	77 2c                	ja     aad3 <safe_lshift_func_int64_t_s_u+0x48>
    aaa7:	8b 45 f4             	mov    -0xc(%rbp),%eax
    aaaa:	48 ba ff ff ff ff ff 	movabs $0x7fffffffffffffff,%rdx
    aab1:	ff ff 7f 
    aab4:	89 c1                	mov    %eax,%ecx
    aab6:	48 d3 fa             	sar    %cl,%rdx
    aab9:	48 89 d0             	mov    %rdx,%rax
    aabc:	48 39 45 f8          	cmp    %rax,-0x8(%rbp)
    aac0:	7f 11                	jg     aad3 <safe_lshift_func_int64_t_s_u+0x48>
    aac2:	8b 45 f4             	mov    -0xc(%rbp),%eax
    aac5:	48 8b 55 f8          	mov    -0x8(%rbp),%rdx
    aac9:	89 c1                	mov    %eax,%ecx
    aacb:	48 d3 e2             	shl    %cl,%rdx
    aace:	48 89 d0             	mov    %rdx,%rax
    aad1:	eb 04                	jmp    aad7 <safe_lshift_func_int64_t_s_u+0x4c>
    aad3:	48 8b 45 f8          	mov    -0x8(%rbp),%rax
    aad7:	5d                   	pop    %rbp
    aad8:	c3                   	retq   

000000000000aad9 <safe_rshift_func_int64_t_s_s>:
    aad9:	f3 0f 1e fa          	endbr64 
    aadd:	55                   	push   %rbp
    aade:	48 89 e5             	mov    %rsp,%rbp
    aae1:	48 89 7d f8          	mov    %rdi,-0x8(%rbp)
    aae5:	89 75 f4             	mov    %esi,-0xc(%rbp)
    aae8:	48 83 7d f8 00       	cmpq   $0x0,-0x8(%rbp)
    aaed:	78 1d                	js     ab0c <safe_rshift_func_int64_t_s_s+0x33>
    aaef:	83 7d f4 00          	cmpl   $0x0,-0xc(%rbp)
    aaf3:	78 17                	js     ab0c <safe_rshift_func_int64_t_s_s+0x33>
    aaf5:	83 7d f4 1f          	cmpl   $0x1f,-0xc(%rbp)
    aaf9:	7f 11                	jg     ab0c <safe_rshift_func_int64_t_s_s+0x33>
    aafb:	8b 45 f4             	mov    -0xc(%rbp),%eax
    aafe:	48 8b 55 f8          	mov    -0x8(%rbp),%rdx
    ab02:	89 c1                	mov    %eax,%ecx
    ab04:	48 d3 fa             	sar    %cl,%rdx
    ab07:	48 89 d0             	mov    %rdx,%rax
    ab0a:	eb 04                	jmp    ab10 <safe_rshift_func_int64_t_s_s+0x37>
    ab0c:	48 8b 45 f8          	mov    -0x8(%rbp),%rax
    ab10:	5d                   	pop    %rbp
    ab11:	c3                   	retq   

000000000000ab12 <safe_rshift_func_int64_t_s_u>:
    ab12:	f3 0f 1e fa          	endbr64 
    ab16:	55                   	push   %rbp
    ab17:	48 89 e5             	mov    %rsp,%rbp
    ab1a:	48 89 7d f8          	mov    %rdi,-0x8(%rbp)
    ab1e:	89 75 f4             	mov    %esi,-0xc(%rbp)
    ab21:	48 83 7d f8 00       	cmpq   $0x0,-0x8(%rbp)
    ab26:	78 17                	js     ab3f <safe_rshift_func_int64_t_s_u+0x2d>
    ab28:	83 7d f4 1f          	cmpl   $0x1f,-0xc(%rbp)
    ab2c:	77 11                	ja     ab3f <safe_rshift_func_int64_t_s_u+0x2d>
    ab2e:	8b 45 f4             	mov    -0xc(%rbp),%eax
    ab31:	48 8b 55 f8          	mov    -0x8(%rbp),%rdx
    ab35:	89 c1                	mov    %eax,%ecx
    ab37:	48 d3 fa             	sar    %cl,%rdx
    ab3a:	48 89 d0             	mov    %rdx,%rax
    ab3d:	eb 04                	jmp    ab43 <safe_rshift_func_int64_t_s_u+0x31>
    ab3f:	48 8b 45 f8          	mov    -0x8(%rbp),%rax
    ab43:	5d                   	pop    %rbp
    ab44:	c3                   	retq   

000000000000ab45 <safe_unary_minus_func_uint8_t_u>:
    ab45:	f3 0f 1e fa          	endbr64 
    ab49:	55                   	push   %rbp
    ab4a:	48 89 e5             	mov    %rsp,%rbp
    ab4d:	89 f8                	mov    %edi,%eax
    ab4f:	88 45 fc             	mov    %al,-0x4(%rbp)
    ab52:	0f b6 45 fc          	movzbl -0x4(%rbp),%eax
    ab56:	f7 d8                	neg    %eax
    ab58:	5d                   	pop    %rbp
    ab59:	c3                   	retq   

000000000000ab5a <safe_add_func_uint8_t_u_u>:
    ab5a:	f3 0f 1e fa          	endbr64 
    ab5e:	55                   	push   %rbp
    ab5f:	48 89 e5             	mov    %rsp,%rbp
    ab62:	89 fa                	mov    %edi,%edx
    ab64:	89 f0                	mov    %esi,%eax
    ab66:	88 55 fc             	mov    %dl,-0x4(%rbp)
    ab69:	88 45 f8             	mov    %al,-0x8(%rbp)
    ab6c:	0f b6 55 fc          	movzbl -0x4(%rbp),%edx
    ab70:	0f b6 45 f8          	movzbl -0x8(%rbp),%eax
    ab74:	01 d0                	add    %edx,%eax
    ab76:	5d                   	pop    %rbp
    ab77:	c3                   	retq   

000000000000ab78 <safe_sub_func_uint8_t_u_u>:
    ab78:	f3 0f 1e fa          	endbr64 
    ab7c:	55                   	push   %rbp
    ab7d:	48 89 e5             	mov    %rsp,%rbp
    ab80:	89 fa                	mov    %edi,%edx
    ab82:	89 f0                	mov    %esi,%eax
    ab84:	88 55 fc             	mov    %dl,-0x4(%rbp)
    ab87:	88 45 f8             	mov    %al,-0x8(%rbp)
    ab8a:	0f b6 45 fc          	movzbl -0x4(%rbp),%eax
    ab8e:	2a 45 f8             	sub    -0x8(%rbp),%al
    ab91:	5d                   	pop    %rbp
    ab92:	c3                   	retq   

000000000000ab93 <safe_mul_func_uint8_t_u_u>:
    ab93:	f3 0f 1e fa          	endbr64 
    ab97:	55                   	push   %rbp
    ab98:	48 89 e5             	mov    %rsp,%rbp
    ab9b:	89 fa                	mov    %edi,%edx
    ab9d:	89 f0                	mov    %esi,%eax
    ab9f:	88 55 fc             	mov    %dl,-0x4(%rbp)
    aba2:	88 45 f8             	mov    %al,-0x8(%rbp)
    aba5:	0f b6 45 fc          	movzbl -0x4(%rbp),%eax
    aba9:	f6 65 f8             	mulb   -0x8(%rbp)
    abac:	5d                   	pop    %rbp
    abad:	c3                   	retq   

000000000000abae <safe_mod_func_uint8_t_u_u>:
    abae:	f3 0f 1e fa          	endbr64 
    abb2:	55                   	push   %rbp
    abb3:	48 89 e5             	mov    %rsp,%rbp
    abb6:	89 fa                	mov    %edi,%edx
    abb8:	89 f0                	mov    %esi,%eax
    abba:	88 55 fc             	mov    %dl,-0x4(%rbp)
    abbd:	88 45 f8             	mov    %al,-0x8(%rbp)
    abc0:	80 7d f8 00          	cmpb   $0x0,-0x8(%rbp)
    abc4:	74 0f                	je     abd5 <safe_mod_func_uint8_t_u_u+0x27>
    abc6:	0f b6 45 fc          	movzbl -0x4(%rbp),%eax
    abca:	0f b6 c0             	movzbl %al,%eax
    abcd:	f6 75 f8             	divb   -0x8(%rbp)
    abd0:	0f b6 c4             	movzbl %ah,%eax
    abd3:	eb 04                	jmp    abd9 <safe_mod_func_uint8_t_u_u+0x2b>
    abd5:	0f b6 45 fc          	movzbl -0x4(%rbp),%eax
    abd9:	5d                   	pop    %rbp
    abda:	c3                   	retq   

000000000000abdb <safe_div_func_uint8_t_u_u>:
    abdb:	f3 0f 1e fa          	endbr64 
    abdf:	55                   	push   %rbp
    abe0:	48 89 e5             	mov    %rsp,%rbp
    abe3:	89 fa                	mov    %edi,%edx
    abe5:	89 f0                	mov    %esi,%eax
    abe7:	88 55 fc             	mov    %dl,-0x4(%rbp)
    abea:	88 45 f8             	mov    %al,-0x8(%rbp)
    abed:	80 7d f8 00          	cmpb   $0x0,-0x8(%rbp)
    abf1:	74 0c                	je     abff <safe_div_func_uint8_t_u_u+0x24>
    abf3:	0f b6 45 fc          	movzbl -0x4(%rbp),%eax
    abf7:	0f b6 c0             	movzbl %al,%eax
    abfa:	f6 75 f8             	divb   -0x8(%rbp)
    abfd:	eb 04                	jmp    ac03 <safe_div_func_uint8_t_u_u+0x28>
    abff:	0f b6 45 fc          	movzbl -0x4(%rbp),%eax
    ac03:	5d                   	pop    %rbp
    ac04:	c3                   	retq   

000000000000ac05 <safe_lshift_func_uint8_t_u_s>:
    ac05:	f3 0f 1e fa          	endbr64 
    ac09:	55                   	push   %rbp
    ac0a:	48 89 e5             	mov    %rsp,%rbp
    ac0d:	89 f8                	mov    %edi,%eax
    ac0f:	89 75 f8             	mov    %esi,-0x8(%rbp)
    ac12:	88 45 fc             	mov    %al,-0x4(%rbp)
    ac15:	83 7d f8 00          	cmpl   $0x0,-0x8(%rbp)
    ac19:	78 2b                	js     ac46 <safe_lshift_func_uint8_t_u_s+0x41>
    ac1b:	83 7d f8 1f          	cmpl   $0x1f,-0x8(%rbp)
    ac1f:	7f 25                	jg     ac46 <safe_lshift_func_uint8_t_u_s+0x41>
    ac21:	0f b6 55 fc          	movzbl -0x4(%rbp),%edx
    ac25:	8b 45 f8             	mov    -0x8(%rbp),%eax
    ac28:	be ff 00 00 00       	mov    $0xff,%esi
    ac2d:	89 c1                	mov    %eax,%ecx
    ac2f:	d3 fe                	sar    %cl,%esi
    ac31:	89 f0                	mov    %esi,%eax
    ac33:	39 c2                	cmp    %eax,%edx
    ac35:	7f 0f                	jg     ac46 <safe_lshift_func_uint8_t_u_s+0x41>
    ac37:	0f b6 55 fc          	movzbl -0x4(%rbp),%edx
    ac3b:	8b 45 f8             	mov    -0x8(%rbp),%eax
    ac3e:	89 c1                	mov    %eax,%ecx
    ac40:	d3 e2                	shl    %cl,%edx
    ac42:	89 d0                	mov    %edx,%eax
    ac44:	eb 04                	jmp    ac4a <safe_lshift_func_uint8_t_u_s+0x45>
    ac46:	0f b6 45 fc          	movzbl -0x4(%rbp),%eax
    ac4a:	5d                   	pop    %rbp
    ac4b:	c3                   	retq   

000000000000ac4c <safe_lshift_func_uint8_t_u_u>:
    ac4c:	f3 0f 1e fa          	endbr64 
    ac50:	55                   	push   %rbp
    ac51:	48 89 e5             	mov    %rsp,%rbp
    ac54:	89 f8                	mov    %edi,%eax
    ac56:	89 75 f8             	mov    %esi,-0x8(%rbp)
    ac59:	88 45 fc             	mov    %al,-0x4(%rbp)
    ac5c:	83 7d f8 1f          	cmpl   $0x1f,-0x8(%rbp)
    ac60:	77 25                	ja     ac87 <safe_lshift_func_uint8_t_u_u+0x3b>
    ac62:	0f b6 55 fc          	movzbl -0x4(%rbp),%edx
    ac66:	8b 45 f8             	mov    -0x8(%rbp),%eax
    ac69:	be ff 00 00 00       	mov    $0xff,%esi
    ac6e:	89 c1                	mov    %eax,%ecx
    ac70:	d3 fe                	sar    %cl,%esi
    ac72:	89 f0                	mov    %esi,%eax
    ac74:	39 c2                	cmp    %eax,%edx
    ac76:	7f 0f                	jg     ac87 <safe_lshift_func_uint8_t_u_u+0x3b>
    ac78:	0f b6 55 fc          	movzbl -0x4(%rbp),%edx
    ac7c:	8b 45 f8             	mov    -0x8(%rbp),%eax
    ac7f:	89 c1                	mov    %eax,%ecx
    ac81:	d3 e2                	shl    %cl,%edx
    ac83:	89 d0                	mov    %edx,%eax
    ac85:	eb 04                	jmp    ac8b <safe_lshift_func_uint8_t_u_u+0x3f>
    ac87:	0f b6 45 fc          	movzbl -0x4(%rbp),%eax
    ac8b:	5d                   	pop    %rbp
    ac8c:	c3                   	retq   

000000000000ac8d <safe_rshift_func_uint8_t_u_s>:
    ac8d:	f3 0f 1e fa          	endbr64 
    ac91:	55                   	push   %rbp
    ac92:	48 89 e5             	mov    %rsp,%rbp
    ac95:	89 f8                	mov    %edi,%eax
    ac97:	89 75 f8             	mov    %esi,-0x8(%rbp)
    ac9a:	88 45 fc             	mov    %al,-0x4(%rbp)
    ac9d:	83 7d f8 00          	cmpl   $0x0,-0x8(%rbp)
    aca1:	78 15                	js     acb8 <safe_rshift_func_uint8_t_u_s+0x2b>
    aca3:	83 7d f8 1f          	cmpl   $0x1f,-0x8(%rbp)
    aca7:	7f 0f                	jg     acb8 <safe_rshift_func_uint8_t_u_s+0x2b>
    aca9:	0f b6 55 fc          	movzbl -0x4(%rbp),%edx
    acad:	8b 45 f8             	mov    -0x8(%rbp),%eax
    acb0:	89 c1                	mov    %eax,%ecx
    acb2:	d3 fa                	sar    %cl,%edx
    acb4:	89 d0                	mov    %edx,%eax
    acb6:	eb 04                	jmp    acbc <safe_rshift_func_uint8_t_u_s+0x2f>
    acb8:	0f b6 45 fc          	movzbl -0x4(%rbp),%eax
    acbc:	5d                   	pop    %rbp
    acbd:	c3                   	retq   

000000000000acbe <safe_rshift_func_uint8_t_u_u>:
    acbe:	f3 0f 1e fa          	endbr64 
    acc2:	55                   	push   %rbp
    acc3:	48 89 e5             	mov    %rsp,%rbp
    acc6:	89 f8                	mov    %edi,%eax
    acc8:	89 75 f8             	mov    %esi,-0x8(%rbp)
    accb:	88 45 fc             	mov    %al,-0x4(%rbp)
    acce:	83 7d f8 1f          	cmpl   $0x1f,-0x8(%rbp)
    acd2:	77 0f                	ja     ace3 <safe_rshift_func_uint8_t_u_u+0x25>
    acd4:	0f b6 55 fc          	movzbl -0x4(%rbp),%edx
    acd8:	8b 45 f8             	mov    -0x8(%rbp),%eax
    acdb:	89 c1                	mov    %eax,%ecx
    acdd:	d3 fa                	sar    %cl,%edx
    acdf:	89 d0                	mov    %edx,%eax
    ace1:	eb 04                	jmp    ace7 <safe_rshift_func_uint8_t_u_u+0x29>
    ace3:	0f b6 45 fc          	movzbl -0x4(%rbp),%eax
    ace7:	5d                   	pop    %rbp
    ace8:	c3                   	retq   

000000000000ace9 <safe_unary_minus_func_uint16_t_u>:
    ace9:	f3 0f 1e fa          	endbr64 
    aced:	55                   	push   %rbp
    acee:	48 89 e5             	mov    %rsp,%rbp
    acf1:	89 f8                	mov    %edi,%eax
    acf3:	66 89 45 fc          	mov    %ax,-0x4(%rbp)
    acf7:	0f b7 45 fc          	movzwl -0x4(%rbp),%eax
    acfb:	f7 d8                	neg    %eax
    acfd:	5d                   	pop    %rbp
    acfe:	c3                   	retq   

000000000000acff <safe_add_func_uint16_t_u_u>:
    acff:	f3 0f 1e fa          	endbr64 
    ad03:	55                   	push   %rbp
    ad04:	48 89 e5             	mov    %rsp,%rbp
    ad07:	89 fa                	mov    %edi,%edx
    ad09:	89 f0                	mov    %esi,%eax
    ad0b:	66 89 55 fc          	mov    %dx,-0x4(%rbp)
    ad0f:	66 89 45 f8          	mov    %ax,-0x8(%rbp)
    ad13:	0f b7 55 fc          	movzwl -0x4(%rbp),%edx
    ad17:	0f b7 45 f8          	movzwl -0x8(%rbp),%eax
    ad1b:	01 d0                	add    %edx,%eax
    ad1d:	5d                   	pop    %rbp
    ad1e:	c3                   	retq   

000000000000ad1f <safe_sub_func_uint16_t_u_u>:
    ad1f:	f3 0f 1e fa          	endbr64 
    ad23:	55                   	push   %rbp
    ad24:	48 89 e5             	mov    %rsp,%rbp
    ad27:	89 fa                	mov    %edi,%edx
    ad29:	89 f0                	mov    %esi,%eax
    ad2b:	66 89 55 fc          	mov    %dx,-0x4(%rbp)
    ad2f:	66 89 45 f8          	mov    %ax,-0x8(%rbp)
    ad33:	0f b7 45 fc          	movzwl -0x4(%rbp),%eax
    ad37:	66 2b 45 f8          	sub    -0x8(%rbp),%ax
    ad3b:	5d                   	pop    %rbp
    ad3c:	c3                   	retq   

000000000000ad3d <safe_mul_func_uint16_t_u_u>:
    ad3d:	f3 0f 1e fa          	endbr64 
    ad41:	55                   	push   %rbp
    ad42:	48 89 e5             	mov    %rsp,%rbp
    ad45:	89 fa                	mov    %edi,%edx
    ad47:	89 f0                	mov    %esi,%eax
    ad49:	66 89 55 fc          	mov    %dx,-0x4(%rbp)
    ad4d:	66 89 45 f8          	mov    %ax,-0x8(%rbp)
    ad51:	0f b7 45 fc          	movzwl -0x4(%rbp),%eax
    ad55:	66 0f af 45 f8       	imul   -0x8(%rbp),%ax
    ad5a:	5d                   	pop    %rbp
    ad5b:	c3                   	retq   

000000000000ad5c <safe_mod_func_uint16_t_u_u>:
    ad5c:	f3 0f 1e fa          	endbr64 
    ad60:	55                   	push   %rbp
    ad61:	48 89 e5             	mov    %rsp,%rbp
    ad64:	89 fa                	mov    %edi,%edx
    ad66:	89 f0                	mov    %esi,%eax
    ad68:	66 89 55 fc          	mov    %dx,-0x4(%rbp)
    ad6c:	66 89 45 f8          	mov    %ax,-0x8(%rbp)
    ad70:	66 83 7d f8 00       	cmpw   $0x0,-0x8(%rbp)
    ad75:	74 11                	je     ad88 <safe_mod_func_uint16_t_u_u+0x2c>
    ad77:	0f b7 45 fc          	movzwl -0x4(%rbp),%eax
    ad7b:	ba 00 00 00 00       	mov    $0x0,%edx
    ad80:	66 f7 75 f8          	divw   -0x8(%rbp)
    ad84:	89 d0                	mov    %edx,%eax
    ad86:	eb 04                	jmp    ad8c <safe_mod_func_uint16_t_u_u+0x30>
    ad88:	0f b7 45 fc          	movzwl -0x4(%rbp),%eax
    ad8c:	5d                   	pop    %rbp
    ad8d:	c3                   	retq   

000000000000ad8e <safe_div_func_uint16_t_u_u>:
    ad8e:	f3 0f 1e fa          	endbr64 
    ad92:	55                   	push   %rbp
    ad93:	48 89 e5             	mov    %rsp,%rbp
    ad96:	89 fa                	mov    %edi,%edx
    ad98:	89 f0                	mov    %esi,%eax
    ad9a:	66 89 55 fc          	mov    %dx,-0x4(%rbp)
    ad9e:	66 89 45 f8          	mov    %ax,-0x8(%rbp)
    ada2:	66 83 7d f8 00       	cmpw   $0x0,-0x8(%rbp)
    ada7:	74 0f                	je     adb8 <safe_div_func_uint16_t_u_u+0x2a>
    ada9:	0f b7 45 fc          	movzwl -0x4(%rbp),%eax
    adad:	ba 00 00 00 00       	mov    $0x0,%edx
    adb2:	66 f7 75 f8          	divw   -0x8(%rbp)
    adb6:	eb 04                	jmp    adbc <safe_div_func_uint16_t_u_u+0x2e>
    adb8:	0f b7 45 fc          	movzwl -0x4(%rbp),%eax
    adbc:	5d                   	pop    %rbp
    adbd:	c3                   	retq   

000000000000adbe <safe_lshift_func_uint16_t_u_s>:
    adbe:	f3 0f 1e fa          	endbr64 
    adc2:	55                   	push   %rbp
    adc3:	48 89 e5             	mov    %rsp,%rbp
    adc6:	89 f8                	mov    %edi,%eax
    adc8:	89 75 f8             	mov    %esi,-0x8(%rbp)
    adcb:	66 89 45 fc          	mov    %ax,-0x4(%rbp)
    adcf:	83 7d f8 00          	cmpl   $0x0,-0x8(%rbp)
    add3:	78 2b                	js     ae00 <safe_lshift_func_uint16_t_u_s+0x42>
    add5:	83 7d f8 1f          	cmpl   $0x1f,-0x8(%rbp)
    add9:	7f 25                	jg     ae00 <safe_lshift_func_uint16_t_u_s+0x42>
    addb:	0f b7 55 fc          	movzwl -0x4(%rbp),%edx
    addf:	8b 45 f8             	mov    -0x8(%rbp),%eax
    ade2:	be ff ff 00 00       	mov    $0xffff,%esi
    ade7:	89 c1                	mov    %eax,%ecx
    ade9:	d3 fe                	sar    %cl,%esi
    adeb:	89 f0                	mov    %esi,%eax
    aded:	39 c2                	cmp    %eax,%edx
    adef:	7f 0f                	jg     ae00 <safe_lshift_func_uint16_t_u_s+0x42>
    adf1:	0f b7 55 fc          	movzwl -0x4(%rbp),%edx
    adf5:	8b 45 f8             	mov    -0x8(%rbp),%eax
    adf8:	89 c1                	mov    %eax,%ecx
    adfa:	d3 e2                	shl    %cl,%edx
    adfc:	89 d0                	mov    %edx,%eax
    adfe:	eb 04                	jmp    ae04 <safe_lshift_func_uint16_t_u_s+0x46>
    ae00:	0f b7 45 fc          	movzwl -0x4(%rbp),%eax
    ae04:	5d                   	pop    %rbp
    ae05:	c3                   	retq   

000000000000ae06 <safe_lshift_func_uint16_t_u_u>:
    ae06:	f3 0f 1e fa          	endbr64 
    ae0a:	55                   	push   %rbp
    ae0b:	48 89 e5             	mov    %rsp,%rbp
    ae0e:	89 f8                	mov    %edi,%eax
    ae10:	89 75 f8             	mov    %esi,-0x8(%rbp)
    ae13:	66 89 45 fc          	mov    %ax,-0x4(%rbp)
    ae17:	83 7d f8 1f          	cmpl   $0x1f,-0x8(%rbp)
    ae1b:	77 25                	ja     ae42 <safe_lshift_func_uint16_t_u_u+0x3c>
    ae1d:	0f b7 55 fc          	movzwl -0x4(%rbp),%edx
    ae21:	8b 45 f8             	mov    -0x8(%rbp),%eax
    ae24:	be ff ff 00 00       	mov    $0xffff,%esi
    ae29:	89 c1                	mov    %eax,%ecx
    ae2b:	d3 fe                	sar    %cl,%esi
    ae2d:	89 f0                	mov    %esi,%eax
    ae2f:	39 c2                	cmp    %eax,%edx
    ae31:	7f 0f                	jg     ae42 <safe_lshift_func_uint16_t_u_u+0x3c>
    ae33:	0f b7 55 fc          	movzwl -0x4(%rbp),%edx
    ae37:	8b 45 f8             	mov    -0x8(%rbp),%eax
    ae3a:	89 c1                	mov    %eax,%ecx
    ae3c:	d3 e2                	shl    %cl,%edx
    ae3e:	89 d0                	mov    %edx,%eax
    ae40:	eb 04                	jmp    ae46 <safe_lshift_func_uint16_t_u_u+0x40>
    ae42:	0f b7 45 fc          	movzwl -0x4(%rbp),%eax
    ae46:	5d                   	pop    %rbp
    ae47:	c3                   	retq   

000000000000ae48 <safe_rshift_func_uint16_t_u_s>:
    ae48:	f3 0f 1e fa          	endbr64 
    ae4c:	55                   	push   %rbp
    ae4d:	48 89 e5             	mov    %rsp,%rbp
    ae50:	89 f8                	mov    %edi,%eax
    ae52:	89 75 f8             	mov    %esi,-0x8(%rbp)
    ae55:	66 89 45 fc          	mov    %ax,-0x4(%rbp)
    ae59:	83 7d f8 00          	cmpl   $0x0,-0x8(%rbp)
    ae5d:	78 15                	js     ae74 <safe_rshift_func_uint16_t_u_s+0x2c>
    ae5f:	83 7d f8 1f          	cmpl   $0x1f,-0x8(%rbp)
    ae63:	7f 0f                	jg     ae74 <safe_rshift_func_uint16_t_u_s+0x2c>
    ae65:	0f b7 55 fc          	movzwl -0x4(%rbp),%edx
    ae69:	8b 45 f8             	mov    -0x8(%rbp),%eax
    ae6c:	89 c1                	mov    %eax,%ecx
    ae6e:	d3 fa                	sar    %cl,%edx
    ae70:	89 d0                	mov    %edx,%eax
    ae72:	eb 04                	jmp    ae78 <safe_rshift_func_uint16_t_u_s+0x30>
    ae74:	0f b7 45 fc          	movzwl -0x4(%rbp),%eax
    ae78:	5d                   	pop    %rbp
    ae79:	c3                   	retq   

000000000000ae7a <safe_rshift_func_uint16_t_u_u>:
    ae7a:	f3 0f 1e fa          	endbr64 
    ae7e:	55                   	push   %rbp
    ae7f:	48 89 e5             	mov    %rsp,%rbp
    ae82:	89 f8                	mov    %edi,%eax
    ae84:	89 75 f8             	mov    %esi,-0x8(%rbp)
    ae87:	66 89 45 fc          	mov    %ax,-0x4(%rbp)
    ae8b:	83 7d f8 1f          	cmpl   $0x1f,-0x8(%rbp)
    ae8f:	77 0f                	ja     aea0 <safe_rshift_func_uint16_t_u_u+0x26>
    ae91:	0f b7 55 fc          	movzwl -0x4(%rbp),%edx
    ae95:	8b 45 f8             	mov    -0x8(%rbp),%eax
    ae98:	89 c1                	mov    %eax,%ecx
    ae9a:	d3 fa                	sar    %cl,%edx
    ae9c:	89 d0                	mov    %edx,%eax
    ae9e:	eb 04                	jmp    aea4 <safe_rshift_func_uint16_t_u_u+0x2a>
    aea0:	0f b7 45 fc          	movzwl -0x4(%rbp),%eax
    aea4:	5d                   	pop    %rbp
    aea5:	c3                   	retq   

000000000000aea6 <safe_unary_minus_func_uint32_t_u>:
    aea6:	f3 0f 1e fa          	endbr64 
    aeaa:	55                   	push   %rbp
    aeab:	48 89 e5             	mov    %rsp,%rbp
    aeae:	89 7d fc             	mov    %edi,-0x4(%rbp)
    aeb1:	8b 45 fc             	mov    -0x4(%rbp),%eax
    aeb4:	f7 d8                	neg    %eax
    aeb6:	5d                   	pop    %rbp
    aeb7:	c3                   	retq   

000000000000aeb8 <safe_add_func_uint32_t_u_u>:
    aeb8:	f3 0f 1e fa          	endbr64 
    aebc:	55                   	push   %rbp
    aebd:	48 89 e5             	mov    %rsp,%rbp
    aec0:	89 7d fc             	mov    %edi,-0x4(%rbp)
    aec3:	89 75 f8             	mov    %esi,-0x8(%rbp)
    aec6:	8b 55 fc             	mov    -0x4(%rbp),%edx
    aec9:	8b 45 f8             	mov    -0x8(%rbp),%eax
    aecc:	01 d0                	add    %edx,%eax
    aece:	5d                   	pop    %rbp
    aecf:	c3                   	retq   

000000000000aed0 <safe_sub_func_uint32_t_u_u>:
    aed0:	f3 0f 1e fa          	endbr64 
    aed4:	55                   	push   %rbp
    aed5:	48 89 e5             	mov    %rsp,%rbp
    aed8:	89 7d fc             	mov    %edi,-0x4(%rbp)
    aedb:	89 75 f8             	mov    %esi,-0x8(%rbp)
    aede:	8b 45 fc             	mov    -0x4(%rbp),%eax
    aee1:	2b 45 f8             	sub    -0x8(%rbp),%eax
    aee4:	5d                   	pop    %rbp
    aee5:	c3                   	retq   

000000000000aee6 <safe_mul_func_uint32_t_u_u>:
    aee6:	f3 0f 1e fa          	endbr64 
    aeea:	55                   	push   %rbp
    aeeb:	48 89 e5             	mov    %rsp,%rbp
    aeee:	89 7d fc             	mov    %edi,-0x4(%rbp)
    aef1:	89 75 f8             	mov    %esi,-0x8(%rbp)
    aef4:	8b 45 fc             	mov    -0x4(%rbp),%eax
    aef7:	0f af 45 f8          	imul   -0x8(%rbp),%eax
    aefb:	5d                   	pop    %rbp
    aefc:	c3                   	retq   

000000000000aefd <safe_mod_func_uint32_t_u_u>:
    aefd:	f3 0f 1e fa          	endbr64 
    af01:	55                   	push   %rbp
    af02:	48 89 e5             	mov    %rsp,%rbp
    af05:	89 7d fc             	mov    %edi,-0x4(%rbp)
    af08:	89 75 f8             	mov    %esi,-0x8(%rbp)
    af0b:	83 7d f8 00          	cmpl   $0x0,-0x8(%rbp)
    af0f:	74 0f                	je     af20 <safe_mod_func_uint32_t_u_u+0x23>
    af11:	8b 45 fc             	mov    -0x4(%rbp),%eax
    af14:	ba 00 00 00 00       	mov    $0x0,%edx
    af19:	f7 75 f8             	divl   -0x8(%rbp)
    af1c:	89 d0                	mov    %edx,%eax
    af1e:	eb 03                	jmp    af23 <safe_mod_func_uint32_t_u_u+0x26>
    af20:	8b 45 fc             	mov    -0x4(%rbp),%eax
    af23:	5d                   	pop    %rbp
    af24:	c3                   	retq   

000000000000af25 <safe_div_func_uint32_t_u_u>:
    af25:	f3 0f 1e fa          	endbr64 
    af29:	55                   	push   %rbp
    af2a:	48 89 e5             	mov    %rsp,%rbp
    af2d:	89 7d fc             	mov    %edi,-0x4(%rbp)
    af30:	89 75 f8             	mov    %esi,-0x8(%rbp)
    af33:	83 7d f8 00          	cmpl   $0x0,-0x8(%rbp)
    af37:	74 0d                	je     af46 <safe_div_func_uint32_t_u_u+0x21>
    af39:	8b 45 fc             	mov    -0x4(%rbp),%eax
    af3c:	ba 00 00 00 00       	mov    $0x0,%edx
    af41:	f7 75 f8             	divl   -0x8(%rbp)
    af44:	eb 03                	jmp    af49 <safe_div_func_uint32_t_u_u+0x24>
    af46:	8b 45 fc             	mov    -0x4(%rbp),%eax
    af49:	5d                   	pop    %rbp
    af4a:	c3                   	retq   

000000000000af4b <safe_lshift_func_uint32_t_u_s>:
    af4b:	f3 0f 1e fa          	endbr64 
    af4f:	55                   	push   %rbp
    af50:	48 89 e5             	mov    %rsp,%rbp
    af53:	89 7d fc             	mov    %edi,-0x4(%rbp)
    af56:	89 75 f8             	mov    %esi,-0x8(%rbp)
    af59:	83 7d f8 00          	cmpl   $0x0,-0x8(%rbp)
    af5d:	78 27                	js     af86 <safe_lshift_func_uint32_t_u_s+0x3b>
    af5f:	83 7d f8 1f          	cmpl   $0x1f,-0x8(%rbp)
    af63:	7f 21                	jg     af86 <safe_lshift_func_uint32_t_u_s+0x3b>
    af65:	8b 45 f8             	mov    -0x8(%rbp),%eax
    af68:	ba ff ff ff ff       	mov    $0xffffffff,%edx
    af6d:	89 c1                	mov    %eax,%ecx
    af6f:	d3 ea                	shr    %cl,%edx
    af71:	89 d0                	mov    %edx,%eax
    af73:	39 45 fc             	cmp    %eax,-0x4(%rbp)
    af76:	77 0e                	ja     af86 <safe_lshift_func_uint32_t_u_s+0x3b>
    af78:	8b 45 f8             	mov    -0x8(%rbp),%eax
    af7b:	8b 55 fc             	mov    -0x4(%rbp),%edx
    af7e:	89 c1                	mov    %eax,%ecx
    af80:	d3 e2                	shl    %cl,%edx
    af82:	89 d0                	mov    %edx,%eax
    af84:	eb 03                	jmp    af89 <safe_lshift_func_uint32_t_u_s+0x3e>
    af86:	8b 45 fc             	mov    -0x4(%rbp),%eax
    af89:	5d                   	pop    %rbp
    af8a:	c3                   	retq   

000000000000af8b <safe_lshift_func_uint32_t_u_u>:
    af8b:	f3 0f 1e fa          	endbr64 
    af8f:	55                   	push   %rbp
    af90:	48 89 e5             	mov    %rsp,%rbp
    af93:	89 7d fc             	mov    %edi,-0x4(%rbp)
    af96:	89 75 f8             	mov    %esi,-0x8(%rbp)
    af99:	83 7d f8 1f          	cmpl   $0x1f,-0x8(%rbp)
    af9d:	77 21                	ja     afc0 <safe_lshift_func_uint32_t_u_u+0x35>
    af9f:	8b 45 f8             	mov    -0x8(%rbp),%eax
    afa2:	ba ff ff ff ff       	mov    $0xffffffff,%edx
    afa7:	89 c1                	mov    %eax,%ecx
    afa9:	d3 ea                	shr    %cl,%edx
    afab:	89 d0                	mov    %edx,%eax
    afad:	39 45 fc             	cmp    %eax,-0x4(%rbp)
    afb0:	77 0e                	ja     afc0 <safe_lshift_func_uint32_t_u_u+0x35>
    afb2:	8b 45 f8             	mov    -0x8(%rbp),%eax
    afb5:	8b 55 fc             	mov    -0x4(%rbp),%edx
    afb8:	89 c1                	mov    %eax,%ecx
    afba:	d3 e2                	shl    %cl,%edx
    afbc:	89 d0                	mov    %edx,%eax
    afbe:	eb 03                	jmp    afc3 <safe_lshift_func_uint32_t_u_u+0x38>
    afc0:	8b 45 fc             	mov    -0x4(%rbp),%eax
    afc3:	5d                   	pop    %rbp
    afc4:	c3                   	retq   

000000000000afc5 <safe_rshift_func_uint32_t_u_s>:
    afc5:	f3 0f 1e fa          	endbr64 
    afc9:	55                   	push   %rbp
    afca:	48 89 e5             	mov    %rsp,%rbp
    afcd:	89 7d fc             	mov    %edi,-0x4(%rbp)
    afd0:	89 75 f8             	mov    %esi,-0x8(%rbp)
    afd3:	83 7d f8 00          	cmpl   $0x0,-0x8(%rbp)
    afd7:	78 14                	js     afed <safe_rshift_func_uint32_t_u_s+0x28>
    afd9:	83 7d f8 1f          	cmpl   $0x1f,-0x8(%rbp)
    afdd:	7f 0e                	jg     afed <safe_rshift_func_uint32_t_u_s+0x28>
    afdf:	8b 45 f8             	mov    -0x8(%rbp),%eax
    afe2:	8b 55 fc             	mov    -0x4(%rbp),%edx
    afe5:	89 c1                	mov    %eax,%ecx
    afe7:	d3 ea                	shr    %cl,%edx
    afe9:	89 d0                	mov    %edx,%eax
    afeb:	eb 03                	jmp    aff0 <safe_rshift_func_uint32_t_u_s+0x2b>
    afed:	8b 45 fc             	mov    -0x4(%rbp),%eax
    aff0:	5d                   	pop    %rbp
    aff1:	c3                   	retq   

000000000000aff2 <safe_rshift_func_uint32_t_u_u>:
    aff2:	f3 0f 1e fa          	endbr64 
    aff6:	55                   	push   %rbp
    aff7:	48 89 e5             	mov    %rsp,%rbp
    affa:	89 7d fc             	mov    %edi,-0x4(%rbp)
    affd:	89 75 f8             	mov    %esi,-0x8(%rbp)
    b000:	83 7d f8 1f          	cmpl   $0x1f,-0x8(%rbp)
    b004:	77 0e                	ja     b014 <safe_rshift_func_uint32_t_u_u+0x22>
    b006:	8b 45 f8             	mov    -0x8(%rbp),%eax
    b009:	8b 55 fc             	mov    -0x4(%rbp),%edx
    b00c:	89 c1                	mov    %eax,%ecx
    b00e:	d3 ea                	shr    %cl,%edx
    b010:	89 d0                	mov    %edx,%eax
    b012:	eb 03                	jmp    b017 <safe_rshift_func_uint32_t_u_u+0x25>
    b014:	8b 45 fc             	mov    -0x4(%rbp),%eax
    b017:	5d                   	pop    %rbp
    b018:	c3                   	retq   

000000000000b019 <safe_unary_minus_func_uint64_t_u>:
    b019:	f3 0f 1e fa          	endbr64 
    b01d:	55                   	push   %rbp
    b01e:	48 89 e5             	mov    %rsp,%rbp
    b021:	48 89 7d f8          	mov    %rdi,-0x8(%rbp)
    b025:	48 8b 45 f8          	mov    -0x8(%rbp),%rax
    b029:	48 f7 d8             	neg    %rax
    b02c:	5d                   	pop    %rbp
    b02d:	c3                   	retq   

000000000000b02e <safe_add_func_uint64_t_u_u>:
    b02e:	f3 0f 1e fa          	endbr64 
    b032:	55                   	push   %rbp
    b033:	48 89 e5             	mov    %rsp,%rbp
    b036:	48 89 7d f8          	mov    %rdi,-0x8(%rbp)
    b03a:	48 89 75 f0          	mov    %rsi,-0x10(%rbp)
    b03e:	48 8b 55 f8          	mov    -0x8(%rbp),%rdx
    b042:	48 8b 45 f0          	mov    -0x10(%rbp),%rax
    b046:	48 01 d0             	add    %rdx,%rax
    b049:	5d                   	pop    %rbp
    b04a:	c3                   	retq   

000000000000b04b <safe_sub_func_uint64_t_u_u>:
    b04b:	f3 0f 1e fa          	endbr64 
    b04f:	55                   	push   %rbp
    b050:	48 89 e5             	mov    %rsp,%rbp
    b053:	48 89 7d f8          	mov    %rdi,-0x8(%rbp)
    b057:	48 89 75 f0          	mov    %rsi,-0x10(%rbp)
    b05b:	48 8b 45 f8          	mov    -0x8(%rbp),%rax
    b05f:	48 2b 45 f0          	sub    -0x10(%rbp),%rax
    b063:	5d                   	pop    %rbp
    b064:	c3                   	retq   

000000000000b065 <safe_mul_func_uint64_t_u_u>:
    b065:	f3 0f 1e fa          	endbr64 
    b069:	55                   	push   %rbp
    b06a:	48 89 e5             	mov    %rsp,%rbp
    b06d:	48 89 7d f8          	mov    %rdi,-0x8(%rbp)
    b071:	48 89 75 f0          	mov    %rsi,-0x10(%rbp)
    b075:	48 8b 45 f8          	mov    -0x8(%rbp),%rax
    b079:	48 0f af 45 f0       	imul   -0x10(%rbp),%rax
    b07e:	5d                   	pop    %rbp
    b07f:	c3                   	retq   

000000000000b080 <safe_mod_func_uint64_t_u_u>:
    b080:	f3 0f 1e fa          	endbr64 
    b084:	55                   	push   %rbp
    b085:	48 89 e5             	mov    %rsp,%rbp
    b088:	48 89 7d f8          	mov    %rdi,-0x8(%rbp)
    b08c:	48 89 75 f0          	mov    %rsi,-0x10(%rbp)
    b090:	48 83 7d f0 00       	cmpq   $0x0,-0x10(%rbp)
    b095:	74 12                	je     b0a9 <safe_mod_func_uint64_t_u_u+0x29>
    b097:	48 8b 45 f8          	mov    -0x8(%rbp),%rax
    b09b:	ba 00 00 00 00       	mov    $0x0,%edx
    b0a0:	48 f7 75 f0          	divq   -0x10(%rbp)
    b0a4:	48 89 d0             	mov    %rdx,%rax
    b0a7:	eb 04                	jmp    b0ad <safe_mod_func_uint64_t_u_u+0x2d>
    b0a9:	48 8b 45 f8          	mov    -0x8(%rbp),%rax
    b0ad:	5d                   	pop    %rbp
    b0ae:	c3                   	retq   

000000000000b0af <safe_div_func_uint64_t_u_u>:
    b0af:	f3 0f 1e fa          	endbr64 
    b0b3:	55                   	push   %rbp
    b0b4:	48 89 e5             	mov    %rsp,%rbp
    b0b7:	48 89 7d f8          	mov    %rdi,-0x8(%rbp)
    b0bb:	48 89 75 f0          	mov    %rsi,-0x10(%rbp)
    b0bf:	48 83 7d f0 00       	cmpq   $0x0,-0x10(%rbp)
    b0c4:	74 0f                	je     b0d5 <safe_div_func_uint64_t_u_u+0x26>
    b0c6:	48 8b 45 f8          	mov    -0x8(%rbp),%rax
    b0ca:	ba 00 00 00 00       	mov    $0x0,%edx
    b0cf:	48 f7 75 f0          	divq   -0x10(%rbp)
    b0d3:	eb 04                	jmp    b0d9 <safe_div_func_uint64_t_u_u+0x2a>
    b0d5:	48 8b 45 f8          	mov    -0x8(%rbp),%rax
    b0d9:	5d                   	pop    %rbp
    b0da:	c3                   	retq   

000000000000b0db <safe_lshift_func_uint64_t_u_s>:
    b0db:	f3 0f 1e fa          	endbr64 
    b0df:	55                   	push   %rbp
    b0e0:	48 89 e5             	mov    %rsp,%rbp
    b0e3:	48 89 7d f8          	mov    %rdi,-0x8(%rbp)
    b0e7:	89 75 f4             	mov    %esi,-0xc(%rbp)
    b0ea:	83 7d f4 00          	cmpl   $0x0,-0xc(%rbp)
    b0ee:	78 2f                	js     b11f <safe_lshift_func_uint64_t_u_s+0x44>
    b0f0:	83 7d f4 1f          	cmpl   $0x1f,-0xc(%rbp)
    b0f4:	7f 29                	jg     b11f <safe_lshift_func_uint64_t_u_s+0x44>
    b0f6:	8b 45 f4             	mov    -0xc(%rbp),%eax
    b0f9:	48 c7 c2 ff ff ff ff 	mov    $0xffffffffffffffff,%rdx
    b100:	89 c1                	mov    %eax,%ecx
    b102:	48 d3 ea             	shr    %cl,%rdx
    b105:	48 89 d0             	mov    %rdx,%rax
    b108:	48 39 45 f8          	cmp    %rax,-0x8(%rbp)
    b10c:	77 11                	ja     b11f <safe_lshift_func_uint64_t_u_s+0x44>
    b10e:	8b 45 f4             	mov    -0xc(%rbp),%eax
    b111:	48 8b 55 f8          	mov    -0x8(%rbp),%rdx
    b115:	89 c1                	mov    %eax,%ecx
    b117:	48 d3 e2             	shl    %cl,%rdx
    b11a:	48 89 d0             	mov    %rdx,%rax
    b11d:	eb 04                	jmp    b123 <safe_lshift_func_uint64_t_u_s+0x48>
    b11f:	48 8b 45 f8          	mov    -0x8(%rbp),%rax
    b123:	5d                   	pop    %rbp
    b124:	c3                   	retq   

000000000000b125 <safe_lshift_func_uint64_t_u_u>:
    b125:	f3 0f 1e fa          	endbr64 
    b129:	55                   	push   %rbp
    b12a:	48 89 e5             	mov    %rsp,%rbp
    b12d:	48 89 7d f8          	mov    %rdi,-0x8(%rbp)
    b131:	89 75 f4             	mov    %esi,-0xc(%rbp)
    b134:	83 7d f4 1f          	cmpl   $0x1f,-0xc(%rbp)
    b138:	77 29                	ja     b163 <safe_lshift_func_uint64_t_u_u+0x3e>
    b13a:	8b 45 f4             	mov    -0xc(%rbp),%eax
    b13d:	48 c7 c2 ff ff ff ff 	mov    $0xffffffffffffffff,%rdx
    b144:	89 c1                	mov    %eax,%ecx
    b146:	48 d3 ea             	shr    %cl,%rdx
    b149:	48 89 d0             	mov    %rdx,%rax
    b14c:	48 39 45 f8          	cmp    %rax,-0x8(%rbp)
    b150:	77 11                	ja     b163 <safe_lshift_func_uint64_t_u_u+0x3e>
    b152:	8b 45 f4             	mov    -0xc(%rbp),%eax
    b155:	48 8b 55 f8          	mov    -0x8(%rbp),%rdx
    b159:	89 c1                	mov    %eax,%ecx
    b15b:	48 d3 e2             	shl    %cl,%rdx
    b15e:	48 89 d0             	mov    %rdx,%rax
    b161:	eb 04                	jmp    b167 <safe_lshift_func_uint64_t_u_u+0x42>
    b163:	48 8b 45 f8          	mov    -0x8(%rbp),%rax
    b167:	5d                   	pop    %rbp
    b168:	c3                   	retq   

000000000000b169 <safe_rshift_func_uint64_t_u_s>:
    b169:	f3 0f 1e fa          	endbr64 
    b16d:	55                   	push   %rbp
    b16e:	48 89 e5             	mov    %rsp,%rbp
    b171:	48 89 7d f8          	mov    %rdi,-0x8(%rbp)
    b175:	89 75 f4             	mov    %esi,-0xc(%rbp)
    b178:	83 7d f4 00          	cmpl   $0x0,-0xc(%rbp)
    b17c:	78 17                	js     b195 <safe_rshift_func_uint64_t_u_s+0x2c>
    b17e:	83 7d f4 1f          	cmpl   $0x1f,-0xc(%rbp)
    b182:	7f 11                	jg     b195 <safe_rshift_func_uint64_t_u_s+0x2c>
    b184:	8b 45 f4             	mov    -0xc(%rbp),%eax
    b187:	48 8b 55 f8          	mov    -0x8(%rbp),%rdx
    b18b:	89 c1                	mov    %eax,%ecx
    b18d:	48 d3 ea             	shr    %cl,%rdx
    b190:	48 89 d0             	mov    %rdx,%rax
    b193:	eb 04                	jmp    b199 <safe_rshift_func_uint64_t_u_s+0x30>
    b195:	48 8b 45 f8          	mov    -0x8(%rbp),%rax
    b199:	5d                   	pop    %rbp
    b19a:	c3                   	retq   

000000000000b19b <safe_rshift_func_uint64_t_u_u>:
    b19b:	f3 0f 1e fa          	endbr64 
    b19f:	55                   	push   %rbp
    b1a0:	48 89 e5             	mov    %rsp,%rbp
    b1a3:	48 89 7d f8          	mov    %rdi,-0x8(%rbp)
    b1a7:	89 75 f4             	mov    %esi,-0xc(%rbp)
    b1aa:	83 7d f4 1f          	cmpl   $0x1f,-0xc(%rbp)
    b1ae:	77 11                	ja     b1c1 <safe_rshift_func_uint64_t_u_u+0x26>
    b1b0:	8b 45 f4             	mov    -0xc(%rbp),%eax
    b1b3:	48 8b 55 f8          	mov    -0x8(%rbp),%rdx
    b1b7:	89 c1                	mov    %eax,%ecx
    b1b9:	48 d3 ea             	shr    %cl,%rdx
    b1bc:	48 89 d0             	mov    %rdx,%rax
    b1bf:	eb 04                	jmp    b1c5 <safe_rshift_func_uint64_t_u_u+0x2a>
    b1c1:	48 8b 45 f8          	mov    -0x8(%rbp),%rax
    b1c5:	5d                   	pop    %rbp
    b1c6:	c3                   	retq   

000000000000b1c7 <safe_add_func_float_f_f>:
    b1c7:	f3 0f 1e fa          	endbr64 
    b1cb:	55                   	push   %rbp
    b1cc:	48 89 e5             	mov    %rsp,%rbp
    b1cf:	f3 0f 11 45 fc       	movss  %xmm0,-0x4(%rbp)
    b1d4:	f3 0f 11 4d f8       	movss  %xmm1,-0x8(%rbp)
    b1d9:	f3 0f 10 4d fc       	movss  -0x4(%rbp),%xmm1
    b1de:	f3 0f 10 05 d2 11 01 	movss  0x111d2(%rip),%xmm0        # 1c3b8 <l_1928.4707+0x78>
    b1e5:	00 
    b1e6:	f3 0f 59 c8          	mulss  %xmm0,%xmm1
    b1ea:	f3 0f 10 55 f8       	movss  -0x8(%rbp),%xmm2
    b1ef:	f3 0f 10 05 c1 11 01 	movss  0x111c1(%rip),%xmm0        # 1c3b8 <l_1928.4707+0x78>
    b1f6:	00 
    b1f7:	f3 0f 59 c2          	mulss  %xmm2,%xmm0
    b1fb:	f3 0f 58 c1          	addss  %xmm1,%xmm0
    b1ff:	f3 0f 10 0d b9 11 01 	movss  0x111b9(%rip),%xmm1        # 1c3c0 <l_1928.4707+0x80>
    b206:	00 
    b207:	0f 54 c1             	andps  %xmm1,%xmm0
    b20a:	0f 2f 05 bf 11 01 00 	comiss 0x111bf(%rip),%xmm0        # 1c3d0 <l_1928.4707+0x90>
    b211:	76 07                	jbe    b21a <safe_add_func_float_f_f+0x53>
    b213:	f3 0f 10 45 fc       	movss  -0x4(%rbp),%xmm0
    b218:	eb 0a                	jmp    b224 <safe_add_func_float_f_f+0x5d>
    b21a:	f3 0f 10 45 fc       	movss  -0x4(%rbp),%xmm0
    b21f:	f3 0f 58 45 f8       	addss  -0x8(%rbp),%xmm0
    b224:	5d                   	pop    %rbp
    b225:	c3                   	retq   

000000000000b226 <safe_sub_func_float_f_f>:
    b226:	f3 0f 1e fa          	endbr64 
    b22a:	55                   	push   %rbp
    b22b:	48 89 e5             	mov    %rsp,%rbp
    b22e:	f3 0f 11 45 fc       	movss  %xmm0,-0x4(%rbp)
    b233:	f3 0f 11 4d f8       	movss  %xmm1,-0x8(%rbp)
    b238:	f3 0f 10 4d fc       	movss  -0x4(%rbp),%xmm1
    b23d:	f3 0f 10 05 73 11 01 	movss  0x11173(%rip),%xmm0        # 1c3b8 <l_1928.4707+0x78>
    b244:	00 
    b245:	f3 0f 59 c1          	mulss  %xmm1,%xmm0
    b249:	f3 0f 10 55 f8       	movss  -0x8(%rbp),%xmm2
    b24e:	f3 0f 10 0d 62 11 01 	movss  0x11162(%rip),%xmm1        # 1c3b8 <l_1928.4707+0x78>
    b255:	00 
    b256:	f3 0f 59 ca          	mulss  %xmm2,%xmm1
    b25a:	f3 0f 5c c1          	subss  %xmm1,%xmm0
    b25e:	f3 0f 10 0d 5a 11 01 	movss  0x1115a(%rip),%xmm1        # 1c3c0 <l_1928.4707+0x80>
    b265:	00 
    b266:	0f 54 c1             	andps  %xmm1,%xmm0
    b269:	0f 2f 05 60 11 01 00 	comiss 0x11160(%rip),%xmm0        # 1c3d0 <l_1928.4707+0x90>
    b270:	76 07                	jbe    b279 <safe_sub_func_float_f_f+0x53>
    b272:	f3 0f 10 45 fc       	movss  -0x4(%rbp),%xmm0
    b277:	eb 0a                	jmp    b283 <safe_sub_func_float_f_f+0x5d>
    b279:	f3 0f 10 45 fc       	movss  -0x4(%rbp),%xmm0
    b27e:	f3 0f 5c 45 f8       	subss  -0x8(%rbp),%xmm0
    b283:	5d                   	pop    %rbp
    b284:	c3                   	retq   

000000000000b285 <safe_mul_func_float_f_f>:
    b285:	f3 0f 1e fa          	endbr64 
    b289:	55                   	push   %rbp
    b28a:	48 89 e5             	mov    %rsp,%rbp
    b28d:	f3 0f 11 45 fc       	movss  %xmm0,-0x4(%rbp)
    b292:	f3 0f 11 4d f8       	movss  %xmm1,-0x8(%rbp)
    b297:	f3 0f 10 4d fc       	movss  -0x4(%rbp),%xmm1
    b29c:	f3 0f 10 05 30 11 01 	movss  0x11130(%rip),%xmm0        # 1c3d4 <l_1928.4707+0x94>
    b2a3:	00 
    b2a4:	f3 0f 59 c8          	mulss  %xmm0,%xmm1
    b2a8:	f3 0f 10 55 f8       	movss  -0x8(%rbp),%xmm2
    b2ad:	f3 0f 10 05 23 11 01 	movss  0x11123(%rip),%xmm0        # 1c3d8 <l_1928.4707+0x98>
    b2b4:	00 
    b2b5:	f3 0f 59 c2          	mulss  %xmm2,%xmm0
    b2b9:	f3 0f 59 c1          	mulss  %xmm1,%xmm0
    b2bd:	f3 0f 10 0d fb 10 01 	movss  0x110fb(%rip),%xmm1        # 1c3c0 <l_1928.4707+0x80>
    b2c4:	00 
    b2c5:	0f 54 c1             	andps  %xmm1,%xmm0
    b2c8:	0f 2f 05 0d 11 01 00 	comiss 0x1110d(%rip),%xmm0        # 1c3dc <l_1928.4707+0x9c>
    b2cf:	76 07                	jbe    b2d8 <safe_mul_func_float_f_f+0x53>
    b2d1:	f3 0f 10 45 fc       	movss  -0x4(%rbp),%xmm0
    b2d6:	eb 0a                	jmp    b2e2 <safe_mul_func_float_f_f+0x5d>
    b2d8:	f3 0f 10 45 fc       	movss  -0x4(%rbp),%xmm0
    b2dd:	f3 0f 59 45 f8       	mulss  -0x8(%rbp),%xmm0
    b2e2:	5d                   	pop    %rbp
    b2e3:	c3                   	retq   

000000000000b2e4 <safe_div_func_float_f_f>:
    b2e4:	f3 0f 1e fa          	endbr64 
    b2e8:	55                   	push   %rbp
    b2e9:	48 89 e5             	mov    %rsp,%rbp
    b2ec:	f3 0f 11 45 fc       	movss  %xmm0,-0x4(%rbp)
    b2f1:	f3 0f 11 4d f8       	movss  %xmm1,-0x8(%rbp)
    b2f6:	f3 0f 10 45 f8       	movss  -0x8(%rbp),%xmm0
    b2fb:	f3 0f 10 0d bd 10 01 	movss  0x110bd(%rip),%xmm1        # 1c3c0 <l_1928.4707+0x80>
    b302:	00 
    b303:	0f 54 c8             	andps  %xmm0,%xmm1
    b306:	f3 0f 10 05 d2 10 01 	movss  0x110d2(%rip),%xmm0        # 1c3e0 <l_1928.4707+0xa0>
    b30d:	00 
    b30e:	0f 2f c1             	comiss %xmm1,%xmm0
    b311:	0f 97 c0             	seta   %al
    b314:	83 f0 01             	xor    $0x1,%eax
    b317:	84 c0                	test   %al,%al
    b319:	75 56                	jne    b371 <safe_div_func_float_f_f+0x8d>
    b31b:	66 0f ef c0          	pxor   %xmm0,%xmm0
    b31f:	0f 2e 45 f8          	ucomiss -0x8(%rbp),%xmm0
    b323:	7a 0a                	jp     b32f <safe_div_func_float_f_f+0x4b>
    b325:	66 0f ef c0          	pxor   %xmm0,%xmm0
    b329:	0f 2e 45 f8          	ucomiss -0x8(%rbp),%xmm0
    b32d:	74 4e                	je     b37d <safe_div_func_float_f_f+0x99>
    b32f:	f3 0f 10 4d fc       	movss  -0x4(%rbp),%xmm1
    b334:	f3 0f 10 05 a8 10 01 	movss  0x110a8(%rip),%xmm0        # 1c3e4 <l_1928.4707+0xa4>
    b33b:	00 
    b33c:	f3 0f 59 c1          	mulss  %xmm1,%xmm0
    b340:	f3 0f 10 55 f8       	movss  -0x8(%rbp),%xmm2
    b345:	f3 0f 10 0d 9b 10 01 	movss  0x1109b(%rip),%xmm1        # 1c3e8 <l_1928.4707+0xa8>
    b34c:	00 
    b34d:	f3 0f 59 ca          	mulss  %xmm2,%xmm1
    b351:	f3 0f 5e c1          	divss  %xmm1,%xmm0
    b355:	f3 0f 10 0d 63 10 01 	movss  0x11063(%rip),%xmm1        # 1c3c0 <l_1928.4707+0x80>
    b35c:	00 
    b35d:	0f 54 c1             	andps  %xmm1,%xmm0
    b360:	0f 2f 05 85 10 01 00 	comiss 0x11085(%rip),%xmm0        # 1c3ec <l_1928.4707+0xac>
    b367:	0f 97 c0             	seta   %al
    b36a:	83 f0 01             	xor    $0x1,%eax
    b36d:	84 c0                	test   %al,%al
    b36f:	74 0c                	je     b37d <safe_div_func_float_f_f+0x99>
    b371:	f3 0f 10 45 fc       	movss  -0x4(%rbp),%xmm0
    b376:	f3 0f 5e 45 f8       	divss  -0x8(%rbp),%xmm0
    b37b:	eb 05                	jmp    b382 <safe_div_func_float_f_f+0x9e>
    b37d:	f3 0f 10 45 fc       	movss  -0x4(%rbp),%xmm0
    b382:	5d                   	pop    %rbp
    b383:	c3                   	retq   

000000000000b384 <safe_add_func_double_f_f>:
    b384:	f3 0f 1e fa          	endbr64 
    b388:	55                   	push   %rbp
    b389:	48 89 e5             	mov    %rsp,%rbp
    b38c:	f2 0f 11 45 f8       	movsd  %xmm0,-0x8(%rbp)
    b391:	f2 0f 11 4d f0       	movsd  %xmm1,-0x10(%rbp)
    b396:	f2 0f 10 4d f8       	movsd  -0x8(%rbp),%xmm1
    b39b:	f2 0f 10 05 4d 10 01 	movsd  0x1104d(%rip),%xmm0        # 1c3f0 <l_1928.4707+0xb0>
    b3a2:	00 
    b3a3:	f2 0f 59 c8          	mulsd  %xmm0,%xmm1
    b3a7:	f2 0f 10 55 f0       	movsd  -0x10(%rbp),%xmm2
    b3ac:	f2 0f 10 05 3c 10 01 	movsd  0x1103c(%rip),%xmm0        # 1c3f0 <l_1928.4707+0xb0>
    b3b3:	00 
    b3b4:	f2 0f 59 c2          	mulsd  %xmm2,%xmm0
    b3b8:	f2 0f 58 c1          	addsd  %xmm1,%xmm0
    b3bc:	f3 0f 7e 0d 3c 10 01 	movq   0x1103c(%rip),%xmm1        # 1c400 <l_1928.4707+0xc0>
    b3c3:	00 
    b3c4:	66 0f 54 c1          	andpd  %xmm1,%xmm0
    b3c8:	66 0f 2f 05 40 10 01 	comisd 0x11040(%rip),%xmm0        # 1c410 <l_1928.4707+0xd0>
    b3cf:	00 
    b3d0:	76 07                	jbe    b3d9 <safe_add_func_double_f_f+0x55>
    b3d2:	f2 0f 10 45 f8       	movsd  -0x8(%rbp),%xmm0
    b3d7:	eb 0a                	jmp    b3e3 <safe_add_func_double_f_f+0x5f>
    b3d9:	f2 0f 10 45 f8       	movsd  -0x8(%rbp),%xmm0
    b3de:	f2 0f 58 45 f0       	addsd  -0x10(%rbp),%xmm0
    b3e3:	5d                   	pop    %rbp
    b3e4:	c3                   	retq   

000000000000b3e5 <safe_sub_func_double_f_f>:
    b3e5:	f3 0f 1e fa          	endbr64 
    b3e9:	55                   	push   %rbp
    b3ea:	48 89 e5             	mov    %rsp,%rbp
    b3ed:	f2 0f 11 45 f8       	movsd  %xmm0,-0x8(%rbp)
    b3f2:	f2 0f 11 4d f0       	movsd  %xmm1,-0x10(%rbp)
    b3f7:	f2 0f 10 4d f8       	movsd  -0x8(%rbp),%xmm1
    b3fc:	f2 0f 10 05 ec 0f 01 	movsd  0x10fec(%rip),%xmm0        # 1c3f0 <l_1928.4707+0xb0>
    b403:	00 
    b404:	f2 0f 59 c1          	mulsd  %xmm1,%xmm0
    b408:	f2 0f 10 55 f0       	movsd  -0x10(%rbp),%xmm2
    b40d:	f2 0f 10 0d db 0f 01 	movsd  0x10fdb(%rip),%xmm1        # 1c3f0 <l_1928.4707+0xb0>
    b414:	00 
    b415:	f2 0f 59 ca          	mulsd  %xmm2,%xmm1
    b419:	f2 0f 5c c1          	subsd  %xmm1,%xmm0
    b41d:	f3 0f 7e 0d db 0f 01 	movq   0x10fdb(%rip),%xmm1        # 1c400 <l_1928.4707+0xc0>
    b424:	00 
    b425:	66 0f 54 c1          	andpd  %xmm1,%xmm0
    b429:	66 0f 2f 05 df 0f 01 	comisd 0x10fdf(%rip),%xmm0        # 1c410 <l_1928.4707+0xd0>
    b430:	00 
    b431:	76 07                	jbe    b43a <safe_sub_func_double_f_f+0x55>
    b433:	f2 0f 10 45 f8       	movsd  -0x8(%rbp),%xmm0
    b438:	eb 0a                	jmp    b444 <safe_sub_func_double_f_f+0x5f>
    b43a:	f2 0f 10 45 f8       	movsd  -0x8(%rbp),%xmm0
    b43f:	f2 0f 5c 45 f0       	subsd  -0x10(%rbp),%xmm0
    b444:	5d                   	pop    %rbp
    b445:	c3                   	retq   

000000000000b446 <safe_mul_func_double_f_f>:
    b446:	f3 0f 1e fa          	endbr64 
    b44a:	55                   	push   %rbp
    b44b:	48 89 e5             	mov    %rsp,%rbp
    b44e:	f2 0f 11 45 f8       	movsd  %xmm0,-0x8(%rbp)
    b453:	f2 0f 11 4d f0       	movsd  %xmm1,-0x10(%rbp)
    b458:	f2 0f 10 4d f8       	movsd  -0x8(%rbp),%xmm1
    b45d:	f2 0f 10 05 b3 0f 01 	movsd  0x10fb3(%rip),%xmm0        # 1c418 <l_1928.4707+0xd8>
    b464:	00 
    b465:	f2 0f 59 c8          	mulsd  %xmm0,%xmm1
    b469:	f2 0f 10 55 f0       	movsd  -0x10(%rbp),%xmm2
    b46e:	f2 0f 10 05 aa 0f 01 	movsd  0x10faa(%rip),%xmm0        # 1c420 <l_1928.4707+0xe0>
    b475:	00 
    b476:	f2 0f 59 c2          	mulsd  %xmm2,%xmm0
    b47a:	f2 0f 59 c1          	mulsd  %xmm1,%xmm0
    b47e:	f3 0f 7e 0d 7a 0f 01 	movq   0x10f7a(%rip),%xmm1        # 1c400 <l_1928.4707+0xc0>
    b485:	00 
    b486:	66 0f 54 c1          	andpd  %xmm1,%xmm0
    b48a:	66 0f 2f 05 96 0f 01 	comisd 0x10f96(%rip),%xmm0        # 1c428 <l_1928.4707+0xe8>
    b491:	00 
    b492:	76 07                	jbe    b49b <safe_mul_func_double_f_f+0x55>
    b494:	f2 0f 10 45 f8       	movsd  -0x8(%rbp),%xmm0
    b499:	eb 0a                	jmp    b4a5 <safe_mul_func_double_f_f+0x5f>
    b49b:	f2 0f 10 45 f8       	movsd  -0x8(%rbp),%xmm0
    b4a0:	f2 0f 59 45 f0       	mulsd  -0x10(%rbp),%xmm0
    b4a5:	5d                   	pop    %rbp
    b4a6:	c3                   	retq   

000000000000b4a7 <safe_div_func_double_f_f>:
    b4a7:	f3 0f 1e fa          	endbr64 
    b4ab:	55                   	push   %rbp
    b4ac:	48 89 e5             	mov    %rsp,%rbp
    b4af:	f2 0f 11 45 f8       	movsd  %xmm0,-0x8(%rbp)
    b4b4:	f2 0f 11 4d f0       	movsd  %xmm1,-0x10(%rbp)
    b4b9:	f2 0f 10 45 f0       	movsd  -0x10(%rbp),%xmm0
    b4be:	f3 0f 7e 0d 3a 0f 01 	movq   0x10f3a(%rip),%xmm1        # 1c400 <l_1928.4707+0xc0>
    b4c5:	00 
    b4c6:	66 0f 54 c8          	andpd  %xmm0,%xmm1
    b4ca:	f2 0f 10 05 5e 0f 01 	movsd  0x10f5e(%rip),%xmm0        # 1c430 <l_1928.4707+0xf0>
    b4d1:	00 
    b4d2:	66 0f 2f c1          	comisd %xmm1,%xmm0
    b4d6:	0f 97 c0             	seta   %al
    b4d9:	83 f0 01             	xor    $0x1,%eax
    b4dc:	84 c0                	test   %al,%al
    b4de:	75 5a                	jne    b53a <safe_div_func_double_f_f+0x93>
    b4e0:	66 0f ef c0          	pxor   %xmm0,%xmm0
    b4e4:	66 0f 2e 45 f0       	ucomisd -0x10(%rbp),%xmm0
    b4e9:	7a 0b                	jp     b4f6 <safe_div_func_double_f_f+0x4f>
    b4eb:	66 0f ef c0          	pxor   %xmm0,%xmm0
    b4ef:	66 0f 2e 45 f0       	ucomisd -0x10(%rbp),%xmm0
    b4f4:	74 50                	je     b546 <safe_div_func_double_f_f+0x9f>
    b4f6:	f2 0f 10 4d f8       	movsd  -0x8(%rbp),%xmm1
    b4fb:	f2 0f 10 05 35 0f 01 	movsd  0x10f35(%rip),%xmm0        # 1c438 <l_1928.4707+0xf8>
    b502:	00 
    b503:	f2 0f 59 c1          	mulsd  %xmm1,%xmm0
    b507:	f2 0f 10 55 f0       	movsd  -0x10(%rbp),%xmm2
    b50c:	f2 0f 10 0d 2c 0f 01 	movsd  0x10f2c(%rip),%xmm1        # 1c440 <l_1928.4707+0x100>
    b513:	00 
    b514:	f2 0f 59 ca          	mulsd  %xmm2,%xmm1
    b518:	f2 0f 5e c1          	divsd  %xmm1,%xmm0
    b51c:	f3 0f 7e 0d dc 0e 01 	movq   0x10edc(%rip),%xmm1        # 1c400 <l_1928.4707+0xc0>
    b523:	00 
    b524:	66 0f 54 c1          	andpd  %xmm1,%xmm0
    b528:	66 0f 2f 05 18 0f 01 	comisd 0x10f18(%rip),%xmm0        # 1c448 <l_1928.4707+0x108>
    b52f:	00 
    b530:	0f 97 c0             	seta   %al
    b533:	83 f0 01             	xor    $0x1,%eax
    b536:	84 c0                	test   %al,%al
    b538:	74 0c                	je     b546 <safe_div_func_double_f_f+0x9f>
    b53a:	f2 0f 10 45 f8       	movsd  -0x8(%rbp),%xmm0
    b53f:	f2 0f 5e 45 f0       	divsd  -0x10(%rbp),%xmm0
    b544:	eb 05                	jmp    b54b <safe_div_func_double_f_f+0xa4>
    b546:	f2 0f 10 45 f8       	movsd  -0x8(%rbp),%xmm0
    b54b:	5d                   	pop    %rbp
    b54c:	c3                   	retq   

000000000000b54d <safe_convert_func_float_to_int32_t>:
    b54d:	f3 0f 1e fa          	endbr64 
    b551:	55                   	push   %rbp
    b552:	48 89 e5             	mov    %rsp,%rbp
    b555:	f3 0f 11 45 fc       	movss  %xmm0,-0x4(%rbp)
    b55a:	f3 0f 10 05 ee 0e 01 	movss  0x10eee(%rip),%xmm0        # 1c450 <l_1928.4707+0x110>
    b561:	00 
    b562:	0f 2f 45 fc          	comiss -0x4(%rbp),%xmm0
    b566:	0f 93 c0             	setae  %al
    b569:	83 f0 01             	xor    $0x1,%eax
    b56c:	84 c0                	test   %al,%al
    b56e:	74 21                	je     b591 <safe_convert_func_float_to_int32_t+0x44>
    b570:	f3 0f 10 45 fc       	movss  -0x4(%rbp),%xmm0
    b575:	0f 2f 05 d8 0e 01 00 	comiss 0x10ed8(%rip),%xmm0        # 1c454 <l_1928.4707+0x114>
    b57c:	0f 93 c0             	setae  %al
    b57f:	83 f0 01             	xor    $0x1,%eax
    b582:	84 c0                	test   %al,%al
    b584:	74 0b                	je     b591 <safe_convert_func_float_to_int32_t+0x44>
    b586:	f3 0f 10 45 fc       	movss  -0x4(%rbp),%xmm0
    b58b:	f3 0f 2c c0          	cvttss2si %xmm0,%eax
    b58f:	eb 05                	jmp    b596 <safe_convert_func_float_to_int32_t+0x49>
    b591:	b8 ff ff ff 7f       	mov    $0x7fffffff,%eax
    b596:	5d                   	pop    %rbp
    b597:	c3                   	retq   

000000000000b598 <crc32_gentab>:
    b598:	f3 0f 1e fa          	endbr64 
    b59c:	55                   	push   %rbp
    b59d:	48 89 e5             	mov    %rsp,%rbp
    b5a0:	c7 45 fc 20 83 b8 ed 	movl   $0xedb88320,-0x4(%rbp)
    b5a7:	c7 45 f4 00 00 00 00 	movl   $0x0,-0xc(%rbp)
    b5ae:	eb 51                	jmp    b601 <crc32_gentab+0x69>
    b5b0:	8b 45 f4             	mov    -0xc(%rbp),%eax
    b5b3:	89 45 f0             	mov    %eax,-0x10(%rbp)
    b5b6:	c7 45 f8 08 00 00 00 	movl   $0x8,-0x8(%rbp)
    b5bd:	eb 1e                	jmp    b5dd <crc32_gentab+0x45>
    b5bf:	8b 45 f0             	mov    -0x10(%rbp),%eax
    b5c2:	83 e0 01             	and    $0x1,%eax
    b5c5:	85 c0                	test   %eax,%eax
    b5c7:	74 0d                	je     b5d6 <crc32_gentab+0x3e>
    b5c9:	8b 45 f0             	mov    -0x10(%rbp),%eax
    b5cc:	d1 e8                	shr    %eax
    b5ce:	33 45 fc             	xor    -0x4(%rbp),%eax
    b5d1:	89 45 f0             	mov    %eax,-0x10(%rbp)
    b5d4:	eb 03                	jmp    b5d9 <crc32_gentab+0x41>
    b5d6:	d1 6d f0             	shrl   -0x10(%rbp)
    b5d9:	83 6d f8 01          	subl   $0x1,-0x8(%rbp)
    b5dd:	83 7d f8 00          	cmpl   $0x0,-0x8(%rbp)
    b5e1:	7f dc                	jg     b5bf <crc32_gentab+0x27>
    b5e3:	8b 45 f4             	mov    -0xc(%rbp),%eax
    b5e6:	48 98                	cltq   
    b5e8:	48 8d 0c 85 00 00 00 	lea    0x0(,%rax,4),%rcx
    b5ef:	00 
    b5f0:	48 8d 15 a9 77 01 00 	lea    0x177a9(%rip),%rdx        # 22da0 <crc32_tab>
    b5f7:	8b 45 f0             	mov    -0x10(%rbp),%eax
    b5fa:	89 04 11             	mov    %eax,(%rcx,%rdx,1)
    b5fd:	83 45 f4 01          	addl   $0x1,-0xc(%rbp)
    b601:	81 7d f4 ff 00 00 00 	cmpl   $0xff,-0xc(%rbp)
    b608:	7e a6                	jle    b5b0 <crc32_gentab+0x18>
    b60a:	90                   	nop
    b60b:	90                   	nop
    b60c:	5d                   	pop    %rbp
    b60d:	c3                   	retq   

000000000000b60e <crc32_byte>:
    b60e:	f3 0f 1e fa          	endbr64 
    b612:	55                   	push   %rbp
    b613:	48 89 e5             	mov    %rsp,%rbp
    b616:	89 f8                	mov    %edi,%eax
    b618:	88 45 fc             	mov    %al,-0x4(%rbp)
    b61b:	8b 05 ff 39 01 00    	mov    0x139ff(%rip),%eax        # 1f020 <crc32_context>
    b621:	c1 e8 08             	shr    $0x8,%eax
    b624:	89 c1                	mov    %eax,%ecx
    b626:	0f b6 55 fc          	movzbl -0x4(%rbp),%edx
    b62a:	8b 05 f0 39 01 00    	mov    0x139f0(%rip),%eax        # 1f020 <crc32_context>
    b630:	31 d0                	xor    %edx,%eax
    b632:	0f b6 c0             	movzbl %al,%eax
    b635:	89 c0                	mov    %eax,%eax
    b637:	48 8d 14 85 00 00 00 	lea    0x0(,%rax,4),%rdx
    b63e:	00 
    b63f:	48 8d 05 5a 77 01 00 	lea    0x1775a(%rip),%rax        # 22da0 <crc32_tab>
    b646:	8b 04 02             	mov    (%rdx,%rax,1),%eax
    b649:	31 c8                	xor    %ecx,%eax
    b64b:	89 05 cf 39 01 00    	mov    %eax,0x139cf(%rip)        # 1f020 <crc32_context>
    b651:	90                   	nop
    b652:	5d                   	pop    %rbp
    b653:	c3                   	retq   

000000000000b654 <crc32_8bytes>:
    b654:	f3 0f 1e fa          	endbr64 
    b658:	55                   	push   %rbp
    b659:	48 89 e5             	mov    %rsp,%rbp
    b65c:	48 83 ec 08          	sub    $0x8,%rsp
    b660:	48 89 7d f8          	mov    %rdi,-0x8(%rbp)
    b664:	48 8b 45 f8          	mov    -0x8(%rbp),%rax
    b668:	0f b6 c0             	movzbl %al,%eax
    b66b:	89 c7                	mov    %eax,%edi
    b66d:	e8 9c ff ff ff       	callq  b60e <crc32_byte>
    b672:	48 8b 45 f8          	mov    -0x8(%rbp),%rax
    b676:	48 c1 e8 08          	shr    $0x8,%rax
    b67a:	0f b6 c0             	movzbl %al,%eax
    b67d:	89 c7                	mov    %eax,%edi
    b67f:	e8 8a ff ff ff       	callq  b60e <crc32_byte>
    b684:	48 8b 45 f8          	mov    -0x8(%rbp),%rax
    b688:	48 c1 e8 10          	shr    $0x10,%rax
    b68c:	0f b6 c0             	movzbl %al,%eax
    b68f:	89 c7                	mov    %eax,%edi
    b691:	e8 78 ff ff ff       	callq  b60e <crc32_byte>
    b696:	48 8b 45 f8          	mov    -0x8(%rbp),%rax
    b69a:	48 c1 e8 18          	shr    $0x18,%rax
    b69e:	0f b6 c0             	movzbl %al,%eax
    b6a1:	89 c7                	mov    %eax,%edi
    b6a3:	e8 66 ff ff ff       	callq  b60e <crc32_byte>
    b6a8:	48 8b 45 f8          	mov    -0x8(%rbp),%rax
    b6ac:	48 c1 e8 20          	shr    $0x20,%rax
    b6b0:	0f b6 c0             	movzbl %al,%eax
    b6b3:	89 c7                	mov    %eax,%edi
    b6b5:	e8 54 ff ff ff       	callq  b60e <crc32_byte>
    b6ba:	48 8b 45 f8          	mov    -0x8(%rbp),%rax
    b6be:	48 c1 e8 28          	shr    $0x28,%rax
    b6c2:	0f b6 c0             	movzbl %al,%eax
    b6c5:	89 c7                	mov    %eax,%edi
    b6c7:	e8 42 ff ff ff       	callq  b60e <crc32_byte>
    b6cc:	48 8b 45 f8          	mov    -0x8(%rbp),%rax
    b6d0:	48 c1 e8 30          	shr    $0x30,%rax
    b6d4:	0f b6 c0             	movzbl %al,%eax
    b6d7:	89 c7                	mov    %eax,%edi
    b6d9:	e8 30 ff ff ff       	callq  b60e <crc32_byte>
    b6de:	48 8b 45 f8          	mov    -0x8(%rbp),%rax
    b6e2:	48 c1 e8 38          	shr    $0x38,%rax
    b6e6:	0f b6 c0             	movzbl %al,%eax
    b6e9:	89 c7                	mov    %eax,%edi
    b6eb:	e8 1e ff ff ff       	callq  b60e <crc32_byte>
    b6f0:	90                   	nop
    b6f1:	c9                   	leaveq 
    b6f2:	c3                   	retq   

000000000000b6f3 <transparent_crc>:
    b6f3:	f3 0f 1e fa          	endbr64 
    b6f7:	55                   	push   %rbp
    b6f8:	48 89 e5             	mov    %rsp,%rbp
    b6fb:	48 83 ec 20          	sub    $0x20,%rsp
    b6ff:	48 89 7d f8          	mov    %rdi,-0x8(%rbp)
    b703:	48 89 75 f0          	mov    %rsi,-0x10(%rbp)
    b707:	89 55 ec             	mov    %edx,-0x14(%rbp)
    b70a:	48 8b 45 f8          	mov    -0x8(%rbp),%rax
    b70e:	48 89 c7             	mov    %rax,%rdi
    b711:	e8 3e ff ff ff       	callq  b654 <crc32_8bytes>
    b716:	83 7d ec 00          	cmpl   $0x0,-0x14(%rbp)
    b71a:	74 22                	je     b73e <transparent_crc+0x4b>
    b71c:	8b 05 fe 38 01 00    	mov    0x138fe(%rip),%eax        # 1f020 <crc32_context>
    b722:	f7 d0                	not    %eax
    b724:	89 c2                	mov    %eax,%edx
    b726:	48 8b 45 f0          	mov    -0x10(%rbp),%rax
    b72a:	48 89 c6             	mov    %rax,%rsi
    b72d:	48 8d 3d fc e8 00 00 	lea    0xe8fc(%rip),%rdi        # 1a030 <_IO_stdin_used+0x30>
    b734:	b8 00 00 00 00       	mov    $0x0,%eax
    b739:	e8 42 e9 ff ff       	callq  a080 <printf@plt>
    b73e:	90                   	nop
    b73f:	c9                   	leaveq 
    b740:	c3                   	retq   

000000000000b741 <transparent_crc_bytes>:
    b741:	f3 0f 1e fa          	endbr64 
    b745:	55                   	push   %rbp
    b746:	48 89 e5             	mov    %rsp,%rbp
    b749:	48 83 ec 30          	sub    $0x30,%rsp
    b74d:	48 89 7d e8          	mov    %rdi,-0x18(%rbp)
    b751:	89 75 e4             	mov    %esi,-0x1c(%rbp)
    b754:	48 89 55 d8          	mov    %rdx,-0x28(%rbp)
    b758:	89 4d e0             	mov    %ecx,-0x20(%rbp)
    b75b:	c7 45 fc 00 00 00 00 	movl   $0x0,-0x4(%rbp)
    b762:	eb 1e                	jmp    b782 <transparent_crc_bytes+0x41>
    b764:	8b 45 fc             	mov    -0x4(%rbp),%eax
    b767:	48 63 d0             	movslq %eax,%rdx
    b76a:	48 8b 45 e8          	mov    -0x18(%rbp),%rax
    b76e:	48 01 d0             	add    %rdx,%rax
    b771:	0f b6 00             	movzbl (%rax),%eax
    b774:	0f b6 c0             	movzbl %al,%eax
    b777:	89 c7                	mov    %eax,%edi
    b779:	e8 90 fe ff ff       	callq  b60e <crc32_byte>
    b77e:	83 45 fc 01          	addl   $0x1,-0x4(%rbp)
    b782:	8b 45 fc             	mov    -0x4(%rbp),%eax
    b785:	3b 45 e4             	cmp    -0x1c(%rbp),%eax
    b788:	7c da                	jl     b764 <transparent_crc_bytes+0x23>
    b78a:	83 7d e0 00          	cmpl   $0x0,-0x20(%rbp)
    b78e:	74 22                	je     b7b2 <transparent_crc_bytes+0x71>
    b790:	8b 05 8a 38 01 00    	mov    0x1388a(%rip),%eax        # 1f020 <crc32_context>
    b796:	f7 d0                	not    %eax
    b798:	89 c2                	mov    %eax,%edx
    b79a:	48 8b 45 d8          	mov    -0x28(%rbp),%rax
    b79e:	48 89 c6             	mov    %rax,%rsi
    b7a1:	48 8d 3d 88 e8 00 00 	lea    0xe888(%rip),%rdi        # 1a030 <_IO_stdin_used+0x30>
    b7a8:	b8 00 00 00 00       	mov    $0x0,%eax
    b7ad:	e8 ce e8 ff ff       	callq  a080 <printf@plt>
    b7b2:	90                   	nop
    b7b3:	c9                   	leaveq 
    b7b4:	c3                   	retq   

000000000000b7b5 <func_1>:
    b7b5:	f3 0f 1e fa          	endbr64 
    b7b9:	55                   	push   %rbp
    b7ba:	48 89 e5             	mov    %rsp,%rbp
    b7bd:	41 55                	push   %r13
    b7bf:	41 54                	push   %r12
    b7c1:	53                   	push   %rbx
    b7c2:	48 81 ec 08 0a 00 00 	sub    $0xa08,%rsp
    b7c9:	64 48 8b 04 25 28 00 	mov    %fs:0x28,%rax
    b7d0:	00 00 
    b7d2:	48 89 45 d8          	mov    %rax,-0x28(%rbp)
    b7d6:	31 c0                	xor    %eax,%eax
    b7d8:	c7 85 ec f5 ff ff ff 	movl   $0xffffffff,-0xa14(%rbp)
    b7df:	ff ff ff 
    b7e2:	48 8d 05 ff 5f 01 00 	lea    0x15fff(%rip),%rax        # 217e8 <g_56>
    b7e9:	48 89 85 20 f6 ff ff 	mov    %rax,-0x9e0(%rbp)
    b7f0:	48 8d 85 20 f6 ff ff 	lea    -0x9e0(%rbp),%rax
    b7f7:	48 89 85 28 f6 ff ff 	mov    %rax,-0x9d8(%rbp)
    b7fe:	48 8d 85 28 f6 ff ff 	lea    -0x9d8(%rbp),%rax
    b805:	48 89 85 40 f6 ff ff 	mov    %rax,-0x9c0(%rbp)
    b80c:	66 c7 85 e8 f5 ff ff 	movw   $0xffff,-0xa18(%rbp)
    b813:	ff ff 
    b815:	48 8d 05 d4 6a 01 00 	lea    0x16ad4(%rip),%rax        # 222f0 <g_1357>
    b81c:	48 89 85 d0 f6 ff ff 	mov    %rax,-0x930(%rbp)
    b823:	48 8d 05 c6 6a 01 00 	lea    0x16ac6(%rip),%rax        # 222f0 <g_1357>
    b82a:	48 89 85 d8 f6 ff ff 	mov    %rax,-0x928(%rbp)
    b831:	48 8d 05 b8 6a 01 00 	lea    0x16ab8(%rip),%rax        # 222f0 <g_1357>
    b838:	48 89 85 e0 f6 ff ff 	mov    %rax,-0x920(%rbp)
    b83f:	48 8d 05 aa 6a 01 00 	lea    0x16aaa(%rip),%rax        # 222f0 <g_1357>
    b846:	48 89 85 e8 f6 ff ff 	mov    %rax,-0x918(%rbp)
    b84d:	48 8d 05 9c 6a 01 00 	lea    0x16a9c(%rip),%rax        # 222f0 <g_1357>
    b854:	48 89 85 f0 f6 ff ff 	mov    %rax,-0x910(%rbp)
    b85b:	48 8d 05 56 39 01 00 	lea    0x13956(%rip),%rax        # 1f1b8 <g_486>
    b862:	48 89 85 48 f6 ff ff 	mov    %rax,-0x9b8(%rbp)
    b869:	48 8d 05 58 73 01 00 	lea    0x17358(%rip),%rax        # 22bc8 <g_2142+0x168>
    b870:	48 89 85 50 f6 ff ff 	mov    %rax,-0x9b0(%rbp)
    b877:	48 8d 85 00 f7 ff ff 	lea    -0x900(%rbp),%rax
    b87e:	48 8d 15 fb e7 00 00 	lea    0xe7fb(%rip),%rdx        # 1a080 <g_2661+0x10>
    b885:	b9 2a 00 00 00       	mov    $0x2a,%ecx
    b88a:	48 89 c7             	mov    %rax,%rdi
    b88d:	48 89 d6             	mov    %rdx,%rsi
    b890:	f3 48 a5             	rep movsq %ds:(%rsi),%es:(%rdi)
    b893:	48 8d 05 6e 68 01 00 	lea    0x1686e(%rip),%rax        # 22108 <g_690>
    b89a:	48 89 85 58 f6 ff ff 	mov    %rax,-0x9a8(%rbp)
    b8a1:	48 c7 85 60 f6 ff ff 	movq   $0x0,-0x9a0(%rbp)
    b8a8:	00 00 00 00 
    b8ac:	c7 85 fc f5 ff ff 27 	movl   $0xf5a8a427,-0xa04(%rbp)
    b8b3:	a4 a8 f5 
    b8b6:	48 8d 05 23 38 01 00 	lea    0x13823(%rip),%rax        # 1f0e0 <g_211>
    b8bd:	48 89 85 68 f6 ff ff 	mov    %rax,-0x998(%rbp)
    b8c4:	66 c7 85 ea f5 ff ff 	movw   $0x9,-0xa16(%rbp)
    b8cb:	09 00 
    b8cd:	c7 05 51 37 01 00 e7 	movl   $0xffffffe7,0x13751(%rip)        # 1f028 <g_3>
    b8d4:	ff ff ff 
    b8d7:	e9 e1 00 00 00       	jmpq   b9bd <func_1+0x208>
    b8dc:	48 c7 85 38 f6 ff ff 	movq   $0x0,-0x9c8(%rbp)
    b8e3:	00 00 00 00 
    b8e7:	48 8d 85 38 f6 ff ff 	lea    -0x9c8(%rbp),%rax
    b8ee:	48 89 85 78 f6 ff ff 	mov    %rax,-0x988(%rbp)
    b8f5:	48 c7 85 80 f6 ff ff 	movq   $0x9,-0x980(%rbp)
    b8fc:	09 00 00 00 
    b900:	48 8d 05 21 37 01 00 	lea    0x13721(%rip),%rax        # 1f028 <g_3>
    b907:	48 89 85 88 f6 ff ff 	mov    %rax,-0x978(%rbp)
    b90e:	48 8d 05 67 3a 01 00 	lea    0x13a67(%rip),%rax        # 1f37c <g_2774>
    b915:	48 89 85 90 f6 ff ff 	mov    %rax,-0x970(%rbp)
    b91c:	48 8d 05 05 71 01 00 	lea    0x17105(%rip),%rax        # 22a28 <g_2086>
    b923:	48 89 85 98 f6 ff ff 	mov    %rax,-0x968(%rbp)
    b92a:	48 8d 05 af 71 01 00 	lea    0x171af(%rip),%rax        # 22ae0 <g_2142+0x80>
    b931:	48 89 85 a0 f6 ff ff 	mov    %rax,-0x960(%rbp)
    b938:	48 b8 18 81 e4 04 76 	movabs $0x91e0d07604e48118,%rax
    b93f:	d0 e0 91 
    b942:	48 89 85 a8 f6 ff ff 	mov    %rax,-0x958(%rbp)
    b949:	c7 85 18 f6 ff ff 00 	movl   $0x0,-0x9e8(%rbp)
    b950:	00 00 00 
    b953:	c7 85 1c f6 ff ff 06 	movl   $0x31036a06,-0x9e4(%rbp)
    b95a:	6a 03 31 
    b95d:	c7 85 f0 f5 ff ff 00 	movl   $0x0,-0xa10(%rbp)
    b964:	00 00 00 
    b967:	eb 1e                	jmp    b987 <func_1+0x1d2>
    b969:	8b 85 f0 f5 ff ff    	mov    -0xa10(%rbp),%eax
    b96f:	48 98                	cltq   
    b971:	48 8d 15 64 78 01 00 	lea    0x17864(%rip),%rdx        # 231dc <g_8+0x1c>
    b978:	48 89 94 c5 50 f8 ff 	mov    %rdx,-0x7b0(%rbp,%rax,8)
    b97f:	ff 
    b980:	83 85 f0 f5 ff ff 01 	addl   $0x1,-0xa10(%rbp)
    b987:	83 bd f0 f5 ff ff 00 	cmpl   $0x0,-0xa10(%rbp)
    b98e:	7e d9                	jle    b969 <func_1+0x1b4>
    b990:	8b 85 ec f5 ff ff    	mov    -0xa14(%rbp),%eax
    b996:	83 e8 01             	sub    $0x1,%eax
    b999:	89 85 ec f5 ff ff    	mov    %eax,-0xa14(%rbp)
    b99f:	8b 05 83 36 01 00    	mov    0x13683(%rip),%eax        # 1f028 <g_3>
    b9a5:	0f b7 c0             	movzwl %ax,%eax
    b9a8:	be 01 00 00 00       	mov    $0x1,%esi
    b9ad:	89 c7                	mov    %eax,%edi
    b9af:	e8 4b f3 ff ff       	callq  acff <safe_add_func_uint16_t_u_u>
    b9b4:	0f b7 c0             	movzwl %ax,%eax
    b9b7:	89 05 6b 36 01 00    	mov    %eax,0x1366b(%rip)        # 1f028 <g_3>
    b9bd:	8b 05 65 36 01 00    	mov    0x13665(%rip),%eax        # 1f028 <g_3>
    b9c3:	83 f8 10             	cmp    $0x10,%eax
    b9c6:	0f 85 10 ff ff ff    	jne    b8dc <func_1+0x127>
    b9cc:	48 8b 05 1d 73 01 00 	mov    0x1731d(%rip),%rax        # 22cf0 <g_2289>
    b9d3:	48 8b 10             	mov    (%rax),%rdx
    b9d6:	48 8b 85 58 f6 ff ff 	mov    -0x9a8(%rbp),%rax
    b9dd:	48 89 10             	mov    %rdx,(%rax)
    b9e0:	c7 05 96 39 01 00 03 	movl   $0x3,0x13996(%rip)        # 1f380 <g_2882>
    b9e7:	00 00 00 
    b9ea:	e9 de 0f 00 00       	jmpq   c9cd <func_1+0x1218>
    b9ef:	c7 85 00 f6 ff ff 04 	movl   $0x4,-0xa00(%rbp)
    b9f6:	00 00 00 
    b9f9:	c7 85 04 f6 ff ff 06 	movl   $0x6,-0x9fc(%rbp)
    ba00:	00 00 00 
    ba03:	48 c7 05 0a 38 01 00 	movq   $0x0,0x1380a(%rip)        # 1f218 <g_1378>
    ba0a:	00 00 00 00 
    ba0e:	90                   	nop
    ba0f:	48 8b 05 02 38 01 00 	mov    0x13802(%rip),%rax        # 1f218 <g_1378>
    ba16:	48 83 f8 07          	cmp    $0x7,%rax
    ba1a:	0f 8f 5d 0f 00 00    	jg     c97d <func_1+0x11c8>
    ba20:	c7 85 08 f6 ff ff b9 	movl   $0x514c97b9,-0x9f8(%rbp)
    ba27:	97 4c 51 
    ba2a:	c7 05 bc 77 01 00 00 	movl   $0x0,0x177bc(%rip)        # 231f0 <g_1970>
    ba31:	00 00 00 
    ba34:	e9 60 0e 00 00       	jmpq   c899 <func_1+0x10e4>
    ba39:	c7 85 0c f6 ff ff 01 	movl   $0x1,-0x9f4(%rbp)
    ba40:	00 00 00 
    ba43:	48 8d 05 d6 37 01 00 	lea    0x137d6(%rip),%rax        # 1f220 <g_1483>
    ba4a:	48 89 85 30 f6 ff ff 	mov    %rax,-0x9d0(%rbp)
    ba51:	48 8d 85 30 f6 ff ff 	lea    -0x9d0(%rbp),%rax
    ba58:	48 89 85 38 f6 ff ff 	mov    %rax,-0x9c8(%rbp)
    ba5f:	48 8d 85 38 f6 ff ff 	lea    -0x9c8(%rbp),%rax
    ba66:	48 89 85 70 f6 ff ff 	mov    %rax,-0x990(%rbp)
    ba6d:	c7 85 10 f6 ff ff 14 	movl   $0x5a817214,-0x9f0(%rbp)
    ba74:	72 81 5a 
    ba77:	c6 05 46 37 01 00 01 	movb   $0x1,0x13746(%rip)        # 1f1c4 <g_718>
    ba7e:	e9 f6 0c 00 00       	jmpq   c779 <func_1+0xfc4>
    ba83:	48 8d 85 ec f5 ff ff 	lea    -0xa14(%rbp),%rax
    ba8a:	48 89 85 50 f8 ff ff 	mov    %rax,-0x7b0(%rbp)
    ba91:	48 8d 85 ec f5 ff ff 	lea    -0xa14(%rbp),%rax
    ba98:	48 89 85 58 f8 ff ff 	mov    %rax,-0x7a8(%rbp)
    ba9f:	48 8d 05 0a 37 01 00 	lea    0x1370a(%rip),%rax        # 1f1b0 <g_453+0x10>
    baa6:	48 89 85 60 f8 ff ff 	mov    %rax,-0x7a0(%rbp)
    baad:	48 8d 05 fc 36 01 00 	lea    0x136fc(%rip),%rax        # 1f1b0 <g_453+0x10>
    bab4:	48 89 85 68 f8 ff ff 	mov    %rax,-0x798(%rbp)
    babb:	48 8d 05 ee 36 01 00 	lea    0x136ee(%rip),%rax        # 1f1b0 <g_453+0x10>
    bac2:	48 89 85 70 f8 ff ff 	mov    %rax,-0x790(%rbp)
    bac9:	48 8d 05 e0 36 01 00 	lea    0x136e0(%rip),%rax        # 1f1b0 <g_453+0x10>
    bad0:	48 89 85 78 f8 ff ff 	mov    %rax,-0x788(%rbp)
    bad7:	48 8d 05 d2 36 01 00 	lea    0x136d2(%rip),%rax        # 1f1b0 <g_453+0x10>
    bade:	48 89 85 80 f8 ff ff 	mov    %rax,-0x780(%rbp)
    bae5:	48 8d 05 c0 36 01 00 	lea    0x136c0(%rip),%rax        # 1f1ac <g_453+0xc>
    baec:	48 89 85 88 f8 ff ff 	mov    %rax,-0x778(%rbp)
    baf3:	48 8d 05 b6 36 01 00 	lea    0x136b6(%rip),%rax        # 1f1b0 <g_453+0x10>
    bafa:	48 89 85 90 f8 ff ff 	mov    %rax,-0x770(%rbp)
    bb01:	48 8d 05 a4 36 01 00 	lea    0x136a4(%rip),%rax        # 1f1ac <g_453+0xc>
    bb08:	48 89 85 98 f8 ff ff 	mov    %rax,-0x768(%rbp)
    bb0f:	48 8d 85 ec f5 ff ff 	lea    -0xa14(%rbp),%rax
    bb16:	48 89 85 a0 f8 ff ff 	mov    %rax,-0x760(%rbp)
    bb1d:	48 8d 05 8c 36 01 00 	lea    0x1368c(%rip),%rax        # 1f1b0 <g_453+0x10>
    bb24:	48 89 85 a8 f8 ff ff 	mov    %rax,-0x758(%rbp)
    bb2b:	48 8d 05 7e 36 01 00 	lea    0x1367e(%rip),%rax        # 1f1b0 <g_453+0x10>
    bb32:	48 89 85 b0 f8 ff ff 	mov    %rax,-0x750(%rbp)
    bb39:	48 8d 05 70 36 01 00 	lea    0x13670(%rip),%rax        # 1f1b0 <g_453+0x10>
    bb40:	48 89 85 b8 f8 ff ff 	mov    %rax,-0x748(%rbp)
    bb47:	48 8d 05 62 36 01 00 	lea    0x13662(%rip),%rax        # 1f1b0 <g_453+0x10>
    bb4e:	48 89 85 c0 f8 ff ff 	mov    %rax,-0x740(%rbp)
    bb55:	48 8d 85 ec f5 ff ff 	lea    -0xa14(%rbp),%rax
    bb5c:	48 89 85 c8 f8 ff ff 	mov    %rax,-0x738(%rbp)
    bb63:	48 8d 05 36 36 01 00 	lea    0x13636(%rip),%rax        # 1f1a0 <g_453>
    bb6a:	48 89 85 d0 f8 ff ff 	mov    %rax,-0x730(%rbp)
    bb71:	48 8d 05 38 36 01 00 	lea    0x13638(%rip),%rax        # 1f1b0 <g_453+0x10>
    bb78:	48 89 85 d8 f8 ff ff 	mov    %rax,-0x728(%rbp)
    bb7f:	48 c7 85 e0 f8 ff ff 	movq   $0x0,-0x720(%rbp)
    bb86:	00 00 00 00 
    bb8a:	48 8d 05 1f 36 01 00 	lea    0x1361f(%rip),%rax        # 1f1b0 <g_453+0x10>
    bb91:	48 89 85 e8 f8 ff ff 	mov    %rax,-0x718(%rbp)
    bb98:	48 8d 05 11 36 01 00 	lea    0x13611(%rip),%rax        # 1f1b0 <g_453+0x10>
    bb9f:	48 89 85 f0 f8 ff ff 	mov    %rax,-0x710(%rbp)
    bba6:	48 8d 05 ff 35 01 00 	lea    0x135ff(%rip),%rax        # 1f1ac <g_453+0xc>
    bbad:	48 89 85 f8 f8 ff ff 	mov    %rax,-0x708(%rbp)
    bbb4:	48 8d 05 f5 35 01 00 	lea    0x135f5(%rip),%rax        # 1f1b0 <g_453+0x10>
    bbbb:	48 89 85 00 f9 ff ff 	mov    %rax,-0x700(%rbp)
    bbc2:	48 8d 05 e3 35 01 00 	lea    0x135e3(%rip),%rax        # 1f1ac <g_453+0xc>
    bbc9:	48 89 85 08 f9 ff ff 	mov    %rax,-0x6f8(%rbp)
    bbd0:	48 c7 85 10 f9 ff ff 	movq   $0x0,-0x6f0(%rbp)
    bbd7:	00 00 00 00 
    bbdb:	48 8d 05 ce 35 01 00 	lea    0x135ce(%rip),%rax        # 1f1b0 <g_453+0x10>
    bbe2:	48 89 85 18 f9 ff ff 	mov    %rax,-0x6e8(%rbp)
    bbe9:	48 c7 85 20 f9 ff ff 	movq   $0x0,-0x6e0(%rbp)
    bbf0:	00 00 00 00 
    bbf4:	48 8d 05 b5 35 01 00 	lea    0x135b5(%rip),%rax        # 1f1b0 <g_453+0x10>
    bbfb:	48 89 85 28 f9 ff ff 	mov    %rax,-0x6d8(%rbp)
    bc02:	48 8d 05 a7 35 01 00 	lea    0x135a7(%rip),%rax        # 1f1b0 <g_453+0x10>
    bc09:	48 89 85 30 f9 ff ff 	mov    %rax,-0x6d0(%rbp)
    bc10:	48 8d 85 ec f5 ff ff 	lea    -0xa14(%rbp),%rax
    bc17:	48 89 85 38 f9 ff ff 	mov    %rax,-0x6c8(%rbp)
    bc1e:	48 8d 05 8b 35 01 00 	lea    0x1358b(%rip),%rax        # 1f1b0 <g_453+0x10>
    bc25:	48 89 85 40 f9 ff ff 	mov    %rax,-0x6c0(%rbp)
    bc2c:	48 8d 05 81 35 01 00 	lea    0x13581(%rip),%rax        # 1f1b4 <g_453+0x14>
    bc33:	48 89 85 48 f9 ff ff 	mov    %rax,-0x6b8(%rbp)
    bc3a:	48 8d 05 6f 35 01 00 	lea    0x1356f(%rip),%rax        # 1f1b0 <g_453+0x10>
    bc41:	48 89 85 50 f9 ff ff 	mov    %rax,-0x6b0(%rbp)
    bc48:	48 8d 05 61 35 01 00 	lea    0x13561(%rip),%rax        # 1f1b0 <g_453+0x10>
    bc4f:	48 89 85 58 f9 ff ff 	mov    %rax,-0x6a8(%rbp)
    bc56:	48 8d 05 53 35 01 00 	lea    0x13553(%rip),%rax        # 1f1b0 <g_453+0x10>
    bc5d:	48 89 85 60 f9 ff ff 	mov    %rax,-0x6a0(%rbp)
    bc64:	48 c7 85 68 f9 ff ff 	movq   $0x0,-0x698(%rbp)
    bc6b:	00 00 00 00 
    bc6f:	48 8d 05 3a 35 01 00 	lea    0x1353a(%rip),%rax        # 1f1b0 <g_453+0x10>
    bc76:	48 89 85 70 f9 ff ff 	mov    %rax,-0x690(%rbp)
    bc7d:	48 8d 05 2c 35 01 00 	lea    0x1352c(%rip),%rax        # 1f1b0 <g_453+0x10>
    bc84:	48 89 85 78 f9 ff ff 	mov    %rax,-0x688(%rbp)
    bc8b:	48 8d 05 1e 35 01 00 	lea    0x1351e(%rip),%rax        # 1f1b0 <g_453+0x10>
    bc92:	48 89 85 80 f9 ff ff 	mov    %rax,-0x680(%rbp)
    bc99:	48 8d 85 ec f5 ff ff 	lea    -0xa14(%rbp),%rax
    bca0:	48 89 85 88 f9 ff ff 	mov    %rax,-0x678(%rbp)
    bca7:	48 8d 05 02 35 01 00 	lea    0x13502(%rip),%rax        # 1f1b0 <g_453+0x10>
    bcae:	48 89 85 90 f9 ff ff 	mov    %rax,-0x670(%rbp)
    bcb5:	48 8d 05 f4 34 01 00 	lea    0x134f4(%rip),%rax        # 1f1b0 <g_453+0x10>
    bcbc:	48 89 85 98 f9 ff ff 	mov    %rax,-0x668(%rbp)
    bcc3:	48 8d 05 e6 34 01 00 	lea    0x134e6(%rip),%rax        # 1f1b0 <g_453+0x10>
    bcca:	48 89 85 a0 f9 ff ff 	mov    %rax,-0x660(%rbp)
    bcd1:	48 8d 05 d8 34 01 00 	lea    0x134d8(%rip),%rax        # 1f1b0 <g_453+0x10>
    bcd8:	48 89 85 a8 f9 ff ff 	mov    %rax,-0x658(%rbp)
    bcdf:	48 c7 85 b0 f9 ff ff 	movq   $0x0,-0x650(%rbp)
    bce6:	00 00 00 00 
    bcea:	48 8d 05 bf 34 01 00 	lea    0x134bf(%rip),%rax        # 1f1b0 <g_453+0x10>
    bcf1:	48 89 85 b8 f9 ff ff 	mov    %rax,-0x648(%rbp)
    bcf8:	48 8d 05 b1 34 01 00 	lea    0x134b1(%rip),%rax        # 1f1b0 <g_453+0x10>
    bcff:	48 89 85 c0 f9 ff ff 	mov    %rax,-0x640(%rbp)
    bd06:	48 8d 05 a3 34 01 00 	lea    0x134a3(%rip),%rax        # 1f1b0 <g_453+0x10>
    bd0d:	48 89 85 c8 f9 ff ff 	mov    %rax,-0x638(%rbp)
    bd14:	48 8d 05 91 34 01 00 	lea    0x13491(%rip),%rax        # 1f1ac <g_453+0xc>
    bd1b:	48 89 85 d0 f9 ff ff 	mov    %rax,-0x630(%rbp)
    bd22:	48 8d 85 ec f5 ff ff 	lea    -0xa14(%rbp),%rax
    bd29:	48 89 85 d8 f9 ff ff 	mov    %rax,-0x628(%rbp)
    bd30:	48 8d 05 79 34 01 00 	lea    0x13479(%rip),%rax        # 1f1b0 <g_453+0x10>
    bd37:	48 89 85 e0 f9 ff ff 	mov    %rax,-0x620(%rbp)
    bd3e:	48 8d 05 6b 34 01 00 	lea    0x1346b(%rip),%rax        # 1f1b0 <g_453+0x10>
    bd45:	48 89 85 e8 f9 ff ff 	mov    %rax,-0x618(%rbp)
    bd4c:	48 8d 85 ec f5 ff ff 	lea    -0xa14(%rbp),%rax
    bd53:	48 89 85 f0 f9 ff ff 	mov    %rax,-0x610(%rbp)
    bd5a:	48 c7 85 f8 f9 ff ff 	movq   $0x0,-0x608(%rbp)
    bd61:	00 00 00 00 
    bd65:	48 8d 05 34 34 01 00 	lea    0x13434(%rip),%rax        # 1f1a0 <g_453>
    bd6c:	48 89 85 00 fa ff ff 	mov    %rax,-0x600(%rbp)
    bd73:	48 8d 05 36 34 01 00 	lea    0x13436(%rip),%rax        # 1f1b0 <g_453+0x10>
    bd7a:	48 89 85 08 fa ff ff 	mov    %rax,-0x5f8(%rbp)
    bd81:	48 8d 05 28 34 01 00 	lea    0x13428(%rip),%rax        # 1f1b0 <g_453+0x10>
    bd88:	48 89 85 10 fa ff ff 	mov    %rax,-0x5f0(%rbp)
    bd8f:	48 8d 85 ec f5 ff ff 	lea    -0xa14(%rbp),%rax
    bd96:	48 89 85 18 fa ff ff 	mov    %rax,-0x5e8(%rbp)
    bd9d:	48 8d 05 0c 34 01 00 	lea    0x1340c(%rip),%rax        # 1f1b0 <g_453+0x10>
    bda4:	48 89 85 20 fa ff ff 	mov    %rax,-0x5e0(%rbp)
    bdab:	48 8d 05 fe 33 01 00 	lea    0x133fe(%rip),%rax        # 1f1b0 <g_453+0x10>
    bdb2:	48 89 85 28 fa ff ff 	mov    %rax,-0x5d8(%rbp)
    bdb9:	48 c7 85 30 fa ff ff 	movq   $0x0,-0x5d0(%rbp)
    bdc0:	00 00 00 00 
    bdc4:	48 8d 05 e5 33 01 00 	lea    0x133e5(%rip),%rax        # 1f1b0 <g_453+0x10>
    bdcb:	48 89 85 38 fa ff ff 	mov    %rax,-0x5c8(%rbp)
    bdd2:	48 c7 85 40 fa ff ff 	movq   $0x0,-0x5c0(%rbp)
    bdd9:	00 00 00 00 
    bddd:	48 8d 05 cc 33 01 00 	lea    0x133cc(%rip),%rax        # 1f1b0 <g_453+0x10>
    bde4:	48 89 85 48 fa ff ff 	mov    %rax,-0x5b8(%rbp)
    bdeb:	48 8d 05 ae 33 01 00 	lea    0x133ae(%rip),%rax        # 1f1a0 <g_453>
    bdf2:	48 89 85 50 fa ff ff 	mov    %rax,-0x5b0(%rbp)
    bdf9:	48 8d 05 b0 33 01 00 	lea    0x133b0(%rip),%rax        # 1f1b0 <g_453+0x10>
    be00:	48 89 85 58 fa ff ff 	mov    %rax,-0x5a8(%rbp)
    be07:	48 8d 05 a2 33 01 00 	lea    0x133a2(%rip),%rax        # 1f1b0 <g_453+0x10>
    be0e:	48 89 85 60 fa ff ff 	mov    %rax,-0x5a0(%rbp)
    be15:	48 8d 85 ec f5 ff ff 	lea    -0xa14(%rbp),%rax
    be1c:	48 89 85 68 fa ff ff 	mov    %rax,-0x598(%rbp)
    be23:	48 8d 05 86 33 01 00 	lea    0x13386(%rip),%rax        # 1f1b0 <g_453+0x10>
    be2a:	48 89 85 70 fa ff ff 	mov    %rax,-0x590(%rbp)
    be31:	48 c7 85 78 fa ff ff 	movq   $0x0,-0x588(%rbp)
    be38:	00 00 00 00 
    be3c:	48 8d 05 6d 33 01 00 	lea    0x1336d(%rip),%rax        # 1f1b0 <g_453+0x10>
    be43:	48 89 85 80 fa ff ff 	mov    %rax,-0x580(%rbp)
    be4a:	48 8d 05 5f 33 01 00 	lea    0x1335f(%rip),%rax        # 1f1b0 <g_453+0x10>
    be51:	48 89 85 88 fa ff ff 	mov    %rax,-0x578(%rbp)
    be58:	48 c7 85 90 fa ff ff 	movq   $0x0,-0x570(%rbp)
    be5f:	00 00 00 00 
    be63:	48 8d 85 ec f5 ff ff 	lea    -0xa14(%rbp),%rax
    be6a:	48 89 85 98 fa ff ff 	mov    %rax,-0x568(%rbp)
    be71:	48 8d 05 38 33 01 00 	lea    0x13338(%rip),%rax        # 1f1b0 <g_453+0x10>
    be78:	48 89 85 a0 fa ff ff 	mov    %rax,-0x560(%rbp)
    be7f:	48 c7 85 a8 fa ff ff 	movq   $0x0,-0x558(%rbp)
    be86:	00 00 00 00 
    be8a:	48 8d 05 1f 33 01 00 	lea    0x1331f(%rip),%rax        # 1f1b0 <g_453+0x10>
    be91:	48 89 85 b0 fa ff ff 	mov    %rax,-0x550(%rbp)
    be98:	48 8d 05 15 33 01 00 	lea    0x13315(%rip),%rax        # 1f1b4 <g_453+0x14>
    be9f:	48 89 85 b8 fa ff ff 	mov    %rax,-0x548(%rbp)
    bea6:	48 8d 05 03 33 01 00 	lea    0x13303(%rip),%rax        # 1f1b0 <g_453+0x10>
    bead:	48 89 85 c0 fa ff ff 	mov    %rax,-0x540(%rbp)
    beb4:	48 8d 05 f5 32 01 00 	lea    0x132f5(%rip),%rax        # 1f1b0 <g_453+0x10>
    bebb:	48 89 85 c8 fa ff ff 	mov    %rax,-0x538(%rbp)
    bec2:	48 8d 05 d7 32 01 00 	lea    0x132d7(%rip),%rax        # 1f1a0 <g_453>
    bec9:	48 89 85 d0 fa ff ff 	mov    %rax,-0x530(%rbp)
    bed0:	48 8d 05 c9 32 01 00 	lea    0x132c9(%rip),%rax        # 1f1a0 <g_453>
    bed7:	48 89 85 d8 fa ff ff 	mov    %rax,-0x528(%rbp)
    bede:	48 c7 85 e0 fa ff ff 	movq   $0x0,-0x520(%rbp)
    bee5:	00 00 00 00 
    bee9:	48 c7 85 e8 fa ff ff 	movq   $0x0,-0x518(%rbp)
    bef0:	00 00 00 00 
    bef4:	48 c7 85 f0 fa ff ff 	movq   $0x0,-0x510(%rbp)
    befb:	00 00 00 00 
    beff:	48 c7 85 f8 fa ff ff 	movq   $0x0,-0x508(%rbp)
    bf06:	00 00 00 00 
    bf0a:	48 8d 05 9f 32 01 00 	lea    0x1329f(%rip),%rax        # 1f1b0 <g_453+0x10>
    bf11:	48 89 85 00 fb ff ff 	mov    %rax,-0x500(%rbp)
    bf18:	48 8d 05 91 32 01 00 	lea    0x13291(%rip),%rax        # 1f1b0 <g_453+0x10>
    bf1f:	48 89 85 08 fb ff ff 	mov    %rax,-0x4f8(%rbp)
    bf26:	48 8d 05 83 32 01 00 	lea    0x13283(%rip),%rax        # 1f1b0 <g_453+0x10>
    bf2d:	48 89 85 10 fb ff ff 	mov    %rax,-0x4f0(%rbp)
    bf34:	48 8d 05 71 32 01 00 	lea    0x13271(%rip),%rax        # 1f1ac <g_453+0xc>
    bf3b:	48 89 85 18 fb ff ff 	mov    %rax,-0x4e8(%rbp)
    bf42:	48 8d 05 57 32 01 00 	lea    0x13257(%rip),%rax        # 1f1a0 <g_453>
    bf49:	48 89 85 20 fb ff ff 	mov    %rax,-0x4e0(%rbp)
    bf50:	48 8d 05 59 32 01 00 	lea    0x13259(%rip),%rax        # 1f1b0 <g_453+0x10>
    bf57:	48 89 85 28 fb ff ff 	mov    %rax,-0x4d8(%rbp)
    bf5e:	48 8d 85 ec f5 ff ff 	lea    -0xa14(%rbp),%rax
    bf65:	48 89 85 30 fb ff ff 	mov    %rax,-0x4d0(%rbp)
    bf6c:	48 8d 05 39 32 01 00 	lea    0x13239(%rip),%rax        # 1f1ac <g_453+0xc>
    bf73:	48 89 85 38 fb ff ff 	mov    %rax,-0x4c8(%rbp)
    bf7a:	48 8d 05 2f 32 01 00 	lea    0x1322f(%rip),%rax        # 1f1b0 <g_453+0x10>
    bf81:	48 89 85 40 fb ff ff 	mov    %rax,-0x4c0(%rbp)
    bf88:	48 8d 05 21 32 01 00 	lea    0x13221(%rip),%rax        # 1f1b0 <g_453+0x10>
    bf8f:	48 89 85 48 fb ff ff 	mov    %rax,-0x4b8(%rbp)
    bf96:	48 8d 05 0f 32 01 00 	lea    0x1320f(%rip),%rax        # 1f1ac <g_453+0xc>
    bf9d:	48 89 85 50 fb ff ff 	mov    %rax,-0x4b0(%rbp)
    bfa4:	48 c7 85 58 fb ff ff 	movq   $0x0,-0x4a8(%rbp)
    bfab:	00 00 00 00 
    bfaf:	48 8d 05 fa 31 01 00 	lea    0x131fa(%rip),%rax        # 1f1b0 <g_453+0x10>
    bfb6:	48 89 85 60 fb ff ff 	mov    %rax,-0x4a0(%rbp)
    bfbd:	48 c7 85 68 fb ff ff 	movq   $0x0,-0x498(%rbp)
    bfc4:	00 00 00 00 
    bfc8:	48 c7 85 70 fb ff ff 	movq   $0x0,-0x490(%rbp)
    bfcf:	00 00 00 00 
    bfd3:	48 8d 05 c6 31 01 00 	lea    0x131c6(%rip),%rax        # 1f1a0 <g_453>
    bfda:	48 89 85 78 fb ff ff 	mov    %rax,-0x488(%rbp)
    bfe1:	48 8d 05 c8 31 01 00 	lea    0x131c8(%rip),%rax        # 1f1b0 <g_453+0x10>
    bfe8:	48 89 85 80 fb ff ff 	mov    %rax,-0x480(%rbp)
    bfef:	48 8d 05 ba 31 01 00 	lea    0x131ba(%rip),%rax        # 1f1b0 <g_453+0x10>
    bff6:	48 89 85 88 fb ff ff 	mov    %rax,-0x478(%rbp)
    bffd:	48 8d 05 ac 31 01 00 	lea    0x131ac(%rip),%rax        # 1f1b0 <g_453+0x10>
    c004:	48 89 85 90 fb ff ff 	mov    %rax,-0x470(%rbp)
    c00b:	48 8d 05 a2 31 01 00 	lea    0x131a2(%rip),%rax        # 1f1b4 <g_453+0x14>
    c012:	48 89 85 98 fb ff ff 	mov    %rax,-0x468(%rbp)
    c019:	48 8d 85 ec f5 ff ff 	lea    -0xa14(%rbp),%rax
    c020:	48 89 85 a0 fb ff ff 	mov    %rax,-0x460(%rbp)
    c027:	48 c7 85 a8 fb ff ff 	movq   $0x0,-0x458(%rbp)
    c02e:	00 00 00 00 
    c032:	48 8d 05 77 31 01 00 	lea    0x13177(%rip),%rax        # 1f1b0 <g_453+0x10>
    c039:	48 89 85 b0 fb ff ff 	mov    %rax,-0x450(%rbp)
    c040:	48 8d 85 ec f5 ff ff 	lea    -0xa14(%rbp),%rax
    c047:	48 89 85 b8 fb ff ff 	mov    %rax,-0x448(%rbp)
    c04e:	48 8d 05 57 31 01 00 	lea    0x13157(%rip),%rax        # 1f1ac <g_453+0xc>
    c055:	48 89 85 c0 fb ff ff 	mov    %rax,-0x440(%rbp)
    c05c:	48 8d 05 4d 31 01 00 	lea    0x1314d(%rip),%rax        # 1f1b0 <g_453+0x10>
    c063:	48 89 85 c8 fb ff ff 	mov    %rax,-0x438(%rbp)
    c06a:	48 8d 05 3f 31 01 00 	lea    0x1313f(%rip),%rax        # 1f1b0 <g_453+0x10>
    c071:	48 89 85 d0 fb ff ff 	mov    %rax,-0x430(%rbp)
    c078:	48 c7 85 d8 fb ff ff 	movq   $0x0,-0x428(%rbp)
    c07f:	00 00 00 00 
    c083:	48 8d 85 ec f5 ff ff 	lea    -0xa14(%rbp),%rax
    c08a:	48 89 85 e0 fb ff ff 	mov    %rax,-0x420(%rbp)
    c091:	48 8d 85 ec f5 ff ff 	lea    -0xa14(%rbp),%rax
    c098:	48 89 85 e8 fb ff ff 	mov    %rax,-0x418(%rbp)
    c09f:	48 8d 05 0a 31 01 00 	lea    0x1310a(%rip),%rax        # 1f1b0 <g_453+0x10>
    c0a6:	48 89 85 f0 fb ff ff 	mov    %rax,-0x410(%rbp)
    c0ad:	48 8d 05 fc 30 01 00 	lea    0x130fc(%rip),%rax        # 1f1b0 <g_453+0x10>
    c0b4:	48 89 85 f8 fb ff ff 	mov    %rax,-0x408(%rbp)
    c0bb:	48 8d 05 ee 30 01 00 	lea    0x130ee(%rip),%rax        # 1f1b0 <g_453+0x10>
    c0c2:	48 89 85 00 fc ff ff 	mov    %rax,-0x400(%rbp)
    c0c9:	48 8d 05 e0 30 01 00 	lea    0x130e0(%rip),%rax        # 1f1b0 <g_453+0x10>
    c0d0:	48 89 85 08 fc ff ff 	mov    %rax,-0x3f8(%rbp)
    c0d7:	48 c7 85 10 fc ff ff 	movq   $0x0,-0x3f0(%rbp)
    c0de:	00 00 00 00 
    c0e2:	48 8d 05 c7 30 01 00 	lea    0x130c7(%rip),%rax        # 1f1b0 <g_453+0x10>
    c0e9:	48 89 85 18 fc ff ff 	mov    %rax,-0x3e8(%rbp)
    c0f0:	48 8d 05 b9 30 01 00 	lea    0x130b9(%rip),%rax        # 1f1b0 <g_453+0x10>
    c0f7:	48 89 85 20 fc ff ff 	mov    %rax,-0x3e0(%rbp)
    c0fe:	48 8d 05 ab 30 01 00 	lea    0x130ab(%rip),%rax        # 1f1b0 <g_453+0x10>
    c105:	48 89 85 28 fc ff ff 	mov    %rax,-0x3d8(%rbp)
    c10c:	48 8d 05 99 30 01 00 	lea    0x13099(%rip),%rax        # 1f1ac <g_453+0xc>
    c113:	48 89 85 30 fc ff ff 	mov    %rax,-0x3d0(%rbp)
    c11a:	48 8d 85 ec f5 ff ff 	lea    -0xa14(%rbp),%rax
    c121:	48 89 85 38 fc ff ff 	mov    %rax,-0x3c8(%rbp)
    c128:	48 8d 05 81 30 01 00 	lea    0x13081(%rip),%rax        # 1f1b0 <g_453+0x10>
    c12f:	48 89 85 40 fc ff ff 	mov    %rax,-0x3c0(%rbp)
    c136:	48 8d 05 73 30 01 00 	lea    0x13073(%rip),%rax        # 1f1b0 <g_453+0x10>
    c13d:	48 89 85 48 fc ff ff 	mov    %rax,-0x3b8(%rbp)
    c144:	48 8d 85 ec f5 ff ff 	lea    -0xa14(%rbp),%rax
    c14b:	48 89 85 50 fc ff ff 	mov    %rax,-0x3b0(%rbp)
    c152:	48 c7 85 58 fc ff ff 	movq   $0x0,-0x3a8(%rbp)
    c159:	00 00 00 00 
    c15d:	48 8d 05 3c 30 01 00 	lea    0x1303c(%rip),%rax        # 1f1a0 <g_453>
    c164:	48 89 85 60 fc ff ff 	mov    %rax,-0x3a0(%rbp)
    c16b:	48 8d 05 3e 30 01 00 	lea    0x1303e(%rip),%rax        # 1f1b0 <g_453+0x10>
    c172:	48 89 85 68 fc ff ff 	mov    %rax,-0x398(%rbp)
    c179:	48 8d 05 30 30 01 00 	lea    0x13030(%rip),%rax        # 1f1b0 <g_453+0x10>
    c180:	48 89 85 70 fc ff ff 	mov    %rax,-0x390(%rbp)
    c187:	48 8d 85 ec f5 ff ff 	lea    -0xa14(%rbp),%rax
    c18e:	48 89 85 78 fc ff ff 	mov    %rax,-0x388(%rbp)
    c195:	48 8d 05 14 30 01 00 	lea    0x13014(%rip),%rax        # 1f1b0 <g_453+0x10>
    c19c:	48 89 85 80 fc ff ff 	mov    %rax,-0x380(%rbp)
    c1a3:	48 8d 05 06 30 01 00 	lea    0x13006(%rip),%rax        # 1f1b0 <g_453+0x10>
    c1aa:	48 89 85 88 fc ff ff 	mov    %rax,-0x378(%rbp)
    c1b1:	48 c7 85 90 fc ff ff 	movq   $0x0,-0x370(%rbp)
    c1b8:	00 00 00 00 
    c1bc:	48 8d 05 ed 2f 01 00 	lea    0x12fed(%rip),%rax        # 1f1b0 <g_453+0x10>
    c1c3:	48 89 85 98 fc ff ff 	mov    %rax,-0x368(%rbp)
    c1ca:	48 c7 85 a0 fc ff ff 	movq   $0x0,-0x360(%rbp)
    c1d1:	00 00 00 00 
    c1d5:	48 8d 05 d4 2f 01 00 	lea    0x12fd4(%rip),%rax        # 1f1b0 <g_453+0x10>
    c1dc:	48 89 85 a8 fc ff ff 	mov    %rax,-0x358(%rbp)
    c1e3:	48 8d 05 b6 2f 01 00 	lea    0x12fb6(%rip),%rax        # 1f1a0 <g_453>
    c1ea:	48 89 85 b0 fc ff ff 	mov    %rax,-0x350(%rbp)
    c1f1:	48 8d 05 b8 2f 01 00 	lea    0x12fb8(%rip),%rax        # 1f1b0 <g_453+0x10>
    c1f8:	48 89 85 b8 fc ff ff 	mov    %rax,-0x348(%rbp)
    c1ff:	48 8d 05 aa 2f 01 00 	lea    0x12faa(%rip),%rax        # 1f1b0 <g_453+0x10>
    c206:	48 89 85 c0 fc ff ff 	mov    %rax,-0x340(%rbp)
    c20d:	48 8d 85 ec f5 ff ff 	lea    -0xa14(%rbp),%rax
    c214:	48 89 85 c8 fc ff ff 	mov    %rax,-0x338(%rbp)
    c21b:	48 8d 05 8e 2f 01 00 	lea    0x12f8e(%rip),%rax        # 1f1b0 <g_453+0x10>
    c222:	48 89 85 d0 fc ff ff 	mov    %rax,-0x330(%rbp)
    c229:	48 c7 85 d8 fc ff ff 	movq   $0x0,-0x328(%rbp)
    c230:	00 00 00 00 
    c234:	48 8d 05 75 2f 01 00 	lea    0x12f75(%rip),%rax        # 1f1b0 <g_453+0x10>
    c23b:	48 89 85 e0 fc ff ff 	mov    %rax,-0x320(%rbp)
    c242:	48 8d 05 67 2f 01 00 	lea    0x12f67(%rip),%rax        # 1f1b0 <g_453+0x10>
    c249:	48 89 85 e8 fc ff ff 	mov    %rax,-0x318(%rbp)
    c250:	48 c7 85 f0 fc ff ff 	movq   $0x0,-0x310(%rbp)
    c257:	00 00 00 00 
    c25b:	48 8d 85 ec f5 ff ff 	lea    -0xa14(%rbp),%rax
    c262:	48 89 85 f8 fc ff ff 	mov    %rax,-0x308(%rbp)
    c269:	48 8d 05 40 2f 01 00 	lea    0x12f40(%rip),%rax        # 1f1b0 <g_453+0x10>
    c270:	48 89 85 00 fd ff ff 	mov    %rax,-0x300(%rbp)
    c277:	48 c7 85 08 fd ff ff 	movq   $0x0,-0x2f8(%rbp)
    c27e:	00 00 00 00 
    c282:	48 8d 05 27 2f 01 00 	lea    0x12f27(%rip),%rax        # 1f1b0 <g_453+0x10>
    c289:	48 89 85 10 fd ff ff 	mov    %rax,-0x2f0(%rbp)
    c290:	48 8d 05 1d 2f 01 00 	lea    0x12f1d(%rip),%rax        # 1f1b4 <g_453+0x14>
    c297:	48 89 85 18 fd ff ff 	mov    %rax,-0x2e8(%rbp)
    c29e:	48 8d 05 0b 2f 01 00 	lea    0x12f0b(%rip),%rax        # 1f1b0 <g_453+0x10>
    c2a5:	48 89 85 20 fd ff ff 	mov    %rax,-0x2e0(%rbp)
    c2ac:	48 8d 05 fd 2e 01 00 	lea    0x12efd(%rip),%rax        # 1f1b0 <g_453+0x10>
    c2b3:	48 89 85 28 fd ff ff 	mov    %rax,-0x2d8(%rbp)
    c2ba:	48 8d 05 df 2e 01 00 	lea    0x12edf(%rip),%rax        # 1f1a0 <g_453>
    c2c1:	48 89 85 30 fd ff ff 	mov    %rax,-0x2d0(%rbp)
    c2c8:	48 8d 05 d1 2e 01 00 	lea    0x12ed1(%rip),%rax        # 1f1a0 <g_453>
    c2cf:	48 89 85 38 fd ff ff 	mov    %rax,-0x2c8(%rbp)
    c2d6:	48 c7 85 40 fd ff ff 	movq   $0x0,-0x2c0(%rbp)
    c2dd:	00 00 00 00 
    c2e1:	48 c7 85 48 fd ff ff 	movq   $0x0,-0x2b8(%rbp)
    c2e8:	00 00 00 00 
    c2ec:	48 c7 85 50 fd ff ff 	movq   $0x0,-0x2b0(%rbp)
    c2f3:	00 00 00 00 
    c2f7:	48 c7 85 58 fd ff ff 	movq   $0x0,-0x2a8(%rbp)
    c2fe:	00 00 00 00 
    c302:	48 8d 05 a7 2e 01 00 	lea    0x12ea7(%rip),%rax        # 1f1b0 <g_453+0x10>
    c309:	48 89 85 60 fd ff ff 	mov    %rax,-0x2a0(%rbp)
    c310:	48 8d 05 99 2e 01 00 	lea    0x12e99(%rip),%rax        # 1f1b0 <g_453+0x10>
    c317:	48 89 85 68 fd ff ff 	mov    %rax,-0x298(%rbp)
    c31e:	48 8d 05 8b 2e 01 00 	lea    0x12e8b(%rip),%rax        # 1f1b0 <g_453+0x10>
    c325:	48 89 85 70 fd ff ff 	mov    %rax,-0x290(%rbp)
    c32c:	48 8d 05 79 2e 01 00 	lea    0x12e79(%rip),%rax        # 1f1ac <g_453+0xc>
    c333:	48 89 85 78 fd ff ff 	mov    %rax,-0x288(%rbp)
    c33a:	48 8d 05 5f 2e 01 00 	lea    0x12e5f(%rip),%rax        # 1f1a0 <g_453>
    c341:	48 89 85 80 fd ff ff 	mov    %rax,-0x280(%rbp)
    c348:	48 8d 05 61 2e 01 00 	lea    0x12e61(%rip),%rax        # 1f1b0 <g_453+0x10>
    c34f:	48 89 85 88 fd ff ff 	mov    %rax,-0x278(%rbp)
    c356:	48 8d 85 ec f5 ff ff 	lea    -0xa14(%rbp),%rax
    c35d:	48 89 85 90 fd ff ff 	mov    %rax,-0x270(%rbp)
    c364:	48 8d 05 41 2e 01 00 	lea    0x12e41(%rip),%rax        # 1f1ac <g_453+0xc>
    c36b:	48 89 85 98 fd ff ff 	mov    %rax,-0x268(%rbp)
    c372:	48 8d 05 37 2e 01 00 	lea    0x12e37(%rip),%rax        # 1f1b0 <g_453+0x10>
    c379:	48 89 85 a0 fd ff ff 	mov    %rax,-0x260(%rbp)
    c380:	48 8d 05 29 2e 01 00 	lea    0x12e29(%rip),%rax        # 1f1b0 <g_453+0x10>
    c387:	48 89 85 a8 fd ff ff 	mov    %rax,-0x258(%rbp)
    c38e:	48 8d 05 17 2e 01 00 	lea    0x12e17(%rip),%rax        # 1f1ac <g_453+0xc>
    c395:	48 89 85 b0 fd ff ff 	mov    %rax,-0x250(%rbp)
    c39c:	48 c7 85 b8 fd ff ff 	movq   $0x0,-0x248(%rbp)
    c3a3:	00 00 00 00 
    c3a7:	48 8d 05 02 2e 01 00 	lea    0x12e02(%rip),%rax        # 1f1b0 <g_453+0x10>
    c3ae:	48 89 85 c0 fd ff ff 	mov    %rax,-0x240(%rbp)
    c3b5:	48 c7 85 c8 fd ff ff 	movq   $0x0,-0x238(%rbp)
    c3bc:	00 00 00 00 
    c3c0:	48 c7 85 d0 fd ff ff 	movq   $0x0,-0x230(%rbp)
    c3c7:	00 00 00 00 
    c3cb:	48 8d 05 ce 2d 01 00 	lea    0x12dce(%rip),%rax        # 1f1a0 <g_453>
    c3d2:	48 89 85 d8 fd ff ff 	mov    %rax,-0x228(%rbp)
    c3d9:	48 8d 05 d0 2d 01 00 	lea    0x12dd0(%rip),%rax        # 1f1b0 <g_453+0x10>
    c3e0:	48 89 85 e0 fd ff ff 	mov    %rax,-0x220(%rbp)
    c3e7:	48 8d 05 c2 2d 01 00 	lea    0x12dc2(%rip),%rax        # 1f1b0 <g_453+0x10>
    c3ee:	48 89 85 e8 fd ff ff 	mov    %rax,-0x218(%rbp)
    c3f5:	48 8d 05 b4 2d 01 00 	lea    0x12db4(%rip),%rax        # 1f1b0 <g_453+0x10>
    c3fc:	48 89 85 f0 fd ff ff 	mov    %rax,-0x210(%rbp)
    c403:	48 8d 05 aa 2d 01 00 	lea    0x12daa(%rip),%rax        # 1f1b4 <g_453+0x14>
    c40a:	48 89 85 f8 fd ff ff 	mov    %rax,-0x208(%rbp)
    c411:	48 8d 85 ec f5 ff ff 	lea    -0xa14(%rbp),%rax
    c418:	48 89 85 00 fe ff ff 	mov    %rax,-0x200(%rbp)
    c41f:	48 c7 85 08 fe ff ff 	movq   $0x0,-0x1f8(%rbp)
    c426:	00 00 00 00 
    c42a:	48 8d 05 7f 2d 01 00 	lea    0x12d7f(%rip),%rax        # 1f1b0 <g_453+0x10>
    c431:	48 89 85 10 fe ff ff 	mov    %rax,-0x1f0(%rbp)
    c438:	48 8d 85 ec f5 ff ff 	lea    -0xa14(%rbp),%rax
    c43f:	48 89 85 18 fe ff ff 	mov    %rax,-0x1e8(%rbp)
    c446:	48 8d 05 5f 2d 01 00 	lea    0x12d5f(%rip),%rax        # 1f1ac <g_453+0xc>
    c44d:	48 89 85 20 fe ff ff 	mov    %rax,-0x1e0(%rbp)
    c454:	48 8d 05 55 2d 01 00 	lea    0x12d55(%rip),%rax        # 1f1b0 <g_453+0x10>
    c45b:	48 89 85 28 fe ff ff 	mov    %rax,-0x1d8(%rbp)
    c462:	48 8d 05 47 2d 01 00 	lea    0x12d47(%rip),%rax        # 1f1b0 <g_453+0x10>
    c469:	48 89 85 30 fe ff ff 	mov    %rax,-0x1d0(%rbp)
    c470:	48 c7 85 38 fe ff ff 	movq   $0x0,-0x1c8(%rbp)
    c477:	00 00 00 00 
    c47b:	48 8d 85 ec f5 ff ff 	lea    -0xa14(%rbp),%rax
    c482:	48 89 85 40 fe ff ff 	mov    %rax,-0x1c0(%rbp)
    c489:	48 8d 85 ec f5 ff ff 	lea    -0xa14(%rbp),%rax
    c490:	48 89 85 48 fe ff ff 	mov    %rax,-0x1b8(%rbp)
    c497:	48 8d 05 12 2d 01 00 	lea    0x12d12(%rip),%rax        # 1f1b0 <g_453+0x10>
    c49e:	48 89 85 50 fe ff ff 	mov    %rax,-0x1b0(%rbp)
    c4a5:	48 8d 05 04 2d 01 00 	lea    0x12d04(%rip),%rax        # 1f1b0 <g_453+0x10>
    c4ac:	48 89 85 58 fe ff ff 	mov    %rax,-0x1a8(%rbp)
    c4b3:	48 8d 05 f6 2c 01 00 	lea    0x12cf6(%rip),%rax        # 1f1b0 <g_453+0x10>
    c4ba:	48 89 85 60 fe ff ff 	mov    %rax,-0x1a0(%rbp)
    c4c1:	48 8d 05 e8 2c 01 00 	lea    0x12ce8(%rip),%rax        # 1f1b0 <g_453+0x10>
    c4c8:	48 89 85 68 fe ff ff 	mov    %rax,-0x198(%rbp)
    c4cf:	48 c7 85 70 fe ff ff 	movq   $0x0,-0x190(%rbp)
    c4d6:	00 00 00 00 
    c4da:	48 8d 05 cf 2c 01 00 	lea    0x12ccf(%rip),%rax        # 1f1b0 <g_453+0x10>
    c4e1:	48 89 85 78 fe ff ff 	mov    %rax,-0x188(%rbp)
    c4e8:	48 8d 05 c1 2c 01 00 	lea    0x12cc1(%rip),%rax        # 1f1b0 <g_453+0x10>
    c4ef:	48 89 85 80 fe ff ff 	mov    %rax,-0x180(%rbp)
    c4f6:	48 8d 05 b3 2c 01 00 	lea    0x12cb3(%rip),%rax        # 1f1b0 <g_453+0x10>
    c4fd:	48 89 85 88 fe ff ff 	mov    %rax,-0x178(%rbp)
    c504:	48 8d 05 a1 2c 01 00 	lea    0x12ca1(%rip),%rax        # 1f1ac <g_453+0xc>
    c50b:	48 89 85 90 fe ff ff 	mov    %rax,-0x170(%rbp)
    c512:	48 8d 85 ec f5 ff ff 	lea    -0xa14(%rbp),%rax
    c519:	48 89 85 98 fe ff ff 	mov    %rax,-0x168(%rbp)
    c520:	48 8d 05 89 2c 01 00 	lea    0x12c89(%rip),%rax        # 1f1b0 <g_453+0x10>
    c527:	48 89 85 a0 fe ff ff 	mov    %rax,-0x160(%rbp)
    c52e:	48 8d 05 7b 2c 01 00 	lea    0x12c7b(%rip),%rax        # 1f1b0 <g_453+0x10>
    c535:	48 89 85 a8 fe ff ff 	mov    %rax,-0x158(%rbp)
    c53c:	48 8d 85 ec f5 ff ff 	lea    -0xa14(%rbp),%rax
    c543:	48 89 85 b0 fe ff ff 	mov    %rax,-0x150(%rbp)
    c54a:	48 c7 85 b8 fe ff ff 	movq   $0x0,-0x148(%rbp)
    c551:	00 00 00 00 
    c555:	48 8d 05 44 2c 01 00 	lea    0x12c44(%rip),%rax        # 1f1a0 <g_453>
    c55c:	48 89 85 c0 fe ff ff 	mov    %rax,-0x140(%rbp)
    c563:	48 8d 05 46 2c 01 00 	lea    0x12c46(%rip),%rax        # 1f1b0 <g_453+0x10>
    c56a:	48 89 85 c8 fe ff ff 	mov    %rax,-0x138(%rbp)
    c571:	48 8d 05 38 2c 01 00 	lea    0x12c38(%rip),%rax        # 1f1b0 <g_453+0x10>
    c578:	48 89 85 d0 fe ff ff 	mov    %rax,-0x130(%rbp)
    c57f:	48 8d 85 ec f5 ff ff 	lea    -0xa14(%rbp),%rax
    c586:	48 89 85 d8 fe ff ff 	mov    %rax,-0x128(%rbp)
    c58d:	48 8d 05 1c 2c 01 00 	lea    0x12c1c(%rip),%rax        # 1f1b0 <g_453+0x10>
    c594:	48 89 85 e0 fe ff ff 	mov    %rax,-0x120(%rbp)
    c59b:	48 8d 05 0e 2c 01 00 	lea    0x12c0e(%rip),%rax        # 1f1b0 <g_453+0x10>
    c5a2:	48 89 85 e8 fe ff ff 	mov    %rax,-0x118(%rbp)
    c5a9:	48 c7 85 f0 fe ff ff 	movq   $0x0,-0x110(%rbp)
    c5b0:	00 00 00 00 
    c5b4:	48 8d 05 f5 2b 01 00 	lea    0x12bf5(%rip),%rax        # 1f1b0 <g_453+0x10>
    c5bb:	48 89 85 f8 fe ff ff 	mov    %rax,-0x108(%rbp)
    c5c2:	48 c7 85 00 ff ff ff 	movq   $0x0,-0x100(%rbp)
    c5c9:	00 00 00 00 
    c5cd:	48 8d 05 dc 2b 01 00 	lea    0x12bdc(%rip),%rax        # 1f1b0 <g_453+0x10>
    c5d4:	48 89 85 08 ff ff ff 	mov    %rax,-0xf8(%rbp)
    c5db:	48 8d 05 be 2b 01 00 	lea    0x12bbe(%rip),%rax        # 1f1a0 <g_453>
    c5e2:	48 89 85 10 ff ff ff 	mov    %rax,-0xf0(%rbp)
    c5e9:	48 8d 05 c0 2b 01 00 	lea    0x12bc0(%rip),%rax        # 1f1b0 <g_453+0x10>
    c5f0:	48 89 85 18 ff ff ff 	mov    %rax,-0xe8(%rbp)
    c5f7:	48 8d 05 b2 2b 01 00 	lea    0x12bb2(%rip),%rax        # 1f1b0 <g_453+0x10>
    c5fe:	48 89 85 20 ff ff ff 	mov    %rax,-0xe0(%rbp)
    c605:	48 8d 85 ec f5 ff ff 	lea    -0xa14(%rbp),%rax
    c60c:	48 89 85 28 ff ff ff 	mov    %rax,-0xd8(%rbp)
    c613:	48 8d 05 96 2b 01 00 	lea    0x12b96(%rip),%rax        # 1f1b0 <g_453+0x10>
    c61a:	48 89 85 30 ff ff ff 	mov    %rax,-0xd0(%rbp)
    c621:	48 c7 85 38 ff ff ff 	movq   $0x0,-0xc8(%rbp)
    c628:	00 00 00 00 
    c62c:	48 8d 05 7d 2b 01 00 	lea    0x12b7d(%rip),%rax        # 1f1b0 <g_453+0x10>
    c633:	48 89 85 40 ff ff ff 	mov    %rax,-0xc0(%rbp)
    c63a:	48 8d 05 6f 2b 01 00 	lea    0x12b6f(%rip),%rax        # 1f1b0 <g_453+0x10>
    c641:	48 89 85 48 ff ff ff 	mov    %rax,-0xb8(%rbp)
    c648:	48 c7 85 50 ff ff ff 	movq   $0x0,-0xb0(%rbp)
    c64f:	00 00 00 00 
    c653:	48 8d 85 ec f5 ff ff 	lea    -0xa14(%rbp),%rax
    c65a:	48 89 85 58 ff ff ff 	mov    %rax,-0xa8(%rbp)
    c661:	48 8d 05 48 2b 01 00 	lea    0x12b48(%rip),%rax        # 1f1b0 <g_453+0x10>
    c668:	48 89 85 60 ff ff ff 	mov    %rax,-0xa0(%rbp)
    c66f:	48 c7 85 68 ff ff ff 	movq   $0x0,-0x98(%rbp)
    c676:	00 00 00 00 
    c67a:	48 8d 05 2f 2b 01 00 	lea    0x12b2f(%rip),%rax        # 1f1b0 <g_453+0x10>
    c681:	48 89 85 70 ff ff ff 	mov    %rax,-0x90(%rbp)
    c688:	48 8d 05 25 2b 01 00 	lea    0x12b25(%rip),%rax        # 1f1b4 <g_453+0x14>
    c68f:	48 89 85 78 ff ff ff 	mov    %rax,-0x88(%rbp)
    c696:	48 8d 05 13 2b 01 00 	lea    0x12b13(%rip),%rax        # 1f1b0 <g_453+0x10>
    c69d:	48 89 45 80          	mov    %rax,-0x80(%rbp)
    c6a1:	48 8d 05 08 2b 01 00 	lea    0x12b08(%rip),%rax        # 1f1b0 <g_453+0x10>
    c6a8:	48 89 45 88          	mov    %rax,-0x78(%rbp)
    c6ac:	48 8d 85 ec f5 ff ff 	lea    -0xa14(%rbp),%rax
    c6b3:	48 89 45 90          	mov    %rax,-0x70(%rbp)
    c6b7:	48 8d 85 ec f5 ff ff 	lea    -0xa14(%rbp),%rax
    c6be:	48 89 45 98          	mov    %rax,-0x68(%rbp)
    c6c2:	48 c7 45 a0 00 00 00 	movq   $0x0,-0x60(%rbp)
    c6c9:	00 
    c6ca:	48 8d 05 df 2a 01 00 	lea    0x12adf(%rip),%rax        # 1f1b0 <g_453+0x10>
    c6d1:	48 89 45 a8          	mov    %rax,-0x58(%rbp)
    c6d5:	48 c7 45 b0 00 00 00 	movq   $0x0,-0x50(%rbp)
    c6dc:	00 
    c6dd:	48 8d 05 cc 2a 01 00 	lea    0x12acc(%rip),%rax        # 1f1b0 <g_453+0x10>
    c6e4:	48 89 45 b8          	mov    %rax,-0x48(%rbp)
    c6e8:	48 8d 05 bd 2a 01 00 	lea    0x12abd(%rip),%rax        # 1f1ac <g_453+0xc>
    c6ef:	48 89 45 c0          	mov    %rax,-0x40(%rbp)
    c6f3:	48 8d 85 ec f5 ff ff 	lea    -0xa14(%rbp),%rax
    c6fa:	48 89 45 c8          	mov    %rax,-0x38(%rbp)
    c6fe:	c7 85 14 f6 ff ff 77 	movl   $0x2998e877,-0x9ec(%rbp)
    c705:	e8 98 29 
    c708:	c7 85 f4 f5 ff ff 00 	movl   $0x0,-0xa0c(%rbp)
    c70f:	00 00 00 
    c712:	eb 4c                	jmp    c760 <func_1+0xfab>
    c714:	c7 85 f8 f5 ff ff 00 	movl   $0x0,-0xa08(%rbp)
    c71b:	00 00 00 
    c71e:	eb 30                	jmp    c750 <func_1+0xf9b>
    c720:	8b 85 f8 f5 ff ff    	mov    -0xa08(%rbp),%eax
    c726:	48 63 c8             	movslq %eax,%rcx
    c729:	8b 85 f4 f5 ff ff    	mov    -0xa0c(%rbp),%eax
    c72f:	48 63 d0             	movslq %eax,%rdx
    c732:	48 89 d0             	mov    %rdx,%rax
    c735:	48 c1 e0 02          	shl    $0x2,%rax
    c739:	48 01 d0             	add    %rdx,%rax
    c73c:	48 01 c8             	add    %rcx,%rax
    c73f:	66 c7 84 45 b0 f6 ff 	movw   $0x7,-0x950(%rbp,%rax,2)
    c746:	ff 07 00 
    c749:	83 85 f8 f5 ff ff 01 	addl   $0x1,-0xa08(%rbp)
    c750:	83 bd f8 f5 ff ff 04 	cmpl   $0x4,-0xa08(%rbp)
    c757:	7e c7                	jle    c720 <func_1+0xf6b>
    c759:	83 85 f4 f5 ff ff 01 	addl   $0x1,-0xa0c(%rbp)
    c760:	83 bd f4 f5 ff ff 02 	cmpl   $0x2,-0xa0c(%rbp)
    c767:	7e ab                	jle    c714 <func_1+0xf5f>
    c769:	0f b6 05 54 2a 01 00 	movzbl 0x12a54(%rip),%eax        # 1f1c4 <g_718>
    c770:	83 c0 01             	add    $0x1,%eax
    c773:	88 05 4b 2a 01 00    	mov    %al,0x12a4b(%rip)        # 1f1c4 <g_718>
    c779:	0f b6 05 44 2a 01 00 	movzbl 0x12a44(%rip),%eax        # 1f1c4 <g_718>
    c780:	3c 05                	cmp    $0x5,%al
    c782:	0f 8e fb f2 ff ff    	jle    ba83 <func_1+0x2ce>
    c788:	8b 85 04 f6 ff ff    	mov    -0x9fc(%rbp),%eax
    c78e:	44 0f b7 e0          	movzwl %ax,%r12d
    c792:	8b 85 04 f6 ff ff    	mov    -0x9fc(%rbp),%eax
    c798:	44 0f b7 e8          	movzwl %ax,%r13d
    c79c:	48 8b 05 7d 62 01 00 	mov    0x1627d(%rip),%rax        # 22a20 <g_2087>
    c7a3:	48 8b 00             	mov    (%rax),%rax
    c7a6:	89 c2                	mov    %eax,%edx
    c7a8:	48 8b 05 49 5b 01 00 	mov    0x15b49(%rip),%rax        # 222f8 <g_1356>
    c7af:	48 8b 00             	mov    (%rax),%rax
    c7b2:	48 8b 00             	mov    (%rax),%rax
    c7b5:	31 d0                	xor    %edx,%eax
    c7b7:	83 f0 01             	xor    $0x1,%eax
    c7ba:	89 c2                	mov    %eax,%edx
    c7bc:	8b 85 10 f6 ff ff    	mov    -0x9f0(%rbp),%eax
    c7c2:	0f be c0             	movsbl %al,%eax
    c7c5:	89 d6                	mov    %edx,%esi
    c7c7:	89 c7                	mov    %eax,%edi
    c7c9:	e8 d3 da ff ff       	callq  a2a1 <safe_lshift_func_int8_t_s_s>
    c7ce:	84 c0                	test   %al,%al
    c7d0:	75 09                	jne    c7db <func_1+0x1026>
    c7d2:	83 bd 04 f6 ff ff 00 	cmpl   $0x0,-0x9fc(%rbp)
    c7d9:	74 07                	je     c7e2 <func_1+0x102d>
    c7db:	b8 01 00 00 00       	mov    $0x1,%eax
    c7e0:	eb 05                	jmp    c7e7 <func_1+0x1032>
    c7e2:	b8 00 00 00 00       	mov    $0x0,%eax
    c7e7:	39 85 0c f6 ff ff    	cmp    %eax,-0x9f4(%rbp)
    c7ed:	0f 94 c0             	sete   %al
    c7f0:	0f b6 c0             	movzbl %al,%eax
    c7f3:	48 8b 1d 4e 52 01 00 	mov    0x1524e(%rip),%rbx        # 21a48 <g_174>
    c7fa:	44 89 ee             	mov    %r13d,%esi
    c7fd:	89 c7                	mov    %eax,%edi
    c7ff:	e8 fb e4 ff ff       	callq  acff <safe_add_func_uint16_t_u_u>
    c804:	66 89 03             	mov    %ax,(%rbx)
    c807:	0f b7 03             	movzwl (%rbx),%eax
    c80a:	0f b7 c0             	movzwl %ax,%eax
    c80d:	44 89 e6             	mov    %r12d,%esi
    c810:	89 c7                	mov    %eax,%edi
    c812:	e8 08 e5 ff ff       	callq  ad1f <safe_sub_func_uint16_t_u_u>
    c817:	0f b7 d0             	movzwl %ax,%edx
    c81a:	48 8b 05 9f 28 01 00 	mov    0x1289f(%rip),%rax        # 1f0c0 <g_199+0x40>
    c821:	48 39 c2             	cmp    %rax,%rdx
    c824:	0f 95 c0             	setne  %al
    c827:	0f b6 d8             	movzbl %al,%ebx
    c82a:	8b 85 0c f6 ff ff    	mov    -0x9f4(%rbp),%eax
    c830:	0f b7 c0             	movzwl %ax,%eax
    c833:	be 09 00 00 00       	mov    $0x9,%esi
    c838:	89 c7                	mov    %eax,%edi
    c83a:	e8 3b e6 ff ff       	callq  ae7a <safe_rshift_func_uint16_t_u_u>
    c83f:	0f b7 d0             	movzwl %ax,%edx
    c842:	48 8b 05 ef 64 01 00 	mov    0x164ef(%rip),%rax        # 22d38 <g_2522>
    c849:	48 8b 00             	mov    (%rax),%rax
    c84c:	48 8b 00             	mov    (%rax),%rax
    c84f:	8b 00                	mov    (%rax),%eax
    c851:	39 85 08 f6 ff ff    	cmp    %eax,-0x9f8(%rbp)
    c857:	0f 9f c0             	setg   %al
    c85a:	0f b6 c0             	movzbl %al,%eax
    c85d:	89 d6                	mov    %edx,%esi
    c85f:	89 c7                	mov    %eax,%edi
    c861:	e8 e6 e3 ff ff       	callq  ac4c <safe_lshift_func_uint8_t_u_u>
    c866:	0f b6 c8             	movzbl %al,%ecx
    c869:	48 8b 05 f8 64 01 00 	mov    0x164f8(%rip),%rax        # 22d68 <g_2824>
    c870:	0f b7 00             	movzwl (%rax),%eax
    c873:	98                   	cwtl   
    c874:	4c 8b 25 b5 61 01 00 	mov    0x161b5(%rip),%r12        # 22a30 <g_2101>
    c87b:	89 da                	mov    %ebx,%edx
    c87d:	89 ce                	mov    %ecx,%esi
    c87f:	89 c7                	mov    %eax,%edi
    c881:	e8 7d 70 00 00       	callq  13903 <func_47>
    c886:	49 89 04 24          	mov    %rax,(%r12)
    c88a:	8b 05 60 69 01 00    	mov    0x16960(%rip),%eax        # 231f0 <g_1970>
    c890:	83 c0 01             	add    $0x1,%eax
    c893:	89 05 57 69 01 00    	mov    %eax,0x16957(%rip)        # 231f0 <g_1970>
    c899:	8b 05 51 69 01 00    	mov    0x16951(%rip),%eax        # 231f0 <g_1970>
    c89f:	83 f8 02             	cmp    $0x2,%eax
    c8a2:	0f 8e 91 f1 ff ff    	jle    ba39 <func_1+0x284>
    c8a8:	0f b7 85 ea f5 ff ff 	movzwl -0xa16(%rbp),%eax
    c8af:	0f bf d0             	movswl %ax,%edx
    c8b2:	8b 85 04 f6 ff ff    	mov    -0x9fc(%rbp),%eax
    c8b8:	98                   	cwtl   
    c8b9:	89 d6                	mov    %edx,%esi
    c8bb:	89 c7                	mov    %eax,%edi
    c8bd:	e8 33 db ff ff       	callq  a3f5 <safe_mul_func_int16_t_s_s>
    c8c2:	8b 85 08 f6 ff ff    	mov    -0x9f8(%rbp),%eax
    c8c8:	0f bf d0             	movswl %ax,%edx
    c8cb:	48 8b 05 96 64 01 00 	mov    0x16496(%rip),%rax        # 22d68 <g_2824>
    c8d2:	0f b7 00             	movzwl (%rax),%eax
    c8d5:	98                   	cwtl   
    c8d6:	89 d6                	mov    %edx,%esi
    c8d8:	89 c7                	mov    %eax,%edi
    c8da:	e8 16 db ff ff       	callq  a3f5 <safe_mul_func_int16_t_s_s>
    c8df:	98                   	cwtl   
    c8e0:	39 85 00 f6 ff ff    	cmp    %eax,-0xa00(%rbp)
    c8e6:	0f 92 c0             	setb   %al
    c8e9:	0f b6 c0             	movzbl %al,%eax
    c8ec:	48 be 22 7e ab 34 f5 	movabs $0x8cfd21f534ab7e22,%rsi
    c8f3:	21 fd 8c 
    c8f6:	48 89 c7             	mov    %rax,%rdi
    c8f9:	e8 aa df ff ff       	callq  a8a8 <safe_sub_func_int64_t_s_s>
    c8fe:	89 c2                	mov    %eax,%edx
    c900:	48 8b 85 48 f6 ff ff 	mov    -0x9b8(%rbp),%rax
    c907:	66 89 10             	mov    %dx,(%rax)
    c90a:	48 8b 85 48 f6 ff ff 	mov    -0x9b8(%rbp),%rax
    c911:	0f b7 00             	movzwl (%rax),%eax
    c914:	98                   	cwtl   
    c915:	be 05 00 00 00       	mov    $0x5,%esi
    c91a:	89 c7                	mov    %eax,%edi
    c91c:	e8 71 db ff ff       	callq  a492 <safe_lshift_func_int16_t_s_s>
    c921:	8b 85 08 f6 ff ff    	mov    -0x9f8(%rbp),%eax
    c927:	83 f0 05             	xor    $0x5,%eax
    c92a:	89 c2                	mov    %eax,%edx
    c92c:	48 8b 85 40 f6 ff ff 	mov    -0x9c0(%rbp),%rax
    c933:	48 8b 00             	mov    (%rax),%rax
    c936:	48 8b 00             	mov    (%rax),%rax
    c939:	48 8b 00             	mov    (%rax),%rax
    c93c:	48 8b 00             	mov    (%rax),%rax
    c93f:	8b 00                	mov    (%rax),%eax
    c941:	89 c1                	mov    %eax,%ecx
    c943:	8b 85 00 f6 ff ff    	mov    -0xa00(%rbp),%eax
    c949:	98                   	cwtl   
    c94a:	89 ce                	mov    %ecx,%esi
    c94c:	89 c7                	mov    %eax,%edi
    c94e:	e8 b0 6f 00 00       	callq  13903 <func_47>
    c953:	48 8b 15 d6 5b 01 00 	mov    0x15bd6(%rip),%rdx        # 22530 <g_1682>
    c95a:	48 8b 05 d7 63 01 00 	mov    0x163d7(%rip),%rax        # 22d38 <g_2522>
    c961:	48 8b 00             	mov    (%rax),%rax
    c964:	48 8b 00             	mov    (%rax),%rax
    c967:	8b 12                	mov    (%rdx),%edx
    c969:	89 10                	mov    %edx,(%rax)
    c96b:	48 8b 05 3e 5b 01 00 	mov    0x15b3e(%rip),%rax        # 224b0 <g_1564>
    c972:	48 8b 00             	mov    (%rax),%rax
    c975:	0f b6 00             	movzbl (%rax),%eax
    c978:	e9 88 00 00 00       	jmpq   ca05 <func_1+0x1250>
    c97d:	be 0c 00 00 00       	mov    $0xc,%esi
    c982:	bf ff ff 00 00       	mov    $0xffff,%edi
    c987:	e8 ee e4 ff ff       	callq  ae7a <safe_rshift_func_uint16_t_u_u>
    c98c:	48 8b 95 20 f6 ff ff 	mov    -0x9e0(%rbp),%rdx
    c993:	48 8b 12             	mov    (%rdx),%rdx
    c996:	48 8b 12             	mov    (%rdx),%rdx
    c999:	8b 0a                	mov    (%rdx),%ecx
    c99b:	0f b7 d0             	movzwl %ax,%edx
    c99e:	48 8b 85 20 f6 ff ff 	mov    -0x9e0(%rbp),%rax
    c9a5:	48 8b 00             	mov    (%rax),%rax
    c9a8:	48 8b 00             	mov    (%rax),%rax
    c9ab:	21 ca                	and    %ecx,%edx
    c9ad:	89 10                	mov    %edx,(%rax)
    c9af:	8b 05 cb 29 01 00    	mov    0x129cb(%rip),%eax        # 1f380 <g_2882>
    c9b5:	0f b7 c0             	movzwl %ax,%eax
    c9b8:	be 04 00 00 00       	mov    $0x4,%esi
    c9bd:	89 c7                	mov    %eax,%edi
    c9bf:	e8 5b e3 ff ff       	callq  ad1f <safe_sub_func_uint16_t_u_u>
    c9c4:	0f b7 c0             	movzwl %ax,%eax
    c9c7:	89 05 b3 29 01 00    	mov    %eax,0x129b3(%rip)        # 1f380 <g_2882>
    c9cd:	8b 05 ad 29 01 00    	mov    0x129ad(%rip),%eax        # 1f380 <g_2882>
    c9d3:	83 f8 f4             	cmp    $0xfffffff4,%eax
    c9d6:	0f 8d 13 f0 ff ff    	jge    b9ef <func_1+0x23a>
    c9dc:	48 8b 85 58 f6 ff ff 	mov    -0x9a8(%rbp),%rax
    c9e3:	48 8b 10             	mov    (%rax),%rdx
    c9e6:	48 8b 85 58 f6 ff ff 	mov    -0x9a8(%rbp),%rax
    c9ed:	48 89 10             	mov    %rdx,(%rax)
    c9f0:	48 8b 85 40 f6 ff ff 	mov    -0x9c0(%rbp),%rax
    c9f7:	48 8b 00             	mov    (%rax),%rax
    c9fa:	48 8b 00             	mov    (%rax),%rax
    c9fd:	48 8b 00             	mov    (%rax),%rax
    ca00:	48 8b 00             	mov    (%rax),%rax
    ca03:	8b 00                	mov    (%rax),%eax
    ca05:	48 8b 5d d8          	mov    -0x28(%rbp),%rbx
    ca09:	64 48 33 1c 25 28 00 	xor    %fs:0x28,%rbx
    ca10:	00 00 
    ca12:	74 05                	je     ca19 <func_1+0x1264>
    ca14:	e8 57 d6 ff ff       	callq  a070 <__stack_chk_fail@plt>
    ca19:	48 81 c4 08 0a 00 00 	add    $0xa08,%rsp
    ca20:	5b                   	pop    %rbx
    ca21:	41 5c                	pop    %r12
    ca23:	41 5d                	pop    %r13
    ca25:	5d                   	pop    %rbp
    ca26:	c3                   	retq   

000000000000ca27 <func_19>:
    ca27:	f3 0f 1e fa          	endbr64 
    ca2b:	55                   	push   %rbp
    ca2c:	48 89 e5             	mov    %rsp,%rbp
    ca2f:	41 57                	push   %r15
    ca31:	41 56                	push   %r14
    ca33:	41 55                	push   %r13
    ca35:	41 54                	push   %r12
    ca37:	53                   	push   %rbx
    ca38:	48 81 ec 00 10 00 00 	sub    $0x1000,%rsp
    ca3f:	48 83 0c 24 00       	orq    $0x0,(%rsp)
    ca44:	48 81 ec 58 06 00 00 	sub    $0x658,%rsp
    ca4b:	48 89 bd a8 e9 ff ff 	mov    %rdi,-0x1658(%rbp)
    ca52:	89 b5 a4 e9 ff ff    	mov    %esi,-0x165c(%rbp)
    ca58:	89 95 a0 e9 ff ff    	mov    %edx,-0x1660(%rbp)
    ca5e:	48 89 8d 98 e9 ff ff 	mov    %rcx,-0x1668(%rbp)
    ca65:	64 48 8b 04 25 28 00 	mov    %fs:0x28,%rax
    ca6c:	00 00 
    ca6e:	48 89 45 c8          	mov    %rax,-0x38(%rbp)
    ca72:	31 c0                	xor    %eax,%eax
    ca74:	c7 85 c4 e9 ff ff fc 	movl   $0xfffffffc,-0x163c(%rbp)
    ca7b:	ff ff ff 
    ca7e:	48 8d 05 9b 27 01 00 	lea    0x1279b(%rip),%rax        # 1f220 <g_1483>
    ca85:	48 89 85 18 ea ff ff 	mov    %rax,-0x15e8(%rbp)
    ca8c:	48 8d 05 95 27 01 00 	lea    0x12795(%rip),%rax        # 1f228 <g_1638>
    ca93:	48 89 85 20 ea ff ff 	mov    %rax,-0x15e0(%rbp)
    ca9a:	48 8d 05 87 5f 01 00 	lea    0x15f87(%rip),%rax        # 22a28 <g_2086>
    caa1:	48 89 85 28 ea ff ff 	mov    %rax,-0x15d8(%rbp)
    caa8:	c7 85 e0 e9 ff ff 00 	movl   $0x0,-0x1620(%rbp)
    caaf:	00 00 00 
    cab2:	c7 85 c8 e9 ff ff 9d 	movl   $0x5ed9d69d,-0x1638(%rbp)
    cab9:	d6 d9 5e 
    cabc:	48 8d 05 75 25 01 00 	lea    0x12575(%rip),%rax        # 1f038 <g_73>
    cac3:	48 89 85 30 ea ff ff 	mov    %rax,-0x15d0(%rbp)
    caca:	48 8d 85 a0 ec ff ff 	lea    -0x1360(%rbp),%rax
    cad1:	48 8d 15 08 d7 00 00 	lea    0xd708(%rip),%rdx        # 1a1e0 <g_2661+0x170>
    cad8:	b9 80 00 00 00       	mov    $0x80,%ecx
    cadd:	48 89 c7             	mov    %rax,%rdi
    cae0:	48 89 d6             	mov    %rdx,%rsi
    cae3:	f3 48 a5             	rep movsq %ds:(%rsi),%es:(%rdi)
    cae6:	48 8d 05 5b 4f 01 00 	lea    0x14f5b(%rip),%rax        # 21a48 <g_174>
    caed:	48 89 85 38 ea ff ff 	mov    %rax,-0x15c8(%rbp)
    caf4:	c6 85 bd e9 ff ff fe 	movb   $0xfe,-0x1643(%rbp)
    cafb:	c7 85 60 ea ff ff 88 	movl   $0x1c9e6d88,-0x15a0(%rbp)
    cb02:	6d 9e 1c 
    cb05:	c7 85 64 ea ff ff ca 	movl   $0x20f573ca,-0x159c(%rbp)
    cb0c:	73 f5 20 
    cb0f:	c7 85 68 ea ff ff 88 	movl   $0x1c9e6d88,-0x1598(%rbp)
    cb16:	6d 9e 1c 
    cb19:	c7 85 6c ea ff ff 88 	movl   $0x1c9e6d88,-0x1594(%rbp)
    cb20:	6d 9e 1c 
    cb23:	c7 85 70 ea ff ff ca 	movl   $0x20f573ca,-0x1590(%rbp)
    cb2a:	73 f5 20 
    cb2d:	c7 85 74 ea ff ff 88 	movl   $0x1c9e6d88,-0x158c(%rbp)
    cb34:	6d 9e 1c 
    cb37:	c7 85 cc e9 ff ff 00 	movl   $0x0,-0x1634(%rbp)
    cb3e:	00 00 00 
    cb41:	eb 1a                	jmp    cb5d <func_19+0x136>
    cb43:	8b 85 cc e9 ff ff    	mov    -0x1634(%rbp),%eax
    cb49:	48 98                	cltq   
    cb4b:	c7 84 85 5c ea ff ff 	movl   $0x4429e8bb,-0x15a4(%rbp,%rax,4)
    cb52:	bb e8 29 44 
    cb56:	83 85 cc e9 ff ff 01 	addl   $0x1,-0x1634(%rbp)
    cb5d:	83 bd cc e9 ff ff 00 	cmpl   $0x0,-0x1634(%rbp)
    cb64:	7e dd                	jle    cb43 <func_19+0x11c>
    cb66:	48 8b 85 98 e9 ff ff 	mov    -0x1668(%rbp),%rax
    cb6d:	83 c8 09             	or     $0x9,%eax
    cb70:	0f b6 c0             	movzbl %al,%eax
    cb73:	be 07 00 00 00       	mov    $0x7,%esi
    cb78:	89 c7                	mov    %eax,%edi
    cb7a:	e8 cd e0 ff ff       	callq  ac4c <safe_lshift_func_uint8_t_u_u>
    cb7f:	8b 85 c4 e9 ff ff    	mov    -0x163c(%rbp),%eax
    cb85:	0f b7 c0             	movzwl %ax,%eax
    cb88:	be cf fc 00 00       	mov    $0xfccf,%esi
    cb8d:	89 c7                	mov    %eax,%edi
    cb8f:	e8 b4 e2 ff ff       	callq  ae48 <safe_rshift_func_uint16_t_u_s>
    cb94:	0f b7 c0             	movzwl %ax,%eax
    cb97:	89 85 5c ea ff ff    	mov    %eax,-0x15a4(%rbp)
    cb9d:	8b 95 5c ea ff ff    	mov    -0x15a4(%rbp),%edx
    cba3:	48 8b 05 9e 5e 01 00 	mov    0x15e9e(%rip),%rax        # 22a48 <g_2130>
    cbaa:	48 8b 00             	mov    (%rax),%rax
    cbad:	48 39 85 28 ea ff ff 	cmp    %rax,-0x15d8(%rbp)
    cbb4:	0f 95 c0             	setne  %al
    cbb7:	0f b6 c0             	movzbl %al,%eax
    cbba:	39 c2                	cmp    %eax,%edx
    cbbc:	0f 94 c0             	sete   %al
    cbbf:	0f b6 c0             	movzbl %al,%eax
    cbc2:	48 39 85 98 e9 ff ff 	cmp    %rax,-0x1668(%rbp)
    cbc9:	7e 0d                	jle    cbd8 <func_19+0x1b1>
    cbcb:	8b 05 a3 27 01 00    	mov    0x127a3(%rip),%eax        # 1f374 <g_2590+0x4>
    cbd1:	48 98                	cltq   
    cbd3:	e9 a1 1f 00 00       	jmpq   eb79 <func_19+0x2152>
    cbd8:	48 8d 05 e5 25 01 00 	lea    0x125e5(%rip),%rax        # 1f1c4 <g_718>
    cbdf:	48 89 85 f8 e9 ff ff 	mov    %rax,-0x1608(%rbp)
    cbe6:	48 8d 85 f8 e9 ff ff 	lea    -0x1608(%rbp),%rax
    cbed:	48 89 85 00 ea ff ff 	mov    %rax,-0x1600(%rbp)
    cbf4:	48 8d 85 00 ea ff ff 	lea    -0x1600(%rbp),%rax
    cbfb:	48 89 85 80 ea ff ff 	mov    %rax,-0x1580(%rbp)
    cc02:	48 8d 85 00 ea ff ff 	lea    -0x1600(%rbp),%rax
    cc09:	48 89 85 88 ea ff ff 	mov    %rax,-0x1578(%rbp)
    cc10:	48 8d 85 00 ea ff ff 	lea    -0x1600(%rbp),%rax
    cc17:	48 89 85 90 ea ff ff 	mov    %rax,-0x1570(%rbp)
    cc1e:	48 8d 85 00 ea ff ff 	lea    -0x1600(%rbp),%rax
    cc25:	48 89 85 98 ea ff ff 	mov    %rax,-0x1568(%rbp)
    cc2c:	48 8d 85 00 ea ff ff 	lea    -0x1600(%rbp),%rax
    cc33:	48 89 85 a0 ea ff ff 	mov    %rax,-0x1560(%rbp)
    cc3a:	48 8d 85 00 ea ff ff 	lea    -0x1600(%rbp),%rax
    cc41:	48 89 85 a8 ea ff ff 	mov    %rax,-0x1558(%rbp)
    cc48:	c7 85 c0 e9 ff ff 3a 	movl   $0x7472f43a,-0x1640(%rbp)
    cc4f:	f4 72 74 
    cc52:	48 8d 05 c7 5d 01 00 	lea    0x15dc7(%rip),%rax        # 22a20 <g_2087>
    cc59:	48 89 85 08 ea ff ff 	mov    %rax,-0x15f8(%rbp)
    cc60:	48 8d 85 08 ea ff ff 	lea    -0x15f8(%rbp),%rax
    cc67:	48 89 85 e0 eb ff ff 	mov    %rax,-0x1420(%rbp)
    cc6e:	48 8d 85 08 ea ff ff 	lea    -0x15f8(%rbp),%rax
    cc75:	48 89 85 e8 eb ff ff 	mov    %rax,-0x1418(%rbp)
    cc7c:	48 8d 85 08 ea ff ff 	lea    -0x15f8(%rbp),%rax
    cc83:	48 89 85 f0 eb ff ff 	mov    %rax,-0x1410(%rbp)
    cc8a:	48 8d 85 08 ea ff ff 	lea    -0x15f8(%rbp),%rax
    cc91:	48 89 85 f8 eb ff ff 	mov    %rax,-0x1408(%rbp)
    cc98:	48 8d 85 08 ea ff ff 	lea    -0x15f8(%rbp),%rax
    cc9f:	48 89 85 00 ec ff ff 	mov    %rax,-0x1400(%rbp)
    cca6:	48 8d 85 08 ea ff ff 	lea    -0x15f8(%rbp),%rax
    ccad:	48 89 85 08 ec ff ff 	mov    %rax,-0x13f8(%rbp)
    ccb4:	48 8d 85 08 ea ff ff 	lea    -0x15f8(%rbp),%rax
    ccbb:	48 89 85 10 ec ff ff 	mov    %rax,-0x13f0(%rbp)
    ccc2:	48 8d 85 08 ea ff ff 	lea    -0x15f8(%rbp),%rax
    ccc9:	48 89 85 18 ec ff ff 	mov    %rax,-0x13e8(%rbp)
    ccd0:	48 8d 85 08 ea ff ff 	lea    -0x15f8(%rbp),%rax
    ccd7:	48 89 85 20 ec ff ff 	mov    %rax,-0x13e0(%rbp)
    ccde:	48 8d 85 08 ea ff ff 	lea    -0x15f8(%rbp),%rax
    cce5:	48 89 85 28 ec ff ff 	mov    %rax,-0x13d8(%rbp)
    ccec:	48 8d 85 08 ea ff ff 	lea    -0x15f8(%rbp),%rax
    ccf3:	48 89 85 30 ec ff ff 	mov    %rax,-0x13d0(%rbp)
    ccfa:	48 8d 85 08 ea ff ff 	lea    -0x15f8(%rbp),%rax
    cd01:	48 89 85 38 ec ff ff 	mov    %rax,-0x13c8(%rbp)
    cd08:	48 8d 85 08 ea ff ff 	lea    -0x15f8(%rbp),%rax
    cd0f:	48 89 85 40 ec ff ff 	mov    %rax,-0x13c0(%rbp)
    cd16:	48 8d 85 08 ea ff ff 	lea    -0x15f8(%rbp),%rax
    cd1d:	48 89 85 48 ec ff ff 	mov    %rax,-0x13b8(%rbp)
    cd24:	48 8d 85 08 ea ff ff 	lea    -0x15f8(%rbp),%rax
    cd2b:	48 89 85 50 ec ff ff 	mov    %rax,-0x13b0(%rbp)
    cd32:	48 8d 85 08 ea ff ff 	lea    -0x15f8(%rbp),%rax
    cd39:	48 89 85 58 ec ff ff 	mov    %rax,-0x13a8(%rbp)
    cd40:	48 8d 85 08 ea ff ff 	lea    -0x15f8(%rbp),%rax
    cd47:	48 89 85 60 ec ff ff 	mov    %rax,-0x13a0(%rbp)
    cd4e:	48 8d 85 08 ea ff ff 	lea    -0x15f8(%rbp),%rax
    cd55:	48 89 85 68 ec ff ff 	mov    %rax,-0x1398(%rbp)
    cd5c:	48 8d 85 08 ea ff ff 	lea    -0x15f8(%rbp),%rax
    cd63:	48 89 85 70 ec ff ff 	mov    %rax,-0x1390(%rbp)
    cd6a:	48 8d 85 08 ea ff ff 	lea    -0x15f8(%rbp),%rax
    cd71:	48 89 85 78 ec ff ff 	mov    %rax,-0x1388(%rbp)
    cd78:	48 8d 85 08 ea ff ff 	lea    -0x15f8(%rbp),%rax
    cd7f:	48 89 85 80 ec ff ff 	mov    %rax,-0x1380(%rbp)
    cd86:	48 8d 85 08 ea ff ff 	lea    -0x15f8(%rbp),%rax
    cd8d:	48 89 85 88 ec ff ff 	mov    %rax,-0x1378(%rbp)
    cd94:	48 8d 85 08 ea ff ff 	lea    -0x15f8(%rbp),%rax
    cd9b:	48 89 85 90 ec ff ff 	mov    %rax,-0x1370(%rbp)
    cda2:	48 8d 85 08 ea ff ff 	lea    -0x15f8(%rbp),%rax
    cda9:	48 89 85 98 ec ff ff 	mov    %rax,-0x1368(%rbp)
    cdb0:	c7 85 d0 e9 ff ff 08 	movl   $0x8,-0x1630(%rbp)
    cdb7:	00 00 00 
    cdba:	c7 85 d4 e9 ff ff 6e 	movl   $0x3249a36e,-0x162c(%rbp)
    cdc1:	a3 49 32 
    cdc4:	48 8d 85 a0 f0 ff ff 	lea    -0xf60(%rbp),%rax
    cdcb:	48 8d 15 ce 25 01 00 	lea    0x125ce(%rip),%rdx        # 1f3a0 <g_2882+0x20>
    cdd2:	b9 f0 00 00 00       	mov    $0xf0,%ecx
    cdd7:	48 89 c7             	mov    %rax,%rdi
    cdda:	48 89 d6             	mov    %rdx,%rsi
    cddd:	f3 48 a5             	rep movsq %ds:(%rsi),%es:(%rdi)
    cde0:	48 8d 05 19 55 01 00 	lea    0x15519(%rip),%rax        # 22300 <g_1402>
    cde7:	48 89 85 40 ea ff ff 	mov    %rax,-0x15c0(%rbp)
    cdee:	48 8d 85 c0 e9 ff ff 	lea    -0x1640(%rbp),%rax
    cdf5:	48 89 85 f0 ea ff ff 	mov    %rax,-0x1510(%rbp)
    cdfc:	48 8d 85 c0 e9 ff ff 	lea    -0x1640(%rbp),%rax
    ce03:	48 89 85 f8 ea ff ff 	mov    %rax,-0x1508(%rbp)
    ce0a:	48 8d 85 c0 e9 ff ff 	lea    -0x1640(%rbp),%rax
    ce11:	48 89 85 00 eb ff ff 	mov    %rax,-0x1500(%rbp)
    ce18:	48 8d 85 c0 e9 ff ff 	lea    -0x1640(%rbp),%rax
    ce1f:	48 89 85 08 eb ff ff 	mov    %rax,-0x14f8(%rbp)
    ce26:	48 8d 85 c0 e9 ff ff 	lea    -0x1640(%rbp),%rax
    ce2d:	48 89 85 10 eb ff ff 	mov    %rax,-0x14f0(%rbp)
    ce34:	48 8d 85 c0 e9 ff ff 	lea    -0x1640(%rbp),%rax
    ce3b:	48 89 85 18 eb ff ff 	mov    %rax,-0x14e8(%rbp)
    ce42:	48 8d 85 c0 e9 ff ff 	lea    -0x1640(%rbp),%rax
    ce49:	48 89 85 20 eb ff ff 	mov    %rax,-0x14e0(%rbp)
    ce50:	48 8d 85 c0 e9 ff ff 	lea    -0x1640(%rbp),%rax
    ce57:	48 89 85 28 eb ff ff 	mov    %rax,-0x14d8(%rbp)
    ce5e:	c7 85 e4 e9 ff ff 01 	movl   $0x1,-0x161c(%rbp)
    ce65:	00 00 00 
    ce68:	48 8b 05 71 5a 01 00 	mov    0x15a71(%rip),%rax        # 228e0 <g_1917>
    ce6f:	48 8b 00             	mov    (%rax),%rax
    ce72:	48 8b 00             	mov    (%rax),%rax
    ce75:	8b 18                	mov    (%rax),%ebx
    ce77:	83 bd a4 e9 ff ff 00 	cmpl   $0x0,-0x165c(%rbp)
    ce7e:	0f 95 c0             	setne  %al
    ce81:	89 c2                	mov    %eax,%edx
    ce83:	8b 85 c0 e9 ff ff    	mov    -0x1640(%rbp),%eax
    ce89:	21 d0                	and    %edx,%eax
    ce8b:	0f be c0             	movsbl %al,%eax
    ce8e:	be 04 00 00 00       	mov    $0x4,%esi
    ce93:	89 c7                	mov    %eax,%edi
    ce95:	e8 07 d4 ff ff       	callq  a2a1 <safe_lshift_func_int8_t_s_s>
    ce9a:	48 8b 85 90 ea ff ff 	mov    -0x1570(%rbp),%rax
    cea1:	48 85 c0             	test   %rax,%rax
    cea4:	0f 95 c0             	setne  %al
    cea7:	0f b6 d0             	movzbl %al,%edx
    ceaa:	8b 85 e0 e9 ff ff    	mov    -0x1620(%rbp),%eax
    ceb0:	48 39 85 98 e9 ff ff 	cmp    %rax,-0x1668(%rbp)
    ceb7:	74 07                	je     cec0 <func_19+0x499>
    ceb9:	b8 dc 95 61 b3       	mov    $0xb36195dc,%eax
    cebe:	eb 05                	jmp    cec5 <func_19+0x49e>
    cec0:	b8 dd 95 61 b3       	mov    $0xb36195dd,%eax
    cec5:	48 39 d0             	cmp    %rdx,%rax
    cec8:	0f 9d c0             	setge  %al
    cecb:	0f b6 c0             	movzbl %al,%eax
    cece:	39 85 e0 e9 ff ff    	cmp    %eax,-0x1620(%rbp)
    ced4:	0f 95 c0             	setne  %al
    ced7:	0f b6 c0             	movzbl %al,%eax
    ceda:	4c 8b 25 37 52 01 00 	mov    0x15237(%rip),%r12        # 22118 <g_739>
    cee1:	8b 8d a4 e9 ff ff    	mov    -0x165c(%rbp),%ecx
    cee7:	89 da                	mov    %ebx,%edx
    cee9:	89 ce                	mov    %ecx,%esi
    ceeb:	89 c7                	mov    %eax,%edi
    ceed:	e8 11 6a 00 00       	callq  13903 <func_47>
    cef2:	49 89 04 24          	mov    %rax,(%r12)
    cef6:	8b 05 b4 22 01 00    	mov    0x122b4(%rip),%eax        # 1f1b0 <g_453+0x10>
    cefc:	41 89 c4             	mov    %eax,%r12d
    ceff:	83 bd a0 e9 ff ff 00 	cmpl   $0x0,-0x1660(%rbp)
    cf06:	0f 85 cc 00 00 00    	jne    cfd8 <func_19+0x5b1>
    cf0c:	8b 85 a4 e9 ff ff    	mov    -0x165c(%rbp),%eax
    cf12:	0f be d8             	movsbl %al,%ebx
    cf15:	c7 85 5c ea ff ff 65 	movl   $0x9965,-0x15a4(%rbp)
    cf1c:	99 00 00 
    cf1f:	8b 85 c0 e9 ff ff    	mov    -0x1640(%rbp),%eax
    cf25:	89 85 c0 e9 ff ff    	mov    %eax,-0x1640(%rbp)
    cf2b:	8b 85 c0 e9 ff ff    	mov    -0x1640(%rbp),%eax
    cf31:	0f be c0             	movsbl %al,%eax
    cf34:	89 c6                	mov    %eax,%esi
    cf36:	bf 01 00 00 00       	mov    $0x1,%edi
    cf3b:	e8 2a d3 ff ff       	callq  a26a <safe_div_func_int8_t_s_s>
    cf40:	0f be c0             	movsbl %al,%eax
    cf43:	89 de                	mov    %ebx,%esi
    cf45:	89 c7                	mov    %eax,%edi
    cf47:	e8 c6 d2 ff ff       	callq  a212 <safe_mul_func_int8_t_s_s>
    cf4c:	0f be c0             	movsbl %al,%eax
    cf4f:	39 85 c4 e9 ff ff    	cmp    %eax,-0x163c(%rbp)
    cf55:	0f 95 c0             	setne  %al
    cf58:	0f b6 c0             	movzbl %al,%eax
    cf5b:	39 85 c4 e9 ff ff    	cmp    %eax,-0x163c(%rbp)
    cf61:	0f 93 c0             	setae  %al
    cf64:	0f b6 c0             	movzbl %al,%eax
    cf67:	be f6 ff ff ff       	mov    $0xfffffff6,%esi
    cf6c:	89 c7                	mov    %eax,%edi
    cf6e:	e8 f7 d2 ff ff       	callq  a26a <safe_div_func_int8_t_s_s>
    cf73:	0f be c0             	movsbl %al,%eax
    cf76:	89 85 d0 e9 ff ff    	mov    %eax,-0x1630(%rbp)
    cf7c:	8b 95 d4 e9 ff ff    	mov    -0x162c(%rbp),%edx
    cf82:	8b 85 d0 e9 ff ff    	mov    -0x1630(%rbp),%eax
    cf88:	89 d6                	mov    %edx,%esi
    cf8a:	89 c7                	mov    %eax,%edi
    cf8c:	e8 74 d6 ff ff       	callq  a605 <safe_sub_func_int32_t_s_s>
    cf91:	89 c2                	mov    %eax,%edx
    cf93:	48 8b 85 18 ea ff ff 	mov    -0x15e8(%rbp),%rax
    cf9a:	66 89 10             	mov    %dx,(%rax)
    cf9d:	48 8b 85 18 ea ff ff 	mov    -0x15e8(%rbp),%rax
    cfa4:	0f b7 00             	movzwl (%rax),%eax
    cfa7:	98                   	cwtl   
    cfa8:	be 01 00 00 00       	mov    $0x1,%esi
    cfad:	89 c7                	mov    %eax,%edi
    cfaf:	e8 1f d4 ff ff       	callq  a3d3 <safe_sub_func_int16_t_s_s>
    cfb4:	0f b7 c0             	movzwl %ax,%eax
    cfb7:	be 0b 00 00 00       	mov    $0xb,%esi
    cfbc:	89 c7                	mov    %eax,%edi
    cfbe:	e8 85 de ff ff       	callq  ae48 <safe_rshift_func_uint16_t_u_s>
    cfc3:	0f b7 d0             	movzwl %ax,%edx
    cfc6:	48 8b 05 5b 5a 01 00 	mov    0x15a5b(%rip),%rax        # 22a28 <g_2086>
    cfcd:	48 8b 00             	mov    (%rax),%rax
    cfd0:	48 8b 00             	mov    (%rax),%rax
    cfd3:	48 39 c2             	cmp    %rax,%rdx
    cfd6:	74 07                	je     cfdf <func_19+0x5b8>
    cfd8:	b8 01 00 00 00       	mov    $0x1,%eax
    cfdd:	eb 05                	jmp    cfe4 <func_19+0x5bd>
    cfdf:	b8 00 00 00 00       	mov    $0x0,%eax
    cfe4:	be 40 ab 14 d3       	mov    $0xd314ab40,%esi
    cfe9:	89 c7                	mov    %eax,%edi
    cfeb:	e8 e0 de ff ff       	callq  aed0 <safe_sub_func_uint32_t_u_u>
    cff0:	39 85 e0 e9 ff ff    	cmp    %eax,-0x1620(%rbp)
    cff6:	0f 95 c0             	setne  %al
    cff9:	0f b6 c0             	movzbl %al,%eax
    cffc:	be 00 00 00 00       	mov    $0x0,%esi
    d001:	89 c7                	mov    %eax,%edi
    d003:	e8 70 db ff ff       	callq  ab78 <safe_sub_func_uint8_t_u_u>
    d008:	0f b6 c0             	movzbl %al,%eax
    d00b:	44 89 e6             	mov    %r12d,%esi
    d00e:	89 c7                	mov    %eax,%edi
    d010:	e8 33 de ff ff       	callq  ae48 <safe_rshift_func_uint16_t_u_s>
    d015:	66 85 c0             	test   %ax,%ax
    d018:	0f 84 d3 02 00 00    	je     d2f1 <func_19+0x8ca>
    d01e:	c6 85 be e9 ff ff 68 	movb   $0x68,-0x1642(%rbp)
    d025:	66 c7 85 20 f8 ff ff 	movw   $0x0,-0x7e0(%rbp)
    d02c:	00 00 
    d02e:	66 c7 85 22 f8 ff ff 	movw   $0xcb77,-0x7de(%rbp)
    d035:	77 cb 
    d037:	66 c7 85 24 f8 ff ff 	movw   $0xcb77,-0x7dc(%rbp)
    d03e:	77 cb 
    d040:	66 c7 85 26 f8 ff ff 	movw   $0x0,-0x7da(%rbp)
    d047:	00 00 
    d049:	66 c7 85 28 f8 ff ff 	movw   $0xcb77,-0x7d8(%rbp)
    d050:	77 cb 
    d052:	66 c7 85 2a f8 ff ff 	movw   $0xcb77,-0x7d6(%rbp)
    d059:	77 cb 
    d05b:	66 c7 85 2c f8 ff ff 	movw   $0x0,-0x7d4(%rbp)
    d062:	00 00 
    d064:	66 c7 85 2e f8 ff ff 	movw   $0xcb77,-0x7d2(%rbp)
    d06b:	77 cb 
    d06d:	66 c7 85 30 f8 ff ff 	movw   $0x0,-0x7d0(%rbp)
    d074:	00 00 
    d076:	66 c7 85 32 f8 ff ff 	movw   $0xcb77,-0x7ce(%rbp)
    d07d:	77 cb 
    d07f:	66 c7 85 34 f8 ff ff 	movw   $0xcb77,-0x7cc(%rbp)
    d086:	77 cb 
    d088:	66 c7 85 36 f8 ff ff 	movw   $0x0,-0x7ca(%rbp)
    d08f:	00 00 
    d091:	66 c7 85 38 f8 ff ff 	movw   $0xcb77,-0x7c8(%rbp)
    d098:	77 cb 
    d09a:	66 c7 85 3a f8 ff ff 	movw   $0xcb77,-0x7c6(%rbp)
    d0a1:	77 cb 
    d0a3:	66 c7 85 3c f8 ff ff 	movw   $0x0,-0x7c4(%rbp)
    d0aa:	00 00 
    d0ac:	66 c7 85 3e f8 ff ff 	movw   $0x0,-0x7c2(%rbp)
    d0b3:	00 00 
    d0b5:	66 c7 85 40 f8 ff ff 	movw   $0x18c5,-0x7c0(%rbp)
    d0bc:	c5 18 
    d0be:	66 c7 85 42 f8 ff ff 	movw   $0x0,-0x7be(%rbp)
    d0c5:	00 00 
    d0c7:	66 c7 85 44 f8 ff ff 	movw   $0x0,-0x7bc(%rbp)
    d0ce:	00 00 
    d0d0:	66 c7 85 46 f8 ff ff 	movw   $0x18c5,-0x7ba(%rbp)
    d0d7:	c5 18 
    d0d9:	66 c7 85 48 f8 ff ff 	movw   $0x0,-0x7b8(%rbp)
    d0e0:	00 00 
    d0e2:	c7 85 30 eb ff ff a1 	movl   $0x927d9aa1,-0x14d0(%rbp)
    d0e9:	9a 7d 92 
    d0ec:	c7 85 34 eb ff ff a1 	movl   $0x927d9aa1,-0x14cc(%rbp)
    d0f3:	9a 7d 92 
    d0f6:	c7 85 38 eb ff ff a1 	movl   $0x927d9aa1,-0x14c8(%rbp)
    d0fd:	9a 7d 92 
    d100:	c7 85 3c eb ff ff a1 	movl   $0x927d9aa1,-0x14c4(%rbp)
    d107:	9a 7d 92 
    d10a:	c7 85 40 eb ff ff a1 	movl   $0x927d9aa1,-0x14c0(%rbp)
    d111:	9a 7d 92 
    d114:	c7 85 44 eb ff ff a1 	movl   $0x927d9aa1,-0x14bc(%rbp)
    d11b:	9a 7d 92 
    d11e:	c7 85 48 eb ff ff a1 	movl   $0x927d9aa1,-0x14b8(%rbp)
    d125:	9a 7d 92 
    d128:	c7 85 4c eb ff ff a1 	movl   $0x927d9aa1,-0x14b4(%rbp)
    d12f:	9a 7d 92 
    d132:	c7 85 c4 e9 ff ff 00 	movl   $0x0,-0x163c(%rbp)
    d139:	00 00 00 
    d13c:	e9 9e 01 00 00       	jmpq   d2df <func_19+0x8b8>
    d141:	c6 85 bf e9 ff ff 15 	movb   $0x15,-0x1641(%rbp)
    d148:	c7 85 f4 e9 ff ff ff 	movl   $0xffffffff,-0x160c(%rbp)
    d14f:	ff ff ff 
    d152:	c7 85 d8 e9 ff ff 00 	movl   $0x0,-0x1628(%rbp)
    d159:	00 00 00 
    d15c:	eb 1e                	jmp    d17c <func_19+0x755>
    d15e:	8b 85 d8 e9 ff ff    	mov    -0x1628(%rbp),%eax
    d164:	48 98                	cltq   
    d166:	48 8d 15 c3 5b 01 00 	lea    0x15bc3(%rip),%rdx        # 22d30 <g_2523>
    d16d:	48 89 94 c5 b0 ea ff 	mov    %rdx,-0x1550(%rbp,%rax,8)
    d174:	ff 
    d175:	83 85 d8 e9 ff ff 01 	addl   $0x1,-0x1628(%rbp)
    d17c:	83 bd d8 e9 ff ff 01 	cmpl   $0x1,-0x1628(%rbp)
    d183:	7e d9                	jle    d15e <func_19+0x737>
    d185:	44 0f b6 ad be e9 ff 	movzbl -0x1642(%rbp),%r13d
    d18c:	ff 
    d18d:	48 8b 05 94 58 01 00 	mov    0x15894(%rip),%rax        # 22a28 <g_2086>
    d194:	48 8b 00             	mov    (%rax),%rax
    d197:	4c 8b 30             	mov    (%rax),%r14
    d19a:	48 8b 85 b8 ea ff ff 	mov    -0x1548(%rbp),%rax
    d1a1:	48 85 c0             	test   %rax,%rax
    d1a4:	0f 85 b5 00 00 00    	jne    d25f <func_19+0x838>
    d1aa:	8b 85 a4 e9 ff ff    	mov    -0x165c(%rbp),%eax
    d1b0:	0f b6 d8             	movzbl %al,%ebx
    d1b3:	8b 85 40 eb ff ff    	mov    -0x14c0(%rbp),%eax
    d1b9:	44 0f b7 e0          	movzwl %ax,%r12d
    d1bd:	48 8b 85 98 e9 ff ff 	mov    -0x1668(%rbp),%rax
    d1c4:	0f bf d0             	movswl %ax,%edx
    d1c7:	0f b7 85 3a f8 ff ff 	movzwl -0x7c6(%rbp),%eax
    d1ce:	98                   	cwtl   
    d1cf:	39 85 f4 e9 ff ff    	cmp    %eax,-0x160c(%rbp)
    d1d5:	75 09                	jne    d1e0 <func_19+0x7b9>
    d1d7:	83 bd c4 e9 ff ff 00 	cmpl   $0x0,-0x163c(%rbp)
    d1de:	74 07                	je     d1e7 <func_19+0x7c0>
    d1e0:	b8 01 00 00 00       	mov    $0x1,%eax
    d1e5:	eb 05                	jmp    d1ec <func_19+0x7c5>
    d1e7:	b8 00 00 00 00       	mov    $0x0,%eax
    d1ec:	98                   	cwtl   
    d1ed:	89 d6                	mov    %edx,%esi
    d1ef:	89 c7                	mov    %eax,%edi
    d1f1:	e8 dd d1 ff ff       	callq  a3d3 <safe_sub_func_int16_t_s_s>
    d1f6:	8b 95 5c ea ff ff    	mov    -0x15a4(%rbp),%edx
    d1fc:	21 d0                	and    %edx,%eax
    d1fe:	0f b7 c0             	movzwl %ax,%eax
    d201:	44 89 e6             	mov    %r12d,%esi
    d204:	89 c7                	mov    %eax,%edi
    d206:	e8 14 db ff ff       	callq  ad1f <safe_sub_func_uint16_t_u_u>
    d20b:	66 85 c0             	test   %ax,%ax
    d20e:	75 10                	jne    d220 <func_19+0x7f9>
    d210:	48 8b 05 19 5b 01 00 	mov    0x15b19(%rip),%rax        # 22d30 <g_2523>
    d217:	48 8b 00             	mov    (%rax),%rax
    d21a:	8b 00                	mov    (%rax),%eax
    d21c:	85 c0                	test   %eax,%eax
    d21e:	74 07                	je     d227 <func_19+0x800>
    d220:	b8 01 00 00 00       	mov    $0x1,%eax
    d225:	eb 05                	jmp    d22c <func_19+0x805>
    d227:	b8 00 00 00 00       	mov    $0x0,%eax
    d22c:	89 c2                	mov    %eax,%edx
    d22e:	48 8b 05 03 5b 01 00 	mov    0x15b03(%rip),%rax        # 22d38 <g_2522>
    d235:	48 8b 00             	mov    (%rax),%rax
    d238:	48 8b 00             	mov    (%rax),%rax
    d23b:	8b 00                	mov    (%rax),%eax
    d23d:	09 d0                	or     %edx,%eax
    d23f:	0f b6 c0             	movzbl %al,%eax
    d242:	89 de                	mov    %ebx,%esi
    d244:	89 c7                	mov    %eax,%edi
    d246:	e8 90 d9 ff ff       	callq  abdb <safe_div_func_uint8_t_u_u>
    d24b:	0f b6 c0             	movzbl %al,%eax
    d24e:	be 96 c1 00 00       	mov    $0xc196,%esi
    d253:	89 c7                	mov    %eax,%edi
    d255:	e8 e3 da ff ff       	callq  ad3d <safe_mul_func_uint16_t_u_u>
    d25a:	66 85 c0             	test   %ax,%ax
    d25d:	74 07                	je     d266 <func_19+0x83f>
    d25f:	b8 01 00 00 00       	mov    $0x1,%eax
    d264:	eb 05                	jmp    d26b <func_19+0x844>
    d266:	b8 00 00 00 00       	mov    $0x0,%eax
    d26b:	48 98                	cltq   
    d26d:	49 39 c6             	cmp    %rax,%r14
    d270:	0f 93 c0             	setae  %al
    d273:	0f b6 c0             	movzbl %al,%eax
    d276:	48 be 9b d0 7c 8d 67 	movabs $0x5c0070678d7cd09b,%rsi
    d27d:	70 00 5c 
    d280:	48 89 c7             	mov    %rax,%rdi
    d283:	e8 b9 d5 ff ff       	callq  a841 <safe_add_func_int64_t_s_s>
    d288:	89 c2                	mov    %eax,%edx
    d28a:	66 0f be 85 bf e9 ff 	movsbw -0x1641(%rbp),%ax
    d291:	ff 
    d292:	0f b7 c0             	movzwl %ax,%eax
    d295:	89 d6                	mov    %edx,%esi
    d297:	89 c7                	mov    %eax,%edi
    d299:	e8 20 db ff ff       	callq  adbe <safe_lshift_func_uint16_t_u_s>
    d29e:	44 09 e8             	or     %r13d,%eax
    d2a1:	89 c2                	mov    %eax,%edx
    d2a3:	48 8b 85 18 ea ff ff 	mov    -0x15e8(%rbp),%rax
    d2aa:	66 89 10             	mov    %dx,(%rax)
    d2ad:	48 8b 85 18 ea ff ff 	mov    -0x15e8(%rbp),%rax
    d2b4:	0f b7 00             	movzwl (%rax),%eax
    d2b7:	66 85 c0             	test   %ax,%ax
    d2ba:	0f 95 c0             	setne  %al
    d2bd:	0f b6 c0             	movzbl %al,%eax
    d2c0:	09 85 d4 e9 ff ff    	or     %eax,-0x162c(%rbp)
    d2c6:	8b 85 c4 e9 ff ff    	mov    -0x163c(%rbp),%eax
    d2cc:	be 03 00 00 00       	mov    $0x3,%esi
    d2d1:	48 89 c7             	mov    %rax,%rdi
    d2d4:	e8 68 d5 ff ff       	callq  a841 <safe_add_func_int64_t_s_s>
    d2d9:	89 85 c4 e9 ff ff    	mov    %eax,-0x163c(%rbp)
    d2df:	83 bd c4 e9 ff ff 13 	cmpl   $0x13,-0x163c(%rbp)
    d2e6:	0f 86 55 fe ff ff    	jbe    d141 <func_19+0x71a>
    d2ec:	e9 7e 17 00 00       	jmpq   ea6f <func_19+0x2048>
    d2f1:	c7 85 e8 e9 ff ff 0f 	movl   $0x521ae30f,-0x1618(%rbp)
    d2f8:	e3 1a 52 
    d2fb:	48 8d 05 72 20 01 00 	lea    0x12072(%rip),%rax        # 1f374 <g_2590+0x4>
    d302:	48 89 85 48 ea ff ff 	mov    %rax,-0x15b8(%rbp)
    d309:	48 8b 05 38 52 01 00 	mov    0x15238(%rip),%rax        # 22548 <g_1698>
    d310:	48 8b 00             	mov    (%rax),%rax
    d313:	0f b6 10             	movzbl (%rax),%edx
    d316:	83 c2 01             	add    $0x1,%edx
    d319:	88 10                	mov    %dl,(%rax)
    d31b:	0f b6 00             	movzbl (%rax),%eax
    d31e:	0f b6 c0             	movzbl %al,%eax
    d321:	be 06 00 00 00       	mov    $0x6,%esi
    d326:	89 c7                	mov    %eax,%edi
    d328:	e8 91 d9 ff ff       	callq  acbe <safe_rshift_func_uint8_t_u_u>
    d32d:	44 0f b6 e8          	movzbl %al,%r13d
    d331:	8b 85 d4 e9 ff ff    	mov    -0x162c(%rbp),%eax
    d337:	48 63 d8             	movslq %eax,%rbx
    d33a:	b8 00 00 00 00       	mov    $0x0,%eax
    d33f:	44 0f b7 e0          	movzwl %ax,%r12d
    d343:	48 8b 85 a8 e9 ff ff 	mov    -0x1658(%rbp),%rax
    d34a:	48 8b 00             	mov    (%rax),%rax
    d34d:	8b 00                	mov    (%rax),%eax
    d34f:	89 c2                	mov    %eax,%edx
    d351:	83 bd d0 e9 ff ff 00 	cmpl   $0x0,-0x1630(%rbp)
    d358:	0f 95 c0             	setne  %al
    d35b:	0f b6 c0             	movzbl %al,%eax
    d35e:	89 d6                	mov    %edx,%esi
    d360:	89 c7                	mov    %eax,%edi
    d362:	e8 96 db ff ff       	callq  aefd <safe_mod_func_uint32_t_u_u>
    d367:	48 8b 05 7a 44 01 00 	mov    0x1447a(%rip),%rax        # 217e8 <g_56>
    d36e:	48 8b 10             	mov    (%rax),%rdx
    d371:	48 8b 05 a8 4d 01 00 	mov    0x14da8(%rip),%rax        # 22120 <g_774>
    d378:	48 8b 00             	mov    (%rax),%rax
    d37b:	8b 12                	mov    (%rdx),%edx
    d37d:	89 10                	mov    %edx,(%rax)
    d37f:	8b 10                	mov    (%rax),%edx
    d381:	48 8b 85 a8 e9 ff ff 	mov    -0x1658(%rbp),%rax
    d388:	48 8b 00             	mov    (%rax),%rax
    d38b:	8b 00                	mov    (%rax),%eax
    d38d:	89 d6                	mov    %edx,%esi
    d38f:	89 c7                	mov    %eax,%edi
    d391:	e8 6f d2 ff ff       	callq  a605 <safe_sub_func_int32_t_s_s>
    d396:	89 c2                	mov    %eax,%edx
    d398:	48 8b 05 59 4f 01 00 	mov    0x14f59(%rip),%rax        # 222f8 <g_1356>
    d39f:	48 8b 00             	mov    (%rax),%rax
    d3a2:	48 63 d2             	movslq %edx,%rdx
    d3a5:	48 89 10             	mov    %rdx,(%rax)
    d3a8:	48 8b 00             	mov    (%rax),%rax
    d3ab:	48 c7 c6 ff ff ff ff 	mov    $0xffffffffffffffff,%rsi
    d3b2:	48 89 c7             	mov    %rax,%rdi
    d3b5:	e8 3d d6 ff ff       	callq  a9f7 <safe_div_func_int64_t_s_s>
    d3ba:	48 8b 85 98 e9 ff ff 	mov    -0x1668(%rbp),%rax
    d3c1:	48 be 11 06 90 84 44 	movabs $0x9210504484900611,%rsi
    d3c8:	50 10 92 
    d3cb:	48 89 c7             	mov    %rax,%rdi
    d3ce:	e8 ad dc ff ff       	callq  b080 <safe_mod_func_uint64_t_u_u>
    d3d3:	48 89 c2             	mov    %rax,%rdx
    d3d6:	48 8b 05 d3 50 01 00 	mov    0x150d3(%rip),%rax        # 224b0 <g_1564>
    d3dd:	48 8b 00             	mov    (%rax),%rax
    d3e0:	0f b6 08             	movzbl (%rax),%ecx
    d3e3:	09 ca                	or     %ecx,%edx
    d3e5:	88 10                	mov    %dl,(%rax)
    d3e7:	48 8b 95 f8 e9 ff ff 	mov    -0x1608(%rbp),%rdx
    d3ee:	0f b6 00             	movzbl (%rax),%eax
    d3f1:	88 02                	mov    %al,(%rdx)
    d3f3:	48 8b 05 6e 1d 01 00 	mov    0x11d6e(%rip),%rax        # 1f168 <g_379+0x8>
    d3fa:	4c 89 e6             	mov    %r12,%rsi
    d3fd:	bf 00 00 00 00       	mov    $0x0,%edi
    d402:	e8 f0 d5 ff ff       	callq  a9f7 <safe_div_func_int64_t_s_s>
    d407:	48 89 de             	mov    %rbx,%rsi
    d40a:	48 89 c7             	mov    %rax,%rdi
    d40d:	e8 9d dc ff ff       	callq  b0af <safe_div_func_uint64_t_u_u>
    d412:	4c 31 e8             	xor    %r13,%rax
    d415:	31 85 e8 e9 ff ff    	xor    %eax,-0x1618(%rbp)
    d41b:	c6 05 1e 1c 01 00 1a 	movb   $0x1a,0x11c1e(%rip)        # 1f040 <g_106>
    d422:	e9 6b 15 00 00       	jmpq   e992 <func_19+0x1f6b>
    d427:	48 c7 85 b0 ea ff ff 	movq   $0x0,-0x1550(%rbp)
    d42e:	00 00 00 00 
    d432:	48 c7 85 b8 ea ff ff 	movq   $0x0,-0x1548(%rbp)
    d439:	00 00 00 00 
    d43d:	48 8d 05 34 4d 01 00 	lea    0x14d34(%rip),%rax        # 22178 <g_1289>
    d444:	48 89 85 c0 ea ff ff 	mov    %rax,-0x1540(%rbp)
    d44b:	48 c7 85 c8 ea ff ff 	movq   $0x0,-0x1538(%rbp)
    d452:	00 00 00 00 
    d456:	48 c7 85 d0 ea ff ff 	movq   $0x0,-0x1530(%rbp)
    d45d:	00 00 00 00 
    d461:	48 8d 05 10 4d 01 00 	lea    0x14d10(%rip),%rax        # 22178 <g_1289>
    d468:	48 89 85 d8 ea ff ff 	mov    %rax,-0x1528(%rbp)
    d46f:	48 c7 85 e0 ea ff ff 	movq   $0x0,-0x1520(%rbp)
    d476:	00 00 00 00 
    d47a:	c7 85 ec e9 ff ff 30 	movl   $0x1ba2930,-0x1614(%rbp)
    d481:	29 ba 01 
    d484:	c7 85 dc e9 ff ff 6c 	movl   $0xb8b9eb6c,-0x1624(%rbp)
    d48b:	eb b9 b8 
    d48e:	48 c7 85 a8 f2 ff ff 	movq   $0x0,-0xd58(%rbp)
    d495:	00 00 00 00 
    d499:	66 c7 05 16 1d 01 00 	movw   $0x3,0x11d16(%rip)        # 1f1b8 <g_486>
    d4a0:	03 00 
    d4a2:	e9 b7 14 00 00       	jmpq   e95e <func_19+0x1f37>
    d4a7:	48 c7 85 10 ea ff ff 	movq   $0x0,-0x15f0(%rbp)
    d4ae:	00 00 00 00 
    d4b2:	48 c7 85 20 f8 ff ff 	movq   $0x0,-0x7e0(%rbp)
    d4b9:	00 00 00 00 
    d4bd:	48 8d 85 10 ea ff ff 	lea    -0x15f0(%rbp),%rax
    d4c4:	48 89 85 28 f8 ff ff 	mov    %rax,-0x7d8(%rbp)
    d4cb:	48 8d 85 10 ea ff ff 	lea    -0x15f0(%rbp),%rax
    d4d2:	48 89 85 30 f8 ff ff 	mov    %rax,-0x7d0(%rbp)
    d4d9:	48 8d 85 10 ea ff ff 	lea    -0x15f0(%rbp),%rax
    d4e0:	48 89 85 38 f8 ff ff 	mov    %rax,-0x7c8(%rbp)
    d4e7:	48 8d 85 10 ea ff ff 	lea    -0x15f0(%rbp),%rax
    d4ee:	48 89 85 40 f8 ff ff 	mov    %rax,-0x7c0(%rbp)
    d4f5:	48 c7 85 48 f8 ff ff 	movq   $0x0,-0x7b8(%rbp)
    d4fc:	00 00 00 00 
    d500:	48 8d 85 10 ea ff ff 	lea    -0x15f0(%rbp),%rax
    d507:	48 89 85 50 f8 ff ff 	mov    %rax,-0x7b0(%rbp)
    d50e:	48 8d 85 10 ea ff ff 	lea    -0x15f0(%rbp),%rax
    d515:	48 89 85 58 f8 ff ff 	mov    %rax,-0x7a8(%rbp)
    d51c:	48 8d 85 10 ea ff ff 	lea    -0x15f0(%rbp),%rax
    d523:	48 89 85 60 f8 ff ff 	mov    %rax,-0x7a0(%rbp)
    d52a:	48 8d 85 10 ea ff ff 	lea    -0x15f0(%rbp),%rax
    d531:	48 89 85 68 f8 ff ff 	mov    %rax,-0x798(%rbp)
    d538:	48 8d 85 10 ea ff ff 	lea    -0x15f0(%rbp),%rax
    d53f:	48 89 85 70 f8 ff ff 	mov    %rax,-0x790(%rbp)
    d546:	48 8d 85 10 ea ff ff 	lea    -0x15f0(%rbp),%rax
    d54d:	48 89 85 78 f8 ff ff 	mov    %rax,-0x788(%rbp)
    d554:	48 8d 85 10 ea ff ff 	lea    -0x15f0(%rbp),%rax
    d55b:	48 89 85 80 f8 ff ff 	mov    %rax,-0x780(%rbp)
    d562:	48 8d 85 10 ea ff ff 	lea    -0x15f0(%rbp),%rax
    d569:	48 89 85 88 f8 ff ff 	mov    %rax,-0x778(%rbp)
    d570:	48 c7 85 90 f8 ff ff 	movq   $0x0,-0x770(%rbp)
    d577:	00 00 00 00 
    d57b:	48 8d 85 10 ea ff ff 	lea    -0x15f0(%rbp),%rax
    d582:	48 89 85 98 f8 ff ff 	mov    %rax,-0x768(%rbp)
    d589:	48 8d 85 10 ea ff ff 	lea    -0x15f0(%rbp),%rax
    d590:	48 89 85 a0 f8 ff ff 	mov    %rax,-0x760(%rbp)
    d597:	48 8d 85 10 ea ff ff 	lea    -0x15f0(%rbp),%rax
    d59e:	48 89 85 a8 f8 ff ff 	mov    %rax,-0x758(%rbp)
    d5a5:	48 8d 85 10 ea ff ff 	lea    -0x15f0(%rbp),%rax
    d5ac:	48 89 85 b0 f8 ff ff 	mov    %rax,-0x750(%rbp)
    d5b3:	48 8d 85 10 ea ff ff 	lea    -0x15f0(%rbp),%rax
    d5ba:	48 89 85 b8 f8 ff ff 	mov    %rax,-0x748(%rbp)
    d5c1:	48 8d 85 10 ea ff ff 	lea    -0x15f0(%rbp),%rax
    d5c8:	48 89 85 c0 f8 ff ff 	mov    %rax,-0x740(%rbp)
    d5cf:	48 8d 85 10 ea ff ff 	lea    -0x15f0(%rbp),%rax
    d5d6:	48 89 85 c8 f8 ff ff 	mov    %rax,-0x738(%rbp)
    d5dd:	48 8d 85 10 ea ff ff 	lea    -0x15f0(%rbp),%rax
    d5e4:	48 89 85 d0 f8 ff ff 	mov    %rax,-0x730(%rbp)
    d5eb:	48 8d 85 10 ea ff ff 	lea    -0x15f0(%rbp),%rax
    d5f2:	48 89 85 d8 f8 ff ff 	mov    %rax,-0x728(%rbp)
    d5f9:	48 8d 85 10 ea ff ff 	lea    -0x15f0(%rbp),%rax
    d600:	48 89 85 e0 f8 ff ff 	mov    %rax,-0x720(%rbp)
    d607:	48 8d 85 10 ea ff ff 	lea    -0x15f0(%rbp),%rax
    d60e:	48 89 85 e8 f8 ff ff 	mov    %rax,-0x718(%rbp)
    d615:	48 8d 85 10 ea ff ff 	lea    -0x15f0(%rbp),%rax
    d61c:	48 89 85 f0 f8 ff ff 	mov    %rax,-0x710(%rbp)
    d623:	48 8d 85 10 ea ff ff 	lea    -0x15f0(%rbp),%rax
    d62a:	48 89 85 f8 f8 ff ff 	mov    %rax,-0x708(%rbp)
    d631:	48 8d 85 10 ea ff ff 	lea    -0x15f0(%rbp),%rax
    d638:	48 89 85 00 f9 ff ff 	mov    %rax,-0x700(%rbp)
    d63f:	48 8d 85 10 ea ff ff 	lea    -0x15f0(%rbp),%rax
    d646:	48 89 85 08 f9 ff ff 	mov    %rax,-0x6f8(%rbp)
    d64d:	48 8d 85 10 ea ff ff 	lea    -0x15f0(%rbp),%rax
    d654:	48 89 85 10 f9 ff ff 	mov    %rax,-0x6f0(%rbp)
    d65b:	48 8d 85 10 ea ff ff 	lea    -0x15f0(%rbp),%rax
    d662:	48 89 85 18 f9 ff ff 	mov    %rax,-0x6e8(%rbp)
    d669:	48 c7 85 20 f9 ff ff 	movq   $0x0,-0x6e0(%rbp)
    d670:	00 00 00 00 
    d674:	48 c7 85 28 f9 ff ff 	movq   $0x0,-0x6d8(%rbp)
    d67b:	00 00 00 00 
    d67f:	48 8d 85 10 ea ff ff 	lea    -0x15f0(%rbp),%rax
    d686:	48 89 85 30 f9 ff ff 	mov    %rax,-0x6d0(%rbp)
    d68d:	48 8d 85 10 ea ff ff 	lea    -0x15f0(%rbp),%rax
    d694:	48 89 85 38 f9 ff ff 	mov    %rax,-0x6c8(%rbp)
    d69b:	48 8d 85 10 ea ff ff 	lea    -0x15f0(%rbp),%rax
    d6a2:	48 89 85 40 f9 ff ff 	mov    %rax,-0x6c0(%rbp)
    d6a9:	48 8d 85 10 ea ff ff 	lea    -0x15f0(%rbp),%rax
    d6b0:	48 89 85 48 f9 ff ff 	mov    %rax,-0x6b8(%rbp)
    d6b7:	48 8d 85 10 ea ff ff 	lea    -0x15f0(%rbp),%rax
    d6be:	48 89 85 50 f9 ff ff 	mov    %rax,-0x6b0(%rbp)
    d6c5:	48 8d 85 10 ea ff ff 	lea    -0x15f0(%rbp),%rax
    d6cc:	48 89 85 58 f9 ff ff 	mov    %rax,-0x6a8(%rbp)
    d6d3:	48 8d 85 10 ea ff ff 	lea    -0x15f0(%rbp),%rax
    d6da:	48 89 85 60 f9 ff ff 	mov    %rax,-0x6a0(%rbp)
    d6e1:	48 8d 85 10 ea ff ff 	lea    -0x15f0(%rbp),%rax
    d6e8:	48 89 85 68 f9 ff ff 	mov    %rax,-0x698(%rbp)
    d6ef:	48 8d 85 10 ea ff ff 	lea    -0x15f0(%rbp),%rax
    d6f6:	48 89 85 70 f9 ff ff 	mov    %rax,-0x690(%rbp)
    d6fd:	48 8d 85 10 ea ff ff 	lea    -0x15f0(%rbp),%rax
    d704:	48 89 85 78 f9 ff ff 	mov    %rax,-0x688(%rbp)
    d70b:	48 8d 85 10 ea ff ff 	lea    -0x15f0(%rbp),%rax
    d712:	48 89 85 80 f9 ff ff 	mov    %rax,-0x680(%rbp)
    d719:	48 8d 85 10 ea ff ff 	lea    -0x15f0(%rbp),%rax
    d720:	48 89 85 88 f9 ff ff 	mov    %rax,-0x678(%rbp)
    d727:	48 c7 85 90 f9 ff ff 	movq   $0x0,-0x670(%rbp)
    d72e:	00 00 00 00 
    d732:	48 8d 85 10 ea ff ff 	lea    -0x15f0(%rbp),%rax
    d739:	48 89 85 98 f9 ff ff 	mov    %rax,-0x668(%rbp)
    d740:	48 8d 85 10 ea ff ff 	lea    -0x15f0(%rbp),%rax
    d747:	48 89 85 a0 f9 ff ff 	mov    %rax,-0x660(%rbp)
    d74e:	48 8d 85 10 ea ff ff 	lea    -0x15f0(%rbp),%rax
    d755:	48 89 85 a8 f9 ff ff 	mov    %rax,-0x658(%rbp)
    d75c:	48 8d 85 10 ea ff ff 	lea    -0x15f0(%rbp),%rax
    d763:	48 89 85 b0 f9 ff ff 	mov    %rax,-0x650(%rbp)
    d76a:	48 8d 85 10 ea ff ff 	lea    -0x15f0(%rbp),%rax
    d771:	48 89 85 b8 f9 ff ff 	mov    %rax,-0x648(%rbp)
    d778:	48 8d 85 10 ea ff ff 	lea    -0x15f0(%rbp),%rax
    d77f:	48 89 85 c0 f9 ff ff 	mov    %rax,-0x640(%rbp)
    d786:	48 8d 85 10 ea ff ff 	lea    -0x15f0(%rbp),%rax
    d78d:	48 89 85 c8 f9 ff ff 	mov    %rax,-0x638(%rbp)
    d794:	48 8d 85 10 ea ff ff 	lea    -0x15f0(%rbp),%rax
    d79b:	48 89 85 d0 f9 ff ff 	mov    %rax,-0x630(%rbp)
    d7a2:	48 8d 85 10 ea ff ff 	lea    -0x15f0(%rbp),%rax
    d7a9:	48 89 85 d8 f9 ff ff 	mov    %rax,-0x628(%rbp)
    d7b0:	48 8d 85 10 ea ff ff 	lea    -0x15f0(%rbp),%rax
    d7b7:	48 89 85 e0 f9 ff ff 	mov    %rax,-0x620(%rbp)
    d7be:	48 8d 85 10 ea ff ff 	lea    -0x15f0(%rbp),%rax
    d7c5:	48 89 85 e8 f9 ff ff 	mov    %rax,-0x618(%rbp)
    d7cc:	48 8d 85 10 ea ff ff 	lea    -0x15f0(%rbp),%rax
    d7d3:	48 89 85 f0 f9 ff ff 	mov    %rax,-0x610(%rbp)
    d7da:	48 8d 85 10 ea ff ff 	lea    -0x15f0(%rbp),%rax
    d7e1:	48 89 85 f8 f9 ff ff 	mov    %rax,-0x608(%rbp)
    d7e8:	48 8d 85 10 ea ff ff 	lea    -0x15f0(%rbp),%rax
    d7ef:	48 89 85 00 fa ff ff 	mov    %rax,-0x600(%rbp)
    d7f6:	48 c7 85 08 fa ff ff 	movq   $0x0,-0x5f8(%rbp)
    d7fd:	00 00 00 00 
    d801:	48 8d 85 10 ea ff ff 	lea    -0x15f0(%rbp),%rax
    d808:	48 89 85 10 fa ff ff 	mov    %rax,-0x5f0(%rbp)
    d80f:	48 8d 85 10 ea ff ff 	lea    -0x15f0(%rbp),%rax
    d816:	48 89 85 18 fa ff ff 	mov    %rax,-0x5e8(%rbp)
    d81d:	48 8d 85 10 ea ff ff 	lea    -0x15f0(%rbp),%rax
    d824:	48 89 85 20 fa ff ff 	mov    %rax,-0x5e0(%rbp)
    d82b:	48 8d 85 10 ea ff ff 	lea    -0x15f0(%rbp),%rax
    d832:	48 89 85 28 fa ff ff 	mov    %rax,-0x5d8(%rbp)
    d839:	48 8d 85 10 ea ff ff 	lea    -0x15f0(%rbp),%rax
    d840:	48 89 85 30 fa ff ff 	mov    %rax,-0x5d0(%rbp)
    d847:	48 8d 85 10 ea ff ff 	lea    -0x15f0(%rbp),%rax
    d84e:	48 89 85 38 fa ff ff 	mov    %rax,-0x5c8(%rbp)
    d855:	48 8d 85 10 ea ff ff 	lea    -0x15f0(%rbp),%rax
    d85c:	48 89 85 40 fa ff ff 	mov    %rax,-0x5c0(%rbp)
    d863:	48 8d 85 10 ea ff ff 	lea    -0x15f0(%rbp),%rax
    d86a:	48 89 85 48 fa ff ff 	mov    %rax,-0x5b8(%rbp)
    d871:	48 8d 85 10 ea ff ff 	lea    -0x15f0(%rbp),%rax
    d878:	48 89 85 50 fa ff ff 	mov    %rax,-0x5b0(%rbp)
    d87f:	48 8d 85 10 ea ff ff 	lea    -0x15f0(%rbp),%rax
    d886:	48 89 85 58 fa ff ff 	mov    %rax,-0x5a8(%rbp)
    d88d:	48 8d 85 10 ea ff ff 	lea    -0x15f0(%rbp),%rax
    d894:	48 89 85 60 fa ff ff 	mov    %rax,-0x5a0(%rbp)
    d89b:	48 8d 85 10 ea ff ff 	lea    -0x15f0(%rbp),%rax
    d8a2:	48 89 85 68 fa ff ff 	mov    %rax,-0x598(%rbp)
    d8a9:	48 8d 85 10 ea ff ff 	lea    -0x15f0(%rbp),%rax
    d8b0:	48 89 85 70 fa ff ff 	mov    %rax,-0x590(%rbp)
    d8b7:	48 8d 85 10 ea ff ff 	lea    -0x15f0(%rbp),%rax
    d8be:	48 89 85 78 fa ff ff 	mov    %rax,-0x588(%rbp)
    d8c5:	48 8d 85 10 ea ff ff 	lea    -0x15f0(%rbp),%rax
    d8cc:	48 89 85 80 fa ff ff 	mov    %rax,-0x580(%rbp)
    d8d3:	48 8d 85 10 ea ff ff 	lea    -0x15f0(%rbp),%rax
    d8da:	48 89 85 88 fa ff ff 	mov    %rax,-0x578(%rbp)
    d8e1:	48 8d 85 10 ea ff ff 	lea    -0x15f0(%rbp),%rax
    d8e8:	48 89 85 90 fa ff ff 	mov    %rax,-0x570(%rbp)
    d8ef:	48 8d 85 10 ea ff ff 	lea    -0x15f0(%rbp),%rax
    d8f6:	48 89 85 98 fa ff ff 	mov    %rax,-0x568(%rbp)
    d8fd:	48 8d 85 10 ea ff ff 	lea    -0x15f0(%rbp),%rax
    d904:	48 89 85 a0 fa ff ff 	mov    %rax,-0x560(%rbp)
    d90b:	48 8d 85 10 ea ff ff 	lea    -0x15f0(%rbp),%rax
    d912:	48 89 85 a8 fa ff ff 	mov    %rax,-0x558(%rbp)
    d919:	48 8d 85 10 ea ff ff 	lea    -0x15f0(%rbp),%rax
    d920:	48 89 85 b0 fa ff ff 	mov    %rax,-0x550(%rbp)
    d927:	48 8d 85 10 ea ff ff 	lea    -0x15f0(%rbp),%rax
    d92e:	48 89 85 b8 fa ff ff 	mov    %rax,-0x548(%rbp)
    d935:	48 8d 85 10 ea ff ff 	lea    -0x15f0(%rbp),%rax
    d93c:	48 89 85 c0 fa ff ff 	mov    %rax,-0x540(%rbp)
    d943:	48 8d 85 10 ea ff ff 	lea    -0x15f0(%rbp),%rax
    d94a:	48 89 85 c8 fa ff ff 	mov    %rax,-0x538(%rbp)
    d951:	48 8d 85 10 ea ff ff 	lea    -0x15f0(%rbp),%rax
    d958:	48 89 85 d0 fa ff ff 	mov    %rax,-0x530(%rbp)
    d95f:	48 8d 85 10 ea ff ff 	lea    -0x15f0(%rbp),%rax
    d966:	48 89 85 d8 fa ff ff 	mov    %rax,-0x528(%rbp)
    d96d:	48 8d 85 10 ea ff ff 	lea    -0x15f0(%rbp),%rax
    d974:	48 89 85 e0 fa ff ff 	mov    %rax,-0x520(%rbp)
    d97b:	48 c7 85 e8 fa ff ff 	movq   $0x0,-0x518(%rbp)
    d982:	00 00 00 00 
    d986:	48 8d 85 10 ea ff ff 	lea    -0x15f0(%rbp),%rax
    d98d:	48 89 85 f0 fa ff ff 	mov    %rax,-0x510(%rbp)
    d994:	48 8d 85 10 ea ff ff 	lea    -0x15f0(%rbp),%rax
    d99b:	48 89 85 f8 fa ff ff 	mov    %rax,-0x508(%rbp)
    d9a2:	48 8d 85 10 ea ff ff 	lea    -0x15f0(%rbp),%rax
    d9a9:	48 89 85 00 fb ff ff 	mov    %rax,-0x500(%rbp)
    d9b0:	48 8d 85 10 ea ff ff 	lea    -0x15f0(%rbp),%rax
    d9b7:	48 89 85 08 fb ff ff 	mov    %rax,-0x4f8(%rbp)
    d9be:	48 8d 85 10 ea ff ff 	lea    -0x15f0(%rbp),%rax
    d9c5:	48 89 85 10 fb ff ff 	mov    %rax,-0x4f0(%rbp)
    d9cc:	48 8d 85 10 ea ff ff 	lea    -0x15f0(%rbp),%rax
    d9d3:	48 89 85 18 fb ff ff 	mov    %rax,-0x4e8(%rbp)
    d9da:	48 8d 85 10 ea ff ff 	lea    -0x15f0(%rbp),%rax
    d9e1:	48 89 85 20 fb ff ff 	mov    %rax,-0x4e0(%rbp)
    d9e8:	48 8d 85 10 ea ff ff 	lea    -0x15f0(%rbp),%rax
    d9ef:	48 89 85 28 fb ff ff 	mov    %rax,-0x4d8(%rbp)
    d9f6:	48 8d 85 10 ea ff ff 	lea    -0x15f0(%rbp),%rax
    d9fd:	48 89 85 30 fb ff ff 	mov    %rax,-0x4d0(%rbp)
    da04:	48 8d 85 10 ea ff ff 	lea    -0x15f0(%rbp),%rax
    da0b:	48 89 85 38 fb ff ff 	mov    %rax,-0x4c8(%rbp)
    da12:	48 8d 85 10 ea ff ff 	lea    -0x15f0(%rbp),%rax
    da19:	48 89 85 40 fb ff ff 	mov    %rax,-0x4c0(%rbp)
    da20:	48 8d 85 10 ea ff ff 	lea    -0x15f0(%rbp),%rax
    da27:	48 89 85 48 fb ff ff 	mov    %rax,-0x4b8(%rbp)
    da2e:	48 8d 85 10 ea ff ff 	lea    -0x15f0(%rbp),%rax
    da35:	48 89 85 50 fb ff ff 	mov    %rax,-0x4b0(%rbp)
    da3c:	48 8d 85 10 ea ff ff 	lea    -0x15f0(%rbp),%rax
    da43:	48 89 85 58 fb ff ff 	mov    %rax,-0x4a8(%rbp)
    da4a:	48 8d 85 10 ea ff ff 	lea    -0x15f0(%rbp),%rax
    da51:	48 89 85 60 fb ff ff 	mov    %rax,-0x4a0(%rbp)
    da58:	48 8d 85 10 ea ff ff 	lea    -0x15f0(%rbp),%rax
    da5f:	48 89 85 68 fb ff ff 	mov    %rax,-0x498(%rbp)
    da66:	48 8d 85 10 ea ff ff 	lea    -0x15f0(%rbp),%rax
    da6d:	48 89 85 70 fb ff ff 	mov    %rax,-0x490(%rbp)
    da74:	48 8d 85 10 ea ff ff 	lea    -0x15f0(%rbp),%rax
    da7b:	48 89 85 78 fb ff ff 	mov    %rax,-0x488(%rbp)
    da82:	48 8d 85 10 ea ff ff 	lea    -0x15f0(%rbp),%rax
    da89:	48 89 85 80 fb ff ff 	mov    %rax,-0x480(%rbp)
    da90:	48 8d 85 10 ea ff ff 	lea    -0x15f0(%rbp),%rax
    da97:	48 89 85 88 fb ff ff 	mov    %rax,-0x478(%rbp)
    da9e:	48 8d 85 10 ea ff ff 	lea    -0x15f0(%rbp),%rax
    daa5:	48 89 85 90 fb ff ff 	mov    %rax,-0x470(%rbp)
    daac:	48 8d 85 10 ea ff ff 	lea    -0x15f0(%rbp),%rax
    dab3:	48 89 85 98 fb ff ff 	mov    %rax,-0x468(%rbp)
    daba:	48 c7 85 a0 fb ff ff 	movq   $0x0,-0x460(%rbp)
    dac1:	00 00 00 00 
    dac5:	48 8d 85 10 ea ff ff 	lea    -0x15f0(%rbp),%rax
    dacc:	48 89 85 a8 fb ff ff 	mov    %rax,-0x458(%rbp)
    dad3:	48 8d 85 10 ea ff ff 	lea    -0x15f0(%rbp),%rax
    dada:	48 89 85 b0 fb ff ff 	mov    %rax,-0x450(%rbp)
    dae1:	48 8d 85 10 ea ff ff 	lea    -0x15f0(%rbp),%rax
    dae8:	48 89 85 b8 fb ff ff 	mov    %rax,-0x448(%rbp)
    daef:	48 8d 85 10 ea ff ff 	lea    -0x15f0(%rbp),%rax
    daf6:	48 89 85 c0 fb ff ff 	mov    %rax,-0x440(%rbp)
    dafd:	48 c7 85 c8 fb ff ff 	movq   $0x0,-0x438(%rbp)
    db04:	00 00 00 00 
    db08:	48 8d 85 10 ea ff ff 	lea    -0x15f0(%rbp),%rax
    db0f:	48 89 85 d0 fb ff ff 	mov    %rax,-0x430(%rbp)
    db16:	48 8d 85 10 ea ff ff 	lea    -0x15f0(%rbp),%rax
    db1d:	48 89 85 d8 fb ff ff 	mov    %rax,-0x428(%rbp)
    db24:	48 8d 85 10 ea ff ff 	lea    -0x15f0(%rbp),%rax
    db2b:	48 89 85 e0 fb ff ff 	mov    %rax,-0x420(%rbp)
    db32:	48 8d 85 10 ea ff ff 	lea    -0x15f0(%rbp),%rax
    db39:	48 89 85 e8 fb ff ff 	mov    %rax,-0x418(%rbp)
    db40:	48 8d 85 10 ea ff ff 	lea    -0x15f0(%rbp),%rax
    db47:	48 89 85 f0 fb ff ff 	mov    %rax,-0x410(%rbp)
    db4e:	48 8d 85 10 ea ff ff 	lea    -0x15f0(%rbp),%rax
    db55:	48 89 85 f8 fb ff ff 	mov    %rax,-0x408(%rbp)
    db5c:	48 8d 85 10 ea ff ff 	lea    -0x15f0(%rbp),%rax
    db63:	48 89 85 00 fc ff ff 	mov    %rax,-0x400(%rbp)
    db6a:	48 8d 85 10 ea ff ff 	lea    -0x15f0(%rbp),%rax
    db71:	48 89 85 08 fc ff ff 	mov    %rax,-0x3f8(%rbp)
    db78:	48 c7 85 10 fc ff ff 	movq   $0x0,-0x3f0(%rbp)
    db7f:	00 00 00 00 
    db83:	48 8d 85 10 ea ff ff 	lea    -0x15f0(%rbp),%rax
    db8a:	48 89 85 18 fc ff ff 	mov    %rax,-0x3e8(%rbp)
    db91:	48 8d 85 10 ea ff ff 	lea    -0x15f0(%rbp),%rax
    db98:	48 89 85 20 fc ff ff 	mov    %rax,-0x3e0(%rbp)
    db9f:	48 8d 85 10 ea ff ff 	lea    -0x15f0(%rbp),%rax
    dba6:	48 89 85 28 fc ff ff 	mov    %rax,-0x3d8(%rbp)
    dbad:	48 8d 85 10 ea ff ff 	lea    -0x15f0(%rbp),%rax
    dbb4:	48 89 85 30 fc ff ff 	mov    %rax,-0x3d0(%rbp)
    dbbb:	48 8d 85 10 ea ff ff 	lea    -0x15f0(%rbp),%rax
    dbc2:	48 89 85 38 fc ff ff 	mov    %rax,-0x3c8(%rbp)
    dbc9:	48 8d 85 10 ea ff ff 	lea    -0x15f0(%rbp),%rax
    dbd0:	48 89 85 40 fc ff ff 	mov    %rax,-0x3c0(%rbp)
    dbd7:	48 8d 85 10 ea ff ff 	lea    -0x15f0(%rbp),%rax
    dbde:	48 89 85 48 fc ff ff 	mov    %rax,-0x3b8(%rbp)
    dbe5:	48 8d 85 10 ea ff ff 	lea    -0x15f0(%rbp),%rax
    dbec:	48 89 85 50 fc ff ff 	mov    %rax,-0x3b0(%rbp)
    dbf3:	48 8d 85 10 ea ff ff 	lea    -0x15f0(%rbp),%rax
    dbfa:	48 89 85 58 fc ff ff 	mov    %rax,-0x3a8(%rbp)
    dc01:	48 8d 85 10 ea ff ff 	lea    -0x15f0(%rbp),%rax
    dc08:	48 89 85 60 fc ff ff 	mov    %rax,-0x3a0(%rbp)
    dc0f:	48 8d 85 10 ea ff ff 	lea    -0x15f0(%rbp),%rax
    dc16:	48 89 85 68 fc ff ff 	mov    %rax,-0x398(%rbp)
    dc1d:	48 8d 85 10 ea ff ff 	lea    -0x15f0(%rbp),%rax
    dc24:	48 89 85 70 fc ff ff 	mov    %rax,-0x390(%rbp)
    dc2b:	48 8d 85 10 ea ff ff 	lea    -0x15f0(%rbp),%rax
    dc32:	48 89 85 78 fc ff ff 	mov    %rax,-0x388(%rbp)
    dc39:	48 8d 85 10 ea ff ff 	lea    -0x15f0(%rbp),%rax
    dc40:	48 89 85 80 fc ff ff 	mov    %rax,-0x380(%rbp)
    dc47:	48 8d 85 10 ea ff ff 	lea    -0x15f0(%rbp),%rax
    dc4e:	48 89 85 88 fc ff ff 	mov    %rax,-0x378(%rbp)
    dc55:	48 8d 85 10 ea ff ff 	lea    -0x15f0(%rbp),%rax
    dc5c:	48 89 85 90 fc ff ff 	mov    %rax,-0x370(%rbp)
    dc63:	48 8d 85 10 ea ff ff 	lea    -0x15f0(%rbp),%rax
    dc6a:	48 89 85 98 fc ff ff 	mov    %rax,-0x368(%rbp)
    dc71:	48 c7 85 a0 fc ff ff 	movq   $0x0,-0x360(%rbp)
    dc78:	00 00 00 00 
    dc7c:	48 c7 85 a8 fc ff ff 	movq   $0x0,-0x358(%rbp)
    dc83:	00 00 00 00 
    dc87:	48 8d 85 10 ea ff ff 	lea    -0x15f0(%rbp),%rax
    dc8e:	48 89 85 b0 fc ff ff 	mov    %rax,-0x350(%rbp)
    dc95:	48 8d 85 10 ea ff ff 	lea    -0x15f0(%rbp),%rax
    dc9c:	48 89 85 b8 fc ff ff 	mov    %rax,-0x348(%rbp)
    dca3:	48 8d 85 10 ea ff ff 	lea    -0x15f0(%rbp),%rax
    dcaa:	48 89 85 c0 fc ff ff 	mov    %rax,-0x340(%rbp)
    dcb1:	48 8d 85 10 ea ff ff 	lea    -0x15f0(%rbp),%rax
    dcb8:	48 89 85 c8 fc ff ff 	mov    %rax,-0x338(%rbp)
    dcbf:	48 8d 85 10 ea ff ff 	lea    -0x15f0(%rbp),%rax
    dcc6:	48 89 85 d0 fc ff ff 	mov    %rax,-0x330(%rbp)
    dccd:	48 8d 85 10 ea ff ff 	lea    -0x15f0(%rbp),%rax
    dcd4:	48 89 85 d8 fc ff ff 	mov    %rax,-0x328(%rbp)
    dcdb:	48 8d 85 10 ea ff ff 	lea    -0x15f0(%rbp),%rax
    dce2:	48 89 85 e0 fc ff ff 	mov    %rax,-0x320(%rbp)
    dce9:	48 8d 85 10 ea ff ff 	lea    -0x15f0(%rbp),%rax
    dcf0:	48 89 85 e8 fc ff ff 	mov    %rax,-0x318(%rbp)
    dcf7:	48 8d 85 10 ea ff ff 	lea    -0x15f0(%rbp),%rax
    dcfe:	48 89 85 f0 fc ff ff 	mov    %rax,-0x310(%rbp)
    dd05:	48 8d 85 10 ea ff ff 	lea    -0x15f0(%rbp),%rax
    dd0c:	48 89 85 f8 fc ff ff 	mov    %rax,-0x308(%rbp)
    dd13:	48 8d 85 10 ea ff ff 	lea    -0x15f0(%rbp),%rax
    dd1a:	48 89 85 00 fd ff ff 	mov    %rax,-0x300(%rbp)
    dd21:	48 8d 85 10 ea ff ff 	lea    -0x15f0(%rbp),%rax
    dd28:	48 89 85 08 fd ff ff 	mov    %rax,-0x2f8(%rbp)
    dd2f:	48 c7 85 10 fd ff ff 	movq   $0x0,-0x2f0(%rbp)
    dd36:	00 00 00 00 
    dd3a:	48 8d 85 10 ea ff ff 	lea    -0x15f0(%rbp),%rax
    dd41:	48 89 85 18 fd ff ff 	mov    %rax,-0x2e8(%rbp)
    dd48:	48 8d 85 10 ea ff ff 	lea    -0x15f0(%rbp),%rax
    dd4f:	48 89 85 20 fd ff ff 	mov    %rax,-0x2e0(%rbp)
    dd56:	48 8d 85 10 ea ff ff 	lea    -0x15f0(%rbp),%rax
    dd5d:	48 89 85 28 fd ff ff 	mov    %rax,-0x2d8(%rbp)
    dd64:	48 8d 85 10 ea ff ff 	lea    -0x15f0(%rbp),%rax
    dd6b:	48 89 85 30 fd ff ff 	mov    %rax,-0x2d0(%rbp)
    dd72:	48 8d 85 10 ea ff ff 	lea    -0x15f0(%rbp),%rax
    dd79:	48 89 85 38 fd ff ff 	mov    %rax,-0x2c8(%rbp)
    dd80:	48 8d 85 10 ea ff ff 	lea    -0x15f0(%rbp),%rax
    dd87:	48 89 85 40 fd ff ff 	mov    %rax,-0x2c0(%rbp)
    dd8e:	48 8d 85 10 ea ff ff 	lea    -0x15f0(%rbp),%rax
    dd95:	48 89 85 48 fd ff ff 	mov    %rax,-0x2b8(%rbp)
    dd9c:	48 8d 85 10 ea ff ff 	lea    -0x15f0(%rbp),%rax
    dda3:	48 89 85 50 fd ff ff 	mov    %rax,-0x2b0(%rbp)
    ddaa:	48 8d 85 10 ea ff ff 	lea    -0x15f0(%rbp),%rax
    ddb1:	48 89 85 58 fd ff ff 	mov    %rax,-0x2a8(%rbp)
    ddb8:	48 8d 85 10 ea ff ff 	lea    -0x15f0(%rbp),%rax
    ddbf:	48 89 85 60 fd ff ff 	mov    %rax,-0x2a0(%rbp)
    ddc6:	48 8d 85 10 ea ff ff 	lea    -0x15f0(%rbp),%rax
    ddcd:	48 89 85 68 fd ff ff 	mov    %rax,-0x298(%rbp)
    ddd4:	48 8d 85 10 ea ff ff 	lea    -0x15f0(%rbp),%rax
    dddb:	48 89 85 70 fd ff ff 	mov    %rax,-0x290(%rbp)
    dde2:	48 8d 85 10 ea ff ff 	lea    -0x15f0(%rbp),%rax
    dde9:	48 89 85 78 fd ff ff 	mov    %rax,-0x288(%rbp)
    ddf0:	48 8d 85 10 ea ff ff 	lea    -0x15f0(%rbp),%rax
    ddf7:	48 89 85 80 fd ff ff 	mov    %rax,-0x280(%rbp)
    ddfe:	48 c7 85 88 fd ff ff 	movq   $0x0,-0x278(%rbp)
    de05:	00 00 00 00 
    de09:	48 8d 85 10 ea ff ff 	lea    -0x15f0(%rbp),%rax
    de10:	48 89 85 90 fd ff ff 	mov    %rax,-0x270(%rbp)
    de17:	48 8d 85 10 ea ff ff 	lea    -0x15f0(%rbp),%rax
    de1e:	48 89 85 98 fd ff ff 	mov    %rax,-0x268(%rbp)
    de25:	48 8d 85 10 ea ff ff 	lea    -0x15f0(%rbp),%rax
    de2c:	48 89 85 a0 fd ff ff 	mov    %rax,-0x260(%rbp)
    de33:	48 8d 85 10 ea ff ff 	lea    -0x15f0(%rbp),%rax
    de3a:	48 89 85 a8 fd ff ff 	mov    %rax,-0x258(%rbp)
    de41:	48 8d 85 10 ea ff ff 	lea    -0x15f0(%rbp),%rax
    de48:	48 89 85 b0 fd ff ff 	mov    %rax,-0x250(%rbp)
    de4f:	48 8d 85 10 ea ff ff 	lea    -0x15f0(%rbp),%rax
    de56:	48 89 85 b8 fd ff ff 	mov    %rax,-0x248(%rbp)
    de5d:	48 8d 85 10 ea ff ff 	lea    -0x15f0(%rbp),%rax
    de64:	48 89 85 c0 fd ff ff 	mov    %rax,-0x240(%rbp)
    de6b:	48 8d 85 10 ea ff ff 	lea    -0x15f0(%rbp),%rax
    de72:	48 89 85 c8 fd ff ff 	mov    %rax,-0x238(%rbp)
    de79:	48 8d 85 10 ea ff ff 	lea    -0x15f0(%rbp),%rax
    de80:	48 89 85 d0 fd ff ff 	mov    %rax,-0x230(%rbp)
    de87:	48 8d 85 10 ea ff ff 	lea    -0x15f0(%rbp),%rax
    de8e:	48 89 85 d8 fd ff ff 	mov    %rax,-0x228(%rbp)
    de95:	48 8d 85 10 ea ff ff 	lea    -0x15f0(%rbp),%rax
    de9c:	48 89 85 e0 fd ff ff 	mov    %rax,-0x220(%rbp)
    dea3:	48 8d 85 10 ea ff ff 	lea    -0x15f0(%rbp),%rax
    deaa:	48 89 85 e8 fd ff ff 	mov    %rax,-0x218(%rbp)
    deb1:	48 8d 85 10 ea ff ff 	lea    -0x15f0(%rbp),%rax
    deb8:	48 89 85 f0 fd ff ff 	mov    %rax,-0x210(%rbp)
    debf:	48 8d 85 10 ea ff ff 	lea    -0x15f0(%rbp),%rax
    dec6:	48 89 85 f8 fd ff ff 	mov    %rax,-0x208(%rbp)
    decd:	48 8d 85 10 ea ff ff 	lea    -0x15f0(%rbp),%rax
    ded4:	48 89 85 00 fe ff ff 	mov    %rax,-0x200(%rbp)
    dedb:	48 8d 85 10 ea ff ff 	lea    -0x15f0(%rbp),%rax
    dee2:	48 89 85 08 fe ff ff 	mov    %rax,-0x1f8(%rbp)
    dee9:	48 8d 85 10 ea ff ff 	lea    -0x15f0(%rbp),%rax
    def0:	48 89 85 10 fe ff ff 	mov    %rax,-0x1f0(%rbp)
    def7:	48 8d 85 10 ea ff ff 	lea    -0x15f0(%rbp),%rax
    defe:	48 89 85 18 fe ff ff 	mov    %rax,-0x1e8(%rbp)
    df05:	48 8d 85 10 ea ff ff 	lea    -0x15f0(%rbp),%rax
    df0c:	48 89 85 20 fe ff ff 	mov    %rax,-0x1e0(%rbp)
    df13:	48 8d 85 10 ea ff ff 	lea    -0x15f0(%rbp),%rax
    df1a:	48 89 85 28 fe ff ff 	mov    %rax,-0x1d8(%rbp)
    df21:	48 8d 85 10 ea ff ff 	lea    -0x15f0(%rbp),%rax
    df28:	48 89 85 30 fe ff ff 	mov    %rax,-0x1d0(%rbp)
    df2f:	48 8d 85 10 ea ff ff 	lea    -0x15f0(%rbp),%rax
    df36:	48 89 85 38 fe ff ff 	mov    %rax,-0x1c8(%rbp)
    df3d:	48 8d 85 10 ea ff ff 	lea    -0x15f0(%rbp),%rax
    df44:	48 89 85 40 fe ff ff 	mov    %rax,-0x1c0(%rbp)
    df4b:	48 8d 85 10 ea ff ff 	lea    -0x15f0(%rbp),%rax
    df52:	48 89 85 48 fe ff ff 	mov    %rax,-0x1b8(%rbp)
    df59:	48 8d 85 10 ea ff ff 	lea    -0x15f0(%rbp),%rax
    df60:	48 89 85 50 fe ff ff 	mov    %rax,-0x1b0(%rbp)
    df67:	48 8d 85 10 ea ff ff 	lea    -0x15f0(%rbp),%rax
    df6e:	48 89 85 58 fe ff ff 	mov    %rax,-0x1a8(%rbp)
    df75:	48 8d 85 10 ea ff ff 	lea    -0x15f0(%rbp),%rax
    df7c:	48 89 85 60 fe ff ff 	mov    %rax,-0x1a0(%rbp)
    df83:	48 c7 85 68 fe ff ff 	movq   $0x0,-0x198(%rbp)
    df8a:	00 00 00 00 
    df8e:	48 8d 85 10 ea ff ff 	lea    -0x15f0(%rbp),%rax
    df95:	48 89 85 70 fe ff ff 	mov    %rax,-0x190(%rbp)
    df9c:	48 8d 85 10 ea ff ff 	lea    -0x15f0(%rbp),%rax
    dfa3:	48 89 85 78 fe ff ff 	mov    %rax,-0x188(%rbp)
    dfaa:	48 8d 85 10 ea ff ff 	lea    -0x15f0(%rbp),%rax
    dfb1:	48 89 85 80 fe ff ff 	mov    %rax,-0x180(%rbp)
    dfb8:	48 8d 85 10 ea ff ff 	lea    -0x15f0(%rbp),%rax
    dfbf:	48 89 85 88 fe ff ff 	mov    %rax,-0x178(%rbp)
    dfc6:	48 8d 85 10 ea ff ff 	lea    -0x15f0(%rbp),%rax
    dfcd:	48 89 85 90 fe ff ff 	mov    %rax,-0x170(%rbp)
    dfd4:	48 8d 85 10 ea ff ff 	lea    -0x15f0(%rbp),%rax
    dfdb:	48 89 85 98 fe ff ff 	mov    %rax,-0x168(%rbp)
    dfe2:	48 8d 85 10 ea ff ff 	lea    -0x15f0(%rbp),%rax
    dfe9:	48 89 85 a0 fe ff ff 	mov    %rax,-0x160(%rbp)
    dff0:	48 8d 85 10 ea ff ff 	lea    -0x15f0(%rbp),%rax
    dff7:	48 89 85 a8 fe ff ff 	mov    %rax,-0x158(%rbp)
    dffe:	48 8d 85 10 ea ff ff 	lea    -0x15f0(%rbp),%rax
    e005:	48 89 85 b0 fe ff ff 	mov    %rax,-0x150(%rbp)
    e00c:	48 8d 85 10 ea ff ff 	lea    -0x15f0(%rbp),%rax
    e013:	48 89 85 b8 fe ff ff 	mov    %rax,-0x148(%rbp)
    e01a:	48 8d 85 10 ea ff ff 	lea    -0x15f0(%rbp),%rax
    e021:	48 89 85 c0 fe ff ff 	mov    %rax,-0x140(%rbp)
    e028:	48 8d 85 10 ea ff ff 	lea    -0x15f0(%rbp),%rax
    e02f:	48 89 85 c8 fe ff ff 	mov    %rax,-0x138(%rbp)
    e036:	48 8d 85 10 ea ff ff 	lea    -0x15f0(%rbp),%rax
    e03d:	48 89 85 d0 fe ff ff 	mov    %rax,-0x130(%rbp)
    e044:	48 8d 85 10 ea ff ff 	lea    -0x15f0(%rbp),%rax
    e04b:	48 89 85 d8 fe ff ff 	mov    %rax,-0x128(%rbp)
    e052:	48 8d 85 10 ea ff ff 	lea    -0x15f0(%rbp),%rax
    e059:	48 89 85 e0 fe ff ff 	mov    %rax,-0x120(%rbp)
    e060:	48 8d 85 10 ea ff ff 	lea    -0x15f0(%rbp),%rax
    e067:	48 89 85 e8 fe ff ff 	mov    %rax,-0x118(%rbp)
    e06e:	48 8d 85 10 ea ff ff 	lea    -0x15f0(%rbp),%rax
    e075:	48 89 85 f0 fe ff ff 	mov    %rax,-0x110(%rbp)
    e07c:	48 8d 85 10 ea ff ff 	lea    -0x15f0(%rbp),%rax
    e083:	48 89 85 f8 fe ff ff 	mov    %rax,-0x108(%rbp)
    e08a:	48 8d 85 10 ea ff ff 	lea    -0x15f0(%rbp),%rax
    e091:	48 89 85 00 ff ff ff 	mov    %rax,-0x100(%rbp)
    e098:	48 8d 85 10 ea ff ff 	lea    -0x15f0(%rbp),%rax
    e09f:	48 89 85 08 ff ff ff 	mov    %rax,-0xf8(%rbp)
    e0a6:	48 8d 85 10 ea ff ff 	lea    -0x15f0(%rbp),%rax
    e0ad:	48 89 85 10 ff ff ff 	mov    %rax,-0xf0(%rbp)
    e0b4:	48 8d 85 10 ea ff ff 	lea    -0x15f0(%rbp),%rax
    e0bb:	48 89 85 18 ff ff ff 	mov    %rax,-0xe8(%rbp)
    e0c2:	48 c7 85 20 ff ff ff 	movq   $0x0,-0xe0(%rbp)
    e0c9:	00 00 00 00 
    e0cd:	48 8d 85 10 ea ff ff 	lea    -0x15f0(%rbp),%rax
    e0d4:	48 89 85 28 ff ff ff 	mov    %rax,-0xd8(%rbp)
    e0db:	48 8d 85 10 ea ff ff 	lea    -0x15f0(%rbp),%rax
    e0e2:	48 89 85 30 ff ff ff 	mov    %rax,-0xd0(%rbp)
    e0e9:	48 8d 85 10 ea ff ff 	lea    -0x15f0(%rbp),%rax
    e0f0:	48 89 85 38 ff ff ff 	mov    %rax,-0xc8(%rbp)
    e0f7:	48 8d 85 10 ea ff ff 	lea    -0x15f0(%rbp),%rax
    e0fe:	48 89 85 40 ff ff ff 	mov    %rax,-0xc0(%rbp)
    e105:	48 c7 85 48 ff ff ff 	movq   $0x0,-0xb8(%rbp)
    e10c:	00 00 00 00 
    e110:	48 8d 85 10 ea ff ff 	lea    -0x15f0(%rbp),%rax
    e117:	48 89 85 50 ff ff ff 	mov    %rax,-0xb0(%rbp)
    e11e:	48 8d 85 10 ea ff ff 	lea    -0x15f0(%rbp),%rax
    e125:	48 89 85 58 ff ff ff 	mov    %rax,-0xa8(%rbp)
    e12c:	48 8d 85 10 ea ff ff 	lea    -0x15f0(%rbp),%rax
    e133:	48 89 85 60 ff ff ff 	mov    %rax,-0xa0(%rbp)
    e13a:	48 8d 85 10 ea ff ff 	lea    -0x15f0(%rbp),%rax
    e141:	48 89 85 68 ff ff ff 	mov    %rax,-0x98(%rbp)
    e148:	48 8d 85 10 ea ff ff 	lea    -0x15f0(%rbp),%rax
    e14f:	48 89 85 70 ff ff ff 	mov    %rax,-0x90(%rbp)
    e156:	48 8d 85 10 ea ff ff 	lea    -0x15f0(%rbp),%rax
    e15d:	48 89 85 78 ff ff ff 	mov    %rax,-0x88(%rbp)
    e164:	48 8d 85 10 ea ff ff 	lea    -0x15f0(%rbp),%rax
    e16b:	48 89 45 80          	mov    %rax,-0x80(%rbp)
    e16f:	48 8d 85 10 ea ff ff 	lea    -0x15f0(%rbp),%rax
    e176:	48 89 45 88          	mov    %rax,-0x78(%rbp)
    e17a:	48 c7 45 90 00 00 00 	movq   $0x0,-0x70(%rbp)
    e181:	00 
    e182:	48 8d 85 10 ea ff ff 	lea    -0x15f0(%rbp),%rax
    e189:	48 89 45 98          	mov    %rax,-0x68(%rbp)
    e18d:	48 8d 85 10 ea ff ff 	lea    -0x15f0(%rbp),%rax
    e194:	48 89 45 a0          	mov    %rax,-0x60(%rbp)
    e198:	48 8d 85 10 ea ff ff 	lea    -0x15f0(%rbp),%rax
    e19f:	48 89 45 a8          	mov    %rax,-0x58(%rbp)
    e1a3:	48 8d 85 10 ea ff ff 	lea    -0x15f0(%rbp),%rax
    e1aa:	48 89 45 b0          	mov    %rax,-0x50(%rbp)
    e1ae:	48 8d 85 10 ea ff ff 	lea    -0x15f0(%rbp),%rax
    e1b5:	48 89 45 b8          	mov    %rax,-0x48(%rbp)
    e1b9:	48 8d 85 10 ea ff ff 	lea    -0x15f0(%rbp),%rax
    e1c0:	48 89 45 c0          	mov    %rax,-0x40(%rbp)
    e1c4:	48 8d 05 45 0f 01 00 	lea    0x10f45(%rip),%rax        # 1f110 <g_253>
    e1cb:	48 89 85 50 ea ff ff 	mov    %rax,-0x15b0(%rbp)
    e1d2:	c7 85 f0 e9 ff ff e7 	movl   $0xcab3dbe7,-0x1610(%rbp)
    e1d9:	db b3 ca 
    e1dc:	48 8d 05 1d 41 01 00 	lea    0x1411d(%rip),%rax        # 22300 <g_1402>
    e1e3:	48 89 85 68 fb ff ff 	mov    %rax,-0x498(%rbp)
    e1ea:	48 8b 95 68 fb ff ff 	mov    -0x498(%rbp),%rdx
    e1f1:	48 8b 85 40 ea ff ff 	mov    -0x15c0(%rbp),%rax
    e1f8:	48 89 05 59 4b 01 00 	mov    %rax,0x14b59(%rip)        # 22d58 <g_2672>
    e1ff:	48 8b 05 52 4b 01 00 	mov    0x14b52(%rip),%rax        # 22d58 <g_2672>
    e206:	48 39 c2             	cmp    %rax,%rdx
    e209:	0f 95 c0             	setne  %al
    e20c:	0f b6 c0             	movzbl %al,%eax
    e20f:	8b 95 ec e9 ff ff    	mov    -0x1614(%rbp),%edx
    e215:	89 d6                	mov    %edx,%esi
    e217:	89 c7                	mov    %eax,%edi
    e219:	e8 98 c3 ff ff       	callq  a5b6 <safe_add_func_int32_t_s_s>
    e21e:	8b 9d a0 e9 ff ff    	mov    -0x1660(%rbp),%ebx
    e224:	8b 85 f0 e9 ff ff    	mov    -0x1610(%rbp),%eax
    e22a:	44 0f be e0          	movsbl %al,%r12d
    e22e:	48 8b 85 50 ea ff ff 	mov    -0x15b0(%rbp),%rax
    e235:	0f b6 00             	movzbl (%rax),%eax
    e238:	8d 50 01             	lea    0x1(%rax),%edx
    e23b:	48 8b 85 50 ea ff ff 	mov    -0x15b0(%rbp),%rax
    e242:	88 10                	mov    %dl,(%rax)
    e244:	48 8b 85 50 ea ff ff 	mov    -0x15b0(%rbp),%rax
    e24b:	0f b6 00             	movzbl (%rax),%eax
    e24e:	44 0f b6 e8          	movzbl %al,%r13d
    e252:	8b 85 c4 e9 ff ff    	mov    -0x163c(%rbp),%eax
    e258:	0f b7 c0             	movzwl %ax,%eax
    e25b:	89 c6                	mov    %eax,%esi
    e25d:	bf 9b 8d 00 00       	mov    $0x8d9b,%edi
    e262:	e8 d6 ca ff ff       	callq  ad3d <safe_mul_func_uint16_t_u_u>
    e267:	48 8b 05 8a 40 01 00 	mov    0x1408a(%rip),%rax        # 222f8 <g_1356>
    e26e:	48 8b 00             	mov    (%rax),%rax
    e271:	48 8b 00             	mov    (%rax),%rax
    e274:	48 39 85 98 e9 ff ff 	cmp    %rax,-0x1668(%rbp)
    e27b:	0f 9f c0             	setg   %al
    e27e:	0f b6 c0             	movzbl %al,%eax
    e281:	be 03 00 00 00       	mov    $0x3,%esi
    e286:	89 c7                	mov    %eax,%edi
    e288:	e8 00 ca ff ff       	callq  ac8d <safe_rshift_func_uint8_t_u_s>
    e28d:	0f b6 d0             	movzbl %al,%edx
    e290:	8b 85 5c ea ff ff    	mov    -0x15a4(%rbp),%eax
    e296:	39 c2                	cmp    %eax,%edx
    e298:	0f 9c c0             	setl   %al
    e29b:	0f b6 c0             	movzbl %al,%eax
    e29e:	48 33 85 98 e9 ff ff 	xor    -0x1668(%rbp),%rax
    e2a5:	48 c7 c6 ff ff ff ff 	mov    $0xffffffffffffffff,%rsi
    e2ac:	48 89 c7             	mov    %rax,%rdi
    e2af:	e8 cc cd ff ff       	callq  b080 <safe_mod_func_uint64_t_u_u>
    e2b4:	83 bd e8 e9 ff ff 00 	cmpl   $0x0,-0x1618(%rbp)
    e2bb:	74 07                	je     e2c4 <func_19+0x189d>
    e2bd:	b8 01 00 00 00       	mov    $0x1,%eax
    e2c2:	eb 05                	jmp    e2c9 <func_19+0x18a2>
    e2c4:	b8 00 00 00 00       	mov    $0x0,%eax
    e2c9:	44 31 e8             	xor    %r13d,%eax
    e2cc:	48 98                	cltq   
    e2ce:	48 39 85 98 e9 ff ff 	cmp    %rax,-0x1668(%rbp)
    e2d5:	0f 9c c2             	setl   %dl
    e2d8:	48 8b 85 00 ea ff ff 	mov    -0x1600(%rbp),%rax
    e2df:	48 8b 00             	mov    (%rax),%rax
    e2e2:	88 10                	mov    %dl,(%rax)
    e2e4:	0f b6 00             	movzbl (%rax),%eax
    e2e7:	0f be c0             	movsbl %al,%eax
    e2ea:	09 85 c8 e9 ff ff    	or     %eax,-0x1638(%rbp)
    e2f0:	83 bd c8 e9 ff ff 00 	cmpl   $0x0,-0x1638(%rbp)
    e2f7:	75 07                	jne    e300 <func_19+0x18d9>
    e2f9:	83 bd a0 e9 ff ff 00 	cmpl   $0x0,-0x1660(%rbp)
    e300:	8b 85 e8 e9 ff ff    	mov    -0x1618(%rbp),%eax
    e306:	89 c6                	mov    %eax,%esi
    e308:	bf 00 00 00 00       	mov    $0x0,%edi
    e30d:	e8 51 c2 ff ff       	callq  a563 <safe_rshift_func_int16_t_s_u>
    e312:	98                   	cwtl   
    e313:	39 85 c4 e9 ff ff    	cmp    %eax,-0x163c(%rbp)
    e319:	0f 97 c0             	seta   %al
    e31c:	0f b6 d0             	movzbl %al,%edx
    e31f:	8b 85 e8 e9 ff ff    	mov    -0x1618(%rbp),%eax
    e325:	0f b6 c0             	movzbl %al,%eax
    e328:	89 d6                	mov    %edx,%esi
    e32a:	89 c7                	mov    %eax,%edi
    e32c:	e8 29 c8 ff ff       	callq  ab5a <safe_add_func_uint8_t_u_u>
    e331:	0f be c0             	movsbl %al,%eax
    e334:	44 89 e6             	mov    %r12d,%esi
    e337:	89 c7                	mov    %eax,%edi
    e339:	e8 96 be ff ff       	callq  a1d4 <safe_add_func_int8_t_s_s>
    e33e:	48 0f be c0          	movsbq %al,%rax
    e342:	48 89 de             	mov    %rbx,%rsi
    e345:	48 89 c7             	mov    %rax,%rdi
    e348:	e8 f4 c4 ff ff       	callq  a841 <safe_add_func_int64_t_s_s>
    e34d:	48 85 c0             	test   %rax,%rax
    e350:	75 0a                	jne    e35c <func_19+0x1935>
    e352:	48 83 bd 98 e9 ff ff 	cmpq   $0x0,-0x1668(%rbp)
    e359:	00 
    e35a:	74 07                	je     e363 <func_19+0x193c>
    e35c:	b8 01 00 00 00       	mov    $0x1,%eax
    e361:	eb 05                	jmp    e368 <func_19+0x1941>
    e363:	b8 00 00 00 00       	mov    $0x0,%eax
    e368:	89 c2                	mov    %eax,%edx
    e36a:	8b 85 e8 e9 ff ff    	mov    -0x1618(%rbp),%eax
    e370:	31 d0                	xor    %edx,%eax
    e372:	0f be c0             	movsbl %al,%eax
    e375:	be 01 00 00 00       	mov    $0x1,%esi
    e37a:	89 c7                	mov    %eax,%edi
    e37c:	e8 53 be ff ff       	callq  a1d4 <safe_add_func_int8_t_s_s>
    e381:	3c 51                	cmp    $0x51,%al
    e383:	0f 9f c0             	setg   %al
    e386:	0f b6 c0             	movzbl %al,%eax
    e389:	0b 85 e0 e9 ff ff    	or     -0x1620(%rbp),%eax
    e38f:	89 c0                	mov    %eax,%eax
    e391:	48 89 c7             	mov    %rax,%rdi
    e394:	e8 80 cc ff ff       	callq  b019 <safe_unary_minus_func_uint64_t_u>
    e399:	89 c2                	mov    %eax,%edx
    e39b:	48 8b 85 18 ea ff ff 	mov    -0x15e8(%rbp),%rax
    e3a2:	66 89 10             	mov    %dx,(%rax)
    e3a5:	b9 00 00 00 00       	mov    $0x0,%ecx
    e3aa:	48 8b 05 17 38 01 00 	mov    0x13817(%rip),%rax        # 21bc8 <g_301>
    e3b1:	8b 10                	mov    (%rax),%edx
    e3b3:	48 8b 05 0e 38 01 00 	mov    0x1380e(%rip),%rax        # 21bc8 <g_301>
    e3ba:	31 ca                	xor    %ecx,%edx
    e3bc:	89 10                	mov    %edx,(%rax)
    e3be:	48 c7 05 5f 0e 01 00 	movq   $0x0,0x10e5f(%rip)        # 1f228 <g_1638>
    e3c5:	00 00 00 00 
    e3c9:	e9 6e 05 00 00       	jmpq   e93c <func_19+0x1f15>
    e3ce:	66 c7 85 30 eb ff ff 	movw   $0xfbcc,-0x14d0(%rbp)
    e3d5:	cc fb 
    e3d7:	66 c7 85 32 eb ff ff 	movw   $0xcb6e,-0x14ce(%rbp)
    e3de:	6e cb 
    e3e0:	66 c7 85 34 eb ff ff 	movw   $0x1764,-0x14cc(%rbp)
    e3e7:	64 17 
    e3e9:	66 c7 85 36 eb ff ff 	movw   $0xfffb,-0x14ca(%rbp)
    e3f0:	fb ff 
    e3f2:	66 c7 85 38 eb ff ff 	movw   $0x1764,-0x14c8(%rbp)
    e3f9:	64 17 
    e3fb:	66 c7 85 3a eb ff ff 	movw   $0xcb6e,-0x14c6(%rbp)
    e402:	6e cb 
    e404:	66 c7 85 3c eb ff ff 	movw   $0xfbcc,-0x14c4(%rbp)
    e40b:	cc fb 
    e40d:	66 c7 85 3e eb ff ff 	movw   $0x6dea,-0x14c2(%rbp)
    e414:	ea 6d 
    e416:	66 c7 85 40 eb ff ff 	movw   $0x6b9a,-0x14c0(%rbp)
    e41d:	9a 6b 
    e41f:	66 c7 85 42 eb ff ff 	movw   $0xfffa,-0x14be(%rbp)
    e426:	fa ff 
    e428:	66 c7 85 44 eb ff ff 	movw   $0x1,-0x14bc(%rbp)
    e42f:	01 00 
    e431:	66 c7 85 46 eb ff ff 	movw   $0xfffa,-0x14ba(%rbp)
    e438:	fa ff 
    e43a:	66 c7 85 48 eb ff ff 	movw   $0x6b9a,-0x14b8(%rbp)
    e441:	9a 6b 
    e443:	66 c7 85 4a eb ff ff 	movw   $0x6dea,-0x14b6(%rbp)
    e44a:	ea 6d 
    e44c:	66 c7 85 4c eb ff ff 	movw   $0xfbcc,-0x14b4(%rbp)
    e453:	cc fb 
    e455:	66 c7 85 4e eb ff ff 	movw   $0xcb6e,-0x14b2(%rbp)
    e45c:	6e cb 
    e45e:	66 c7 85 50 eb ff ff 	movw   $0x1764,-0x14b0(%rbp)
    e465:	64 17 
    e467:	66 c7 85 52 eb ff ff 	movw   $0xfffb,-0x14ae(%rbp)
    e46e:	fb ff 
    e470:	66 c7 85 54 eb ff ff 	movw   $0x1764,-0x14ac(%rbp)
    e477:	64 17 
    e479:	66 c7 85 56 eb ff ff 	movw   $0xcb6e,-0x14aa(%rbp)
    e480:	6e cb 
    e482:	66 c7 85 58 eb ff ff 	movw   $0xfbcc,-0x14a8(%rbp)
    e489:	cc fb 
    e48b:	66 c7 85 5a eb ff ff 	movw   $0x6dea,-0x14a6(%rbp)
    e492:	ea 6d 
    e494:	66 c7 85 5c eb ff ff 	movw   $0x6b9a,-0x14a4(%rbp)
    e49b:	9a 6b 
    e49d:	66 c7 85 5e eb ff ff 	movw   $0xfffa,-0x14a2(%rbp)
    e4a4:	fa ff 
    e4a6:	66 c7 85 60 eb ff ff 	movw   $0x1,-0x14a0(%rbp)
    e4ad:	01 00 
    e4af:	66 c7 85 62 eb ff ff 	movw   $0xfffa,-0x149e(%rbp)
    e4b6:	fa ff 
    e4b8:	66 c7 85 64 eb ff ff 	movw   $0x6b9a,-0x149c(%rbp)
    e4bf:	9a 6b 
    e4c1:	66 c7 85 66 eb ff ff 	movw   $0x6dea,-0x149a(%rbp)
    e4c8:	ea 6d 
    e4ca:	66 c7 85 68 eb ff ff 	movw   $0xfbcc,-0x1498(%rbp)
    e4d1:	cc fb 
    e4d3:	66 c7 85 6a eb ff ff 	movw   $0xcb6e,-0x1496(%rbp)
    e4da:	6e cb 
    e4dc:	66 c7 85 6c eb ff ff 	movw   $0x1764,-0x1494(%rbp)
    e4e3:	64 17 
    e4e5:	66 c7 85 6e eb ff ff 	movw   $0xfffb,-0x1492(%rbp)
    e4ec:	fb ff 
    e4ee:	66 c7 85 70 eb ff ff 	movw   $0x1764,-0x1490(%rbp)
    e4f5:	64 17 
    e4f7:	66 c7 85 72 eb ff ff 	movw   $0xcb6e,-0x148e(%rbp)
    e4fe:	6e cb 
    e500:	66 c7 85 74 eb ff ff 	movw   $0xfbcc,-0x148c(%rbp)
    e507:	cc fb 
    e509:	66 c7 85 76 eb ff ff 	movw   $0x6dea,-0x148a(%rbp)
    e510:	ea 6d 
    e512:	66 c7 85 78 eb ff ff 	movw   $0x6b9a,-0x1488(%rbp)
    e519:	9a 6b 
    e51b:	66 c7 85 7a eb ff ff 	movw   $0xfffa,-0x1486(%rbp)
    e522:	fa ff 
    e524:	66 c7 85 7c eb ff ff 	movw   $0x1,-0x1484(%rbp)
    e52b:	01 00 
    e52d:	66 c7 85 7e eb ff ff 	movw   $0xfffa,-0x1482(%rbp)
    e534:	fa ff 
    e536:	66 c7 85 80 eb ff ff 	movw   $0x6b9a,-0x1480(%rbp)
    e53d:	9a 6b 
    e53f:	66 c7 85 82 eb ff ff 	movw   $0x6dea,-0x147e(%rbp)
    e546:	ea 6d 
    e548:	66 c7 85 84 eb ff ff 	movw   $0xfbcc,-0x147c(%rbp)
    e54f:	cc fb 
    e551:	66 c7 85 86 eb ff ff 	movw   $0xcb6e,-0x147a(%rbp)
    e558:	6e cb 
    e55a:	66 c7 85 88 eb ff ff 	movw   $0x1764,-0x1478(%rbp)
    e561:	64 17 
    e563:	66 c7 85 8a eb ff ff 	movw   $0xfffb,-0x1476(%rbp)
    e56a:	fb ff 
    e56c:	66 c7 85 8c eb ff ff 	movw   $0x1764,-0x1474(%rbp)
    e573:	64 17 
    e575:	66 c7 85 8e eb ff ff 	movw   $0xcb6e,-0x1472(%rbp)
    e57c:	6e cb 
    e57e:	66 c7 85 90 eb ff ff 	movw   $0xfbcc,-0x1470(%rbp)
    e585:	cc fb 
    e587:	66 c7 85 92 eb ff ff 	movw   $0x6dea,-0x146e(%rbp)
    e58e:	ea 6d 
    e590:	66 c7 85 94 eb ff ff 	movw   $0x6b9a,-0x146c(%rbp)
    e597:	9a 6b 
    e599:	66 c7 85 96 eb ff ff 	movw   $0xfffa,-0x146a(%rbp)
    e5a0:	fa ff 
    e5a2:	66 c7 85 98 eb ff ff 	movw   $0x1,-0x1468(%rbp)
    e5a9:	01 00 
    e5ab:	66 c7 85 9a eb ff ff 	movw   $0xfffa,-0x1466(%rbp)
    e5b2:	fa ff 
    e5b4:	66 c7 85 9c eb ff ff 	movw   $0x6b9a,-0x1464(%rbp)
    e5bb:	9a 6b 
    e5bd:	66 c7 85 9e eb ff ff 	movw   $0x6dea,-0x1462(%rbp)
    e5c4:	ea 6d 
    e5c6:	66 c7 85 a0 eb ff ff 	movw   $0xfbcc,-0x1460(%rbp)
    e5cd:	cc fb 
    e5cf:	66 c7 85 a2 eb ff ff 	movw   $0xcb6e,-0x145e(%rbp)
    e5d6:	6e cb 
    e5d8:	66 c7 85 a4 eb ff ff 	movw   $0x1764,-0x145c(%rbp)
    e5df:	64 17 
    e5e1:	66 c7 85 a6 eb ff ff 	movw   $0xfffb,-0x145a(%rbp)
    e5e8:	fb ff 
    e5ea:	66 c7 85 a8 eb ff ff 	movw   $0x1764,-0x1458(%rbp)
    e5f1:	64 17 
    e5f3:	66 c7 85 aa eb ff ff 	movw   $0xcb6e,-0x1456(%rbp)
    e5fa:	6e cb 
    e5fc:	66 c7 85 ac eb ff ff 	movw   $0xfbcc,-0x1454(%rbp)
    e603:	cc fb 
    e605:	66 c7 85 ae eb ff ff 	movw   $0x6dea,-0x1452(%rbp)
    e60c:	ea 6d 
    e60e:	66 c7 85 b0 eb ff ff 	movw   $0x6b9a,-0x1450(%rbp)
    e615:	9a 6b 
    e617:	66 c7 85 b2 eb ff ff 	movw   $0xfffa,-0x144e(%rbp)
    e61e:	fa ff 
    e620:	66 c7 85 b4 eb ff ff 	movw   $0x1,-0x144c(%rbp)
    e627:	01 00 
    e629:	66 c7 85 b6 eb ff ff 	movw   $0xfffa,-0x144a(%rbp)
    e630:	fa ff 
    e632:	66 c7 85 b8 eb ff ff 	movw   $0x6b9a,-0x1448(%rbp)
    e639:	9a 6b 
    e63b:	66 c7 85 ba eb ff ff 	movw   $0x6dea,-0x1446(%rbp)
    e642:	ea 6d 
    e644:	66 c7 85 bc eb ff ff 	movw   $0xfbcc,-0x1444(%rbp)
    e64b:	cc fb 
    e64d:	66 c7 85 be eb ff ff 	movw   $0xcb6e,-0x1442(%rbp)
    e654:	6e cb 
    e656:	66 c7 85 c0 eb ff ff 	movw   $0x1764,-0x1440(%rbp)
    e65d:	64 17 
    e65f:	66 c7 85 c2 eb ff ff 	movw   $0xfffb,-0x143e(%rbp)
    e666:	fb ff 
    e668:	66 c7 85 c4 eb ff ff 	movw   $0x1764,-0x143c(%rbp)
    e66f:	64 17 
    e671:	66 c7 85 c6 eb ff ff 	movw   $0xcb6e,-0x143a(%rbp)
    e678:	6e cb 
    e67a:	66 c7 85 c8 eb ff ff 	movw   $0xfbcc,-0x1438(%rbp)
    e681:	cc fb 
    e683:	66 c7 85 ca eb ff ff 	movw   $0x6dea,-0x1436(%rbp)
    e68a:	ea 6d 
    e68c:	66 c7 85 cc eb ff ff 	movw   $0x6b9a,-0x1434(%rbp)
    e693:	9a 6b 
    e695:	66 c7 85 ce eb ff ff 	movw   $0xfffa,-0x1432(%rbp)
    e69c:	fa ff 
    e69e:	66 c7 85 d0 eb ff ff 	movw   $0x1,-0x1430(%rbp)
    e6a5:	01 00 
    e6a7:	66 c7 85 d2 eb ff ff 	movw   $0xfffa,-0x142e(%rbp)
    e6ae:	fa ff 
    e6b0:	66 c7 85 d4 eb ff ff 	movw   $0x6b9a,-0x142c(%rbp)
    e6b7:	9a 6b 
    e6b9:	66 c7 85 d6 eb ff ff 	movw   $0x6dea,-0x142a(%rbp)
    e6c0:	ea 6d 
    e6c2:	48 8b 9d 98 e9 ff ff 	mov    -0x1668(%rbp),%rbx
    e6c9:	48 8b 05 58 3e 01 00 	mov    0x13e58(%rip),%rax        # 22528 <g_1658>
    e6d0:	48 8b 00             	mov    (%rax),%rax
    e6d3:	48 8b 00             	mov    (%rax),%rax
    e6d6:	0f b7 10             	movzwl (%rax),%edx
    e6d9:	48 8b 05 68 33 01 00 	mov    0x13368(%rip),%rax        # 21a48 <g_174>
    e6e0:	8b 8d a4 e9 ff ff    	mov    -0x165c(%rbp),%ecx
    e6e6:	66 89 08             	mov    %cx,(%rax)
    e6e9:	0f b7 00             	movzwl (%rax),%eax
    e6ec:	66 39 c2             	cmp    %ax,%dx
    e6ef:	0f 96 c0             	setbe  %al
    e6f2:	0f b6 c0             	movzbl %al,%eax
    e6f5:	39 85 ec e9 ff ff    	cmp    %eax,-0x1614(%rbp)
    e6fb:	0f 94 c0             	sete   %al
    e6fe:	0f b6 d0             	movzbl %al,%edx
    e701:	48 8b 05 f0 42 01 00 	mov    0x142f0(%rip),%rax        # 229f8 <g_1923>
    e708:	48 8b 00             	mov    (%rax),%rax
    e70b:	48 8b 00             	mov    (%rax),%rax
    e70e:	48 8b 8d 30 ea ff ff 	mov    -0x15d0(%rbp),%rcx
    e715:	48 89 08             	mov    %rcx,(%rax)
    e718:	48 8b 00             	mov    (%rax),%rax
    e71b:	48 39 85 48 ea ff ff 	cmp    %rax,-0x15b8(%rbp)
    e722:	0f 94 c0             	sete   %al
    e725:	0f b6 c0             	movzbl %al,%eax
    e728:	89 d6                	mov    %edx,%esi
    e72a:	89 c7                	mov    %eax,%edi
    e72c:	e8 8d c5 ff ff       	callq  acbe <safe_rshift_func_uint8_t_u_u>
    e731:	0f b6 c0             	movzbl %al,%eax
    e734:	48 89 de             	mov    %rbx,%rsi
    e737:	48 89 c7             	mov    %rax,%rdi
    e73a:	e8 ef c8 ff ff       	callq  b02e <safe_add_func_uint64_t_u_u>
    e73f:	0f b7 d0             	movzwl %ax,%edx
    e742:	48 8b 85 98 e9 ff ff 	mov    -0x1668(%rbp),%rax
    e749:	0f b7 c0             	movzwl %ax,%eax
    e74c:	89 d6                	mov    %edx,%esi
    e74e:	89 c7                	mov    %eax,%edi
    e750:	e8 e8 c5 ff ff       	callq  ad3d <safe_mul_func_uint16_t_u_u>
    e755:	0f b7 c0             	movzwl %ax,%eax
    e758:	09 85 dc e9 ff ff    	or     %eax,-0x1624(%rbp)
    e75e:	0f b7 85 62 eb ff ff 	movzwl -0x149e(%rbp),%eax
    e765:	0f b7 d8             	movzwl %ax,%ebx
    e768:	8b 85 dc e9 ff ff    	mov    -0x1624(%rbp),%eax
    e76e:	44 0f be e0          	movsbl %al,%r12d
    e772:	8b 85 5c ea ff ff    	mov    -0x15a4(%rbp),%eax
    e778:	85 c0                	test   %eax,%eax
    e77a:	0f 84 48 01 00 00    	je     e8c8 <func_19+0x1ea1>
    e780:	8b 85 a0 e9 ff ff    	mov    -0x1660(%rbp),%eax
    e786:	44 0f bf e8          	movswl %ax,%r13d
    e78a:	8b 85 d4 ec ff ff    	mov    -0x132c(%rbp),%eax
    e790:	44 0f b7 f0          	movzwl %ax,%r14d
    e794:	48 8b 05 85 42 01 00 	mov    0x14285(%rip),%rax        # 22a20 <g_2087>
    e79b:	48 8b 00             	mov    (%rax),%rax
    e79e:	48 89 85 90 e9 ff ff 	mov    %rax,-0x1670(%rbp)
    e7a5:	48 8b 05 9c 3d 01 00 	mov    0x13d9c(%rip),%rax        # 22548 <g_1698>
    e7ac:	48 8b 00             	mov    (%rax),%rax
    e7af:	0f b6 00             	movzbl (%rax),%eax
    e7b2:	44 0f b6 f8          	movzbl %al,%r15d
    e7b6:	8b 85 dc e9 ff ff    	mov    -0x1624(%rbp),%eax
    e7bc:	0f bf c8             	movswl %ax,%ecx
    e7bf:	89 8d 8c e9 ff ff    	mov    %ecx,-0x1674(%rbp)
    e7c5:	8b 85 ec e9 ff ff    	mov    -0x1614(%rbp),%eax
    e7cb:	0f b7 c0             	movzwl %ax,%eax
    e7ce:	89 c6                	mov    %eax,%esi
    e7d0:	bf 01 00 00 00       	mov    $0x1,%edi
    e7d5:	e8 b4 c5 ff ff       	callq  ad8e <safe_div_func_uint16_t_u_u>
    e7da:	8b 85 ec e9 ff ff    	mov    -0x1614(%rbp),%eax
    e7e0:	98                   	cwtl   
    e7e1:	8b b5 8c e9 ff ff    	mov    -0x1674(%rbp),%esi
    e7e7:	89 c7                	mov    %eax,%edi
    e7e9:	e8 e5 bb ff ff       	callq  a3d3 <safe_sub_func_int16_t_s_s>
    e7ee:	0f b6 c0             	movzbl %al,%eax
    e7f1:	44 89 fe             	mov    %r15d,%esi
    e7f4:	89 c7                	mov    %eax,%edi
    e7f6:	e8 98 c3 ff ff       	callq  ab93 <safe_mul_func_uint8_t_u_u>
    e7fb:	0f b6 c0             	movzbl %al,%eax
    e7fe:	be 00 00 00 00       	mov    $0x0,%esi
    e803:	89 c7                	mov    %eax,%edi
    e805:	e8 15 c5 ff ff       	callq  ad1f <safe_sub_func_uint16_t_u_u>
    e80a:	0f b6 c0             	movzbl %al,%eax
    e80d:	be 30 00 00 00       	mov    $0x30,%esi
    e812:	89 c7                	mov    %eax,%edi
    e814:	e8 5f c3 ff ff       	callq  ab78 <safe_sub_func_uint8_t_u_u>
    e819:	0f b6 c0             	movzbl %al,%eax
    e81c:	48 39 85 98 e9 ff ff 	cmp    %rax,-0x1668(%rbp)
    e823:	0f 9e c0             	setle  %al
    e826:	0f b6 c0             	movzbl %al,%eax
    e829:	be 04 00 00 00       	mov    $0x4,%esi
    e82e:	89 c7                	mov    %eax,%edi
    e830:	e8 5d bc ff ff       	callq  a492 <safe_lshift_func_int16_t_s_s>
    e835:	48 0f bf c0          	movswq %ax,%rax
    e839:	48 8b b5 90 e9 ff ff 	mov    -0x1670(%rbp),%rsi
    e840:	48 89 c7             	mov    %rax,%rdi
    e843:	e8 6c c1 ff ff       	callq  a9b4 <safe_mod_func_int64_t_s_s>
    e848:	48 8b 05 f9 31 01 00 	mov    0x131f9(%rip),%rax        # 21a48 <g_174>
    e84f:	66 c7 00 00 00       	movw   $0x0,(%rax)
    e854:	0f b7 00             	movzwl (%rax),%eax
    e857:	0f b7 c0             	movzwl %ax,%eax
    e85a:	44 89 f6             	mov    %r14d,%esi
    e85d:	89 c7                	mov    %eax,%edi
    e85f:	e8 2a c5 ff ff       	callq  ad8e <safe_div_func_uint16_t_u_u>
    e864:	48 8b 05 45 3c 01 00 	mov    0x13c45(%rip),%rax        # 224b0 <g_1564>
    e86b:	48 8b 00             	mov    (%rax),%rax
    e86e:	8b 85 a4 e9 ff ff    	mov    -0x165c(%rbp),%eax
    e874:	98                   	cwtl   
    e875:	44 89 ee             	mov    %r13d,%esi
    e878:	89 c7                	mov    %eax,%edi
    e87a:	e8 34 bb ff ff       	callq  a3b3 <safe_add_func_int16_t_s_s>
    e87f:	66 85 c0             	test   %ax,%ax
    e882:	0f 94 c0             	sete   %al
    e885:	0f b6 c0             	movzbl %al,%eax
    e888:	89 85 5c ea ff ff    	mov    %eax,-0x15a4(%rbp)
    e88e:	8b 85 5c ea ff ff    	mov    -0x15a4(%rbp),%eax
    e894:	48 98                	cltq   
    e896:	48 39 85 98 e9 ff ff 	cmp    %rax,-0x1668(%rbp)
    e89d:	0f 9e c0             	setle  %al
    e8a0:	0f b6 c0             	movzbl %al,%eax
    e8a3:	89 c6                	mov    %eax,%esi
    e8a5:	bf 09 00 00 00       	mov    $0x9,%edi
    e8aa:	e8 ab c2 ff ff       	callq  ab5a <safe_add_func_uint8_t_u_u>
    e8af:	0f b6 d0             	movzbl %al,%edx
    e8b2:	48 8b 05 67 41 01 00 	mov    0x14167(%rip),%rax        # 22a20 <g_2087>
    e8b9:	48 8b 00             	mov    (%rax),%rax
    e8bc:	48 39 c2             	cmp    %rax,%rdx
    e8bf:	74 07                	je     e8c8 <func_19+0x1ea1>
    e8c1:	b8 01 00 00 00       	mov    $0x1,%eax
    e8c6:	eb 05                	jmp    e8cd <func_19+0x1ea6>
    e8c8:	b8 00 00 00 00       	mov    $0x0,%eax
    e8cd:	0f b7 c0             	movzwl %ax,%eax
    e8d0:	8b 95 dc e9 ff ff    	mov    -0x1624(%rbp),%edx
    e8d6:	89 d6                	mov    %edx,%esi
    e8d8:	89 c7                	mov    %eax,%edi
    e8da:	e8 69 c5 ff ff       	callq  ae48 <safe_rshift_func_uint16_t_u_s>
    e8df:	0f be c0             	movsbl %al,%eax
    e8e2:	44 89 e6             	mov    %r12d,%esi
    e8e5:	89 c7                	mov    %eax,%edi
    e8e7:	e8 45 b9 ff ff       	callq  a231 <safe_mod_func_int8_t_s_s>
    e8ec:	0f be c0             	movsbl %al,%eax
    e8ef:	8b 95 e8 e9 ff ff    	mov    -0x1618(%rbp),%edx
    e8f5:	89 d6                	mov    %edx,%esi
    e8f7:	89 c7                	mov    %eax,%edi
    e8f9:	e8 ff c5 ff ff       	callq  aefd <safe_mod_func_uint32_t_u_u>
    e8fe:	89 c0                	mov    %eax,%eax
    e900:	48 39 85 98 e9 ff ff 	cmp    %rax,-0x1668(%rbp)
    e907:	0f 9d c0             	setge  %al
    e90a:	0f b6 c0             	movzbl %al,%eax
    e90d:	89 de                	mov    %ebx,%esi
    e90f:	89 c7                	mov    %eax,%edi
    e911:	e8 27 c4 ff ff       	callq  ad3d <safe_mul_func_uint16_t_u_u>
    e916:	48 8b 85 a8 e9 ff ff 	mov    -0x1658(%rbp),%rax
    e91d:	48 8b 10             	mov    (%rax),%rdx
    e920:	48 8b 85 a8 e9 ff ff 	mov    -0x1658(%rbp),%rax
    e927:	48 89 10             	mov    %rdx,(%rax)
    e92a:	48 8b 05 f7 08 01 00 	mov    0x108f7(%rip),%rax        # 1f228 <g_1638>
    e931:	48 83 c0 01          	add    $0x1,%rax
    e935:	48 89 05 ec 08 01 00 	mov    %rax,0x108ec(%rip)        # 1f228 <g_1638>
    e93c:	48 8b 05 e5 08 01 00 	mov    0x108e5(%rip),%rax        # 1f228 <g_1638>
    e943:	48 83 f8 02          	cmp    $0x2,%rax
    e947:	0f 86 81 fa ff ff    	jbe    e3ce <func_19+0x19a7>
    e94d:	0f b7 05 64 08 01 00 	movzwl 0x10864(%rip),%eax        # 1f1b8 <g_486>
    e954:	83 e8 01             	sub    $0x1,%eax
    e957:	66 89 05 5a 08 01 00 	mov    %ax,0x1085a(%rip)        # 1f1b8 <g_486>
    e95e:	0f b7 05 53 08 01 00 	movzwl 0x10853(%rip),%eax        # 1f1b8 <g_486>
    e965:	66 85 c0             	test   %ax,%ax
    e968:	0f 89 39 eb ff ff    	jns    d4a7 <func_19+0xa80>
    e96e:	48 8b 85 a8 e9 ff ff 	mov    -0x1658(%rbp),%rax
    e975:	48 8b 10             	mov    (%rax),%rdx
    e978:	48 8b 85 a8 e9 ff ff 	mov    -0x1658(%rbp),%rax
    e97f:	48 89 10             	mov    %rdx,(%rax)
    e982:	0f b6 05 b7 06 01 00 	movzbl 0x106b7(%rip),%eax        # 1f040 <g_106>
    e989:	83 c0 01             	add    $0x1,%eax
    e98c:	88 05 ae 06 01 00    	mov    %al,0x106ae(%rip)        # 1f040 <g_106>
    e992:	0f b6 05 a7 06 01 00 	movzbl 0x106a7(%rip),%eax        # 1f040 <g_106>
    e999:	3c 21                	cmp    $0x21,%al
    e99b:	0f 85 86 ea ff ff    	jne    d427 <func_19+0xa00>
    e9a1:	48 8b 85 a8 e9 ff ff 	mov    -0x1658(%rbp),%rax
    e9a8:	48 8b 10             	mov    (%rax),%rdx
    e9ab:	48 8b 05 16 32 01 00 	mov    0x13216(%rip),%rax        # 21bc8 <g_301>
    e9b2:	8b 12                	mov    (%rdx),%edx
    e9b4:	89 10                	mov    %edx,(%rax)
    e9b6:	8b 10                	mov    (%rax),%edx
    e9b8:	8b 85 a4 e9 ff ff    	mov    -0x165c(%rbp),%eax
    e9be:	0f b7 c0             	movzwl %ax,%eax
    e9c1:	89 d6                	mov    %edx,%esi
    e9c3:	89 c7                	mov    %eax,%edi
    e9c5:	e8 f4 c3 ff ff       	callq  adbe <safe_lshift_func_uint16_t_u_s>
    e9ca:	66 85 c0             	test   %ax,%ax
    e9cd:	75 07                	jne    e9d6 <func_19+0x1faf>
    e9cf:	83 bd e8 e9 ff ff 00 	cmpl   $0x0,-0x1618(%rbp)
    e9d6:	48 8b 05 13 39 01 00 	mov    0x13913(%rip),%rax        # 222f0 <g_1357>
    e9dd:	48 8b 00             	mov    (%rax),%rax
    e9e0:	48 85 c0             	test   %rax,%rax
    e9e3:	0f 94 c0             	sete   %al
    e9e6:	0f b6 d8             	movzbl %al,%ebx
    e9e9:	48 8b 85 a8 e9 ff ff 	mov    -0x1658(%rbp),%rax
    e9f0:	48 8b 00             	mov    (%rax),%rax
    e9f3:	8b 00                	mov    (%rax),%eax
    e9f5:	41 89 c4             	mov    %eax,%r12d
    e9f8:	48 8b 05 29 3b 01 00 	mov    0x13b29(%rip),%rax        # 22528 <g_1658>
    e9ff:	48 8b 00             	mov    (%rax),%rax
    ea02:	48 39 85 38 ea ff ff 	cmp    %rax,-0x15c8(%rbp)
    ea09:	0f 94 c0             	sete   %al
    ea0c:	0f b6 c0             	movzbl %al,%eax
    ea0f:	be 75 36 56 3a       	mov    $0x3a563675,%esi
    ea14:	89 c7                	mov    %eax,%edi
    ea16:	e8 b1 bc ff ff       	callq  a6cc <safe_mod_func_int32_t_s_s>
    ea1b:	44 89 e6             	mov    %r12d,%esi
    ea1e:	89 c7                	mov    %eax,%edi
    ea20:	e8 ab c4 ff ff       	callq  aed0 <safe_sub_func_uint32_t_u_u>
    ea25:	89 c2                	mov    %eax,%edx
    ea27:	8b 85 a0 e9 ff ff    	mov    -0x1660(%rbp),%eax
    ea2d:	21 d0                	and    %edx,%eax
    ea2f:	98                   	cwtl   
    ea30:	be 07 00 00 00       	mov    $0x7,%esi
    ea35:	89 c7                	mov    %eax,%edi
    ea37:	e8 ee ba ff ff       	callq  a52a <safe_rshift_func_int16_t_s_s>
    ea3c:	98                   	cwtl   
    ea3d:	39 85 e8 e9 ff ff    	cmp    %eax,-0x1618(%rbp)
    ea43:	0f 97 c0             	seta   %al
    ea46:	0f b6 c0             	movzbl %al,%eax
    ea49:	39 c3                	cmp    %eax,%ebx
    ea4b:	48 8b 05 f6 2f 01 00 	mov    0x12ff6(%rip),%rax        # 21a48 <g_174>
    ea52:	8b 95 a0 e9 ff ff    	mov    -0x1660(%rbp),%edx
    ea58:	66 89 10             	mov    %dx,(%rax)
    ea5b:	48 8b 05 be 36 01 00 	mov    0x136be(%rip),%rax        # 22120 <g_774>
    ea62:	48 8b 95 a8 e9 ff ff 	mov    -0x1658(%rbp),%rdx
    ea69:	48 8b 12             	mov    (%rdx),%rdx
    ea6c:	48 89 10             	mov    %rdx,(%rax)
    ea6f:	48 8b 05 82 38 01 00 	mov    0x13882(%rip),%rax        # 222f8 <g_1356>
    ea76:	48 8b 00             	mov    (%rax),%rax
    ea79:	48 8b 18             	mov    (%rax),%rbx
    ea7c:	44 0f b6 a5 bd e9 ff 	movzbl -0x1643(%rbp),%r12d
    ea83:	ff 
    ea84:	44 0f b6 ad bd e9 ff 	movzbl -0x1643(%rbp),%r13d
    ea8b:	ff 
    ea8c:	48 8b 05 1d 3a 01 00 	mov    0x13a1d(%rip),%rax        # 224b0 <g_1564>
    ea93:	48 8b 00             	mov    (%rax),%rax
    ea96:	0f b6 00             	movzbl (%rax),%eax
    ea99:	0f be d0             	movsbl %al,%edx
    ea9c:	8b 85 c8 e9 ff ff    	mov    -0x1638(%rbp),%eax
    eaa2:	0f be c0             	movsbl %al,%eax
    eaa5:	89 d6                	mov    %edx,%esi
    eaa7:	89 c7                	mov    %eax,%edi
    eaa9:	e8 64 b7 ff ff       	callq  a212 <safe_mul_func_int8_t_s_s>
    eaae:	0f be d0             	movsbl %al,%edx
    eab1:	8b 85 a4 e9 ff ff    	mov    -0x165c(%rbp),%eax
    eab7:	89 c1                	mov    %eax,%ecx
    eab9:	48 8b 05 38 38 01 00 	mov    0x13838(%rip),%rax        # 222f8 <g_1356>
    eac0:	48 8b 00             	mov    (%rax),%rax
    eac3:	48 8b 00             	mov    (%rax),%rax
    eac6:	09 c1                	or     %eax,%ecx
    eac8:	48 8b 05 79 3a 01 00 	mov    0x13a79(%rip),%rax        # 22548 <g_1698>
    eacf:	48 8b 00             	mov    (%rax),%rax
    ead2:	88 08                	mov    %cl,(%rax)
    ead4:	0f b6 00             	movzbl (%rax),%eax
    ead7:	0f b6 c0             	movzbl %al,%eax
    eada:	31 d0                	xor    %edx,%eax
    eadc:	39 85 c4 e9 ff ff    	cmp    %eax,-0x163c(%rbp)
    eae2:	0f 95 c0             	setne  %al
    eae5:	0f b6 c0             	movzbl %al,%eax
    eae8:	44 89 ea             	mov    %r13d,%edx
    eaeb:	21 c2                	and    %eax,%edx
    eaed:	8b 85 5c ea ff ff    	mov    -0x15a4(%rbp),%eax
    eaf3:	39 c2                	cmp    %eax,%edx
    eaf5:	8b 85 5c ea ff ff    	mov    -0x15a4(%rbp),%eax
    eafb:	4c 63 e8             	movslq %eax,%r13
    eafe:	8b 85 a4 e9 ff ff    	mov    -0x165c(%rbp),%eax
    eb04:	89 c6                	mov    %eax,%esi
    eb06:	bf 01 00 00 00       	mov    $0x1,%edi
    eb0b:	e8 de b7 ff ff       	callq  a2ee <safe_lshift_func_int8_t_s_u>
    eb10:	48 0f be c0          	movsbq %al,%rax
    eb14:	4c 89 ee             	mov    %r13,%rsi
    eb17:	48 89 c7             	mov    %rax,%rdi
    eb1a:	e8 61 c5 ff ff       	callq  b080 <safe_mod_func_uint64_t_u_u>
    eb1f:	48 81 bd 98 e9 ff ff 	cmpq   $0x681015ab,-0x1668(%rbp)
    eb26:	ab 15 10 68 
    eb2a:	0f 95 c2             	setne  %dl
    eb2d:	0f b6 d2             	movzbl %dl,%edx
    eb30:	48 39 d0             	cmp    %rdx,%rax
    eb33:	0f 94 c0             	sete   %al
    eb36:	0f b6 c0             	movzbl %al,%eax
    eb39:	44 89 e6             	mov    %r12d,%esi
    eb3c:	89 c7                	mov    %eax,%edi
    eb3e:	e8 c2 c0 ff ff       	callq  ac05 <safe_lshift_func_uint8_t_u_s>
    eb43:	0f b6 c0             	movzbl %al,%eax
    eb46:	48 89 de             	mov    %rbx,%rsi
    eb49:	48 89 c7             	mov    %rax,%rdi
    eb4c:	e8 57 bd ff ff       	callq  a8a8 <safe_sub_func_int64_t_s_s>
    eb51:	0f be c0             	movsbl %al,%eax
    eb54:	be 02 00 00 00       	mov    $0x2,%esi
    eb59:	89 c7                	mov    %eax,%edi
    eb5b:	e8 d5 b7 ff ff       	callq  a335 <safe_rshift_func_int8_t_s_s>
    eb60:	8b 95 64 ea ff ff    	mov    -0x159c(%rbp),%edx
    eb66:	0f be c0             	movsbl %al,%eax
    eb69:	09 d0                	or     %edx,%eax
    eb6b:	89 85 64 ea ff ff    	mov    %eax,-0x159c(%rbp)
    eb71:	8b 85 08 ef ff ff    	mov    -0x10f8(%rbp),%eax
    eb77:	89 c0                	mov    %eax,%eax
    eb79:	48 8b 5d c8          	mov    -0x38(%rbp),%rbx
    eb7d:	64 48 33 1c 25 28 00 	xor    %fs:0x28,%rbx
    eb84:	00 00 
    eb86:	74 05                	je     eb8d <func_19+0x2166>
    eb88:	e8 e3 b4 ff ff       	callq  a070 <__stack_chk_fail@plt>
    eb8d:	48 81 c4 58 16 00 00 	add    $0x1658,%rsp
    eb94:	5b                   	pop    %rbx
    eb95:	41 5c                	pop    %r12
    eb97:	41 5d                	pop    %r13
    eb99:	41 5e                	pop    %r14
    eb9b:	41 5f                	pop    %r15
    eb9d:	5d                   	pop    %rbp
    eb9e:	c3                   	retq   

000000000000eb9f <func_24>:
    eb9f:	f3 0f 1e fa          	endbr64 
    eba3:	55                   	push   %rbp
    eba4:	48 89 e5             	mov    %rsp,%rbp
    eba7:	41 56                	push   %r14
    eba9:	41 55                	push   %r13
    ebab:	41 54                	push   %r12
    ebad:	53                   	push   %rbx
    ebae:	48 81 ec 70 09 00 00 	sub    $0x970,%rsp
    ebb5:	48 89 bd 78 f6 ff ff 	mov    %rdi,-0x988(%rbp)
    ebbc:	48 89 b5 70 f6 ff ff 	mov    %rsi,-0x990(%rbp)
    ebc3:	64 48 8b 04 25 28 00 	mov    %fs:0x28,%rax
    ebca:	00 00 
    ebcc:	48 89 45 d8          	mov    %rax,-0x28(%rbp)
    ebd0:	31 c0                	xor    %eax,%eax
    ebd2:	48 c7 85 b8 f6 ff ff 	movq   $0x0,-0x948(%rbp)
    ebd9:	00 00 00 00 
    ebdd:	66 c7 85 8a f6 ff ff 	movw   $0x1,-0x976(%rbp)
    ebe4:	01 00 
    ebe6:	c7 85 94 f6 ff ff fb 	movl   $0xfffffffb,-0x96c(%rbp)
    ebed:	ff ff ff 
    ebf0:	48 8d 05 e9 2b 01 00 	lea    0x12be9(%rip),%rax        # 217e0 <g_57>
    ebf7:	48 89 85 c0 f6 ff ff 	mov    %rax,-0x940(%rbp)
    ebfe:	c7 85 98 f6 ff ff cf 	movl   $0xa6b271cf,-0x968(%rbp)
    ec05:	71 b2 a6 
    ec08:	c7 85 9c f6 ff ff 00 	movl   $0x0,-0x964(%rbp)
    ec0f:	00 00 00 
    ec12:	48 c7 85 a8 f6 ff ff 	movq   $0x0,-0x958(%rbp)
    ec19:	00 00 00 00 
    ec1d:	48 8d 85 a8 f6 ff ff 	lea    -0x958(%rbp),%rax
    ec24:	48 89 85 c8 f6 ff ff 	mov    %rax,-0x938(%rbp)
    ec2b:	48 8d 05 0e 41 01 00 	lea    0x1410e(%rip),%rax        # 22d40 <g_2521>
    ec32:	48 89 85 d0 f6 ff ff 	mov    %rax,-0x930(%rbp)
    ec39:	c7 85 a0 f6 ff ff 00 	movl   $0x0,-0x960(%rbp)
    ec40:	00 00 00 
    ec43:	48 c7 85 d8 f6 ff ff 	movq   $0x0,-0x928(%rbp)
    ec4a:	00 00 00 00 
    ec4e:	48 8d 05 6f 05 01 00 	lea    0x1056f(%rip),%rax        # 1f1c4 <g_718>
    ec55:	48 89 85 e0 f6 ff ff 	mov    %rax,-0x920(%rbp)
    ec5c:	c7 85 a4 f6 ff ff ff 	movl   $0xffffffff,-0x95c(%rbp)
    ec63:	ff ff ff 
    ec66:	c7 85 8c f6 ff ff 00 	movl   $0x0,-0x974(%rbp)
    ec6d:	00 00 00 
    ec70:	eb 1e                	jmp    ec90 <func_24+0xf1>
    ec72:	8b 85 8c f6 ff ff    	mov    -0x974(%rbp),%eax
    ec78:	48 98                	cltq   
    ec7a:	48 8d 15 7f 36 01 00 	lea    0x1367f(%rip),%rdx        # 22300 <g_1402>
    ec81:	48 89 94 c5 28 f7 ff 	mov    %rdx,-0x8d8(%rbp,%rax,8)
    ec88:	ff 
    ec89:	83 85 8c f6 ff ff 01 	addl   $0x1,-0x974(%rbp)
    ec90:	83 bd 8c f6 ff ff 00 	cmpl   $0x0,-0x974(%rbp)
    ec97:	7e d9                	jle    ec72 <func_24+0xd3>
    ec99:	48 c7 85 78 f6 ff ff 	movq   $0x0,-0x988(%rbp)
    eca0:	00 00 00 00 
    eca4:	e9 f9 0e 00 00       	jmpq   fba2 <func_24+0x1003>
    eca9:	48 8d 05 80 03 01 00 	lea    0x10380(%rip),%rax        # 1f030 <g_64>
    ecb0:	48 89 85 e8 f6 ff ff 	mov    %rax,-0x918(%rbp)
    ecb7:	48 c7 85 f0 f6 ff ff 	movq   $0x0,-0x910(%rbp)
    ecbe:	00 00 00 00 
    ecc2:	48 c7 85 f8 f6 ff ff 	movq   $0x0,-0x908(%rbp)
    ecc9:	00 00 00 00 
    eccd:	48 c7 85 00 f7 ff ff 	movq   $0x0,-0x900(%rbp)
    ecd4:	00 00 00 00 
    ecd8:	48 8d 05 59 03 01 00 	lea    0x10359(%rip),%rax        # 1f038 <g_73>
    ecdf:	48 89 85 08 f7 ff ff 	mov    %rax,-0x8f8(%rbp)
    ece6:	48 8d 05 33 34 01 00 	lea    0x13433(%rip),%rax        # 22120 <g_774>
    eced:	48 89 85 60 f7 ff ff 	mov    %rax,-0x8a0(%rbp)
    ecf4:	48 8d 85 30 f7 ff ff 	lea    -0x8d0(%rbp),%rax
    ecfb:	48 83 c0 20          	add    $0x20,%rax
    ecff:	48 89 85 68 f7 ff ff 	mov    %rax,-0x898(%rbp)
    ed06:	48 8d 85 30 f7 ff ff 	lea    -0x8d0(%rbp),%rax
    ed0d:	48 83 c0 18          	add    $0x18,%rax
    ed11:	48 89 85 70 f7 ff ff 	mov    %rax,-0x890(%rbp)
    ed18:	48 8d 85 30 f7 ff ff 	lea    -0x8d0(%rbp),%rax
    ed1f:	48 83 c0 20          	add    $0x20,%rax
    ed23:	48 89 85 78 f7 ff ff 	mov    %rax,-0x888(%rbp)
    ed2a:	48 8d 05 ef 33 01 00 	lea    0x133ef(%rip),%rax        # 22120 <g_774>
    ed31:	48 89 85 80 f7 ff ff 	mov    %rax,-0x880(%rbp)
    ed38:	48 c7 85 88 f7 ff ff 	movq   $0x0,-0x878(%rbp)
    ed3f:	00 00 00 00 
    ed43:	48 8d 85 30 f7 ff ff 	lea    -0x8d0(%rbp),%rax
    ed4a:	48 83 c0 28          	add    $0x28,%rax
    ed4e:	48 89 85 90 f7 ff ff 	mov    %rax,-0x870(%rbp)
    ed55:	48 8d 05 8c 2a 01 00 	lea    0x12a8c(%rip),%rax        # 217e8 <g_56>
    ed5c:	48 89 85 98 f7 ff ff 	mov    %rax,-0x868(%rbp)
    ed63:	48 8d 05 b6 33 01 00 	lea    0x133b6(%rip),%rax        # 22120 <g_774>
    ed6a:	48 89 85 a0 f7 ff ff 	mov    %rax,-0x860(%rbp)
    ed71:	48 8d 85 30 f7 ff ff 	lea    -0x8d0(%rbp),%rax
    ed78:	48 83 c0 28          	add    $0x28,%rax
    ed7c:	48 89 85 a8 f7 ff ff 	mov    %rax,-0x858(%rbp)
    ed83:	48 8d 05 96 33 01 00 	lea    0x13396(%rip),%rax        # 22120 <g_774>
    ed8a:	48 89 85 b0 f7 ff ff 	mov    %rax,-0x850(%rbp)
    ed91:	48 8d 05 50 2a 01 00 	lea    0x12a50(%rip),%rax        # 217e8 <g_56>
    ed98:	48 89 85 b8 f7 ff ff 	mov    %rax,-0x848(%rbp)
    ed9f:	48 8d 05 42 2a 01 00 	lea    0x12a42(%rip),%rax        # 217e8 <g_56>
    eda6:	48 89 85 c0 f7 ff ff 	mov    %rax,-0x840(%rbp)
    edad:	48 8d 05 6c 33 01 00 	lea    0x1336c(%rip),%rax        # 22120 <g_774>
    edb4:	48 89 85 c8 f7 ff ff 	mov    %rax,-0x838(%rbp)
    edbb:	48 8d 05 5e 33 01 00 	lea    0x1335e(%rip),%rax        # 22120 <g_774>
    edc2:	48 89 85 d0 f7 ff ff 	mov    %rax,-0x830(%rbp)
    edc9:	48 8d 85 30 f7 ff ff 	lea    -0x8d0(%rbp),%rax
    edd0:	48 83 c0 20          	add    $0x20,%rax
    edd4:	48 89 85 d8 f7 ff ff 	mov    %rax,-0x828(%rbp)
    eddb:	48 8d 05 3e 33 01 00 	lea    0x1333e(%rip),%rax        # 22120 <g_774>
    ede2:	48 89 85 e0 f7 ff ff 	mov    %rax,-0x820(%rbp)
    ede9:	48 8d 85 30 f7 ff ff 	lea    -0x8d0(%rbp),%rax
    edf0:	48 83 c0 18          	add    $0x18,%rax
    edf4:	48 89 85 e8 f7 ff ff 	mov    %rax,-0x818(%rbp)
    edfb:	48 8d 85 30 f7 ff ff 	lea    -0x8d0(%rbp),%rax
    ee02:	48 83 c0 28          	add    $0x28,%rax
    ee06:	48 89 85 f0 f7 ff ff 	mov    %rax,-0x810(%rbp)
    ee0d:	48 8d 85 30 f7 ff ff 	lea    -0x8d0(%rbp),%rax
    ee14:	48 83 c0 28          	add    $0x28,%rax
    ee18:	48 89 85 f8 f7 ff ff 	mov    %rax,-0x808(%rbp)
    ee1f:	48 c7 85 00 f8 ff ff 	movq   $0x0,-0x800(%rbp)
    ee26:	00 00 00 00 
    ee2a:	48 8d 05 ef 32 01 00 	lea    0x132ef(%rip),%rax        # 22120 <g_774>
    ee31:	48 89 85 08 f8 ff ff 	mov    %rax,-0x7f8(%rbp)
    ee38:	48 c7 85 10 f8 ff ff 	movq   $0x0,-0x7f0(%rbp)
    ee3f:	00 00 00 00 
    ee43:	48 8d 05 d6 32 01 00 	lea    0x132d6(%rip),%rax        # 22120 <g_774>
    ee4a:	48 89 85 18 f8 ff ff 	mov    %rax,-0x7e8(%rbp)
    ee51:	48 8d 05 c8 32 01 00 	lea    0x132c8(%rip),%rax        # 22120 <g_774>
    ee58:	48 89 85 20 f8 ff ff 	mov    %rax,-0x7e0(%rbp)
    ee5f:	48 8d 85 30 f7 ff ff 	lea    -0x8d0(%rbp),%rax
    ee66:	48 83 c0 28          	add    $0x28,%rax
    ee6a:	48 89 85 28 f8 ff ff 	mov    %rax,-0x7d8(%rbp)
    ee71:	48 8d 05 70 29 01 00 	lea    0x12970(%rip),%rax        # 217e8 <g_56>
    ee78:	48 89 85 30 f8 ff ff 	mov    %rax,-0x7d0(%rbp)
    ee7f:	48 8d 05 9a 32 01 00 	lea    0x1329a(%rip),%rax        # 22120 <g_774>
    ee86:	48 89 85 38 f8 ff ff 	mov    %rax,-0x7c8(%rbp)
    ee8d:	48 8d 85 30 f7 ff ff 	lea    -0x8d0(%rbp),%rax
    ee94:	48 83 c0 28          	add    $0x28,%rax
    ee98:	48 89 85 40 f8 ff ff 	mov    %rax,-0x7c0(%rbp)
    ee9f:	48 8d 05 7a 32 01 00 	lea    0x1327a(%rip),%rax        # 22120 <g_774>
    eea6:	48 89 85 48 f8 ff ff 	mov    %rax,-0x7b8(%rbp)
    eead:	48 8d 85 30 f7 ff ff 	lea    -0x8d0(%rbp),%rax
    eeb4:	48 83 c0 28          	add    $0x28,%rax
    eeb8:	48 89 85 50 f8 ff ff 	mov    %rax,-0x7b0(%rbp)
    eebf:	48 8d 85 30 f7 ff ff 	lea    -0x8d0(%rbp),%rax
    eec6:	48 83 c0 28          	add    $0x28,%rax
    eeca:	48 89 85 58 f8 ff ff 	mov    %rax,-0x7a8(%rbp)
    eed1:	48 8d 85 30 f7 ff ff 	lea    -0x8d0(%rbp),%rax
    eed8:	48 83 c0 18          	add    $0x18,%rax
    eedc:	48 89 85 60 f8 ff ff 	mov    %rax,-0x7a0(%rbp)
    eee3:	48 8d 05 36 32 01 00 	lea    0x13236(%rip),%rax        # 22120 <g_774>
    eeea:	48 89 85 68 f8 ff ff 	mov    %rax,-0x798(%rbp)
    eef1:	48 8d 85 30 f7 ff ff 	lea    -0x8d0(%rbp),%rax
    eef8:	48 83 c0 20          	add    $0x20,%rax
    eefc:	48 89 85 70 f8 ff ff 	mov    %rax,-0x790(%rbp)
    ef03:	48 c7 85 78 f8 ff ff 	movq   $0x0,-0x788(%rbp)
    ef0a:	00 00 00 00 
    ef0e:	48 8d 85 30 f7 ff ff 	lea    -0x8d0(%rbp),%rax
    ef15:	48 83 c0 20          	add    $0x20,%rax
    ef19:	48 89 85 80 f8 ff ff 	mov    %rax,-0x780(%rbp)
    ef20:	48 8d 05 f9 31 01 00 	lea    0x131f9(%rip),%rax        # 22120 <g_774>
    ef27:	48 89 85 88 f8 ff ff 	mov    %rax,-0x778(%rbp)
    ef2e:	48 8d 85 30 f7 ff ff 	lea    -0x8d0(%rbp),%rax
    ef35:	48 83 c0 18          	add    $0x18,%rax
    ef39:	48 89 85 90 f8 ff ff 	mov    %rax,-0x770(%rbp)
    ef40:	48 8d 05 d9 31 01 00 	lea    0x131d9(%rip),%rax        # 22120 <g_774>
    ef47:	48 89 85 98 f8 ff ff 	mov    %rax,-0x768(%rbp)
    ef4e:	48 8d 05 cb 31 01 00 	lea    0x131cb(%rip),%rax        # 22120 <g_774>
    ef55:	48 89 85 a0 f8 ff ff 	mov    %rax,-0x760(%rbp)
    ef5c:	48 8d 85 30 f7 ff ff 	lea    -0x8d0(%rbp),%rax
    ef63:	48 83 c0 18          	add    $0x18,%rax
    ef67:	48 89 85 a8 f8 ff ff 	mov    %rax,-0x758(%rbp)
    ef6e:	48 8d 05 ab 31 01 00 	lea    0x131ab(%rip),%rax        # 22120 <g_774>
    ef75:	48 89 85 b0 f8 ff ff 	mov    %rax,-0x750(%rbp)
    ef7c:	48 8d 05 9d 31 01 00 	lea    0x1319d(%rip),%rax        # 22120 <g_774>
    ef83:	48 89 85 b8 f8 ff ff 	mov    %rax,-0x748(%rbp)
    ef8a:	48 8d 85 30 f7 ff ff 	lea    -0x8d0(%rbp),%rax
    ef91:	48 83 c0 18          	add    $0x18,%rax
    ef95:	48 89 85 c0 f8 ff ff 	mov    %rax,-0x740(%rbp)
    ef9c:	48 8d 05 15 02 01 00 	lea    0x10215(%rip),%rax        # 1f1b8 <g_486>
    efa3:	48 89 85 10 f7 ff ff 	mov    %rax,-0x8f0(%rbp)
    efaa:	c6 85 89 f6 ff ff e8 	movb   $0xe8,-0x977(%rbp)
    efb1:	48 c7 85 b0 f6 ff ff 	movq   $0x0,-0x950(%rbp)
    efb8:	00 00 00 00 
    efbc:	48 8d 85 b0 f6 ff ff 	lea    -0x950(%rbp),%rax
    efc3:	48 89 85 18 f7 ff ff 	mov    %rax,-0x8e8(%rbp)
    efca:	48 8d 05 f3 01 01 00 	lea    0x101f3(%rip),%rax        # 1f1c4 <g_718>
    efd1:	48 89 85 d0 f8 ff ff 	mov    %rax,-0x730(%rbp)
    efd8:	48 8d 05 e5 01 01 00 	lea    0x101e5(%rip),%rax        # 1f1c4 <g_718>
    efdf:	48 89 85 d8 f8 ff ff 	mov    %rax,-0x728(%rbp)
    efe6:	48 8d 85 89 f6 ff ff 	lea    -0x977(%rbp),%rax
    efed:	48 89 85 e0 f8 ff ff 	mov    %rax,-0x720(%rbp)
    eff4:	48 8d 05 c9 01 01 00 	lea    0x101c9(%rip),%rax        # 1f1c4 <g_718>
    effb:	48 89 85 e8 f8 ff ff 	mov    %rax,-0x718(%rbp)
    f002:	48 8d 05 bb 01 01 00 	lea    0x101bb(%rip),%rax        # 1f1c4 <g_718>
    f009:	48 89 85 f0 f8 ff ff 	mov    %rax,-0x710(%rbp)
    f010:	48 c7 85 f8 f8 ff ff 	movq   $0x0,-0x708(%rbp)
    f017:	00 00 00 00 
    f01b:	48 c7 85 00 f9 ff ff 	movq   $0x0,-0x700(%rbp)
    f022:	00 00 00 00 
    f026:	48 8d 85 89 f6 ff ff 	lea    -0x977(%rbp),%rax
    f02d:	48 89 85 08 f9 ff ff 	mov    %rax,-0x6f8(%rbp)
    f034:	48 8d 85 89 f6 ff ff 	lea    -0x977(%rbp),%rax
    f03b:	48 89 85 10 f9 ff ff 	mov    %rax,-0x6f0(%rbp)
    f042:	48 8d 05 7b 01 01 00 	lea    0x1017b(%rip),%rax        # 1f1c4 <g_718>
    f049:	48 89 85 18 f9 ff ff 	mov    %rax,-0x6e8(%rbp)
    f050:	48 8d 85 89 f6 ff ff 	lea    -0x977(%rbp),%rax
    f057:	48 89 85 20 f9 ff ff 	mov    %rax,-0x6e0(%rbp)
    f05e:	48 8d 05 5f 01 01 00 	lea    0x1015f(%rip),%rax        # 1f1c4 <g_718>
    f065:	48 89 85 28 f9 ff ff 	mov    %rax,-0x6d8(%rbp)
    f06c:	48 8d 05 51 01 01 00 	lea    0x10151(%rip),%rax        # 1f1c4 <g_718>
    f073:	48 89 85 30 f9 ff ff 	mov    %rax,-0x6d0(%rbp)
    f07a:	48 8d 05 f5 ff 00 00 	lea    0xfff5(%rip),%rax        # 1f076 <g_182>
    f081:	48 89 85 38 f9 ff ff 	mov    %rax,-0x6c8(%rbp)
    f088:	48 c7 85 40 f9 ff ff 	movq   $0x0,-0x6c0(%rbp)
    f08f:	00 00 00 00 
    f093:	48 8d 85 89 f6 ff ff 	lea    -0x977(%rbp),%rax
    f09a:	48 89 85 48 f9 ff ff 	mov    %rax,-0x6b8(%rbp)
    f0a1:	48 8d 85 89 f6 ff ff 	lea    -0x977(%rbp),%rax
    f0a8:	48 89 85 50 f9 ff ff 	mov    %rax,-0x6b0(%rbp)
    f0af:	48 8d 85 89 f6 ff ff 	lea    -0x977(%rbp),%rax
    f0b6:	48 89 85 58 f9 ff ff 	mov    %rax,-0x6a8(%rbp)
    f0bd:	48 c7 85 60 f9 ff ff 	movq   $0x0,-0x6a0(%rbp)
    f0c4:	00 00 00 00 
    f0c8:	48 c7 85 68 f9 ff ff 	movq   $0x0,-0x698(%rbp)
    f0cf:	00 00 00 00 
    f0d3:	48 8d 85 89 f6 ff ff 	lea    -0x977(%rbp),%rax
    f0da:	48 89 85 70 f9 ff ff 	mov    %rax,-0x690(%rbp)
    f0e1:	48 8d 85 89 f6 ff ff 	lea    -0x977(%rbp),%rax
    f0e8:	48 89 85 78 f9 ff ff 	mov    %rax,-0x688(%rbp)
    f0ef:	48 8d 05 80 ff 00 00 	lea    0xff80(%rip),%rax        # 1f076 <g_182>
    f0f6:	48 89 85 80 f9 ff ff 	mov    %rax,-0x680(%rbp)
    f0fd:	48 8d 05 72 ff 00 00 	lea    0xff72(%rip),%rax        # 1f076 <g_182>
    f104:	48 89 85 88 f9 ff ff 	mov    %rax,-0x678(%rbp)
    f10b:	48 8d 05 b2 00 01 00 	lea    0x100b2(%rip),%rax        # 1f1c4 <g_718>
    f112:	48 89 85 90 f9 ff ff 	mov    %rax,-0x670(%rbp)
    f119:	48 8d 05 a4 00 01 00 	lea    0x100a4(%rip),%rax        # 1f1c4 <g_718>
    f120:	48 89 85 98 f9 ff ff 	mov    %rax,-0x668(%rbp)
    f127:	48 8d 05 48 ff 00 00 	lea    0xff48(%rip),%rax        # 1f076 <g_182>
    f12e:	48 89 85 a0 f9 ff ff 	mov    %rax,-0x660(%rbp)
    f135:	48 8d 05 3a ff 00 00 	lea    0xff3a(%rip),%rax        # 1f076 <g_182>
    f13c:	48 89 85 a8 f9 ff ff 	mov    %rax,-0x658(%rbp)
    f143:	48 8d 05 2c ff 00 00 	lea    0xff2c(%rip),%rax        # 1f076 <g_182>
    f14a:	48 89 85 b0 f9 ff ff 	mov    %rax,-0x650(%rbp)
    f151:	48 8d 85 89 f6 ff ff 	lea    -0x977(%rbp),%rax
    f158:	48 89 85 b8 f9 ff ff 	mov    %rax,-0x648(%rbp)
    f15f:	48 c7 85 c0 f9 ff ff 	movq   $0x0,-0x640(%rbp)
    f166:	00 00 00 00 
    f16a:	48 c7 85 c8 f9 ff ff 	movq   $0x0,-0x638(%rbp)
    f171:	00 00 00 00 
    f175:	48 8d 05 fa fe 00 00 	lea    0xfefa(%rip),%rax        # 1f076 <g_182>
    f17c:	48 89 85 d0 f9 ff ff 	mov    %rax,-0x630(%rbp)
    f183:	48 8d 05 ec fe 00 00 	lea    0xfeec(%rip),%rax        # 1f076 <g_182>
    f18a:	48 89 85 d8 f9 ff ff 	mov    %rax,-0x628(%rbp)
    f191:	48 8d 05 de fe 00 00 	lea    0xfede(%rip),%rax        # 1f076 <g_182>
    f198:	48 89 85 e0 f9 ff ff 	mov    %rax,-0x620(%rbp)
    f19f:	48 c7 85 e8 f9 ff ff 	movq   $0x0,-0x618(%rbp)
    f1a6:	00 00 00 00 
    f1aa:	48 c7 85 f0 f9 ff ff 	movq   $0x0,-0x610(%rbp)
    f1b1:	00 00 00 00 
    f1b5:	48 c7 85 f8 f9 ff ff 	movq   $0x0,-0x608(%rbp)
    f1bc:	00 00 00 00 
    f1c0:	48 8d 85 89 f6 ff ff 	lea    -0x977(%rbp),%rax
    f1c7:	48 89 85 00 fa ff ff 	mov    %rax,-0x600(%rbp)
    f1ce:	48 8d 05 ef ff 00 00 	lea    0xffef(%rip),%rax        # 1f1c4 <g_718>
    f1d5:	48 89 85 08 fa ff ff 	mov    %rax,-0x5f8(%rbp)
    f1dc:	48 8d 85 89 f6 ff ff 	lea    -0x977(%rbp),%rax
    f1e3:	48 89 85 10 fa ff ff 	mov    %rax,-0x5f0(%rbp)
    f1ea:	48 c7 85 18 fa ff ff 	movq   $0x0,-0x5e8(%rbp)
    f1f1:	00 00 00 00 
    f1f5:	48 8d 85 89 f6 ff ff 	lea    -0x977(%rbp),%rax
    f1fc:	48 89 85 20 fa ff ff 	mov    %rax,-0x5e0(%rbp)
    f203:	48 c7 85 28 fa ff ff 	movq   $0x0,-0x5d8(%rbp)
    f20a:	00 00 00 00 
    f20e:	48 8d 05 61 fe 00 00 	lea    0xfe61(%rip),%rax        # 1f076 <g_182>
    f215:	48 89 85 30 fa ff ff 	mov    %rax,-0x5d0(%rbp)
    f21c:	48 8d 85 89 f6 ff ff 	lea    -0x977(%rbp),%rax
    f223:	48 89 85 38 fa ff ff 	mov    %rax,-0x5c8(%rbp)
    f22a:	48 8d 85 89 f6 ff ff 	lea    -0x977(%rbp),%rax
    f231:	48 89 85 40 fa ff ff 	mov    %rax,-0x5c0(%rbp)
    f238:	48 8d 05 85 ff 00 00 	lea    0xff85(%rip),%rax        # 1f1c4 <g_718>
    f23f:	48 89 85 48 fa ff ff 	mov    %rax,-0x5b8(%rbp)
    f246:	48 8d 05 77 ff 00 00 	lea    0xff77(%rip),%rax        # 1f1c4 <g_718>
    f24d:	48 89 85 50 fa ff ff 	mov    %rax,-0x5b0(%rbp)
    f254:	48 8d 85 89 f6 ff ff 	lea    -0x977(%rbp),%rax
    f25b:	48 89 85 58 fa ff ff 	mov    %rax,-0x5a8(%rbp)
    f262:	48 c7 85 60 fa ff ff 	movq   $0x0,-0x5a0(%rbp)
    f269:	00 00 00 00 
    f26d:	48 8d 85 89 f6 ff ff 	lea    -0x977(%rbp),%rax
    f274:	48 89 85 68 fa ff ff 	mov    %rax,-0x598(%rbp)
    f27b:	48 8d 85 89 f6 ff ff 	lea    -0x977(%rbp),%rax
    f282:	48 89 85 70 fa ff ff 	mov    %rax,-0x590(%rbp)
    f289:	48 8d 05 e6 fd 00 00 	lea    0xfde6(%rip),%rax        # 1f076 <g_182>
    f290:	48 89 85 78 fa ff ff 	mov    %rax,-0x588(%rbp)
    f297:	48 c7 85 80 fa ff ff 	movq   $0x0,-0x580(%rbp)
    f29e:	00 00 00 00 
    f2a2:	48 8d 05 1b ff 00 00 	lea    0xff1b(%rip),%rax        # 1f1c4 <g_718>
    f2a9:	48 89 85 88 fa ff ff 	mov    %rax,-0x578(%rbp)
    f2b0:	48 8d 05 0d ff 00 00 	lea    0xff0d(%rip),%rax        # 1f1c4 <g_718>
    f2b7:	48 89 85 90 fa ff ff 	mov    %rax,-0x570(%rbp)
    f2be:	48 8d 05 b1 fd 00 00 	lea    0xfdb1(%rip),%rax        # 1f076 <g_182>
    f2c5:	48 89 85 98 fa ff ff 	mov    %rax,-0x568(%rbp)
    f2cc:	48 8d 85 89 f6 ff ff 	lea    -0x977(%rbp),%rax
    f2d3:	48 89 85 a0 fa ff ff 	mov    %rax,-0x560(%rbp)
    f2da:	48 8d 05 95 fd 00 00 	lea    0xfd95(%rip),%rax        # 1f076 <g_182>
    f2e1:	48 89 85 a8 fa ff ff 	mov    %rax,-0x558(%rbp)
    f2e8:	48 8d 05 87 fd 00 00 	lea    0xfd87(%rip),%rax        # 1f076 <g_182>
    f2ef:	48 89 85 b0 fa ff ff 	mov    %rax,-0x550(%rbp)
    f2f6:	48 c7 85 b8 fa ff ff 	movq   $0x0,-0x548(%rbp)
    f2fd:	00 00 00 00 
    f301:	48 8d 85 89 f6 ff ff 	lea    -0x977(%rbp),%rax
    f308:	48 89 85 c0 fa ff ff 	mov    %rax,-0x540(%rbp)
    f30f:	48 8d 05 60 fd 00 00 	lea    0xfd60(%rip),%rax        # 1f076 <g_182>
    f316:	48 89 85 c8 fa ff ff 	mov    %rax,-0x538(%rbp)
    f31d:	48 8d 85 89 f6 ff ff 	lea    -0x977(%rbp),%rax
    f324:	48 89 85 d0 fa ff ff 	mov    %rax,-0x530(%rbp)
    f32b:	48 8d 05 44 fd 00 00 	lea    0xfd44(%rip),%rax        # 1f076 <g_182>
    f332:	48 89 85 d8 fa ff ff 	mov    %rax,-0x528(%rbp)
    f339:	48 8d 85 89 f6 ff ff 	lea    -0x977(%rbp),%rax
    f340:	48 89 85 e0 fa ff ff 	mov    %rax,-0x520(%rbp)
    f347:	48 8d 05 28 fd 00 00 	lea    0xfd28(%rip),%rax        # 1f076 <g_182>
    f34e:	48 89 85 e8 fa ff ff 	mov    %rax,-0x518(%rbp)
    f355:	48 c7 85 f0 fa ff ff 	movq   $0x0,-0x510(%rbp)
    f35c:	00 00 00 00 
    f360:	48 c7 85 f8 fa ff ff 	movq   $0x0,-0x508(%rbp)
    f367:	00 00 00 00 
    f36b:	48 8d 05 04 fd 00 00 	lea    0xfd04(%rip),%rax        # 1f076 <g_182>
    f372:	48 89 85 00 fb ff ff 	mov    %rax,-0x500(%rbp)
    f379:	48 8d 85 89 f6 ff ff 	lea    -0x977(%rbp),%rax
    f380:	48 89 85 08 fb ff ff 	mov    %rax,-0x4f8(%rbp)
    f387:	48 8d 05 e8 fc 00 00 	lea    0xfce8(%rip),%rax        # 1f076 <g_182>
    f38e:	48 89 85 10 fb ff ff 	mov    %rax,-0x4f0(%rbp)
    f395:	48 8d 85 89 f6 ff ff 	lea    -0x977(%rbp),%rax
    f39c:	48 89 85 18 fb ff ff 	mov    %rax,-0x4e8(%rbp)
    f3a3:	48 c7 85 20 fb ff ff 	movq   $0x0,-0x4e0(%rbp)
    f3aa:	00 00 00 00 
    f3ae:	48 8d 05 0f fe 00 00 	lea    0xfe0f(%rip),%rax        # 1f1c4 <g_718>
    f3b5:	48 89 85 28 fb ff ff 	mov    %rax,-0x4d8(%rbp)
    f3bc:	48 8d 05 b3 fc 00 00 	lea    0xfcb3(%rip),%rax        # 1f076 <g_182>
    f3c3:	48 89 85 30 fb ff ff 	mov    %rax,-0x4d0(%rbp)
    f3ca:	48 8d 05 f3 fd 00 00 	lea    0xfdf3(%rip),%rax        # 1f1c4 <g_718>
    f3d1:	48 89 85 38 fb ff ff 	mov    %rax,-0x4c8(%rbp)
    f3d8:	48 8d 05 97 fc 00 00 	lea    0xfc97(%rip),%rax        # 1f076 <g_182>
    f3df:	48 89 85 40 fb ff ff 	mov    %rax,-0x4c0(%rbp)
    f3e6:	48 8d 05 89 fc 00 00 	lea    0xfc89(%rip),%rax        # 1f076 <g_182>
    f3ed:	48 89 85 48 fb ff ff 	mov    %rax,-0x4b8(%rbp)
    f3f4:	48 8d 05 c9 fd 00 00 	lea    0xfdc9(%rip),%rax        # 1f1c4 <g_718>
    f3fb:	48 89 85 50 fb ff ff 	mov    %rax,-0x4b0(%rbp)
    f402:	48 c7 85 58 fb ff ff 	movq   $0x0,-0x4a8(%rbp)
    f409:	00 00 00 00 
    f40d:	48 8d 05 62 fc 00 00 	lea    0xfc62(%rip),%rax        # 1f076 <g_182>
    f414:	48 89 85 60 fb ff ff 	mov    %rax,-0x4a0(%rbp)
    f41b:	48 c7 85 68 fb ff ff 	movq   $0x0,-0x498(%rbp)
    f422:	00 00 00 00 
    f426:	48 8d 85 89 f6 ff ff 	lea    -0x977(%rbp),%rax
    f42d:	48 89 85 70 fb ff ff 	mov    %rax,-0x490(%rbp)
    f434:	48 8d 05 3b fc 00 00 	lea    0xfc3b(%rip),%rax        # 1f076 <g_182>
    f43b:	48 89 85 78 fb ff ff 	mov    %rax,-0x488(%rbp)
    f442:	48 c7 85 80 fb ff ff 	movq   $0x0,-0x480(%rbp)
    f449:	00 00 00 00 
    f44d:	48 8d 05 22 fc 00 00 	lea    0xfc22(%rip),%rax        # 1f076 <g_182>
    f454:	48 89 85 88 fb ff ff 	mov    %rax,-0x478(%rbp)
    f45b:	48 8d 85 89 f6 ff ff 	lea    -0x977(%rbp),%rax
    f462:	48 89 85 90 fb ff ff 	mov    %rax,-0x470(%rbp)
    f469:	48 8d 05 06 fc 00 00 	lea    0xfc06(%rip),%rax        # 1f076 <g_182>
    f470:	48 89 85 98 fb ff ff 	mov    %rax,-0x468(%rbp)
    f477:	48 c7 85 a0 fb ff ff 	movq   $0x0,-0x460(%rbp)
    f47e:	00 00 00 00 
    f482:	48 8d 85 89 f6 ff ff 	lea    -0x977(%rbp),%rax
    f489:	48 89 85 a8 fb ff ff 	mov    %rax,-0x458(%rbp)
    f490:	48 8d 05 2d fd 00 00 	lea    0xfd2d(%rip),%rax        # 1f1c4 <g_718>
    f497:	48 89 85 b0 fb ff ff 	mov    %rax,-0x450(%rbp)
    f49e:	48 8d 85 89 f6 ff ff 	lea    -0x977(%rbp),%rax
    f4a5:	48 89 85 b8 fb ff ff 	mov    %rax,-0x448(%rbp)
    f4ac:	48 8d 85 89 f6 ff ff 	lea    -0x977(%rbp),%rax
    f4b3:	48 89 85 c0 fb ff ff 	mov    %rax,-0x440(%rbp)
    f4ba:	48 8d 05 03 fd 00 00 	lea    0xfd03(%rip),%rax        # 1f1c4 <g_718>
    f4c1:	48 89 85 c8 fb ff ff 	mov    %rax,-0x438(%rbp)
    f4c8:	48 8d 85 89 f6 ff ff 	lea    -0x977(%rbp),%rax
    f4cf:	48 89 85 d0 fb ff ff 	mov    %rax,-0x430(%rbp)
    f4d6:	48 8d 05 e7 fc 00 00 	lea    0xfce7(%rip),%rax        # 1f1c4 <g_718>
    f4dd:	48 89 85 d8 fb ff ff 	mov    %rax,-0x428(%rbp)
    f4e4:	48 c7 85 e0 fb ff ff 	movq   $0x0,-0x420(%rbp)
    f4eb:	00 00 00 00 
    f4ef:	48 8d 05 80 fb 00 00 	lea    0xfb80(%rip),%rax        # 1f076 <g_182>
    f4f6:	48 89 85 e8 fb ff ff 	mov    %rax,-0x418(%rbp)
    f4fd:	48 8d 05 c0 fc 00 00 	lea    0xfcc0(%rip),%rax        # 1f1c4 <g_718>
    f504:	48 89 85 f0 fb ff ff 	mov    %rax,-0x410(%rbp)
    f50b:	48 8d 85 89 f6 ff ff 	lea    -0x977(%rbp),%rax
    f512:	48 89 85 f8 fb ff ff 	mov    %rax,-0x408(%rbp)
    f519:	48 8d 85 89 f6 ff ff 	lea    -0x977(%rbp),%rax
    f520:	48 89 85 00 fc ff ff 	mov    %rax,-0x400(%rbp)
    f527:	48 8d 85 89 f6 ff ff 	lea    -0x977(%rbp),%rax
    f52e:	48 89 85 08 fc ff ff 	mov    %rax,-0x3f8(%rbp)
    f535:	48 8d 05 88 fc 00 00 	lea    0xfc88(%rip),%rax        # 1f1c4 <g_718>
    f53c:	48 89 85 10 fc ff ff 	mov    %rax,-0x3f0(%rbp)
    f543:	48 c7 85 18 fc ff ff 	movq   $0x0,-0x3e8(%rbp)
    f54a:	00 00 00 00 
    f54e:	48 c7 85 20 fc ff ff 	movq   $0x0,-0x3e0(%rbp)
    f555:	00 00 00 00 
    f559:	48 8d 85 89 f6 ff ff 	lea    -0x977(%rbp),%rax
    f560:	48 89 85 28 fc ff ff 	mov    %rax,-0x3d8(%rbp)
    f567:	48 8d 05 08 fb 00 00 	lea    0xfb08(%rip),%rax        # 1f076 <g_182>
    f56e:	48 89 85 30 fc ff ff 	mov    %rax,-0x3d0(%rbp)
    f575:	48 8d 85 89 f6 ff ff 	lea    -0x977(%rbp),%rax
    f57c:	48 89 85 38 fc ff ff 	mov    %rax,-0x3c8(%rbp)
    f583:	48 8d 05 3a fc 00 00 	lea    0xfc3a(%rip),%rax        # 1f1c4 <g_718>
    f58a:	48 89 85 40 fc ff ff 	mov    %rax,-0x3c0(%rbp)
    f591:	48 8d 05 de fa 00 00 	lea    0xfade(%rip),%rax        # 1f076 <g_182>
    f598:	48 89 85 48 fc ff ff 	mov    %rax,-0x3b8(%rbp)
    f59f:	48 c7 85 50 fc ff ff 	movq   $0x0,-0x3b0(%rbp)
    f5a6:	00 00 00 00 
    f5aa:	48 8d 05 13 fc 00 00 	lea    0xfc13(%rip),%rax        # 1f1c4 <g_718>
    f5b1:	48 89 85 58 fc ff ff 	mov    %rax,-0x3a8(%rbp)
    f5b8:	48 8d 05 05 fc 00 00 	lea    0xfc05(%rip),%rax        # 1f1c4 <g_718>
    f5bf:	48 89 85 60 fc ff ff 	mov    %rax,-0x3a0(%rbp)
    f5c6:	48 8d 05 f7 fb 00 00 	lea    0xfbf7(%rip),%rax        # 1f1c4 <g_718>
    f5cd:	48 89 85 68 fc ff ff 	mov    %rax,-0x398(%rbp)
    f5d4:	48 8d 05 e9 fb 00 00 	lea    0xfbe9(%rip),%rax        # 1f1c4 <g_718>
    f5db:	48 89 85 70 fc ff ff 	mov    %rax,-0x390(%rbp)
    f5e2:	48 8d 85 89 f6 ff ff 	lea    -0x977(%rbp),%rax
    f5e9:	48 89 85 78 fc ff ff 	mov    %rax,-0x388(%rbp)
    f5f0:	48 8d 05 cd fb 00 00 	lea    0xfbcd(%rip),%rax        # 1f1c4 <g_718>
    f5f7:	48 89 85 80 fc ff ff 	mov    %rax,-0x380(%rbp)
    f5fe:	48 8d 85 89 f6 ff ff 	lea    -0x977(%rbp),%rax
    f605:	48 89 85 88 fc ff ff 	mov    %rax,-0x378(%rbp)
    f60c:	48 8d 05 63 fa 00 00 	lea    0xfa63(%rip),%rax        # 1f076 <g_182>
    f613:	48 89 85 90 fc ff ff 	mov    %rax,-0x370(%rbp)
    f61a:	48 8d 05 55 fa 00 00 	lea    0xfa55(%rip),%rax        # 1f076 <g_182>
    f621:	48 89 85 98 fc ff ff 	mov    %rax,-0x368(%rbp)
    f628:	48 8d 05 95 fb 00 00 	lea    0xfb95(%rip),%rax        # 1f1c4 <g_718>
    f62f:	48 89 85 a0 fc ff ff 	mov    %rax,-0x360(%rbp)
    f636:	48 8d 05 39 fa 00 00 	lea    0xfa39(%rip),%rax        # 1f076 <g_182>
    f63d:	48 89 85 a8 fc ff ff 	mov    %rax,-0x358(%rbp)
    f644:	48 8d 05 2b fa 00 00 	lea    0xfa2b(%rip),%rax        # 1f076 <g_182>
    f64b:	48 89 85 b0 fc ff ff 	mov    %rax,-0x350(%rbp)
    f652:	48 8d 05 1d fa 00 00 	lea    0xfa1d(%rip),%rax        # 1f076 <g_182>
    f659:	48 89 85 b8 fc ff ff 	mov    %rax,-0x348(%rbp)
    f660:	48 8d 05 5d fb 00 00 	lea    0xfb5d(%rip),%rax        # 1f1c4 <g_718>
    f667:	48 89 85 c0 fc ff ff 	mov    %rax,-0x340(%rbp)
    f66e:	48 c7 85 c8 fc ff ff 	movq   $0x0,-0x338(%rbp)
    f675:	00 00 00 00 
    f679:	48 8d 05 f6 f9 00 00 	lea    0xf9f6(%rip),%rax        # 1f076 <g_182>
    f680:	48 89 85 d0 fc ff ff 	mov    %rax,-0x330(%rbp)
    f687:	48 c7 85 d8 fc ff ff 	movq   $0x0,-0x328(%rbp)
    f68e:	00 00 00 00 
    f692:	48 c7 85 e0 fc ff ff 	movq   $0x0,-0x320(%rbp)
    f699:	00 00 00 00 
    f69d:	48 8d 05 d2 f9 00 00 	lea    0xf9d2(%rip),%rax        # 1f076 <g_182>
    f6a4:	48 89 85 e8 fc ff ff 	mov    %rax,-0x318(%rbp)
    f6ab:	48 c7 85 f0 fc ff ff 	movq   $0x0,-0x310(%rbp)
    f6b2:	00 00 00 00 
    f6b6:	48 8d 05 07 fb 00 00 	lea    0xfb07(%rip),%rax        # 1f1c4 <g_718>
    f6bd:	48 89 85 f8 fc ff ff 	mov    %rax,-0x308(%rbp)
    f6c4:	48 8d 85 89 f6 ff ff 	lea    -0x977(%rbp),%rax
    f6cb:	48 89 85 00 fd ff ff 	mov    %rax,-0x300(%rbp)
    f6d2:	48 8d 05 eb fa 00 00 	lea    0xfaeb(%rip),%rax        # 1f1c4 <g_718>
    f6d9:	48 89 85 08 fd ff ff 	mov    %rax,-0x2f8(%rbp)
    f6e0:	48 8d 85 89 f6 ff ff 	lea    -0x977(%rbp),%rax
    f6e7:	48 89 85 10 fd ff ff 	mov    %rax,-0x2f0(%rbp)
    f6ee:	48 8d 85 89 f6 ff ff 	lea    -0x977(%rbp),%rax
    f6f5:	48 89 85 18 fd ff ff 	mov    %rax,-0x2e8(%rbp)
    f6fc:	48 8d 85 89 f6 ff ff 	lea    -0x977(%rbp),%rax
    f703:	48 89 85 20 fd ff ff 	mov    %rax,-0x2e0(%rbp)
    f70a:	48 8d 85 89 f6 ff ff 	lea    -0x977(%rbp),%rax
    f711:	48 89 85 28 fd ff ff 	mov    %rax,-0x2d8(%rbp)
    f718:	48 8d 85 89 f6 ff ff 	lea    -0x977(%rbp),%rax
    f71f:	48 89 85 30 fd ff ff 	mov    %rax,-0x2d0(%rbp)
    f726:	48 c7 85 38 fd ff ff 	movq   $0x0,-0x2c8(%rbp)
    f72d:	00 00 00 00 
    f731:	48 8d 05 3e f9 00 00 	lea    0xf93e(%rip),%rax        # 1f076 <g_182>
    f738:	48 89 85 40 fd ff ff 	mov    %rax,-0x2c0(%rbp)
    f73f:	48 8d 05 30 f9 00 00 	lea    0xf930(%rip),%rax        # 1f076 <g_182>
    f746:	48 89 85 48 fd ff ff 	mov    %rax,-0x2b8(%rbp)
    f74d:	48 8d 85 89 f6 ff ff 	lea    -0x977(%rbp),%rax
    f754:	48 89 85 50 fd ff ff 	mov    %rax,-0x2b0(%rbp)
    f75b:	48 8d 05 14 f9 00 00 	lea    0xf914(%rip),%rax        # 1f076 <g_182>
    f762:	48 89 85 58 fd ff ff 	mov    %rax,-0x2a8(%rbp)
    f769:	48 8d 05 06 f9 00 00 	lea    0xf906(%rip),%rax        # 1f076 <g_182>
    f770:	48 89 85 60 fd ff ff 	mov    %rax,-0x2a0(%rbp)
    f777:	48 8d 05 f8 f8 00 00 	lea    0xf8f8(%rip),%rax        # 1f076 <g_182>
    f77e:	48 89 85 68 fd ff ff 	mov    %rax,-0x298(%rbp)
    f785:	48 c7 85 70 fd ff ff 	movq   $0x0,-0x290(%rbp)
    f78c:	00 00 00 00 
    f790:	48 c7 85 78 fd ff ff 	movq   $0x0,-0x288(%rbp)
    f797:	00 00 00 00 
    f79b:	48 8d 05 22 fa 00 00 	lea    0xfa22(%rip),%rax        # 1f1c4 <g_718>
    f7a2:	48 89 85 80 fd ff ff 	mov    %rax,-0x280(%rbp)
    f7a9:	48 8d 05 c6 f8 00 00 	lea    0xf8c6(%rip),%rax        # 1f076 <g_182>
    f7b0:	48 89 85 88 fd ff ff 	mov    %rax,-0x278(%rbp)
    f7b7:	48 c7 85 90 fd ff ff 	movq   $0x0,-0x270(%rbp)
    f7be:	00 00 00 00 
    f7c2:	48 8d 05 ad f8 00 00 	lea    0xf8ad(%rip),%rax        # 1f076 <g_182>
    f7c9:	48 89 85 98 fd ff ff 	mov    %rax,-0x268(%rbp)
    f7d0:	48 8d 85 89 f6 ff ff 	lea    -0x977(%rbp),%rax
    f7d7:	48 89 85 a0 fd ff ff 	mov    %rax,-0x260(%rbp)
    f7de:	48 8d 05 df f9 00 00 	lea    0xf9df(%rip),%rax        # 1f1c4 <g_718>
    f7e5:	48 89 85 a8 fd ff ff 	mov    %rax,-0x258(%rbp)
    f7ec:	48 c7 85 b0 fd ff ff 	movq   $0x0,-0x250(%rbp)
    f7f3:	00 00 00 00 
    f7f7:	48 8d 05 78 f8 00 00 	lea    0xf878(%rip),%rax        # 1f076 <g_182>
    f7fe:	48 89 85 b8 fd ff ff 	mov    %rax,-0x248(%rbp)
    f805:	48 c7 85 c0 fd ff ff 	movq   $0x0,-0x240(%rbp)
    f80c:	00 00 00 00 
    f810:	48 8d 85 89 f6 ff ff 	lea    -0x977(%rbp),%rax
    f817:	48 89 85 c8 fd ff ff 	mov    %rax,-0x238(%rbp)
    f81e:	48 c7 85 d0 fd ff ff 	movq   $0x0,-0x230(%rbp)
    f825:	00 00 00 00 
    f829:	48 8d 85 89 f6 ff ff 	lea    -0x977(%rbp),%rax
    f830:	48 89 85 d8 fd ff ff 	mov    %rax,-0x228(%rbp)
    f837:	48 8d 85 89 f6 ff ff 	lea    -0x977(%rbp),%rax
    f83e:	48 89 85 e0 fd ff ff 	mov    %rax,-0x220(%rbp)
    f845:	48 8d 05 78 f9 00 00 	lea    0xf978(%rip),%rax        # 1f1c4 <g_718>
    f84c:	48 89 85 e8 fd ff ff 	mov    %rax,-0x218(%rbp)
    f853:	48 c7 85 f0 fd ff ff 	movq   $0x0,-0x210(%rbp)
    f85a:	00 00 00 00 
    f85e:	48 8d 85 89 f6 ff ff 	lea    -0x977(%rbp),%rax
    f865:	48 89 85 f8 fd ff ff 	mov    %rax,-0x208(%rbp)
    f86c:	48 8d 05 51 f9 00 00 	lea    0xf951(%rip),%rax        # 1f1c4 <g_718>
    f873:	48 89 85 00 fe ff ff 	mov    %rax,-0x200(%rbp)
    f87a:	48 c7 85 08 fe ff ff 	movq   $0x0,-0x1f8(%rbp)
    f881:	00 00 00 00 
    f885:	48 c7 85 10 fe ff ff 	movq   $0x0,-0x1f0(%rbp)
    f88c:	00 00 00 00 
    f890:	48 c7 85 18 fe ff ff 	movq   $0x0,-0x1e8(%rbp)
    f897:	00 00 00 00 
    f89b:	48 8d 05 d4 f7 00 00 	lea    0xf7d4(%rip),%rax        # 1f076 <g_182>
    f8a2:	48 89 85 20 fe ff ff 	mov    %rax,-0x1e0(%rbp)
    f8a9:	48 8d 05 14 f9 00 00 	lea    0xf914(%rip),%rax        # 1f1c4 <g_718>
    f8b0:	48 89 85 28 fe ff ff 	mov    %rax,-0x1d8(%rbp)
    f8b7:	48 8d 85 89 f6 ff ff 	lea    -0x977(%rbp),%rax
    f8be:	48 89 85 30 fe ff ff 	mov    %rax,-0x1d0(%rbp)
    f8c5:	48 c7 85 38 fe ff ff 	movq   $0x0,-0x1c8(%rbp)
    f8cc:	00 00 00 00 
    f8d0:	48 8d 05 9f f7 00 00 	lea    0xf79f(%rip),%rax        # 1f076 <g_182>
    f8d7:	48 89 85 40 fe ff ff 	mov    %rax,-0x1c0(%rbp)
    f8de:	48 c7 85 48 fe ff ff 	movq   $0x0,-0x1b8(%rbp)
    f8e5:	00 00 00 00 
    f8e9:	48 8d 85 89 f6 ff ff 	lea    -0x977(%rbp),%rax
    f8f0:	48 89 85 50 fe ff ff 	mov    %rax,-0x1b0(%rbp)
    f8f7:	48 8d 05 78 f7 00 00 	lea    0xf778(%rip),%rax        # 1f076 <g_182>
    f8fe:	48 89 85 58 fe ff ff 	mov    %rax,-0x1a8(%rbp)
    f905:	48 8d 85 89 f6 ff ff 	lea    -0x977(%rbp),%rax
    f90c:	48 89 85 60 fe ff ff 	mov    %rax,-0x1a0(%rbp)
    f913:	48 c7 85 68 fe ff ff 	movq   $0x0,-0x198(%rbp)
    f91a:	00 00 00 00 
    f91e:	48 8d 85 89 f6 ff ff 	lea    -0x977(%rbp),%rax
    f925:	48 89 85 70 fe ff ff 	mov    %rax,-0x190(%rbp)
    f92c:	48 8d 85 89 f6 ff ff 	lea    -0x977(%rbp),%rax
    f933:	48 89 85 78 fe ff ff 	mov    %rax,-0x188(%rbp)
    f93a:	48 8d 85 89 f6 ff ff 	lea    -0x977(%rbp),%rax
    f941:	48 89 85 80 fe ff ff 	mov    %rax,-0x180(%rbp)
    f948:	48 8d 05 27 f7 00 00 	lea    0xf727(%rip),%rax        # 1f076 <g_182>
    f94f:	48 89 85 88 fe ff ff 	mov    %rax,-0x178(%rbp)
    f956:	48 c7 85 90 fe ff ff 	movq   $0x0,-0x170(%rbp)
    f95d:	00 00 00 00 
    f961:	48 8d 05 5c f8 00 00 	lea    0xf85c(%rip),%rax        # 1f1c4 <g_718>
    f968:	48 89 85 98 fe ff ff 	mov    %rax,-0x168(%rbp)
    f96f:	48 c7 85 a0 fe ff ff 	movq   $0x0,-0x160(%rbp)
    f976:	00 00 00 00 
    f97a:	48 8d 85 89 f6 ff ff 	lea    -0x977(%rbp),%rax
    f981:	48 89 85 a8 fe ff ff 	mov    %rax,-0x158(%rbp)
    f988:	48 8d 05 35 f8 00 00 	lea    0xf835(%rip),%rax        # 1f1c4 <g_718>
    f98f:	48 89 85 b0 fe ff ff 	mov    %rax,-0x150(%rbp)
    f996:	48 8d 85 89 f6 ff ff 	lea    -0x977(%rbp),%rax
    f99d:	48 89 85 b8 fe ff ff 	mov    %rax,-0x148(%rbp)
    f9a4:	48 8d 05 19 f8 00 00 	lea    0xf819(%rip),%rax        # 1f1c4 <g_718>
    f9ab:	48 89 85 c0 fe ff ff 	mov    %rax,-0x140(%rbp)
    f9b2:	48 8d 05 bd f6 00 00 	lea    0xf6bd(%rip),%rax        # 1f076 <g_182>
    f9b9:	48 89 85 c8 fe ff ff 	mov    %rax,-0x138(%rbp)
    f9c0:	48 8d 05 fd f7 00 00 	lea    0xf7fd(%rip),%rax        # 1f1c4 <g_718>
    f9c7:	48 89 85 d0 fe ff ff 	mov    %rax,-0x130(%rbp)
    f9ce:	48 8d 85 89 f6 ff ff 	lea    -0x977(%rbp),%rax
    f9d5:	48 89 85 d8 fe ff ff 	mov    %rax,-0x128(%rbp)
    f9dc:	48 8d 05 e1 f7 00 00 	lea    0xf7e1(%rip),%rax        # 1f1c4 <g_718>
    f9e3:	48 89 85 e0 fe ff ff 	mov    %rax,-0x120(%rbp)
    f9ea:	48 8d 85 89 f6 ff ff 	lea    -0x977(%rbp),%rax
    f9f1:	48 89 85 e8 fe ff ff 	mov    %rax,-0x118(%rbp)
    f9f8:	48 8d 85 89 f6 ff ff 	lea    -0x977(%rbp),%rax
    f9ff:	48 89 85 f0 fe ff ff 	mov    %rax,-0x110(%rbp)
    fa06:	48 8d 05 b7 f7 00 00 	lea    0xf7b7(%rip),%rax        # 1f1c4 <g_718>
    fa0d:	48 89 85 f8 fe ff ff 	mov    %rax,-0x108(%rbp)
    fa14:	48 8d 05 5b f6 00 00 	lea    0xf65b(%rip),%rax        # 1f076 <g_182>
    fa1b:	48 89 85 00 ff ff ff 	mov    %rax,-0x100(%rbp)
    fa22:	48 8d 05 4d f6 00 00 	lea    0xf64d(%rip),%rax        # 1f076 <g_182>
    fa29:	48 89 85 08 ff ff ff 	mov    %rax,-0xf8(%rbp)
    fa30:	48 8d 05 8d f7 00 00 	lea    0xf78d(%rip),%rax        # 1f1c4 <g_718>
    fa37:	48 89 85 10 ff ff ff 	mov    %rax,-0xf0(%rbp)
    fa3e:	48 8d 05 7f f7 00 00 	lea    0xf77f(%rip),%rax        # 1f1c4 <g_718>
    fa45:	48 89 85 18 ff ff ff 	mov    %rax,-0xe8(%rbp)
    fa4c:	48 8d 85 89 f6 ff ff 	lea    -0x977(%rbp),%rax
    fa53:	48 89 85 20 ff ff ff 	mov    %rax,-0xe0(%rbp)
    fa5a:	48 8d 85 89 f6 ff ff 	lea    -0x977(%rbp),%rax
    fa61:	48 89 85 28 ff ff ff 	mov    %rax,-0xd8(%rbp)
    fa68:	48 8d 85 89 f6 ff ff 	lea    -0x977(%rbp),%rax
    fa6f:	48 89 85 30 ff ff ff 	mov    %rax,-0xd0(%rbp)
    fa76:	48 8d 05 47 f7 00 00 	lea    0xf747(%rip),%rax        # 1f1c4 <g_718>
    fa7d:	48 89 85 38 ff ff ff 	mov    %rax,-0xc8(%rbp)
    fa84:	48 8d 85 89 f6 ff ff 	lea    -0x977(%rbp),%rax
    fa8b:	48 89 85 40 ff ff ff 	mov    %rax,-0xc0(%rbp)
    fa92:	48 8d 05 dd f5 00 00 	lea    0xf5dd(%rip),%rax        # 1f076 <g_182>
    fa99:	48 89 85 48 ff ff ff 	mov    %rax,-0xb8(%rbp)
    faa0:	48 8d 85 89 f6 ff ff 	lea    -0x977(%rbp),%rax
    faa7:	48 89 85 50 ff ff ff 	mov    %rax,-0xb0(%rbp)
    faae:	48 c7 85 58 ff ff ff 	movq   $0x0,-0xa8(%rbp)
    fab5:	00 00 00 00 
    fab9:	48 8d 05 b6 f5 00 00 	lea    0xf5b6(%rip),%rax        # 1f076 <g_182>
    fac0:	48 89 85 60 ff ff ff 	mov    %rax,-0xa0(%rbp)
    fac7:	48 8d 85 89 f6 ff ff 	lea    -0x977(%rbp),%rax
    face:	48 89 85 68 ff ff ff 	mov    %rax,-0x98(%rbp)
    fad5:	48 8d 05 9a f5 00 00 	lea    0xf59a(%rip),%rax        # 1f076 <g_182>
    fadc:	48 89 85 70 ff ff ff 	mov    %rax,-0x90(%rbp)
    fae3:	48 c7 85 78 ff ff ff 	movq   $0x0,-0x88(%rbp)
    faea:	00 00 00 00 
    faee:	48 8d 05 81 f5 00 00 	lea    0xf581(%rip),%rax        # 1f076 <g_182>
    faf5:	48 89 45 80          	mov    %rax,-0x80(%rbp)
    faf9:	48 8d 05 76 f5 00 00 	lea    0xf576(%rip),%rax        # 1f076 <g_182>
    fb00:	48 89 45 88          	mov    %rax,-0x78(%rbp)
    fb04:	48 c7 45 90 00 00 00 	movq   $0x0,-0x70(%rbp)
    fb0b:	00 
    fb0c:	48 8d 05 b1 f6 00 00 	lea    0xf6b1(%rip),%rax        # 1f1c4 <g_718>
    fb13:	48 89 45 98          	mov    %rax,-0x68(%rbp)
    fb17:	48 c7 45 a0 00 00 00 	movq   $0x0,-0x60(%rbp)
    fb1e:	00 
    fb1f:	48 8d 85 89 f6 ff ff 	lea    -0x977(%rbp),%rax
    fb26:	48 89 45 a8          	mov    %rax,-0x58(%rbp)
    fb2a:	48 8d 85 89 f6 ff ff 	lea    -0x977(%rbp),%rax
    fb31:	48 89 45 b0          	mov    %rax,-0x50(%rbp)
    fb35:	48 8d 05 88 f6 00 00 	lea    0xf688(%rip),%rax        # 1f1c4 <g_718>
    fb3c:	48 89 45 b8          	mov    %rax,-0x48(%rbp)
    fb40:	48 8d 85 89 f6 ff ff 	lea    -0x977(%rbp),%rax
    fb47:	48 89 45 c0          	mov    %rax,-0x40(%rbp)
    fb4b:	48 8d 05 24 f5 00 00 	lea    0xf524(%rip),%rax        # 1f076 <g_182>
    fb52:	48 89 45 c8          	mov    %rax,-0x38(%rbp)
    fb56:	48 8d 85 d0 f8 ff ff 	lea    -0x730(%rbp),%rax
    fb5d:	48 05 18 03 00 00    	add    $0x318,%rax
    fb63:	48 89 85 20 f7 ff ff 	mov    %rax,-0x8e0(%rbp)
    fb6a:	c7 85 90 f6 ff ff 00 	movl   $0x0,-0x970(%rbp)
    fb71:	00 00 00 
    fb74:	eb 1b                	jmp    fb91 <func_24+0xff2>
    fb76:	8b 85 90 f6 ff ff    	mov    -0x970(%rbp),%eax
    fb7c:	48 98                	cltq   
    fb7e:	48 c7 84 c5 30 f7 ff 	movq   $0x0,-0x8d0(%rbp,%rax,8)
    fb85:	ff 00 00 00 00 
    fb8a:	83 85 90 f6 ff ff 01 	addl   $0x1,-0x970(%rbp)
    fb91:	83 bd 90 f6 ff ff 05 	cmpl   $0x5,-0x970(%rbp)
    fb98:	7e dc                	jle    fb76 <func_24+0xfd7>
    fb9a:	48 83 ad 78 f6 ff ff 	subq   $0x1,-0x988(%rbp)
    fba1:	01 
    fba2:	48 83 bd 78 f6 ff ff 	cmpq   $0xffffffffffffffe7,-0x988(%rbp)
    fba9:	e7 
    fbaa:	0f 8c f9 f0 ff ff    	jl     eca9 <func_24+0x10a>
    fbb0:	48 8b 85 78 f6 ff ff 	mov    -0x988(%rbp),%rax
    fbb7:	0f b6 d8             	movzbl %al,%ebx
    fbba:	48 8b 85 78 f6 ff ff 	mov    -0x988(%rbp),%rax
    fbc1:	44 0f b6 e0          	movzbl %al,%r12d
    fbc5:	48 8b 85 c0 f6 ff ff 	mov    -0x940(%rbp),%rax
    fbcc:	48 8b 00             	mov    (%rax),%rax
    fbcf:	8b 00                	mov    (%rax),%eax
    fbd1:	0f bf d0             	movswl %ax,%edx
    fbd4:	48 83 bd 78 f6 ff ff 	cmpq   $0x0,-0x988(%rbp)
    fbdb:	00 
    fbdc:	74 11                	je     fbef <func_24+0x1050>
    fbde:	48 83 bd 78 f6 ff ff 	cmpq   $0x0,-0x988(%rbp)
    fbe5:	00 
    fbe6:	74 07                	je     fbef <func_24+0x1050>
    fbe8:	b9 01 00 00 00       	mov    $0x1,%ecx
    fbed:	eb 05                	jmp    fbf4 <func_24+0x1055>
    fbef:	b9 00 00 00 00       	mov    $0x0,%ecx
    fbf4:	48 8b 05 ad 28 01 00 	mov    0x128ad(%rip),%rax        # 224a8 <g_1565>
    fbfb:	0f b6 00             	movzbl (%rax),%eax
    fbfe:	0f be c0             	movsbl %al,%eax
    fc01:	39 c1                	cmp    %eax,%ecx
    fc03:	0f 95 c0             	setne  %al
    fc06:	0f b6 c0             	movzbl %al,%eax
    fc09:	89 d6                	mov    %edx,%esi
    fc0b:	89 c7                	mov    %eax,%edi
    fc0d:	e8 43 a8 ff ff       	callq  a455 <safe_div_func_int16_t_s_s>
    fc12:	f7 d0                	not    %eax
    fc14:	0f b6 c0             	movzbl %al,%eax
    fc17:	be 00 00 00 00       	mov    $0x0,%esi
    fc1c:	89 c7                	mov    %eax,%edi
    fc1e:	e8 29 b0 ff ff       	callq  ac4c <safe_lshift_func_uint8_t_u_u>
    fc23:	0f b6 c0             	movzbl %al,%eax
    fc26:	44 89 e6             	mov    %r12d,%esi
    fc29:	89 c7                	mov    %eax,%edi
    fc2b:	e8 2a af ff ff       	callq  ab5a <safe_add_func_uint8_t_u_u>
    fc30:	44 0f b6 e0          	movzbl %al,%r12d
    fc34:	48 83 bd 78 f6 ff ff 	cmpq   $0x0,-0x988(%rbp)
    fc3b:	00 
    fc3c:	75 10                	jne    fc4e <func_24+0x10af>
    fc3e:	48 8b 85 28 f7 ff ff 	mov    -0x8d8(%rbp),%rax
    fc45:	48 39 85 d0 f6 ff ff 	cmp    %rax,-0x930(%rbp)
    fc4c:	74 07                	je     fc55 <func_24+0x10b6>
    fc4e:	b8 01 00 00 00       	mov    $0x1,%eax
    fc53:	eb 05                	jmp    fc5a <func_24+0x10bb>
    fc55:	b8 00 00 00 00       	mov    $0x0,%eax
    fc5a:	48 63 d0             	movslq %eax,%rdx
    fc5d:	48 8d 85 a8 f6 ff ff 	lea    -0x958(%rbp),%rax
    fc64:	48 39 85 c8 f6 ff ff 	cmp    %rax,-0x938(%rbp)
    fc6b:	0f 94 c0             	sete   %al
    fc6e:	0f b6 c0             	movzbl %al,%eax
    fc71:	48 89 d6             	mov    %rdx,%rsi
    fc74:	48 89 c7             	mov    %rax,%rdi
    fc77:	e8 c5 ab ff ff       	callq  a841 <safe_add_func_int64_t_s_s>
    fc7c:	98                   	cwtl   
    fc7d:	44 89 e6             	mov    %r12d,%esi
    fc80:	89 c7                	mov    %eax,%edi
    fc82:	e8 6e a7 ff ff       	callq  a3f5 <safe_mul_func_int16_t_s_s>
    fc87:	89 c2                	mov    %eax,%edx
    fc89:	48 8b 85 d0 f6 ff ff 	mov    -0x930(%rbp),%rax
    fc90:	48 8b 00             	mov    (%rax),%rax
    fc93:	48 8b 00             	mov    (%rax),%rax
    fc96:	48 8b 00             	mov    (%rax),%rax
    fc99:	48 8b 00             	mov    (%rax),%rax
    fc9c:	8b 00                	mov    (%rax),%eax
    fc9e:	31 d0                	xor    %edx,%eax
    fca0:	0f be c0             	movsbl %al,%eax
    fca3:	89 c6                	mov    %eax,%esi
    fca5:	bf 3c 00 00 00       	mov    $0x3c,%edi
    fcaa:	e8 43 a5 ff ff       	callq  a1f2 <safe_sub_func_int8_t_s_s>
    fcaf:	48 8b 05 82 30 01 00 	mov    0x13082(%rip),%rax        # 22d38 <g_2522>
    fcb6:	48 8b 00             	mov    (%rax),%rax
    fcb9:	48 8b 00             	mov    (%rax),%rax
    fcbc:	8b 00                	mov    (%rax),%eax
    fcbe:	39 85 a0 f6 ff ff    	cmp    %eax,-0x960(%rbp)
    fcc4:	0f 95 c0             	setne  %al
    fcc7:	0f b6 d0             	movzbl %al,%edx
    fcca:	48 8b 05 6f 28 01 00 	mov    0x1286f(%rip),%rax        # 22540 <g_1699>
    fcd1:	0f b6 00             	movzbl (%rax),%eax
    fcd4:	0f b6 c0             	movzbl %al,%eax
    fcd7:	39 c2                	cmp    %eax,%edx
    fcd9:	0f 9d c0             	setge  %al
    fcdc:	0f b6 c0             	movzbl %al,%eax
    fcdf:	be 03 00 00 00       	mov    $0x3,%esi
    fce4:	89 c7                	mov    %eax,%edi
    fce6:	e8 1a af ff ff       	callq  ac05 <safe_lshift_func_uint8_t_u_s>
    fceb:	0f b6 c0             	movzbl %al,%eax
    fcee:	89 de                	mov    %ebx,%esi
    fcf0:	89 c7                	mov    %eax,%edi
    fcf2:	e8 e4 ae ff ff       	callq  abdb <safe_div_func_uint8_t_u_u>
    fcf7:	89 c2                	mov    %eax,%edx
    fcf9:	48 8b 05 20 24 01 00 	mov    0x12420(%rip),%rax        # 22120 <g_774>
    fd00:	48 8b 00             	mov    (%rax),%rax
    fd03:	0f b6 d2             	movzbl %dl,%edx
    fd06:	89 10                	mov    %edx,(%rax)
    fd08:	48 8b 85 78 f6 ff ff 	mov    -0x988(%rbp),%rax
    fd0f:	41 89 c6             	mov    %eax,%r14d
    fd12:	48 8b 85 d0 f6 ff ff 	mov    -0x930(%rbp),%rax
    fd19:	48 8b 00             	mov    (%rax),%rax
    fd1c:	48 8b 00             	mov    (%rax),%rax
    fd1f:	48 8b 00             	mov    (%rax),%rax
    fd22:	48 8b 00             	mov    (%rax),%rax
    fd25:	44 8b 28             	mov    (%rax),%r13d
    fd28:	48 8b 05 b1 1a 01 00 	mov    0x11ab1(%rip),%rax        # 217e0 <g_57>
    fd2f:	44 8b 20             	mov    (%rax),%r12d
    fd32:	48 8b 85 78 f6 ff ff 	mov    -0x988(%rbp),%rax
    fd39:	89 c3                	mov    %eax,%ebx
    fd3b:	48 8b 85 78 f6 ff ff 	mov    -0x988(%rbp),%rax
    fd42:	66 25 34 8d          	and    $0x8d34,%ax
    fd46:	98                   	cwtl   
    fd47:	be 01 00 00 00       	mov    $0x1,%esi
    fd4c:	89 c7                	mov    %eax,%edi
    fd4e:	e8 80 a6 ff ff       	callq  a3d3 <safe_sub_func_int16_t_s_s>
    fd53:	89 c2                	mov    %eax,%edx
    fd55:	48 8b 85 e0 f6 ff ff 	mov    -0x920(%rbp),%rax
    fd5c:	88 10                	mov    %dl,(%rax)
    fd5e:	48 8b 85 e0 f6 ff ff 	mov    -0x920(%rbp),%rax
    fd65:	0f b6 00             	movzbl (%rax),%eax
    fd68:	0f be c0             	movsbl %al,%eax
    fd6b:	89 de                	mov    %ebx,%esi
    fd6d:	89 c7                	mov    %eax,%edi
    fd6f:	e8 7a a5 ff ff       	callq  a2ee <safe_lshift_func_int8_t_s_u>
    fd74:	be 06 00 00 00       	mov    $0x6,%esi
    fd79:	bf 00 00 00 00       	mov    $0x0,%edi
    fd7e:	e8 be aa ff ff       	callq  a841 <safe_add_func_int64_t_s_s>
    fd83:	89 c2                	mov    %eax,%edx
    fd85:	48 8b 05 94 23 01 00 	mov    0x12394(%rip),%rax        # 22120 <g_774>
    fd8c:	48 8b 18             	mov    (%rax),%rbx
    fd8f:	44 89 e6             	mov    %r12d,%esi
    fd92:	89 d7                	mov    %edx,%edi
    fd94:	e8 1d a8 ff ff       	callq  a5b6 <safe_add_func_int32_t_s_s>
    fd99:	89 03                	mov    %eax,(%rbx)
    fd9b:	8b 13                	mov    (%rbx),%edx
    fd9d:	0f b6 05 c4 f5 00 00 	movzbl 0xf5c4(%rip),%eax        # 1f368 <g_2576>
    fda4:	0f be c0             	movsbl %al,%eax
    fda7:	39 c2                	cmp    %eax,%edx
    fda9:	0f 9e c0             	setle  %al
    fdac:	0f b6 c0             	movzbl %al,%eax
    fdaf:	41 39 c5             	cmp    %eax,%r13d
    fdb2:	0f 9c c0             	setl   %al
    fdb5:	0f b6 c0             	movzbl %al,%eax
    fdb8:	be ff 00 00 00       	mov    $0xff,%esi
    fdbd:	89 c7                	mov    %eax,%edi
    fdbf:	e8 cf ad ff ff       	callq  ab93 <safe_mul_func_uint8_t_u_u>
    fdc4:	0f b6 d0             	movzbl %al,%edx
    fdc7:	48 8b 05 7a 2f 01 00 	mov    0x12f7a(%rip),%rax        # 22d48 <g_2520>
    fdce:	48 8b 00             	mov    (%rax),%rax
    fdd1:	48 8b 00             	mov    (%rax),%rax
    fdd4:	48 8b 00             	mov    (%rax),%rax
    fdd7:	48 8b 00             	mov    (%rax),%rax
    fdda:	8b 00                	mov    (%rax),%eax
    fddc:	09 d0                	or     %edx,%eax
    fdde:	c1 e8 1f             	shr    $0x1f,%eax
    fde1:	89 c2                	mov    %eax,%edx
    fde3:	48 8b 05 0e 25 01 00 	mov    0x1250e(%rip),%rax        # 222f8 <g_1356>
    fdea:	48 8b 00             	mov    (%rax),%rax
    fded:	0f b6 d2             	movzbl %dl,%edx
    fdf0:	48 89 10             	mov    %rdx,(%rax)
    fdf3:	48 8b 05 2e 23 01 00 	mov    0x1232e(%rip),%rax        # 22128 <g_963>
    fdfa:	48 8b 00             	mov    (%rax),%rax
    fdfd:	8b 00                	mov    (%rax),%eax
    fdff:	be fe ff ff ff       	mov    $0xfffffffe,%esi
    fe04:	89 c7                	mov    %eax,%edi
    fe06:	e8 f4 a8 ff ff       	callq  a6ff <safe_div_func_int32_t_s_s>
    fe0b:	0f be c0             	movsbl %al,%eax
    fe0e:	48 8b 15 9b 26 01 00 	mov    0x1269b(%rip),%rdx        # 224b0 <g_1564>
    fe15:	48 8b 1a             	mov    (%rdx),%rbx
    fe18:	44 89 f6             	mov    %r14d,%esi
    fe1b:	89 c7                	mov    %eax,%edi
    fe1d:	e8 cc a4 ff ff       	callq  a2ee <safe_lshift_func_int8_t_s_u>
    fe22:	88 03                	mov    %al,(%rbx)
    fe24:	0f b6 03             	movzbl (%rbx),%eax
    fe27:	0f be c0             	movsbl %al,%eax
    fe2a:	be 02 00 00 00       	mov    $0x2,%esi
    fe2f:	89 c7                	mov    %eax,%edi
    fe31:	e8 6b a4 ff ff       	callq  a2a1 <safe_lshift_func_int8_t_s_s>
    fe36:	0f be c0             	movsbl %al,%eax
    fe39:	f7 d0                	not    %eax
    fe3b:	89 85 a4 f6 ff ff    	mov    %eax,-0x95c(%rbp)
    fe41:	48 8d 05 98 19 01 00 	lea    0x11998(%rip),%rax        # 217e0 <g_57>
    fe48:	48 8b 4d d8          	mov    -0x28(%rbp),%rcx
    fe4c:	64 48 33 0c 25 28 00 	xor    %fs:0x28,%rcx
    fe53:	00 00 
    fe55:	74 05                	je     fe5c <func_24+0x12bd>
    fe57:	e8 14 a2 ff ff       	callq  a070 <__stack_chk_fail@plt>
    fe5c:	48 81 c4 70 09 00 00 	add    $0x970,%rsp
    fe63:	5b                   	pop    %rbx
    fe64:	41 5c                	pop    %r12
    fe66:	41 5d                	pop    %r13
    fe68:	41 5e                	pop    %r14
    fe6a:	5d                   	pop    %rbp
    fe6b:	c3                   	retq   

000000000000fe6c <func_33>:
    fe6c:	f3 0f 1e fa          	endbr64 
    fe70:	55                   	push   %rbp
    fe71:	48 89 e5             	mov    %rsp,%rbp
    fe74:	41 57                	push   %r15
    fe76:	41 56                	push   %r14
    fe78:	41 55                	push   %r13
    fe7a:	41 54                	push   %r12
    fe7c:	53                   	push   %rbx
    fe7d:	48 81 ec 00 10 00 00 	sub    $0x1000,%rsp
    fe84:	48 83 0c 24 00       	orq    $0x0,(%rsp)
    fe89:	48 81 ec 88 08 00 00 	sub    $0x888,%rsp
    fe90:	48 89 b5 60 e7 ff ff 	mov    %rsi,-0x18a0(%rbp)
    fe97:	89 d0                	mov    %edx,%eax
    fe99:	48 89 8d 58 e7 ff ff 	mov    %rcx,-0x18a8(%rbp)
    fea0:	89 fa                	mov    %edi,%edx
    fea2:	88 95 6c e7 ff ff    	mov    %dl,-0x1894(%rbp)
    fea8:	66 89 85 68 e7 ff ff 	mov    %ax,-0x1898(%rbp)
    feaf:	64 48 8b 04 25 28 00 	mov    %fs:0x28,%rax
    feb6:	00 00 
    feb8:	48 89 45 c8          	mov    %rax,-0x38(%rbp)
    febc:	31 c0                	xor    %eax,%eax
    febe:	c7 85 e8 e7 ff ff 27 	movl   $0x9be91127,-0x1818(%rbp)
    fec5:	11 e9 9b 
    fec8:	48 8d 85 e0 f7 ff ff 	lea    -0x820(%rbp),%rax
    fecf:	48 8d 15 4a fc 00 00 	lea    0xfc4a(%rip),%rdx        # 1fb20 <g_2882+0x7a0>
    fed6:	b9 fc 00 00 00       	mov    $0xfc,%ecx
    fedb:	48 89 c7             	mov    %rax,%rdi
    fede:	48 89 d6             	mov    %rdx,%rsi
    fee1:	f3 48 a5             	rep movsq %ds:(%rsi),%es:(%rdi)
    fee4:	c7 85 9c e7 ff ff 03 	movl   $0x8a902403,-0x1864(%rbp)
    feeb:	24 90 8a 
    feee:	c7 85 80 ea ff ff 6e 	movl   $0xb739b16e,-0x1580(%rbp)
    fef5:	b1 39 b7 
    fef8:	c7 85 84 ea ff ff 00 	movl   $0x0,-0x157c(%rbp)
    feff:	00 00 00 
    ff02:	c7 85 88 ea ff ff 6e 	movl   $0xb739b16e,-0x1578(%rbp)
    ff09:	b1 39 b7 
    ff0c:	c7 85 8c ea ff ff 6e 	movl   $0xb739b16e,-0x1574(%rbp)
    ff13:	b1 39 b7 
    ff16:	c7 85 90 ea ff ff 00 	movl   $0x0,-0x1570(%rbp)
    ff1d:	00 00 00 
    ff20:	c7 85 94 ea ff ff 6e 	movl   $0xb739b16e,-0x156c(%rbp)
    ff27:	b1 39 b7 
    ff2a:	48 8d 05 6f 25 01 00 	lea    0x1256f(%rip),%rax        # 224a0 <g_1499>
    ff31:	48 89 85 c8 e8 ff ff 	mov    %rax,-0x1738(%rbp)
    ff38:	48 c7 85 d0 e8 ff ff 	movq   $0x0,-0x1730(%rbp)
    ff3f:	00 00 00 00 
    ff43:	48 8d 05 56 25 01 00 	lea    0x12556(%rip),%rax        # 224a0 <g_1499>
    ff4a:	48 89 85 20 eb ff ff 	mov    %rax,-0x14e0(%rbp)
    ff51:	48 c7 85 28 eb ff ff 	movq   $0x0,-0x14d8(%rbp)
    ff58:	00 00 00 00 
    ff5c:	48 c7 85 30 eb ff ff 	movq   $0x0,-0x14d0(%rbp)
    ff63:	00 00 00 00 
    ff67:	48 8d 05 32 25 01 00 	lea    0x12532(%rip),%rax        # 224a0 <g_1499>
    ff6e:	48 89 85 38 eb ff ff 	mov    %rax,-0x14c8(%rbp)
    ff75:	48 c7 85 40 eb ff ff 	movq   $0x0,-0x14c0(%rbp)
    ff7c:	00 00 00 00 
    ff80:	48 c7 85 48 eb ff ff 	movq   $0x0,-0x14b8(%rbp)
    ff87:	00 00 00 00 
    ff8b:	48 8d 05 6e 24 01 00 	lea    0x1246e(%rip),%rax        # 22400 <g_1500+0xe0>
    ff92:	48 89 85 d8 e8 ff ff 	mov    %rax,-0x1728(%rbp)
    ff99:	c7 85 a0 e7 ff ff ff 	movl   $0xffffffff,-0x1860(%rbp)
    ffa0:	ff ff ff 
    ffa3:	48 8d 05 96 25 01 00 	lea    0x12596(%rip),%rax        # 22540 <g_1699>
    ffaa:	48 89 85 90 e8 ff ff 	mov    %rax,-0x1770(%rbp)
    ffb1:	48 c7 85 e0 e8 ff ff 	movq   $0x0,-0x1720(%rbp)
    ffb8:	00 00 00 00 
    ffbc:	c7 85 b4 e7 ff ff fd 	movl   $0xfffffffd,-0x184c(%rbp)
    ffc3:	ff ff ff 
    ffc6:	c7 85 ec e7 ff ff e5 	movl   $0x3a611ee5,-0x1814(%rbp)
    ffcd:	1e 61 3a 
    ffd0:	48 c7 85 98 e8 ff ff 	movq   $0x0,-0x1768(%rbp)
    ffd7:	00 00 00 00 
    ffdb:	c7 85 f0 e7 ff ff 01 	movl   $0x1,-0x1810(%rbp)
    ffe2:	00 00 00 
    ffe5:	48 b8 a2 1f 66 6a 2e 	movabs $0xbdbf62e6a661fa2,%rax
    ffec:	f6 db 0b 
    ffef:	48 89 85 e8 e8 ff ff 	mov    %rax,-0x1718(%rbp)
    fff6:	c7 85 60 ea ff ff fd 	movl   $0x51010ffd,-0x15a0(%rbp)
    fffd:	0f 01 51 
   10000:	c7 85 64 ea ff ff fd 	movl   $0x51010ffd,-0x159c(%rbp)
   10007:	0f 01 51 
   1000a:	c7 85 68 ea ff ff fd 	movl   $0x51010ffd,-0x1598(%rbp)
   10011:	0f 01 51 
   10014:	c7 85 6c ea ff ff fd 	movl   $0x51010ffd,-0x1594(%rbp)
   1001b:	0f 01 51 
   1001e:	c7 85 70 ea ff ff fd 	movl   $0x51010ffd,-0x1590(%rbp)
   10025:	0f 01 51 
   10028:	c7 85 f4 e7 ff ff 05 	movl   $0x5,-0x180c(%rbp)
   1002f:	00 00 00 
   10032:	66 c7 85 84 e7 ff ff 	movw   $0x28e1,-0x187c(%rbp)
   10039:	e1 28 
   1003b:	c7 85 c0 ea ff ff f7 	movl   $0xf7f8f8f7,-0x1540(%rbp)
   10042:	f8 f8 f7 
   10045:	66 c7 85 c4 ea ff ff 	movw   $0xf8f8,-0x153c(%rbp)
   1004c:	f8 f8 
   1004e:	c6 85 c6 ea ff ff f7 	movb   $0xf7,-0x153a(%rbp)
   10055:	c7 85 c7 ea ff ff f8 	movl   $0xf8f8f7f8,-0x1539(%rbp)
   1005c:	f7 f8 f8 
   1005f:	66 c7 85 cb ea ff ff 	movw   $0xf8f7,-0x1535(%rbp)
   10066:	f7 f8 
   10068:	c6 85 cd ea ff ff f8 	movb   $0xf8,-0x1533(%rbp)
   1006f:	c7 85 ce ea ff ff f7 	movl   $0xf701f7f7,-0x1532(%rbp)
   10076:	f7 01 f7 
   10079:	66 c7 85 d2 ea ff ff 	movw   $0x1f7,-0x152e(%rbp)
   10080:	f7 01 
   10082:	c6 85 d4 ea ff ff f7 	movb   $0xf7,-0x152c(%rbp)
   10089:	c7 85 d5 ea ff ff f7 	movl   $0xf7f8f8f7,-0x152b(%rbp)
   10090:	f8 f8 f7 
   10093:	66 c7 85 d9 ea ff ff 	movw   $0xf8f8,-0x1527(%rbp)
   1009a:	f8 f8 
   1009c:	c6 85 db ea ff ff f7 	movb   $0xf7,-0x1525(%rbp)
   100a3:	c7 85 dc ea ff ff f8 	movl   $0xf8f8f7f8,-0x1524(%rbp)
   100aa:	f7 f8 f8 
   100ad:	66 c7 85 e0 ea ff ff 	movw   $0xf8f7,-0x1520(%rbp)
   100b4:	f7 f8 
   100b6:	c6 85 e2 ea ff ff f8 	movb   $0xf8,-0x151e(%rbp)
   100bd:	66 c7 85 86 e7 ff ff 	movw   $0x0,-0x187a(%rbp)
   100c4:	00 00 
   100c6:	48 c7 85 f0 e8 ff ff 	movq   $0xfffffffffffffffd,-0x1710(%rbp)
   100cd:	fd ff ff ff 
   100d1:	c7 85 b8 e7 ff ff 00 	movl   $0x0,-0x1848(%rbp)
   100d8:	00 00 00 
   100db:	eb 1e                	jmp    100fb <func_33+0x28f>
   100dd:	8b 85 b8 e7 ff ff    	mov    -0x1848(%rbp),%eax
   100e3:	48 98                	cltq   
   100e5:	48 8d 15 54 ec 00 00 	lea    0xec54(%rip),%rdx        # 1ed40 <g_1925>
   100ec:	48 89 94 c5 50 eb ff 	mov    %rdx,-0x14b0(%rbp,%rax,8)
   100f3:	ff 
   100f4:	83 85 b8 e7 ff ff 01 	addl   $0x1,-0x1848(%rbp)
   100fb:	83 bd b8 e7 ff ff 08 	cmpl   $0x8,-0x1848(%rbp)
   10102:	7e d9                	jle    100dd <func_33+0x271>
   10104:	48 8b 05 a5 23 01 00 	mov    0x123a5(%rip),%rax        # 224b0 <g_1564>
   1010b:	48 8b 00             	mov    (%rax),%rax
   1010e:	0f b6 10             	movzbl (%rax),%edx
   10111:	8b 8d e8 e7 ff ff    	mov    -0x1818(%rbp),%ecx
   10117:	31 ca                	xor    %ecx,%edx
   10119:	88 10                	mov    %dl,(%rax)
   1011b:	0f b6 00             	movzbl (%rax),%eax
   1011e:	0f be d8             	movsbl %al,%ebx
   10121:	48 8b 05 18 24 01 00 	mov    0x12418(%rip),%rax        # 22540 <g_1699>
   10128:	0f b6 10             	movzbl (%rax),%edx
   1012b:	8d 4a 01             	lea    0x1(%rdx),%ecx
   1012e:	88 08                	mov    %cl,(%rax)
   10130:	0f b6 c2             	movzbl %dl,%eax
   10133:	be 03 00 00 00       	mov    $0x3,%esi
   10138:	89 c7                	mov    %eax,%edi
   1013a:	e8 4e ab ff ff       	callq  ac8d <safe_rshift_func_uint8_t_u_s>
   1013f:	0f b6 c0             	movzbl %al,%eax
   10142:	39 c3                	cmp    %eax,%ebx
   10144:	0f 94 c0             	sete   %al
   10147:	44 0f b6 e8          	movzbl %al,%r13d
   1014b:	0f bf 9d 68 e7 ff ff 	movswl -0x1898(%rbp),%ebx
   10152:	8b 05 98 30 01 00    	mov    0x13098(%rip),%eax        # 231f0 <g_1970>
   10158:	44 0f be e0          	movsbl %al,%r12d
   1015c:	0f b6 85 6c e7 ff ff 	movzbl -0x1894(%rbp),%eax
   10163:	ba 67 7b 31 a3       	mov    $0xa3317b67,%edx
   10168:	39 d0                	cmp    %edx,%eax
   1016a:	7f 5a                	jg     101c6 <func_33+0x35a>
   1016c:	0f b6 95 6c e7 ff ff 	movzbl -0x1894(%rbp),%edx
   10173:	b8 13 5a 00 00       	mov    $0x5a13,%eax
   10178:	98                   	cwtl   
   10179:	89 d6                	mov    %edx,%esi
   1017b:	89 c7                	mov    %eax,%edi
   1017d:	e8 31 a2 ff ff       	callq  a3b3 <safe_add_func_int16_t_s_s>
   10182:	66 83 f8 01          	cmp    $0x1,%ax
   10186:	0f 9f c0             	setg   %al
   10189:	0f b6 c0             	movzbl %al,%eax
   1018c:	89 85 9c e7 ff ff    	mov    %eax,-0x1864(%rbp)
   10192:	8b 85 9c e7 ff ff    	mov    -0x1864(%rbp),%eax
   10198:	89 85 80 ea ff ff    	mov    %eax,-0x1580(%rbp)
   1019e:	8b 85 80 ea ff ff    	mov    -0x1580(%rbp),%eax
   101a4:	85 c0                	test   %eax,%eax
   101a6:	75 1e                	jne    101c6 <func_33+0x35a>
   101a8:	48 8d 05 21 22 01 00 	lea    0x12221(%rip),%rax        # 223d0 <g_1500+0xb0>
   101af:	48 89 05 52 28 01 00 	mov    %rax,0x12852(%rip)        # 22a08 <g_1968>
   101b6:	48 8b 05 4b 28 01 00 	mov    0x1284b(%rip),%rax        # 22a08 <g_1968>
   101bd:	48 39 85 d8 e8 ff ff 	cmp    %rax,-0x1728(%rbp)
   101c4:	74 07                	je     101cd <func_33+0x361>
   101c6:	b8 01 00 00 00       	mov    $0x1,%eax
   101cb:	eb 05                	jmp    101d2 <func_33+0x366>
   101cd:	b8 00 00 00 00       	mov    $0x0,%eax
   101d2:	89 c2                	mov    %eax,%edx
   101d4:	0f b7 85 68 e7 ff ff 	movzwl -0x1898(%rbp),%eax
   101db:	0f be c0             	movsbl %al,%eax
   101de:	89 d6                	mov    %edx,%esi
   101e0:	89 c7                	mov    %eax,%edi
   101e2:	e8 07 a1 ff ff       	callq  a2ee <safe_lshift_func_int8_t_s_u>
   101e7:	0f be c0             	movsbl %al,%eax
   101ea:	39 85 e8 e7 ff ff    	cmp    %eax,-0x1818(%rbp)
   101f0:	0f 9e c0             	setle  %al
   101f3:	0f b6 c0             	movzbl %al,%eax
   101f6:	44 89 e6             	mov    %r12d,%esi
   101f9:	89 c7                	mov    %eax,%edi
   101fb:	e8 f2 9f ff ff       	callq  a1f2 <safe_sub_func_int8_t_s_s>
   10200:	0f be c0             	movsbl %al,%eax
   10203:	89 de                	mov    %ebx,%esi
   10205:	89 c7                	mov    %eax,%edi
   10207:	e8 ac ac ff ff       	callq  aeb8 <safe_add_func_uint32_t_u_u>
   1020c:	89 c2                	mov    %eax,%edx
   1020e:	48 8b 05 e3 20 01 00 	mov    0x120e3(%rip),%rax        # 222f8 <g_1356>
   10215:	48 8b 00             	mov    (%rax),%rax
   10218:	48 8b 00             	mov    (%rax),%rax
   1021b:	48 89 d6             	mov    %rdx,%rsi
   1021e:	48 89 c7             	mov    %rax,%rdi
   10221:	e8 1b a6 ff ff       	callq  a841 <safe_add_func_int64_t_s_s>
   10226:	4c 09 e8             	or     %r13,%rax
   10229:	48 3d f6 00 00 00    	cmp    $0xf6,%rax
   1022f:	0f 96 c0             	setbe  %al
   10232:	0f b6 c0             	movzbl %al,%eax
   10235:	89 85 a0 e7 ff ff    	mov    %eax,-0x1860(%rbp)
   1023b:	8b 85 a0 e7 ff ff    	mov    -0x1860(%rbp),%eax
   10241:	85 c0                	test   %eax,%eax
   10243:	0f 84 41 02 00 00    	je     1048a <func_33+0x61e>
   10249:	48 8d 85 80 ea ff ff 	lea    -0x1580(%rbp),%rax
   10250:	48 83 c0 08          	add    $0x8,%rax
   10254:	48 89 85 38 ea ff ff 	mov    %rax,-0x15c8(%rbp)
   1025b:	48 8d 85 60 f0 ff ff 	lea    -0xfa0(%rbp),%rax
   10262:	48 8d 15 97 00 01 00 	lea    0x10097(%rip),%rdx        # 20300 <g_2882+0xf80>
   10269:	b9 e0 00 00 00       	mov    $0xe0,%ecx
   1026e:	48 89 c7             	mov    %rax,%rdi
   10271:	48 89 d6             	mov    %rdx,%rsi
   10274:	f3 48 a5             	rep movsq %ds:(%rsi),%es:(%rdi)
   10277:	48 c7 85 00 ed ff ff 	movq   $0x0,-0x1300(%rbp)
   1027e:	00 00 00 00 
   10282:	48 c7 85 08 ed ff ff 	movq   $0x0,-0x12f8(%rbp)
   10289:	00 00 00 00 
   1028d:	48 c7 85 10 ed ff ff 	movq   $0x0,-0x12f0(%rbp)
   10294:	00 00 00 00 
   10298:	48 c7 85 18 ed ff ff 	movq   $0x0,-0x12e8(%rbp)
   1029f:	00 00 00 00 
   102a3:	48 c7 85 20 ed ff ff 	movq   $0x0,-0x12e0(%rbp)
   102aa:	00 00 00 00 
   102ae:	48 c7 85 28 ed ff ff 	movq   $0x0,-0x12d8(%rbp)
   102b5:	00 00 00 00 
   102b9:	48 c7 85 30 ed ff ff 	movq   $0x0,-0x12d0(%rbp)
   102c0:	00 00 00 00 
   102c4:	48 8d 05 25 20 01 00 	lea    0x12025(%rip),%rax        # 222f0 <g_1357>
   102cb:	48 89 85 40 ea ff ff 	mov    %rax,-0x15c0(%rbp)
   102d2:	48 8b 05 6f 17 01 00 	mov    0x1176f(%rip),%rax        # 21a48 <g_174>
   102d9:	0f b7 00             	movzwl (%rax),%eax
   102dc:	0f bf d0             	movswl %ax,%edx
   102df:	0f bf 85 68 e7 ff ff 	movswl -0x1898(%rbp),%eax
   102e6:	89 d6                	mov    %edx,%esi
   102e8:	89 c7                	mov    %eax,%edi
   102ea:	e8 c4 a0 ff ff       	callq  a3b3 <safe_add_func_int16_t_s_s>
   102ef:	66 85 c0             	test   %ax,%ax
   102f2:	0f 84 06 01 00 00    	je     103fe <func_33+0x592>
   102f8:	48 8b 05 f1 1f 01 00 	mov    0x11ff1(%rip),%rax        # 222f0 <g_1357>
   102ff:	48 8b 10             	mov    (%rax),%rdx
   10302:	0f b6 85 6c e7 ff ff 	movzbl -0x1894(%rbp),%eax
   10309:	48 39 c2             	cmp    %rax,%rdx
   1030c:	0f 9d c0             	setge  %al
   1030f:	44 0f b6 e0          	movzbl %al,%r12d
   10313:	0f b6 9d 6c e7 ff ff 	movzbl -0x1894(%rbp),%ebx
   1031a:	44 0f bf ad 68 e7 ff 	movswl -0x1898(%rbp),%r13d
   10321:	ff 
   10322:	48 8b 85 80 eb ff ff 	mov    -0x1480(%rbp),%rax
   10329:	48 85 c0             	test   %rax,%rax
   1032c:	0f 94 c0             	sete   %al
   1032f:	0f b6 c0             	movzbl %al,%eax
   10332:	48 c7 c6 ff ff ff ff 	mov    $0xffffffffffffffff,%rsi
   10339:	48 89 c7             	mov    %rax,%rdi
   1033c:	e8 3f ad ff ff       	callq  b080 <safe_mod_func_uint64_t_u_u>
   10341:	0f b6 95 6c e7 ff ff 	movzbl -0x1894(%rbp),%edx
   10348:	48 39 d0             	cmp    %rdx,%rax
   1034b:	0f 94 c0             	sete   %al
   1034e:	0f b6 c0             	movzbl %al,%eax
   10351:	41 39 c5             	cmp    %eax,%r13d
   10354:	0f 9e c0             	setle  %al
   10357:	0f b6 d0             	movzbl %al,%edx
   1035a:	48 8b 85 38 ea ff ff 	mov    -0x15c8(%rbp),%rax
   10361:	8b 00                	mov    (%rax),%eax
   10363:	21 c2                	and    %eax,%edx
   10365:	48 8b 85 38 ea ff ff 	mov    -0x15c8(%rbp),%rax
   1036c:	89 10                	mov    %edx,(%rax)
   1036e:	66 83 bd 68 e7 ff ff 	cmpw   $0x0,-0x1898(%rbp)
   10375:	00 
   10376:	48 8b 95 90 f3 ff ff 	mov    -0xc70(%rbp),%rdx
   1037d:	48 8b 85 90 e8 ff ff 	mov    -0x1770(%rbp),%rax
   10384:	48 39 c2             	cmp    %rax,%rdx
   10387:	0f 94 c0             	sete   %al
   1038a:	0f b6 c0             	movzbl %al,%eax
   1038d:	66 89 85 68 e7 ff ff 	mov    %ax,-0x1898(%rbp)
   10394:	0f b7 85 68 e7 ff ff 	movzwl -0x1898(%rbp),%eax
   1039b:	0f b7 d0             	movzwl %ax,%edx
   1039e:	48 8b 05 53 1f 01 00 	mov    0x11f53(%rip),%rax        # 222f8 <g_1356>
   103a5:	48 8b 00             	mov    (%rax),%rax
   103a8:	48 8b 00             	mov    (%rax),%rax
   103ab:	0f b7 c0             	movzwl %ax,%eax
   103ae:	89 d6                	mov    %edx,%esi
   103b0:	89 c7                	mov    %eax,%edi
   103b2:	e8 48 a9 ff ff       	callq  acff <safe_add_func_uint16_t_u_u>
   103b7:	0f b7 d0             	movzwl %ax,%edx
   103ba:	0f b6 85 6c e7 ff ff 	movzbl -0x1894(%rbp),%eax
   103c1:	09 d0                	or     %edx,%eax
   103c3:	48 63 d0             	movslq %eax,%rdx
   103c6:	48 8b 05 2b 1f 01 00 	mov    0x11f2b(%rip),%rax        # 222f8 <g_1356>
   103cd:	48 8b 00             	mov    (%rax),%rax
   103d0:	48 8b 00             	mov    (%rax),%rax
   103d3:	48 39 c2             	cmp    %rax,%rdx
   103d6:	0f 9e c0             	setle  %al
   103d9:	0f b6 c0             	movzbl %al,%eax
   103dc:	48 89 de             	mov    %rbx,%rsi
   103df:	48 89 c7             	mov    %rax,%rdi
   103e2:	e8 c8 ac ff ff       	callq  b0af <safe_div_func_uint64_t_u_u>
   103e7:	49 39 c4             	cmp    %rax,%r12
   103ea:	0f 92 c0             	setb   %al
   103ed:	0f b6 c0             	movzbl %al,%eax
   103f0:	be ff ff ff ff       	mov    $0xffffffff,%esi
   103f5:	89 c7                	mov    %eax,%edi
   103f7:	e8 16 9e ff ff       	callq  a212 <safe_mul_func_int8_t_s_s>
   103fc:	84 c0                	test   %al,%al
   103fe:	48 83 bd 40 ea ff ff 	cmpq   $0x0,-0x15c0(%rbp)
   10405:	00 
   10406:	0f 95 c0             	setne  %al
   10409:	0f b6 d0             	movzbl %al,%edx
   1040c:	48 8b 05 9d 20 01 00 	mov    0x1209d(%rip),%rax        # 224b0 <g_1564>
   10413:	48 8b 00             	mov    (%rax),%rax
   10416:	0f b6 00             	movzbl (%rax),%eax
   10419:	0f be c0             	movsbl %al,%eax
   1041c:	39 c2                	cmp    %eax,%edx
   1041e:	7f 07                	jg     10427 <func_33+0x5bb>
   10420:	b8 01 00 00 00       	mov    $0x1,%eax
   10425:	eb 05                	jmp    1042c <func_33+0x5c0>
   10427:	b8 00 00 00 00       	mov    $0x0,%eax
   1042c:	0f b7 d0             	movzwl %ax,%edx
   1042f:	8b 85 a0 e7 ff ff    	mov    -0x1860(%rbp),%eax
   10435:	0f b7 c0             	movzwl %ax,%eax
   10438:	89 d6                	mov    %edx,%esi
   1043a:	89 c7                	mov    %eax,%edi
   1043c:	e8 fc a8 ff ff       	callq  ad3d <safe_mul_func_uint16_t_u_u>
   10441:	0f b7 d0             	movzwl %ax,%edx
   10444:	48 8b 05 a5 1e 01 00 	mov    0x11ea5(%rip),%rax        # 222f0 <g_1357>
   1044b:	48 8b 00             	mov    (%rax),%rax
   1044e:	48 39 c2             	cmp    %rax,%rdx
   10451:	0f 9f c0             	setg   %al
   10454:	0f b6 c0             	movzbl %al,%eax
   10457:	be 05 00 00 00       	mov    $0x5,%esi
   1045c:	89 c7                	mov    %eax,%edi
   1045e:	e8 2a a8 ff ff       	callq  ac8d <safe_rshift_func_uint8_t_u_s>
   10463:	48 8b 05 7e 13 01 00 	mov    0x1137e(%rip),%rax        # 217e8 <g_56>
   1046a:	48 c7 00 00 00 00 00 	movq   $0x0,(%rax)
   10471:	48 8b 15 a8 1c 01 00 	mov    0x11ca8(%rip),%rdx        # 22120 <g_774>
   10478:	48 8b 00             	mov    (%rax),%rax
   1047b:	48 89 02             	mov    %rax,(%rdx)
   1047e:	0f b6 85 6c e7 ff ff 	movzbl -0x1894(%rbp),%eax
   10485:	e9 b4 33 00 00       	jmpq   1383e <func_33+0x39d2>
   1048a:	66 c7 85 88 e7 ff ff 	movw   $0xffff,-0x1878(%rbp)
   10491:	ff ff 
   10493:	48 8d 05 86 1c 01 00 	lea    0x11c86(%rip),%rax        # 22120 <g_774>
   1049a:	48 89 85 a0 e8 ff ff 	mov    %rax,-0x1760(%rbp)
   104a1:	c7 85 f8 e7 ff ff 33 	movl   $0x7ed67c33,-0x1808(%rbp)
   104a8:	7c d6 7e 
   104ab:	48 8d 85 90 e8 ff ff 	lea    -0x1770(%rbp),%rax
   104b2:	48 89 85 f8 e8 ff ff 	mov    %rax,-0x1708(%rbp)
   104b9:	48 8d 05 38 1e 01 00 	lea    0x11e38(%rip),%rax        # 222f8 <g_1356>
   104c0:	48 89 85 a8 e8 ff ff 	mov    %rax,-0x1758(%rbp)
   104c7:	48 8d 85 a8 e8 ff ff 	lea    -0x1758(%rbp),%rax
   104ce:	48 89 85 b0 e8 ff ff 	mov    %rax,-0x1750(%rbp)
   104d5:	66 c7 85 82 e7 ff ff 	movw   $0xfff9,-0x187e(%rbp)
   104dc:	f9 ff 
   104de:	c7 85 fc e7 ff ff ec 	movl   $0xfb0482ec,-0x1804(%rbp)
   104e5:	82 04 fb 
   104e8:	48 8d 05 d1 ec 00 00 	lea    0xecd1(%rip),%rax        # 1f1c0 <g_523>
   104ef:	48 89 85 00 e9 ff ff 	mov    %rax,-0x1700(%rbp)
   104f6:	48 8d 85 9c e7 ff ff 	lea    -0x1864(%rbp),%rax
   104fd:	48 89 85 08 e9 ff ff 	mov    %rax,-0x16f8(%rbp)
   10504:	48 8d 85 80 ea ff ff 	lea    -0x1580(%rbp),%rax
   1050b:	48 89 85 10 e9 ff ff 	mov    %rax,-0x16f0(%rbp)
   10512:	c7 85 bc e7 ff ff 00 	movl   $0x0,-0x1844(%rbp)
   10519:	00 00 00 
   1051c:	eb 1a                	jmp    10538 <func_33+0x6cc>
   1051e:	8b 85 bc e7 ff ff    	mov    -0x1844(%rbp),%eax
   10524:	48 98                	cltq   
   10526:	c7 84 85 50 ea ff ff 	movl   $0xfffffff9,-0x15b0(%rbp,%rax,4)
   1052d:	f9 ff ff ff 
   10531:	83 85 bc e7 ff ff 01 	addl   $0x1,-0x1844(%rbp)
   10538:	83 bd bc e7 ff ff 02 	cmpl   $0x2,-0x1844(%rbp)
   1053f:	7e dd                	jle    1051e <func_33+0x6b2>
   10541:	c7 05 9d 2c 01 00 00 	movl   $0x0,0x12c9d(%rip)        # 231e8 <g_726>
   10548:	00 00 00 
   1054b:	e9 f6 1f 00 00       	jmpq   12546 <func_33+0x26da>
   10550:	66 c7 85 96 e7 ff ff 	movw   $0xdc8,-0x186a(%rbp)
   10557:	c8 0d 
   10559:	c7 85 48 e8 ff ff 8c 	movl   $0x16c65d8c,-0x17b8(%rbp)
   10560:	5d c6 16 
   10563:	66 c7 85 98 e7 ff ff 	movw   $0xdb35,-0x1868(%rbp)
   1056a:	35 db 
   1056c:	c7 85 4c e8 ff ff 00 	movl   $0x0,-0x17b4(%rbp)
   10573:	00 00 00 
   10576:	48 8d 05 d3 1f 01 00 	lea    0x11fd3(%rip),%rax        # 22550 <g_1697>
   1057d:	48 89 85 70 e9 ff ff 	mov    %rax,-0x1690(%rbp)
   10584:	48 c7 85 78 e9 ff ff 	movq   $0x0,-0x1688(%rbp)
   1058b:	00 00 00 00 
   1058f:	c7 85 a4 e7 ff ff 8c 	movl   $0xf6aa7d8c,-0x185c(%rbp)
   10596:	7d aa f6 
   10599:	c7 85 50 e8 ff ff 6a 	movl   $0x16f2da6a,-0x17b0(%rbp)
   105a0:	da f2 16 
   105a3:	c7 85 54 e8 ff ff 82 	movl   $0xd9556182,-0x17ac(%rbp)
   105aa:	61 55 d9 
   105ad:	c7 85 58 e8 ff ff fd 	movl   $0x8b5e5bfd,-0x17a8(%rbp)
   105b4:	5b 5e 8b 
   105b7:	48 8d 05 ba 1b 01 00 	lea    0x11bba(%rip),%rax        # 22178 <g_1289>
   105be:	48 89 85 b8 e8 ff ff 	mov    %rax,-0x1748(%rbp)
   105c5:	48 8d 85 b8 e8 ff ff 	lea    -0x1748(%rbp),%rax
   105cc:	48 89 85 40 ec ff ff 	mov    %rax,-0x13c0(%rbp)
   105d3:	48 8d 85 b8 e8 ff ff 	lea    -0x1748(%rbp),%rax
   105da:	48 89 85 48 ec ff ff 	mov    %rax,-0x13b8(%rbp)
   105e1:	48 8d 85 b8 e8 ff ff 	lea    -0x1748(%rbp),%rax
   105e8:	48 89 85 50 ec ff ff 	mov    %rax,-0x13b0(%rbp)
   105ef:	48 8d 85 b8 e8 ff ff 	lea    -0x1748(%rbp),%rax
   105f6:	48 89 85 58 ec ff ff 	mov    %rax,-0x13a8(%rbp)
   105fd:	48 8d 85 b8 e8 ff ff 	lea    -0x1748(%rbp),%rax
   10604:	48 89 85 60 ec ff ff 	mov    %rax,-0x13a0(%rbp)
   1060b:	48 8d 85 b8 e8 ff ff 	lea    -0x1748(%rbp),%rax
   10612:	48 89 85 68 ec ff ff 	mov    %rax,-0x1398(%rbp)
   10619:	48 8d 85 b8 e8 ff ff 	lea    -0x1748(%rbp),%rax
   10620:	48 89 85 70 ec ff ff 	mov    %rax,-0x1390(%rbp)
   10627:	48 8d 85 b8 e8 ff ff 	lea    -0x1748(%rbp),%rax
   1062e:	48 89 85 78 ec ff ff 	mov    %rax,-0x1388(%rbp)
   10635:	48 c7 85 80 ec ff ff 	movq   $0x0,-0x1380(%rbp)
   1063c:	00 00 00 00 
   10640:	48 8d 85 b8 e8 ff ff 	lea    -0x1748(%rbp),%rax
   10647:	48 89 85 88 ec ff ff 	mov    %rax,-0x1378(%rbp)
   1064e:	48 c7 85 90 ec ff ff 	movq   $0x0,-0x1370(%rbp)
   10655:	00 00 00 00 
   10659:	48 8d 85 b8 e8 ff ff 	lea    -0x1748(%rbp),%rax
   10660:	48 89 85 98 ec ff ff 	mov    %rax,-0x1368(%rbp)
   10667:	48 8d 85 b8 e8 ff ff 	lea    -0x1748(%rbp),%rax
   1066e:	48 89 85 a0 ec ff ff 	mov    %rax,-0x1360(%rbp)
   10675:	48 8d 85 b8 e8 ff ff 	lea    -0x1748(%rbp),%rax
   1067c:	48 89 85 a8 ec ff ff 	mov    %rax,-0x1358(%rbp)
   10683:	48 8d 85 b8 e8 ff ff 	lea    -0x1748(%rbp),%rax
   1068a:	48 89 85 b0 ec ff ff 	mov    %rax,-0x1350(%rbp)
   10691:	48 8d 85 b8 e8 ff ff 	lea    -0x1748(%rbp),%rax
   10698:	48 89 85 b8 ec ff ff 	mov    %rax,-0x1348(%rbp)
   1069f:	48 8d 85 b8 e8 ff ff 	lea    -0x1748(%rbp),%rax
   106a6:	48 89 85 c0 ec ff ff 	mov    %rax,-0x1340(%rbp)
   106ad:	48 8d 85 b8 e8 ff ff 	lea    -0x1748(%rbp),%rax
   106b4:	48 89 85 c8 ec ff ff 	mov    %rax,-0x1338(%rbp)
   106bb:	48 8d 85 b8 e8 ff ff 	lea    -0x1748(%rbp),%rax
   106c2:	48 89 85 d0 ec ff ff 	mov    %rax,-0x1330(%rbp)
   106c9:	48 8d 85 b8 e8 ff ff 	lea    -0x1748(%rbp),%rax
   106d0:	48 89 85 d8 ec ff ff 	mov    %rax,-0x1328(%rbp)
   106d7:	48 8d 85 b8 e8 ff ff 	lea    -0x1748(%rbp),%rax
   106de:	48 89 85 e0 ec ff ff 	mov    %rax,-0x1320(%rbp)
   106e5:	48 c7 85 e8 ec ff ff 	movq   $0x0,-0x1318(%rbp)
   106ec:	00 00 00 00 
   106f0:	48 8d 85 b8 e8 ff ff 	lea    -0x1748(%rbp),%rax
   106f7:	48 89 85 f0 ec ff ff 	mov    %rax,-0x1310(%rbp)
   106fe:	48 c7 85 f8 ec ff ff 	movq   $0x0,-0x1308(%rbp)
   10705:	00 00 00 00 
   10709:	c7 85 c0 e7 ff ff 00 	movl   $0x0,-0x1840(%rbp)
   10710:	00 00 00 
   10713:	eb 1e                	jmp    10733 <func_33+0x8c7>
   10715:	8b 85 c0 e7 ff ff    	mov    -0x1840(%rbp),%eax
   1071b:	48 98                	cltq   
   1071d:	48 8d 15 bc 21 01 00 	lea    0x121bc(%rip),%rdx        # 228e0 <g_1917>
   10724:	48 89 94 c5 f0 ea ff 	mov    %rdx,-0x1510(%rbp,%rax,8)
   1072b:	ff 
   1072c:	83 85 c0 e7 ff ff 01 	addl   $0x1,-0x1840(%rbp)
   10733:	83 bd c0 e7 ff ff 04 	cmpl   $0x4,-0x1840(%rbp)
   1073a:	7e d9                	jle    10715 <func_33+0x8a9>
   1073c:	0f bf 9d 68 e7 ff ff 	movswl -0x1898(%rbp),%ebx
   10743:	80 bd 6c e7 ff ff 00 	cmpb   $0x0,-0x1894(%rbp)
   1074a:	0f 85 f1 00 00 00    	jne    10841 <func_33+0x9d5>
   10750:	44 8b a5 e8 e7 ff ff 	mov    -0x1818(%rbp),%r12d
   10757:	8b 85 a0 e7 ff ff    	mov    -0x1860(%rbp),%eax
   1075d:	44 0f bf e8          	movswl %ax,%r13d
   10761:	8b 85 e8 e7 ff ff    	mov    -0x1818(%rbp),%eax
   10767:	44 0f b6 f0          	movzbl %al,%r14d
   1076b:	0f b7 05 de e9 00 00 	movzwl 0xe9de(%rip),%eax        # 1f150 <g_372>
   10772:	0f b7 c0             	movzwl %ax,%eax
   10775:	89 c6                	mov    %eax,%esi
   10777:	bf c9 43 00 00       	mov    $0x43c9,%edi
   1077c:	e8 a9 9d ff ff       	callq  a52a <safe_rshift_func_int16_t_s_s>
   10781:	66 85 c0             	test   %ax,%ax
   10784:	75 5e                	jne    107e4 <func_33+0x978>
   10786:	48 8b 05 63 1b 01 00 	mov    0x11b63(%rip),%rax        # 222f0 <g_1357>
   1078d:	48 8b 00             	mov    (%rax),%rax
   10790:	49 89 c7             	mov    %rax,%r15
   10793:	48 8b 05 66 e9 00 00 	mov    0xe966(%rip),%rax        # 1f100 <g_211+0x20>
   1079a:	83 e0 01             	and    $0x1,%eax
   1079d:	48 89 c2             	mov    %rax,%rdx
   107a0:	b8 67 7b 31 a3       	mov    $0xa3317b67,%eax
   107a5:	48 98                	cltq   
   107a7:	48 39 c2             	cmp    %rax,%rdx
   107aa:	0f 93 c0             	setae  %al
   107ad:	0f b6 d0             	movzbl %al,%edx
   107b0:	8b 85 80 ea ff ff    	mov    -0x1580(%rbp),%eax
   107b6:	0f b6 c0             	movzbl %al,%eax
   107b9:	89 d6                	mov    %edx,%esi
   107bb:	89 c7                	mov    %eax,%edi
   107bd:	e8 d1 a3 ff ff       	callq  ab93 <safe_mul_func_uint8_t_u_u>
   107c2:	0f b6 c0             	movzbl %al,%eax
   107c5:	4c 89 fe             	mov    %r15,%rsi
   107c8:	48 89 c7             	mov    %rax,%rdi
   107cb:	e8 7b a8 ff ff       	callq  b04b <safe_sub_func_uint64_t_u_u>
   107d0:	48 89 c2             	mov    %rax,%rdx
   107d3:	48 8b 05 6e 12 01 00 	mov    0x1126e(%rip),%rax        # 21a48 <g_174>
   107da:	66 89 10             	mov    %dx,(%rax)
   107dd:	b8 00 00 00 00       	mov    $0x0,%eax
   107e2:	eb 05                	jmp    107e9 <func_33+0x97d>
   107e4:	b8 01 00 00 00       	mov    $0x1,%eax
   107e9:	0f b6 c0             	movzbl %al,%eax
   107ec:	be a6 00 00 00       	mov    $0xa6,%esi
   107f1:	89 c7                	mov    %eax,%edi
   107f3:	e8 80 a3 ff ff       	callq  ab78 <safe_sub_func_uint8_t_u_u>
   107f8:	0f b6 c0             	movzbl %al,%eax
   107fb:	44 89 f6             	mov    %r14d,%esi
   107fe:	89 c7                	mov    %eax,%edi
   10800:	e8 8e a3 ff ff       	callq  ab93 <safe_mul_func_uint8_t_u_u>
   10805:	38 85 6c e7 ff ff    	cmp    %al,-0x1894(%rbp)
   1080b:	0f 95 c0             	setne  %al
   1080e:	0f b6 c0             	movzbl %al,%eax
   10811:	44 89 ee             	mov    %r13d,%esi
   10814:	89 c7                	mov    %eax,%edi
   10816:	e8 b8 9b ff ff       	callq  a3d3 <safe_sub_func_int16_t_s_s>
   1081b:	98                   	cwtl   
   1081c:	44 89 e6             	mov    %r12d,%esi
   1081f:	89 c7                	mov    %eax,%edi
   10821:	e8 3d 9d ff ff       	callq  a563 <safe_rshift_func_int16_t_s_u>
   10826:	0f bf d0             	movswl %ax,%edx
   10829:	8b 85 9c e7 ff ff    	mov    -0x1864(%rbp),%eax
   1082f:	09 d0                	or     %edx,%eax
   10831:	89 85 9c e7 ff ff    	mov    %eax,-0x1864(%rbp)
   10837:	8b 85 9c e7 ff ff    	mov    -0x1864(%rbp),%eax
   1083d:	85 c0                	test   %eax,%eax
   1083f:	74 07                	je     10848 <func_33+0x9dc>
   10841:	b8 01 00 00 00       	mov    $0x1,%eax
   10846:	eb 05                	jmp    1084d <func_33+0x9e1>
   10848:	b8 00 00 00 00       	mov    $0x0,%eax
   1084d:	3d ff 0f 0a 2a       	cmp    $0x2a0a0fff,%eax
   10852:	0f 9e c0             	setle  %al
   10855:	0f b6 c0             	movzbl %al,%eax
   10858:	89 de                	mov    %ebx,%esi
   1085a:	89 c7                	mov    %eax,%edi
   1085c:	e8 52 9b ff ff       	callq  a3b3 <safe_add_func_int16_t_s_s>
   10861:	48 8d 05 e8 e7 00 00 	lea    0xe7e8(%rip),%rax        # 1f050 <g_109>
   10868:	48 89 85 c0 e8 ff ff 	mov    %rax,-0x1740(%rbp)
   1086f:	48 8d 85 c0 e8 ff ff 	lea    -0x1740(%rbp),%rax
   10876:	48 89 85 80 e9 ff ff 	mov    %rax,-0x1680(%rbp)
   1087d:	48 8b 95 a0 e8 ff ff 	mov    -0x1760(%rbp),%rdx
   10884:	48 8d 85 58 e7 ff ff 	lea    -0x18a8(%rbp),%rax
   1088b:	48 39 c2             	cmp    %rax,%rdx
   1088e:	0f 95 c0             	setne  %al
   10891:	44 0f b6 e0          	movzbl %al,%r12d
   10895:	0f b7 85 96 e7 ff ff 	movzwl -0x186a(%rbp),%eax
   1089c:	0f be c0             	movsbl %al,%eax
   1089f:	be 03 00 00 00       	mov    $0x3,%esi
   108a4:	89 c7                	mov    %eax,%edi
   108a6:	e8 43 9a ff ff       	callq  a2ee <safe_lshift_func_int8_t_s_u>
   108ab:	44 0f be e8          	movsbl %al,%r13d
   108af:	0f bf 9d 68 e7 ff ff 	movswl -0x1898(%rbp),%ebx
   108b6:	48 8b 95 c0 e8 ff ff 	mov    -0x1740(%rbp),%rdx
   108bd:	48 8b 85 80 e9 ff ff 	mov    -0x1680(%rbp),%rax
   108c4:	48 89 10             	mov    %rdx,(%rax)
   108c7:	48 8b 85 80 e9 ff ff 	mov    -0x1680(%rbp),%rax
   108ce:	48 8b 00             	mov    (%rax),%rax
   108d1:	48 39 85 60 e7 ff ff 	cmp    %rax,-0x18a0(%rbp)
   108d8:	0f 95 c0             	setne  %al
   108db:	44 0f b6 f0          	movzbl %al,%r14d
   108df:	0f b6 85 6c e7 ff ff 	movzbl -0x1894(%rbp),%eax
   108e6:	89 c6                	mov    %eax,%esi
   108e8:	bf 35 e6 ff ff       	mov    $0xffffe635,%edi
   108ed:	e8 71 9c ff ff       	callq  a563 <safe_rshift_func_int16_t_s_u>
   108f2:	44 09 f0             	or     %r14d,%eax
   108f5:	98                   	cwtl   
   108f6:	89 de                	mov    %ebx,%esi
   108f8:	89 c7                	mov    %eax,%edi
   108fa:	e8 b4 9a ff ff       	callq  a3b3 <safe_add_func_int16_t_s_s>
   108ff:	0f bf d0             	movswl %ax,%edx
   10902:	0f b6 85 6c e7 ff ff 	movzbl -0x1894(%rbp),%eax
   10909:	39 c2                	cmp    %eax,%edx
   1090b:	0f 9c c0             	setl   %al
   1090e:	0f b6 c0             	movzbl %al,%eax
   10911:	89 c6                	mov    %eax,%esi
   10913:	bf 6c 00 00 00       	mov    $0x6c,%edi
   10918:	e8 d5 98 ff ff       	callq  a1f2 <safe_sub_func_int8_t_s_s>
   1091d:	0f be c0             	movsbl %al,%eax
   10920:	be fc ff ff ff       	mov    $0xfffffffc,%esi
   10925:	89 c7                	mov    %eax,%edi
   10927:	e8 87 9a ff ff       	callq  a3b3 <safe_add_func_int16_t_s_s>
   1092c:	48 8b 05 bd 19 01 00 	mov    0x119bd(%rip),%rax        # 222f0 <g_1357>
   10933:	48 8b 10             	mov    (%rax),%rdx
   10936:	0f b7 8d 96 e7 ff ff 	movzwl -0x186a(%rbp),%ecx
   1093d:	8b 85 80 ea ff ff    	mov    -0x1580(%rbp),%eax
   10943:	39 c1                	cmp    %eax,%ecx
   10945:	0f 9f c0             	setg   %al
   10948:	0f b6 c8             	movzbl %al,%ecx
   1094b:	0f b6 85 6c e7 ff ff 	movzbl -0x1894(%rbp),%eax
   10952:	39 c1                	cmp    %eax,%ecx
   10954:	0f 9f c0             	setg   %al
   10957:	0f b6 c0             	movzbl %al,%eax
   1095a:	48 39 c2             	cmp    %rax,%rdx
   1095d:	0f 9e c0             	setle  %al
   10960:	0f b6 d0             	movzbl %al,%edx
   10963:	0f b6 85 6c e7 ff ff 	movzbl -0x1894(%rbp),%eax
   1096a:	31 d0                	xor    %edx,%eax
   1096c:	0f bf d0             	movswl %ax,%edx
   1096f:	48 8b 05 82 e7 00 00 	mov    0xe782(%rip),%rax        # 1f0f8 <g_211+0x18>
   10976:	98                   	cwtl   
   10977:	89 d6                	mov    %edx,%esi
   10979:	89 c7                	mov    %eax,%edi
   1097b:	e8 75 9a ff ff       	callq  a3f5 <safe_mul_func_int16_t_s_s>
   10980:	f7 d0                	not    %eax
   10982:	0f b7 c0             	movzwl %ax,%eax
   10985:	be 0a 00 00 00       	mov    $0xa,%esi
   1098a:	89 c7                	mov    %eax,%edi
   1098c:	e8 75 a4 ff ff       	callq  ae06 <safe_lshift_func_uint16_t_u_u>
   10991:	0f b6 c0             	movzbl %al,%eax
   10994:	be ca 00 00 00       	mov    $0xca,%esi
   10999:	89 c7                	mov    %eax,%edi
   1099b:	e8 d8 a1 ff ff       	callq  ab78 <safe_sub_func_uint8_t_u_u>
   109a0:	0f b6 d0             	movzbl %al,%edx
   109a3:	0f bf 85 68 e7 ff ff 	movswl -0x1898(%rbp),%eax
   109aa:	31 d0                	xor    %edx,%eax
   109ac:	44 31 e8             	xor    %r13d,%eax
   109af:	44 21 e0             	and    %r12d,%eax
   109b2:	89 85 f8 e7 ff ff    	mov    %eax,-0x1808(%rbp)
   109b8:	8b 9d 4c e8 ff ff    	mov    -0x17b4(%rbp),%ebx
   109be:	48 8b 05 33 19 01 00 	mov    0x11933(%rip),%rax        # 222f8 <g_1356>
   109c5:	48 8b 00             	mov    (%rax),%rax
   109c8:	48 8b 00             	mov    (%rax),%rax
   109cb:	48 85 c0             	test   %rax,%rax
   109ce:	0f 85 bd 00 00 00    	jne    10a91 <func_33+0xc25>
   109d4:	44 0f b6 a5 6c e7 ff 	movzbl -0x1894(%rbp),%r12d
   109db:	ff 
   109dc:	48 8b 05 0d 19 01 00 	mov    0x1190d(%rip),%rax        # 222f0 <g_1357>
   109e3:	4c 8b 28             	mov    (%rax),%r13
   109e6:	48 8b 85 70 e9 ff ff 	mov    -0x1690(%rbp),%rax
   109ed:	48 8d 95 90 e8 ff ff 	lea    -0x1770(%rbp),%rdx
   109f4:	48 89 10             	mov    %rdx,(%rax)
   109f7:	48 8b 85 70 e9 ff ff 	mov    -0x1690(%rbp),%rax
   109fe:	48 8b 00             	mov    (%rax),%rax
   10a01:	48 39 85 f8 e8 ff ff 	cmp    %rax,-0x1708(%rbp)
   10a08:	74 10                	je     10a1a <func_33+0xbae>
   10a0a:	48 8b 05 e7 18 01 00 	mov    0x118e7(%rip),%rax        # 222f8 <g_1356>
   10a11:	48 8b 00             	mov    (%rax),%rax
   10a14:	48 8b 00             	mov    (%rax),%rax
   10a17:	48 85 c0             	test   %rax,%rax
   10a1a:	be 00 00 00 00       	mov    $0x0,%esi
   10a1f:	bf 73 e2 52 64       	mov    $0x6452e273,%edi
   10a24:	e8 8d 9b ff ff       	callq  a5b6 <safe_add_func_int32_t_s_s>
   10a29:	8b 85 48 e8 ff ff    	mov    -0x17b8(%rbp),%eax
   10a2f:	48 98                	cltq   
   10a31:	4c 89 ee             	mov    %r13,%rsi
   10a34:	48 89 c7             	mov    %rax,%rdi
   10a37:	e8 bb 9f ff ff       	callq  a9f7 <safe_div_func_int64_t_s_s>
   10a3c:	4c 89 e6             	mov    %r12,%rsi
   10a3f:	48 89 c7             	mov    %rax,%rdi
   10a42:	e8 04 a6 ff ff       	callq  b04b <safe_sub_func_uint64_t_u_u>
   10a47:	48 8b 05 a2 18 01 00 	mov    0x118a2(%rip),%rax        # 222f0 <g_1357>
   10a4e:	4c 8b 20             	mov    (%rax),%r12
   10a51:	0f b7 95 96 e7 ff ff 	movzwl -0x186a(%rbp),%edx
   10a58:	0f b7 85 96 e7 ff ff 	movzwl -0x186a(%rbp),%eax
   10a5f:	89 d6                	mov    %edx,%esi
   10a61:	89 c7                	mov    %eax,%edi
   10a63:	e8 bd a4 ff ff       	callq  af25 <safe_div_func_uint32_t_u_u>
   10a68:	89 c0                	mov    %eax,%eax
   10a6a:	49 39 c4             	cmp    %rax,%r12
   10a6d:	0f 95 c0             	setne  %al
   10a70:	0f b6 c0             	movzbl %al,%eax
   10a73:	be 0e 00 00 00       	mov    $0xe,%esi
   10a78:	89 c7                	mov    %eax,%edi
   10a7a:	e8 62 9a ff ff       	callq  a4e1 <safe_lshift_func_int16_t_s_u>
   10a7f:	48 8b 05 72 18 01 00 	mov    0x11872(%rip),%rax        # 222f8 <g_1356>
   10a86:	48 8b 00             	mov    (%rax),%rax
   10a89:	48 8b 00             	mov    (%rax),%rax
   10a8c:	48 85 c0             	test   %rax,%rax
   10a8f:	74 07                	je     10a98 <func_33+0xc2c>
   10a91:	b8 01 00 00 00       	mov    $0x1,%eax
   10a96:	eb 05                	jmp    10a9d <func_33+0xc31>
   10a98:	b8 00 00 00 00       	mov    $0x0,%eax
   10a9d:	0d ed 05 00 00       	or     $0x5ed,%eax
   10aa2:	89 de                	mov    %ebx,%esi
   10aa4:	89 c7                	mov    %eax,%edi
   10aa6:	e8 7a a4 ff ff       	callq  af25 <safe_div_func_uint32_t_u_u>
   10aab:	85 c0                	test   %eax,%eax
   10aad:	0f 84 d7 0e 00 00    	je     1198a <func_33+0x1b1e>
   10ab3:	48 8d 85 00 ed ff ff 	lea    -0x1300(%rbp),%rax
   10aba:	48 8d 15 1f 9b 00 00 	lea    0x9b1f(%rip),%rdx        # 1a5e0 <g_2661+0x570>
   10ac1:	b9 57 00 00 00       	mov    $0x57,%ecx
   10ac6:	48 89 c7             	mov    %rax,%rdi
   10ac9:	48 89 d6             	mov    %rdx,%rsi
   10acc:	f3 48 a5             	rep movsq %ds:(%rsi),%es:(%rdi)
   10acf:	48 89 f2             	mov    %rsi,%rdx
   10ad2:	48 89 f8             	mov    %rdi,%rax
   10ad5:	8b 0a                	mov    (%rdx),%ecx
   10ad7:	89 08                	mov    %ecx,(%rax)
   10ad9:	48 c7 85 10 ea ff ff 	movq   $0x0,-0x15f0(%rbp)
   10ae0:	00 00 00 00 
   10ae4:	48 c7 85 18 ea ff ff 	movq   $0x0,-0x15e8(%rbp)
   10aeb:	00 00 00 00 
   10aef:	48 c7 85 20 ea ff ff 	movq   $0x0,-0x15e0(%rbp)
   10af6:	00 00 00 00 
   10afa:	48 c7 85 28 ea ff ff 	movq   $0x0,-0x15d8(%rbp)
   10b01:	00 00 00 00 
   10b05:	48 8d 05 ac e6 00 00 	lea    0xe6ac(%rip),%rax        # 1f1b8 <g_486>
   10b0c:	48 89 85 30 ea ff ff 	mov    %rax,-0x15d0(%rbp)
   10b13:	c7 85 88 e8 ff ff e1 	movl   $0x7d5239e1,-0x1778(%rbp)
   10b1a:	39 52 7d 
   10b1d:	c7 85 c4 e7 ff ff 00 	movl   $0x0,-0x183c(%rbp)
   10b24:	00 00 00 
   10b27:	eb 1b                	jmp    10b44 <func_33+0xcd8>
   10b29:	8b 85 c4 e7 ff ff    	mov    -0x183c(%rbp),%eax
   10b2f:	48 98                	cltq   
   10b31:	48 c7 84 c5 a0 eb ff 	movq   $0x0,-0x1460(%rbp,%rax,8)
   10b38:	ff 00 00 00 00 
   10b3d:	83 85 c4 e7 ff ff 01 	addl   $0x1,-0x183c(%rbp)
   10b44:	83 bd c4 e7 ff ff 09 	cmpl   $0x9,-0x183c(%rbp)
   10b4b:	7e dc                	jle    10b29 <func_33+0xcbd>
   10b4d:	66 c7 05 62 e6 00 00 	movw   $0x0,0xe662(%rip)        # 1f1b8 <g_486>
   10b54:	00 00 
   10b56:	e9 8e 0d 00 00       	jmpq   118e9 <func_33+0x1a7d>
   10b5b:	48 c7 85 f0 eb ff ff 	movq   $0xfffffffffffffffb,-0x1410(%rbp)
   10b62:	fb ff ff ff 
   10b66:	48 c7 85 f8 eb ff ff 	movq   $0xfffffffffffffffb,-0x1408(%rbp)
   10b6d:	fb ff ff ff 
   10b71:	48 c7 85 00 ec ff ff 	movq   $0xfffffffffffffffb,-0x1400(%rbp)
   10b78:	fb ff ff ff 
   10b7c:	48 c7 85 08 ec ff ff 	movq   $0xfffffffffffffffb,-0x13f8(%rbp)
   10b83:	fb ff ff ff 
   10b87:	48 c7 85 10 ec ff ff 	movq   $0xfffffffffffffffb,-0x13f0(%rbp)
   10b8e:	fb ff ff ff 
   10b92:	48 c7 85 18 ec ff ff 	movq   $0xfffffffffffffffb,-0x13e8(%rbp)
   10b99:	fb ff ff ff 
   10b9d:	48 c7 85 20 ec ff ff 	movq   $0xfffffffffffffffb,-0x13e0(%rbp)
   10ba4:	fb ff ff ff 
   10ba8:	48 c7 85 28 ec ff ff 	movq   $0xfffffffffffffffb,-0x13d8(%rbp)
   10baf:	fb ff ff ff 
   10bb3:	48 c7 85 30 ec ff ff 	movq   $0xfffffffffffffffb,-0x13d0(%rbp)
   10bba:	fb ff ff ff 
   10bbe:	48 c7 85 38 ec ff ff 	movq   $0xfffffffffffffffb,-0x13c8(%rbp)
   10bc5:	fb ff ff ff 
   10bc9:	c7 85 8c e8 ff ff 3c 	movl   $0xc493213c,-0x1774(%rbp)
   10bd0:	21 93 c4 
   10bd3:	48 8d 05 1e 26 01 00 	lea    0x1261e(%rip),%rax        # 231f8 <g_2066>
   10bda:	48 89 85 60 f0 ff ff 	mov    %rax,-0xfa0(%rbp)
   10be1:	48 8d 05 10 26 01 00 	lea    0x12610(%rip),%rax        # 231f8 <g_2066>
   10be8:	48 89 85 68 f0 ff ff 	mov    %rax,-0xf98(%rbp)
   10bef:	48 c7 85 70 f0 ff ff 	movq   $0x0,-0xf90(%rbp)
   10bf6:	00 00 00 00 
   10bfa:	48 8d 05 f7 25 01 00 	lea    0x125f7(%rip),%rax        # 231f8 <g_2066>
   10c01:	48 89 85 78 f0 ff ff 	mov    %rax,-0xf88(%rbp)
   10c08:	48 8d 85 b0 e8 ff ff 	lea    -0x1750(%rbp),%rax
   10c0f:	48 89 85 80 f0 ff ff 	mov    %rax,-0xf80(%rbp)
   10c16:	48 8d 85 b0 e8 ff ff 	lea    -0x1750(%rbp),%rax
   10c1d:	48 89 85 88 f0 ff ff 	mov    %rax,-0xf78(%rbp)
   10c24:	48 c7 85 90 f0 ff ff 	movq   $0x0,-0xf70(%rbp)
   10c2b:	00 00 00 00 
   10c2f:	48 8d 85 b0 e8 ff ff 	lea    -0x1750(%rbp),%rax
   10c36:	48 89 85 98 f0 ff ff 	mov    %rax,-0xf68(%rbp)
   10c3d:	48 8d 85 b0 e8 ff ff 	lea    -0x1750(%rbp),%rax
   10c44:	48 89 85 a0 f0 ff ff 	mov    %rax,-0xf60(%rbp)
   10c4b:	48 8d 85 b0 e8 ff ff 	lea    -0x1750(%rbp),%rax
   10c52:	48 89 85 a8 f0 ff ff 	mov    %rax,-0xf58(%rbp)
   10c59:	48 8d 05 98 25 01 00 	lea    0x12598(%rip),%rax        # 231f8 <g_2066>
   10c60:	48 89 85 b0 f0 ff ff 	mov    %rax,-0xf50(%rbp)
   10c67:	48 8d 85 b0 e8 ff ff 	lea    -0x1750(%rbp),%rax
   10c6e:	48 89 85 b8 f0 ff ff 	mov    %rax,-0xf48(%rbp)
   10c75:	48 8d 05 7c 25 01 00 	lea    0x1257c(%rip),%rax        # 231f8 <g_2066>
   10c7c:	48 89 85 c0 f0 ff ff 	mov    %rax,-0xf40(%rbp)
   10c83:	48 8d 85 b0 e8 ff ff 	lea    -0x1750(%rbp),%rax
   10c8a:	48 89 85 c8 f0 ff ff 	mov    %rax,-0xf38(%rbp)
   10c91:	48 8d 05 60 25 01 00 	lea    0x12560(%rip),%rax        # 231f8 <g_2066>
   10c98:	48 89 85 d0 f0 ff ff 	mov    %rax,-0xf30(%rbp)
   10c9f:	48 8d 85 b0 e8 ff ff 	lea    -0x1750(%rbp),%rax
   10ca6:	48 89 85 d8 f0 ff ff 	mov    %rax,-0xf28(%rbp)
   10cad:	48 8d 85 b0 e8 ff ff 	lea    -0x1750(%rbp),%rax
   10cb4:	48 89 85 e0 f0 ff ff 	mov    %rax,-0xf20(%rbp)
   10cbb:	48 c7 85 e8 f0 ff ff 	movq   $0x0,-0xf18(%rbp)
   10cc2:	00 00 00 00 
   10cc6:	48 8d 05 2b 25 01 00 	lea    0x1252b(%rip),%rax        # 231f8 <g_2066>
   10ccd:	48 89 85 f0 f0 ff ff 	mov    %rax,-0xf10(%rbp)
   10cd4:	48 8d 85 b0 e8 ff ff 	lea    -0x1750(%rbp),%rax
   10cdb:	48 89 85 f8 f0 ff ff 	mov    %rax,-0xf08(%rbp)
   10ce2:	48 8d 85 b0 e8 ff ff 	lea    -0x1750(%rbp),%rax
   10ce9:	48 89 85 00 f1 ff ff 	mov    %rax,-0xf00(%rbp)
   10cf0:	48 8d 85 b0 e8 ff ff 	lea    -0x1750(%rbp),%rax
   10cf7:	48 89 85 08 f1 ff ff 	mov    %rax,-0xef8(%rbp)
   10cfe:	48 8d 05 f3 24 01 00 	lea    0x124f3(%rip),%rax        # 231f8 <g_2066>
   10d05:	48 89 85 10 f1 ff ff 	mov    %rax,-0xef0(%rbp)
   10d0c:	48 8d 05 e5 24 01 00 	lea    0x124e5(%rip),%rax        # 231f8 <g_2066>
   10d13:	48 89 85 18 f1 ff ff 	mov    %rax,-0xee8(%rbp)
   10d1a:	48 8d 85 b0 e8 ff ff 	lea    -0x1750(%rbp),%rax
   10d21:	48 89 85 20 f1 ff ff 	mov    %rax,-0xee0(%rbp)
   10d28:	48 8d 05 c9 24 01 00 	lea    0x124c9(%rip),%rax        # 231f8 <g_2066>
   10d2f:	48 89 85 28 f1 ff ff 	mov    %rax,-0xed8(%rbp)
   10d36:	48 8d 85 b0 e8 ff ff 	lea    -0x1750(%rbp),%rax
   10d3d:	48 89 85 30 f1 ff ff 	mov    %rax,-0xed0(%rbp)
   10d44:	48 8d 85 b0 e8 ff ff 	lea    -0x1750(%rbp),%rax
   10d4b:	48 89 85 38 f1 ff ff 	mov    %rax,-0xec8(%rbp)
   10d52:	48 8d 85 b0 e8 ff ff 	lea    -0x1750(%rbp),%rax
   10d59:	48 89 85 40 f1 ff ff 	mov    %rax,-0xec0(%rbp)
   10d60:	48 8d 05 91 24 01 00 	lea    0x12491(%rip),%rax        # 231f8 <g_2066>
   10d67:	48 89 85 48 f1 ff ff 	mov    %rax,-0xeb8(%rbp)
   10d6e:	48 8d 85 b0 e8 ff ff 	lea    -0x1750(%rbp),%rax
   10d75:	48 89 85 50 f1 ff ff 	mov    %rax,-0xeb0(%rbp)
   10d7c:	48 c7 85 58 f1 ff ff 	movq   $0x0,-0xea8(%rbp)
   10d83:	00 00 00 00 
   10d87:	48 8d 05 6a 24 01 00 	lea    0x1246a(%rip),%rax        # 231f8 <g_2066>
   10d8e:	48 89 85 60 f1 ff ff 	mov    %rax,-0xea0(%rbp)
   10d95:	48 8d 85 b0 e8 ff ff 	lea    -0x1750(%rbp),%rax
   10d9c:	48 89 85 68 f1 ff ff 	mov    %rax,-0xe98(%rbp)
   10da3:	48 8d 85 b0 e8 ff ff 	lea    -0x1750(%rbp),%rax
   10daa:	48 89 85 70 f1 ff ff 	mov    %rax,-0xe90(%rbp)
   10db1:	48 8d 85 b0 e8 ff ff 	lea    -0x1750(%rbp),%rax
   10db8:	48 89 85 78 f1 ff ff 	mov    %rax,-0xe88(%rbp)
   10dbf:	48 8d 05 32 24 01 00 	lea    0x12432(%rip),%rax        # 231f8 <g_2066>
   10dc6:	48 89 85 80 f1 ff ff 	mov    %rax,-0xe80(%rbp)
   10dcd:	48 8d 85 b0 e8 ff ff 	lea    -0x1750(%rbp),%rax
   10dd4:	48 89 85 88 f1 ff ff 	mov    %rax,-0xe78(%rbp)
   10ddb:	48 8d 05 16 24 01 00 	lea    0x12416(%rip),%rax        # 231f8 <g_2066>
   10de2:	48 89 85 90 f1 ff ff 	mov    %rax,-0xe70(%rbp)
   10de9:	48 8d 85 b0 e8 ff ff 	lea    -0x1750(%rbp),%rax
   10df0:	48 89 85 98 f1 ff ff 	mov    %rax,-0xe68(%rbp)
   10df7:	48 8d 05 fa 23 01 00 	lea    0x123fa(%rip),%rax        # 231f8 <g_2066>
   10dfe:	48 89 85 a0 f1 ff ff 	mov    %rax,-0xe60(%rbp)
   10e05:	48 c7 85 a8 f1 ff ff 	movq   $0x0,-0xe58(%rbp)
   10e0c:	00 00 00 00 
   10e10:	48 8d 85 b0 e8 ff ff 	lea    -0x1750(%rbp),%rax
   10e17:	48 89 85 b0 f1 ff ff 	mov    %rax,-0xe50(%rbp)
   10e1e:	48 8d 05 d3 23 01 00 	lea    0x123d3(%rip),%rax        # 231f8 <g_2066>
   10e25:	48 89 85 b8 f1 ff ff 	mov    %rax,-0xe48(%rbp)
   10e2c:	48 8d 05 c5 23 01 00 	lea    0x123c5(%rip),%rax        # 231f8 <g_2066>
   10e33:	48 89 85 c0 f1 ff ff 	mov    %rax,-0xe40(%rbp)
   10e3a:	48 8d 85 b0 e8 ff ff 	lea    -0x1750(%rbp),%rax
   10e41:	48 89 85 c8 f1 ff ff 	mov    %rax,-0xe38(%rbp)
   10e48:	48 8d 85 b0 e8 ff ff 	lea    -0x1750(%rbp),%rax
   10e4f:	48 89 85 d0 f1 ff ff 	mov    %rax,-0xe30(%rbp)
   10e56:	48 8d 05 9b 23 01 00 	lea    0x1239b(%rip),%rax        # 231f8 <g_2066>
   10e5d:	48 89 85 d8 f1 ff ff 	mov    %rax,-0xe28(%rbp)
   10e64:	48 c7 85 e0 f1 ff ff 	movq   $0x0,-0xe20(%rbp)
   10e6b:	00 00 00 00 
   10e6f:	48 8d 85 b0 e8 ff ff 	lea    -0x1750(%rbp),%rax
   10e76:	48 89 85 e8 f1 ff ff 	mov    %rax,-0xe18(%rbp)
   10e7d:	48 8d 05 74 23 01 00 	lea    0x12374(%rip),%rax        # 231f8 <g_2066>
   10e84:	48 89 85 f0 f1 ff ff 	mov    %rax,-0xe10(%rbp)
   10e8b:	48 8d 85 b0 e8 ff ff 	lea    -0x1750(%rbp),%rax
   10e92:	48 89 85 f8 f1 ff ff 	mov    %rax,-0xe08(%rbp)
   10e99:	48 8d 85 b0 e8 ff ff 	lea    -0x1750(%rbp),%rax
   10ea0:	48 89 85 00 f2 ff ff 	mov    %rax,-0xe00(%rbp)
   10ea7:	48 8d 05 4a 23 01 00 	lea    0x1234a(%rip),%rax        # 231f8 <g_2066>
   10eae:	48 89 85 08 f2 ff ff 	mov    %rax,-0xdf8(%rbp)
   10eb5:	48 8d 05 3c 23 01 00 	lea    0x1233c(%rip),%rax        # 231f8 <g_2066>
   10ebc:	48 89 85 10 f2 ff ff 	mov    %rax,-0xdf0(%rbp)
   10ec3:	48 c7 85 18 f2 ff ff 	movq   $0x0,-0xde8(%rbp)
   10eca:	00 00 00 00 
   10ece:	48 8d 85 b0 e8 ff ff 	lea    -0x1750(%rbp),%rax
   10ed5:	48 89 85 20 f2 ff ff 	mov    %rax,-0xde0(%rbp)
   10edc:	48 8d 85 b0 e8 ff ff 	lea    -0x1750(%rbp),%rax
   10ee3:	48 89 85 28 f2 ff ff 	mov    %rax,-0xdd8(%rbp)
   10eea:	48 8d 85 b0 e8 ff ff 	lea    -0x1750(%rbp),%rax
   10ef1:	48 89 85 30 f2 ff ff 	mov    %rax,-0xdd0(%rbp)
   10ef8:	48 8d 05 f9 22 01 00 	lea    0x122f9(%rip),%rax        # 231f8 <g_2066>
   10eff:	48 89 85 38 f2 ff ff 	mov    %rax,-0xdc8(%rbp)
   10f06:	48 8d 05 eb 22 01 00 	lea    0x122eb(%rip),%rax        # 231f8 <g_2066>
   10f0d:	48 89 85 40 f2 ff ff 	mov    %rax,-0xdc0(%rbp)
   10f14:	48 8d 85 b0 e8 ff ff 	lea    -0x1750(%rbp),%rax
   10f1b:	48 89 85 48 f2 ff ff 	mov    %rax,-0xdb8(%rbp)
   10f22:	48 8d 05 cf 22 01 00 	lea    0x122cf(%rip),%rax        # 231f8 <g_2066>
   10f29:	48 89 85 50 f2 ff ff 	mov    %rax,-0xdb0(%rbp)
   10f30:	48 8d 05 c1 22 01 00 	lea    0x122c1(%rip),%rax        # 231f8 <g_2066>
   10f37:	48 89 85 58 f2 ff ff 	mov    %rax,-0xda8(%rbp)
   10f3e:	48 8d 05 b3 22 01 00 	lea    0x122b3(%rip),%rax        # 231f8 <g_2066>
   10f45:	48 89 85 60 f2 ff ff 	mov    %rax,-0xda0(%rbp)
   10f4c:	48 8d 85 b0 e8 ff ff 	lea    -0x1750(%rbp),%rax
   10f53:	48 89 85 68 f2 ff ff 	mov    %rax,-0xd98(%rbp)
   10f5a:	48 c7 85 70 f2 ff ff 	movq   $0x0,-0xd90(%rbp)
   10f61:	00 00 00 00 
   10f65:	48 8d 85 b0 e8 ff ff 	lea    -0x1750(%rbp),%rax
   10f6c:	48 89 85 78 f2 ff ff 	mov    %rax,-0xd88(%rbp)
   10f73:	48 c7 85 80 f2 ff ff 	movq   $0x0,-0xd80(%rbp)
   10f7a:	00 00 00 00 
   10f7e:	48 8d 05 73 22 01 00 	lea    0x12273(%rip),%rax        # 231f8 <g_2066>
   10f85:	48 89 85 88 f2 ff ff 	mov    %rax,-0xd78(%rbp)
   10f8c:	48 c7 85 90 f2 ff ff 	movq   $0x0,-0xd70(%rbp)
   10f93:	00 00 00 00 
   10f97:	48 8d 05 5a 22 01 00 	lea    0x1225a(%rip),%rax        # 231f8 <g_2066>
   10f9e:	48 89 85 98 f2 ff ff 	mov    %rax,-0xd68(%rbp)
   10fa5:	48 8d 05 4c 22 01 00 	lea    0x1224c(%rip),%rax        # 231f8 <g_2066>
   10fac:	48 89 85 a0 f2 ff ff 	mov    %rax,-0xd60(%rbp)
   10fb3:	48 8d 05 3e 22 01 00 	lea    0x1223e(%rip),%rax        # 231f8 <g_2066>
   10fba:	48 89 85 a8 f2 ff ff 	mov    %rax,-0xd58(%rbp)
   10fc1:	48 8d 05 30 22 01 00 	lea    0x12230(%rip),%rax        # 231f8 <g_2066>
   10fc8:	48 89 85 b0 f2 ff ff 	mov    %rax,-0xd50(%rbp)
   10fcf:	48 c7 85 b8 f2 ff ff 	movq   $0x0,-0xd48(%rbp)
   10fd6:	00 00 00 00 
   10fda:	48 c7 85 c0 f2 ff ff 	movq   $0x0,-0xd40(%rbp)
   10fe1:	00 00 00 00 
   10fe5:	48 c7 85 c8 f2 ff ff 	movq   $0x0,-0xd38(%rbp)
   10fec:	00 00 00 00 
   10ff0:	48 8d 05 01 22 01 00 	lea    0x12201(%rip),%rax        # 231f8 <g_2066>
   10ff7:	48 89 85 d0 f2 ff ff 	mov    %rax,-0xd30(%rbp)
   10ffe:	48 8d 05 f3 21 01 00 	lea    0x121f3(%rip),%rax        # 231f8 <g_2066>
   11005:	48 89 85 d8 f2 ff ff 	mov    %rax,-0xd28(%rbp)
   1100c:	48 8d 05 e5 21 01 00 	lea    0x121e5(%rip),%rax        # 231f8 <g_2066>
   11013:	48 89 85 e0 f2 ff ff 	mov    %rax,-0xd20(%rbp)
   1101a:	48 8d 05 d7 21 01 00 	lea    0x121d7(%rip),%rax        # 231f8 <g_2066>
   11021:	48 89 85 e8 f2 ff ff 	mov    %rax,-0xd18(%rbp)
   11028:	48 8d 05 c9 21 01 00 	lea    0x121c9(%rip),%rax        # 231f8 <g_2066>
   1102f:	48 89 85 f0 f2 ff ff 	mov    %rax,-0xd10(%rbp)
   11036:	48 8d 85 b0 e8 ff ff 	lea    -0x1750(%rbp),%rax
   1103d:	48 89 85 f8 f2 ff ff 	mov    %rax,-0xd08(%rbp)
   11044:	48 8d 05 ad 21 01 00 	lea    0x121ad(%rip),%rax        # 231f8 <g_2066>
   1104b:	48 89 85 00 f3 ff ff 	mov    %rax,-0xd00(%rbp)
   11052:	48 c7 85 08 f3 ff ff 	movq   $0x0,-0xcf8(%rbp)
   11059:	00 00 00 00 
   1105d:	48 8d 85 b0 e8 ff ff 	lea    -0x1750(%rbp),%rax
   11064:	48 89 85 10 f3 ff ff 	mov    %rax,-0xcf0(%rbp)
   1106b:	48 8d 85 b0 e8 ff ff 	lea    -0x1750(%rbp),%rax
   11072:	48 89 85 18 f3 ff ff 	mov    %rax,-0xce8(%rbp)
   11079:	48 8d 85 b0 e8 ff ff 	lea    -0x1750(%rbp),%rax
   11080:	48 89 85 20 f3 ff ff 	mov    %rax,-0xce0(%rbp)
   11087:	48 8d 85 b0 e8 ff ff 	lea    -0x1750(%rbp),%rax
   1108e:	48 89 85 28 f3 ff ff 	mov    %rax,-0xcd8(%rbp)
   11095:	48 c7 85 30 f3 ff ff 	movq   $0x0,-0xcd0(%rbp)
   1109c:	00 00 00 00 
   110a0:	48 c7 85 38 f3 ff ff 	movq   $0x0,-0xcc8(%rbp)
   110a7:	00 00 00 00 
   110ab:	48 c7 85 40 f3 ff ff 	movq   $0x0,-0xcc0(%rbp)
   110b2:	00 00 00 00 
   110b6:	48 8d 05 3b 21 01 00 	lea    0x1213b(%rip),%rax        # 231f8 <g_2066>
   110bd:	48 89 85 48 f3 ff ff 	mov    %rax,-0xcb8(%rbp)
   110c4:	48 8d 05 2d 21 01 00 	lea    0x1212d(%rip),%rax        # 231f8 <g_2066>
   110cb:	48 89 85 50 f3 ff ff 	mov    %rax,-0xcb0(%rbp)
   110d2:	48 8d 85 b0 e8 ff ff 	lea    -0x1750(%rbp),%rax
   110d9:	48 89 85 58 f3 ff ff 	mov    %rax,-0xca8(%rbp)
   110e0:	48 8d 85 b0 e8 ff ff 	lea    -0x1750(%rbp),%rax
   110e7:	48 89 85 60 f3 ff ff 	mov    %rax,-0xca0(%rbp)
   110ee:	48 c7 85 68 f3 ff ff 	movq   $0x0,-0xc98(%rbp)
   110f5:	00 00 00 00 
   110f9:	48 8d 05 f8 20 01 00 	lea    0x120f8(%rip),%rax        # 231f8 <g_2066>
   11100:	48 89 85 70 f3 ff ff 	mov    %rax,-0xc90(%rbp)
   11107:	48 8d 85 b0 e8 ff ff 	lea    -0x1750(%rbp),%rax
   1110e:	48 89 85 78 f3 ff ff 	mov    %rax,-0xc88(%rbp)
   11115:	48 8d 05 dc 20 01 00 	lea    0x120dc(%rip),%rax        # 231f8 <g_2066>
   1111c:	48 89 85 80 f3 ff ff 	mov    %rax,-0xc80(%rbp)
   11123:	48 8d 05 ce 20 01 00 	lea    0x120ce(%rip),%rax        # 231f8 <g_2066>
   1112a:	48 89 85 88 f3 ff ff 	mov    %rax,-0xc78(%rbp)
   11131:	48 8d 05 c0 20 01 00 	lea    0x120c0(%rip),%rax        # 231f8 <g_2066>
   11138:	48 89 85 90 f3 ff ff 	mov    %rax,-0xc70(%rbp)
   1113f:	48 8d 85 b0 e8 ff ff 	lea    -0x1750(%rbp),%rax
   11146:	48 89 85 98 f3 ff ff 	mov    %rax,-0xc68(%rbp)
   1114d:	48 8d 85 b0 e8 ff ff 	lea    -0x1750(%rbp),%rax
   11154:	48 89 85 a0 f3 ff ff 	mov    %rax,-0xc60(%rbp)
   1115b:	48 c7 85 a8 f3 ff ff 	movq   $0x0,-0xc58(%rbp)
   11162:	00 00 00 00 
   11166:	48 c7 85 b0 f3 ff ff 	movq   $0x0,-0xc50(%rbp)
   1116d:	00 00 00 00 
   11171:	48 c7 85 b8 f3 ff ff 	movq   $0x0,-0xc48(%rbp)
   11178:	00 00 00 00 
   1117c:	48 8d 85 b0 e8 ff ff 	lea    -0x1750(%rbp),%rax
   11183:	48 89 85 c0 f3 ff ff 	mov    %rax,-0xc40(%rbp)
   1118a:	48 8d 05 67 20 01 00 	lea    0x12067(%rip),%rax        # 231f8 <g_2066>
   11191:	48 89 85 c8 f3 ff ff 	mov    %rax,-0xc38(%rbp)
   11198:	48 8d 05 59 20 01 00 	lea    0x12059(%rip),%rax        # 231f8 <g_2066>
   1119f:	48 89 85 d0 f3 ff ff 	mov    %rax,-0xc30(%rbp)
   111a6:	48 8d 05 4b 20 01 00 	lea    0x1204b(%rip),%rax        # 231f8 <g_2066>
   111ad:	48 89 85 d8 f3 ff ff 	mov    %rax,-0xc28(%rbp)
   111b4:	48 c7 85 e0 f3 ff ff 	movq   $0x0,-0xc20(%rbp)
   111bb:	00 00 00 00 
   111bf:	48 8d 05 32 20 01 00 	lea    0x12032(%rip),%rax        # 231f8 <g_2066>
   111c6:	48 89 85 e8 f3 ff ff 	mov    %rax,-0xc18(%rbp)
   111cd:	48 8d 85 b0 e8 ff ff 	lea    -0x1750(%rbp),%rax
   111d4:	48 89 85 f0 f3 ff ff 	mov    %rax,-0xc10(%rbp)
   111db:	48 8d 85 b0 e8 ff ff 	lea    -0x1750(%rbp),%rax
   111e2:	48 89 85 f8 f3 ff ff 	mov    %rax,-0xc08(%rbp)
   111e9:	48 c7 85 00 f4 ff ff 	movq   $0x0,-0xc00(%rbp)
   111f0:	00 00 00 00 
   111f4:	48 8d 85 b0 e8 ff ff 	lea    -0x1750(%rbp),%rax
   111fb:	48 89 85 08 f4 ff ff 	mov    %rax,-0xbf8(%rbp)
   11202:	48 8d 85 b0 e8 ff ff 	lea    -0x1750(%rbp),%rax
   11209:	48 89 85 10 f4 ff ff 	mov    %rax,-0xbf0(%rbp)
   11210:	48 8d 85 b0 e8 ff ff 	lea    -0x1750(%rbp),%rax
   11217:	48 89 85 18 f4 ff ff 	mov    %rax,-0xbe8(%rbp)
   1121e:	48 8d 05 d3 1f 01 00 	lea    0x11fd3(%rip),%rax        # 231f8 <g_2066>
   11225:	48 89 85 20 f4 ff ff 	mov    %rax,-0xbe0(%rbp)
   1122c:	48 8d 85 b0 e8 ff ff 	lea    -0x1750(%rbp),%rax
   11233:	48 89 85 28 f4 ff ff 	mov    %rax,-0xbd8(%rbp)
   1123a:	48 8d 05 b7 1f 01 00 	lea    0x11fb7(%rip),%rax        # 231f8 <g_2066>
   11241:	48 89 85 30 f4 ff ff 	mov    %rax,-0xbd0(%rbp)
   11248:	48 8d 85 b0 e8 ff ff 	lea    -0x1750(%rbp),%rax
   1124f:	48 89 85 38 f4 ff ff 	mov    %rax,-0xbc8(%rbp)
   11256:	48 8d 05 9b 1f 01 00 	lea    0x11f9b(%rip),%rax        # 231f8 <g_2066>
   1125d:	48 89 85 40 f4 ff ff 	mov    %rax,-0xbc0(%rbp)
   11264:	48 8d 85 b0 e8 ff ff 	lea    -0x1750(%rbp),%rax
   1126b:	48 89 85 48 f4 ff ff 	mov    %rax,-0xbb8(%rbp)
   11272:	48 8d 85 b0 e8 ff ff 	lea    -0x1750(%rbp),%rax
   11279:	48 89 85 50 f4 ff ff 	mov    %rax,-0xbb0(%rbp)
   11280:	48 c7 85 58 f4 ff ff 	movq   $0x0,-0xba8(%rbp)
   11287:	00 00 00 00 
   1128b:	48 8d 05 66 1f 01 00 	lea    0x11f66(%rip),%rax        # 231f8 <g_2066>
   11292:	48 89 85 60 f4 ff ff 	mov    %rax,-0xba0(%rbp)
   11299:	48 8d 85 b0 e8 ff ff 	lea    -0x1750(%rbp),%rax
   112a0:	48 89 85 68 f4 ff ff 	mov    %rax,-0xb98(%rbp)
   112a7:	48 8d 85 b0 e8 ff ff 	lea    -0x1750(%rbp),%rax
   112ae:	48 89 85 70 f4 ff ff 	mov    %rax,-0xb90(%rbp)
   112b5:	48 8d 85 b0 e8 ff ff 	lea    -0x1750(%rbp),%rax
   112bc:	48 89 85 78 f4 ff ff 	mov    %rax,-0xb88(%rbp)
   112c3:	48 8d 05 2e 1f 01 00 	lea    0x11f2e(%rip),%rax        # 231f8 <g_2066>
   112ca:	48 89 85 80 f4 ff ff 	mov    %rax,-0xb80(%rbp)
   112d1:	48 8d 05 20 1f 01 00 	lea    0x11f20(%rip),%rax        # 231f8 <g_2066>
   112d8:	48 89 85 88 f4 ff ff 	mov    %rax,-0xb78(%rbp)
   112df:	48 8d 85 b0 e8 ff ff 	lea    -0x1750(%rbp),%rax
   112e6:	48 89 85 90 f4 ff ff 	mov    %rax,-0xb70(%rbp)
   112ed:	48 8d 05 04 1f 01 00 	lea    0x11f04(%rip),%rax        # 231f8 <g_2066>
   112f4:	48 89 85 98 f4 ff ff 	mov    %rax,-0xb68(%rbp)
   112fb:	48 8d 85 b0 e8 ff ff 	lea    -0x1750(%rbp),%rax
   11302:	48 89 85 a0 f4 ff ff 	mov    %rax,-0xb60(%rbp)
   11309:	48 8d 85 b0 e8 ff ff 	lea    -0x1750(%rbp),%rax
   11310:	48 89 85 a8 f4 ff ff 	mov    %rax,-0xb58(%rbp)
   11317:	48 8d 85 b0 e8 ff ff 	lea    -0x1750(%rbp),%rax
   1131e:	48 89 85 b0 f4 ff ff 	mov    %rax,-0xb50(%rbp)
   11325:	48 8d 05 cc 1e 01 00 	lea    0x11ecc(%rip),%rax        # 231f8 <g_2066>
   1132c:	48 89 85 b8 f4 ff ff 	mov    %rax,-0xb48(%rbp)
   11333:	48 8d 85 b0 e8 ff ff 	lea    -0x1750(%rbp),%rax
   1133a:	48 89 85 c0 f4 ff ff 	mov    %rax,-0xb40(%rbp)
   11341:	48 c7 85 c8 f4 ff ff 	movq   $0x0,-0xb38(%rbp)
   11348:	00 00 00 00 
   1134c:	48 8d 05 a5 1e 01 00 	lea    0x11ea5(%rip),%rax        # 231f8 <g_2066>
   11353:	48 89 85 d0 f4 ff ff 	mov    %rax,-0xb30(%rbp)
   1135a:	48 8d 85 b0 e8 ff ff 	lea    -0x1750(%rbp),%rax
   11361:	48 89 85 d8 f4 ff ff 	mov    %rax,-0xb28(%rbp)
   11368:	48 8d 85 b0 e8 ff ff 	lea    -0x1750(%rbp),%rax
   1136f:	48 89 85 e0 f4 ff ff 	mov    %rax,-0xb20(%rbp)
   11376:	48 8d 85 b0 e8 ff ff 	lea    -0x1750(%rbp),%rax
   1137d:	48 89 85 e8 f4 ff ff 	mov    %rax,-0xb18(%rbp)
   11384:	48 8d 05 6d 1e 01 00 	lea    0x11e6d(%rip),%rax        # 231f8 <g_2066>
   1138b:	48 89 85 f0 f4 ff ff 	mov    %rax,-0xb10(%rbp)
   11392:	48 8d 85 b0 e8 ff ff 	lea    -0x1750(%rbp),%rax
   11399:	48 89 85 f8 f4 ff ff 	mov    %rax,-0xb08(%rbp)
   113a0:	48 8d 05 51 1e 01 00 	lea    0x11e51(%rip),%rax        # 231f8 <g_2066>
   113a7:	48 89 85 00 f5 ff ff 	mov    %rax,-0xb00(%rbp)
   113ae:	48 8d 85 b0 e8 ff ff 	lea    -0x1750(%rbp),%rax
   113b5:	48 89 85 08 f5 ff ff 	mov    %rax,-0xaf8(%rbp)
   113bc:	48 8d 05 35 1e 01 00 	lea    0x11e35(%rip),%rax        # 231f8 <g_2066>
   113c3:	48 89 85 10 f5 ff ff 	mov    %rax,-0xaf0(%rbp)
   113ca:	48 c7 85 18 f5 ff ff 	movq   $0x0,-0xae8(%rbp)
   113d1:	00 00 00 00 
   113d5:	48 8d 85 b0 e8 ff ff 	lea    -0x1750(%rbp),%rax
   113dc:	48 89 85 20 f5 ff ff 	mov    %rax,-0xae0(%rbp)
   113e3:	48 8d 05 0e 1e 01 00 	lea    0x11e0e(%rip),%rax        # 231f8 <g_2066>
   113ea:	48 89 85 28 f5 ff ff 	mov    %rax,-0xad8(%rbp)
   113f1:	48 8d 05 00 1e 01 00 	lea    0x11e00(%rip),%rax        # 231f8 <g_2066>
   113f8:	48 89 85 30 f5 ff ff 	mov    %rax,-0xad0(%rbp)
   113ff:	48 8d 85 b0 e8 ff ff 	lea    -0x1750(%rbp),%rax
   11406:	48 89 85 38 f5 ff ff 	mov    %rax,-0xac8(%rbp)
   1140d:	48 8d 85 b0 e8 ff ff 	lea    -0x1750(%rbp),%rax
   11414:	48 89 85 40 f5 ff ff 	mov    %rax,-0xac0(%rbp)
   1141b:	48 8d 05 d6 1d 01 00 	lea    0x11dd6(%rip),%rax        # 231f8 <g_2066>
   11422:	48 89 85 48 f5 ff ff 	mov    %rax,-0xab8(%rbp)
   11429:	48 c7 85 50 f5 ff ff 	movq   $0x0,-0xab0(%rbp)
   11430:	00 00 00 00 
   11434:	48 8d 85 b0 e8 ff ff 	lea    -0x1750(%rbp),%rax
   1143b:	48 89 85 58 f5 ff ff 	mov    %rax,-0xaa8(%rbp)
   11442:	48 8d 05 af 1d 01 00 	lea    0x11daf(%rip),%rax        # 231f8 <g_2066>
   11449:	48 89 85 60 f5 ff ff 	mov    %rax,-0xaa0(%rbp)
   11450:	48 8d 85 b0 e8 ff ff 	lea    -0x1750(%rbp),%rax
   11457:	48 89 85 68 f5 ff ff 	mov    %rax,-0xa98(%rbp)
   1145e:	48 8d 85 b0 e8 ff ff 	lea    -0x1750(%rbp),%rax
   11465:	48 89 85 70 f5 ff ff 	mov    %rax,-0xa90(%rbp)
   1146c:	48 8d 05 85 1d 01 00 	lea    0x11d85(%rip),%rax        # 231f8 <g_2066>
   11473:	48 89 85 78 f5 ff ff 	mov    %rax,-0xa88(%rbp)
   1147a:	48 8d 05 77 1d 01 00 	lea    0x11d77(%rip),%rax        # 231f8 <g_2066>
   11481:	48 89 85 80 f5 ff ff 	mov    %rax,-0xa80(%rbp)
   11488:	48 c7 85 88 f5 ff ff 	movq   $0x0,-0xa78(%rbp)
   1148f:	00 00 00 00 
   11493:	48 8d 85 b0 e8 ff ff 	lea    -0x1750(%rbp),%rax
   1149a:	48 89 85 90 f5 ff ff 	mov    %rax,-0xa70(%rbp)
   114a1:	48 8d 85 b0 e8 ff ff 	lea    -0x1750(%rbp),%rax
   114a8:	48 89 85 98 f5 ff ff 	mov    %rax,-0xa68(%rbp)
   114af:	48 8d 85 b0 e8 ff ff 	lea    -0x1750(%rbp),%rax
   114b6:	48 89 85 a0 f5 ff ff 	mov    %rax,-0xa60(%rbp)
   114bd:	48 8d 85 b0 e8 ff ff 	lea    -0x1750(%rbp),%rax
   114c4:	48 89 85 a8 f5 ff ff 	mov    %rax,-0xa58(%rbp)
   114cb:	48 8d 05 26 1d 01 00 	lea    0x11d26(%rip),%rax        # 231f8 <g_2066>
   114d2:	48 89 85 b0 f5 ff ff 	mov    %rax,-0xa50(%rbp)
   114d9:	48 8d 85 b0 e8 ff ff 	lea    -0x1750(%rbp),%rax
   114e0:	48 89 85 b8 f5 ff ff 	mov    %rax,-0xa48(%rbp)
   114e7:	48 8d 85 b0 e8 ff ff 	lea    -0x1750(%rbp),%rax
   114ee:	48 89 85 c0 f5 ff ff 	mov    %rax,-0xa40(%rbp)
   114f5:	48 8d 05 fc 1c 01 00 	lea    0x11cfc(%rip),%rax        # 231f8 <g_2066>
   114fc:	48 89 85 c8 f5 ff ff 	mov    %rax,-0xa38(%rbp)
   11503:	48 8d 05 ee 1c 01 00 	lea    0x11cee(%rip),%rax        # 231f8 <g_2066>
   1150a:	48 89 85 d0 f5 ff ff 	mov    %rax,-0xa30(%rbp)
   11511:	48 8d 85 b0 e8 ff ff 	lea    -0x1750(%rbp),%rax
   11518:	48 89 85 d8 f5 ff ff 	mov    %rax,-0xa28(%rbp)
   1151f:	48 8d 05 d2 1c 01 00 	lea    0x11cd2(%rip),%rax        # 231f8 <g_2066>
   11526:	48 89 85 e0 f5 ff ff 	mov    %rax,-0xa20(%rbp)
   1152d:	48 c7 85 e8 f5 ff ff 	movq   $0x0,-0xa18(%rbp)
   11534:	00 00 00 00 
   11538:	48 8d 05 b9 1c 01 00 	lea    0x11cb9(%rip),%rax        # 231f8 <g_2066>
   1153f:	48 89 85 f0 f5 ff ff 	mov    %rax,-0xa10(%rbp)
   11546:	48 8d 85 b0 e8 ff ff 	lea    -0x1750(%rbp),%rax
   1154d:	48 89 85 f8 f5 ff ff 	mov    %rax,-0xa08(%rbp)
   11554:	48 8d 05 9d 1c 01 00 	lea    0x11c9d(%rip),%rax        # 231f8 <g_2066>
   1155b:	48 89 85 00 f6 ff ff 	mov    %rax,-0xa00(%rbp)
   11562:	48 8d 05 8f 1c 01 00 	lea    0x11c8f(%rip),%rax        # 231f8 <g_2066>
   11569:	48 89 85 08 f6 ff ff 	mov    %rax,-0x9f8(%rbp)
   11570:	48 8d 85 b0 e8 ff ff 	lea    -0x1750(%rbp),%rax
   11577:	48 89 85 10 f6 ff ff 	mov    %rax,-0x9f0(%rbp)
   1157e:	48 8d 05 73 1c 01 00 	lea    0x11c73(%rip),%rax        # 231f8 <g_2066>
   11585:	48 89 85 18 f6 ff ff 	mov    %rax,-0x9e8(%rbp)
   1158c:	48 8d 05 65 1c 01 00 	lea    0x11c65(%rip),%rax        # 231f8 <g_2066>
   11593:	48 89 85 20 f6 ff ff 	mov    %rax,-0x9e0(%rbp)
   1159a:	48 8d 05 57 1c 01 00 	lea    0x11c57(%rip),%rax        # 231f8 <g_2066>
   115a1:	48 89 85 28 f6 ff ff 	mov    %rax,-0x9d8(%rbp)
   115a8:	48 8d 85 b0 e8 ff ff 	lea    -0x1750(%rbp),%rax
   115af:	48 89 85 30 f6 ff ff 	mov    %rax,-0x9d0(%rbp)
   115b6:	48 c7 85 38 f6 ff ff 	movq   $0x0,-0x9c8(%rbp)
   115bd:	00 00 00 00 
   115c1:	48 c7 85 40 f6 ff ff 	movq   $0x0,-0x9c0(%rbp)
   115c8:	00 00 00 00 
   115cc:	48 8d 85 b0 e8 ff ff 	lea    -0x1750(%rbp),%rax
   115d3:	48 89 85 48 f6 ff ff 	mov    %rax,-0x9b8(%rbp)
   115da:	48 8d 05 17 1c 01 00 	lea    0x11c17(%rip),%rax        # 231f8 <g_2066>
   115e1:	48 89 85 50 f6 ff ff 	mov    %rax,-0x9b0(%rbp)
   115e8:	48 8d 05 09 1c 01 00 	lea    0x11c09(%rip),%rax        # 231f8 <g_2066>
   115ef:	48 89 85 58 f6 ff ff 	mov    %rax,-0x9a8(%rbp)
   115f6:	48 8d 05 fb 1b 01 00 	lea    0x11bfb(%rip),%rax        # 231f8 <g_2066>
   115fd:	48 89 85 60 f6 ff ff 	mov    %rax,-0x9a0(%rbp)
   11604:	48 8d 85 b0 e8 ff ff 	lea    -0x1750(%rbp),%rax
   1160b:	48 89 85 68 f6 ff ff 	mov    %rax,-0x998(%rbp)
   11612:	48 8d 05 df 1b 01 00 	lea    0x11bdf(%rip),%rax        # 231f8 <g_2066>
   11619:	48 89 85 70 f6 ff ff 	mov    %rax,-0x990(%rbp)
   11620:	48 8d 05 d1 1b 01 00 	lea    0x11bd1(%rip),%rax        # 231f8 <g_2066>
   11627:	48 89 85 78 f6 ff ff 	mov    %rax,-0x988(%rbp)
   1162e:	48 8d 05 c3 1b 01 00 	lea    0x11bc3(%rip),%rax        # 231f8 <g_2066>
   11635:	48 89 85 80 f6 ff ff 	mov    %rax,-0x980(%rbp)
   1163c:	48 8d 85 b0 e8 ff ff 	lea    -0x1750(%rbp),%rax
   11643:	48 89 85 88 f6 ff ff 	mov    %rax,-0x978(%rbp)
   1164a:	48 8d 05 a7 1b 01 00 	lea    0x11ba7(%rip),%rax        # 231f8 <g_2066>
   11651:	48 89 85 90 f6 ff ff 	mov    %rax,-0x970(%rbp)
   11658:	48 8d 05 99 1b 01 00 	lea    0x11b99(%rip),%rax        # 231f8 <g_2066>
   1165f:	48 89 85 98 f6 ff ff 	mov    %rax,-0x968(%rbp)
   11666:	48 8d 05 8b 1b 01 00 	lea    0x11b8b(%rip),%rax        # 231f8 <g_2066>
   1166d:	48 89 85 a0 f6 ff ff 	mov    %rax,-0x960(%rbp)
   11674:	48 8d 85 b0 e8 ff ff 	lea    -0x1750(%rbp),%rax
   1167b:	48 89 85 a8 f6 ff ff 	mov    %rax,-0x958(%rbp)
   11682:	48 8d 05 6f 1b 01 00 	lea    0x11b6f(%rip),%rax        # 231f8 <g_2066>
   11689:	48 89 85 b0 f6 ff ff 	mov    %rax,-0x950(%rbp)
   11690:	48 8d 85 b0 e8 ff ff 	lea    -0x1750(%rbp),%rax
   11697:	48 89 85 b8 f6 ff ff 	mov    %rax,-0x948(%rbp)
   1169e:	48 8d 05 53 1b 01 00 	lea    0x11b53(%rip),%rax        # 231f8 <g_2066>
   116a5:	48 89 85 c0 f6 ff ff 	mov    %rax,-0x940(%rbp)
   116ac:	48 8d 85 b0 e8 ff ff 	lea    -0x1750(%rbp),%rax
   116b3:	48 89 85 c8 f6 ff ff 	mov    %rax,-0x938(%rbp)
   116ba:	48 8d 05 37 1b 01 00 	lea    0x11b37(%rip),%rax        # 231f8 <g_2066>
   116c1:	48 89 85 d0 f6 ff ff 	mov    %rax,-0x930(%rbp)
   116c8:	48 8d 05 29 1b 01 00 	lea    0x11b29(%rip),%rax        # 231f8 <g_2066>
   116cf:	48 89 85 d8 f6 ff ff 	mov    %rax,-0x928(%rbp)
   116d6:	48 8d 85 b0 e8 ff ff 	lea    -0x1750(%rbp),%rax
   116dd:	48 89 85 e0 f6 ff ff 	mov    %rax,-0x920(%rbp)
   116e4:	48 8d 85 b0 e8 ff ff 	lea    -0x1750(%rbp),%rax
   116eb:	48 89 85 e8 f6 ff ff 	mov    %rax,-0x918(%rbp)
   116f2:	48 8d 05 ff 1a 01 00 	lea    0x11aff(%rip),%rax        # 231f8 <g_2066>
   116f9:	48 89 85 f0 f6 ff ff 	mov    %rax,-0x910(%rbp)
   11700:	48 8d 05 f1 1a 01 00 	lea    0x11af1(%rip),%rax        # 231f8 <g_2066>
   11707:	48 89 85 f8 f6 ff ff 	mov    %rax,-0x908(%rbp)
   1170e:	48 8d 05 e3 1a 01 00 	lea    0x11ae3(%rip),%rax        # 231f8 <g_2066>
   11715:	48 89 85 00 f7 ff ff 	mov    %rax,-0x900(%rbp)
   1171c:	48 8d 05 d5 1a 01 00 	lea    0x11ad5(%rip),%rax        # 231f8 <g_2066>
   11723:	48 89 85 08 f7 ff ff 	mov    %rax,-0x8f8(%rbp)
   1172a:	48 8d 85 b0 e8 ff ff 	lea    -0x1750(%rbp),%rax
   11731:	48 89 85 10 f7 ff ff 	mov    %rax,-0x8f0(%rbp)
   11738:	48 c7 85 18 f7 ff ff 	movq   $0x0,-0x8e8(%rbp)
   1173f:	00 00 00 00 
   11743:	48 8d 85 b0 e8 ff ff 	lea    -0x1750(%rbp),%rax
   1174a:	48 89 85 20 f7 ff ff 	mov    %rax,-0x8e0(%rbp)
   11751:	48 8d 05 a0 1a 01 00 	lea    0x11aa0(%rip),%rax        # 231f8 <g_2066>
   11758:	48 89 85 28 f7 ff ff 	mov    %rax,-0x8d8(%rbp)
   1175f:	48 8d 85 b0 e8 ff ff 	lea    -0x1750(%rbp),%rax
   11766:	48 89 85 30 f7 ff ff 	mov    %rax,-0x8d0(%rbp)
   1176d:	48 c7 85 38 f7 ff ff 	movq   $0x0,-0x8c8(%rbp)
   11774:	00 00 00 00 
   11778:	48 8d 85 b0 e8 ff ff 	lea    -0x1750(%rbp),%rax
   1177f:	48 89 85 40 f7 ff ff 	mov    %rax,-0x8c0(%rbp)
   11786:	48 8d 05 6b 1a 01 00 	lea    0x11a6b(%rip),%rax        # 231f8 <g_2066>
   1178d:	48 89 85 48 f7 ff ff 	mov    %rax,-0x8b8(%rbp)
   11794:	48 8d 05 5d 1a 01 00 	lea    0x11a5d(%rip),%rax        # 231f8 <g_2066>
   1179b:	48 89 85 50 f7 ff ff 	mov    %rax,-0x8b0(%rbp)
   117a2:	48 8d 85 b0 e8 ff ff 	lea    -0x1750(%rbp),%rax
   117a9:	48 89 85 58 f7 ff ff 	mov    %rax,-0x8a8(%rbp)
   117b0:	48 8d 05 41 1a 01 00 	lea    0x11a41(%rip),%rax        # 231f8 <g_2066>
   117b7:	48 89 85 60 f7 ff ff 	mov    %rax,-0x8a0(%rbp)
   117be:	48 c7 85 68 f7 ff ff 	movq   $0x0,-0x898(%rbp)
   117c5:	00 00 00 00 
   117c9:	48 8d 05 28 1a 01 00 	lea    0x11a28(%rip),%rax        # 231f8 <g_2066>
   117d0:	48 89 85 70 f7 ff ff 	mov    %rax,-0x890(%rbp)
   117d7:	48 8d 85 b0 e8 ff ff 	lea    -0x1750(%rbp),%rax
   117de:	48 89 85 78 f7 ff ff 	mov    %rax,-0x888(%rbp)
   117e5:	48 8d 85 b0 e8 ff ff 	lea    -0x1750(%rbp),%rax
   117ec:	48 89 85 80 f7 ff ff 	mov    %rax,-0x880(%rbp)
   117f3:	48 8d 85 b0 e8 ff ff 	lea    -0x1750(%rbp),%rax
   117fa:	48 89 85 88 f7 ff ff 	mov    %rax,-0x878(%rbp)
   11801:	48 8d 85 b0 e8 ff ff 	lea    -0x1750(%rbp),%rax
   11808:	48 89 85 90 f7 ff ff 	mov    %rax,-0x870(%rbp)
   1180f:	48 8d 85 b0 e8 ff ff 	lea    -0x1750(%rbp),%rax
   11816:	48 89 85 98 f7 ff ff 	mov    %rax,-0x868(%rbp)
   1181d:	48 8d 05 d4 19 01 00 	lea    0x119d4(%rip),%rax        # 231f8 <g_2066>
   11824:	48 89 85 a0 f7 ff ff 	mov    %rax,-0x860(%rbp)
   1182b:	48 8d 05 c6 19 01 00 	lea    0x119c6(%rip),%rax        # 231f8 <g_2066>
   11832:	48 89 85 a8 f7 ff ff 	mov    %rax,-0x858(%rbp)
   11839:	48 8d 05 b8 19 01 00 	lea    0x119b8(%rip),%rax        # 231f8 <g_2066>
   11840:	48 89 85 b0 f7 ff ff 	mov    %rax,-0x850(%rbp)
   11847:	48 8d 85 b0 e8 ff ff 	lea    -0x1750(%rbp),%rax
   1184e:	48 89 85 b8 f7 ff ff 	mov    %rax,-0x848(%rbp)
   11855:	48 c7 85 c0 f7 ff ff 	movq   $0x0,-0x840(%rbp)
   1185c:	00 00 00 00 
   11860:	48 c7 85 c8 f7 ff ff 	movq   $0x0,-0x838(%rbp)
   11867:	00 00 00 00 
   1186b:	48 8d 85 b0 e8 ff ff 	lea    -0x1750(%rbp),%rax
   11872:	48 89 85 d0 f7 ff ff 	mov    %rax,-0x830(%rbp)
   11879:	48 8d 85 b0 e8 ff ff 	lea    -0x1750(%rbp),%rax
   11880:	48 89 85 d8 f7 ff ff 	mov    %rax,-0x828(%rbp)
   11887:	c6 05 82 d8 00 00 f2 	movb   $0xf2,0xd882(%rip)        # 1f110 <g_253>
   1188e:	eb 1a                	jmp    118aa <func_33+0x1a3e>
   11890:	8b 85 40 ed ff ff    	mov    -0x12c0(%rbp),%eax
   11896:	85 c0                	test   %eax,%eax
   11898:	75 1d                	jne    118b7 <func_33+0x1a4b>
   1189a:	0f b6 05 6f d8 00 00 	movzbl 0xd86f(%rip),%eax        # 1f110 <g_253>
   118a1:	83 c0 01             	add    $0x1,%eax
   118a4:	88 05 66 d8 00 00    	mov    %al,0xd866(%rip)        # 1f110 <g_253>
   118aa:	0f b6 05 5f d8 00 00 	movzbl 0xd85f(%rip),%eax        # 1f110 <g_253>
   118b1:	3c 3b                	cmp    $0x3b,%al
   118b3:	76 db                	jbe    11890 <func_33+0x1a24>
   118b5:	eb 01                	jmp    118b8 <func_33+0x1a4c>
   118b7:	90                   	nop
   118b8:	48 8b 05 51 11 01 00 	mov    0x11151(%rip),%rax        # 22a10 <g_2065>
   118bf:	48 8b 95 b0 e8 ff ff 	mov    -0x1750(%rbp),%rdx
   118c6:	48 89 10             	mov    %rdx,(%rax)
   118c9:	0f b7 05 e8 d8 00 00 	movzwl 0xd8e8(%rip),%eax        # 1f1b8 <g_486>
   118d0:	0f b6 c0             	movzbl %al,%eax
   118d3:	be 07 00 00 00       	mov    $0x7,%esi
   118d8:	89 c7                	mov    %eax,%edi
   118da:	e8 7b 92 ff ff       	callq  ab5a <safe_add_func_uint8_t_u_u>
   118df:	0f b6 c0             	movzbl %al,%eax
   118e2:	66 89 05 cf d8 00 00 	mov    %ax,0xd8cf(%rip)        # 1f1b8 <g_486>
   118e9:	0f b7 05 c8 d8 00 00 	movzwl 0xd8c8(%rip),%eax        # 1f1b8 <g_486>
   118f0:	66 83 f8 11          	cmp    $0x11,%ax
   118f4:	0f 8f 61 f2 ff ff    	jg     10b5b <func_33+0xcef>
   118fa:	48 8b 85 a0 e8 ff ff 	mov    -0x1760(%rbp),%rax
   11901:	48 8b 00             	mov    (%rax),%rax
   11904:	48 8d 95 00 ed ff ff 	lea    -0x1300(%rbp),%rdx
   1190b:	48 83 c2 5c          	add    $0x5c,%rdx
   1190f:	48 89 10             	mov    %rdx,(%rax)
   11912:	48 8b 15 cf fe 00 00 	mov    0xfecf(%rip),%rdx        # 217e8 <g_56>
   11919:	48 8b 00             	mov    (%rax),%rax
   1191c:	48 89 02             	mov    %rax,(%rdx)
   1191f:	48 8b 85 a0 e8 ff ff 	mov    -0x1760(%rbp),%rax
   11926:	48 8b 10             	mov    (%rax),%rdx
   11929:	48 8b 05 f0 07 01 00 	mov    0x107f0(%rip),%rax        # 22120 <g_774>
   11930:	48 8b 12             	mov    (%rdx),%rdx
   11933:	48 89 10             	mov    %rdx,(%rax)
   11936:	48 8b 05 03 01 01 00 	mov    0x10103(%rip),%rax        # 21a40 <g_169>
   1193d:	0f b6 8d 6c e7 ff ff 	movzbl -0x1894(%rbp),%ecx
   11944:	48 8b 85 30 ea ff ff 	mov    -0x15d0(%rbp),%rax
   1194b:	0f b7 10             	movzwl (%rax),%edx
   1194e:	0f b6 c1             	movzbl %cl,%eax
   11951:	21 c2                	and    %eax,%edx
   11953:	48 8b 85 30 ea ff ff 	mov    -0x15d0(%rbp),%rax
   1195a:	66 89 10             	mov    %dx,(%rax)
   1195d:	48 8b 05 bc 10 01 00 	mov    0x110bc(%rip),%rax        # 22a20 <g_2087>
   11964:	48 8b 10             	mov    (%rax),%rdx
   11967:	48 83 ea 01          	sub    $0x1,%rdx
   1196b:	48 89 10             	mov    %rdx,(%rax)
   1196e:	48 8b 00             	mov    (%rax),%rax
   11971:	48 83 f0 01          	xor    $0x1,%rax
   11975:	89 c2                	mov    %eax,%edx
   11977:	8b 85 88 e8 ff ff    	mov    -0x1778(%rbp),%eax
   1197d:	09 d0                	or     %edx,%eax
   1197f:	89 85 88 e8 ff ff    	mov    %eax,-0x1778(%rbp)
   11985:	e9 ad 0b 00 00       	jmpq   12537 <func_33+0x26cb>
   1198a:	48 8d 05 6f 09 01 00 	lea    0x1096f(%rip),%rax        # 22300 <g_1402>
   11991:	48 89 85 88 e9 ff ff 	mov    %rax,-0x1678(%rbp)
   11998:	c7 85 5c e8 ff ff ff 	movl   $0xffffffff,-0x17a4(%rbp)
   1199f:	ff ff ff 
   119a2:	c7 85 60 e8 ff ff 01 	movl   $0x1,-0x17a0(%rbp)
   119a9:	00 00 00 
   119ac:	c7 85 64 e8 ff ff f9 	movl   $0xfffffff9,-0x179c(%rbp)
   119b3:	ff ff ff 
   119b6:	c7 85 68 e8 ff ff 00 	movl   $0x0,-0x1798(%rbp)
   119bd:	00 00 00 
   119c0:	c7 85 6c e8 ff ff 46 	movl   $0xcdd3db46,-0x1794(%rbp)
   119c7:	db d3 cd 
   119ca:	c7 85 70 e8 ff ff 01 	movl   $0x1,-0x1790(%rbp)
   119d1:	00 00 00 
   119d4:	c7 85 74 e8 ff ff 01 	movl   $0x1,-0x178c(%rbp)
   119db:	00 00 00 
   119de:	c7 85 78 e8 ff ff 26 	movl   $0x322b4026,-0x1788(%rbp)
   119e5:	40 2b 32 
   119e8:	c7 85 7c e8 ff ff 66 	movl   $0x14975666,-0x1784(%rbp)
   119ef:	56 97 14 
   119f2:	48 8d 85 60 f0 ff ff 	lea    -0xfa0(%rbp),%rax
   119f9:	48 8d 15 a0 8e 00 00 	lea    0x8ea0(%rip),%rdx        # 1a8a0 <g_2661+0x830>
   11a00:	b9 70 00 00 00       	mov    $0x70,%ecx
   11a05:	48 89 c7             	mov    %rax,%rdi
   11a08:	48 89 d6             	mov    %rdx,%rsi
   11a0b:	f3 48 a5             	rep movsq %ds:(%rsi),%es:(%rdi)
   11a0e:	c6 85 81 e7 ff ff 1f 	movb   $0x1f,-0x187f(%rbp)
   11a15:	48 8b 85 88 e9 ff ff 	mov    -0x1678(%rbp),%rax
   11a1c:	48 c7 00 00 00 00 00 	movq   $0x0,(%rax)
   11a23:	48 8b 85 88 e9 ff ff 	mov    -0x1678(%rbp),%rax
   11a2a:	48 8b 10             	mov    (%rax),%rdx
   11a2d:	48 8d 85 a0 e8 ff ff 	lea    -0x1760(%rbp),%rax
   11a34:	48 39 c2             	cmp    %rax,%rdx
   11a37:	0f 94 c0             	sete   %al
   11a3a:	44 0f b6 e0          	movzbl %al,%r12d
   11a3e:	66 83 bd 68 e7 ff ff 	cmpw   $0x0,-0x1898(%rbp)
   11a45:	00 
   11a46:	0f 95 c0             	setne  %al
   11a49:	44 0f b6 e8          	movzbl %al,%r13d
   11a4d:	44 0f bf b5 68 e7 ff 	movswl -0x1898(%rbp),%r14d
   11a54:	ff 
   11a55:	0f b7 85 68 e7 ff ff 	movzwl -0x1898(%rbp),%eax
   11a5c:	0f b7 d8             	movzwl %ax,%ebx
   11a5f:	8b 85 80 ea ff ff    	mov    -0x1580(%rbp),%eax
   11a65:	41 89 c7             	mov    %eax,%r15d
   11a68:	8b 85 a4 e7 ff ff    	mov    -0x185c(%rbp),%eax
   11a6e:	89 c2                	mov    %eax,%edx
   11a70:	8b 85 80 ea ff ff    	mov    -0x1580(%rbp),%eax
   11a76:	0f b6 c0             	movzbl %al,%eax
   11a79:	89 d6                	mov    %edx,%esi
   11a7b:	89 c7                	mov    %eax,%edi
   11a7d:	e8 ca 91 ff ff       	callq  ac4c <safe_lshift_func_uint8_t_u_u>
   11a82:	0f be c0             	movsbl %al,%eax
   11a85:	44 89 fe             	mov    %r15d,%esi
   11a88:	89 c7                	mov    %eax,%edi
   11a8a:	e8 dd 88 ff ff       	callq  a36c <safe_rshift_func_int8_t_s_u>
   11a8f:	48 0f bf 85 98 e7 ff 	movswq -0x1868(%rbp),%rax
   11a96:	ff 
   11a97:	48 89 c6             	mov    %rax,%rsi
   11a9a:	bf 01 00 00 00       	mov    $0x1,%edi
   11a9f:	e8 8a 95 ff ff       	callq  b02e <safe_add_func_uint64_t_u_u>
   11aa4:	83 e0 01             	and    $0x1,%eax
   11aa7:	48 89 c2             	mov    %rax,%rdx
   11aaa:	0f b6 85 6c e7 ff ff 	movzbl -0x1894(%rbp),%eax
   11ab1:	48 39 c2             	cmp    %rax,%rdx
   11ab4:	0f 92 c0             	setb   %al
   11ab7:	0f b6 c0             	movzbl %al,%eax
   11aba:	89 de                	mov    %ebx,%esi
   11abc:	89 c7                	mov    %eax,%edi
   11abe:	e8 7a 92 ff ff       	callq  ad3d <safe_mul_func_uint16_t_u_u>
   11ac3:	0f b7 c0             	movzwl %ax,%eax
   11ac6:	41 39 c6             	cmp    %eax,%r14d
   11ac9:	0f 9d c0             	setge  %al
   11acc:	0f b6 d0             	movzbl %al,%edx
   11acf:	0f b7 85 82 e7 ff ff 	movzwl -0x187e(%rbp),%eax
   11ad6:	66 85 c0             	test   %ax,%ax
   11ad9:	0f 94 c0             	sete   %al
   11adc:	0f b6 c0             	movzbl %al,%eax
   11adf:	48 8b 0d ca 09 01 00 	mov    0x109ca(%rip),%rcx        # 224b0 <g_1564>
   11ae6:	48 8b 19             	mov    (%rcx),%rbx
   11ae9:	89 d6                	mov    %edx,%esi
   11aeb:	89 c7                	mov    %eax,%edi
   11aed:	e8 20 87 ff ff       	callq  a212 <safe_mul_func_int8_t_s_s>
   11af2:	88 03                	mov    %al,(%rbx)
   11af4:	0f b6 03             	movzbl (%rbx),%eax
   11af7:	0f be d0             	movsbl %al,%edx
   11afa:	0f b6 85 6c e7 ff ff 	movzbl -0x1894(%rbp),%eax
   11b01:	39 c2                	cmp    %eax,%edx
   11b03:	0f 9e c2             	setle  %dl
   11b06:	48 8b 85 b0 e8 ff ff 	mov    -0x1750(%rbp),%rax
   11b0d:	48 8b 00             	mov    (%rax),%rax
   11b10:	48 8b 00             	mov    (%rax),%rax
   11b13:	48 8b 00             	mov    (%rax),%rax
   11b16:	0f b6 d2             	movzbl %dl,%edx
   11b19:	48 89 10             	mov    %rdx,(%rax)
   11b1c:	48 8b 10             	mov    (%rax),%rdx
   11b1f:	8b 85 5c e8 ff ff    	mov    -0x17a4(%rbp),%eax
   11b25:	48 39 c2             	cmp    %rax,%rdx
   11b28:	0f 95 c2             	setne  %dl
   11b2b:	48 8b 85 70 e9 ff ff 	mov    -0x1690(%rbp),%rax
   11b32:	48 8b 00             	mov    (%rax),%rax
   11b35:	48 8b 00             	mov    (%rax),%rax
   11b38:	48 8b 00             	mov    (%rax),%rax
   11b3b:	88 10                	mov    %dl,(%rax)
   11b3d:	0f b6 00             	movzbl (%rax),%eax
   11b40:	0f b6 c0             	movzbl %al,%eax
   11b43:	be 01 00 00 00       	mov    $0x1,%esi
   11b48:	89 c7                	mov    %eax,%edi
   11b4a:	e8 29 90 ff ff       	callq  ab78 <safe_sub_func_uint8_t_u_u>
   11b4f:	0f b6 c0             	movzbl %al,%eax
   11b52:	44 31 e8             	xor    %r13d,%eax
   11b55:	98                   	cwtl   
   11b56:	be 0c 00 00 00       	mov    $0xc,%esi
   11b5b:	89 c7                	mov    %eax,%edi
   11b5d:	e8 30 89 ff ff       	callq  a492 <safe_lshift_func_int16_t_s_s>
   11b62:	98                   	cwtl   
   11b63:	41 39 c4             	cmp    %eax,%r12d
   11b66:	0f 9d c0             	setge  %al
   11b69:	0f b6 d0             	movzbl %al,%edx
   11b6c:	0f b6 85 6c e7 ff ff 	movzbl -0x1894(%rbp),%eax
   11b73:	39 c2                	cmp    %eax,%edx
   11b75:	0f 9d c0             	setge  %al
   11b78:	0f b6 d0             	movzbl %al,%edx
   11b7b:	48 8b 05 c6 fe 00 00 	mov    0xfec6(%rip),%rax        # 21a48 <g_174>
   11b82:	0f b7 08             	movzwl (%rax),%ecx
   11b85:	83 c1 01             	add    $0x1,%ecx
   11b88:	66 89 08             	mov    %cx,(%rax)
   11b8b:	0f b7 00             	movzwl (%rax),%eax
   11b8e:	0f b7 c0             	movzwl %ax,%eax
   11b91:	89 d6                	mov    %edx,%esi
   11b93:	89 c7                	mov    %eax,%edi
   11b95:	e8 ae 92 ff ff       	callq  ae48 <safe_rshift_func_uint16_t_u_s>
   11b9a:	66 85 c0             	test   %ax,%ax
   11b9d:	0f 84 7c 08 00 00    	je     1241f <func_33+0x25b3>
   11ba3:	48 8d 85 80 ea ff ff 	lea    -0x1580(%rbp),%rax
   11baa:	48 83 c0 08          	add    $0x8,%rax
   11bae:	48 89 85 98 e9 ff ff 	mov    %rax,-0x1668(%rbp)
   11bb5:	48 c7 85 a0 e9 ff ff 	movq   $0x0,-0x1660(%rbp)
   11bbc:	00 00 00 00 
   11bc0:	48 8d 85 80 ea ff ff 	lea    -0x1580(%rbp),%rax
   11bc7:	48 89 85 a8 e9 ff ff 	mov    %rax,-0x1658(%rbp)
   11bce:	48 8d 85 a0 e7 ff ff 	lea    -0x1860(%rbp),%rax
   11bd5:	48 89 85 b0 e9 ff ff 	mov    %rax,-0x1650(%rbp)
   11bdc:	48 c7 85 b8 e9 ff ff 	movq   $0x0,-0x1648(%rbp)
   11be3:	00 00 00 00 
   11be7:	48 8d 05 d2 d5 00 00 	lea    0xd5d2(%rip),%rax        # 1f1c0 <g_523>
   11bee:	48 89 85 c0 e9 ff ff 	mov    %rax,-0x1640(%rbp)
   11bf5:	48 8d 05 40 d4 00 00 	lea    0xd440(%rip),%rax        # 1f03c <g_75>
   11bfc:	48 89 85 c8 e9 ff ff 	mov    %rax,-0x1638(%rbp)
   11c03:	48 8d 85 a4 e7 ff ff 	lea    -0x185c(%rbp),%rax
   11c0a:	48 89 85 d0 e9 ff ff 	mov    %rax,-0x1630(%rbp)
   11c11:	48 8d 05 a8 d5 00 00 	lea    0xd5a8(%rip),%rax        # 1f1c0 <g_523>
   11c18:	48 89 85 f0 eb ff ff 	mov    %rax,-0x1410(%rbp)
   11c1f:	48 8d 05 c6 15 01 00 	lea    0x115c6(%rip),%rax        # 231ec <g_1844>
   11c26:	48 89 85 f8 eb ff ff 	mov    %rax,-0x1408(%rbp)
   11c2d:	48 8d 05 b8 15 01 00 	lea    0x115b8(%rip),%rax        # 231ec <g_1844>
   11c34:	48 89 85 00 ec ff ff 	mov    %rax,-0x1400(%rbp)
   11c3b:	48 8d 05 7e d5 00 00 	lea    0xd57e(%rip),%rax        # 1f1c0 <g_523>
   11c42:	48 89 85 08 ec ff ff 	mov    %rax,-0x13f8(%rbp)
   11c49:	48 8d 05 9c 15 01 00 	lea    0x1159c(%rip),%rax        # 231ec <g_1844>
   11c50:	48 89 85 10 ec ff ff 	mov    %rax,-0x13f0(%rbp)
   11c57:	48 8d 05 8e 15 01 00 	lea    0x1158e(%rip),%rax        # 231ec <g_1844>
   11c5e:	48 89 85 18 ec ff ff 	mov    %rax,-0x13e8(%rbp)
   11c65:	c7 85 84 e8 ff ff e8 	movl   $0xe04c8fe8,-0x177c(%rbp)
   11c6c:	8f 4c e0 
   11c6f:	48 8d 85 50 eb ff ff 	lea    -0x14b0(%rbp),%rax
   11c76:	48 83 c0 30          	add    $0x30,%rax
   11c7a:	48 89 85 d8 e9 ff ff 	mov    %rax,-0x1628(%rbp)
   11c81:	c7 85 a0 ea ff ff 05 	movl   $0x5,-0x1560(%rbp)
   11c88:	00 00 00 
   11c8b:	c7 85 a4 ea ff ff 05 	movl   $0x5,-0x155c(%rbp)
   11c92:	00 00 00 
   11c95:	c7 85 a8 ea ff ff 05 	movl   $0x5,-0x1558(%rbp)
   11c9c:	00 00 00 
   11c9f:	c7 85 ac ea ff ff 05 	movl   $0x5,-0x1554(%rbp)
   11ca6:	00 00 00 
   11ca9:	c6 05 c6 d3 00 00 03 	movb   $0x3,0xd3c6(%rip)        # 1f076 <g_182>
   11cb0:	eb 53                	jmp    11d05 <func_33+0x1e99>
   11cb2:	48 8d 05 4f 04 01 00 	lea    0x1044f(%rip),%rax        # 22108 <g_690>
   11cb9:	48 89 85 08 ea ff ff 	mov    %rax,-0x15f8(%rbp)
   11cc0:	48 8b 05 21 fb 00 00 	mov    0xfb21(%rip),%rax        # 217e8 <g_56>
   11cc7:	48 8b 95 60 e7 ff ff 	mov    -0x18a0(%rbp),%rdx
   11cce:	48 89 10             	mov    %rdx,(%rax)
   11cd1:	48 8b 95 a0 e8 ff ff 	mov    -0x1760(%rbp),%rdx
   11cd8:	48 8b 12             	mov    (%rdx),%rdx
   11cdb:	48 8b 00             	mov    (%rax),%rax
   11cde:	48 89 02             	mov    %rax,(%rdx)
   11ce1:	48 8b 85 58 e7 ff ff 	mov    -0x18a8(%rbp),%rax
   11ce8:	48 8b 10             	mov    (%rax),%rdx
   11ceb:	48 8b 85 08 ea ff ff 	mov    -0x15f8(%rbp),%rax
   11cf2:	48 89 10             	mov    %rdx,(%rax)
   11cf5:	0f b6 05 7a d3 00 00 	movzbl 0xd37a(%rip),%eax        # 1f076 <g_182>
   11cfc:	83 c0 01             	add    $0x1,%eax
   11cff:	88 05 71 d3 00 00    	mov    %al,0xd371(%rip)        # 1f076 <g_182>
   11d05:	0f b6 05 6a d3 00 00 	movzbl 0xd36a(%rip),%eax        # 1f076 <g_182>
   11d0c:	3c 08                	cmp    $0x8,%al
   11d0e:	7e a2                	jle    11cb2 <func_33+0x1e46>
   11d10:	83 85 84 e8 ff ff 01 	addl   $0x1,-0x177c(%rbp)
   11d17:	c6 05 58 d3 00 00 00 	movb   $0x0,0xd358(%rip)        # 1f076 <g_182>
   11d1e:	eb 2d                	jmp    11d4d <func_33+0x1ee1>
   11d20:	48 8b 05 41 04 01 00 	mov    0x10441(%rip),%rax        # 22168 <g_1066>
   11d27:	8b 10                	mov    (%rax),%edx
   11d29:	48 8b 85 d0 e9 ff ff 	mov    -0x1630(%rbp),%rax
   11d30:	8b 00                	mov    (%rax),%eax
   11d32:	31 c2                	xor    %eax,%edx
   11d34:	48 8b 85 d0 e9 ff ff 	mov    -0x1630(%rbp),%rax
   11d3b:	89 10                	mov    %edx,(%rax)
   11d3d:	0f b6 05 32 d3 00 00 	movzbl 0xd332(%rip),%eax        # 1f076 <g_182>
   11d44:	83 c0 01             	add    $0x1,%eax
   11d47:	88 05 29 d3 00 00    	mov    %al,0xd329(%rip)        # 1f076 <g_182>
   11d4d:	0f b6 05 22 d3 00 00 	movzbl 0xd322(%rip),%eax        # 1f076 <g_182>
   11d54:	3c 01                	cmp    $0x1,%al
   11d56:	7e c8                	jle    11d20 <func_33+0x1eb4>
   11d58:	c6 05 e1 d2 00 00 01 	movb   $0x1,0xd2e1(%rip)        # 1f040 <g_106>
   11d5f:	e9 a7 06 00 00       	jmpq   1240b <func_33+0x259f>
   11d64:	48 8d 85 98 e8 ff ff 	lea    -0x1768(%rbp),%rax
   11d6b:	48 89 85 e0 e9 ff ff 	mov    %rax,-0x1620(%rbp)
   11d72:	c7 85 00 ed ff ff 09 	movl   $0x9,-0x1300(%rbp)
   11d79:	00 00 00 
   11d7c:	c7 85 04 ed ff ff ff 	movl   $0xffffffff,-0x12fc(%rbp)
   11d83:	ff ff ff 
   11d86:	c7 85 08 ed ff ff 09 	movl   $0x9,-0x12f8(%rbp)
   11d8d:	00 00 00 
   11d90:	c7 85 0c ed ff ff fc 	movl   $0xfffffffc,-0x12f4(%rbp)
   11d97:	ff ff ff 
   11d9a:	c7 85 10 ed ff ff ff 	movl   $0xffffffff,-0x12f0(%rbp)
   11da1:	ff ff ff 
   11da4:	c7 85 14 ed ff ff 32 	movl   $0xe34f9a32,-0x12ec(%rbp)
   11dab:	9a 4f e3 
   11dae:	c7 85 18 ed ff ff 32 	movl   $0xe34f9a32,-0x12e8(%rbp)
   11db5:	9a 4f e3 
   11db8:	c7 85 1c ed ff ff ff 	movl   $0xffffffff,-0x12e4(%rbp)
   11dbf:	ff ff ff 
   11dc2:	c7 85 20 ed ff ff fc 	movl   $0xfffffffc,-0x12e0(%rbp)
   11dc9:	ff ff ff 
   11dcc:	c7 85 24 ed ff ff 09 	movl   $0x9,-0x12dc(%rbp)
   11dd3:	00 00 00 
   11dd6:	c7 85 28 ed ff ff ff 	movl   $0xffffffff,-0x12d8(%rbp)
   11ddd:	ff ff ff 
   11de0:	c7 85 2c ed ff ff 09 	movl   $0x9,-0x12d4(%rbp)
   11de7:	00 00 00 
   11dea:	c7 85 30 ed ff ff fc 	movl   $0xfffffffc,-0x12d0(%rbp)
   11df1:	ff ff ff 
   11df4:	c7 85 34 ed ff ff ff 	movl   $0xffffffff,-0x12cc(%rbp)
   11dfb:	ff ff ff 
   11dfe:	c7 85 38 ed ff ff 32 	movl   $0xe34f9a32,-0x12c8(%rbp)
   11e05:	9a 4f e3 
   11e08:	c7 85 3c ed ff ff 32 	movl   $0xe34f9a32,-0x12c4(%rbp)
   11e0f:	9a 4f e3 
   11e12:	c7 85 40 ed ff ff ff 	movl   $0xffffffff,-0x12c0(%rbp)
   11e19:	ff ff ff 
   11e1c:	c7 85 44 ed ff ff fc 	movl   $0xfffffffc,-0x12bc(%rbp)
   11e23:	ff ff ff 
   11e26:	c7 85 48 ed ff ff 09 	movl   $0x9,-0x12b8(%rbp)
   11e2d:	00 00 00 
   11e30:	c7 85 4c ed ff ff ff 	movl   $0xffffffff,-0x12b4(%rbp)
   11e37:	ff ff ff 
   11e3a:	c7 85 50 ed ff ff 09 	movl   $0x9,-0x12b0(%rbp)
   11e41:	00 00 00 
   11e44:	c7 85 54 ed ff ff fc 	movl   $0xfffffffc,-0x12ac(%rbp)
   11e4b:	ff ff ff 
   11e4e:	c7 85 58 ed ff ff ff 	movl   $0xffffffff,-0x12a8(%rbp)
   11e55:	ff ff ff 
   11e58:	c7 85 5c ed ff ff 32 	movl   $0xe34f9a32,-0x12a4(%rbp)
   11e5f:	9a 4f e3 
   11e62:	c7 85 60 ed ff ff 32 	movl   $0xe34f9a32,-0x12a0(%rbp)
   11e69:	9a 4f e3 
   11e6c:	c7 85 64 ed ff ff ff 	movl   $0xffffffff,-0x129c(%rbp)
   11e73:	ff ff ff 
   11e76:	c7 85 68 ed ff ff fc 	movl   $0xfffffffc,-0x1298(%rbp)
   11e7d:	ff ff ff 
   11e80:	c7 85 6c ed ff ff 09 	movl   $0x9,-0x1294(%rbp)
   11e87:	00 00 00 
   11e8a:	c7 85 70 ed ff ff ff 	movl   $0xffffffff,-0x1290(%rbp)
   11e91:	ff ff ff 
   11e94:	c7 85 74 ed ff ff 09 	movl   $0x9,-0x128c(%rbp)
   11e9b:	00 00 00 
   11e9e:	c7 85 78 ed ff ff fc 	movl   $0xfffffffc,-0x1288(%rbp)
   11ea5:	ff ff ff 
   11ea8:	c7 85 7c ed ff ff ff 	movl   $0xffffffff,-0x1284(%rbp)
   11eaf:	ff ff ff 
   11eb2:	c7 85 80 ed ff ff 32 	movl   $0xe34f9a32,-0x1280(%rbp)
   11eb9:	9a 4f e3 
   11ebc:	c7 85 84 ed ff ff 32 	movl   $0xe34f9a32,-0x127c(%rbp)
   11ec3:	9a 4f e3 
   11ec6:	c7 85 88 ed ff ff ff 	movl   $0xffffffff,-0x1278(%rbp)
   11ecd:	ff ff ff 
   11ed0:	c7 85 8c ed ff ff fc 	movl   $0xfffffffc,-0x1274(%rbp)
   11ed7:	ff ff ff 
   11eda:	c7 85 90 ed ff ff 09 	movl   $0x9,-0x1270(%rbp)
   11ee1:	00 00 00 
   11ee4:	c7 85 94 ed ff ff ff 	movl   $0xffffffff,-0x126c(%rbp)
   11eeb:	ff ff ff 
   11eee:	c7 85 98 ed ff ff 09 	movl   $0x9,-0x1268(%rbp)
   11ef5:	00 00 00 
   11ef8:	c7 85 9c ed ff ff fc 	movl   $0xfffffffc,-0x1264(%rbp)
   11eff:	ff ff ff 
   11f02:	c7 85 a0 ed ff ff ff 	movl   $0xffffffff,-0x1260(%rbp)
   11f09:	ff ff ff 
   11f0c:	c7 85 a4 ed ff ff 32 	movl   $0xe34f9a32,-0x125c(%rbp)
   11f13:	9a 4f e3 
   11f16:	c7 85 a8 ed ff ff 32 	movl   $0xe34f9a32,-0x1258(%rbp)
   11f1d:	9a 4f e3 
   11f20:	c7 85 ac ed ff ff ff 	movl   $0xffffffff,-0x1254(%rbp)
   11f27:	ff ff ff 
   11f2a:	c7 85 b0 ed ff ff fc 	movl   $0xfffffffc,-0x1250(%rbp)
   11f31:	ff ff ff 
   11f34:	66 c7 85 9a e7 ff ff 	movw   $0xffff,-0x1866(%rbp)
   11f3b:	ff ff 
   11f3d:	48 8d 05 32 d1 00 00 	lea    0xd132(%rip),%rax        # 1f076 <g_182>
   11f44:	48 89 85 c0 e8 ff ff 	mov    %rax,-0x1740(%rbp)
   11f4b:	48 8d 85 c0 e8 ff ff 	lea    -0x1740(%rbp),%rax
   11f52:	48 89 85 e8 e9 ff ff 	mov    %rax,-0x1618(%rbp)
   11f59:	48 c7 85 f0 e9 ff ff 	movq   $0x0,-0x1610(%rbp)
   11f60:	00 00 00 00 
   11f64:	48 8d 85 40 ec ff ff 	lea    -0x13c0(%rbp),%rax
   11f6b:	48 83 c0 30          	add    $0x30,%rax
   11f6f:	48 89 85 f8 e9 ff ff 	mov    %rax,-0x1608(%rbp)
   11f76:	48 b8 34 fb 82 8a 77 	movabs $0x76e5f3778a82fb34,%rax
   11f7d:	f3 e5 76 
   11f80:	48 89 85 00 ea ff ff 	mov    %rax,-0x1600(%rbp)
   11f87:	c7 85 c8 e7 ff ff 00 	movl   $0x0,-0x1838(%rbp)
   11f8e:	00 00 00 
   11f91:	eb 4a                	jmp    11fdd <func_33+0x2171>
   11f93:	c7 85 cc e7 ff ff 00 	movl   $0x0,-0x1834(%rbp)
   11f9a:	00 00 00 
   11f9d:	eb 2e                	jmp    11fcd <func_33+0x2161>
   11f9f:	8b 85 cc e7 ff ff    	mov    -0x1834(%rbp),%eax
   11fa5:	48 63 d0             	movslq %eax,%rdx
   11fa8:	8b 85 c8 e7 ff ff    	mov    -0x1838(%rbp),%eax
   11fae:	48 98                	cltq   
   11fb0:	48 01 d0             	add    %rdx,%rax
   11fb3:	48 8d 95 f0 ea ff ff 	lea    -0x1510(%rbp),%rdx
   11fba:	48 83 c2 20          	add    $0x20,%rdx
   11fbe:	48 89 94 c5 48 ea ff 	mov    %rdx,-0x15b8(%rbp,%rax,8)
   11fc5:	ff 
   11fc6:	83 85 cc e7 ff ff 01 	addl   $0x1,-0x1834(%rbp)
   11fcd:	83 bd cc e7 ff ff 00 	cmpl   $0x0,-0x1834(%rbp)
   11fd4:	7e c9                	jle    11f9f <func_33+0x2133>
   11fd6:	83 85 c8 e7 ff ff 01 	addl   $0x1,-0x1838(%rbp)
   11fdd:	83 bd c8 e7 ff ff 00 	cmpl   $0x0,-0x1838(%rbp)
   11fe4:	7e ad                	jle    11f93 <func_33+0x2127>
   11fe6:	c7 85 c8 e7 ff ff 00 	movl   $0x0,-0x1838(%rbp)
   11fed:	00 00 00 
   11ff0:	eb 1e                	jmp    12010 <func_33+0x21a4>
   11ff2:	8b 85 c8 e7 ff ff    	mov    -0x1838(%rbp),%eax
   11ff8:	48 98                	cltq   
   11ffa:	48 8d 95 82 e7 ff ff 	lea    -0x187e(%rbp),%rdx
   12001:	48 89 94 c5 a0 eb ff 	mov    %rdx,-0x1460(%rbp,%rax,8)
   12008:	ff 
   12009:	83 85 c8 e7 ff ff 01 	addl   $0x1,-0x1838(%rbp)
   12010:	83 bd c8 e7 ff ff 01 	cmpl   $0x1,-0x1838(%rbp)
   12017:	7e d9                	jle    11ff2 <func_33+0x2186>
   12019:	0f b6 05 20 d0 00 00 	movzbl 0xd020(%rip),%eax        # 1f040 <g_106>
   12020:	0f b6 c0             	movzbl %al,%eax
   12023:	48 98                	cltq   
   12025:	48 8d 14 85 00 00 00 	lea    0x0(,%rax,4),%rdx
   1202c:	00 
   1202d:	48 8d 05 6c d1 00 00 	lea    0xd16c(%rip),%rax        # 1f1a0 <g_453>
   12034:	8b 04 02             	mov    (%rdx,%rax,1),%eax
   12037:	85 c0                	test   %eax,%eax
   12039:	0f 85 f7 04 00 00    	jne    12536 <func_33+0x26ca>
   1203f:	0f bf 9d 68 e7 ff ff 	movswl -0x1898(%rbp),%ebx
   12046:	0f b7 85 68 e7 ff ff 	movzwl -0x1898(%rbp),%eax
   1204d:	44 0f b6 e0          	movzbl %al,%r12d
   12051:	44 0f bf ad 68 e7 ff 	movswl -0x1898(%rbp),%r13d
   12058:	ff 
   12059:	44 0f b6 b5 6c e7 ff 	movzbl -0x1894(%rbp),%r14d
   12060:	ff 
   12061:	be 3d 07 00 00       	mov    $0x73d,%esi
   12066:	bf 00 00 00 00       	mov    $0x0,%edi
   1206b:	e8 ec 8c ff ff       	callq  ad5c <safe_mod_func_uint16_t_u_u>
   12070:	0f b7 c0             	movzwl %ax,%eax
   12073:	be 07 00 00 00       	mov    $0x7,%esi
   12078:	89 c7                	mov    %eax,%edi
   1207a:	e8 7e 8e ff ff       	callq  aefd <safe_mod_func_uint32_t_u_u>
   1207f:	0f b7 c0             	movzwl %ax,%eax
   12082:	44 89 f6             	mov    %r14d,%esi
   12085:	89 c7                	mov    %eax,%edi
   12087:	e8 ee 8d ff ff       	callq  ae7a <safe_rshift_func_uint16_t_u_u>
   1208c:	0f b7 d0             	movzwl %ax,%edx
   1208f:	8b 05 cb cf 00 00    	mov    0xcfcb(%rip),%eax        # 1f060 <g_109+0x10>
   12095:	98                   	cwtl   
   12096:	89 d6                	mov    %edx,%esi
   12098:	89 c7                	mov    %eax,%edi
   1209a:	e8 42 84 ff ff       	callq  a4e1 <safe_lshift_func_int16_t_s_u>
   1209f:	0f be c0             	movsbl %al,%eax
   120a2:	44 89 ee             	mov    %r13d,%esi
   120a5:	89 c7                	mov    %eax,%edi
   120a7:	e8 c0 82 ff ff       	callq  a36c <safe_rshift_func_int8_t_s_u>
   120ac:	0f b7 85 68 e7 ff ff 	movzwl -0x1898(%rbp),%eax
   120b3:	0f b6 c0             	movzbl %al,%eax
   120b6:	44 89 e6             	mov    %r12d,%esi
   120b9:	89 c7                	mov    %eax,%edi
   120bb:	e8 9a 8a ff ff       	callq  ab5a <safe_add_func_uint8_t_u_u>
   120c0:	0f bf 85 68 e7 ff ff 	movswl -0x1898(%rbp),%eax
   120c7:	0d 05 98 00 00       	or     $0x9805,%eax
   120cc:	41 89 c4             	mov    %eax,%r12d
   120cf:	0f b6 85 6c e7 ff ff 	movzbl -0x1894(%rbp),%eax
   120d6:	48 89 c6             	mov    %rax,%rsi
   120d9:	bf 01 00 00 00       	mov    $0x1,%edi
   120de:	e8 4b 8f ff ff       	callq  b02e <safe_add_func_uint64_t_u_u>
   120e3:	0f b7 d0             	movzwl %ax,%edx
   120e6:	48 8b 85 10 eb ff ff 	mov    -0x14f0(%rbp),%rax
   120ed:	48 89 85 d8 e9 ff ff 	mov    %rax,-0x1628(%rbp)
   120f4:	48 8b 8d 98 e8 ff ff 	mov    -0x1768(%rbp),%rcx
   120fb:	48 8b 85 e0 e9 ff ff 	mov    -0x1620(%rbp),%rax
   12102:	48 89 08             	mov    %rcx,(%rax)
   12105:	48 8b 85 e0 e9 ff ff 	mov    -0x1620(%rbp),%rax
   1210c:	48 8b 00             	mov    (%rax),%rax
   1210f:	48 39 85 d8 e9 ff ff 	cmp    %rax,-0x1628(%rbp)
   12116:	0f 94 c0             	sete   %al
   12119:	0f b6 c0             	movzbl %al,%eax
   1211c:	89 d6                	mov    %edx,%esi
   1211e:	89 c7                	mov    %eax,%edi
   12120:	e8 18 8c ff ff       	callq  ad3d <safe_mul_func_uint16_t_u_u>
   12125:	0f be c0             	movsbl %al,%eax
   12128:	44 89 e6             	mov    %r12d,%esi
   1212b:	89 c7                	mov    %eax,%edi
   1212d:	e8 bc 81 ff ff       	callq  a2ee <safe_lshift_func_int8_t_s_u>
   12132:	0f be c0             	movsbl %al,%eax
   12135:	89 de                	mov    %ebx,%esi
   12137:	89 c7                	mov    %eax,%edi
   12139:	e8 75 82 ff ff       	callq  a3b3 <safe_add_func_int16_t_s_s>
   1213e:	98                   	cwtl   
   1213f:	89 c6                	mov    %eax,%esi
   12141:	bf ff ff 00 00       	mov    $0xffff,%edi
   12146:	e8 2f 8d ff ff       	callq  ae7a <safe_rshift_func_uint16_t_u_u>
   1214b:	0f b7 d0             	movzwl %ax,%edx
   1214e:	8b 05 08 cf 00 00    	mov    0xcf08(%rip),%eax        # 1f05c <g_109+0xc>
   12154:	39 c2                	cmp    %eax,%edx
   12156:	73 07                	jae    1215f <func_33+0x22f3>
   12158:	b8 01 00 00 00       	mov    $0x1,%eax
   1215d:	eb 05                	jmp    12164 <func_33+0x22f8>
   1215f:	b8 00 00 00 00       	mov    $0x0,%eax
   12164:	0f b7 d0             	movzwl %ax,%edx
   12167:	0f b7 85 68 e7 ff ff 	movzwl -0x1898(%rbp),%eax
   1216e:	0f b7 c0             	movzwl %ax,%eax
   12171:	89 d6                	mov    %edx,%esi
   12173:	89 c7                	mov    %eax,%edi
   12175:	e8 c3 8b ff ff       	callq  ad3d <safe_mul_func_uint16_t_u_u>
   1217a:	8b 05 3c d0 00 00    	mov    0xd03c(%rip),%eax        # 1f1bc <g_521>
   12180:	85 c0                	test   %eax,%eax
   12182:	74 07                	je     1218b <func_33+0x231f>
   12184:	ba 01 00 00 00       	mov    $0x1,%edx
   12189:	eb 05                	jmp    12190 <func_33+0x2324>
   1218b:	ba 00 00 00 00       	mov    $0x0,%edx
   12190:	48 8b 85 98 e9 ff ff 	mov    -0x1668(%rbp),%rax
   12197:	89 10                	mov    %edx,(%rax)
   12199:	48 8b 85 00 ea ff ff 	mov    -0x1600(%rbp),%rax
   121a0:	0f b6 d8             	movzbl %al,%ebx
   121a3:	44 0f bf a5 68 e7 ff 	movswl -0x1898(%rbp),%r12d
   121aa:	ff 
   121ab:	8b 85 1c ed ff ff    	mov    -0x12e4(%rbp),%eax
   121b1:	44 0f b6 e8          	movzbl %al,%r13d
   121b5:	0f b6 85 6c e7 ff ff 	movzbl -0x1894(%rbp),%eax
   121bc:	89 85 4c e8 ff ff    	mov    %eax,-0x17b4(%rbp)
   121c2:	8b 85 4c e8 ff ff    	mov    -0x17b4(%rbp),%eax
   121c8:	89 c2                	mov    %eax,%edx
   121ca:	66 83 85 9a e7 ff ff 	addw   $0x1,-0x1866(%rbp)
   121d1:	01 
   121d2:	0f b7 85 9a e7 ff ff 	movzwl -0x1866(%rbp),%eax
   121d9:	31 d0                	xor    %edx,%eax
   121db:	44 0f bf f0          	movswl %ax,%r14d
   121df:	48 8b 05 42 03 01 00 	mov    0x10342(%rip),%rax        # 22528 <g_1658>
   121e6:	48 8b 00             	mov    (%rax),%rax
   121e9:	48 8b 00             	mov    (%rax),%rax
   121ec:	0f b7 00             	movzwl (%rax),%eax
   121ef:	0f b7 c0             	movzwl %ax,%eax
   121f2:	be 03 00 00 00       	mov    $0x3,%esi
   121f7:	89 c7                	mov    %eax,%edi
   121f9:	e8 08 8c ff ff       	callq  ae06 <safe_lshift_func_uint16_t_u_u>
   121fe:	98                   	cwtl   
   121ff:	44 89 f6             	mov    %r14d,%esi
   12202:	89 c7                	mov    %eax,%edi
   12204:	e8 ec 81 ff ff       	callq  a3f5 <safe_mul_func_int16_t_s_s>
   12209:	8b 85 a0 e7 ff ff    	mov    -0x1860(%rbp),%eax
   1220f:	41 89 c6             	mov    %eax,%r14d
   12212:	8b 85 48 e8 ff ff    	mov    -0x17b8(%rbp),%eax
   12218:	0f be d0             	movsbl %al,%edx
   1221b:	48 83 bd e8 e9 ff ff 	cmpq   $0x0,-0x1618(%rbp)
   12222:	00 
   12223:	0f 94 c0             	sete   %al
   12226:	0f b6 c8             	movzbl %al,%ecx
   12229:	0f b6 85 6c e7 ff ff 	movzbl -0x1894(%rbp),%eax
   12230:	39 c1                	cmp    %eax,%ecx
   12232:	0f 9d c0             	setge  %al
   12235:	0f b6 c0             	movzbl %al,%eax
   12238:	89 d6                	mov    %edx,%esi
   1223a:	89 c7                	mov    %eax,%edi
   1223c:	e8 f0 7f ff ff       	callq  a231 <safe_mod_func_int8_t_s_s>
   12241:	89 c2                	mov    %eax,%edx
   12243:	48 8b 85 e8 e9 ff ff 	mov    -0x1618(%rbp),%rax
   1224a:	48 8b 00             	mov    (%rax),%rax
   1224d:	0f b6 08             	movzbl (%rax),%ecx
   12250:	48 8b 85 e8 e9 ff ff 	mov    -0x1618(%rbp),%rax
   12257:	48 8b 00             	mov    (%rax),%rax
   1225a:	09 ca                	or     %ecx,%edx
   1225c:	88 10                	mov    %dl,(%rax)
   1225e:	0f b6 00             	movzbl (%rax),%eax
   12261:	0f be d0             	movsbl %al,%edx
   12264:	0f b6 85 6c e7 ff ff 	movzbl -0x1894(%rbp),%eax
   1226b:	39 c2                	cmp    %eax,%edx
   1226d:	0f 94 c0             	sete   %al
   12270:	0f b6 c0             	movzbl %al,%eax
   12273:	44 89 f6             	mov    %r14d,%esi
   12276:	89 c7                	mov    %eax,%edi
   12278:	e8 80 8c ff ff       	callq  aefd <safe_mod_func_uint32_t_u_u>
   1227d:	48 8b 05 74 00 01 00 	mov    0x10074(%rip),%rax        # 222f8 <g_1356>
   12284:	48 8b 00             	mov    (%rax),%rax
   12287:	48 8b 00             	mov    (%rax),%rax
   1228a:	48 85 c0             	test   %rax,%rax
   1228d:	0f 9f c0             	setg   %al
   12290:	0f b6 c0             	movzbl %al,%eax
   12293:	66 89 05 1e cf 00 00 	mov    %ax,0xcf1e(%rip)        # 1f1b8 <g_486>
   1229a:	0f b7 05 17 cf 00 00 	movzwl 0xcf17(%rip),%eax        # 1f1b8 <g_486>
   122a1:	0f bf d0             	movswl %ax,%edx
   122a4:	8b 05 7e cd 00 00    	mov    0xcd7e(%rip),%eax        # 1f028 <g_3>
   122aa:	39 c2                	cmp    %eax,%edx
   122ac:	0f 95 c0             	setne  %al
   122af:	0f b6 d0             	movzbl %al,%edx
   122b2:	0f bf 85 68 e7 ff ff 	movswl -0x1898(%rbp),%eax
   122b9:	39 c2                	cmp    %eax,%edx
   122bb:	48 8b 85 98 e9 ff ff 	mov    -0x1668(%rbp),%rax
   122c2:	8b 10                	mov    (%rax),%edx
   122c4:	0f b7 85 96 e7 ff ff 	movzwl -0x186a(%rbp),%eax
   122cb:	39 c2                	cmp    %eax,%edx
   122cd:	0f 95 c0             	setne  %al
   122d0:	0f b6 d0             	movzbl %al,%edx
   122d3:	48 8b 85 d0 e9 ff ff 	mov    -0x1630(%rbp),%rax
   122da:	89 10                	mov    %edx,(%rax)
   122dc:	48 8b 85 d0 e9 ff ff 	mov    -0x1630(%rbp),%rax
   122e3:	8b 10                	mov    (%rax),%edx
   122e5:	48 8b 85 a8 e9 ff ff 	mov    -0x1658(%rbp),%rax
   122ec:	89 10                	mov    %edx,(%rax)
   122ee:	48 8b 85 a8 e9 ff ff 	mov    -0x1658(%rbp),%rax
   122f5:	8b 00                	mov    (%rax),%eax
   122f7:	0f b6 c0             	movzbl %al,%eax
   122fa:	25 f2 00 00 00       	and    $0xf2,%eax
   122ff:	44 89 ee             	mov    %r13d,%esi
   12302:	89 c7                	mov    %eax,%edi
   12304:	e8 8a 88 ff ff       	callq  ab93 <safe_mul_func_uint8_t_u_u>
   12309:	0f be c0             	movsbl %al,%eax
   1230c:	be 00 00 00 00       	mov    $0x0,%esi
   12311:	89 c7                	mov    %eax,%edi
   12313:	e8 54 80 ff ff       	callq  a36c <safe_rshift_func_int8_t_s_u>
   12318:	48 0f be d0          	movsbq %al,%rdx
   1231c:	0f b6 85 6c e7 ff ff 	movzbl -0x1894(%rbp),%eax
   12323:	48 21 d0             	and    %rdx,%rax
   12326:	48 3d 84 00 00 00    	cmp    $0x84,%rax
   1232c:	0f 97 c0             	seta   %al
   1232f:	0f b6 c0             	movzbl %al,%eax
   12332:	89 c7                	mov    %eax,%edi
   12334:	e8 6d 8b ff ff       	callq  aea6 <safe_unary_minus_func_uint32_t_u>
   12339:	0f b7 85 68 e7 ff ff 	movzwl -0x1898(%rbp),%eax
   12340:	0f b7 c0             	movzwl %ax,%eax
   12343:	89 c7                	mov    %eax,%edi
   12345:	e8 9f 89 ff ff       	callq  ace9 <safe_unary_minus_func_uint16_t_u>
   1234a:	0f b7 c0             	movzwl %ax,%eax
   1234d:	44 89 e6             	mov    %r12d,%esi
   12350:	89 c7                	mov    %eax,%edi
   12352:	e8 a8 83 ff ff       	callq  a6ff <safe_div_func_int32_t_s_s>
   12357:	48 8b 95 b8 ec ff ff 	mov    -0x1348(%rbp),%rdx
   1235e:	48 8b 85 f8 e9 ff ff 	mov    -0x1608(%rbp),%rax
   12365:	48 89 10             	mov    %rdx,(%rax)
   12368:	48 8b 05 d9 f6 00 00 	mov    0xf6d9(%rip),%rax        # 21a48 <g_174>
   1236f:	0f b7 10             	movzwl (%rax),%edx
   12372:	83 ea 01             	sub    $0x1,%edx
   12375:	66 89 10             	mov    %dx,(%rax)
   12378:	0f b7 00             	movzwl (%rax),%eax
   1237b:	0f b7 d0             	movzwl %ax,%edx
   1237e:	48 8b 85 a8 e9 ff ff 	mov    -0x1658(%rbp),%rax
   12385:	8b 00                	mov    (%rax),%eax
   12387:	39 c2                	cmp    %eax,%edx
   12389:	7f 0d                	jg     12398 <func_33+0x252c>
   1238b:	48 8b 05 5e ff 00 00 	mov    0xff5e(%rip),%rax        # 222f0 <g_1357>
   12392:	48 8b 00             	mov    (%rax),%rax
   12395:	48 85 c0             	test   %rax,%rax
   12398:	8b 85 48 e8 ff ff    	mov    -0x17b8(%rbp),%eax
   1239e:	83 c8 01             	or     $0x1,%eax
   123a1:	89 c1                	mov    %eax,%ecx
   123a3:	0f b6 05 96 cc 00 00 	movzbl 0xcc96(%rip),%eax        # 1f040 <g_106>
   123aa:	0f b6 c0             	movzbl %al,%eax
   123ad:	48 98                	cltq   
   123af:	48 8d 14 85 00 00 00 	lea    0x0(,%rax,4),%rdx
   123b6:	00 
   123b7:	48 8d 05 e2 cd 00 00 	lea    0xcde2(%rip),%rax        # 1f1a0 <g_453>
   123be:	8b 04 02             	mov    (%rdx,%rax,1),%eax
   123c1:	39 c1                	cmp    %eax,%ecx
   123c3:	0f 94 c0             	sete   %al
   123c6:	0f b6 c0             	movzbl %al,%eax
   123c9:	89 de                	mov    %ebx,%esi
   123cb:	89 c7                	mov    %eax,%edi
   123cd:	e8 88 87 ff ff       	callq  ab5a <safe_add_func_uint8_t_u_u>
   123d2:	8b 95 ec e7 ff ff    	mov    -0x1814(%rbp),%edx
   123d8:	48 8b 85 c0 e9 ff ff 	mov    -0x1640(%rbp),%rax
   123df:	8b 00                	mov    (%rax),%eax
   123e1:	21 c2                	and    %eax,%edx
   123e3:	48 8b 85 c0 e9 ff ff 	mov    -0x1640(%rbp),%rax
   123ea:	89 10                	mov    %edx,(%rax)
   123ec:	8b 85 ac ea ff ff    	mov    -0x1554(%rbp),%eax
   123f2:	83 e8 01             	sub    $0x1,%eax
   123f5:	89 85 ac ea ff ff    	mov    %eax,-0x1554(%rbp)
   123fb:	0f b6 05 3e cc 00 00 	movzbl 0xcc3e(%rip),%eax        # 1f040 <g_106>
   12402:	83 c0 01             	add    $0x1,%eax
   12405:	88 05 35 cc 00 00    	mov    %al,0xcc35(%rip)        # 1f040 <g_106>
   1240b:	0f b6 05 2e cc 00 00 	movzbl 0xcc2e(%rip),%eax        # 1f040 <g_106>
   12412:	3c 05                	cmp    $0x5,%al
   12414:	0f 86 4a f9 ff ff    	jbe    11d64 <func_33+0x1ef8>
   1241a:	e9 18 01 00 00       	jmpq   12537 <func_33+0x26cb>
   1241f:	48 b8 bb 05 66 e8 60 	movabs $0xb62b1260e86605bb,%rax
   12426:	12 2b b6 
   12429:	48 89 85 90 e9 ff ff 	mov    %rax,-0x1670(%rbp)
   12430:	c7 85 80 e8 ff ff 16 	movl   $0x7380c216,-0x1780(%rbp)
   12437:	c2 80 73 
   1243a:	8b 85 a0 e7 ff ff    	mov    -0x1860(%rbp),%eax
   12440:	89 85 48 e8 ff ff    	mov    %eax,-0x17b8(%rbp)
   12446:	c7 85 80 ea ff ff 00 	movl   $0x0,-0x1580(%rbp)
   1244d:	00 00 00 
   12450:	0f bf 95 68 e7 ff ff 	movswl -0x1898(%rbp),%edx
   12457:	48 8b 05 9a fe 00 00 	mov    0xfe9a(%rip),%rax        # 222f8 <g_1356>
   1245e:	48 8b 00             	mov    (%rax),%rax
   12461:	48 8b 00             	mov    (%rax),%rax
   12464:	48 83 f8 fb          	cmp    $0xfffffffffffffffb,%rax
   12468:	0f 97 c0             	seta   %al
   1246b:	0f b6 c0             	movzbl %al,%eax
   1246e:	39 c2                	cmp    %eax,%edx
   12470:	0f 95 c0             	setne  %al
   12473:	41 89 c4             	mov    %eax,%r12d
   12476:	48 8b 15 8b ce 00 00 	mov    0xce8b(%rip),%rdx        # 1f308 <g_2277+0xc8>
   1247d:	0f b6 85 6c e7 ff ff 	movzbl -0x1894(%rbp),%eax
   12484:	48 39 c2             	cmp    %rax,%rdx
   12487:	0f 97 c0             	seta   %al
   1248a:	0f b6 d8             	movzbl %al,%ebx
   1248d:	48 8b 05 b4 00 01 00 	mov    0x100b4(%rip),%rax        # 22548 <g_1698>
   12494:	48 8b 00             	mov    (%rax),%rax
   12497:	0f b6 95 6c e7 ff ff 	movzbl -0x1894(%rbp),%edx
   1249e:	88 10                	mov    %dl,(%rax)
   124a0:	0f b6 00             	movzbl (%rax),%eax
   124a3:	0f b6 c0             	movzbl %al,%eax
   124a6:	be 50 00 00 00       	mov    $0x50,%esi
   124ab:	89 c7                	mov    %eax,%edi
   124ad:	e8 e1 86 ff ff       	callq  ab93 <safe_mul_func_uint8_t_u_u>
   124b2:	0f b6 d0             	movzbl %al,%edx
   124b5:	0f bf 85 68 e7 ff ff 	movswl -0x1898(%rbp),%eax
   124bc:	39 c2                	cmp    %eax,%edx
   124be:	0f 9c c0             	setl   %al
   124c1:	0f b6 c0             	movzbl %al,%eax
   124c4:	39 c3                	cmp    %eax,%ebx
   124c6:	0f 9c c0             	setl   %al
   124c9:	44 31 e0             	xor    %r12d,%eax
   124cc:	0f b6 c0             	movzbl %al,%eax
   124cf:	be 06 00 00 00       	mov    $0x6,%esi
   124d4:	89 c7                	mov    %eax,%edi
   124d6:	e8 b2 87 ff ff       	callq  ac8d <safe_rshift_func_uint8_t_u_s>
   124db:	ba 01 00 00 00       	mov    $0x1,%edx
   124e0:	b8 fa ff ff ff       	mov    $0xfffffffa,%eax
   124e5:	0f b7 c0             	movzwl %ax,%eax
   124e8:	39 c2                	cmp    %eax,%edx
   124ea:	7c 07                	jl     124f3 <func_33+0x2687>
   124ec:	b8 01 00 00 00       	mov    $0x1,%eax
   124f1:	eb 05                	jmp    124f8 <func_33+0x268c>
   124f3:	b8 00 00 00 00       	mov    $0x0,%eax
   124f8:	89 c2                	mov    %eax,%edx
   124fa:	0f b6 85 81 e7 ff ff 	movzbl -0x187f(%rbp),%eax
   12501:	89 d6                	mov    %edx,%esi
   12503:	89 c7                	mov    %eax,%edi
   12505:	e8 1b 8a ff ff       	callq  af25 <safe_div_func_uint32_t_u_u>
   1250a:	48 0f bf 95 68 e7 ff 	movswq -0x1898(%rbp),%rdx
   12511:	ff 
   12512:	0f b6 85 6c e7 ff ff 	movzbl -0x1894(%rbp),%eax
   12519:	48 89 d6             	mov    %rdx,%rsi
   1251c:	48 89 c7             	mov    %rax,%rdi
   1251f:	e8 8b 8b ff ff       	callq  b0af <safe_div_func_uint64_t_u_u>
   12524:	48 83 f8 06          	cmp    $0x6,%rax
   12528:	0f 97 c0             	seta   %al
   1252b:	0f b6 c0             	movzbl %al,%eax
   1252e:	09 85 80 e8 ff ff    	or     %eax,-0x1780(%rbp)
   12534:	eb 01                	jmp    12537 <func_33+0x26cb>
   12536:	90                   	nop
   12537:	8b 05 ab 0c 01 00    	mov    0x10cab(%rip),%eax        # 231e8 <g_726>
   1253d:	83 c0 01             	add    $0x1,%eax
   12540:	89 05 a2 0c 01 00    	mov    %eax,0x10ca2(%rip)        # 231e8 <g_726>
   12546:	8b 05 9c 0c 01 00    	mov    0x10c9c(%rip),%eax        # 231e8 <g_726>
   1254c:	83 f8 28             	cmp    $0x28,%eax
   1254f:	0f 87 fb df ff ff    	ja     10550 <func_33+0x6e4>
   12555:	48 8b 05 8c f2 00 00 	mov    0xf28c(%rip),%rax        # 217e8 <g_56>
   1255c:	48 8b 95 60 e7 ff ff 	mov    -0x18a0(%rbp),%rdx
   12563:	48 89 10             	mov    %rdx,(%rax)
   12566:	48 8b 15 b3 fb 00 00 	mov    0xfbb3(%rip),%rdx        # 22120 <g_774>
   1256d:	48 8b 00             	mov    (%rax),%rax
   12570:	48 89 02             	mov    %rax,(%rdx)
   12573:	83 ad f0 e7 ff ff 01 	subl   $0x1,-0x1810(%rbp)
   1257a:	48 8b 85 10 e9 ff ff 	mov    -0x16f0(%rbp),%rax
   12581:	8b 10                	mov    (%rax),%edx
   12583:	48 8b 85 e8 e8 ff ff 	mov    -0x1718(%rbp),%rax
   1258a:	89 c1                	mov    %eax,%ecx
   1258c:	b8 67 7b 31 a3       	mov    $0xa3317b67,%eax
   12591:	98                   	cwtl   
   12592:	48 8b 1d 57 07 01 00 	mov    0x10757(%rip),%rbx        # 22cf0 <g_2289>
   12599:	89 ce                	mov    %ecx,%esi
   1259b:	89 c7                	mov    %eax,%edi
   1259d:	e8 61 13 00 00       	callq  13903 <func_47>
   125a2:	48 89 03             	mov    %rax,(%rbx)
   125a5:	c7 05 8d ca 00 00 15 	movl   $0x15,0xca8d(%rip)        # 1f03c <g_75>
   125ac:	00 00 00 
   125af:	e9 48 12 00 00       	jmpq   137fc <func_33+0x3990>
   125b4:	48 c7 85 18 e9 ff ff 	movq   $0xfffffffffffffffd,-0x16e8(%rbp)
   125bb:	fd ff ff ff 
   125bf:	c7 85 a0 e8 ff ff 03 	movl   $0x3,-0x1760(%rbp)
   125c6:	00 00 00 
   125c9:	c7 85 00 e8 ff ff 65 	movl   $0xcc3eca65,-0x1800(%rbp)
   125d0:	ca 3e cc 
   125d3:	48 b8 a8 9b 8c 0a b6 	movabs $0x9366b1b60a8c9ba8,%rax
   125da:	b1 66 93 
   125dd:	48 89 85 20 e9 ff ff 	mov    %rax,-0x16e0(%rbp)
   125e4:	c7 85 a8 e8 ff ff 10 	movl   $0x8a0d4a10,-0x1758(%rbp)
   125eb:	4a 0d 8a 
   125ee:	48 c7 85 28 e9 ff ff 	movq   $0x0,-0x16d8(%rbp)
   125f5:	00 00 00 00 
   125f9:	c7 85 04 e8 ff ff ac 	movl   $0x9092b1ac,-0x17fc(%rbp)
   12600:	b1 92 90 
   12603:	48 c7 85 30 e9 ff ff 	movq   $0x1,-0x16d0(%rbp)
   1260a:	01 00 00 00 
   1260e:	48 c7 85 b8 e8 ff ff 	movq   $0x0,-0x1748(%rbp)
   12615:	00 00 00 00 
   12619:	48 8d 85 b8 e8 ff ff 	lea    -0x1748(%rbp),%rax
   12620:	48 89 85 38 e9 ff ff 	mov    %rax,-0x16c8(%rbp)
   12627:	66 c7 85 8a e7 ff ff 	movw   $0x7874,-0x1876(%rbp)
   1262e:	74 78 
   12630:	48 8d 85 a8 e8 ff ff 	lea    -0x1758(%rbp),%rax
   12637:	48 89 85 40 e9 ff ff 	mov    %rax,-0x16c0(%rbp)
   1263e:	48 8d 05 bb fc 00 00 	lea    0xfcbb(%rip),%rax        # 22300 <g_1402>
   12645:	48 89 85 48 e9 ff ff 	mov    %rax,-0x16b8(%rbp)
   1264c:	c7 85 d0 e7 ff ff 00 	movl   $0x0,-0x1830(%rbp)
   12653:	00 00 00 
   12656:	eb 46                	jmp    1269e <func_33+0x2832>
   12658:	c7 85 d4 e7 ff ff 00 	movl   $0x0,-0x182c(%rbp)
   1265f:	00 00 00 
   12662:	eb 2a                	jmp    1268e <func_33+0x2822>
   12664:	8b 85 d4 e7 ff ff    	mov    -0x182c(%rbp),%eax
   1266a:	48 98                	cltq   
   1266c:	8b 95 d0 e7 ff ff    	mov    -0x1830(%rbp),%edx
   12672:	48 63 d2             	movslq %edx,%rdx
   12675:	48 01 d2             	add    %rdx,%rdx
   12678:	48 01 d0             	add    %rdx,%rax
   1267b:	48 c7 84 c5 50 ea ff 	movq   $0x0,-0x15b0(%rbp,%rax,8)
   12682:	ff 00 00 00 00 
   12687:	83 85 d4 e7 ff ff 01 	addl   $0x1,-0x182c(%rbp)
   1268e:	83 bd d4 e7 ff ff 01 	cmpl   $0x1,-0x182c(%rbp)
   12695:	7e cd                	jle    12664 <func_33+0x27f8>
   12697:	83 85 d0 e7 ff ff 01 	addl   $0x1,-0x1830(%rbp)
   1269e:	83 bd d0 e7 ff ff 00 	cmpl   $0x0,-0x1830(%rbp)
   126a5:	7e b1                	jle    12658 <func_33+0x27ec>
   126a7:	48 83 85 18 e9 ff ff 	addq   $0x1,-0x16e8(%rbp)
   126ae:	01 
   126af:	8b 9d f0 e7 ff ff    	mov    -0x1810(%rbp),%ebx
   126b5:	0f b7 85 68 e7 ff ff 	movzwl -0x1898(%rbp),%eax
   126bc:	44 0f be e0          	movsbl %al,%r12d
   126c0:	8b 85 70 ea ff ff    	mov    -0x1590(%rbp),%eax
   126c6:	44 0f b7 e8          	movzwl %ax,%r13d
   126ca:	bf 01 00 00 00       	mov    $0x1,%edi
   126cf:	e8 c2 7e ff ff       	callq  a596 <safe_unary_minus_func_int32_t_s>
   126d4:	48 8b 05 e5 fd 00 00 	mov    0xfde5(%rip),%rax        # 224c0 <g_1660>
   126db:	0f b7 00             	movzwl (%rax),%eax
   126de:	0f b7 c0             	movzwl %ax,%eax
   126e1:	44 89 ee             	mov    %r13d,%esi
   126e4:	89 c7                	mov    %eax,%edi
   126e6:	e8 34 86 ff ff       	callq  ad1f <safe_sub_func_uint16_t_u_u>
   126eb:	0f b7 d0             	movzwl %ax,%edx
   126ee:	0f b6 85 6c e7 ff ff 	movzbl -0x1894(%rbp),%eax
   126f5:	09 d0                	or     %edx,%eax
   126f7:	48 98                	cltq   
   126f9:	83 e0 01             	and    $0x1,%eax
   126fc:	48 89 c2             	mov    %rax,%rdx
   126ff:	8b 85 f0 e7 ff ff    	mov    -0x1810(%rbp),%eax
   12705:	48 39 c2             	cmp    %rax,%rdx
   12708:	0f 97 c0             	seta   %al
   1270b:	0f b6 c0             	movzbl %al,%eax
   1270e:	44 89 e6             	mov    %r12d,%esi
   12711:	89 c7                	mov    %eax,%edi
   12713:	e8 52 7b ff ff       	callq  a26a <safe_div_func_int8_t_s_s>
   12718:	0f be c0             	movsbl %al,%eax
   1271b:	89 85 9c e7 ff ff    	mov    %eax,-0x1864(%rbp)
   12721:	48 8b 05 20 f3 00 00 	mov    0xf320(%rip),%rax        # 21a48 <g_174>
   12728:	0f b7 00             	movzwl (%rax),%eax
   1272b:	66 85 c0             	test   %ax,%ax
   1272e:	48 8b 05 33 fa 00 00 	mov    0xfa33(%rip),%rax        # 22168 <g_1066>
   12735:	8b 00                	mov    (%rax),%eax
   12737:	39 85 f0 e7 ff ff    	cmp    %eax,-0x1810(%rbp)
   1273d:	0f 97 c0             	seta   %al
   12740:	0f b6 d0             	movzbl %al,%edx
   12743:	0f bf 85 68 e7 ff ff 	movswl -0x1898(%rbp),%eax
   1274a:	39 c2                	cmp    %eax,%edx
   1274c:	0f 9c c0             	setl   %al
   1274f:	0f b6 c0             	movzbl %al,%eax
   12752:	89 de                	mov    %ebx,%esi
   12754:	89 c7                	mov    %eax,%edi
   12756:	e8 ed 86 ff ff       	callq  ae48 <safe_rshift_func_uint16_t_u_s>
   1275b:	0f b7 d0             	movzwl %ax,%edx
   1275e:	0f bf 85 68 e7 ff ff 	movswl -0x1898(%rbp),%eax
   12765:	39 c2                	cmp    %eax,%edx
   12767:	75 0c                	jne    12775 <func_33+0x2909>
   12769:	48 b8 45 30 3d bf 9b 	movabs $0x340a379bbf3d3045,%rax
   12770:	37 0a 34 
   12773:	eb 0a                	jmp    1277f <func_33+0x2913>
   12775:	48 b8 44 30 3d bf 9b 	movabs $0x340a379bbf3d3044,%rax
   1277c:	37 0a 34 
   1277f:	48 0f bf 95 68 e7 ff 	movswq -0x1898(%rbp),%rdx
   12786:	ff 
   12787:	48 39 d0             	cmp    %rdx,%rax
   1278a:	0f 9c c0             	setl   %al
   1278d:	0f b6 c0             	movzbl %al,%eax
   12790:	21 85 b4 e7 ff ff    	and    %eax,-0x184c(%rbp)
   12796:	8b 85 b4 e7 ff ff    	mov    -0x184c(%rbp),%eax
   1279c:	0f be c0             	movsbl %al,%eax
   1279f:	be 00 00 00 00       	mov    $0x0,%esi
   127a4:	89 c7                	mov    %eax,%edi
   127a6:	e8 f6 7a ff ff       	callq  a2a1 <safe_lshift_func_int8_t_s_s>
   127ab:	0f be d8             	movsbl %al,%ebx
   127ae:	0f b7 85 68 e7 ff ff 	movzwl -0x1898(%rbp),%eax
   127b5:	0f b6 c0             	movzbl %al,%eax
   127b8:	be 00 00 00 00       	mov    $0x0,%esi
   127bd:	89 c7                	mov    %eax,%edi
   127bf:	e8 88 84 ff ff       	callq  ac4c <safe_lshift_func_uint8_t_u_u>
   127c4:	0f b6 c0             	movzbl %al,%eax
   127c7:	89 de                	mov    %ebx,%esi
   127c9:	89 c7                	mov    %eax,%edi
   127cb:	e8 7c 84 ff ff       	callq  ac4c <safe_lshift_func_uint8_t_u_u>
   127d0:	0f b6 d8             	movzbl %al,%ebx
   127d3:	83 bd 00 e8 ff ff 00 	cmpl   $0x0,-0x1800(%rbp)
   127da:	0f 9f c0             	setg   %al
   127dd:	0f b6 c0             	movzbl %al,%eax
   127e0:	be 03 00 00 00       	mov    $0x3,%esi
   127e5:	89 c7                	mov    %eax,%edi
   127e7:	e8 1a 86 ff ff       	callq  ae06 <safe_lshift_func_uint16_t_u_u>
   127ec:	0f b6 c0             	movzbl %al,%eax
   127ef:	89 de                	mov    %ebx,%esi
   127f1:	89 c7                	mov    %eax,%edi
   127f3:	e8 62 83 ff ff       	callq  ab5a <safe_add_func_uint8_t_u_u>
   127f8:	0f b6 d0             	movzbl %al,%edx
   127fb:	8b 85 a0 e8 ff ff    	mov    -0x1760(%rbp),%eax
   12801:	39 c2                	cmp    %eax,%edx
   12803:	0f 9f c0             	setg   %al
   12806:	0f b6 c0             	movzbl %al,%eax
   12809:	be d7 00 00 00       	mov    $0xd7,%esi
   1280e:	89 c7                	mov    %eax,%edi
   12810:	e8 99 83 ff ff       	callq  abae <safe_mod_func_uint8_t_u_u>
   12815:	84 c0                	test   %al,%al
   12817:	74 15                	je     1282e <func_33+0x29c2>
   12819:	66 c7 85 94 e7 ff ff 	movw   $0x4,-0x186c(%rbp)
   12820:	04 00 
   12822:	0f b7 85 94 e7 ff ff 	movzwl -0x186c(%rbp),%eax
   12829:	e9 10 10 00 00       	jmpq   1383e <func_33+0x39d2>
   1282e:	c7 85 d8 e7 ff ff c1 	movl   $0xe599a2c1,-0x1828(%rbp)
   12835:	a2 99 e5 
   12838:	c7 85 08 e8 ff ff fe 	movl   $0xfffffffe,-0x17f8(%rbp)
   1283f:	ff ff ff 
   12842:	c7 85 f0 ea ff ff 0b 	movl   $0x96816d0b,-0x1510(%rbp)
   12849:	6d 81 96 
   1284c:	c7 85 f4 ea ff ff ff 	movl   $0xffffffff,-0x150c(%rbp)
   12853:	ff ff ff 
   12856:	c7 85 f8 ea ff ff 0b 	movl   $0x96816d0b,-0x1508(%rbp)
   1285d:	6d 81 96 
   12860:	c7 85 fc ea ff ff ff 	movl   $0xffffffff,-0x1504(%rbp)
   12867:	ff ff ff 
   1286a:	c7 85 00 eb ff ff 0b 	movl   $0x96816d0b,-0x1500(%rbp)
   12871:	6d 81 96 
   12874:	c7 85 04 eb ff ff ff 	movl   $0xffffffff,-0x14fc(%rbp)
   1287b:	ff ff ff 
   1287e:	c7 85 08 eb ff ff 0b 	movl   $0x96816d0b,-0x14f8(%rbp)
   12885:	6d 81 96 
   12888:	c7 85 0c eb ff ff ff 	movl   $0xffffffff,-0x14f4(%rbp)
   1288f:	ff ff ff 
   12892:	66 c7 85 8c e7 ff ff 	movw   $0xa1a6,-0x1874(%rbp)
   12899:	a6 a1 
   1289b:	c7 85 40 ec ff ff 42 	movl   $0x9243f142,-0x13c0(%rbp)
   128a2:	f1 43 92 
   128a5:	c7 85 44 ec ff ff 47 	movl   $0x6e4b2847,-0x13bc(%rbp)
   128ac:	28 4b 6e 
   128af:	c7 85 48 ec ff ff 21 	movl   $0x42923421,-0x13b8(%rbp)
   128b6:	34 92 42 
   128b9:	c7 85 4c ec ff ff 01 	movl   $0x1,-0x13b4(%rbp)
   128c0:	00 00 00 
   128c3:	c7 85 50 ec ff ff 47 	movl   $0x6e4b2847,-0x13b0(%rbp)
   128ca:	28 4b 6e 
   128cd:	c7 85 54 ec ff ff 42 	movl   $0x9243f142,-0x13ac(%rbp)
   128d4:	f1 43 92 
   128d7:	c7 85 58 ec ff ff 01 	movl   $0x1,-0x13a8(%rbp)
   128de:	00 00 00 
   128e1:	c7 85 5c ec ff ff 7a 	movl   $0x82db557a,-0x13a4(%rbp)
   128e8:	55 db 82 
   128eb:	c7 85 60 ec ff ff 01 	movl   $0x1,-0x13a0(%rbp)
   128f2:	00 00 00 
   128f5:	c7 85 64 ec ff ff 01 	movl   $0x1,-0x139c(%rbp)
   128fc:	00 00 00 
   128ff:	c7 85 68 ec ff ff ff 	movl   $0xffffffff,-0x1398(%rbp)
   12906:	ff ff ff 
   12909:	c7 85 6c ec ff ff 01 	movl   $0x1,-0x1394(%rbp)
   12910:	00 00 00 
   12913:	c7 85 70 ec ff ff 21 	movl   $0x42923421,-0x1390(%rbp)
   1291a:	34 92 42 
   1291d:	c7 85 74 ec ff ff 21 	movl   $0x42923421,-0x138c(%rbp)
   12924:	34 92 42 
   12927:	c7 85 78 ec ff ff 01 	movl   $0x1,-0x1388(%rbp)
   1292e:	00 00 00 
   12931:	c7 85 7c ec ff ff 42 	movl   $0x9243f142,-0x1384(%rbp)
   12938:	f1 43 92 
   1293b:	c7 85 80 ec ff ff 47 	movl   $0x6e4b2847,-0x1380(%rbp)
   12942:	28 4b 6e 
   12945:	c7 85 84 ec ff ff 21 	movl   $0x42923421,-0x137c(%rbp)
   1294c:	34 92 42 
   1294f:	c7 85 88 ec ff ff 01 	movl   $0x1,-0x1378(%rbp)
   12956:	00 00 00 
   12959:	c7 85 8c ec ff ff 47 	movl   $0x6e4b2847,-0x1374(%rbp)
   12960:	28 4b 6e 
   12963:	c7 85 90 ec ff ff 42 	movl   $0x9243f142,-0x1370(%rbp)
   1296a:	f1 43 92 
   1296d:	c7 85 94 ec ff ff 01 	movl   $0x1,-0x136c(%rbp)
   12974:	00 00 00 
   12977:	c7 85 98 ec ff ff 7a 	movl   $0x82db557a,-0x1368(%rbp)
   1297e:	55 db 82 
   12981:	c7 85 9c ec ff ff 01 	movl   $0x1,-0x1364(%rbp)
   12988:	00 00 00 
   1298b:	c7 85 a0 ec ff ff 38 	movl   $0x9d6d3e38,-0x1360(%rbp)
   12992:	3e 6d 9d 
   12995:	c7 85 a4 ec ff ff bc 	movl   $0x8210a6bc,-0x135c(%rbp)
   1299c:	a6 10 82 
   1299f:	c7 85 a8 ec ff ff 38 	movl   $0x9d6d3e38,-0x1358(%rbp)
   129a6:	3e 6d 9d 
   129a9:	c7 85 ac ec ff ff ff 	movl   $0xffffffff,-0x1354(%rbp)
   129b0:	ff ff ff 
   129b3:	c7 85 b0 ec ff ff ff 	movl   $0xffffffff,-0x1350(%rbp)
   129ba:	ff ff ff 
   129bd:	c7 85 b4 ec ff ff 38 	movl   $0x9d6d3e38,-0x134c(%rbp)
   129c4:	3e 6d 9d 
   129c7:	c7 85 b8 ec ff ff e0 	movl   $0x5c8104e0,-0x1348(%rbp)
   129ce:	04 81 5c 
   129d1:	c7 85 bc ec ff ff 07 	movl   $0x7,-0x1344(%rbp)
   129d8:	00 00 00 
   129db:	c7 85 c0 ec ff ff ff 	movl   $0xffffffff,-0x1340(%rbp)
   129e2:	ff ff ff 
   129e5:	c7 85 c4 ec ff ff 47 	movl   $0x6e4b2847,-0x133c(%rbp)
   129ec:	28 4b 6e 
   129ef:	c7 85 c8 ec ff ff 07 	movl   $0x7,-0x1338(%rbp)
   129f6:	00 00 00 
   129f9:	c7 85 cc ec ff ff e0 	movl   $0x5c8104e0,-0x1334(%rbp)
   12a00:	04 81 5c 
   12a03:	c7 85 d0 ec ff ff 38 	movl   $0x9d6d3e38,-0x1330(%rbp)
   12a0a:	3e 6d 9d 
   12a0d:	c7 85 d4 ec ff ff 01 	movl   $0x1,-0x132c(%rbp)
   12a14:	00 00 00 
   12a17:	c7 85 d8 ec ff ff 47 	movl   $0x6e4b2847,-0x1328(%rbp)
   12a1e:	28 4b 6e 
   12a21:	c7 85 dc ec ff ff 38 	movl   $0x9d6d3e38,-0x1324(%rbp)
   12a28:	3e 6d 9d 
   12a2b:	c7 85 dc e7 ff ff 00 	movl   $0x0,-0x1824(%rbp)
   12a32:	00 00 00 
   12a35:	eb 46                	jmp    12a7d <func_33+0x2c11>
   12a37:	c7 85 e0 e7 ff ff 00 	movl   $0x0,-0x1820(%rbp)
   12a3e:	00 00 00 
   12a41:	eb 2a                	jmp    12a6d <func_33+0x2c01>
   12a43:	8b 85 e0 e7 ff ff    	mov    -0x1820(%rbp),%eax
   12a49:	48 63 d0             	movslq %eax,%rdx
   12a4c:	8b 85 dc e7 ff ff    	mov    -0x1824(%rbp),%eax
   12a52:	48 98                	cltq   
   12a54:	48 01 d0             	add    %rdx,%rax
   12a57:	48 8d 15 c2 c7 00 00 	lea    0xc7c2(%rip),%rdx        # 1f220 <g_1483>
   12a5e:	48 89 94 c5 a0 ea ff 	mov    %rdx,-0x1560(%rbp,%rax,8)
   12a65:	ff 
   12a66:	83 85 e0 e7 ff ff 01 	addl   $0x1,-0x1820(%rbp)
   12a6d:	83 bd e0 e7 ff ff 00 	cmpl   $0x0,-0x1820(%rbp)
   12a74:	7e cd                	jle    12a43 <func_33+0x2bd7>
   12a76:	83 85 dc e7 ff ff 01 	addl   $0x1,-0x1824(%rbp)
   12a7d:	83 bd dc e7 ff ff 02 	cmpl   $0x2,-0x1824(%rbp)
   12a84:	7e b1                	jle    12a37 <func_33+0x2bcb>
   12a86:	48 c7 05 d7 c5 00 00 	movq   $0x0,0xc5d7(%rip)        # 1f068 <g_111>
   12a8d:	00 00 00 00 
   12a91:	e9 a2 0a 00 00       	jmpq   13538 <func_33+0x36cc>
   12a96:	66 c7 85 8e e7 ff ff 	movw   $0x42ef,-0x1872(%rbp)
   12a9d:	ef 42 
   12a9f:	c7 85 0c e8 ff ff 00 	movl   $0x0,-0x17f4(%rbp)
   12aa6:	00 00 00 
   12aa9:	c6 85 7f e7 ff ff 00 	movb   $0x0,-0x1881(%rbp)
   12ab0:	66 c7 85 90 e7 ff ff 	movw   $0x95fc,-0x1870(%rbp)
   12ab7:	fc 95 
   12ab9:	c6 85 80 e7 ff ff fa 	movb   $0xfa,-0x1880(%rbp)
   12ac0:	48 c7 85 c0 e8 ff ff 	movq   $0x0,-0x1740(%rbp)
   12ac7:	00 00 00 00 
   12acb:	48 8d 85 c0 e8 ff ff 	lea    -0x1740(%rbp),%rax
   12ad2:	48 89 85 50 e9 ff ff 	mov    %rax,-0x16b0(%rbp)
   12ad9:	c7 85 a0 eb ff ff 48 	movl   $0x2a6cd348,-0x1460(%rbp)
   12ae0:	d3 6c 2a 
   12ae3:	c7 85 a4 eb ff ff 09 	movl   $0xce315809,-0x145c(%rbp)
   12aea:	58 31 ce 
   12aed:	c7 85 a8 eb ff ff 48 	movl   $0x2a6cd348,-0x1458(%rbp)
   12af4:	d3 6c 2a 
   12af7:	c7 85 ac eb ff ff 48 	movl   $0x2a6cd348,-0x1454(%rbp)
   12afe:	d3 6c 2a 
   12b01:	c7 85 b0 eb ff ff 09 	movl   $0xce315809,-0x1450(%rbp)
   12b08:	58 31 ce 
   12b0b:	c7 85 b4 eb ff ff 48 	movl   $0x2a6cd348,-0x144c(%rbp)
   12b12:	d3 6c 2a 
   12b15:	c7 85 b8 eb ff ff 48 	movl   $0x2a6cd348,-0x1448(%rbp)
   12b1c:	d3 6c 2a 
   12b1f:	c7 85 bc eb ff ff 09 	movl   $0xce315809,-0x1444(%rbp)
   12b26:	58 31 ce 
   12b29:	c7 85 c0 eb ff ff 48 	movl   $0x2a6cd348,-0x1440(%rbp)
   12b30:	d3 6c 2a 
   12b33:	c7 85 c4 eb ff ff 48 	movl   $0x2a6cd348,-0x143c(%rbp)
   12b3a:	d3 6c 2a 
   12b3d:	66 c7 85 92 e7 ff ff 	movw   $0x68a1,-0x186e(%rbp)
   12b44:	a1 68 
   12b46:	c7 85 e4 e7 ff ff da 	movl   $0x1a6a6cda,-0x181c(%rbp)
   12b4d:	6c 6a 1a 
   12b50:	c7 85 a0 e7 ff ff 00 	movl   $0x0,-0x1860(%rbp)
   12b57:	00 00 00 
   12b5a:	90                   	nop
   12b5b:	8b 85 a0 e7 ff ff    	mov    -0x1860(%rbp),%eax
   12b61:	85 c0                	test   %eax,%eax
   12b63:	0f 8f d8 01 00 00    	jg     12d41 <func_33+0x2ed5>
   12b69:	c7 85 40 e8 ff ff ff 	movl   $0xffffffff,-0x17c0(%rbp)
   12b70:	ff ff ff 
   12b73:	8b 85 a0 e7 ff ff    	mov    -0x1860(%rbp),%eax
   12b79:	83 c0 04             	add    $0x4,%eax
   12b7c:	48 98                	cltq   
   12b7e:	48 8d 14 c5 00 00 00 	lea    0x0(,%rax,8),%rdx
   12b85:	00 
   12b86:	48 8d 05 d3 c5 00 00 	lea    0xc5d3(%rip),%rax        # 1f160 <g_379>
   12b8d:	48 8b 14 02          	mov    (%rdx,%rax,1),%rdx
   12b91:	48 0f bf 85 68 e7 ff 	movswq -0x1898(%rbp),%rax
   12b98:	ff 
   12b99:	48 09 d0             	or     %rdx,%rax
   12b9c:	89 c2                	mov    %eax,%edx
   12b9e:	8b 85 d8 e7 ff ff    	mov    -0x1828(%rbp),%eax
   12ba4:	09 d0                	or     %edx,%eax
   12ba6:	89 85 d8 e7 ff ff    	mov    %eax,-0x1828(%rbp)
   12bac:	83 bd d8 e7 ff ff 00 	cmpl   $0x0,-0x1828(%rbp)
   12bb3:	0f 84 36 01 00 00    	je     12cef <func_33+0x2e83>
   12bb9:	48 c7 85 68 e9 ff ff 	movq   $0x0,-0x1698(%rbp)
   12bc0:	00 00 00 00 
   12bc4:	c7 85 44 e8 ff ff 4b 	movl   $0xc694b4b,-0x17bc(%rbp)
   12bcb:	4b 69 0c 
   12bce:	48 8b 05 53 fe 00 00 	mov    0xfe53(%rip),%rax        # 22a28 <g_2086>
   12bd5:	48 8b 00             	mov    (%rax),%rax
   12bd8:	48 8b 18             	mov    (%rax),%rbx
   12bdb:	44 0f b6 a5 6c e7 ff 	movzbl -0x1894(%rbp),%r12d
   12be2:	ff 
   12be3:	8b 05 b7 c5 00 00    	mov    0xc5b7(%rip),%eax        # 1f1a0 <g_453>
   12be9:	3d 36 1e 00 00       	cmp    $0x1e36,%eax
   12bee:	0f 95 c0             	setne  %al
   12bf1:	89 c2                	mov    %eax,%edx
   12bf3:	48 8b 05 4e ee 00 00 	mov    0xee4e(%rip),%rax        # 21a48 <g_174>
   12bfa:	0f b7 00             	movzwl (%rax),%eax
   12bfd:	09 d0                	or     %edx,%eax
   12bff:	83 c8 ca             	or     $0xffffffca,%eax
   12c02:	0f b6 c0             	movzbl %al,%eax
   12c05:	25 fd 00 00 00       	and    $0xfd,%eax
   12c0a:	be fc 00 00 00       	mov    $0xfc,%esi
   12c0f:	89 c7                	mov    %eax,%edi
   12c11:	e8 62 7f ff ff       	callq  ab78 <safe_sub_func_uint8_t_u_u>
   12c16:	b8 01 00 00 00       	mov    $0x1,%eax
   12c1b:	09 85 40 e8 ff ff    	or     %eax,-0x17c0(%rbp)
   12c21:	8b 85 40 e8 ff ff    	mov    -0x17c0(%rbp),%eax
   12c27:	0f be c0             	movsbl %al,%eax
   12c2a:	89 c6                	mov    %eax,%esi
   12c2c:	bf 01 00 00 00       	mov    $0x1,%edi
   12c31:	e8 34 76 ff ff       	callq  a26a <safe_div_func_int8_t_s_s>
   12c36:	66 98                	cbtw   
   12c38:	0f b7 c0             	movzwl %ax,%eax
   12c3b:	44 89 e6             	mov    %r12d,%esi
   12c3e:	89 c7                	mov    %eax,%edi
   12c40:	e8 ba 80 ff ff       	callq  acff <safe_add_func_uint16_t_u_u>
   12c45:	89 c2                	mov    %eax,%edx
   12c47:	48 8b 05 72 f8 00 00 	mov    0xf872(%rip),%rax        # 224c0 <g_1660>
   12c4e:	0f b7 00             	movzwl (%rax),%eax
   12c51:	0f b7 c0             	movzwl %ax,%eax
   12c54:	39 85 d8 e7 ff ff    	cmp    %eax,-0x1828(%rbp)
   12c5a:	0f 95 c0             	setne  %al
   12c5d:	0f b6 c0             	movzbl %al,%eax
   12c60:	0f b7 d2             	movzwl %dx,%edx
   12c63:	21 95 44 e8 ff ff    	and    %edx,-0x17bc(%rbp)
   12c69:	39 85 44 e8 ff ff    	cmp    %eax,-0x17bc(%rbp)
   12c6f:	0f 95 c0             	setne  %al
   12c72:	0f b6 d0             	movzbl %al,%edx
   12c75:	48 83 bd 68 e9 ff ff 	cmpq   $0x0,-0x1698(%rbp)
   12c7c:	00 
   12c7d:	0f 94 c0             	sete   %al
   12c80:	0f b6 c0             	movzbl %al,%eax
   12c83:	89 d6                	mov    %edx,%esi
   12c85:	89 c7                	mov    %eax,%edi
   12c87:	e8 b1 80 ff ff       	callq  ad3d <safe_mul_func_uint16_t_u_u>
   12c8c:	0f b7 d0             	movzwl %ax,%edx
   12c8f:	0f b7 85 68 e7 ff ff 	movzwl -0x1898(%rbp),%eax
   12c96:	0f b7 c0             	movzwl %ax,%eax
   12c99:	89 d6                	mov    %edx,%esi
   12c9b:	89 c7                	mov    %eax,%edi
   12c9d:	e8 9b 80 ff ff       	callq  ad3d <safe_mul_func_uint16_t_u_u>
   12ca2:	0f b7 c0             	movzwl %ax,%eax
   12ca5:	21 85 08 e8 ff ff    	and    %eax,-0x17f8(%rbp)
   12cab:	48 8b 05 96 ed 00 00 	mov    0xed96(%rip),%rax        # 21a48 <g_174>
   12cb2:	8b 95 08 e8 ff ff    	mov    -0x17f8(%rbp),%edx
   12cb8:	66 89 10             	mov    %dx,(%rax)
   12cbb:	0f b7 00             	movzwl (%rax),%eax
   12cbe:	66 85 c0             	test   %ax,%ax
   12cc1:	74 07                	je     12cca <func_33+0x2e5e>
   12cc3:	b8 01 00 00 00       	mov    $0x1,%eax
   12cc8:	eb 05                	jmp    12ccf <func_33+0x2e63>
   12cca:	b8 00 00 00 00       	mov    $0x0,%eax
   12ccf:	48 98                	cltq   
   12cd1:	48 89 de             	mov    %rbx,%rsi
   12cd4:	48 89 c7             	mov    %rax,%rdi
   12cd7:	e8 52 83 ff ff       	callq  b02e <safe_add_func_uint64_t_u_u>
   12cdc:	48 89 85 20 e9 ff ff 	mov    %rax,-0x16e0(%rbp)
   12ce3:	c7 85 08 e8 ff ff 5b 	movl   $0xf0a2765b,-0x17f8(%rbp)
   12cea:	76 a2 f0 
   12ced:	eb 47                	jmp    12d36 <func_33+0x2eca>
   12cef:	c7 85 a8 e7 ff ff 00 	movl   $0x0,-0x1858(%rbp)
   12cf6:	00 00 00 
   12cf9:	eb 1e                	jmp    12d19 <func_33+0x2ead>
   12cfb:	8b 85 a8 e7 ff ff    	mov    -0x1858(%rbp),%eax
   12d01:	48 98                	cltq   
   12d03:	48 8d 15 fe f3 00 00 	lea    0xf3fe(%rip),%rdx        # 22108 <g_690>
   12d0a:	48 89 94 c5 60 f0 ff 	mov    %rdx,-0xfa0(%rbp,%rax,8)
   12d11:	ff 
   12d12:	83 85 a8 e7 ff ff 01 	addl   $0x1,-0x1858(%rbp)
   12d19:	83 bd a8 e7 ff ff 00 	cmpl   $0x0,-0x1858(%rbp)
   12d20:	7e d9                	jle    12cfb <func_33+0x2e8f>
   12d22:	48 8b 95 58 e7 ff ff 	mov    -0x18a8(%rbp),%rdx
   12d29:	48 8b 05 c8 ff 00 00 	mov    0xffc8(%rip),%rax        # 22cf8 <g_2343>
   12d30:	48 8b 12             	mov    (%rdx),%rdx
   12d33:	48 89 10             	mov    %rdx,(%rax)
   12d36:	8b 85 d8 e7 ff ff    	mov    -0x1828(%rbp),%eax
   12d3c:	e9 fd 0a 00 00       	jmpq   1383e <func_33+0x39d2>
   12d41:	c7 85 d8 e7 ff ff 00 	movl   $0x0,-0x1828(%rbp)
   12d48:	00 00 00 
   12d4b:	e9 d7 00 00 00       	jmpq   12e27 <func_33+0x2fbb>
   12d50:	48 8d 85 60 f0 ff ff 	lea    -0xfa0(%rbp),%rax
   12d57:	48 8d 15 a2 dc 00 00 	lea    0xdca2(%rip),%rdx        # 20a00 <g_2882+0x1680>
   12d5e:	b9 90 00 00 00       	mov    $0x90,%ecx
   12d63:	48 89 c7             	mov    %rax,%rdi
   12d66:	48 89 d6             	mov    %rdx,%rsi
   12d69:	f3 48 a5             	rep movsq %ds:(%rsi),%es:(%rdi)
   12d6c:	48 8d 85 00 ed ff ff 	lea    -0x1300(%rbp),%rax
   12d73:	48 8d 15 a6 7e 00 00 	lea    0x7ea6(%rip),%rdx        # 1ac20 <g_2661+0xbb0>
   12d7a:	b9 6c 00 00 00       	mov    $0x6c,%ecx
   12d7f:	48 89 c7             	mov    %rax,%rdi
   12d82:	48 89 d6             	mov    %rdx,%rsi
   12d85:	f3 48 a5             	rep movsq %ds:(%rsi),%es:(%rdi)
   12d88:	c7 85 ac e7 ff ff 00 	movl   $0x0,-0x1854(%rbp)
   12d8f:	00 00 00 
   12d92:	eb 1b                	jmp    12daf <func_33+0x2f43>
   12d94:	8b 85 ac e7 ff ff    	mov    -0x1854(%rbp),%eax
   12d9a:	48 98                	cltq   
   12d9c:	48 c7 84 c5 f0 eb ff 	movq   $0x0,-0x1410(%rbp,%rax,8)
   12da3:	ff 00 00 00 00 
   12da8:	83 85 ac e7 ff ff 01 	addl   $0x1,-0x1854(%rbp)
   12daf:	83 bd ac e7 ff ff 02 	cmpl   $0x2,-0x1854(%rbp)
   12db6:	7e dc                	jle    12d94 <func_33+0x2f28>
   12db8:	0f b6 8d 6c e7 ff ff 	movzbl -0x1894(%rbp),%ecx
   12dbf:	48 8b 05 3a c3 00 00 	mov    0xc33a(%rip),%rax        # 1f100 <g_211+0x20>
   12dc6:	98                   	cwtl   
   12dc7:	48 8b 1d 1a f5 00 00 	mov    0xf51a(%rip),%rbx        # 222e8 <g_1310>
   12dce:	8b 95 08 e8 ff ff    	mov    -0x17f8(%rbp),%edx
   12dd4:	89 ce                	mov    %ecx,%esi
   12dd6:	89 c7                	mov    %eax,%edi
   12dd8:	e8 26 0b 00 00       	callq  13903 <func_47>
   12ddd:	48 89 03             	mov    %rax,(%rbx)
   12de0:	8b 85 f4 e7 ff ff    	mov    -0x180c(%rbp),%eax
   12de6:	48 63 d0             	movslq %eax,%rdx
   12de9:	48 8b 05 00 f5 00 00 	mov    0xf500(%rip),%rax        # 222f0 <g_1357>
   12df0:	48 8b 00             	mov    (%rax),%rax
   12df3:	48 89 d6             	mov    %rdx,%rsi
   12df6:	48 89 c7             	mov    %rax,%rdi
   12df9:	e8 f9 7b ff ff       	callq  a9f7 <safe_div_func_int64_t_s_s>
   12dfe:	ba 01 00 00 00       	mov    $0x1,%edx
   12e03:	8b 85 a8 e8 ff ff    	mov    -0x1758(%rbp),%eax
   12e09:	09 d0                	or     %edx,%eax
   12e0b:	89 85 a8 e8 ff ff    	mov    %eax,-0x1758(%rbp)
   12e11:	8b 85 44 f0 ff ff    	mov    -0xfbc(%rbp),%eax
   12e17:	83 c0 01             	add    $0x1,%eax
   12e1a:	89 85 44 f0 ff ff    	mov    %eax,-0xfbc(%rbp)
   12e20:	83 85 d8 e7 ff ff 01 	addl   $0x1,-0x1828(%rbp)
   12e27:	83 bd d8 e7 ff ff 08 	cmpl   $0x8,-0x1828(%rbp)
   12e2e:	0f 86 1c ff ff ff    	jbe    12d50 <func_33+0x2ee4>
   12e34:	c7 05 82 c3 00 00 08 	movl   $0x8,0xc382(%rip)        # 1f1c0 <g_523>
   12e3b:	00 00 00 
   12e3e:	e9 cf 06 00 00       	jmpq   13512 <func_33+0x36a6>
   12e43:	48 c7 85 58 e9 ff ff 	movq   $0x0,-0x16a8(%rbp)
   12e4a:	00 00 00 00 
   12e4e:	48 8d 05 ab fe 00 00 	lea    0xfeab(%rip),%rax        # 22d00 <g_2378>
   12e55:	48 89 85 60 e9 ff ff 	mov    %rax,-0x16a0(%rbp)
   12e5c:	c7 85 b0 e8 ff ff ba 	movl   $0x669c13ba,-0x1750(%rbp)
   12e63:	13 9c 66 
   12e66:	48 8d 05 b3 c3 00 00 	lea    0xc3b3(%rip),%rax        # 1f220 <g_1483>
   12e6d:	48 89 85 00 ed ff ff 	mov    %rax,-0x1300(%rbp)
   12e74:	48 8d 05 3d c3 00 00 	lea    0xc33d(%rip),%rax        # 1f1b8 <g_486>
   12e7b:	48 89 85 08 ed ff ff 	mov    %rax,-0x12f8(%rbp)
   12e82:	48 8d 05 97 c3 00 00 	lea    0xc397(%rip),%rax        # 1f220 <g_1483>
   12e89:	48 89 85 10 ed ff ff 	mov    %rax,-0x12f0(%rbp)
   12e90:	48 8d 05 89 c3 00 00 	lea    0xc389(%rip),%rax        # 1f220 <g_1483>
   12e97:	48 89 85 18 ed ff ff 	mov    %rax,-0x12e8(%rbp)
   12e9e:	48 8d 05 13 c3 00 00 	lea    0xc313(%rip),%rax        # 1f1b8 <g_486>
   12ea5:	48 89 85 20 ed ff ff 	mov    %rax,-0x12e0(%rbp)
   12eac:	48 8d 05 05 c3 00 00 	lea    0xc305(%rip),%rax        # 1f1b8 <g_486>
   12eb3:	48 89 85 28 ed ff ff 	mov    %rax,-0x12d8(%rbp)
   12eba:	48 8d 05 5f c3 00 00 	lea    0xc35f(%rip),%rax        # 1f220 <g_1483>
   12ec1:	48 89 85 30 ed ff ff 	mov    %rax,-0x12d0(%rbp)
   12ec8:	48 8d 05 51 c3 00 00 	lea    0xc351(%rip),%rax        # 1f220 <g_1483>
   12ecf:	48 89 85 38 ed ff ff 	mov    %rax,-0x12c8(%rbp)
   12ed6:	48 8d 05 db c2 00 00 	lea    0xc2db(%rip),%rax        # 1f1b8 <g_486>
   12edd:	48 89 85 40 ed ff ff 	mov    %rax,-0x12c0(%rbp)
   12ee4:	48 8d 05 cd c2 00 00 	lea    0xc2cd(%rip),%rax        # 1f1b8 <g_486>
   12eeb:	48 89 85 48 ed ff ff 	mov    %rax,-0x12b8(%rbp)
   12ef2:	48 8d 05 bf c2 00 00 	lea    0xc2bf(%rip),%rax        # 1f1b8 <g_486>
   12ef9:	48 89 85 50 ed ff ff 	mov    %rax,-0x12b0(%rbp)
   12f00:	48 c7 85 58 ed ff ff 	movq   $0x0,-0x12a8(%rbp)
   12f07:	00 00 00 00 
   12f0b:	48 c7 85 60 ed ff ff 	movq   $0x0,-0x12a0(%rbp)
   12f12:	00 00 00 00 
   12f16:	48 c7 85 68 ed ff ff 	movq   $0x0,-0x1298(%rbp)
   12f1d:	00 00 00 00 
   12f21:	48 8d 05 90 c2 00 00 	lea    0xc290(%rip),%rax        # 1f1b8 <g_486>
   12f28:	48 89 85 70 ed ff ff 	mov    %rax,-0x1290(%rbp)
   12f2f:	48 8d 05 82 c2 00 00 	lea    0xc282(%rip),%rax        # 1f1b8 <g_486>
   12f36:	48 89 85 78 ed ff ff 	mov    %rax,-0x1288(%rbp)
   12f3d:	c7 85 10 e8 ff ff 09 	movl   $0x9,-0x17f0(%rbp)
   12f44:	00 00 00 
   12f47:	c7 85 14 e8 ff ff 3e 	movl   $0x6cb48f3e,-0x17ec(%rbp)
   12f4e:	8f b4 6c 
   12f51:	c7 85 18 e8 ff ff 81 	movl   $0x6d253e81,-0x17e8(%rbp)
   12f58:	3e 25 6d 
   12f5b:	c7 85 b0 e7 ff ff 00 	movl   $0x0,-0x1850(%rbp)
   12f62:	00 00 00 
   12f65:	eb 1a                	jmp    12f81 <func_33+0x3115>
   12f67:	8b 85 b0 e7 ff ff    	mov    -0x1850(%rbp),%eax
   12f6d:	48 98                	cltq   
   12f6f:	c7 84 85 48 ea ff ff 	movl   $0xe5c26e1c,-0x15b8(%rbp,%rax,4)
   12f76:	1c 6e c2 e5 
   12f7a:	83 85 b0 e7 ff ff 01 	addl   $0x1,-0x1850(%rbp)
   12f81:	83 bd b0 e7 ff ff 01 	cmpl   $0x1,-0x1850(%rbp)
   12f88:	7e dd                	jle    12f67 <func_33+0x30fb>
   12f8a:	66 83 bd 8e e7 ff ff 	cmpw   $0x0,-0x1872(%rbp)
   12f91:	00 
   12f92:	0f 85 8a 05 00 00    	jne    13522 <func_33+0x36b6>
   12f98:	66 83 bd 68 e7 ff ff 	cmpw   $0x0,-0x1898(%rbp)
   12f9f:	00 
   12fa0:	74 0c                	je     12fae <func_33+0x3142>
   12fa2:	0f b7 85 84 e7 ff ff 	movzwl -0x187c(%rbp),%eax
   12fa9:	e9 90 08 00 00       	jmpq   1383e <func_33+0x39d2>
   12fae:	c7 85 b0 e8 ff ff 03 	movl   $0x3,-0x1750(%rbp)
   12fb5:	00 00 00 
   12fb8:	83 bd d8 e7 ff ff 00 	cmpl   $0x0,-0x1828(%rbp)
   12fbf:	0f 85 60 05 00 00    	jne    13525 <func_33+0x36b9>
   12fc5:	80 bd 6c e7 ff ff 00 	cmpb   $0x0,-0x1894(%rbp)
   12fcc:	0f 84 af 01 00 00    	je     13181 <func_33+0x3315>
   12fd2:	0f b6 85 da ea ff ff 	movzbl -0x1526(%rbp),%eax
   12fd9:	0f be d8             	movsbl %al,%ebx
   12fdc:	48 8b 05 45 c2 00 00 	mov    0xc245(%rip),%rax        # 1f228 <g_1638>
   12fe3:	89 85 54 e7 ff ff    	mov    %eax,-0x18ac(%rbp)
   12fe9:	0f b7 85 68 e7 ff ff 	movzwl -0x1898(%rbp),%eax
   12ff0:	44 0f b6 e0          	movzbl %al,%r12d
   12ff4:	0f b7 05 25 c2 00 00 	movzwl 0xc225(%rip),%eax        # 1f220 <g_1483>
   12ffb:	44 0f bf e8          	movswl %ax,%r13d
   12fff:	8b 85 80 ea ff ff    	mov    -0x1580(%rbp),%eax
   13005:	44 0f b7 f0          	movzwl %ax,%r14d
   13009:	44 0f bf bd 68 e7 ff 	movswl -0x1898(%rbp),%r15d
   13010:	ff 
   13011:	8b 95 08 e8 ff ff    	mov    -0x17f8(%rbp),%edx
   13017:	0f b7 85 68 e7 ff ff 	movzwl -0x1898(%rbp),%eax
   1301e:	0f b7 c0             	movzwl %ax,%eax
   13021:	89 d6                	mov    %edx,%esi
   13023:	89 c7                	mov    %eax,%edi
   13025:	e8 dc 7d ff ff       	callq  ae06 <safe_lshift_func_uint16_t_u_u>
   1302a:	0f b7 c0             	movzwl %ax,%eax
   1302d:	41 39 c7             	cmp    %eax,%r15d
   13030:	0f 9f c0             	setg   %al
   13033:	0f b6 d0             	movzbl %al,%edx
   13036:	48 8b 05 db f9 00 00 	mov    0xf9db(%rip),%rax        # 22a18 <g_2072>
   1303d:	8b 08                	mov    (%rax),%ecx
   1303f:	0f b6 85 de ea ff ff 	movzbl -0x1522(%rbp),%eax
   13046:	0f be c0             	movsbl %al,%eax
   13049:	39 c1                	cmp    %eax,%ecx
   1304b:	0f 95 c0             	setne  %al
   1304e:	0f b6 c0             	movzbl %al,%eax
   13051:	39 c2                	cmp    %eax,%edx
   13053:	0f 9d c0             	setge  %al
   13056:	0f b6 d0             	movzbl %al,%edx
   13059:	8b 85 f8 ea ff ff    	mov    -0x1508(%rbp),%eax
   1305f:	39 c2                	cmp    %eax,%edx
   13061:	0f 92 c0             	setb   %al
   13064:	0f b6 c0             	movzbl %al,%eax
   13067:	be 06 00 00 00       	mov    $0x6,%esi
   1306c:	89 c7                	mov    %eax,%edi
   1306e:	e8 1a 7c ff ff       	callq  ac8d <safe_rshift_func_uint8_t_u_s>
   13073:	0f b6 d0             	movzbl %al,%edx
   13076:	48 8b 05 73 c0 00 00 	mov    0xc073(%rip),%rax        # 1f0f0 <g_211+0x10>
   1307d:	48 39 c2             	cmp    %rax,%rdx
   13080:	0f 93 c0             	setae  %al
   13083:	0f b6 c0             	movzbl %al,%eax
   13086:	48 be 67 ec 3b 56 54 	movabs $0xbd129854563bec67,%rsi
   1308d:	98 12 bd 
   13090:	48 89 c7             	mov    %rax,%rdi
   13093:	e8 e8 7f ff ff       	callq  b080 <safe_mod_func_uint64_t_u_u>
   13098:	44 89 f6             	mov    %r14d,%esi
   1309b:	bf 01 00 00 00       	mov    $0x1,%edi
   130a0:	e8 98 7c ff ff       	callq  ad3d <safe_mul_func_uint16_t_u_u>
   130a5:	0f b7 d0             	movzwl %ax,%edx
   130a8:	0f b6 85 7f e7 ff ff 	movzbl -0x1881(%rbp),%eax
   130af:	0f be c0             	movsbl %al,%eax
   130b2:	89 d6                	mov    %edx,%esi
   130b4:	89 c7                	mov    %eax,%edi
   130b6:	e8 33 72 ff ff       	callq  a2ee <safe_lshift_func_int8_t_s_u>
   130bb:	0f be c0             	movsbl %al,%eax
   130be:	44 89 ee             	mov    %r13d,%esi
   130c1:	89 c7                	mov    %eax,%edi
   130c3:	e8 62 74 ff ff       	callq  a52a <safe_rshift_func_int16_t_s_s>
   130c8:	0f b6 c0             	movzbl %al,%eax
   130cb:	44 89 e6             	mov    %r12d,%esi
   130ce:	89 c7                	mov    %eax,%edi
   130d0:	e8 a3 7a ff ff       	callq  ab78 <safe_sub_func_uint8_t_u_u>
   130d5:	0f b7 85 90 e7 ff ff 	movzwl -0x1870(%rbp),%eax
   130dc:	89 85 b0 e8 ff ff    	mov    %eax,-0x1750(%rbp)
   130e2:	8b 85 b0 e8 ff ff    	mov    -0x1750(%rbp),%eax
   130e8:	89 85 0c e8 ff ff    	mov    %eax,-0x17f4(%rbp)
   130ee:	be 08 00 00 00       	mov    $0x8,%esi
   130f3:	bf 01 00 00 00       	mov    $0x1,%edi
   130f8:	e8 02 7c ff ff       	callq  acff <safe_add_func_uint16_t_u_u>
   130fd:	0f b7 d0             	movzwl %ax,%edx
   13100:	0f bf 85 68 e7 ff ff 	movswl -0x1898(%rbp),%eax
   13107:	09 d0                	or     %edx,%eax
   13109:	39 85 ec e7 ff ff    	cmp    %eax,-0x1814(%rbp)
   1310f:	0f 9f c0             	setg   %al
   13112:	0f b6 c0             	movzbl %al,%eax
   13115:	8b b5 54 e7 ff ff    	mov    -0x18ac(%rbp),%esi
   1311b:	89 c7                	mov    %eax,%edi
   1311d:	e8 70 73 ff ff       	callq  a492 <safe_lshift_func_int16_t_s_s>
   13122:	0f b6 85 6c e7 ff ff 	movzbl -0x1894(%rbp),%eax
   13129:	be 00 00 00 00       	mov    $0x0,%esi
   1312e:	48 89 c7             	mov    %rax,%rdi
   13131:	e8 f8 7e ff ff       	callq  b02e <safe_add_func_uint64_t_u_u>
   13136:	0f b6 c0             	movzbl %al,%eax
   13139:	89 de                	mov    %ebx,%esi
   1313b:	89 c7                	mov    %eax,%edi
   1313d:	e8 4b 7b ff ff       	callq  ac8d <safe_rshift_func_uint8_t_u_s>
   13142:	66 83 bd 68 e7 ff ff 	cmpw   $0x0,-0x1898(%rbp)
   13149:	00 
   1314a:	0f 94 c0             	sete   %al
   1314d:	0f b6 c0             	movzbl %al,%eax
   13150:	89 c6                	mov    %eax,%esi
   13152:	bf f6 ef ff ff       	mov    $0xffffeff6,%edi
   13157:	e8 77 72 ff ff       	callq  a3d3 <safe_sub_func_int16_t_s_s>
   1315c:	98                   	cwtl   
   1315d:	39 85 d8 e7 ff ff    	cmp    %eax,-0x1828(%rbp)
   13163:	0f 93 c0             	setae  %al
   13166:	0f b6 c0             	movzbl %al,%eax
   13169:	66 89 85 68 e7 ff ff 	mov    %ax,-0x1898(%rbp)
   13170:	66 83 bd 68 e7 ff ff 	cmpw   $0x0,-0x1898(%rbp)
   13177:	00 
   13178:	74 07                	je     13181 <func_33+0x3315>
   1317a:	b8 01 00 00 00       	mov    $0x1,%eax
   1317f:	eb 05                	jmp    13186 <func_33+0x331a>
   13181:	b8 00 00 00 00       	mov    $0x0,%eax
   13186:	89 c2                	mov    %eax,%edx
   13188:	8b 85 f4 ea ff ff    	mov    -0x150c(%rbp),%eax
   1318e:	39 c2                	cmp    %eax,%edx
   13190:	72 10                	jb     131a2 <func_33+0x3336>
   13192:	83 bd 08 e8 ff ff 00 	cmpl   $0x0,-0x17f8(%rbp)
   13199:	74 07                	je     131a2 <func_33+0x3336>
   1319b:	b8 01 00 00 00       	mov    $0x1,%eax
   131a0:	eb 05                	jmp    131a7 <func_33+0x333b>
   131a2:	b8 00 00 00 00       	mov    $0x0,%eax
   131a7:	3b 85 f4 e7 ff ff    	cmp    -0x180c(%rbp),%eax
   131ad:	74 11                	je     131c0 <func_33+0x3354>
   131af:	66 83 bd 68 e7 ff ff 	cmpw   $0x0,-0x1898(%rbp)
   131b6:	00 
   131b7:	74 07                	je     131c0 <func_33+0x3354>
   131b9:	b8 01 00 00 00       	mov    $0x1,%eax
   131be:	eb 05                	jmp    131c5 <func_33+0x3359>
   131c0:	b8 00 00 00 00       	mov    $0x0,%eax
   131c5:	83 c8 03             	or     $0x3,%eax
   131c8:	83 f8 04             	cmp    $0x4,%eax
   131cb:	0f 96 c0             	setbe  %al
   131ce:	0f b6 c0             	movzbl %al,%eax
   131d1:	48 89 85 30 e9 ff ff 	mov    %rax,-0x16d0(%rbp)
   131d8:	0f b6 9d 6c e7 ff ff 	movzbl -0x1894(%rbp),%ebx
   131df:	44 0f b6 a5 6c e7 ff 	movzbl -0x1894(%rbp),%r12d
   131e6:	ff 
   131e7:	8b 85 f8 ea ff ff    	mov    -0x1508(%rbp),%eax
   131ed:	41 89 c5             	mov    %eax,%r13d
   131f0:	0f b7 85 68 e7 ff ff 	movzwl -0x1898(%rbp),%eax
   131f7:	0f be d0             	movsbl %al,%edx
   131fa:	66 c7 05 1d c0 00 00 	movw   $0x1,0xc01d(%rip)        # 1f220 <g_1483>
   13201:	01 00 
   13203:	0f be 85 80 e7 ff ff 	movsbl -0x1880(%rbp),%eax
   1320a:	89 85 10 e8 ff ff    	mov    %eax,-0x17f0(%rbp)
   13210:	8b 85 10 e8 ff ff    	mov    -0x17f0(%rbp),%eax
   13216:	f7 d0                	not    %eax
   13218:	c1 e8 1f             	shr    $0x1f,%eax
   1321b:	0f b6 c8             	movzbl %al,%ecx
   1321e:	48 8b 05 23 e8 00 00 	mov    0xe823(%rip),%rax        # 21a48 <g_174>
   13225:	0f b7 00             	movzwl (%rax),%eax
   13228:	89 c6                	mov    %eax,%esi
   1322a:	66 83 bd 68 e7 ff ff 	cmpw   $0xd,-0x1898(%rbp)
   13231:	0d 
   13232:	0f 94 c0             	sete   %al
   13235:	0f b6 c0             	movzbl %al,%eax
   13238:	21 c6                	and    %eax,%esi
   1323a:	48 8b 05 07 e8 00 00 	mov    0xe807(%rip),%rax        # 21a48 <g_174>
   13241:	66 89 30             	mov    %si,(%rax)
   13244:	0f b7 00             	movzwl (%rax),%eax
   13247:	66 0d 66 45          	or     $0x4566,%ax
   1324b:	0f b7 c0             	movzwl %ax,%eax
   1324e:	48 39 c1             	cmp    %rax,%rcx
   13251:	0f 9f c0             	setg   %al
   13254:	0f b6 c0             	movzbl %al,%eax
   13257:	89 d6                	mov    %edx,%esi
   13259:	89 c7                	mov    %eax,%edi
   1325b:	e8 0a 70 ff ff       	callq  a26a <safe_div_func_int8_t_s_s>
   13260:	0f be d0             	movsbl %al,%edx
   13263:	48 8b 05 56 be 00 00 	mov    0xbe56(%rip),%rax        # 1f0c0 <g_199+0x40>
   1326a:	98                   	cwtl   
   1326b:	89 d6                	mov    %edx,%esi
   1326d:	89 c7                	mov    %eax,%edi
   1326f:	e8 6d 72 ff ff       	callq  a4e1 <safe_lshift_func_int16_t_s_u>
   13274:	98                   	cwtl   
   13275:	44 89 ee             	mov    %r13d,%esi
   13278:	89 c7                	mov    %eax,%edi
   1327a:	e8 13 72 ff ff       	callq  a492 <safe_lshift_func_int16_t_s_s>
   1327f:	0f b6 c0             	movzbl %al,%eax
   13282:	be 00 00 00 00       	mov    $0x0,%esi
   13287:	89 c7                	mov    %eax,%edi
   13289:	e8 ff 79 ff ff       	callq  ac8d <safe_rshift_func_uint8_t_u_s>
   1328e:	8b 85 b0 e8 ff ff    	mov    -0x1750(%rbp),%eax
   13294:	85 c0                	test   %eax,%eax
   13296:	74 07                	je     1329f <func_33+0x3433>
   13298:	b8 01 00 00 00       	mov    $0x1,%eax
   1329d:	eb 05                	jmp    132a4 <func_33+0x3438>
   1329f:	b8 00 00 00 00       	mov    $0x0,%eax
   132a4:	0f b7 c0             	movzwl %ax,%eax
   132a7:	44 89 e6             	mov    %r12d,%esi
   132aa:	89 c7                	mov    %eax,%edi
   132ac:	e8 8c 7a ff ff       	callq  ad3d <safe_mul_func_uint16_t_u_u>
   132b1:	66 3d 25 6d          	cmp    $0x6d25,%ax
   132b5:	0f 97 c0             	seta   %al
   132b8:	0f b6 d0             	movzbl %al,%edx
   132bb:	48 8b 05 26 e5 00 00 	mov    0xe526(%rip),%rax        # 217e8 <g_56>
   132c2:	48 8d 8d 9c e7 ff ff 	lea    -0x1864(%rbp),%rcx
   132c9:	48 89 08             	mov    %rcx,(%rax)
   132cc:	48 8b 08             	mov    (%rax),%rcx
   132cf:	48 8d 85 b0 e8 ff ff 	lea    -0x1750(%rbp),%rax
   132d6:	48 39 c1             	cmp    %rax,%rcx
   132d9:	0f 95 c0             	setne  %al
   132dc:	0f b6 c0             	movzbl %al,%eax
   132df:	89 d6                	mov    %edx,%esi
   132e1:	89 c7                	mov    %eax,%edi
   132e3:	e8 2a 6f ff ff       	callq  a212 <safe_mul_func_int8_t_s_s>
   132e8:	48 8d 05 31 fa 00 00 	lea    0xfa31(%rip),%rax        # 22d20 <g_2378+0x20>
   132ef:	48 39 85 38 e9 ff ff 	cmp    %rax,-0x16c8(%rbp)
   132f6:	0f 94 c0             	sete   %al
   132f9:	0f b6 c0             	movzbl %al,%eax
   132fc:	39 85 ec e7 ff ff    	cmp    %eax,-0x1814(%rbp)
   13302:	0f 9e c0             	setle  %al
   13305:	0f b6 c0             	movzbl %al,%eax
   13308:	89 de                	mov    %ebx,%esi
   1330a:	89 c7                	mov    %eax,%edi
   1330c:	e8 0e 7a ff ff       	callq  ad1f <safe_sub_func_uint16_t_u_u>
   13311:	0f b7 c0             	movzwl %ax,%eax
   13314:	83 e0 01             	and    $0x1,%eax
   13317:	48 85 c0             	test   %rax,%rax
   1331a:	48 8d 85 60 f0 ff ff 	lea    -0xfa0(%rbp),%rax
   13321:	48 8d 15 58 7c 00 00 	lea    0x7c58(%rip),%rdx        # 1af80 <g_2661+0xf10>
   13328:	b9 24 00 00 00       	mov    $0x24,%ecx
   1332d:	48 89 c7             	mov    %rax,%rdi
   13330:	48 89 d6             	mov    %rdx,%rsi
   13333:	f3 48 a5             	rep movsq %ds:(%rsi),%es:(%rdi)
   13336:	c7 85 1c e8 ff ff 6e 	movl   $0xa9c7ea6e,-0x17e4(%rbp)
   1333d:	ea c7 a9 
   13340:	c7 85 20 e8 ff ff ff 	movl   $0xffffffff,-0x17e0(%rbp)
   13347:	ff ff ff 
   1334a:	c7 85 24 e8 ff ff fa 	movl   $0xfffffffa,-0x17dc(%rbp)
   13351:	ff ff ff 
   13354:	c7 85 28 e8 ff ff 03 	movl   $0x3,-0x17d8(%rbp)
   1335b:	00 00 00 
   1335e:	c7 85 2c e8 ff ff ff 	movl   $0xffffffff,-0x17d4(%rbp)
   13365:	ff ff ff 
   13368:	66 c7 85 f0 eb ff ff 	movw   $0xc055,-0x1410(%rbp)
   1336f:	55 c0 
   13371:	66 c7 85 f2 eb ff ff 	movw   $0xe1f2,-0x140e(%rbp)
   13378:	f2 e1 
   1337a:	66 c7 85 f4 eb ff ff 	movw   $0xe1f2,-0x140c(%rbp)
   13381:	f2 e1 
   13383:	66 c7 85 f6 eb ff ff 	movw   $0xc055,-0x140a(%rbp)
   1338a:	55 c0 
   1338c:	66 c7 85 f8 eb ff ff 	movw   $0xe1f2,-0x1408(%rbp)
   13393:	f2 e1 
   13395:	66 c7 85 fa eb ff ff 	movw   $0xe1f2,-0x1406(%rbp)
   1339c:	f2 e1 
   1339e:	66 c7 85 fc eb ff ff 	movw   $0xc055,-0x1404(%rbp)
   133a5:	55 c0 
   133a7:	66 c7 85 fe eb ff ff 	movw   $0xe1f2,-0x1402(%rbp)
   133ae:	f2 e1 
   133b0:	66 c7 85 00 ec ff ff 	movw   $0xe1f2,-0x1400(%rbp)
   133b7:	f2 e1 
   133b9:	66 c7 85 02 ec ff ff 	movw   $0xc055,-0x13fe(%rbp)
   133c0:	55 c0 
   133c2:	66 c7 85 04 ec ff ff 	movw   $0xe1f2,-0x13fc(%rbp)
   133c9:	f2 e1 
   133cb:	66 c7 85 06 ec ff ff 	movw   $0xe1f2,-0x13fa(%rbp)
   133d2:	f2 e1 
   133d4:	66 c7 85 08 ec ff ff 	movw   $0xc055,-0x13f8(%rbp)
   133db:	55 c0 
   133dd:	66 c7 85 0a ec ff ff 	movw   $0xe1f2,-0x13f6(%rbp)
   133e4:	f2 e1 
   133e6:	66 c7 85 0c ec ff ff 	movw   $0xe1f2,-0x13f4(%rbp)
   133ed:	f2 e1 
   133ef:	66 c7 85 0e ec ff ff 	movw   $0xc055,-0x13f2(%rbp)
   133f6:	55 c0 
   133f8:	66 c7 85 10 ec ff ff 	movw   $0xe1f2,-0x13f0(%rbp)
   133ff:	f2 e1 
   13401:	66 c7 85 12 ec ff ff 	movw   $0xe1f2,-0x13ee(%rbp)
   13408:	f2 e1 
   1340a:	66 c7 85 14 ec ff ff 	movw   $0xc055,-0x13ec(%rbp)
   13411:	55 c0 
   13413:	66 c7 85 16 ec ff ff 	movw   $0xe1f2,-0x13ea(%rbp)
   1341a:	f2 e1 
   1341c:	66 c7 85 18 ec ff ff 	movw   $0xe1f2,-0x13e8(%rbp)
   13423:	f2 e1 
   13425:	c7 85 30 e8 ff ff 00 	movl   $0x0,-0x17d0(%rbp)
   1342c:	00 00 00 
   1342f:	c7 85 34 e8 ff ff 07 	movl   $0x7,-0x17cc(%rbp)
   13436:	00 00 00 
   13439:	c7 85 38 e8 ff ff ba 	movl   $0x89f9f9ba,-0x17c8(%rbp)
   13440:	f9 f9 89 
   13443:	c7 85 3c e8 ff ff be 	movl   $0xa479d4be,-0x17c4(%rbp)
   1344a:	d4 79 a4 
   1344d:	0f b6 85 de ea ff ff 	movzbl -0x1522(%rbp),%eax
   13454:	0f be c0             	movsbl %al,%eax
   13457:	89 85 70 ea ff ff    	mov    %eax,-0x1590(%rbp)
   1345d:	48 8b 05 a4 f5 00 00 	mov    0xf5a4(%rip),%rax        # 22a08 <g_1968>
   13464:	48 8b 00             	mov    (%rax),%rax
   13467:	48 85 c0             	test   %rax,%rax
   1346a:	0f 94 c0             	sete   %al
   1346d:	0f b6 d8             	movzbl %al,%ebx
   13470:	83 85 e4 e7 ff ff 01 	addl   $0x1,-0x181c(%rbp)
   13477:	4c 0f bf a5 68 e7 ff 	movswq -0x1898(%rbp),%r12
   1347e:	ff 
   1347f:	48 83 bd 50 e9 ff ff 	cmpq   $0x0,-0x16b0(%rbp)
   13486:	00 
   13487:	0f 95 c0             	setne  %al
   1348a:	0f b6 d0             	movzbl %al,%edx
   1348d:	0f b6 85 6c e7 ff ff 	movzbl -0x1894(%rbp),%eax
   13494:	0f be c0             	movsbl %al,%eax
   13497:	89 d6                	mov    %edx,%esi
   13499:	89 c7                	mov    %eax,%edi
   1349b:	e8 4e 6e ff ff       	callq  a2ee <safe_lshift_func_int8_t_s_u>
   134a0:	0f be c0             	movsbl %al,%eax
   134a3:	be 07 00 00 00       	mov    $0x7,%esi
   134a8:	89 c7                	mov    %eax,%edi
   134aa:	e8 7b 70 ff ff       	callq  a52a <safe_rshift_func_int16_t_s_s>
   134af:	66 39 85 68 e7 ff ff 	cmp    %ax,-0x1898(%rbp)
   134b6:	0f 9f c0             	setg   %al
   134b9:	0f b6 d0             	movzbl %al,%edx
   134bc:	48 8b 05 35 ee 00 00 	mov    0xee35(%rip),%rax        # 222f8 <g_1356>
   134c3:	48 8b 00             	mov    (%rax),%rax
   134c6:	48 8b 08             	mov    (%rax),%rcx
   134c9:	48 63 d2             	movslq %edx,%rdx
   134cc:	48 8b 05 25 ee 00 00 	mov    0xee25(%rip),%rax        # 222f8 <g_1356>
   134d3:	48 8b 00             	mov    (%rax),%rax
   134d6:	48 31 ca             	xor    %rcx,%rdx
   134d9:	48 89 10             	mov    %rdx,(%rax)
   134dc:	48 8b 00             	mov    (%rax),%rax
   134df:	4c 89 e6             	mov    %r12,%rsi
   134e2:	48 89 c7             	mov    %rax,%rdi
   134e5:	e8 ca 74 ff ff       	callq  a9b4 <safe_mod_func_int64_t_s_s>
   134ea:	98                   	cwtl   
   134eb:	8b 8d e4 e7 ff ff    	mov    -0x181c(%rbp),%ecx
   134f1:	89 da                	mov    %ebx,%edx
   134f3:	89 ce                	mov    %ecx,%esi
   134f5:	89 c7                	mov    %eax,%edi
   134f7:	e8 07 04 00 00       	callq  13903 <func_47>
   134fc:	48 89 85 40 e9 ff ff 	mov    %rax,-0x16c0(%rbp)
   13503:	8b 05 b7 bc 00 00    	mov    0xbcb7(%rip),%eax        # 1f1c0 <g_523>
   13509:	83 e8 01             	sub    $0x1,%eax
   1350c:	89 05 ae bc 00 00    	mov    %eax,0xbcae(%rip)        # 1f1c0 <g_523>
   13512:	8b 05 a8 bc 00 00    	mov    0xbca8(%rip),%eax        # 1f1c0 <g_523>
   13518:	85 c0                	test   %eax,%eax
   1351a:	0f 89 23 f9 ff ff    	jns    12e43 <func_33+0x2fd7>
   13520:	eb 04                	jmp    13526 <func_33+0x36ba>
   13522:	90                   	nop
   13523:	eb 01                	jmp    13526 <func_33+0x36ba>
   13525:	90                   	nop
   13526:	48 8b 05 3b bb 00 00 	mov    0xbb3b(%rip),%rax        # 1f068 <g_111>
   1352d:	48 83 c0 01          	add    $0x1,%rax
   13531:	48 89 05 30 bb 00 00 	mov    %rax,0xbb30(%rip)        # 1f068 <g_111>
   13538:	48 8b 05 29 bb 00 00 	mov    0xbb29(%rip),%rax        # 1f068 <g_111>
   1353f:	48 83 f8 08          	cmp    $0x8,%rax
   13543:	0f 8e 4d f5 ff ff    	jle    12a96 <func_33+0x2c2a>
   13549:	8b 9d b4 e7 ff ff    	mov    -0x184c(%rbp),%ebx
   1354f:	4c 0f bf a5 68 e7 ff 	movswq -0x1898(%rbp),%r12
   13556:	ff 
   13557:	48 8b 05 c2 f4 00 00 	mov    0xf4c2(%rip),%rax        # 22a20 <g_2087>
   1355e:	48 8b 00             	mov    (%rax),%rax
   13561:	48 89 c2             	mov    %rax,%rdx
   13564:	c7 05 7e fc 00 00 01 	movl   $0x1,0xfc7e(%rip)        # 231ec <g_1844>
   1356b:	00 00 00 
   1356e:	0f b7 85 86 e7 ff ff 	movzwl -0x187a(%rbp),%eax
   13575:	83 c8 01             	or     $0x1,%eax
   13578:	0f b7 c0             	movzwl %ax,%eax
   1357b:	48 89 d6             	mov    %rdx,%rsi
   1357e:	48 89 c7             	mov    %rax,%rdi
   13581:	e8 2e 74 ff ff       	callq  a9b4 <safe_mod_func_int64_t_s_s>
   13586:	49 39 c4             	cmp    %rax,%r12
   13589:	0f 9f c0             	setg   %al
   1358c:	0f b6 c0             	movzbl %al,%eax
   1358f:	39 85 b4 e7 ff ff    	cmp    %eax,-0x184c(%rbp)
   13595:	0f 94 c0             	sete   %al
   13598:	0f b6 d0             	movzbl %al,%edx
   1359b:	48 8b 05 06 ef 00 00 	mov    0xef06(%rip),%rax        # 224a8 <g_1565>
   135a2:	0f b6 00             	movzbl (%rax),%eax
   135a5:	0f be c8             	movsbl %al,%ecx
   135a8:	48 8b 85 90 e8 ff ff 	mov    -0x1770(%rbp),%rax
   135af:	48 8b 00             	mov    (%rax),%rax
   135b2:	0f b6 30             	movzbl (%rax),%esi
   135b5:	83 c6 01             	add    $0x1,%esi
   135b8:	40 88 30             	mov    %sil,(%rax)
   135bb:	0f b6 00             	movzbl (%rax),%eax
   135be:	0f b6 c0             	movzbl %al,%eax
   135c1:	39 c1                	cmp    %eax,%ecx
   135c3:	0f 9f c0             	setg   %al
   135c6:	0f b6 c0             	movzbl %al,%eax
   135c9:	89 d6                	mov    %edx,%esi
   135cb:	89 c7                	mov    %eax,%edi
   135cd:	e8 fe 78 ff ff       	callq  aed0 <safe_sub_func_uint32_t_u_u>
   135d2:	89 c0                	mov    %eax,%eax
   135d4:	48 89 85 f0 e8 ff ff 	mov    %rax,-0x1710(%rbp)
   135db:	48 8b 85 f0 e8 ff ff 	mov    -0x1710(%rbp),%rax
   135e2:	98                   	cwtl   
   135e3:	be 08 00 00 00       	mov    $0x8,%esi
   135e8:	89 c7                	mov    %eax,%edi
   135ea:	e8 3b 6f ff ff       	callq  a52a <safe_rshift_func_int16_t_s_s>
   135ef:	98                   	cwtl   
   135f0:	89 85 08 e8 ff ff    	mov    %eax,-0x17f8(%rbp)
   135f6:	8b 85 08 e8 ff ff    	mov    -0x17f8(%rbp),%eax
   135fc:	98                   	cwtl   
   135fd:	89 c7                	mov    %eax,%edi
   135ff:	e8 99 6d ff ff       	callq  a39d <safe_unary_minus_func_int16_t_s>
   13604:	48 0f bf c0          	movswq %ax,%rax
   13608:	48 89 c6             	mov    %rax,%rsi
   1360b:	bf 00 00 00 00       	mov    $0x0,%edi
   13610:	e8 6b 7a ff ff       	callq  b080 <safe_mod_func_uint64_t_u_u>
   13615:	8b 85 e8 e7 ff ff    	mov    -0x1818(%rbp),%eax
   1361b:	83 c8 01             	or     $0x1,%eax
   1361e:	0f b6 c0             	movzbl %al,%eax
   13621:	89 c7                	mov    %eax,%edi
   13623:	e8 1d 75 ff ff       	callq  ab45 <safe_unary_minus_func_uint8_t_u>
   13628:	0f b6 d0             	movzbl %al,%edx
   1362b:	8b 85 f8 ea ff ff    	mov    -0x1508(%rbp),%eax
   13631:	39 c2                	cmp    %eax,%edx
   13633:	0f 97 c0             	seta   %al
   13636:	0f b6 c0             	movzbl %al,%eax
   13639:	be ba ff ff ff       	mov    $0xffffffba,%esi
   1363e:	89 c7                	mov    %eax,%edi
   13640:	e8 cd 6b ff ff       	callq  a212 <safe_mul_func_int8_t_s_s>
   13645:	0f be c0             	movsbl %al,%eax
   13648:	89 de                	mov    %ebx,%esi
   1364a:	89 c7                	mov    %eax,%edi
   1364c:	e8 67 78 ff ff       	callq  aeb8 <safe_add_func_uint32_t_u_u>
   13651:	89 85 70 ea ff ff    	mov    %eax,-0x1590(%rbp)
   13657:	48 8b 05 ba f3 00 00 	mov    0xf3ba(%rip),%rax        # 22a18 <g_2072>
   1365e:	8b 00                	mov    (%rax),%eax
   13660:	85 c0                	test   %eax,%eax
   13662:	0f 85 76 01 00 00    	jne    137de <func_33+0x3972>
   13668:	0f b6 9d 6c e7 ff ff 	movzbl -0x1894(%rbp),%ebx
   1366f:	8b 85 ec e7 ff ff    	mov    -0x1814(%rbp),%eax
   13675:	44 0f be e0          	movsbl %al,%r12d
   13679:	44 0f b6 ad 6c e7 ff 	movzbl -0x1894(%rbp),%r13d
   13680:	ff 
   13681:	48 8d 05 78 ec 00 00 	lea    0xec78(%rip),%rax        # 22300 <g_1402>
   13688:	48 89 85 48 e9 ff ff 	mov    %rax,-0x16b8(%rbp)
   1368f:	48 8b 05 d2 ea 00 00 	mov    0xead2(%rip),%rax        # 22168 <g_1066>
   13696:	8b 00                	mov    (%rax),%eax
   13698:	89 c6                	mov    %eax,%esi
   1369a:	bf 10 ac ee 12       	mov    $0x12eeac10,%edi
   1369f:	e8 59 78 ff ff       	callq  aefd <safe_mod_func_uint32_t_u_u>
   136a4:	48 8b 05 9d f6 00 00 	mov    0xf69d(%rip),%rax        # 22d48 <g_2520>
   136ab:	48 89 05 96 f6 00 00 	mov    %rax,0xf696(%rip)        # 22d48 <g_2520>
   136b2:	48 8b 05 8f f6 00 00 	mov    0xf68f(%rip),%rax        # 22d48 <g_2520>
   136b9:	48 8d 15 40 ec 00 00 	lea    0xec40(%rip),%rdx        # 22300 <g_1402>
   136c0:	48 39 d0             	cmp    %rdx,%rax
   136c3:	0f 94 c0             	sete   %al
   136c6:	0f b6 c0             	movzbl %al,%eax
   136c9:	be 0a 00 00 00       	mov    $0xa,%esi
   136ce:	89 c7                	mov    %eax,%edi
   136d0:	e8 0c 6e ff ff       	callq  a4e1 <safe_lshift_func_int16_t_s_u>
   136d5:	98                   	cwtl   
   136d6:	44 89 ee             	mov    %r13d,%esi
   136d9:	89 c7                	mov    %eax,%edi
   136db:	e8 f0 77 ff ff       	callq  aed0 <safe_sub_func_uint32_t_u_u>
   136e0:	85 c0                	test   %eax,%eax
   136e2:	74 14                	je     136f8 <func_33+0x388c>
   136e4:	48 8b 05 2d f3 00 00 	mov    0xf32d(%rip),%rax        # 22a18 <g_2072>
   136eb:	8b 00                	mov    (%rax),%eax
   136ed:	85 c0                	test   %eax,%eax
   136ef:	74 07                	je     136f8 <func_33+0x388c>
   136f1:	ba 01 00 00 00       	mov    $0x1,%edx
   136f6:	eb 05                	jmp    136fd <func_33+0x3891>
   136f8:	ba 00 00 00 00       	mov    $0x0,%edx
   136fd:	0f b6 85 6c e7 ff ff 	movzbl -0x1894(%rbp),%eax
   13704:	39 c2                	cmp    %eax,%edx
   13706:	0f 9d c0             	setge  %al
   13709:	0f b6 c0             	movzbl %al,%eax
   1370c:	44 89 e6             	mov    %r12d,%esi
   1370f:	89 c7                	mov    %eax,%edi
   13711:	e8 54 6b ff ff       	callq  a26a <safe_div_func_int8_t_s_s>
   13716:	66 98                	cbtw   
   13718:	0f b7 c8             	movzwl %ax,%ecx
   1371b:	48 8b 05 26 e3 00 00 	mov    0xe326(%rip),%rax        # 21a48 <g_174>
   13722:	0f b7 10             	movzwl (%rax),%edx
   13725:	8d 72 ff             	lea    -0x1(%rdx),%esi
   13728:	66 89 30             	mov    %si,(%rax)
   1372b:	0f b7 c2             	movzwl %dx,%eax
   1372e:	89 ce                	mov    %ecx,%esi
   13730:	89 c7                	mov    %eax,%edi
   13732:	e8 06 76 ff ff       	callq  ad3d <safe_mul_func_uint16_t_u_u>
   13737:	44 0f b7 e0          	movzwl %ax,%r12d
   1373b:	48 bf 0f 5b 26 0b 2f 	movabs $0x7248802f0b265b0f,%rdi
   13742:	80 48 72 
   13745:	e8 cf 78 ff ff       	callq  b019 <safe_unary_minus_func_uint64_t_u>
   1374a:	ba e7 1b 78 81       	mov    $0x81781be7,%edx
   1374f:	48 39 d0             	cmp    %rdx,%rax
   13752:	0f 97 c0             	seta   %al
   13755:	44 0f b6 e8          	movzbl %al,%r13d
   13759:	8b 85 a0 e7 ff ff    	mov    -0x1860(%rbp),%eax
   1375f:	0f b7 c0             	movzwl %ax,%eax
   13762:	be 01 00 00 00       	mov    $0x1,%esi
   13767:	89 c7                	mov    %eax,%edi
   13769:	e8 ee 75 ff ff       	callq  ad5c <safe_mod_func_uint16_t_u_u>
   1376e:	0f be c0             	movsbl %al,%eax
   13771:	44 89 ee             	mov    %r13d,%esi
   13774:	89 c7                	mov    %eax,%edi
   13776:	e8 97 6a ff ff       	callq  a212 <safe_mul_func_int8_t_s_s>
   1377b:	66 98                	cbtw   
   1377d:	0f b7 c0             	movzwl %ax,%eax
   13780:	44 89 e6             	mov    %r12d,%esi
   13783:	89 c7                	mov    %eax,%edi
   13785:	e8 b3 75 ff ff       	callq  ad3d <safe_mul_func_uint16_t_u_u>
   1378a:	be 80 ff ff ff       	mov    $0xffffff80,%esi
   1378f:	bf 00 00 00 00       	mov    $0x0,%edi
   13794:	e8 98 6a ff ff       	callq  a231 <safe_mod_func_int8_t_s_s>
   13799:	89 de                	mov    %ebx,%esi
   1379b:	bf 00 00 00 00       	mov    $0x0,%edi
   137a0:	e8 5a 75 ff ff       	callq  acff <safe_add_func_uint16_t_u_u>
   137a5:	0f b6 95 6c e7 ff ff 	movzbl -0x1894(%rbp),%edx
   137ac:	66 39 d0             	cmp    %dx,%ax
   137af:	75 11                	jne    137c2 <func_33+0x3956>
   137b1:	66 83 bd 68 e7 ff ff 	cmpw   $0x0,-0x1898(%rbp)
   137b8:	00 
   137b9:	74 07                	je     137c2 <func_33+0x3956>
   137bb:	ba 01 00 00 00       	mov    $0x1,%edx
   137c0:	eb 05                	jmp    137c7 <func_33+0x395b>
   137c2:	ba 00 00 00 00       	mov    $0x0,%edx
   137c7:	8b 85 80 ea ff ff    	mov    -0x1580(%rbp),%eax
   137cd:	98                   	cwtl   
   137ce:	89 d6                	mov    %edx,%esi
   137d0:	89 c7                	mov    %eax,%edi
   137d2:	e8 bb 6c ff ff       	callq  a492 <safe_lshift_func_int16_t_s_s>
   137d7:	98                   	cwtl   
   137d8:	89 85 a0 e7 ff ff    	mov    %eax,-0x1860(%rbp)
   137de:	8b 05 58 b8 00 00    	mov    0xb858(%rip),%eax        # 1f03c <g_75>
   137e4:	0f be c0             	movsbl %al,%eax
   137e7:	be 06 00 00 00       	mov    $0x6,%esi
   137ec:	89 c7                	mov    %eax,%edi
   137ee:	e8 ff 69 ff ff       	callq  a1f2 <safe_sub_func_int8_t_s_s>
   137f3:	0f be c0             	movsbl %al,%eax
   137f6:	89 05 40 b8 00 00    	mov    %eax,0xb840(%rip)        # 1f03c <g_75>
   137fc:	8b 05 3a b8 00 00    	mov    0xb83a(%rip),%eax        # 1f03c <g_75>
   13802:	83 f8 04             	cmp    $0x4,%eax
   13805:	0f 8f a9 ed ff ff    	jg     125b4 <func_33+0x2748>
   1380b:	66 81 bd 68 e7 ff ff 	cmpw   $0x4950,-0x1898(%rbp)
   13812:	50 49 
   13814:	75 14                	jne    1382a <func_33+0x39be>
   13816:	48 8b 05 d3 ea 00 00 	mov    0xead3(%rip),%rax        # 222f0 <g_1357>
   1381d:	48 bb 64 bd 55 b9 38 	movabs $0x851cc538b955bd64,%rbx
   13824:	c5 1c 85 
   13827:	48 89 18             	mov    %rbx,(%rax)
   1382a:	ba 01 00 00 00       	mov    $0x1,%edx
   1382f:	48 8b 05 1a f5 00 00 	mov    0xf51a(%rip),%rax        # 22d50 <g_2524>
   13836:	89 10                	mov    %edx,(%rax)
   13838:	8b 85 94 ea ff ff    	mov    -0x156c(%rbp),%eax
   1383e:	48 8b 5d c8          	mov    -0x38(%rbp),%rbx
   13842:	64 48 33 1c 25 28 00 	xor    %fs:0x28,%rbx
   13849:	00 00 
   1384b:	74 05                	je     13852 <func_33+0x39e6>
   1384d:	e8 1e 68 ff ff       	callq  a070 <__stack_chk_fail@plt>
   13852:	48 81 c4 88 18 00 00 	add    $0x1888,%rsp
   13859:	5b                   	pop    %rbx
   1385a:	41 5c                	pop    %r12
   1385c:	41 5d                	pop    %r13
   1385e:	41 5e                	pop    %r14
   13860:	41 5f                	pop    %r15
   13862:	5d                   	pop    %rbp
   13863:	c3                   	retq   

0000000000013864 <func_41>:
   13864:	f3 0f 1e fa          	endbr64 
   13868:	55                   	push   %rbp
   13869:	48 89 e5             	mov    %rsp,%rbp
   1386c:	48 81 ec a0 00 00 00 	sub    $0xa0,%rsp
   13873:	48 89 7d 88          	mov    %rdi,-0x78(%rbp)
   13877:	89 75 84             	mov    %esi,-0x7c(%rbp)
   1387a:	48 89 95 78 ff ff ff 	mov    %rdx,-0x88(%rbp)
   13881:	48 89 8d 70 ff ff ff 	mov    %rcx,-0x90(%rbp)
   13888:	4c 89 85 68 ff ff ff 	mov    %r8,-0x98(%rbp)
   1388f:	64 48 8b 04 25 28 00 	mov    %fs:0x28,%rax
   13896:	00 00 
   13898:	48 89 45 f8          	mov    %rax,-0x8(%rbp)
   1389c:	31 c0                	xor    %eax,%eax
   1389e:	c7 45 98 00 00 00 00 	movl   $0x0,-0x68(%rbp)
   138a5:	eb 3c                	jmp    138e3 <func_41+0x7f>
   138a7:	c7 45 9c 00 00 00 00 	movl   $0x0,-0x64(%rbp)
   138ae:	eb 29                	jmp    138d9 <func_41+0x75>
   138b0:	8b 45 9c             	mov    -0x64(%rbp),%eax
   138b3:	48 63 c8             	movslq %eax,%rcx
   138b6:	8b 45 98             	mov    -0x68(%rbp),%eax
   138b9:	48 63 d0             	movslq %eax,%rdx
   138bc:	48 89 d0             	mov    %rdx,%rax
   138bf:	48 c1 e0 02          	shl    $0x2,%rax
   138c3:	48 01 d0             	add    %rdx,%rax
   138c6:	48 01 c8             	add    %rcx,%rax
   138c9:	48 8d 15 f8 e2 00 00 	lea    0xe2f8(%rip),%rdx        # 21bc8 <g_301>
   138d0:	48 89 54 c5 a0       	mov    %rdx,-0x60(%rbp,%rax,8)
   138d5:	83 45 9c 01          	addl   $0x1,-0x64(%rbp)
   138d9:	83 7d 9c 04          	cmpl   $0x4,-0x64(%rbp)
   138dd:	7e d1                	jle    138b0 <func_41+0x4c>
   138df:	83 45 98 01          	addl   $0x1,-0x68(%rbp)
   138e3:	83 7d 98 01          	cmpl   $0x1,-0x68(%rbp)
   138e7:	7e be                	jle    138a7 <func_41+0x43>
   138e9:	48 8b 45 a8          	mov    -0x58(%rbp),%rax
   138ed:	48 8b 75 f8          	mov    -0x8(%rbp),%rsi
   138f1:	64 48 33 34 25 28 00 	xor    %fs:0x28,%rsi
   138f8:	00 00 
   138fa:	74 05                	je     13901 <func_41+0x9d>
   138fc:	e8 6f 67 ff ff       	callq  a070 <__stack_chk_fail@plt>
   13901:	c9                   	leaveq 
   13902:	c3                   	retq   

0000000000013903 <func_47>:
   13903:	f3 0f 1e fa          	endbr64 
   13907:	55                   	push   %rbp
   13908:	48 89 e5             	mov    %rsp,%rbp
   1390b:	89 f8                	mov    %edi,%eax
   1390d:	89 75 e8             	mov    %esi,-0x18(%rbp)
   13910:	89 55 e4             	mov    %edx,-0x1c(%rbp)
   13913:	66 89 45 ec          	mov    %ax,-0x14(%rbp)
   13917:	c7 45 f4 21 89 45 82 	movl   $0x82458921,-0xc(%rbp)
   1391e:	48 c7 45 f8 00 00 00 	movq   $0x0,-0x8(%rbp)
   13925:	00 
   13926:	83 6d f4 01          	subl   $0x1,-0xc(%rbp)
   1392a:	48 8b 45 f8          	mov    -0x8(%rbp),%rax
   1392e:	5d                   	pop    %rbp
   1392f:	c3                   	retq   

0000000000013930 <func_51>:
   13930:	f3 0f 1e fa          	endbr64 
   13934:	55                   	push   %rbp
   13935:	48 89 e5             	mov    %rsp,%rbp
   13938:	48 81 ec a0 01 00 00 	sub    $0x1a0,%rsp
   1393f:	48 89 bd 78 fe ff ff 	mov    %rdi,-0x188(%rbp)
   13946:	48 89 b5 70 fe ff ff 	mov    %rsi,-0x190(%rbp)
   1394d:	48 89 95 68 fe ff ff 	mov    %rdx,-0x198(%rbp)
   13954:	48 89 8d 60 fe ff ff 	mov    %rcx,-0x1a0(%rbp)
   1395b:	64 48 8b 04 25 28 00 	mov    %fs:0x28,%rax
   13962:	00 00 
   13964:	48 89 45 f8          	mov    %rax,-0x8(%rbp)
   13968:	31 c0                	xor    %eax,%eax
   1396a:	48 8d 05 4f b8 00 00 	lea    0xb84f(%rip),%rax        # 1f1c0 <g_523>
   13971:	48 89 85 80 fe ff ff 	mov    %rax,-0x180(%rbp)
   13978:	48 8d 85 90 fe ff ff 	lea    -0x170(%rbp),%rax
   1397f:	48 8d 15 fa d4 00 00 	lea    0xd4fa(%rip),%rdx        # 20e80 <g_2882+0x1b00>
   13986:	b9 2d 00 00 00       	mov    $0x2d,%ecx
   1398b:	48 89 c7             	mov    %rax,%rdi
   1398e:	48 89 d6             	mov    %rdx,%rsi
   13991:	f3 48 a5             	rep movsq %ds:(%rsi),%es:(%rdi)
   13994:	48 b8 bf 3b 14 ac 9b 	movabs $0xeb29909bac143bbf,%rax
   1399b:	90 29 eb 
   1399e:	48 89 85 88 fe ff ff 	mov    %rax,-0x178(%rbp)
   139a5:	48 83 85 88 fe ff ff 	addq   $0x1,-0x178(%rbp)
   139ac:	01 
   139ad:	48 8b 05 34 de 00 00 	mov    0xde34(%rip),%rax        # 217e8 <g_56>
   139b4:	48 8b 95 80 fe ff ff 	mov    -0x180(%rbp),%rdx
   139bb:	48 89 10             	mov    %rdx,(%rax)
   139be:	48 8b 85 60 fe ff ff 	mov    -0x1a0(%rbp),%rax
   139c5:	48 c7 00 00 00 00 00 	movq   $0x0,(%rax)
   139cc:	48 8b 05 95 b7 00 00 	mov    0xb795(%rip),%rax        # 1f168 <g_379+0x8>
   139d3:	48 8b 4d f8          	mov    -0x8(%rbp),%rcx
   139d7:	64 48 33 0c 25 28 00 	xor    %fs:0x28,%rcx
   139de:	00 00 
   139e0:	74 05                	je     139e7 <func_51+0xb7>
   139e2:	e8 89 66 ff ff       	callq  a070 <__stack_chk_fail@plt>
   139e7:	c9                   	leaveq 
   139e8:	c3                   	retq   

00000000000139e9 <func_58>:
   139e9:	f3 0f 1e fa          	endbr64 
   139ed:	55                   	push   %rbp
   139ee:	48 89 e5             	mov    %rsp,%rbp
   139f1:	41 57                	push   %r15
   139f3:	41 56                	push   %r14
   139f5:	41 55                	push   %r13
   139f7:	41 54                	push   %r12
   139f9:	53                   	push   %rbx
   139fa:	48 81 ec 00 10 00 00 	sub    $0x1000,%rsp
   13a01:	48 83 0c 24 00       	orq    $0x0,(%rsp)
   13a06:	48 81 ec 88 01 00 00 	sub    $0x188,%rsp
   13a0d:	89 bd 6c ee ff ff    	mov    %edi,-0x1194(%rbp)
   13a13:	89 b5 68 ee ff ff    	mov    %esi,-0x1198(%rbp)
   13a19:	48 89 95 60 ee ff ff 	mov    %rdx,-0x11a0(%rbp)
   13a20:	89 c8                	mov    %ecx,%eax
   13a22:	88 85 5c ee ff ff    	mov    %al,-0x11a4(%rbp)
   13a28:	64 48 8b 04 25 28 00 	mov    %fs:0x28,%rax
   13a2f:	00 00 
   13a31:	48 89 45 c8          	mov    %rax,-0x38(%rbp)
   13a35:	31 c0                	xor    %eax,%eax
   13a37:	48 8d 05 fa b5 00 00 	lea    0xb5fa(%rip),%rax        # 1f038 <g_73>
   13a3e:	48 89 85 90 f0 ff ff 	mov    %rax,-0xf70(%rbp)
   13a45:	48 c7 85 98 f0 ff ff 	movq   $0x0,-0xf68(%rbp)
   13a4c:	00 00 00 00 
   13a50:	48 8d 05 e1 b5 00 00 	lea    0xb5e1(%rip),%rax        # 1f038 <g_73>
   13a57:	48 89 85 a0 f0 ff ff 	mov    %rax,-0xf60(%rbp)
   13a5e:	48 8d 05 d3 b5 00 00 	lea    0xb5d3(%rip),%rax        # 1f038 <g_73>
   13a65:	48 89 85 a8 f0 ff ff 	mov    %rax,-0xf58(%rbp)
   13a6c:	48 8d 05 c5 b5 00 00 	lea    0xb5c5(%rip),%rax        # 1f038 <g_73>
   13a73:	48 89 85 b0 f0 ff ff 	mov    %rax,-0xf50(%rbp)
   13a7a:	48 8d 05 b7 b5 00 00 	lea    0xb5b7(%rip),%rax        # 1f038 <g_73>
   13a81:	48 89 85 b8 f0 ff ff 	mov    %rax,-0xf48(%rbp)
   13a88:	48 c7 85 c0 f0 ff ff 	movq   $0x0,-0xf40(%rbp)
   13a8f:	00 00 00 00 
   13a93:	48 8d 05 9e b5 00 00 	lea    0xb59e(%rip),%rax        # 1f038 <g_73>
   13a9a:	48 89 85 c8 f0 ff ff 	mov    %rax,-0xf38(%rbp)
   13aa1:	48 8d 05 90 b5 00 00 	lea    0xb590(%rip),%rax        # 1f038 <g_73>
   13aa8:	48 89 85 d0 f0 ff ff 	mov    %rax,-0xf30(%rbp)
   13aaf:	48 8d 05 82 b5 00 00 	lea    0xb582(%rip),%rax        # 1f038 <g_73>
   13ab6:	48 89 85 d8 f0 ff ff 	mov    %rax,-0xf28(%rbp)
   13abd:	48 8d 05 74 b5 00 00 	lea    0xb574(%rip),%rax        # 1f038 <g_73>
   13ac4:	48 89 85 e0 f0 ff ff 	mov    %rax,-0xf20(%rbp)
   13acb:	48 8d 05 66 b5 00 00 	lea    0xb566(%rip),%rax        # 1f038 <g_73>
   13ad2:	48 89 85 e8 f0 ff ff 	mov    %rax,-0xf18(%rbp)
   13ad9:	48 8d 05 58 b5 00 00 	lea    0xb558(%rip),%rax        # 1f038 <g_73>
   13ae0:	48 89 85 f0 f0 ff ff 	mov    %rax,-0xf10(%rbp)
   13ae7:	48 8d 05 4a b5 00 00 	lea    0xb54a(%rip),%rax        # 1f038 <g_73>
   13aee:	48 89 85 f8 f0 ff ff 	mov    %rax,-0xf08(%rbp)
   13af5:	48 8d 05 3c b5 00 00 	lea    0xb53c(%rip),%rax        # 1f038 <g_73>
   13afc:	48 89 85 00 f1 ff ff 	mov    %rax,-0xf00(%rbp)
   13b03:	48 8d 05 2e b5 00 00 	lea    0xb52e(%rip),%rax        # 1f038 <g_73>
   13b0a:	48 89 85 08 f1 ff ff 	mov    %rax,-0xef8(%rbp)
   13b11:	48 8d 05 20 b5 00 00 	lea    0xb520(%rip),%rax        # 1f038 <g_73>
   13b18:	48 89 85 10 f1 ff ff 	mov    %rax,-0xef0(%rbp)
   13b1f:	48 8d 05 12 b5 00 00 	lea    0xb512(%rip),%rax        # 1f038 <g_73>
   13b26:	48 89 85 18 f1 ff ff 	mov    %rax,-0xee8(%rbp)
   13b2d:	48 8d 05 04 b5 00 00 	lea    0xb504(%rip),%rax        # 1f038 <g_73>
   13b34:	48 89 85 20 f1 ff ff 	mov    %rax,-0xee0(%rbp)
   13b3b:	48 8d 05 f6 b4 00 00 	lea    0xb4f6(%rip),%rax        # 1f038 <g_73>
   13b42:	48 89 85 28 f1 ff ff 	mov    %rax,-0xed8(%rbp)
   13b49:	48 8d 05 e8 b4 00 00 	lea    0xb4e8(%rip),%rax        # 1f038 <g_73>
   13b50:	48 89 85 30 f1 ff ff 	mov    %rax,-0xed0(%rbp)
   13b57:	48 8d 05 da b4 00 00 	lea    0xb4da(%rip),%rax        # 1f038 <g_73>
   13b5e:	48 89 85 38 f1 ff ff 	mov    %rax,-0xec8(%rbp)
   13b65:	48 8d 05 cc b4 00 00 	lea    0xb4cc(%rip),%rax        # 1f038 <g_73>
   13b6c:	48 89 85 40 f1 ff ff 	mov    %rax,-0xec0(%rbp)
   13b73:	48 8d 05 be b4 00 00 	lea    0xb4be(%rip),%rax        # 1f038 <g_73>
   13b7a:	48 89 85 48 f1 ff ff 	mov    %rax,-0xeb8(%rbp)
   13b81:	48 8d 05 a8 b4 00 00 	lea    0xb4a8(%rip),%rax        # 1f030 <g_64>
   13b88:	48 89 85 48 ef ff ff 	mov    %rax,-0x10b8(%rbp)
   13b8f:	48 8d 05 52 f6 00 00 	lea    0xf652(%rip),%rax        # 231e8 <g_726>
   13b96:	48 89 85 50 ef ff ff 	mov    %rax,-0x10b0(%rbp)
   13b9d:	c7 85 78 ee ff ff 04 	movl   $0x4,-0x1188(%rbp)
   13ba4:	00 00 00 
   13ba7:	c7 85 7c ee ff ff ff 	movl   $0xffffffff,-0x1184(%rbp)
   13bae:	ff ff ff 
   13bb1:	48 b8 6e af 19 2d 25 	movabs $0x2a5aa1252d19af6e,%rax
   13bb8:	a1 5a 2a 
   13bbb:	48 89 85 40 ef ff ff 	mov    %rax,-0x10c0(%rbp)
   13bc2:	48 8d 05 7f e9 00 00 	lea    0xe97f(%rip),%rax        # 22548 <g_1698>
   13bc9:	48 89 85 b8 ee ff ff 	mov    %rax,-0x1148(%rbp)
   13bd0:	48 8d 85 b8 ee ff ff 	lea    -0x1148(%rbp),%rax
   13bd7:	48 89 85 58 ef ff ff 	mov    %rax,-0x10a8(%rbp)
   13bde:	66 c7 85 76 ee ff ff 	movw   $0xfffe,-0x118a(%rbp)
   13be5:	fe ff 
   13be7:	48 8d 05 d6 b5 00 00 	lea    0xb5d6(%rip),%rax        # 1f1c4 <g_718>
   13bee:	48 89 85 c0 ee ff ff 	mov    %rax,-0x1140(%rbp)
   13bf5:	48 8d 85 c0 ee ff ff 	lea    -0x1140(%rbp),%rax
   13bfc:	48 89 85 60 ef ff ff 	mov    %rax,-0x10a0(%rbp)
   13c03:	48 c7 85 68 ef ff ff 	movq   $0x0,-0x1098(%rbp)
   13c0a:	00 00 00 00 
   13c0e:	48 8d 85 50 f2 ff ff 	lea    -0xdb0(%rbp),%rax
   13c15:	48 8d 15 84 74 00 00 	lea    0x7484(%rip),%rdx        # 1b0a0 <g_2661+0x1030>
   13c1c:	b9 54 00 00 00       	mov    $0x54,%ecx
   13c21:	48 89 c7             	mov    %rax,%rdi
   13c24:	48 89 d6             	mov    %rdx,%rsi
   13c27:	f3 48 a5             	rep movsq %ds:(%rsi),%es:(%rdi)
   13c2a:	48 8d 05 97 df 00 00 	lea    0xdf97(%rip),%rax        # 21bc8 <g_301>
   13c31:	48 89 85 70 ef ff ff 	mov    %rax,-0x1090(%rbp)
   13c38:	48 8b 8d 48 ef ff ff 	mov    -0x10b8(%rbp),%rcx
   13c3f:	48 8b 85 48 ef ff ff 	mov    -0x10b8(%rbp),%rax
   13c46:	48 8d 15 eb b3 00 00 	lea    0xb3eb(%rip),%rdx        # 1f038 <g_73>
   13c4d:	48 89 ce             	mov    %rcx,%rsi
   13c50:	48 89 c7             	mov    %rax,%rdi
   13c53:	e8 a4 4f 00 00       	callq  18bfc <func_83>
   13c58:	48 89 c7             	mov    %rax,%rdi
   13c5b:	0f b6 b5 5c ee ff ff 	movzbl -0x11a4(%rbp),%esi
   13c62:	48 8b 85 98 f0 ff ff 	mov    -0xf68(%rbp),%rax
   13c69:	48 8d 95 68 ee ff ff 	lea    -0x1198(%rbp),%rdx
   13c70:	4c 8d 05 c1 b3 00 00 	lea    0xb3c1(%rip),%r8        # 1f038 <g_73>
   13c77:	48 89 d1             	mov    %rdx,%rcx
   13c7a:	48 89 fa             	mov    %rdi,%rdx
   13c7d:	48 89 c7             	mov    %rax,%rdi
   13c80:	e8 3f 1a 00 00       	callq  156c4 <func_76>
   13c85:	48 8b 95 60 ee ff ff 	mov    -0x11a0(%rbp),%rdx
   13c8c:	48 8b 85 50 ef ff ff 	mov    -0x10b0(%rbp),%rax
   13c93:	8b 00                	mov    (%rax),%eax
   13c95:	89 c1                	mov    %eax,%ecx
   13c97:	89 d0                	mov    %edx,%eax
   13c99:	31 c8                	xor    %ecx,%eax
   13c9b:	89 c2                	mov    %eax,%edx
   13c9d:	48 8b 85 50 ef ff ff 	mov    -0x10b0(%rbp),%rax
   13ca4:	89 10                	mov    %edx,(%rax)
   13ca6:	48 8b 05 73 e4 00 00 	mov    0xe473(%rip),%rax        # 22120 <g_774>
   13cad:	48 8b 00             	mov    (%rax),%rax
   13cb0:	8b 95 68 ee ff ff    	mov    -0x1198(%rbp),%edx
   13cb6:	89 10                	mov    %edx,(%rax)
   13cb8:	48 8b 05 61 e4 00 00 	mov    0xe461(%rip),%rax        # 22120 <g_774>
   13cbf:	48 c7 00 00 00 00 00 	movq   $0x0,(%rax)
   13cc6:	c7 05 84 b4 00 00 e5 	movl   $0xffffffe5,0xb484(%rip)        # 1f154 <g_378>
   13ccd:	ff ff ff 
   13cd0:	e9 b3 19 00 00       	jmpq   15688 <func_58+0x1c9f>
   13cd5:	48 8d 05 e4 b4 00 00 	lea    0xb4e4(%rip),%rax        # 1f1c0 <g_523>
   13cdc:	48 89 85 c8 ee ff ff 	mov    %rax,-0x1138(%rbp)
   13ce3:	48 8d 05 d6 b4 00 00 	lea    0xb4d6(%rip),%rax        # 1f1c0 <g_523>
   13cea:	48 89 85 d0 ee ff ff 	mov    %rax,-0x1130(%rbp)
   13cf1:	48 8d 05 44 b3 00 00 	lea    0xb344(%rip),%rax        # 1f03c <g_75>
   13cf8:	48 89 85 d8 ee ff ff 	mov    %rax,-0x1128(%rbp)
   13cff:	48 8d 05 ba b4 00 00 	lea    0xb4ba(%rip),%rax        # 1f1c0 <g_523>
   13d06:	48 89 85 e0 ee ff ff 	mov    %rax,-0x1120(%rbp)
   13d0d:	48 8d 05 ac b4 00 00 	lea    0xb4ac(%rip),%rax        # 1f1c0 <g_523>
   13d14:	48 89 85 e8 ee ff ff 	mov    %rax,-0x1118(%rbp)
   13d1b:	c7 85 e0 ef ff ff f5 	movl   $0x92bf5,-0x1020(%rbp)
   13d22:	2b 09 00 
   13d25:	c7 85 e4 ef ff ff f5 	movl   $0x92bf5,-0x101c(%rbp)
   13d2c:	2b 09 00 
   13d2f:	c7 85 e8 ef ff ff f5 	movl   $0x92bf5,-0x1018(%rbp)
   13d36:	2b 09 00 
   13d39:	c7 85 ec ef ff ff f5 	movl   $0x92bf5,-0x1014(%rbp)
   13d40:	2b 09 00 
   13d43:	c7 85 f0 ef ff ff f5 	movl   $0x92bf5,-0x1010(%rbp)
   13d4a:	2b 09 00 
   13d4d:	48 8d 05 e8 b2 00 00 	lea    0xb2e8(%rip),%rax        # 1f03c <g_75>
   13d54:	48 89 85 f0 ee ff ff 	mov    %rax,-0x1110(%rbp)
   13d5b:	48 8d 85 78 ee ff ff 	lea    -0x1188(%rbp),%rax
   13d62:	48 89 85 f8 ee ff ff 	mov    %rax,-0x1108(%rbp)
   13d69:	48 8d 85 7c ee ff ff 	lea    -0x1184(%rbp),%rax
   13d70:	48 89 85 78 ef ff ff 	mov    %rax,-0x1088(%rbp)
   13d77:	48 8d 05 46 b4 00 00 	lea    0xb446(%rip),%rax        # 1f1c4 <g_718>
   13d7e:	48 89 85 80 ef ff ff 	mov    %rax,-0x1080(%rbp)
   13d85:	48 c7 85 00 ef ff ff 	movq   $0x0,-0x1100(%rbp)
   13d8c:	00 00 00 00 
   13d90:	48 8d 85 00 ef ff ff 	lea    -0x1100(%rbp),%rax
   13d97:	48 89 85 08 ef ff ff 	mov    %rax,-0x10f8(%rbp)
   13d9e:	48 8d 85 08 ef ff ff 	lea    -0x10f8(%rbp),%rax
   13da5:	48 89 85 30 f0 ff ff 	mov    %rax,-0xfd0(%rbp)
   13dac:	48 8d 85 08 ef ff ff 	lea    -0x10f8(%rbp),%rax
   13db3:	48 89 85 38 f0 ff ff 	mov    %rax,-0xfc8(%rbp)
   13dba:	48 8d 85 08 ef ff ff 	lea    -0x10f8(%rbp),%rax
   13dc1:	48 89 85 40 f0 ff ff 	mov    %rax,-0xfc0(%rbp)
   13dc8:	48 8d 85 08 ef ff ff 	lea    -0x10f8(%rbp),%rax
   13dcf:	48 89 85 48 f0 ff ff 	mov    %rax,-0xfb8(%rbp)
   13dd6:	48 8d 85 08 ef ff ff 	lea    -0x10f8(%rbp),%rax
   13ddd:	48 89 85 50 f0 ff ff 	mov    %rax,-0xfb0(%rbp)
   13de4:	48 8d 85 08 ef ff ff 	lea    -0x10f8(%rbp),%rax
   13deb:	48 89 85 58 f0 ff ff 	mov    %rax,-0xfa8(%rbp)
   13df2:	48 c7 85 88 ef ff ff 	movq   $0x0,-0x1078(%rbp)
   13df9:	00 00 00 00 
   13dfd:	c7 85 80 ee ff ff 00 	movl   $0x0,-0x1180(%rbp)
   13e04:	00 00 00 
   13e07:	eb 1e                	jmp    13e27 <func_58+0x43e>
   13e09:	8b 85 80 ee ff ff    	mov    -0x1180(%rbp),%eax
   13e0f:	48 98                	cltq   
   13e11:	48 8d 95 7c ee ff ff 	lea    -0x1184(%rbp),%rdx
   13e18:	48 89 94 c5 00 f0 ff 	mov    %rdx,-0x1000(%rbp,%rax,8)
   13e1f:	ff 
   13e20:	83 85 80 ee ff ff 01 	addl   $0x1,-0x1180(%rbp)
   13e27:	83 bd 80 ee ff ff 05 	cmpl   $0x5,-0x1180(%rbp)
   13e2e:	7e d9                	jle    13e09 <func_58+0x420>
   13e30:	48 8d 05 79 e6 00 00 	lea    0xe679(%rip),%rax        # 224b0 <g_1564>
   13e37:	48 89 05 1a e9 00 00 	mov    %rax,0xe91a(%rip)        # 22758 <g_1777+0x1f8>
   13e3e:	48 83 85 40 ef ff ff 	addq   $0x1,-0x10c0(%rbp)
   13e45:	01 
   13e46:	48 8b 05 1b e3 00 00 	mov    0xe31b(%rip),%rax        # 22168 <g_1066>
   13e4d:	8b 08                	mov    (%rax),%ecx
   13e4f:	8b 95 68 ee ff ff    	mov    -0x1198(%rbp),%edx
   13e55:	21 ca                	and    %ecx,%edx
   13e57:	89 10                	mov    %edx,(%rax)
   13e59:	c7 05 d5 b1 00 00 00 	movl   $0x0,0xb1d5(%rip)        # 1f038 <g_73>
   13e60:	00 00 00 
   13e63:	e9 02 18 00 00       	jmpq   1566a <func_58+0x1c81>
   13e68:	48 8d 05 d9 db 00 00 	lea    0xdbd9(%rip),%rax        # 21a48 <g_174>
   13e6f:	48 89 85 10 ef ff ff 	mov    %rax,-0x10f0(%rbp)
   13e76:	48 8d 85 10 ef ff ff 	lea    -0x10f0(%rbp),%rax
   13e7d:	48 89 85 90 ef ff ff 	mov    %rax,-0x1070(%rbp)
   13e84:	48 8d 85 d0 ee ff ff 	lea    -0x1130(%rbp),%rax
   13e8b:	48 89 85 b0 f8 ff ff 	mov    %rax,-0x750(%rbp)
   13e92:	48 8d 85 d0 ee ff ff 	lea    -0x1130(%rbp),%rax
   13e99:	48 89 85 b8 f8 ff ff 	mov    %rax,-0x748(%rbp)
   13ea0:	48 8d 85 e0 ee ff ff 	lea    -0x1120(%rbp),%rax
   13ea7:	48 89 85 c0 f8 ff ff 	mov    %rax,-0x740(%rbp)
   13eae:	48 8d 85 00 f0 ff ff 	lea    -0x1000(%rbp),%rax
   13eb5:	48 83 c0 18          	add    $0x18,%rax
   13eb9:	48 89 85 c8 f8 ff ff 	mov    %rax,-0x738(%rbp)
   13ec0:	48 8d 85 d0 ee ff ff 	lea    -0x1130(%rbp),%rax
   13ec7:	48 89 85 d0 f8 ff ff 	mov    %rax,-0x730(%rbp)
   13ece:	48 8d 85 d0 ee ff ff 	lea    -0x1130(%rbp),%rax
   13ed5:	48 89 85 d8 f8 ff ff 	mov    %rax,-0x728(%rbp)
   13edc:	48 8d 85 00 f0 ff ff 	lea    -0x1000(%rbp),%rax
   13ee3:	48 83 c0 28          	add    $0x28,%rax
   13ee7:	48 89 85 e0 f8 ff ff 	mov    %rax,-0x720(%rbp)
   13eee:	48 8d 05 d3 dc 00 00 	lea    0xdcd3(%rip),%rax        # 21bc8 <g_301>
   13ef5:	48 89 85 e8 f8 ff ff 	mov    %rax,-0x718(%rbp)
   13efc:	48 8d 85 d0 ee ff ff 	lea    -0x1130(%rbp),%rax
   13f03:	48 89 85 f0 f8 ff ff 	mov    %rax,-0x710(%rbp)
   13f0a:	48 c7 85 f8 f8 ff ff 	movq   $0x0,-0x708(%rbp)
   13f11:	00 00 00 00 
   13f15:	48 8d 85 c8 ee ff ff 	lea    -0x1138(%rbp),%rax
   13f1c:	48 89 85 00 f9 ff ff 	mov    %rax,-0x700(%rbp)
   13f23:	48 8d 05 9e dc 00 00 	lea    0xdc9e(%rip),%rax        # 21bc8 <g_301>
   13f2a:	48 89 85 08 f9 ff ff 	mov    %rax,-0x6f8(%rbp)
   13f31:	48 8d 85 c8 ee ff ff 	lea    -0x1138(%rbp),%rax
   13f38:	48 89 85 10 f9 ff ff 	mov    %rax,-0x6f0(%rbp)
   13f3f:	48 8d 85 f0 ee ff ff 	lea    -0x1110(%rbp),%rax
   13f46:	48 89 85 18 f9 ff ff 	mov    %rax,-0x6e8(%rbp)
   13f4d:	48 8d 85 d0 ee ff ff 	lea    -0x1130(%rbp),%rax
   13f54:	48 89 85 20 f9 ff ff 	mov    %rax,-0x6e0(%rbp)
   13f5b:	48 8d 85 d0 ee ff ff 	lea    -0x1130(%rbp),%rax
   13f62:	48 89 85 28 f9 ff ff 	mov    %rax,-0x6d8(%rbp)
   13f69:	48 8d 85 d0 ee ff ff 	lea    -0x1130(%rbp),%rax
   13f70:	48 89 85 30 f9 ff ff 	mov    %rax,-0x6d0(%rbp)
   13f77:	48 8d 85 00 f0 ff ff 	lea    -0x1000(%rbp),%rax
   13f7e:	48 83 c0 28          	add    $0x28,%rax
   13f82:	48 89 85 38 f9 ff ff 	mov    %rax,-0x6c8(%rbp)
   13f89:	48 8d 85 e8 ee ff ff 	lea    -0x1118(%rbp),%rax
   13f90:	48 89 85 40 f9 ff ff 	mov    %rax,-0x6c0(%rbp)
   13f97:	48 8d 05 2a dc 00 00 	lea    0xdc2a(%rip),%rax        # 21bc8 <g_301>
   13f9e:	48 89 85 48 f9 ff ff 	mov    %rax,-0x6b8(%rbp)
   13fa5:	48 8d 85 e8 ee ff ff 	lea    -0x1118(%rbp),%rax
   13fac:	48 89 85 50 f9 ff ff 	mov    %rax,-0x6b0(%rbp)
   13fb3:	48 8d 85 00 f0 ff ff 	lea    -0x1000(%rbp),%rax
   13fba:	48 83 c0 08          	add    $0x8,%rax
   13fbe:	48 89 85 58 f9 ff ff 	mov    %rax,-0x6a8(%rbp)
   13fc5:	48 8d 85 d0 ee ff ff 	lea    -0x1130(%rbp),%rax
   13fcc:	48 89 85 60 f9 ff ff 	mov    %rax,-0x6a0(%rbp)
   13fd3:	48 8d 85 d0 ee ff ff 	lea    -0x1130(%rbp),%rax
   13fda:	48 89 85 68 f9 ff ff 	mov    %rax,-0x698(%rbp)
   13fe1:	48 8d 85 f0 ee ff ff 	lea    -0x1110(%rbp),%rax
   13fe8:	48 89 85 70 f9 ff ff 	mov    %rax,-0x690(%rbp)
   13fef:	48 c7 85 78 f9 ff ff 	movq   $0x0,-0x688(%rbp)
   13ff6:	00 00 00 00 
   13ffa:	48 8d 85 c8 ee ff ff 	lea    -0x1138(%rbp),%rax
   14001:	48 89 85 80 f9 ff ff 	mov    %rax,-0x680(%rbp)
   14008:	48 8d 85 f0 ee ff ff 	lea    -0x1110(%rbp),%rax
   1400f:	48 89 85 88 f9 ff ff 	mov    %rax,-0x678(%rbp)
   14016:	48 8d 05 ab db 00 00 	lea    0xdbab(%rip),%rax        # 21bc8 <g_301>
   1401d:	48 89 85 90 f9 ff ff 	mov    %rax,-0x670(%rbp)
   14024:	48 c7 85 98 f9 ff ff 	movq   $0x0,-0x668(%rbp)
   1402b:	00 00 00 00 
   1402f:	48 8d 85 f0 ee ff ff 	lea    -0x1110(%rbp),%rax
   14036:	48 89 85 a0 f9 ff ff 	mov    %rax,-0x660(%rbp)
   1403d:	48 8d 85 d0 ee ff ff 	lea    -0x1130(%rbp),%rax
   14044:	48 89 85 a8 f9 ff ff 	mov    %rax,-0x658(%rbp)
   1404b:	48 8d 85 d0 ee ff ff 	lea    -0x1130(%rbp),%rax
   14052:	48 89 85 b0 f9 ff ff 	mov    %rax,-0x650(%rbp)
   14059:	48 8d 05 80 d7 00 00 	lea    0xd780(%rip),%rax        # 217e0 <g_57>
   14060:	48 89 85 b8 f9 ff ff 	mov    %rax,-0x648(%rbp)
   14067:	48 8d 85 d0 ee ff ff 	lea    -0x1130(%rbp),%rax
   1406e:	48 89 85 c0 f9 ff ff 	mov    %rax,-0x640(%rbp)
   14075:	48 8d 85 e0 ee ff ff 	lea    -0x1120(%rbp),%rax
   1407c:	48 89 85 c8 f9 ff ff 	mov    %rax,-0x638(%rbp)
   14083:	48 8d 85 e8 ee ff ff 	lea    -0x1118(%rbp),%rax
   1408a:	48 89 85 d0 f9 ff ff 	mov    %rax,-0x630(%rbp)
   14091:	48 8d 85 d0 ee ff ff 	lea    -0x1130(%rbp),%rax
   14098:	48 89 85 d8 f9 ff ff 	mov    %rax,-0x628(%rbp)
   1409f:	48 8d 85 f0 ee ff ff 	lea    -0x1110(%rbp),%rax
   140a6:	48 89 85 e0 f9 ff ff 	mov    %rax,-0x620(%rbp)
   140ad:	48 8d 85 00 f0 ff ff 	lea    -0x1000(%rbp),%rax
   140b4:	48 83 c0 28          	add    $0x28,%rax
   140b8:	48 89 85 e8 f9 ff ff 	mov    %rax,-0x618(%rbp)
   140bf:	48 c7 85 f0 f9 ff ff 	movq   $0x0,-0x610(%rbp)
   140c6:	00 00 00 00 
   140ca:	48 8d 85 f0 ee ff ff 	lea    -0x1110(%rbp),%rax
   140d1:	48 89 85 f8 f9 ff ff 	mov    %rax,-0x608(%rbp)
   140d8:	48 8d 85 e8 ee ff ff 	lea    -0x1118(%rbp),%rax
   140df:	48 89 85 00 fa ff ff 	mov    %rax,-0x600(%rbp)
   140e6:	48 8d 85 d0 ee ff ff 	lea    -0x1130(%rbp),%rax
   140ed:	48 89 85 08 fa ff ff 	mov    %rax,-0x5f8(%rbp)
   140f4:	48 c7 85 10 fa ff ff 	movq   $0x0,-0x5f0(%rbp)
   140fb:	00 00 00 00 
   140ff:	48 8d 05 da d6 00 00 	lea    0xd6da(%rip),%rax        # 217e0 <g_57>
   14106:	48 89 85 18 fa ff ff 	mov    %rax,-0x5e8(%rbp)
   1410d:	48 8d 85 e8 ee ff ff 	lea    -0x1118(%rbp),%rax
   14114:	48 89 85 20 fa ff ff 	mov    %rax,-0x5e0(%rbp)
   1411b:	48 8d 85 f8 ee ff ff 	lea    -0x1108(%rbp),%rax
   14122:	48 89 85 28 fa ff ff 	mov    %rax,-0x5d8(%rbp)
   14129:	48 c7 85 30 fa ff ff 	movq   $0x0,-0x5d0(%rbp)
   14130:	00 00 00 00 
   14134:	48 8d 85 d0 ee ff ff 	lea    -0x1130(%rbp),%rax
   1413b:	48 89 85 38 fa ff ff 	mov    %rax,-0x5c8(%rbp)
   14142:	48 8d 85 f0 ee ff ff 	lea    -0x1110(%rbp),%rax
   14149:	48 89 85 40 fa ff ff 	mov    %rax,-0x5c0(%rbp)
   14150:	48 8d 85 d0 ee ff ff 	lea    -0x1130(%rbp),%rax
   14157:	48 89 85 48 fa ff ff 	mov    %rax,-0x5b8(%rbp)
   1415e:	48 8d 85 e8 ee ff ff 	lea    -0x1118(%rbp),%rax
   14165:	48 89 85 50 fa ff ff 	mov    %rax,-0x5b0(%rbp)
   1416c:	48 8d 85 c8 ee ff ff 	lea    -0x1138(%rbp),%rax
   14173:	48 89 85 58 fa ff ff 	mov    %rax,-0x5a8(%rbp)
   1417a:	48 8d 85 d0 ee ff ff 	lea    -0x1130(%rbp),%rax
   14181:	48 89 85 60 fa ff ff 	mov    %rax,-0x5a0(%rbp)
   14188:	48 8d 85 00 f0 ff ff 	lea    -0x1000(%rbp),%rax
   1418f:	48 83 c0 18          	add    $0x18,%rax
   14193:	48 89 85 68 fa ff ff 	mov    %rax,-0x598(%rbp)
   1419a:	48 8d 85 d0 ee ff ff 	lea    -0x1130(%rbp),%rax
   141a1:	48 89 85 70 fa ff ff 	mov    %rax,-0x590(%rbp)
   141a8:	48 8d 85 00 f0 ff ff 	lea    -0x1000(%rbp),%rax
   141af:	48 83 c0 18          	add    $0x18,%rax
   141b3:	48 89 85 78 fa ff ff 	mov    %rax,-0x588(%rbp)
   141ba:	48 8d 85 f0 ee ff ff 	lea    -0x1110(%rbp),%rax
   141c1:	48 89 85 80 fa ff ff 	mov    %rax,-0x580(%rbp)
   141c8:	48 8d 85 e8 ee ff ff 	lea    -0x1118(%rbp),%rax
   141cf:	48 89 85 88 fa ff ff 	mov    %rax,-0x578(%rbp)
   141d6:	48 8d 05 eb d9 00 00 	lea    0xd9eb(%rip),%rax        # 21bc8 <g_301>
   141dd:	48 89 85 90 fa ff ff 	mov    %rax,-0x570(%rbp)
   141e4:	48 8d 85 e8 ee ff ff 	lea    -0x1118(%rbp),%rax
   141eb:	48 89 85 98 fa ff ff 	mov    %rax,-0x568(%rbp)
   141f2:	48 8d 85 c8 ee ff ff 	lea    -0x1138(%rbp),%rax
   141f9:	48 89 85 a0 fa ff ff 	mov    %rax,-0x560(%rbp)
   14200:	48 8d 85 c8 ee ff ff 	lea    -0x1138(%rbp),%rax
   14207:	48 89 85 a8 fa ff ff 	mov    %rax,-0x558(%rbp)
   1420e:	48 8d 85 f0 ee ff ff 	lea    -0x1110(%rbp),%rax
   14215:	48 89 85 b0 fa ff ff 	mov    %rax,-0x550(%rbp)
   1421c:	48 8d 85 c8 ee ff ff 	lea    -0x1138(%rbp),%rax
   14223:	48 89 85 b8 fa ff ff 	mov    %rax,-0x548(%rbp)
   1422a:	48 8d 85 d0 ee ff ff 	lea    -0x1130(%rbp),%rax
   14231:	48 89 85 c0 fa ff ff 	mov    %rax,-0x540(%rbp)
   14238:	48 8d 85 00 f0 ff ff 	lea    -0x1000(%rbp),%rax
   1423f:	48 83 c0 18          	add    $0x18,%rax
   14243:	48 89 85 c8 fa ff ff 	mov    %rax,-0x538(%rbp)
   1424a:	48 8d 85 e8 ee ff ff 	lea    -0x1118(%rbp),%rax
   14251:	48 89 85 d0 fa ff ff 	mov    %rax,-0x530(%rbp)
   14258:	48 8d 85 f0 ee ff ff 	lea    -0x1110(%rbp),%rax
   1425f:	48 89 85 d8 fa ff ff 	mov    %rax,-0x528(%rbp)
   14266:	48 8d 85 e8 ee ff ff 	lea    -0x1118(%rbp),%rax
   1426d:	48 89 85 e0 fa ff ff 	mov    %rax,-0x520(%rbp)
   14274:	48 8d 05 65 d5 00 00 	lea    0xd565(%rip),%rax        # 217e0 <g_57>
   1427b:	48 89 85 e8 fa ff ff 	mov    %rax,-0x518(%rbp)
   14282:	48 8d 85 d0 ee ff ff 	lea    -0x1130(%rbp),%rax
   14289:	48 89 85 f0 fa ff ff 	mov    %rax,-0x510(%rbp)
   14290:	48 8d 85 d0 ee ff ff 	lea    -0x1130(%rbp),%rax
   14297:	48 89 85 f8 fa ff ff 	mov    %rax,-0x508(%rbp)
   1429e:	48 8d 85 d0 ee ff ff 	lea    -0x1130(%rbp),%rax
   142a5:	48 89 85 00 fb ff ff 	mov    %rax,-0x500(%rbp)
   142ac:	48 8d 85 d0 ee ff ff 	lea    -0x1130(%rbp),%rax
   142b3:	48 89 85 08 fb ff ff 	mov    %rax,-0x4f8(%rbp)
   142ba:	48 8d 85 c8 ee ff ff 	lea    -0x1138(%rbp),%rax
   142c1:	48 89 85 10 fb ff ff 	mov    %rax,-0x4f0(%rbp)
   142c8:	48 8d 05 f9 d8 00 00 	lea    0xd8f9(%rip),%rax        # 21bc8 <g_301>
   142cf:	48 89 85 18 fb ff ff 	mov    %rax,-0x4e8(%rbp)
   142d6:	48 8d 85 c8 ee ff ff 	lea    -0x1138(%rbp),%rax
   142dd:	48 89 85 20 fb ff ff 	mov    %rax,-0x4e0(%rbp)
   142e4:	48 8d 85 e8 ee ff ff 	lea    -0x1118(%rbp),%rax
   142eb:	48 89 85 28 fb ff ff 	mov    %rax,-0x4d8(%rbp)
   142f2:	48 8d 85 d0 ee ff ff 	lea    -0x1130(%rbp),%rax
   142f9:	48 89 85 30 fb ff ff 	mov    %rax,-0x4d0(%rbp)
   14300:	48 8d 85 f8 ee ff ff 	lea    -0x1108(%rbp),%rax
   14307:	48 89 85 38 fb ff ff 	mov    %rax,-0x4c8(%rbp)
   1430e:	48 8d 85 00 f0 ff ff 	lea    -0x1000(%rbp),%rax
   14315:	48 83 c0 28          	add    $0x28,%rax
   14319:	48 89 85 40 fb ff ff 	mov    %rax,-0x4c0(%rbp)
   14320:	48 8d 05 a1 d8 00 00 	lea    0xd8a1(%rip),%rax        # 21bc8 <g_301>
   14327:	48 89 85 48 fb ff ff 	mov    %rax,-0x4b8(%rbp)
   1432e:	48 8d 85 d0 ee ff ff 	lea    -0x1130(%rbp),%rax
   14335:	48 89 85 50 fb ff ff 	mov    %rax,-0x4b0(%rbp)
   1433c:	48 8d 85 d0 ee ff ff 	lea    -0x1130(%rbp),%rax
   14343:	48 89 85 58 fb ff ff 	mov    %rax,-0x4a8(%rbp)
   1434a:	48 8d 85 e0 ee ff ff 	lea    -0x1120(%rbp),%rax
   14351:	48 89 85 60 fb ff ff 	mov    %rax,-0x4a0(%rbp)
   14358:	48 8d 05 69 d8 00 00 	lea    0xd869(%rip),%rax        # 21bc8 <g_301>
   1435f:	48 89 85 68 fb ff ff 	mov    %rax,-0x498(%rbp)
   14366:	48 8d 85 d0 ee ff ff 	lea    -0x1130(%rbp),%rax
   1436d:	48 89 85 70 fb ff ff 	mov    %rax,-0x490(%rbp)
   14374:	48 8d 85 f8 ee ff ff 	lea    -0x1108(%rbp),%rax
   1437b:	48 89 85 78 fb ff ff 	mov    %rax,-0x488(%rbp)
   14382:	48 8d 85 00 f0 ff ff 	lea    -0x1000(%rbp),%rax
   14389:	48 83 c0 18          	add    $0x18,%rax
   1438d:	48 89 85 80 fb ff ff 	mov    %rax,-0x480(%rbp)
   14394:	48 8d 85 e8 ee ff ff 	lea    -0x1118(%rbp),%rax
   1439b:	48 89 85 88 fb ff ff 	mov    %rax,-0x478(%rbp)
   143a2:	48 8d 85 d0 ee ff ff 	lea    -0x1130(%rbp),%rax
   143a9:	48 89 85 90 fb ff ff 	mov    %rax,-0x470(%rbp)
   143b0:	48 8d 05 11 d8 00 00 	lea    0xd811(%rip),%rax        # 21bc8 <g_301>
   143b7:	48 89 85 98 fb ff ff 	mov    %rax,-0x468(%rbp)
   143be:	48 8d 85 e8 ee ff ff 	lea    -0x1118(%rbp),%rax
   143c5:	48 89 85 a0 fb ff ff 	mov    %rax,-0x460(%rbp)
   143cc:	48 8d 85 d0 ee ff ff 	lea    -0x1130(%rbp),%rax
   143d3:	48 89 85 a8 fb ff ff 	mov    %rax,-0x458(%rbp)
   143da:	48 8d 85 f0 ee ff ff 	lea    -0x1110(%rbp),%rax
   143e1:	48 89 85 b0 fb ff ff 	mov    %rax,-0x450(%rbp)
   143e8:	48 8d 85 d0 ee ff ff 	lea    -0x1130(%rbp),%rax
   143ef:	48 89 85 b8 fb ff ff 	mov    %rax,-0x448(%rbp)
   143f6:	48 8d 85 d0 ee ff ff 	lea    -0x1130(%rbp),%rax
   143fd:	48 89 85 c0 fb ff ff 	mov    %rax,-0x440(%rbp)
   14404:	48 8d 05 d5 d3 00 00 	lea    0xd3d5(%rip),%rax        # 217e0 <g_57>
   1440b:	48 89 85 c8 fb ff ff 	mov    %rax,-0x438(%rbp)
   14412:	48 8d 85 c8 ee ff ff 	lea    -0x1138(%rbp),%rax
   14419:	48 89 85 d0 fb ff ff 	mov    %rax,-0x430(%rbp)
   14420:	48 8d 85 f0 ee ff ff 	lea    -0x1110(%rbp),%rax
   14427:	48 89 85 d8 fb ff ff 	mov    %rax,-0x428(%rbp)
   1442e:	48 8d 85 d0 ee ff ff 	lea    -0x1130(%rbp),%rax
   14435:	48 89 85 e0 fb ff ff 	mov    %rax,-0x420(%rbp)
   1443c:	48 8d 85 00 f0 ff ff 	lea    -0x1000(%rbp),%rax
   14443:	48 83 c0 18          	add    $0x18,%rax
   14447:	48 89 85 e8 fb ff ff 	mov    %rax,-0x418(%rbp)
   1444e:	48 8d 85 d0 ee ff ff 	lea    -0x1130(%rbp),%rax
   14455:	48 89 85 f0 fb ff ff 	mov    %rax,-0x410(%rbp)
   1445c:	48 8d 85 c8 ee ff ff 	lea    -0x1138(%rbp),%rax
   14463:	48 89 85 f8 fb ff ff 	mov    %rax,-0x408(%rbp)
   1446a:	48 8d 85 d8 ee ff ff 	lea    -0x1128(%rbp),%rax
   14471:	48 89 85 00 fc ff ff 	mov    %rax,-0x400(%rbp)
   14478:	48 8d 85 c8 ee ff ff 	lea    -0x1138(%rbp),%rax
   1447f:	48 89 85 08 fc ff ff 	mov    %rax,-0x3f8(%rbp)
   14486:	48 8d 85 f8 ee ff ff 	lea    -0x1108(%rbp),%rax
   1448d:	48 89 85 10 fc ff ff 	mov    %rax,-0x3f0(%rbp)
   14494:	48 8d 85 e8 ee ff ff 	lea    -0x1118(%rbp),%rax
   1449b:	48 89 85 18 fc ff ff 	mov    %rax,-0x3e8(%rbp)
   144a2:	48 c7 85 20 fc ff ff 	movq   $0x0,-0x3e0(%rbp)
   144a9:	00 00 00 00 
   144ad:	48 8d 85 e8 ee ff ff 	lea    -0x1118(%rbp),%rax
   144b4:	48 89 85 28 fc ff ff 	mov    %rax,-0x3d8(%rbp)
   144bb:	48 8d 05 06 d7 00 00 	lea    0xd706(%rip),%rax        # 21bc8 <g_301>
   144c2:	48 89 85 30 fc ff ff 	mov    %rax,-0x3d0(%rbp)
   144c9:	48 8d 85 00 f0 ff ff 	lea    -0x1000(%rbp),%rax
   144d0:	48 83 c0 18          	add    $0x18,%rax
   144d4:	48 89 85 38 fc ff ff 	mov    %rax,-0x3c8(%rbp)
   144db:	48 8d 85 00 f0 ff ff 	lea    -0x1000(%rbp),%rax
   144e2:	48 83 c0 18          	add    $0x18,%rax
   144e6:	48 89 85 40 fc ff ff 	mov    %rax,-0x3c0(%rbp)
   144ed:	48 8d 85 00 f0 ff ff 	lea    -0x1000(%rbp),%rax
   144f4:	48 83 c0 18          	add    $0x18,%rax
   144f8:	48 89 85 48 fc ff ff 	mov    %rax,-0x3b8(%rbp)
   144ff:	48 8d 85 d0 ee ff ff 	lea    -0x1130(%rbp),%rax
   14506:	48 89 85 50 fc ff ff 	mov    %rax,-0x3b0(%rbp)
   1450d:	48 8d 85 c8 ee ff ff 	lea    -0x1138(%rbp),%rax
   14514:	48 89 85 58 fc ff ff 	mov    %rax,-0x3a8(%rbp)
   1451b:	48 8d 85 00 f0 ff ff 	lea    -0x1000(%rbp),%rax
   14522:	48 83 c0 18          	add    $0x18,%rax
   14526:	48 89 85 60 fc ff ff 	mov    %rax,-0x3a0(%rbp)
   1452d:	48 8d 85 d0 ee ff ff 	lea    -0x1130(%rbp),%rax
   14534:	48 89 85 68 fc ff ff 	mov    %rax,-0x398(%rbp)
   1453b:	48 8d 85 d0 ee ff ff 	lea    -0x1130(%rbp),%rax
   14542:	48 89 85 70 fc ff ff 	mov    %rax,-0x390(%rbp)
   14549:	48 8d 85 d0 ee ff ff 	lea    -0x1130(%rbp),%rax
   14550:	48 89 85 78 fc ff ff 	mov    %rax,-0x388(%rbp)
   14557:	48 8d 05 82 d2 00 00 	lea    0xd282(%rip),%rax        # 217e0 <g_57>
   1455e:	48 89 85 80 fc ff ff 	mov    %rax,-0x380(%rbp)
   14565:	48 8d 85 f8 ee ff ff 	lea    -0x1108(%rbp),%rax
   1456c:	48 89 85 88 fc ff ff 	mov    %rax,-0x378(%rbp)
   14573:	48 8d 85 e0 ee ff ff 	lea    -0x1120(%rbp),%rax
   1457a:	48 89 85 90 fc ff ff 	mov    %rax,-0x370(%rbp)
   14581:	48 8d 05 58 d2 00 00 	lea    0xd258(%rip),%rax        # 217e0 <g_57>
   14588:	48 89 85 98 fc ff ff 	mov    %rax,-0x368(%rbp)
   1458f:	48 8d 85 e8 ee ff ff 	lea    -0x1118(%rbp),%rax
   14596:	48 89 85 a0 fc ff ff 	mov    %rax,-0x360(%rbp)
   1459d:	48 8d 85 d0 ee ff ff 	lea    -0x1130(%rbp),%rax
   145a4:	48 89 85 a8 fc ff ff 	mov    %rax,-0x358(%rbp)
   145ab:	48 8d 85 d0 ee ff ff 	lea    -0x1130(%rbp),%rax
   145b2:	48 89 85 b0 fc ff ff 	mov    %rax,-0x350(%rbp)
   145b9:	48 8d 85 d8 ee ff ff 	lea    -0x1128(%rbp),%rax
   145c0:	48 89 85 b8 fc ff ff 	mov    %rax,-0x348(%rbp)
   145c7:	48 8d 85 e8 ee ff ff 	lea    -0x1118(%rbp),%rax
   145ce:	48 89 85 c0 fc ff ff 	mov    %rax,-0x340(%rbp)
   145d5:	48 c7 85 c8 fc ff ff 	movq   $0x0,-0x338(%rbp)
   145dc:	00 00 00 00 
   145e0:	48 8d 85 c8 ee ff ff 	lea    -0x1138(%rbp),%rax
   145e7:	48 89 85 d0 fc ff ff 	mov    %rax,-0x330(%rbp)
   145ee:	48 8d 85 d0 ee ff ff 	lea    -0x1130(%rbp),%rax
   145f5:	48 89 85 d8 fc ff ff 	mov    %rax,-0x328(%rbp)
   145fc:	48 8d 85 f0 ee ff ff 	lea    -0x1110(%rbp),%rax
   14603:	48 89 85 e0 fc ff ff 	mov    %rax,-0x320(%rbp)
   1460a:	48 8d 85 f0 ee ff ff 	lea    -0x1110(%rbp),%rax
   14611:	48 89 85 e8 fc ff ff 	mov    %rax,-0x318(%rbp)
   14618:	48 8d 05 c1 d1 00 00 	lea    0xd1c1(%rip),%rax        # 217e0 <g_57>
   1461f:	48 89 85 f0 fc ff ff 	mov    %rax,-0x310(%rbp)
   14626:	48 8d 85 e8 ee ff ff 	lea    -0x1118(%rbp),%rax
   1462d:	48 89 85 f8 fc ff ff 	mov    %rax,-0x308(%rbp)
   14634:	48 8d 85 00 f0 ff ff 	lea    -0x1000(%rbp),%rax
   1463b:	48 83 c0 18          	add    $0x18,%rax
   1463f:	48 89 85 00 fd ff ff 	mov    %rax,-0x300(%rbp)
   14646:	48 8d 85 f8 ee ff ff 	lea    -0x1108(%rbp),%rax
   1464d:	48 89 85 08 fd ff ff 	mov    %rax,-0x2f8(%rbp)
   14654:	48 8d 85 d0 ee ff ff 	lea    -0x1130(%rbp),%rax
   1465b:	48 89 85 10 fd ff ff 	mov    %rax,-0x2f0(%rbp)
   14662:	48 8d 85 e0 ee ff ff 	lea    -0x1120(%rbp),%rax
   14669:	48 89 85 18 fd ff ff 	mov    %rax,-0x2e8(%rbp)
   14670:	48 8d 85 00 f0 ff ff 	lea    -0x1000(%rbp),%rax
   14677:	48 83 c0 08          	add    $0x8,%rax
   1467b:	48 89 85 20 fd ff ff 	mov    %rax,-0x2e0(%rbp)
   14682:	48 8d 85 d8 ee ff ff 	lea    -0x1128(%rbp),%rax
   14689:	48 89 85 28 fd ff ff 	mov    %rax,-0x2d8(%rbp)
   14690:	48 c7 85 30 fd ff ff 	movq   $0x0,-0x2d0(%rbp)
   14697:	00 00 00 00 
   1469b:	48 8d 85 00 f0 ff ff 	lea    -0x1000(%rbp),%rax
   146a2:	48 83 c0 08          	add    $0x8,%rax
   146a6:	48 89 85 38 fd ff ff 	mov    %rax,-0x2c8(%rbp)
   146ad:	48 8d 05 14 d5 00 00 	lea    0xd514(%rip),%rax        # 21bc8 <g_301>
   146b4:	48 89 85 40 fd ff ff 	mov    %rax,-0x2c0(%rbp)
   146bb:	48 8d 05 1e d1 00 00 	lea    0xd11e(%rip),%rax        # 217e0 <g_57>
   146c2:	48 89 85 48 fd ff ff 	mov    %rax,-0x2b8(%rbp)
   146c9:	48 8d 85 f8 ee ff ff 	lea    -0x1108(%rbp),%rax
   146d0:	48 89 85 50 fd ff ff 	mov    %rax,-0x2b0(%rbp)
   146d7:	48 8d 85 d0 ee ff ff 	lea    -0x1130(%rbp),%rax
   146de:	48 89 85 58 fd ff ff 	mov    %rax,-0x2a8(%rbp)
   146e5:	48 8d 85 d0 ee ff ff 	lea    -0x1130(%rbp),%rax
   146ec:	48 89 85 60 fd ff ff 	mov    %rax,-0x2a0(%rbp)
   146f3:	48 8d 85 d0 ee ff ff 	lea    -0x1130(%rbp),%rax
   146fa:	48 89 85 68 fd ff ff 	mov    %rax,-0x298(%rbp)
   14701:	48 8d 85 00 f0 ff ff 	lea    -0x1000(%rbp),%rax
   14708:	48 83 c0 18          	add    $0x18,%rax
   1470c:	48 89 85 70 fd ff ff 	mov    %rax,-0x290(%rbp)
   14713:	48 c7 85 78 fd ff ff 	movq   $0x0,-0x288(%rbp)
   1471a:	00 00 00 00 
   1471e:	48 8d 85 00 f0 ff ff 	lea    -0x1000(%rbp),%rax
   14725:	48 83 c0 28          	add    $0x28,%rax
   14729:	48 89 85 80 fd ff ff 	mov    %rax,-0x280(%rbp)
   14730:	48 8d 85 00 f0 ff ff 	lea    -0x1000(%rbp),%rax
   14737:	48 83 c0 28          	add    $0x28,%rax
   1473b:	48 89 85 88 fd ff ff 	mov    %rax,-0x278(%rbp)
   14742:	48 8d 85 e8 ee ff ff 	lea    -0x1118(%rbp),%rax
   14749:	48 89 85 90 fd ff ff 	mov    %rax,-0x270(%rbp)
   14750:	48 8d 85 e8 ee ff ff 	lea    -0x1118(%rbp),%rax
   14757:	48 89 85 98 fd ff ff 	mov    %rax,-0x268(%rbp)
   1475e:	48 8d 85 c8 ee ff ff 	lea    -0x1138(%rbp),%rax
   14765:	48 89 85 a0 fd ff ff 	mov    %rax,-0x260(%rbp)
   1476c:	48 8d 05 6d d0 00 00 	lea    0xd06d(%rip),%rax        # 217e0 <g_57>
   14773:	48 89 85 a8 fd ff ff 	mov    %rax,-0x258(%rbp)
   1477a:	48 8d 85 00 f0 ff ff 	lea    -0x1000(%rbp),%rax
   14781:	48 83 c0 28          	add    $0x28,%rax
   14785:	48 89 85 b0 fd ff ff 	mov    %rax,-0x250(%rbp)
   1478c:	48 8d 85 c8 ee ff ff 	lea    -0x1138(%rbp),%rax
   14793:	48 89 85 b8 fd ff ff 	mov    %rax,-0x248(%rbp)
   1479a:	48 8d 05 27 d4 00 00 	lea    0xd427(%rip),%rax        # 21bc8 <g_301>
   147a1:	48 89 85 c0 fd ff ff 	mov    %rax,-0x240(%rbp)
   147a8:	48 8d 85 e8 ee ff ff 	lea    -0x1118(%rbp),%rax
   147af:	48 89 85 c8 fd ff ff 	mov    %rax,-0x238(%rbp)
   147b6:	48 c7 85 d0 fd ff ff 	movq   $0x0,-0x230(%rbp)
   147bd:	00 00 00 00 
   147c1:	48 8d 85 d0 ee ff ff 	lea    -0x1130(%rbp),%rax
   147c8:	48 89 85 d8 fd ff ff 	mov    %rax,-0x228(%rbp)
   147cf:	48 8d 85 d0 ee ff ff 	lea    -0x1130(%rbp),%rax
   147d6:	48 89 85 e0 fd ff ff 	mov    %rax,-0x220(%rbp)
   147dd:	48 8d 05 e4 d3 00 00 	lea    0xd3e4(%rip),%rax        # 21bc8 <g_301>
   147e4:	48 89 85 e8 fd ff ff 	mov    %rax,-0x218(%rbp)
   147eb:	48 8d 85 d0 ee ff ff 	lea    -0x1130(%rbp),%rax
   147f2:	48 89 85 f0 fd ff ff 	mov    %rax,-0x210(%rbp)
   147f9:	48 8d 85 d0 ee ff ff 	lea    -0x1130(%rbp),%rax
   14800:	48 89 85 f8 fd ff ff 	mov    %rax,-0x208(%rbp)
   14807:	48 c7 85 00 fe ff ff 	movq   $0x0,-0x200(%rbp)
   1480e:	00 00 00 00 
   14812:	48 8d 85 e8 ee ff ff 	lea    -0x1118(%rbp),%rax
   14819:	48 89 85 08 fe ff ff 	mov    %rax,-0x1f8(%rbp)
   14820:	48 8d 85 d0 ee ff ff 	lea    -0x1130(%rbp),%rax
   14827:	48 89 85 10 fe ff ff 	mov    %rax,-0x1f0(%rbp)
   1482e:	48 8d 85 c8 ee ff ff 	lea    -0x1138(%rbp),%rax
   14835:	48 89 85 18 fe ff ff 	mov    %rax,-0x1e8(%rbp)
   1483c:	48 8d 05 85 d3 00 00 	lea    0xd385(%rip),%rax        # 21bc8 <g_301>
   14843:	48 89 85 20 fe ff ff 	mov    %rax,-0x1e0(%rbp)
   1484a:	48 8d 05 8f cf 00 00 	lea    0xcf8f(%rip),%rax        # 217e0 <g_57>
   14851:	48 89 85 28 fe ff ff 	mov    %rax,-0x1d8(%rbp)
   14858:	48 8d 05 69 d3 00 00 	lea    0xd369(%rip),%rax        # 21bc8 <g_301>
   1485f:	48 89 85 30 fe ff ff 	mov    %rax,-0x1d0(%rbp)
   14866:	48 8d 85 e8 ee ff ff 	lea    -0x1118(%rbp),%rax
   1486d:	48 89 85 38 fe ff ff 	mov    %rax,-0x1c8(%rbp)
   14874:	48 8d 85 d0 ee ff ff 	lea    -0x1130(%rbp),%rax
   1487b:	48 89 85 40 fe ff ff 	mov    %rax,-0x1c0(%rbp)
   14882:	48 8d 85 00 f0 ff ff 	lea    -0x1000(%rbp),%rax
   14889:	48 83 c0 28          	add    $0x28,%rax
   1488d:	48 89 85 48 fe ff ff 	mov    %rax,-0x1b8(%rbp)
   14894:	48 8d 85 d0 ee ff ff 	lea    -0x1130(%rbp),%rax
   1489b:	48 89 85 50 fe ff ff 	mov    %rax,-0x1b0(%rbp)
   148a2:	48 c7 85 58 fe ff ff 	movq   $0x0,-0x1a8(%rbp)
   148a9:	00 00 00 00 
   148ad:	48 8d 85 e0 ee ff ff 	lea    -0x1120(%rbp),%rax
   148b4:	48 89 85 60 fe ff ff 	mov    %rax,-0x1a0(%rbp)
   148bb:	48 8d 85 d0 ee ff ff 	lea    -0x1130(%rbp),%rax
   148c2:	48 89 85 68 fe ff ff 	mov    %rax,-0x198(%rbp)
   148c9:	48 8d 85 c8 ee ff ff 	lea    -0x1138(%rbp),%rax
   148d0:	48 89 85 70 fe ff ff 	mov    %rax,-0x190(%rbp)
   148d7:	48 8d 85 d0 ee ff ff 	lea    -0x1130(%rbp),%rax
   148de:	48 89 85 78 fe ff ff 	mov    %rax,-0x188(%rbp)
   148e5:	48 8d 85 c8 ee ff ff 	lea    -0x1138(%rbp),%rax
   148ec:	48 89 85 80 fe ff ff 	mov    %rax,-0x180(%rbp)
   148f3:	48 8d 05 e6 ce 00 00 	lea    0xcee6(%rip),%rax        # 217e0 <g_57>
   148fa:	48 89 85 88 fe ff ff 	mov    %rax,-0x178(%rbp)
   14901:	48 8d 85 f0 ee ff ff 	lea    -0x1110(%rbp),%rax
   14908:	48 89 85 90 fe ff ff 	mov    %rax,-0x170(%rbp)
   1490f:	48 8d 85 00 f0 ff ff 	lea    -0x1000(%rbp),%rax
   14916:	48 83 c0 08          	add    $0x8,%rax
   1491a:	48 89 85 98 fe ff ff 	mov    %rax,-0x168(%rbp)
   14921:	48 8d 05 a0 d2 00 00 	lea    0xd2a0(%rip),%rax        # 21bc8 <g_301>
   14928:	48 89 85 a0 fe ff ff 	mov    %rax,-0x160(%rbp)
   1492f:	48 8d 85 d8 ee ff ff 	lea    -0x1128(%rbp),%rax
   14936:	48 89 85 a8 fe ff ff 	mov    %rax,-0x158(%rbp)
   1493d:	48 8d 05 9c ce 00 00 	lea    0xce9c(%rip),%rax        # 217e0 <g_57>
   14944:	48 89 85 b0 fe ff ff 	mov    %rax,-0x150(%rbp)
   1494b:	48 8d 85 e0 ee ff ff 	lea    -0x1120(%rbp),%rax
   14952:	48 89 85 b8 fe ff ff 	mov    %rax,-0x148(%rbp)
   14959:	48 8d 85 f0 ee ff ff 	lea    -0x1110(%rbp),%rax
   14960:	48 89 85 c0 fe ff ff 	mov    %rax,-0x140(%rbp)
   14967:	48 8d 85 f8 ee ff ff 	lea    -0x1108(%rbp),%rax
   1496e:	48 89 85 c8 fe ff ff 	mov    %rax,-0x138(%rbp)
   14975:	48 8d 85 d0 ee ff ff 	lea    -0x1130(%rbp),%rax
   1497c:	48 89 85 d0 fe ff ff 	mov    %rax,-0x130(%rbp)
   14983:	48 8d 85 e8 ee ff ff 	lea    -0x1118(%rbp),%rax
   1498a:	48 89 85 d8 fe ff ff 	mov    %rax,-0x128(%rbp)
   14991:	48 8d 85 d0 ee ff ff 	lea    -0x1130(%rbp),%rax
   14998:	48 89 85 e0 fe ff ff 	mov    %rax,-0x120(%rbp)
   1499f:	48 8d 85 f0 ee ff ff 	lea    -0x1110(%rbp),%rax
   149a6:	48 89 85 e8 fe ff ff 	mov    %rax,-0x118(%rbp)
   149ad:	48 8d 85 e0 ee ff ff 	lea    -0x1120(%rbp),%rax
   149b4:	48 89 85 f0 fe ff ff 	mov    %rax,-0x110(%rbp)
   149bb:	48 8d 85 d0 ee ff ff 	lea    -0x1130(%rbp),%rax
   149c2:	48 89 85 f8 fe ff ff 	mov    %rax,-0x108(%rbp)
   149c9:	48 8d 85 e8 ee ff ff 	lea    -0x1118(%rbp),%rax
   149d0:	48 89 85 00 ff ff ff 	mov    %rax,-0x100(%rbp)
   149d7:	48 c7 85 08 ff ff ff 	movq   $0x0,-0xf8(%rbp)
   149de:	00 00 00 00 
   149e2:	48 8d 85 c8 ee ff ff 	lea    -0x1138(%rbp),%rax
   149e9:	48 89 85 10 ff ff ff 	mov    %rax,-0xf0(%rbp)
   149f0:	48 8d 85 d8 ee ff ff 	lea    -0x1128(%rbp),%rax
   149f7:	48 89 85 18 ff ff ff 	mov    %rax,-0xe8(%rbp)
   149fe:	48 8d 85 c8 ee ff ff 	lea    -0x1138(%rbp),%rax
   14a05:	48 89 85 20 ff ff ff 	mov    %rax,-0xe0(%rbp)
   14a0c:	48 8d 85 d0 ee ff ff 	lea    -0x1130(%rbp),%rax
   14a13:	48 89 85 28 ff ff ff 	mov    %rax,-0xd8(%rbp)
   14a1a:	48 8d 85 e0 ee ff ff 	lea    -0x1120(%rbp),%rax
   14a21:	48 89 85 30 ff ff ff 	mov    %rax,-0xd0(%rbp)
   14a28:	48 8d 85 00 f0 ff ff 	lea    -0x1000(%rbp),%rax
   14a2f:	48 83 c0 18          	add    $0x18,%rax
   14a33:	48 89 85 38 ff ff ff 	mov    %rax,-0xc8(%rbp)
   14a3a:	48 8d 85 c8 ee ff ff 	lea    -0x1138(%rbp),%rax
   14a41:	48 89 85 40 ff ff ff 	mov    %rax,-0xc0(%rbp)
   14a48:	48 c7 85 48 ff ff ff 	movq   $0x0,-0xb8(%rbp)
   14a4f:	00 00 00 00 
   14a53:	48 8d 85 c8 ee ff ff 	lea    -0x1138(%rbp),%rax
   14a5a:	48 89 85 50 ff ff ff 	mov    %rax,-0xb0(%rbp)
   14a61:	48 8d 85 d0 ee ff ff 	lea    -0x1130(%rbp),%rax
   14a68:	48 89 85 58 ff ff ff 	mov    %rax,-0xa8(%rbp)
   14a6f:	48 8d 85 e8 ee ff ff 	lea    -0x1118(%rbp),%rax
   14a76:	48 89 85 60 ff ff ff 	mov    %rax,-0xa0(%rbp)
   14a7d:	48 8d 85 c8 ee ff ff 	lea    -0x1138(%rbp),%rax
   14a84:	48 89 85 68 ff ff ff 	mov    %rax,-0x98(%rbp)
   14a8b:	48 8d 85 e0 ee ff ff 	lea    -0x1120(%rbp),%rax
   14a92:	48 89 85 70 ff ff ff 	mov    %rax,-0x90(%rbp)
   14a99:	48 8d 85 00 f0 ff ff 	lea    -0x1000(%rbp),%rax
   14aa0:	48 83 c0 18          	add    $0x18,%rax
   14aa4:	48 89 85 78 ff ff ff 	mov    %rax,-0x88(%rbp)
   14aab:	48 8d 85 d0 ee ff ff 	lea    -0x1130(%rbp),%rax
   14ab2:	48 89 45 80          	mov    %rax,-0x80(%rbp)
   14ab6:	48 8d 85 f0 ee ff ff 	lea    -0x1110(%rbp),%rax
   14abd:	48 89 45 88          	mov    %rax,-0x78(%rbp)
   14ac1:	48 8d 85 d0 ee ff ff 	lea    -0x1130(%rbp),%rax
   14ac8:	48 89 45 90          	mov    %rax,-0x70(%rbp)
   14acc:	48 8d 85 f0 ee ff ff 	lea    -0x1110(%rbp),%rax
   14ad3:	48 89 45 98          	mov    %rax,-0x68(%rbp)
   14ad7:	48 8d 85 f0 ee ff ff 	lea    -0x1110(%rbp),%rax
   14ade:	48 89 45 a0          	mov    %rax,-0x60(%rbp)
   14ae2:	48 8d 85 c8 ee ff ff 	lea    -0x1138(%rbp),%rax
   14ae9:	48 89 45 a8          	mov    %rax,-0x58(%rbp)
   14aed:	48 8d 05 0c a6 00 00 	lea    0xa60c(%rip),%rax        # 1f100 <g_211+0x20>
   14af4:	48 89 85 18 ef ff ff 	mov    %rax,-0x10e8(%rbp)
   14afb:	48 8d 85 18 ef ff ff 	lea    -0x10e8(%rbp),%rax
   14b02:	48 89 85 20 ef ff ff 	mov    %rax,-0x10e0(%rbp)
   14b09:	48 8d 85 20 ef ff ff 	lea    -0x10e0(%rbp),%rax
   14b10:	48 89 85 28 ef ff ff 	mov    %rax,-0x10d8(%rbp)
   14b17:	48 8d 85 28 ef ff ff 	lea    -0x10d8(%rbp),%rax
   14b1e:	48 89 85 30 ef ff ff 	mov    %rax,-0x10d0(%rbp)
   14b25:	c7 85 90 ee ff ff 8c 	movl   $0x220de8c,-0x1170(%rbp)
   14b2c:	de 20 02 
   14b2f:	c6 85 75 ee ff ff 54 	movb   $0x54,-0x118b(%rbp)
   14b36:	48 83 bd 48 ef ff ff 	cmpq   $0x0,-0x10b8(%rbp)
   14b3d:	00 
   14b3e:	0f 85 07 03 00 00    	jne    14e4b <func_58+0x1462>
   14b44:	c7 85 b0 ee ff ff fa 	movl   $0xfffffffa,-0x1150(%rbp)
   14b4b:	ff ff ff 
   14b4e:	48 b8 b3 e2 e1 5a 9e 	movabs $0x5968a9e5ae1e2b3,%rax
   14b55:	8a 96 05 
   14b58:	48 89 85 c0 ef ff ff 	mov    %rax,-0x1040(%rbp)
   14b5f:	c7 85 f0 f4 ff ff 39 	movl   $0xbc10dc39,-0xb10(%rbp)
   14b66:	dc 10 bc 
   14b69:	c7 85 f4 f4 ff ff 39 	movl   $0xbc10dc39,-0xb0c(%rbp)
   14b70:	dc 10 bc 
   14b73:	c7 85 f8 f4 ff ff 39 	movl   $0xbc10dc39,-0xb08(%rbp)
   14b7a:	dc 10 bc 
   14b7d:	c7 85 fc f4 ff ff 39 	movl   $0xbc10dc39,-0xb04(%rbp)
   14b84:	dc 10 bc 
   14b87:	c7 85 00 f5 ff ff 39 	movl   $0xbc10dc39,-0xb00(%rbp)
   14b8e:	dc 10 bc 
   14b91:	c7 85 04 f5 ff ff 39 	movl   $0xbc10dc39,-0xafc(%rbp)
   14b98:	dc 10 bc 
   14b9b:	c7 85 08 f5 ff ff 39 	movl   $0xbc10dc39,-0xaf8(%rbp)
   14ba2:	dc 10 bc 
   14ba5:	c7 85 0c f5 ff ff 39 	movl   $0xbc10dc39,-0xaf4(%rbp)
   14bac:	dc 10 bc 
   14baf:	c7 05 83 a4 00 00 0d 	movl   $0xd,0xa483(%rip)        # 1f03c <g_75>
   14bb6:	00 00 00 
   14bb9:	e9 79 02 00 00       	jmpq   14e37 <func_58+0x144e>
   14bbe:	c7 85 b4 ee ff ff 73 	movl   $0xda540973,-0x114c(%rbp)
   14bc5:	09 54 da 
   14bc8:	48 c7 85 38 ef ff ff 	movq   $0x0,-0x10c8(%rbp)
   14bcf:	00 00 00 00 
   14bd3:	48 8d 85 38 ef ff ff 	lea    -0x10c8(%rbp),%rax
   14bda:	48 89 85 c8 ef ff ff 	mov    %rax,-0x1038(%rbp)
   14be1:	48 8b 85 60 ee ff ff 	mov    -0x11a0(%rbp),%rax
   14be8:	98                   	cwtl   
   14be9:	be 09 00 00 00       	mov    $0x9,%esi
   14bee:	89 c7                	mov    %eax,%edi
   14bf0:	e8 6e 59 ff ff       	callq  a563 <safe_rshift_func_int16_t_s_u>
   14bf5:	89 c2                	mov    %eax,%edx
   14bf7:	48 8b 85 f8 ee ff ff 	mov    -0x1108(%rbp),%rax
   14bfe:	0f bf d2             	movswl %dx,%edx
   14c01:	89 10                	mov    %edx,(%rax)
   14c03:	48 c7 05 1a a6 00 00 	movq   $0x1b,0xa61a(%rip)        # 1f228 <g_1638>
   14c0a:	1b 00 00 00 
   14c0e:	e9 d6 01 00 00       	jmpq   14de9 <func_58+0x1400>
   14c13:	48 8d 05 e6 a4 00 00 	lea    0xa4e6(%rip),%rax        # 1f100 <g_211+0x20>
   14c1a:	48 89 85 d0 ef ff ff 	mov    %rax,-0x1030(%rbp)
   14c21:	48 8d 05 e8 a4 00 00 	lea    0xa4e8(%rip),%rax        # 1f110 <g_253>
   14c28:	48 89 85 d8 ef ff ff 	mov    %rax,-0x1028(%rbp)
   14c2f:	c7 85 84 ee ff ff 00 	movl   $0x0,-0x117c(%rbp)
   14c36:	00 00 00 
   14c39:	eb 14                	jmp    14c4f <func_58+0x1266>
   14c3b:	8b 85 84 ee ff ff    	mov    -0x117c(%rbp),%eax
   14c41:	48 98                	cltq   
   14c43:	c6 44 05 be 41       	movb   $0x41,-0x42(%rbp,%rax,1)
   14c48:	83 85 84 ee ff ff 01 	addl   $0x1,-0x117c(%rbp)
   14c4f:	83 bd 84 ee ff ff 09 	cmpl   $0x9,-0x117c(%rbp)
   14c56:	7e e3                	jle    14c3b <func_58+0x1252>
   14c58:	48 8b 85 d0 ee ff ff 	mov    -0x1130(%rbp),%rax
   14c5f:	8b 08                	mov    (%rax),%ecx
   14c61:	48 8b 05 d8 d8 00 00 	mov    0xd8d8(%rip),%rax        # 22540 <g_1699>
   14c68:	0f b6 00             	movzbl (%rax),%eax
   14c6b:	0f b6 d0             	movzbl %al,%edx
   14c6e:	48 83 bd 90 ef ff ff 	cmpq   $0x0,-0x1070(%rbp)
   14c75:	00 
   14c76:	0f 95 c0             	setne  %al
   14c79:	0f b6 c0             	movzbl %al,%eax
   14c7c:	39 c2                	cmp    %eax,%edx
   14c7e:	0f 94 c0             	sete   %al
   14c81:	0f b6 d0             	movzbl %al,%edx
   14c84:	48 8b 85 d0 ee ff ff 	mov    -0x1130(%rbp),%rax
   14c8b:	09 ca                	or     %ecx,%edx
   14c8d:	89 10                	mov    %edx,(%rax)
   14c8f:	0f b7 05 de a3 00 00 	movzwl 0xa3de(%rip),%eax        # 1f074 <g_175>
   14c96:	0f b7 d8             	movzwl %ax,%ebx
   14c99:	48 8b 05 a8 cd 00 00 	mov    0xcda8(%rip),%rax        # 21a48 <g_174>
   14ca0:	0f b7 00             	movzwl (%rax),%eax
   14ca3:	44 0f b7 e0          	movzwl %ax,%r12d
   14ca7:	48 8b 85 60 ee ff ff 	mov    -0x11a0(%rbp),%rax
   14cae:	44 0f bf e8          	movswl %ax,%r13d
   14cb2:	48 8b 95 98 f9 ff ff 	mov    -0x668(%rbp),%rdx
   14cb9:	48 8d 85 f8 ee ff ff 	lea    -0x1108(%rbp),%rax
   14cc0:	48 39 c2             	cmp    %rax,%rdx
   14cc3:	48 8b 85 d0 ef ff ff 	mov    -0x1030(%rbp),%rax
   14cca:	48 8b 10             	mov    (%rax),%rdx
   14ccd:	48 8b 85 60 ee ff ff 	mov    -0x11a0(%rbp),%rax
   14cd4:	48 31 c2             	xor    %rax,%rdx
   14cd7:	48 8b 85 d0 ef ff ff 	mov    -0x1030(%rbp),%rax
   14cde:	48 89 10             	mov    %rdx,(%rax)
   14ce1:	48 8b 85 d0 ef ff ff 	mov    -0x1030(%rbp),%rax
   14ce8:	4c 8b 30             	mov    (%rax),%r14
   14ceb:	48 8b 85 d8 ef ff ff 	mov    -0x1028(%rbp),%rax
   14cf2:	0f b6 10             	movzbl (%rax),%edx
   14cf5:	48 8b 05 4c d8 00 00 	mov    0xd84c(%rip),%rax        # 22548 <g_1698>
   14cfc:	48 8b 00             	mov    (%rax),%rax
   14cff:	0f b6 00             	movzbl (%rax),%eax
   14d02:	21 c2                	and    %eax,%edx
   14d04:	48 8b 85 d8 ef ff ff 	mov    -0x1028(%rbp),%rax
   14d0b:	88 10                	mov    %dl,(%rax)
   14d0d:	48 8b 85 50 ef ff ff 	mov    -0x10b0(%rbp),%rax
   14d14:	c7 00 00 00 00 00    	movl   $0x0,(%rax)
   14d1a:	8b 85 b0 ee ff ff    	mov    -0x1150(%rbp),%eax
   14d20:	89 c6                	mov    %eax,%esi
   14d22:	bf 01 00 00 00       	mov    $0x1,%edi
   14d27:	e8 fe 57 ff ff       	callq  a52a <safe_rshift_func_int16_t_s_s>
   14d2c:	f7 d0                	not    %eax
   14d2e:	0f bf d0             	movswl %ax,%edx
   14d31:	8b 05 ed a2 00 00    	mov    0xa2ed(%rip),%eax        # 1f024 <g_2>
   14d37:	39 c2                	cmp    %eax,%edx
   14d39:	0f 94 c0             	sete   %al
   14d3c:	0f b6 c0             	movzbl %al,%eax
   14d3f:	48 39 85 c0 ef ff ff 	cmp    %rax,-0x1040(%rbp)
   14d46:	0f 92 c0             	setb   %al
   14d49:	0f b6 c0             	movzbl %al,%eax
   14d4c:	48 c7 c6 ff ff ff ff 	mov    $0xffffffffffffffff,%rsi
   14d53:	48 89 c7             	mov    %rax,%rdi
   14d56:	e8 54 63 ff ff       	callq  b0af <safe_div_func_uint64_t_u_u>
   14d5b:	49 39 c6             	cmp    %rax,%r14
   14d5e:	0f 92 c0             	setb   %al
   14d61:	0f b6 d0             	movzbl %al,%edx
   14d64:	48 8b 85 f0 ee ff ff 	mov    -0x1110(%rbp),%rax
   14d6b:	8b 00                	mov    (%rax),%eax
   14d6d:	39 c2                	cmp    %eax,%edx
   14d6f:	48 8b 85 c0 ef ff ff 	mov    -0x1040(%rbp),%rax
   14d76:	98                   	cwtl   
   14d77:	44 89 ee             	mov    %r13d,%esi
   14d7a:	89 c7                	mov    %eax,%edi
   14d7c:	e8 32 56 ff ff       	callq  a3b3 <safe_add_func_int16_t_s_s>
   14d81:	0f b7 c0             	movzwl %ax,%eax
   14d84:	44 89 e6             	mov    %r12d,%esi
   14d87:	89 c7                	mov    %eax,%edi
   14d89:	e8 78 60 ff ff       	callq  ae06 <safe_lshift_func_uint16_t_u_u>
   14d8e:	0f b7 d0             	movzwl %ax,%edx
   14d91:	48 8b 85 60 ee ff ff 	mov    -0x11a0(%rbp),%rax
   14d98:	48 89 d6             	mov    %rdx,%rsi
   14d9b:	48 89 c7             	mov    %rax,%rdi
   14d9e:	e8 9e 5a ff ff       	callq  a841 <safe_add_func_int64_t_s_s>
   14da3:	48 89 de             	mov    %rbx,%rsi
   14da6:	48 89 c7             	mov    %rax,%rdi
   14da9:	e8 fa 5a ff ff       	callq  a8a8 <safe_sub_func_int64_t_s_s>
   14dae:	0f b6 95 5c ee ff ff 	movzbl -0x11a4(%rbp),%edx
   14db5:	48 39 d0             	cmp    %rdx,%rax
   14db8:	0f 9e c0             	setle  %al
   14dbb:	0f b6 d0             	movzbl %al,%edx
   14dbe:	8b 85 b0 ee ff ff    	mov    -0x1150(%rbp),%eax
   14dc4:	48 98                	cltq   
   14dc6:	48 89 d6             	mov    %rdx,%rsi
   14dc9:	48 89 c7             	mov    %rax,%rdi
   14dcc:	e8 5d 62 ff ff       	callq  b02e <safe_add_func_uint64_t_u_u>
   14dd1:	89 85 fc f4 ff ff    	mov    %eax,-0xb04(%rbp)
   14dd7:	48 8b 05 4a a4 00 00 	mov    0xa44a(%rip),%rax        # 1f228 <g_1638>
   14dde:	48 83 c0 01          	add    $0x1,%rax
   14de2:	48 89 05 3f a4 00 00 	mov    %rax,0xa43f(%rip)        # 1f228 <g_1638>
   14de9:	48 8b 05 38 a4 00 00 	mov    0xa438(%rip),%rax        # 1f228 <g_1638>
   14df0:	48 83 f8 2c          	cmp    $0x2c,%rax
   14df4:	0f 85 19 fe ff ff    	jne    14c13 <func_58+0x122a>
   14dfa:	48 8b 85 c8 ef ff ff 	mov    -0x1038(%rbp),%rax
   14e01:	48 3b 85 58 ef ff ff 	cmp    -0x10a8(%rbp),%rax
   14e08:	0f 94 c0             	sete   %al
   14e0b:	0f b6 d0             	movzbl %al,%edx
   14e0e:	8b 85 68 ee ff ff    	mov    -0x1198(%rbp),%eax
   14e14:	21 d0                	and    %edx,%eax
   14e16:	89 85 68 ee ff ff    	mov    %eax,-0x1198(%rbp)
   14e1c:	8b 05 1a a2 00 00    	mov    0xa21a(%rip),%eax        # 1f03c <g_75>
   14e22:	48 98                	cltq   
   14e24:	be 06 00 00 00       	mov    $0x6,%esi
   14e29:	48 89 c7             	mov    %rax,%rdi
   14e2c:	e8 fd 61 ff ff       	callq  b02e <safe_add_func_uint64_t_u_u>
   14e31:	89 05 05 a2 00 00    	mov    %eax,0xa205(%rip)        # 1f03c <g_75>
   14e37:	8b 05 ff a1 00 00    	mov    0xa1ff(%rip),%eax        # 1f03c <g_75>
   14e3d:	83 f8 0d             	cmp    $0xd,%eax
   14e40:	0f 85 78 fd ff ff    	jne    14bbe <func_58+0x11d5>
   14e46:	e9 dd 07 00 00       	jmpq   15628 <func_58+0x1c3f>
   14e4b:	c7 85 88 ee ff ff 07 	movl   $0x7,-0x1178(%rbp)
   14e52:	00 00 00 
   14e55:	48 8d 85 7c ee ff ff 	lea    -0x1184(%rbp),%rax
   14e5c:	48 89 85 98 ef ff ff 	mov    %rax,-0x1068(%rbp)
   14e63:	48 8d 05 76 e3 00 00 	lea    0xe376(%rip),%rax        # 231e0 <g_692>
   14e6a:	48 89 85 a0 ef ff ff 	mov    %rax,-0x1060(%rbp)
   14e71:	c7 85 94 ee ff ff a0 	movl   $0xb1332a0,-0x116c(%rbp)
   14e78:	32 13 0b 
   14e7b:	48 8d 85 f0 f4 ff ff 	lea    -0xb10(%rbp),%rax
   14e82:	48 8d 15 b7 64 00 00 	lea    0x64b7(%rip),%rdx        # 1b340 <g_2661+0x12d0>
   14e89:	b9 78 00 00 00       	mov    $0x78,%ecx
   14e8e:	48 89 c7             	mov    %rax,%rdi
   14e91:	48 89 d6             	mov    %rdx,%rsi
   14e94:	f3 48 a5             	rep movsq %ds:(%rsi),%es:(%rdi)
   14e97:	8b 85 78 ee ff ff    	mov    -0x1188(%rbp),%eax
   14e9d:	0f b7 d8             	movzwl %ax,%ebx
   14ea0:	44 0f b6 a5 5c ee ff 	movzbl -0x11a4(%rbp),%r12d
   14ea7:	ff 
   14ea8:	8b 85 6c ee ff ff    	mov    -0x1194(%rbp),%eax
   14eae:	41 89 c5             	mov    %eax,%r13d
   14eb1:	0f b6 95 5c ee ff ff 	movzbl -0x11a4(%rbp),%edx
   14eb8:	48 8b 05 89 d6 00 00 	mov    0xd689(%rip),%rax        # 22548 <g_1698>
   14ebf:	48 8b 00             	mov    (%rax),%rax
   14ec2:	0f b6 00             	movzbl (%rax),%eax
   14ec5:	0f b6 c0             	movzbl %al,%eax
   14ec8:	89 d6                	mov    %edx,%esi
   14eca:	89 c7                	mov    %eax,%edi
   14ecc:	e8 c2 5c ff ff       	callq  ab93 <safe_mul_func_uint8_t_u_u>
   14ed1:	b8 01 00 00 00       	mov    $0x1,%eax
   14ed6:	0f b6 c0             	movzbl %al,%eax
   14ed9:	44 89 ee             	mov    %r13d,%esi
   14edc:	89 c7                	mov    %eax,%edi
   14ede:	e8 aa 5d ff ff       	callq  ac8d <safe_rshift_func_uint8_t_u_s>
   14ee3:	0f b7 05 8a a1 00 00 	movzwl 0xa18a(%rip),%eax        # 1f074 <g_175>
   14eea:	0f b7 d0             	movzwl %ax,%edx
   14eed:	8b 05 f9 e2 00 00    	mov    0xe2f9(%rip),%eax        # 231ec <g_1844>
   14ef3:	39 c2                	cmp    %eax,%edx
   14ef5:	0f 9f c0             	setg   %al
   14ef8:	0f b6 c0             	movzbl %al,%eax
   14efb:	89 c7                	mov    %eax,%edi
   14efd:	e8 94 56 ff ff       	callq  a596 <safe_unary_minus_func_int32_t_s>
   14f02:	48 8b 15 9f d5 00 00 	mov    0xd59f(%rip),%rdx        # 224a8 <g_1565>
   14f09:	0f b6 12             	movzbl (%rdx),%edx
   14f0c:	0f be d2             	movsbl %dl,%edx
   14f0f:	39 d0                	cmp    %edx,%eax
   14f11:	0f 94 c0             	sete   %al
   14f14:	0f b6 c0             	movzbl %al,%eax
   14f17:	4c 89 e6             	mov    %r12,%rsi
   14f1a:	48 89 c7             	mov    %rax,%rdi
   14f1d:	e8 92 5a ff ff       	callq  a9b4 <safe_mod_func_int64_t_s_s>
   14f22:	48 8b 95 20 f0 ff ff 	mov    -0xfe0(%rbp),%rdx
   14f29:	48 8d 85 6c ee ff ff 	lea    -0x1194(%rbp),%rax
   14f30:	48 39 c2             	cmp    %rax,%rdx
   14f33:	0f 95 c0             	setne  %al
   14f36:	0f b6 d0             	movzbl %al,%edx
   14f39:	0f b6 85 5c ee ff ff 	movzbl -0x11a4(%rbp),%eax
   14f40:	48 89 d6             	mov    %rdx,%rsi
   14f43:	48 89 c7             	mov    %rax,%rdi
   14f46:	e8 e3 60 ff ff       	callq  b02e <safe_add_func_uint64_t_u_u>
   14f4b:	48 8b 05 f6 d5 00 00 	mov    0xd5f6(%rip),%rax        # 22548 <g_1698>
   14f52:	48 8b 00             	mov    (%rax),%rax
   14f55:	48 85 c0             	test   %rax,%rax
   14f58:	0f 95 c0             	setne  %al
   14f5b:	0f b6 c0             	movzbl %al,%eax
   14f5e:	8b 95 88 ee ff ff    	mov    -0x1178(%rbp),%edx
   14f64:	09 d0                	or     %edx,%eax
   14f66:	0f b7 d0             	movzwl %ax,%edx
   14f69:	8b 85 68 ee ff ff    	mov    -0x1198(%rbp),%eax
   14f6f:	0f b7 c0             	movzwl %ax,%eax
   14f72:	89 d6                	mov    %edx,%esi
   14f74:	89 c7                	mov    %eax,%edi
   14f76:	e8 e1 5d ff ff       	callq  ad5c <safe_mod_func_uint16_t_u_u>
   14f7b:	8b 95 6c ee ff ff    	mov    -0x1194(%rbp),%edx
   14f81:	09 d0                	or     %edx,%eax
   14f83:	0f b7 c0             	movzwl %ax,%eax
   14f86:	89 de                	mov    %ebx,%esi
   14f88:	89 c7                	mov    %eax,%edi
   14f8a:	e8 ae 5d ff ff       	callq  ad3d <safe_mul_func_uint16_t_u_u>
   14f8f:	0f b7 c0             	movzwl %ax,%eax
   14f92:	48 33 85 60 ee ff ff 	xor    -0x11a0(%rbp),%rax
   14f99:	48 85 c0             	test   %rax,%rax
   14f9c:	0f 89 e8 02 00 00    	jns    1528a <func_58+0x18a1>
   14fa2:	48 8d 85 30 ef ff ff 	lea    -0x10d0(%rbp),%rax
   14fa9:	48 89 85 b8 ef ff ff 	mov    %rax,-0x1048(%rbp)
   14fb0:	c7 85 98 ee ff ff 17 	movl   $0x9b6e1d17,-0x1168(%rbp)
   14fb7:	1d 6e 9b 
   14fba:	c7 85 9c ee ff ff 63 	movl   $0x1c9a2863,-0x1164(%rbp)
   14fc1:	28 9a 1c 
   14fc4:	c7 85 a0 ee ff ff f9 	movl   $0xfffffff9,-0x1160(%rbp)
   14fcb:	ff ff ff 
   14fce:	c7 85 a4 ee ff ff 01 	movl   $0x1,-0x115c(%rbp)
   14fd5:	00 00 00 
   14fd8:	c7 85 a8 ee ff ff 00 	movl   $0x0,-0x1158(%rbp)
   14fdf:	00 00 00 
   14fe2:	c7 85 ac ee ff ff 09 	movl   $0x9,-0x1154(%rbp)
   14fe9:	00 00 00 
   14fec:	c7 85 8c ee ff ff 00 	movl   $0x0,-0x1174(%rbp)
   14ff3:	00 00 00 
   14ff6:	eb 1e                	jmp    15016 <func_58+0x162d>
   14ff8:	8b 85 8c ee ff ff    	mov    -0x1174(%rbp),%eax
   14ffe:	48 98                	cltq   
   15000:	48 8d 15 19 a2 00 00 	lea    0xa219(%rip),%rdx        # 1f220 <g_1483>
   15007:	48 89 94 c5 60 f0 ff 	mov    %rdx,-0xfa0(%rbp,%rax,8)
   1500e:	ff 
   1500f:	83 85 8c ee ff ff 01 	addl   $0x1,-0x1174(%rbp)
   15016:	83 bd 8c ee ff ff 00 	cmpl   $0x0,-0x1174(%rbp)
   1501d:	7e d9                	jle    14ff8 <func_58+0x160f>
   1501f:	c7 85 8c ee ff ff 00 	movl   $0x0,-0x1174(%rbp)
   15026:	00 00 00 
   15029:	eb 1a                	jmp    15045 <func_58+0x165c>
   1502b:	8b 85 8c ee ff ff    	mov    -0x1174(%rbp),%eax
   15031:	48 98                	cltq   
   15033:	c7 84 85 50 f1 ff ff 	movl   $0x8cb501dd,-0xeb0(%rbp,%rax,4)
   1503a:	dd 01 b5 8c 
   1503e:	83 85 8c ee ff ff 01 	addl   $0x1,-0x1174(%rbp)
   15045:	83 bd 8c ee ff ff 03 	cmpl   $0x3,-0x1174(%rbp)
   1504c:	7e dd                	jle    1502b <func_58+0x1642>
   1504e:	48 8b 05 cb d0 00 00 	mov    0xd0cb(%rip),%rax        # 22120 <g_774>
   15055:	48 8b 95 98 ef ff ff 	mov    -0x1068(%rbp),%rdx
   1505c:	48 89 10             	mov    %rdx,(%rax)
   1505f:	48 c7 05 ae a1 00 00 	movq   $0xffffffffffffffe9,0xa1ae(%rip)        # 1f218 <g_1378>
   15066:	e9 ff ff ff 
   1506a:	eb 5d                	jmp    150c9 <func_58+0x16e0>
   1506c:	0f b7 85 76 ee ff ff 	movzwl -0x118a(%rbp),%eax
   15073:	83 e8 01             	sub    $0x1,%eax
   15076:	66 89 85 76 ee ff ff 	mov    %ax,-0x118a(%rbp)
   1507d:	8b 1d 9d 72 00 00    	mov    0x729d(%rip),%ebx        # 1c320 <l_1851.4754>
   15083:	8b 85 68 ee ff ff    	mov    -0x1198(%rbp),%eax
   15089:	0f be c0             	movsbl %al,%eax
   1508c:	89 c6                	mov    %eax,%esi
   1508e:	bf fe ff ff ff       	mov    $0xfffffffe,%edi
   15093:	e8 7a 51 ff ff       	callq  a212 <safe_mul_func_int8_t_s_s>
   15098:	0f be c0             	movsbl %al,%eax
   1509b:	39 c3                	cmp    %eax,%ebx
   1509d:	0f 9d c0             	setge  %al
   150a0:	0f b6 d0             	movzbl %al,%edx
   150a3:	48 8b 85 98 ef ff ff 	mov    -0x1068(%rbp),%rax
   150aa:	8b 00                	mov    (%rax),%eax
   150ac:	21 c2                	and    %eax,%edx
   150ae:	48 8b 85 98 ef ff ff 	mov    -0x1068(%rbp),%rax
   150b5:	89 10                	mov    %edx,(%rax)
   150b7:	48 8b 05 5a a1 00 00 	mov    0xa15a(%rip),%rax        # 1f218 <g_1378>
   150be:	48 83 c0 01          	add    $0x1,%rax
   150c2:	48 89 05 4f a1 00 00 	mov    %rax,0xa14f(%rip)        # 1f218 <g_1378>
   150c9:	48 8b 05 48 a1 00 00 	mov    0xa148(%rip),%rax        # 1f218 <g_1378>
   150d0:	48 83 f8 ee          	cmp    $0xffffffffffffffee,%rax
   150d4:	7d 96                	jge    1506c <func_58+0x1683>
   150d6:	8b 85 68 ee ff ff    	mov    -0x1198(%rbp),%eax
   150dc:	41 89 c6             	mov    %eax,%r14d
   150df:	48 8b 85 d8 ee ff ff 	mov    -0x1128(%rbp),%rax
   150e6:	8b 00                	mov    (%rax),%eax
   150e8:	41 89 c7             	mov    %eax,%r15d
   150eb:	48 8b 95 30 ef ff ff 	mov    -0x10d0(%rbp),%rdx
   150f2:	48 8b 85 b8 ef ff ff 	mov    -0x1048(%rbp),%rax
   150f9:	48 89 10             	mov    %rdx,(%rax)
   150fc:	48 8b 85 b8 ef ff ff 	mov    -0x1048(%rbp),%rax
   15103:	48 8b 00             	mov    (%rax),%rax
   15106:	48 85 c0             	test   %rax,%rax
   15109:	0f 95 c0             	setne  %al
   1510c:	44 0f b6 e0          	movzbl %al,%r12d
   15110:	48 8b 85 98 ef ff ff 	mov    -0x1068(%rbp),%rax
   15117:	44 8b 28             	mov    (%rax),%r13d
   1511a:	0f b6 85 5c ee ff ff 	movzbl -0x11a4(%rbp),%eax
   15121:	0f be d8             	movsbl %al,%ebx
   15124:	48 8d 85 c0 ee ff ff 	lea    -0x1140(%rbp),%rax
   1512b:	48 39 85 60 ef ff ff 	cmp    %rax,-0x10a0(%rbp)
   15132:	0f 94 c0             	sete   %al
   15135:	0f b6 c0             	movzbl %al,%eax
   15138:	8b 95 68 ee ff ff    	mov    -0x1198(%rbp),%edx
   1513e:	31 d0                	xor    %edx,%eax
   15140:	0f b7 c0             	movzwl %ax,%eax
   15143:	be 19 d6 00 00       	mov    $0xd619,%esi
   15148:	89 c7                	mov    %eax,%edi
   1514a:	e8 d0 5b ff ff       	callq  ad1f <safe_sub_func_uint16_t_u_u>
   1514f:	0f b7 c0             	movzwl %ax,%eax
   15152:	be 07 00 00 00       	mov    $0x7,%esi
   15157:	89 c7                	mov    %eax,%edi
   15159:	e8 1c 5d ff ff       	callq  ae7a <safe_rshift_func_uint16_t_u_u>
   1515e:	48 8b 85 68 ef ff ff 	mov    -0x1098(%rbp),%rax
   15165:	48 3b 85 a0 ef ff ff 	cmp    -0x1060(%rbp),%rax
   1516c:	0f 95 c0             	setne  %al
   1516f:	0f b6 c0             	movzbl %al,%eax
   15172:	89 c7                	mov    %eax,%edi
   15174:	e8 2d 5d ff ff       	callq  aea6 <safe_unary_minus_func_uint32_t_u>
   15179:	98                   	cwtl   
   1517a:	be 0c 00 00 00       	mov    $0xc,%esi
   1517f:	89 c7                	mov    %eax,%edi
   15181:	e8 5b 53 ff ff       	callq  a4e1 <safe_lshift_func_int16_t_s_u>
   15186:	8b 05 a0 71 00 00    	mov    0x71a0(%rip),%eax        # 1c32c <l_1851.4754+0xc>
   1518c:	48 63 d0             	movslq %eax,%rdx
   1518f:	48 8b 85 98 ef ff ff 	mov    -0x1068(%rbp),%rax
   15196:	8b 00                	mov    (%rax),%eax
   15198:	48 98                	cltq   
   1519a:	48 89 d6             	mov    %rdx,%rsi
   1519d:	48 89 c7             	mov    %rax,%rdi
   151a0:	e8 0a 5f ff ff       	callq  b0af <safe_div_func_uint64_t_u_u>
   151a5:	48 8b 85 e8 ee ff ff 	mov    -0x1118(%rbp),%rax
   151ac:	8b 00                	mov    (%rax),%eax
   151ae:	0f be c0             	movsbl %al,%eax
   151b1:	89 c7                	mov    %eax,%edi
   151b3:	e8 07 50 ff ff       	callq  a1bf <safe_unary_minus_func_int8_t_s>
   151b8:	8b 85 6c ee ff ff    	mov    -0x1194(%rbp),%eax
   151be:	89 c0                	mov    %eax,%eax
   151c0:	48 39 85 60 ee ff ff 	cmp    %rax,-0x11a0(%rbp)
   151c7:	0f 9e c0             	setle  %al
   151ca:	0f b6 c0             	movzbl %al,%eax
   151cd:	89 de                	mov    %ebx,%esi
   151cf:	89 c7                	mov    %eax,%edi
   151d1:	e8 5b 50 ff ff       	callq  a231 <safe_mod_func_int8_t_s_s>
   151d6:	0f be d0             	movsbl %al,%edx
   151d9:	0f b6 85 5c ee ff ff 	movzbl -0x11a4(%rbp),%eax
   151e0:	21 d0                	and    %edx,%eax
   151e2:	41 39 c5             	cmp    %eax,%r13d
   151e5:	0f 94 c0             	sete   %al
   151e8:	0f b6 c0             	movzbl %al,%eax
   151eb:	44 31 e0             	xor    %r12d,%eax
   151ee:	66 89 05 2b a0 00 00 	mov    %ax,0xa02b(%rip)        # 1f220 <g_1483>
   151f5:	0f b7 05 24 a0 00 00 	movzwl 0xa024(%rip),%eax        # 1f220 <g_1483>
   151fc:	98                   	cwtl   
   151fd:	89 c6                	mov    %eax,%esi
   151ff:	bf fd ff ff ff       	mov    $0xfffffffd,%edi
   15204:	e8 aa 51 ff ff       	callq  a3b3 <safe_add_func_int16_t_s_s>
   15209:	0f bf d0             	movswl %ax,%edx
   1520c:	8b 85 6c ee ff ff    	mov    -0x1194(%rbp),%eax
   15212:	39 c2                	cmp    %eax,%edx
   15214:	0f 92 c0             	setb   %al
   15217:	0f b6 d0             	movzbl %al,%edx
   1521a:	48 8b 85 50 ef ff ff 	mov    -0x10b0(%rbp),%rax
   15221:	89 10                	mov    %edx,(%rax)
   15223:	48 8b 85 50 ef ff ff 	mov    -0x10b0(%rbp),%rax
   1522a:	8b 00                	mov    (%rax),%eax
   1522c:	44 89 fe             	mov    %r15d,%esi
   1522f:	89 c7                	mov    %eax,%edi
   15231:	e8 82 5c ff ff       	callq  aeb8 <safe_add_func_uint32_t_u_u>
   15236:	48 8b 95 d8 ee ff ff 	mov    -0x1128(%rbp),%rdx
   1523d:	8b 12                	mov    (%rdx),%edx
   1523f:	09 c2                	or     %eax,%edx
   15241:	48 8b 05 68 d2 00 00 	mov    0xd268(%rip),%rax        # 224b0 <g_1564>
   15248:	48 8b 00             	mov    (%rax),%rax
   1524b:	48 8b 8d 60 ee ff ff 	mov    -0x11a0(%rbp),%rcx
   15252:	88 08                	mov    %cl,(%rax)
   15254:	0f b6 00             	movzbl (%rax),%eax
   15257:	0f be c0             	movsbl %al,%eax
   1525a:	89 d6                	mov    %edx,%esi
   1525c:	89 c7                	mov    %eax,%edi
   1525e:	e8 09 51 ff ff       	callq  a36c <safe_rshift_func_int8_t_s_u>
   15263:	0f be c0             	movsbl %al,%eax
   15266:	44 89 f6             	mov    %r14d,%esi
   15269:	89 c7                	mov    %eax,%edi
   1526b:	e8 8d 5c ff ff       	callq  aefd <safe_mod_func_uint32_t_u_u>
   15270:	89 c2                	mov    %eax,%edx
   15272:	48 8b 05 a7 ce 00 00 	mov    0xcea7(%rip),%rax        # 22120 <g_774>
   15279:	48 8b 00             	mov    (%rax),%rax
   1527c:	89 10                	mov    %edx,(%rax)
   1527e:	83 ad 90 ee ff ff 01 	subl   $0x1,-0x1170(%rbp)
   15285:	e9 94 03 00 00       	jmpq   1561e <func_58+0x1c35>
   1528a:	48 c7 85 a8 ef ff ff 	movq   $0x0,-0x1058(%rbp)
   15291:	00 00 00 00 
   15295:	48 8d 05 ec d6 00 00 	lea    0xd6ec(%rip),%rax        # 22988 <g_1916+0x88>
   1529c:	48 89 85 60 f0 ff ff 	mov    %rax,-0xfa0(%rbp)
   152a3:	48 8d 05 de d6 00 00 	lea    0xd6de(%rip),%rax        # 22988 <g_1916+0x88>
   152aa:	48 89 85 68 f0 ff ff 	mov    %rax,-0xf98(%rbp)
   152b1:	48 8d 05 d0 d6 00 00 	lea    0xd6d0(%rip),%rax        # 22988 <g_1916+0x88>
   152b8:	48 89 85 70 f0 ff ff 	mov    %rax,-0xf90(%rbp)
   152bf:	48 8d 05 c2 d6 00 00 	lea    0xd6c2(%rip),%rax        # 22988 <g_1916+0x88>
   152c6:	48 89 85 78 f0 ff ff 	mov    %rax,-0xf88(%rbp)
   152cd:	48 8d 05 b4 d6 00 00 	lea    0xd6b4(%rip),%rax        # 22988 <g_1916+0x88>
   152d4:	48 89 85 80 f0 ff ff 	mov    %rax,-0xf80(%rbp)
   152db:	48 8d 05 a6 d6 00 00 	lea    0xd6a6(%rip),%rax        # 22988 <g_1916+0x88>
   152e2:	48 89 85 88 f0 ff ff 	mov    %rax,-0xf78(%rbp)
   152e9:	c7 85 88 ee ff ff 00 	movl   $0x0,-0x1178(%rbp)
   152f0:	00 00 00 
   152f3:	e9 98 02 00 00       	jmpq   15590 <func_58+0x1ba7>
   152f8:	48 b8 55 32 86 3e f4 	movabs $0xdf3bbf43e863255,%rax
   152ff:	bb f3 0d 
   15302:	48 89 85 b0 ef ff ff 	mov    %rax,-0x1050(%rbp)
   15309:	48 c7 85 50 f1 ff ff 	movq   $0x0,-0xeb0(%rbp)
   15310:	00 00 00 00 
   15314:	48 8d 05 35 9d 00 00 	lea    0x9d35(%rip),%rax        # 1f050 <g_109>
   1531b:	48 89 85 58 f1 ff ff 	mov    %rax,-0xea8(%rbp)
   15322:	48 c7 85 60 f1 ff ff 	movq   $0x0,-0xea0(%rbp)
   15329:	00 00 00 00 
   1532d:	48 c7 85 68 f1 ff ff 	movq   $0x0,-0xe98(%rbp)
   15334:	00 00 00 00 
   15338:	48 8d 05 11 9d 00 00 	lea    0x9d11(%rip),%rax        # 1f050 <g_109>
   1533f:	48 89 85 70 f1 ff ff 	mov    %rax,-0xe90(%rbp)
   15346:	48 8d 05 03 9d 00 00 	lea    0x9d03(%rip),%rax        # 1f050 <g_109>
   1534d:	48 89 85 78 f1 ff ff 	mov    %rax,-0xe88(%rbp)
   15354:	48 8d 05 fd 9c 00 00 	lea    0x9cfd(%rip),%rax        # 1f058 <g_109+0x8>
   1535b:	48 89 85 80 f1 ff ff 	mov    %rax,-0xe80(%rbp)
   15362:	48 8d 05 e7 9c 00 00 	lea    0x9ce7(%rip),%rax        # 1f050 <g_109>
   15369:	48 89 85 88 f1 ff ff 	mov    %rax,-0xe78(%rbp)
   15370:	48 8d 05 d9 9c 00 00 	lea    0x9cd9(%rip),%rax        # 1f050 <g_109>
   15377:	48 89 85 90 f1 ff ff 	mov    %rax,-0xe70(%rbp)
   1537e:	48 c7 85 98 f1 ff ff 	movq   $0x0,-0xe68(%rbp)
   15385:	00 00 00 00 
   15389:	48 c7 85 a0 f1 ff ff 	movq   $0x0,-0xe60(%rbp)
   15390:	00 00 00 00 
   15394:	48 8d 05 b5 9c 00 00 	lea    0x9cb5(%rip),%rax        # 1f050 <g_109>
   1539b:	48 89 85 a8 f1 ff ff 	mov    %rax,-0xe58(%rbp)
   153a2:	48 c7 85 b0 f1 ff ff 	movq   $0x0,-0xe50(%rbp)
   153a9:	00 00 00 00 
   153ad:	48 8d 05 9c 9c 00 00 	lea    0x9c9c(%rip),%rax        # 1f050 <g_109>
   153b4:	48 89 85 b8 f1 ff ff 	mov    %rax,-0xe48(%rbp)
   153bb:	48 c7 85 c0 f1 ff ff 	movq   $0x0,-0xe40(%rbp)
   153c2:	00 00 00 00 
   153c6:	48 c7 85 c8 f1 ff ff 	movq   $0x0,-0xe38(%rbp)
   153cd:	00 00 00 00 
   153d1:	48 8d 05 78 9c 00 00 	lea    0x9c78(%rip),%rax        # 1f050 <g_109>
   153d8:	48 89 85 d0 f1 ff ff 	mov    %rax,-0xe30(%rbp)
   153df:	48 8d 05 6a 9c 00 00 	lea    0x9c6a(%rip),%rax        # 1f050 <g_109>
   153e6:	48 89 85 d8 f1 ff ff 	mov    %rax,-0xe28(%rbp)
   153ed:	48 8d 05 64 9c 00 00 	lea    0x9c64(%rip),%rax        # 1f058 <g_109+0x8>
   153f4:	48 89 85 e0 f1 ff ff 	mov    %rax,-0xe20(%rbp)
   153fb:	48 8d 05 4e 9c 00 00 	lea    0x9c4e(%rip),%rax        # 1f050 <g_109>
   15402:	48 89 85 e8 f1 ff ff 	mov    %rax,-0xe18(%rbp)
   15409:	48 8d 05 40 9c 00 00 	lea    0x9c40(%rip),%rax        # 1f050 <g_109>
   15410:	48 89 85 f0 f1 ff ff 	mov    %rax,-0xe10(%rbp)
   15417:	48 c7 85 f8 f1 ff ff 	movq   $0x0,-0xe08(%rbp)
   1541e:	00 00 00 00 
   15422:	48 8d 05 2f 9c 00 00 	lea    0x9c2f(%rip),%rax        # 1f058 <g_109+0x8>
   15429:	48 89 85 00 f2 ff ff 	mov    %rax,-0xe00(%rbp)
   15430:	48 c7 85 08 f2 ff ff 	movq   $0x0,-0xdf8(%rbp)
   15437:	00 00 00 00 
   1543b:	48 8d 05 16 9c 00 00 	lea    0x9c16(%rip),%rax        # 1f058 <g_109+0x8>
   15442:	48 89 85 10 f2 ff ff 	mov    %rax,-0xdf0(%rbp)
   15449:	48 c7 85 18 f2 ff ff 	movq   $0x0,-0xde8(%rbp)
   15450:	00 00 00 00 
   15454:	48 8d 05 fd 9b 00 00 	lea    0x9bfd(%rip),%rax        # 1f058 <g_109+0x8>
   1545b:	48 89 85 20 f2 ff ff 	mov    %rax,-0xde0(%rbp)
   15462:	48 8d 05 ef 9b 00 00 	lea    0x9bef(%rip),%rax        # 1f058 <g_109+0x8>
   15469:	48 89 85 28 f2 ff ff 	mov    %rax,-0xdd8(%rbp)
   15470:	48 c7 85 30 f2 ff ff 	movq   $0x0,-0xdd0(%rbp)
   15477:	00 00 00 00 
   1547b:	48 c7 85 38 f2 ff ff 	movq   $0x0,-0xdc8(%rbp)
   15482:	00 00 00 00 
   15486:	48 8d 05 c3 9b 00 00 	lea    0x9bc3(%rip),%rax        # 1f050 <g_109>
   1548d:	48 89 85 40 f2 ff ff 	mov    %rax,-0xdc0(%rbp)
   15494:	48 c7 85 48 f2 ff ff 	movq   $0x0,-0xdb8(%rbp)
   1549b:	00 00 00 00 
   1549f:	48 8b 05 42 c3 00 00 	mov    0xc342(%rip),%rax        # 217e8 <g_56>
   154a6:	48 8d 95 68 ee ff ff 	lea    -0x1198(%rbp),%rdx
   154ad:	48 89 10             	mov    %rdx,(%rax)
   154b0:	48 8b 85 f8 ee ff ff 	mov    -0x1108(%rbp),%rax
   154b7:	8b 00                	mov    (%rax),%eax
   154b9:	0f be d8             	movsbl %al,%ebx
   154bc:	48 8b 85 98 ef ff ff 	mov    -0x1068(%rbp),%rax
   154c3:	8b 00                	mov    (%rax),%eax
   154c5:	44 0f b6 e0          	movzbl %al,%r12d
   154c9:	48 83 bd 78 ef ff ff 	cmpq   $0x0,-0x1088(%rbp)
   154d0:	00 
   154d1:	0f 94 c0             	sete   %al
   154d4:	44 0f b6 f0          	movzbl %al,%r14d
   154d8:	48 8b 05 49 d0 00 00 	mov    0xd049(%rip),%rax        # 22528 <g_1658>
   154df:	48 8b 00             	mov    (%rax),%rax
   154e2:	48 8b 00             	mov    (%rax),%rax
   154e5:	0f b7 00             	movzwl (%rax),%eax
   154e8:	44 0f b7 e8          	movzwl %ax,%r13d
   154ec:	48 83 bd 80 ef ff ff 	cmpq   $0x0,-0x1080(%rbp)
   154f3:	00 
   154f4:	0f 95 c2             	setne  %dl
   154f7:	48 8b 85 e8 ee ff ff 	mov    -0x1118(%rbp),%rax
   154fe:	0f b6 d2             	movzbl %dl,%edx
   15501:	89 10                	mov    %edx,(%rax)
   15503:	8b 00                	mov    (%rax),%eax
   15505:	48 98                	cltq   
   15507:	48 39 85 b0 ef ff ff 	cmp    %rax,-0x1050(%rbp)
   1550e:	0f 9d c0             	setge  %al
   15511:	44 0f b6 f8          	movzbl %al,%r15d
   15515:	48 8b 85 28 f2 ff ff 	mov    -0xdd8(%rbp),%rax
   1551c:	48 8d 15 2d 9b 00 00 	lea    0x9b2d(%rip),%rdx        # 1f050 <g_109>
   15523:	48 39 d0             	cmp    %rdx,%rax
   15526:	0f 95 c0             	setne  %al
   15529:	0f b6 c0             	movzbl %al,%eax
   1552c:	be 03 00 00 00       	mov    $0x3,%esi
   15531:	89 c7                	mov    %eax,%edi
   15533:	e8 55 57 ff ff       	callq  ac8d <safe_rshift_func_uint8_t_u_s>
   15538:	0f b6 c0             	movzbl %al,%eax
   1553b:	44 21 f8             	and    %r15d,%eax
   1553e:	98                   	cwtl   
   1553f:	44 89 ee             	mov    %r13d,%esi
   15542:	89 c7                	mov    %eax,%edi
   15544:	e8 98 4f ff ff       	callq  a4e1 <safe_lshift_func_int16_t_s_u>
   15549:	98                   	cwtl   
   1554a:	41 39 c6             	cmp    %eax,%r14d
   1554d:	0f 9c c0             	setl   %al
   15550:	0f b6 d0             	movzbl %al,%edx
   15553:	0f b6 85 5c ee ff ff 	movzbl -0x11a4(%rbp),%eax
   1555a:	39 c2                	cmp    %eax,%edx
   1555c:	0f 94 c0             	sete   %al
   1555f:	0f b6 c0             	movzbl %al,%eax
   15562:	44 89 e6             	mov    %r12d,%esi
   15565:	89 c7                	mov    %eax,%edi
   15567:	e8 ee 55 ff ff       	callq  ab5a <safe_add_func_uint8_t_u_u>
   1556c:	0f be c0             	movsbl %al,%eax
   1556f:	89 de                	mov    %ebx,%esi
   15571:	89 c7                	mov    %eax,%edi
   15573:	e8 b9 4c ff ff       	callq  a231 <safe_mod_func_int8_t_s_s>
   15578:	0f be c0             	movsbl %al,%eax
   1557b:	89 85 68 ee ff ff    	mov    %eax,-0x1198(%rbp)
   15581:	8b 85 6c ee ff ff    	mov    -0x1194(%rbp),%eax
   15587:	85 c0                	test   %eax,%eax
   15589:	83 ad 88 ee ff ff 01 	subl   $0x1,-0x1178(%rbp)
   15590:	83 bd 88 ee ff ff ec 	cmpl   $0xffffffec,-0x1178(%rbp)
   15597:	0f 8d 5b fd ff ff    	jge    152f8 <func_58+0x190f>
   1559d:	48 8b 05 bc d3 00 00 	mov    0xd3bc(%rip),%rax        # 22960 <g_1916+0x60>
   155a4:	48 89 05 b5 d3 00 00 	mov    %rax,0xd3b5(%rip)        # 22960 <g_1916+0x60>
   155ab:	48 8b 05 ae d3 00 00 	mov    0xd3ae(%rip),%rax        # 22960 <g_1916+0x60>
   155b2:	48 89 85 48 f0 ff ff 	mov    %rax,-0xfb8(%rbp)
   155b9:	48 8b 85 48 f0 ff ff 	mov    -0xfb8(%rbp),%rax
   155c0:	48 89 05 31 d4 00 00 	mov    %rax,0xd431(%rip)        # 229f8 <g_1923>
   155c7:	48 8b 05 2a d4 00 00 	mov    0xd42a(%rip),%rax        # 229f8 <g_1923>
   155ce:	48 89 85 88 ef ff ff 	mov    %rax,-0x1078(%rbp)
   155d5:	c7 05 5d 9a 00 00 05 	movl   $0x5,0x9a5d(%rip)        # 1f03c <g_75>
   155dc:	00 00 00 
   155df:	eb 33                	jmp    15614 <func_58+0x1c2b>
   155e1:	48 8b 05 38 cb 00 00 	mov    0xcb38(%rip),%rax        # 22120 <g_774>
   155e8:	48 c7 00 00 00 00 00 	movq   $0x0,(%rax)
   155ef:	48 8b 85 98 ef ff ff 	mov    -0x1068(%rbp),%rax
   155f6:	8b 00                	mov    (%rax),%eax
   155f8:	f7 d0                	not    %eax
   155fa:	89 c2                	mov    %eax,%edx
   155fc:	48 8b 85 98 ef ff ff 	mov    -0x1068(%rbp),%rax
   15603:	89 10                	mov    %edx,(%rax)
   15605:	8b 05 31 9a 00 00    	mov    0x9a31(%rip),%eax        # 1f03c <g_75>
   1560b:	83 e8 01             	sub    $0x1,%eax
   1560e:	89 05 28 9a 00 00    	mov    %eax,0x9a28(%rip)        # 1f03c <g_75>
   15614:	8b 05 22 9a 00 00    	mov    0x9a22(%rip),%eax        # 1f03c <g_75>
   1561a:	85 c0                	test   %eax,%eax
   1561c:	79 c3                	jns    155e1 <func_58+0x1bf8>
   1561e:	c7 85 68 ee ff ff a0 	movl   $0xb9e886a0,-0x1198(%rbp)
   15625:	86 e8 b9 
   15628:	48 8b 85 f0 ee ff ff 	mov    -0x1110(%rbp),%rax
   1562f:	8b 10                	mov    (%rax),%edx
   15631:	0f b6 05 2e 6d 00 00 	movzbl 0x6d2e(%rip),%eax        # 1c366 <l_1928.4707+0x26>
   15638:	0f b6 c0             	movzbl %al,%eax
   1563b:	39 c2                	cmp    %eax,%edx
   1563d:	0f 95 c0             	setne  %al
   15640:	0f b6 d0             	movzbl %al,%edx
   15643:	0f be 85 75 ee ff ff 	movsbl -0x118b(%rbp),%eax
   1564a:	39 c2                	cmp    %eax,%edx
   1564c:	0f 9d c2             	setge  %dl
   1564f:	48 8b 85 e8 ee ff ff 	mov    -0x1118(%rbp),%rax
   15656:	0f b6 d2             	movzbl %dl,%edx
   15659:	89 10                	mov    %edx,(%rax)
   1565b:	8b 05 d7 99 00 00    	mov    0x99d7(%rip),%eax        # 1f038 <g_73>
   15661:	83 c0 01             	add    $0x1,%eax
   15664:	89 05 ce 99 00 00    	mov    %eax,0x99ce(%rip)        # 1f038 <g_73>
   1566a:	8b 05 c8 99 00 00    	mov    0x99c8(%rip),%eax        # 1f038 <g_73>
   15670:	83 f8 16             	cmp    $0x16,%eax
   15673:	0f 8e ef e7 ff ff    	jle    13e68 <func_58+0x47f>
   15679:	8b 05 d5 9a 00 00    	mov    0x9ad5(%rip),%eax        # 1f154 <g_378>
   1567f:	83 c0 01             	add    $0x1,%eax
   15682:	89 05 cc 9a 00 00    	mov    %eax,0x9acc(%rip)        # 1f154 <g_378>
   15688:	8b 05 c6 9a 00 00    	mov    0x9ac6(%rip),%eax        # 1f154 <g_378>
   1568e:	83 f8 11             	cmp    $0x11,%eax
   15691:	0f 8f 3e e6 ff ff    	jg     13cd5 <func_58+0x2ec>
   15697:	48 8d 05 42 c1 00 00 	lea    0xc142(%rip),%rax        # 217e0 <g_57>
   1569e:	48 8b 5d c8          	mov    -0x38(%rbp),%rbx
   156a2:	64 48 33 1c 25 28 00 	xor    %fs:0x28,%rbx
   156a9:	00 00 
   156ab:	74 05                	je     156b2 <func_58+0x1cc9>
   156ad:	e8 be 49 ff ff       	callq  a070 <__stack_chk_fail@plt>
   156b2:	48 81 c4 88 11 00 00 	add    $0x1188,%rsp
   156b9:	5b                   	pop    %rbx
   156ba:	41 5c                	pop    %r12
   156bc:	41 5d                	pop    %r13
   156be:	41 5e                	pop    %r14
   156c0:	41 5f                	pop    %r15
   156c2:	5d                   	pop    %rbp
   156c3:	c3                   	retq   

00000000000156c4 <func_76>:
   156c4:	f3 0f 1e fa          	endbr64 
   156c8:	55                   	push   %rbp
   156c9:	48 89 e5             	mov    %rsp,%rbp
   156cc:	41 57                	push   %r15
   156ce:	41 56                	push   %r14
   156d0:	41 55                	push   %r13
   156d2:	41 54                	push   %r12
   156d4:	53                   	push   %rbx
   156d5:	48 81 ec 00 10 00 00 	sub    $0x1000,%rsp
   156dc:	48 83 0c 24 00       	orq    $0x0,(%rsp)
   156e1:	48 81 ec 18 08 00 00 	sub    $0x818,%rsp
   156e8:	48 89 bd e8 e7 ff ff 	mov    %rdi,-0x1818(%rbp)
   156ef:	89 b5 e4 e7 ff ff    	mov    %esi,-0x181c(%rbp)
   156f5:	48 89 95 d8 e7 ff ff 	mov    %rdx,-0x1828(%rbp)
   156fc:	48 89 8d d0 e7 ff ff 	mov    %rcx,-0x1830(%rbp)
   15703:	4c 89 85 c8 e7 ff ff 	mov    %r8,-0x1838(%rbp)
   1570a:	64 48 8b 04 25 28 00 	mov    %fs:0x28,%rax
   15711:	00 00 
   15713:	48 89 45 c8          	mov    %rax,-0x38(%rbp)
   15717:	31 c0                	xor    %eax,%eax
   15719:	48 8d 05 40 99 00 00 	lea    0x9940(%rip),%rax        # 1f060 <g_109+0x10>
   15720:	48 89 85 90 e8 ff ff 	mov    %rax,-0x1770(%rbp)
   15727:	c7 85 10 e8 ff ff 00 	movl   $0x0,-0x17f0(%rbp)
   1572e:	00 00 00 
   15731:	c7 85 14 e8 ff ff 66 	movl   $0x78956a66,-0x17ec(%rbp)
   15738:	6a 95 78 
   1573b:	48 8d 05 7e 99 00 00 	lea    0x997e(%rip),%rax        # 1f0c0 <g_199+0x40>
   15742:	48 89 85 98 e8 ff ff 	mov    %rax,-0x1768(%rbp)
   15749:	48 8d 85 98 e8 ff ff 	lea    -0x1768(%rbp),%rax
   15750:	48 89 85 a0 e8 ff ff 	mov    %rax,-0x1760(%rbp)
   15757:	c6 85 fb e7 ff ff 35 	movb   $0x35,-0x1805(%rbp)
   1575e:	c7 85 18 e8 ff ff e4 	movl   $0x110622e4,-0x17e8(%rbp)
   15765:	22 06 11 
   15768:	c7 85 b0 ea ff ff 9f 	movl   $0xdf11049f,-0x1550(%rbp)
   1576f:	04 11 df 
   15772:	c7 85 b4 ea ff ff 9f 	movl   $0xdf11049f,-0x154c(%rbp)
   15779:	04 11 df 
   1577c:	c7 85 b8 ea ff ff 9f 	movl   $0xdf11049f,-0x1548(%rbp)
   15783:	04 11 df 
   15786:	c7 85 bc ea ff ff 9f 	movl   $0xdf11049f,-0x1544(%rbp)
   1578d:	04 11 df 
   15790:	c7 85 c0 ea ff ff 9f 	movl   $0xdf11049f,-0x1540(%rbp)
   15797:	04 11 df 
   1579a:	48 c7 85 08 e9 ff ff 	movq   $0x2,-0x16f8(%rbp)
   157a1:	02 00 00 00 
   157a5:	c7 45 c1 00 00 00 00 	movl   $0x0,-0x3f(%rbp)
   157ac:	66 c7 45 c5 00 00    	movw   $0x0,-0x3b(%rbp)
   157b2:	c6 45 c7 00          	movb   $0x0,-0x39(%rbp)
   157b6:	48 8d 85 fb e7 ff ff 	lea    -0x1805(%rbp),%rax
   157bd:	48 89 85 a8 e8 ff ff 	mov    %rax,-0x1758(%rbp)
   157c4:	48 8d 85 a8 e8 ff ff 	lea    -0x1758(%rbp),%rax
   157cb:	48 89 85 10 e9 ff ff 	mov    %rax,-0x16f0(%rbp)
   157d2:	c7 85 48 e8 ff ff 3c 	movl   $0xca65903c,-0x17b8(%rbp)
   157d9:	90 65 ca 
   157dc:	48 8d 05 05 c0 00 00 	lea    0xc005(%rip),%rax        # 217e8 <g_56>
   157e3:	48 89 85 18 e9 ff ff 	mov    %rax,-0x16e8(%rbp)
   157ea:	48 b8 af 12 24 f9 e0 	movabs $0x7ff820e0f92412af,%rax
   157f1:	20 f8 7f 
   157f4:	48 89 85 20 e9 ff ff 	mov    %rax,-0x16e0(%rbp)
   157fb:	c7 85 f0 ea ff ff 01 	movl   $0xd2d28201,-0x1510(%rbp)
   15802:	82 d2 d2 
   15805:	c7 85 f4 ea ff ff f2 	movl   $0x8213f2f2,-0x150c(%rbp)
   1580c:	f2 13 82 
   1580f:	c7 85 f8 ea ff ff 82 	movl   $0x1130182,-0x1508(%rbp)
   15816:	01 13 01 
   15819:	c7 85 fc ea ff ff f2 	movl   $0x13d29ef2,-0x1504(%rbp)
   15820:	9e d2 13 
   15823:	c7 85 00 eb ff ff 01 	movl   $0x19e9e01,-0x1500(%rbp)
   1582a:	9e 9e 01 
   1582d:	c7 85 04 eb ff ff 9e 	movl   $0x82f2019e,-0x14fc(%rbp)
   15834:	01 f2 82 
   15837:	c7 85 08 eb ff ff 9e 	movl   $0xd29ef29e,-0x14f8(%rbp)
   1583e:	f2 9e d2 
   15841:	c7 85 0c eb ff ff 01 	movl   $0xd2d28201,-0x14f4(%rbp)
   15848:	82 d2 d2 
   1584b:	c7 85 10 eb ff ff f2 	movl   $0x8213f2f2,-0x14f0(%rbp)
   15852:	f2 13 82 
   15855:	48 c7 85 28 e9 ff ff 	movq   $0x0,-0x16d8(%rbp)
   1585c:	00 00 00 00 
   15860:	48 8d 05 79 bf 00 00 	lea    0xbf79(%rip),%rax        # 217e0 <g_57>
   15867:	48 89 85 30 e9 ff ff 	mov    %rax,-0x16d0(%rbp)
   1586e:	66 c7 85 06 e8 ff ff 	movw   $0x574e,-0x17fa(%rbp)
   15875:	4e 57 
   15877:	c6 85 fd e7 ff ff 00 	movb   $0x0,-0x1803(%rbp)
   1587e:	c7 85 1c e8 ff ff f9 	movl   $0xfffffff9,-0x17e4(%rbp)
   15885:	ff ff ff 
   15888:	48 c7 85 38 e9 ff ff 	movq   $0x0,-0x16c8(%rbp)
   1588f:	00 00 00 00 
   15893:	48 8d 05 8e 97 00 00 	lea    0x978e(%rip),%rax        # 1f028 <g_3>
   1589a:	48 89 85 40 e9 ff ff 	mov    %rax,-0x16c0(%rbp)
   158a1:	66 c7 85 08 e8 ff ff 	movw   $0xffff,-0x17f8(%rbp)
   158a8:	ff ff 
   158aa:	48 c7 85 00 e9 ff ff 	movq   $0x0,-0x1700(%rbp)
   158b1:	00 00 00 00 
   158b5:	c6 85 fe e7 ff ff 90 	movb   $0x90,-0x1802(%rbp)
   158bc:	48 8d 85 f0 ee ff ff 	lea    -0x1110(%rbp),%rax
   158c3:	48 8d 15 36 5e 00 00 	lea    0x5e36(%rip),%rdx        # 1b700 <g_2661+0x1690>
   158ca:	b9 7e 00 00 00       	mov    $0x7e,%ecx
   158cf:	48 89 c7             	mov    %rax,%rdi
   158d2:	48 89 d6             	mov    %rdx,%rsi
   158d5:	f3 48 a5             	rep movsq %ds:(%rsi),%es:(%rdi)
   158d8:	66 c7 85 0a e8 ff ff 	movw   $0xfffd,-0x17f6(%rbp)
   158df:	fd ff 
   158e1:	48 8d 05 88 c8 00 00 	lea    0xc888(%rip),%rax        # 22170 <g_1290>
   158e8:	48 89 85 48 e9 ff ff 	mov    %rax,-0x16b8(%rbp)
   158ef:	c7 85 4c e8 ff ff 06 	movl   $0x6,-0x17b4(%rbp)
   158f6:	00 00 00 
   158f9:	48 8d 05 f0 c9 00 00 	lea    0xc9f0(%rip),%rax        # 222f0 <g_1357>
   15900:	48 89 85 b0 e8 ff ff 	mov    %rax,-0x1750(%rbp)
   15907:	48 c7 85 50 e9 ff ff 	movq   $0x0,-0x16b0(%rbp)
   1590e:	00 00 00 00 
   15912:	48 b8 18 06 4b 1e 02 	movabs $0xaeff0d021e4b0618,%rax
   15919:	0d ff ae 
   1591c:	48 89 85 f8 e8 ff ff 	mov    %rax,-0x1708(%rbp)
   15923:	c7 85 50 e8 ff ff eb 	movl   $0xfe2cf2eb,-0x17b0(%rbp)
   1592a:	f2 2c fe 
   1592d:	66 c7 85 02 e8 ff ff 	movw   $0x0,-0x17fe(%rbp)
   15934:	00 00 
   15936:	48 b8 89 2f a4 73 b2 	movabs $0x1d65eab273a42f89,%rax
   1593d:	ea 65 1d 
   15940:	48 89 85 f0 e8 ff ff 	mov    %rax,-0x1710(%rbp)
   15947:	48 c7 85 20 eb ff ff 	movq   $0x0,-0x14e0(%rbp)
   1594e:	00 00 00 00 
   15952:	48 c7 85 28 eb ff ff 	movq   $0x0,-0x14d8(%rbp)
   15959:	00 00 00 00 
   1595d:	48 c7 85 30 eb ff ff 	movq   $0x0,-0x14d0(%rbp)
   15964:	00 00 00 00 
   15968:	48 c7 85 38 eb ff ff 	movq   $0x0,-0x14c8(%rbp)
   1596f:	00 00 00 00 
   15973:	48 c7 85 40 eb ff ff 	movq   $0x0,-0x14c0(%rbp)
   1597a:	00 00 00 00 
   1597e:	48 b8 8e 0f 1f 1a c8 	movabs $0x5559ecc81a1f0f8e,%rax
   15985:	ec 59 55 
   15988:	48 89 85 58 e9 ff ff 	mov    %rax,-0x16a8(%rbp)
   1598f:	48 c7 85 b8 e8 ff ff 	movq   $0x0,-0x1748(%rbp)
   15996:	00 00 00 00 
   1599a:	48 8d 85 b8 e8 ff ff 	lea    -0x1748(%rbp),%rax
   159a1:	48 89 85 c0 e8 ff ff 	mov    %rax,-0x1740(%rbp)
   159a8:	48 8d 85 c0 e8 ff ff 	lea    -0x1740(%rbp),%rax
   159af:	48 89 85 60 e9 ff ff 	mov    %rax,-0x16a0(%rbp)
   159b6:	48 c7 85 68 e9 ff ff 	movq   $0x6,-0x1698(%rbp)
   159bd:	06 00 00 00 
   159c1:	c7 85 54 e8 ff ff fd 	movl   $0xfffffffd,-0x17ac(%rbp)
   159c8:	ff ff ff 
   159cb:	48 b8 45 72 80 b4 4f 	movabs $0x9ed24b4fb4807245,%rax
   159d2:	4b d2 9e 
   159d5:	48 89 85 70 e9 ff ff 	mov    %rax,-0x1690(%rbp)
   159dc:	48 8b 85 90 e8 ff ff 	mov    -0x1770(%rbp),%rax
   159e3:	8b 10                	mov    (%rax),%edx
   159e5:	b8 5b 00 70 f1       	mov    $0xf170005b,%eax
   159ea:	89 c1                	mov    %eax,%ecx
   159ec:	48 8b 85 90 e8 ff ff 	mov    -0x1770(%rbp),%rax
   159f3:	21 ca                	and    %ecx,%edx
   159f5:	89 10                	mov    %edx,(%rax)
   159f7:	66 c7 85 04 e8 ff ff 	movw   $0x0,-0x17fc(%rbp)
   159fe:	00 00 
   15a00:	48 c7 85 78 e9 ff ff 	movq   $0x0,-0x1688(%rbp)
   15a07:	00 00 00 00 
   15a0b:	c7 85 58 e8 ff ff 8b 	movl   $0x33e19e8b,-0x17a8(%rbp)
   15a12:	9e e1 33 
   15a15:	48 8b 05 cc bd 00 00 	mov    0xbdcc(%rip),%rax        # 217e8 <g_56>
   15a1c:	48 8b 95 90 e8 ff ff 	mov    -0x1770(%rbp),%rdx
   15a23:	48 89 10             	mov    %rdx,(%rax)
   15a26:	48 8b 85 d0 e7 ff ff 	mov    -0x1830(%rbp),%rax
   15a2d:	8b 10                	mov    (%rax),%edx
   15a2f:	8b 85 10 e8 ff ff    	mov    -0x17f0(%rbp),%eax
   15a35:	31 c2                	xor    %eax,%edx
   15a37:	48 8b 85 d0 e7 ff ff 	mov    -0x1830(%rbp),%rax
   15a3e:	89 10                	mov    %edx,(%rax)
   15a40:	c7 05 0a 97 00 00 f3 	movl   $0xfffffff3,0x970a(%rip)        # 1f154 <g_378>
   15a47:	ff ff ff 
   15a4a:	e9 8e 0c 00 00       	jmpq   166dd <func_76+0x1019>
   15a4f:	c7 85 20 e8 ff ff 01 	movl   $0x1,-0x17e0(%rbp)
   15a56:	00 00 00 
   15a59:	48 c7 85 78 ea ff ff 	movq   $0x0,-0x1588(%rbp)
   15a60:	00 00 00 00 
   15a64:	48 c7 85 e8 e8 ff ff 	movq   $0x0,-0x1718(%rbp)
   15a6b:	00 00 00 00 
   15a6f:	48 8d 85 e8 e8 ff ff 	lea    -0x1718(%rbp),%rax
   15a76:	48 89 85 e0 f2 ff ff 	mov    %rax,-0xd20(%rbp)
   15a7d:	48 c7 85 e8 f2 ff ff 	movq   $0x0,-0xd18(%rbp)
   15a84:	00 00 00 00 
   15a88:	48 8d 85 e8 e8 ff ff 	lea    -0x1718(%rbp),%rax
   15a8f:	48 89 85 f0 f2 ff ff 	mov    %rax,-0xd10(%rbp)
   15a96:	48 8d 85 e8 e8 ff ff 	lea    -0x1718(%rbp),%rax
   15a9d:	48 89 85 f8 f2 ff ff 	mov    %rax,-0xd08(%rbp)
   15aa4:	48 8d 85 e8 e8 ff ff 	lea    -0x1718(%rbp),%rax
   15aab:	48 89 85 00 f3 ff ff 	mov    %rax,-0xd00(%rbp)
   15ab2:	48 8d 85 e8 e8 ff ff 	lea    -0x1718(%rbp),%rax
   15ab9:	48 89 85 08 f3 ff ff 	mov    %rax,-0xcf8(%rbp)
   15ac0:	48 c7 85 10 f3 ff ff 	movq   $0x0,-0xcf0(%rbp)
   15ac7:	00 00 00 00 
   15acb:	48 8d 85 e8 e8 ff ff 	lea    -0x1718(%rbp),%rax
   15ad2:	48 89 85 18 f3 ff ff 	mov    %rax,-0xce8(%rbp)
   15ad9:	48 c7 85 20 f3 ff ff 	movq   $0x0,-0xce0(%rbp)
   15ae0:	00 00 00 00 
   15ae4:	48 8d 85 e8 e8 ff ff 	lea    -0x1718(%rbp),%rax
   15aeb:	48 89 85 28 f3 ff ff 	mov    %rax,-0xcd8(%rbp)
   15af2:	48 8d 85 e8 e8 ff ff 	lea    -0x1718(%rbp),%rax
   15af9:	48 89 85 30 f3 ff ff 	mov    %rax,-0xcd0(%rbp)
   15b00:	48 c7 85 38 f3 ff ff 	movq   $0x0,-0xcc8(%rbp)
   15b07:	00 00 00 00 
   15b0b:	48 c7 85 40 f3 ff ff 	movq   $0x0,-0xcc0(%rbp)
   15b12:	00 00 00 00 
   15b16:	48 c7 85 48 f3 ff ff 	movq   $0x0,-0xcb8(%rbp)
   15b1d:	00 00 00 00 
   15b21:	48 c7 85 50 f3 ff ff 	movq   $0x0,-0xcb0(%rbp)
   15b28:	00 00 00 00 
   15b2c:	48 c7 85 58 f3 ff ff 	movq   $0x0,-0xca8(%rbp)
   15b33:	00 00 00 00 
   15b37:	48 8d 85 e8 e8 ff ff 	lea    -0x1718(%rbp),%rax
   15b3e:	48 89 85 60 f3 ff ff 	mov    %rax,-0xca0(%rbp)
   15b45:	48 8d 85 e8 e8 ff ff 	lea    -0x1718(%rbp),%rax
   15b4c:	48 89 85 68 f3 ff ff 	mov    %rax,-0xc98(%rbp)
   15b53:	48 8d 85 e8 e8 ff ff 	lea    -0x1718(%rbp),%rax
   15b5a:	48 89 85 70 f3 ff ff 	mov    %rax,-0xc90(%rbp)
   15b61:	48 c7 85 78 f3 ff ff 	movq   $0x0,-0xc88(%rbp)
   15b68:	00 00 00 00 
   15b6c:	48 8d 85 e8 e8 ff ff 	lea    -0x1718(%rbp),%rax
   15b73:	48 89 85 80 f3 ff ff 	mov    %rax,-0xc80(%rbp)
   15b7a:	48 c7 85 88 f3 ff ff 	movq   $0x0,-0xc78(%rbp)
   15b81:	00 00 00 00 
   15b85:	48 c7 85 90 f3 ff ff 	movq   $0x0,-0xc70(%rbp)
   15b8c:	00 00 00 00 
   15b90:	48 c7 85 98 f3 ff ff 	movq   $0x0,-0xc68(%rbp)
   15b97:	00 00 00 00 
   15b9b:	48 8d 85 e8 e8 ff ff 	lea    -0x1718(%rbp),%rax
   15ba2:	48 89 85 a0 f3 ff ff 	mov    %rax,-0xc60(%rbp)
   15ba9:	48 8d 85 e8 e8 ff ff 	lea    -0x1718(%rbp),%rax
   15bb0:	48 89 85 a8 f3 ff ff 	mov    %rax,-0xc58(%rbp)
   15bb7:	48 8d 85 e8 e8 ff ff 	lea    -0x1718(%rbp),%rax
   15bbe:	48 89 85 b0 f3 ff ff 	mov    %rax,-0xc50(%rbp)
   15bc5:	48 c7 85 b8 f3 ff ff 	movq   $0x0,-0xc48(%rbp)
   15bcc:	00 00 00 00 
   15bd0:	48 c7 85 c0 f3 ff ff 	movq   $0x0,-0xc40(%rbp)
   15bd7:	00 00 00 00 
   15bdb:	48 8d 85 e8 e8 ff ff 	lea    -0x1718(%rbp),%rax
   15be2:	48 89 85 c8 f3 ff ff 	mov    %rax,-0xc38(%rbp)
   15be9:	48 8d 85 e8 e8 ff ff 	lea    -0x1718(%rbp),%rax
   15bf0:	48 89 85 d0 f3 ff ff 	mov    %rax,-0xc30(%rbp)
   15bf7:	48 c7 85 d8 f3 ff ff 	movq   $0x0,-0xc28(%rbp)
   15bfe:	00 00 00 00 
   15c02:	48 c7 85 e0 f3 ff ff 	movq   $0x0,-0xc20(%rbp)
   15c09:	00 00 00 00 
   15c0d:	48 8d 85 e8 e8 ff ff 	lea    -0x1718(%rbp),%rax
   15c14:	48 89 85 e8 f3 ff ff 	mov    %rax,-0xc18(%rbp)
   15c1b:	48 c7 85 f0 f3 ff ff 	movq   $0x0,-0xc10(%rbp)
   15c22:	00 00 00 00 
   15c26:	48 c7 85 f8 f3 ff ff 	movq   $0x0,-0xc08(%rbp)
   15c2d:	00 00 00 00 
   15c31:	48 8d 85 e8 e8 ff ff 	lea    -0x1718(%rbp),%rax
   15c38:	48 89 85 00 f4 ff ff 	mov    %rax,-0xc00(%rbp)
   15c3f:	48 c7 85 08 f4 ff ff 	movq   $0x0,-0xbf8(%rbp)
   15c46:	00 00 00 00 
   15c4a:	48 c7 85 10 f4 ff ff 	movq   $0x0,-0xbf0(%rbp)
   15c51:	00 00 00 00 
   15c55:	48 8d 85 e8 e8 ff ff 	lea    -0x1718(%rbp),%rax
   15c5c:	48 89 85 18 f4 ff ff 	mov    %rax,-0xbe8(%rbp)
   15c63:	48 8d 85 e8 e8 ff ff 	lea    -0x1718(%rbp),%rax
   15c6a:	48 89 85 20 f4 ff ff 	mov    %rax,-0xbe0(%rbp)
   15c71:	48 8d 85 e8 e8 ff ff 	lea    -0x1718(%rbp),%rax
   15c78:	48 89 85 28 f4 ff ff 	mov    %rax,-0xbd8(%rbp)
   15c7f:	48 c7 85 30 f4 ff ff 	movq   $0x0,-0xbd0(%rbp)
   15c86:	00 00 00 00 
   15c8a:	48 8d 85 e8 e8 ff ff 	lea    -0x1718(%rbp),%rax
   15c91:	48 89 85 38 f4 ff ff 	mov    %rax,-0xbc8(%rbp)
   15c98:	48 8d 85 e8 e8 ff ff 	lea    -0x1718(%rbp),%rax
   15c9f:	48 89 85 40 f4 ff ff 	mov    %rax,-0xbc0(%rbp)
   15ca6:	48 8d 85 e8 e8 ff ff 	lea    -0x1718(%rbp),%rax
   15cad:	48 89 85 48 f4 ff ff 	mov    %rax,-0xbb8(%rbp)
   15cb4:	48 c7 85 50 f4 ff ff 	movq   $0x0,-0xbb0(%rbp)
   15cbb:	00 00 00 00 
   15cbf:	48 c7 85 58 f4 ff ff 	movq   $0x0,-0xba8(%rbp)
   15cc6:	00 00 00 00 
   15cca:	48 c7 85 60 f4 ff ff 	movq   $0x0,-0xba0(%rbp)
   15cd1:	00 00 00 00 
   15cd5:	48 8d 85 e8 e8 ff ff 	lea    -0x1718(%rbp),%rax
   15cdc:	48 89 85 68 f4 ff ff 	mov    %rax,-0xb98(%rbp)
   15ce3:	48 c7 85 70 f4 ff ff 	movq   $0x0,-0xb90(%rbp)
   15cea:	00 00 00 00 
   15cee:	48 8d 85 e8 e8 ff ff 	lea    -0x1718(%rbp),%rax
   15cf5:	48 89 85 78 f4 ff ff 	mov    %rax,-0xb88(%rbp)
   15cfc:	48 8d 85 e8 e8 ff ff 	lea    -0x1718(%rbp),%rax
   15d03:	48 89 85 80 f4 ff ff 	mov    %rax,-0xb80(%rbp)
   15d0a:	48 c7 85 88 f4 ff ff 	movq   $0x0,-0xb78(%rbp)
   15d11:	00 00 00 00 
   15d15:	48 c7 85 90 f4 ff ff 	movq   $0x0,-0xb70(%rbp)
   15d1c:	00 00 00 00 
   15d20:	48 c7 85 98 f4 ff ff 	movq   $0x0,-0xb68(%rbp)
   15d27:	00 00 00 00 
   15d2b:	48 c7 85 a0 f4 ff ff 	movq   $0x0,-0xb60(%rbp)
   15d32:	00 00 00 00 
   15d36:	48 c7 85 a8 f4 ff ff 	movq   $0x0,-0xb58(%rbp)
   15d3d:	00 00 00 00 
   15d41:	48 c7 85 b0 f4 ff ff 	movq   $0x0,-0xb50(%rbp)
   15d48:	00 00 00 00 
   15d4c:	48 c7 85 b8 f4 ff ff 	movq   $0x0,-0xb48(%rbp)
   15d53:	00 00 00 00 
   15d57:	48 8d 85 e8 e8 ff ff 	lea    -0x1718(%rbp),%rax
   15d5e:	48 89 85 c0 f4 ff ff 	mov    %rax,-0xb40(%rbp)
   15d65:	48 c7 85 c8 f4 ff ff 	movq   $0x0,-0xb38(%rbp)
   15d6c:	00 00 00 00 
   15d70:	48 8d 85 e8 e8 ff ff 	lea    -0x1718(%rbp),%rax
   15d77:	48 89 85 d0 f4 ff ff 	mov    %rax,-0xb30(%rbp)
   15d7e:	48 c7 85 d8 f4 ff ff 	movq   $0x0,-0xb28(%rbp)
   15d85:	00 00 00 00 
   15d89:	48 c7 85 e0 f4 ff ff 	movq   $0x0,-0xb20(%rbp)
   15d90:	00 00 00 00 
   15d94:	48 8d 85 e8 e8 ff ff 	lea    -0x1718(%rbp),%rax
   15d9b:	48 89 85 e8 f4 ff ff 	mov    %rax,-0xb18(%rbp)
   15da2:	48 8d 85 e8 e8 ff ff 	lea    -0x1718(%rbp),%rax
   15da9:	48 89 85 f0 f4 ff ff 	mov    %rax,-0xb10(%rbp)
   15db0:	48 c7 85 f8 f4 ff ff 	movq   $0x0,-0xb08(%rbp)
   15db7:	00 00 00 00 
   15dbb:	48 c7 85 00 f5 ff ff 	movq   $0x0,-0xb00(%rbp)
   15dc2:	00 00 00 00 
   15dc6:	48 c7 85 08 f5 ff ff 	movq   $0x0,-0xaf8(%rbp)
   15dcd:	00 00 00 00 
   15dd1:	48 c7 85 10 f5 ff ff 	movq   $0x0,-0xaf0(%rbp)
   15dd8:	00 00 00 00 
   15ddc:	48 8d 85 e8 e8 ff ff 	lea    -0x1718(%rbp),%rax
   15de3:	48 89 85 18 f5 ff ff 	mov    %rax,-0xae8(%rbp)
   15dea:	48 8d 85 e8 e8 ff ff 	lea    -0x1718(%rbp),%rax
   15df1:	48 89 85 20 f5 ff ff 	mov    %rax,-0xae0(%rbp)
   15df8:	48 8d 85 e8 e8 ff ff 	lea    -0x1718(%rbp),%rax
   15dff:	48 89 85 28 f5 ff ff 	mov    %rax,-0xad8(%rbp)
   15e06:	48 c7 85 30 f5 ff ff 	movq   $0x0,-0xad0(%rbp)
   15e0d:	00 00 00 00 
   15e11:	48 8d 85 e8 e8 ff ff 	lea    -0x1718(%rbp),%rax
   15e18:	48 89 85 38 f5 ff ff 	mov    %rax,-0xac8(%rbp)
   15e1f:	48 c7 85 40 f5 ff ff 	movq   $0x0,-0xac0(%rbp)
   15e26:	00 00 00 00 
   15e2a:	48 c7 85 48 f5 ff ff 	movq   $0x0,-0xab8(%rbp)
   15e31:	00 00 00 00 
   15e35:	48 8d 85 e8 e8 ff ff 	lea    -0x1718(%rbp),%rax
   15e3c:	48 89 85 50 f5 ff ff 	mov    %rax,-0xab0(%rbp)
   15e43:	48 8d 85 e8 e8 ff ff 	lea    -0x1718(%rbp),%rax
   15e4a:	48 89 85 58 f5 ff ff 	mov    %rax,-0xaa8(%rbp)
   15e51:	48 8d 85 e8 e8 ff ff 	lea    -0x1718(%rbp),%rax
   15e58:	48 89 85 60 f5 ff ff 	mov    %rax,-0xaa0(%rbp)
   15e5f:	48 8d 85 e8 e8 ff ff 	lea    -0x1718(%rbp),%rax
   15e66:	48 89 85 68 f5 ff ff 	mov    %rax,-0xa98(%rbp)
   15e6d:	48 8d 85 e8 e8 ff ff 	lea    -0x1718(%rbp),%rax
   15e74:	48 89 85 70 f5 ff ff 	mov    %rax,-0xa90(%rbp)
   15e7b:	48 c7 85 78 f5 ff ff 	movq   $0x0,-0xa88(%rbp)
   15e82:	00 00 00 00 
   15e86:	48 c7 85 80 f5 ff ff 	movq   $0x0,-0xa80(%rbp)
   15e8d:	00 00 00 00 
   15e91:	48 8d 85 e8 e8 ff ff 	lea    -0x1718(%rbp),%rax
   15e98:	48 89 85 88 f5 ff ff 	mov    %rax,-0xa78(%rbp)
   15e9f:	48 c7 85 90 f5 ff ff 	movq   $0x0,-0xa70(%rbp)
   15ea6:	00 00 00 00 
   15eaa:	48 c7 85 98 f5 ff ff 	movq   $0x0,-0xa68(%rbp)
   15eb1:	00 00 00 00 
   15eb5:	48 8d 85 e8 e8 ff ff 	lea    -0x1718(%rbp),%rax
   15ebc:	48 89 85 a0 f5 ff ff 	mov    %rax,-0xa60(%rbp)
   15ec3:	48 8d 85 e8 e8 ff ff 	lea    -0x1718(%rbp),%rax
   15eca:	48 89 85 a8 f5 ff ff 	mov    %rax,-0xa58(%rbp)
   15ed1:	48 8d 85 e8 e8 ff ff 	lea    -0x1718(%rbp),%rax
   15ed8:	48 89 85 b0 f5 ff ff 	mov    %rax,-0xa50(%rbp)
   15edf:	48 c7 85 b8 f5 ff ff 	movq   $0x0,-0xa48(%rbp)
   15ee6:	00 00 00 00 
   15eea:	48 8d 85 e8 e8 ff ff 	lea    -0x1718(%rbp),%rax
   15ef1:	48 89 85 c0 f5 ff ff 	mov    %rax,-0xa40(%rbp)
   15ef8:	48 8d 85 e8 e8 ff ff 	lea    -0x1718(%rbp),%rax
   15eff:	48 89 85 c8 f5 ff ff 	mov    %rax,-0xa38(%rbp)
   15f06:	48 8d 85 e8 e8 ff ff 	lea    -0x1718(%rbp),%rax
   15f0d:	48 89 85 d0 f5 ff ff 	mov    %rax,-0xa30(%rbp)
   15f14:	48 8d 85 e8 e8 ff ff 	lea    -0x1718(%rbp),%rax
   15f1b:	48 89 85 d8 f5 ff ff 	mov    %rax,-0xa28(%rbp)
   15f22:	48 c7 85 e0 f5 ff ff 	movq   $0x0,-0xa20(%rbp)
   15f29:	00 00 00 00 
   15f2d:	48 c7 85 e8 f5 ff ff 	movq   $0x0,-0xa18(%rbp)
   15f34:	00 00 00 00 
   15f38:	48 c7 85 f0 f5 ff ff 	movq   $0x0,-0xa10(%rbp)
   15f3f:	00 00 00 00 
   15f43:	48 c7 85 f8 f5 ff ff 	movq   $0x0,-0xa08(%rbp)
   15f4a:	00 00 00 00 
   15f4e:	48 c7 85 00 f6 ff ff 	movq   $0x0,-0xa00(%rbp)
   15f55:	00 00 00 00 
   15f59:	48 c7 85 08 f6 ff ff 	movq   $0x0,-0x9f8(%rbp)
   15f60:	00 00 00 00 
   15f64:	48 8d 85 e8 e8 ff ff 	lea    -0x1718(%rbp),%rax
   15f6b:	48 89 85 10 f6 ff ff 	mov    %rax,-0x9f0(%rbp)
   15f72:	48 8d 85 e8 e8 ff ff 	lea    -0x1718(%rbp),%rax
   15f79:	48 89 85 18 f6 ff ff 	mov    %rax,-0x9e8(%rbp)
   15f80:	48 8d 85 e8 e8 ff ff 	lea    -0x1718(%rbp),%rax
   15f87:	48 89 85 20 f6 ff ff 	mov    %rax,-0x9e0(%rbp)
   15f8e:	48 8d 85 e8 e8 ff ff 	lea    -0x1718(%rbp),%rax
   15f95:	48 89 85 28 f6 ff ff 	mov    %rax,-0x9d8(%rbp)
   15f9c:	48 c7 85 30 f6 ff ff 	movq   $0x0,-0x9d0(%rbp)
   15fa3:	00 00 00 00 
   15fa7:	48 c7 85 38 f6 ff ff 	movq   $0x0,-0x9c8(%rbp)
   15fae:	00 00 00 00 
   15fb2:	48 c7 85 40 f6 ff ff 	movq   $0x0,-0x9c0(%rbp)
   15fb9:	00 00 00 00 
   15fbd:	48 c7 85 48 f6 ff ff 	movq   $0x0,-0x9b8(%rbp)
   15fc4:	00 00 00 00 
   15fc8:	48 c7 85 50 f6 ff ff 	movq   $0x0,-0x9b0(%rbp)
   15fcf:	00 00 00 00 
   15fd3:	48 c7 85 58 f6 ff ff 	movq   $0x0,-0x9a8(%rbp)
   15fda:	00 00 00 00 
   15fde:	48 8d 85 e8 e8 ff ff 	lea    -0x1718(%rbp),%rax
   15fe5:	48 89 85 60 f6 ff ff 	mov    %rax,-0x9a0(%rbp)
   15fec:	48 8d 85 e8 e8 ff ff 	lea    -0x1718(%rbp),%rax
   15ff3:	48 89 85 68 f6 ff ff 	mov    %rax,-0x998(%rbp)
   15ffa:	48 8d 85 e8 e8 ff ff 	lea    -0x1718(%rbp),%rax
   16001:	48 89 85 70 f6 ff ff 	mov    %rax,-0x990(%rbp)
   16008:	48 8d 85 e8 e8 ff ff 	lea    -0x1718(%rbp),%rax
   1600f:	48 89 85 78 f6 ff ff 	mov    %rax,-0x988(%rbp)
   16016:	48 c7 85 80 f6 ff ff 	movq   $0x0,-0x980(%rbp)
   1601d:	00 00 00 00 
   16021:	48 8d 85 e8 e8 ff ff 	lea    -0x1718(%rbp),%rax
   16028:	48 89 85 88 f6 ff ff 	mov    %rax,-0x978(%rbp)
   1602f:	48 8d 85 e8 e8 ff ff 	lea    -0x1718(%rbp),%rax
   16036:	48 89 85 90 f6 ff ff 	mov    %rax,-0x970(%rbp)
   1603d:	48 c7 85 98 f6 ff ff 	movq   $0x0,-0x968(%rbp)
   16044:	00 00 00 00 
   16048:	48 c7 85 a0 f6 ff ff 	movq   $0x0,-0x960(%rbp)
   1604f:	00 00 00 00 
   16053:	48 c7 85 a8 f6 ff ff 	movq   $0x0,-0x958(%rbp)
   1605a:	00 00 00 00 
   1605e:	48 8d 85 e8 e8 ff ff 	lea    -0x1718(%rbp),%rax
   16065:	48 89 85 b0 f6 ff ff 	mov    %rax,-0x950(%rbp)
   1606c:	48 c7 85 b8 f6 ff ff 	movq   $0x0,-0x948(%rbp)
   16073:	00 00 00 00 
   16077:	48 c7 85 c0 f6 ff ff 	movq   $0x0,-0x940(%rbp)
   1607e:	00 00 00 00 
   16082:	48 c7 85 c8 f6 ff ff 	movq   $0x0,-0x938(%rbp)
   16089:	00 00 00 00 
   1608d:	48 8d 85 e8 e8 ff ff 	lea    -0x1718(%rbp),%rax
   16094:	48 89 85 d0 f6 ff ff 	mov    %rax,-0x930(%rbp)
   1609b:	48 8d 85 e8 e8 ff ff 	lea    -0x1718(%rbp),%rax
   160a2:	48 89 85 d8 f6 ff ff 	mov    %rax,-0x928(%rbp)
   160a9:	48 8d 85 e8 e8 ff ff 	lea    -0x1718(%rbp),%rax
   160b0:	48 89 85 e0 f6 ff ff 	mov    %rax,-0x920(%rbp)
   160b7:	48 8d 85 e8 e8 ff ff 	lea    -0x1718(%rbp),%rax
   160be:	48 89 85 e8 f6 ff ff 	mov    %rax,-0x918(%rbp)
   160c5:	48 c7 85 f0 f6 ff ff 	movq   $0x0,-0x910(%rbp)
   160cc:	00 00 00 00 
   160d0:	48 8d 85 e8 e8 ff ff 	lea    -0x1718(%rbp),%rax
   160d7:	48 89 85 f8 f6 ff ff 	mov    %rax,-0x908(%rbp)
   160de:	48 8d 85 e8 e8 ff ff 	lea    -0x1718(%rbp),%rax
   160e5:	48 89 85 00 f7 ff ff 	mov    %rax,-0x900(%rbp)
   160ec:	48 c7 85 08 f7 ff ff 	movq   $0x0,-0x8f8(%rbp)
   160f3:	00 00 00 00 
   160f7:	48 8d 85 e8 e8 ff ff 	lea    -0x1718(%rbp),%rax
   160fe:	48 89 85 10 f7 ff ff 	mov    %rax,-0x8f0(%rbp)
   16105:	48 8d 85 e8 e8 ff ff 	lea    -0x1718(%rbp),%rax
   1610c:	48 89 85 18 f7 ff ff 	mov    %rax,-0x8e8(%rbp)
   16113:	48 8d 85 e8 e8 ff ff 	lea    -0x1718(%rbp),%rax
   1611a:	48 89 85 20 f7 ff ff 	mov    %rax,-0x8e0(%rbp)
   16121:	48 c7 85 28 f7 ff ff 	movq   $0x0,-0x8d8(%rbp)
   16128:	00 00 00 00 
   1612c:	48 c7 85 30 f7 ff ff 	movq   $0x0,-0x8d0(%rbp)
   16133:	00 00 00 00 
   16137:	48 c7 85 38 f7 ff ff 	movq   $0x0,-0x8c8(%rbp)
   1613e:	00 00 00 00 
   16142:	48 c7 85 40 f7 ff ff 	movq   $0x0,-0x8c0(%rbp)
   16149:	00 00 00 00 
   1614d:	48 8d 85 e8 e8 ff ff 	lea    -0x1718(%rbp),%rax
   16154:	48 89 85 48 f7 ff ff 	mov    %rax,-0x8b8(%rbp)
   1615b:	48 8d 85 e8 e8 ff ff 	lea    -0x1718(%rbp),%rax
   16162:	48 89 85 50 f7 ff ff 	mov    %rax,-0x8b0(%rbp)
   16169:	48 8d 85 e8 e8 ff ff 	lea    -0x1718(%rbp),%rax
   16170:	48 89 85 58 f7 ff ff 	mov    %rax,-0x8a8(%rbp)
   16177:	48 8d 85 e8 e8 ff ff 	lea    -0x1718(%rbp),%rax
   1617e:	48 89 85 60 f7 ff ff 	mov    %rax,-0x8a0(%rbp)
   16185:	48 8d 85 e8 e8 ff ff 	lea    -0x1718(%rbp),%rax
   1618c:	48 89 85 68 f7 ff ff 	mov    %rax,-0x898(%rbp)
   16193:	48 c7 85 70 f7 ff ff 	movq   $0x0,-0x890(%rbp)
   1619a:	00 00 00 00 
   1619e:	48 8d 85 e8 e8 ff ff 	lea    -0x1718(%rbp),%rax
   161a5:	48 89 85 78 f7 ff ff 	mov    %rax,-0x888(%rbp)
   161ac:	48 8d 85 e8 e8 ff ff 	lea    -0x1718(%rbp),%rax
   161b3:	48 89 85 80 f7 ff ff 	mov    %rax,-0x880(%rbp)
   161ba:	48 c7 85 88 f7 ff ff 	movq   $0x0,-0x878(%rbp)
   161c1:	00 00 00 00 
   161c5:	48 8d 85 e8 e8 ff ff 	lea    -0x1718(%rbp),%rax
   161cc:	48 89 85 90 f7 ff ff 	mov    %rax,-0x870(%rbp)
   161d3:	48 8d 85 e8 e8 ff ff 	lea    -0x1718(%rbp),%rax
   161da:	48 89 85 98 f7 ff ff 	mov    %rax,-0x868(%rbp)
   161e1:	48 8d 85 e8 e8 ff ff 	lea    -0x1718(%rbp),%rax
   161e8:	48 89 85 a0 f7 ff ff 	mov    %rax,-0x860(%rbp)
   161ef:	48 c7 85 a8 f7 ff ff 	movq   $0x0,-0x858(%rbp)
   161f6:	00 00 00 00 
   161fa:	48 c7 85 b0 f7 ff ff 	movq   $0x0,-0x850(%rbp)
   16201:	00 00 00 00 
   16205:	48 c7 85 b8 f7 ff ff 	movq   $0x0,-0x848(%rbp)
   1620c:	00 00 00 00 
   16210:	48 c7 85 c0 f7 ff ff 	movq   $0x0,-0x840(%rbp)
   16217:	00 00 00 00 
   1621b:	48 8d 85 e8 e8 ff ff 	lea    -0x1718(%rbp),%rax
   16222:	48 89 85 c8 f7 ff ff 	mov    %rax,-0x838(%rbp)
   16229:	48 c7 85 d0 f7 ff ff 	movq   $0x0,-0x830(%rbp)
   16230:	00 00 00 00 
   16234:	48 8d 85 e8 e8 ff ff 	lea    -0x1718(%rbp),%rax
   1623b:	48 89 85 d8 f7 ff ff 	mov    %rax,-0x828(%rbp)
   16242:	48 c7 85 e0 f7 ff ff 	movq   $0x0,-0x820(%rbp)
   16249:	00 00 00 00 
   1624d:	48 8d 85 e8 e8 ff ff 	lea    -0x1718(%rbp),%rax
   16254:	48 89 85 e8 f7 ff ff 	mov    %rax,-0x818(%rbp)
   1625b:	c7 85 84 e8 ff ff 46 	movl   $0xbc080d46,-0x177c(%rbp)
   16262:	0d 08 bc 
   16265:	8b 85 10 e8 ff ff    	mov    -0x17f0(%rbp),%eax
   1626b:	41 89 c4             	mov    %eax,%r12d
   1626e:	8b 9d 10 e8 ff ff    	mov    -0x17f0(%rbp),%ebx
   16274:	48 8b 05 b5 8e 00 00 	mov    0x8eb5(%rip),%rax        # 1f130 <g_354+0x10>
   1627b:	41 89 c5             	mov    %eax,%r13d
   1627e:	48 8d 05 8b 8e 00 00 	lea    0x8e8b(%rip),%rax        # 1f110 <g_253>
   16285:	48 89 05 cc bd 00 00 	mov    %rax,0xbdcc(%rip)        # 22058 <g_417+0x138>
   1628c:	48 8d 05 7d 8e 00 00 	lea    0x8e7d(%rip),%rax        # 1f110 <g_253>
   16293:	48 39 85 78 e9 ff ff 	cmp    %rax,-0x1688(%rbp)
   1629a:	75 07                	jne    162a3 <func_76+0xbdf>
   1629c:	83 bd 58 e8 ff ff 00 	cmpl   $0x0,-0x17a8(%rbp)
   162a3:	48 8b 05 9e b7 00 00 	mov    0xb79e(%rip),%rax        # 21a48 <g_174>
   162aa:	0f b7 00             	movzwl (%rax),%eax
   162ad:	0f b7 c0             	movzwl %ax,%eax
   162b0:	be 09 00 00 00       	mov    $0x9,%esi
   162b5:	89 c7                	mov    %eax,%edi
   162b7:	e8 be 4b ff ff       	callq  ae7a <safe_rshift_func_uint16_t_u_u>
   162bc:	0f b7 c0             	movzwl %ax,%eax
   162bf:	0b 85 20 e8 ff ff    	or     -0x17e0(%rbp),%eax
   162c5:	89 c1                	mov    %eax,%ecx
   162c7:	48 8b 85 90 e8 ff ff 	mov    -0x1770(%rbp),%rax
   162ce:	8b 10                	mov    (%rax),%edx
   162d0:	48 8b 85 90 e8 ff ff 	mov    -0x1770(%rbp),%rax
   162d7:	09 ca                	or     %ecx,%edx
   162d9:	89 10                	mov    %edx,(%rax)
   162db:	8b 00                	mov    (%rax),%eax
   162dd:	66 89 85 04 e8 ff ff 	mov    %ax,-0x17fc(%rbp)
   162e4:	0f bf 85 04 e8 ff ff 	movswl -0x17fc(%rbp),%eax
   162eb:	be f8 ff ff ff       	mov    $0xfffffff8,%esi
   162f0:	89 c7                	mov    %eax,%edi
   162f2:	e8 06 4c ff ff       	callq  aefd <safe_mod_func_uint32_t_u_u>
   162f7:	85 c0                	test   %eax,%eax
   162f9:	75 08                	jne    16303 <func_76+0xc3f>
   162fb:	66 83 bd 04 e8 ff ff 	cmpw   $0x0,-0x17fc(%rbp)
   16302:	00 
   16303:	be 0d 00 00 00       	mov    $0xd,%esi
   16308:	bf 00 00 00 00       	mov    $0x0,%edi
   1630d:	e8 ac 4a ff ff       	callq  adbe <safe_lshift_func_uint16_t_u_s>
   16312:	44 89 ee             	mov    %r13d,%esi
   16315:	bf 01 00 00 00       	mov    $0x1,%edi
   1631a:	e8 29 4b ff ff       	callq  ae48 <safe_rshift_func_uint16_t_u_s>
   1631f:	be 00 00 00 00       	mov    $0x0,%esi
   16324:	bf 9c ff ff ff       	mov    $0xffffff9c,%edi
   16329:	e8 e4 3e ff ff       	callq  a212 <safe_mul_func_int8_t_s_s>
   1632e:	c7 85 20 e8 ff ff 00 	movl   $0x0,-0x17e0(%rbp)
   16335:	00 00 00 
   16338:	8b 85 20 e8 ff ff    	mov    -0x17e0(%rbp),%eax
   1633e:	89 de                	mov    %ebx,%esi
   16340:	89 c7                	mov    %eax,%edi
   16342:	e8 be 42 ff ff       	callq  a605 <safe_sub_func_int32_t_s_s>
   16347:	48 8b 85 d0 e7 ff ff 	mov    -0x1830(%rbp),%rax
   1634e:	8b 10                	mov    (%rax),%edx
   16350:	8b 85 10 e8 ff ff    	mov    -0x17f0(%rbp),%eax
   16356:	39 c2                	cmp    %eax,%edx
   16358:	0f 9d c0             	setge  %al
   1635b:	0f b6 c0             	movzbl %al,%eax
   1635e:	44 89 e6             	mov    %r12d,%esi
   16361:	89 c7                	mov    %eax,%edi
   16363:	e8 12 4b ff ff       	callq  ae7a <safe_rshift_func_uint16_t_u_u>
   16368:	0f b7 d8             	movzwl %ax,%ebx
   1636b:	8b 85 e4 e7 ff ff    	mov    -0x181c(%rbp),%eax
   16371:	0f be c0             	movsbl %al,%eax
   16374:	be 04 00 00 00       	mov    $0x4,%esi
   16379:	89 c7                	mov    %eax,%edi
   1637b:	e8 21 3f ff ff       	callq  a2a1 <safe_lshift_func_int8_t_s_s>
   16380:	0f be c0             	movsbl %al,%eax
   16383:	f7 d0                	not    %eax
   16385:	89 de                	mov    %ebx,%esi
   16387:	89 c7                	mov    %eax,%edi
   16389:	e8 3e 43 ff ff       	callq  a6cc <safe_mod_func_int32_t_s_s>
   1638e:	89 c6                	mov    %eax,%esi
   16390:	bf 01 00 00 00       	mov    $0x1,%edi
   16395:	e8 32 43 ff ff       	callq  a6cc <safe_mod_func_int32_t_s_s>
   1639a:	83 f8 01             	cmp    $0x1,%eax
   1639d:	0f 97 c0             	seta   %al
   163a0:	0f b6 d0             	movzbl %al,%edx
   163a3:	48 8b 85 d0 e7 ff ff 	mov    -0x1830(%rbp),%rax
   163aa:	89 10                	mov    %edx,(%rax)
   163ac:	c7 85 10 e8 ff ff f4 	movl   $0xfffffff4,-0x17f0(%rbp)
   163b3:	ff ff ff 
   163b6:	e9 04 03 00 00       	jmpq   166bf <func_76+0xffb>
   163bb:	48 8d 05 b4 8c 00 00 	lea    0x8cb4(%rip),%rax        # 1f076 <g_182>
   163c2:	48 89 85 80 ea ff ff 	mov    %rax,-0x1580(%rbp)
   163c9:	48 c7 05 94 8c 00 00 	movq   $0x2,0x8c94(%rip)        # 1f068 <g_111>
   163d0:	02 00 00 00 
   163d4:	e9 a0 02 00 00       	jmpq   16679 <func_76+0xfb5>
   163d9:	48 8b 85 d0 e7 ff ff 	mov    -0x1830(%rbp),%rax
   163e0:	8b 00                	mov    (%rax),%eax
   163e2:	85 c0                	test   %eax,%eax
   163e4:	0f 85 a2 02 00 00    	jne    1668c <func_76+0xfc8>
   163ea:	c7 85 20 e8 ff ff 1d 	movl   $0x1d,-0x17e0(%rbp)
   163f1:	00 00 00 
   163f4:	e9 61 02 00 00       	jmpq   1665a <func_76+0xf96>
   163f9:	48 c7 85 88 ea ff ff 	movq   $0x0,-0x1578(%rbp)
   16400:	00 00 00 00 
   16404:	48 8d 05 b5 8c 00 00 	lea    0x8cb5(%rip),%rax        # 1f0c0 <g_199+0x40>
   1640b:	48 89 85 90 ea ff ff 	mov    %rax,-0x1570(%rbp)
   16412:	48 c7 85 98 ea ff ff 	movq   $0x0,-0x1568(%rbp)
   16419:	00 00 00 00 
   1641d:	c7 85 88 e8 ff ff 71 	movl   $0x95099f71,-0x1778(%rbp)
   16424:	9f 09 95 
   16427:	c7 85 8c e8 ff ff 67 	movl   $0x21117067,-0x1774(%rbp)
   1642e:	70 11 21 
   16431:	c7 85 24 e8 ff ff 00 	movl   $0x0,-0x17dc(%rbp)
   16438:	00 00 00 
   1643b:	e9 8c 00 00 00       	jmpq   164cc <func_76+0xe08>
   16440:	c7 85 28 e8 ff ff 00 	movl   $0x0,-0x17d8(%rbp)
   16447:	00 00 00 
   1644a:	eb 70                	jmp    164bc <func_76+0xdf8>
   1644c:	c7 85 2c e8 ff ff 00 	movl   $0x0,-0x17d4(%rbp)
   16453:	00 00 00 
   16456:	eb 54                	jmp    164ac <func_76+0xde8>
   16458:	8b 85 2c e8 ff ff    	mov    -0x17d4(%rbp),%eax
   1645e:	48 63 f0             	movslq %eax,%rsi
   16461:	8b 85 24 e8 ff ff    	mov    -0x17dc(%rbp),%eax
   16467:	48 63 d0             	movslq %eax,%rdx
   1646a:	8b 85 28 e8 ff ff    	mov    -0x17d8(%rbp),%eax
   16470:	48 63 c8             	movslq %eax,%rcx
   16473:	48 89 d0             	mov    %rdx,%rax
   16476:	48 01 c0             	add    %rax,%rax
   16479:	48 01 d0             	add    %rdx,%rax
   1647c:	48 89 c2             	mov    %rax,%rdx
   1647f:	48 c1 e2 04          	shl    $0x4,%rdx
   16483:	48 29 c2             	sub    %rax,%rdx
   16486:	48 89 c8             	mov    %rcx,%rax
   16489:	48 c1 e0 03          	shl    $0x3,%rax
   1648d:	48 01 c8             	add    %rcx,%rax
   16490:	48 01 d0             	add    %rdx,%rax
   16493:	48 01 f0             	add    %rsi,%rax
   16496:	48 8d 15 a3 8b 00 00 	lea    0x8ba3(%rip),%rdx        # 1f040 <g_106>
   1649d:	48 89 94 c5 f0 f7 ff 	mov    %rdx,-0x810(%rbp,%rax,8)
   164a4:	ff 
   164a5:	83 85 2c e8 ff ff 01 	addl   $0x1,-0x17d4(%rbp)
   164ac:	83 bd 2c e8 ff ff 08 	cmpl   $0x8,-0x17d4(%rbp)
   164b3:	7e a3                	jle    16458 <func_76+0xd94>
   164b5:	83 85 28 e8 ff ff 01 	addl   $0x1,-0x17d8(%rbp)
   164bc:	83 bd 28 e8 ff ff 04 	cmpl   $0x4,-0x17d8(%rbp)
   164c3:	7e 87                	jle    1644c <func_76+0xd88>
   164c5:	83 85 24 e8 ff ff 01 	addl   $0x1,-0x17dc(%rbp)
   164cc:	83 bd 24 e8 ff ff 03 	cmpl   $0x3,-0x17dc(%rbp)
   164d3:	0f 8e 67 ff ff ff    	jle    16440 <func_76+0xd7c>
   164d9:	8b 05 d1 8c 00 00    	mov    0x8cd1(%rip),%eax        # 1f1b0 <g_453+0x10>
   164df:	41 89 c6             	mov    %eax,%r14d
   164e2:	8b 85 20 e8 ff ff    	mov    -0x17e0(%rbp),%eax
   164e8:	48 63 d0             	movslq %eax,%rdx
   164eb:	48 8b 85 90 ea ff ff 	mov    -0x1570(%rbp),%rax
   164f2:	48 89 10             	mov    %rdx,(%rax)
   164f5:	48 8b 85 90 ea ff ff 	mov    -0x1570(%rbp),%rax
   164fc:	4c 8b 20             	mov    (%rax),%r12
   164ff:	0f b6 05 3a 8b 00 00 	movzbl 0x8b3a(%rip),%eax        # 1f040 <g_106>
   16506:	83 c0 01             	add    $0x1,%eax
   16509:	88 05 31 8b 00 00    	mov    %al,0x8b31(%rip)        # 1f040 <g_106>
   1650f:	8b 85 84 e8 ff ff    	mov    -0x177c(%rbp),%eax
   16515:	4c 63 e8             	movslq %eax,%r13
   16518:	8b 9d 8c e8 ff ff    	mov    -0x1774(%rbp),%ebx
   1651e:	8b 85 e4 e7 ff ff    	mov    -0x181c(%rbp),%eax
   16524:	0f be c0             	movsbl %al,%eax
   16527:	be 03 00 00 00       	mov    $0x3,%esi
   1652c:	89 c7                	mov    %eax,%edi
   1652e:	e8 bb 3d ff ff       	callq  a2ee <safe_lshift_func_int8_t_s_u>
   16533:	48 8b 95 d8 e7 ff ff 	mov    -0x1828(%rbp),%rdx
   1653a:	48 8b 12             	mov    (%rdx),%rdx
   1653d:	48 0f be c0          	movsbq %al,%rax
   16541:	48 21 c2             	and    %rax,%rdx
   16544:	48 8b 85 d8 e7 ff ff 	mov    -0x1828(%rbp),%rax
   1654b:	48 89 10             	mov    %rdx,(%rax)
   1654e:	48 8b 85 d8 e7 ff ff 	mov    -0x1828(%rbp),%rax
   16555:	48 8b 00             	mov    (%rax),%rax
   16558:	89 c1                	mov    %eax,%ecx
   1655a:	0f b6 05 af 8b 00 00 	movzbl 0x8baf(%rip),%eax        # 1f110 <g_253>
   16561:	83 c0 01             	add    $0x1,%eax
   16564:	88 05 a6 8b 00 00    	mov    %al,0x8ba6(%rip)        # 1f110 <g_253>
   1656a:	0f b6 05 9f 8b 00 00 	movzbl 0x8b9f(%rip),%eax        # 1f110 <g_253>
   16571:	0f b6 d0             	movzbl %al,%edx
   16574:	48 8b 85 e8 e8 ff ff 	mov    -0x1718(%rbp),%rax
   1657b:	48 39 85 80 ea ff ff 	cmp    %rax,-0x1580(%rbp)
   16582:	0f 94 c0             	sete   %al
   16585:	0f b6 c0             	movzbl %al,%eax
   16588:	21 d0                	and    %edx,%eax
   1658a:	09 c8                	or     %ecx,%eax
   1658c:	89 de                	mov    %ebx,%esi
   1658e:	89 c7                	mov    %eax,%edi
   16590:	e8 3b 49 ff ff       	callq  aed0 <safe_sub_func_uint32_t_u_u>
   16595:	8b 15 8d 8a 00 00    	mov    0x8a8d(%rip),%edx        # 1f028 <g_3>
   1659b:	39 d0                	cmp    %edx,%eax
   1659d:	0f 94 c0             	sete   %al
   165a0:	0f b6 c0             	movzbl %al,%eax
   165a3:	0b 85 e4 e7 ff ff    	or     -0x181c(%rbp),%eax
   165a9:	89 c2                	mov    %eax,%edx
   165ab:	48 8b 05 b6 8a 00 00 	mov    0x8ab6(%rip),%rax        # 1f068 <g_111>
   165b2:	48 09 d0             	or     %rdx,%rax
   165b5:	49 39 c5             	cmp    %rax,%r13
   165b8:	0f 92 c0             	setb   %al
   165bb:	0f b6 c0             	movzbl %al,%eax
   165be:	be f0 e5 ff ff       	mov    $0xffffe5f0,%esi
   165c3:	89 c7                	mov    %eax,%edi
   165c5:	e8 e9 3d ff ff       	callq  a3b3 <safe_add_func_int16_t_s_s>
   165ca:	8b 85 14 e8 ff ff    	mov    -0x17ec(%rbp),%eax
   165d0:	0b 85 e4 e7 ff ff    	or     -0x181c(%rbp),%eax
   165d6:	89 85 14 e8 ff ff    	mov    %eax,-0x17ec(%rbp)
   165dc:	8b 95 14 e8 ff ff    	mov    -0x17ec(%rbp),%edx
   165e2:	8b 05 74 8a 00 00    	mov    0x8a74(%rip),%eax        # 1f05c <g_109+0xc>
   165e8:	3d e0 36 93 f0       	cmp    $0xf09336e0,%eax
   165ed:	0f 94 c0             	sete   %al
   165f0:	0f b6 c0             	movzbl %al,%eax
   165f3:	39 c2                	cmp    %eax,%edx
   165f5:	48 8b 05 fc 8a 00 00 	mov    0x8afc(%rip),%rax        # 1f0f8 <g_211+0x18>
   165fc:	89 c2                	mov    %eax,%edx
   165fe:	48 8b 05 63 8a 00 00 	mov    0x8a63(%rip),%rax        # 1f068 <g_111>
   16605:	21 d0                	and    %edx,%eax
   16607:	89 c2                	mov    %eax,%edx
   16609:	48 8b 05 30 b4 00 00 	mov    0xb430(%rip),%rax        # 21a40 <g_169>
   16610:	48 8b 00             	mov    (%rax),%rax
   16613:	8b 00                	mov    (%rax),%eax
   16615:	89 d6                	mov    %edx,%esi
   16617:	89 c7                	mov    %eax,%edi
   16619:	e8 ae 40 ff ff       	callq  a6cc <safe_mod_func_int32_t_s_s>
   1661e:	f7 d0                	not    %eax
   16620:	48 98                	cltq   
   16622:	4c 31 e0             	xor    %r12,%rax
   16625:	4c 89 f6             	mov    %r14,%rsi
   16628:	48 89 c7             	mov    %rax,%rdi
   1662b:	e8 7f 4a ff ff       	callq  b0af <safe_div_func_uint64_t_u_u>
   16630:	48 89 c2             	mov    %rax,%rdx
   16633:	48 8b 05 a6 b1 00 00 	mov    0xb1a6(%rip),%rax        # 217e0 <g_57>
   1663a:	89 10                	mov    %edx,(%rax)
   1663c:	8b 85 20 e8 ff ff    	mov    -0x17e0(%rbp),%eax
   16642:	0f b6 c0             	movzbl %al,%eax
   16645:	be 06 00 00 00       	mov    $0x6,%esi
   1664a:	89 c7                	mov    %eax,%edi
   1664c:	e8 27 45 ff ff       	callq  ab78 <safe_sub_func_uint8_t_u_u>
   16651:	0f b6 c0             	movzbl %al,%eax
   16654:	89 85 20 e8 ff ff    	mov    %eax,-0x17e0(%rbp)
   1665a:	83 bd 20 e8 ff ff f2 	cmpl   $0xfffffff2,-0x17e0(%rbp)
   16661:	0f 8d 92 fd ff ff    	jge    163f9 <func_76+0xd35>
   16667:	48 8b 05 fa 89 00 00 	mov    0x89fa(%rip),%rax        # 1f068 <g_111>
   1666e:	48 83 e8 01          	sub    $0x1,%rax
   16672:	48 89 05 ef 89 00 00 	mov    %rax,0x89ef(%rip)        # 1f068 <g_111>
   16679:	48 8b 05 e8 89 00 00 	mov    0x89e8(%rip),%rax        # 1f068 <g_111>
   16680:	48 83 f8 e5          	cmp    $0xffffffffffffffe5,%rax
   16684:	0f 84 4f fd ff ff    	je     163d9 <func_76+0xd15>
   1668a:	eb 01                	jmp    1668d <func_76+0xfc9>
   1668c:	90                   	nop
   1668d:	48 8b 05 54 b1 00 00 	mov    0xb154(%rip),%rax        # 217e8 <g_56>
   16694:	48 8b 00             	mov    (%rax),%rax
   16697:	8b 08                	mov    (%rax),%ecx
   16699:	48 8b 05 28 b5 00 00 	mov    0xb528(%rip),%rax        # 21bc8 <g_301>
   166a0:	8b 10                	mov    (%rax),%edx
   166a2:	48 8b 05 3f b1 00 00 	mov    0xb13f(%rip),%rax        # 217e8 <g_56>
   166a9:	48 8b 00             	mov    (%rax),%rax
   166ac:	21 ca                	and    %ecx,%edx
   166ae:	89 10                	mov    %edx,(%rax)
   166b0:	8b 85 10 e8 ff ff    	mov    -0x17f0(%rbp),%eax
   166b6:	83 c0 01             	add    $0x1,%eax
   166b9:	89 85 10 e8 ff ff    	mov    %eax,-0x17f0(%rbp)
   166bf:	8b 85 10 e8 ff ff    	mov    -0x17f0(%rbp),%eax
   166c5:	83 f8 fa             	cmp    $0xfffffffa,%eax
   166c8:	0f 8c ed fc ff ff    	jl     163bb <func_76+0xcf7>
   166ce:	8b 05 80 8a 00 00    	mov    0x8a80(%rip),%eax        # 1f154 <g_378>
   166d4:	83 c0 01             	add    $0x1,%eax
   166d7:	89 05 77 8a 00 00    	mov    %eax,0x8a77(%rip)        # 1f154 <g_378>
   166dd:	8b 05 71 8a 00 00    	mov    0x8a71(%rip),%eax        # 1f154 <g_378>
   166e3:	83 f8 18             	cmp    $0x18,%eax
   166e6:	0f 8e 63 f3 ff ff    	jle    15a4f <func_76+0x38b>
   166ec:	48 8b 85 d0 e7 ff ff 	mov    -0x1830(%rbp),%rax
   166f3:	8b 10                	mov    (%rax),%edx
   166f5:	0f bf 85 04 e8 ff ff 	movswl -0x17fc(%rbp),%eax
   166fc:	09 c2                	or     %eax,%edx
   166fe:	48 8b 85 d0 e7 ff ff 	mov    -0x1830(%rbp),%rax
   16705:	89 10                	mov    %edx,(%rax)
   16707:	48 8b 85 d0 e7 ff ff 	mov    -0x1830(%rbp),%rax
   1670e:	c7 00 d4 97 5a 4b    	movl   $0x4b5a97d4,(%rax)
   16714:	48 8b 05 ad b4 00 00 	mov    0xb4ad(%rip),%rax        # 21bc8 <g_301>
   1671b:	48 8b 95 d0 e7 ff ff 	mov    -0x1830(%rbp),%rdx
   16722:	8b 12                	mov    (%rdx),%edx
   16724:	89 10                	mov    %edx,(%rax)
   16726:	48 8b 85 30 e9 ff ff 	mov    -0x16d0(%rbp),%rax
   1672d:	48 8b 00             	mov    (%rax),%rax
   16730:	8b 00                	mov    (%rax),%eax
   16732:	c1 e8 1f             	shr    $0x1f,%eax
   16735:	0f b6 c0             	movzbl %al,%eax
   16738:	89 c6                	mov    %eax,%esi
   1673a:	bf 03 00 00 00       	mov    $0x3,%edi
   1673f:	e8 7a 45 ff ff       	callq  acbe <safe_rshift_func_uint8_t_u_u>
   16744:	8b 85 e4 e7 ff ff    	mov    -0x181c(%rbp),%eax
   1674a:	0f bf d0             	movswl %ax,%edx
   1674d:	48 8b 85 30 e9 ff ff 	mov    -0x16d0(%rbp),%rax
   16754:	48 8b 00             	mov    (%rax),%rax
   16757:	8b 00                	mov    (%rax),%eax
   16759:	98                   	cwtl   
   1675a:	89 d6                	mov    %edx,%esi
   1675c:	89 c7                	mov    %eax,%edi
   1675e:	e8 50 3c ff ff       	callq  a3b3 <safe_add_func_int16_t_s_s>
   16763:	48 8b 85 c8 e7 ff ff 	mov    -0x1838(%rbp),%rax
   1676a:	48 3b 85 d0 e7 ff ff 	cmp    -0x1830(%rbp),%rax
   16771:	0f 94 c0             	sete   %al
   16774:	0f b6 c0             	movzbl %al,%eax
   16777:	be 1e 1f 63 7e       	mov    $0x7e631f1e,%esi
   1677c:	89 c7                	mov    %eax,%edi
   1677e:	e8 a2 47 ff ff       	callq  af25 <safe_div_func_uint32_t_u_u>
   16783:	48 8b 95 30 e9 ff ff 	mov    -0x16d0(%rbp),%rdx
   1678a:	48 8b 12             	mov    (%rdx),%rdx
   1678d:	8b 12                	mov    (%rdx),%edx
   1678f:	39 d0                	cmp    %edx,%eax
   16791:	0f 97 c0             	seta   %al
   16794:	0f b6 d0             	movzbl %al,%edx
   16797:	48 8b 85 18 e9 ff ff 	mov    -0x16e8(%rbp),%rax
   1679e:	48 8b 00             	mov    (%rax),%rax
   167a1:	48 8b 00             	mov    (%rax),%rax
   167a4:	8b 00                	mov    (%rax),%eax
   167a6:	0f b6 c0             	movzbl %al,%eax
   167a9:	89 d6                	mov    %edx,%esi
   167ab:	89 c7                	mov    %eax,%edi
   167ad:	e8 c6 43 ff ff       	callq  ab78 <safe_sub_func_uint8_t_u_u>
   167b2:	84 c0                	test   %al,%al
   167b4:	0f 84 f7 01 00 00    	je     169b1 <func_76+0x12ed>
   167ba:	c7 85 5c e8 ff ff 5a 	movl   $0x2b1b0d5a,-0x17a4(%rbp)
   167c1:	0d 1b 2b 
   167c4:	48 c7 85 90 e9 ff ff 	movq   $0x0,-0x1670(%rbp)
   167cb:	00 00 00 00 
   167cf:	c7 85 e0 f2 ff ff ff 	movl   $0xffffffff,-0xd20(%rbp)
   167d6:	ff ff ff 
   167d9:	c7 85 e4 f2 ff ff ff 	movl   $0xffffffff,-0xd1c(%rbp)
   167e0:	ff ff ff 
   167e3:	c7 85 e8 f2 ff ff ff 	movl   $0xffffffff,-0xd18(%rbp)
   167ea:	ff ff ff 
   167ed:	c7 85 ec f2 ff ff ff 	movl   $0xffffffff,-0xd14(%rbp)
   167f4:	ff ff ff 
   167f7:	c7 85 f0 f2 ff ff ff 	movl   $0xffffffff,-0xd10(%rbp)
   167fe:	ff ff ff 
   16801:	c7 85 f4 f2 ff ff ff 	movl   $0xffffffff,-0xd0c(%rbp)
   16808:	ff ff ff 
   1680b:	c7 85 f8 f2 ff ff b5 	movl   $0x58999db5,-0xd08(%rbp)
   16812:	9d 99 58 
   16815:	c7 85 fc f2 ff ff ff 	movl   $0xffffffff,-0xd04(%rbp)
   1681c:	ff ff ff 
   1681f:	c7 85 00 f3 ff ff ff 	movl   $0xffffffff,-0xd00(%rbp)
   16826:	ff ff ff 
   16829:	c7 85 04 f3 ff ff b5 	movl   $0x58999db5,-0xcfc(%rbp)
   16830:	9d 99 58 
   16833:	c7 85 08 f3 ff ff ff 	movl   $0xffffffff,-0xcf8(%rbp)
   1683a:	ff ff ff 
   1683d:	c7 85 0c f3 ff ff ff 	movl   $0xffffffff,-0xcf4(%rbp)
   16844:	ff ff ff 
   16847:	c7 85 10 f3 ff ff b5 	movl   $0x58999db5,-0xcf0(%rbp)
   1684e:	9d 99 58 
   16851:	c7 85 14 f3 ff ff ff 	movl   $0xffffffff,-0xcec(%rbp)
   16858:	ff ff ff 
   1685b:	c7 85 18 f3 ff ff ff 	movl   $0xffffffff,-0xce8(%rbp)
   16862:	ff ff ff 
   16865:	c7 85 1c f3 ff ff b5 	movl   $0x58999db5,-0xce4(%rbp)
   1686c:	9d 99 58 
   1686f:	c7 85 20 f3 ff ff ff 	movl   $0xffffffff,-0xce0(%rbp)
   16876:	ff ff ff 
   16879:	c7 85 24 f3 ff ff ff 	movl   $0xffffffff,-0xcdc(%rbp)
   16880:	ff ff ff 
   16883:	c7 85 28 f3 ff ff b5 	movl   $0x58999db5,-0xcd8(%rbp)
   1688a:	9d 99 58 
   1688d:	c7 85 2c f3 ff ff ff 	movl   $0xffffffff,-0xcd4(%rbp)
   16894:	ff ff ff 
   16897:	c7 85 30 f3 ff ff ff 	movl   $0xffffffff,-0xcd0(%rbp)
   1689e:	ff ff ff 
   168a1:	c7 85 34 f3 ff ff b5 	movl   $0x58999db5,-0xccc(%rbp)
   168a8:	9d 99 58 
   168ab:	c7 85 38 f3 ff ff ff 	movl   $0xffffffff,-0xcc8(%rbp)
   168b2:	ff ff ff 
   168b5:	c7 85 3c f3 ff ff ff 	movl   $0xffffffff,-0xcc4(%rbp)
   168bc:	ff ff ff 
   168bf:	c7 85 40 f3 ff ff b5 	movl   $0x58999db5,-0xcc0(%rbp)
   168c6:	9d 99 58 
   168c9:	c7 85 44 f3 ff ff ff 	movl   $0xffffffff,-0xcbc(%rbp)
   168d0:	ff ff ff 
   168d3:	c7 85 48 f3 ff ff ff 	movl   $0xffffffff,-0xcb8(%rbp)
   168da:	ff ff ff 
   168dd:	c6 85 ff e7 ff ff 3d 	movb   $0x3d,-0x1801(%rbp)
   168e4:	48 8d 85 1c e8 ff ff 	lea    -0x17e4(%rbp),%rax
   168eb:	48 89 85 98 e9 ff ff 	mov    %rax,-0x1668(%rbp)
   168f2:	48 8d 05 e7 ae 00 00 	lea    0xaee7(%rip),%rax        # 217e0 <g_57>
   168f9:	48 89 85 a0 e9 ff ff 	mov    %rax,-0x1660(%rbp)
   16900:	48 8d 05 6d 87 00 00 	lea    0x876d(%rip),%rax        # 1f074 <g_175>
   16907:	48 89 85 a8 e9 ff ff 	mov    %rax,-0x1658(%rbp)
   1690e:	48 b8 d5 2c 23 0e f9 	movabs $0xe65874f90e232cd5,%rax
   16915:	74 58 e6 
   16918:	48 89 85 b0 e9 ff ff 	mov    %rax,-0x1650(%rbp)
   1691f:	48 c7 85 e8 e8 ff ff 	movq   $0x0,-0x1718(%rbp)
   16926:	00 00 00 00 
   1692a:	48 8d 85 e8 e8 ff ff 	lea    -0x1718(%rbp),%rax
   16931:	48 89 85 b8 e9 ff ff 	mov    %rax,-0x1648(%rbp)
   16938:	48 8d 05 fd 86 00 00 	lea    0x86fd(%rip),%rax        # 1f03c <g_75>
   1693f:	48 89 85 c0 e9 ff ff 	mov    %rax,-0x1640(%rbp)
   16946:	48 8d 85 f0 f7 ff ff 	lea    -0x810(%rbp),%rax
   1694d:	48 8d 15 ac a6 00 00 	lea    0xa6ac(%rip),%rdx        # 21000 <g_2882+0x1c80>
   16954:	b9 fa 00 00 00       	mov    $0xfa,%ecx
   16959:	48 89 c7             	mov    %rax,%rdi
   1695c:	48 89 d6             	mov    %rdx,%rsi
   1695f:	f3 48 a5             	rep movsq %ds:(%rsi),%es:(%rdi)
   16962:	c6 85 00 e8 ff ff e4 	movb   $0xe4,-0x1800(%rbp)
   16969:	66 c7 85 0c e8 ff ff 	movw   $0x0,-0x17f4(%rbp)
   16970:	00 00 
   16972:	c7 85 60 e8 ff ff a2 	movl   $0x5a4cc7a2,-0x17a0(%rbp)
   16979:	c7 4c 5a 
   1697c:	c7 85 30 e8 ff ff 00 	movl   $0x0,-0x17d0(%rbp)
   16983:	00 00 00 
   16986:	eb 1e                	jmp    169a6 <func_76+0x12e2>
   16988:	8b 85 30 e8 ff ff    	mov    -0x17d0(%rbp),%eax
   1698e:	48 98                	cltq   
   16990:	48 8d 95 a8 e8 ff ff 	lea    -0x1758(%rbp),%rdx
   16997:	48 89 94 c5 a0 ed ff 	mov    %rdx,-0x1260(%rbp,%rax,8)
   1699e:	ff 
   1699f:	83 85 30 e8 ff ff 01 	addl   $0x1,-0x17d0(%rbp)
   169a6:	83 bd 30 e8 ff ff 01 	cmpl   $0x1,-0x17d0(%rbp)
   169ad:	7e d9                	jle    16988 <func_76+0x12c4>
   169af:	eb 57                	jmp    16a08 <func_76+0x1344>
   169b1:	48 8d 05 08 88 00 00 	lea    0x8808(%rip),%rax        # 1f1c0 <g_523>
   169b8:	48 89 85 80 e9 ff ff 	mov    %rax,-0x1680(%rbp)
   169bf:	48 8d 85 14 e8 ff ff 	lea    -0x17ec(%rbp),%rax
   169c6:	48 89 85 88 e9 ff ff 	mov    %rax,-0x1678(%rbp)
   169cd:	c7 85 34 e8 ff ff 00 	movl   $0x0,-0x17cc(%rbp)
   169d4:	00 00 00 
   169d7:	eb 1e                	jmp    169f7 <func_76+0x1333>
   169d9:	8b 85 34 e8 ff ff    	mov    -0x17cc(%rbp),%eax
   169df:	48 98                	cltq   
   169e1:	48 8d 95 10 e8 ff ff 	lea    -0x17f0(%rbp),%rdx
   169e8:	48 89 94 c5 f0 f7 ff 	mov    %rdx,-0x810(%rbp,%rax,8)
   169ef:	ff 
   169f0:	83 85 34 e8 ff ff 01 	addl   $0x1,-0x17cc(%rbp)
   169f7:	83 bd 34 e8 ff ff 00 	cmpl   $0x0,-0x17cc(%rbp)
   169fe:	7e d9                	jle    169d9 <func_76+0x1315>
   16a00:	48 83 ad f0 e8 ff ff 	subq   $0x1,-0x1710(%rbp)
   16a07:	01 
   16a08:	c6 05 01 87 00 00 12 	movb   $0x12,0x8701(%rip)        # 1f110 <g_253>
   16a0f:	e9 a5 21 00 00       	jmpq   18bb9 <func_76+0x34f5>
   16a14:	c6 85 fc e7 ff ff 63 	movb   $0x63,-0x1804(%rbp)
   16a1b:	48 8d 05 46 86 00 00 	lea    0x8646(%rip),%rax        # 1f068 <g_111>
   16a22:	48 89 85 c8 e8 ff ff 	mov    %rax,-0x1738(%rbp)
   16a29:	48 8d 85 c8 e8 ff ff 	lea    -0x1738(%rbp),%rax
   16a30:	48 89 85 c8 e9 ff ff 	mov    %rax,-0x1638(%rbp)
   16a37:	48 b8 45 fe 86 4e 42 	movabs $0xfeb16e424e86fe45,%rax
   16a3e:	6e b1 fe 
   16a41:	48 89 85 50 eb ff ff 	mov    %rax,-0x14b0(%rbp)
   16a48:	48 89 85 58 eb ff ff 	mov    %rax,-0x14a8(%rbp)
   16a4f:	48 c7 85 60 eb ff ff 	movq   $0x6,-0x14a0(%rbp)
   16a56:	06 00 00 00 
   16a5a:	48 89 85 68 eb ff ff 	mov    %rax,-0x1498(%rbp)
   16a61:	48 89 85 70 eb ff ff 	mov    %rax,-0x1490(%rbp)
   16a68:	48 c7 85 78 eb ff ff 	movq   $0x6,-0x1488(%rbp)
   16a6f:	06 00 00 00 
   16a73:	48 89 85 80 eb ff ff 	mov    %rax,-0x1480(%rbp)
   16a7a:	48 89 85 88 eb ff ff 	mov    %rax,-0x1478(%rbp)
   16a81:	48 c7 85 90 eb ff ff 	movq   $0x6,-0x1470(%rbp)
   16a88:	06 00 00 00 
   16a8c:	c7 85 38 e8 ff ff fd 	movl   $0xfffffffd,-0x17c8(%rbp)
   16a93:	ff ff ff 
   16a96:	48 8d 85 fb e7 ff ff 	lea    -0x1805(%rbp),%rax
   16a9d:	48 89 85 d0 e9 ff ff 	mov    %rax,-0x1630(%rbp)
   16aa4:	48 8d 85 90 e8 ff ff 	lea    -0x1770(%rbp),%rax
   16aab:	48 89 85 d8 e9 ff ff 	mov    %rax,-0x1628(%rbp)
   16ab2:	c7 85 a0 ea ff ff a8 	movl   $0x7b6791a8,-0x1560(%rbp)
   16ab9:	91 67 7b 
   16abc:	c7 85 a4 ea ff ff a8 	movl   $0x7b6791a8,-0x155c(%rbp)
   16ac3:	91 67 7b 
   16ac6:	c7 85 a8 ea ff ff a8 	movl   $0x7b6791a8,-0x1558(%rbp)
   16acd:	91 67 7b 
   16ad0:	c7 85 ac ea ff ff a8 	movl   $0x7b6791a8,-0x1554(%rbp)
   16ad7:	91 67 7b 
   16ada:	48 c7 85 e0 e9 ff ff 	movq   $0x0,-0x1620(%rbp)
   16ae1:	00 00 00 00 
   16ae5:	48 8d 05 dc b0 00 00 	lea    0xb0dc(%rip),%rax        # 21bc8 <g_301>
   16aec:	48 89 85 00 ec ff ff 	mov    %rax,-0x1400(%rbp)
   16af3:	48 8d 05 e6 ac 00 00 	lea    0xace6(%rip),%rax        # 217e0 <g_57>
   16afa:	48 89 85 08 ec ff ff 	mov    %rax,-0x13f8(%rbp)
   16b01:	48 8d 05 c0 b0 00 00 	lea    0xb0c0(%rip),%rax        # 21bc8 <g_301>
   16b08:	48 89 85 10 ec ff ff 	mov    %rax,-0x13f0(%rbp)
   16b0f:	48 8d 05 b2 b0 00 00 	lea    0xb0b2(%rip),%rax        # 21bc8 <g_301>
   16b16:	48 89 85 18 ec ff ff 	mov    %rax,-0x13e8(%rbp)
   16b1d:	48 8d 05 bc ac 00 00 	lea    0xacbc(%rip),%rax        # 217e0 <g_57>
   16b24:	48 89 85 20 ec ff ff 	mov    %rax,-0x13e0(%rbp)
   16b2b:	48 8d 05 96 b0 00 00 	lea    0xb096(%rip),%rax        # 21bc8 <g_301>
   16b32:	48 89 85 28 ec ff ff 	mov    %rax,-0x13d8(%rbp)
   16b39:	48 8d 05 88 b0 00 00 	lea    0xb088(%rip),%rax        # 21bc8 <g_301>
   16b40:	48 89 85 30 ec ff ff 	mov    %rax,-0x13d0(%rbp)
   16b47:	48 8d 05 92 ac 00 00 	lea    0xac92(%rip),%rax        # 217e0 <g_57>
   16b4e:	48 89 85 38 ec ff ff 	mov    %rax,-0x13c8(%rbp)
   16b55:	48 8d 05 6c b0 00 00 	lea    0xb06c(%rip),%rax        # 21bc8 <g_301>
   16b5c:	48 89 85 40 ec ff ff 	mov    %rax,-0x13c0(%rbp)
   16b63:	48 8d 05 5e b0 00 00 	lea    0xb05e(%rip),%rax        # 21bc8 <g_301>
   16b6a:	48 89 85 48 ec ff ff 	mov    %rax,-0x13b8(%rbp)
   16b71:	48 8d 05 68 ac 00 00 	lea    0xac68(%rip),%rax        # 217e0 <g_57>
   16b78:	48 89 85 50 ec ff ff 	mov    %rax,-0x13b0(%rbp)
   16b7f:	48 8d 05 42 b0 00 00 	lea    0xb042(%rip),%rax        # 21bc8 <g_301>
   16b86:	48 89 85 58 ec ff ff 	mov    %rax,-0x13a8(%rbp)
   16b8d:	48 8d 05 34 b0 00 00 	lea    0xb034(%rip),%rax        # 21bc8 <g_301>
   16b94:	48 89 85 60 ec ff ff 	mov    %rax,-0x13a0(%rbp)
   16b9b:	48 8d 05 3e ac 00 00 	lea    0xac3e(%rip),%rax        # 217e0 <g_57>
   16ba2:	48 89 85 68 ec ff ff 	mov    %rax,-0x1398(%rbp)
   16ba9:	48 8d 05 18 b0 00 00 	lea    0xb018(%rip),%rax        # 21bc8 <g_301>
   16bb0:	48 89 85 70 ec ff ff 	mov    %rax,-0x1390(%rbp)
   16bb7:	48 8d 05 0a b0 00 00 	lea    0xb00a(%rip),%rax        # 21bc8 <g_301>
   16bbe:	48 89 85 78 ec ff ff 	mov    %rax,-0x1388(%rbp)
   16bc5:	48 8d 05 14 ac 00 00 	lea    0xac14(%rip),%rax        # 217e0 <g_57>
   16bcc:	48 89 85 80 ec ff ff 	mov    %rax,-0x1380(%rbp)
   16bd3:	48 8d 05 ee af 00 00 	lea    0xafee(%rip),%rax        # 21bc8 <g_301>
   16bda:	48 89 85 88 ec ff ff 	mov    %rax,-0x1378(%rbp)
   16be1:	48 8d 05 e0 af 00 00 	lea    0xafe0(%rip),%rax        # 21bc8 <g_301>
   16be8:	48 89 85 90 ec ff ff 	mov    %rax,-0x1370(%rbp)
   16bef:	48 8d 05 ea ab 00 00 	lea    0xabea(%rip),%rax        # 217e0 <g_57>
   16bf6:	48 89 85 98 ec ff ff 	mov    %rax,-0x1368(%rbp)
   16bfd:	48 8d 85 00 ec ff ff 	lea    -0x1400(%rbp),%rax
   16c04:	48 05 98 00 00 00    	add    $0x98,%rax
   16c0a:	48 89 85 d0 e8 ff ff 	mov    %rax,-0x1730(%rbp)
   16c11:	48 8d 85 d0 e8 ff ff 	lea    -0x1730(%rbp),%rax
   16c18:	48 89 85 a0 ed ff ff 	mov    %rax,-0x1260(%rbp)
   16c1f:	48 8d 85 d0 e8 ff ff 	lea    -0x1730(%rbp),%rax
   16c26:	48 89 85 a8 ed ff ff 	mov    %rax,-0x1258(%rbp)
   16c2d:	48 8d 85 d0 e8 ff ff 	lea    -0x1730(%rbp),%rax
   16c34:	48 89 85 b0 ed ff ff 	mov    %rax,-0x1250(%rbp)
   16c3b:	48 8d 85 d0 e8 ff ff 	lea    -0x1730(%rbp),%rax
   16c42:	48 89 85 b8 ed ff ff 	mov    %rax,-0x1248(%rbp)
   16c49:	48 8d 85 d0 e8 ff ff 	lea    -0x1730(%rbp),%rax
   16c50:	48 89 85 c0 ed ff ff 	mov    %rax,-0x1240(%rbp)
   16c57:	48 8d 85 d0 e8 ff ff 	lea    -0x1730(%rbp),%rax
   16c5e:	48 89 85 c8 ed ff ff 	mov    %rax,-0x1238(%rbp)
   16c65:	48 8d 85 d0 e8 ff ff 	lea    -0x1730(%rbp),%rax
   16c6c:	48 89 85 d0 ed ff ff 	mov    %rax,-0x1230(%rbp)
   16c73:	48 8d 85 d0 e8 ff ff 	lea    -0x1730(%rbp),%rax
   16c7a:	48 89 85 d8 ed ff ff 	mov    %rax,-0x1228(%rbp)
   16c81:	48 c7 85 e0 ed ff ff 	movq   $0x0,-0x1220(%rbp)
   16c88:	00 00 00 00 
   16c8c:	48 c7 85 e8 ed ff ff 	movq   $0x0,-0x1218(%rbp)
   16c93:	00 00 00 00 
   16c97:	48 8d 85 d0 e8 ff ff 	lea    -0x1730(%rbp),%rax
   16c9e:	48 89 85 f0 ed ff ff 	mov    %rax,-0x1210(%rbp)
   16ca5:	48 8d 85 d0 e8 ff ff 	lea    -0x1730(%rbp),%rax
   16cac:	48 89 85 f8 ed ff ff 	mov    %rax,-0x1208(%rbp)
   16cb3:	48 8d 85 d0 e8 ff ff 	lea    -0x1730(%rbp),%rax
   16cba:	48 89 85 00 ee ff ff 	mov    %rax,-0x1200(%rbp)
   16cc1:	48 8d 85 d0 e8 ff ff 	lea    -0x1730(%rbp),%rax
   16cc8:	48 89 85 08 ee ff ff 	mov    %rax,-0x11f8(%rbp)
   16ccf:	48 8d 85 d0 e8 ff ff 	lea    -0x1730(%rbp),%rax
   16cd6:	48 89 85 10 ee ff ff 	mov    %rax,-0x11f0(%rbp)
   16cdd:	48 8d 85 d0 e8 ff ff 	lea    -0x1730(%rbp),%rax
   16ce4:	48 89 85 18 ee ff ff 	mov    %rax,-0x11e8(%rbp)
   16ceb:	48 8d 85 d0 e8 ff ff 	lea    -0x1730(%rbp),%rax
   16cf2:	48 89 85 20 ee ff ff 	mov    %rax,-0x11e0(%rbp)
   16cf9:	48 c7 85 28 ee ff ff 	movq   $0x0,-0x11d8(%rbp)
   16d00:	00 00 00 00 
   16d04:	48 8d 85 d0 e8 ff ff 	lea    -0x1730(%rbp),%rax
   16d0b:	48 89 85 30 ee ff ff 	mov    %rax,-0x11d0(%rbp)
   16d12:	48 c7 85 38 ee ff ff 	movq   $0x0,-0x11c8(%rbp)
   16d19:	00 00 00 00 
   16d1d:	48 8d 85 d0 e8 ff ff 	lea    -0x1730(%rbp),%rax
   16d24:	48 89 85 40 ee ff ff 	mov    %rax,-0x11c0(%rbp)
   16d2b:	48 c7 85 48 ee ff ff 	movq   $0x0,-0x11b8(%rbp)
   16d32:	00 00 00 00 
   16d36:	48 8d 85 d0 e8 ff ff 	lea    -0x1730(%rbp),%rax
   16d3d:	48 89 85 50 ee ff ff 	mov    %rax,-0x11b0(%rbp)
   16d44:	48 c7 85 58 ee ff ff 	movq   $0x0,-0x11a8(%rbp)
   16d4b:	00 00 00 00 
   16d4f:	48 8d 85 d0 e8 ff ff 	lea    -0x1730(%rbp),%rax
   16d56:	48 89 85 60 ee ff ff 	mov    %rax,-0x11a0(%rbp)
   16d5d:	48 8d 85 d0 e8 ff ff 	lea    -0x1730(%rbp),%rax
   16d64:	48 89 85 68 ee ff ff 	mov    %rax,-0x1198(%rbp)
   16d6b:	48 c7 85 70 ee ff ff 	movq   $0x0,-0x1190(%rbp)
   16d72:	00 00 00 00 
   16d76:	48 8d 85 d0 e8 ff ff 	lea    -0x1730(%rbp),%rax
   16d7d:	48 89 85 78 ee ff ff 	mov    %rax,-0x1188(%rbp)
   16d84:	48 c7 85 80 ee ff ff 	movq   $0x0,-0x1180(%rbp)
   16d8b:	00 00 00 00 
   16d8f:	48 c7 85 88 ee ff ff 	movq   $0x0,-0x1178(%rbp)
   16d96:	00 00 00 00 
   16d9a:	48 8d 85 d0 e8 ff ff 	lea    -0x1730(%rbp),%rax
   16da1:	48 89 85 90 ee ff ff 	mov    %rax,-0x1170(%rbp)
   16da8:	48 8d 85 d0 e8 ff ff 	lea    -0x1730(%rbp),%rax
   16daf:	48 89 85 98 ee ff ff 	mov    %rax,-0x1168(%rbp)
   16db6:	48 c7 85 a0 ee ff ff 	movq   $0x0,-0x1160(%rbp)
   16dbd:	00 00 00 00 
   16dc1:	48 c7 85 a8 ee ff ff 	movq   $0x0,-0x1158(%rbp)
   16dc8:	00 00 00 00 
   16dcc:	48 8d 85 d0 e8 ff ff 	lea    -0x1730(%rbp),%rax
   16dd3:	48 89 85 b0 ee ff ff 	mov    %rax,-0x1150(%rbp)
   16dda:	48 8d 85 d0 e8 ff ff 	lea    -0x1730(%rbp),%rax
   16de1:	48 89 85 b8 ee ff ff 	mov    %rax,-0x1148(%rbp)
   16de8:	48 8d 85 d0 e8 ff ff 	lea    -0x1730(%rbp),%rax
   16def:	48 89 85 c0 ee ff ff 	mov    %rax,-0x1140(%rbp)
   16df6:	48 8d 85 d0 e8 ff ff 	lea    -0x1730(%rbp),%rax
   16dfd:	48 89 85 c8 ee ff ff 	mov    %rax,-0x1138(%rbp)
   16e04:	48 8d 85 d0 e8 ff ff 	lea    -0x1730(%rbp),%rax
   16e0b:	48 89 85 d0 ee ff ff 	mov    %rax,-0x1130(%rbp)
   16e12:	48 c7 85 d8 ee ff ff 	movq   $0x0,-0x1128(%rbp)
   16e19:	00 00 00 00 
   16e1d:	48 c7 85 e0 ee ff ff 	movq   $0x0,-0x1120(%rbp)
   16e24:	00 00 00 00 
   16e28:	48 8d 85 d0 e8 ff ff 	lea    -0x1730(%rbp),%rax
   16e2f:	48 89 85 e8 ee ff ff 	mov    %rax,-0x1118(%rbp)
   16e36:	48 8d 85 a0 ed ff ff 	lea    -0x1260(%rbp),%rax
   16e3d:	48 05 e8 00 00 00    	add    $0xe8,%rax
   16e43:	48 89 85 e8 e9 ff ff 	mov    %rax,-0x1618(%rbp)
   16e4a:	48 c7 85 00 e9 ff ff 	movq   $0x0,-0x1700(%rbp)
   16e51:	00 00 00 00 
   16e55:	e9 35 1d 00 00       	jmpq   18b8f <func_76+0x34cb>
   16e5a:	c7 85 64 e8 ff ff ff 	movl   $0xffffffff,-0x179c(%rbp)
   16e61:	ff ff ff 
   16e64:	48 8d 05 b5 83 00 00 	lea    0x83b5(%rip),%rax        # 1f220 <g_1483>
   16e6b:	48 89 85 f0 e9 ff ff 	mov    %rax,-0x1610(%rbp)
   16e72:	48 8d 85 e0 f2 ff ff 	lea    -0xd20(%rbp),%rax
   16e79:	48 8d 15 80 4c 00 00 	lea    0x4c80(%rip),%rdx        # 1bb00 <g_2661+0x1a90>
   16e80:	b9 7a 00 00 00       	mov    $0x7a,%ecx
   16e85:	48 89 c7             	mov    %rax,%rdi
   16e88:	48 89 d6             	mov    %rdx,%rsi
   16e8b:	f3 48 a5             	rep movsq %ds:(%rsi),%es:(%rdi)
   16e8e:	48 89 f2             	mov    %rsi,%rdx
   16e91:	48 89 f8             	mov    %rdi,%rax
   16e94:	8b 0a                	mov    (%rdx),%ecx
   16e96:	89 08                	mov    %ecx,(%rax)
   16e98:	66 c7 85 a0 eb ff ff 	movw   $0x0,-0x1460(%rbp)
   16e9f:	00 00 
   16ea1:	66 c7 85 a2 eb ff ff 	movw   $0x1,-0x145e(%rbp)
   16ea8:	01 00 
   16eaa:	66 c7 85 a4 eb ff ff 	movw   $0x1,-0x145c(%rbp)
   16eb1:	01 00 
   16eb3:	66 c7 85 a6 eb ff ff 	movw   $0x0,-0x145a(%rbp)
   16eba:	00 00 
   16ebc:	66 c7 85 a8 eb ff ff 	movw   $0x0,-0x1458(%rbp)
   16ec3:	00 00 
   16ec5:	66 c7 85 aa eb ff ff 	movw   $0x1,-0x1456(%rbp)
   16ecc:	01 00 
   16ece:	66 c7 85 ac eb ff ff 	movw   $0x1,-0x1454(%rbp)
   16ed5:	01 00 
   16ed7:	66 c7 85 ae eb ff ff 	movw   $0x0,-0x1452(%rbp)
   16ede:	00 00 
   16ee0:	66 c7 85 b0 eb ff ff 	movw   $0x0,-0x1450(%rbp)
   16ee7:	00 00 
   16ee9:	66 c7 85 b2 eb ff ff 	movw   $0x608a,-0x144e(%rbp)
   16ef0:	8a 60 
   16ef2:	66 c7 85 b4 eb ff ff 	movw   $0x0,-0x144c(%rbp)
   16ef9:	00 00 
   16efb:	66 c7 85 b6 eb ff ff 	movw   $0x608a,-0x144a(%rbp)
   16f02:	8a 60 
   16f04:	66 c7 85 b8 eb ff ff 	movw   $0x0,-0x1448(%rbp)
   16f0b:	00 00 
   16f0d:	66 c7 85 ba eb ff ff 	movw   $0x608a,-0x1446(%rbp)
   16f14:	8a 60 
   16f16:	66 c7 85 bc eb ff ff 	movw   $0x0,-0x1444(%rbp)
   16f1d:	00 00 
   16f1f:	66 c7 85 be eb ff ff 	movw   $0x608a,-0x1442(%rbp)
   16f26:	8a 60 
   16f28:	66 c7 85 c0 eb ff ff 	movw   $0x0,-0x1440(%rbp)
   16f2f:	00 00 
   16f31:	66 c7 85 c2 eb ff ff 	movw   $0x608a,-0x143e(%rbp)
   16f38:	8a 60 
   16f3a:	66 c7 85 c4 eb ff ff 	movw   $0x0,-0x143c(%rbp)
   16f41:	00 00 
   16f43:	66 c7 85 c6 eb ff ff 	movw   $0x0,-0x143a(%rbp)
   16f4a:	00 00 
   16f4c:	66 c7 85 c8 eb ff ff 	movw   $0x1,-0x1438(%rbp)
   16f53:	01 00 
   16f55:	66 c7 85 ca eb ff ff 	movw   $0x1,-0x1436(%rbp)
   16f5c:	01 00 
   16f5e:	66 c7 85 cc eb ff ff 	movw   $0x0,-0x1434(%rbp)
   16f65:	00 00 
   16f67:	66 c7 85 ce eb ff ff 	movw   $0x0,-0x1432(%rbp)
   16f6e:	00 00 
   16f70:	66 c7 85 d0 eb ff ff 	movw   $0x1,-0x1430(%rbp)
   16f77:	01 00 
   16f79:	66 c7 85 d2 eb ff ff 	movw   $0x1,-0x142e(%rbp)
   16f80:	01 00 
   16f82:	66 c7 85 d4 eb ff ff 	movw   $0x0,-0x142c(%rbp)
   16f89:	00 00 
   16f8b:	66 c7 85 d6 eb ff ff 	movw   $0x25e3,-0x142a(%rbp)
   16f92:	e3 25 
   16f94:	66 c7 85 d8 eb ff ff 	movw   $0x0,-0x1428(%rbp)
   16f9b:	00 00 
   16f9d:	66 c7 85 da eb ff ff 	movw   $0x25e3,-0x1426(%rbp)
   16fa4:	e3 25 
   16fa6:	66 c7 85 dc eb ff ff 	movw   $0x0,-0x1424(%rbp)
   16fad:	00 00 
   16faf:	66 c7 85 de eb ff ff 	movw   $0x25e3,-0x1422(%rbp)
   16fb6:	e3 25 
   16fb8:	66 c7 85 e0 eb ff ff 	movw   $0x0,-0x1420(%rbp)
   16fbf:	00 00 
   16fc1:	66 c7 85 e2 eb ff ff 	movw   $0x25e3,-0x141e(%rbp)
   16fc8:	e3 25 
   16fca:	66 c7 85 e4 eb ff ff 	movw   $0x0,-0x141c(%rbp)
   16fd1:	00 00 
   16fd3:	66 c7 85 e6 eb ff ff 	movw   $0x25e3,-0x141a(%rbp)
   16fda:	e3 25 
   16fdc:	66 c7 85 e8 eb ff ff 	movw   $0x0,-0x1418(%rbp)
   16fe3:	00 00 
   16fe5:	66 c7 85 ea eb ff ff 	movw   $0x1,-0x1416(%rbp)
   16fec:	01 00 
   16fee:	66 c7 85 ec eb ff ff 	movw   $0x1,-0x1414(%rbp)
   16ff5:	01 00 
   16ff7:	66 c7 85 ee eb ff ff 	movw   $0x0,-0x1412(%rbp)
   16ffe:	00 00 
   17000:	66 c7 85 f0 eb ff ff 	movw   $0x0,-0x1410(%rbp)
   17007:	00 00 
   17009:	66 c7 85 f2 eb ff ff 	movw   $0x1,-0x140e(%rbp)
   17010:	01 00 
   17012:	66 c7 85 f4 eb ff ff 	movw   $0x1,-0x140c(%rbp)
   17019:	01 00 
   1701b:	66 c7 85 f6 eb ff ff 	movw   $0x0,-0x140a(%rbp)
   17022:	00 00 
   17024:	66 c7 85 f8 eb ff ff 	movw   $0x0,-0x1408(%rbp)
   1702b:	00 00 
   1702d:	48 8d 85 b0 e8 ff ff 	lea    -0x1750(%rbp),%rax
   17034:	48 89 85 f8 e9 ff ff 	mov    %rax,-0x1608(%rbp)
   1703b:	48 c7 85 00 ea ff ff 	movq   $0x0,-0x1600(%rbp)
   17042:	00 00 00 00 
   17046:	c7 85 1c e8 ff ff 01 	movl   $0x1,-0x17e4(%rbp)
   1704d:	00 00 00 
   17050:	e9 05 0f 00 00       	jmpq   17f5a <func_76+0x2896>
   17055:	c6 05 68 81 00 00 00 	movb   $0x0,0x8168(%rip)        # 1f1c4 <g_718>
   1705c:	e9 db 0e 00 00       	jmpq   17f3c <func_76+0x2878>
   17061:	48 8d 85 90 e8 ff ff 	lea    -0x1770(%rbp),%rax
   17068:	48 89 85 a0 ec ff ff 	mov    %rax,-0x1360(%rbp)
   1706f:	48 8d 85 90 e8 ff ff 	lea    -0x1770(%rbp),%rax
   17076:	48 89 85 a8 ec ff ff 	mov    %rax,-0x1358(%rbp)
   1707d:	48 8d 85 90 e8 ff ff 	lea    -0x1770(%rbp),%rax
   17084:	48 89 85 b0 ec ff ff 	mov    %rax,-0x1350(%rbp)
   1708b:	48 c7 85 b8 ec ff ff 	movq   $0x0,-0x1348(%rbp)
   17092:	00 00 00 00 
   17096:	48 c7 85 c0 ec ff ff 	movq   $0x0,-0x1340(%rbp)
   1709d:	00 00 00 00 
   170a1:	48 8d 85 90 e8 ff ff 	lea    -0x1770(%rbp),%rax
   170a8:	48 89 85 c8 ec ff ff 	mov    %rax,-0x1338(%rbp)
   170af:	48 8d 85 90 e8 ff ff 	lea    -0x1770(%rbp),%rax
   170b6:	48 89 85 d0 ec ff ff 	mov    %rax,-0x1330(%rbp)
   170bd:	48 8d 85 90 e8 ff ff 	lea    -0x1770(%rbp),%rax
   170c4:	48 89 85 d8 ec ff ff 	mov    %rax,-0x1328(%rbp)
   170cb:	48 8d 85 90 e8 ff ff 	lea    -0x1770(%rbp),%rax
   170d2:	48 89 85 e0 ec ff ff 	mov    %rax,-0x1320(%rbp)
   170d9:	48 c7 85 e8 ec ff ff 	movq   $0x0,-0x1318(%rbp)
   170e0:	00 00 00 00 
   170e4:	48 8d 85 90 e8 ff ff 	lea    -0x1770(%rbp),%rax
   170eb:	48 89 85 f0 ec ff ff 	mov    %rax,-0x1310(%rbp)
   170f2:	48 c7 85 f8 ec ff ff 	movq   $0x0,-0x1308(%rbp)
   170f9:	00 00 00 00 
   170fd:	48 8d 85 90 e8 ff ff 	lea    -0x1770(%rbp),%rax
   17104:	48 89 85 00 ed ff ff 	mov    %rax,-0x1300(%rbp)
   1710b:	48 8d 85 90 e8 ff ff 	lea    -0x1770(%rbp),%rax
   17112:	48 89 85 08 ed ff ff 	mov    %rax,-0x12f8(%rbp)
   17119:	48 c7 85 10 ed ff ff 	movq   $0x0,-0x12f0(%rbp)
   17120:	00 00 00 00 
   17124:	48 8d 85 90 e8 ff ff 	lea    -0x1770(%rbp),%rax
   1712b:	48 89 85 18 ed ff ff 	mov    %rax,-0x12e8(%rbp)
   17132:	48 8d 85 90 e8 ff ff 	lea    -0x1770(%rbp),%rax
   17139:	48 89 85 20 ed ff ff 	mov    %rax,-0x12e0(%rbp)
   17140:	48 8d 85 90 e8 ff ff 	lea    -0x1770(%rbp),%rax
   17147:	48 89 85 28 ed ff ff 	mov    %rax,-0x12d8(%rbp)
   1714e:	48 c7 85 30 ed ff ff 	movq   $0x0,-0x12d0(%rbp)
   17155:	00 00 00 00 
   17159:	48 8d 85 90 e8 ff ff 	lea    -0x1770(%rbp),%rax
   17160:	48 89 85 38 ed ff ff 	mov    %rax,-0x12c8(%rbp)
   17167:	48 c7 85 40 ed ff ff 	movq   $0x0,-0x12c0(%rbp)
   1716e:	00 00 00 00 
   17172:	48 8d 85 90 e8 ff ff 	lea    -0x1770(%rbp),%rax
   17179:	48 89 85 48 ed ff ff 	mov    %rax,-0x12b8(%rbp)
   17180:	48 8d 85 90 e8 ff ff 	lea    -0x1770(%rbp),%rax
   17187:	48 89 85 50 ed ff ff 	mov    %rax,-0x12b0(%rbp)
   1718e:	48 c7 85 58 ed ff ff 	movq   $0x0,-0x12a8(%rbp)
   17195:	00 00 00 00 
   17199:	48 8d 85 90 e8 ff ff 	lea    -0x1770(%rbp),%rax
   171a0:	48 89 85 60 ed ff ff 	mov    %rax,-0x12a0(%rbp)
   171a7:	48 c7 85 68 ed ff ff 	movq   $0x0,-0x1298(%rbp)
   171ae:	00 00 00 00 
   171b2:	48 c7 85 70 ed ff ff 	movq   $0x0,-0x1290(%rbp)
   171b9:	00 00 00 00 
   171bd:	48 8d 85 90 e8 ff ff 	lea    -0x1770(%rbp),%rax
   171c4:	48 89 85 78 ed ff ff 	mov    %rax,-0x1288(%rbp)
   171cb:	48 8d 85 90 e8 ff ff 	lea    -0x1770(%rbp),%rax
   171d2:	48 89 85 80 ed ff ff 	mov    %rax,-0x1280(%rbp)
   171d9:	48 8d 85 90 e8 ff ff 	lea    -0x1770(%rbp),%rax
   171e0:	48 89 85 88 ed ff ff 	mov    %rax,-0x1278(%rbp)
   171e7:	48 c7 85 90 ed ff ff 	movq   $0x0,-0x1270(%rbp)
   171ee:	00 00 00 00 
   171f2:	48 c7 85 98 ed ff ff 	movq   $0x0,-0x1268(%rbp)
   171f9:	00 00 00 00 
   171fd:	48 c7 85 70 ea ff ff 	movq   $0x0,-0x1590(%rbp)
   17204:	00 00 00 00 
   17208:	48 8d 85 a0 ec ff ff 	lea    -0x1360(%rbp),%rax
   1720f:	48 05 90 00 00 00    	add    $0x90,%rax
   17215:	48 89 85 f0 f7 ff ff 	mov    %rax,-0x810(%rbp)
   1721c:	48 8d 85 a0 ec ff ff 	lea    -0x1360(%rbp),%rax
   17223:	48 83 c0 40          	add    $0x40,%rax
   17227:	48 89 85 f8 f7 ff ff 	mov    %rax,-0x808(%rbp)
   1722e:	48 8d 85 a0 ec ff ff 	lea    -0x1360(%rbp),%rax
   17235:	48 83 c0 68          	add    $0x68,%rax
   17239:	48 89 85 00 f8 ff ff 	mov    %rax,-0x800(%rbp)
   17240:	48 8d 85 a0 ec ff ff 	lea    -0x1360(%rbp),%rax
   17247:	48 83 c0 70          	add    $0x70,%rax
   1724b:	48 89 85 08 f8 ff ff 	mov    %rax,-0x7f8(%rbp)
   17252:	48 8d 85 a0 ec ff ff 	lea    -0x1360(%rbp),%rax
   17259:	48 83 c0 40          	add    $0x40,%rax
   1725d:	48 89 85 10 f8 ff ff 	mov    %rax,-0x7f0(%rbp)
   17264:	48 8d 85 a0 ec ff ff 	lea    -0x1360(%rbp),%rax
   1726b:	48 83 c0 68          	add    $0x68,%rax
   1726f:	48 89 85 18 f8 ff ff 	mov    %rax,-0x7e8(%rbp)
   17276:	48 8d 85 a0 ec ff ff 	lea    -0x1360(%rbp),%rax
   1727d:	48 83 c0 40          	add    $0x40,%rax
   17281:	48 89 85 20 f8 ff ff 	mov    %rax,-0x7e0(%rbp)
   17288:	48 8d 85 a0 ec ff ff 	lea    -0x1360(%rbp),%rax
   1728f:	48 83 c0 40          	add    $0x40,%rax
   17293:	48 89 85 28 f8 ff ff 	mov    %rax,-0x7d8(%rbp)
   1729a:	48 8d 85 a0 ec ff ff 	lea    -0x1360(%rbp),%rax
   172a1:	48 83 c0 40          	add    $0x40,%rax
   172a5:	48 89 85 30 f8 ff ff 	mov    %rax,-0x7d0(%rbp)
   172ac:	48 8d 85 a0 ec ff ff 	lea    -0x1360(%rbp),%rax
   172b3:	48 83 c0 58          	add    $0x58,%rax
   172b7:	48 89 85 38 f8 ff ff 	mov    %rax,-0x7c8(%rbp)
   172be:	48 8d 85 a0 ec ff ff 	lea    -0x1360(%rbp),%rax
   172c5:	48 05 88 00 00 00    	add    $0x88,%rax
   172cb:	48 89 85 40 f8 ff ff 	mov    %rax,-0x7c0(%rbp)
   172d2:	48 c7 85 48 f8 ff ff 	movq   $0x0,-0x7b8(%rbp)
   172d9:	00 00 00 00 
   172dd:	48 8d 85 a0 ec ff ff 	lea    -0x1360(%rbp),%rax
   172e4:	48 83 c0 40          	add    $0x40,%rax
   172e8:	48 89 85 50 f8 ff ff 	mov    %rax,-0x7b0(%rbp)
   172ef:	48 8d 85 a0 ec ff ff 	lea    -0x1360(%rbp),%rax
   172f6:	48 05 a0 00 00 00    	add    $0xa0,%rax
   172fc:	48 89 85 58 f8 ff ff 	mov    %rax,-0x7a8(%rbp)
   17303:	48 8d 85 a0 ec ff ff 	lea    -0x1360(%rbp),%rax
   1730a:	48 05 90 00 00 00    	add    $0x90,%rax
   17310:	48 89 85 60 f8 ff ff 	mov    %rax,-0x7a0(%rbp)
   17317:	48 8d 85 a0 ec ff ff 	lea    -0x1360(%rbp),%rax
   1731e:	48 83 c0 70          	add    $0x70,%rax
   17322:	48 89 85 68 f8 ff ff 	mov    %rax,-0x798(%rbp)
   17329:	48 8d 85 a0 ec ff ff 	lea    -0x1360(%rbp),%rax
   17330:	48 83 c0 40          	add    $0x40,%rax
   17334:	48 89 85 70 f8 ff ff 	mov    %rax,-0x790(%rbp)
   1733b:	48 8d 85 a0 ec ff ff 	lea    -0x1360(%rbp),%rax
   17342:	48 83 c0 40          	add    $0x40,%rax
   17346:	48 89 85 78 f8 ff ff 	mov    %rax,-0x788(%rbp)
   1734d:	48 c7 85 80 f8 ff ff 	movq   $0x0,-0x780(%rbp)
   17354:	00 00 00 00 
   17358:	48 8d 85 a0 ec ff ff 	lea    -0x1360(%rbp),%rax
   1735f:	48 83 c0 40          	add    $0x40,%rax
   17363:	48 89 85 88 f8 ff ff 	mov    %rax,-0x778(%rbp)
   1736a:	48 c7 85 90 f8 ff ff 	movq   $0x0,-0x770(%rbp)
   17371:	00 00 00 00 
   17375:	48 8d 85 a0 ec ff ff 	lea    -0x1360(%rbp),%rax
   1737c:	48 05 90 00 00 00    	add    $0x90,%rax
   17382:	48 89 85 98 f8 ff ff 	mov    %rax,-0x768(%rbp)
   17389:	48 c7 85 a0 f8 ff ff 	movq   $0x0,-0x760(%rbp)
   17390:	00 00 00 00 
   17394:	48 c7 85 a8 f8 ff ff 	movq   $0x0,-0x758(%rbp)
   1739b:	00 00 00 00 
   1739f:	48 8d 85 a0 ec ff ff 	lea    -0x1360(%rbp),%rax
   173a6:	48 05 f0 00 00 00    	add    $0xf0,%rax
   173ac:	48 89 85 b0 f8 ff ff 	mov    %rax,-0x750(%rbp)
   173b3:	48 8d 85 a0 ec ff ff 	lea    -0x1360(%rbp),%rax
   173ba:	48 05 90 00 00 00    	add    $0x90,%rax
   173c0:	48 89 85 b8 f8 ff ff 	mov    %rax,-0x748(%rbp)
   173c7:	48 c7 85 c0 f8 ff ff 	movq   $0x0,-0x740(%rbp)
   173ce:	00 00 00 00 
   173d2:	48 8d 85 a0 ec ff ff 	lea    -0x1360(%rbp),%rax
   173d9:	48 83 c0 40          	add    $0x40,%rax
   173dd:	48 89 85 c8 f8 ff ff 	mov    %rax,-0x738(%rbp)
   173e4:	48 c7 85 d0 f8 ff ff 	movq   $0x0,-0x730(%rbp)
   173eb:	00 00 00 00 
   173ef:	48 8d 85 a0 ec ff ff 	lea    -0x1360(%rbp),%rax
   173f6:	48 83 c0 40          	add    $0x40,%rax
   173fa:	48 89 85 d8 f8 ff ff 	mov    %rax,-0x728(%rbp)
   17401:	48 8d 85 a0 ec ff ff 	lea    -0x1360(%rbp),%rax
   17408:	48 05 d8 00 00 00    	add    $0xd8,%rax
   1740e:	48 89 85 e0 f8 ff ff 	mov    %rax,-0x720(%rbp)
   17415:	48 c7 85 e8 f8 ff ff 	movq   $0x0,-0x718(%rbp)
   1741c:	00 00 00 00 
   17420:	48 8d 85 a0 ec ff ff 	lea    -0x1360(%rbp),%rax
   17427:	48 83 c0 70          	add    $0x70,%rax
   1742b:	48 89 85 f0 f8 ff ff 	mov    %rax,-0x710(%rbp)
   17432:	48 c7 85 f8 f8 ff ff 	movq   $0x0,-0x708(%rbp)
   17439:	00 00 00 00 
   1743d:	48 8d 85 a0 ec ff ff 	lea    -0x1360(%rbp),%rax
   17444:	48 05 90 00 00 00    	add    $0x90,%rax
   1744a:	48 89 85 00 f9 ff ff 	mov    %rax,-0x700(%rbp)
   17451:	48 8d 85 a0 ec ff ff 	lea    -0x1360(%rbp),%rax
   17458:	48 83 c0 40          	add    $0x40,%rax
   1745c:	48 89 85 08 f9 ff ff 	mov    %rax,-0x6f8(%rbp)
   17463:	48 8d 85 a0 ec ff ff 	lea    -0x1360(%rbp),%rax
   1746a:	48 83 c0 40          	add    $0x40,%rax
   1746e:	48 89 85 10 f9 ff ff 	mov    %rax,-0x6f0(%rbp)
   17475:	48 8d 85 a0 ec ff ff 	lea    -0x1360(%rbp),%rax
   1747c:	48 05 d8 00 00 00    	add    $0xd8,%rax
   17482:	48 89 85 18 f9 ff ff 	mov    %rax,-0x6e8(%rbp)
   17489:	48 8d 85 a0 ec ff ff 	lea    -0x1360(%rbp),%rax
   17490:	48 83 c0 68          	add    $0x68,%rax
   17494:	48 89 85 20 f9 ff ff 	mov    %rax,-0x6e0(%rbp)
   1749b:	48 c7 85 28 f9 ff ff 	movq   $0x0,-0x6d8(%rbp)
   174a2:	00 00 00 00 
   174a6:	48 8d 85 a0 ec ff ff 	lea    -0x1360(%rbp),%rax
   174ad:	48 83 c0 58          	add    $0x58,%rax
   174b1:	48 89 85 30 f9 ff ff 	mov    %rax,-0x6d0(%rbp)
   174b8:	48 8d 85 a0 ec ff ff 	lea    -0x1360(%rbp),%rax
   174bf:	48 05 f0 00 00 00    	add    $0xf0,%rax
   174c5:	48 89 85 38 f9 ff ff 	mov    %rax,-0x6c8(%rbp)
   174cc:	48 c7 85 40 f9 ff ff 	movq   $0x0,-0x6c0(%rbp)
   174d3:	00 00 00 00 
   174d7:	48 8d 85 a0 ec ff ff 	lea    -0x1360(%rbp),%rax
   174de:	48 83 c0 30          	add    $0x30,%rax
   174e2:	48 89 85 48 f9 ff ff 	mov    %rax,-0x6b8(%rbp)
   174e9:	48 c7 85 50 f9 ff ff 	movq   $0x0,-0x6b0(%rbp)
   174f0:	00 00 00 00 
   174f4:	48 8d 85 a0 ec ff ff 	lea    -0x1360(%rbp),%rax
   174fb:	48 83 c0 40          	add    $0x40,%rax
   174ff:	48 89 85 58 f9 ff ff 	mov    %rax,-0x6a8(%rbp)
   17506:	48 8d 85 a0 ec ff ff 	lea    -0x1360(%rbp),%rax
   1750d:	48 83 c0 40          	add    $0x40,%rax
   17511:	48 89 85 60 f9 ff ff 	mov    %rax,-0x6a0(%rbp)
   17518:	48 8d 85 a0 ec ff ff 	lea    -0x1360(%rbp),%rax
   1751f:	48 83 c0 40          	add    $0x40,%rax
   17523:	48 89 85 68 f9 ff ff 	mov    %rax,-0x698(%rbp)
   1752a:	48 c7 85 70 f9 ff ff 	movq   $0x0,-0x690(%rbp)
   17531:	00 00 00 00 
   17535:	48 8d 85 a0 ec ff ff 	lea    -0x1360(%rbp),%rax
   1753c:	48 83 c0 40          	add    $0x40,%rax
   17540:	48 89 85 78 f9 ff ff 	mov    %rax,-0x688(%rbp)
   17547:	48 8d 85 a0 ec ff ff 	lea    -0x1360(%rbp),%rax
   1754e:	48 83 c0 40          	add    $0x40,%rax
   17552:	48 89 85 80 f9 ff ff 	mov    %rax,-0x680(%rbp)
   17559:	48 8d 85 a0 ec ff ff 	lea    -0x1360(%rbp),%rax
   17560:	48 83 c0 40          	add    $0x40,%rax
   17564:	48 89 85 88 f9 ff ff 	mov    %rax,-0x678(%rbp)
   1756b:	48 8d 85 a0 ec ff ff 	lea    -0x1360(%rbp),%rax
   17572:	48 83 c0 40          	add    $0x40,%rax
   17576:	48 89 85 90 f9 ff ff 	mov    %rax,-0x670(%rbp)
   1757d:	48 c7 85 98 f9 ff ff 	movq   $0x0,-0x668(%rbp)
   17584:	00 00 00 00 
   17588:	48 8d 85 a0 ec ff ff 	lea    -0x1360(%rbp),%rax
   1758f:	48 83 e8 80          	sub    $0xffffffffffffff80,%rax
   17593:	48 89 85 a0 f9 ff ff 	mov    %rax,-0x660(%rbp)
   1759a:	48 8d 85 a0 ec ff ff 	lea    -0x1360(%rbp),%rax
   175a1:	48 83 c0 40          	add    $0x40,%rax
   175a5:	48 89 85 a8 f9 ff ff 	mov    %rax,-0x658(%rbp)
   175ac:	48 8d 85 a0 ec ff ff 	lea    -0x1360(%rbp),%rax
   175b3:	48 83 c0 68          	add    $0x68,%rax
   175b7:	48 89 85 b0 f9 ff ff 	mov    %rax,-0x650(%rbp)
   175be:	48 8d 85 a0 ec ff ff 	lea    -0x1360(%rbp),%rax
   175c5:	48 83 c0 40          	add    $0x40,%rax
   175c9:	48 89 85 b8 f9 ff ff 	mov    %rax,-0x648(%rbp)
   175d0:	48 8d 85 a0 ec ff ff 	lea    -0x1360(%rbp),%rax
   175d7:	48 83 c0 58          	add    $0x58,%rax
   175db:	48 89 85 c0 f9 ff ff 	mov    %rax,-0x640(%rbp)
   175e2:	48 c7 85 c8 f9 ff ff 	movq   $0x0,-0x638(%rbp)
   175e9:	00 00 00 00 
   175ed:	48 8d 85 a0 ec ff ff 	lea    -0x1360(%rbp),%rax
   175f4:	48 05 d8 00 00 00    	add    $0xd8,%rax
   175fa:	48 89 85 d0 f9 ff ff 	mov    %rax,-0x630(%rbp)
   17601:	48 8d 85 a0 ec ff ff 	lea    -0x1360(%rbp),%rax
   17608:	48 83 c0 40          	add    $0x40,%rax
   1760c:	48 89 85 d8 f9 ff ff 	mov    %rax,-0x628(%rbp)
   17613:	48 c7 85 e0 f9 ff ff 	movq   $0x0,-0x620(%rbp)
   1761a:	00 00 00 00 
   1761e:	48 c7 85 e8 f9 ff ff 	movq   $0x0,-0x618(%rbp)
   17625:	00 00 00 00 
   17629:	48 8d 85 a0 ec ff ff 	lea    -0x1360(%rbp),%rax
   17630:	48 05 90 00 00 00    	add    $0x90,%rax
   17636:	48 89 85 f0 f9 ff ff 	mov    %rax,-0x610(%rbp)
   1763d:	48 8d 85 a0 ec ff ff 	lea    -0x1360(%rbp),%rax
   17644:	48 83 c0 68          	add    $0x68,%rax
   17648:	48 89 85 f8 f9 ff ff 	mov    %rax,-0x608(%rbp)
   1764f:	48 8d 85 a0 ec ff ff 	lea    -0x1360(%rbp),%rax
   17656:	48 83 c0 40          	add    $0x40,%rax
   1765a:	48 89 85 00 fa ff ff 	mov    %rax,-0x600(%rbp)
   17661:	48 c7 85 08 fa ff ff 	movq   $0x0,-0x5f8(%rbp)
   17668:	00 00 00 00 
   1766c:	48 8d 85 a0 ec ff ff 	lea    -0x1360(%rbp),%rax
   17673:	48 83 c0 40          	add    $0x40,%rax
   17677:	48 89 85 10 fa ff ff 	mov    %rax,-0x5f0(%rbp)
   1767e:	48 8d 85 a0 ec ff ff 	lea    -0x1360(%rbp),%rax
   17685:	48 05 88 00 00 00    	add    $0x88,%rax
   1768b:	48 89 85 18 fa ff ff 	mov    %rax,-0x5e8(%rbp)
   17692:	48 8d 85 a0 ec ff ff 	lea    -0x1360(%rbp),%rax
   17699:	48 83 c0 28          	add    $0x28,%rax
   1769d:	48 89 85 20 fa ff ff 	mov    %rax,-0x5e0(%rbp)
   176a4:	48 8d 85 a0 ec ff ff 	lea    -0x1360(%rbp),%rax
   176ab:	48 83 c0 40          	add    $0x40,%rax
   176af:	48 89 85 28 fa ff ff 	mov    %rax,-0x5d8(%rbp)
   176b6:	48 8d 85 a0 ec ff ff 	lea    -0x1360(%rbp),%rax
   176bd:	48 83 c0 40          	add    $0x40,%rax
   176c1:	48 89 85 30 fa ff ff 	mov    %rax,-0x5d0(%rbp)
   176c8:	48 8d 85 a0 ec ff ff 	lea    -0x1360(%rbp),%rax
   176cf:	48 83 c0 40          	add    $0x40,%rax
   176d3:	48 89 85 38 fa ff ff 	mov    %rax,-0x5c8(%rbp)
   176da:	48 8d 85 a0 ec ff ff 	lea    -0x1360(%rbp),%rax
   176e1:	48 83 c0 40          	add    $0x40,%rax
   176e5:	48 89 85 40 fa ff ff 	mov    %rax,-0x5c0(%rbp)
   176ec:	48 8d 85 a0 ec ff ff 	lea    -0x1360(%rbp),%rax
   176f3:	48 83 c0 70          	add    $0x70,%rax
   176f7:	48 89 85 48 fa ff ff 	mov    %rax,-0x5b8(%rbp)
   176fe:	48 c7 85 50 fa ff ff 	movq   $0x0,-0x5b0(%rbp)
   17705:	00 00 00 00 
   17709:	48 8d 85 a0 ec ff ff 	lea    -0x1360(%rbp),%rax
   17710:	48 83 c0 40          	add    $0x40,%rax
   17714:	48 89 85 58 fa ff ff 	mov    %rax,-0x5a8(%rbp)
   1771b:	48 8d 85 a0 ec ff ff 	lea    -0x1360(%rbp),%rax
   17722:	48 83 c0 40          	add    $0x40,%rax
   17726:	48 89 85 60 fa ff ff 	mov    %rax,-0x5a0(%rbp)
   1772d:	48 c7 85 68 fa ff ff 	movq   $0x0,-0x598(%rbp)
   17734:	00 00 00 00 
   17738:	48 8d 85 a0 ec ff ff 	lea    -0x1360(%rbp),%rax
   1773f:	48 83 c0 30          	add    $0x30,%rax
   17743:	48 89 85 70 fa ff ff 	mov    %rax,-0x590(%rbp)
   1774a:	48 c7 85 78 fa ff ff 	movq   $0x0,-0x588(%rbp)
   17751:	00 00 00 00 
   17755:	48 8d 85 a0 ec ff ff 	lea    -0x1360(%rbp),%rax
   1775c:	48 83 c0 40          	add    $0x40,%rax
   17760:	48 89 85 80 fa ff ff 	mov    %rax,-0x580(%rbp)
   17767:	48 8d 85 a0 ec ff ff 	lea    -0x1360(%rbp),%rax
   1776e:	48 05 90 00 00 00    	add    $0x90,%rax
   17774:	48 89 85 88 fa ff ff 	mov    %rax,-0x578(%rbp)
   1777b:	48 8d 85 a0 ec ff ff 	lea    -0x1360(%rbp),%rax
   17782:	48 83 c0 40          	add    $0x40,%rax
   17786:	48 89 85 90 fa ff ff 	mov    %rax,-0x570(%rbp)
   1778d:	48 8d 85 a0 ec ff ff 	lea    -0x1360(%rbp),%rax
   17794:	48 83 c0 40          	add    $0x40,%rax
   17798:	48 89 85 98 fa ff ff 	mov    %rax,-0x568(%rbp)
   1779f:	48 c7 85 a0 fa ff ff 	movq   $0x0,-0x560(%rbp)
   177a6:	00 00 00 00 
   177aa:	48 8d 85 a0 ec ff ff 	lea    -0x1360(%rbp),%rax
   177b1:	48 83 c0 40          	add    $0x40,%rax
   177b5:	48 89 85 a8 fa ff ff 	mov    %rax,-0x558(%rbp)
   177bc:	48 8d 85 a0 ec ff ff 	lea    -0x1360(%rbp),%rax
   177c3:	48 83 c0 70          	add    $0x70,%rax
   177c7:	48 89 85 b0 fa ff ff 	mov    %rax,-0x550(%rbp)
   177ce:	48 8d 85 a0 ec ff ff 	lea    -0x1360(%rbp),%rax
   177d5:	48 05 e0 00 00 00    	add    $0xe0,%rax
   177db:	48 89 85 b8 fa ff ff 	mov    %rax,-0x548(%rbp)
   177e2:	48 8d 85 a0 ec ff ff 	lea    -0x1360(%rbp),%rax
   177e9:	48 05 90 00 00 00    	add    $0x90,%rax
   177ef:	48 89 85 c0 fa ff ff 	mov    %rax,-0x540(%rbp)
   177f6:	48 c7 85 c8 fa ff ff 	movq   $0x0,-0x538(%rbp)
   177fd:	00 00 00 00 
   17801:	48 8d 85 a0 ec ff ff 	lea    -0x1360(%rbp),%rax
   17808:	48 83 c0 40          	add    $0x40,%rax
   1780c:	48 89 85 d0 fa ff ff 	mov    %rax,-0x530(%rbp)
   17813:	48 c7 85 d8 fa ff ff 	movq   $0x0,-0x528(%rbp)
   1781a:	00 00 00 00 
   1781e:	48 c7 85 e0 fa ff ff 	movq   $0x0,-0x520(%rbp)
   17825:	00 00 00 00 
   17829:	48 c7 85 e8 fa ff ff 	movq   $0x0,-0x518(%rbp)
   17830:	00 00 00 00 
   17834:	48 c7 85 f0 fa ff ff 	movq   $0x0,-0x510(%rbp)
   1783b:	00 00 00 00 
   1783f:	48 8d 85 a0 ec ff ff 	lea    -0x1360(%rbp),%rax
   17846:	48 83 c0 40          	add    $0x40,%rax
   1784a:	48 89 85 f8 fa ff ff 	mov    %rax,-0x508(%rbp)
   17851:	48 8d 85 a0 ec ff ff 	lea    -0x1360(%rbp),%rax
   17858:	48 83 c0 40          	add    $0x40,%rax
   1785c:	48 89 85 00 fb ff ff 	mov    %rax,-0x500(%rbp)
   17863:	48 8d 85 a0 ec ff ff 	lea    -0x1360(%rbp),%rax
   1786a:	48 83 c0 68          	add    $0x68,%rax
   1786e:	48 89 85 08 fb ff ff 	mov    %rax,-0x4f8(%rbp)
   17875:	48 8d 85 a0 ec ff ff 	lea    -0x1360(%rbp),%rax
   1787c:	48 05 e0 00 00 00    	add    $0xe0,%rax
   17882:	48 89 85 10 fb ff ff 	mov    %rax,-0x4f0(%rbp)
   17889:	48 8d 85 a0 ec ff ff 	lea    -0x1360(%rbp),%rax
   17890:	48 05 e0 00 00 00    	add    $0xe0,%rax
   17896:	48 89 85 18 fb ff ff 	mov    %rax,-0x4e8(%rbp)
   1789d:	48 8d 85 a0 ec ff ff 	lea    -0x1360(%rbp),%rax
   178a4:	48 83 c0 68          	add    $0x68,%rax
   178a8:	48 89 85 20 fb ff ff 	mov    %rax,-0x4e0(%rbp)
   178af:	48 8d 85 a0 ec ff ff 	lea    -0x1360(%rbp),%rax
   178b6:	48 83 c0 40          	add    $0x40,%rax
   178ba:	48 89 85 28 fb ff ff 	mov    %rax,-0x4d8(%rbp)
   178c1:	48 8d 85 a0 ec ff ff 	lea    -0x1360(%rbp),%rax
   178c8:	48 83 c0 40          	add    $0x40,%rax
   178cc:	48 89 85 30 fb ff ff 	mov    %rax,-0x4d0(%rbp)
   178d3:	48 8d 85 a0 ec ff ff 	lea    -0x1360(%rbp),%rax
   178da:	48 83 c0 40          	add    $0x40,%rax
   178de:	48 89 85 38 fb ff ff 	mov    %rax,-0x4c8(%rbp)
   178e5:	48 8d 85 a0 ec ff ff 	lea    -0x1360(%rbp),%rax
   178ec:	48 83 c0 40          	add    $0x40,%rax
   178f0:	48 89 85 40 fb ff ff 	mov    %rax,-0x4c0(%rbp)
   178f7:	48 8d 85 a0 ec ff ff 	lea    -0x1360(%rbp),%rax
   178fe:	48 83 c0 40          	add    $0x40,%rax
   17902:	48 89 85 48 fb ff ff 	mov    %rax,-0x4b8(%rbp)
   17909:	48 8d 85 a0 ec ff ff 	lea    -0x1360(%rbp),%rax
   17910:	48 83 c0 40          	add    $0x40,%rax
   17914:	48 89 85 50 fb ff ff 	mov    %rax,-0x4b0(%rbp)
   1791b:	48 c7 85 58 fb ff ff 	movq   $0x0,-0x4a8(%rbp)
   17922:	00 00 00 00 
   17926:	48 c7 85 60 fb ff ff 	movq   $0x0,-0x4a0(%rbp)
   1792d:	00 00 00 00 
   17931:	48 8d 85 a0 ec ff ff 	lea    -0x1360(%rbp),%rax
   17938:	48 05 e0 00 00 00    	add    $0xe0,%rax
   1793e:	48 89 85 68 fb ff ff 	mov    %rax,-0x498(%rbp)
   17945:	48 8d 85 a0 ec ff ff 	lea    -0x1360(%rbp),%rax
   1794c:	48 05 e0 00 00 00    	add    $0xe0,%rax
   17952:	48 89 85 70 fb ff ff 	mov    %rax,-0x490(%rbp)
   17959:	48 8d 85 a0 ec ff ff 	lea    -0x1360(%rbp),%rax
   17960:	48 83 c0 70          	add    $0x70,%rax
   17964:	48 89 85 78 fb ff ff 	mov    %rax,-0x488(%rbp)
   1796b:	48 8d 85 a0 ec ff ff 	lea    -0x1360(%rbp),%rax
   17972:	48 83 c0 40          	add    $0x40,%rax
   17976:	48 89 85 80 fb ff ff 	mov    %rax,-0x480(%rbp)
   1797d:	48 c7 85 88 fb ff ff 	movq   $0x0,-0x478(%rbp)
   17984:	00 00 00 00 
   17988:	48 8d 85 a0 ec ff ff 	lea    -0x1360(%rbp),%rax
   1798f:	48 83 c0 40          	add    $0x40,%rax
   17993:	48 89 85 90 fb ff ff 	mov    %rax,-0x470(%rbp)
   1799a:	48 8d 85 a0 ec ff ff 	lea    -0x1360(%rbp),%rax
   179a1:	48 83 c0 40          	add    $0x40,%rax
   179a5:	48 89 85 98 fb ff ff 	mov    %rax,-0x468(%rbp)
   179ac:	48 8d 85 a0 ec ff ff 	lea    -0x1360(%rbp),%rax
   179b3:	48 05 a0 00 00 00    	add    $0xa0,%rax
   179b9:	48 89 85 a0 fb ff ff 	mov    %rax,-0x460(%rbp)
   179c0:	48 8d 85 a0 ec ff ff 	lea    -0x1360(%rbp),%rax
   179c7:	48 83 c0 28          	add    $0x28,%rax
   179cb:	48 89 85 a8 fb ff ff 	mov    %rax,-0x458(%rbp)
   179d2:	48 8d 85 a0 ec ff ff 	lea    -0x1360(%rbp),%rax
   179d9:	48 83 c0 40          	add    $0x40,%rax
   179dd:	48 89 85 b0 fb ff ff 	mov    %rax,-0x450(%rbp)
   179e4:	48 8d 85 a0 ec ff ff 	lea    -0x1360(%rbp),%rax
   179eb:	48 83 c0 40          	add    $0x40,%rax
   179ef:	48 89 85 b8 fb ff ff 	mov    %rax,-0x448(%rbp)
   179f6:	48 8d 85 a0 ec ff ff 	lea    -0x1360(%rbp),%rax
   179fd:	48 83 e8 80          	sub    $0xffffffffffffff80,%rax
   17a01:	48 89 85 c0 fb ff ff 	mov    %rax,-0x440(%rbp)
   17a08:	48 8d 85 a0 ec ff ff 	lea    -0x1360(%rbp),%rax
   17a0f:	48 83 c0 58          	add    $0x58,%rax
   17a13:	48 89 85 c8 fb ff ff 	mov    %rax,-0x438(%rbp)
   17a1a:	48 8d 85 a0 ec ff ff 	lea    -0x1360(%rbp),%rax
   17a21:	48 83 c0 30          	add    $0x30,%rax
   17a25:	48 89 85 d0 fb ff ff 	mov    %rax,-0x430(%rbp)
   17a2c:	48 8d 85 a0 ec ff ff 	lea    -0x1360(%rbp),%rax
   17a33:	48 83 c0 40          	add    $0x40,%rax
   17a37:	48 89 85 d8 fb ff ff 	mov    %rax,-0x428(%rbp)
   17a3e:	48 8d 85 a0 ec ff ff 	lea    -0x1360(%rbp),%rax
   17a45:	48 83 c0 20          	add    $0x20,%rax
   17a49:	48 89 85 e0 fb ff ff 	mov    %rax,-0x420(%rbp)
   17a50:	48 8d 85 a0 ec ff ff 	lea    -0x1360(%rbp),%rax
   17a57:	48 83 c0 68          	add    $0x68,%rax
   17a5b:	48 89 85 e8 fb ff ff 	mov    %rax,-0x418(%rbp)
   17a62:	48 8d 85 a0 ec ff ff 	lea    -0x1360(%rbp),%rax
   17a69:	48 83 c0 40          	add    $0x40,%rax
   17a6d:	48 89 85 f0 fb ff ff 	mov    %rax,-0x410(%rbp)
   17a74:	48 8d 85 a0 ec ff ff 	lea    -0x1360(%rbp),%rax
   17a7b:	48 05 f8 00 00 00    	add    $0xf8,%rax
   17a81:	48 89 85 f8 fb ff ff 	mov    %rax,-0x408(%rbp)
   17a88:	48 8d 85 a0 ec ff ff 	lea    -0x1360(%rbp),%rax
   17a8f:	48 05 88 00 00 00    	add    $0x88,%rax
   17a95:	48 89 85 00 fc ff ff 	mov    %rax,-0x400(%rbp)
   17a9c:	48 8d 85 a0 ec ff ff 	lea    -0x1360(%rbp),%rax
   17aa3:	48 83 c0 40          	add    $0x40,%rax
   17aa7:	48 89 85 08 fc ff ff 	mov    %rax,-0x3f8(%rbp)
   17aae:	48 8d 85 a0 ec ff ff 	lea    -0x1360(%rbp),%rax
   17ab5:	48 83 c0 40          	add    $0x40,%rax
   17ab9:	48 89 85 10 fc ff ff 	mov    %rax,-0x3f0(%rbp)
   17ac0:	48 8d 85 a0 ec ff ff 	lea    -0x1360(%rbp),%rax
   17ac7:	48 05 f0 00 00 00    	add    $0xf0,%rax
   17acd:	48 89 85 18 fc ff ff 	mov    %rax,-0x3e8(%rbp)
   17ad4:	48 8d 85 a0 ec ff ff 	lea    -0x1360(%rbp),%rax
   17adb:	48 05 90 00 00 00    	add    $0x90,%rax
   17ae1:	48 89 85 20 fc ff ff 	mov    %rax,-0x3e0(%rbp)
   17ae8:	48 c7 85 28 fc ff ff 	movq   $0x0,-0x3d8(%rbp)
   17aef:	00 00 00 00 
   17af3:	48 8d 85 a0 ec ff ff 	lea    -0x1360(%rbp),%rax
   17afa:	48 83 c0 40          	add    $0x40,%rax
   17afe:	48 89 85 30 fc ff ff 	mov    %rax,-0x3d0(%rbp)
   17b05:	48 8d 85 a0 ec ff ff 	lea    -0x1360(%rbp),%rax
   17b0c:	48 83 c0 28          	add    $0x28,%rax
   17b10:	48 89 85 38 fc ff ff 	mov    %rax,-0x3c8(%rbp)
   17b17:	48 8d 85 a0 ec ff ff 	lea    -0x1360(%rbp),%rax
   17b1e:	48 83 c0 40          	add    $0x40,%rax
   17b22:	48 89 85 40 fc ff ff 	mov    %rax,-0x3c0(%rbp)
   17b29:	48 8d 85 a0 ec ff ff 	lea    -0x1360(%rbp),%rax
   17b30:	48 83 c0 58          	add    $0x58,%rax
   17b34:	48 89 85 48 fc ff ff 	mov    %rax,-0x3b8(%rbp)
   17b3b:	48 8d 85 a0 ec ff ff 	lea    -0x1360(%rbp),%rax
   17b42:	48 83 c0 40          	add    $0x40,%rax
   17b46:	48 89 85 50 fc ff ff 	mov    %rax,-0x3b0(%rbp)
   17b4d:	48 8d 85 a0 ec ff ff 	lea    -0x1360(%rbp),%rax
   17b54:	48 83 c0 20          	add    $0x20,%rax
   17b58:	48 89 85 58 fc ff ff 	mov    %rax,-0x3a8(%rbp)
   17b5f:	48 8d 85 a0 ec ff ff 	lea    -0x1360(%rbp),%rax
   17b66:	48 83 c0 58          	add    $0x58,%rax
   17b6a:	48 89 85 60 fc ff ff 	mov    %rax,-0x3a0(%rbp)
   17b71:	48 8d 85 a0 ec ff ff 	lea    -0x1360(%rbp),%rax
   17b78:	48 83 c0 40          	add    $0x40,%rax
   17b7c:	48 89 85 68 fc ff ff 	mov    %rax,-0x398(%rbp)
   17b83:	48 8d 85 a0 ec ff ff 	lea    -0x1360(%rbp),%rax
   17b8a:	48 83 c0 40          	add    $0x40,%rax
   17b8e:	48 89 85 70 fc ff ff 	mov    %rax,-0x390(%rbp)
   17b95:	48 8d 85 a0 ec ff ff 	lea    -0x1360(%rbp),%rax
   17b9c:	48 83 c0 28          	add    $0x28,%rax
   17ba0:	48 89 85 78 fc ff ff 	mov    %rax,-0x388(%rbp)
   17ba7:	48 8d 85 a0 ec ff ff 	lea    -0x1360(%rbp),%rax
   17bae:	48 05 90 00 00 00    	add    $0x90,%rax
   17bb4:	48 89 85 80 fc ff ff 	mov    %rax,-0x380(%rbp)
   17bbb:	48 c7 85 88 fc ff ff 	movq   $0x0,-0x378(%rbp)
   17bc2:	00 00 00 00 
   17bc6:	48 8d 85 a0 ec ff ff 	lea    -0x1360(%rbp),%rax
   17bcd:	48 83 c0 40          	add    $0x40,%rax
   17bd1:	48 89 85 90 fc ff ff 	mov    %rax,-0x370(%rbp)
   17bd8:	48 8d 85 a0 ec ff ff 	lea    -0x1360(%rbp),%rax
   17bdf:	48 83 c0 40          	add    $0x40,%rax
   17be3:	48 89 85 98 fc ff ff 	mov    %rax,-0x368(%rbp)
   17bea:	48 8d 85 a0 ec ff ff 	lea    -0x1360(%rbp),%rax
   17bf1:	48 05 f8 00 00 00    	add    $0xf8,%rax
   17bf7:	48 89 85 a0 fc ff ff 	mov    %rax,-0x360(%rbp)
   17bfe:	48 8d 85 a0 ec ff ff 	lea    -0x1360(%rbp),%rax
   17c05:	48 83 c0 40          	add    $0x40,%rax
   17c09:	48 89 85 a8 fc ff ff 	mov    %rax,-0x358(%rbp)
   17c10:	48 8d 85 a0 ec ff ff 	lea    -0x1360(%rbp),%rax
   17c17:	48 83 c0 40          	add    $0x40,%rax
   17c1b:	48 89 85 b0 fc ff ff 	mov    %rax,-0x350(%rbp)
   17c22:	48 8d 85 a0 ec ff ff 	lea    -0x1360(%rbp),%rax
   17c29:	48 05 f8 00 00 00    	add    $0xf8,%rax
   17c2f:	48 89 85 b8 fc ff ff 	mov    %rax,-0x348(%rbp)
   17c36:	48 8d 85 a0 ec ff ff 	lea    -0x1360(%rbp),%rax
   17c3d:	48 05 90 00 00 00    	add    $0x90,%rax
   17c43:	48 89 85 c0 fc ff ff 	mov    %rax,-0x340(%rbp)
   17c4a:	48 8d 85 a0 ec ff ff 	lea    -0x1360(%rbp),%rax
   17c51:	48 83 c0 28          	add    $0x28,%rax
   17c55:	48 89 85 c8 fc ff ff 	mov    %rax,-0x338(%rbp)
   17c5c:	48 8d 85 a0 ec ff ff 	lea    -0x1360(%rbp),%rax
   17c63:	48 05 90 00 00 00    	add    $0x90,%rax
   17c69:	48 89 85 d0 fc ff ff 	mov    %rax,-0x330(%rbp)
   17c70:	48 8d 85 a0 ec ff ff 	lea    -0x1360(%rbp),%rax
   17c77:	48 83 e8 80          	sub    $0xffffffffffffff80,%rax
   17c7b:	48 89 85 d8 fc ff ff 	mov    %rax,-0x328(%rbp)
   17c82:	48 8d 85 a0 ec ff ff 	lea    -0x1360(%rbp),%rax
   17c89:	48 05 e0 00 00 00    	add    $0xe0,%rax
   17c8f:	48 89 85 e0 fc ff ff 	mov    %rax,-0x320(%rbp)
   17c96:	48 8d 85 a0 ec ff ff 	lea    -0x1360(%rbp),%rax
   17c9d:	48 83 c0 40          	add    $0x40,%rax
   17ca1:	48 89 85 e8 fc ff ff 	mov    %rax,-0x318(%rbp)
   17ca8:	48 8d 85 a0 ec ff ff 	lea    -0x1360(%rbp),%rax
   17caf:	48 83 c0 40          	add    $0x40,%rax
   17cb3:	48 89 85 f0 fc ff ff 	mov    %rax,-0x310(%rbp)
   17cba:	48 8d 85 a0 ec ff ff 	lea    -0x1360(%rbp),%rax
   17cc1:	48 83 c0 40          	add    $0x40,%rax
   17cc5:	48 89 85 f8 fc ff ff 	mov    %rax,-0x308(%rbp)
   17ccc:	48 8d 85 a0 ec ff ff 	lea    -0x1360(%rbp),%rax
   17cd3:	48 83 c0 58          	add    $0x58,%rax
   17cd7:	48 89 85 00 fd ff ff 	mov    %rax,-0x300(%rbp)
   17cde:	48 8d 85 a0 ec ff ff 	lea    -0x1360(%rbp),%rax
   17ce5:	48 83 c0 70          	add    $0x70,%rax
   17ce9:	48 89 85 08 fd ff ff 	mov    %rax,-0x2f8(%rbp)
   17cf0:	48 c7 85 10 fd ff ff 	movq   $0x0,-0x2f0(%rbp)
   17cf7:	00 00 00 00 
   17cfb:	48 8d 85 a0 ec ff ff 	lea    -0x1360(%rbp),%rax
   17d02:	48 83 e8 80          	sub    $0xffffffffffffff80,%rax
   17d06:	48 89 85 18 fd ff ff 	mov    %rax,-0x2e8(%rbp)
   17d0d:	48 8d 85 a0 ec ff ff 	lea    -0x1360(%rbp),%rax
   17d14:	48 83 c0 40          	add    $0x40,%rax
   17d18:	48 89 85 20 fd ff ff 	mov    %rax,-0x2e0(%rbp)
   17d1f:	48 c7 85 28 fd ff ff 	movq   $0x0,-0x2d8(%rbp)
   17d26:	00 00 00 00 
   17d2a:	48 8d 85 a0 ec ff ff 	lea    -0x1360(%rbp),%rax
   17d31:	48 83 c0 40          	add    $0x40,%rax
   17d35:	48 89 85 30 fd ff ff 	mov    %rax,-0x2d0(%rbp)
   17d3c:	48 c7 85 38 fd ff ff 	movq   $0x0,-0x2c8(%rbp)
   17d43:	00 00 00 00 
   17d47:	48 8d 85 a0 ec ff ff 	lea    -0x1360(%rbp),%rax
   17d4e:	48 05 f8 00 00 00    	add    $0xf8,%rax
   17d54:	48 89 85 40 fd ff ff 	mov    %rax,-0x2c0(%rbp)
   17d5b:	48 8d 85 a0 ec ff ff 	lea    -0x1360(%rbp),%rax
   17d62:	48 83 c0 40          	add    $0x40,%rax
   17d66:	48 89 85 48 fd ff ff 	mov    %rax,-0x2b8(%rbp)
   17d6d:	48 8d 85 a0 ec ff ff 	lea    -0x1360(%rbp),%rax
   17d74:	48 05 90 00 00 00    	add    $0x90,%rax
   17d7a:	48 89 85 50 fd ff ff 	mov    %rax,-0x2b0(%rbp)
   17d81:	48 8d 85 a0 ec ff ff 	lea    -0x1360(%rbp),%rax
   17d88:	48 83 c0 40          	add    $0x40,%rax
   17d8c:	48 89 85 58 fd ff ff 	mov    %rax,-0x2a8(%rbp)
   17d93:	48 8d 85 a0 ec ff ff 	lea    -0x1360(%rbp),%rax
   17d9a:	48 83 c0 40          	add    $0x40,%rax
   17d9e:	48 89 85 60 fd ff ff 	mov    %rax,-0x2a0(%rbp)
   17da5:	48 c7 85 68 fd ff ff 	movq   $0x0,-0x298(%rbp)
   17dac:	00 00 00 00 
   17db0:	48 8d 85 a0 ec ff ff 	lea    -0x1360(%rbp),%rax
   17db7:	48 83 c0 40          	add    $0x40,%rax
   17dbb:	48 89 85 70 fd ff ff 	mov    %rax,-0x290(%rbp)
   17dc2:	48 c7 85 78 fd ff ff 	movq   $0x0,-0x288(%rbp)
   17dc9:	00 00 00 00 
   17dcd:	48 8d 85 a0 ec ff ff 	lea    -0x1360(%rbp),%rax
   17dd4:	48 05 e0 00 00 00    	add    $0xe0,%rax
   17dda:	48 89 85 80 fd ff ff 	mov    %rax,-0x280(%rbp)
   17de1:	48 8d 85 a0 ec ff ff 	lea    -0x1360(%rbp),%rax
   17de8:	48 83 c0 70          	add    $0x70,%rax
   17dec:	48 89 85 88 fd ff ff 	mov    %rax,-0x278(%rbp)
   17df3:	48 8d 85 a0 ec ff ff 	lea    -0x1360(%rbp),%rax
   17dfa:	48 83 c0 40          	add    $0x40,%rax
   17dfe:	48 89 85 90 fd ff ff 	mov    %rax,-0x270(%rbp)
   17e05:	48 8d 85 a0 ec ff ff 	lea    -0x1360(%rbp),%rax
   17e0c:	48 83 c0 20          	add    $0x20,%rax
   17e10:	48 89 85 98 fd ff ff 	mov    %rax,-0x268(%rbp)
   17e17:	48 8d 85 a0 ec ff ff 	lea    -0x1360(%rbp),%rax
   17e1e:	48 83 e8 80          	sub    $0xffffffffffffff80,%rax
   17e22:	48 89 85 a0 fd ff ff 	mov    %rax,-0x260(%rbp)
   17e29:	48 8d 85 a0 ec ff ff 	lea    -0x1360(%rbp),%rax
   17e30:	48 83 c0 40          	add    $0x40,%rax
   17e34:	48 89 85 a8 fd ff ff 	mov    %rax,-0x258(%rbp)
   17e3b:	48 8d 85 a0 ec ff ff 	lea    -0x1360(%rbp),%rax
   17e42:	48 83 c0 40          	add    $0x40,%rax
   17e46:	48 89 85 b0 fd ff ff 	mov    %rax,-0x250(%rbp)
   17e4d:	48 c7 85 b8 fd ff ff 	movq   $0x0,-0x248(%rbp)
   17e54:	00 00 00 00 
   17e58:	48 8d 85 a0 ec ff ff 	lea    -0x1360(%rbp),%rax
   17e5f:	48 83 c0 40          	add    $0x40,%rax
   17e63:	48 89 85 c0 fd ff ff 	mov    %rax,-0x240(%rbp)
   17e6a:	48 8d 85 a0 ec ff ff 	lea    -0x1360(%rbp),%rax
   17e71:	48 83 c0 28          	add    $0x28,%rax
   17e75:	48 89 85 c8 fd ff ff 	mov    %rax,-0x238(%rbp)
   17e7c:	48 8d 85 a0 ec ff ff 	lea    -0x1360(%rbp),%rax
   17e83:	48 83 c0 40          	add    $0x40,%rax
   17e87:	48 89 85 d0 fd ff ff 	mov    %rax,-0x230(%rbp)
   17e8e:	48 8d 85 a0 ec ff ff 	lea    -0x1360(%rbp),%rax
   17e95:	48 83 c0 40          	add    $0x40,%rax
   17e99:	48 89 85 d8 fd ff ff 	mov    %rax,-0x228(%rbp)
   17ea0:	48 8d 85 a0 ec ff ff 	lea    -0x1360(%rbp),%rax
   17ea7:	48 05 88 00 00 00    	add    $0x88,%rax
   17ead:	48 89 85 e0 fd ff ff 	mov    %rax,-0x220(%rbp)
   17eb4:	48 8d 85 a0 ec ff ff 	lea    -0x1360(%rbp),%rax
   17ebb:	48 83 c0 40          	add    $0x40,%rax
   17ebf:	48 89 85 e8 fd ff ff 	mov    %rax,-0x218(%rbp)
   17ec6:	48 8d 85 a0 ec ff ff 	lea    -0x1360(%rbp),%rax
   17ecd:	48 83 c0 40          	add    $0x40,%rax
   17ed1:	48 89 85 f0 fd ff ff 	mov    %rax,-0x210(%rbp)
   17ed8:	48 c7 85 f8 fd ff ff 	movq   $0x0,-0x208(%rbp)
   17edf:	00 00 00 00 
   17ee3:	48 8d 85 a0 ec ff ff 	lea    -0x1360(%rbp),%rax
   17eea:	48 83 c0 40          	add    $0x40,%rax
   17eee:	48 89 85 00 fe ff ff 	mov    %rax,-0x200(%rbp)
   17ef5:	48 c7 85 08 fe ff ff 	movq   $0x0,-0x1f8(%rbp)
   17efc:	00 00 00 00 
   17f00:	48 8b 85 e0 ec ff ff 	mov    -0x1320(%rbp),%rax
   17f07:	48 89 05 92 a5 00 00 	mov    %rax,0xa592(%rip)        # 224a0 <g_1499>
   17f0e:	48 8b 05 8b a5 00 00 	mov    0xa58b(%rip),%rax        # 224a0 <g_1499>
   17f15:	48 89 85 40 eb ff ff 	mov    %rax,-0x14c0(%rbp)
   17f1c:	0f b6 85 fc e7 ff ff 	movzbl -0x1804(%rbp),%eax
   17f23:	83 e8 01             	sub    $0x1,%eax
   17f26:	88 85 fc e7 ff ff    	mov    %al,-0x1804(%rbp)
   17f2c:	0f b6 05 91 72 00 00 	movzbl 0x7291(%rip),%eax        # 1f1c4 <g_718>
   17f33:	83 c0 01             	add    $0x1,%eax
   17f36:	88 05 88 72 00 00    	mov    %al,0x7288(%rip)        # 1f1c4 <g_718>
   17f3c:	0f b6 05 81 72 00 00 	movzbl 0x7281(%rip),%eax        # 1f1c4 <g_718>
   17f43:	3c 05                	cmp    $0x5,%al
   17f45:	0f 8e 16 f1 ff ff    	jle    17061 <func_76+0x199d>
   17f4b:	8b 85 1c e8 ff ff    	mov    -0x17e4(%rbp),%eax
   17f51:	83 c0 01             	add    $0x1,%eax
   17f54:	89 85 1c e8 ff ff    	mov    %eax,-0x17e4(%rbp)
   17f5a:	8b 85 1c e8 ff ff    	mov    -0x17e4(%rbp),%eax
   17f60:	83 f8 05             	cmp    $0x5,%eax
   17f63:	0f 86 ec f0 ff ff    	jbe    17055 <func_76+0x1991>
   17f69:	8b 85 e4 e7 ff ff    	mov    -0x181c(%rbp),%eax
   17f6f:	0f be d8             	movsbl %al,%ebx
   17f72:	48 8b 85 00 e9 ff ff 	mov    -0x1700(%rbp),%rax
   17f79:	48 8d 14 c5 00 00 00 	lea    0x0(,%rax,8),%rdx
   17f80:	00 
   17f81:	48 8d 05 58 72 00 00 	lea    0x7258(%rip),%rax        # 1f1e0 <g_871>
   17f88:	48 8b 04 02          	mov    (%rdx,%rax,1),%rax
   17f8c:	48 8b 85 00 e9 ff ff 	mov    -0x1700(%rbp),%rax
   17f93:	48 8d 14 c5 00 00 00 	lea    0x0(,%rax,8),%rdx
   17f9a:	00 
   17f9b:	48 8d 05 3e 72 00 00 	lea    0x723e(%rip),%rax        # 1f1e0 <g_871>
   17fa2:	48 8b 04 02          	mov    (%rdx,%rax,1),%rax
   17fa6:	48 85 c0             	test   %rax,%rax
   17fa9:	0f 85 8b 01 00 00    	jne    1813a <func_76+0x2a76>
   17faf:	83 bd e4 e7 ff ff 00 	cmpl   $0x0,-0x181c(%rbp)
   17fb6:	0f 85 7e 01 00 00    	jne    1813a <func_76+0x2a76>
   17fbc:	8b 85 e4 e7 ff ff    	mov    -0x181c(%rbp),%eax
   17fc2:	48 89 85 c0 e7 ff ff 	mov    %rax,-0x1840(%rbp)
   17fc9:	0f b6 85 fc e7 ff ff 	movzbl -0x1804(%rbp),%eax
   17fd0:	44 0f b6 e0          	movzbl %al,%r12d
   17fd4:	0f b6 85 fc e7 ff ff 	movzbl -0x1804(%rbp),%eax
   17fdb:	44 0f b6 e8          	movzbl %al,%r13d
   17fdf:	48 8b 85 30 e9 ff ff 	mov    -0x16d0(%rbp),%rax
   17fe6:	48 8b 00             	mov    (%rax),%rax
   17fe9:	8b 00                	mov    (%rax),%eax
   17feb:	44 0f be f0          	movsbl %al,%r14d
   17fef:	48 8b 85 40 e9 ff ff 	mov    -0x16c0(%rbp),%rax
   17ff6:	8b 00                	mov    (%rax),%eax
   17ff8:	44 0f bf f8          	movswl %ax,%r15d
   17ffc:	8b 85 64 e8 ff ff    	mov    -0x179c(%rbp),%eax
   18002:	89 85 e0 e7 ff ff    	mov    %eax,-0x1820(%rbp)
   18008:	0f b6 85 fc e7 ff ff 	movzbl -0x1804(%rbp),%eax
   1800f:	0f b6 d0             	movzbl %al,%edx
   18012:	81 bd e4 e7 ff ff 15 	cmpl   $0xa3a8e715,-0x181c(%rbp)
   18019:	e7 a8 a3 
   1801c:	0f 96 c0             	setbe  %al
   1801f:	0f b6 c8             	movzbl %al,%ecx
   18022:	48 8b 85 00 e9 ff ff 	mov    -0x1700(%rbp),%rax
   18029:	48 8d 34 c5 00 00 00 	lea    0x0(,%rax,8),%rsi
   18030:	00 
   18031:	48 8d 05 a8 71 00 00 	lea    0x71a8(%rip),%rax        # 1f1e0 <g_871>
   18038:	48 8b 04 06          	mov    (%rsi,%rax,1),%rax
   1803c:	48 39 c1             	cmp    %rax,%rcx
   1803f:	0f 97 c0             	seta   %al
   18042:	0f b6 c0             	movzbl %al,%eax
   18045:	89 d6                	mov    %edx,%esi
   18047:	89 c7                	mov    %eax,%edi
   18049:	e8 1e 23 ff ff       	callq  a36c <safe_rshift_func_int8_t_s_u>
   1804e:	8b b5 e0 e7 ff ff    	mov    -0x1820(%rbp),%esi
   18054:	bf 01 00 00 00       	mov    $0x1,%edi
   18059:	e8 83 24 ff ff       	callq  a4e1 <safe_lshift_func_int16_t_s_u>
   1805e:	98                   	cwtl   
   1805f:	44 89 fe             	mov    %r15d,%esi
   18062:	89 c7                	mov    %eax,%edi
   18064:	e8 ad 23 ff ff       	callq  a416 <safe_mod_func_int16_t_s_s>
   18069:	66 85 c0             	test   %ax,%ax
   1806c:	74 10                	je     1807e <func_76+0x29ba>
   1806e:	83 bd 64 e8 ff ff 00 	cmpl   $0x0,-0x179c(%rbp)
   18075:	74 07                	je     1807e <func_76+0x29ba>
   18077:	ba 01 00 00 00       	mov    $0x1,%edx
   1807c:	eb 05                	jmp    18083 <func_76+0x29bf>
   1807e:	ba 00 00 00 00       	mov    $0x0,%edx
   18083:	48 8b 05 be 99 00 00 	mov    0x99be(%rip),%rax        # 21a48 <g_174>
   1808a:	66 89 10             	mov    %dx,(%rax)
   1808d:	0f b7 00             	movzwl (%rax),%eax
   18090:	66 3d 70 41          	cmp    $0x4170,%ax
   18094:	0f 96 c0             	setbe  %al
   18097:	0f b6 d0             	movzbl %al,%edx
   1809a:	48 8b 05 57 a2 00 00 	mov    0xa257(%rip),%rax        # 222f8 <g_1356>
   180a1:	48 8b 00             	mov    (%rax),%rax
   180a4:	48 8b 00             	mov    (%rax),%rax
   180a7:	48 39 c2             	cmp    %rax,%rdx
   180aa:	0f 95 c0             	setne  %al
   180ad:	0f b6 c0             	movzbl %al,%eax
   180b0:	8b 95 e4 e7 ff ff    	mov    -0x181c(%rbp),%edx
   180b6:	89 d6                	mov    %edx,%esi
   180b8:	89 c7                	mov    %eax,%edi
   180ba:	e8 ff 2b ff ff       	callq  acbe <safe_rshift_func_uint8_t_u_u>
   180bf:	48 83 bd 58 e9 ff ff 	cmpq   $0x0,-0x16a8(%rbp)
   180c6:	00 
   180c7:	0f 95 c0             	setne  %al
   180ca:	0f b6 c0             	movzbl %al,%eax
   180cd:	44 89 f6             	mov    %r14d,%esi
   180d0:	89 c7                	mov    %eax,%edi
   180d2:	e8 3b 21 ff ff       	callq  a212 <safe_mul_func_int8_t_s_s>
   180d7:	0f be d0             	movsbl %al,%edx
   180da:	0f b7 05 3f 71 00 00 	movzwl 0x713f(%rip),%eax        # 1f220 <g_1483>
   180e1:	98                   	cwtl   
   180e2:	89 d6                	mov    %edx,%esi
   180e4:	89 c7                	mov    %eax,%edi
   180e6:	e8 78 24 ff ff       	callq  a563 <safe_rshift_func_int16_t_s_u>
   180eb:	48 8b 05 ee 96 00 00 	mov    0x96ee(%rip),%rax        # 217e0 <g_57>
   180f2:	8b 00                	mov    (%rax),%eax
   180f4:	98                   	cwtl   
   180f5:	83 e0 07             	and    $0x7,%eax
   180f8:	44 89 ee             	mov    %r13d,%esi
   180fb:	89 c7                	mov    %eax,%edi
   180fd:	e8 b1 22 ff ff       	callq  a3b3 <safe_add_func_int16_t_s_s>
   18102:	48 0f bf c0          	movswq %ax,%rax
   18106:	4c 89 e6             	mov    %r12,%rsi
   18109:	48 89 c7             	mov    %rax,%rdi
   1810c:	e8 3a 2f ff ff       	callq  b04b <safe_sub_func_uint64_t_u_u>
   18111:	89 c2                	mov    %eax,%edx
   18113:	48 8b 85 f0 e9 ff ff 	mov    -0x1610(%rbp),%rax
   1811a:	66 89 10             	mov    %dx,(%rax)
   1811d:	48 8b 85 f0 e9 ff ff 	mov    -0x1610(%rbp),%rax
   18124:	0f b7 00             	movzwl (%rax),%eax
   18127:	48 0f bf c0          	movswq %ax,%rax
   1812b:	48 0d 45 c6 00 00    	or     $0xc645,%rax
   18131:	48 39 85 c0 e7 ff ff 	cmp    %rax,-0x1840(%rbp)
   18138:	74 07                	je     18141 <func_76+0x2a7d>
   1813a:	ba 01 00 00 00       	mov    $0x1,%edx
   1813f:	eb 05                	jmp    18146 <func_76+0x2a82>
   18141:	ba 00 00 00 00       	mov    $0x0,%edx
   18146:	48 8b 85 b0 e8 ff ff 	mov    -0x1750(%rbp),%rax
   1814d:	48 8b 00             	mov    (%rax),%rax
   18150:	48 63 d2             	movslq %edx,%rdx
   18153:	48 89 10             	mov    %rdx,(%rax)
   18156:	48 8b 00             	mov    (%rax),%rax
   18159:	83 e0 01             	and    $0x1,%eax
   1815c:	48 89 c2             	mov    %rax,%rdx
   1815f:	48 b8 3c ae 46 c8 8b 	movabs $0x5323738bc846ae3c,%rax
   18166:	73 23 53 
   18169:	48 39 c2             	cmp    %rax,%rdx
   1816c:	0f 9f c0             	setg   %al
   1816f:	0f b6 c0             	movzbl %al,%eax
   18172:	89 de                	mov    %ebx,%esi
   18174:	89 c7                	mov    %eax,%edi
   18176:	e8 ef 20 ff ff       	callq  a26a <safe_div_func_int8_t_s_s>
   1817b:	0f b6 95 fc e7 ff ff 	movzbl -0x1804(%rbp),%edx
   18182:	48 8b 05 3f 9a 00 00 	mov    0x9a3f(%rip),%rax        # 21bc8 <g_301>
   18189:	0f b6 d2             	movzbl %dl,%edx
   1818c:	89 10                	mov    %edx,(%rax)
   1818e:	c6 85 fc e7 ff ff 00 	movb   $0x0,-0x1804(%rbp)
   18195:	e9 3a 08 00 00       	jmpq   189d4 <func_76+0x3310>
   1819a:	48 c7 85 40 ea ff ff 	movq   $0x0,-0x15c0(%rbp)
   181a1:	00 00 00 00 
   181a5:	c7 85 3c e8 ff ff 00 	movl   $0x0,-0x17c4(%rbp)
   181ac:	00 00 00 
   181af:	eb 1a                	jmp    181cb <func_76+0x2b07>
   181b1:	8b 85 3c e8 ff ff    	mov    -0x17c4(%rbp),%eax
   181b7:	48 98                	cltq   
   181b9:	c7 84 85 a0 ec ff ff 	movl   $0x5f5818a4,-0x1360(%rbp,%rax,4)
   181c0:	a4 18 58 5f 
   181c4:	83 85 3c e8 ff ff 01 	addl   $0x1,-0x17c4(%rbp)
   181cb:	83 bd 3c e8 ff ff 07 	cmpl   $0x7,-0x17c4(%rbp)
   181d2:	7e dd                	jle    181b1 <func_76+0x2aed>
   181d4:	48 8b 85 68 eb ff ff 	mov    -0x1498(%rbp),%rax
   181db:	89 85 c0 e7 ff ff    	mov    %eax,-0x1840(%rbp)
   181e1:	48 8b 05 60 98 00 00 	mov    0x9860(%rip),%rax        # 21a48 <g_174>
   181e8:	0f b7 00             	movzwl (%rax),%eax
   181eb:	0f bf d8             	movswl %ax,%ebx
   181ee:	0f b6 85 fc e7 ff ff 	movzbl -0x1804(%rbp),%eax
   181f5:	0f b6 c0             	movzbl %al,%eax
   181f8:	83 c0 02             	add    $0x2,%eax
   181fb:	48 63 d0             	movslq %eax,%rdx
   181fe:	48 8d 0c d5 00 00 00 	lea    0x0(,%rdx,8),%rcx
   18205:	00 
   18206:	48 8d 15 73 6e 00 00 	lea    0x6e73(%rip),%rdx        # 1f080 <g_199>
   1820d:	48 8b 14 11          	mov    (%rcx,%rdx,1),%rdx
   18211:	48 8d 72 01          	lea    0x1(%rdx),%rsi
   18215:	48 63 d0             	movslq %eax,%rdx
   18218:	48 8d 0c d5 00 00 00 	lea    0x0(,%rdx,8),%rcx
   1821f:	00 
   18220:	48 8d 15 59 6e 00 00 	lea    0x6e59(%rip),%rdx        # 1f080 <g_199>
   18227:	48 89 34 11          	mov    %rsi,(%rcx,%rdx,1)
   1822b:	48 98                	cltq   
   1822d:	48 8d 14 c5 00 00 00 	lea    0x0(,%rax,8),%rdx
   18234:	00 
   18235:	48 8d 05 44 6e 00 00 	lea    0x6e44(%rip),%rax        # 1f080 <g_199>
   1823c:	4c 8b 3c 02          	mov    (%rdx,%rax,1),%r15
   18240:	8b 85 e4 e7 ff ff    	mov    -0x181c(%rbp),%eax
   18246:	44 0f be e0          	movsbl %al,%r12d
   1824a:	48 8b 05 f7 97 00 00 	mov    0x97f7(%rip),%rax        # 21a48 <g_174>
   18251:	0f b7 00             	movzwl (%rax),%eax
   18254:	44 0f b7 e8          	movzwl %ax,%r13d
   18258:	48 8b 05 e9 97 00 00 	mov    0x97e9(%rip),%rax        # 21a48 <g_174>
   1825f:	0f b7 00             	movzwl (%rax),%eax
   18262:	44 0f b7 f0          	movzwl %ax,%r14d
   18266:	48 8b 85 18 e9 ff ff 	mov    -0x16e8(%rbp),%rax
   1826d:	48 8b 00             	mov    (%rax),%rax
   18270:	48 8b 00             	mov    (%rax),%rax
   18273:	8b 00                	mov    (%rax),%eax
   18275:	89 85 e0 e7 ff ff    	mov    %eax,-0x1820(%rbp)
   1827b:	be ff ff ff ff       	mov    $0xffffffff,%esi
   18280:	bf 6a 6e 00 00       	mov    $0x6e6a,%edi
   18285:	e8 cb 21 ff ff       	callq  a455 <safe_div_func_int16_t_s_s>
   1828a:	98                   	cwtl   
   1828b:	33 85 e0 e7 ff ff    	xor    -0x1820(%rbp),%eax
   18291:	89 85 e0 e7 ff ff    	mov    %eax,-0x1820(%rbp)
   18297:	48 8b 85 f0 e9 ff ff 	mov    -0x1610(%rbp),%rax
   1829e:	0f b7 10             	movzwl (%rax),%edx
   182a1:	0f b6 85 fc e7 ff ff 	movzbl -0x1804(%rbp),%eax
   182a8:	0f b6 c0             	movzbl %al,%eax
   182ab:	31 c2                	xor    %eax,%edx
   182ad:	48 8b 85 f0 e9 ff ff 	mov    -0x1610(%rbp),%rax
   182b4:	66 89 10             	mov    %dx,(%rax)
   182b7:	48 8b 85 f0 e9 ff ff 	mov    -0x1610(%rbp),%rax
   182be:	0f b7 00             	movzwl (%rax),%eax
   182c1:	66 89 05 f0 6e 00 00 	mov    %ax,0x6ef0(%rip)        # 1f1b8 <g_486>
   182c8:	0f b7 05 e9 6e 00 00 	movzwl 0x6ee9(%rip),%eax        # 1f1b8 <g_486>
   182cf:	0f be c0             	movsbl %al,%eax
   182d2:	be be ff ff ff       	mov    $0xffffffbe,%esi
   182d7:	89 c7                	mov    %eax,%edi
   182d9:	e8 8c 1f ff ff       	callq  a26a <safe_div_func_int8_t_s_s>
   182de:	66 98                	cbtw   
   182e0:	0f b7 c0             	movzwl %ax,%eax
   182e3:	be 09 00 00 00       	mov    $0x9,%esi
   182e8:	89 c7                	mov    %eax,%edi
   182ea:	e8 8b 2b ff ff       	callq  ae7a <safe_rshift_func_uint16_t_u_u>
   182ef:	0f b7 c0             	movzwl %ax,%eax
   182f2:	8b 95 e0 e7 ff ff    	mov    -0x1820(%rbp),%edx
   182f8:	31 c2                	xor    %eax,%edx
   182fa:	48 83 bd c8 e9 ff ff 	cmpq   $0x0,-0x1638(%rbp)
   18301:	00 
   18302:	0f 94 c0             	sete   %al
   18305:	0f b6 c0             	movzbl %al,%eax
   18308:	39 c2                	cmp    %eax,%edx
   1830a:	0f 94 c0             	sete   %al
   1830d:	0f b6 c0             	movzbl %al,%eax
   18310:	44 89 f6             	mov    %r14d,%esi
   18313:	89 c7                	mov    %eax,%edi
   18315:	e8 60 2b ff ff       	callq  ae7a <safe_rshift_func_uint16_t_u_u>
   1831a:	0f b6 85 fc e7 ff ff 	movzbl -0x1804(%rbp),%eax
   18321:	0f b6 d0             	movzbl %al,%edx
   18324:	0f b6 85 fc e7 ff ff 	movzbl -0x1804(%rbp),%eax
   1832b:	0f b6 c0             	movzbl %al,%eax
   1832e:	83 c0 03             	add    $0x3,%eax
   18331:	48 98                	cltq   
   18333:	48 63 d2             	movslq %edx,%rdx
   18336:	48 c1 e2 02          	shl    $0x2,%rdx
   1833a:	48 8d 4d d0          	lea    -0x30(%rbp),%rcx
   1833e:	48 01 ca             	add    %rcx,%rdx
   18341:	48 01 d0             	add    %rdx,%rax
   18344:	48 2d e0 14 00 00    	sub    $0x14e0,%rax
   1834a:	0f b6 00             	movzbl (%rax),%eax
   1834d:	0f b6 d0             	movzbl %al,%edx
   18350:	48 8b 85 00 e9 ff ff 	mov    -0x1700(%rbp),%rax
   18357:	48 8d 0c c5 00 00 00 	lea    0x0(,%rax,8),%rcx
   1835e:	00 
   1835f:	48 8d 05 7a 6e 00 00 	lea    0x6e7a(%rip),%rax        # 1f1e0 <g_871>
   18366:	48 8b 04 01          	mov    (%rcx,%rax,1),%rax
   1836a:	48 39 c2             	cmp    %rax,%rdx
   1836d:	0f 93 c0             	setae  %al
   18370:	0f b6 d0             	movzbl %al,%edx
   18373:	8b 85 ac ec ff ff    	mov    -0x1354(%rbp),%eax
   18379:	21 d0                	and    %edx,%eax
   1837b:	89 85 ac ec ff ff    	mov    %eax,-0x1354(%rbp)
   18381:	8b 85 ac ec ff ff    	mov    -0x1354(%rbp),%eax
   18387:	0f b7 c0             	movzwl %ax,%eax
   1838a:	44 89 ee             	mov    %r13d,%esi
   1838d:	89 c7                	mov    %eax,%edi
   1838f:	e8 6b 29 ff ff       	callq  acff <safe_add_func_uint16_t_u_u>
   18394:	be 03 00 00 00       	mov    $0x3,%esi
   18399:	bf 00 00 00 00       	mov    $0x0,%edi
   1839e:	e8 fe 1e ff ff       	callq  a2a1 <safe_lshift_func_int8_t_s_s>
   183a3:	0f be c0             	movsbl %al,%eax
   183a6:	0d 5e d1 93 84       	or     $0x8493d15e,%eax
   183ab:	89 85 64 e8 ff ff    	mov    %eax,-0x179c(%rbp)
   183b1:	48 8b 85 40 e9 ff ff 	mov    -0x16c0(%rbp),%rax
   183b8:	8b 00                	mov    (%rax),%eax
   183ba:	39 85 64 e8 ff ff    	cmp    %eax,-0x179c(%rbp)
   183c0:	0f 95 c0             	setne  %al
   183c3:	0f b6 d0             	movzbl %al,%edx
   183c6:	0f b6 85 fc e7 ff ff 	movzbl -0x1804(%rbp),%eax
   183cd:	0f b6 c8             	movzbl %al,%ecx
   183d0:	0f b6 85 fc e7 ff ff 	movzbl -0x1804(%rbp),%eax
   183d7:	0f b6 c0             	movzbl %al,%eax
   183da:	83 c0 03             	add    $0x3,%eax
   183dd:	48 98                	cltq   
   183df:	48 63 c9             	movslq %ecx,%rcx
   183e2:	48 c1 e1 02          	shl    $0x2,%rcx
   183e6:	48 8d 7d d0          	lea    -0x30(%rbp),%rdi
   183ea:	48 01 f9             	add    %rdi,%rcx
   183ed:	48 01 c8             	add    %rcx,%rax
   183f0:	48 2d e0 14 00 00    	sub    $0x14e0,%rax
   183f6:	0f b6 00             	movzbl (%rax),%eax
   183f9:	0f b6 c0             	movzbl %al,%eax
   183fc:	48 89 d6             	mov    %rdx,%rsi
   183ff:	48 89 c7             	mov    %rax,%rdi
   18402:	e8 44 2c ff ff       	callq  b04b <safe_sub_func_uint64_t_u_u>
   18407:	8b 95 58 f3 ff ff    	mov    -0xca8(%rbp),%edx
   1840d:	48 63 d2             	movslq %edx,%rdx
   18410:	48 39 d0             	cmp    %rdx,%rax
   18413:	0f 92 c0             	setb   %al
   18416:	0f b6 d0             	movzbl %al,%edx
   18419:	b8 fa ff ff ff       	mov    $0xfffffffa,%eax
   1841e:	0f b7 c0             	movzwl %ax,%eax
   18421:	39 c2                	cmp    %eax,%edx
   18423:	0f 9c c0             	setl   %al
   18426:	0f b6 c0             	movzbl %al,%eax
   18429:	44 89 e6             	mov    %r12d,%esi
   1842c:	89 c7                	mov    %eax,%edi
   1842e:	e8 df 1d ff ff       	callq  a212 <safe_mul_func_int8_t_s_s>
   18433:	48 0f be c0          	movsbq %al,%rax
   18437:	49 39 c7             	cmp    %rax,%r15
   1843a:	0f 94 c0             	sete   %al
   1843d:	0f b6 d0             	movzbl %al,%edx
   18440:	0f b7 85 ce eb ff ff 	movzwl -0x1432(%rbp),%eax
   18447:	21 d0                	and    %edx,%eax
   18449:	98                   	cwtl   
   1844a:	89 de                	mov    %ebx,%esi
   1844c:	89 c7                	mov    %eax,%edi
   1844e:	e8 80 1f ff ff       	callq  a3d3 <safe_sub_func_int16_t_s_s>
   18453:	98                   	cwtl   
   18454:	8b b5 c0 e7 ff ff    	mov    -0x1840(%rbp),%esi
   1845a:	89 c7                	mov    %eax,%edi
   1845c:	e8 80 20 ff ff       	callq  a4e1 <safe_lshift_func_int16_t_s_u>
   18461:	8b 85 b4 ec ff ff    	mov    -0x134c(%rbp),%eax
   18467:	85 c0                	test   %eax,%eax
   18469:	0f 84 e6 03 00 00    	je     18855 <func_76+0x3191>
   1846f:	c6 85 01 e8 ff ff a6 	movb   $0xa6,-0x17ff(%rbp)
   18476:	48 8d 85 20 eb ff ff 	lea    -0x14e0(%rbp),%rax
   1847d:	48 83 c0 20          	add    $0x20,%rax
   18481:	48 89 85 58 ea ff ff 	mov    %rax,-0x15a8(%rbp)
   18488:	c7 85 80 e8 ff ff 08 	movl   $0x8,-0x1780(%rbp)
   1848f:	00 00 00 
   18492:	48 8d 05 cf 6b 00 00 	lea    0x6bcf(%rip),%rax        # 1f068 <g_111>
   18499:	48 89 85 f0 f7 ff ff 	mov    %rax,-0x810(%rbp)
   184a0:	48 8d 05 c1 6b 00 00 	lea    0x6bc1(%rip),%rax        # 1f068 <g_111>
   184a7:	48 89 85 f8 f7 ff ff 	mov    %rax,-0x808(%rbp)
   184ae:	48 8d 05 b3 6b 00 00 	lea    0x6bb3(%rip),%rax        # 1f068 <g_111>
   184b5:	48 89 85 00 f8 ff ff 	mov    %rax,-0x800(%rbp)
   184bc:	48 8d 05 a5 6b 00 00 	lea    0x6ba5(%rip),%rax        # 1f068 <g_111>
   184c3:	48 89 85 08 f8 ff ff 	mov    %rax,-0x7f8(%rbp)
   184ca:	48 8d 85 f0 ea ff ff 	lea    -0x1510(%rbp),%rax
   184d1:	48 83 c0 19          	add    $0x19,%rax
   184d5:	48 89 85 d8 e8 ff ff 	mov    %rax,-0x1728(%rbp)
   184dc:	48 8d 85 d8 e8 ff ff 	lea    -0x1728(%rbp),%rax
   184e3:	48 89 85 e0 e8 ff ff 	mov    %rax,-0x1720(%rbp)
   184ea:	48 8d 85 e0 e8 ff ff 	lea    -0x1720(%rbp),%rax
   184f1:	48 89 85 e8 e8 ff ff 	mov    %rax,-0x1718(%rbp)
   184f8:	48 8d 85 e8 e8 ff ff 	lea    -0x1718(%rbp),%rax
   184ff:	48 89 85 60 ea ff ff 	mov    %rax,-0x15a0(%rbp)
   18506:	48 c7 85 68 ea ff ff 	movq   $0x0,-0x1598(%rbp)
   1850d:	00 00 00 00 
   18511:	c7 85 40 e8 ff ff 00 	movl   $0x0,-0x17c0(%rbp)
   18518:	00 00 00 
   1851b:	eb 1a                	jmp    18537 <func_76+0x2e73>
   1851d:	8b 85 40 e8 ff ff    	mov    -0x17c0(%rbp),%eax
   18523:	48 98                	cltq   
   18525:	c7 84 85 d0 ea ff ff 	movl   $0xffffffff,-0x1530(%rbp,%rax,4)
   1852c:	ff ff ff ff 
   18530:	83 85 40 e8 ff ff 01 	addl   $0x1,-0x17c0(%rbp)
   18537:	83 bd 40 e8 ff ff 04 	cmpl   $0x4,-0x17c0(%rbp)
   1853e:	7e dd                	jle    1851d <func_76+0x2e59>
   18540:	48 8b 85 18 e9 ff ff 	mov    -0x16e8(%rbp),%rax
   18547:	48 8b 00             	mov    (%rax),%rax
   1854a:	48 8b 00             	mov    (%rax),%rax
   1854d:	8b 00                	mov    (%rax),%eax
   1854f:	41 89 c4             	mov    %eax,%r12d
   18552:	8b 85 e4 e7 ff ff    	mov    -0x181c(%rbp),%eax
   18558:	0f b6 d0             	movzbl %al,%edx
   1855b:	48 8b 85 00 e9 ff ff 	mov    -0x1700(%rbp),%rax
   18562:	48 8d 0c c5 00 00 00 	lea    0x0(,%rax,8),%rcx
   18569:	00 
   1856a:	48 8d 05 6f 6c 00 00 	lea    0x6c6f(%rip),%rax        # 1f1e0 <g_871>
   18571:	48 8b 04 01          	mov    (%rcx,%rax,1),%rax
   18575:	0f b6 c0             	movzbl %al,%eax
   18578:	89 d6                	mov    %edx,%esi
   1857a:	89 c7                	mov    %eax,%edi
   1857c:	e8 d9 25 ff ff       	callq  ab5a <safe_add_func_uint8_t_u_u>
   18581:	0f b6 d8             	movzbl %al,%ebx
   18584:	48 8b 05 25 9f 00 00 	mov    0x9f25(%rip),%rax        # 224b0 <g_1564>
   1858b:	48 85 c0             	test   %rax,%rax
   1858e:	0f 94 c0             	sete   %al
   18591:	0f b6 c0             	movzbl %al,%eax
   18594:	48 be 7d 0a 7a 5c 6c 	movabs $0x777fb6c5c7a0a7d,%rsi
   1859b:	fb 77 07 
   1859e:	48 89 c7             	mov    %rax,%rdi
   185a1:	e8 a5 2a ff ff       	callq  b04b <safe_sub_func_uint64_t_u_u>
   185a6:	48 8b 15 43 9d 00 00 	mov    0x9d43(%rip),%rdx        # 222f0 <g_1357>
   185ad:	48 8b 12             	mov    (%rdx),%rdx
   185b0:	48 39 d0             	cmp    %rdx,%rax
   185b3:	0f 95 c0             	setne  %al
   185b6:	0f b6 c0             	movzbl %al,%eax
   185b9:	39 c3                	cmp    %eax,%ebx
   185bb:	0f 9d c0             	setge  %al
   185be:	0f b6 c0             	movzbl %al,%eax
   185c1:	39 85 e4 e7 ff ff    	cmp    %eax,-0x181c(%rbp)
   185c7:	0f 92 c0             	setb   %al
   185ca:	0f b6 d0             	movzbl %al,%edx
   185cd:	66 0f be 85 01 e8 ff 	movsbw -0x17ff(%rbp),%ax
   185d4:	ff 
   185d5:	31 d0                	xor    %edx,%eax
   185d7:	44 09 e0             	or     %r12d,%eax
   185da:	0f bf d0             	movswl %ax,%edx
   185dd:	8b 85 58 f3 ff ff    	mov    -0xca8(%rbp),%eax
   185e3:	98                   	cwtl   
   185e4:	89 d6                	mov    %edx,%esi
   185e6:	89 c7                	mov    %eax,%edi
   185e8:	e8 29 1e ff ff       	callq  a416 <safe_mod_func_int16_t_s_s>
   185ed:	98                   	cwtl   
   185ee:	89 85 1c f3 ff ff    	mov    %eax,-0xce4(%rbp)
   185f4:	0f be 95 01 e8 ff ff 	movsbl -0x17ff(%rbp),%edx
   185fb:	48 8d 05 9e 9e 00 00 	lea    0x9e9e(%rip),%rax        # 224a0 <g_1499>
   18602:	48 39 85 58 ea ff ff 	cmp    %rax,-0x15a8(%rbp)
   18609:	0f 95 c0             	setne  %al
   1860c:	0f b6 c0             	movzbl %al,%eax
   1860f:	39 c2                	cmp    %eax,%edx
   18611:	0f 9c c0             	setl   %al
   18614:	0f b6 c8             	movzbl %al,%ecx
   18617:	48 8b 05 aa 95 00 00 	mov    0x95aa(%rip),%rax        # 21bc8 <g_301>
   1861e:	8b 10                	mov    (%rax),%edx
   18620:	48 8b 05 a1 95 00 00 	mov    0x95a1(%rip),%rax        # 21bc8 <g_301>
   18627:	21 ca                	and    %ecx,%edx
   18629:	89 10                	mov    %edx,(%rax)
   1862b:	8b 00                	mov    (%rax),%eax
   1862d:	89 85 80 e8 ff ff    	mov    %eax,-0x1780(%rbp)
   18633:	8b 95 80 e8 ff ff    	mov    -0x1780(%rbp),%edx
   18639:	48 8b 85 d0 e7 ff ff 	mov    -0x1830(%rbp),%rax
   18640:	8b 00                	mov    (%rax),%eax
   18642:	09 c2                	or     %eax,%edx
   18644:	48 8b 85 d0 e7 ff ff 	mov    -0x1830(%rbp),%rax
   1864b:	89 10                	mov    %edx,(%rax)
   1864d:	0f b7 05 cc 6b 00 00 	movzwl 0x6bcc(%rip),%eax        # 1f220 <g_1483>
   18654:	0f bf d8             	movswl %ax,%ebx
   18657:	0f b6 85 fc e7 ff ff 	movzbl -0x1804(%rbp),%eax
   1865e:	0f b6 c0             	movzbl %al,%eax
   18661:	83 c0 02             	add    $0x2,%eax
   18664:	48 98                	cltq   
   18666:	48 8d 14 c5 00 00 00 	lea    0x0(,%rax,8),%rdx
   1866d:	00 
   1866e:	48 8d 05 0b 6a 00 00 	lea    0x6a0b(%rip),%rax        # 1f080 <g_199>
   18675:	48 8b 04 02          	mov    (%rdx,%rax,1),%rax
   18679:	41 89 c4             	mov    %eax,%r12d
   1867c:	48 8b 85 00 e9 ff ff 	mov    -0x1700(%rbp),%rax
   18683:	48 8d 14 c5 00 00 00 	lea    0x0(,%rax,8),%rdx
   1868a:	00 
   1868b:	48 8d 05 4e 6b 00 00 	lea    0x6b4e(%rip),%rax        # 1f1e0 <g_871>
   18692:	48 8b 04 02          	mov    (%rdx,%rax,1),%rax
   18696:	be 04 00 00 00       	mov    $0x4,%esi
   1869b:	bf ae 55 00 00       	mov    $0x55ae,%edi
   186a0:	e8 be 1e ff ff       	callq  a563 <safe_rshift_func_int16_t_s_u>
   186a5:	0f b6 d0             	movzbl %al,%edx
   186a8:	8b 85 80 e8 ff ff    	mov    -0x1780(%rbp),%eax
   186ae:	0f b6 c0             	movzbl %al,%eax
   186b1:	89 d6                	mov    %edx,%esi
   186b3:	89 c7                	mov    %eax,%edi
   186b5:	e8 21 25 ff ff       	callq  abdb <safe_div_func_uint8_t_u_u>
   186ba:	48 8b 05 87 93 00 00 	mov    0x9387(%rip),%rax        # 21a48 <g_174>
   186c1:	0f b7 00             	movzwl (%rax),%eax
   186c4:	0f b7 c0             	movzwl %ax,%eax
   186c7:	be 00 00 00 00       	mov    $0x0,%esi
   186cc:	89 c7                	mov    %eax,%edi
   186ce:	e8 4c 26 ff ff       	callq  ad1f <safe_sub_func_uint16_t_u_u>
   186d3:	0f b6 85 fc e7 ff ff 	movzbl -0x1804(%rbp),%eax
   186da:	0f b6 d0             	movzbl %al,%edx
   186dd:	0f b6 85 fc e7 ff ff 	movzbl -0x1804(%rbp),%eax
   186e4:	0f b6 c0             	movzbl %al,%eax
   186e7:	83 c0 03             	add    $0x3,%eax
   186ea:	48 98                	cltq   
   186ec:	48 63 d2             	movslq %edx,%rdx
   186ef:	48 c1 e2 02          	shl    $0x2,%rdx
   186f3:	48 8d 4d d0          	lea    -0x30(%rbp),%rcx
   186f7:	48 01 ca             	add    %rcx,%rdx
   186fa:	48 01 d0             	add    %rdx,%rax
   186fd:	48 2d e0 14 00 00    	sub    $0x14e0,%rax
   18703:	0f b6 00             	movzbl (%rax),%eax
   18706:	83 c8 01             	or     $0x1,%eax
   18709:	3c 05                	cmp    $0x5,%al
   1870b:	0f 94 c2             	sete   %dl
   1870e:	48 8b 85 90 e8 ff ff 	mov    -0x1770(%rbp),%rax
   18715:	0f b6 d2             	movzbl %dl,%edx
   18718:	89 10                	mov    %edx,(%rax)
   1871a:	8b 00                	mov    (%rax),%eax
   1871c:	85 c0                	test   %eax,%eax
   1871e:	be 00 00 00 00       	mov    $0x0,%esi
   18723:	bf 09 00 00 00       	mov    $0x9,%edi
   18728:	e8 60 25 ff ff       	callq  ac8d <safe_rshift_func_uint8_t_u_s>
   1872d:	48 b8 aa c2 80 b4 39 	movabs $0xcc06539b480c2aa,%rax
   18734:	65 c0 0c 
   18737:	48 89 05 da 6a 00 00 	mov    %rax,0x6ada(%rip)        # 1f218 <g_1378>
   1873e:	48 8b 05 d3 6a 00 00 	mov    0x6ad3(%rip),%rax        # 1f218 <g_1378>
   18745:	48 89 c6             	mov    %rax,%rsi
   18748:	bf 01 00 00 00       	mov    $0x1,%edi
   1874d:	e8 dc 28 ff ff       	callq  b02e <safe_add_func_uint64_t_u_u>
   18752:	89 c2                	mov    %eax,%edx
   18754:	8b 85 80 e8 ff ff    	mov    -0x1780(%rbp),%eax
   1875a:	f7 d0                	not    %eax
   1875c:	89 d6                	mov    %edx,%esi
   1875e:	89 c7                	mov    %eax,%edi
   18760:	e8 98 27 ff ff       	callq  aefd <safe_mod_func_uint32_t_u_u>
   18765:	41 89 c5             	mov    %eax,%r13d
   18768:	b8 13 5a 00 00       	mov    $0x5a13,%eax
   1876d:	98                   	cwtl   
   1876e:	be 01 00 00 00       	mov    $0x1,%esi
   18773:	89 c7                	mov    %eax,%edi
   18775:	e8 67 1d ff ff       	callq  a4e1 <safe_lshift_func_int16_t_s_u>
   1877a:	89 c2                	mov    %eax,%edx
   1877c:	48 8b 05 6d 9b 00 00 	mov    0x9b6d(%rip),%rax        # 222f0 <g_1357>
   18783:	48 0f bf d2          	movswq %dx,%rdx
   18787:	48 89 10             	mov    %rdx,(%rax)
   1878a:	48 8b 00             	mov    (%rax),%rax
   1878d:	4c 89 ee             	mov    %r13,%rsi
   18790:	48 89 c7             	mov    %rax,%rdi
   18793:	e8 1c 22 ff ff       	callq  a9b4 <safe_mod_func_int64_t_s_s>
   18798:	89 c1                	mov    %eax,%ecx
   1879a:	8b 95 e4 e7 ff ff    	mov    -0x181c(%rbp),%edx
   187a0:	48 8b 05 d1 99 00 00 	mov    0x99d1(%rip),%rax        # 22178 <g_1289>
   187a7:	48 8b 00             	mov    (%rax),%rax
   187aa:	09 ca                	or     %ecx,%edx
   187ac:	89 10                	mov    %edx,(%rax)
   187ae:	44 89 e6             	mov    %r12d,%esi
   187b1:	bf 03 00 00 00       	mov    $0x3,%edi
   187b6:	e8 6a 27 ff ff       	callq  af25 <safe_div_func_uint32_t_u_u>
   187bb:	98                   	cwtl   
   187bc:	89 de                	mov    %ebx,%esi
   187be:	89 c7                	mov    %eax,%edi
   187c0:	e8 cd 1c ff ff       	callq  a492 <safe_lshift_func_int16_t_s_s>
   187c5:	8b 95 d8 ea ff ff    	mov    -0x1528(%rbp),%edx
   187cb:	98                   	cwtl   
   187cc:	21 d0                	and    %edx,%eax
   187ce:	89 85 d8 ea ff ff    	mov    %eax,-0x1528(%rbp)
   187d4:	8b 95 d8 ea ff ff    	mov    -0x1528(%rbp),%edx
   187da:	0f b7 85 ce eb ff ff 	movzwl -0x1432(%rbp),%eax
   187e1:	98                   	cwtl   
   187e2:	39 c2                	cmp    %eax,%edx
   187e4:	0f 9e c0             	setle  %al
   187e7:	0f b6 c8             	movzbl %al,%ecx
   187ea:	48 8b 05 d7 93 00 00 	mov    0x93d7(%rip),%rax        # 21bc8 <g_301>
   187f1:	8b 10                	mov    (%rax),%edx
   187f3:	48 8b 05 ce 93 00 00 	mov    0x93ce(%rip),%rax        # 21bc8 <g_301>
   187fa:	21 ca                	and    %ecx,%edx
   187fc:	89 10                	mov    %edx,(%rax)
   187fe:	c7 05 b8 69 00 00 00 	movl   $0x0,0x69b8(%rip)        # 1f1c0 <g_523>
   18805:	00 00 00 
   18808:	90                   	nop
   18809:	8b 05 b1 69 00 00    	mov    0x69b1(%rip),%eax        # 1f1c0 <g_523>
   1880f:	83 f8 08             	cmp    $0x8,%eax
   18812:	0f 8f 53 01 00 00    	jg     1896b <func_76+0x32a7>
   18818:	48 8b 85 68 ea ff ff 	mov    -0x1598(%rbp),%rax
   1881f:	48 89 85 60 e9 ff ff 	mov    %rax,-0x16a0(%rbp)
   18826:	48 8b 85 60 e9 ff ff 	mov    -0x16a0(%rbp),%rax
   1882d:	48 3b 85 60 ea ff ff 	cmp    -0x15a0(%rbp),%rax
   18834:	0f 94 c2             	sete   %dl
   18837:	48 8b 05 8a 93 00 00 	mov    0x938a(%rip),%rax        # 21bc8 <g_301>
   1883e:	0f b6 d2             	movzbl %dl,%edx
   18841:	89 10                	mov    %edx,(%rax)
   18843:	48 8b 05 ae 9a 00 00 	mov    0x9aae(%rip),%rax        # 222f8 <g_1356>
   1884a:	48 8b 00             	mov    (%rax),%rax
   1884d:	48 8b 00             	mov    (%rax),%rax
   18850:	e9 81 03 00 00       	jmpq   18bd6 <func_76+0x3512>
   18855:	48 8d 85 a0 ec ff ff 	lea    -0x1360(%rbp),%rax
   1885c:	48 83 c0 10          	add    $0x10,%rax
   18860:	48 89 85 48 ea ff ff 	mov    %rax,-0x15b8(%rbp)
   18867:	48 8b 05 5a 93 00 00 	mov    0x935a(%rip),%rax        # 21bc8 <g_301>
   1886e:	8b 08                	mov    (%rax),%ecx
   18870:	48 8b 85 d0 e7 ff ff 	mov    -0x1830(%rbp),%rax
   18877:	8b 10                	mov    (%rax),%edx
   18879:	48 8b 05 48 93 00 00 	mov    0x9348(%rip),%rax        # 21bc8 <g_301>
   18880:	09 ca                	or     %ecx,%edx
   18882:	89 10                	mov    %edx,(%rax)
   18884:	8b 00                	mov    (%rax),%eax
   18886:	09 85 38 e8 ff ff    	or     %eax,-0x17c8(%rbp)
   1888c:	c7 05 a2 67 00 00 07 	movl   $0x7,0x67a2(%rip)        # 1f038 <g_73>
   18893:	00 00 00 
   18896:	e9 a6 00 00 00       	jmpq   18941 <func_76+0x327d>
   1889b:	48 b8 a2 02 8f 42 3f 	movabs $0x389c4b3f428f02a2,%rax
   188a2:	4b 9c 38 
   188a5:	48 89 85 50 ea ff ff 	mov    %rax,-0x15b0(%rbp)
   188ac:	48 8b 05 05 9c 00 00 	mov    0x9c05(%rip),%rax        # 224b8 <g_1600>
   188b3:	48 8b 95 c8 e7 ff ff 	mov    -0x1838(%rbp),%rdx
   188ba:	48 89 10             	mov    %rdx,(%rax)
   188bd:	48 8b 85 50 ea ff ff 	mov    -0x15b0(%rbp),%rax
   188c4:	89 85 38 e8 ff ff    	mov    %eax,-0x17c8(%rbp)
   188ca:	48 8b 05 df 9b 00 00 	mov    0x9bdf(%rip),%rax        # 224b0 <g_1564>
   188d1:	48 8b 00             	mov    (%rax),%rax
   188d4:	48 39 85 d0 e9 ff ff 	cmp    %rax,-0x1630(%rbp)
   188db:	0f 94 c0             	sete   %al
   188de:	0f b6 c0             	movzbl %al,%eax
   188e1:	8b 95 e4 e7 ff ff    	mov    -0x181c(%rbp),%edx
   188e7:	09 d0                	or     %edx,%eax
   188e9:	0f bf d8             	movswl %ax,%ebx
   188ec:	be 07 00 00 00       	mov    $0x7,%esi
   188f1:	bf fa ff ff ff       	mov    $0xfffffffa,%edi
   188f6:	e8 71 1a ff ff       	callq  a36c <safe_rshift_func_int8_t_s_u>
   188fb:	0f be c0             	movsbl %al,%eax
   188fe:	89 de                	mov    %ebx,%esi
   18900:	89 c7                	mov    %eax,%edi
   18902:	e8 0f 1b ff ff       	callq  a416 <safe_mod_func_int16_t_s_s>
   18907:	48 8b 15 12 98 00 00 	mov    0x9812(%rip),%rdx        # 22120 <g_774>
   1890e:	48 8b 12             	mov    (%rdx),%rdx
   18911:	8b 0a                	mov    (%rdx),%ecx
   18913:	0f bf d0             	movswl %ax,%edx
   18916:	48 8b 05 03 98 00 00 	mov    0x9803(%rip),%rax        # 22120 <g_774>
   1891d:	48 8b 00             	mov    (%rax),%rax
   18920:	21 ca                	and    %ecx,%edx
   18922:	89 10                	mov    %edx,(%rax)
   18924:	48 8b 85 e8 e7 ff ff 	mov    -0x1818(%rbp),%rax
   1892b:	48 89 85 48 ea ff ff 	mov    %rax,-0x15b8(%rbp)
   18932:	8b 05 00 67 00 00    	mov    0x6700(%rip),%eax        # 1f038 <g_73>
   18938:	83 e8 01             	sub    $0x1,%eax
   1893b:	89 05 f7 66 00 00    	mov    %eax,0x66f7(%rip)        # 1f038 <g_73>
   18941:	8b 05 f1 66 00 00    	mov    0x66f1(%rip),%eax        # 1f038 <g_73>
   18947:	83 f8 01             	cmp    $0x1,%eax
   1894a:	0f 8f 4b ff ff ff    	jg     1889b <func_76+0x31d7>
   18950:	48 8b 85 60 e9 ff ff 	mov    -0x16a0(%rbp),%rax
   18957:	48 8b 00             	mov    (%rax),%rax
   1895a:	48 c7 00 00 00 00 00 	movq   $0x0,(%rax)
   18961:	8b 85 a0 ec ff ff    	mov    -0x1360(%rbp),%eax
   18967:	85 c0                	test   %eax,%eax
   18969:	75 58                	jne    189c3 <func_76+0x32ff>
   1896b:	48 c7 85 f8 e8 ff ff 	movq   $0x0,-0x1708(%rbp)
   18972:	00 00 00 00 
   18976:	eb 3f                	jmp    189b7 <func_76+0x32f3>
   18978:	66 c7 85 02 e8 ff ff 	movw   $0x0,-0x17fe(%rbp)
   1897f:	00 00 
   18981:	eb 22                	jmp    189a5 <func_76+0x32e1>
   18983:	0f b7 05 96 68 00 00 	movzwl 0x6896(%rip),%eax        # 1f220 <g_1483>
   1898a:	66 85 c0             	test   %ax,%ax
   1898d:	74 05                	je     18994 <func_76+0x32d0>
   1898f:	e9 73 dd ff ff       	jmpq   16707 <func_76+0x1043>
   18994:	0f b7 85 02 e8 ff ff 	movzwl -0x17fe(%rbp),%eax
   1899b:	83 c0 01             	add    $0x1,%eax
   1899e:	66 89 85 02 e8 ff ff 	mov    %ax,-0x17fe(%rbp)
   189a5:	66 83 bd 02 e8 ff ff 	cmpw   $0x1,-0x17fe(%rbp)
   189ac:	01 
   189ad:	7e d4                	jle    18983 <func_76+0x32bf>
   189af:	48 83 85 f8 e8 ff ff 	addq   $0x1,-0x1708(%rbp)
   189b6:	01 
   189b7:	48 83 bd f8 e8 ff ff 	cmpq   $0x1,-0x1708(%rbp)
   189be:	01 
   189bf:	7e b7                	jle    18978 <func_76+0x32b4>
   189c1:	eb 01                	jmp    189c4 <func_76+0x3300>
   189c3:	90                   	nop
   189c4:	0f b6 85 fc e7 ff ff 	movzbl -0x1804(%rbp),%eax
   189cb:	83 c0 01             	add    $0x1,%eax
   189ce:	88 85 fc e7 ff ff    	mov    %al,-0x1804(%rbp)
   189d4:	0f b6 85 fc e7 ff ff 	movzbl -0x1804(%rbp),%eax
   189db:	84 c0                	test   %al,%al
   189dd:	0f 84 b7 f7 ff ff    	je     1819a <func_76+0x2ad6>
   189e3:	c6 85 fd e7 ff ff 07 	movb   $0x7,-0x1803(%rbp)
   189ea:	e9 8b 01 00 00       	jmpq   18b7a <func_76+0x34b6>
   189ef:	48 8d 85 fb e7 ff ff 	lea    -0x1805(%rbp),%rax
   189f6:	48 89 85 08 ea ff ff 	mov    %rax,-0x15f8(%rbp)
   189fd:	48 8d 05 cc 99 00 00 	lea    0x99cc(%rip),%rax        # 223d0 <g_1500+0xb0>
   18a04:	48 89 85 10 ea ff ff 	mov    %rax,-0x15f0(%rbp)
   18a0b:	48 8d 85 f0 ea ff ff 	lea    -0x1510(%rbp),%rax
   18a12:	48 83 c0 19          	add    $0x19,%rax
   18a16:	48 89 85 18 ea ff ff 	mov    %rax,-0x15e8(%rbp)
   18a1d:	48 8d 85 fc e7 ff ff 	lea    -0x1804(%rbp),%rax
   18a24:	48 89 85 f0 f7 ff ff 	mov    %rax,-0x810(%rbp)
   18a2b:	48 8d 85 fc e7 ff ff 	lea    -0x1804(%rbp),%rax
   18a32:	48 89 85 f8 f7 ff ff 	mov    %rax,-0x808(%rbp)
   18a39:	48 8d 85 f0 ea ff ff 	lea    -0x1510(%rbp),%rax
   18a40:	48 83 c0 19          	add    $0x19,%rax
   18a44:	48 89 85 00 f8 ff ff 	mov    %rax,-0x800(%rbp)
   18a4b:	48 8d 85 fc e7 ff ff 	lea    -0x1804(%rbp),%rax
   18a52:	48 89 85 08 f8 ff ff 	mov    %rax,-0x7f8(%rbp)
   18a59:	48 8d 85 fc e7 ff ff 	lea    -0x1804(%rbp),%rax
   18a60:	48 89 85 10 f8 ff ff 	mov    %rax,-0x7f0(%rbp)
   18a67:	48 8d 85 f0 ea ff ff 	lea    -0x1510(%rbp),%rax
   18a6e:	48 83 c0 19          	add    $0x19,%rax
   18a72:	48 89 85 18 f8 ff ff 	mov    %rax,-0x7e8(%rbp)
   18a79:	48 8d 85 fc e7 ff ff 	lea    -0x1804(%rbp),%rax
   18a80:	48 89 85 20 f8 ff ff 	mov    %rax,-0x7e0(%rbp)
   18a87:	48 8d 85 fc e7 ff ff 	lea    -0x1804(%rbp),%rax
   18a8e:	48 89 85 28 f8 ff ff 	mov    %rax,-0x7d8(%rbp)
   18a95:	48 8d 85 f0 f7 ff ff 	lea    -0x810(%rbp),%rax
   18a9c:	48 89 85 20 ea ff ff 	mov    %rax,-0x15e0(%rbp)
   18aa3:	c7 85 68 e8 ff ff 01 	movl   $0x1,-0x1798(%rbp)
   18aaa:	00 00 00 
   18aad:	48 c7 85 a0 ec ff ff 	movq   $0x0,-0x1360(%rbp)
   18ab4:	00 00 00 00 
   18ab8:	48 c7 85 a8 ec ff ff 	movq   $0x0,-0x1358(%rbp)
   18abf:	00 00 00 00 
   18ac3:	48 c7 85 b0 ec ff ff 	movq   $0x0,-0x1350(%rbp)
   18aca:	00 00 00 00 
   18ace:	48 c7 85 b8 ec ff ff 	movq   $0x0,-0x1348(%rbp)
   18ad5:	00 00 00 00 
   18ad9:	48 c7 85 28 ea ff ff 	movq   $0x0,-0x15d8(%rbp)
   18ae0:	00 00 00 00 
   18ae4:	48 8d 05 45 67 00 00 	lea    0x6745(%rip),%rax        # 1f230 <g_1641>
   18aeb:	48 89 85 30 ea ff ff 	mov    %rax,-0x15d0(%rbp)
   18af2:	c7 85 6c e8 ff ff 01 	movl   $0x1,-0x1794(%rbp)
   18af9:	00 00 00 
   18afc:	c7 85 70 e8 ff ff 03 	movl   $0x3,-0x1790(%rbp)
   18b03:	00 00 00 
   18b06:	c7 85 74 e8 ff ff 03 	movl   $0x3,-0x178c(%rbp)
   18b0d:	00 00 00 
   18b10:	c7 85 78 e8 ff ff 31 	movl   $0x75b69a31,-0x1788(%rbp)
   18b17:	9a b6 75 
   18b1a:	c7 85 7c e8 ff ff a1 	movl   $0xe0271da1,-0x1784(%rbp)
   18b21:	1d 27 e0 
   18b24:	66 c7 85 0e e8 ff ff 	movw   $0x0,-0x17f2(%rbp)
   18b2b:	00 00 
   18b2d:	48 8d 85 c8 e8 ff ff 	lea    -0x1738(%rbp),%rax
   18b34:	48 89 85 38 ea ff ff 	mov    %rax,-0x15c8(%rbp)
   18b3b:	c7 85 44 e8 ff ff 00 	movl   $0x0,-0x17bc(%rbp)
   18b42:	00 00 00 
   18b45:	eb 1a                	jmp    18b61 <func_76+0x349d>
   18b47:	8b 85 44 e8 ff ff    	mov    -0x17bc(%rbp),%eax
   18b4d:	48 98                	cltq   
   18b4f:	c7 84 85 d0 ea ff ff 	movl   $0x6,-0x1530(%rbp,%rax,4)
   18b56:	06 00 00 00 
   18b5a:	83 85 44 e8 ff ff 01 	addl   $0x1,-0x17bc(%rbp)
   18b61:	83 bd 44 e8 ff ff 02 	cmpl   $0x2,-0x17bc(%rbp)
   18b68:	7e dd                	jle    18b47 <func_76+0x3483>
   18b6a:	0f b6 85 fd e7 ff ff 	movzbl -0x1803(%rbp),%eax
   18b71:	83 e8 01             	sub    $0x1,%eax
   18b74:	88 85 fd e7 ff ff    	mov    %al,-0x1803(%rbp)
   18b7a:	80 bd fd e7 ff ff 00 	cmpb   $0x0,-0x1803(%rbp)
   18b81:	0f 89 68 fe ff ff    	jns    189ef <func_76+0x332b>
   18b87:	48 83 85 00 e9 ff ff 	addq   $0x1,-0x1700(%rbp)
   18b8e:	01 
   18b8f:	48 83 bd 00 e9 ff ff 	cmpq   $0x5,-0x1700(%rbp)
   18b96:	05 
   18b97:	0f 86 bd e2 ff ff    	jbe    16e5a <func_76+0x1796>
   18b9d:	0f b6 05 6c 65 00 00 	movzbl 0x656c(%rip),%eax        # 1f110 <g_253>
   18ba4:	0f be c0             	movsbl %al,%eax
   18ba7:	be 07 00 00 00       	mov    $0x7,%esi
   18bac:	89 c7                	mov    %eax,%edi
   18bae:	e8 21 16 ff ff       	callq  a1d4 <safe_add_func_int8_t_s_s>
   18bb3:	88 05 57 65 00 00    	mov    %al,0x6557(%rip)        # 1f110 <g_253>
   18bb9:	0f b6 05 50 65 00 00 	movzbl 0x6550(%rip),%eax        # 1f110 <g_253>
   18bc0:	3c 22                	cmp    $0x22,%al
   18bc2:	0f 87 4c de ff ff    	ja     16a14 <func_76+0x1350>
   18bc8:	48 8b 85 30 e9 ff ff 	mov    -0x16d0(%rbp),%rax
   18bcf:	48 8b 00             	mov    (%rax),%rax
   18bd2:	8b 00                	mov    (%rax),%eax
   18bd4:	48 98                	cltq   
   18bd6:	48 8b 5d c8          	mov    -0x38(%rbp),%rbx
   18bda:	64 48 33 1c 25 28 00 	xor    %fs:0x28,%rbx
   18be1:	00 00 
   18be3:	74 05                	je     18bea <func_76+0x3526>
   18be5:	e8 86 14 ff ff       	callq  a070 <__stack_chk_fail@plt>
   18bea:	48 81 c4 18 18 00 00 	add    $0x1818,%rsp
   18bf1:	5b                   	pop    %rbx
   18bf2:	41 5c                	pop    %r12
   18bf4:	41 5d                	pop    %r13
   18bf6:	41 5e                	pop    %r14
   18bf8:	41 5f                	pop    %r15
   18bfa:	5d                   	pop    %rbp
   18bfb:	c3                   	retq   

0000000000018bfc <func_83>:
   18bfc:	f3 0f 1e fa          	endbr64 
   18c00:	55                   	push   %rbp
   18c01:	48 89 e5             	mov    %rsp,%rbp
   18c04:	48 81 ec d0 05 00 00 	sub    $0x5d0,%rsp
   18c0b:	48 89 bd 48 fa ff ff 	mov    %rdi,-0x5b8(%rbp)
   18c12:	48 89 b5 40 fa ff ff 	mov    %rsi,-0x5c0(%rbp)
   18c19:	48 89 95 38 fa ff ff 	mov    %rdx,-0x5c8(%rbp)
   18c20:	64 48 8b 04 25 28 00 	mov    %fs:0x28,%rax
   18c27:	00 00 
   18c29:	48 89 45 f8          	mov    %rax,-0x8(%rbp)
   18c2d:	31 c0                	xor    %eax,%eax
   18c2f:	66 c7 85 d0 fa ff ff 	movw   $0x7,-0x530(%rbp)
   18c36:	07 00 
   18c38:	66 c7 85 d2 fa ff ff 	movw   $0x7,-0x52e(%rbp)
   18c3f:	07 00 
   18c41:	66 c7 85 d4 fa ff ff 	movw   $0x0,-0x52c(%rbp)
   18c48:	00 00 
   18c4a:	66 c7 85 d6 fa ff ff 	movw   $0xffff,-0x52a(%rbp)
   18c51:	ff ff 
   18c53:	66 c7 85 d8 fa ff ff 	movw   $0x0,-0x528(%rbp)
   18c5a:	00 00 
   18c5c:	66 c7 85 da fa ff ff 	movw   $0x7,-0x526(%rbp)
   18c63:	07 00 
   18c65:	66 c7 85 dc fa ff ff 	movw   $0x7,-0x524(%rbp)
   18c6c:	07 00 
   18c6e:	66 c7 85 de fa ff ff 	movw   $0x0,-0x522(%rbp)
   18c75:	00 00 
   18c77:	66 c7 85 e0 fa ff ff 	movw   $0xffff,-0x520(%rbp)
   18c7e:	ff ff 
   18c80:	66 c7 85 e2 fa ff ff 	movw   $0x0,-0x51e(%rbp)
   18c87:	00 00 
   18c89:	48 8d 05 98 63 00 00 	lea    0x6398(%rip),%rax        # 1f028 <g_3>
   18c90:	48 89 85 10 fb ff ff 	mov    %rax,-0x4f0(%rbp)
   18c97:	48 8d 05 8a 63 00 00 	lea    0x638a(%rip),%rax        # 1f028 <g_3>
   18c9e:	48 89 85 18 fb ff ff 	mov    %rax,-0x4e8(%rbp)
   18ca5:	48 8d 05 7c 63 00 00 	lea    0x637c(%rip),%rax        # 1f028 <g_3>
   18cac:	48 89 85 20 fb ff ff 	mov    %rax,-0x4e0(%rbp)
   18cb3:	48 8d 05 6e 63 00 00 	lea    0x636e(%rip),%rax        # 1f028 <g_3>
   18cba:	48 89 85 28 fb ff ff 	mov    %rax,-0x4d8(%rbp)
   18cc1:	48 8d 05 78 63 00 00 	lea    0x6378(%rip),%rax        # 1f040 <g_106>
   18cc8:	48 89 85 78 fa ff ff 	mov    %rax,-0x588(%rbp)
   18ccf:	48 8d 05 2a 64 00 00 	lea    0x642a(%rip),%rax        # 1f100 <g_211+0x20>
   18cd6:	48 89 85 70 fa ff ff 	mov    %rax,-0x590(%rbp)
   18cdd:	48 b8 76 36 0f 34 79 	movabs $0x95469179340f3676,%rax
   18ce4:	91 46 95 
   18ce7:	48 89 85 30 fb ff ff 	mov    %rax,-0x4d0(%rbp)
   18cee:	48 bf c4 09 06 c8 4d 	movabs $0x42d7de4dc80609c4,%rdi
   18cf5:	de d7 42 
   18cf8:	48 89 bd 38 fb ff ff 	mov    %rdi,-0x4c8(%rbp)
   18cff:	48 89 85 40 fb ff ff 	mov    %rax,-0x4c0(%rbp)
   18d06:	48 89 85 48 fb ff ff 	mov    %rax,-0x4b8(%rbp)
   18d0d:	48 89 bd 50 fb ff ff 	mov    %rdi,-0x4b0(%rbp)
   18d14:	48 89 85 58 fb ff ff 	mov    %rax,-0x4a8(%rbp)
   18d1b:	48 89 85 60 fb ff ff 	mov    %rax,-0x4a0(%rbp)
   18d22:	48 89 bd 68 fb ff ff 	mov    %rdi,-0x498(%rbp)
   18d29:	48 89 85 70 fb ff ff 	mov    %rax,-0x490(%rbp)
   18d30:	c6 85 57 fa ff ff 2c 	movb   $0x2c,-0x5a9(%rbp)
   18d37:	66 c7 85 d0 fb ff ff 	movw   $0x1,-0x430(%rbp)
   18d3e:	01 00 
   18d40:	66 c7 85 d2 fb ff ff 	movw   $0x1,-0x42e(%rbp)
   18d47:	01 00 
   18d49:	66 c7 85 d4 fb ff ff 	movw   $0xe990,-0x42c(%rbp)
   18d50:	90 e9 
   18d52:	66 c7 85 d6 fb ff ff 	movw   $0x8496,-0x42a(%rbp)
   18d59:	96 84 
   18d5b:	66 c7 85 d8 fb ff ff 	movw   $0x942b,-0x428(%rbp)
   18d62:	2b 94 
   18d64:	66 c7 85 da fb ff ff 	movw   $0xfffa,-0x426(%rbp)
   18d6b:	fa ff 
   18d6d:	66 c7 85 dc fb ff ff 	movw   $0x7,-0x424(%rbp)
   18d74:	07 00 
   18d76:	66 c7 85 de fb ff ff 	movw   $0x7,-0x422(%rbp)
   18d7d:	07 00 
   18d7f:	66 c7 85 e0 fb ff ff 	movw   $0xfffa,-0x420(%rbp)
   18d86:	fa ff 
   18d88:	66 c7 85 e2 fb ff ff 	movw   $0x6863,-0x41e(%rbp)
   18d8f:	63 68 
   18d91:	66 c7 85 e4 fb ff ff 	movw   $0x97a3,-0x41c(%rbp)
   18d98:	a3 97 
   18d9a:	66 c7 85 e6 fb ff ff 	movw   $0x3,-0x41a(%rbp)
   18da1:	03 00 
   18da3:	66 c7 85 e8 fb ff ff 	movw   $0x97a3,-0x418(%rbp)
   18daa:	a3 97 
   18dac:	66 c7 85 ea fb ff ff 	movw   $0x6863,-0x416(%rbp)
   18db3:	63 68 
   18db5:	66 c7 85 ec fb ff ff 	movw   $0x7a0b,-0x414(%rbp)
   18dbc:	0b 7a 
   18dbe:	66 c7 85 ee fb ff ff 	movw   $0xe5c4,-0x412(%rbp)
   18dc5:	c4 e5 
   18dc7:	66 c7 85 f0 fb ff ff 	movw   $0x1,-0x410(%rbp)
   18dce:	01 00 
   18dd0:	66 c7 85 f2 fb ff ff 	movw   $0xafa3,-0x40e(%rbp)
   18dd7:	a3 af 
   18dd9:	66 c7 85 f4 fb ff ff 	movw   $0x0,-0x40c(%rbp)
   18de0:	00 00 
   18de2:	66 c7 85 f6 fb ff ff 	movw   $0x1,-0x40a(%rbp)
   18de9:	01 00 
   18deb:	66 c7 85 f8 fb ff ff 	movw   $0x8496,-0x408(%rbp)
   18df2:	96 84 
   18df4:	66 c7 85 fa fb ff ff 	movw   $0xf370,-0x406(%rbp)
   18dfb:	70 f3 
   18dfd:	66 c7 85 fc fb ff ff 	movw   $0x0,-0x404(%rbp)
   18e04:	00 00 
   18e06:	66 c7 85 fe fb ff ff 	movw   $0xf370,-0x402(%rbp)
   18e0d:	70 f3 
   18e0f:	66 c7 85 00 fc ff ff 	movw   $0x8496,-0x400(%rbp)
   18e16:	96 84 
   18e18:	66 c7 85 02 fc ff ff 	movw   $0x1,-0x3fe(%rbp)
   18e1f:	01 00 
   18e21:	66 c7 85 04 fc ff ff 	movw   $0x0,-0x3fc(%rbp)
   18e28:	00 00 
   18e2a:	66 c7 85 06 fc ff ff 	movw   $0x5,-0x3fa(%rbp)
   18e31:	05 00 
   18e33:	66 c7 85 08 fc ff ff 	movw   $0x7,-0x3f8(%rbp)
   18e3a:	07 00 
   18e3c:	66 c7 85 0a fc ff ff 	movw   $0xb365,-0x3f6(%rbp)
   18e43:	65 b3 
   18e45:	66 c7 85 0c fc ff ff 	movw   $0x6863,-0x3f4(%rbp)
   18e4c:	63 68 
   18e4e:	66 c7 85 0e fc ff ff 	movw   $0x1,-0x3f2(%rbp)
   18e55:	01 00 
   18e57:	66 c7 85 10 fc ff ff 	movw   $0x7a0b,-0x3f0(%rbp)
   18e5e:	0b 7a 
   18e60:	66 c7 85 12 fc ff ff 	movw   $0x64e,-0x3ee(%rbp)
   18e67:	4e 06 
   18e69:	66 c7 85 14 fc ff ff 	movw   $0x7a0b,-0x3ec(%rbp)
   18e70:	0b 7a 
   18e72:	66 c7 85 16 fc ff ff 	movw   $0x1,-0x3ea(%rbp)
   18e79:	01 00 
   18e7b:	66 c7 85 18 fc ff ff 	movw   $0x5,-0x3e8(%rbp)
   18e82:	05 00 
   18e84:	66 c7 85 1a fc ff ff 	movw   $0x1,-0x3e6(%rbp)
   18e8b:	01 00 
   18e8d:	66 c7 85 1c fc ff ff 	movw   $0x1,-0x3e4(%rbp)
   18e94:	01 00 
   18e96:	66 c7 85 1e fc ff ff 	movw   $0x5,-0x3e2(%rbp)
   18e9d:	05 00 
   18e9f:	66 c7 85 20 fc ff ff 	movw   $0xf370,-0x3e0(%rbp)
   18ea6:	70 f3 
   18ea8:	66 c7 85 22 fc ff ff 	movw   $0xfffa,-0x3de(%rbp)
   18eaf:	fa ff 
   18eb1:	66 c7 85 24 fc ff ff 	movw   $0x0,-0x3dc(%rbp)
   18eb8:	00 00 
   18eba:	66 c7 85 26 fc ff ff 	movw   $0xe990,-0x3da(%rbp)
   18ec1:	90 e9 
   18ec3:	66 c7 85 28 fc ff ff 	movw   $0x942b,-0x3d8(%rbp)
   18eca:	2b 94 
   18ecc:	66 c7 85 2a fc ff ff 	movw   $0x5,-0x3d6(%rbp)
   18ed3:	05 00 
   18ed5:	66 c7 85 2c fc ff ff 	movw   $0x1,-0x3d4(%rbp)
   18edc:	01 00 
   18ede:	66 c7 85 2e fc ff ff 	movw   $0x64e,-0x3d2(%rbp)
   18ee5:	4e 06 
   18ee7:	66 c7 85 30 fc ff ff 	movw   $0x1,-0x3d0(%rbp)
   18eee:	01 00 
   18ef0:	66 c7 85 32 fc ff ff 	movw   $0x64e,-0x3ce(%rbp)
   18ef7:	4e 06 
   18ef9:	66 c7 85 34 fc ff ff 	movw   $0xafa3,-0x3cc(%rbp)
   18f00:	a3 af 
   18f02:	66 c7 85 36 fc ff ff 	movw   $0x97a3,-0x3ca(%rbp)
   18f09:	a3 97 
   18f0b:	66 c7 85 38 fc ff ff 	movw   $0x7,-0x3c8(%rbp)
   18f12:	07 00 
   18f14:	66 c7 85 3a fc ff ff 	movw   $0xc136,-0x3c6(%rbp)
   18f1b:	36 c1 
   18f1d:	66 c7 85 3c fc ff ff 	movw   $0x7,-0x3c4(%rbp)
   18f24:	07 00 
   18f26:	66 c7 85 3e fc ff ff 	movw   $0x1,-0x3c2(%rbp)
   18f2d:	01 00 
   18f2f:	66 c7 85 40 fc ff ff 	movw   $0x0,-0x3c0(%rbp)
   18f36:	00 00 
   18f38:	66 c7 85 42 fc ff ff 	movw   $0xfffa,-0x3be(%rbp)
   18f3f:	fa ff 
   18f41:	66 c7 85 44 fc ff ff 	movw   $0x0,-0x3bc(%rbp)
   18f48:	00 00 
   18f4a:	66 c7 85 46 fc ff ff 	movw   $0xf370,-0x3ba(%rbp)
   18f51:	70 f3 
   18f53:	66 c7 85 48 fc ff ff 	movw   $0xf370,-0x3b8(%rbp)
   18f5a:	70 f3 
   18f5c:	66 c7 85 4a fc ff ff 	movw   $0x0,-0x3b6(%rbp)
   18f63:	00 00 
   18f65:	66 c7 85 4c fc ff ff 	movw   $0xfffa,-0x3b4(%rbp)
   18f6c:	fa ff 
   18f6e:	66 c7 85 4e fc ff ff 	movw   $0x1,-0x3b2(%rbp)
   18f75:	01 00 
   18f77:	66 c7 85 50 fc ff ff 	movw   $0x5,-0x3b0(%rbp)
   18f7e:	05 00 
   18f80:	66 c7 85 52 fc ff ff 	movw   $0x1,-0x3ae(%rbp)
   18f87:	01 00 
   18f89:	66 c7 85 54 fc ff ff 	movw   $0x7a0b,-0x3ac(%rbp)
   18f90:	0b 7a 
   18f92:	66 c7 85 56 fc ff ff 	movw   $0x97a3,-0x3aa(%rbp)
   18f99:	a3 97 
   18f9b:	66 c7 85 58 fc ff ff 	movw   $0x64e,-0x3a8(%rbp)
   18fa2:	4e 06 
   18fa4:	66 c7 85 5a fc ff ff 	movw   $0x6863,-0x3a6(%rbp)
   18fab:	63 68 
   18fad:	66 c7 85 5c fc ff ff 	movw   $0xc136,-0x3a4(%rbp)
   18fb4:	36 c1 
   18fb6:	66 c7 85 5e fc ff ff 	movw   $0xc136,-0x3a2(%rbp)
   18fbd:	36 c1 
   18fbf:	48 b8 12 8a 91 9b f3 	movabs $0x5fb766f39b918a12,%rax
   18fc6:	66 b7 5f 
   18fc9:	48 89 85 80 fa ff ff 	mov    %rax,-0x580(%rbp)
   18fd0:	c6 85 58 fa ff ff ff 	movb   $0xff,-0x5a8(%rbp)
   18fd7:	c7 85 60 fa ff ff 00 	movl   $0x0,-0x5a0(%rbp)
   18fde:	00 00 00 
   18fe1:	eb 14                	jmp    18ff7 <func_83+0x3fb>
   18fe3:	8b 85 60 fa ff ff    	mov    -0x5a0(%rbp),%eax
   18fe9:	48 98                	cltq   
   18feb:	c6 44 05 f1 62       	movb   $0x62,-0xf(%rbp,%rax,1)
   18ff0:	83 85 60 fa ff ff 01 	addl   $0x1,-0x5a0(%rbp)
   18ff7:	83 bd 60 fa ff ff 06 	cmpl   $0x6,-0x5a0(%rbp)
   18ffe:	7e e3                	jle    18fe3 <func_83+0x3e7>
   19000:	c7 85 60 fa ff ff 00 	movl   $0x0,-0x5a0(%rbp)
   19007:	00 00 00 
   1900a:	eb 1a                	jmp    19026 <func_83+0x42a>
   1900c:	8b 85 60 fa ff ff    	mov    -0x5a0(%rbp),%eax
   19012:	48 98                	cltq   
   19014:	c7 84 85 b4 fa ff ff 	movl   $0x0,-0x54c(%rbp,%rax,4)
   1901b:	00 00 00 00 
   1901f:	83 85 60 fa ff ff 01 	addl   $0x1,-0x5a0(%rbp)
   19026:	83 bd 60 fa ff ff 02 	cmpl   $0x2,-0x5a0(%rbp)
   1902d:	7e dd                	jle    1900c <func_83+0x410>
   1902f:	48 c7 05 f6 5f 00 00 	movq   $0x0,0x5ff6(%rip)        # 1f030 <g_64>
   19036:	00 00 00 00 
   1903a:	e9 c8 01 00 00       	jmpq   19207 <func_83+0x60b>
   1903f:	c6 85 59 fa ff ff 4b 	movb   $0x4b,-0x5a7(%rbp)
   19046:	66 c7 85 5c fa ff ff 	movw   $0xbbfb,-0x5a4(%rbp)
   1904d:	fb bb 
   1904f:	48 8d 05 0a 60 00 00 	lea    0x600a(%rip),%rax        # 1f060 <g_109+0x10>
   19056:	48 89 85 88 fa ff ff 	mov    %rax,-0x578(%rbp)
   1905d:	c7 85 f0 fa ff ff 8f 	movl   $0xdce05b8f,-0x510(%rbp)
   19064:	5b e0 dc 
   19067:	c7 85 f4 fa ff ff 8f 	movl   $0xdce05b8f,-0x50c(%rbp)
   1906e:	5b e0 dc 
   19071:	c7 85 f8 fa ff ff 8f 	movl   $0xdce05b8f,-0x508(%rbp)
   19078:	5b e0 dc 
   1907b:	c7 85 fc fa ff ff 8f 	movl   $0xdce05b8f,-0x504(%rbp)
   19082:	5b e0 dc 
   19085:	c7 85 00 fb ff ff 8f 	movl   $0xdce05b8f,-0x500(%rbp)
   1908c:	5b e0 dc 
   1908f:	c7 85 04 fb ff ff 8f 	movl   $0xdce05b8f,-0x4fc(%rbp)
   19096:	5b e0 dc 
   19099:	c7 85 08 fb ff ff 8f 	movl   $0xdce05b8f,-0x4f8(%rbp)
   190a0:	5b e0 dc 
   190a3:	48 8d 85 70 fa ff ff 	lea    -0x590(%rbp),%rax
   190aa:	48 89 85 90 fa ff ff 	mov    %rax,-0x570(%rbp)
   190b1:	48 8d 05 28 87 00 00 	lea    0x8728(%rip),%rax        # 217e0 <g_57>
   190b8:	48 89 85 98 fa ff ff 	mov    %rax,-0x568(%rbp)
   190bf:	48 c7 85 a0 fa ff ff 	movq   $0xfffffffffffffffa,-0x560(%rbp)
   190c6:	fa ff ff ff 
   190ca:	48 c7 85 a8 fa ff ff 	movq   $0x0,-0x558(%rbp)
   190d1:	00 00 00 00 
   190d5:	66 c7 85 5e fa ff ff 	movw   $0x0,-0x5a2(%rbp)
   190dc:	00 00 
   190de:	c6 85 5a fa ff ff a6 	movb   $0xa6,-0x5a6(%rbp)
   190e5:	48 8d 85 20 fd ff ff 	lea    -0x2e0(%rbp),%rax
   190ec:	48 8d 15 ed 2d 00 00 	lea    0x2ded(%rip),%rdx        # 1bee0 <g_2661+0x1e70>
   190f3:	b9 5a 00 00 00       	mov    $0x5a,%ecx
   190f8:	48 89 c7             	mov    %rax,%rdi
   190fb:	48 89 d6             	mov    %rdx,%rsi
   190fe:	f3 48 a5             	rep movsq %ds:(%rsi),%es:(%rdi)
   19101:	c6 85 5b fa ff ff 04 	movb   $0x4,-0x5a5(%rbp)
   19108:	c7 85 64 fa ff ff 00 	movl   $0x0,-0x59c(%rbp)
   1910f:	00 00 00 
   19112:	eb 1b                	jmp    1912f <func_83+0x533>
   19114:	8b 85 64 fa ff ff    	mov    -0x59c(%rbp),%eax
   1911a:	48 98                	cltq   
   1911c:	48 c7 84 c5 80 fb ff 	movq   $0x0,-0x480(%rbp,%rax,8)
   19123:	ff 00 00 00 00 
   19128:	83 85 64 fa ff ff 01 	addl   $0x1,-0x59c(%rbp)
   1912f:	83 bd 64 fa ff ff 08 	cmpl   $0x8,-0x59c(%rbp)
   19136:	7e dc                	jle    19114 <func_83+0x518>
   19138:	c7 85 64 fa ff ff 00 	movl   $0x0,-0x59c(%rbp)
   1913f:	00 00 00 
   19142:	eb 75                	jmp    191b9 <func_83+0x5bd>
   19144:	c7 85 68 fa ff ff 00 	movl   $0x0,-0x598(%rbp)
   1914b:	00 00 00 
   1914e:	eb 59                	jmp    191a9 <func_83+0x5ad>
   19150:	c7 85 6c fa ff ff 00 	movl   $0x0,-0x594(%rbp)
   19157:	00 00 00 
   1915a:	eb 3d                	jmp    19199 <func_83+0x59d>
   1915c:	8b 85 6c fa ff ff    	mov    -0x594(%rbp),%eax
   19162:	48 63 f0             	movslq %eax,%rsi
   19165:	8b 85 68 fa ff ff    	mov    -0x598(%rbp),%eax
   1916b:	48 63 c8             	movslq %eax,%rcx
   1916e:	8b 85 64 fa ff ff    	mov    -0x59c(%rbp),%eax
   19174:	48 63 d0             	movslq %eax,%rdx
   19177:	48 89 d0             	mov    %rdx,%rax
   1917a:	48 c1 e0 02          	shl    $0x2,%rax
   1917e:	48 01 d0             	add    %rdx,%rax
   19181:	48 01 f0             	add    %rsi,%rax
   19184:	48 01 c8             	add    %rcx,%rax
   19187:	c7 84 85 60 fc ff ff 	movl   $0xee02ecac,-0x3a0(%rbp,%rax,4)
   1918e:	ac ec 02 ee 
   19192:	83 85 6c fa ff ff 01 	addl   $0x1,-0x594(%rbp)
   19199:	83 bd 6c fa ff ff 00 	cmpl   $0x0,-0x594(%rbp)
   191a0:	7e ba                	jle    1915c <func_83+0x560>
   191a2:	83 85 68 fa ff ff 01 	addl   $0x1,-0x598(%rbp)
   191a9:	83 bd 68 fa ff ff 04 	cmpl   $0x4,-0x598(%rbp)
   191b0:	7e 9e                	jle    19150 <func_83+0x554>
   191b2:	83 85 64 fa ff ff 01 	addl   $0x1,-0x59c(%rbp)
   191b9:	83 bd 64 fa ff ff 08 	cmpl   $0x8,-0x59c(%rbp)
   191c0:	7e 82                	jle    19144 <func_83+0x548>
   191c2:	c7 85 64 fa ff ff 00 	movl   $0x0,-0x59c(%rbp)
   191c9:	00 00 00 
   191cc:	eb 1e                	jmp    191ec <func_83+0x5f0>
   191ce:	8b 85 64 fa ff ff    	mov    -0x59c(%rbp),%eax
   191d4:	48 98                	cltq   
   191d6:	48 8d 95 d0 fa ff ff 	lea    -0x530(%rbp),%rdx
   191dd:	48 89 94 c5 c0 fa ff 	mov    %rdx,-0x540(%rbp,%rax,8)
   191e4:	ff 
   191e5:	83 85 64 fa ff ff 01 	addl   $0x1,-0x59c(%rbp)
   191ec:	83 bd 64 fa ff ff 01 	cmpl   $0x1,-0x59c(%rbp)
   191f3:	7e d9                	jle    191ce <func_83+0x5d2>
   191f5:	48 8b 05 34 5e 00 00 	mov    0x5e34(%rip),%rax        # 1f030 <g_64>
   191fc:	48 83 e8 01          	sub    $0x1,%rax
   19200:	48 89 05 29 5e 00 00 	mov    %rax,0x5e29(%rip)        # 1f030 <g_64>
   19207:	48 8b 05 22 5e 00 00 	mov    0x5e22(%rip),%rax        # 1f030 <g_64>
   1920e:	48 85 c0             	test   %rax,%rax
   19211:	0f 89 28 fe ff ff    	jns    1903f <func_83+0x443>
   19217:	48 8d 05 12 5e 00 00 	lea    0x5e12(%rip),%rax        # 1f030 <g_64>
   1921e:	48 8b 4d f8          	mov    -0x8(%rbp),%rcx
   19222:	64 48 33 0c 25 28 00 	xor    %fs:0x28,%rcx
   19229:	00 00 
   1922b:	74 05                	je     19232 <func_83+0x636>
   1922d:	e8 3e 0e ff ff       	callq  a070 <__stack_chk_fail@plt>
   19232:	c9                   	leaveq 
   19233:	c3                   	retq   

0000000000019234 <main>:
   19234:	f3 0f 1e fa          	endbr64 
   19238:	55                   	push   %rbp
   19239:	48 89 e5             	mov    %rsp,%rbp
   1923c:	48 83 ec 20          	sub    $0x20,%rsp
   19240:	89 7d ec             	mov    %edi,-0x14(%rbp)
   19243:	48 89 75 e0          	mov    %rsi,-0x20(%rbp)
   19247:	c7 45 fc 00 00 00 00 	movl   $0x0,-0x4(%rbp)
   1924e:	83 7d ec 02          	cmpl   $0x2,-0x14(%rbp)
   19252:	75 25                	jne    19279 <main+0x45>
   19254:	48 8b 45 e0          	mov    -0x20(%rbp),%rax
   19258:	48 83 c0 08          	add    $0x8,%rax
   1925c:	48 8b 00             	mov    (%rax),%rax
   1925f:	48 8d 35 4a 2f 00 00 	lea    0x2f4a(%rip),%rsi        # 1c1b0 <g_2661+0x2140>
   19266:	48 89 c7             	mov    %rax,%rdi
   19269:	e8 22 0e ff ff       	callq  a090 <strcmp@plt>
   1926e:	85 c0                	test   %eax,%eax
   19270:	75 07                	jne    19279 <main+0x45>
   19272:	c7 45 fc 01 00 00 00 	movl   $0x1,-0x4(%rbp)
   19279:	e8 0b 0f ff ff       	callq  a189 <platform_main_begin>
   1927e:	e8 15 23 ff ff       	callq  b598 <crc32_gentab>
   19283:	e8 2d 25 ff ff       	callq  b7b5 <func_1>
   19288:	8b 05 96 5d 00 00    	mov    0x5d96(%rip),%eax        # 1f024 <g_2>
   1928e:	48 98                	cltq   
   19290:	8b 55 fc             	mov    -0x4(%rbp),%edx
   19293:	48 8d 35 18 2f 00 00 	lea    0x2f18(%rip),%rsi        # 1c1b2 <g_2661+0x2142>
   1929a:	48 89 c7             	mov    %rax,%rdi
   1929d:	e8 51 24 ff ff       	callq  b6f3 <transparent_crc>
   192a2:	8b 05 80 5d 00 00    	mov    0x5d80(%rip),%eax        # 1f028 <g_3>
   192a8:	48 98                	cltq   
   192aa:	8b 55 fc             	mov    -0x4(%rbp),%edx
   192ad:	48 8d 35 02 2f 00 00 	lea    0x2f02(%rip),%rsi        # 1c1b6 <g_2661+0x2146>
   192b4:	48 89 c7             	mov    %rax,%rdi
   192b7:	e8 37 24 ff ff       	callq  b6f3 <transparent_crc>
   192bc:	c7 45 f4 00 00 00 00 	movl   $0x0,-0xc(%rbp)
   192c3:	eb 4b                	jmp    19310 <main+0xdc>
   192c5:	8b 45 f4             	mov    -0xc(%rbp),%eax
   192c8:	48 98                	cltq   
   192ca:	48 8d 14 85 00 00 00 	lea    0x0(,%rax,4),%rdx
   192d1:	00 
   192d2:	48 8d 05 e7 9e 00 00 	lea    0x9ee7(%rip),%rax        # 231c0 <g_8>
   192d9:	8b 04 02             	mov    (%rdx,%rax,1),%eax
   192dc:	48 98                	cltq   
   192de:	8b 55 fc             	mov    -0x4(%rbp),%edx
   192e1:	48 8d 35 d2 2e 00 00 	lea    0x2ed2(%rip),%rsi        # 1c1ba <g_2661+0x214a>
   192e8:	48 89 c7             	mov    %rax,%rdi
   192eb:	e8 03 24 ff ff       	callq  b6f3 <transparent_crc>
   192f0:	83 7d fc 00          	cmpl   $0x0,-0x4(%rbp)
   192f4:	74 16                	je     1930c <main+0xd8>
   192f6:	8b 45 f4             	mov    -0xc(%rbp),%eax
   192f9:	89 c6                	mov    %eax,%esi
   192fb:	48 8d 3d bf 2e 00 00 	lea    0x2ebf(%rip),%rdi        # 1c1c1 <g_2661+0x2151>
   19302:	b8 00 00 00 00       	mov    $0x0,%eax
   19307:	e8 74 0d ff ff       	callq  a080 <printf@plt>
   1930c:	83 45 f4 01          	addl   $0x1,-0xc(%rbp)
   19310:	83 7d f4 07          	cmpl   $0x7,-0xc(%rbp)
   19314:	7e af                	jle    192c5 <main+0x91>
   19316:	8b 05 10 5d 00 00    	mov    0x5d10(%rip),%eax        # 1f02c <g_39>
   1931c:	89 c1                	mov    %eax,%ecx
   1931e:	8b 45 fc             	mov    -0x4(%rbp),%eax
   19321:	89 c2                	mov    %eax,%edx
   19323:	48 8d 35 a5 2e 00 00 	lea    0x2ea5(%rip),%rsi        # 1c1cf <g_2661+0x215f>
   1932a:	48 89 cf             	mov    %rcx,%rdi
   1932d:	e8 c1 23 ff ff       	callq  b6f3 <transparent_crc>
   19332:	48 8b 05 f7 5c 00 00 	mov    0x5cf7(%rip),%rax        # 1f030 <g_64>
   19339:	48 89 c1             	mov    %rax,%rcx
   1933c:	8b 45 fc             	mov    -0x4(%rbp),%eax
   1933f:	89 c2                	mov    %eax,%edx
   19341:	48 8d 35 8c 2e 00 00 	lea    0x2e8c(%rip),%rsi        # 1c1d4 <g_2661+0x2164>
   19348:	48 89 cf             	mov    %rcx,%rdi
   1934b:	e8 a3 23 ff ff       	callq  b6f3 <transparent_crc>
   19350:	8b 05 e2 5c 00 00    	mov    0x5ce2(%rip),%eax        # 1f038 <g_73>
   19356:	48 98                	cltq   
   19358:	8b 55 fc             	mov    -0x4(%rbp),%edx
   1935b:	48 8d 35 77 2e 00 00 	lea    0x2e77(%rip),%rsi        # 1c1d9 <g_2661+0x2169>
   19362:	48 89 c7             	mov    %rax,%rdi
   19365:	e8 89 23 ff ff       	callq  b6f3 <transparent_crc>
   1936a:	8b 05 cc 5c 00 00    	mov    0x5ccc(%rip),%eax        # 1f03c <g_75>
   19370:	48 98                	cltq   
   19372:	8b 55 fc             	mov    -0x4(%rbp),%edx
   19375:	48 8d 35 62 2e 00 00 	lea    0x2e62(%rip),%rsi        # 1c1de <g_2661+0x216e>
   1937c:	48 89 c7             	mov    %rax,%rdi
   1937f:	e8 6f 23 ff ff       	callq  b6f3 <transparent_crc>
   19384:	0f b6 05 b5 5c 00 00 	movzbl 0x5cb5(%rip),%eax        # 1f040 <g_106>
   1938b:	0f b6 c0             	movzbl %al,%eax
   1938e:	8b 55 fc             	mov    -0x4(%rbp),%edx
   19391:	48 8d 35 4b 2e 00 00 	lea    0x2e4b(%rip),%rsi        # 1c1e3 <g_2661+0x2173>
   19398:	48 89 c7             	mov    %rax,%rdi
   1939b:	e8 53 23 ff ff       	callq  b6f3 <transparent_crc>
   193a0:	c7 45 f4 00 00 00 00 	movl   $0x0,-0xc(%rbp)
   193a7:	eb 4d                	jmp    193f6 <main+0x1c2>
   193a9:	8b 45 f4             	mov    -0xc(%rbp),%eax
   193ac:	48 98                	cltq   
   193ae:	48 8d 14 85 00 00 00 	lea    0x0(,%rax,4),%rdx
   193b5:	00 
   193b6:	48 8d 05 93 5c 00 00 	lea    0x5c93(%rip),%rax        # 1f050 <g_109>
   193bd:	8b 04 02             	mov    (%rdx,%rax,1),%eax
   193c0:	89 c1                	mov    %eax,%ecx
   193c2:	8b 45 fc             	mov    -0x4(%rbp),%eax
   193c5:	89 c2                	mov    %eax,%edx
   193c7:	48 8d 35 1b 2e 00 00 	lea    0x2e1b(%rip),%rsi        # 1c1e9 <g_2661+0x2179>
   193ce:	48 89 cf             	mov    %rcx,%rdi
   193d1:	e8 1d 23 ff ff       	callq  b6f3 <transparent_crc>
   193d6:	83 7d fc 00          	cmpl   $0x0,-0x4(%rbp)
   193da:	74 16                	je     193f2 <main+0x1be>
   193dc:	8b 45 f4             	mov    -0xc(%rbp),%eax
   193df:	89 c6                	mov    %eax,%esi
   193e1:	48 8d 3d d9 2d 00 00 	lea    0x2dd9(%rip),%rdi        # 1c1c1 <g_2661+0x2151>
   193e8:	b8 00 00 00 00       	mov    $0x0,%eax
   193ed:	e8 8e 0c ff ff       	callq  a080 <printf@plt>
   193f2:	83 45 f4 01          	addl   $0x1,-0xc(%rbp)
   193f6:	83 7d f4 04          	cmpl   $0x4,-0xc(%rbp)
   193fa:	7e ad                	jle    193a9 <main+0x175>
   193fc:	48 8b 05 65 5c 00 00 	mov    0x5c65(%rip),%rax        # 1f068 <g_111>
   19403:	48 89 c1             	mov    %rax,%rcx
   19406:	8b 45 fc             	mov    -0x4(%rbp),%eax
   19409:	89 c2                	mov    %eax,%edx
   1940b:	48 8d 35 e0 2d 00 00 	lea    0x2de0(%rip),%rsi        # 1c1f2 <g_2661+0x2182>
   19412:	48 89 cf             	mov    %rcx,%rdi
   19415:	e8 d9 22 ff ff       	callq  b6f3 <transparent_crc>
   1941a:	b8 5b 00 70 f1       	mov    $0xf170005b,%eax
   1941f:	48 98                	cltq   
   19421:	8b 55 fc             	mov    -0x4(%rbp),%edx
   19424:	48 8d 35 cd 2d 00 00 	lea    0x2dcd(%rip),%rsi        # 1c1f8 <g_2661+0x2188>
   1942b:	48 89 c7             	mov    %rax,%rdi
   1942e:	e8 c0 22 ff ff       	callq  b6f3 <transparent_crc>
   19433:	8b 05 37 5c 00 00    	mov    0x5c37(%rip),%eax        # 1f070 <g_166>
   19439:	48 98                	cltq   
   1943b:	8b 55 fc             	mov    -0x4(%rbp),%edx
   1943e:	48 8d 35 b9 2d 00 00 	lea    0x2db9(%rip),%rsi        # 1c1fe <g_2661+0x218e>
   19445:	48 89 c7             	mov    %rax,%rdi
   19448:	e8 a6 22 ff ff       	callq  b6f3 <transparent_crc>
   1944d:	0f b7 05 20 5c 00 00 	movzwl 0x5c20(%rip),%eax        # 1f074 <g_175>
   19454:	0f b7 c0             	movzwl %ax,%eax
   19457:	8b 55 fc             	mov    -0x4(%rbp),%edx
   1945a:	48 8d 35 a3 2d 00 00 	lea    0x2da3(%rip),%rsi        # 1c204 <g_2661+0x2194>
   19461:	48 89 c7             	mov    %rax,%rdi
   19464:	e8 8a 22 ff ff       	callq  b6f3 <transparent_crc>
   19469:	0f b6 05 06 5c 00 00 	movzbl 0x5c06(%rip),%eax        # 1f076 <g_182>
   19470:	48 0f be c0          	movsbq %al,%rax
   19474:	8b 55 fc             	mov    -0x4(%rbp),%edx
   19477:	48 8d 35 8c 2d 00 00 	lea    0x2d8c(%rip),%rsi        # 1c20a <g_2661+0x219a>
   1947e:	48 89 c7             	mov    %rax,%rdi
   19481:	e8 6d 22 ff ff       	callq  b6f3 <transparent_crc>
   19486:	c7 45 f4 00 00 00 00 	movl   $0x0,-0xc(%rbp)
   1948d:	eb 4a                	jmp    194d9 <main+0x2a5>
   1948f:	8b 45 f4             	mov    -0xc(%rbp),%eax
   19492:	48 98                	cltq   
   19494:	48 8d 14 c5 00 00 00 	lea    0x0(,%rax,8),%rdx
   1949b:	00 
   1949c:	48 8d 05 dd 5b 00 00 	lea    0x5bdd(%rip),%rax        # 1f080 <g_199>
   194a3:	48 8b 04 02          	mov    (%rdx,%rax,1),%rax
   194a7:	8b 55 fc             	mov    -0x4(%rbp),%edx
   194aa:	48 8d 35 5f 2d 00 00 	lea    0x2d5f(%rip),%rsi        # 1c210 <g_2661+0x21a0>
   194b1:	48 89 c7             	mov    %rax,%rdi
   194b4:	e8 3a 22 ff ff       	callq  b6f3 <transparent_crc>
   194b9:	83 7d fc 00          	cmpl   $0x0,-0x4(%rbp)
   194bd:	74 16                	je     194d5 <main+0x2a1>
   194bf:	8b 45 f4             	mov    -0xc(%rbp),%eax
   194c2:	89 c6                	mov    %eax,%esi
   194c4:	48 8d 3d f6 2c 00 00 	lea    0x2cf6(%rip),%rdi        # 1c1c1 <g_2661+0x2151>
   194cb:	b8 00 00 00 00       	mov    $0x0,%eax
   194d0:	e8 ab 0b ff ff       	callq  a080 <printf@plt>
   194d5:	83 45 f4 01          	addl   $0x1,-0xc(%rbp)
   194d9:	83 7d f4 08          	cmpl   $0x8,-0xc(%rbp)
   194dd:	7e b0                	jle    1948f <main+0x25b>
   194df:	c7 45 f4 00 00 00 00 	movl   $0x0,-0xc(%rbp)
   194e6:	eb 74                	jmp    1955c <main+0x328>
   194e8:	c7 45 f8 00 00 00 00 	movl   $0x0,-0x8(%rbp)
   194ef:	eb 61                	jmp    19552 <main+0x31e>
   194f1:	8b 45 f8             	mov    -0x8(%rbp),%eax
   194f4:	48 63 c8             	movslq %eax,%rcx
   194f7:	8b 45 f4             	mov    -0xc(%rbp),%eax
   194fa:	48 63 d0             	movslq %eax,%rdx
   194fd:	48 89 d0             	mov    %rdx,%rax
   19500:	48 c1 e0 02          	shl    $0x2,%rax
   19504:	48 01 d0             	add    %rdx,%rax
   19507:	48 01 c8             	add    %rcx,%rax
   1950a:	48 8d 14 c5 00 00 00 	lea    0x0(,%rax,8),%rdx
   19511:	00 
   19512:	48 8d 05 c7 5b 00 00 	lea    0x5bc7(%rip),%rax        # 1f0e0 <g_211>
   19519:	48 8b 04 02          	mov    (%rdx,%rax,1),%rax
   1951d:	8b 55 fc             	mov    -0x4(%rbp),%edx
   19520:	48 8d 35 f2 2c 00 00 	lea    0x2cf2(%rip),%rsi        # 1c219 <g_2661+0x21a9>
   19527:	48 89 c7             	mov    %rax,%rdi
   1952a:	e8 c4 21 ff ff       	callq  b6f3 <transparent_crc>
   1952f:	83 7d fc 00          	cmpl   $0x0,-0x4(%rbp)
   19533:	74 19                	je     1954e <main+0x31a>
   19535:	8b 55 f8             	mov    -0x8(%rbp),%edx
   19538:	8b 45 f4             	mov    -0xc(%rbp),%eax
   1953b:	89 c6                	mov    %eax,%esi
   1953d:	48 8d 3d e1 2c 00 00 	lea    0x2ce1(%rip),%rdi        # 1c225 <g_2661+0x21b5>
   19544:	b8 00 00 00 00       	mov    $0x0,%eax
   19549:	e8 32 0b ff ff       	callq  a080 <printf@plt>
   1954e:	83 45 f8 01          	addl   $0x1,-0x8(%rbp)
   19552:	83 7d f8 04          	cmpl   $0x4,-0x8(%rbp)
   19556:	7e 99                	jle    194f1 <main+0x2bd>
   19558:	83 45 f4 01          	addl   $0x1,-0xc(%rbp)
   1955c:	83 7d f4 00          	cmpl   $0x0,-0xc(%rbp)
   19560:	7e 86                	jle    194e8 <main+0x2b4>
   19562:	0f b6 05 a7 5b 00 00 	movzbl 0x5ba7(%rip),%eax        # 1f110 <g_253>
   19569:	0f b6 c0             	movzbl %al,%eax
   1956c:	8b 55 fc             	mov    -0x4(%rbp),%edx
   1956f:	48 8d 35 c1 2c 00 00 	lea    0x2cc1(%rip),%rsi        # 1c237 <g_2661+0x21c7>
   19576:	48 89 c7             	mov    %rax,%rdi
   19579:	e8 75 21 ff ff       	callq  b6f3 <transparent_crc>
   1957e:	c7 45 f4 00 00 00 00 	movl   $0x0,-0xc(%rbp)
   19585:	eb 4a                	jmp    195d1 <main+0x39d>
   19587:	8b 45 f4             	mov    -0xc(%rbp),%eax
   1958a:	48 98                	cltq   
   1958c:	48 8d 14 c5 00 00 00 	lea    0x0(,%rax,8),%rdx
   19593:	00 
   19594:	48 8d 05 85 5b 00 00 	lea    0x5b85(%rip),%rax        # 1f120 <g_354>
   1959b:	48 8b 04 02          	mov    (%rdx,%rax,1),%rax
   1959f:	8b 55 fc             	mov    -0x4(%rbp),%edx
   195a2:	48 8d 35 94 2c 00 00 	lea    0x2c94(%rip),%rsi        # 1c23d <g_2661+0x21cd>
   195a9:	48 89 c7             	mov    %rax,%rdi
   195ac:	e8 42 21 ff ff       	callq  b6f3 <transparent_crc>
   195b1:	83 7d fc 00          	cmpl   $0x0,-0x4(%rbp)
   195b5:	74 16                	je     195cd <main+0x399>
   195b7:	8b 45 f4             	mov    -0xc(%rbp),%eax
   195ba:	89 c6                	mov    %eax,%esi
   195bc:	48 8d 3d fe 2b 00 00 	lea    0x2bfe(%rip),%rdi        # 1c1c1 <g_2661+0x2151>
   195c3:	b8 00 00 00 00       	mov    $0x0,%eax
   195c8:	e8 b3 0a ff ff       	callq  a080 <printf@plt>
   195cd:	83 45 f4 01          	addl   $0x1,-0xc(%rbp)
   195d1:	83 7d f4 05          	cmpl   $0x5,-0xc(%rbp)
   195d5:	7e b0                	jle    19587 <main+0x353>
   195d7:	0f b7 05 72 5b 00 00 	movzwl 0x5b72(%rip),%eax        # 1f150 <g_372>
   195de:	0f b7 c0             	movzwl %ax,%eax
   195e1:	8b 55 fc             	mov    -0x4(%rbp),%edx
   195e4:	48 8d 35 5b 2c 00 00 	lea    0x2c5b(%rip),%rsi        # 1c246 <g_2661+0x21d6>
   195eb:	48 89 c7             	mov    %rax,%rdi
   195ee:	e8 00 21 ff ff       	callq  b6f3 <transparent_crc>
   195f3:	8b 05 5b 5b 00 00    	mov    0x5b5b(%rip),%eax        # 1f154 <g_378>
   195f9:	48 98                	cltq   
   195fb:	8b 55 fc             	mov    -0x4(%rbp),%edx
   195fe:	48 8d 35 47 2c 00 00 	lea    0x2c47(%rip),%rsi        # 1c24c <g_2661+0x21dc>
   19605:	48 89 c7             	mov    %rax,%rdi
   19608:	e8 e6 20 ff ff       	callq  b6f3 <transparent_crc>
   1960d:	c7 45 f4 00 00 00 00 	movl   $0x0,-0xc(%rbp)
   19614:	eb 4f                	jmp    19665 <main+0x431>
   19616:	8b 45 f4             	mov    -0xc(%rbp),%eax
   19619:	48 98                	cltq   
   1961b:	48 8d 14 c5 00 00 00 	lea    0x0(,%rax,8),%rdx
   19622:	00 
   19623:	48 8d 05 36 5b 00 00 	lea    0x5b36(%rip),%rax        # 1f160 <g_379>
   1962a:	48 8b 04 02          	mov    (%rdx,%rax,1),%rax
   1962e:	48 89 c1             	mov    %rax,%rcx
   19631:	8b 45 fc             	mov    -0x4(%rbp),%eax
   19634:	89 c2                	mov    %eax,%edx
   19636:	48 8d 35 15 2c 00 00 	lea    0x2c15(%rip),%rsi        # 1c252 <g_2661+0x21e2>
   1963d:	48 89 cf             	mov    %rcx,%rdi
   19640:	e8 ae 20 ff ff       	callq  b6f3 <transparent_crc>
   19645:	83 7d fc 00          	cmpl   $0x0,-0x4(%rbp)
   19649:	74 16                	je     19661 <main+0x42d>
   1964b:	8b 45 f4             	mov    -0xc(%rbp),%eax
   1964e:	89 c6                	mov    %eax,%esi
   19650:	48 8d 3d 6a 2b 00 00 	lea    0x2b6a(%rip),%rdi        # 1c1c1 <g_2661+0x2151>
   19657:	b8 00 00 00 00       	mov    $0x0,%eax
   1965c:	e8 1f 0a ff ff       	callq  a080 <printf@plt>
   19661:	83 45 f4 01          	addl   $0x1,-0xc(%rbp)
   19665:	83 7d f4 07          	cmpl   $0x7,-0xc(%rbp)
   19669:	7e ab                	jle    19616 <main+0x3e2>
   1966b:	b8 fd ff ff ff       	mov    $0xfffffffd,%eax
   19670:	0f b6 c0             	movzbl %al,%eax
   19673:	8b 55 fc             	mov    -0x4(%rbp),%edx
   19676:	48 8d 35 de 2b 00 00 	lea    0x2bde(%rip),%rsi        # 1c25b <g_2661+0x21eb>
   1967d:	48 89 c7             	mov    %rax,%rdi
   19680:	e8 6e 20 ff ff       	callq  b6f3 <transparent_crc>
   19685:	c7 45 f4 00 00 00 00 	movl   $0x0,-0xc(%rbp)
   1968c:	eb 4d                	jmp    196db <main+0x4a7>
   1968e:	8b 45 f4             	mov    -0xc(%rbp),%eax
   19691:	48 98                	cltq   
   19693:	48 8d 14 85 00 00 00 	lea    0x0(,%rax,4),%rdx
   1969a:	00 
   1969b:	48 8d 05 fe 5a 00 00 	lea    0x5afe(%rip),%rax        # 1f1a0 <g_453>
   196a2:	8b 04 02             	mov    (%rdx,%rax,1),%eax
   196a5:	89 c1                	mov    %eax,%ecx
   196a7:	8b 45 fc             	mov    -0x4(%rbp),%eax
   196aa:	89 c2                	mov    %eax,%edx
   196ac:	48 8d 35 ae 2b 00 00 	lea    0x2bae(%rip),%rsi        # 1c261 <g_2661+0x21f1>
   196b3:	48 89 cf             	mov    %rcx,%rdi
   196b6:	e8 38 20 ff ff       	callq  b6f3 <transparent_crc>
   196bb:	83 7d fc 00          	cmpl   $0x0,-0x4(%rbp)
   196bf:	74 16                	je     196d7 <main+0x4a3>
   196c1:	8b 45 f4             	mov    -0xc(%rbp),%eax
   196c4:	89 c6                	mov    %eax,%esi
   196c6:	48 8d 3d f4 2a 00 00 	lea    0x2af4(%rip),%rdi        # 1c1c1 <g_2661+0x2151>
   196cd:	b8 00 00 00 00       	mov    $0x0,%eax
   196d2:	e8 a9 09 ff ff       	callq  a080 <printf@plt>
   196d7:	83 45 f4 01          	addl   $0x1,-0xc(%rbp)
   196db:	83 7d f4 05          	cmpl   $0x5,-0xc(%rbp)
   196df:	7e ad                	jle    1968e <main+0x45a>
   196e1:	0f b7 05 d0 5a 00 00 	movzwl 0x5ad0(%rip),%eax        # 1f1b8 <g_486>
   196e8:	48 0f bf c0          	movswq %ax,%rax
   196ec:	8b 55 fc             	mov    -0x4(%rbp),%edx
   196ef:	48 8d 35 74 2b 00 00 	lea    0x2b74(%rip),%rsi        # 1c26a <g_2661+0x21fa>
   196f6:	48 89 c7             	mov    %rax,%rdi
   196f9:	e8 f5 1f ff ff       	callq  b6f3 <transparent_crc>
   196fe:	8b 05 b8 5a 00 00    	mov    0x5ab8(%rip),%eax        # 1f1bc <g_521>
   19704:	48 98                	cltq   
   19706:	8b 55 fc             	mov    -0x4(%rbp),%edx
   19709:	48 8d 35 60 2b 00 00 	lea    0x2b60(%rip),%rsi        # 1c270 <g_2661+0x2200>
   19710:	48 89 c7             	mov    %rax,%rdi
   19713:	e8 db 1f ff ff       	callq  b6f3 <transparent_crc>
   19718:	8b 05 a2 5a 00 00    	mov    0x5aa2(%rip),%eax        # 1f1c0 <g_523>
   1971e:	48 98                	cltq   
   19720:	8b 55 fc             	mov    -0x4(%rbp),%edx
   19723:	48 8d 35 4c 2b 00 00 	lea    0x2b4c(%rip),%rsi        # 1c276 <g_2661+0x2206>
   1972a:	48 89 c7             	mov    %rax,%rdi
   1972d:	e8 c1 1f ff ff       	callq  b6f3 <transparent_crc>
   19732:	0f b6 05 8b 5a 00 00 	movzbl 0x5a8b(%rip),%eax        # 1f1c4 <g_718>
   19739:	48 0f be c0          	movsbq %al,%rax
   1973d:	8b 55 fc             	mov    -0x4(%rbp),%edx
   19740:	48 8d 35 35 2b 00 00 	lea    0x2b35(%rip),%rsi        # 1c27c <g_2661+0x220c>
   19747:	48 89 c7             	mov    %rax,%rdi
   1974a:	e8 a4 1f ff ff       	callq  b6f3 <transparent_crc>
   1974f:	8b 05 93 9a 00 00    	mov    0x9a93(%rip),%eax        # 231e8 <g_726>
   19755:	89 c1                	mov    %eax,%ecx
   19757:	8b 45 fc             	mov    -0x4(%rbp),%eax
   1975a:	89 c2                	mov    %eax,%edx
   1975c:	48 8d 35 1f 2b 00 00 	lea    0x2b1f(%rip),%rsi        # 1c282 <g_2661+0x2212>
   19763:	48 89 cf             	mov    %rcx,%rdi
   19766:	e8 88 1f ff ff       	callq  b6f3 <transparent_crc>
   1976b:	b8 67 7b 31 a3       	mov    $0xa3317b67,%eax
   19770:	48 98                	cltq   
   19772:	8b 55 fc             	mov    -0x4(%rbp),%edx
   19775:	48 8d 35 0c 2b 00 00 	lea    0x2b0c(%rip),%rsi        # 1c288 <g_2661+0x2218>
   1977c:	48 89 c7             	mov    %rax,%rdi
   1977f:	e8 6f 1f ff ff       	callq  b6f3 <transparent_crc>
   19784:	c7 45 f4 00 00 00 00 	movl   $0x0,-0xc(%rbp)
   1978b:	eb 4a                	jmp    197d7 <main+0x5a3>
   1978d:	8b 45 f4             	mov    -0xc(%rbp),%eax
   19790:	48 98                	cltq   
   19792:	48 8d 14 c5 00 00 00 	lea    0x0(,%rax,8),%rdx
   19799:	00 
   1979a:	48 8d 05 3f 5a 00 00 	lea    0x5a3f(%rip),%rax        # 1f1e0 <g_871>
   197a1:	48 8b 04 02          	mov    (%rdx,%rax,1),%rax
   197a5:	8b 55 fc             	mov    -0x4(%rbp),%edx
   197a8:	48 8d 35 df 2a 00 00 	lea    0x2adf(%rip),%rsi        # 1c28e <g_2661+0x221e>
   197af:	48 89 c7             	mov    %rax,%rdi
   197b2:	e8 3c 1f ff ff       	callq  b6f3 <transparent_crc>
   197b7:	83 7d fc 00          	cmpl   $0x0,-0x4(%rbp)
   197bb:	74 16                	je     197d3 <main+0x59f>
   197bd:	8b 45 f4             	mov    -0xc(%rbp),%eax
   197c0:	89 c6                	mov    %eax,%esi
   197c2:	48 8d 3d f8 29 00 00 	lea    0x29f8(%rip),%rdi        # 1c1c1 <g_2661+0x2151>
   197c9:	b8 00 00 00 00       	mov    $0x0,%eax
   197ce:	e8 ad 08 ff ff       	callq  a080 <printf@plt>
   197d3:	83 45 f4 01          	addl   $0x1,-0xc(%rbp)
   197d7:	83 7d f4 05          	cmpl   $0x5,-0xc(%rbp)
   197db:	7e b0                	jle    1978d <main+0x559>
   197dd:	b8 13 5a 00 00       	mov    $0x5a13,%eax
   197e2:	48 0f bf c0          	movswq %ax,%rax
   197e6:	8b 55 fc             	mov    -0x4(%rbp),%edx
   197e9:	48 8d 35 a7 2a 00 00 	lea    0x2aa7(%rip),%rsi        # 1c297 <g_2661+0x2227>
   197f0:	48 89 c7             	mov    %rax,%rdi
   197f3:	e8 fb 1e ff ff       	callq  b6f3 <transparent_crc>
   197f8:	8b 05 12 5a 00 00    	mov    0x5a12(%rip),%eax        # 1f210 <g_1159>
   197fe:	89 c1                	mov    %eax,%ecx
   19800:	8b 45 fc             	mov    -0x4(%rbp),%eax
   19803:	89 c2                	mov    %eax,%edx
   19805:	48 8d 35 91 2a 00 00 	lea    0x2a91(%rip),%rsi        # 1c29d <g_2661+0x222d>
   1980c:	48 89 cf             	mov    %rcx,%rdi
   1980f:	e8 df 1e ff ff       	callq  b6f3 <transparent_crc>
   19814:	b8 fa ff ff ff       	mov    $0xfffffffa,%eax
   19819:	0f b7 c0             	movzwl %ax,%eax
   1981c:	8b 55 fc             	mov    -0x4(%rbp),%edx
   1981f:	48 8d 35 7e 2a 00 00 	lea    0x2a7e(%rip),%rsi        # 1c2a4 <g_2661+0x2234>
   19826:	48 89 c7             	mov    %rax,%rdi
   19829:	e8 c5 1e ff ff       	callq  b6f3 <transparent_crc>
   1982e:	b8 ff ff ff ff       	mov    $0xffffffff,%eax
   19833:	48 0f bf c0          	movswq %ax,%rax
   19837:	8b 55 fc             	mov    -0x4(%rbp),%edx
   1983a:	48 8d 35 6a 2a 00 00 	lea    0x2a6a(%rip),%rsi        # 1c2ab <g_2661+0x223b>
   19841:	48 89 c7             	mov    %rax,%rdi
   19844:	e8 aa 1e ff ff       	callq  b6f3 <transparent_crc>
   19849:	48 8b 05 c8 59 00 00 	mov    0x59c8(%rip),%rax        # 1f218 <g_1378>
   19850:	48 89 c1             	mov    %rax,%rcx
   19853:	8b 45 fc             	mov    -0x4(%rbp),%eax
   19856:	89 c2                	mov    %eax,%edx
   19858:	48 8d 35 53 2a 00 00 	lea    0x2a53(%rip),%rsi        # 1c2b2 <g_2661+0x2242>
   1985f:	48 89 cf             	mov    %rcx,%rdi
   19862:	e8 8c 1e ff ff       	callq  b6f3 <transparent_crc>
   19867:	0f b7 05 b2 59 00 00 	movzwl 0x59b2(%rip),%eax        # 1f220 <g_1483>
   1986e:	48 0f bf c0          	movswq %ax,%rax
   19872:	8b 55 fc             	mov    -0x4(%rbp),%edx
   19875:	48 8d 35 3d 2a 00 00 	lea    0x2a3d(%rip),%rsi        # 1c2b9 <g_2661+0x2249>
   1987c:	48 89 c7             	mov    %rax,%rdi
   1987f:	e8 6f 1e ff ff       	callq  b6f3 <transparent_crc>
   19884:	48 8b 05 9d 59 00 00 	mov    0x599d(%rip),%rax        # 1f228 <g_1638>
   1988b:	8b 55 fc             	mov    -0x4(%rbp),%edx
   1988e:	48 8d 35 2b 2a 00 00 	lea    0x2a2b(%rip),%rsi        # 1c2c0 <g_2661+0x2250>
   19895:	48 89 c7             	mov    %rax,%rdi
   19898:	e8 56 1e ff ff       	callq  b6f3 <transparent_crc>
   1989d:	0f b7 05 8c 59 00 00 	movzwl 0x598c(%rip),%eax        # 1f230 <g_1641>
   198a4:	0f b7 c0             	movzwl %ax,%eax
   198a7:	8b 55 fc             	mov    -0x4(%rbp),%edx
   198aa:	48 8d 35 16 2a 00 00 	lea    0x2a16(%rip),%rsi        # 1c2c7 <g_2661+0x2257>
   198b1:	48 89 c7             	mov    %rax,%rdi
   198b4:	e8 3a 1e ff ff       	callq  b6f3 <transparent_crc>
   198b9:	8b 05 2d 99 00 00    	mov    0x992d(%rip),%eax        # 231ec <g_1844>
   198bf:	48 98                	cltq   
   198c1:	8b 55 fc             	mov    -0x4(%rbp),%edx
   198c4:	48 8d 35 03 2a 00 00 	lea    0x2a03(%rip),%rsi        # 1c2ce <g_2661+0x225e>
   198cb:	48 89 c7             	mov    %rax,%rdi
   198ce:	e8 20 1e ff ff       	callq  b6f3 <transparent_crc>
   198d3:	8b 05 17 99 00 00    	mov    0x9917(%rip),%eax        # 231f0 <g_1970>
   198d9:	48 98                	cltq   
   198db:	8b 55 fc             	mov    -0x4(%rbp),%edx
   198de:	48 8d 35 f0 29 00 00 	lea    0x29f0(%rip),%rsi        # 1c2d5 <g_2661+0x2265>
   198e5:	48 89 c7             	mov    %rax,%rdi
   198e8:	e8 06 1e ff ff       	callq  b6f3 <transparent_crc>
   198ed:	c7 45 f4 00 00 00 00 	movl   $0x0,-0xc(%rbp)
   198f4:	eb 74                	jmp    1996a <main+0x736>
   198f6:	c7 45 f8 00 00 00 00 	movl   $0x0,-0x8(%rbp)
   198fd:	eb 61                	jmp    19960 <main+0x72c>
   198ff:	8b 45 f8             	mov    -0x8(%rbp),%eax
   19902:	48 63 c8             	movslq %eax,%rcx
   19905:	8b 45 f4             	mov    -0xc(%rbp),%eax
   19908:	48 63 d0             	movslq %eax,%rdx
   1990b:	48 89 d0             	mov    %rdx,%rax
   1990e:	48 c1 e0 03          	shl    $0x3,%rax
   19912:	48 01 d0             	add    %rdx,%rax
   19915:	48 01 c8             	add    %rcx,%rax
   19918:	48 8d 14 c5 00 00 00 	lea    0x0(,%rax,8),%rdx
   1991f:	00 
   19920:	48 8d 05 19 59 00 00 	lea    0x5919(%rip),%rax        # 1f240 <g_2277>
   19927:	48 8b 04 02          	mov    (%rdx,%rax,1),%rax
   1992b:	8b 55 fc             	mov    -0x4(%rbp),%edx
   1992e:	48 8d 35 a7 29 00 00 	lea    0x29a7(%rip),%rsi        # 1c2dc <g_2661+0x226c>
   19935:	48 89 c7             	mov    %rax,%rdi
   19938:	e8 b6 1d ff ff       	callq  b6f3 <transparent_crc>
   1993d:	83 7d fc 00          	cmpl   $0x0,-0x4(%rbp)
   19941:	74 19                	je     1995c <main+0x728>
   19943:	8b 55 f8             	mov    -0x8(%rbp),%edx
   19946:	8b 45 f4             	mov    -0xc(%rbp),%eax
   19949:	89 c6                	mov    %eax,%esi
   1994b:	48 8d 3d d3 28 00 00 	lea    0x28d3(%rip),%rdi        # 1c225 <g_2661+0x21b5>
   19952:	b8 00 00 00 00       	mov    $0x0,%eax
   19957:	e8 24 07 ff ff       	callq  a080 <printf@plt>
   1995c:	83 45 f8 01          	addl   $0x1,-0x8(%rbp)
   19960:	83 7d f8 08          	cmpl   $0x8,-0x8(%rbp)
   19964:	7e 99                	jle    198ff <main+0x6cb>
   19966:	83 45 f4 01          	addl   $0x1,-0xc(%rbp)
   1996a:	83 7d f4 03          	cmpl   $0x3,-0xc(%rbp)
   1996e:	7e 86                	jle    198f6 <main+0x6c2>
   19970:	48 8b 05 e9 59 00 00 	mov    0x59e9(%rip),%rax        # 1f360 <g_2526>
   19977:	48 89 c1             	mov    %rax,%rcx
   1997a:	8b 45 fc             	mov    -0x4(%rbp),%eax
   1997d:	89 c2                	mov    %eax,%edx
   1997f:	48 8d 35 63 29 00 00 	lea    0x2963(%rip),%rsi        # 1c2e9 <g_2661+0x2279>
   19986:	48 89 cf             	mov    %rcx,%rdi
   19989:	e8 65 1d ff ff       	callq  b6f3 <transparent_crc>
   1998e:	0f b6 05 d3 59 00 00 	movzbl 0x59d3(%rip),%eax        # 1f368 <g_2576>
   19995:	48 0f be c0          	movsbq %al,%rax
   19999:	8b 55 fc             	mov    -0x4(%rbp),%edx
   1999c:	48 8d 35 4d 29 00 00 	lea    0x294d(%rip),%rsi        # 1c2f0 <g_2661+0x2280>
   199a3:	48 89 c7             	mov    %rax,%rdi
   199a6:	e8 48 1d ff ff       	callq  b6f3 <transparent_crc>
   199ab:	c7 45 f4 00 00 00 00 	movl   $0x0,-0xc(%rbp)
   199b2:	eb 4b                	jmp    199ff <main+0x7cb>
   199b4:	8b 45 f4             	mov    -0xc(%rbp),%eax
   199b7:	48 98                	cltq   
   199b9:	48 8d 14 85 00 00 00 	lea    0x0(,%rax,4),%rdx
   199c0:	00 
   199c1:	48 8d 05 a8 59 00 00 	lea    0x59a8(%rip),%rax        # 1f370 <g_2590>
   199c8:	8b 04 02             	mov    (%rdx,%rax,1),%eax
   199cb:	48 98                	cltq   
   199cd:	8b 55 fc             	mov    -0x4(%rbp),%edx
   199d0:	48 8d 35 20 29 00 00 	lea    0x2920(%rip),%rsi        # 1c2f7 <g_2661+0x2287>
   199d7:	48 89 c7             	mov    %rax,%rdi
   199da:	e8 14 1d ff ff       	callq  b6f3 <transparent_crc>
   199df:	83 7d fc 00          	cmpl   $0x0,-0x4(%rbp)
   199e3:	74 16                	je     199fb <main+0x7c7>
   199e5:	8b 45 f4             	mov    -0xc(%rbp),%eax
   199e8:	89 c6                	mov    %eax,%esi
   199ea:	48 8d 3d d0 27 00 00 	lea    0x27d0(%rip),%rdi        # 1c1c1 <g_2661+0x2151>
   199f1:	b8 00 00 00 00       	mov    $0x0,%eax
   199f6:	e8 85 06 ff ff       	callq  a080 <printf@plt>
   199fb:	83 45 f4 01          	addl   $0x1,-0xc(%rbp)
   199ff:	83 7d f4 02          	cmpl   $0x2,-0xc(%rbp)
   19a03:	7e af                	jle    199b4 <main+0x780>
   19a05:	b8 00 00 00 00       	mov    $0x0,%eax
   19a0a:	0f b7 c0             	movzwl %ax,%eax
   19a0d:	8b 55 fc             	mov    -0x4(%rbp),%edx
   19a10:	48 8d 35 ea 28 00 00 	lea    0x28ea(%rip),%rsi        # 1c301 <g_2661+0x2291>
   19a17:	48 89 c7             	mov    %rax,%rdi
   19a1a:	e8 d4 1c ff ff       	callq  b6f3 <transparent_crc>
   19a1f:	0f b7 05 56 59 00 00 	movzwl 0x5956(%rip),%eax        # 1f37c <g_2774>
   19a26:	48 0f bf c0          	movswq %ax,%rax
   19a2a:	8b 55 fc             	mov    -0x4(%rbp),%edx
   19a2d:	48 8d 35 d4 28 00 00 	lea    0x28d4(%rip),%rsi        # 1c308 <g_2661+0x2298>
   19a34:	48 89 c7             	mov    %rax,%rdi
   19a37:	e8 b7 1c ff ff       	callq  b6f3 <transparent_crc>
   19a3c:	0f b7 05 3b 59 00 00 	movzwl 0x593b(%rip),%eax        # 1f37e <g_2825>
   19a43:	48 0f bf c0          	movswq %ax,%rax
   19a47:	8b 55 fc             	mov    -0x4(%rbp),%edx
   19a4a:	48 8d 35 be 28 00 00 	lea    0x28be(%rip),%rsi        # 1c30f <g_2661+0x229f>
   19a51:	48 89 c7             	mov    %rax,%rdi
   19a54:	e8 9a 1c ff ff       	callq  b6f3 <transparent_crc>
   19a59:	8b 05 21 59 00 00    	mov    0x5921(%rip),%eax        # 1f380 <g_2882>
   19a5f:	48 98                	cltq   
   19a61:	8b 55 fc             	mov    -0x4(%rbp),%edx
   19a64:	48 8d 35 ab 28 00 00 	lea    0x28ab(%rip),%rsi        # 1c316 <g_2661+0x22a6>
   19a6b:	48 89 c7             	mov    %rax,%rdi
   19a6e:	e8 80 1c ff ff       	callq  b6f3 <transparent_crc>
   19a73:	8b 05 a7 55 00 00    	mov    0x55a7(%rip),%eax        # 1f020 <crc32_context>
   19a79:	f7 d0                	not    %eax
   19a7b:	89 c2                	mov    %eax,%edx
   19a7d:	8b 45 fc             	mov    -0x4(%rbp),%eax
   19a80:	89 c6                	mov    %eax,%esi
   19a82:	89 d7                	mov    %edx,%edi
   19a84:	e8 0b 07 ff ff       	callq  a194 <platform_main_end>
   19a89:	b8 00 00 00 00       	mov    $0x0,%eax
   19a8e:	c9                   	leaveq 
   19a8f:	c3                   	retq   

0000000000019a90 <__libc_csu_init>:
   19a90:	f3 0f 1e fa          	endbr64 
   19a94:	41 57                	push   %r15
   19a96:	4c 8d 3d 93 52 00 00 	lea    0x5293(%rip),%r15        # 1ed30 <__frame_dummy_init_array_entry>
   19a9d:	41 56                	push   %r14
   19a9f:	49 89 d6             	mov    %rdx,%r14
   19aa2:	41 55                	push   %r13
   19aa4:	49 89 f5             	mov    %rsi,%r13
   19aa7:	41 54                	push   %r12
   19aa9:	41 89 fc             	mov    %edi,%r12d
   19aac:	55                   	push   %rbp
   19aad:	48 8d 2d 84 52 00 00 	lea    0x5284(%rip),%rbp        # 1ed38 <__do_global_dtors_aux_fini_array_entry>
   19ab4:	53                   	push   %rbx
   19ab5:	4c 29 fd             	sub    %r15,%rbp
   19ab8:	48 83 ec 08          	sub    $0x8,%rsp
   19abc:	e8 3f 05 ff ff       	callq  a000 <_init>
   19ac1:	48 c1 fd 03          	sar    $0x3,%rbp
   19ac5:	74 1f                	je     19ae6 <__libc_csu_init+0x56>
   19ac7:	31 db                	xor    %ebx,%ebx
   19ac9:	0f 1f 80 00 00 00 00 	nopl   0x0(%rax)
   19ad0:	4c 89 f2             	mov    %r14,%rdx
   19ad3:	4c 89 ee             	mov    %r13,%rsi
   19ad6:	44 89 e7             	mov    %r12d,%edi
   19ad9:	41 ff 14 df          	callq  *(%r15,%rbx,8)
   19add:	48 83 c3 01          	add    $0x1,%rbx
   19ae1:	48 39 dd             	cmp    %rbx,%rbp
   19ae4:	75 ea                	jne    19ad0 <__libc_csu_init+0x40>
   19ae6:	48 83 c4 08          	add    $0x8,%rsp
   19aea:	5b                   	pop    %rbx
   19aeb:	5d                   	pop    %rbp
   19aec:	41 5c                	pop    %r12
   19aee:	41 5d                	pop    %r13
   19af0:	41 5e                	pop    %r14
   19af2:	41 5f                	pop    %r15
   19af4:	c3                   	retq   
   19af5:	66 66 2e 0f 1f 84 00 	data16 nopw %cs:0x0(%rax,%rax,1)
   19afc:	00 00 00 00 

0000000000019b00 <__libc_csu_fini>:
   19b00:	f3 0f 1e fa          	endbr64 
   19b04:	c3                   	retq   
