


Disassembly of section .text:

00000000000060a0 <_start>:
    60a0:	f3 0f 1e fa          	endbr64 
    60a4:	31 ed                	xor    %ebp,%ebp
    60a6:	49 89 d1             	mov    %rdx,%r9
    60a9:	5e                   	pop    %rsi
    60aa:	48 89 e2             	mov    %rsp,%rdx
    60ad:	48 83 e4 f0          	and    $0xfffffffffffffff0,%rsp
    60b1:	50                   	push   %rax
    60b2:	54                   	push   %rsp
    60b3:	4c 8d 05 16 8f 00 00 	lea    0x8f16(%rip),%r8        # efd0 <__libc_csu_fini>
    60ba:	48 8d 0d 9f 8e 00 00 	lea    0x8e9f(%rip),%rcx        # ef60 <__libc_csu_init>
    60c1:	48 8d 3d f1 87 00 00 	lea    0x87f1(%rip),%rdi        # e8b9 <main>
    60c8:	ff 15 12 cf 00 00    	callq  *0xcf12(%rip)        # 12fe0 <__libc_start_main@GLIBC_2.2.5>
    60ce:	f4                   	hlt    
    60cf:	90                   	nop

00000000000060d0 <deregister_tm_clones>:
    60d0:	48 8d 3d e9 f2 00 00 	lea    0xf2e9(%rip),%rdi        # 153c0 <__TMC_END__>
    60d7:	48 8d 05 e2 f2 00 00 	lea    0xf2e2(%rip),%rax        # 153c0 <__TMC_END__>
    60de:	48 39 f8             	cmp    %rdi,%rax
    60e1:	74 15                	je     60f8 <deregister_tm_clones+0x28>
    60e3:	48 8b 05 ee ce 00 00 	mov    0xceee(%rip),%rax        # 12fd8 <_ITM_deregisterTMCloneTable>
    60ea:	48 85 c0             	test   %rax,%rax
    60ed:	74 09                	je     60f8 <deregister_tm_clones+0x28>
    60ef:	ff e0                	jmpq   *%rax
    60f1:	0f 1f 80 00 00 00 00 	nopl   0x0(%rax)
    60f8:	c3                   	retq   
    60f9:	0f 1f 80 00 00 00 00 	nopl   0x0(%rax)

0000000000006100 <register_tm_clones>:
    6100:	48 8d 3d b9 f2 00 00 	lea    0xf2b9(%rip),%rdi        # 153c0 <__TMC_END__>
    6107:	48 8d 35 b2 f2 00 00 	lea    0xf2b2(%rip),%rsi        # 153c0 <__TMC_END__>
    610e:	48 29 fe             	sub    %rdi,%rsi
    6111:	48 89 f0             	mov    %rsi,%rax
    6114:	48 c1 ee 3f          	shr    $0x3f,%rsi
    6118:	48 c1 f8 03          	sar    $0x3,%rax
    611c:	48 01 c6             	add    %rax,%rsi
    611f:	48 d1 fe             	sar    %rsi
    6122:	74 14                	je     6138 <register_tm_clones+0x38>
    6124:	48 8b 05 c5 ce 00 00 	mov    0xcec5(%rip),%rax        # 12ff0 <_ITM_registerTMCloneTable>
    612b:	48 85 c0             	test   %rax,%rax
    612e:	74 08                	je     6138 <register_tm_clones+0x38>
    6130:	ff e0                	jmpq   *%rax
    6132:	66 0f 1f 44 00 00    	nopw   0x0(%rax,%rax,1)
    6138:	c3                   	retq   
    6139:	0f 1f 80 00 00 00 00 	nopl   0x0(%rax)

0000000000006140 <__do_global_dtors_aux>:
    6140:	f3 0f 1e fa          	endbr64 
    6144:	80 3d 75 f2 00 00 00 	cmpb   $0x0,0xf275(%rip)        # 153c0 <__TMC_END__>
    614b:	75 2b                	jne    6178 <__do_global_dtors_aux+0x38>
    614d:	55                   	push   %rbp
    614e:	48 83 3d a2 ce 00 00 	cmpq   $0x0,0xcea2(%rip)        # 12ff8 <__cxa_finalize@GLIBC_2.2.5>
    6155:	00 
    6156:	48 89 e5             	mov    %rsp,%rbp
    6159:	74 0c                	je     6167 <__do_global_dtors_aux+0x27>
    615b:	48 8b 3d a6 ce 00 00 	mov    0xcea6(%rip),%rdi        # 13008 <__dso_handle>
    6162:	e8 f9 fe ff ff       	callq  6060 <__cxa_finalize@plt>
    6167:	e8 64 ff ff ff       	callq  60d0 <deregister_tm_clones>
    616c:	c6 05 4d f2 00 00 01 	movb   $0x1,0xf24d(%rip)        # 153c0 <__TMC_END__>
    6173:	5d                   	pop    %rbp
    6174:	c3                   	retq   
    6175:	0f 1f 00             	nopl   (%rax)
    6178:	c3                   	retq   
    6179:	0f 1f 80 00 00 00 00 	nopl   0x0(%rax)

0000000000006180 <frame_dummy>:
    6180:	f3 0f 1e fa          	endbr64 
    6184:	e9 77 ff ff ff       	jmpq   6100 <register_tm_clones>

0000000000006189 <platform_main_begin>:
    6189:	f3 0f 1e fa          	endbr64 
    618d:	55                   	push   %rbp
    618e:	48 89 e5             	mov    %rsp,%rbp
    6191:	90                   	nop
    6192:	5d                   	pop    %rbp
    6193:	c3                   	retq   

0000000000006194 <platform_main_end>:
    6194:	f3 0f 1e fa          	endbr64 
    6198:	55                   	push   %rbp
    6199:	48 89 e5             	mov    %rsp,%rbp
    619c:	48 83 ec 10          	sub    $0x10,%rsp
    61a0:	89 7d fc             	mov    %edi,-0x4(%rbp)
    61a3:	89 75 f8             	mov    %esi,-0x8(%rbp)
    61a6:	8b 45 fc             	mov    -0x4(%rbp),%eax
    61a9:	89 c6                	mov    %eax,%esi
    61ab:	48 8d 3d 6e 8e 00 00 	lea    0x8e6e(%rip),%rdi        # f020 <_IO_stdin_used+0x20>
    61b2:	b8 00 00 00 00       	mov    $0x0,%eax
    61b7:	e8 c4 fe ff ff       	callq  6080 <printf@plt>
    61bc:	90                   	nop
    61bd:	c9                   	leaveq 
    61be:	c3                   	retq   

00000000000061bf <safe_unary_minus_func_int8_t_s>:
    61bf:	f3 0f 1e fa          	endbr64 
    61c3:	55                   	push   %rbp
    61c4:	48 89 e5             	mov    %rsp,%rbp
    61c7:	89 f8                	mov    %edi,%eax
    61c9:	88 45 fc             	mov    %al,-0x4(%rbp)
    61cc:	0f b6 45 fc          	movzbl -0x4(%rbp),%eax
    61d0:	f7 d8                	neg    %eax
    61d2:	5d                   	pop    %rbp
    61d3:	c3                   	retq   

00000000000061d4 <safe_add_func_int8_t_s_s>:
    61d4:	f3 0f 1e fa          	endbr64 
    61d8:	55                   	push   %rbp
    61d9:	48 89 e5             	mov    %rsp,%rbp
    61dc:	89 fa                	mov    %edi,%edx
    61de:	89 f0                	mov    %esi,%eax
    61e0:	88 55 fc             	mov    %dl,-0x4(%rbp)
    61e3:	88 45 f8             	mov    %al,-0x8(%rbp)
    61e6:	0f b6 55 fc          	movzbl -0x4(%rbp),%edx
    61ea:	0f b6 45 f8          	movzbl -0x8(%rbp),%eax
    61ee:	01 d0                	add    %edx,%eax
    61f0:	5d                   	pop    %rbp
    61f1:	c3                   	retq   

00000000000061f2 <safe_sub_func_int8_t_s_s>:
    61f2:	f3 0f 1e fa          	endbr64 
    61f6:	55                   	push   %rbp
    61f7:	48 89 e5             	mov    %rsp,%rbp
    61fa:	89 fa                	mov    %edi,%edx
    61fc:	89 f0                	mov    %esi,%eax
    61fe:	88 55 fc             	mov    %dl,-0x4(%rbp)
    6201:	88 45 f8             	mov    %al,-0x8(%rbp)
    6204:	0f b6 55 fc          	movzbl -0x4(%rbp),%edx
    6208:	0f b6 45 f8          	movzbl -0x8(%rbp),%eax
    620c:	29 c2                	sub    %eax,%edx
    620e:	89 d0                	mov    %edx,%eax
    6210:	5d                   	pop    %rbp
    6211:	c3                   	retq   

0000000000006212 <safe_mul_func_int8_t_s_s>:
    6212:	f3 0f 1e fa          	endbr64 
    6216:	55                   	push   %rbp
    6217:	48 89 e5             	mov    %rsp,%rbp
    621a:	89 fa                	mov    %edi,%edx
    621c:	89 f0                	mov    %esi,%eax
    621e:	88 55 fc             	mov    %dl,-0x4(%rbp)
    6221:	88 45 f8             	mov    %al,-0x8(%rbp)
    6224:	0f b6 45 fc          	movzbl -0x4(%rbp),%eax
    6228:	0f b6 55 f8          	movzbl -0x8(%rbp),%edx
    622c:	0f af c2             	imul   %edx,%eax
    622f:	5d                   	pop    %rbp
    6230:	c3                   	retq   

0000000000006231 <safe_mod_func_int8_t_s_s>:
    6231:	f3 0f 1e fa          	endbr64 
    6235:	55                   	push   %rbp
    6236:	48 89 e5             	mov    %rsp,%rbp
    6239:	89 fa                	mov    %edi,%edx
    623b:	89 f0                	mov    %esi,%eax
    623d:	88 55 fc             	mov    %dl,-0x4(%rbp)
    6240:	88 45 f8             	mov    %al,-0x8(%rbp)
    6243:	80 7d f8 00          	cmpb   $0x0,-0x8(%rbp)
    6247:	74 1b                	je     6264 <safe_mod_func_int8_t_s_s+0x33>
    6249:	80 7d fc 80          	cmpb   $0x80,-0x4(%rbp)
    624d:	75 06                	jne    6255 <safe_mod_func_int8_t_s_s+0x24>
    624f:	80 7d f8 ff          	cmpb   $0xff,-0x8(%rbp)
    6253:	74 0f                	je     6264 <safe_mod_func_int8_t_s_s+0x33>
    6255:	0f be 45 fc          	movsbl -0x4(%rbp),%eax
    6259:	0f be 4d f8          	movsbl -0x8(%rbp),%ecx
    625d:	99                   	cltd   
    625e:	f7 f9                	idiv   %ecx
    6260:	89 d0                	mov    %edx,%eax
    6262:	eb 04                	jmp    6268 <safe_mod_func_int8_t_s_s+0x37>
    6264:	0f b6 45 fc          	movzbl -0x4(%rbp),%eax
    6268:	5d                   	pop    %rbp
    6269:	c3                   	retq   

000000000000626a <safe_div_func_int8_t_s_s>:
    626a:	f3 0f 1e fa          	endbr64 
    626e:	55                   	push   %rbp
    626f:	48 89 e5             	mov    %rsp,%rbp
    6272:	89 fa                	mov    %edi,%edx
    6274:	89 f0                	mov    %esi,%eax
    6276:	88 55 fc             	mov    %dl,-0x4(%rbp)
    6279:	88 45 f8             	mov    %al,-0x8(%rbp)
    627c:	80 7d f8 00          	cmpb   $0x0,-0x8(%rbp)
    6280:	74 19                	je     629b <safe_div_func_int8_t_s_s+0x31>
    6282:	80 7d fc 80          	cmpb   $0x80,-0x4(%rbp)
    6286:	75 06                	jne    628e <safe_div_func_int8_t_s_s+0x24>
    6288:	80 7d f8 ff          	cmpb   $0xff,-0x8(%rbp)
    628c:	74 0d                	je     629b <safe_div_func_int8_t_s_s+0x31>
    628e:	0f be 45 fc          	movsbl -0x4(%rbp),%eax
    6292:	0f be 4d f8          	movsbl -0x8(%rbp),%ecx
    6296:	99                   	cltd   
    6297:	f7 f9                	idiv   %ecx
    6299:	eb 04                	jmp    629f <safe_div_func_int8_t_s_s+0x35>
    629b:	0f b6 45 fc          	movzbl -0x4(%rbp),%eax
    629f:	5d                   	pop    %rbp
    62a0:	c3                   	retq   

00000000000062a1 <safe_lshift_func_int8_t_s_s>:
    62a1:	f3 0f 1e fa          	endbr64 
    62a5:	55                   	push   %rbp
    62a6:	48 89 e5             	mov    %rsp,%rbp
    62a9:	89 f8                	mov    %edi,%eax
    62ab:	89 75 f8             	mov    %esi,-0x8(%rbp)
    62ae:	88 45 fc             	mov    %al,-0x4(%rbp)
    62b1:	80 7d fc 00          	cmpb   $0x0,-0x4(%rbp)
    62b5:	78 31                	js     62e8 <safe_lshift_func_int8_t_s_s+0x47>
    62b7:	83 7d f8 00          	cmpl   $0x0,-0x8(%rbp)
    62bb:	78 2b                	js     62e8 <safe_lshift_func_int8_t_s_s+0x47>
    62bd:	83 7d f8 1f          	cmpl   $0x1f,-0x8(%rbp)
    62c1:	7f 25                	jg     62e8 <safe_lshift_func_int8_t_s_s+0x47>
    62c3:	0f be 55 fc          	movsbl -0x4(%rbp),%edx
    62c7:	8b 45 f8             	mov    -0x8(%rbp),%eax
    62ca:	be 7f 00 00 00       	mov    $0x7f,%esi
    62cf:	89 c1                	mov    %eax,%ecx
    62d1:	d3 fe                	sar    %cl,%esi
    62d3:	89 f0                	mov    %esi,%eax
    62d5:	39 c2                	cmp    %eax,%edx
    62d7:	7f 0f                	jg     62e8 <safe_lshift_func_int8_t_s_s+0x47>
    62d9:	0f be 55 fc          	movsbl -0x4(%rbp),%edx
    62dd:	8b 45 f8             	mov    -0x8(%rbp),%eax
    62e0:	89 c1                	mov    %eax,%ecx
    62e2:	d3 e2                	shl    %cl,%edx
    62e4:	89 d0                	mov    %edx,%eax
    62e6:	eb 04                	jmp    62ec <safe_lshift_func_int8_t_s_s+0x4b>
    62e8:	0f b6 45 fc          	movzbl -0x4(%rbp),%eax
    62ec:	5d                   	pop    %rbp
    62ed:	c3                   	retq   

00000000000062ee <safe_lshift_func_int8_t_s_u>:
    62ee:	f3 0f 1e fa          	endbr64 
    62f2:	55                   	push   %rbp
    62f3:	48 89 e5             	mov    %rsp,%rbp
    62f6:	89 f8                	mov    %edi,%eax
    62f8:	89 75 f8             	mov    %esi,-0x8(%rbp)
    62fb:	88 45 fc             	mov    %al,-0x4(%rbp)
    62fe:	80 7d fc 00          	cmpb   $0x0,-0x4(%rbp)
    6302:	78 2b                	js     632f <safe_lshift_func_int8_t_s_u+0x41>
    6304:	83 7d f8 1f          	cmpl   $0x1f,-0x8(%rbp)
    6308:	77 25                	ja     632f <safe_lshift_func_int8_t_s_u+0x41>
    630a:	0f be 55 fc          	movsbl -0x4(%rbp),%edx
    630e:	8b 45 f8             	mov    -0x8(%rbp),%eax
    6311:	be 7f 00 00 00       	mov    $0x7f,%esi
    6316:	89 c1                	mov    %eax,%ecx
    6318:	d3 fe                	sar    %cl,%esi
    631a:	89 f0                	mov    %esi,%eax
    631c:	39 c2                	cmp    %eax,%edx
    631e:	7f 0f                	jg     632f <safe_lshift_func_int8_t_s_u+0x41>
    6320:	0f be 55 fc          	movsbl -0x4(%rbp),%edx
    6324:	8b 45 f8             	mov    -0x8(%rbp),%eax
    6327:	89 c1                	mov    %eax,%ecx
    6329:	d3 e2                	shl    %cl,%edx
    632b:	89 d0                	mov    %edx,%eax
    632d:	eb 04                	jmp    6333 <safe_lshift_func_int8_t_s_u+0x45>
    632f:	0f b6 45 fc          	movzbl -0x4(%rbp),%eax
    6333:	5d                   	pop    %rbp
    6334:	c3                   	retq   

0000000000006335 <safe_rshift_func_int8_t_s_s>:
    6335:	f3 0f 1e fa          	endbr64 
    6339:	55                   	push   %rbp
    633a:	48 89 e5             	mov    %rsp,%rbp
    633d:	89 f8                	mov    %edi,%eax
    633f:	89 75 f8             	mov    %esi,-0x8(%rbp)
    6342:	88 45 fc             	mov    %al,-0x4(%rbp)
    6345:	80 7d fc 00          	cmpb   $0x0,-0x4(%rbp)
    6349:	78 1b                	js     6366 <safe_rshift_func_int8_t_s_s+0x31>
    634b:	83 7d f8 00          	cmpl   $0x0,-0x8(%rbp)
    634f:	78 15                	js     6366 <safe_rshift_func_int8_t_s_s+0x31>
    6351:	83 7d f8 1f          	cmpl   $0x1f,-0x8(%rbp)
    6355:	7f 0f                	jg     6366 <safe_rshift_func_int8_t_s_s+0x31>
    6357:	0f be 55 fc          	movsbl -0x4(%rbp),%edx
    635b:	8b 45 f8             	mov    -0x8(%rbp),%eax
    635e:	89 c1                	mov    %eax,%ecx
    6360:	d3 fa                	sar    %cl,%edx
    6362:	89 d0                	mov    %edx,%eax
    6364:	eb 04                	jmp    636a <safe_rshift_func_int8_t_s_s+0x35>
    6366:	0f b6 45 fc          	movzbl -0x4(%rbp),%eax
    636a:	5d                   	pop    %rbp
    636b:	c3                   	retq   

000000000000636c <safe_rshift_func_int8_t_s_u>:
    636c:	f3 0f 1e fa          	endbr64 
    6370:	55                   	push   %rbp
    6371:	48 89 e5             	mov    %rsp,%rbp
    6374:	89 f8                	mov    %edi,%eax
    6376:	89 75 f8             	mov    %esi,-0x8(%rbp)
    6379:	88 45 fc             	mov    %al,-0x4(%rbp)
    637c:	80 7d fc 00          	cmpb   $0x0,-0x4(%rbp)
    6380:	78 15                	js     6397 <safe_rshift_func_int8_t_s_u+0x2b>
    6382:	83 7d f8 1f          	cmpl   $0x1f,-0x8(%rbp)
    6386:	77 0f                	ja     6397 <safe_rshift_func_int8_t_s_u+0x2b>
    6388:	0f be 55 fc          	movsbl -0x4(%rbp),%edx
    638c:	8b 45 f8             	mov    -0x8(%rbp),%eax
    638f:	89 c1                	mov    %eax,%ecx
    6391:	d3 fa                	sar    %cl,%edx
    6393:	89 d0                	mov    %edx,%eax
    6395:	eb 04                	jmp    639b <safe_rshift_func_int8_t_s_u+0x2f>
    6397:	0f b6 45 fc          	movzbl -0x4(%rbp),%eax
    639b:	5d                   	pop    %rbp
    639c:	c3                   	retq   

000000000000639d <safe_unary_minus_func_int16_t_s>:
    639d:	f3 0f 1e fa          	endbr64 
    63a1:	55                   	push   %rbp
    63a2:	48 89 e5             	mov    %rsp,%rbp
    63a5:	89 f8                	mov    %edi,%eax
    63a7:	66 89 45 fc          	mov    %ax,-0x4(%rbp)
    63ab:	0f b7 45 fc          	movzwl -0x4(%rbp),%eax
    63af:	f7 d8                	neg    %eax
    63b1:	5d                   	pop    %rbp
    63b2:	c3                   	retq   

00000000000063b3 <safe_add_func_int16_t_s_s>:
    63b3:	f3 0f 1e fa          	endbr64 
    63b7:	55                   	push   %rbp
    63b8:	48 89 e5             	mov    %rsp,%rbp
    63bb:	89 fa                	mov    %edi,%edx
    63bd:	89 f0                	mov    %esi,%eax
    63bf:	66 89 55 fc          	mov    %dx,-0x4(%rbp)
    63c3:	66 89 45 f8          	mov    %ax,-0x8(%rbp)
    63c7:	0f b7 55 fc          	movzwl -0x4(%rbp),%edx
    63cb:	0f b7 45 f8          	movzwl -0x8(%rbp),%eax
    63cf:	01 d0                	add    %edx,%eax
    63d1:	5d                   	pop    %rbp
    63d2:	c3                   	retq   

00000000000063d3 <safe_sub_func_int16_t_s_s>:
    63d3:	f3 0f 1e fa          	endbr64 
    63d7:	55                   	push   %rbp
    63d8:	48 89 e5             	mov    %rsp,%rbp
    63db:	89 fa                	mov    %edi,%edx
    63dd:	89 f0                	mov    %esi,%eax
    63df:	66 89 55 fc          	mov    %dx,-0x4(%rbp)
    63e3:	66 89 45 f8          	mov    %ax,-0x8(%rbp)
    63e7:	0f b7 55 fc          	movzwl -0x4(%rbp),%edx
    63eb:	0f b7 45 f8          	movzwl -0x8(%rbp),%eax
    63ef:	29 c2                	sub    %eax,%edx
    63f1:	89 d0                	mov    %edx,%eax
    63f3:	5d                   	pop    %rbp
    63f4:	c3                   	retq   

00000000000063f5 <safe_mul_func_int16_t_s_s>:
    63f5:	f3 0f 1e fa          	endbr64 
    63f9:	55                   	push   %rbp
    63fa:	48 89 e5             	mov    %rsp,%rbp
    63fd:	89 fa                	mov    %edi,%edx
    63ff:	89 f0                	mov    %esi,%eax
    6401:	66 89 55 fc          	mov    %dx,-0x4(%rbp)
    6405:	66 89 45 f8          	mov    %ax,-0x8(%rbp)
    6409:	0f b7 55 fc          	movzwl -0x4(%rbp),%edx
    640d:	0f b7 45 f8          	movzwl -0x8(%rbp),%eax
    6411:	0f af c2             	imul   %edx,%eax
    6414:	5d                   	pop    %rbp
    6415:	c3                   	retq   

0000000000006416 <safe_mod_func_int16_t_s_s>:
    6416:	f3 0f 1e fa          	endbr64 
    641a:	55                   	push   %rbp
    641b:	48 89 e5             	mov    %rsp,%rbp
    641e:	89 fa                	mov    %edi,%edx
    6420:	89 f0                	mov    %esi,%eax
    6422:	66 89 55 fc          	mov    %dx,-0x4(%rbp)
    6426:	66 89 45 f8          	mov    %ax,-0x8(%rbp)
    642a:	66 83 7d f8 00       	cmpw   $0x0,-0x8(%rbp)
    642f:	74 1e                	je     644f <safe_mod_func_int16_t_s_s+0x39>
    6431:	66 81 7d fc 00 80    	cmpw   $0x8000,-0x4(%rbp)
    6437:	75 07                	jne    6440 <safe_mod_func_int16_t_s_s+0x2a>
    6439:	66 83 7d f8 ff       	cmpw   $0xffff,-0x8(%rbp)
    643e:	74 0f                	je     644f <safe_mod_func_int16_t_s_s+0x39>
    6440:	0f bf 45 fc          	movswl -0x4(%rbp),%eax
    6444:	0f bf 4d f8          	movswl -0x8(%rbp),%ecx
    6448:	99                   	cltd   
    6449:	f7 f9                	idiv   %ecx
    644b:	89 d0                	mov    %edx,%eax
    644d:	eb 04                	jmp    6453 <safe_mod_func_int16_t_s_s+0x3d>
    644f:	0f b7 45 fc          	movzwl -0x4(%rbp),%eax
    6453:	5d                   	pop    %rbp
    6454:	c3                   	retq   

0000000000006455 <safe_div_func_int16_t_s_s>:
    6455:	f3 0f 1e fa          	endbr64 
    6459:	55                   	push   %rbp
    645a:	48 89 e5             	mov    %rsp,%rbp
    645d:	89 fa                	mov    %edi,%edx
    645f:	89 f0                	mov    %esi,%eax
    6461:	66 89 55 fc          	mov    %dx,-0x4(%rbp)
    6465:	66 89 45 f8          	mov    %ax,-0x8(%rbp)
    6469:	66 83 7d f8 00       	cmpw   $0x0,-0x8(%rbp)
    646e:	74 1c                	je     648c <safe_div_func_int16_t_s_s+0x37>
    6470:	66 81 7d fc 00 80    	cmpw   $0x8000,-0x4(%rbp)
    6476:	75 07                	jne    647f <safe_div_func_int16_t_s_s+0x2a>
    6478:	66 83 7d f8 ff       	cmpw   $0xffff,-0x8(%rbp)
    647d:	74 0d                	je     648c <safe_div_func_int16_t_s_s+0x37>
    647f:	0f bf 45 fc          	movswl -0x4(%rbp),%eax
    6483:	0f bf 4d f8          	movswl -0x8(%rbp),%ecx
    6487:	99                   	cltd   
    6488:	f7 f9                	idiv   %ecx
    648a:	eb 04                	jmp    6490 <safe_div_func_int16_t_s_s+0x3b>
    648c:	0f b7 45 fc          	movzwl -0x4(%rbp),%eax
    6490:	5d                   	pop    %rbp
    6491:	c3                   	retq   

0000000000006492 <safe_lshift_func_int16_t_s_s>:
    6492:	f3 0f 1e fa          	endbr64 
    6496:	55                   	push   %rbp
    6497:	48 89 e5             	mov    %rsp,%rbp
    649a:	89 f8                	mov    %edi,%eax
    649c:	89 75 f8             	mov    %esi,-0x8(%rbp)
    649f:	66 89 45 fc          	mov    %ax,-0x4(%rbp)
    64a3:	66 83 7d fc 00       	cmpw   $0x0,-0x4(%rbp)
    64a8:	78 31                	js     64db <safe_lshift_func_int16_t_s_s+0x49>
    64aa:	83 7d f8 00          	cmpl   $0x0,-0x8(%rbp)
    64ae:	78 2b                	js     64db <safe_lshift_func_int16_t_s_s+0x49>
    64b0:	83 7d f8 1f          	cmpl   $0x1f,-0x8(%rbp)
    64b4:	7f 25                	jg     64db <safe_lshift_func_int16_t_s_s+0x49>
    64b6:	0f bf 55 fc          	movswl -0x4(%rbp),%edx
    64ba:	8b 45 f8             	mov    -0x8(%rbp),%eax
    64bd:	be ff 7f 00 00       	mov    $0x7fff,%esi
    64c2:	89 c1                	mov    %eax,%ecx
    64c4:	d3 fe                	sar    %cl,%esi
    64c6:	89 f0                	mov    %esi,%eax
    64c8:	39 c2                	cmp    %eax,%edx
    64ca:	7f 0f                	jg     64db <safe_lshift_func_int16_t_s_s+0x49>
    64cc:	0f bf 55 fc          	movswl -0x4(%rbp),%edx
    64d0:	8b 45 f8             	mov    -0x8(%rbp),%eax
    64d3:	89 c1                	mov    %eax,%ecx
    64d5:	d3 e2                	shl    %cl,%edx
    64d7:	89 d0                	mov    %edx,%eax
    64d9:	eb 04                	jmp    64df <safe_lshift_func_int16_t_s_s+0x4d>
    64db:	0f b7 45 fc          	movzwl -0x4(%rbp),%eax
    64df:	5d                   	pop    %rbp
    64e0:	c3                   	retq   

00000000000064e1 <safe_lshift_func_int16_t_s_u>:
    64e1:	f3 0f 1e fa          	endbr64 
    64e5:	55                   	push   %rbp
    64e6:	48 89 e5             	mov    %rsp,%rbp
    64e9:	89 f8                	mov    %edi,%eax
    64eb:	89 75 f8             	mov    %esi,-0x8(%rbp)
    64ee:	66 89 45 fc          	mov    %ax,-0x4(%rbp)
    64f2:	66 83 7d fc 00       	cmpw   $0x0,-0x4(%rbp)
    64f7:	78 2b                	js     6524 <safe_lshift_func_int16_t_s_u+0x43>
    64f9:	83 7d f8 1f          	cmpl   $0x1f,-0x8(%rbp)
    64fd:	77 25                	ja     6524 <safe_lshift_func_int16_t_s_u+0x43>
    64ff:	0f bf 55 fc          	movswl -0x4(%rbp),%edx
    6503:	8b 45 f8             	mov    -0x8(%rbp),%eax
    6506:	be ff 7f 00 00       	mov    $0x7fff,%esi
    650b:	89 c1                	mov    %eax,%ecx
    650d:	d3 fe                	sar    %cl,%esi
    650f:	89 f0                	mov    %esi,%eax
    6511:	39 c2                	cmp    %eax,%edx
    6513:	7f 0f                	jg     6524 <safe_lshift_func_int16_t_s_u+0x43>
    6515:	0f bf 55 fc          	movswl -0x4(%rbp),%edx
    6519:	8b 45 f8             	mov    -0x8(%rbp),%eax
    651c:	89 c1                	mov    %eax,%ecx
    651e:	d3 e2                	shl    %cl,%edx
    6520:	89 d0                	mov    %edx,%eax
    6522:	eb 04                	jmp    6528 <safe_lshift_func_int16_t_s_u+0x47>
    6524:	0f b7 45 fc          	movzwl -0x4(%rbp),%eax
    6528:	5d                   	pop    %rbp
    6529:	c3                   	retq   

000000000000652a <safe_rshift_func_int16_t_s_s>:
    652a:	f3 0f 1e fa          	endbr64 
    652e:	55                   	push   %rbp
    652f:	48 89 e5             	mov    %rsp,%rbp
    6532:	89 f8                	mov    %edi,%eax
    6534:	89 75 f8             	mov    %esi,-0x8(%rbp)
    6537:	66 89 45 fc          	mov    %ax,-0x4(%rbp)
    653b:	66 83 7d fc 00       	cmpw   $0x0,-0x4(%rbp)
    6540:	78 1b                	js     655d <safe_rshift_func_int16_t_s_s+0x33>
    6542:	83 7d f8 00          	cmpl   $0x0,-0x8(%rbp)
    6546:	78 15                	js     655d <safe_rshift_func_int16_t_s_s+0x33>
    6548:	83 7d f8 1f          	cmpl   $0x1f,-0x8(%rbp)
    654c:	7f 0f                	jg     655d <safe_rshift_func_int16_t_s_s+0x33>
    654e:	0f bf 55 fc          	movswl -0x4(%rbp),%edx
    6552:	8b 45 f8             	mov    -0x8(%rbp),%eax
    6555:	89 c1                	mov    %eax,%ecx
    6557:	d3 fa                	sar    %cl,%edx
    6559:	89 d0                	mov    %edx,%eax
    655b:	eb 04                	jmp    6561 <safe_rshift_func_int16_t_s_s+0x37>
    655d:	0f b7 45 fc          	movzwl -0x4(%rbp),%eax
    6561:	5d                   	pop    %rbp
    6562:	c3                   	retq   

0000000000006563 <safe_rshift_func_int16_t_s_u>:
    6563:	f3 0f 1e fa          	endbr64 
    6567:	55                   	push   %rbp
    6568:	48 89 e5             	mov    %rsp,%rbp
    656b:	89 f8                	mov    %edi,%eax
    656d:	89 75 f8             	mov    %esi,-0x8(%rbp)
    6570:	66 89 45 fc          	mov    %ax,-0x4(%rbp)
    6574:	66 83 7d fc 00       	cmpw   $0x0,-0x4(%rbp)
    6579:	78 15                	js     6590 <safe_rshift_func_int16_t_s_u+0x2d>
    657b:	83 7d f8 1f          	cmpl   $0x1f,-0x8(%rbp)
    657f:	77 0f                	ja     6590 <safe_rshift_func_int16_t_s_u+0x2d>
    6581:	0f bf 55 fc          	movswl -0x4(%rbp),%edx
    6585:	8b 45 f8             	mov    -0x8(%rbp),%eax
    6588:	89 c1                	mov    %eax,%ecx
    658a:	d3 fa                	sar    %cl,%edx
    658c:	89 d0                	mov    %edx,%eax
    658e:	eb 04                	jmp    6594 <safe_rshift_func_int16_t_s_u+0x31>
    6590:	0f b7 45 fc          	movzwl -0x4(%rbp),%eax
    6594:	5d                   	pop    %rbp
    6595:	c3                   	retq   

0000000000006596 <safe_unary_minus_func_int32_t_s>:
    6596:	f3 0f 1e fa          	endbr64 
    659a:	55                   	push   %rbp
    659b:	48 89 e5             	mov    %rsp,%rbp
    659e:	89 7d fc             	mov    %edi,-0x4(%rbp)
    65a1:	81 7d fc 00 00 00 80 	cmpl   $0x80000000,-0x4(%rbp)
    65a8:	74 07                	je     65b1 <safe_unary_minus_func_int32_t_s+0x1b>
    65aa:	8b 45 fc             	mov    -0x4(%rbp),%eax
    65ad:	f7 d8                	neg    %eax
    65af:	eb 03                	jmp    65b4 <safe_unary_minus_func_int32_t_s+0x1e>
    65b1:	8b 45 fc             	mov    -0x4(%rbp),%eax
    65b4:	5d                   	pop    %rbp
    65b5:	c3                   	retq   

00000000000065b6 <safe_add_func_int32_t_s_s>:
    65b6:	f3 0f 1e fa          	endbr64 
    65ba:	55                   	push   %rbp
    65bb:	48 89 e5             	mov    %rsp,%rbp
    65be:	89 7d fc             	mov    %edi,-0x4(%rbp)
    65c1:	89 75 f8             	mov    %esi,-0x8(%rbp)
    65c4:	83 7d fc 00          	cmpl   $0x0,-0x4(%rbp)
    65c8:	7e 13                	jle    65dd <safe_add_func_int32_t_s_s+0x27>
    65ca:	83 7d f8 00          	cmpl   $0x0,-0x8(%rbp)
    65ce:	7e 0d                	jle    65dd <safe_add_func_int32_t_s_s+0x27>
    65d0:	b8 ff ff ff 7f       	mov    $0x7fffffff,%eax
    65d5:	2b 45 f8             	sub    -0x8(%rbp),%eax
    65d8:	39 45 fc             	cmp    %eax,-0x4(%rbp)
    65db:	7f 23                	jg     6600 <safe_add_func_int32_t_s_s+0x4a>
    65dd:	83 7d fc 00          	cmpl   $0x0,-0x4(%rbp)
    65e1:	79 13                	jns    65f6 <safe_add_func_int32_t_s_s+0x40>
    65e3:	83 7d f8 00          	cmpl   $0x0,-0x8(%rbp)
    65e7:	79 0d                	jns    65f6 <safe_add_func_int32_t_s_s+0x40>
    65e9:	b8 00 00 00 80       	mov    $0x80000000,%eax
    65ee:	2b 45 f8             	sub    -0x8(%rbp),%eax
    65f1:	39 45 fc             	cmp    %eax,-0x4(%rbp)
    65f4:	7c 0a                	jl     6600 <safe_add_func_int32_t_s_s+0x4a>
    65f6:	8b 55 fc             	mov    -0x4(%rbp),%edx
    65f9:	8b 45 f8             	mov    -0x8(%rbp),%eax
    65fc:	01 d0                	add    %edx,%eax
    65fe:	eb 03                	jmp    6603 <safe_add_func_int32_t_s_s+0x4d>
    6600:	8b 45 fc             	mov    -0x4(%rbp),%eax
    6603:	5d                   	pop    %rbp
    6604:	c3                   	retq   

0000000000006605 <safe_sub_func_int32_t_s_s>:
    6605:	f3 0f 1e fa          	endbr64 
    6609:	55                   	push   %rbp
    660a:	48 89 e5             	mov    %rsp,%rbp
    660d:	89 7d fc             	mov    %edi,-0x4(%rbp)
    6610:	89 75 f8             	mov    %esi,-0x8(%rbp)
    6613:	8b 45 fc             	mov    -0x4(%rbp),%eax
    6616:	33 45 f8             	xor    -0x8(%rbp),%eax
    6619:	89 c2                	mov    %eax,%edx
    661b:	8b 45 fc             	mov    -0x4(%rbp),%eax
    661e:	33 45 f8             	xor    -0x8(%rbp),%eax
    6621:	25 00 00 00 80       	and    $0x80000000,%eax
    6626:	33 45 fc             	xor    -0x4(%rbp),%eax
    6629:	2b 45 f8             	sub    -0x8(%rbp),%eax
    662c:	33 45 f8             	xor    -0x8(%rbp),%eax
    662f:	21 d0                	and    %edx,%eax
    6631:	85 c0                	test   %eax,%eax
    6633:	78 08                	js     663d <safe_sub_func_int32_t_s_s+0x38>
    6635:	8b 45 fc             	mov    -0x4(%rbp),%eax
    6638:	2b 45 f8             	sub    -0x8(%rbp),%eax
    663b:	eb 03                	jmp    6640 <safe_sub_func_int32_t_s_s+0x3b>
    663d:	8b 45 fc             	mov    -0x4(%rbp),%eax
    6640:	5d                   	pop    %rbp
    6641:	c3                   	retq   

0000000000006642 <safe_mul_func_int32_t_s_s>:
    6642:	f3 0f 1e fa          	endbr64 
    6646:	55                   	push   %rbp
    6647:	48 89 e5             	mov    %rsp,%rbp
    664a:	89 7d fc             	mov    %edi,-0x4(%rbp)
    664d:	89 75 f8             	mov    %esi,-0x8(%rbp)
    6650:	83 7d fc 00          	cmpl   $0x0,-0x4(%rbp)
    6654:	7e 14                	jle    666a <safe_mul_func_int32_t_s_s+0x28>
    6656:	83 7d f8 00          	cmpl   $0x0,-0x8(%rbp)
    665a:	7e 0e                	jle    666a <safe_mul_func_int32_t_s_s+0x28>
    665c:	b8 ff ff ff 7f       	mov    $0x7fffffff,%eax
    6661:	99                   	cltd   
    6662:	f7 7d f8             	idivl  -0x8(%rbp)
    6665:	39 45 fc             	cmp    %eax,-0x4(%rbp)
    6668:	7f 5d                	jg     66c7 <safe_mul_func_int32_t_s_s+0x85>
    666a:	83 7d fc 00          	cmpl   $0x0,-0x4(%rbp)
    666e:	7e 14                	jle    6684 <safe_mul_func_int32_t_s_s+0x42>
    6670:	83 7d f8 00          	cmpl   $0x0,-0x8(%rbp)
    6674:	7f 0e                	jg     6684 <safe_mul_func_int32_t_s_s+0x42>
    6676:	b8 00 00 00 80       	mov    $0x80000000,%eax
    667b:	99                   	cltd   
    667c:	f7 7d fc             	idivl  -0x4(%rbp)
    667f:	39 45 f8             	cmp    %eax,-0x8(%rbp)
    6682:	7c 43                	jl     66c7 <safe_mul_func_int32_t_s_s+0x85>
    6684:	83 7d fc 00          	cmpl   $0x0,-0x4(%rbp)
    6688:	7f 14                	jg     669e <safe_mul_func_int32_t_s_s+0x5c>
    668a:	83 7d f8 00          	cmpl   $0x0,-0x8(%rbp)
    668e:	7e 0e                	jle    669e <safe_mul_func_int32_t_s_s+0x5c>
    6690:	b8 00 00 00 80       	mov    $0x80000000,%eax
    6695:	99                   	cltd   
    6696:	f7 7d f8             	idivl  -0x8(%rbp)
    6699:	39 45 fc             	cmp    %eax,-0x4(%rbp)
    669c:	7c 29                	jl     66c7 <safe_mul_func_int32_t_s_s+0x85>
    669e:	83 7d fc 00          	cmpl   $0x0,-0x4(%rbp)
    66a2:	7f 1a                	jg     66be <safe_mul_func_int32_t_s_s+0x7c>
    66a4:	83 7d f8 00          	cmpl   $0x0,-0x8(%rbp)
    66a8:	7f 14                	jg     66be <safe_mul_func_int32_t_s_s+0x7c>
    66aa:	83 7d fc 00          	cmpl   $0x0,-0x4(%rbp)
    66ae:	74 0e                	je     66be <safe_mul_func_int32_t_s_s+0x7c>
    66b0:	b8 ff ff ff 7f       	mov    $0x7fffffff,%eax
    66b5:	99                   	cltd   
    66b6:	f7 7d fc             	idivl  -0x4(%rbp)
    66b9:	39 45 f8             	cmp    %eax,-0x8(%rbp)
    66bc:	7c 09                	jl     66c7 <safe_mul_func_int32_t_s_s+0x85>
    66be:	8b 45 fc             	mov    -0x4(%rbp),%eax
    66c1:	0f af 45 f8          	imul   -0x8(%rbp),%eax
    66c5:	eb 03                	jmp    66ca <safe_mul_func_int32_t_s_s+0x88>
    66c7:	8b 45 fc             	mov    -0x4(%rbp),%eax
    66ca:	5d                   	pop    %rbp
    66cb:	c3                   	retq   

00000000000066cc <safe_mod_func_int32_t_s_s>:
    66cc:	f3 0f 1e fa          	endbr64 
    66d0:	55                   	push   %rbp
    66d1:	48 89 e5             	mov    %rsp,%rbp
    66d4:	89 7d fc             	mov    %edi,-0x4(%rbp)
    66d7:	89 75 f8             	mov    %esi,-0x8(%rbp)
    66da:	83 7d f8 00          	cmpl   $0x0,-0x8(%rbp)
    66de:	74 1a                	je     66fa <safe_mod_func_int32_t_s_s+0x2e>
    66e0:	81 7d fc 00 00 00 80 	cmpl   $0x80000000,-0x4(%rbp)
    66e7:	75 06                	jne    66ef <safe_mod_func_int32_t_s_s+0x23>
    66e9:	83 7d f8 ff          	cmpl   $0xffffffff,-0x8(%rbp)
    66ed:	74 0b                	je     66fa <safe_mod_func_int32_t_s_s+0x2e>
    66ef:	8b 45 fc             	mov    -0x4(%rbp),%eax
    66f2:	99                   	cltd   
    66f3:	f7 7d f8             	idivl  -0x8(%rbp)
    66f6:	89 d0                	mov    %edx,%eax
    66f8:	eb 03                	jmp    66fd <safe_mod_func_int32_t_s_s+0x31>
    66fa:	8b 45 fc             	mov    -0x4(%rbp),%eax
    66fd:	5d                   	pop    %rbp
    66fe:	c3                   	retq   

00000000000066ff <safe_div_func_int32_t_s_s>:
    66ff:	f3 0f 1e fa          	endbr64 
    6703:	55                   	push   %rbp
    6704:	48 89 e5             	mov    %rsp,%rbp
    6707:	89 7d fc             	mov    %edi,-0x4(%rbp)
    670a:	89 75 f8             	mov    %esi,-0x8(%rbp)
    670d:	83 7d f8 00          	cmpl   $0x0,-0x8(%rbp)
    6711:	74 18                	je     672b <safe_div_func_int32_t_s_s+0x2c>
    6713:	81 7d fc 00 00 00 80 	cmpl   $0x80000000,-0x4(%rbp)
    671a:	75 06                	jne    6722 <safe_div_func_int32_t_s_s+0x23>
    671c:	83 7d f8 ff          	cmpl   $0xffffffff,-0x8(%rbp)
    6720:	74 09                	je     672b <safe_div_func_int32_t_s_s+0x2c>
    6722:	8b 45 fc             	mov    -0x4(%rbp),%eax
    6725:	99                   	cltd   
    6726:	f7 7d f8             	idivl  -0x8(%rbp)
    6729:	eb 03                	jmp    672e <safe_div_func_int32_t_s_s+0x2f>
    672b:	8b 45 fc             	mov    -0x4(%rbp),%eax
    672e:	5d                   	pop    %rbp
    672f:	c3                   	retq   

0000000000006730 <safe_lshift_func_int32_t_s_s>:
    6730:	f3 0f 1e fa          	endbr64 
    6734:	55                   	push   %rbp
    6735:	48 89 e5             	mov    %rsp,%rbp
    6738:	89 7d fc             	mov    %edi,-0x4(%rbp)
    673b:	89 75 f8             	mov    %esi,-0x8(%rbp)
    673e:	83 7d fc 00          	cmpl   $0x0,-0x4(%rbp)
    6742:	78 2d                	js     6771 <safe_lshift_func_int32_t_s_s+0x41>
    6744:	83 7d f8 00          	cmpl   $0x0,-0x8(%rbp)
    6748:	78 27                	js     6771 <safe_lshift_func_int32_t_s_s+0x41>
    674a:	83 7d f8 1f          	cmpl   $0x1f,-0x8(%rbp)
    674e:	7f 21                	jg     6771 <safe_lshift_func_int32_t_s_s+0x41>
    6750:	8b 45 f8             	mov    -0x8(%rbp),%eax
    6753:	ba ff ff ff 7f       	mov    $0x7fffffff,%edx
    6758:	89 c1                	mov    %eax,%ecx
    675a:	d3 fa                	sar    %cl,%edx
    675c:	89 d0                	mov    %edx,%eax
    675e:	39 45 fc             	cmp    %eax,-0x4(%rbp)
    6761:	7f 0e                	jg     6771 <safe_lshift_func_int32_t_s_s+0x41>
    6763:	8b 45 f8             	mov    -0x8(%rbp),%eax
    6766:	8b 55 fc             	mov    -0x4(%rbp),%edx
    6769:	89 c1                	mov    %eax,%ecx
    676b:	d3 e2                	shl    %cl,%edx
    676d:	89 d0                	mov    %edx,%eax
    676f:	eb 03                	jmp    6774 <safe_lshift_func_int32_t_s_s+0x44>
    6771:	8b 45 fc             	mov    -0x4(%rbp),%eax
    6774:	5d                   	pop    %rbp
    6775:	c3                   	retq   

0000000000006776 <safe_lshift_func_int32_t_s_u>:
    6776:	f3 0f 1e fa          	endbr64 
    677a:	55                   	push   %rbp
    677b:	48 89 e5             	mov    %rsp,%rbp
    677e:	89 7d fc             	mov    %edi,-0x4(%rbp)
    6781:	89 75 f8             	mov    %esi,-0x8(%rbp)
    6784:	83 7d fc 00          	cmpl   $0x0,-0x4(%rbp)
    6788:	78 27                	js     67b1 <safe_lshift_func_int32_t_s_u+0x3b>
    678a:	83 7d f8 1f          	cmpl   $0x1f,-0x8(%rbp)
    678e:	77 21                	ja     67b1 <safe_lshift_func_int32_t_s_u+0x3b>
    6790:	8b 45 f8             	mov    -0x8(%rbp),%eax
    6793:	ba ff ff ff 7f       	mov    $0x7fffffff,%edx
    6798:	89 c1                	mov    %eax,%ecx
    679a:	d3 fa                	sar    %cl,%edx
    679c:	89 d0                	mov    %edx,%eax
    679e:	39 45 fc             	cmp    %eax,-0x4(%rbp)
    67a1:	7f 0e                	jg     67b1 <safe_lshift_func_int32_t_s_u+0x3b>
    67a3:	8b 45 f8             	mov    -0x8(%rbp),%eax
    67a6:	8b 55 fc             	mov    -0x4(%rbp),%edx
    67a9:	89 c1                	mov    %eax,%ecx
    67ab:	d3 e2                	shl    %cl,%edx
    67ad:	89 d0                	mov    %edx,%eax
    67af:	eb 03                	jmp    67b4 <safe_lshift_func_int32_t_s_u+0x3e>
    67b1:	8b 45 fc             	mov    -0x4(%rbp),%eax
    67b4:	5d                   	pop    %rbp
    67b5:	c3                   	retq   

00000000000067b6 <safe_rshift_func_int32_t_s_s>:
    67b6:	f3 0f 1e fa          	endbr64 
    67ba:	55                   	push   %rbp
    67bb:	48 89 e5             	mov    %rsp,%rbp
    67be:	89 7d fc             	mov    %edi,-0x4(%rbp)
    67c1:	89 75 f8             	mov    %esi,-0x8(%rbp)
    67c4:	83 7d fc 00          	cmpl   $0x0,-0x4(%rbp)
    67c8:	78 1a                	js     67e4 <safe_rshift_func_int32_t_s_s+0x2e>
    67ca:	83 7d f8 00          	cmpl   $0x0,-0x8(%rbp)
    67ce:	78 14                	js     67e4 <safe_rshift_func_int32_t_s_s+0x2e>
    67d0:	83 7d f8 1f          	cmpl   $0x1f,-0x8(%rbp)
    67d4:	7f 0e                	jg     67e4 <safe_rshift_func_int32_t_s_s+0x2e>
    67d6:	8b 45 f8             	mov    -0x8(%rbp),%eax
    67d9:	8b 55 fc             	mov    -0x4(%rbp),%edx
    67dc:	89 c1                	mov    %eax,%ecx
    67de:	d3 fa                	sar    %cl,%edx
    67e0:	89 d0                	mov    %edx,%eax
    67e2:	eb 03                	jmp    67e7 <safe_rshift_func_int32_t_s_s+0x31>
    67e4:	8b 45 fc             	mov    -0x4(%rbp),%eax
    67e7:	5d                   	pop    %rbp
    67e8:	c3                   	retq   

00000000000067e9 <safe_rshift_func_int32_t_s_u>:
    67e9:	f3 0f 1e fa          	endbr64 
    67ed:	55                   	push   %rbp
    67ee:	48 89 e5             	mov    %rsp,%rbp
    67f1:	89 7d fc             	mov    %edi,-0x4(%rbp)
    67f4:	89 75 f8             	mov    %esi,-0x8(%rbp)
    67f7:	83 7d fc 00          	cmpl   $0x0,-0x4(%rbp)
    67fb:	78 14                	js     6811 <safe_rshift_func_int32_t_s_u+0x28>
    67fd:	83 7d f8 1f          	cmpl   $0x1f,-0x8(%rbp)
    6801:	77 0e                	ja     6811 <safe_rshift_func_int32_t_s_u+0x28>
    6803:	8b 45 f8             	mov    -0x8(%rbp),%eax
    6806:	8b 55 fc             	mov    -0x4(%rbp),%edx
    6809:	89 c1                	mov    %eax,%ecx
    680b:	d3 fa                	sar    %cl,%edx
    680d:	89 d0                	mov    %edx,%eax
    680f:	eb 03                	jmp    6814 <safe_rshift_func_int32_t_s_u+0x2b>
    6811:	8b 45 fc             	mov    -0x4(%rbp),%eax
    6814:	5d                   	pop    %rbp
    6815:	c3                   	retq   

0000000000006816 <safe_unary_minus_func_int64_t_s>:
    6816:	f3 0f 1e fa          	endbr64 
    681a:	55                   	push   %rbp
    681b:	48 89 e5             	mov    %rsp,%rbp
    681e:	48 89 7d f8          	mov    %rdi,-0x8(%rbp)
    6822:	48 b8 00 00 00 00 00 	movabs $0x8000000000000000,%rax
    6829:	00 00 80 
    682c:	48 39 45 f8          	cmp    %rax,-0x8(%rbp)
    6830:	74 09                	je     683b <safe_unary_minus_func_int64_t_s+0x25>
    6832:	48 8b 45 f8          	mov    -0x8(%rbp),%rax
    6836:	48 f7 d8             	neg    %rax
    6839:	eb 04                	jmp    683f <safe_unary_minus_func_int64_t_s+0x29>
    683b:	48 8b 45 f8          	mov    -0x8(%rbp),%rax
    683f:	5d                   	pop    %rbp
    6840:	c3                   	retq   

0000000000006841 <safe_add_func_int64_t_s_s>:
    6841:	f3 0f 1e fa          	endbr64 
    6845:	55                   	push   %rbp
    6846:	48 89 e5             	mov    %rsp,%rbp
    6849:	48 89 7d f8          	mov    %rdi,-0x8(%rbp)
    684d:	48 89 75 f0          	mov    %rsi,-0x10(%rbp)
    6851:	48 83 7d f8 00       	cmpq   $0x0,-0x8(%rbp)
    6856:	7e 1b                	jle    6873 <safe_add_func_int64_t_s_s+0x32>
    6858:	48 83 7d f0 00       	cmpq   $0x0,-0x10(%rbp)
    685d:	7e 14                	jle    6873 <safe_add_func_int64_t_s_s+0x32>
    685f:	48 b8 ff ff ff ff ff 	movabs $0x7fffffffffffffff,%rax
    6866:	ff ff 7f 
    6869:	48 2b 45 f0          	sub    -0x10(%rbp),%rax
    686d:	48 39 45 f8          	cmp    %rax,-0x8(%rbp)
    6871:	7f 2f                	jg     68a2 <safe_add_func_int64_t_s_s+0x61>
    6873:	48 83 7d f8 00       	cmpq   $0x0,-0x8(%rbp)
    6878:	79 1b                	jns    6895 <safe_add_func_int64_t_s_s+0x54>
    687a:	48 83 7d f0 00       	cmpq   $0x0,-0x10(%rbp)
    687f:	79 14                	jns    6895 <safe_add_func_int64_t_s_s+0x54>
    6881:	48 b8 00 00 00 00 00 	movabs $0x8000000000000000,%rax
    6888:	00 00 80 
    688b:	48 2b 45 f0          	sub    -0x10(%rbp),%rax
    688f:	48 39 45 f8          	cmp    %rax,-0x8(%rbp)
    6893:	7c 0d                	jl     68a2 <safe_add_func_int64_t_s_s+0x61>
    6895:	48 8b 55 f8          	mov    -0x8(%rbp),%rdx
    6899:	48 8b 45 f0          	mov    -0x10(%rbp),%rax
    689d:	48 01 d0             	add    %rdx,%rax
    68a0:	eb 04                	jmp    68a6 <safe_add_func_int64_t_s_s+0x65>
    68a2:	48 8b 45 f8          	mov    -0x8(%rbp),%rax
    68a6:	5d                   	pop    %rbp
    68a7:	c3                   	retq   

00000000000068a8 <safe_sub_func_int64_t_s_s>:
    68a8:	f3 0f 1e fa          	endbr64 
    68ac:	55                   	push   %rbp
    68ad:	48 89 e5             	mov    %rsp,%rbp
    68b0:	48 89 7d f8          	mov    %rdi,-0x8(%rbp)
    68b4:	48 89 75 f0          	mov    %rsi,-0x10(%rbp)
    68b8:	48 8b 45 f8          	mov    -0x8(%rbp),%rax
    68bc:	48 33 45 f0          	xor    -0x10(%rbp),%rax
    68c0:	48 89 c2             	mov    %rax,%rdx
    68c3:	48 8b 45 f8          	mov    -0x8(%rbp),%rax
    68c7:	48 33 45 f0          	xor    -0x10(%rbp),%rax
    68cb:	48 b9 00 00 00 00 00 	movabs $0x8000000000000000,%rcx
    68d2:	00 00 80 
    68d5:	48 21 c8             	and    %rcx,%rax
    68d8:	48 33 45 f8          	xor    -0x8(%rbp),%rax
    68dc:	48 2b 45 f0          	sub    -0x10(%rbp),%rax
    68e0:	48 33 45 f0          	xor    -0x10(%rbp),%rax
    68e4:	48 21 d0             	and    %rdx,%rax
    68e7:	48 85 c0             	test   %rax,%rax
    68ea:	78 0a                	js     68f6 <safe_sub_func_int64_t_s_s+0x4e>
    68ec:	48 8b 45 f8          	mov    -0x8(%rbp),%rax
    68f0:	48 2b 45 f0          	sub    -0x10(%rbp),%rax
    68f4:	eb 04                	jmp    68fa <safe_sub_func_int64_t_s_s+0x52>
    68f6:	48 8b 45 f8          	mov    -0x8(%rbp),%rax
    68fa:	5d                   	pop    %rbp
    68fb:	c3                   	retq   

00000000000068fc <safe_mul_func_int64_t_s_s>:
    68fc:	f3 0f 1e fa          	endbr64 
    6900:	55                   	push   %rbp
    6901:	48 89 e5             	mov    %rsp,%rbp
    6904:	48 89 7d f8          	mov    %rdi,-0x8(%rbp)
    6908:	48 89 75 f0          	mov    %rsi,-0x10(%rbp)
    690c:	48 83 7d f8 00       	cmpq   $0x0,-0x8(%rbp)
    6911:	7e 1d                	jle    6930 <safe_mul_func_int64_t_s_s+0x34>
    6913:	48 83 7d f0 00       	cmpq   $0x0,-0x10(%rbp)
    6918:	7e 16                	jle    6930 <safe_mul_func_int64_t_s_s+0x34>
    691a:	48 b8 ff ff ff ff ff 	movabs $0x7fffffffffffffff,%rax
    6921:	ff ff 7f 
    6924:	48 99                	cqto   
    6926:	48 f7 7d f0          	idivq  -0x10(%rbp)
    692a:	48 39 45 f8          	cmp    %rax,-0x8(%rbp)
    692e:	7f 7e                	jg     69ae <safe_mul_func_int64_t_s_s+0xb2>
    6930:	48 83 7d f8 00       	cmpq   $0x0,-0x8(%rbp)
    6935:	7e 1d                	jle    6954 <safe_mul_func_int64_t_s_s+0x58>
    6937:	48 83 7d f0 00       	cmpq   $0x0,-0x10(%rbp)
    693c:	7f 16                	jg     6954 <safe_mul_func_int64_t_s_s+0x58>
    693e:	48 b8 00 00 00 00 00 	movabs $0x8000000000000000,%rax
    6945:	00 00 80 
    6948:	48 99                	cqto   
    694a:	48 f7 7d f8          	idivq  -0x8(%rbp)
    694e:	48 39 45 f0          	cmp    %rax,-0x10(%rbp)
    6952:	7c 5a                	jl     69ae <safe_mul_func_int64_t_s_s+0xb2>
    6954:	48 83 7d f8 00       	cmpq   $0x0,-0x8(%rbp)
    6959:	7f 1d                	jg     6978 <safe_mul_func_int64_t_s_s+0x7c>
    695b:	48 83 7d f0 00       	cmpq   $0x0,-0x10(%rbp)
    6960:	7e 16                	jle    6978 <safe_mul_func_int64_t_s_s+0x7c>
    6962:	48 b8 00 00 00 00 00 	movabs $0x8000000000000000,%rax
    6969:	00 00 80 
    696c:	48 99                	cqto   
    696e:	48 f7 7d f0          	idivq  -0x10(%rbp)
    6972:	48 39 45 f8          	cmp    %rax,-0x8(%rbp)
    6976:	7c 36                	jl     69ae <safe_mul_func_int64_t_s_s+0xb2>
    6978:	48 83 7d f8 00       	cmpq   $0x0,-0x8(%rbp)
    697d:	7f 24                	jg     69a3 <safe_mul_func_int64_t_s_s+0xa7>
    697f:	48 83 7d f0 00       	cmpq   $0x0,-0x10(%rbp)
    6984:	7f 1d                	jg     69a3 <safe_mul_func_int64_t_s_s+0xa7>
    6986:	48 83 7d f8 00       	cmpq   $0x0,-0x8(%rbp)
    698b:	74 16                	je     69a3 <safe_mul_func_int64_t_s_s+0xa7>
    698d:	48 b8 ff ff ff ff ff 	movabs $0x7fffffffffffffff,%rax
    6994:	ff ff 7f 
    6997:	48 99                	cqto   
    6999:	48 f7 7d f8          	idivq  -0x8(%rbp)
    699d:	48 39 45 f0          	cmp    %rax,-0x10(%rbp)
    69a1:	7c 0b                	jl     69ae <safe_mul_func_int64_t_s_s+0xb2>
    69a3:	48 8b 45 f8          	mov    -0x8(%rbp),%rax
    69a7:	48 0f af 45 f0       	imul   -0x10(%rbp),%rax
    69ac:	eb 04                	jmp    69b2 <safe_mul_func_int64_t_s_s+0xb6>
    69ae:	48 8b 45 f8          	mov    -0x8(%rbp),%rax
    69b2:	5d                   	pop    %rbp
    69b3:	c3                   	retq   

00000000000069b4 <safe_mod_func_int64_t_s_s>:
    69b4:	f3 0f 1e fa          	endbr64 
    69b8:	55                   	push   %rbp
    69b9:	48 89 e5             	mov    %rsp,%rbp
    69bc:	48 89 7d f8          	mov    %rdi,-0x8(%rbp)
    69c0:	48 89 75 f0          	mov    %rsi,-0x10(%rbp)
    69c4:	48 83 7d f0 00       	cmpq   $0x0,-0x10(%rbp)
    69c9:	74 26                	je     69f1 <safe_mod_func_int64_t_s_s+0x3d>
    69cb:	48 b8 00 00 00 00 00 	movabs $0x8000000000000000,%rax
    69d2:	00 00 80 
    69d5:	48 39 45 f8          	cmp    %rax,-0x8(%rbp)
    69d9:	75 07                	jne    69e2 <safe_mod_func_int64_t_s_s+0x2e>
    69db:	48 83 7d f0 ff       	cmpq   $0xffffffffffffffff,-0x10(%rbp)
    69e0:	74 0f                	je     69f1 <safe_mod_func_int64_t_s_s+0x3d>
    69e2:	48 8b 45 f8          	mov    -0x8(%rbp),%rax
    69e6:	48 99                	cqto   
    69e8:	48 f7 7d f0          	idivq  -0x10(%rbp)
    69ec:	48 89 d0             	mov    %rdx,%rax
    69ef:	eb 04                	jmp    69f5 <safe_mod_func_int64_t_s_s+0x41>
    69f1:	48 8b 45 f8          	mov    -0x8(%rbp),%rax
    69f5:	5d                   	pop    %rbp
    69f6:	c3                   	retq   

00000000000069f7 <safe_div_func_int64_t_s_s>:
    69f7:	f3 0f 1e fa          	endbr64 
    69fb:	55                   	push   %rbp
    69fc:	48 89 e5             	mov    %rsp,%rbp
    69ff:	48 89 7d f8          	mov    %rdi,-0x8(%rbp)
    6a03:	48 89 75 f0          	mov    %rsi,-0x10(%rbp)
    6a07:	48 83 7d f0 00       	cmpq   $0x0,-0x10(%rbp)
    6a0c:	74 23                	je     6a31 <safe_div_func_int64_t_s_s+0x3a>
    6a0e:	48 b8 00 00 00 00 00 	movabs $0x8000000000000000,%rax
    6a15:	00 00 80 
    6a18:	48 39 45 f8          	cmp    %rax,-0x8(%rbp)
    6a1c:	75 07                	jne    6a25 <safe_div_func_int64_t_s_s+0x2e>
    6a1e:	48 83 7d f0 ff       	cmpq   $0xffffffffffffffff,-0x10(%rbp)
    6a23:	74 0c                	je     6a31 <safe_div_func_int64_t_s_s+0x3a>
    6a25:	48 8b 45 f8          	mov    -0x8(%rbp),%rax
    6a29:	48 99                	cqto   
    6a2b:	48 f7 7d f0          	idivq  -0x10(%rbp)
    6a2f:	eb 04                	jmp    6a35 <safe_div_func_int64_t_s_s+0x3e>
    6a31:	48 8b 45 f8          	mov    -0x8(%rbp),%rax
    6a35:	5d                   	pop    %rbp
    6a36:	c3                   	retq   

0000000000006a37 <safe_lshift_func_int64_t_s_s>:
    6a37:	f3 0f 1e fa          	endbr64 
    6a3b:	55                   	push   %rbp
    6a3c:	48 89 e5             	mov    %rsp,%rbp
    6a3f:	48 89 7d f8          	mov    %rdi,-0x8(%rbp)
    6a43:	89 75 f4             	mov    %esi,-0xc(%rbp)
    6a46:	48 83 7d f8 00       	cmpq   $0x0,-0x8(%rbp)
    6a4b:	78 38                	js     6a85 <safe_lshift_func_int64_t_s_s+0x4e>
    6a4d:	83 7d f4 00          	cmpl   $0x0,-0xc(%rbp)
    6a51:	78 32                	js     6a85 <safe_lshift_func_int64_t_s_s+0x4e>
    6a53:	83 7d f4 1f          	cmpl   $0x1f,-0xc(%rbp)
    6a57:	7f 2c                	jg     6a85 <safe_lshift_func_int64_t_s_s+0x4e>
    6a59:	8b 45 f4             	mov    -0xc(%rbp),%eax
    6a5c:	48 ba ff ff ff ff ff 	movabs $0x7fffffffffffffff,%rdx
    6a63:	ff ff 7f 
    6a66:	89 c1                	mov    %eax,%ecx
    6a68:	48 d3 fa             	sar    %cl,%rdx
    6a6b:	48 89 d0             	mov    %rdx,%rax
    6a6e:	48 39 45 f8          	cmp    %rax,-0x8(%rbp)
    6a72:	7f 11                	jg     6a85 <safe_lshift_func_int64_t_s_s+0x4e>
    6a74:	8b 45 f4             	mov    -0xc(%rbp),%eax
    6a77:	48 8b 55 f8          	mov    -0x8(%rbp),%rdx
    6a7b:	89 c1                	mov    %eax,%ecx
    6a7d:	48 d3 e2             	shl    %cl,%rdx
    6a80:	48 89 d0             	mov    %rdx,%rax
    6a83:	eb 04                	jmp    6a89 <safe_lshift_func_int64_t_s_s+0x52>
    6a85:	48 8b 45 f8          	mov    -0x8(%rbp),%rax
    6a89:	5d                   	pop    %rbp
    6a8a:	c3                   	retq   

0000000000006a8b <safe_lshift_func_int64_t_s_u>:
    6a8b:	f3 0f 1e fa          	endbr64 
    6a8f:	55                   	push   %rbp
    6a90:	48 89 e5             	mov    %rsp,%rbp
    6a93:	48 89 7d f8          	mov    %rdi,-0x8(%rbp)
    6a97:	89 75 f4             	mov    %esi,-0xc(%rbp)
    6a9a:	48 83 7d f8 00       	cmpq   $0x0,-0x8(%rbp)
    6a9f:	78 32                	js     6ad3 <safe_lshift_func_int64_t_s_u+0x48>
    6aa1:	83 7d f4 1f          	cmpl   $0x1f,-0xc(%rbp)
    6aa5:	77 2c                	ja     6ad3 <safe_lshift_func_int64_t_s_u+0x48>
    6aa7:	8b 45 f4             	mov    -0xc(%rbp),%eax
    6aaa:	48 ba ff ff ff ff ff 	movabs $0x7fffffffffffffff,%rdx
    6ab1:	ff ff 7f 
    6ab4:	89 c1                	mov    %eax,%ecx
    6ab6:	48 d3 fa             	sar    %cl,%rdx
    6ab9:	48 89 d0             	mov    %rdx,%rax
    6abc:	48 39 45 f8          	cmp    %rax,-0x8(%rbp)
    6ac0:	7f 11                	jg     6ad3 <safe_lshift_func_int64_t_s_u+0x48>
    6ac2:	8b 45 f4             	mov    -0xc(%rbp),%eax
    6ac5:	48 8b 55 f8          	mov    -0x8(%rbp),%rdx
    6ac9:	89 c1                	mov    %eax,%ecx
    6acb:	48 d3 e2             	shl    %cl,%rdx
    6ace:	48 89 d0             	mov    %rdx,%rax
    6ad1:	eb 04                	jmp    6ad7 <safe_lshift_func_int64_t_s_u+0x4c>
    6ad3:	48 8b 45 f8          	mov    -0x8(%rbp),%rax
    6ad7:	5d                   	pop    %rbp
    6ad8:	c3                   	retq   

0000000000006ad9 <safe_rshift_func_int64_t_s_s>:
    6ad9:	f3 0f 1e fa          	endbr64 
    6add:	55                   	push   %rbp
    6ade:	48 89 e5             	mov    %rsp,%rbp
    6ae1:	48 89 7d f8          	mov    %rdi,-0x8(%rbp)
    6ae5:	89 75 f4             	mov    %esi,-0xc(%rbp)
    6ae8:	48 83 7d f8 00       	cmpq   $0x0,-0x8(%rbp)
    6aed:	78 1d                	js     6b0c <safe_rshift_func_int64_t_s_s+0x33>
    6aef:	83 7d f4 00          	cmpl   $0x0,-0xc(%rbp)
    6af3:	78 17                	js     6b0c <safe_rshift_func_int64_t_s_s+0x33>
    6af5:	83 7d f4 1f          	cmpl   $0x1f,-0xc(%rbp)
    6af9:	7f 11                	jg     6b0c <safe_rshift_func_int64_t_s_s+0x33>
    6afb:	8b 45 f4             	mov    -0xc(%rbp),%eax
    6afe:	48 8b 55 f8          	mov    -0x8(%rbp),%rdx
    6b02:	89 c1                	mov    %eax,%ecx
    6b04:	48 d3 fa             	sar    %cl,%rdx
    6b07:	48 89 d0             	mov    %rdx,%rax
    6b0a:	eb 04                	jmp    6b10 <safe_rshift_func_int64_t_s_s+0x37>
    6b0c:	48 8b 45 f8          	mov    -0x8(%rbp),%rax
    6b10:	5d                   	pop    %rbp
    6b11:	c3                   	retq   

0000000000006b12 <safe_rshift_func_int64_t_s_u>:
    6b12:	f3 0f 1e fa          	endbr64 
    6b16:	55                   	push   %rbp
    6b17:	48 89 e5             	mov    %rsp,%rbp
    6b1a:	48 89 7d f8          	mov    %rdi,-0x8(%rbp)
    6b1e:	89 75 f4             	mov    %esi,-0xc(%rbp)
    6b21:	48 83 7d f8 00       	cmpq   $0x0,-0x8(%rbp)
    6b26:	78 17                	js     6b3f <safe_rshift_func_int64_t_s_u+0x2d>
    6b28:	83 7d f4 1f          	cmpl   $0x1f,-0xc(%rbp)
    6b2c:	77 11                	ja     6b3f <safe_rshift_func_int64_t_s_u+0x2d>
    6b2e:	8b 45 f4             	mov    -0xc(%rbp),%eax
    6b31:	48 8b 55 f8          	mov    -0x8(%rbp),%rdx
    6b35:	89 c1                	mov    %eax,%ecx
    6b37:	48 d3 fa             	sar    %cl,%rdx
    6b3a:	48 89 d0             	mov    %rdx,%rax
    6b3d:	eb 04                	jmp    6b43 <safe_rshift_func_int64_t_s_u+0x31>
    6b3f:	48 8b 45 f8          	mov    -0x8(%rbp),%rax
    6b43:	5d                   	pop    %rbp
    6b44:	c3                   	retq   

0000000000006b45 <safe_unary_minus_func_uint8_t_u>:
    6b45:	f3 0f 1e fa          	endbr64 
    6b49:	55                   	push   %rbp
    6b4a:	48 89 e5             	mov    %rsp,%rbp
    6b4d:	89 f8                	mov    %edi,%eax
    6b4f:	88 45 fc             	mov    %al,-0x4(%rbp)
    6b52:	0f b6 45 fc          	movzbl -0x4(%rbp),%eax
    6b56:	f7 d8                	neg    %eax
    6b58:	5d                   	pop    %rbp
    6b59:	c3                   	retq   

0000000000006b5a <safe_add_func_uint8_t_u_u>:
    6b5a:	f3 0f 1e fa          	endbr64 
    6b5e:	55                   	push   %rbp
    6b5f:	48 89 e5             	mov    %rsp,%rbp
    6b62:	89 fa                	mov    %edi,%edx
    6b64:	89 f0                	mov    %esi,%eax
    6b66:	88 55 fc             	mov    %dl,-0x4(%rbp)
    6b69:	88 45 f8             	mov    %al,-0x8(%rbp)
    6b6c:	0f b6 55 fc          	movzbl -0x4(%rbp),%edx
    6b70:	0f b6 45 f8          	movzbl -0x8(%rbp),%eax
    6b74:	01 d0                	add    %edx,%eax
    6b76:	5d                   	pop    %rbp
    6b77:	c3                   	retq   

0000000000006b78 <safe_sub_func_uint8_t_u_u>:
    6b78:	f3 0f 1e fa          	endbr64 
    6b7c:	55                   	push   %rbp
    6b7d:	48 89 e5             	mov    %rsp,%rbp
    6b80:	89 fa                	mov    %edi,%edx
    6b82:	89 f0                	mov    %esi,%eax
    6b84:	88 55 fc             	mov    %dl,-0x4(%rbp)
    6b87:	88 45 f8             	mov    %al,-0x8(%rbp)
    6b8a:	0f b6 45 fc          	movzbl -0x4(%rbp),%eax
    6b8e:	2a 45 f8             	sub    -0x8(%rbp),%al
    6b91:	5d                   	pop    %rbp
    6b92:	c3                   	retq   

0000000000006b93 <safe_mul_func_uint8_t_u_u>:
    6b93:	f3 0f 1e fa          	endbr64 
    6b97:	55                   	push   %rbp
    6b98:	48 89 e5             	mov    %rsp,%rbp
    6b9b:	89 fa                	mov    %edi,%edx
    6b9d:	89 f0                	mov    %esi,%eax
    6b9f:	88 55 fc             	mov    %dl,-0x4(%rbp)
    6ba2:	88 45 f8             	mov    %al,-0x8(%rbp)
    6ba5:	0f b6 45 fc          	movzbl -0x4(%rbp),%eax
    6ba9:	f6 65 f8             	mulb   -0x8(%rbp)
    6bac:	5d                   	pop    %rbp
    6bad:	c3                   	retq   

0000000000006bae <safe_mod_func_uint8_t_u_u>:
    6bae:	f3 0f 1e fa          	endbr64 
    6bb2:	55                   	push   %rbp
    6bb3:	48 89 e5             	mov    %rsp,%rbp
    6bb6:	89 fa                	mov    %edi,%edx
    6bb8:	89 f0                	mov    %esi,%eax
    6bba:	88 55 fc             	mov    %dl,-0x4(%rbp)
    6bbd:	88 45 f8             	mov    %al,-0x8(%rbp)
    6bc0:	80 7d f8 00          	cmpb   $0x0,-0x8(%rbp)
    6bc4:	74 0f                	je     6bd5 <safe_mod_func_uint8_t_u_u+0x27>
    6bc6:	0f b6 45 fc          	movzbl -0x4(%rbp),%eax
    6bca:	0f b6 c0             	movzbl %al,%eax
    6bcd:	f6 75 f8             	divb   -0x8(%rbp)
    6bd0:	0f b6 c4             	movzbl %ah,%eax
    6bd3:	eb 04                	jmp    6bd9 <safe_mod_func_uint8_t_u_u+0x2b>
    6bd5:	0f b6 45 fc          	movzbl -0x4(%rbp),%eax
    6bd9:	5d                   	pop    %rbp
    6bda:	c3                   	retq   

0000000000006bdb <safe_div_func_uint8_t_u_u>:
    6bdb:	f3 0f 1e fa          	endbr64 
    6bdf:	55                   	push   %rbp
    6be0:	48 89 e5             	mov    %rsp,%rbp
    6be3:	89 fa                	mov    %edi,%edx
    6be5:	89 f0                	mov    %esi,%eax
    6be7:	88 55 fc             	mov    %dl,-0x4(%rbp)
    6bea:	88 45 f8             	mov    %al,-0x8(%rbp)
    6bed:	80 7d f8 00          	cmpb   $0x0,-0x8(%rbp)
    6bf1:	74 0c                	je     6bff <safe_div_func_uint8_t_u_u+0x24>
    6bf3:	0f b6 45 fc          	movzbl -0x4(%rbp),%eax
    6bf7:	0f b6 c0             	movzbl %al,%eax
    6bfa:	f6 75 f8             	divb   -0x8(%rbp)
    6bfd:	eb 04                	jmp    6c03 <safe_div_func_uint8_t_u_u+0x28>
    6bff:	0f b6 45 fc          	movzbl -0x4(%rbp),%eax
    6c03:	5d                   	pop    %rbp
    6c04:	c3                   	retq   

0000000000006c05 <safe_lshift_func_uint8_t_u_s>:
    6c05:	f3 0f 1e fa          	endbr64 
    6c09:	55                   	push   %rbp
    6c0a:	48 89 e5             	mov    %rsp,%rbp
    6c0d:	89 f8                	mov    %edi,%eax
    6c0f:	89 75 f8             	mov    %esi,-0x8(%rbp)
    6c12:	88 45 fc             	mov    %al,-0x4(%rbp)
    6c15:	83 7d f8 00          	cmpl   $0x0,-0x8(%rbp)
    6c19:	78 2b                	js     6c46 <safe_lshift_func_uint8_t_u_s+0x41>
    6c1b:	83 7d f8 1f          	cmpl   $0x1f,-0x8(%rbp)
    6c1f:	7f 25                	jg     6c46 <safe_lshift_func_uint8_t_u_s+0x41>
    6c21:	0f b6 55 fc          	movzbl -0x4(%rbp),%edx
    6c25:	8b 45 f8             	mov    -0x8(%rbp),%eax
    6c28:	be ff 00 00 00       	mov    $0xff,%esi
    6c2d:	89 c1                	mov    %eax,%ecx
    6c2f:	d3 fe                	sar    %cl,%esi
    6c31:	89 f0                	mov    %esi,%eax
    6c33:	39 c2                	cmp    %eax,%edx
    6c35:	7f 0f                	jg     6c46 <safe_lshift_func_uint8_t_u_s+0x41>
    6c37:	0f b6 55 fc          	movzbl -0x4(%rbp),%edx
    6c3b:	8b 45 f8             	mov    -0x8(%rbp),%eax
    6c3e:	89 c1                	mov    %eax,%ecx
    6c40:	d3 e2                	shl    %cl,%edx
    6c42:	89 d0                	mov    %edx,%eax
    6c44:	eb 04                	jmp    6c4a <safe_lshift_func_uint8_t_u_s+0x45>
    6c46:	0f b6 45 fc          	movzbl -0x4(%rbp),%eax
    6c4a:	5d                   	pop    %rbp
    6c4b:	c3                   	retq   

0000000000006c4c <safe_lshift_func_uint8_t_u_u>:
    6c4c:	f3 0f 1e fa          	endbr64 
    6c50:	55                   	push   %rbp
    6c51:	48 89 e5             	mov    %rsp,%rbp
    6c54:	89 f8                	mov    %edi,%eax
    6c56:	89 75 f8             	mov    %esi,-0x8(%rbp)
    6c59:	88 45 fc             	mov    %al,-0x4(%rbp)
    6c5c:	83 7d f8 1f          	cmpl   $0x1f,-0x8(%rbp)
    6c60:	77 25                	ja     6c87 <safe_lshift_func_uint8_t_u_u+0x3b>
    6c62:	0f b6 55 fc          	movzbl -0x4(%rbp),%edx
    6c66:	8b 45 f8             	mov    -0x8(%rbp),%eax
    6c69:	be ff 00 00 00       	mov    $0xff,%esi
    6c6e:	89 c1                	mov    %eax,%ecx
    6c70:	d3 fe                	sar    %cl,%esi
    6c72:	89 f0                	mov    %esi,%eax
    6c74:	39 c2                	cmp    %eax,%edx
    6c76:	7f 0f                	jg     6c87 <safe_lshift_func_uint8_t_u_u+0x3b>
    6c78:	0f b6 55 fc          	movzbl -0x4(%rbp),%edx
    6c7c:	8b 45 f8             	mov    -0x8(%rbp),%eax
    6c7f:	89 c1                	mov    %eax,%ecx
    6c81:	d3 e2                	shl    %cl,%edx
    6c83:	89 d0                	mov    %edx,%eax
    6c85:	eb 04                	jmp    6c8b <safe_lshift_func_uint8_t_u_u+0x3f>
    6c87:	0f b6 45 fc          	movzbl -0x4(%rbp),%eax
    6c8b:	5d                   	pop    %rbp
    6c8c:	c3                   	retq   

0000000000006c8d <safe_rshift_func_uint8_t_u_s>:
    6c8d:	f3 0f 1e fa          	endbr64 
    6c91:	55                   	push   %rbp
    6c92:	48 89 e5             	mov    %rsp,%rbp
    6c95:	89 f8                	mov    %edi,%eax
    6c97:	89 75 f8             	mov    %esi,-0x8(%rbp)
    6c9a:	88 45 fc             	mov    %al,-0x4(%rbp)
    6c9d:	83 7d f8 00          	cmpl   $0x0,-0x8(%rbp)
    6ca1:	78 15                	js     6cb8 <safe_rshift_func_uint8_t_u_s+0x2b>
    6ca3:	83 7d f8 1f          	cmpl   $0x1f,-0x8(%rbp)
    6ca7:	7f 0f                	jg     6cb8 <safe_rshift_func_uint8_t_u_s+0x2b>
    6ca9:	0f b6 55 fc          	movzbl -0x4(%rbp),%edx
    6cad:	8b 45 f8             	mov    -0x8(%rbp),%eax
    6cb0:	89 c1                	mov    %eax,%ecx
    6cb2:	d3 fa                	sar    %cl,%edx
    6cb4:	89 d0                	mov    %edx,%eax
    6cb6:	eb 04                	jmp    6cbc <safe_rshift_func_uint8_t_u_s+0x2f>
    6cb8:	0f b6 45 fc          	movzbl -0x4(%rbp),%eax
    6cbc:	5d                   	pop    %rbp
    6cbd:	c3                   	retq   

0000000000006cbe <safe_rshift_func_uint8_t_u_u>:
    6cbe:	f3 0f 1e fa          	endbr64 
    6cc2:	55                   	push   %rbp
    6cc3:	48 89 e5             	mov    %rsp,%rbp
    6cc6:	89 f8                	mov    %edi,%eax
    6cc8:	89 75 f8             	mov    %esi,-0x8(%rbp)
    6ccb:	88 45 fc             	mov    %al,-0x4(%rbp)
    6cce:	83 7d f8 1f          	cmpl   $0x1f,-0x8(%rbp)
    6cd2:	77 0f                	ja     6ce3 <safe_rshift_func_uint8_t_u_u+0x25>
    6cd4:	0f b6 55 fc          	movzbl -0x4(%rbp),%edx
    6cd8:	8b 45 f8             	mov    -0x8(%rbp),%eax
    6cdb:	89 c1                	mov    %eax,%ecx
    6cdd:	d3 fa                	sar    %cl,%edx
    6cdf:	89 d0                	mov    %edx,%eax
    6ce1:	eb 04                	jmp    6ce7 <safe_rshift_func_uint8_t_u_u+0x29>
    6ce3:	0f b6 45 fc          	movzbl -0x4(%rbp),%eax
    6ce7:	5d                   	pop    %rbp
    6ce8:	c3                   	retq   

0000000000006ce9 <safe_unary_minus_func_uint16_t_u>:
    6ce9:	f3 0f 1e fa          	endbr64 
    6ced:	55                   	push   %rbp
    6cee:	48 89 e5             	mov    %rsp,%rbp
    6cf1:	89 f8                	mov    %edi,%eax
    6cf3:	66 89 45 fc          	mov    %ax,-0x4(%rbp)
    6cf7:	0f b7 45 fc          	movzwl -0x4(%rbp),%eax
    6cfb:	f7 d8                	neg    %eax
    6cfd:	5d                   	pop    %rbp
    6cfe:	c3                   	retq   

0000000000006cff <safe_add_func_uint16_t_u_u>:
    6cff:	f3 0f 1e fa          	endbr64 
    6d03:	55                   	push   %rbp
    6d04:	48 89 e5             	mov    %rsp,%rbp
    6d07:	89 fa                	mov    %edi,%edx
    6d09:	89 f0                	mov    %esi,%eax
    6d0b:	66 89 55 fc          	mov    %dx,-0x4(%rbp)
    6d0f:	66 89 45 f8          	mov    %ax,-0x8(%rbp)
    6d13:	0f b7 55 fc          	movzwl -0x4(%rbp),%edx
    6d17:	0f b7 45 f8          	movzwl -0x8(%rbp),%eax
    6d1b:	01 d0                	add    %edx,%eax
    6d1d:	5d                   	pop    %rbp
    6d1e:	c3                   	retq   

0000000000006d1f <safe_sub_func_uint16_t_u_u>:
    6d1f:	f3 0f 1e fa          	endbr64 
    6d23:	55                   	push   %rbp
    6d24:	48 89 e5             	mov    %rsp,%rbp
    6d27:	89 fa                	mov    %edi,%edx
    6d29:	89 f0                	mov    %esi,%eax
    6d2b:	66 89 55 fc          	mov    %dx,-0x4(%rbp)
    6d2f:	66 89 45 f8          	mov    %ax,-0x8(%rbp)
    6d33:	0f b7 45 fc          	movzwl -0x4(%rbp),%eax
    6d37:	66 2b 45 f8          	sub    -0x8(%rbp),%ax
    6d3b:	5d                   	pop    %rbp
    6d3c:	c3                   	retq   

0000000000006d3d <safe_mul_func_uint16_t_u_u>:
    6d3d:	f3 0f 1e fa          	endbr64 
    6d41:	55                   	push   %rbp
    6d42:	48 89 e5             	mov    %rsp,%rbp
    6d45:	89 fa                	mov    %edi,%edx
    6d47:	89 f0                	mov    %esi,%eax
    6d49:	66 89 55 fc          	mov    %dx,-0x4(%rbp)
    6d4d:	66 89 45 f8          	mov    %ax,-0x8(%rbp)
    6d51:	0f b7 45 fc          	movzwl -0x4(%rbp),%eax
    6d55:	66 0f af 45 f8       	imul   -0x8(%rbp),%ax
    6d5a:	5d                   	pop    %rbp
    6d5b:	c3                   	retq   

0000000000006d5c <safe_mod_func_uint16_t_u_u>:
    6d5c:	f3 0f 1e fa          	endbr64 
    6d60:	55                   	push   %rbp
    6d61:	48 89 e5             	mov    %rsp,%rbp
    6d64:	89 fa                	mov    %edi,%edx
    6d66:	89 f0                	mov    %esi,%eax
    6d68:	66 89 55 fc          	mov    %dx,-0x4(%rbp)
    6d6c:	66 89 45 f8          	mov    %ax,-0x8(%rbp)
    6d70:	66 83 7d f8 00       	cmpw   $0x0,-0x8(%rbp)
    6d75:	74 11                	je     6d88 <safe_mod_func_uint16_t_u_u+0x2c>
    6d77:	0f b7 45 fc          	movzwl -0x4(%rbp),%eax
    6d7b:	ba 00 00 00 00       	mov    $0x0,%edx
    6d80:	66 f7 75 f8          	divw   -0x8(%rbp)
    6d84:	89 d0                	mov    %edx,%eax
    6d86:	eb 04                	jmp    6d8c <safe_mod_func_uint16_t_u_u+0x30>
    6d88:	0f b7 45 fc          	movzwl -0x4(%rbp),%eax
    6d8c:	5d                   	pop    %rbp
    6d8d:	c3                   	retq   

0000000000006d8e <safe_div_func_uint16_t_u_u>:
    6d8e:	f3 0f 1e fa          	endbr64 
    6d92:	55                   	push   %rbp
    6d93:	48 89 e5             	mov    %rsp,%rbp
    6d96:	89 fa                	mov    %edi,%edx
    6d98:	89 f0                	mov    %esi,%eax
    6d9a:	66 89 55 fc          	mov    %dx,-0x4(%rbp)
    6d9e:	66 89 45 f8          	mov    %ax,-0x8(%rbp)
    6da2:	66 83 7d f8 00       	cmpw   $0x0,-0x8(%rbp)
    6da7:	74 0f                	je     6db8 <safe_div_func_uint16_t_u_u+0x2a>
    6da9:	0f b7 45 fc          	movzwl -0x4(%rbp),%eax
    6dad:	ba 00 00 00 00       	mov    $0x0,%edx
    6db2:	66 f7 75 f8          	divw   -0x8(%rbp)
    6db6:	eb 04                	jmp    6dbc <safe_div_func_uint16_t_u_u+0x2e>
    6db8:	0f b7 45 fc          	movzwl -0x4(%rbp),%eax
    6dbc:	5d                   	pop    %rbp
    6dbd:	c3                   	retq   

0000000000006dbe <safe_lshift_func_uint16_t_u_s>:
    6dbe:	f3 0f 1e fa          	endbr64 
    6dc2:	55                   	push   %rbp
    6dc3:	48 89 e5             	mov    %rsp,%rbp
    6dc6:	89 f8                	mov    %edi,%eax
    6dc8:	89 75 f8             	mov    %esi,-0x8(%rbp)
    6dcb:	66 89 45 fc          	mov    %ax,-0x4(%rbp)
    6dcf:	83 7d f8 00          	cmpl   $0x0,-0x8(%rbp)
    6dd3:	78 2b                	js     6e00 <safe_lshift_func_uint16_t_u_s+0x42>
    6dd5:	83 7d f8 1f          	cmpl   $0x1f,-0x8(%rbp)
    6dd9:	7f 25                	jg     6e00 <safe_lshift_func_uint16_t_u_s+0x42>
    6ddb:	0f b7 55 fc          	movzwl -0x4(%rbp),%edx
    6ddf:	8b 45 f8             	mov    -0x8(%rbp),%eax
    6de2:	be ff ff 00 00       	mov    $0xffff,%esi
    6de7:	89 c1                	mov    %eax,%ecx
    6de9:	d3 fe                	sar    %cl,%esi
    6deb:	89 f0                	mov    %esi,%eax
    6ded:	39 c2                	cmp    %eax,%edx
    6def:	7f 0f                	jg     6e00 <safe_lshift_func_uint16_t_u_s+0x42>
    6df1:	0f b7 55 fc          	movzwl -0x4(%rbp),%edx
    6df5:	8b 45 f8             	mov    -0x8(%rbp),%eax
    6df8:	89 c1                	mov    %eax,%ecx
    6dfa:	d3 e2                	shl    %cl,%edx
    6dfc:	89 d0                	mov    %edx,%eax
    6dfe:	eb 04                	jmp    6e04 <safe_lshift_func_uint16_t_u_s+0x46>
    6e00:	0f b7 45 fc          	movzwl -0x4(%rbp),%eax
    6e04:	5d                   	pop    %rbp
    6e05:	c3                   	retq   

0000000000006e06 <safe_lshift_func_uint16_t_u_u>:
    6e06:	f3 0f 1e fa          	endbr64 
    6e0a:	55                   	push   %rbp
    6e0b:	48 89 e5             	mov    %rsp,%rbp
    6e0e:	89 f8                	mov    %edi,%eax
    6e10:	89 75 f8             	mov    %esi,-0x8(%rbp)
    6e13:	66 89 45 fc          	mov    %ax,-0x4(%rbp)
    6e17:	83 7d f8 1f          	cmpl   $0x1f,-0x8(%rbp)
    6e1b:	77 25                	ja     6e42 <safe_lshift_func_uint16_t_u_u+0x3c>
    6e1d:	0f b7 55 fc          	movzwl -0x4(%rbp),%edx
    6e21:	8b 45 f8             	mov    -0x8(%rbp),%eax
    6e24:	be ff ff 00 00       	mov    $0xffff,%esi
    6e29:	89 c1                	mov    %eax,%ecx
    6e2b:	d3 fe                	sar    %cl,%esi
    6e2d:	89 f0                	mov    %esi,%eax
    6e2f:	39 c2                	cmp    %eax,%edx
    6e31:	7f 0f                	jg     6e42 <safe_lshift_func_uint16_t_u_u+0x3c>
    6e33:	0f b7 55 fc          	movzwl -0x4(%rbp),%edx
    6e37:	8b 45 f8             	mov    -0x8(%rbp),%eax
    6e3a:	89 c1                	mov    %eax,%ecx
    6e3c:	d3 e2                	shl    %cl,%edx
    6e3e:	89 d0                	mov    %edx,%eax
    6e40:	eb 04                	jmp    6e46 <safe_lshift_func_uint16_t_u_u+0x40>
    6e42:	0f b7 45 fc          	movzwl -0x4(%rbp),%eax
    6e46:	5d                   	pop    %rbp
    6e47:	c3                   	retq   

0000000000006e48 <safe_rshift_func_uint16_t_u_s>:
    6e48:	f3 0f 1e fa          	endbr64 
    6e4c:	55                   	push   %rbp
    6e4d:	48 89 e5             	mov    %rsp,%rbp
    6e50:	89 f8                	mov    %edi,%eax
    6e52:	89 75 f8             	mov    %esi,-0x8(%rbp)
    6e55:	66 89 45 fc          	mov    %ax,-0x4(%rbp)
    6e59:	83 7d f8 00          	cmpl   $0x0,-0x8(%rbp)
    6e5d:	78 15                	js     6e74 <safe_rshift_func_uint16_t_u_s+0x2c>
    6e5f:	83 7d f8 1f          	cmpl   $0x1f,-0x8(%rbp)
    6e63:	7f 0f                	jg     6e74 <safe_rshift_func_uint16_t_u_s+0x2c>
    6e65:	0f b7 55 fc          	movzwl -0x4(%rbp),%edx
    6e69:	8b 45 f8             	mov    -0x8(%rbp),%eax
    6e6c:	89 c1                	mov    %eax,%ecx
    6e6e:	d3 fa                	sar    %cl,%edx
    6e70:	89 d0                	mov    %edx,%eax
    6e72:	eb 04                	jmp    6e78 <safe_rshift_func_uint16_t_u_s+0x30>
    6e74:	0f b7 45 fc          	movzwl -0x4(%rbp),%eax
    6e78:	5d                   	pop    %rbp
    6e79:	c3                   	retq   

0000000000006e7a <safe_rshift_func_uint16_t_u_u>:
    6e7a:	f3 0f 1e fa          	endbr64 
    6e7e:	55                   	push   %rbp
    6e7f:	48 89 e5             	mov    %rsp,%rbp
    6e82:	89 f8                	mov    %edi,%eax
    6e84:	89 75 f8             	mov    %esi,-0x8(%rbp)
    6e87:	66 89 45 fc          	mov    %ax,-0x4(%rbp)
    6e8b:	83 7d f8 1f          	cmpl   $0x1f,-0x8(%rbp)
    6e8f:	77 0f                	ja     6ea0 <safe_rshift_func_uint16_t_u_u+0x26>
    6e91:	0f b7 55 fc          	movzwl -0x4(%rbp),%edx
    6e95:	8b 45 f8             	mov    -0x8(%rbp),%eax
    6e98:	89 c1                	mov    %eax,%ecx
    6e9a:	d3 fa                	sar    %cl,%edx
    6e9c:	89 d0                	mov    %edx,%eax
    6e9e:	eb 04                	jmp    6ea4 <safe_rshift_func_uint16_t_u_u+0x2a>
    6ea0:	0f b7 45 fc          	movzwl -0x4(%rbp),%eax
    6ea4:	5d                   	pop    %rbp
    6ea5:	c3                   	retq   

0000000000006ea6 <safe_unary_minus_func_uint32_t_u>:
    6ea6:	f3 0f 1e fa          	endbr64 
    6eaa:	55                   	push   %rbp
    6eab:	48 89 e5             	mov    %rsp,%rbp
    6eae:	89 7d fc             	mov    %edi,-0x4(%rbp)
    6eb1:	8b 45 fc             	mov    -0x4(%rbp),%eax
    6eb4:	f7 d8                	neg    %eax
    6eb6:	5d                   	pop    %rbp
    6eb7:	c3                   	retq   

0000000000006eb8 <safe_add_func_uint32_t_u_u>:
    6eb8:	f3 0f 1e fa          	endbr64 
    6ebc:	55                   	push   %rbp
    6ebd:	48 89 e5             	mov    %rsp,%rbp
    6ec0:	89 7d fc             	mov    %edi,-0x4(%rbp)
    6ec3:	89 75 f8             	mov    %esi,-0x8(%rbp)
    6ec6:	8b 55 fc             	mov    -0x4(%rbp),%edx
    6ec9:	8b 45 f8             	mov    -0x8(%rbp),%eax
    6ecc:	01 d0                	add    %edx,%eax
    6ece:	5d                   	pop    %rbp
    6ecf:	c3                   	retq   

0000000000006ed0 <safe_sub_func_uint32_t_u_u>:
    6ed0:	f3 0f 1e fa          	endbr64 
    6ed4:	55                   	push   %rbp
    6ed5:	48 89 e5             	mov    %rsp,%rbp
    6ed8:	89 7d fc             	mov    %edi,-0x4(%rbp)
    6edb:	89 75 f8             	mov    %esi,-0x8(%rbp)
    6ede:	8b 45 fc             	mov    -0x4(%rbp),%eax
    6ee1:	2b 45 f8             	sub    -0x8(%rbp),%eax
    6ee4:	5d                   	pop    %rbp
    6ee5:	c3                   	retq   

0000000000006ee6 <safe_mul_func_uint32_t_u_u>:
    6ee6:	f3 0f 1e fa          	endbr64 
    6eea:	55                   	push   %rbp
    6eeb:	48 89 e5             	mov    %rsp,%rbp
    6eee:	89 7d fc             	mov    %edi,-0x4(%rbp)
    6ef1:	89 75 f8             	mov    %esi,-0x8(%rbp)
    6ef4:	8b 45 fc             	mov    -0x4(%rbp),%eax
    6ef7:	0f af 45 f8          	imul   -0x8(%rbp),%eax
    6efb:	5d                   	pop    %rbp
    6efc:	c3                   	retq   

0000000000006efd <safe_mod_func_uint32_t_u_u>:
    6efd:	f3 0f 1e fa          	endbr64 
    6f01:	55                   	push   %rbp
    6f02:	48 89 e5             	mov    %rsp,%rbp
    6f05:	89 7d fc             	mov    %edi,-0x4(%rbp)
    6f08:	89 75 f8             	mov    %esi,-0x8(%rbp)
    6f0b:	83 7d f8 00          	cmpl   $0x0,-0x8(%rbp)
    6f0f:	74 0f                	je     6f20 <safe_mod_func_uint32_t_u_u+0x23>
    6f11:	8b 45 fc             	mov    -0x4(%rbp),%eax
    6f14:	ba 00 00 00 00       	mov    $0x0,%edx
    6f19:	f7 75 f8             	divl   -0x8(%rbp)
    6f1c:	89 d0                	mov    %edx,%eax
    6f1e:	eb 03                	jmp    6f23 <safe_mod_func_uint32_t_u_u+0x26>
    6f20:	8b 45 fc             	mov    -0x4(%rbp),%eax
    6f23:	5d                   	pop    %rbp
    6f24:	c3                   	retq   

0000000000006f25 <safe_div_func_uint32_t_u_u>:
    6f25:	f3 0f 1e fa          	endbr64 
    6f29:	55                   	push   %rbp
    6f2a:	48 89 e5             	mov    %rsp,%rbp
    6f2d:	89 7d fc             	mov    %edi,-0x4(%rbp)
    6f30:	89 75 f8             	mov    %esi,-0x8(%rbp)
    6f33:	83 7d f8 00          	cmpl   $0x0,-0x8(%rbp)
    6f37:	74 0d                	je     6f46 <safe_div_func_uint32_t_u_u+0x21>
    6f39:	8b 45 fc             	mov    -0x4(%rbp),%eax
    6f3c:	ba 00 00 00 00       	mov    $0x0,%edx
    6f41:	f7 75 f8             	divl   -0x8(%rbp)
    6f44:	eb 03                	jmp    6f49 <safe_div_func_uint32_t_u_u+0x24>
    6f46:	8b 45 fc             	mov    -0x4(%rbp),%eax
    6f49:	5d                   	pop    %rbp
    6f4a:	c3                   	retq   

0000000000006f4b <safe_lshift_func_uint32_t_u_s>:
    6f4b:	f3 0f 1e fa          	endbr64 
    6f4f:	55                   	push   %rbp
    6f50:	48 89 e5             	mov    %rsp,%rbp
    6f53:	89 7d fc             	mov    %edi,-0x4(%rbp)
    6f56:	89 75 f8             	mov    %esi,-0x8(%rbp)
    6f59:	83 7d f8 00          	cmpl   $0x0,-0x8(%rbp)
    6f5d:	78 27                	js     6f86 <safe_lshift_func_uint32_t_u_s+0x3b>
    6f5f:	83 7d f8 1f          	cmpl   $0x1f,-0x8(%rbp)
    6f63:	7f 21                	jg     6f86 <safe_lshift_func_uint32_t_u_s+0x3b>
    6f65:	8b 45 f8             	mov    -0x8(%rbp),%eax
    6f68:	ba ff ff ff ff       	mov    $0xffffffff,%edx
    6f6d:	89 c1                	mov    %eax,%ecx
    6f6f:	d3 ea                	shr    %cl,%edx
    6f71:	89 d0                	mov    %edx,%eax
    6f73:	39 45 fc             	cmp    %eax,-0x4(%rbp)
    6f76:	77 0e                	ja     6f86 <safe_lshift_func_uint32_t_u_s+0x3b>
    6f78:	8b 45 f8             	mov    -0x8(%rbp),%eax
    6f7b:	8b 55 fc             	mov    -0x4(%rbp),%edx
    6f7e:	89 c1                	mov    %eax,%ecx
    6f80:	d3 e2                	shl    %cl,%edx
    6f82:	89 d0                	mov    %edx,%eax
    6f84:	eb 03                	jmp    6f89 <safe_lshift_func_uint32_t_u_s+0x3e>
    6f86:	8b 45 fc             	mov    -0x4(%rbp),%eax
    6f89:	5d                   	pop    %rbp
    6f8a:	c3                   	retq   

0000000000006f8b <safe_lshift_func_uint32_t_u_u>:
    6f8b:	f3 0f 1e fa          	endbr64 
    6f8f:	55                   	push   %rbp
    6f90:	48 89 e5             	mov    %rsp,%rbp
    6f93:	89 7d fc             	mov    %edi,-0x4(%rbp)
    6f96:	89 75 f8             	mov    %esi,-0x8(%rbp)
    6f99:	83 7d f8 1f          	cmpl   $0x1f,-0x8(%rbp)
    6f9d:	77 21                	ja     6fc0 <safe_lshift_func_uint32_t_u_u+0x35>
    6f9f:	8b 45 f8             	mov    -0x8(%rbp),%eax
    6fa2:	ba ff ff ff ff       	mov    $0xffffffff,%edx
    6fa7:	89 c1                	mov    %eax,%ecx
    6fa9:	d3 ea                	shr    %cl,%edx
    6fab:	89 d0                	mov    %edx,%eax
    6fad:	39 45 fc             	cmp    %eax,-0x4(%rbp)
    6fb0:	77 0e                	ja     6fc0 <safe_lshift_func_uint32_t_u_u+0x35>
    6fb2:	8b 45 f8             	mov    -0x8(%rbp),%eax
    6fb5:	8b 55 fc             	mov    -0x4(%rbp),%edx
    6fb8:	89 c1                	mov    %eax,%ecx
    6fba:	d3 e2                	shl    %cl,%edx
    6fbc:	89 d0                	mov    %edx,%eax
    6fbe:	eb 03                	jmp    6fc3 <safe_lshift_func_uint32_t_u_u+0x38>
    6fc0:	8b 45 fc             	mov    -0x4(%rbp),%eax
    6fc3:	5d                   	pop    %rbp
    6fc4:	c3                   	retq   

0000000000006fc5 <safe_rshift_func_uint32_t_u_s>:
    6fc5:	f3 0f 1e fa          	endbr64 
    6fc9:	55                   	push   %rbp
    6fca:	48 89 e5             	mov    %rsp,%rbp
    6fcd:	89 7d fc             	mov    %edi,-0x4(%rbp)
    6fd0:	89 75 f8             	mov    %esi,-0x8(%rbp)
    6fd3:	83 7d f8 00          	cmpl   $0x0,-0x8(%rbp)
    6fd7:	78 14                	js     6fed <safe_rshift_func_uint32_t_u_s+0x28>
    6fd9:	83 7d f8 1f          	cmpl   $0x1f,-0x8(%rbp)
    6fdd:	7f 0e                	jg     6fed <safe_rshift_func_uint32_t_u_s+0x28>
    6fdf:	8b 45 f8             	mov    -0x8(%rbp),%eax
    6fe2:	8b 55 fc             	mov    -0x4(%rbp),%edx
    6fe5:	89 c1                	mov    %eax,%ecx
    6fe7:	d3 ea                	shr    %cl,%edx
    6fe9:	89 d0                	mov    %edx,%eax
    6feb:	eb 03                	jmp    6ff0 <safe_rshift_func_uint32_t_u_s+0x2b>
    6fed:	8b 45 fc             	mov    -0x4(%rbp),%eax
    6ff0:	5d                   	pop    %rbp
    6ff1:	c3                   	retq   

0000000000006ff2 <safe_rshift_func_uint32_t_u_u>:
    6ff2:	f3 0f 1e fa          	endbr64 
    6ff6:	55                   	push   %rbp
    6ff7:	48 89 e5             	mov    %rsp,%rbp
    6ffa:	89 7d fc             	mov    %edi,-0x4(%rbp)
    6ffd:	89 75 f8             	mov    %esi,-0x8(%rbp)
    7000:	83 7d f8 1f          	cmpl   $0x1f,-0x8(%rbp)
    7004:	77 0e                	ja     7014 <safe_rshift_func_uint32_t_u_u+0x22>
    7006:	8b 45 f8             	mov    -0x8(%rbp),%eax
    7009:	8b 55 fc             	mov    -0x4(%rbp),%edx
    700c:	89 c1                	mov    %eax,%ecx
    700e:	d3 ea                	shr    %cl,%edx
    7010:	89 d0                	mov    %edx,%eax
    7012:	eb 03                	jmp    7017 <safe_rshift_func_uint32_t_u_u+0x25>
    7014:	8b 45 fc             	mov    -0x4(%rbp),%eax
    7017:	5d                   	pop    %rbp
    7018:	c3                   	retq   

0000000000007019 <safe_unary_minus_func_uint64_t_u>:
    7019:	f3 0f 1e fa          	endbr64 
    701d:	55                   	push   %rbp
    701e:	48 89 e5             	mov    %rsp,%rbp
    7021:	48 89 7d f8          	mov    %rdi,-0x8(%rbp)
    7025:	48 8b 45 f8          	mov    -0x8(%rbp),%rax
    7029:	48 f7 d8             	neg    %rax
    702c:	5d                   	pop    %rbp
    702d:	c3                   	retq   

000000000000702e <safe_add_func_uint64_t_u_u>:
    702e:	f3 0f 1e fa          	endbr64 
    7032:	55                   	push   %rbp
    7033:	48 89 e5             	mov    %rsp,%rbp
    7036:	48 89 7d f8          	mov    %rdi,-0x8(%rbp)
    703a:	48 89 75 f0          	mov    %rsi,-0x10(%rbp)
    703e:	48 8b 55 f8          	mov    -0x8(%rbp),%rdx
    7042:	48 8b 45 f0          	mov    -0x10(%rbp),%rax
    7046:	48 01 d0             	add    %rdx,%rax
    7049:	5d                   	pop    %rbp
    704a:	c3                   	retq   

000000000000704b <safe_sub_func_uint64_t_u_u>:
    704b:	f3 0f 1e fa          	endbr64 
    704f:	55                   	push   %rbp
    7050:	48 89 e5             	mov    %rsp,%rbp
    7053:	48 89 7d f8          	mov    %rdi,-0x8(%rbp)
    7057:	48 89 75 f0          	mov    %rsi,-0x10(%rbp)
    705b:	48 8b 45 f8          	mov    -0x8(%rbp),%rax
    705f:	48 2b 45 f0          	sub    -0x10(%rbp),%rax
    7063:	5d                   	pop    %rbp
    7064:	c3                   	retq   

0000000000007065 <safe_mul_func_uint64_t_u_u>:
    7065:	f3 0f 1e fa          	endbr64 
    7069:	55                   	push   %rbp
    706a:	48 89 e5             	mov    %rsp,%rbp
    706d:	48 89 7d f8          	mov    %rdi,-0x8(%rbp)
    7071:	48 89 75 f0          	mov    %rsi,-0x10(%rbp)
    7075:	48 8b 45 f8          	mov    -0x8(%rbp),%rax
    7079:	48 0f af 45 f0       	imul   -0x10(%rbp),%rax
    707e:	5d                   	pop    %rbp
    707f:	c3                   	retq   

0000000000007080 <safe_mod_func_uint64_t_u_u>:
    7080:	f3 0f 1e fa          	endbr64 
    7084:	55                   	push   %rbp
    7085:	48 89 e5             	mov    %rsp,%rbp
    7088:	48 89 7d f8          	mov    %rdi,-0x8(%rbp)
    708c:	48 89 75 f0          	mov    %rsi,-0x10(%rbp)
    7090:	48 83 7d f0 00       	cmpq   $0x0,-0x10(%rbp)
    7095:	74 12                	je     70a9 <safe_mod_func_uint64_t_u_u+0x29>
    7097:	48 8b 45 f8          	mov    -0x8(%rbp),%rax
    709b:	ba 00 00 00 00       	mov    $0x0,%edx
    70a0:	48 f7 75 f0          	divq   -0x10(%rbp)
    70a4:	48 89 d0             	mov    %rdx,%rax
    70a7:	eb 04                	jmp    70ad <safe_mod_func_uint64_t_u_u+0x2d>
    70a9:	48 8b 45 f8          	mov    -0x8(%rbp),%rax
    70ad:	5d                   	pop    %rbp
    70ae:	c3                   	retq   

00000000000070af <safe_div_func_uint64_t_u_u>:
    70af:	f3 0f 1e fa          	endbr64 
    70b3:	55                   	push   %rbp
    70b4:	48 89 e5             	mov    %rsp,%rbp
    70b7:	48 89 7d f8          	mov    %rdi,-0x8(%rbp)
    70bb:	48 89 75 f0          	mov    %rsi,-0x10(%rbp)
    70bf:	48 83 7d f0 00       	cmpq   $0x0,-0x10(%rbp)
    70c4:	74 0f                	je     70d5 <safe_div_func_uint64_t_u_u+0x26>
    70c6:	48 8b 45 f8          	mov    -0x8(%rbp),%rax
    70ca:	ba 00 00 00 00       	mov    $0x0,%edx
    70cf:	48 f7 75 f0          	divq   -0x10(%rbp)
    70d3:	eb 04                	jmp    70d9 <safe_div_func_uint64_t_u_u+0x2a>
    70d5:	48 8b 45 f8          	mov    -0x8(%rbp),%rax
    70d9:	5d                   	pop    %rbp
    70da:	c3                   	retq   

00000000000070db <safe_lshift_func_uint64_t_u_s>:
    70db:	f3 0f 1e fa          	endbr64 
    70df:	55                   	push   %rbp
    70e0:	48 89 e5             	mov    %rsp,%rbp
    70e3:	48 89 7d f8          	mov    %rdi,-0x8(%rbp)
    70e7:	89 75 f4             	mov    %esi,-0xc(%rbp)
    70ea:	83 7d f4 00          	cmpl   $0x0,-0xc(%rbp)
    70ee:	78 2f                	js     711f <safe_lshift_func_uint64_t_u_s+0x44>
    70f0:	83 7d f4 1f          	cmpl   $0x1f,-0xc(%rbp)
    70f4:	7f 29                	jg     711f <safe_lshift_func_uint64_t_u_s+0x44>
    70f6:	8b 45 f4             	mov    -0xc(%rbp),%eax
    70f9:	48 c7 c2 ff ff ff ff 	mov    $0xffffffffffffffff,%rdx
    7100:	89 c1                	mov    %eax,%ecx
    7102:	48 d3 ea             	shr    %cl,%rdx
    7105:	48 89 d0             	mov    %rdx,%rax
    7108:	48 39 45 f8          	cmp    %rax,-0x8(%rbp)
    710c:	77 11                	ja     711f <safe_lshift_func_uint64_t_u_s+0x44>
    710e:	8b 45 f4             	mov    -0xc(%rbp),%eax
    7111:	48 8b 55 f8          	mov    -0x8(%rbp),%rdx
    7115:	89 c1                	mov    %eax,%ecx
    7117:	48 d3 e2             	shl    %cl,%rdx
    711a:	48 89 d0             	mov    %rdx,%rax
    711d:	eb 04                	jmp    7123 <safe_lshift_func_uint64_t_u_s+0x48>
    711f:	48 8b 45 f8          	mov    -0x8(%rbp),%rax
    7123:	5d                   	pop    %rbp
    7124:	c3                   	retq   

0000000000007125 <safe_lshift_func_uint64_t_u_u>:
    7125:	f3 0f 1e fa          	endbr64 
    7129:	55                   	push   %rbp
    712a:	48 89 e5             	mov    %rsp,%rbp
    712d:	48 89 7d f8          	mov    %rdi,-0x8(%rbp)
    7131:	89 75 f4             	mov    %esi,-0xc(%rbp)
    7134:	83 7d f4 1f          	cmpl   $0x1f,-0xc(%rbp)
    7138:	77 29                	ja     7163 <safe_lshift_func_uint64_t_u_u+0x3e>
    713a:	8b 45 f4             	mov    -0xc(%rbp),%eax
    713d:	48 c7 c2 ff ff ff ff 	mov    $0xffffffffffffffff,%rdx
    7144:	89 c1                	mov    %eax,%ecx
    7146:	48 d3 ea             	shr    %cl,%rdx
    7149:	48 89 d0             	mov    %rdx,%rax
    714c:	48 39 45 f8          	cmp    %rax,-0x8(%rbp)
    7150:	77 11                	ja     7163 <safe_lshift_func_uint64_t_u_u+0x3e>
    7152:	8b 45 f4             	mov    -0xc(%rbp),%eax
    7155:	48 8b 55 f8          	mov    -0x8(%rbp),%rdx
    7159:	89 c1                	mov    %eax,%ecx
    715b:	48 d3 e2             	shl    %cl,%rdx
    715e:	48 89 d0             	mov    %rdx,%rax
    7161:	eb 04                	jmp    7167 <safe_lshift_func_uint64_t_u_u+0x42>
    7163:	48 8b 45 f8          	mov    -0x8(%rbp),%rax
    7167:	5d                   	pop    %rbp
    7168:	c3                   	retq   

0000000000007169 <safe_rshift_func_uint64_t_u_s>:
    7169:	f3 0f 1e fa          	endbr64 
    716d:	55                   	push   %rbp
    716e:	48 89 e5             	mov    %rsp,%rbp
    7171:	48 89 7d f8          	mov    %rdi,-0x8(%rbp)
    7175:	89 75 f4             	mov    %esi,-0xc(%rbp)
    7178:	83 7d f4 00          	cmpl   $0x0,-0xc(%rbp)
    717c:	78 17                	js     7195 <safe_rshift_func_uint64_t_u_s+0x2c>
    717e:	83 7d f4 1f          	cmpl   $0x1f,-0xc(%rbp)
    7182:	7f 11                	jg     7195 <safe_rshift_func_uint64_t_u_s+0x2c>
    7184:	8b 45 f4             	mov    -0xc(%rbp),%eax
    7187:	48 8b 55 f8          	mov    -0x8(%rbp),%rdx
    718b:	89 c1                	mov    %eax,%ecx
    718d:	48 d3 ea             	shr    %cl,%rdx
    7190:	48 89 d0             	mov    %rdx,%rax
    7193:	eb 04                	jmp    7199 <safe_rshift_func_uint64_t_u_s+0x30>
    7195:	48 8b 45 f8          	mov    -0x8(%rbp),%rax
    7199:	5d                   	pop    %rbp
    719a:	c3                   	retq   

000000000000719b <safe_rshift_func_uint64_t_u_u>:
    719b:	f3 0f 1e fa          	endbr64 
    719f:	55                   	push   %rbp
    71a0:	48 89 e5             	mov    %rsp,%rbp
    71a3:	48 89 7d f8          	mov    %rdi,-0x8(%rbp)
    71a7:	89 75 f4             	mov    %esi,-0xc(%rbp)
    71aa:	83 7d f4 1f          	cmpl   $0x1f,-0xc(%rbp)
    71ae:	77 11                	ja     71c1 <safe_rshift_func_uint64_t_u_u+0x26>
    71b0:	8b 45 f4             	mov    -0xc(%rbp),%eax
    71b3:	48 8b 55 f8          	mov    -0x8(%rbp),%rdx
    71b7:	89 c1                	mov    %eax,%ecx
    71b9:	48 d3 ea             	shr    %cl,%rdx
    71bc:	48 89 d0             	mov    %rdx,%rax
    71bf:	eb 04                	jmp    71c5 <safe_rshift_func_uint64_t_u_u+0x2a>
    71c1:	48 8b 45 f8          	mov    -0x8(%rbp),%rax
    71c5:	5d                   	pop    %rbp
    71c6:	c3                   	retq   

00000000000071c7 <safe_add_func_float_f_f>:
    71c7:	f3 0f 1e fa          	endbr64 
    71cb:	55                   	push   %rbp
    71cc:	48 89 e5             	mov    %rsp,%rbp
    71cf:	f3 0f 11 45 fc       	movss  %xmm0,-0x4(%rbp)
    71d4:	f3 0f 11 4d f8       	movss  %xmm1,-0x8(%rbp)
    71d9:	f3 0f 10 4d fc       	movss  -0x4(%rbp),%xmm1
    71de:	f3 0f 10 05 1a 8b 00 	movss  0x8b1a(%rip),%xmm0        # fd00 <g_715+0xca8>
    71e5:	00 
    71e6:	f3 0f 59 c8          	mulss  %xmm0,%xmm1
    71ea:	f3 0f 10 55 f8       	movss  -0x8(%rbp),%xmm2
    71ef:	f3 0f 10 05 09 8b 00 	movss  0x8b09(%rip),%xmm0        # fd00 <g_715+0xca8>
    71f6:	00 
    71f7:	f3 0f 59 c2          	mulss  %xmm2,%xmm0
    71fb:	f3 0f 58 c1          	addss  %xmm1,%xmm0
    71ff:	f3 0f 10 0d 09 8b 00 	movss  0x8b09(%rip),%xmm1        # fd10 <g_715+0xcb8>
    7206:	00 
    7207:	0f 54 c1             	andps  %xmm1,%xmm0
    720a:	0f 2f 05 0f 8b 00 00 	comiss 0x8b0f(%rip),%xmm0        # fd20 <g_715+0xcc8>
    7211:	76 07                	jbe    721a <safe_add_func_float_f_f+0x53>
    7213:	f3 0f 10 45 fc       	movss  -0x4(%rbp),%xmm0
    7218:	eb 0a                	jmp    7224 <safe_add_func_float_f_f+0x5d>
    721a:	f3 0f 10 45 fc       	movss  -0x4(%rbp),%xmm0
    721f:	f3 0f 58 45 f8       	addss  -0x8(%rbp),%xmm0
    7224:	5d                   	pop    %rbp
    7225:	c3                   	retq   

0000000000007226 <safe_sub_func_float_f_f>:
    7226:	f3 0f 1e fa          	endbr64 
    722a:	55                   	push   %rbp
    722b:	48 89 e5             	mov    %rsp,%rbp
    722e:	f3 0f 11 45 fc       	movss  %xmm0,-0x4(%rbp)
    7233:	f3 0f 11 4d f8       	movss  %xmm1,-0x8(%rbp)
    7238:	f3 0f 10 4d fc       	movss  -0x4(%rbp),%xmm1
    723d:	f3 0f 10 05 bb 8a 00 	movss  0x8abb(%rip),%xmm0        # fd00 <g_715+0xca8>
    7244:	00 
    7245:	f3 0f 59 c1          	mulss  %xmm1,%xmm0
    7249:	f3 0f 10 55 f8       	movss  -0x8(%rbp),%xmm2
    724e:	f3 0f 10 0d aa 8a 00 	movss  0x8aaa(%rip),%xmm1        # fd00 <g_715+0xca8>
    7255:	00 
    7256:	f3 0f 59 ca          	mulss  %xmm2,%xmm1
    725a:	f3 0f 5c c1          	subss  %xmm1,%xmm0
    725e:	f3 0f 10 0d aa 8a 00 	movss  0x8aaa(%rip),%xmm1        # fd10 <g_715+0xcb8>
    7265:	00 
    7266:	0f 54 c1             	andps  %xmm1,%xmm0
    7269:	0f 2f 05 b0 8a 00 00 	comiss 0x8ab0(%rip),%xmm0        # fd20 <g_715+0xcc8>
    7270:	76 07                	jbe    7279 <safe_sub_func_float_f_f+0x53>
    7272:	f3 0f 10 45 fc       	movss  -0x4(%rbp),%xmm0
    7277:	eb 0a                	jmp    7283 <safe_sub_func_float_f_f+0x5d>
    7279:	f3 0f 10 45 fc       	movss  -0x4(%rbp),%xmm0
    727e:	f3 0f 5c 45 f8       	subss  -0x8(%rbp),%xmm0
    7283:	5d                   	pop    %rbp
    7284:	c3                   	retq   

0000000000007285 <safe_mul_func_float_f_f>:
    7285:	f3 0f 1e fa          	endbr64 
    7289:	55                   	push   %rbp
    728a:	48 89 e5             	mov    %rsp,%rbp
    728d:	f3 0f 11 45 fc       	movss  %xmm0,-0x4(%rbp)
    7292:	f3 0f 11 4d f8       	movss  %xmm1,-0x8(%rbp)
    7297:	f3 0f 10 4d fc       	movss  -0x4(%rbp),%xmm1
    729c:	f3 0f 10 05 80 8a 00 	movss  0x8a80(%rip),%xmm0        # fd24 <g_715+0xccc>
    72a3:	00 
    72a4:	f3 0f 59 c8          	mulss  %xmm0,%xmm1
    72a8:	f3 0f 10 55 f8       	movss  -0x8(%rbp),%xmm2
    72ad:	f3 0f 10 05 73 8a 00 	movss  0x8a73(%rip),%xmm0        # fd28 <g_715+0xcd0>
    72b4:	00 
    72b5:	f3 0f 59 c2          	mulss  %xmm2,%xmm0
    72b9:	f3 0f 59 c1          	mulss  %xmm1,%xmm0
    72bd:	f3 0f 10 0d 4b 8a 00 	movss  0x8a4b(%rip),%xmm1        # fd10 <g_715+0xcb8>
    72c4:	00 
    72c5:	0f 54 c1             	andps  %xmm1,%xmm0
    72c8:	0f 2f 05 5d 8a 00 00 	comiss 0x8a5d(%rip),%xmm0        # fd2c <g_715+0xcd4>
    72cf:	76 07                	jbe    72d8 <safe_mul_func_float_f_f+0x53>
    72d1:	f3 0f 10 45 fc       	movss  -0x4(%rbp),%xmm0
    72d6:	eb 0a                	jmp    72e2 <safe_mul_func_float_f_f+0x5d>
    72d8:	f3 0f 10 45 fc       	movss  -0x4(%rbp),%xmm0
    72dd:	f3 0f 59 45 f8       	mulss  -0x8(%rbp),%xmm0
    72e2:	5d                   	pop    %rbp
    72e3:	c3                   	retq   

00000000000072e4 <safe_div_func_float_f_f>:
    72e4:	f3 0f 1e fa          	endbr64 
    72e8:	55                   	push   %rbp
    72e9:	48 89 e5             	mov    %rsp,%rbp
    72ec:	f3 0f 11 45 fc       	movss  %xmm0,-0x4(%rbp)
    72f1:	f3 0f 11 4d f8       	movss  %xmm1,-0x8(%rbp)
    72f6:	f3 0f 10 45 f8       	movss  -0x8(%rbp),%xmm0
    72fb:	f3 0f 10 0d 0d 8a 00 	movss  0x8a0d(%rip),%xmm1        # fd10 <g_715+0xcb8>
    7302:	00 
    7303:	0f 54 c8             	andps  %xmm0,%xmm1
    7306:	f3 0f 10 05 22 8a 00 	movss  0x8a22(%rip),%xmm0        # fd30 <g_715+0xcd8>
    730d:	00 
    730e:	0f 2f c1             	comiss %xmm1,%xmm0
    7311:	0f 97 c0             	seta   %al
    7314:	83 f0 01             	xor    $0x1,%eax
    7317:	84 c0                	test   %al,%al
    7319:	75 56                	jne    7371 <safe_div_func_float_f_f+0x8d>
    731b:	66 0f ef c0          	pxor   %xmm0,%xmm0
    731f:	0f 2e 45 f8          	ucomiss -0x8(%rbp),%xmm0
    7323:	7a 0a                	jp     732f <safe_div_func_float_f_f+0x4b>
    7325:	66 0f ef c0          	pxor   %xmm0,%xmm0
    7329:	0f 2e 45 f8          	ucomiss -0x8(%rbp),%xmm0
    732d:	74 4e                	je     737d <safe_div_func_float_f_f+0x99>
    732f:	f3 0f 10 4d fc       	movss  -0x4(%rbp),%xmm1
    7334:	f3 0f 10 05 f8 89 00 	movss  0x89f8(%rip),%xmm0        # fd34 <g_715+0xcdc>
    733b:	00 
    733c:	f3 0f 59 c1          	mulss  %xmm1,%xmm0
    7340:	f3 0f 10 55 f8       	movss  -0x8(%rbp),%xmm2
    7345:	f3 0f 10 0d eb 89 00 	movss  0x89eb(%rip),%xmm1        # fd38 <g_715+0xce0>
    734c:	00 
    734d:	f3 0f 59 ca          	mulss  %xmm2,%xmm1
    7351:	f3 0f 5e c1          	divss  %xmm1,%xmm0
    7355:	f3 0f 10 0d b3 89 00 	movss  0x89b3(%rip),%xmm1        # fd10 <g_715+0xcb8>
    735c:	00 
    735d:	0f 54 c1             	andps  %xmm1,%xmm0
    7360:	0f 2f 05 d5 89 00 00 	comiss 0x89d5(%rip),%xmm0        # fd3c <g_715+0xce4>
    7367:	0f 97 c0             	seta   %al
    736a:	83 f0 01             	xor    $0x1,%eax
    736d:	84 c0                	test   %al,%al
    736f:	74 0c                	je     737d <safe_div_func_float_f_f+0x99>
    7371:	f3 0f 10 45 fc       	movss  -0x4(%rbp),%xmm0
    7376:	f3 0f 5e 45 f8       	divss  -0x8(%rbp),%xmm0
    737b:	eb 05                	jmp    7382 <safe_div_func_float_f_f+0x9e>
    737d:	f3 0f 10 45 fc       	movss  -0x4(%rbp),%xmm0
    7382:	5d                   	pop    %rbp
    7383:	c3                   	retq   

0000000000007384 <safe_add_func_double_f_f>:
    7384:	f3 0f 1e fa          	endbr64 
    7388:	55                   	push   %rbp
    7389:	48 89 e5             	mov    %rsp,%rbp
    738c:	f2 0f 11 45 f8       	movsd  %xmm0,-0x8(%rbp)
    7391:	f2 0f 11 4d f0       	movsd  %xmm1,-0x10(%rbp)
    7396:	f2 0f 10 4d f8       	movsd  -0x8(%rbp),%xmm1
    739b:	f2 0f 10 05 9d 89 00 	movsd  0x899d(%rip),%xmm0        # fd40 <g_715+0xce8>
    73a2:	00 
    73a3:	f2 0f 59 c8          	mulsd  %xmm0,%xmm1
    73a7:	f2 0f 10 55 f0       	movsd  -0x10(%rbp),%xmm2
    73ac:	f2 0f 10 05 8c 89 00 	movsd  0x898c(%rip),%xmm0        # fd40 <g_715+0xce8>
    73b3:	00 
    73b4:	f2 0f 59 c2          	mulsd  %xmm2,%xmm0
    73b8:	f2 0f 58 c1          	addsd  %xmm1,%xmm0
    73bc:	f3 0f 7e 0d 8c 89 00 	movq   0x898c(%rip),%xmm1        # fd50 <g_715+0xcf8>
    73c3:	00 
    73c4:	66 0f 54 c1          	andpd  %xmm1,%xmm0
    73c8:	66 0f 2f 05 90 89 00 	comisd 0x8990(%rip),%xmm0        # fd60 <g_715+0xd08>
    73cf:	00 
    73d0:	76 07                	jbe    73d9 <safe_add_func_double_f_f+0x55>
    73d2:	f2 0f 10 45 f8       	movsd  -0x8(%rbp),%xmm0
    73d7:	eb 0a                	jmp    73e3 <safe_add_func_double_f_f+0x5f>
    73d9:	f2 0f 10 45 f8       	movsd  -0x8(%rbp),%xmm0
    73de:	f2 0f 58 45 f0       	addsd  -0x10(%rbp),%xmm0
    73e3:	5d                   	pop    %rbp
    73e4:	c3                   	retq   

00000000000073e5 <safe_sub_func_double_f_f>:
    73e5:	f3 0f 1e fa          	endbr64 
    73e9:	55                   	push   %rbp
    73ea:	48 89 e5             	mov    %rsp,%rbp
    73ed:	f2 0f 11 45 f8       	movsd  %xmm0,-0x8(%rbp)
    73f2:	f2 0f 11 4d f0       	movsd  %xmm1,-0x10(%rbp)
    73f7:	f2 0f 10 4d f8       	movsd  -0x8(%rbp),%xmm1
    73fc:	f2 0f 10 05 3c 89 00 	movsd  0x893c(%rip),%xmm0        # fd40 <g_715+0xce8>
    7403:	00 
    7404:	f2 0f 59 c1          	mulsd  %xmm1,%xmm0
    7408:	f2 0f 10 55 f0       	movsd  -0x10(%rbp),%xmm2
    740d:	f2 0f 10 0d 2b 89 00 	movsd  0x892b(%rip),%xmm1        # fd40 <g_715+0xce8>
    7414:	00 
    7415:	f2 0f 59 ca          	mulsd  %xmm2,%xmm1
    7419:	f2 0f 5c c1          	subsd  %xmm1,%xmm0
    741d:	f3 0f 7e 0d 2b 89 00 	movq   0x892b(%rip),%xmm1        # fd50 <g_715+0xcf8>
    7424:	00 
    7425:	66 0f 54 c1          	andpd  %xmm1,%xmm0
    7429:	66 0f 2f 05 2f 89 00 	comisd 0x892f(%rip),%xmm0        # fd60 <g_715+0xd08>
    7430:	00 
    7431:	76 07                	jbe    743a <safe_sub_func_double_f_f+0x55>
    7433:	f2 0f 10 45 f8       	movsd  -0x8(%rbp),%xmm0
    7438:	eb 0a                	jmp    7444 <safe_sub_func_double_f_f+0x5f>
    743a:	f2 0f 10 45 f8       	movsd  -0x8(%rbp),%xmm0
    743f:	f2 0f 5c 45 f0       	subsd  -0x10(%rbp),%xmm0
    7444:	5d                   	pop    %rbp
    7445:	c3                   	retq   

0000000000007446 <safe_mul_func_double_f_f>:
    7446:	f3 0f 1e fa          	endbr64 
    744a:	55                   	push   %rbp
    744b:	48 89 e5             	mov    %rsp,%rbp
    744e:	f2 0f 11 45 f8       	movsd  %xmm0,-0x8(%rbp)
    7453:	f2 0f 11 4d f0       	movsd  %xmm1,-0x10(%rbp)
    7458:	f2 0f 10 4d f8       	movsd  -0x8(%rbp),%xmm1
    745d:	f2 0f 10 05 03 89 00 	movsd  0x8903(%rip),%xmm0        # fd68 <g_715+0xd10>
    7464:	00 
    7465:	f2 0f 59 c8          	mulsd  %xmm0,%xmm1
    7469:	f2 0f 10 55 f0       	movsd  -0x10(%rbp),%xmm2
    746e:	f2 0f 10 05 fa 88 00 	movsd  0x88fa(%rip),%xmm0        # fd70 <g_715+0xd18>
    7475:	00 
    7476:	f2 0f 59 c2          	mulsd  %xmm2,%xmm0
    747a:	f2 0f 59 c1          	mulsd  %xmm1,%xmm0
    747e:	f3 0f 7e 0d ca 88 00 	movq   0x88ca(%rip),%xmm1        # fd50 <g_715+0xcf8>
    7485:	00 
    7486:	66 0f 54 c1          	andpd  %xmm1,%xmm0
    748a:	66 0f 2f 05 e6 88 00 	comisd 0x88e6(%rip),%xmm0        # fd78 <g_715+0xd20>
    7491:	00 
    7492:	76 07                	jbe    749b <safe_mul_func_double_f_f+0x55>
    7494:	f2 0f 10 45 f8       	movsd  -0x8(%rbp),%xmm0
    7499:	eb 0a                	jmp    74a5 <safe_mul_func_double_f_f+0x5f>
    749b:	f2 0f 10 45 f8       	movsd  -0x8(%rbp),%xmm0
    74a0:	f2 0f 59 45 f0       	mulsd  -0x10(%rbp),%xmm0
    74a5:	5d                   	pop    %rbp
    74a6:	c3                   	retq   

00000000000074a7 <safe_div_func_double_f_f>:
    74a7:	f3 0f 1e fa          	endbr64 
    74ab:	55                   	push   %rbp
    74ac:	48 89 e5             	mov    %rsp,%rbp
    74af:	f2 0f 11 45 f8       	movsd  %xmm0,-0x8(%rbp)
    74b4:	f2 0f 11 4d f0       	movsd  %xmm1,-0x10(%rbp)
    74b9:	f2 0f 10 45 f0       	movsd  -0x10(%rbp),%xmm0
    74be:	f3 0f 7e 0d 8a 88 00 	movq   0x888a(%rip),%xmm1        # fd50 <g_715+0xcf8>
    74c5:	00 
    74c6:	66 0f 54 c8          	andpd  %xmm0,%xmm1
    74ca:	f2 0f 10 05 ae 88 00 	movsd  0x88ae(%rip),%xmm0        # fd80 <g_715+0xd28>
    74d1:	00 
    74d2:	66 0f 2f c1          	comisd %xmm1,%xmm0
    74d6:	0f 97 c0             	seta   %al
    74d9:	83 f0 01             	xor    $0x1,%eax
    74dc:	84 c0                	test   %al,%al
    74de:	75 5a                	jne    753a <safe_div_func_double_f_f+0x93>
    74e0:	66 0f ef c0          	pxor   %xmm0,%xmm0
    74e4:	66 0f 2e 45 f0       	ucomisd -0x10(%rbp),%xmm0
    74e9:	7a 0b                	jp     74f6 <safe_div_func_double_f_f+0x4f>
    74eb:	66 0f ef c0          	pxor   %xmm0,%xmm0
    74ef:	66 0f 2e 45 f0       	ucomisd -0x10(%rbp),%xmm0
    74f4:	74 50                	je     7546 <safe_div_func_double_f_f+0x9f>
    74f6:	f2 0f 10 4d f8       	movsd  -0x8(%rbp),%xmm1
    74fb:	f2 0f 10 05 85 88 00 	movsd  0x8885(%rip),%xmm0        # fd88 <g_715+0xd30>
    7502:	00 
    7503:	f2 0f 59 c1          	mulsd  %xmm1,%xmm0
    7507:	f2 0f 10 55 f0       	movsd  -0x10(%rbp),%xmm2
    750c:	f2 0f 10 0d 7c 88 00 	movsd  0x887c(%rip),%xmm1        # fd90 <g_715+0xd38>
    7513:	00 
    7514:	f2 0f 59 ca          	mulsd  %xmm2,%xmm1
    7518:	f2 0f 5e c1          	divsd  %xmm1,%xmm0
    751c:	f3 0f 7e 0d 2c 88 00 	movq   0x882c(%rip),%xmm1        # fd50 <g_715+0xcf8>
    7523:	00 
    7524:	66 0f 54 c1          	andpd  %xmm1,%xmm0
    7528:	66 0f 2f 05 68 88 00 	comisd 0x8868(%rip),%xmm0        # fd98 <g_715+0xd40>
    752f:	00 
    7530:	0f 97 c0             	seta   %al
    7533:	83 f0 01             	xor    $0x1,%eax
    7536:	84 c0                	test   %al,%al
    7538:	74 0c                	je     7546 <safe_div_func_double_f_f+0x9f>
    753a:	f2 0f 10 45 f8       	movsd  -0x8(%rbp),%xmm0
    753f:	f2 0f 5e 45 f0       	divsd  -0x10(%rbp),%xmm0
    7544:	eb 05                	jmp    754b <safe_div_func_double_f_f+0xa4>
    7546:	f2 0f 10 45 f8       	movsd  -0x8(%rbp),%xmm0
    754b:	5d                   	pop    %rbp
    754c:	c3                   	retq   

000000000000754d <safe_convert_func_float_to_int32_t>:
    754d:	f3 0f 1e fa          	endbr64 
    7551:	55                   	push   %rbp
    7552:	48 89 e5             	mov    %rsp,%rbp
    7555:	f3 0f 11 45 fc       	movss  %xmm0,-0x4(%rbp)
    755a:	f3 0f 10 05 3e 88 00 	movss  0x883e(%rip),%xmm0        # fda0 <g_715+0xd48>
    7561:	00 
    7562:	0f 2f 45 fc          	comiss -0x4(%rbp),%xmm0
    7566:	0f 93 c0             	setae  %al
    7569:	83 f0 01             	xor    $0x1,%eax
    756c:	84 c0                	test   %al,%al
    756e:	74 21                	je     7591 <safe_convert_func_float_to_int32_t+0x44>
    7570:	f3 0f 10 45 fc       	movss  -0x4(%rbp),%xmm0
    7575:	0f 2f 05 28 88 00 00 	comiss 0x8828(%rip),%xmm0        # fda4 <g_715+0xd4c>
    757c:	0f 93 c0             	setae  %al
    757f:	83 f0 01             	xor    $0x1,%eax
    7582:	84 c0                	test   %al,%al
    7584:	74 0b                	je     7591 <safe_convert_func_float_to_int32_t+0x44>
    7586:	f3 0f 10 45 fc       	movss  -0x4(%rbp),%xmm0
    758b:	f3 0f 2c c0          	cvttss2si %xmm0,%eax
    758f:	eb 05                	jmp    7596 <safe_convert_func_float_to_int32_t+0x49>
    7591:	b8 ff ff ff 7f       	mov    $0x7fffffff,%eax
    7596:	5d                   	pop    %rbp
    7597:	c3                   	retq   

0000000000007598 <crc32_gentab>:
    7598:	f3 0f 1e fa          	endbr64 
    759c:	55                   	push   %rbp
    759d:	48 89 e5             	mov    %rsp,%rbp
    75a0:	c7 45 fc 20 83 b8 ed 	movl   $0xedb88320,-0x4(%rbp)
    75a7:	c7 45 f4 00 00 00 00 	movl   $0x0,-0xc(%rbp)
    75ae:	eb 51                	jmp    7601 <crc32_gentab+0x69>
    75b0:	8b 45 f4             	mov    -0xc(%rbp),%eax
    75b3:	89 45 f0             	mov    %eax,-0x10(%rbp)
    75b6:	c7 45 f8 08 00 00 00 	movl   $0x8,-0x8(%rbp)
    75bd:	eb 1e                	jmp    75dd <crc32_gentab+0x45>
    75bf:	8b 45 f0             	mov    -0x10(%rbp),%eax
    75c2:	83 e0 01             	and    $0x1,%eax
    75c5:	85 c0                	test   %eax,%eax
    75c7:	74 0d                	je     75d6 <crc32_gentab+0x3e>
    75c9:	8b 45 f0             	mov    -0x10(%rbp),%eax
    75cc:	d1 e8                	shr    %eax
    75ce:	33 45 fc             	xor    -0x4(%rbp),%eax
    75d1:	89 45 f0             	mov    %eax,-0x10(%rbp)
    75d4:	eb 03                	jmp    75d9 <crc32_gentab+0x41>
    75d6:	d1 6d f0             	shrl   -0x10(%rbp)
    75d9:	83 6d f8 01          	subl   $0x1,-0x8(%rbp)
    75dd:	83 7d f8 00          	cmpl   $0x0,-0x8(%rbp)
    75e1:	7f dc                	jg     75bf <crc32_gentab+0x27>
    75e3:	8b 45 f4             	mov    -0xc(%rbp),%eax
    75e6:	48 98                	cltq   
    75e8:	48 8d 0c 85 00 00 00 	lea    0x0(,%rax,4),%rcx
    75ef:	00 
    75f0:	48 8d 15 e9 dd 00 00 	lea    0xdde9(%rip),%rdx        # 153e0 <crc32_tab>
    75f7:	8b 45 f0             	mov    -0x10(%rbp),%eax
    75fa:	89 04 11             	mov    %eax,(%rcx,%rdx,1)
    75fd:	83 45 f4 01          	addl   $0x1,-0xc(%rbp)
    7601:	81 7d f4 ff 00 00 00 	cmpl   $0xff,-0xc(%rbp)
    7608:	7e a6                	jle    75b0 <crc32_gentab+0x18>
    760a:	90                   	nop
    760b:	90                   	nop
    760c:	5d                   	pop    %rbp
    760d:	c3                   	retq   

000000000000760e <crc32_byte>:
    760e:	f3 0f 1e fa          	endbr64 
    7612:	55                   	push   %rbp
    7613:	48 89 e5             	mov    %rsp,%rbp
    7616:	89 f8                	mov    %edi,%eax
    7618:	88 45 fc             	mov    %al,-0x4(%rbp)
    761b:	8b 05 ff b9 00 00    	mov    0xb9ff(%rip),%eax        # 13020 <crc32_context>
    7621:	c1 e8 08             	shr    $0x8,%eax
    7624:	89 c1                	mov    %eax,%ecx
    7626:	0f b6 55 fc          	movzbl -0x4(%rbp),%edx
    762a:	8b 05 f0 b9 00 00    	mov    0xb9f0(%rip),%eax        # 13020 <crc32_context>
    7630:	31 d0                	xor    %edx,%eax
    7632:	0f b6 c0             	movzbl %al,%eax
    7635:	89 c0                	mov    %eax,%eax
    7637:	48 8d 14 85 00 00 00 	lea    0x0(,%rax,4),%rdx
    763e:	00 
    763f:	48 8d 05 9a dd 00 00 	lea    0xdd9a(%rip),%rax        # 153e0 <crc32_tab>
    7646:	8b 04 02             	mov    (%rdx,%rax,1),%eax
    7649:	31 c8                	xor    %ecx,%eax
    764b:	89 05 cf b9 00 00    	mov    %eax,0xb9cf(%rip)        # 13020 <crc32_context>
    7651:	90                   	nop
    7652:	5d                   	pop    %rbp
    7653:	c3                   	retq   

0000000000007654 <crc32_8bytes>:
    7654:	f3 0f 1e fa          	endbr64 
    7658:	55                   	push   %rbp
    7659:	48 89 e5             	mov    %rsp,%rbp
    765c:	48 83 ec 08          	sub    $0x8,%rsp
    7660:	48 89 7d f8          	mov    %rdi,-0x8(%rbp)
    7664:	48 8b 45 f8          	mov    -0x8(%rbp),%rax
    7668:	0f b6 c0             	movzbl %al,%eax
    766b:	89 c7                	mov    %eax,%edi
    766d:	e8 9c ff ff ff       	callq  760e <crc32_byte>
    7672:	48 8b 45 f8          	mov    -0x8(%rbp),%rax
    7676:	48 c1 e8 08          	shr    $0x8,%rax
    767a:	0f b6 c0             	movzbl %al,%eax
    767d:	89 c7                	mov    %eax,%edi
    767f:	e8 8a ff ff ff       	callq  760e <crc32_byte>
    7684:	48 8b 45 f8          	mov    -0x8(%rbp),%rax
    7688:	48 c1 e8 10          	shr    $0x10,%rax
    768c:	0f b6 c0             	movzbl %al,%eax
    768f:	89 c7                	mov    %eax,%edi
    7691:	e8 78 ff ff ff       	callq  760e <crc32_byte>
    7696:	48 8b 45 f8          	mov    -0x8(%rbp),%rax
    769a:	48 c1 e8 18          	shr    $0x18,%rax
    769e:	0f b6 c0             	movzbl %al,%eax
    76a1:	89 c7                	mov    %eax,%edi
    76a3:	e8 66 ff ff ff       	callq  760e <crc32_byte>
    76a8:	48 8b 45 f8          	mov    -0x8(%rbp),%rax
    76ac:	48 c1 e8 20          	shr    $0x20,%rax
    76b0:	0f b6 c0             	movzbl %al,%eax
    76b3:	89 c7                	mov    %eax,%edi
    76b5:	e8 54 ff ff ff       	callq  760e <crc32_byte>
    76ba:	48 8b 45 f8          	mov    -0x8(%rbp),%rax
    76be:	48 c1 e8 28          	shr    $0x28,%rax
    76c2:	0f b6 c0             	movzbl %al,%eax
    76c5:	89 c7                	mov    %eax,%edi
    76c7:	e8 42 ff ff ff       	callq  760e <crc32_byte>
    76cc:	48 8b 45 f8          	mov    -0x8(%rbp),%rax
    76d0:	48 c1 e8 30          	shr    $0x30,%rax
    76d4:	0f b6 c0             	movzbl %al,%eax
    76d7:	89 c7                	mov    %eax,%edi
    76d9:	e8 30 ff ff ff       	callq  760e <crc32_byte>
    76de:	48 8b 45 f8          	mov    -0x8(%rbp),%rax
    76e2:	48 c1 e8 38          	shr    $0x38,%rax
    76e6:	0f b6 c0             	movzbl %al,%eax
    76e9:	89 c7                	mov    %eax,%edi
    76eb:	e8 1e ff ff ff       	callq  760e <crc32_byte>
    76f0:	90                   	nop
    76f1:	c9                   	leaveq 
    76f2:	c3                   	retq   

00000000000076f3 <transparent_crc>:
    76f3:	f3 0f 1e fa          	endbr64 
    76f7:	55                   	push   %rbp
    76f8:	48 89 e5             	mov    %rsp,%rbp
    76fb:	48 83 ec 20          	sub    $0x20,%rsp
    76ff:	48 89 7d f8          	mov    %rdi,-0x8(%rbp)
    7703:	48 89 75 f0          	mov    %rsi,-0x10(%rbp)
    7707:	89 55 ec             	mov    %edx,-0x14(%rbp)
    770a:	48 8b 45 f8          	mov    -0x8(%rbp),%rax
    770e:	48 89 c7             	mov    %rax,%rdi
    7711:	e8 3e ff ff ff       	callq  7654 <crc32_8bytes>
    7716:	83 7d ec 00          	cmpl   $0x0,-0x14(%rbp)
    771a:	74 22                	je     773e <transparent_crc+0x4b>
    771c:	8b 05 fe b8 00 00    	mov    0xb8fe(%rip),%eax        # 13020 <crc32_context>
    7722:	f7 d0                	not    %eax
    7724:	89 c2                	mov    %eax,%edx
    7726:	48 8b 45 f0          	mov    -0x10(%rbp),%rax
    772a:	48 89 c6             	mov    %rax,%rsi
    772d:	48 8d 3d fc 78 00 00 	lea    0x78fc(%rip),%rdi        # f030 <_IO_stdin_used+0x30>
    7734:	b8 00 00 00 00       	mov    $0x0,%eax
    7739:	e8 42 e9 ff ff       	callq  6080 <printf@plt>
    773e:	90                   	nop
    773f:	c9                   	leaveq 
    7740:	c3                   	retq   

0000000000007741 <transparent_crc_bytes>:
    7741:	f3 0f 1e fa          	endbr64 
    7745:	55                   	push   %rbp
    7746:	48 89 e5             	mov    %rsp,%rbp
    7749:	48 83 ec 30          	sub    $0x30,%rsp
    774d:	48 89 7d e8          	mov    %rdi,-0x18(%rbp)
    7751:	89 75 e4             	mov    %esi,-0x1c(%rbp)
    7754:	48 89 55 d8          	mov    %rdx,-0x28(%rbp)
    7758:	89 4d e0             	mov    %ecx,-0x20(%rbp)
    775b:	c7 45 fc 00 00 00 00 	movl   $0x0,-0x4(%rbp)
    7762:	eb 1e                	jmp    7782 <transparent_crc_bytes+0x41>
    7764:	8b 45 fc             	mov    -0x4(%rbp),%eax
    7767:	48 63 d0             	movslq %eax,%rdx
    776a:	48 8b 45 e8          	mov    -0x18(%rbp),%rax
    776e:	48 01 d0             	add    %rdx,%rax
    7771:	0f b6 00             	movzbl (%rax),%eax
    7774:	0f b6 c0             	movzbl %al,%eax
    7777:	89 c7                	mov    %eax,%edi
    7779:	e8 90 fe ff ff       	callq  760e <crc32_byte>
    777e:	83 45 fc 01          	addl   $0x1,-0x4(%rbp)
    7782:	8b 45 fc             	mov    -0x4(%rbp),%eax
    7785:	3b 45 e4             	cmp    -0x1c(%rbp),%eax
    7788:	7c da                	jl     7764 <transparent_crc_bytes+0x23>
    778a:	83 7d e0 00          	cmpl   $0x0,-0x20(%rbp)
    778e:	74 22                	je     77b2 <transparent_crc_bytes+0x71>
    7790:	8b 05 8a b8 00 00    	mov    0xb88a(%rip),%eax        # 13020 <crc32_context>
    7796:	f7 d0                	not    %eax
    7798:	89 c2                	mov    %eax,%edx
    779a:	48 8b 45 d8          	mov    -0x28(%rbp),%rax
    779e:	48 89 c6             	mov    %rax,%rsi
    77a1:	48 8d 3d 88 78 00 00 	lea    0x7888(%rip),%rdi        # f030 <_IO_stdin_used+0x30>
    77a8:	b8 00 00 00 00       	mov    $0x0,%eax
    77ad:	e8 ce e8 ff ff       	callq  6080 <printf@plt>
    77b2:	90                   	nop
    77b3:	c9                   	leaveq 
    77b4:	c3                   	retq   

00000000000077b5 <func_1>:
    77b5:	f3 0f 1e fa          	endbr64 
    77b9:	55                   	push   %rbp
    77ba:	48 89 e5             	mov    %rsp,%rbp
    77bd:	41 57                	push   %r15
    77bf:	41 56                	push   %r14
    77c1:	41 55                	push   %r13
    77c3:	41 54                	push   %r12
    77c5:	53                   	push   %rbx
    77c6:	48 81 ec 88 00 00 00 	sub    $0x88,%rsp
    77cd:	64 48 8b 04 25 28 00 	mov    %fs:0x28,%rax
    77d4:	00 00 
    77d6:	48 89 45 c8          	mov    %rax,-0x38(%rbp)
    77da:	31 c0                	xor    %eax,%eax
    77dc:	c7 45 88 01 00 00 00 	movl   $0x1,-0x78(%rbp)
    77e3:	c7 45 8c fa ff ff ff 	movl   $0xfffffffa,-0x74(%rbp)
    77ea:	48 c7 45 90 ff ff ff 	movq   $0xffffffffffffffff,-0x70(%rbp)
    77f1:	ff 
    77f2:	66 c7 45 82 ff ff    	movw   $0xffff,-0x7e(%rbp)
    77f8:	c6 45 84 0c          	movb   $0xc,-0x7c(%rbp)
    77fc:	48 8d 05 d9 bb 00 00 	lea    0xbbd9(%rip),%rax        # 133dc <g_1466>
    7803:	48 89 45 98          	mov    %rax,-0x68(%rbp)
    7807:	c7 45 a0 09 00 00 00 	movl   $0x9,-0x60(%rbp)
    780e:	c7 45 a4 73 68 35 60 	movl   $0x60356873,-0x5c(%rbp)
    7815:	c7 45 a8 09 00 00 00 	movl   $0x9,-0x58(%rbp)
    781c:	c7 45 ac 09 00 00 00 	movl   $0x9,-0x54(%rbp)
    7823:	c7 45 b0 73 68 35 60 	movl   $0x60356873,-0x50(%rbp)
    782a:	c7 45 b4 09 00 00 00 	movl   $0x9,-0x4c(%rbp)
    7831:	c7 45 b8 09 00 00 00 	movl   $0x9,-0x48(%rbp)
    7838:	48 8b 05 79 bb 00 00 	mov    0xbb79(%rip),%rax        # 133b8 <g_681>
    783f:	89 85 7c ff ff ff    	mov    %eax,-0x84(%rbp)
    7845:	48 8b 45 90          	mov    -0x70(%rbp),%rax
    7849:	89 85 78 ff ff ff    	mov    %eax,-0x88(%rbp)
    784f:	48 8b 45 90          	mov    -0x70(%rbp),%rax
    7853:	89 85 74 ff ff ff    	mov    %eax,-0x8c(%rbp)
    7859:	0f b7 05 3c bb 00 00 	movzwl 0xbb3c(%rip),%eax        # 1339c <g_282+0xc>
    7860:	44 0f b6 f0          	movzbl %al,%r14d
    7864:	44 0f b7 6d 82       	movzwl -0x7e(%rbp),%r13d
    7869:	0f b6 05 b4 b7 00 00 	movzbl 0xb7b4(%rip),%eax        # 13024 <g_8>
    7870:	48 0f be c0          	movsbq %al,%rax
    7874:	48 89 85 68 ff ff ff 	mov    %rax,-0x98(%rbp)
    787b:	8b 45 88             	mov    -0x78(%rbp),%eax
    787e:	0f b7 c8             	movzwl %ax,%ecx
    7881:	89 8d 70 ff ff ff    	mov    %ecx,-0x90(%rbp)
    7887:	44 8b 7d 88          	mov    -0x78(%rbp),%r15d
    788b:	8b 45 88             	mov    -0x78(%rbp),%eax
    788e:	0f be f8             	movsbl %al,%edi
    7891:	89 bd 64 ff ff ff    	mov    %edi,-0x9c(%rbp)
    7897:	48 8b 05 22 d6 00 00 	mov    0xd622(%rip),%rax        # 14ec0 <g_477>
    789e:	48 8b 00             	mov    (%rax),%rax
    78a1:	48 8b 00             	mov    (%rax),%rax
    78a4:	48 8b 00             	mov    (%rax),%rax
    78a7:	48 89 85 58 ff ff ff 	mov    %rax,-0xa8(%rbp)
    78ae:	8b 5d 88             	mov    -0x78(%rbp),%ebx
    78b1:	8b 45 88             	mov    -0x78(%rbp),%eax
    78b4:	44 0f b6 e0          	movzbl %al,%r12d
    78b8:	0f b6 05 65 b7 00 00 	movzbl 0xb765(%rip),%eax        # 13024 <g_8>
    78bf:	0f be c0             	movsbl %al,%eax
    78c2:	39 45 88             	cmp    %eax,-0x78(%rbp)
    78c5:	0f 93 c0             	setae  %al
    78c8:	0f b6 c0             	movzbl %al,%eax
    78cb:	be fa ff ff ff       	mov    $0xfffffffa,%esi
    78d0:	89 c7                	mov    %eax,%edi
    78d2:	e8 3b e9 ff ff       	callq  6212 <safe_mul_func_int8_t_s_s>
    78d7:	0f be d0             	movsbl %al,%edx
    78da:	0f b6 05 43 b7 00 00 	movzbl 0xb743(%rip),%eax        # 13024 <g_8>
    78e1:	0f be f0             	movsbl %al,%esi
    78e4:	0f b6 05 39 b7 00 00 	movzbl 0xb739(%rip),%eax        # 13024 <g_8>
    78eb:	66 98                	cbtw   
    78ed:	0f b7 c0             	movzwl %ax,%eax
    78f0:	41 89 d8             	mov    %ebx,%r8d
    78f3:	44 89 e1             	mov    %r12d,%ecx
    78f6:	89 c7                	mov    %eax,%edi
    78f8:	e8 87 4b 00 00       	callq  c484 <func_49>
    78fd:	48 8b b5 58 ff ff ff 	mov    -0xa8(%rbp),%rsi
    7904:	48 89 c7             	mov    %rax,%rdi
    7907:	e8 eb f0 ff ff       	callq  69f7 <safe_div_func_int64_t_s_s>
    790c:	89 c7                	mov    %eax,%edi
    790e:	e8 b7 45 00 00       	callq  beca <func_45>
    7913:	8b b5 64 ff ff ff    	mov    -0x9c(%rbp),%esi
    7919:	89 c7                	mov    %eax,%edi
    791b:	e8 dc 1e 00 00       	callq  97fc <func_42>
    7920:	48 63 d0             	movslq %eax,%rdx
    7923:	48 8b 05 9e ba 00 00 	mov    0xba9e(%rip),%rax        # 133c8 <g_1122>
    792a:	48 09 d0             	or     %rdx,%rax
    792d:	48 89 05 94 ba 00 00 	mov    %rax,0xba94(%rip)        # 133c8 <g_1122>
    7934:	48 8b 05 8d ba 00 00 	mov    0xba8d(%rip),%rax        # 133c8 <g_1122>
    793b:	89 c7                	mov    %eax,%edi
    793d:	8b 55 88             	mov    -0x78(%rbp),%edx
    7940:	8b 45 88             	mov    -0x78(%rbp),%eax
    7943:	44 8b 85 70 ff ff ff 	mov    -0x90(%rbp),%r8d
    794a:	4c 89 f9             	mov    %r15,%rcx
    794d:	89 c6                	mov    %eax,%esi
    794f:	e8 80 1e 00 00       	callq  97d4 <func_36>
    7954:	48 89 c2             	mov    %rax,%rdx
    7957:	8b 45 88             	mov    -0x78(%rbp),%eax
    795a:	48 89 d6             	mov    %rdx,%rsi
    795d:	48 89 c7             	mov    %rax,%rdi
    7960:	e8 4a f7 ff ff       	callq  70af <safe_div_func_uint64_t_u_u>
    7965:	48 39 85 68 ff ff ff 	cmp    %rax,-0x98(%rbp)
    796c:	8b 45 8c             	mov    -0x74(%rbp),%eax
    796f:	48 be 45 79 13 de 13 	movabs $0xa3ee6513de137945,%rsi
    7976:	65 ee a3 
    7979:	48 89 c7             	mov    %rax,%rdi
    797c:	e8 ff f6 ff ff       	callq  7080 <safe_mod_func_uint64_t_u_u>
    7981:	48 8b 45 90          	mov    -0x70(%rbp),%rax
    7985:	0f b7 c0             	movzwl %ax,%eax
    7988:	8b 55 84             	mov    -0x7c(%rbp),%edx
    798b:	89 d1                	mov    %edx,%ecx
    798d:	44 89 f2             	mov    %r14d,%edx
    7990:	44 89 ee             	mov    %r13d,%esi
    7993:	89 c7                	mov    %eax,%edi
    7995:	e8 35 07 00 00       	callq  80cf <func_27>
    799a:	8b 55 8c             	mov    -0x74(%rbp),%edx
    799d:	48 09 d0             	or     %rdx,%rax
    79a0:	48 f7 d0             	not    %rax
    79a3:	48 89 c2             	mov    %rax,%rdx
    79a6:	48 8b 45 98          	mov    -0x68(%rbp),%rax
    79aa:	0f b7 00             	movzwl (%rax),%eax
    79ad:	09 c2                	or     %eax,%edx
    79af:	48 8b 45 98          	mov    -0x68(%rbp),%rax
    79b3:	66 89 10             	mov    %dx,(%rax)
    79b6:	48 8b 45 98          	mov    -0x68(%rbp),%rax
    79ba:	0f b7 00             	movzwl (%rax),%eax
    79bd:	0f b7 c0             	movzwl %ax,%eax
    79c0:	be 00 00 00 00       	mov    $0x0,%esi
    79c5:	89 c7                	mov    %eax,%edi
    79c7:	e8 71 f3 ff ff       	callq  6d3d <safe_mul_func_uint16_t_u_u>
    79cc:	0f b7 c0             	movzwl %ax,%eax
    79cf:	8b b5 74 ff ff ff    	mov    -0x8c(%rbp),%esi
    79d5:	89 c7                	mov    %eax,%edi
    79d7:	e8 f4 f4 ff ff       	callq  6ed0 <safe_sub_func_uint32_t_u_u>
    79dc:	83 7d 88 01          	cmpl   $0x1,-0x78(%rbp)
    79e0:	0f 96 c0             	setbe  %al
    79e3:	0f b6 c0             	movzbl %al,%eax
    79e6:	0b 45 88             	or     -0x78(%rbp),%eax
    79e9:	be 2a 47 60 2e       	mov    $0x2e60472a,%esi
    79ee:	89 c7                	mov    %eax,%edi
    79f0:	e8 08 f5 ff ff       	callq  6efd <safe_mod_func_uint32_t_u_u>
    79f5:	83 f8 01             	cmp    $0x1,%eax
    79f8:	0f 95 c0             	setne  %al
    79fb:	0f b6 c0             	movzbl %al,%eax
    79fe:	8b b5 78 ff ff ff    	mov    -0x88(%rbp),%esi
    7a04:	89 c7                	mov    %eax,%edi
    7a06:	e8 fa eb ff ff       	callq  6605 <safe_sub_func_int32_t_s_s>
    7a0b:	3d a2 78 67 00       	cmp    $0x6778a2,%eax
    7a10:	0f 9e c0             	setle  %al
    7a13:	0f b6 c0             	movzbl %al,%eax
    7a16:	89 45 a8             	mov    %eax,-0x58(%rbp)
    7a19:	44 8b 65 a8          	mov    -0x58(%rbp),%r12d
    7a1d:	0f b6 05 00 b6 00 00 	movzbl 0xb600(%rip),%eax        # 13024 <g_8>
    7a24:	0f be d8             	movsbl %al,%ebx
    7a27:	8b 45 88             	mov    -0x78(%rbp),%eax
    7a2a:	0f b6 c0             	movzbl %al,%eax
    7a2d:	be 00 00 00 00       	mov    $0x0,%esi
    7a32:	89 c7                	mov    %eax,%edi
    7a34:	e8 85 f2 ff ff       	callq  6cbe <safe_rshift_func_uint8_t_u_u>
    7a39:	0f b6 c0             	movzbl %al,%eax
    7a3c:	8b 55 8c             	mov    -0x74(%rbp),%edx
    7a3f:	89 d1                	mov    %edx,%ecx
    7a41:	44 89 e2             	mov    %r12d,%edx
    7a44:	89 de                	mov    %ebx,%esi
    7a46:	89 c7                	mov    %eax,%edi
    7a48:	e8 b3 00 00 00       	callq  7b00 <func_11>
    7a4d:	0f be c0             	movsbl %al,%eax
    7a50:	39 45 8c             	cmp    %eax,-0x74(%rbp)
    7a53:	0f 93 c0             	setae  %al
    7a56:	0f b6 f0             	movzbl %al,%esi
    7a59:	0f b6 05 c4 b5 00 00 	movzbl 0xb5c4(%rip),%eax        # 13024 <g_8>
    7a60:	48 0f be c0          	movsbq %al,%rax
    7a64:	48 8b 4d 90          	mov    -0x70(%rbp),%rcx
    7a68:	8b 55 8c             	mov    -0x74(%rbp),%edx
    7a6b:	44 8b 85 7c ff ff ff 	mov    -0x84(%rbp),%r8d
    7a72:	48 89 c7             	mov    %rax,%rdi
    7a75:	e8 2d 00 00 00       	callq  7aa7 <func_2>
    7a7a:	89 45 a8             	mov    %eax,-0x58(%rbp)
    7a7d:	48 8b 45 90          	mov    -0x70(%rbp),%rax
    7a81:	48 8b 5d c8          	mov    -0x38(%rbp),%rbx
    7a85:	64 48 33 1c 25 28 00 	xor    %fs:0x28,%rbx
    7a8c:	00 00 
    7a8e:	74 05                	je     7a95 <func_1+0x2e0>
    7a90:	e8 db e5 ff ff       	callq  6070 <__stack_chk_fail@plt>
    7a95:	48 81 c4 88 00 00 00 	add    $0x88,%rsp
    7a9c:	5b                   	pop    %rbx
    7a9d:	41 5c                	pop    %r12
    7a9f:	41 5d                	pop    %r13
    7aa1:	41 5e                	pop    %r14
    7aa3:	41 5f                	pop    %r15
    7aa5:	5d                   	pop    %rbp
    7aa6:	c3                   	retq   

0000000000007aa7 <func_2>:
    7aa7:	f3 0f 1e fa          	endbr64 
    7aab:	55                   	push   %rbp
    7aac:	48 89 e5             	mov    %rsp,%rbp
    7aaf:	48 89 7d e8          	mov    %rdi,-0x18(%rbp)
    7ab3:	48 89 75 e0          	mov    %rsi,-0x20(%rbp)
    7ab7:	89 55 dc             	mov    %edx,-0x24(%rbp)
    7aba:	48 89 4d d0          	mov    %rcx,-0x30(%rbp)
    7abe:	44 89 45 d8          	mov    %r8d,-0x28(%rbp)
    7ac2:	c7 45 f4 93 8c 16 3e 	movl   $0x3e168c93,-0xc(%rbp)
    7ac9:	48 8d 05 bc b8 00 00 	lea    0xb8bc(%rip),%rax        # 1338c <g_269>
    7ad0:	48 89 45 f8          	mov    %rax,-0x8(%rbp)
    7ad4:	48 8b 05 4d d7 00 00 	mov    0xd74d(%rip),%rax        # 15228 <g_1523+0x28>
    7adb:	48 85 c0             	test   %rax,%rax
    7ade:	0f 95 c0             	setne  %al
    7ae1:	0f b6 c0             	movzbl %al,%eax
    7ae4:	89 45 f4             	mov    %eax,-0xc(%rbp)
    7ae7:	8b 55 f4             	mov    -0xc(%rbp),%edx
    7aea:	48 8b 45 f8          	mov    -0x8(%rbp),%rax
    7aee:	8b 00                	mov    (%rax),%eax
    7af0:	31 c2                	xor    %eax,%edx
    7af2:	48 8b 45 f8          	mov    -0x8(%rbp),%rax
    7af6:	89 10                	mov    %edx,(%rax)
    7af8:	48 8b 45 f8          	mov    -0x8(%rbp),%rax
    7afc:	8b 00                	mov    (%rax),%eax
    7afe:	5d                   	pop    %rbp
    7aff:	c3                   	retq   

0000000000007b00 <func_11>:
    7b00:	f3 0f 1e fa          	endbr64 
    7b04:	55                   	push   %rbp
    7b05:	48 89 e5             	mov    %rsp,%rbp
    7b08:	41 54                	push   %r12
    7b0a:	53                   	push   %rbx
    7b0b:	48 81 ec f0 0c 00 00 	sub    $0xcf0,%rsp
    7b12:	89 bd 0c f3 ff ff    	mov    %edi,-0xcf4(%rbp)
    7b18:	89 b5 08 f3 ff ff    	mov    %esi,-0xcf8(%rbp)
    7b1e:	89 95 04 f3 ff ff    	mov    %edx,-0xcfc(%rbp)
    7b24:	89 8d 00 f3 ff ff    	mov    %ecx,-0xd00(%rbp)
    7b2a:	64 48 8b 04 25 28 00 	mov    %fs:0x28,%rax
    7b31:	00 00 
    7b33:	48 89 45 e8          	mov    %rax,-0x18(%rbp)
    7b37:	31 c0                	xor    %eax,%eax
    7b39:	48 c7 85 30 f3 ff ff 	movq   $0x0,-0xcd0(%rbp)
    7b40:	00 00 00 00 
    7b44:	c7 85 18 f3 ff ff ab 	movl   $0x99f0e3ab,-0xce8(%rbp)
    7b4b:	e3 f0 99 
    7b4e:	c7 85 1c f3 ff ff c6 	movl   $0x9722c1c6,-0xce4(%rbp)
    7b55:	c1 22 97 
    7b58:	c7 85 2c f3 ff ff 01 	movl   $0x1,-0xcd4(%rbp)
    7b5f:	00 00 00 
    7b62:	c7 85 20 f3 ff ff f7 	movl   $0xfffffff7,-0xce0(%rbp)
    7b69:	ff ff ff 
    7b6c:	48 8d 85 00 f9 ff ff 	lea    -0x700(%rbp),%rax
    7b73:	48 8d 15 e6 74 00 00 	lea    0x74e6(%rip),%rdx        # f060 <g_715+0x8>
    7b7a:	b9 64 00 00 00       	mov    $0x64,%ecx
    7b7f:	48 89 c7             	mov    %rax,%rdi
    7b82:	48 89 d6             	mov    %rdx,%rsi
    7b85:	f3 48 a5             	rep movsq %ds:(%rsi),%es:(%rdi)
    7b88:	c7 85 24 f3 ff ff 16 	movl   $0xa3113216,-0xcdc(%rbp)
    7b8f:	32 11 a3 
    7b92:	48 8d 85 10 f5 ff ff 	lea    -0xaf0(%rbp),%rax
    7b99:	48 8d 15 80 b8 00 00 	lea    0xb880(%rip),%rdx        # 13420 <g_1526+0x30>
    7ba0:	b9 24 00 00 00       	mov    $0x24,%ecx
    7ba5:	48 89 c7             	mov    %rax,%rdi
    7ba8:	48 89 d6             	mov    %rdx,%rsi
    7bab:	f3 48 a5             	rep movsq %ds:(%rsi),%es:(%rdi)
    7bae:	48 8d 85 10 f5 ff ff 	lea    -0xaf0(%rbp),%rax
    7bb5:	48 83 c0 60          	add    $0x60,%rax
    7bb9:	48 89 85 38 f3 ff ff 	mov    %rax,-0xcc8(%rbp)
    7bc0:	48 8d 85 1c f3 ff ff 	lea    -0xce4(%rbp),%rax
    7bc7:	48 89 85 40 f3 ff ff 	mov    %rax,-0xcc0(%rbp)
    7bce:	48 8d 85 18 f3 ff ff 	lea    -0xce8(%rbp),%rax
    7bd5:	48 89 85 48 f3 ff ff 	mov    %rax,-0xcb8(%rbp)
    7bdc:	48 8d 85 24 f3 ff ff 	lea    -0xcdc(%rbp),%rax
    7be3:	48 89 85 50 f3 ff ff 	mov    %rax,-0xcb0(%rbp)
    7bea:	48 8d 85 00 f9 ff ff 	lea    -0x700(%rbp),%rax
    7bf1:	48 05 90 00 00 00    	add    $0x90,%rax
    7bf7:	48 89 85 58 f3 ff ff 	mov    %rax,-0xca8(%rbp)
    7bfe:	48 8d 05 23 b4 00 00 	lea    0xb423(%rip),%rax        # 13028 <g_63>
    7c05:	48 89 85 60 f3 ff ff 	mov    %rax,-0xca0(%rbp)
    7c0c:	48 8d 85 20 f3 ff ff 	lea    -0xce0(%rbp),%rax
    7c13:	48 89 85 80 f4 ff ff 	mov    %rax,-0xb80(%rbp)
    7c1a:	48 8d 85 20 f3 ff ff 	lea    -0xce0(%rbp),%rax
    7c21:	48 89 85 88 f4 ff ff 	mov    %rax,-0xb78(%rbp)
    7c28:	48 8d 85 20 f3 ff ff 	lea    -0xce0(%rbp),%rax
    7c2f:	48 89 85 90 f4 ff ff 	mov    %rax,-0xb70(%rbp)
    7c36:	48 8d 85 20 f3 ff ff 	lea    -0xce0(%rbp),%rax
    7c3d:	48 89 85 98 f4 ff ff 	mov    %rax,-0xb68(%rbp)
    7c44:	48 8d 85 20 f3 ff ff 	lea    -0xce0(%rbp),%rax
    7c4b:	48 89 85 a0 f4 ff ff 	mov    %rax,-0xb60(%rbp)
    7c52:	48 8d 85 20 f3 ff ff 	lea    -0xce0(%rbp),%rax
    7c59:	48 89 85 a8 f4 ff ff 	mov    %rax,-0xb58(%rbp)
    7c60:	48 8d 85 20 f3 ff ff 	lea    -0xce0(%rbp),%rax
    7c67:	48 89 85 b0 f4 ff ff 	mov    %rax,-0xb50(%rbp)
    7c6e:	48 8d 85 20 f3 ff ff 	lea    -0xce0(%rbp),%rax
    7c75:	48 89 85 b8 f4 ff ff 	mov    %rax,-0xb48(%rbp)
    7c7c:	48 8d 85 20 f3 ff ff 	lea    -0xce0(%rbp),%rax
    7c83:	48 89 85 c0 f4 ff ff 	mov    %rax,-0xb40(%rbp)
    7c8a:	48 8d 85 20 f3 ff ff 	lea    -0xce0(%rbp),%rax
    7c91:	48 89 85 c8 f4 ff ff 	mov    %rax,-0xb38(%rbp)
    7c98:	48 8d 85 20 f3 ff ff 	lea    -0xce0(%rbp),%rax
    7c9f:	48 89 85 d0 f4 ff ff 	mov    %rax,-0xb30(%rbp)
    7ca6:	48 8d 85 20 f3 ff ff 	lea    -0xce0(%rbp),%rax
    7cad:	48 89 85 d8 f4 ff ff 	mov    %rax,-0xb28(%rbp)
    7cb4:	48 8d 85 20 f3 ff ff 	lea    -0xce0(%rbp),%rax
    7cbb:	48 89 85 e0 f4 ff ff 	mov    %rax,-0xb20(%rbp)
    7cc2:	48 8d 85 20 f3 ff ff 	lea    -0xce0(%rbp),%rax
    7cc9:	48 89 85 e8 f4 ff ff 	mov    %rax,-0xb18(%rbp)
    7cd0:	48 8d 85 20 f3 ff ff 	lea    -0xce0(%rbp),%rax
    7cd7:	48 89 85 f0 f4 ff ff 	mov    %rax,-0xb10(%rbp)
    7cde:	48 8d 85 20 f3 ff ff 	lea    -0xce0(%rbp),%rax
    7ce5:	48 89 85 f8 f4 ff ff 	mov    %rax,-0xb08(%rbp)
    7cec:	48 8d 85 20 f3 ff ff 	lea    -0xce0(%rbp),%rax
    7cf3:	48 89 85 00 f5 ff ff 	mov    %rax,-0xb00(%rbp)
    7cfa:	48 8d 85 20 f3 ff ff 	lea    -0xce0(%rbp),%rax
    7d01:	48 89 85 08 f5 ff ff 	mov    %rax,-0xaf8(%rbp)
    7d08:	48 8d 85 20 fc ff ff 	lea    -0x3e0(%rbp),%rax
    7d0f:	48 8d 15 6a 76 00 00 	lea    0x766a(%rip),%rdx        # f380 <g_715+0x328>
    7d16:	b9 78 00 00 00       	mov    $0x78,%ecx
    7d1b:	48 89 c7             	mov    %rax,%rdi
    7d1e:	48 89 d6             	mov    %rdx,%rsi
    7d21:	f3 48 a5             	rep movsq %ds:(%rsi),%es:(%rdi)
    7d24:	c7 85 40 f4 ff ff 07 	movl   $0x7,-0xbc0(%rbp)
    7d2b:	00 00 00 
    7d2e:	c7 85 44 f4 ff ff 07 	movl   $0x7,-0xbbc(%rbp)
    7d35:	00 00 00 
    7d38:	c7 85 48 f4 ff ff b4 	movl   $0x752aa7b4,-0xbb8(%rbp)
    7d3f:	a7 2a 75 
    7d42:	c7 85 4c f4 ff ff b4 	movl   $0x752aa7b4,-0xbb4(%rbp)
    7d49:	a7 2a 75 
    7d4c:	c7 85 50 f4 ff ff 07 	movl   $0x7,-0xbb0(%rbp)
    7d53:	00 00 00 
    7d56:	c7 85 54 f4 ff ff 07 	movl   $0x7,-0xbac(%rbp)
    7d5d:	00 00 00 
    7d60:	c7 85 58 f4 ff ff b4 	movl   $0x752aa7b4,-0xba8(%rbp)
    7d67:	a7 2a 75 
    7d6a:	c7 85 5c f4 ff ff b4 	movl   $0x752aa7b4,-0xba4(%rbp)
    7d71:	a7 2a 75 
    7d74:	c7 85 60 f4 ff ff 07 	movl   $0x7,-0xba0(%rbp)
    7d7b:	00 00 00 
    7d7e:	c7 85 64 f4 ff ff 07 	movl   $0x7,-0xb9c(%rbp)
    7d85:	00 00 00 
    7d88:	c7 85 68 f4 ff ff b4 	movl   $0x752aa7b4,-0xb98(%rbp)
    7d8f:	a7 2a 75 
    7d92:	c7 85 6c f4 ff ff b4 	movl   $0x752aa7b4,-0xb94(%rbp)
    7d99:	a7 2a 75 
    7d9c:	c7 85 70 f4 ff ff 07 	movl   $0x7,-0xb90(%rbp)
    7da3:	00 00 00 
    7da6:	c7 85 74 f4 ff ff 07 	movl   $0x7,-0xb8c(%rbp)
    7dad:	00 00 00 
    7db0:	c7 85 78 f4 ff ff b4 	movl   $0x752aa7b4,-0xb88(%rbp)
    7db7:	a7 2a 75 
    7dba:	c7 85 7c f4 ff ff b4 	movl   $0x752aa7b4,-0xb84(%rbp)
    7dc1:	a7 2a 75 
    7dc4:	c7 85 08 f3 ff ff 14 	movl   $0x14,-0xcf8(%rbp)
    7dcb:	00 00 00 
    7dce:	e9 9e 02 00 00       	jmpq   8071 <func_11+0x571>
    7dd3:	48 8d 05 b2 b5 00 00 	lea    0xb5b2(%rip),%rax        # 1338c <g_269>
    7dda:	48 89 85 68 f3 ff ff 	mov    %rax,-0xc98(%rbp)
    7de1:	48 c7 85 70 f3 ff ff 	movq   $0x0,-0xc90(%rbp)
    7de8:	00 00 00 00 
    7dec:	48 8d 05 99 b5 00 00 	lea    0xb599(%rip),%rax        # 1338c <g_269>
    7df3:	48 89 85 78 f3 ff ff 	mov    %rax,-0xc88(%rbp)
    7dfa:	48 8d 05 27 b2 00 00 	lea    0xb227(%rip),%rax        # 13028 <g_63>
    7e01:	48 89 85 80 f3 ff ff 	mov    %rax,-0xc80(%rbp)
    7e08:	48 8d 05 7d b5 00 00 	lea    0xb57d(%rip),%rax        # 1338c <g_269>
    7e0f:	48 89 85 88 f3 ff ff 	mov    %rax,-0xc78(%rbp)
    7e16:	48 8d 05 0f b2 00 00 	lea    0xb20f(%rip),%rax        # 1302c <g_88>
    7e1d:	48 89 85 90 f3 ff ff 	mov    %rax,-0xc70(%rbp)
    7e24:	48 8d 05 61 b5 00 00 	lea    0xb561(%rip),%rax        # 1338c <g_269>
    7e2b:	48 89 85 98 f3 ff ff 	mov    %rax,-0xc68(%rbp)
    7e32:	48 8d 05 f3 b1 00 00 	lea    0xb1f3(%rip),%rax        # 1302c <g_88>
    7e39:	48 89 85 a0 f3 ff ff 	mov    %rax,-0xc60(%rbp)
    7e40:	48 8d 05 e5 b1 00 00 	lea    0xb1e5(%rip),%rax        # 1302c <g_88>
    7e47:	48 89 85 a8 f3 ff ff 	mov    %rax,-0xc58(%rbp)
    7e4e:	48 8d 05 d7 b1 00 00 	lea    0xb1d7(%rip),%rax        # 1302c <g_88>
    7e55:	48 89 85 b0 f3 ff ff 	mov    %rax,-0xc50(%rbp)
    7e5c:	48 c7 85 b8 f3 ff ff 	movq   $0x0,-0xc48(%rbp)
    7e63:	00 00 00 00 
    7e67:	48 8d 05 be b1 00 00 	lea    0xb1be(%rip),%rax        # 1302c <g_88>
    7e6e:	48 89 85 c0 f3 ff ff 	mov    %rax,-0xc40(%rbp)
    7e75:	48 8d 05 10 b5 00 00 	lea    0xb510(%rip),%rax        # 1338c <g_269>
    7e7c:	48 89 85 c8 f3 ff ff 	mov    %rax,-0xc38(%rbp)
    7e83:	48 8d 05 9e b1 00 00 	lea    0xb19e(%rip),%rax        # 13028 <g_63>
    7e8a:	48 89 85 d0 f3 ff ff 	mov    %rax,-0xc30(%rbp)
    7e91:	48 8d 85 30 f6 ff ff 	lea    -0x9d0(%rbp),%rax
    7e98:	48 8d 15 a1 b6 00 00 	lea    0xb6a1(%rip),%rdx        # 13540 <g_1526+0x150>
    7e9f:	b9 5a 00 00 00       	mov    $0x5a,%ecx
    7ea4:	48 89 c7             	mov    %rax,%rdi
    7ea7:	48 89 d6             	mov    %rdx,%rsi
    7eaa:	f3 48 a5             	rep movsq %ds:(%rsi),%es:(%rdi)
    7ead:	48 c7 85 d8 f3 ff ff 	movq   $0xffffffffffffffff,-0xc28(%rbp)
    7eb4:	ff ff ff ff 
    7eb8:	48 c7 85 e0 f3 ff ff 	movq   $0x0,-0xc20(%rbp)
    7ebf:	00 00 00 00 
    7ec3:	48 8d 05 f6 b4 00 00 	lea    0xb4f6(%rip),%rax        # 133c0 <g_883>
    7eca:	48 89 85 e8 f3 ff ff 	mov    %rax,-0xc18(%rbp)
    7ed1:	48 8d 85 00 f4 ff ff 	lea    -0xc00(%rbp),%rax
    7ed8:	48 83 c0 10          	add    $0x10,%rax
    7edc:	48 89 85 f0 f3 ff ff 	mov    %rax,-0xc10(%rbp)
    7ee3:	48 8d 05 b0 b4 00 00 	lea    0xb4b0(%rip),%rax        # 1339a <g_282+0xa>
    7eea:	48 89 85 f8 f3 ff ff 	mov    %rax,-0xc08(%rbp)
    7ef1:	c7 85 28 f3 ff ff 00 	movl   $0x0,-0xcd8(%rbp)
    7ef8:	00 00 00 
    7efb:	eb 1b                	jmp    7f18 <func_11+0x418>
    7efd:	8b 85 28 f3 ff ff    	mov    -0xcd8(%rbp),%eax
    7f03:	48 98                	cltq   
    7f05:	48 c7 84 c5 00 f4 ff 	movq   $0x0,-0xc00(%rbp,%rax,8)
    7f0c:	ff 00 00 00 00 
    7f11:	83 85 28 f3 ff ff 01 	addl   $0x1,-0xcd8(%rbp)
    7f18:	83 bd 28 f3 ff ff 06 	cmpl   $0x6,-0xcd8(%rbp)
    7f1f:	7e dc                	jle    7efd <func_11+0x3fd>
    7f21:	48 8b 05 b8 b4 00 00 	mov    0xb4b8(%rip),%rax        # 133e0 <g_1492>
    7f28:	48 83 c0 01          	add    $0x1,%rax
    7f2c:	48 89 05 ad b4 00 00 	mov    %rax,0xb4ad(%rip)        # 133e0 <g_1492>
    7f33:	48 8b 05 66 c0 00 00 	mov    0xc066(%rip),%rax        # 13fa0 <g_62>
    7f3a:	8b 18                	mov    (%rax),%ebx
    7f3c:	48 8b 05 55 cf 00 00 	mov    0xcf55(%rip),%rax        # 14e98 <g_371>
    7f43:	48 8b 00             	mov    (%rax),%rax
    7f46:	48 85 c0             	test   %rax,%rax
    7f49:	0f 85 e1 00 00 00    	jne    8030 <func_11+0x530>
    7f4f:	48 8b 85 e8 f3 ff ff 	mov    -0xc18(%rbp),%rax
    7f56:	0f b6 00             	movzbl (%rax),%eax
    7f59:	83 c8 f9             	or     $0xfffffff9,%eax
    7f5c:	89 c2                	mov    %eax,%edx
    7f5e:	48 8b 85 e8 f3 ff ff 	mov    -0xc18(%rbp),%rax
    7f65:	88 10                	mov    %dl,(%rax)
    7f67:	44 8b a5 08 f3 ff ff 	mov    -0xcf8(%rbp),%r12d
    7f6e:	48 8b 85 c0 f3 ff ff 	mov    -0xc40(%rbp),%rax
    7f75:	8b 00                	mov    (%rax),%eax
    7f77:	85 c0                	test   %eax,%eax
    7f79:	0f 85 94 00 00 00    	jne    8013 <func_11+0x513>
    7f7f:	8b 95 08 f3 ff ff    	mov    -0xcf8(%rbp),%edx
    7f85:	48 8b 8d 20 f4 ff ff 	mov    -0xbe0(%rbp),%rcx
    7f8c:	48 8b 85 f0 f3 ff ff 	mov    -0xc10(%rbp),%rax
    7f93:	48 89 08             	mov    %rcx,(%rax)
    7f96:	48 8b 85 f0 f3 ff ff 	mov    -0xc10(%rbp),%rax
    7f9d:	48 8b 00             	mov    (%rax),%rax
    7fa0:	48 39 85 38 f3 ff ff 	cmp    %rax,-0xcc8(%rbp)
    7fa7:	0f 95 c0             	setne  %al
    7faa:	0f b6 c0             	movzbl %al,%eax
    7fad:	89 d6                	mov    %edx,%esi
    7faf:	89 c7                	mov    %eax,%edi
    7fb1:	e8 d7 ec ff ff       	callq  6c8d <safe_rshift_func_uint8_t_u_s>
    7fb6:	48 8b 95 c8 f3 ff ff 	mov    -0xc38(%rbp),%rdx
    7fbd:	8b 0a                	mov    (%rdx),%ecx
    7fbf:	48 8b 95 f8 f3 ff ff 	mov    -0xc08(%rbp),%rdx
    7fc6:	0f b7 12             	movzwl (%rdx),%edx
    7fc9:	0f b6 c0             	movzbl %al,%eax
    7fcc:	21 c2                	and    %eax,%edx
    7fce:	48 8b 85 f8 f3 ff ff 	mov    -0xc08(%rbp),%rax
    7fd5:	66 89 10             	mov    %dx,(%rax)
    7fd8:	48 8b 85 f8 f3 ff ff 	mov    -0xc08(%rbp),%rax
    7fdf:	0f b7 00             	movzwl (%rax),%eax
    7fe2:	98                   	cwtl   
    7fe3:	09 c8                	or     %ecx,%eax
    7fe5:	83 f8 07             	cmp    $0x7,%eax
    7fe8:	0f 9f c0             	setg   %al
    7feb:	0f b6 c0             	movzbl %al,%eax
    7fee:	48 be 14 5e 7f ea a2 	movabs $0xdc7d84a2ea7f5e14,%rsi
    7ff5:	84 7d dc 
    7ff8:	48 89 c7             	mov    %rax,%rdi
    7ffb:	e8 80 f0 ff ff       	callq  7080 <safe_mod_func_uint64_t_u_u>
    8000:	0f be c0             	movsbl %al,%eax
    8003:	be 02 00 00 00       	mov    $0x2,%esi
    8008:	89 c7                	mov    %eax,%edi
    800a:	e8 c5 e1 ff ff       	callq  61d4 <safe_add_func_int8_t_s_s>
    800f:	84 c0                	test   %al,%al
    8011:	74 07                	je     801a <func_11+0x51a>
    8013:	b8 01 00 00 00       	mov    $0x1,%eax
    8018:	eb 05                	jmp    801f <func_11+0x51f>
    801a:	b8 00 00 00 00       	mov    $0x0,%eax
    801f:	0f be c0             	movsbl %al,%eax
    8022:	44 89 e6             	mov    %r12d,%esi
    8025:	89 c7                	mov    %eax,%edi
    8027:	e8 09 e3 ff ff       	callq  6335 <safe_rshift_func_int8_t_s_s>
    802c:	84 c0                	test   %al,%al
    802e:	74 07                	je     8037 <func_11+0x537>
    8030:	b8 01 00 00 00       	mov    $0x1,%eax
    8035:	eb 05                	jmp    803c <func_11+0x53c>
    8037:	b8 00 00 00 00       	mov    $0x0,%eax
    803c:	89 de                	mov    %ebx,%esi
    803e:	89 c7                	mov    %eax,%edi
    8040:	e8 c0 e5 ff ff       	callq  6605 <safe_sub_func_int32_t_s_s>
    8045:	85 c0                	test   %eax,%eax
    8047:	48 8b 15 5a ce 00 00 	mov    0xce5a(%rip),%rdx        # 14ea8 <g_420>
    804e:	48 8b 05 53 ce 00 00 	mov    0xce53(%rip),%rax        # 14ea8 <g_420>
    8055:	8b 12                	mov    (%rdx),%edx
    8057:	89 10                	mov    %edx,(%rax)
    8059:	8b 85 08 f3 ff ff    	mov    -0xcf8(%rbp),%eax
    805f:	be 01 00 00 00       	mov    $0x1,%esi
    8064:	89 c7                	mov    %eax,%edi
    8066:	e8 4d ee ff ff       	callq  6eb8 <safe_add_func_uint32_t_u_u>
    806b:	89 85 08 f3 ff ff    	mov    %eax,-0xcf8(%rbp)
    8071:	83 bd 08 f3 ff ff 2f 	cmpl   $0x2f,-0xcf8(%rbp)
    8078:	0f 86 55 fd ff ff    	jbe    7dd3 <func_11+0x2d3>
    807e:	8b 85 6c f4 ff ff    	mov    -0xb94(%rbp),%eax
    8084:	83 e8 01             	sub    $0x1,%eax
    8087:	89 85 6c f4 ff ff    	mov    %eax,-0xb94(%rbp)
    808d:	48 8b 15 b4 ce 00 00 	mov    0xceb4(%rip),%rdx        # 14f48 <g_1152>
    8094:	48 8b 05 0d ce 00 00 	mov    0xce0d(%rip),%rax        # 14ea8 <g_420>
    809b:	8b 12                	mov    (%rdx),%edx
    809d:	89 10                	mov    %edx,(%rax)
    809f:	48 8b 05 92 ce 00 00 	mov    0xce92(%rip),%rax        # 14f38 <g_1013>
    80a6:	48 8b 00             	mov    (%rax),%rax
    80a9:	48 8b 00             	mov    (%rax),%rax
    80ac:	0f b6 00             	movzbl (%rax),%eax
    80af:	48 8b 5d e8          	mov    -0x18(%rbp),%rbx
    80b3:	64 48 33 1c 25 28 00 	xor    %fs:0x28,%rbx
    80ba:	00 00 
    80bc:	74 05                	je     80c3 <func_11+0x5c3>
    80be:	e8 ad df ff ff       	callq  6070 <__stack_chk_fail@plt>
    80c3:	48 81 c4 f0 0c 00 00 	add    $0xcf0,%rsp
    80ca:	5b                   	pop    %rbx
    80cb:	41 5c                	pop    %r12
    80cd:	5d                   	pop    %rbp
    80ce:	c3                   	retq   

00000000000080cf <func_27>:
    80cf:	f3 0f 1e fa          	endbr64 
    80d3:	55                   	push   %rbp
    80d4:	48 89 e5             	mov    %rsp,%rbp
    80d7:	48 81 ec 00 10 00 00 	sub    $0x1000,%rsp
    80de:	48 83 0c 24 00       	orq    $0x0,(%rsp)
    80e3:	48 81 ec a0 02 00 00 	sub    $0x2a0,%rsp
    80ea:	89 f8                	mov    %edi,%eax
    80ec:	89 b5 68 ed ff ff    	mov    %esi,-0x1298(%rbp)
    80f2:	89 8d 60 ed ff ff    	mov    %ecx,-0x12a0(%rbp)
    80f8:	66 89 85 6c ed ff ff 	mov    %ax,-0x1294(%rbp)
    80ff:	89 d0                	mov    %edx,%eax
    8101:	88 85 64 ed ff ff    	mov    %al,-0x129c(%rbp)
    8107:	64 48 8b 04 25 28 00 	mov    %fs:0x28,%rax
    810e:	00 00 
    8110:	48 89 45 f8          	mov    %rax,-0x8(%rbp)
    8114:	31 c0                	xor    %eax,%eax
    8116:	c6 85 7a ed ff ff f7 	movb   $0xf7,-0x1286(%rbp)
    811d:	c6 85 80 ed ff ff 0d 	movb   $0xd,-0x1280(%rbp)
    8124:	48 8d 05 61 b2 00 00 	lea    0xb261(%rip),%rax        # 1338c <g_269>
    812b:	48 89 85 a0 ed ff ff 	mov    %rax,-0x1260(%rbp)
    8132:	48 8d 05 89 b2 00 00 	lea    0xb289(%rip),%rax        # 133c2 <g_985>
    8139:	48 89 85 f0 ed ff ff 	mov    %rax,-0x1210(%rbp)
    8140:	48 8d 05 e9 ae 00 00 	lea    0xaee9(%rip),%rax        # 13030 <g_111>
    8147:	48 89 85 f8 ed ff ff 	mov    %rax,-0x1208(%rbp)
    814e:	c7 85 88 ed ff ff 2c 	movl   $0x88461c2c,-0x1278(%rbp)
    8155:	1c 46 88 
    8158:	c7 85 8c ed ff ff 09 	movl   $0x9,-0x1274(%rbp)
    815f:	00 00 00 
    8162:	48 8d 85 a0 ed ff ff 	lea    -0x1260(%rbp),%rax
    8169:	48 89 85 a8 ed ff ff 	mov    %rax,-0x1258(%rbp)
    8170:	48 8d 85 a8 ed ff ff 	lea    -0x1258(%rbp),%rax
    8177:	48 89 85 b0 ed ff ff 	mov    %rax,-0x1250(%rbp)
    817e:	48 8d 85 b0 ed ff ff 	lea    -0x1250(%rbp),%rax
    8185:	48 89 85 b8 ed ff ff 	mov    %rax,-0x1248(%rbp)
    818c:	48 8d 85 b8 ed ff ff 	lea    -0x1248(%rbp),%rax
    8193:	48 89 85 00 ee ff ff 	mov    %rax,-0x1200(%rbp)
    819a:	48 c7 85 70 ee ff ff 	movq   $0x0,-0x1190(%rbp)
    81a1:	00 00 00 00 
    81a5:	48 c7 85 78 ee ff ff 	movq   $0x0,-0x1188(%rbp)
    81ac:	00 00 00 00 
    81b0:	48 8d 85 7a ed ff ff 	lea    -0x1286(%rbp),%rax
    81b7:	48 89 85 80 ee ff ff 	mov    %rax,-0x1180(%rbp)
    81be:	48 8d 85 7a ed ff ff 	lea    -0x1286(%rbp),%rax
    81c5:	48 89 85 88 ee ff ff 	mov    %rax,-0x1178(%rbp)
    81cc:	48 8d 05 51 ae 00 00 	lea    0xae51(%rip),%rax        # 13024 <g_8>
    81d3:	48 89 85 90 ee ff ff 	mov    %rax,-0x1170(%rbp)
    81da:	48 8d 05 d3 b1 00 00 	lea    0xb1d3(%rip),%rax        # 133b4 <g_551>
    81e1:	48 89 85 98 ee ff ff 	mov    %rax,-0x1168(%rbp)
    81e8:	48 8d 05 35 ae 00 00 	lea    0xae35(%rip),%rax        # 13024 <g_8>
    81ef:	48 89 85 a0 ee ff ff 	mov    %rax,-0x1160(%rbp)
    81f6:	48 8d 05 27 ae 00 00 	lea    0xae27(%rip),%rax        # 13024 <g_8>
    81fd:	48 89 85 a8 ee ff ff 	mov    %rax,-0x1158(%rbp)
    8204:	48 8d 85 7a ed ff ff 	lea    -0x1286(%rbp),%rax
    820b:	48 89 85 b0 ee ff ff 	mov    %rax,-0x1150(%rbp)
    8212:	48 8d 05 0b ae 00 00 	lea    0xae0b(%rip),%rax        # 13024 <g_8>
    8219:	48 89 85 b8 ee ff ff 	mov    %rax,-0x1148(%rbp)
    8220:	48 8d 05 fd ad 00 00 	lea    0xadfd(%rip),%rax        # 13024 <g_8>
    8227:	48 89 85 c0 ee ff ff 	mov    %rax,-0x1140(%rbp)
    822e:	48 8d 05 ef ad 00 00 	lea    0xadef(%rip),%rax        # 13024 <g_8>
    8235:	48 89 85 c8 ee ff ff 	mov    %rax,-0x1138(%rbp)
    823c:	48 8d 85 7a ed ff ff 	lea    -0x1286(%rbp),%rax
    8243:	48 89 85 d0 ee ff ff 	mov    %rax,-0x1130(%rbp)
    824a:	48 8d 05 d3 ad 00 00 	lea    0xadd3(%rip),%rax        # 13024 <g_8>
    8251:	48 89 85 d8 ee ff ff 	mov    %rax,-0x1128(%rbp)
    8258:	48 8d 05 c5 ad 00 00 	lea    0xadc5(%rip),%rax        # 13024 <g_8>
    825f:	48 89 85 e0 ee ff ff 	mov    %rax,-0x1120(%rbp)
    8266:	48 8d 05 47 b1 00 00 	lea    0xb147(%rip),%rax        # 133b4 <g_551>
    826d:	48 89 85 e8 ee ff ff 	mov    %rax,-0x1118(%rbp)
    8274:	48 8d 05 a9 ad 00 00 	lea    0xada9(%rip),%rax        # 13024 <g_8>
    827b:	48 89 85 f0 ee ff ff 	mov    %rax,-0x1110(%rbp)
    8282:	48 8d 85 7a ed ff ff 	lea    -0x1286(%rbp),%rax
    8289:	48 89 85 f8 ee ff ff 	mov    %rax,-0x1108(%rbp)
    8290:	48 8d 85 7a ed ff ff 	lea    -0x1286(%rbp),%rax
    8297:	48 89 85 00 ef ff ff 	mov    %rax,-0x1100(%rbp)
    829e:	48 c7 85 08 ef ff ff 	movq   $0x0,-0x10f8(%rbp)
    82a5:	00 00 00 00 
    82a9:	48 c7 85 10 ef ff ff 	movq   $0x0,-0x10f0(%rbp)
    82b0:	00 00 00 00 
    82b4:	48 8d 05 69 ad 00 00 	lea    0xad69(%rip),%rax        # 13024 <g_8>
    82bb:	48 89 85 18 ef ff ff 	mov    %rax,-0x10e8(%rbp)
    82c2:	48 8d 05 5b ad 00 00 	lea    0xad5b(%rip),%rax        # 13024 <g_8>
    82c9:	48 89 85 20 ef ff ff 	mov    %rax,-0x10e0(%rbp)
    82d0:	48 c7 85 28 ef ff ff 	movq   $0x0,-0x10d8(%rbp)
    82d7:	00 00 00 00 
    82db:	48 c7 85 30 ef ff ff 	movq   $0x0,-0x10d0(%rbp)
    82e2:	00 00 00 00 
    82e6:	48 8d 05 37 ad 00 00 	lea    0xad37(%rip),%rax        # 13024 <g_8>
    82ed:	48 89 85 38 ef ff ff 	mov    %rax,-0x10c8(%rbp)
    82f4:	48 8d 05 29 ad 00 00 	lea    0xad29(%rip),%rax        # 13024 <g_8>
    82fb:	48 89 85 40 ef ff ff 	mov    %rax,-0x10c0(%rbp)
    8302:	48 8d 85 7a ed ff ff 	lea    -0x1286(%rbp),%rax
    8309:	48 89 85 48 ef ff ff 	mov    %rax,-0x10b8(%rbp)
    8310:	48 c7 85 50 ef ff ff 	movq   $0x0,-0x10b0(%rbp)
    8317:	00 00 00 00 
    831b:	48 c7 85 58 ef ff ff 	movq   $0x0,-0x10a8(%rbp)
    8322:	00 00 00 00 
    8326:	48 8d 05 f7 ac 00 00 	lea    0xacf7(%rip),%rax        # 13024 <g_8>
    832d:	48 89 85 60 ef ff ff 	mov    %rax,-0x10a0(%rbp)
    8334:	48 8d 05 e9 ac 00 00 	lea    0xace9(%rip),%rax        # 13024 <g_8>
    833b:	48 89 85 68 ef ff ff 	mov    %rax,-0x1098(%rbp)
    8342:	48 c7 85 70 ef ff ff 	movq   $0x0,-0x1090(%rbp)
    8349:	00 00 00 00 
    834d:	48 8d 85 7a ed ff ff 	lea    -0x1286(%rbp),%rax
    8354:	48 89 85 78 ef ff ff 	mov    %rax,-0x1088(%rbp)
    835b:	48 8d 85 7a ed ff ff 	lea    -0x1286(%rbp),%rax
    8362:	48 89 85 80 ef ff ff 	mov    %rax,-0x1080(%rbp)
    8369:	48 c7 85 88 ef ff ff 	movq   $0x0,-0x1078(%rbp)
    8370:	00 00 00 00 
    8374:	48 8d 85 7a ed ff ff 	lea    -0x1286(%rbp),%rax
    837b:	48 89 85 90 ef ff ff 	mov    %rax,-0x1070(%rbp)
    8382:	48 8d 05 2b b0 00 00 	lea    0xb02b(%rip),%rax        # 133b4 <g_551>
    8389:	48 89 85 98 ef ff ff 	mov    %rax,-0x1068(%rbp)
    8390:	48 8d 85 7a ed ff ff 	lea    -0x1286(%rbp),%rax
    8397:	48 89 85 a0 ef ff ff 	mov    %rax,-0x1060(%rbp)
    839e:	48 c7 85 a8 ef ff ff 	movq   $0x0,-0x1058(%rbp)
    83a5:	00 00 00 00 
    83a9:	48 8d 05 04 b0 00 00 	lea    0xb004(%rip),%rax        # 133b4 <g_551>
    83b0:	48 89 85 b0 ef ff ff 	mov    %rax,-0x1050(%rbp)
    83b7:	48 8d 85 7a ed ff ff 	lea    -0x1286(%rbp),%rax
    83be:	48 89 85 b8 ef ff ff 	mov    %rax,-0x1048(%rbp)
    83c5:	48 8d 85 7a ed ff ff 	lea    -0x1286(%rbp),%rax
    83cc:	48 89 85 c0 ef ff ff 	mov    %rax,-0x1040(%rbp)
    83d3:	48 c7 85 c8 ef ff ff 	movq   $0x0,-0x1038(%rbp)
    83da:	00 00 00 00 
    83de:	48 8d 85 7a ed ff ff 	lea    -0x1286(%rbp),%rax
    83e5:	48 89 85 d0 ef ff ff 	mov    %rax,-0x1030(%rbp)
    83ec:	48 c7 85 d8 ef ff ff 	movq   $0x0,-0x1028(%rbp)
    83f3:	00 00 00 00 
    83f7:	48 c7 85 e0 ef ff ff 	movq   $0x0,-0x1020(%rbp)
    83fe:	00 00 00 00 
    8402:	48 8d 05 1b ac 00 00 	lea    0xac1b(%rip),%rax        # 13024 <g_8>
    8409:	48 89 85 e8 ef ff ff 	mov    %rax,-0x1018(%rbp)
    8410:	48 c7 85 f0 ef ff ff 	movq   $0x0,-0x1010(%rbp)
    8417:	00 00 00 00 
    841b:	48 8d 05 02 ac 00 00 	lea    0xac02(%rip),%rax        # 13024 <g_8>
    8422:	48 89 85 f8 ef ff ff 	mov    %rax,-0x1008(%rbp)
    8429:	48 8d 85 7a ed ff ff 	lea    -0x1286(%rbp),%rax
    8430:	48 89 85 00 f0 ff ff 	mov    %rax,-0x1000(%rbp)
    8437:	48 8d 85 7a ed ff ff 	lea    -0x1286(%rbp),%rax
    843e:	48 89 85 08 f0 ff ff 	mov    %rax,-0xff8(%rbp)
    8445:	48 8d 05 d8 ab 00 00 	lea    0xabd8(%rip),%rax        # 13024 <g_8>
    844c:	48 89 85 10 f0 ff ff 	mov    %rax,-0xff0(%rbp)
    8453:	48 8d 85 7a ed ff ff 	lea    -0x1286(%rbp),%rax
    845a:	48 89 85 18 f0 ff ff 	mov    %rax,-0xfe8(%rbp)
    8461:	48 8d 05 4c af 00 00 	lea    0xaf4c(%rip),%rax        # 133b4 <g_551>
    8468:	48 89 85 20 f0 ff ff 	mov    %rax,-0xfe0(%rbp)
    846f:	48 8d 05 3e af 00 00 	lea    0xaf3e(%rip),%rax        # 133b4 <g_551>
    8476:	48 89 85 28 f0 ff ff 	mov    %rax,-0xfd8(%rbp)
    847d:	48 8d 85 7a ed ff ff 	lea    -0x1286(%rbp),%rax
    8484:	48 89 85 30 f0 ff ff 	mov    %rax,-0xfd0(%rbp)
    848b:	48 c7 85 38 f0 ff ff 	movq   $0x0,-0xfc8(%rbp)
    8492:	00 00 00 00 
    8496:	48 c7 85 40 f0 ff ff 	movq   $0x0,-0xfc0(%rbp)
    849d:	00 00 00 00 
    84a1:	48 8d 85 7a ed ff ff 	lea    -0x1286(%rbp),%rax
    84a8:	48 89 85 48 f0 ff ff 	mov    %rax,-0xfb8(%rbp)
    84af:	48 8d 05 6e ab 00 00 	lea    0xab6e(%rip),%rax        # 13024 <g_8>
    84b6:	48 89 85 50 f0 ff ff 	mov    %rax,-0xfb0(%rbp)
    84bd:	48 8d 05 60 ab 00 00 	lea    0xab60(%rip),%rax        # 13024 <g_8>
    84c4:	48 89 85 58 f0 ff ff 	mov    %rax,-0xfa8(%rbp)
    84cb:	48 8d 85 7a ed ff ff 	lea    -0x1286(%rbp),%rax
    84d2:	48 89 85 60 f0 ff ff 	mov    %rax,-0xfa0(%rbp)
    84d9:	48 c7 85 68 f0 ff ff 	movq   $0x0,-0xf98(%rbp)
    84e0:	00 00 00 00 
    84e4:	48 8d 85 7a ed ff ff 	lea    -0x1286(%rbp),%rax
    84eb:	48 89 85 70 f0 ff ff 	mov    %rax,-0xf90(%rbp)
    84f2:	48 c7 85 78 f0 ff ff 	movq   $0x0,-0xf88(%rbp)
    84f9:	00 00 00 00 
    84fd:	48 8d 05 b0 ae 00 00 	lea    0xaeb0(%rip),%rax        # 133b4 <g_551>
    8504:	48 89 85 80 f0 ff ff 	mov    %rax,-0xf80(%rbp)
    850b:	48 8d 05 a2 ae 00 00 	lea    0xaea2(%rip),%rax        # 133b4 <g_551>
    8512:	48 89 85 88 f0 ff ff 	mov    %rax,-0xf78(%rbp)
    8519:	48 8d 05 04 ab 00 00 	lea    0xab04(%rip),%rax        # 13024 <g_8>
    8520:	48 89 85 90 f0 ff ff 	mov    %rax,-0xf70(%rbp)
    8527:	48 8d 05 86 ae 00 00 	lea    0xae86(%rip),%rax        # 133b4 <g_551>
    852e:	48 89 85 98 f0 ff ff 	mov    %rax,-0xf68(%rbp)
    8535:	48 8d 05 e8 aa 00 00 	lea    0xaae8(%rip),%rax        # 13024 <g_8>
    853c:	48 89 85 a0 f0 ff ff 	mov    %rax,-0xf60(%rbp)
    8543:	48 8d 05 da aa 00 00 	lea    0xaada(%rip),%rax        # 13024 <g_8>
    854a:	48 89 85 a8 f0 ff ff 	mov    %rax,-0xf58(%rbp)
    8551:	48 c7 85 b0 f0 ff ff 	movq   $0x0,-0xf50(%rbp)
    8558:	00 00 00 00 
    855c:	48 c7 85 b8 f0 ff ff 	movq   $0x0,-0xf48(%rbp)
    8563:	00 00 00 00 
    8567:	48 8d 05 b6 aa 00 00 	lea    0xaab6(%rip),%rax        # 13024 <g_8>
    856e:	48 89 85 c0 f0 ff ff 	mov    %rax,-0xf40(%rbp)
    8575:	48 c7 85 c8 f0 ff ff 	movq   $0x0,-0xf38(%rbp)
    857c:	00 00 00 00 
    8580:	48 c7 85 d0 f0 ff ff 	movq   $0x0,-0xf30(%rbp)
    8587:	00 00 00 00 
    858b:	48 8d 05 22 ae 00 00 	lea    0xae22(%rip),%rax        # 133b4 <g_551>
    8592:	48 89 85 d8 f0 ff ff 	mov    %rax,-0xf28(%rbp)
    8599:	48 8d 05 14 ae 00 00 	lea    0xae14(%rip),%rax        # 133b4 <g_551>
    85a0:	48 89 85 e0 f0 ff ff 	mov    %rax,-0xf20(%rbp)
    85a7:	48 8d 85 7a ed ff ff 	lea    -0x1286(%rbp),%rax
    85ae:	48 89 85 e8 f0 ff ff 	mov    %rax,-0xf18(%rbp)
    85b5:	48 8d 05 68 aa 00 00 	lea    0xaa68(%rip),%rax        # 13024 <g_8>
    85bc:	48 89 85 f0 f0 ff ff 	mov    %rax,-0xf10(%rbp)
    85c3:	48 8d 05 5a aa 00 00 	lea    0xaa5a(%rip),%rax        # 13024 <g_8>
    85ca:	48 89 85 f8 f0 ff ff 	mov    %rax,-0xf08(%rbp)
    85d1:	48 8d 05 4c aa 00 00 	lea    0xaa4c(%rip),%rax        # 13024 <g_8>
    85d8:	48 89 85 00 f1 ff ff 	mov    %rax,-0xf00(%rbp)
    85df:	48 8d 85 7a ed ff ff 	lea    -0x1286(%rbp),%rax
    85e6:	48 89 85 08 f1 ff ff 	mov    %rax,-0xef8(%rbp)
    85ed:	48 8d 05 c0 ad 00 00 	lea    0xadc0(%rip),%rax        # 133b4 <g_551>
    85f4:	48 89 85 10 f1 ff ff 	mov    %rax,-0xef0(%rbp)
    85fb:	48 8d 85 7a ed ff ff 	lea    -0x1286(%rbp),%rax
    8602:	48 89 85 18 f1 ff ff 	mov    %rax,-0xee8(%rbp)
    8609:	48 8d 05 14 aa 00 00 	lea    0xaa14(%rip),%rax        # 13024 <g_8>
    8610:	48 89 85 20 f1 ff ff 	mov    %rax,-0xee0(%rbp)
    8617:	48 c7 85 28 f1 ff ff 	movq   $0x0,-0xed8(%rbp)
    861e:	00 00 00 00 
    8622:	48 c7 85 30 f1 ff ff 	movq   $0x0,-0xed0(%rbp)
    8629:	00 00 00 00 
    862d:	48 8d 05 f0 a9 00 00 	lea    0xa9f0(%rip),%rax        # 13024 <g_8>
    8634:	48 89 85 38 f1 ff ff 	mov    %rax,-0xec8(%rbp)
    863b:	48 8d 85 7a ed ff ff 	lea    -0x1286(%rbp),%rax
    8642:	48 89 85 40 f1 ff ff 	mov    %rax,-0xec0(%rbp)
    8649:	48 8d 85 7a ed ff ff 	lea    -0x1286(%rbp),%rax
    8650:	48 89 85 48 f1 ff ff 	mov    %rax,-0xeb8(%rbp)
    8657:	48 8d 05 56 ad 00 00 	lea    0xad56(%rip),%rax        # 133b4 <g_551>
    865e:	48 89 85 50 f1 ff ff 	mov    %rax,-0xeb0(%rbp)
    8665:	48 8d 05 48 ad 00 00 	lea    0xad48(%rip),%rax        # 133b4 <g_551>
    866c:	48 89 85 58 f1 ff ff 	mov    %rax,-0xea8(%rbp)
    8673:	48 c7 85 60 f1 ff ff 	movq   $0x0,-0xea0(%rbp)
    867a:	00 00 00 00 
    867e:	48 8d 05 9f a9 00 00 	lea    0xa99f(%rip),%rax        # 13024 <g_8>
    8685:	48 89 85 68 f1 ff ff 	mov    %rax,-0xe98(%rbp)
    868c:	48 8d 05 21 ad 00 00 	lea    0xad21(%rip),%rax        # 133b4 <g_551>
    8693:	48 89 85 70 f1 ff ff 	mov    %rax,-0xe90(%rbp)
    869a:	48 8d 05 83 a9 00 00 	lea    0xa983(%rip),%rax        # 13024 <g_8>
    86a1:	48 89 85 78 f1 ff ff 	mov    %rax,-0xe88(%rbp)
    86a8:	48 8d 05 75 a9 00 00 	lea    0xa975(%rip),%rax        # 13024 <g_8>
    86af:	48 89 85 80 f1 ff ff 	mov    %rax,-0xe80(%rbp)
    86b6:	48 8d 05 67 a9 00 00 	lea    0xa967(%rip),%rax        # 13024 <g_8>
    86bd:	48 89 85 88 f1 ff ff 	mov    %rax,-0xe78(%rbp)
    86c4:	48 8d 05 59 a9 00 00 	lea    0xa959(%rip),%rax        # 13024 <g_8>
    86cb:	48 89 85 90 f1 ff ff 	mov    %rax,-0xe70(%rbp)
    86d2:	48 8d 85 7a ed ff ff 	lea    -0x1286(%rbp),%rax
    86d9:	48 89 85 98 f1 ff ff 	mov    %rax,-0xe68(%rbp)
    86e0:	48 8d 05 3d a9 00 00 	lea    0xa93d(%rip),%rax        # 13024 <g_8>
    86e7:	48 89 85 a0 f1 ff ff 	mov    %rax,-0xe60(%rbp)
    86ee:	48 8d 05 2f a9 00 00 	lea    0xa92f(%rip),%rax        # 13024 <g_8>
    86f5:	48 89 85 a8 f1 ff ff 	mov    %rax,-0xe58(%rbp)
    86fc:	48 8d 05 21 a9 00 00 	lea    0xa921(%rip),%rax        # 13024 <g_8>
    8703:	48 89 85 b0 f1 ff ff 	mov    %rax,-0xe50(%rbp)
    870a:	48 8d 05 13 a9 00 00 	lea    0xa913(%rip),%rax        # 13024 <g_8>
    8711:	48 89 85 b8 f1 ff ff 	mov    %rax,-0xe48(%rbp)
    8718:	48 8d 05 95 ac 00 00 	lea    0xac95(%rip),%rax        # 133b4 <g_551>
    871f:	48 89 85 c0 f1 ff ff 	mov    %rax,-0xe40(%rbp)
    8726:	48 8d 05 f7 a8 00 00 	lea    0xa8f7(%rip),%rax        # 13024 <g_8>
    872d:	48 89 85 c8 f1 ff ff 	mov    %rax,-0xe38(%rbp)
    8734:	48 c7 85 d0 f1 ff ff 	movq   $0x0,-0xe30(%rbp)
    873b:	00 00 00 00 
    873f:	48 8d 05 6e ac 00 00 	lea    0xac6e(%rip),%rax        # 133b4 <g_551>
    8746:	48 89 85 d8 f1 ff ff 	mov    %rax,-0xe28(%rbp)
    874d:	48 8d 05 60 ac 00 00 	lea    0xac60(%rip),%rax        # 133b4 <g_551>
    8754:	48 89 85 e0 f1 ff ff 	mov    %rax,-0xe20(%rbp)
    875b:	48 8d 85 7a ed ff ff 	lea    -0x1286(%rbp),%rax
    8762:	48 89 85 e8 f1 ff ff 	mov    %rax,-0xe18(%rbp)
    8769:	48 8d 85 7a ed ff ff 	lea    -0x1286(%rbp),%rax
    8770:	48 89 85 f0 f1 ff ff 	mov    %rax,-0xe10(%rbp)
    8777:	48 8d 05 a6 a8 00 00 	lea    0xa8a6(%rip),%rax        # 13024 <g_8>
    877e:	48 89 85 f8 f1 ff ff 	mov    %rax,-0xe08(%rbp)
    8785:	48 c7 85 00 f2 ff ff 	movq   $0x0,-0xe00(%rbp)
    878c:	00 00 00 00 
    8790:	48 c7 85 08 f2 ff ff 	movq   $0x0,-0xdf8(%rbp)
    8797:	00 00 00 00 
    879b:	48 8d 05 82 a8 00 00 	lea    0xa882(%rip),%rax        # 13024 <g_8>
    87a2:	48 89 85 10 f2 ff ff 	mov    %rax,-0xdf0(%rbp)
    87a9:	48 8d 85 7a ed ff ff 	lea    -0x1286(%rbp),%rax
    87b0:	48 89 85 18 f2 ff ff 	mov    %rax,-0xde8(%rbp)
    87b7:	48 8d 05 f6 ab 00 00 	lea    0xabf6(%rip),%rax        # 133b4 <g_551>
    87be:	48 89 85 20 f2 ff ff 	mov    %rax,-0xde0(%rbp)
    87c5:	48 8d 85 7a ed ff ff 	lea    -0x1286(%rbp),%rax
    87cc:	48 89 85 28 f2 ff ff 	mov    %rax,-0xdd8(%rbp)
    87d3:	48 8d 05 4a a8 00 00 	lea    0xa84a(%rip),%rax        # 13024 <g_8>
    87da:	48 89 85 30 f2 ff ff 	mov    %rax,-0xdd0(%rbp)
    87e1:	48 8d 05 3c a8 00 00 	lea    0xa83c(%rip),%rax        # 13024 <g_8>
    87e8:	48 89 85 38 f2 ff ff 	mov    %rax,-0xdc8(%rbp)
    87ef:	48 8d 05 2e a8 00 00 	lea    0xa82e(%rip),%rax        # 13024 <g_8>
    87f6:	48 89 85 40 f2 ff ff 	mov    %rax,-0xdc0(%rbp)
    87fd:	48 8d 85 7a ed ff ff 	lea    -0x1286(%rbp),%rax
    8804:	48 89 85 48 f2 ff ff 	mov    %rax,-0xdb8(%rbp)
    880b:	48 8d 05 a2 ab 00 00 	lea    0xaba2(%rip),%rax        # 133b4 <g_551>
    8812:	48 89 85 50 f2 ff ff 	mov    %rax,-0xdb0(%rbp)
    8819:	48 8d 05 94 ab 00 00 	lea    0xab94(%rip),%rax        # 133b4 <g_551>
    8820:	48 89 85 58 f2 ff ff 	mov    %rax,-0xda8(%rbp)
    8827:	48 c7 85 60 f2 ff ff 	movq   $0x0,-0xda0(%rbp)
    882e:	00 00 00 00 
    8832:	48 c7 85 68 f2 ff ff 	movq   $0x0,-0xd98(%rbp)
    8839:	00 00 00 00 
    883d:	48 8d 05 e0 a7 00 00 	lea    0xa7e0(%rip),%rax        # 13024 <g_8>
    8844:	48 89 85 70 f2 ff ff 	mov    %rax,-0xd90(%rbp)
    884b:	48 c7 85 78 f2 ff ff 	movq   $0x0,-0xd88(%rbp)
    8852:	00 00 00 00 
    8856:	48 c7 85 80 f2 ff ff 	movq   $0x0,-0xd80(%rbp)
    885d:	00 00 00 00 
    8861:	48 8d 05 bc a7 00 00 	lea    0xa7bc(%rip),%rax        # 13024 <g_8>
    8868:	48 89 85 88 f2 ff ff 	mov    %rax,-0xd78(%rbp)
    886f:	48 8d 05 ae a7 00 00 	lea    0xa7ae(%rip),%rax        # 13024 <g_8>
    8876:	48 89 85 90 f2 ff ff 	mov    %rax,-0xd70(%rbp)
    887d:	48 8d 05 30 ab 00 00 	lea    0xab30(%rip),%rax        # 133b4 <g_551>
    8884:	48 89 85 98 f2 ff ff 	mov    %rax,-0xd68(%rbp)
    888b:	48 8d 05 92 a7 00 00 	lea    0xa792(%rip),%rax        # 13024 <g_8>
    8892:	48 89 85 a0 f2 ff ff 	mov    %rax,-0xd60(%rbp)
    8899:	48 8d 05 14 ab 00 00 	lea    0xab14(%rip),%rax        # 133b4 <g_551>
    88a0:	48 89 85 a8 f2 ff ff 	mov    %rax,-0xd58(%rbp)
    88a7:	48 8d 05 06 ab 00 00 	lea    0xab06(%rip),%rax        # 133b4 <g_551>
    88ae:	48 89 85 b0 f2 ff ff 	mov    %rax,-0xd50(%rbp)
    88b5:	48 c7 85 b8 f2 ff ff 	movq   $0x0,-0xd48(%rbp)
    88bc:	00 00 00 00 
    88c0:	48 8d 85 7a ed ff ff 	lea    -0x1286(%rbp),%rax
    88c7:	48 89 85 c0 f2 ff ff 	mov    %rax,-0xd40(%rbp)
    88ce:	48 c7 85 c8 f2 ff ff 	movq   $0x0,-0xd38(%rbp)
    88d5:	00 00 00 00 
    88d9:	48 8d 85 7a ed ff ff 	lea    -0x1286(%rbp),%rax
    88e0:	48 89 85 d0 f2 ff ff 	mov    %rax,-0xd30(%rbp)
    88e7:	48 8d 05 36 a7 00 00 	lea    0xa736(%rip),%rax        # 13024 <g_8>
    88ee:	48 89 85 d8 f2 ff ff 	mov    %rax,-0xd28(%rbp)
    88f5:	48 8d 05 28 a7 00 00 	lea    0xa728(%rip),%rax        # 13024 <g_8>
    88fc:	48 89 85 e0 f2 ff ff 	mov    %rax,-0xd20(%rbp)
    8903:	48 8d 85 7a ed ff ff 	lea    -0x1286(%rbp),%rax
    890a:	48 89 85 e8 f2 ff ff 	mov    %rax,-0xd18(%rbp)
    8911:	48 c7 85 f0 f2 ff ff 	movq   $0x0,-0xd10(%rbp)
    8918:	00 00 00 00 
    891c:	48 c7 85 f8 f2 ff ff 	movq   $0x0,-0xd08(%rbp)
    8923:	00 00 00 00 
    8927:	48 8d 85 7a ed ff ff 	lea    -0x1286(%rbp),%rax
    892e:	48 89 85 00 f3 ff ff 	mov    %rax,-0xd00(%rbp)
    8935:	48 8d 85 70 ee ff ff 	lea    -0x1190(%rbp),%rax
    893c:	48 05 30 01 00 00    	add    $0x130,%rax
    8942:	48 89 85 08 ee ff ff 	mov    %rax,-0x11f8(%rbp)
    8949:	c6 85 7b ed ff ff 02 	movb   $0x2,-0x1285(%rbp)
    8950:	48 8d 05 2d aa 00 00 	lea    0xaa2d(%rip),%rax        # 13384 <g_230+0x14>
    8957:	48 89 85 10 ee ff ff 	mov    %rax,-0x11f0(%rbp)
    895e:	c7 05 c4 a6 00 00 e4 	movl   $0xffffffe4,0xa6c4(%rip)        # 1302c <g_88>
    8965:	ff ff ff 
    8968:	e9 2e 0e 00 00       	jmpq   979b <func_27+0x16cc>
    896d:	48 8d 05 4c c5 00 00 	lea    0xc54c(%rip),%rax        # 14ec0 <g_477>
    8974:	48 89 85 18 ee ff ff 	mov    %rax,-0x11e8(%rbp)
    897b:	c7 85 90 ed ff ff e5 	movl   $0x3e46b5e5,-0x1270(%rbp)
    8982:	b5 46 3e 
    8985:	c7 85 94 ed ff ff f6 	movl   $0xfffffff6,-0x126c(%rbp)
    898c:	ff ff ff 
    898f:	c6 85 7c ed ff ff ff 	movb   $0xff,-0x1284(%rbp)
    8996:	c6 85 84 ed ff ff 07 	movb   $0x7,-0x127c(%rbp)
    899d:	48 b8 cd 69 2d ef a3 	movabs $0xace762a3ef2d69cd,%rax
    89a4:	62 e7 ac 
    89a7:	48 89 85 20 ee ff ff 	mov    %rax,-0x11e0(%rbp)
    89ae:	48 8d 85 10 f3 ff ff 	lea    -0xcf0(%rbp),%rax
    89b5:	48 8d 15 64 ae 00 00 	lea    0xae64(%rip),%rdx        # 13820 <g_1526+0x430>
    89bc:	b9 a8 00 00 00       	mov    $0xa8,%ecx
    89c1:	48 89 c7             	mov    %rax,%rdi
    89c4:	48 89 d6             	mov    %rdx,%rsi
    89c7:	f3 48 a5             	rep movsq %ds:(%rsi),%es:(%rdi)
    89ca:	48 8d 05 53 a6 00 00 	lea    0xa653(%rip),%rax        # 13024 <g_8>
    89d1:	48 89 85 c0 ed ff ff 	mov    %rax,-0x1240(%rbp)
    89d8:	48 8d 85 c0 ed ff ff 	lea    -0x1240(%rbp),%rax
    89df:	48 89 85 c8 ed ff ff 	mov    %rax,-0x1238(%rbp)
    89e6:	48 8d 85 c8 ed ff ff 	lea    -0x1238(%rbp),%rax
    89ed:	48 89 85 d0 ed ff ff 	mov    %rax,-0x1230(%rbp)
    89f4:	48 8d 85 d0 ed ff ff 	lea    -0x1230(%rbp),%rax
    89fb:	48 89 85 d8 ed ff ff 	mov    %rax,-0x1228(%rbp)
    8a02:	48 8d 85 d8 ed ff ff 	lea    -0x1228(%rbp),%rax
    8a09:	48 89 85 28 ee ff ff 	mov    %rax,-0x11d8(%rbp)
    8a10:	c7 85 98 ed ff ff 4d 	movl   $0xec07d4d,-0x1268(%rbp)
    8a17:	7d c0 0e 
    8a1a:	48 c7 85 50 ee ff ff 	movq   $0x0,-0x11b0(%rbp)
    8a21:	00 00 00 00 
    8a25:	48 b8 c6 39 5d 27 a1 	movabs $0xa51141a1275d39c6,%rax
    8a2c:	41 11 a5 
    8a2f:	48 89 85 58 ee ff ff 	mov    %rax,-0x11a8(%rbp)
    8a36:	48 c7 85 60 ee ff ff 	movq   $0x0,-0x11a0(%rbp)
    8a3d:	00 00 00 00 
    8a41:	48 89 85 68 ee ff ff 	mov    %rax,-0x1198(%rbp)
    8a48:	48 c7 85 e0 ed ff ff 	movq   $0x0,-0x1220(%rbp)
    8a4f:	00 00 00 00 
    8a53:	48 8d 85 e0 ed ff ff 	lea    -0x1220(%rbp),%rax
    8a5a:	48 89 85 50 f8 ff ff 	mov    %rax,-0x7b0(%rbp)
    8a61:	48 8d 85 e0 ed ff ff 	lea    -0x1220(%rbp),%rax
    8a68:	48 89 85 58 f8 ff ff 	mov    %rax,-0x7a8(%rbp)
    8a6f:	48 8d 85 e0 ed ff ff 	lea    -0x1220(%rbp),%rax
    8a76:	48 89 85 60 f8 ff ff 	mov    %rax,-0x7a0(%rbp)
    8a7d:	48 8d 85 e0 ed ff ff 	lea    -0x1220(%rbp),%rax
    8a84:	48 89 85 68 f8 ff ff 	mov    %rax,-0x798(%rbp)
    8a8b:	48 c7 85 70 f8 ff ff 	movq   $0x0,-0x790(%rbp)
    8a92:	00 00 00 00 
    8a96:	48 8d 85 e0 ed ff ff 	lea    -0x1220(%rbp),%rax
    8a9d:	48 89 85 78 f8 ff ff 	mov    %rax,-0x788(%rbp)
    8aa4:	48 8d 85 e0 ed ff ff 	lea    -0x1220(%rbp),%rax
    8aab:	48 89 85 80 f8 ff ff 	mov    %rax,-0x780(%rbp)
    8ab2:	48 8d 85 e0 ed ff ff 	lea    -0x1220(%rbp),%rax
    8ab9:	48 89 85 88 f8 ff ff 	mov    %rax,-0x778(%rbp)
    8ac0:	48 8d 85 e0 ed ff ff 	lea    -0x1220(%rbp),%rax
    8ac7:	48 89 85 90 f8 ff ff 	mov    %rax,-0x770(%rbp)
    8ace:	48 8d 85 e0 ed ff ff 	lea    -0x1220(%rbp),%rax
    8ad5:	48 89 85 98 f8 ff ff 	mov    %rax,-0x768(%rbp)
    8adc:	48 c7 85 a0 f8 ff ff 	movq   $0x0,-0x760(%rbp)
    8ae3:	00 00 00 00 
    8ae7:	48 8d 85 e0 ed ff ff 	lea    -0x1220(%rbp),%rax
    8aee:	48 89 85 a8 f8 ff ff 	mov    %rax,-0x758(%rbp)
    8af5:	48 c7 85 b0 f8 ff ff 	movq   $0x0,-0x750(%rbp)
    8afc:	00 00 00 00 
    8b00:	48 8d 85 e0 ed ff ff 	lea    -0x1220(%rbp),%rax
    8b07:	48 89 85 b8 f8 ff ff 	mov    %rax,-0x748(%rbp)
    8b0e:	48 8d 85 e0 ed ff ff 	lea    -0x1220(%rbp),%rax
    8b15:	48 89 85 c0 f8 ff ff 	mov    %rax,-0x740(%rbp)
    8b1c:	48 8d 85 e0 ed ff ff 	lea    -0x1220(%rbp),%rax
    8b23:	48 89 85 c8 f8 ff ff 	mov    %rax,-0x738(%rbp)
    8b2a:	48 8d 85 e0 ed ff ff 	lea    -0x1220(%rbp),%rax
    8b31:	48 89 85 d0 f8 ff ff 	mov    %rax,-0x730(%rbp)
    8b38:	48 c7 85 d8 f8 ff ff 	movq   $0x0,-0x728(%rbp)
    8b3f:	00 00 00 00 
    8b43:	48 c7 85 e0 f8 ff ff 	movq   $0x0,-0x720(%rbp)
    8b4a:	00 00 00 00 
    8b4e:	48 8d 85 e0 ed ff ff 	lea    -0x1220(%rbp),%rax
    8b55:	48 89 85 e8 f8 ff ff 	mov    %rax,-0x718(%rbp)
    8b5c:	48 8d 85 e0 ed ff ff 	lea    -0x1220(%rbp),%rax
    8b63:	48 89 85 f0 f8 ff ff 	mov    %rax,-0x710(%rbp)
    8b6a:	48 8d 85 e0 ed ff ff 	lea    -0x1220(%rbp),%rax
    8b71:	48 89 85 f8 f8 ff ff 	mov    %rax,-0x708(%rbp)
    8b78:	48 8d 85 e0 ed ff ff 	lea    -0x1220(%rbp),%rax
    8b7f:	48 89 85 00 f9 ff ff 	mov    %rax,-0x700(%rbp)
    8b86:	48 c7 85 08 f9 ff ff 	movq   $0x0,-0x6f8(%rbp)
    8b8d:	00 00 00 00 
    8b91:	48 8d 85 e0 ed ff ff 	lea    -0x1220(%rbp),%rax
    8b98:	48 89 85 10 f9 ff ff 	mov    %rax,-0x6f0(%rbp)
    8b9f:	48 8d 85 e0 ed ff ff 	lea    -0x1220(%rbp),%rax
    8ba6:	48 89 85 18 f9 ff ff 	mov    %rax,-0x6e8(%rbp)
    8bad:	48 8d 85 e0 ed ff ff 	lea    -0x1220(%rbp),%rax
    8bb4:	48 89 85 20 f9 ff ff 	mov    %rax,-0x6e0(%rbp)
    8bbb:	48 8d 85 e0 ed ff ff 	lea    -0x1220(%rbp),%rax
    8bc2:	48 89 85 28 f9 ff ff 	mov    %rax,-0x6d8(%rbp)
    8bc9:	48 8d 85 e0 ed ff ff 	lea    -0x1220(%rbp),%rax
    8bd0:	48 89 85 30 f9 ff ff 	mov    %rax,-0x6d0(%rbp)
    8bd7:	48 8d 85 e0 ed ff ff 	lea    -0x1220(%rbp),%rax
    8bde:	48 89 85 38 f9 ff ff 	mov    %rax,-0x6c8(%rbp)
    8be5:	48 8d 85 e0 ed ff ff 	lea    -0x1220(%rbp),%rax
    8bec:	48 89 85 40 f9 ff ff 	mov    %rax,-0x6c0(%rbp)
    8bf3:	48 8d 85 e0 ed ff ff 	lea    -0x1220(%rbp),%rax
    8bfa:	48 89 85 48 f9 ff ff 	mov    %rax,-0x6b8(%rbp)
    8c01:	48 8d 85 e0 ed ff ff 	lea    -0x1220(%rbp),%rax
    8c08:	48 89 85 50 f9 ff ff 	mov    %rax,-0x6b0(%rbp)
    8c0f:	48 8d 85 e0 ed ff ff 	lea    -0x1220(%rbp),%rax
    8c16:	48 89 85 58 f9 ff ff 	mov    %rax,-0x6a8(%rbp)
    8c1d:	48 c7 85 60 f9 ff ff 	movq   $0x0,-0x6a0(%rbp)
    8c24:	00 00 00 00 
    8c28:	48 c7 85 68 f9 ff ff 	movq   $0x0,-0x698(%rbp)
    8c2f:	00 00 00 00 
    8c33:	48 8d 85 e0 ed ff ff 	lea    -0x1220(%rbp),%rax
    8c3a:	48 89 85 70 f9 ff ff 	mov    %rax,-0x690(%rbp)
    8c41:	48 8d 85 e0 ed ff ff 	lea    -0x1220(%rbp),%rax
    8c48:	48 89 85 78 f9 ff ff 	mov    %rax,-0x688(%rbp)
    8c4f:	48 8d 85 e0 ed ff ff 	lea    -0x1220(%rbp),%rax
    8c56:	48 89 85 80 f9 ff ff 	mov    %rax,-0x680(%rbp)
    8c5d:	48 8d 85 e0 ed ff ff 	lea    -0x1220(%rbp),%rax
    8c64:	48 89 85 88 f9 ff ff 	mov    %rax,-0x678(%rbp)
    8c6b:	48 8d 85 e0 ed ff ff 	lea    -0x1220(%rbp),%rax
    8c72:	48 89 85 90 f9 ff ff 	mov    %rax,-0x670(%rbp)
    8c79:	48 8d 85 e0 ed ff ff 	lea    -0x1220(%rbp),%rax
    8c80:	48 89 85 98 f9 ff ff 	mov    %rax,-0x668(%rbp)
    8c87:	48 8d 85 e0 ed ff ff 	lea    -0x1220(%rbp),%rax
    8c8e:	48 89 85 a0 f9 ff ff 	mov    %rax,-0x660(%rbp)
    8c95:	48 8d 85 e0 ed ff ff 	lea    -0x1220(%rbp),%rax
    8c9c:	48 89 85 a8 f9 ff ff 	mov    %rax,-0x658(%rbp)
    8ca3:	48 8d 85 e0 ed ff ff 	lea    -0x1220(%rbp),%rax
    8caa:	48 89 85 b0 f9 ff ff 	mov    %rax,-0x650(%rbp)
    8cb1:	48 8d 85 e0 ed ff ff 	lea    -0x1220(%rbp),%rax
    8cb8:	48 89 85 b8 f9 ff ff 	mov    %rax,-0x648(%rbp)
    8cbf:	48 8d 85 e0 ed ff ff 	lea    -0x1220(%rbp),%rax
    8cc6:	48 89 85 c0 f9 ff ff 	mov    %rax,-0x640(%rbp)
    8ccd:	48 c7 85 c8 f9 ff ff 	movq   $0x0,-0x638(%rbp)
    8cd4:	00 00 00 00 
    8cd8:	48 8d 85 e0 ed ff ff 	lea    -0x1220(%rbp),%rax
    8cdf:	48 89 85 d0 f9 ff ff 	mov    %rax,-0x630(%rbp)
    8ce6:	48 8d 85 e0 ed ff ff 	lea    -0x1220(%rbp),%rax
    8ced:	48 89 85 d8 f9 ff ff 	mov    %rax,-0x628(%rbp)
    8cf4:	48 8d 85 e0 ed ff ff 	lea    -0x1220(%rbp),%rax
    8cfb:	48 89 85 e0 f9 ff ff 	mov    %rax,-0x620(%rbp)
    8d02:	48 8d 85 e0 ed ff ff 	lea    -0x1220(%rbp),%rax
    8d09:	48 89 85 e8 f9 ff ff 	mov    %rax,-0x618(%rbp)
    8d10:	48 c7 85 f0 f9 ff ff 	movq   $0x0,-0x610(%rbp)
    8d17:	00 00 00 00 
    8d1b:	48 8d 85 e0 ed ff ff 	lea    -0x1220(%rbp),%rax
    8d22:	48 89 85 f8 f9 ff ff 	mov    %rax,-0x608(%rbp)
    8d29:	48 8d 85 e0 ed ff ff 	lea    -0x1220(%rbp),%rax
    8d30:	48 89 85 00 fa ff ff 	mov    %rax,-0x600(%rbp)
    8d37:	48 c7 85 08 fa ff ff 	movq   $0x0,-0x5f8(%rbp)
    8d3e:	00 00 00 00 
    8d42:	48 8d 85 e0 ed ff ff 	lea    -0x1220(%rbp),%rax
    8d49:	48 89 85 10 fa ff ff 	mov    %rax,-0x5f0(%rbp)
    8d50:	48 8d 85 e0 ed ff ff 	lea    -0x1220(%rbp),%rax
    8d57:	48 89 85 18 fa ff ff 	mov    %rax,-0x5e8(%rbp)
    8d5e:	48 8d 85 e0 ed ff ff 	lea    -0x1220(%rbp),%rax
    8d65:	48 89 85 20 fa ff ff 	mov    %rax,-0x5e0(%rbp)
    8d6c:	48 8d 85 e0 ed ff ff 	lea    -0x1220(%rbp),%rax
    8d73:	48 89 85 28 fa ff ff 	mov    %rax,-0x5d8(%rbp)
    8d7a:	48 8d 85 e0 ed ff ff 	lea    -0x1220(%rbp),%rax
    8d81:	48 89 85 30 fa ff ff 	mov    %rax,-0x5d0(%rbp)
    8d88:	48 8d 85 e0 ed ff ff 	lea    -0x1220(%rbp),%rax
    8d8f:	48 89 85 38 fa ff ff 	mov    %rax,-0x5c8(%rbp)
    8d96:	48 c7 85 40 fa ff ff 	movq   $0x0,-0x5c0(%rbp)
    8d9d:	00 00 00 00 
    8da1:	48 c7 85 48 fa ff ff 	movq   $0x0,-0x5b8(%rbp)
    8da8:	00 00 00 00 
    8dac:	48 8d 85 e0 ed ff ff 	lea    -0x1220(%rbp),%rax
    8db3:	48 89 85 50 fa ff ff 	mov    %rax,-0x5b0(%rbp)
    8dba:	48 c7 85 58 fa ff ff 	movq   $0x0,-0x5a8(%rbp)
    8dc1:	00 00 00 00 
    8dc5:	48 c7 85 60 fa ff ff 	movq   $0x0,-0x5a0(%rbp)
    8dcc:	00 00 00 00 
    8dd0:	48 8d 85 e0 ed ff ff 	lea    -0x1220(%rbp),%rax
    8dd7:	48 89 85 68 fa ff ff 	mov    %rax,-0x598(%rbp)
    8dde:	48 c7 85 70 fa ff ff 	movq   $0x0,-0x590(%rbp)
    8de5:	00 00 00 00 
    8de9:	48 c7 85 78 fa ff ff 	movq   $0x0,-0x588(%rbp)
    8df0:	00 00 00 00 
    8df4:	48 8d 85 e0 ed ff ff 	lea    -0x1220(%rbp),%rax
    8dfb:	48 89 85 80 fa ff ff 	mov    %rax,-0x580(%rbp)
    8e02:	48 8d 85 e0 ed ff ff 	lea    -0x1220(%rbp),%rax
    8e09:	48 89 85 88 fa ff ff 	mov    %rax,-0x578(%rbp)
    8e10:	48 8d 85 e0 ed ff ff 	lea    -0x1220(%rbp),%rax
    8e17:	48 89 85 90 fa ff ff 	mov    %rax,-0x570(%rbp)
    8e1e:	48 8d 85 e0 ed ff ff 	lea    -0x1220(%rbp),%rax
    8e25:	48 89 85 98 fa ff ff 	mov    %rax,-0x568(%rbp)
    8e2c:	48 8d 85 e0 ed ff ff 	lea    -0x1220(%rbp),%rax
    8e33:	48 89 85 a0 fa ff ff 	mov    %rax,-0x560(%rbp)
    8e3a:	48 c7 85 a8 fa ff ff 	movq   $0x0,-0x558(%rbp)
    8e41:	00 00 00 00 
    8e45:	48 8d 85 e0 ed ff ff 	lea    -0x1220(%rbp),%rax
    8e4c:	48 89 85 b0 fa ff ff 	mov    %rax,-0x550(%rbp)
    8e53:	48 8d 85 e0 ed ff ff 	lea    -0x1220(%rbp),%rax
    8e5a:	48 89 85 b8 fa ff ff 	mov    %rax,-0x548(%rbp)
    8e61:	48 8d 85 e0 ed ff ff 	lea    -0x1220(%rbp),%rax
    8e68:	48 89 85 c0 fa ff ff 	mov    %rax,-0x540(%rbp)
    8e6f:	48 8d 85 e0 ed ff ff 	lea    -0x1220(%rbp),%rax
    8e76:	48 89 85 c8 fa ff ff 	mov    %rax,-0x538(%rbp)
    8e7d:	48 8d 85 e0 ed ff ff 	lea    -0x1220(%rbp),%rax
    8e84:	48 89 85 d0 fa ff ff 	mov    %rax,-0x530(%rbp)
    8e8b:	48 8d 85 e0 ed ff ff 	lea    -0x1220(%rbp),%rax
    8e92:	48 89 85 d8 fa ff ff 	mov    %rax,-0x528(%rbp)
    8e99:	48 8d 85 e0 ed ff ff 	lea    -0x1220(%rbp),%rax
    8ea0:	48 89 85 e0 fa ff ff 	mov    %rax,-0x520(%rbp)
    8ea7:	48 8d 85 e0 ed ff ff 	lea    -0x1220(%rbp),%rax
    8eae:	48 89 85 e8 fa ff ff 	mov    %rax,-0x518(%rbp)
    8eb5:	48 8d 85 e0 ed ff ff 	lea    -0x1220(%rbp),%rax
    8ebc:	48 89 85 f0 fa ff ff 	mov    %rax,-0x510(%rbp)
    8ec3:	48 8d 85 e0 ed ff ff 	lea    -0x1220(%rbp),%rax
    8eca:	48 89 85 f8 fa ff ff 	mov    %rax,-0x508(%rbp)
    8ed1:	48 8d 85 e0 ed ff ff 	lea    -0x1220(%rbp),%rax
    8ed8:	48 89 85 00 fb ff ff 	mov    %rax,-0x500(%rbp)
    8edf:	48 8d 85 e0 ed ff ff 	lea    -0x1220(%rbp),%rax
    8ee6:	48 89 85 08 fb ff ff 	mov    %rax,-0x4f8(%rbp)
    8eed:	48 8d 85 e0 ed ff ff 	lea    -0x1220(%rbp),%rax
    8ef4:	48 89 85 10 fb ff ff 	mov    %rax,-0x4f0(%rbp)
    8efb:	48 8d 85 e0 ed ff ff 	lea    -0x1220(%rbp),%rax
    8f02:	48 89 85 18 fb ff ff 	mov    %rax,-0x4e8(%rbp)
    8f09:	48 c7 85 20 fb ff ff 	movq   $0x0,-0x4e0(%rbp)
    8f10:	00 00 00 00 
    8f14:	48 8d 85 e0 ed ff ff 	lea    -0x1220(%rbp),%rax
    8f1b:	48 89 85 28 fb ff ff 	mov    %rax,-0x4d8(%rbp)
    8f22:	48 8d 85 e0 ed ff ff 	lea    -0x1220(%rbp),%rax
    8f29:	48 89 85 30 fb ff ff 	mov    %rax,-0x4d0(%rbp)
    8f30:	48 8d 85 e0 ed ff ff 	lea    -0x1220(%rbp),%rax
    8f37:	48 89 85 38 fb ff ff 	mov    %rax,-0x4c8(%rbp)
    8f3e:	48 8d 85 e0 ed ff ff 	lea    -0x1220(%rbp),%rax
    8f45:	48 89 85 40 fb ff ff 	mov    %rax,-0x4c0(%rbp)
    8f4c:	48 8d 85 e0 ed ff ff 	lea    -0x1220(%rbp),%rax
    8f53:	48 89 85 48 fb ff ff 	mov    %rax,-0x4b8(%rbp)
    8f5a:	48 8d 85 e0 ed ff ff 	lea    -0x1220(%rbp),%rax
    8f61:	48 89 85 50 fb ff ff 	mov    %rax,-0x4b0(%rbp)
    8f68:	48 8d 85 e0 ed ff ff 	lea    -0x1220(%rbp),%rax
    8f6f:	48 89 85 58 fb ff ff 	mov    %rax,-0x4a8(%rbp)
    8f76:	48 8d 85 e0 ed ff ff 	lea    -0x1220(%rbp),%rax
    8f7d:	48 89 85 60 fb ff ff 	mov    %rax,-0x4a0(%rbp)
    8f84:	48 8d 85 e0 ed ff ff 	lea    -0x1220(%rbp),%rax
    8f8b:	48 89 85 68 fb ff ff 	mov    %rax,-0x498(%rbp)
    8f92:	48 8d 85 e0 ed ff ff 	lea    -0x1220(%rbp),%rax
    8f99:	48 89 85 70 fb ff ff 	mov    %rax,-0x490(%rbp)
    8fa0:	48 8d 85 e0 ed ff ff 	lea    -0x1220(%rbp),%rax
    8fa7:	48 89 85 78 fb ff ff 	mov    %rax,-0x488(%rbp)
    8fae:	48 c7 85 80 fb ff ff 	movq   $0x0,-0x480(%rbp)
    8fb5:	00 00 00 00 
    8fb9:	48 8d 85 e0 ed ff ff 	lea    -0x1220(%rbp),%rax
    8fc0:	48 89 85 88 fb ff ff 	mov    %rax,-0x478(%rbp)
    8fc7:	48 8d 85 e0 ed ff ff 	lea    -0x1220(%rbp),%rax
    8fce:	48 89 85 90 fb ff ff 	mov    %rax,-0x470(%rbp)
    8fd5:	48 8d 85 e0 ed ff ff 	lea    -0x1220(%rbp),%rax
    8fdc:	48 89 85 98 fb ff ff 	mov    %rax,-0x468(%rbp)
    8fe3:	48 8d 85 e0 ed ff ff 	lea    -0x1220(%rbp),%rax
    8fea:	48 89 85 a0 fb ff ff 	mov    %rax,-0x460(%rbp)
    8ff1:	48 8d 85 e0 ed ff ff 	lea    -0x1220(%rbp),%rax
    8ff8:	48 89 85 a8 fb ff ff 	mov    %rax,-0x458(%rbp)
    8fff:	48 c7 85 b0 fb ff ff 	movq   $0x0,-0x450(%rbp)
    9006:	00 00 00 00 
    900a:	48 8d 85 e0 ed ff ff 	lea    -0x1220(%rbp),%rax
    9011:	48 89 85 b8 fb ff ff 	mov    %rax,-0x448(%rbp)
    9018:	48 8d 85 e0 ed ff ff 	lea    -0x1220(%rbp),%rax
    901f:	48 89 85 c0 fb ff ff 	mov    %rax,-0x440(%rbp)
    9026:	48 8d 85 e0 ed ff ff 	lea    -0x1220(%rbp),%rax
    902d:	48 89 85 c8 fb ff ff 	mov    %rax,-0x438(%rbp)
    9034:	48 8d 85 e0 ed ff ff 	lea    -0x1220(%rbp),%rax
    903b:	48 89 85 d0 fb ff ff 	mov    %rax,-0x430(%rbp)
    9042:	48 8d 85 e0 ed ff ff 	lea    -0x1220(%rbp),%rax
    9049:	48 89 85 d8 fb ff ff 	mov    %rax,-0x428(%rbp)
    9050:	48 8d 85 e0 ed ff ff 	lea    -0x1220(%rbp),%rax
    9057:	48 89 85 e0 fb ff ff 	mov    %rax,-0x420(%rbp)
    905e:	48 8d 85 e0 ed ff ff 	lea    -0x1220(%rbp),%rax
    9065:	48 89 85 e8 fb ff ff 	mov    %rax,-0x418(%rbp)
    906c:	48 8d 85 e0 ed ff ff 	lea    -0x1220(%rbp),%rax
    9073:	48 89 85 f0 fb ff ff 	mov    %rax,-0x410(%rbp)
    907a:	48 8d 85 e0 ed ff ff 	lea    -0x1220(%rbp),%rax
    9081:	48 89 85 f8 fb ff ff 	mov    %rax,-0x408(%rbp)
    9088:	48 8d 85 e0 ed ff ff 	lea    -0x1220(%rbp),%rax
    908f:	48 89 85 00 fc ff ff 	mov    %rax,-0x400(%rbp)
    9096:	48 8d 85 e0 ed ff ff 	lea    -0x1220(%rbp),%rax
    909d:	48 89 85 08 fc ff ff 	mov    %rax,-0x3f8(%rbp)
    90a4:	48 8d 85 e0 ed ff ff 	lea    -0x1220(%rbp),%rax
    90ab:	48 89 85 10 fc ff ff 	mov    %rax,-0x3f0(%rbp)
    90b2:	48 8d 85 e0 ed ff ff 	lea    -0x1220(%rbp),%rax
    90b9:	48 89 85 18 fc ff ff 	mov    %rax,-0x3e8(%rbp)
    90c0:	48 8d 85 e0 ed ff ff 	lea    -0x1220(%rbp),%rax
    90c7:	48 89 85 20 fc ff ff 	mov    %rax,-0x3e0(%rbp)
    90ce:	48 8d 85 e0 ed ff ff 	lea    -0x1220(%rbp),%rax
    90d5:	48 89 85 28 fc ff ff 	mov    %rax,-0x3d8(%rbp)
    90dc:	48 8d 85 e0 ed ff ff 	lea    -0x1220(%rbp),%rax
    90e3:	48 89 85 30 fc ff ff 	mov    %rax,-0x3d0(%rbp)
    90ea:	48 8d 85 e0 ed ff ff 	lea    -0x1220(%rbp),%rax
    90f1:	48 89 85 38 fc ff ff 	mov    %rax,-0x3c8(%rbp)
    90f8:	48 8d 85 e0 ed ff ff 	lea    -0x1220(%rbp),%rax
    90ff:	48 89 85 40 fc ff ff 	mov    %rax,-0x3c0(%rbp)
    9106:	48 8d 85 e0 ed ff ff 	lea    -0x1220(%rbp),%rax
    910d:	48 89 85 48 fc ff ff 	mov    %rax,-0x3b8(%rbp)
    9114:	48 8d 85 e0 ed ff ff 	lea    -0x1220(%rbp),%rax
    911b:	48 89 85 50 fc ff ff 	mov    %rax,-0x3b0(%rbp)
    9122:	48 8d 85 e0 ed ff ff 	lea    -0x1220(%rbp),%rax
    9129:	48 89 85 58 fc ff ff 	mov    %rax,-0x3a8(%rbp)
    9130:	48 8d 85 e0 ed ff ff 	lea    -0x1220(%rbp),%rax
    9137:	48 89 85 60 fc ff ff 	mov    %rax,-0x3a0(%rbp)
    913e:	48 8d 85 e0 ed ff ff 	lea    -0x1220(%rbp),%rax
    9145:	48 89 85 68 fc ff ff 	mov    %rax,-0x398(%rbp)
    914c:	48 8d 85 e0 ed ff ff 	lea    -0x1220(%rbp),%rax
    9153:	48 89 85 70 fc ff ff 	mov    %rax,-0x390(%rbp)
    915a:	48 8d 85 e0 ed ff ff 	lea    -0x1220(%rbp),%rax
    9161:	48 89 85 78 fc ff ff 	mov    %rax,-0x388(%rbp)
    9168:	48 8d 85 e0 ed ff ff 	lea    -0x1220(%rbp),%rax
    916f:	48 89 85 80 fc ff ff 	mov    %rax,-0x380(%rbp)
    9176:	48 c7 85 88 fc ff ff 	movq   $0x0,-0x378(%rbp)
    917d:	00 00 00 00 
    9181:	48 8d 85 e0 ed ff ff 	lea    -0x1220(%rbp),%rax
    9188:	48 89 85 90 fc ff ff 	mov    %rax,-0x370(%rbp)
    918f:	48 8d 85 e0 ed ff ff 	lea    -0x1220(%rbp),%rax
    9196:	48 89 85 98 fc ff ff 	mov    %rax,-0x368(%rbp)
    919d:	48 8d 85 e0 ed ff ff 	lea    -0x1220(%rbp),%rax
    91a4:	48 89 85 a0 fc ff ff 	mov    %rax,-0x360(%rbp)
    91ab:	48 8d 85 e0 ed ff ff 	lea    -0x1220(%rbp),%rax
    91b2:	48 89 85 a8 fc ff ff 	mov    %rax,-0x358(%rbp)
    91b9:	48 8d 85 e0 ed ff ff 	lea    -0x1220(%rbp),%rax
    91c0:	48 89 85 b0 fc ff ff 	mov    %rax,-0x350(%rbp)
    91c7:	48 8d 85 e0 ed ff ff 	lea    -0x1220(%rbp),%rax
    91ce:	48 89 85 b8 fc ff ff 	mov    %rax,-0x348(%rbp)
    91d5:	48 c7 85 c0 fc ff ff 	movq   $0x0,-0x340(%rbp)
    91dc:	00 00 00 00 
    91e0:	48 8d 85 e0 ed ff ff 	lea    -0x1220(%rbp),%rax
    91e7:	48 89 85 c8 fc ff ff 	mov    %rax,-0x338(%rbp)
    91ee:	48 8d 85 e0 ed ff ff 	lea    -0x1220(%rbp),%rax
    91f5:	48 89 85 d0 fc ff ff 	mov    %rax,-0x330(%rbp)
    91fc:	48 8d 85 e0 ed ff ff 	lea    -0x1220(%rbp),%rax
    9203:	48 89 85 d8 fc ff ff 	mov    %rax,-0x328(%rbp)
    920a:	48 8d 85 e0 ed ff ff 	lea    -0x1220(%rbp),%rax
    9211:	48 89 85 e0 fc ff ff 	mov    %rax,-0x320(%rbp)
    9218:	48 8d 85 e0 ed ff ff 	lea    -0x1220(%rbp),%rax
    921f:	48 89 85 e8 fc ff ff 	mov    %rax,-0x318(%rbp)
    9226:	48 8d 85 e0 ed ff ff 	lea    -0x1220(%rbp),%rax
    922d:	48 89 85 f0 fc ff ff 	mov    %rax,-0x310(%rbp)
    9234:	48 c7 85 f8 fc ff ff 	movq   $0x0,-0x308(%rbp)
    923b:	00 00 00 00 
    923f:	48 8d 85 e0 ed ff ff 	lea    -0x1220(%rbp),%rax
    9246:	48 89 85 00 fd ff ff 	mov    %rax,-0x300(%rbp)
    924d:	48 c7 85 08 fd ff ff 	movq   $0x0,-0x2f8(%rbp)
    9254:	00 00 00 00 
    9258:	48 c7 85 10 fd ff ff 	movq   $0x0,-0x2f0(%rbp)
    925f:	00 00 00 00 
    9263:	48 8d 85 e0 ed ff ff 	lea    -0x1220(%rbp),%rax
    926a:	48 89 85 18 fd ff ff 	mov    %rax,-0x2e8(%rbp)
    9271:	48 8d 85 e0 ed ff ff 	lea    -0x1220(%rbp),%rax
    9278:	48 89 85 20 fd ff ff 	mov    %rax,-0x2e0(%rbp)
    927f:	48 8d 85 e0 ed ff ff 	lea    -0x1220(%rbp),%rax
    9286:	48 89 85 28 fd ff ff 	mov    %rax,-0x2d8(%rbp)
    928d:	48 8d 85 e0 ed ff ff 	lea    -0x1220(%rbp),%rax
    9294:	48 89 85 30 fd ff ff 	mov    %rax,-0x2d0(%rbp)
    929b:	48 8d 85 e0 ed ff ff 	lea    -0x1220(%rbp),%rax
    92a2:	48 89 85 38 fd ff ff 	mov    %rax,-0x2c8(%rbp)
    92a9:	48 8d 85 e0 ed ff ff 	lea    -0x1220(%rbp),%rax
    92b0:	48 89 85 40 fd ff ff 	mov    %rax,-0x2c0(%rbp)
    92b7:	48 c7 85 48 fd ff ff 	movq   $0x0,-0x2b8(%rbp)
    92be:	00 00 00 00 
    92c2:	48 c7 85 50 fd ff ff 	movq   $0x0,-0x2b0(%rbp)
    92c9:	00 00 00 00 
    92cd:	48 8d 85 e0 ed ff ff 	lea    -0x1220(%rbp),%rax
    92d4:	48 89 85 58 fd ff ff 	mov    %rax,-0x2a8(%rbp)
    92db:	48 8d 85 e0 ed ff ff 	lea    -0x1220(%rbp),%rax
    92e2:	48 89 85 60 fd ff ff 	mov    %rax,-0x2a0(%rbp)
    92e9:	48 8d 85 e0 ed ff ff 	lea    -0x1220(%rbp),%rax
    92f0:	48 89 85 68 fd ff ff 	mov    %rax,-0x298(%rbp)
    92f7:	48 8d 85 e0 ed ff ff 	lea    -0x1220(%rbp),%rax
    92fe:	48 89 85 70 fd ff ff 	mov    %rax,-0x290(%rbp)
    9305:	48 8d 85 e0 ed ff ff 	lea    -0x1220(%rbp),%rax
    930c:	48 89 85 78 fd ff ff 	mov    %rax,-0x288(%rbp)
    9313:	48 8d 85 e0 ed ff ff 	lea    -0x1220(%rbp),%rax
    931a:	48 89 85 80 fd ff ff 	mov    %rax,-0x280(%rbp)
    9321:	48 8d 85 e0 ed ff ff 	lea    -0x1220(%rbp),%rax
    9328:	48 89 85 88 fd ff ff 	mov    %rax,-0x278(%rbp)
    932f:	48 8d 85 e0 ed ff ff 	lea    -0x1220(%rbp),%rax
    9336:	48 89 85 90 fd ff ff 	mov    %rax,-0x270(%rbp)
    933d:	48 8d 85 e0 ed ff ff 	lea    -0x1220(%rbp),%rax
    9344:	48 89 85 98 fd ff ff 	mov    %rax,-0x268(%rbp)
    934b:	48 8d 85 e0 ed ff ff 	lea    -0x1220(%rbp),%rax
    9352:	48 89 85 a0 fd ff ff 	mov    %rax,-0x260(%rbp)
    9359:	48 8d 85 e0 ed ff ff 	lea    -0x1220(%rbp),%rax
    9360:	48 89 85 a8 fd ff ff 	mov    %rax,-0x258(%rbp)
    9367:	48 8d 85 e0 ed ff ff 	lea    -0x1220(%rbp),%rax
    936e:	48 89 85 b0 fd ff ff 	mov    %rax,-0x250(%rbp)
    9375:	48 8d 85 e0 ed ff ff 	lea    -0x1220(%rbp),%rax
    937c:	48 89 85 b8 fd ff ff 	mov    %rax,-0x248(%rbp)
    9383:	48 8d 85 e0 ed ff ff 	lea    -0x1220(%rbp),%rax
    938a:	48 89 85 c0 fd ff ff 	mov    %rax,-0x240(%rbp)
    9391:	48 c7 85 c8 fd ff ff 	movq   $0x0,-0x238(%rbp)
    9398:	00 00 00 00 
    939c:	48 8d 85 e0 ed ff ff 	lea    -0x1220(%rbp),%rax
    93a3:	48 89 85 d0 fd ff ff 	mov    %rax,-0x230(%rbp)
    93aa:	48 8d 85 e0 ed ff ff 	lea    -0x1220(%rbp),%rax
    93b1:	48 89 85 d8 fd ff ff 	mov    %rax,-0x228(%rbp)
    93b8:	48 c7 85 e0 fd ff ff 	movq   $0x0,-0x220(%rbp)
    93bf:	00 00 00 00 
    93c3:	48 8d 85 e0 ed ff ff 	lea    -0x1220(%rbp),%rax
    93ca:	48 89 85 e8 fd ff ff 	mov    %rax,-0x218(%rbp)
    93d1:	48 8d 85 e0 ed ff ff 	lea    -0x1220(%rbp),%rax
    93d8:	48 89 85 f0 fd ff ff 	mov    %rax,-0x210(%rbp)
    93df:	48 8d 85 e0 ed ff ff 	lea    -0x1220(%rbp),%rax
    93e6:	48 89 85 f8 fd ff ff 	mov    %rax,-0x208(%rbp)
    93ed:	48 8d 85 e0 ed ff ff 	lea    -0x1220(%rbp),%rax
    93f4:	48 89 85 00 fe ff ff 	mov    %rax,-0x200(%rbp)
    93fb:	48 8d 85 e0 ed ff ff 	lea    -0x1220(%rbp),%rax
    9402:	48 89 85 08 fe ff ff 	mov    %rax,-0x1f8(%rbp)
    9409:	48 8d 85 e0 ed ff ff 	lea    -0x1220(%rbp),%rax
    9410:	48 89 85 10 fe ff ff 	mov    %rax,-0x1f0(%rbp)
    9417:	48 c7 85 18 fe ff ff 	movq   $0x0,-0x1e8(%rbp)
    941e:	00 00 00 00 
    9422:	48 8d 85 e0 ed ff ff 	lea    -0x1220(%rbp),%rax
    9429:	48 89 85 20 fe ff ff 	mov    %rax,-0x1e0(%rbp)
    9430:	48 8d 85 e0 ed ff ff 	lea    -0x1220(%rbp),%rax
    9437:	48 89 85 28 fe ff ff 	mov    %rax,-0x1d8(%rbp)
    943e:	48 8d 85 e0 ed ff ff 	lea    -0x1220(%rbp),%rax
    9445:	48 89 85 30 fe ff ff 	mov    %rax,-0x1d0(%rbp)
    944c:	48 8d 85 e0 ed ff ff 	lea    -0x1220(%rbp),%rax
    9453:	48 89 85 38 fe ff ff 	mov    %rax,-0x1c8(%rbp)
    945a:	48 8d 85 e0 ed ff ff 	lea    -0x1220(%rbp),%rax
    9461:	48 89 85 40 fe ff ff 	mov    %rax,-0x1c0(%rbp)
    9468:	48 8d 85 e0 ed ff ff 	lea    -0x1220(%rbp),%rax
    946f:	48 89 85 48 fe ff ff 	mov    %rax,-0x1b8(%rbp)
    9476:	48 8d 85 e0 ed ff ff 	lea    -0x1220(%rbp),%rax
    947d:	48 89 85 50 fe ff ff 	mov    %rax,-0x1b0(%rbp)
    9484:	48 8d 85 e0 ed ff ff 	lea    -0x1220(%rbp),%rax
    948b:	48 89 85 58 fe ff ff 	mov    %rax,-0x1a8(%rbp)
    9492:	48 8d 85 e0 ed ff ff 	lea    -0x1220(%rbp),%rax
    9499:	48 89 85 60 fe ff ff 	mov    %rax,-0x1a0(%rbp)
    94a0:	48 8d 85 e0 ed ff ff 	lea    -0x1220(%rbp),%rax
    94a7:	48 89 85 68 fe ff ff 	mov    %rax,-0x198(%rbp)
    94ae:	48 8d 85 e0 ed ff ff 	lea    -0x1220(%rbp),%rax
    94b5:	48 89 85 70 fe ff ff 	mov    %rax,-0x190(%rbp)
    94bc:	48 8d 85 e0 ed ff ff 	lea    -0x1220(%rbp),%rax
    94c3:	48 89 85 78 fe ff ff 	mov    %rax,-0x188(%rbp)
    94ca:	48 8d 85 e0 ed ff ff 	lea    -0x1220(%rbp),%rax
    94d1:	48 89 85 80 fe ff ff 	mov    %rax,-0x180(%rbp)
    94d8:	48 8d 85 e0 ed ff ff 	lea    -0x1220(%rbp),%rax
    94df:	48 89 85 88 fe ff ff 	mov    %rax,-0x178(%rbp)
    94e6:	48 c7 85 90 fe ff ff 	movq   $0x0,-0x170(%rbp)
    94ed:	00 00 00 00 
    94f1:	48 8d 85 e0 ed ff ff 	lea    -0x1220(%rbp),%rax
    94f8:	48 89 85 98 fe ff ff 	mov    %rax,-0x168(%rbp)
    94ff:	48 8d 85 e0 ed ff ff 	lea    -0x1220(%rbp),%rax
    9506:	48 89 85 a0 fe ff ff 	mov    %rax,-0x160(%rbp)
    950d:	48 8d 85 e0 ed ff ff 	lea    -0x1220(%rbp),%rax
    9514:	48 89 85 a8 fe ff ff 	mov    %rax,-0x158(%rbp)
    951b:	48 8d 85 e0 ed ff ff 	lea    -0x1220(%rbp),%rax
    9522:	48 89 85 b0 fe ff ff 	mov    %rax,-0x150(%rbp)
    9529:	48 8d 85 e0 ed ff ff 	lea    -0x1220(%rbp),%rax
    9530:	48 89 85 b8 fe ff ff 	mov    %rax,-0x148(%rbp)
    9537:	48 8d 85 e0 ed ff ff 	lea    -0x1220(%rbp),%rax
    953e:	48 89 85 c0 fe ff ff 	mov    %rax,-0x140(%rbp)
    9545:	48 8d 85 e0 ed ff ff 	lea    -0x1220(%rbp),%rax
    954c:	48 89 85 c8 fe ff ff 	mov    %rax,-0x138(%rbp)
    9553:	48 8d 85 e0 ed ff ff 	lea    -0x1220(%rbp),%rax
    955a:	48 89 85 d0 fe ff ff 	mov    %rax,-0x130(%rbp)
    9561:	48 8d 85 e0 ed ff ff 	lea    -0x1220(%rbp),%rax
    9568:	48 89 85 d8 fe ff ff 	mov    %rax,-0x128(%rbp)
    956f:	48 8d 85 e0 ed ff ff 	lea    -0x1220(%rbp),%rax
    9576:	48 89 85 e0 fe ff ff 	mov    %rax,-0x120(%rbp)
    957d:	48 8d 85 e0 ed ff ff 	lea    -0x1220(%rbp),%rax
    9584:	48 89 85 e8 fe ff ff 	mov    %rax,-0x118(%rbp)
    958b:	48 8d 85 e0 ed ff ff 	lea    -0x1220(%rbp),%rax
    9592:	48 89 85 f0 fe ff ff 	mov    %rax,-0x110(%rbp)
    9599:	48 8d 85 e0 ed ff ff 	lea    -0x1220(%rbp),%rax
    95a0:	48 89 85 f8 fe ff ff 	mov    %rax,-0x108(%rbp)
    95a7:	48 8d 85 e0 ed ff ff 	lea    -0x1220(%rbp),%rax
    95ae:	48 89 85 00 ff ff ff 	mov    %rax,-0x100(%rbp)
    95b5:	48 8d 85 e0 ed ff ff 	lea    -0x1220(%rbp),%rax
    95bc:	48 89 85 08 ff ff ff 	mov    %rax,-0xf8(%rbp)
    95c3:	48 8d 85 e0 ed ff ff 	lea    -0x1220(%rbp),%rax
    95ca:	48 89 85 10 ff ff ff 	mov    %rax,-0xf0(%rbp)
    95d1:	48 8d 85 e0 ed ff ff 	lea    -0x1220(%rbp),%rax
    95d8:	48 89 85 18 ff ff ff 	mov    %rax,-0xe8(%rbp)
    95df:	48 8d 85 e0 ed ff ff 	lea    -0x1220(%rbp),%rax
    95e6:	48 89 85 20 ff ff ff 	mov    %rax,-0xe0(%rbp)
    95ed:	48 8d 85 e0 ed ff ff 	lea    -0x1220(%rbp),%rax
    95f4:	48 89 85 28 ff ff ff 	mov    %rax,-0xd8(%rbp)
    95fb:	48 8d 85 e0 ed ff ff 	lea    -0x1220(%rbp),%rax
    9602:	48 89 85 30 ff ff ff 	mov    %rax,-0xd0(%rbp)
    9609:	48 c7 85 38 ff ff ff 	movq   $0x0,-0xc8(%rbp)
    9610:	00 00 00 00 
    9614:	48 8d 85 e0 ed ff ff 	lea    -0x1220(%rbp),%rax
    961b:	48 89 85 40 ff ff ff 	mov    %rax,-0xc0(%rbp)
    9622:	48 8d 85 e0 ed ff ff 	lea    -0x1220(%rbp),%rax
    9629:	48 89 85 48 ff ff ff 	mov    %rax,-0xb8(%rbp)
    9630:	48 8d 85 e0 ed ff ff 	lea    -0x1220(%rbp),%rax
    9637:	48 89 85 50 ff ff ff 	mov    %rax,-0xb0(%rbp)
    963e:	48 c7 85 58 ff ff ff 	movq   $0x0,-0xa8(%rbp)
    9645:	00 00 00 00 
    9649:	48 8d 85 e0 ed ff ff 	lea    -0x1220(%rbp),%rax
    9650:	48 89 85 60 ff ff ff 	mov    %rax,-0xa0(%rbp)
    9657:	48 8d 85 e0 ed ff ff 	lea    -0x1220(%rbp),%rax
    965e:	48 89 85 68 ff ff ff 	mov    %rax,-0x98(%rbp)
    9665:	48 c7 85 70 ff ff ff 	movq   $0x0,-0x90(%rbp)
    966c:	00 00 00 00 
    9670:	48 8d 85 e0 ed ff ff 	lea    -0x1220(%rbp),%rax
    9677:	48 89 85 78 ff ff ff 	mov    %rax,-0x88(%rbp)
    967e:	48 8d 85 e0 ed ff ff 	lea    -0x1220(%rbp),%rax
    9685:	48 89 45 80          	mov    %rax,-0x80(%rbp)
    9689:	48 8d 85 e0 ed ff ff 	lea    -0x1220(%rbp),%rax
    9690:	48 89 45 88          	mov    %rax,-0x78(%rbp)
    9694:	48 8d 85 e0 ed ff ff 	lea    -0x1220(%rbp),%rax
    969b:	48 89 45 90          	mov    %rax,-0x70(%rbp)
    969f:	48 8d 85 e0 ed ff ff 	lea    -0x1220(%rbp),%rax
    96a6:	48 89 45 98          	mov    %rax,-0x68(%rbp)
    96aa:	48 8d 85 e0 ed ff ff 	lea    -0x1220(%rbp),%rax
    96b1:	48 89 45 a0          	mov    %rax,-0x60(%rbp)
    96b5:	48 8d 85 e0 ed ff ff 	lea    -0x1220(%rbp),%rax
    96bc:	48 89 45 a8          	mov    %rax,-0x58(%rbp)
    96c0:	48 8d 85 e0 ed ff ff 	lea    -0x1220(%rbp),%rax
    96c7:	48 89 45 b0          	mov    %rax,-0x50(%rbp)
    96cb:	48 8d 85 e0 ed ff ff 	lea    -0x1220(%rbp),%rax
    96d2:	48 89 45 b8          	mov    %rax,-0x48(%rbp)
    96d6:	48 8d 85 e0 ed ff ff 	lea    -0x1220(%rbp),%rax
    96dd:	48 89 45 c0          	mov    %rax,-0x40(%rbp)
    96e1:	48 8d 85 e0 ed ff ff 	lea    -0x1220(%rbp),%rax
    96e8:	48 89 45 c8          	mov    %rax,-0x38(%rbp)
    96ec:	48 8d 85 e0 ed ff ff 	lea    -0x1220(%rbp),%rax
    96f3:	48 89 45 d0          	mov    %rax,-0x30(%rbp)
    96f7:	48 8d 85 e0 ed ff ff 	lea    -0x1220(%rbp),%rax
    96fe:	48 89 45 d8          	mov    %rax,-0x28(%rbp)
    9702:	48 8d 85 e0 ed ff ff 	lea    -0x1220(%rbp),%rax
    9709:	48 89 45 e0          	mov    %rax,-0x20(%rbp)
    970d:	48 8d 85 e0 ed ff ff 	lea    -0x1220(%rbp),%rax
    9714:	48 89 45 e8          	mov    %rax,-0x18(%rbp)
    9718:	48 8d 85 e0 ed ff ff 	lea    -0x1220(%rbp),%rax
    971f:	48 89 45 f0          	mov    %rax,-0x10(%rbp)
    9723:	66 c7 85 7e ed ff ff 	movw   $0xfff9,-0x1282(%rbp)
    972a:	f9 ff 
    972c:	48 b8 36 bf 1c cd 96 	movabs $0x467f9f96cd1cbf36,%rax
    9733:	9f 7f 46 
    9736:	48 89 85 30 ee ff ff 	mov    %rax,-0x11d0(%rbp)
    973d:	c6 85 7d ed ff ff ee 	movb   $0xee,-0x1283(%rbp)
    9744:	48 8d 05 8d ab 00 00 	lea    0xab8d(%rip),%rax        # 142d8 <g_241+0x2f8>
    974b:	48 89 85 38 ee ff ff 	mov    %rax,-0x11c8(%rbp)
    9752:	48 8d 85 10 f3 ff ff 	lea    -0xcf0(%rbp),%rax
    9759:	48 05 f0 04 00 00    	add    $0x4f0,%rax
    975f:	48 89 85 e8 ed ff ff 	mov    %rax,-0x1218(%rbp)
    9766:	48 8d 85 e8 ed ff ff 	lea    -0x1218(%rbp),%rax
    976d:	48 89 85 40 ee ff ff 	mov    %rax,-0x11c0(%rbp)
    9774:	c7 85 9c ed ff ff db 	movl   $0x49ecc5db,-0x1264(%rbp)
    977b:	c5 ec 49 
    977e:	48 8d 05 27 9c 00 00 	lea    0x9c27(%rip),%rax        # 133ac <g_299>
    9785:	48 89 85 48 ee ff ff 	mov    %rax,-0x11b8(%rbp)
    978c:	8b 05 9a 98 00 00    	mov    0x989a(%rip),%eax        # 1302c <g_88>
    9792:	83 c0 01             	add    $0x1,%eax
    9795:	89 05 91 98 00 00    	mov    %eax,0x9891(%rip)        # 1302c <g_88>
    979b:	8b 05 8b 98 00 00    	mov    0x988b(%rip),%eax        # 1302c <g_88>
    97a1:	83 f8 eb             	cmp    $0xffffffeb,%eax
    97a4:	0f 8d c3 f1 ff ff    	jge    896d <func_27+0x89e>
    97aa:	48 8b 85 b8 ed ff ff 	mov    -0x1248(%rbp),%rax
    97b1:	48 8b 00             	mov    (%rax),%rax
    97b4:	48 8b 00             	mov    (%rax),%rax
    97b7:	48 8b 00             	mov    (%rax),%rax
    97ba:	8b 00                	mov    (%rax),%eax
    97bc:	48 98                	cltq   
    97be:	48 8b 4d f8          	mov    -0x8(%rbp),%rcx
    97c2:	64 48 33 0c 25 28 00 	xor    %fs:0x28,%rcx
    97c9:	00 00 
    97cb:	74 05                	je     97d2 <func_27+0x1703>
    97cd:	e8 9e c8 ff ff       	callq  6070 <__stack_chk_fail@plt>
    97d2:	c9                   	leaveq 
    97d3:	c3                   	retq   

00000000000097d4 <func_36>:
    97d4:	f3 0f 1e fa          	endbr64 
    97d8:	55                   	push   %rbp
    97d9:	48 89 e5             	mov    %rsp,%rbp
    97dc:	89 7d ec             	mov    %edi,-0x14(%rbp)
    97df:	89 75 e8             	mov    %esi,-0x18(%rbp)
    97e2:	89 55 e4             	mov    %edx,-0x1c(%rbp)
    97e5:	48 89 4d d8          	mov    %rcx,-0x28(%rbp)
    97e9:	44 89 c0             	mov    %r8d,%eax
    97ec:	66 89 45 e0          	mov    %ax,-0x20(%rbp)
    97f0:	c7 45 fc 01 00 00 00 	movl   $0x1,-0x4(%rbp)
    97f7:	8b 45 fc             	mov    -0x4(%rbp),%eax
    97fa:	5d                   	pop    %rbp
    97fb:	c3                   	retq   

00000000000097fc <func_42>:
    97fc:	f3 0f 1e fa          	endbr64 
    9800:	55                   	push   %rbp
    9801:	48 89 e5             	mov    %rsp,%rbp
    9804:	41 57                	push   %r15
    9806:	41 56                	push   %r14
    9808:	41 55                	push   %r13
    980a:	41 54                	push   %r12
    980c:	53                   	push   %rbx
    980d:	48 81 ec d8 07 00 00 	sub    $0x7d8,%rsp
    9814:	89 bd 1c f8 ff ff    	mov    %edi,-0x7e4(%rbp)
    981a:	89 f0                	mov    %esi,%eax
    981c:	88 85 18 f8 ff ff    	mov    %al,-0x7e8(%rbp)
    9822:	64 48 8b 04 25 28 00 	mov    %fs:0x28,%rax
    9829:	00 00 
    982b:	48 89 45 c8          	mov    %rax,-0x38(%rbp)
    982f:	31 c0                	xor    %eax,%eax
    9831:	48 8d 05 f0 97 00 00 	lea    0x97f0(%rip),%rax        # 13028 <g_63>
    9838:	48 89 85 58 f9 ff ff 	mov    %rax,-0x6a8(%rbp)
    983f:	c7 85 48 f8 ff ff 00 	movl   $0x0,-0x7b8(%rbp)
    9846:	00 00 00 
    9849:	c6 85 2e f8 ff ff b4 	movb   $0xb4,-0x7d2(%rbp)
    9850:	c7 85 4c f8 ff ff 92 	movl   $0xcfeb6492,-0x7b4(%rbp)
    9857:	64 eb cf 
    985a:	48 8d 05 53 9b 00 00 	lea    0x9b53(%rip),%rax        # 133b4 <g_551>
    9861:	48 89 85 f0 f8 ff ff 	mov    %rax,-0x710(%rbp)
    9868:	48 8d 85 f0 f8 ff ff 	lea    -0x710(%rbp),%rax
    986f:	48 89 85 f8 f8 ff ff 	mov    %rax,-0x708(%rbp)
    9876:	48 8d 85 f8 f8 ff ff 	lea    -0x708(%rbp),%rax
    987d:	48 89 85 60 f9 ff ff 	mov    %rax,-0x6a0(%rbp)
    9884:	c7 85 b0 f8 ff ff 01 	movl   $0x1,-0x750(%rbp)
    988b:	00 00 00 
    988e:	c7 85 b4 f8 ff ff ff 	movl   $0xffffffff,-0x74c(%rbp)
    9895:	ff ff ff 
    9898:	48 b8 05 cc 12 a5 32 	movabs $0x8f38ef32a512cc05,%rax
    989f:	ef 38 8f 
    98a2:	48 89 85 48 f9 ff ff 	mov    %rax,-0x6b8(%rbp)
    98a9:	c7 85 b8 f8 ff ff 7f 	movl   $0x82a3be7f,-0x748(%rbp)
    98b0:	be a3 82 
    98b3:	66 c7 85 38 f8 ff ff 	movw   $0x8,-0x7c8(%rbp)
    98ba:	08 00 
    98bc:	c6 85 2f f8 ff ff 9c 	movb   $0x9c,-0x7d1(%rbp)
    98c3:	c7 85 80 f8 ff ff 00 	movl   $0x0,-0x780(%rbp)
    98ca:	00 00 00 
    98cd:	eb 1b                	jmp    98ea <func_42+0xee>
    98cf:	8b 85 80 f8 ff ff    	mov    -0x780(%rbp),%eax
    98d5:	48 98                	cltq   
    98d7:	48 c7 84 c5 a0 fa ff 	movq   $0x0,-0x560(%rbp,%rax,8)
    98de:	ff 00 00 00 00 
    98e3:	83 85 80 f8 ff ff 01 	addl   $0x1,-0x780(%rbp)
    98ea:	83 bd 80 f8 ff ff 02 	cmpl   $0x2,-0x780(%rbp)
    98f1:	7e dc                	jle    98cf <func_42+0xd3>
    98f3:	c7 85 80 f8 ff ff 00 	movl   $0x0,-0x780(%rbp)
    98fa:	00 00 00 
    98fd:	eb 1b                	jmp    991a <func_42+0x11e>
    98ff:	8b 85 80 f8 ff ff    	mov    -0x780(%rbp),%eax
    9905:	48 98                	cltq   
    9907:	48 c7 84 c5 00 fb ff 	movq   $0x0,-0x500(%rbp,%rax,8)
    990e:	ff 00 00 00 00 
    9913:	83 85 80 f8 ff ff 01 	addl   $0x1,-0x780(%rbp)
    991a:	83 bd 80 f8 ff ff 04 	cmpl   $0x4,-0x780(%rbp)
    9921:	7e dc                	jle    98ff <func_42+0x103>
    9923:	c7 85 80 f8 ff ff 00 	movl   $0x0,-0x780(%rbp)
    992a:	00 00 00 
    992d:	eb 1a                	jmp    9949 <func_42+0x14d>
    992f:	8b 85 80 f8 ff ff    	mov    -0x780(%rbp),%eax
    9935:	48 98                	cltq   
    9937:	c7 84 85 98 fa ff ff 	movl   $0xfd6ba03e,-0x568(%rbp,%rax,4)
    993e:	3e a0 6b fd 
    9942:	83 85 80 f8 ff ff 01 	addl   $0x1,-0x780(%rbp)
    9949:	83 bd 80 f8 ff ff 01 	cmpl   $0x1,-0x780(%rbp)
    9950:	7e dd                	jle    992f <func_42+0x133>
    9952:	c6 05 5b 9a 00 00 f2 	movb   $0xf2,0x9a5b(%rip)        # 133b4 <g_551>
    9959:	e9 10 25 00 00       	jmpq   be6e <func_42+0x2672>
    995e:	48 8d 85 40 fc ff ff 	lea    -0x3c0(%rbp),%rax
    9965:	48 8d 15 d4 5d 00 00 	lea    0x5dd4(%rip),%rdx        # f740 <g_715+0x6e8>
    996c:	b9 1f 00 00 00       	mov    $0x1f,%ecx
    9971:	48 89 c7             	mov    %rax,%rdi
    9974:	48 89 d6             	mov    %rdx,%rsi
    9977:	f3 48 a5             	rep movsq %ds:(%rsi),%es:(%rdi)
    997a:	48 89 f2             	mov    %rsi,%rdx
    997d:	48 89 f8             	mov    %rdi,%rax
    9980:	8b 0a                	mov    (%rdx),%ecx
    9982:	89 08                	mov    %ecx,(%rax)
    9984:	c7 85 50 f8 ff ff 00 	movl   $0x0,-0x7b0(%rbp)
    998b:	00 00 00 
    998e:	c7 85 84 f8 ff ff 01 	movl   $0x1,-0x77c(%rbp)
    9995:	00 00 00 
    9998:	c7 85 54 f8 ff ff f8 	movl   $0xfffffff8,-0x7ac(%rbp)
    999f:	ff ff ff 
    99a2:	c7 85 58 f8 ff ff 00 	movl   $0x0,-0x7a8(%rbp)
    99a9:	00 00 00 
    99ac:	66 c7 85 34 f8 ff ff 	movw   $0x5b51,-0x7cc(%rbp)
    99b3:	51 5b 
    99b5:	66 c7 85 36 f8 ff ff 	movw   $0x3ae2,-0x7ca(%rbp)
    99bc:	e2 3a 
    99be:	66 c7 85 3a f8 ff ff 	movw   $0x1,-0x7c6(%rbp)
    99c5:	01 00 
    99c7:	48 c7 85 68 f9 ff ff 	movq   $0x0,-0x698(%rbp)
    99ce:	00 00 00 00 
    99d2:	48 c7 85 70 f9 ff ff 	movq   $0x0,-0x690(%rbp)
    99d9:	00 00 00 00 
    99dd:	48 8d 85 a0 fa ff ff 	lea    -0x560(%rbp),%rax
    99e4:	48 83 c0 10          	add    $0x10,%rax
    99e8:	48 89 85 78 f9 ff ff 	mov    %rax,-0x688(%rbp)
    99ef:	48 8d 05 2e 96 00 00 	lea    0x962e(%rip),%rax        # 13024 <g_8>
    99f6:	48 89 85 00 f9 ff ff 	mov    %rax,-0x700(%rbp)
    99fd:	48 8d 85 00 f9 ff ff 	lea    -0x700(%rbp),%rax
    9a04:	48 89 85 08 f9 ff ff 	mov    %rax,-0x6f8(%rbp)
    9a0b:	48 8d 85 08 f9 ff ff 	lea    -0x6f8(%rbp),%rax
    9a12:	48 89 85 10 f9 ff ff 	mov    %rax,-0x6f0(%rbp)
    9a19:	48 b8 46 64 e9 1f fa 	movabs $0x86a448fa1fe96446,%rax
    9a20:	48 a4 86 
    9a23:	48 89 85 18 f9 ff ff 	mov    %rax,-0x6e8(%rbp)
    9a2a:	c6 85 5c f8 ff ff 0d 	movb   $0xd,-0x7a4(%rbp)
    9a31:	48 8d 05 3c 99 00 00 	lea    0x993c(%rip),%rax        # 13374 <g_230+0x4>
    9a38:	48 89 85 20 f9 ff ff 	mov    %rax,-0x6e0(%rbp)
    9a3f:	c7 85 bc f8 ff ff 0c 	movl   $0x19a940c,-0x744(%rbp)
    9a46:	94 9a 01 
    9a49:	48 8d 05 d8 b4 00 00 	lea    0xb4d8(%rip),%rax        # 14f28 <g_1015>
    9a50:	48 89 85 28 f9 ff ff 	mov    %rax,-0x6d8(%rbp)
    9a57:	48 8d 85 28 f9 ff ff 	lea    -0x6d8(%rbp),%rax
    9a5e:	48 89 85 30 f9 ff ff 	mov    %rax,-0x6d0(%rbp)
    9a65:	c7 85 88 f8 ff ff 00 	movl   $0x0,-0x778(%rbp)
    9a6c:	00 00 00 
    9a6f:	eb 1a                	jmp    9a8b <func_42+0x28f>
    9a71:	8b 85 88 f8 ff ff    	mov    -0x778(%rbp),%eax
    9a77:	48 98                	cltq   
    9a79:	c7 84 85 e0 fa ff ff 	movl   $0xc0c5a582,-0x520(%rbp,%rax,4)
    9a80:	82 a5 c5 c0 
    9a84:	83 85 88 f8 ff ff 01 	addl   $0x1,-0x778(%rbp)
    9a8b:	83 bd 88 f8 ff ff 07 	cmpl   $0x7,-0x778(%rbp)
    9a92:	7e dd                	jle    9a71 <func_42+0x275>
    9a94:	48 8b 05 05 a5 00 00 	mov    0xa505(%rip),%rax        # 13fa0 <g_62>
    9a9b:	8b 00                	mov    (%rax),%eax
    9a9d:	85 c0                	test   %eax,%eax
    9a9f:	0f 84 a5 0e 00 00    	je     a94a <func_42+0x114e>
    9aa5:	c7 85 d4 f8 ff ff 04 	movl   $0xedfce04,-0x72c(%rbp)
    9aac:	ce df 0e 
    9aaf:	c7 85 7c f8 ff ff f9 	movl   $0xfffffff9,-0x784(%rbp)
    9ab6:	ff ff ff 
    9ab9:	c7 85 d0 fb ff ff 84 	movl   $0x2dff384,-0x430(%rbp)
    9ac0:	f3 df 02 
    9ac3:	c7 85 d4 fb ff ff 84 	movl   $0x2dff384,-0x42c(%rbp)
    9aca:	f3 df 02 
    9acd:	c7 85 d8 fb ff ff 84 	movl   $0x2dff384,-0x428(%rbp)
    9ad4:	f3 df 02 
    9ad7:	c7 85 dc fb ff ff 84 	movl   $0x2dff384,-0x424(%rbp)
    9ade:	f3 df 02 
    9ae1:	c7 85 e0 fb ff ff 84 	movl   $0x2dff384,-0x420(%rbp)
    9ae8:	f3 df 02 
    9aeb:	c7 85 e4 fb ff ff 84 	movl   $0x2dff384,-0x41c(%rbp)
    9af2:	f3 df 02 
    9af5:	c7 85 e8 fb ff ff 84 	movl   $0x2dff384,-0x418(%rbp)
    9afc:	f3 df 02 
    9aff:	c7 85 ec fb ff ff 47 	movl   $0x7e42c47,-0x414(%rbp)
    9b06:	2c e4 07 
    9b09:	c7 85 f0 fb ff ff 47 	movl   $0x7e42c47,-0x410(%rbp)
    9b10:	2c e4 07 
    9b13:	c7 85 f4 fb ff ff 47 	movl   $0x7e42c47,-0x40c(%rbp)
    9b1a:	2c e4 07 
    9b1d:	c7 85 f8 fb ff ff 47 	movl   $0x7e42c47,-0x408(%rbp)
    9b24:	2c e4 07 
    9b27:	c7 85 fc fb ff ff 47 	movl   $0x7e42c47,-0x404(%rbp)
    9b2e:	2c e4 07 
    9b31:	c7 85 00 fc ff ff 47 	movl   $0x7e42c47,-0x400(%rbp)
    9b38:	2c e4 07 
    9b3b:	c7 85 04 fc ff ff 47 	movl   $0x7e42c47,-0x3fc(%rbp)
    9b42:	2c e4 07 
    9b45:	c7 85 08 fc ff ff 84 	movl   $0x2dff384,-0x3f8(%rbp)
    9b4c:	f3 df 02 
    9b4f:	c7 85 0c fc ff ff 84 	movl   $0x2dff384,-0x3f4(%rbp)
    9b56:	f3 df 02 
    9b59:	c7 85 10 fc ff ff 84 	movl   $0x2dff384,-0x3f0(%rbp)
    9b60:	f3 df 02 
    9b63:	c7 85 14 fc ff ff 84 	movl   $0x2dff384,-0x3ec(%rbp)
    9b6a:	f3 df 02 
    9b6d:	c7 85 18 fc ff ff 84 	movl   $0x2dff384,-0x3e8(%rbp)
    9b74:	f3 df 02 
    9b77:	c7 85 1c fc ff ff 84 	movl   $0x2dff384,-0x3e4(%rbp)
    9b7e:	f3 df 02 
    9b81:	c7 85 20 fc ff ff 84 	movl   $0x2dff384,-0x3e0(%rbp)
    9b88:	f3 df 02 
    9b8b:	c7 85 24 fc ff ff 47 	movl   $0x7e42c47,-0x3dc(%rbp)
    9b92:	2c e4 07 
    9b95:	c7 85 28 fc ff ff 47 	movl   $0x7e42c47,-0x3d8(%rbp)
    9b9c:	2c e4 07 
    9b9f:	c7 85 2c fc ff ff 47 	movl   $0x7e42c47,-0x3d4(%rbp)
    9ba6:	2c e4 07 
    9ba9:	c7 85 30 fc ff ff 47 	movl   $0x7e42c47,-0x3d0(%rbp)
    9bb0:	2c e4 07 
    9bb3:	c7 85 34 fc ff ff 47 	movl   $0x7e42c47,-0x3cc(%rbp)
    9bba:	2c e4 07 
    9bbd:	c7 85 38 fc ff ff 47 	movl   $0x7e42c47,-0x3c8(%rbp)
    9bc4:	2c e4 07 
    9bc7:	c7 85 3c fc ff ff 47 	movl   $0x7e42c47,-0x3c4(%rbp)
    9bce:	2c e4 07 
    9bd1:	c7 85 8c f8 ff ff 00 	movl   $0x0,-0x774(%rbp)
    9bd8:	00 00 00 
    9bdb:	eb 1b                	jmp    9bf8 <func_42+0x3fc>
    9bdd:	8b 85 8c f8 ff ff    	mov    -0x774(%rbp),%eax
    9be3:	48 98                	cltq   
    9be5:	48 c7 84 c5 30 fb ff 	movq   $0x0,-0x4d0(%rbp,%rax,8)
    9bec:	ff 00 00 00 00 
    9bf1:	83 85 8c f8 ff ff 01 	addl   $0x1,-0x774(%rbp)
    9bf8:	83 bd 8c f8 ff ff 04 	cmpl   $0x4,-0x774(%rbp)
    9bff:	7e dc                	jle    9bdd <func_42+0x3e1>
    9c01:	c7 85 8c f8 ff ff 00 	movl   $0x0,-0x774(%rbp)
    9c08:	00 00 00 
    9c0b:	eb 1e                	jmp    9c2b <func_42+0x42f>
    9c0d:	8b 85 8c f8 ff ff    	mov    -0x774(%rbp),%eax
    9c13:	48 98                	cltq   
    9c15:	48 8d 15 ec 96 00 00 	lea    0x96ec(%rip),%rdx        # 13308 <g_207+0x48>
    9c1c:	48 89 94 c5 90 fb ff 	mov    %rdx,-0x470(%rbp,%rax,8)
    9c23:	ff 
    9c24:	83 85 8c f8 ff ff 01 	addl   $0x1,-0x774(%rbp)
    9c2b:	83 bd 8c f8 ff ff 05 	cmpl   $0x5,-0x774(%rbp)
    9c32:	7e d9                	jle    9c0d <func_42+0x411>
    9c34:	c7 85 1c f8 ff ff f5 	movl   $0xfffffff5,-0x7e4(%rbp)
    9c3b:	ff ff ff 
    9c3e:	e9 e5 06 00 00       	jmpq   a328 <func_42+0xb2c>
    9c43:	66 c7 85 42 f8 ff ff 	movw   $0x86dc,-0x7be(%rbp)
    9c4a:	dc 86 
    9c4c:	c7 85 38 f9 ff ff 1b 	movl   $0xb979511b,-0x6c8(%rbp)
    9c53:	51 79 b9 
    9c56:	c7 85 d8 f8 ff ff ab 	movl   $0xfc8ab5ab,-0x728(%rbp)
    9c5d:	b5 8a fc 
    9c60:	48 8d 05 c9 96 00 00 	lea    0x96c9(%rip),%rax        # 13330 <g_207+0x70>
    9c67:	48 89 85 28 fa ff ff 	mov    %rax,-0x5d8(%rbp)
    9c6e:	48 c7 85 30 fa ff ff 	movq   $0x0,-0x5d0(%rbp)
    9c75:	00 00 00 00 
    9c79:	c7 85 90 f8 ff ff 00 	movl   $0x0,-0x770(%rbp)
    9c80:	00 00 00 
    9c83:	eb 1a                	jmp    9c9f <func_42+0x4a3>
    9c85:	8b 85 90 f8 ff ff    	mov    -0x770(%rbp),%eax
    9c8b:	48 98                	cltq   
    9c8d:	c7 84 85 c0 fa ff ff 	movl   $0xfffffffd,-0x540(%rbp,%rax,4)
    9c94:	fd ff ff ff 
    9c98:	83 85 90 f8 ff ff 01 	addl   $0x1,-0x770(%rbp)
    9c9f:	83 bd 90 f8 ff ff 03 	cmpl   $0x3,-0x770(%rbp)
    9ca6:	7e dd                	jle    9c85 <func_42+0x489>
    9ca8:	66 c7 05 d7 96 00 00 	movw   $0x0,0x96d7(%rip)        # 13388 <g_234>
    9caf:	00 00 
    9cb1:	e9 3a 06 00 00       	jmpq   a2f0 <func_42+0xaf4>
    9cb6:	c6 85 30 f8 ff ff ff 	movb   $0xff,-0x7d0(%rbp)
    9cbd:	48 8d 05 b0 93 00 00 	lea    0x93b0(%rip),%rax        # 13074 <g_134+0x34>
    9cc4:	48 89 85 38 fa ff ff 	mov    %rax,-0x5c8(%rbp)
    9ccb:	48 b8 c5 ce d8 16 0b 	movabs $0x938c640b16d8cec5,%rax
    9cd2:	64 8c 93 
    9cd5:	48 89 85 50 f9 ff ff 	mov    %rax,-0x6b0(%rbp)
    9cdc:	c7 85 94 f8 ff ff 00 	movl   $0x0,-0x76c(%rbp)
    9ce3:	00 00 00 
    9ce6:	eb 1e                	jmp    9d06 <func_42+0x50a>
    9ce8:	8b 85 94 f8 ff ff    	mov    -0x76c(%rbp),%eax
    9cee:	48 98                	cltq   
    9cf0:	48 8d 95 7c f8 ff ff 	lea    -0x784(%rbp),%rdx
    9cf7:	48 89 94 c5 40 fd ff 	mov    %rdx,-0x2c0(%rbp,%rax,8)
    9cfe:	ff 
    9cff:	83 85 94 f8 ff ff 01 	addl   $0x1,-0x76c(%rbp)
    9d06:	83 bd 94 f8 ff ff 05 	cmpl   $0x5,-0x76c(%rbp)
    9d0d:	7e d9                	jle    9ce8 <func_42+0x4ec>
    9d0f:	66 0f be 85 18 f8 ff 	movsbw -0x7e8(%rbp),%ax
    9d16:	ff 
    9d17:	0f b7 d8             	movzwl %ax,%ebx
    9d1a:	48 8b 05 97 96 00 00 	mov    0x9697(%rip),%rax        # 133b8 <g_681>
    9d21:	48 85 c0             	test   %rax,%rax
    9d24:	0f 95 c0             	setne  %al
    9d27:	0f b6 c0             	movzbl %al,%eax
    9d2a:	89 85 14 f8 ff ff    	mov    %eax,-0x7ec(%rbp)
    9d30:	48 8b 05 31 95 00 00 	mov    0x9531(%rip),%rax        # 13268 <g_176+0x8>
    9d37:	44 0f bf e0          	movswl %ax,%r12d
    9d3b:	48 8b 3d ce 95 00 00 	mov    0x95ce(%rip),%rdi        # 13310 <g_207+0x50>
    9d42:	48 89 bd 08 f8 ff ff 	mov    %rdi,-0x7f8(%rbp)
    9d49:	44 8b ad a8 fc ff ff 	mov    -0x358(%rbp),%r13d
    9d50:	44 8b 35 29 96 00 00 	mov    0x9629(%rip),%r14d        # 13380 <g_230+0x10>
    9d57:	44 0f be bd 30 f8 ff 	movsbl -0x7d0(%rbp),%r15d
    9d5e:	ff 
    9d5f:	0f be 95 18 f8 ff ff 	movsbl -0x7e8(%rbp),%edx
    9d66:	48 8b 05 33 a2 00 00 	mov    0xa233(%rip),%rax        # 13fa0 <g_62>
    9d6d:	8b 00                	mov    (%rax),%eax
    9d6f:	89 d6                	mov    %edx,%esi
    9d71:	89 c7                	mov    %eax,%edi
    9d73:	e8 3e c8 ff ff       	callq  65b6 <safe_add_func_int32_t_s_s>
    9d78:	98                   	cwtl   
    9d79:	44 89 fe             	mov    %r15d,%esi
    9d7c:	89 c7                	mov    %eax,%edi
    9d7e:	e8 a7 c7 ff ff       	callq  652a <safe_rshift_func_int16_t_s_s>
    9d83:	0f b7 85 42 f8 ff ff 	movzwl -0x7be(%rbp),%eax
    9d8a:	0f be 95 18 f8 ff ff 	movsbl -0x7e8(%rbp),%edx
    9d91:	83 e2 01             	and    $0x1,%edx
    9d94:	39 d0                	cmp    %edx,%eax
    9d96:	0f 9e c0             	setle  %al
    9d99:	0f b6 c0             	movzbl %al,%eax
    9d9c:	44 89 f6             	mov    %r14d,%esi
    9d9f:	89 c7                	mov    %eax,%edi
    9da1:	e8 e7 ce ff ff       	callq  6c8d <safe_rshift_func_uint8_t_u_s>
    9da6:	f7 d0                	not    %eax
    9da8:	0f b6 c0             	movzbl %al,%eax
    9dab:	44 89 ee             	mov    %r13d,%esi
    9dae:	89 c7                	mov    %eax,%edi
    9db0:	e8 97 ce ff ff       	callq  6c4c <safe_lshift_func_uint8_t_u_u>
    9db5:	89 c2                	mov    %eax,%edx
    9db7:	48 8b 05 5a b1 00 00 	mov    0xb15a(%rip),%rax        # 14f18 <g_738>
    9dbe:	48 8b 00             	mov    (%rax),%rax
    9dc1:	0f b6 d2             	movzbl %dl,%edx
    9dc4:	89 10                	mov    %edx,(%rax)
    9dc6:	8b 00                	mov    (%rax),%eax
    9dc8:	8b 95 1c f8 ff ff    	mov    -0x7e4(%rbp),%edx
    9dce:	39 d0                	cmp    %edx,%eax
    9dd0:	0f 92 c0             	setb   %al
    9dd3:	0f b6 c0             	movzbl %al,%eax
    9dd6:	be 05 00 00 00       	mov    $0x5,%esi
    9ddb:	89 c7                	mov    %eax,%edi
    9ddd:	e8 48 c7 ff ff       	callq  652a <safe_rshift_func_int16_t_s_s>
    9de2:	48 0f bf c0          	movswq %ax,%rax
    9de6:	48 0b 85 08 f8 ff ff 	or     -0x7f8(%rbp),%rax
    9ded:	8b 95 50 f8 ff ff    	mov    -0x7b0(%rbp),%edx
    9df3:	89 d2                	mov    %edx,%edx
    9df5:	48 39 d0             	cmp    %rdx,%rax
    9df8:	0f 9c c0             	setl   %al
    9dfb:	0f b6 c0             	movzbl %al,%eax
    9dfe:	f7 d0                	not    %eax
    9e00:	89 c2                	mov    %eax,%edx
    9e02:	0f be 85 30 f8 ff ff 	movsbl -0x7d0(%rbp),%eax
    9e09:	21 d0                	and    %edx,%eax
    9e0b:	85 c0                	test   %eax,%eax
    9e0d:	0f 95 c0             	setne  %al
    9e10:	0f b6 c0             	movzbl %al,%eax
    9e13:	44 89 e6             	mov    %r12d,%esi
    9e16:	89 c7                	mov    %eax,%edi
    9e18:	e8 f9 c5 ff ff       	callq  6416 <safe_mod_func_int16_t_s_s>
    9e1d:	98                   	cwtl   
    9e1e:	39 85 14 f8 ff ff    	cmp    %eax,-0x7ec(%rbp)
    9e24:	75 09                	jne    9e2f <func_42+0x633>
    9e26:	80 bd 18 f8 ff ff 00 	cmpb   $0x0,-0x7e8(%rbp)
    9e2d:	74 07                	je     9e36 <func_42+0x63a>
    9e2f:	b8 01 00 00 00       	mov    $0x1,%eax
    9e34:	eb 05                	jmp    9e3b <func_42+0x63f>
    9e36:	b8 00 00 00 00       	mov    $0x0,%eax
    9e3b:	0f b7 c0             	movzwl %ax,%eax
    9e3e:	89 de                	mov    %ebx,%esi
    9e40:	89 c7                	mov    %eax,%edi
    9e42:	e8 b8 ce ff ff       	callq  6cff <safe_add_func_uint16_t_u_u>
    9e47:	83 c8 02             	or     $0x2,%eax
    9e4a:	0f b6 c0             	movzbl %al,%eax
    9e4d:	be 00 00 00 00       	mov    $0x0,%esi
    9e52:	89 c7                	mov    %eax,%edi
    9e54:	e8 1f cd ff ff       	callq  6b78 <safe_sub_func_uint8_t_u_u>
    9e59:	84 c0                	test   %al,%al
    9e5b:	0f 84 e0 00 00 00    	je     9f41 <func_42+0x745>
    9e61:	48 8d 05 c4 91 00 00 	lea    0x91c4(%rip),%rax        # 1302c <g_88>
    9e68:	48 89 85 40 fa ff ff 	mov    %rax,-0x5c0(%rbp)
    9e6f:	48 8d 85 38 f9 ff ff 	lea    -0x6c8(%rbp),%rax
    9e76:	48 89 85 48 fa ff ff 	mov    %rax,-0x5b8(%rbp)
    9e7d:	48 8d 05 a8 91 00 00 	lea    0x91a8(%rip),%rax        # 1302c <g_88>
    9e84:	48 89 85 50 fa ff ff 	mov    %rax,-0x5b0(%rbp)
    9e8b:	c7 85 dc f8 ff ff b5 	movl   $0x90e520b5,-0x724(%rbp)
    9e92:	20 e5 90 
    9e95:	c7 85 98 f8 ff ff 00 	movl   $0x0,-0x768(%rbp)
    9e9c:	00 00 00 
    9e9f:	eb 1b                	jmp    9ebc <func_42+0x6c0>
    9ea1:	8b 85 98 f8 ff ff    	mov    -0x768(%rbp),%eax
    9ea7:	48 98                	cltq   
    9ea9:	48 c7 84 c5 60 fb ff 	movq   $0x0,-0x4a0(%rbp,%rax,8)
    9eb0:	ff 00 00 00 00 
    9eb5:	83 85 98 f8 ff ff 01 	addl   $0x1,-0x768(%rbp)
    9ebc:	83 bd 98 f8 ff ff 04 	cmpl   $0x4,-0x768(%rbp)
    9ec3:	7e dc                	jle    9ea1 <func_42+0x6a5>
    9ec5:	83 ad 84 f8 ff ff 01 	subl   $0x1,-0x77c(%rbp)
    9ecc:	48 8d 85 1c f8 ff ff 	lea    -0x7e4(%rbp),%rax
    9ed3:	48 89 85 60 fd ff ff 	mov    %rax,-0x2a0(%rbp)
    9eda:	8b 85 1c f8 ff ff    	mov    -0x7e4(%rbp),%eax
    9ee0:	85 c0                	test   %eax,%eax
    9ee2:	0f 85 19 04 00 00    	jne    a301 <func_42+0xb05>
    9ee8:	66 83 ad 34 f8 ff ff 	subw   $0x1,-0x7cc(%rbp)
    9eef:	01 
    9ef0:	0f b7 95 42 f8 ff ff 	movzwl -0x7be(%rbp),%edx
    9ef7:	48 8b 85 58 f9 ff ff 	mov    -0x6a8(%rbp),%rax
    9efe:	89 10                	mov    %edx,(%rax)
    9f00:	4c 0f be bd 18 f8 ff 	movsbq -0x7e8(%rbp),%r15
    9f07:	ff 
    9f08:	0f be 9d 18 f8 ff ff 	movsbl -0x7e8(%rbp),%ebx
    9f0f:	8b 05 13 91 00 00    	mov    0x9113(%rip),%eax        # 13028 <g_63>
    9f15:	44 0f bf e0          	movswl %ax,%r12d
    9f19:	44 0f be ad 18 f8 ff 	movsbl -0x7e8(%rbp),%r13d
    9f20:	ff 
    9f21:	48 8b 85 58 f9 ff ff 	mov    -0x6a8(%rbp),%rax
    9f28:	44 8b 30             	mov    (%rax),%r14d
    9f2b:	0f b7 05 68 94 00 00 	movzwl 0x9468(%rip),%eax        # 1339a <g_282+0xa>
    9f32:	0f bf d0             	movswl %ax,%edx
    9f35:	8b 85 1c f8 ff ff    	mov    -0x7e4(%rbp),%eax
    9f3b:	39 c2                	cmp    %eax,%edx
    9f3d:	7e 20                	jle    9f5f <func_42+0x763>
    9f3f:	eb 0b                	jmp    9f4c <func_42+0x750>
    9f41:	8b 05 e9 90 00 00    	mov    0x90e9(%rip),%eax        # 13030 <g_111>
    9f47:	e9 58 1f 00 00       	jmpq   bea4 <func_42+0x26a8>
    9f4c:	48 8b 05 55 93 00 00 	mov    0x9355(%rip),%rax        # 132a8 <g_176+0x48>
    9f53:	48 85 c0             	test   %rax,%rax
    9f56:	74 07                	je     9f5f <func_42+0x763>
    9f58:	b8 01 00 00 00       	mov    $0x1,%eax
    9f5d:	eb 05                	jmp    9f64 <func_42+0x768>
    9f5f:	b8 00 00 00 00       	mov    $0x0,%eax
    9f64:	0f be c0             	movsbl %al,%eax
    9f67:	be 00 00 00 00       	mov    $0x0,%esi
    9f6c:	89 c7                	mov    %eax,%edi
    9f6e:	e8 2e c3 ff ff       	callq  62a1 <safe_lshift_func_int8_t_s_s>
    9f73:	0f be c0             	movsbl %al,%eax
    9f76:	be 06 00 00 00       	mov    $0x6,%esi
    9f7b:	89 c7                	mov    %eax,%edi
    9f7d:	e8 b3 c3 ff ff       	callq  6335 <safe_rshift_func_int8_t_s_s>
    9f82:	0f be d0             	movsbl %al,%edx
    9f85:	8b 85 1c f8 ff ff    	mov    -0x7e4(%rbp),%eax
    9f8b:	39 c2                	cmp    %eax,%edx
    9f8d:	0f 9f c0             	setg   %al
    9f90:	0f b6 c0             	movzbl %al,%eax
    9f93:	44 89 f6             	mov    %r14d,%esi
    9f96:	89 c7                	mov    %eax,%edi
    9f98:	e8 2f c7 ff ff       	callq  66cc <safe_mod_func_int32_t_s_s>
    9f9d:	0f be c0             	movsbl %al,%eax
    9fa0:	be 04 00 00 00       	mov    $0x4,%esi
    9fa5:	89 c7                	mov    %eax,%edi
    9fa7:	e8 28 c2 ff ff       	callq  61d4 <safe_add_func_int8_t_s_s>
    9fac:	44 89 ee             	mov    %r13d,%esi
    9faf:	bf d0 ff ff ff       	mov    $0xffffffd0,%edi
    9fb4:	e8 59 c2 ff ff       	callq  6212 <safe_mul_func_int8_t_s_s>
    9fb9:	48 8b 05 08 af 00 00 	mov    0xaf08(%rip),%rax        # 14ec8 <g_476>
    9fc0:	48 8b 00             	mov    (%rax),%rax
    9fc3:	48 8b 00             	mov    (%rax),%rax
    9fc6:	48 8b 00             	mov    (%rax),%rax
    9fc9:	48 8b 00             	mov    (%rax),%rax
    9fcc:	98                   	cwtl   
    9fcd:	44 89 e6             	mov    %r12d,%esi
    9fd0:	89 c7                	mov    %eax,%edi
    9fd2:	e8 7e c4 ff ff       	callq  6455 <safe_div_func_int16_t_s_s>
    9fd7:	0f b6 c0             	movzbl %al,%eax
    9fda:	89 c6                	mov    %eax,%esi
    9fdc:	bf 00 00 00 00       	mov    $0x0,%edi
    9fe1:	e8 ad cb ff ff       	callq  6b93 <safe_mul_func_uint8_t_u_u>
    9fe6:	ba 00 00 00 00       	mov    $0x0,%edx
    9feb:	48 8b 85 38 fa ff ff 	mov    -0x5c8(%rbp),%rax
    9ff2:	0f b7 00             	movzwl (%rax),%eax
    9ff5:	31 c2                	xor    %eax,%edx
    9ff7:	48 8b 85 38 fa ff ff 	mov    -0x5c8(%rbp),%rax
    9ffe:	66 89 10             	mov    %dx,(%rax)
    a001:	48 8b 85 38 fa ff ff 	mov    -0x5c8(%rbp),%rax
    a008:	0f b7 00             	movzwl (%rax),%eax
    a00b:	98                   	cwtl   
    a00c:	89 de                	mov    %ebx,%esi
    a00e:	89 c7                	mov    %eax,%edi
    a010:	e8 15 c5 ff ff       	callq  652a <safe_rshift_func_int16_t_s_s>
    a015:	48 0f bf d8          	movswq %ax,%rbx
    a019:	8b 85 1c fc ff ff    	mov    -0x3e4(%rbp),%eax
    a01f:	0f bf d0             	movswl %ax,%edx
    a022:	48 8d 05 b7 92 00 00 	lea    0x92b7(%rip),%rax        # 132e0 <g_207+0x20>
    a029:	48 39 85 28 fa ff ff 	cmp    %rax,-0x5d8(%rbp)
    a030:	0f 94 c0             	sete   %al
    a033:	0f b6 c0             	movzbl %al,%eax
    a036:	89 d6                	mov    %edx,%esi
    a038:	89 c7                	mov    %eax,%edi
    a03a:	e8 d7 c3 ff ff       	callq  6416 <safe_mod_func_int16_t_s_s>
    a03f:	48 0f bf c0          	movswq %ax,%rax
    a043:	48 89 de             	mov    %rbx,%rsi
    a046:	48 89 c7             	mov    %rax,%rdi
    a049:	e8 5a c8 ff ff       	callq  68a8 <safe_sub_func_int64_t_s_s>
    a04e:	49 39 c7             	cmp    %rax,%r15
    a051:	7f 10                	jg     a063 <func_42+0x867>
    a053:	80 bd 18 f8 ff ff 00 	cmpb   $0x0,-0x7e8(%rbp)
    a05a:	74 07                	je     a063 <func_42+0x867>
    a05c:	ba 01 00 00 00       	mov    $0x1,%edx
    a061:	eb 05                	jmp    a068 <func_42+0x86c>
    a063:	ba 00 00 00 00       	mov    $0x0,%edx
    a068:	8b 85 c8 fa ff ff    	mov    -0x538(%rbp),%eax
    a06e:	31 d0                	xor    %edx,%eax
    a070:	89 85 c8 fa ff ff    	mov    %eax,-0x538(%rbp)
    a076:	c6 85 30 f8 ff ff 00 	movb   $0x0,-0x7d0(%rbp)
    a07d:	e9 50 02 00 00       	jmpq   a2d2 <func_42+0xad6>
    a082:	48 c7 85 40 f9 ff ff 	movq   $0x0,-0x6c0(%rbp)
    a089:	00 00 00 00 
    a08d:	48 8d 85 40 f9 ff ff 	lea    -0x6c0(%rbp),%rax
    a094:	48 89 85 58 fa ff ff 	mov    %rax,-0x5a8(%rbp)
    a09b:	c7 85 9c f8 ff ff 00 	movl   $0x0,-0x764(%rbp)
    a0a2:	00 00 00 
    a0a5:	eb 1e                	jmp    a0c5 <func_42+0x8c9>
    a0a7:	8b 85 9c f8 ff ff    	mov    -0x764(%rbp),%eax
    a0ad:	48 98                	cltq   
    a0af:	48 8d 95 38 f9 ff ff 	lea    -0x6c8(%rbp),%rdx
    a0b6:	48 89 94 c5 60 fb ff 	mov    %rdx,-0x4a0(%rbp,%rax,8)
    a0bd:	ff 
    a0be:	83 85 9c f8 ff ff 01 	addl   $0x1,-0x764(%rbp)
    a0c5:	83 bd 9c f8 ff ff 02 	cmpl   $0x2,-0x764(%rbp)
    a0cc:	7e d9                	jle    a0a7 <func_42+0x8ab>
    a0ce:	48 c7 85 70 fb ff ff 	movq   $0x0,-0x490(%rbp)
    a0d5:	00 00 00 00 
    a0d9:	48 83 85 50 f9 ff ff 	addq   $0x1,-0x6b0(%rbp)
    a0e0:	01 
    a0e1:	8b 85 dc fb ff ff    	mov    -0x424(%rbp),%eax
    a0e7:	0f be d8             	movsbl %al,%ebx
    a0ea:	48 8b 05 1f ae 00 00 	mov    0xae1f(%rip),%rax        # 14f10 <g_739>
    a0f1:	8b 10                	mov    (%rax),%edx
    a0f3:	83 c2 01             	add    $0x1,%edx
    a0f6:	89 10                	mov    %edx,(%rax)
    a0f8:	8b 00                	mov    (%rax),%eax
    a0fa:	88 85 14 f8 ff ff    	mov    %al,-0x7ec(%rbp)
    a100:	8b 85 1c f8 ff ff    	mov    -0x7e4(%rbp),%eax
    a106:	44 0f be e0          	movsbl %al,%r12d
    a10a:	8b 85 1c f8 ff ff    	mov    -0x7e4(%rbp),%eax
    a110:	85 c0                	test   %eax,%eax
    a112:	0f 85 4b 01 00 00    	jne    a263 <func_42+0xa67>
    a118:	48 8b 05 81 ad 00 00 	mov    0xad81(%rip),%rax        # 14ea0 <g_370>
    a11f:	48 8b 00             	mov    (%rax),%rax
    a122:	48 8b 00             	mov    (%rax),%rax
    a125:	49 89 c7             	mov    %rax,%r15
    a128:	0f b7 05 59 92 00 00 	movzwl 0x9259(%rip),%eax        # 13388 <g_234>
    a12f:	44 0f b7 e8          	movzwl %ax,%r13d
    a133:	48 8b 85 58 fa ff ff 	mov    -0x5a8(%rbp),%rax
    a13a:	48 8d 15 3f 92 00 00 	lea    0x923f(%rip),%rdx        # 13380 <g_230+0x10>
    a141:	48 89 10             	mov    %rdx,(%rax)
    a144:	8b 85 d8 f8 ff ff    	mov    -0x728(%rbp),%eax
    a14a:	44 0f bf f0          	movswl %ax,%r14d
    a14e:	b8 30 64 00 00       	mov    $0x6430,%eax
    a153:	98                   	cwtl   
    a154:	89 c6                	mov    %eax,%esi
    a156:	bf 01 00 00 00       	mov    $0x1,%edi
    a15b:	e8 53 c2 ff ff       	callq  63b3 <safe_add_func_int16_t_s_s>
    a160:	98                   	cwtl   
    a161:	89 c6                	mov    %eax,%esi
    a163:	bf 01 00 00 00       	mov    $0x1,%edi
    a168:	e8 63 cd ff ff       	callq  6ed0 <safe_sub_func_uint32_t_u_u>
    a16d:	0f b6 c0             	movzbl %al,%eax
    a170:	be 00 00 00 00       	mov    $0x0,%esi
    a175:	89 c7                	mov    %eax,%edi
    a177:	e8 fc c9 ff ff       	callq  6b78 <safe_sub_func_uint8_t_u_u>
    a17c:	0f b6 d0             	movzbl %al,%edx
    a17f:	8b 85 54 f8 ff ff    	mov    -0x7ac(%rbp),%eax
    a185:	98                   	cwtl   
    a186:	89 d6                	mov    %edx,%esi
    a188:	89 c7                	mov    %eax,%edi
    a18a:	e8 52 c3 ff ff       	callq  64e1 <safe_lshift_func_int16_t_s_u>
    a18f:	66 83 f8 01          	cmp    $0x1,%ax
    a193:	0f 95 c0             	setne  %al
    a196:	0f b6 c0             	movzbl %al,%eax
    a199:	44 89 f6             	mov    %r14d,%esi
    a19c:	89 c7                	mov    %eax,%edi
    a19e:	e8 b2 c2 ff ff       	callq  6455 <safe_div_func_int16_t_s_s>
    a1a3:	48 8b 05 1e ad 00 00 	mov    0xad1e(%rip),%rax        # 14ec8 <g_476>
    a1aa:	48 8b 00             	mov    (%rax),%rax
    a1ad:	48 85 c0             	test   %rax,%rax
    a1b0:	74 13                	je     a1c5 <func_42+0x9c9>
    a1b2:	0f b7 05 ed 91 00 00 	movzwl 0x91ed(%rip),%eax        # 133a6 <g_282+0x16>
    a1b9:	66 85 c0             	test   %ax,%ax
    a1bc:	74 07                	je     a1c5 <func_42+0x9c9>
    a1be:	ba 01 00 00 00       	mov    $0x1,%edx
    a1c3:	eb 05                	jmp    a1ca <func_42+0x9ce>
    a1c5:	ba 00 00 00 00       	mov    $0x0,%edx
    a1ca:	8b 85 c0 fa ff ff    	mov    -0x540(%rbp),%eax
    a1d0:	39 c2                	cmp    %eax,%edx
    a1d2:	0f 95 c0             	setne  %al
    a1d5:	0f b6 d0             	movzbl %al,%edx
    a1d8:	48 8b 85 28 fa ff ff 	mov    -0x5d8(%rbp),%rax
    a1df:	48 89 10             	mov    %rdx,(%rax)
    a1e2:	0f be 85 18 f8 ff ff 	movsbl -0x7e8(%rbp),%eax
    a1e9:	89 c6                	mov    %eax,%esi
    a1eb:	bf 50 00 00 00       	mov    $0x50,%edi
    a1f0:	e8 df bf ff ff       	callq  61d4 <safe_add_func_int8_t_s_s>
    a1f5:	84 c0                	test   %al,%al
    a1f7:	0f 94 c0             	sete   %al
    a1fa:	0f b6 c0             	movzbl %al,%eax
    a1fd:	44 89 ee             	mov    %r13d,%esi
    a200:	89 c7                	mov    %eax,%edi
    a202:	e8 36 cb ff ff       	callq  6d3d <safe_mul_func_uint16_t_u_u>
    a207:	66 85 c0             	test   %ax,%ax
    a20a:	74 1c                	je     a228 <func_42+0xa2c>
    a20c:	48 8b 05 ad ac 00 00 	mov    0xacad(%rip),%rax        # 14ec0 <g_477>
    a213:	48 8b 00             	mov    (%rax),%rax
    a216:	48 8b 00             	mov    (%rax),%rax
    a219:	48 8b 00             	mov    (%rax),%rax
    a21c:	48 85 c0             	test   %rax,%rax
    a21f:	74 07                	je     a228 <func_42+0xa2c>
    a221:	ba 01 00 00 00       	mov    $0x1,%edx
    a226:	eb 05                	jmp    a22d <func_42+0xa31>
    a228:	ba 00 00 00 00       	mov    $0x0,%edx
    a22d:	8b 85 54 f8 ff ff    	mov    -0x7ac(%rbp),%eax
    a233:	39 c2                	cmp    %eax,%edx
    a235:	0f 9c c0             	setl   %al
    a238:	0f b6 c0             	movzbl %al,%eax
    a23b:	89 c7                	mov    %eax,%edi
    a23d:	e8 5b c1 ff ff       	callq  639d <safe_unary_minus_func_int16_t_s>
    a242:	66 0f be 95 18 f8 ff 	movsbw -0x7e8(%rbp),%dx
    a249:	ff 
    a24a:	66 39 d0             	cmp    %dx,%ax
    a24d:	0f 9c c0             	setl   %al
    a250:	0f b6 c0             	movzbl %al,%eax
    a253:	4c 89 fe             	mov    %r15,%rsi
    a256:	48 89 c7             	mov    %rax,%rdi
    a259:	e8 4a c6 ff ff       	callq  68a8 <safe_sub_func_int64_t_s_s>
    a25e:	48 85 c0             	test   %rax,%rax
    a261:	74 07                	je     a26a <func_42+0xa6e>
    a263:	b8 01 00 00 00       	mov    $0x1,%eax
    a268:	eb 05                	jmp    a26f <func_42+0xa73>
    a26a:	b8 00 00 00 00       	mov    $0x0,%eax
    a26f:	3b 85 d4 f8 ff ff    	cmp    -0x72c(%rbp),%eax
    a275:	0f 9c c0             	setl   %al
    a278:	0f b6 d0             	movzbl %al,%edx
    a27b:	48 8b 05 de 8f 00 00 	mov    0x8fde(%rip),%rax        # 13260 <g_176>
    a282:	48 39 c2             	cmp    %rax,%rdx
    a285:	0f 96 c0             	setbe  %al
    a288:	0f b6 d0             	movzbl %al,%edx
    a28b:	0f b7 85 34 f8 ff ff 	movzwl -0x7cc(%rbp),%eax
    a292:	39 c2                	cmp    %eax,%edx
    a294:	0f 9d c0             	setge  %al
    a297:	0f b6 c0             	movzbl %al,%eax
    a29a:	44 89 e6             	mov    %r12d,%esi
    a29d:	89 c7                	mov    %eax,%edi
    a29f:	e8 6e bf ff ff       	callq  6212 <safe_mul_func_int8_t_s_s>
    a2a4:	32 85 14 f8 ff ff    	xor    -0x7ec(%rbp),%al
    a2aa:	0f be c0             	movsbl %al,%eax
    a2ad:	89 de                	mov    %ebx,%esi
    a2af:	89 c7                	mov    %eax,%edi
    a2b1:	e8 5c bf ff ff       	callq  6212 <safe_mul_func_int8_t_s_s>
    a2b6:	0f be d0             	movsbl %al,%edx
    a2b9:	48 8b 85 58 f9 ff ff 	mov    -0x6a8(%rbp),%rax
    a2c0:	89 10                	mov    %edx,(%rax)
    a2c2:	0f b6 85 30 f8 ff ff 	movzbl -0x7d0(%rbp),%eax
    a2c9:	83 c0 01             	add    $0x1,%eax
    a2cc:	88 85 30 f8 ff ff    	mov    %al,-0x7d0(%rbp)
    a2d2:	80 bd 30 f8 ff ff 08 	cmpb   $0x8,-0x7d0(%rbp)
    a2d9:	0f 8f a3 fd ff ff    	jg     a082 <func_42+0x886>
    a2df:	0f b7 05 a2 90 00 00 	movzwl 0x90a2(%rip),%eax        # 13388 <g_234>
    a2e6:	83 c0 01             	add    $0x1,%eax
    a2e9:	66 89 05 98 90 00 00 	mov    %ax,0x9098(%rip)        # 13388 <g_234>
    a2f0:	0f b7 05 91 90 00 00 	movzwl 0x9091(%rip),%eax        # 13388 <g_234>
    a2f7:	66 83 f8 0e          	cmp    $0xe,%ax
    a2fb:	0f 8f b5 f9 ff ff    	jg     9cb6 <func_42+0x4ba>
    a301:	80 bd 18 f8 ff ff 00 	cmpb   $0x0,-0x7e8(%rbp)
    a308:	75 2f                	jne    a339 <func_42+0xb3d>
    a30a:	8b 85 1c f8 ff ff    	mov    -0x7e4(%rbp),%eax
    a310:	0f b7 c0             	movzwl %ax,%eax
    a313:	be 05 00 00 00       	mov    $0x5,%esi
    a318:	89 c7                	mov    %eax,%edi
    a31a:	e8 00 ca ff ff       	callq  6d1f <safe_sub_func_uint16_t_u_u>
    a31f:	0f b7 c0             	movzwl %ax,%eax
    a322:	89 85 1c f8 ff ff    	mov    %eax,-0x7e4(%rbp)
    a328:	8b 85 1c f8 ff ff    	mov    -0x7e4(%rbp),%eax
    a32e:	83 f8 e6             	cmp    $0xffffffe6,%eax
    a331:	0f 8c 0c f9 ff ff    	jl     9c43 <func_42+0x447>
    a337:	eb 01                	jmp    a33a <func_42+0xb3e>
    a339:	90                   	nop
    a33a:	c7 85 1c f8 ff ff 06 	movl   $0x6,-0x7e4(%rbp)
    a341:	00 00 00 
    a344:	e9 1d 05 00 00       	jmpq   a866 <func_42+0x106a>
    a349:	48 8d 05 70 90 00 00 	lea    0x9070(%rip),%rax        # 133c0 <g_883>
    a350:	48 89 85 60 fa ff ff 	mov    %rax,-0x5a0(%rbp)
    a357:	c7 85 c0 fa ff ff 89 	movl   $0x2addb789,-0x540(%rbp)
    a35e:	b7 dd 2a 
    a361:	c7 85 c4 fa ff ff 89 	movl   $0x2addb789,-0x53c(%rbp)
    a368:	b7 dd 2a 
    a36b:	c7 85 c8 fa ff ff 89 	movl   $0x2addb789,-0x538(%rbp)
    a372:	b7 dd 2a 
    a375:	c7 85 cc fa ff ff 89 	movl   $0x2addb789,-0x534(%rbp)
    a37c:	b7 dd 2a 
    a37f:	c7 85 d0 fa ff ff 89 	movl   $0x2addb789,-0x530(%rbp)
    a386:	b7 dd 2a 
    a389:	c7 85 50 f8 ff ff 00 	movl   $0x0,-0x7b0(%rbp)
    a390:	00 00 00 
    a393:	e9 b0 04 00 00       	jmpq   a848 <func_42+0x104c>
    a398:	48 8d 05 01 ab 00 00 	lea    0xab01(%rip),%rax        # 14ea0 <g_370>
    a39f:	48 89 85 68 fa ff ff 	mov    %rax,-0x598(%rbp)
    a3a6:	48 c7 85 70 fa ff ff 	movq   $0x0,-0x590(%rbp)
    a3ad:	00 00 00 00 
    a3b1:	c7 85 e0 f8 ff ff ff 	movl   $0xffffffff,-0x720(%rbp)
    a3b8:	ff ff ff 
    a3bb:	c7 85 a0 f8 ff ff 00 	movl   $0x0,-0x760(%rbp)
    a3c2:	00 00 00 
    a3c5:	eb 1e                	jmp    a3e5 <func_42+0xbe9>
    a3c7:	8b 85 a0 f8 ff ff    	mov    -0x760(%rbp),%eax
    a3cd:	48 98                	cltq   
    a3cf:	48 8d 95 7c f8 ff ff 	lea    -0x784(%rbp),%rdx
    a3d6:	48 89 94 c5 60 fb ff 	mov    %rdx,-0x4a0(%rbp,%rax,8)
    a3dd:	ff 
    a3de:	83 85 a0 f8 ff ff 01 	addl   $0x1,-0x760(%rbp)
    a3e5:	83 bd a0 f8 ff ff 02 	cmpl   $0x2,-0x760(%rbp)
    a3ec:	7e d9                	jle    a3c7 <func_42+0xbcb>
    a3ee:	c7 05 38 8c 00 00 00 	movl   $0x0,0x8c38(%rip)        # 13030 <g_111>
    a3f5:	00 00 00 
    a3f8:	e9 77 01 00 00       	jmpq   a574 <func_42+0xd78>
    a3fd:	48 8d 05 9c aa 00 00 	lea    0xaa9c(%rip),%rax        # 14ea0 <g_370>
    a404:	48 89 85 80 fa ff ff 	mov    %rax,-0x580(%rbp)
    a40b:	c7 85 ec f8 ff ff ff 	movl   $0xffffffff,-0x714(%rbp)
    a412:	ff ff ff 
    a415:	c7 85 a4 f8 ff ff 00 	movl   $0x0,-0x75c(%rbp)
    a41c:	00 00 00 
    a41f:	eb 1e                	jmp    a43f <func_42+0xc43>
    a421:	8b 85 a4 f8 ff ff    	mov    -0x75c(%rbp),%eax
    a427:	48 98                	cltq   
    a429:	48 8d 15 7c 8f 00 00 	lea    0x8f7c(%rip),%rdx        # 133ac <g_299>
    a430:	48 89 94 c5 40 fd ff 	mov    %rdx,-0x2c0(%rbp,%rax,8)
    a437:	ff 
    a438:	83 85 a4 f8 ff ff 01 	addl   $0x1,-0x75c(%rbp)
    a43f:	83 bd a4 f8 ff ff 07 	cmpl   $0x7,-0x75c(%rbp)
    a446:	7e d9                	jle    a421 <func_42+0xc25>
    a448:	48 8b 85 58 f9 ff ff 	mov    -0x6a8(%rbp),%rax
    a44f:	8b 00                	mov    (%rax),%eax
    a451:	89 c1                	mov    %eax,%ecx
    a453:	8b 05 d7 8b 00 00    	mov    0x8bd7(%rip),%eax        # 13030 <g_111>
    a459:	8d 50 02             	lea    0x2(%rax),%edx
    a45c:	8b 05 ce 8b 00 00    	mov    0x8bce(%rip),%eax        # 13030 <g_111>
    a462:	83 c0 01             	add    $0x1,%eax
    a465:	89 c6                	mov    %eax,%esi
    a467:	89 d2                	mov    %edx,%edx
    a469:	48 89 d0             	mov    %rdx,%rax
    a46c:	48 c1 e0 03          	shl    $0x3,%rax
    a470:	48 01 d0             	add    %rdx,%rax
    a473:	48 01 f0             	add    %rsi,%rax
    a476:	8b 84 85 40 fc ff ff 	mov    -0x3c0(%rbp,%rax,4),%eax
    a47d:	21 c8                	and    %ecx,%eax
    a47f:	89 c2                	mov    %eax,%edx
    a481:	48 8b 85 58 f9 ff ff 	mov    -0x6a8(%rbp),%rax
    a488:	89 10                	mov    %edx,(%rax)
    a48a:	8b 95 50 f8 ff ff    	mov    -0x7b0(%rbp),%edx
    a490:	8b 85 50 f8 ff ff    	mov    -0x7b0(%rbp),%eax
    a496:	83 c0 01             	add    $0x1,%eax
    a499:	89 c1                	mov    %eax,%ecx
    a49b:	89 d2                	mov    %edx,%edx
    a49d:	48 89 d0             	mov    %rdx,%rax
    a4a0:	48 c1 e0 03          	shl    $0x3,%rax
    a4a4:	48 01 d0             	add    %rdx,%rax
    a4a7:	48 01 c8             	add    %rcx,%rax
    a4aa:	8b 84 85 40 fc ff ff 	mov    -0x3c0(%rbp,%rax,4),%eax
    a4b1:	89 c3                	mov    %eax,%ebx
    a4b3:	48 8b 85 30 fb ff ff 	mov    -0x4d0(%rbp),%rax
    a4ba:	48 85 c0             	test   %rax,%rax
    a4bd:	0f 95 c0             	setne  %al
    a4c0:	0f b6 d0             	movzbl %al,%edx
    a4c3:	8b 05 67 8b 00 00    	mov    0x8b67(%rip),%eax        # 13030 <g_111>
    a4c9:	8d 48 02             	lea    0x2(%rax),%ecx
    a4cc:	8b 05 5e 8b 00 00    	mov    0x8b5e(%rip),%eax        # 13030 <g_111>
    a4d2:	83 c0 05             	add    $0x5,%eax
    a4d5:	89 c6                	mov    %eax,%esi
    a4d7:	89 c9                	mov    %ecx,%ecx
    a4d9:	48 89 c8             	mov    %rcx,%rax
    a4dc:	48 c1 e0 03          	shl    $0x3,%rax
    a4e0:	48 01 c8             	add    %rcx,%rax
    a4e3:	48 01 f0             	add    %rsi,%rax
    a4e6:	8b 84 85 40 fc ff ff 	mov    -0x3c0(%rbp,%rax,4),%eax
    a4ed:	39 c2                	cmp    %eax,%edx
    a4ef:	0f 97 c0             	seta   %al
    a4f2:	0f b6 c0             	movzbl %al,%eax
    a4f5:	48 89 c6             	mov    %rax,%rsi
    a4f8:	48 bf 59 63 a5 ea 49 	movabs $0x52b04649eaa56359,%rdi
    a4ff:	46 b0 52 
    a502:	e8 3a c3 ff ff       	callq  6841 <safe_add_func_int64_t_s_s>
    a507:	48 39 c3             	cmp    %rax,%rbx
    a50a:	0f 94 c0             	sete   %al
    a50d:	0f b6 c0             	movzbl %al,%eax
    a510:	89 c6                	mov    %eax,%esi
    a512:	bf ff ff ff ff       	mov    $0xffffffff,%edi
    a517:	e8 b7 be ff ff       	callq  63d3 <safe_sub_func_int16_t_s_s>
    a51c:	48 8b 85 80 fa ff ff 	mov    -0x580(%rbp),%rax
    a523:	48 3b 85 68 fa ff ff 	cmp    -0x598(%rbp),%rax
    a52a:	c7 85 ec f8 ff ff 13 	movl   $0xf713,-0x714(%rbp)
    a531:	f7 00 00 
    a534:	ba 00 00 00 00       	mov    $0x0,%edx
    a539:	48 8b 85 58 f9 ff ff 	mov    -0x6a8(%rbp),%rax
    a540:	8b 00                	mov    (%rax),%eax
    a542:	09 c2                	or     %eax,%edx
    a544:	48 8b 85 58 f9 ff ff 	mov    -0x6a8(%rbp),%rax
    a54b:	89 10                	mov    %edx,(%rax)
    a54d:	8b 85 1c f8 ff ff    	mov    -0x7e4(%rbp),%eax
    a553:	89 c2                	mov    %eax,%edx
    a555:	0f b7 85 36 f8 ff ff 	movzwl -0x7ca(%rbp),%eax
    a55c:	09 d0                	or     %edx,%eax
    a55e:	66 89 85 36 f8 ff ff 	mov    %ax,-0x7ca(%rbp)
    a565:	8b 05 c5 8a 00 00    	mov    0x8ac5(%rip),%eax        # 13030 <g_111>
    a56b:	83 c0 01             	add    $0x1,%eax
    a56e:	89 05 bc 8a 00 00    	mov    %eax,0x8abc(%rip)        # 13030 <g_111>
    a574:	8b 05 b6 8a 00 00    	mov    0x8ab6(%rip),%eax        # 13030 <g_111>
    a57a:	83 f8 02             	cmp    $0x2,%eax
    a57d:	0f 86 7a fe ff ff    	jbe    a3fd <func_42+0xc01>
    a583:	48 8b 85 60 fa ff ff 	mov    -0x5a0(%rbp),%rax
    a58a:	48 89 85 10 fb ff ff 	mov    %rax,-0x4f0(%rbp)
    a591:	48 8b 85 10 fb ff ff 	mov    -0x4f0(%rbp),%rax
    a598:	48 c7 85 70 fa ff ff 	movq   $0x0,-0x590(%rbp)
    a59f:	00 00 00 00 
    a5a3:	48 39 85 70 fa ff ff 	cmp    %rax,-0x590(%rbp)
    a5aa:	8b 05 f8 8d 00 00    	mov    0x8df8(%rip),%eax        # 133a8 <g_285>
    a5b0:	0f bf d0             	movswl %ax,%edx
    a5b3:	0f b7 8d 3a f8 ff ff 	movzwl -0x7c6(%rbp),%ecx
    a5ba:	48 8b b5 70 fb ff ff 	mov    -0x490(%rbp),%rsi
    a5c1:	48 8d 85 1c f8 ff ff 	lea    -0x7e4(%rbp),%rax
    a5c8:	48 39 c6             	cmp    %rax,%rsi
    a5cb:	0f 94 c0             	sete   %al
    a5ce:	0f b6 f0             	movzbl %al,%esi
    a5d1:	0f be 85 18 f8 ff ff 	movsbl -0x7e8(%rbp),%eax
    a5d8:	39 c6                	cmp    %eax,%esi
    a5da:	0f 95 c0             	setne  %al
    a5dd:	0f b6 c0             	movzbl %al,%eax
    a5e0:	39 c1                	cmp    %eax,%ecx
    a5e2:	0f 9d c0             	setge  %al
    a5e5:	0f b6 c0             	movzbl %al,%eax
    a5e8:	89 d6                	mov    %edx,%esi
    a5ea:	89 c7                	mov    %eax,%edi
    a5ec:	e8 04 be ff ff       	callq  63f5 <safe_mul_func_int16_t_s_s>
    a5f1:	0f bf d0             	movswl %ax,%edx
    a5f4:	8b 85 d0 fa ff ff    	mov    -0x530(%rbp),%eax
    a5fa:	0f b6 c0             	movzbl %al,%eax
    a5fd:	89 d6                	mov    %edx,%esi
    a5ff:	89 c7                	mov    %eax,%edi
    a601:	e8 ff c5 ff ff       	callq  6c05 <safe_lshift_func_uint8_t_u_s>
    a606:	48 8b 85 b0 fa ff ff 	mov    -0x550(%rbp),%rax
    a60d:	48 85 c0             	test   %rax,%rax
    a610:	0f 94 c0             	sete   %al
    a613:	0f b6 c0             	movzbl %al,%eax
    a616:	48 be 88 67 61 fa b7 	movabs $0x7fdb56b7fa616788,%rsi
    a61d:	56 db 7f 
    a620:	48 89 c7             	mov    %rax,%rdi
    a623:	e8 87 ca ff ff       	callq  70af <safe_div_func_uint64_t_u_u>
    a628:	89 c1                	mov    %eax,%ecx
    a62a:	8b 95 50 f8 ff ff    	mov    -0x7b0(%rbp),%edx
    a630:	8b 85 50 f8 ff ff    	mov    -0x7b0(%rbp),%eax
    a636:	83 c0 02             	add    $0x2,%eax
    a639:	89 c6                	mov    %eax,%esi
    a63b:	89 d2                	mov    %edx,%edx
    a63d:	48 89 d0             	mov    %rdx,%rax
    a640:	48 c1 e0 03          	shl    $0x3,%rax
    a644:	48 01 d0             	add    %rdx,%rax
    a647:	48 01 f0             	add    %rsi,%rax
    a64a:	8b 84 85 40 fc ff ff 	mov    -0x3c0(%rbp,%rax,4),%eax
    a651:	98                   	cwtl   
    a652:	89 ce                	mov    %ecx,%esi
    a654:	89 c7                	mov    %eax,%edi
    a656:	e8 08 bf ff ff       	callq  6563 <safe_rshift_func_int16_t_s_u>
    a65b:	8b 95 c4 fa ff ff    	mov    -0x53c(%rbp),%edx
    a661:	48 8b 85 58 f9 ff ff 	mov    -0x6a8(%rbp),%rax
    a668:	8b 00                	mov    (%rax),%eax
    a66a:	31 c2                	xor    %eax,%edx
    a66c:	48 8b 85 58 f9 ff ff 	mov    -0x6a8(%rbp),%rax
    a673:	89 10                	mov    %edx,(%rax)
    a675:	48 8b 05 24 a8 00 00 	mov    0xa824(%rip),%rax        # 14ea0 <g_370>
    a67c:	48 8b 00             	mov    (%rax),%rax
    a67f:	48 8b 00             	mov    (%rax),%rax
    a682:	48 85 c0             	test   %rax,%rax
    a685:	75 0f                	jne    a696 <func_42+0xe9a>
    a687:	48 8b 05 0a a8 00 00 	mov    0xa80a(%rip),%rax        # 14e98 <g_371>
    a68e:	48 8b 00             	mov    (%rax),%rax
    a691:	48 85 c0             	test   %rax,%rax
    a694:	74 75                	je     a70b <func_42+0xf0f>
    a696:	48 c7 85 40 f9 ff ff 	movq   $0x0,-0x6c0(%rbp)
    a69d:	00 00 00 00 
    a6a1:	48 8d 85 40 f9 ff ff 	lea    -0x6c0(%rbp),%rax
    a6a8:	48 89 85 78 fa ff ff 	mov    %rax,-0x588(%rbp)
    a6af:	c7 85 e4 f8 ff ff 10 	movl   $0xe6944d10,-0x71c(%rbp)
    a6b6:	4d 94 e6 
    a6b9:	c7 85 e8 f8 ff ff f7 	movl   $0xfffffff7,-0x718(%rbp)
    a6c0:	ff ff ff 
    a6c3:	48 8b 85 68 f9 ff ff 	mov    -0x698(%rbp),%rax
    a6ca:	48 3b 85 78 fa ff ff 	cmp    -0x588(%rbp),%rax
    a6d1:	0f 94 c0             	sete   %al
    a6d4:	0f b6 d0             	movzbl %al,%edx
    a6d7:	48 8b 85 58 f9 ff ff 	mov    -0x6a8(%rbp),%rax
    a6de:	89 10                	mov    %edx,(%rax)
    a6e0:	48 8b 85 58 f9 ff ff 	mov    -0x6a8(%rbp),%rax
    a6e7:	8b 00                	mov    (%rax),%eax
    a6e9:	89 85 dc fb ff ff    	mov    %eax,-0x424(%rbp)
    a6ef:	83 85 e8 f8 ff ff 01 	addl   $0x1,-0x718(%rbp)
    a6f6:	0f b6 85 2e f8 ff ff 	movzbl -0x7d2(%rbp),%eax
    a6fd:	83 e8 01             	sub    $0x1,%eax
    a700:	88 85 2e f8 ff ff    	mov    %al,-0x7d2(%rbp)
    a706:	e9 2e 01 00 00       	jmpq   a839 <func_42+0x103d>
    a70b:	48 8d 85 40 fd ff ff 	lea    -0x2c0(%rbp),%rax
    a712:	48 8d 15 27 51 00 00 	lea    0x5127(%rip),%rdx        # f840 <g_715+0x7e8>
    a719:	b9 46 00 00 00       	mov    $0x46,%ecx
    a71e:	48 89 c7             	mov    %rax,%rdi
    a721:	48 89 d6             	mov    %rdx,%rsi
    a724:	f3 48 a5             	rep movsq %ds:(%rsi),%es:(%rdi)
    a727:	0f b6 05 f6 88 00 00 	movzbl 0x88f6(%rip),%eax        # 13024 <g_8>
    a72e:	0f be c0             	movsbl %al,%eax
    a731:	be 0c 00 00 00       	mov    $0xc,%esi
    a736:	89 c7                	mov    %eax,%edi
    a738:	e8 ed bd ff ff       	callq  652a <safe_rshift_func_int16_t_s_s>
    a73d:	98                   	cwtl   
    a73e:	89 85 54 f8 ff ff    	mov    %eax,-0x7ac(%rbp)
    a744:	8b 85 54 f8 ff ff    	mov    -0x7ac(%rbp),%eax
    a74a:	89 c2                	mov    %eax,%edx
    a74c:	48 8b 85 60 fa ff ff 	mov    -0x5a0(%rbp),%rax
    a753:	88 10                	mov    %dl,(%rax)
    a755:	48 8b 85 60 fa ff ff 	mov    -0x5a0(%rbp),%rax
    a75c:	0f b6 00             	movzbl (%rax),%eax
    a75f:	44 0f b6 e0          	movzbl %al,%r12d
    a763:	8b 85 1c f8 ff ff    	mov    -0x7e4(%rbp),%eax
    a769:	41 89 c5             	mov    %eax,%r13d
    a76c:	48 8b 85 c8 fe ff ff 	mov    -0x138(%rbp),%rax
    a773:	0f be d8             	movsbl %al,%ebx
    a776:	48 8d 05 9b 9b 00 00 	lea    0x9b9b(%rip),%rax        # 14318 <g_241+0x338>
    a77d:	48 39 85 70 f9 ff ff 	cmp    %rax,-0x690(%rbp)
    a784:	0f 95 c0             	setne  %al
    a787:	0f b6 c0             	movzbl %al,%eax
    a78a:	be 00 00 00 00       	mov    $0x0,%esi
    a78f:	89 c7                	mov    %eax,%edi
    a791:	e8 94 bd ff ff       	callq  652a <safe_rshift_func_int16_t_s_s>
    a796:	0f be c0             	movsbl %al,%eax
    a799:	89 de                	mov    %ebx,%esi
    a79b:	89 c7                	mov    %eax,%edi
    a79d:	e8 70 ba ff ff       	callq  6212 <safe_mul_func_int8_t_s_s>
    a7a2:	0f be d0             	movsbl %al,%edx
    a7a5:	48 8b 85 58 f9 ff ff 	mov    -0x6a8(%rbp),%rax
    a7ac:	8b 00                	mov    (%rax),%eax
    a7ae:	39 c2                	cmp    %eax,%edx
    a7b0:	0f 9d c0             	setge  %al
    a7b3:	0f b6 c0             	movzbl %al,%eax
    a7b6:	44 89 ee             	mov    %r13d,%esi
    a7b9:	89 c7                	mov    %eax,%edi
    a7bb:	e8 10 c7 ff ff       	callq  6ed0 <safe_sub_func_uint32_t_u_u>
    a7c0:	41 39 c4             	cmp    %eax,%r12d
    a7c3:	0f 96 c0             	setbe  %al
    a7c6:	0f b6 d8             	movzbl %al,%ebx
    a7c9:	48 8b 05 f8 a6 00 00 	mov    0xa6f8(%rip),%rax        # 14ec8 <g_476>
    a7d0:	48 8b 00             	mov    (%rax),%rax
    a7d3:	48 8b 00             	mov    (%rax),%rax
    a7d6:	48 8b 00             	mov    (%rax),%rax
    a7d9:	48 8b 00             	mov    (%rax),%rax
    a7dc:	83 c8 02             	or     $0x2,%eax
    a7df:	0f b7 d0             	movzwl %ax,%edx
    a7e2:	66 0f be 85 18 f8 ff 	movsbw -0x7e8(%rbp),%ax
    a7e9:	ff 
    a7ea:	0f b7 c0             	movzwl %ax,%eax
    a7ed:	89 d6                	mov    %edx,%esi
    a7ef:	89 c7                	mov    %eax,%edi
    a7f1:	e8 98 c5 ff ff       	callq  6d8e <safe_div_func_uint16_t_u_u>
    a7f6:	66 85 c0             	test   %ax,%ax
    a7f9:	74 07                	je     a802 <func_42+0x1006>
    a7fb:	b8 01 00 00 00       	mov    $0x1,%eax
    a800:	eb 05                	jmp    a807 <func_42+0x100b>
    a802:	b8 00 00 00 00       	mov    $0x0,%eax
    a807:	0f be c0             	movsbl %al,%eax
    a80a:	89 de                	mov    %ebx,%esi
    a80c:	89 c7                	mov    %eax,%edi
    a80e:	e8 8e ba ff ff       	callq  62a1 <safe_lshift_func_int8_t_s_s>
    a813:	0f b6 c0             	movzbl %al,%eax
    a816:	be 05 00 00 00       	mov    $0x5,%esi
    a81b:	89 c7                	mov    %eax,%edi
    a81d:	e8 e3 c3 ff ff       	callq  6c05 <safe_lshift_func_uint8_t_u_s>
    a822:	0f b6 d0             	movzbl %al,%edx
    a825:	48 8b 85 58 f9 ff ff 	mov    -0x6a8(%rbp),%rax
    a82c:	89 10                	mov    %edx,(%rax)
    a82e:	8b 05 58 8b 00 00    	mov    0x8b58(%rip),%eax        # 1338c <g_269>
    a834:	e9 6b 16 00 00       	jmpq   bea4 <func_42+0x26a8>
    a839:	8b 85 50 f8 ff ff    	mov    -0x7b0(%rbp),%eax
    a83f:	83 c0 01             	add    $0x1,%eax
    a842:	89 85 50 f8 ff ff    	mov    %eax,-0x7b0(%rbp)
    a848:	8b 85 50 f8 ff ff    	mov    -0x7b0(%rbp),%eax
    a84e:	83 f8 06             	cmp    $0x6,%eax
    a851:	0f 86 41 fb ff ff    	jbe    a398 <func_42+0xb9c>
    a857:	8b 85 1c f8 ff ff    	mov    -0x7e4(%rbp),%eax
    a85d:	83 e8 01             	sub    $0x1,%eax
    a860:	89 85 1c f8 ff ff    	mov    %eax,-0x7e4(%rbp)
    a866:	8b 85 1c f8 ff ff    	mov    -0x7e4(%rbp),%eax
    a86c:	85 c0                	test   %eax,%eax
    a86e:	0f 89 d5 fa ff ff    	jns    a349 <func_42+0xb4d>
    a874:	b8 f5 58 44 aa       	mov    $0xaa4458f5,%eax
    a879:	98                   	cwtl   
    a87a:	8b 95 d4 f8 ff ff    	mov    -0x72c(%rbp),%edx
    a880:	89 d6                	mov    %edx,%esi
    a882:	89 c7                	mov    %eax,%edi
    a884:	e8 09 bc ff ff       	callq  6492 <safe_lshift_func_int16_t_s_s>
    a889:	44 0f bf e0          	movswl %ax,%r12d
    a88d:	0f b6 05 90 87 00 00 	movzbl 0x8790(%rip),%eax        # 13024 <g_8>
    a894:	66 98                	cbtw   
    a896:	0f b7 d8             	movzwl %ax,%ebx
    a899:	48 8d 05 78 a6 00 00 	lea    0xa678(%rip),%rax        # 14f18 <g_738>
    a8a0:	48 39 85 78 f9 ff ff 	cmp    %rax,-0x688(%rbp)
    a8a7:	0f 95 c0             	setne  %al
    a8aa:	44 0f b6 e8          	movzbl %al,%r13d
    a8ae:	0f b6 05 fb 8a 00 00 	movzbl 0x8afb(%rip),%eax        # 133b0 <g_421>
    a8b5:	84 c0                	test   %al,%al
    a8b7:	74 35                	je     a8ee <func_42+0x10f2>
    a8b9:	48 8b 05 50 a6 00 00 	mov    0xa650(%rip),%rax        # 14f10 <g_739>
    a8c0:	8b 10                	mov    (%rax),%edx
    a8c2:	48 8b 05 47 a6 00 00 	mov    0xa647(%rip),%rax        # 14f10 <g_739>
    a8c9:	83 f2 01             	xor    $0x1,%edx
    a8cc:	89 10                	mov    %edx,(%rax)
    a8ce:	8b 00                	mov    (%rax),%eax
    a8d0:	89 c2                	mov    %eax,%edx
    a8d2:	8b 05 a0 8a 00 00    	mov    0x8aa0(%rip),%eax        # 13378 <g_230+0x8>
    a8d8:	98                   	cwtl   
    a8d9:	89 d6                	mov    %edx,%esi
    a8db:	89 c7                	mov    %eax,%edi
    a8dd:	e8 48 bc ff ff       	callq  652a <safe_rshift_func_int16_t_s_s>
    a8e2:	66 85 c0             	test   %ax,%ax
    a8e5:	74 07                	je     a8ee <func_42+0x10f2>
    a8e7:	b8 01 00 00 00       	mov    $0x1,%eax
    a8ec:	eb 05                	jmp    a8f3 <func_42+0x10f7>
    a8ee:	b8 00 00 00 00       	mov    $0x0,%eax
    a8f3:	3b 85 d4 f8 ff ff    	cmp    -0x72c(%rbp),%eax
    a8f9:	0f 94 c0             	sete   %al
    a8fc:	0f b6 c0             	movzbl %al,%eax
    a8ff:	41 39 c5             	cmp    %eax,%r13d
    a902:	7e 07                	jle    a90b <func_42+0x110f>
    a904:	b8 5a b4 00 00       	mov    $0xb45a,%eax
    a909:	eb 05                	jmp    a910 <func_42+0x1114>
    a90b:	b8 5b b4 00 00       	mov    $0xb45b,%eax
    a910:	89 de                	mov    %ebx,%esi
    a912:	89 c7                	mov    %eax,%edi
    a914:	e8 75 c4 ff ff       	callq  6d8e <safe_div_func_uint16_t_u_u>
    a919:	c7 85 dc fb ff ff ff 	movl   $0xffffffff,-0x424(%rbp)
    a920:	ff ff ff 
    a923:	b8 01 00 00 00       	mov    $0x1,%eax
    a928:	44 39 e0             	cmp    %r12d,%eax
    a92b:	0f 95 c0             	setne  %al
    a92e:	0f b6 d0             	movzbl %al,%edx
    a931:	48 8b 85 58 f9 ff ff 	mov    -0x6a8(%rbp),%rax
    a938:	8b 00                	mov    (%rax),%eax
    a93a:	09 c2                	or     %eax,%edx
    a93c:	48 8b 85 58 f9 ff ff 	mov    -0x6a8(%rbp),%rax
    a943:	89 10                	mov    %edx,(%rax)
    a945:	e9 1c 14 00 00       	jmpq   bd66 <func_42+0x256a>
    a94a:	48 8d 05 d3 86 00 00 	lea    0x86d3(%rip),%rax        # 13024 <g_8>
    a951:	48 89 85 60 fb ff ff 	mov    %rax,-0x4a0(%rbp)
    a958:	48 8d 05 c5 86 00 00 	lea    0x86c5(%rip),%rax        # 13024 <g_8>
    a95f:	48 89 85 68 fb ff ff 	mov    %rax,-0x498(%rbp)
    a966:	48 8d 05 b7 86 00 00 	lea    0x86b7(%rip),%rax        # 13024 <g_8>
    a96d:	48 89 85 70 fb ff ff 	mov    %rax,-0x490(%rbp)
    a974:	48 8d 05 a9 86 00 00 	lea    0x86a9(%rip),%rax        # 13024 <g_8>
    a97b:	48 89 85 78 fb ff ff 	mov    %rax,-0x488(%rbp)
    a982:	48 8d 05 9b 86 00 00 	lea    0x869b(%rip),%rax        # 13024 <g_8>
    a989:	48 89 85 80 fb ff ff 	mov    %rax,-0x480(%rbp)
    a990:	48 8d 05 8d 86 00 00 	lea    0x868d(%rip),%rax        # 13024 <g_8>
    a997:	48 89 85 88 fb ff ff 	mov    %rax,-0x478(%rbp)
    a99e:	48 8d 85 60 fb ff ff 	lea    -0x4a0(%rbp),%rax
    a9a5:	48 83 c0 20          	add    $0x20,%rax
    a9a9:	48 89 85 38 f9 ff ff 	mov    %rax,-0x6c8(%rbp)
    a9b0:	48 8d 85 38 f9 ff ff 	lea    -0x6c8(%rbp),%rax
    a9b7:	48 89 85 80 f9 ff ff 	mov    %rax,-0x680(%rbp)
    a9be:	48 8d 85 10 f9 ff ff 	lea    -0x6f0(%rbp),%rax
    a9c5:	48 89 85 88 f9 ff ff 	mov    %rax,-0x678(%rbp)
    a9cc:	c7 85 c0 f8 ff ff f6 	movl   $0xfffffff6,-0x740(%rbp)
    a9d3:	ff ff ff 
    a9d6:	48 c7 85 90 f9 ff ff 	movq   $0x0,-0x670(%rbp)
    a9dd:	00 00 00 00 
    a9e1:	c6 85 60 f8 ff ff 05 	movb   $0x5,-0x7a0(%rbp)
    a9e8:	c7 45 c1 49 49 49 49 	movl   $0x49494949,-0x3f(%rbp)
    a9ef:	66 c7 45 c5 49 49    	movw   $0x4949,-0x3b(%rbp)
    a9f5:	c6 45 c7 49          	movb   $0x49,-0x39(%rbp)
    a9f9:	48 8d 05 30 89 00 00 	lea    0x8930(%rip),%rax        # 13330 <g_207+0x70>
    aa00:	48 89 85 98 f9 ff ff 	mov    %rax,-0x668(%rbp)
    aa07:	66 c7 85 3c f8 ff ff 	movw   $0xfffd,-0x7c4(%rbp)
    aa0e:	fd ff 
    aa10:	48 8d 85 c0 fa ff ff 	lea    -0x540(%rbp),%rax
    aa17:	48 83 c0 10          	add    $0x10,%rax
    aa1b:	48 89 85 a0 f9 ff ff 	mov    %rax,-0x660(%rbp)
    aa22:	c7 85 a8 f8 ff ff 00 	movl   $0x0,-0x758(%rbp)
    aa29:	00 00 00 
    aa2c:	eb 1a                	jmp    aa48 <func_42+0x124c>
    aa2e:	8b 85 a8 f8 ff ff    	mov    -0x758(%rbp),%eax
    aa34:	48 98                	cltq   
    aa36:	c7 84 85 c0 fa ff ff 	movl   $0xe18006b1,-0x540(%rbp,%rax,4)
    aa3d:	b1 06 80 e1 
    aa41:	83 85 a8 f8 ff ff 01 	addl   $0x1,-0x758(%rbp)
    aa48:	83 bd a8 f8 ff ff 06 	cmpl   $0x6,-0x758(%rbp)
    aa4f:	7e dd                	jle    aa2e <func_42+0x1232>
    aa51:	48 8b 95 10 f9 ff ff 	mov    -0x6f0(%rbp),%rdx
    aa58:	48 8b 85 88 f9 ff ff 	mov    -0x678(%rbp),%rax
    aa5f:	48 89 10             	mov    %rdx,(%rax)
    aa62:	48 8b 85 88 f9 ff ff 	mov    -0x678(%rbp),%rax
    aa69:	48 8b 00             	mov    (%rax),%rax
    aa6c:	48 39 85 80 f9 ff ff 	cmp    %rax,-0x680(%rbp)
    aa73:	0f 94 c0             	sete   %al
    aa76:	0f b6 c0             	movzbl %al,%eax
    aa79:	be ff ff ff ff       	mov    $0xffffffff,%esi
    aa7e:	89 c7                	mov    %eax,%edi
    aa80:	e8 47 bc ff ff       	callq  66cc <safe_mod_func_int32_t_s_s>
    aa85:	85 c0                	test   %eax,%eax
    aa87:	74 0b                	je     aa94 <func_42+0x1298>
    aa89:	8b 85 1c f8 ff ff    	mov    -0x7e4(%rbp),%eax
    aa8f:	e9 10 14 00 00       	jmpq   bea4 <func_42+0x26a8>
    aa94:	48 8d 85 50 f8 ff ff 	lea    -0x7b0(%rbp),%rax
    aa9b:	48 89 85 a8 f9 ff ff 	mov    %rax,-0x658(%rbp)
    aaa2:	c7 85 64 f8 ff ff 89 	movl   $0xc7d16b89,-0x79c(%rbp)
    aaa9:	6b d1 c7 
    aaac:	c7 85 68 f8 ff ff 7a 	movl   $0x911e8c7a,-0x798(%rbp)
    aab3:	8c 1e 91 
    aab6:	c7 85 6c f8 ff ff 01 	movl   $0x1,-0x794(%rbp)
    aabd:	00 00 00 
    aac0:	c7 85 c4 f8 ff ff df 	movl   $0xd49189df,-0x73c(%rbp)
    aac7:	89 91 d4 
    aaca:	c7 85 70 f8 ff ff ff 	movl   $0xffffffff,-0x790(%rbp)
    aad1:	ff ff ff 
    aad4:	c7 85 74 f8 ff ff 00 	movl   $0x0,-0x78c(%rbp)
    aadb:	00 00 00 
    aade:	c7 85 c8 f8 ff ff f0 	movl   $0x718e91f0,-0x738(%rbp)
    aae5:	91 8e 71 
    aae8:	48 8d 85 08 f9 ff ff 	lea    -0x6f8(%rbp),%rax
    aaef:	48 89 85 b0 f9 ff ff 	mov    %rax,-0x650(%rbp)
    aaf6:	66 c7 85 3e f8 ff ff 	movw   $0x4b69,-0x7c2(%rbp)
    aafd:	69 4b 
    aaff:	48 8b 85 58 f9 ff ff 	mov    -0x6a8(%rbp),%rax
    ab06:	8b 00                	mov    (%rax),%eax
    ab08:	25 ab 0c 9c c6       	and    $0xc69c0cab,%eax
    ab0d:	89 c2                	mov    %eax,%edx
    ab0f:	48 8b 85 58 f9 ff ff 	mov    -0x6a8(%rbp),%rax
    ab16:	89 10                	mov    %edx,(%rax)
    ab18:	48 8b 85 a8 f9 ff ff 	mov    -0x658(%rbp),%rax
    ab1f:	8b 00                	mov    (%rax),%eax
    ab21:	83 f0 01             	xor    $0x1,%eax
    ab24:	89 c2                	mov    %eax,%edx
    ab26:	48 8b 85 a8 f9 ff ff 	mov    -0x658(%rbp),%rax
    ab2d:	89 10                	mov    %edx,(%rax)
    ab2f:	48 8b 85 18 f9 ff ff 	mov    -0x6e8(%rbp),%rax
    ab36:	48 8d 50 ff          	lea    -0x1(%rax),%rdx
    ab3a:	48 89 95 18 f9 ff ff 	mov    %rdx,-0x6e8(%rbp)
    ab41:	0f b6 c0             	movzbl %al,%eax
    ab44:	be 05 00 00 00       	mov    $0x5,%esi
    ab49:	89 c7                	mov    %eax,%edi
    ab4b:	e8 fc c0 ff ff       	callq  6c4c <safe_lshift_func_uint8_t_u_u>
    ab50:	84 c0                	test   %al,%al
    ab52:	0f 84 01 05 00 00    	je     b059 <func_42+0x185d>
    ab58:	48 8d 85 54 f8 ff ff 	lea    -0x7ac(%rbp),%rax
    ab5f:	48 89 85 f0 f9 ff ff 	mov    %rax,-0x610(%rbp)
    ab66:	48 8d 85 6c f8 ff ff 	lea    -0x794(%rbp),%rax
    ab6d:	48 89 85 f8 f9 ff ff 	mov    %rax,-0x608(%rbp)
    ab74:	48 8d 05 ad 84 00 00 	lea    0x84ad(%rip),%rax        # 13028 <g_63>
    ab7b:	48 89 85 40 fd ff ff 	mov    %rax,-0x2c0(%rbp)
    ab82:	48 8d 05 9f 84 00 00 	lea    0x849f(%rip),%rax        # 13028 <g_63>
    ab89:	48 89 85 48 fd ff ff 	mov    %rax,-0x2b8(%rbp)
    ab90:	48 8d 05 91 84 00 00 	lea    0x8491(%rip),%rax        # 13028 <g_63>
    ab97:	48 89 85 50 fd ff ff 	mov    %rax,-0x2b0(%rbp)
    ab9e:	48 8d 05 83 84 00 00 	lea    0x8483(%rip),%rax        # 13028 <g_63>
    aba5:	48 89 85 58 fd ff ff 	mov    %rax,-0x2a8(%rbp)
    abac:	48 8d 05 75 84 00 00 	lea    0x8475(%rip),%rax        # 13028 <g_63>
    abb3:	48 89 85 60 fd ff ff 	mov    %rax,-0x2a0(%rbp)
    abba:	c6 85 32 f8 ff ff 00 	movb   $0x0,-0x7ce(%rbp)
    abc1:	48 8d 05 a8 87 00 00 	lea    0x87a8(%rip),%rax        # 13370 <g_230>
    abc8:	48 89 85 40 f9 ff ff 	mov    %rax,-0x6c0(%rbp)
    abcf:	48 8d 85 40 f9 ff ff 	lea    -0x6c0(%rbp),%rax
    abd6:	48 89 85 00 fa ff ff 	mov    %rax,-0x600(%rbp)
    abdd:	48 8d 05 9c 87 00 00 	lea    0x879c(%rip),%rax        # 13380 <g_230+0x10>
    abe4:	48 89 85 08 fa ff ff 	mov    %rax,-0x5f8(%rbp)
    abeb:	48 8d 85 38 f9 ff ff 	lea    -0x6c8(%rbp),%rax
    abf2:	48 89 85 10 fa ff ff 	mov    %rax,-0x5f0(%rbp)
    abf9:	c6 85 7c f8 ff ff 02 	movb   $0x2,-0x784(%rbp)
    ac00:	0f b6 85 32 f8 ff ff 	movzbl -0x7ce(%rbp),%eax
    ac07:	83 c0 01             	add    $0x1,%eax
    ac0a:	88 85 32 f8 ff ff    	mov    %al,-0x7ce(%rbp)
    ac10:	c7 05 12 84 00 00 01 	movl   $0x1,0x8412(%rip)        # 1302c <g_88>
    ac17:	00 00 00 
    ac1a:	eb 25                	jmp    ac41 <func_42+0x1445>
    ac1c:	8b 05 0a 84 00 00    	mov    0x840a(%rip),%eax        # 1302c <g_88>
    ac22:	83 c0 02             	add    $0x2,%eax
    ac25:	48 98                	cltq   
    ac27:	8b 84 85 e0 fa ff ff 	mov    -0x520(%rbp,%rax,4),%eax
    ac2e:	85 c0                	test   %eax,%eax
    ac30:	75 1b                	jne    ac4d <func_42+0x1451>
    ac32:	8b 05 f4 83 00 00    	mov    0x83f4(%rip),%eax        # 1302c <g_88>
    ac38:	83 e8 01             	sub    $0x1,%eax
    ac3b:	89 05 eb 83 00 00    	mov    %eax,0x83eb(%rip)        # 1302c <g_88>
    ac41:	8b 05 e5 83 00 00    	mov    0x83e5(%rip),%eax        # 1302c <g_88>
    ac47:	85 c0                	test   %eax,%eax
    ac49:	79 d1                	jns    ac1c <func_42+0x1420>
    ac4b:	eb 01                	jmp    ac4e <func_42+0x1452>
    ac4d:	90                   	nop
    ac4e:	48 8b 05 63 87 00 00 	mov    0x8763(%rip),%rax        # 133b8 <g_681>
    ac55:	89 c2                	mov    %eax,%edx
    ac57:	8b 05 a3 ab 00 00    	mov    0xaba3(%rip),%eax        # 15800 <g_966>
    ac5d:	31 d0                	xor    %edx,%eax
    ac5f:	89 05 9b ab 00 00    	mov    %eax,0xab9b(%rip)        # 15800 <g_966>
    ac65:	8b 05 95 ab 00 00    	mov    0xab95(%rip),%eax        # 15800 <g_966>
    ac6b:	0f be c0             	movsbl %al,%eax
    ac6e:	be 06 00 00 00       	mov    $0x6,%esi
    ac73:	89 c7                	mov    %eax,%edi
    ac75:	e8 27 b6 ff ff       	callq  62a1 <safe_lshift_func_int8_t_s_s>
    ac7a:	44 0f be e0          	movsbl %al,%r12d
    ac7e:	8b 85 1c f8 ff ff    	mov    -0x7e4(%rbp),%eax
    ac84:	85 c0                	test   %eax,%eax
    ac86:	0f 94 c0             	sete   %al
    ac89:	44 0f b6 e8          	movzbl %al,%r13d
    ac8d:	8b 85 1c f8 ff ff    	mov    -0x7e4(%rbp),%eax
    ac93:	0f b7 d8             	movzwl %ax,%ebx
    ac96:	0f be 85 18 f8 ff ff 	movsbl -0x7e8(%rbp),%eax
    ac9d:	89 c6                	mov    %eax,%esi
    ac9f:	bf 00 00 00 00       	mov    $0x0,%edi
    aca4:	e8 5c b9 ff ff       	callq  6605 <safe_sub_func_int32_t_s_s>
    aca9:	0f b7 c0             	movzwl %ax,%eax
    acac:	89 de                	mov    %ebx,%esi
    acae:	89 c7                	mov    %eax,%edi
    acb0:	e8 4a c0 ff ff       	callq  6cff <safe_add_func_uint16_t_u_u>
    acb5:	0f b7 c0             	movzwl %ax,%eax
    acb8:	41 39 c5             	cmp    %eax,%r13d
    acbb:	0f 9c c0             	setl   %al
    acbe:	0f b6 d0             	movzbl %al,%edx
    acc1:	8b 85 1c f8 ff ff    	mov    -0x7e4(%rbp),%eax
    acc7:	89 d6                	mov    %edx,%esi
    acc9:	89 c7                	mov    %eax,%edi
    accb:	e8 35 b9 ff ff       	callq  6605 <safe_sub_func_int32_t_s_s>
    acd0:	0f be d0             	movsbl %al,%edx
    acd3:	8b 85 c4 fa ff ff    	mov    -0x53c(%rbp),%eax
    acd9:	0f be c0             	movsbl %al,%eax
    acdc:	89 d6                	mov    %edx,%esi
    acde:	89 c7                	mov    %eax,%edi
    ace0:	e8 2d b5 ff ff       	callq  6212 <safe_mul_func_int8_t_s_s>
    ace5:	84 c0                	test   %al,%al
    ace7:	74 10                	je     acf9 <func_42+0x14fd>
    ace9:	80 bd 18 f8 ff ff 00 	cmpb   $0x0,-0x7e8(%rbp)
    acf0:	74 07                	je     acf9 <func_42+0x14fd>
    acf2:	b8 01 00 00 00       	mov    $0x1,%eax
    acf7:	eb 05                	jmp    acfe <func_42+0x1502>
    acf9:	b8 00 00 00 00       	mov    $0x0,%eax
    acfe:	44 21 e0             	and    %r12d,%eax
    ad01:	89 c2                	mov    %eax,%edx
    ad03:	48 8b 05 b6 a1 00 00 	mov    0xa1b6(%rip),%rax        # 14ec0 <g_477>
    ad0a:	48 8b 00             	mov    (%rax),%rax
    ad0d:	48 8b 00             	mov    (%rax),%rax
    ad10:	48 8b 08             	mov    (%rax),%rcx
    ad13:	48 63 d2             	movslq %edx,%rdx
    ad16:	48 8b 05 a3 a1 00 00 	mov    0xa1a3(%rip),%rax        # 14ec0 <g_477>
    ad1d:	48 8b 00             	mov    (%rax),%rax
    ad20:	48 8b 00             	mov    (%rax),%rax
    ad23:	48 21 ca             	and    %rcx,%rdx
    ad26:	48 89 10             	mov    %rdx,(%rax)
    ad29:	48 8b 00             	mov    (%rax),%rax
    ad2c:	48 ba c0 09 94 a2 1d 	movabs $0x674ab11da29409c0,%rdx
    ad33:	b1 4a 67 
    ad36:	48 39 d0             	cmp    %rdx,%rax
    ad39:	0f 95 c0             	setne  %al
    ad3c:	0f b6 d0             	movzbl %al,%edx
    ad3f:	48 0f be 85 18 f8 ff 	movsbq -0x7e8(%rbp),%rax
    ad46:	ff 
    ad47:	48 89 d6             	mov    %rdx,%rsi
    ad4a:	48 89 c7             	mov    %rax,%rdi
    ad4d:	e8 56 bb ff ff       	callq  68a8 <safe_sub_func_int64_t_s_s>
    ad52:	48 85 c0             	test   %rax,%rax
    ad55:	74 1c                	je     ad73 <func_42+0x1577>
    ad57:	c6 85 33 f8 ff ff 92 	movb   $0x92,-0x7cd(%rbp)
    ad5e:	0f b6 85 33 f8 ff ff 	movzbl -0x7cd(%rbp),%eax
    ad65:	83 c0 01             	add    $0x1,%eax
    ad68:	88 85 33 f8 ff ff    	mov    %al,-0x7cd(%rbp)
    ad6e:	e9 1b 01 00 00       	jmpq   ae8e <func_42+0x1692>
    ad73:	48 c7 85 18 fa ff ff 	movq   $0xffffffffffffffff,-0x5e8(%rbp)
    ad7a:	ff ff ff ff 
    ad7e:	48 83 ad 18 fa ff ff 	subq   $0x1,-0x5e8(%rbp)
    ad85:	01 
    ad86:	48 8b 85 18 fa ff ff 	mov    -0x5e8(%rbp),%rax
    ad8d:	0f b6 d8             	movzbl %al,%ebx
    ad90:	8b 95 1c f8 ff ff    	mov    -0x7e4(%rbp),%edx
    ad96:	48 8b 85 58 f9 ff ff 	mov    -0x6a8(%rbp),%rax
    ad9d:	89 10                	mov    %edx,(%rax)
    ad9f:	48 8b 05 72 a1 00 00 	mov    0xa172(%rip),%rax        # 14f18 <g_738>
    ada6:	48 8b 00             	mov    (%rax),%rax
    ada9:	8b 00                	mov    (%rax),%eax
    adab:	41 89 c5             	mov    %eax,%r13d
    adae:	44 0f be a5 18 f8 ff 	movsbl -0x7e8(%rbp),%r12d
    adb5:	ff 
    adb6:	0f be 85 18 f8 ff ff 	movsbl -0x7e8(%rbp),%eax
    adbd:	89 c7                	mov    %eax,%edi
    adbf:	e8 d2 b7 ff ff       	callq  6596 <safe_unary_minus_func_int32_t_s>
    adc4:	41 39 c4             	cmp    %eax,%r12d
    adc7:	0f 95 c0             	setne  %al
    adca:	0f b6 d0             	movzbl %al,%edx
    adcd:	48 8b 85 58 f9 ff ff 	mov    -0x6a8(%rbp),%rax
    add4:	89 10                	mov    %edx,(%rax)
    add6:	48 8b 85 58 f9 ff ff 	mov    -0x6a8(%rbp),%rax
    addd:	8b 00                	mov    (%rax),%eax
    addf:	44 89 ee             	mov    %r13d,%esi
    ade2:	89 c7                	mov    %eax,%edi
    ade4:	e8 cd b7 ff ff       	callq  65b6 <safe_add_func_int32_t_s_s>
    ade9:	89 05 91 85 00 00    	mov    %eax,0x8591(%rip)        # 13380 <g_230+0x10>
    adef:	80 bd 18 f8 ff ff 00 	cmpb   $0x0,-0x7e8(%rbp)
    adf6:	74 0b                	je     ae03 <func_42+0x1607>
    adf8:	0f b6 05 25 82 00 00 	movzbl 0x8225(%rip),%eax        # 13024 <g_8>
    adff:	84 c0                	test   %al,%al
    ae01:	74 07                	je     ae0a <func_42+0x160e>
    ae03:	b8 01 00 00 00       	mov    $0x1,%eax
    ae08:	eb 05                	jmp    ae0f <func_42+0x1613>
    ae0a:	b8 00 00 00 00       	mov    $0x0,%eax
    ae0f:	0f be c0             	movsbl %al,%eax
    ae12:	89 c6                	mov    %eax,%esi
    ae14:	bf 43 00 00 00       	mov    $0x43,%edi
    ae19:	e8 13 b4 ff ff       	callq  6231 <safe_mod_func_int8_t_s_s>
    ae1e:	0f b6 c0             	movzbl %al,%eax
    ae21:	89 de                	mov    %ebx,%esi
    ae23:	89 c7                	mov    %eax,%edi
    ae25:	e8 69 bd ff ff       	callq  6b93 <safe_mul_func_uint8_t_u_u>
    ae2a:	0f be d0             	movsbl %al,%edx
    ae2d:	0f b7 05 8e 85 00 00 	movzwl 0x858e(%rip),%eax        # 133c2 <g_985>
    ae34:	83 e0 01             	and    $0x1,%eax
    ae37:	66 89 05 84 85 00 00 	mov    %ax,0x8584(%rip)        # 133c2 <g_985>
    ae3e:	0f b7 05 7d 85 00 00 	movzwl 0x857d(%rip),%eax        # 133c2 <g_985>
    ae45:	66 83 f8 35          	cmp    $0x35,%ax
    ae49:	0f 97 c0             	seta   %al
    ae4c:	0f b6 c0             	movzbl %al,%eax
    ae4f:	89 d6                	mov    %edx,%esi
    ae51:	89 c7                	mov    %eax,%edi
    ae53:	e8 12 b4 ff ff       	callq  626a <safe_div_func_int8_t_s_s>
    ae58:	84 c0                	test   %al,%al
    ae5a:	0f 95 c0             	setne  %al
    ae5d:	0f b6 c0             	movzbl %al,%eax
    ae60:	48 39 85 18 fa ff ff 	cmp    %rax,-0x5e8(%rbp)
    ae67:	0f 97 c0             	seta   %al
    ae6a:	0f b6 d0             	movzbl %al,%edx
    ae6d:	8b 85 74 f8 ff ff    	mov    -0x78c(%rbp),%eax
    ae73:	39 c2                	cmp    %eax,%edx
    ae75:	0f b6 05 a8 81 00 00 	movzbl 0x81a8(%rip),%eax        # 13024 <g_8>
    ae7c:	38 85 18 f8 ff ff    	cmp    %al,-0x7e8(%rbp)
    ae82:	0f 95 c0             	setne  %al
    ae85:	0f b6 c0             	movzbl %al,%eax
    ae88:	89 85 1c f8 ff ff    	mov    %eax,-0x7e4(%rbp)
    ae8e:	8b 15 9c 81 00 00    	mov    0x819c(%rip),%edx        # 13030 <g_111>
    ae94:	8b 85 c0 f8 ff ff    	mov    -0x740(%rbp),%eax
    ae9a:	39 c2                	cmp    %eax,%edx
    ae9c:	73 52                	jae    aef0 <func_42+0x16f4>
    ae9e:	8b 85 1c f8 ff ff    	mov    -0x7e4(%rbp),%eax
    aea4:	85 c0                	test   %eax,%eax
    aea6:	75 47                	jne    aeef <func_42+0x16f3>
    aea8:	8b 85 1c f8 ff ff    	mov    -0x7e4(%rbp),%eax
    aeae:	0f bf d8             	movswl %ax,%ebx
    aeb1:	bf 00 00 00 00       	mov    $0x0,%edi
    aeb6:	e8 eb bf ff ff       	callq  6ea6 <safe_unary_minus_func_uint32_t_u>
    aebb:	48 8b 85 88 f9 ff ff 	mov    -0x678(%rbp),%rax
    aec2:	48 8b 95 10 fa ff ff 	mov    -0x5f0(%rbp),%rdx
    aec9:	48 89 10             	mov    %rdx,(%rax)
    aecc:	48 8b 85 88 f9 ff ff 	mov    -0x678(%rbp),%rax
    aed3:	48 8b 00             	mov    (%rax),%rax
    aed6:	48 39 85 60 f9 ff ff 	cmp    %rax,-0x6a0(%rbp)
    aedd:	0f 94 c0             	sete   %al
    aee0:	0f b6 c0             	movzbl %al,%eax
    aee3:	89 de                	mov    %ebx,%esi
    aee5:	89 c7                	mov    %eax,%edi
    aee7:	e8 69 b5 ff ff       	callq  6455 <safe_div_func_int16_t_s_s>
    aeec:	66 85 c0             	test   %ax,%ax
    aeef:	90                   	nop
    aef0:	48 8b 95 40 fd ff ff 	mov    -0x2c0(%rbp),%rdx
    aef7:	48 8b 85 00 fa ff ff 	mov    -0x600(%rbp),%rax
    aefe:	48 89 10             	mov    %rdx,(%rax)
    af01:	48 8b 85 00 fa ff ff 	mov    -0x600(%rbp),%rax
    af08:	48 8b 00             	mov    (%rax),%rax
    af0b:	48 89 85 20 f9 ff ff 	mov    %rax,-0x6e0(%rbp)
    af12:	48 8b 85 20 f9 ff ff 	mov    -0x6e0(%rbp),%rax
    af19:	48 89 85 08 fa ff ff 	mov    %rax,-0x5f8(%rbp)
    af20:	48 8b 85 08 fa ff ff 	mov    -0x5f8(%rbp),%rax
    af27:	48 3b 85 58 f9 ff ff 	cmp    -0x6a8(%rbp),%rax
    af2e:	74 20                	je     af50 <func_42+0x1754>
    af30:	48 8b 85 58 f9 ff ff 	mov    -0x6a8(%rbp),%rax
    af37:	c7 00 31 b4 4f ce    	movl   $0xce4fb431,(%rax)
    af3d:	8b 85 1c f8 ff ff    	mov    -0x7e4(%rbp),%eax
    af43:	85 c0                	test   %eax,%eax
    af45:	0f 84 49 0c 00 00    	je     bb94 <func_42+0x2398>
    af4b:	e9 2d 0f 00 00       	jmpq   be7d <func_42+0x2681>
    af50:	48 8d 05 91 a8 00 00 	lea    0xa891(%rip),%rax        # 157e8 <g_157>
    af57:	48 89 85 20 fa ff ff 	mov    %rax,-0x5e0(%rbp)
    af5e:	c7 85 d0 f8 ff ff 7d 	movl   $0x10ee217d,-0x730(%rbp)
    af65:	21 ee 10 
    af68:	c7 85 d0 fb ff ff 01 	movl   $0x1,-0x430(%rbp)
    af6f:	00 00 00 
    af72:	c7 85 d4 fb ff ff 01 	movl   $0x1,-0x42c(%rbp)
    af79:	00 00 00 
    af7c:	c7 85 d8 fb ff ff 01 	movl   $0x1,-0x428(%rbp)
    af83:	00 00 00 
    af86:	c7 85 dc fb ff ff 01 	movl   $0x1,-0x424(%rbp)
    af8d:	00 00 00 
    af90:	c7 85 e0 fb ff ff 01 	movl   $0x1,-0x420(%rbp)
    af97:	00 00 00 
    af9a:	c7 85 e4 fb ff ff 01 	movl   $0x1,-0x41c(%rbp)
    afa1:	00 00 00 
    afa4:	0f b7 05 e9 83 00 00 	movzwl 0x83e9(%rip),%eax        # 13394 <g_282+0x4>
    afab:	98                   	cwtl   
    afac:	35 b5 a5 76 15       	xor    $0x1576a5b5,%eax
    afb1:	89 c3                	mov    %eax,%ebx
    afb3:	48 8b 05 86 9f 00 00 	mov    0x9f86(%rip),%rax        # 14f40 <g_1012>
    afba:	48 85 c0             	test   %rax,%rax
    afbd:	0f 94 c0             	sete   %al
    afc0:	0f b6 d0             	movzbl %al,%edx
    afc3:	8b 05 67 80 00 00    	mov    0x8067(%rip),%eax        # 13030 <g_111>
    afc9:	0f b7 c0             	movzwl %ax,%eax
    afcc:	89 d6                	mov    %edx,%esi
    afce:	89 c7                	mov    %eax,%edi
    afd0:	e8 68 bd ff ff       	callq  6d3d <safe_mul_func_uint16_t_u_u>
    afd5:	98                   	cwtl   
    afd6:	89 de                	mov    %ebx,%esi
    afd8:	89 c7                	mov    %eax,%edi
    afda:	e8 84 b5 ff ff       	callq  6563 <safe_rshift_func_int16_t_s_u>
    afdf:	48 8b 05 d2 8f 00 00 	mov    0x8fd2(%rip),%rax        # 13fb8 <g_156>
    afe6:	48 8b 10             	mov    (%rax),%rdx
    afe9:	48 8b 85 20 fa ff ff 	mov    -0x5e0(%rbp),%rax
    aff0:	48 89 10             	mov    %rdx,(%rax)
    aff3:	83 ad c8 f8 ff ff 01 	subl   $0x1,-0x738(%rbp)
    affa:	48 8b 85 f8 f9 ff ff 	mov    -0x608(%rbp),%rax
    b001:	c7 00 75 41 a6 d2    	movl   $0xd2a64175,(%rax)
    b007:	48 8b 85 f8 f9 ff ff 	mov    -0x608(%rbp),%rax
    b00e:	8b 00                	mov    (%rax),%eax
    b010:	89 85 1c f8 ff ff    	mov    %eax,-0x7e4(%rbp)
    b016:	8b 85 1c f8 ff ff    	mov    -0x7e4(%rbp),%eax
    b01c:	0f b7 d8             	movzwl %ax,%ebx
    b01f:	8b 85 74 f8 ff ff    	mov    -0x78c(%rbp),%eax
    b025:	98                   	cwtl   
    b026:	be 02 00 00 00       	mov    $0x2,%esi
    b02b:	89 c7                	mov    %eax,%edi
    b02d:	e8 31 b5 ff ff       	callq  6563 <safe_rshift_func_int16_t_s_u>
    b032:	0f b7 c0             	movzwl %ax,%eax
    b035:	89 de                	mov    %ebx,%esi
    b037:	89 c7                	mov    %eax,%edi
    b039:	e8 e1 bc ff ff       	callq  6d1f <safe_sub_func_uint16_t_u_u>
    b03e:	89 c2                	mov    %eax,%edx
    b040:	48 8b 05 61 8f 00 00 	mov    0x8f61(%rip),%rax        # 13fa8 <g_72>
    b047:	0f b7 d2             	movzwl %dx,%edx
    b04a:	89 10                	mov    %edx,(%rax)
    b04c:	8b 00                	mov    (%rax),%eax
    b04e:	89 85 1c f8 ff ff    	mov    %eax,-0x7e4(%rbp)
    b054:	e9 3b 0b 00 00       	jmpq   bb94 <func_42+0x2398>
    b059:	48 c7 85 b8 f9 ff ff 	movq   $0x0,-0x648(%rbp)
    b060:	00 00 00 00 
    b064:	48 8d 85 18 f9 ff ff 	lea    -0x6e8(%rbp),%rax
    b06b:	48 89 85 c0 f9 ff ff 	mov    %rax,-0x640(%rbp)
    b072:	48 8d 05 8f 9e 00 00 	lea    0x9e8f(%rip),%rax        # 14f08 <g_548+0x28>
    b079:	48 89 85 90 fb ff ff 	mov    %rax,-0x470(%rbp)
    b080:	48 8d 05 81 9e 00 00 	lea    0x9e81(%rip),%rax        # 14f08 <g_548+0x28>
    b087:	48 89 85 98 fb ff ff 	mov    %rax,-0x468(%rbp)
    b08e:	48 8d 05 73 9e 00 00 	lea    0x9e73(%rip),%rax        # 14f08 <g_548+0x28>
    b095:	48 89 85 a0 fb ff ff 	mov    %rax,-0x460(%rbp)
    b09c:	48 8d 05 65 9e 00 00 	lea    0x9e65(%rip),%rax        # 14f08 <g_548+0x28>
    b0a3:	48 89 85 a8 fb ff ff 	mov    %rax,-0x458(%rbp)
    b0aa:	48 8d 05 57 9e 00 00 	lea    0x9e57(%rip),%rax        # 14f08 <g_548+0x28>
    b0b1:	48 89 85 b0 fb ff ff 	mov    %rax,-0x450(%rbp)
    b0b8:	48 8d 05 49 9e 00 00 	lea    0x9e49(%rip),%rax        # 14f08 <g_548+0x28>
    b0bf:	48 89 85 b8 fb ff ff 	mov    %rax,-0x448(%rbp)
    b0c6:	48 8d 05 3b 9e 00 00 	lea    0x9e3b(%rip),%rax        # 14f08 <g_548+0x28>
    b0cd:	48 89 85 c0 fb ff ff 	mov    %rax,-0x440(%rbp)
    b0d4:	c6 85 78 f8 ff ff 0d 	movb   $0xd,-0x788(%rbp)
    b0db:	48 8d 85 30 f9 ff ff 	lea    -0x6d0(%rbp),%rax
    b0e2:	48 89 85 c8 f9 ff ff 	mov    %rax,-0x638(%rbp)
    b0e9:	c7 85 30 fb ff ff 01 	movl   $0x1,-0x4d0(%rbp)
    b0f0:	00 00 00 
    b0f3:	c7 85 34 fb ff ff 43 	movl   $0xbc4e9b43,-0x4cc(%rbp)
    b0fa:	9b 4e bc 
    b0fd:	c7 85 38 fb ff ff 01 	movl   $0x1,-0x4c8(%rbp)
    b104:	00 00 00 
    b107:	c7 85 3c fb ff ff 01 	movl   $0x1,-0x4c4(%rbp)
    b10e:	00 00 00 
    b111:	c7 85 40 fb ff ff 43 	movl   $0xbc4e9b43,-0x4c0(%rbp)
    b118:	9b 4e bc 
    b11b:	c7 85 44 fb ff ff 01 	movl   $0x1,-0x4bc(%rbp)
    b122:	00 00 00 
    b125:	c7 85 48 fb ff ff 01 	movl   $0x1,-0x4b8(%rbp)
    b12c:	00 00 00 
    b12f:	c7 85 4c fb ff ff 43 	movl   $0xbc4e9b43,-0x4b4(%rbp)
    b136:	9b 4e bc 
    b139:	66 c7 85 40 f8 ff ff 	movw   $0x1c21,-0x7c0(%rbp)
    b140:	21 1c 
    b142:	48 0f be 9d 18 f8 ff 	movsbq -0x7e8(%rbp),%rbx
    b149:	ff 
    b14a:	48 8b 85 58 f9 ff ff 	mov    -0x6a8(%rbp),%rax
    b151:	8b 00                	mov    (%rax),%eax
    b153:	48 98                	cltq   
    b155:	be 04 00 00 00       	mov    $0x4,%esi
    b15a:	48 89 c7             	mov    %rax,%rdi
    b15d:	e8 df b6 ff ff       	callq  6841 <safe_add_func_int64_t_s_s>
    b162:	48 89 c1             	mov    %rax,%rcx
    b165:	48 8b 05 2c 9d 00 00 	mov    0x9d2c(%rip),%rax        # 14e98 <g_371>
    b16c:	8b 95 b0 f8 ff ff    	mov    -0x750(%rbp),%edx
    b172:	48 89 10             	mov    %rdx,(%rax)
    b175:	48 8b 10             	mov    (%rax),%rdx
    b178:	48 8b 85 c0 f9 ff ff 	mov    -0x640(%rbp),%rax
    b17f:	48 89 10             	mov    %rdx,(%rax)
    b182:	48 8b 85 c0 f9 ff ff 	mov    -0x640(%rbp),%rax
    b189:	48 8b 00             	mov    (%rax),%rax
    b18c:	48 39 c1             	cmp    %rax,%rcx
    b18f:	0f 97 c0             	seta   %al
    b192:	0f b6 c0             	movzbl %al,%eax
    b195:	48 89 de             	mov    %rbx,%rsi
    b198:	48 89 c7             	mov    %rax,%rdi
    b19b:	e8 a1 b6 ff ff       	callq  6841 <safe_add_func_int64_t_s_s>
    b1a0:	48 85 c0             	test   %rax,%rax
    b1a3:	74 51                	je     b1f6 <func_42+0x19fa>
    b1a5:	c7 85 cc f8 ff ff 68 	movl   $0x1add8e68,-0x734(%rbp)
    b1ac:	8e dd 1a 
    b1af:	48 8b 05 fa 8d 00 00 	mov    0x8dfa(%rip),%rax        # 13fb0 <g_137>
    b1b6:	8b 00                	mov    (%rax),%eax
    b1b8:	48 8b 95 80 fb ff ff 	mov    -0x480(%rbp),%rdx
    b1bf:	48 8b 85 00 f9 ff ff 	mov    -0x700(%rbp),%rax
    b1c6:	48 39 c2             	cmp    %rax,%rdx
    b1c9:	0f 94 c0             	sete   %al
    b1cc:	0f b6 c0             	movzbl %al,%eax
    b1cf:	be 01 00 00 00       	mov    $0x1,%esi
    b1d4:	89 c7                	mov    %eax,%edi
    b1d6:	e8 6d bc ff ff       	callq  6e48 <safe_rshift_func_uint16_t_u_s>
    b1db:	0f b7 c0             	movzwl %ax,%eax
    b1de:	89 85 cc f8 ff ff    	mov    %eax,-0x734(%rbp)
    b1e4:	83 bd cc f8 ff ff 00 	cmpl   $0x0,-0x734(%rbp)
    b1eb:	0f 84 74 01 00 00    	je     b365 <func_42+0x1b69>
    b1f1:	e9 68 0c 00 00       	jmpq   be5e <func_42+0x2662>
    b1f6:	48 c7 85 d0 f9 ff ff 	movq   $0x0,-0x630(%rbp)
    b1fd:	00 00 00 00 
    b201:	c7 85 7c f8 ff ff 00 	movl   $0x0,-0x784(%rbp)
    b208:	00 00 00 
    b20b:	48 8d 85 20 f9 ff ff 	lea    -0x6e0(%rbp),%rax
    b212:	48 89 85 40 f9 ff ff 	mov    %rax,-0x6c0(%rbp)
    b219:	48 8d 85 40 f9 ff ff 	lea    -0x6c0(%rbp),%rax
    b220:	48 89 85 d8 f9 ff ff 	mov    %rax,-0x628(%rbp)
    b227:	c7 85 ac f8 ff ff 00 	movl   $0x0,-0x754(%rbp)
    b22e:	00 00 00 
    b231:	eb 1e                	jmp    b251 <func_42+0x1a55>
    b233:	8b 85 ac f8 ff ff    	mov    -0x754(%rbp),%eax
    b239:	48 98                	cltq   
    b23b:	48 8d 15 32 7e 00 00 	lea    0x7e32(%rip),%rdx        # 13074 <g_134+0x34>
    b242:	48 89 94 c5 40 fd ff 	mov    %rdx,-0x2c0(%rbp,%rax,8)
    b249:	ff 
    b24a:	83 85 ac f8 ff ff 01 	addl   $0x1,-0x754(%rbp)
    b251:	83 bd ac f8 ff ff 05 	cmpl   $0x5,-0x754(%rbp)
    b258:	7e d9                	jle    b233 <func_42+0x1a37>
    b25a:	8b 85 1c f8 ff ff    	mov    -0x7e4(%rbp),%eax
    b260:	85 c0                	test   %eax,%eax
    b262:	0f 85 15 0c 00 00    	jne    be7d <func_42+0x2681>
    b268:	48 8b 05 29 9c 00 00 	mov    0x9c29(%rip),%rax        # 14e98 <g_371>
    b26f:	48 8b 18             	mov    (%rax),%rbx
    b272:	48 8b 85 58 f9 ff ff 	mov    -0x6a8(%rbp),%rax
    b279:	8b 10                	mov    (%rax),%edx
    b27b:	8b 85 1c f8 ff ff    	mov    -0x7e4(%rbp),%eax
    b281:	09 c2                	or     %eax,%edx
    b283:	48 8b 85 58 f9 ff ff 	mov    -0x6a8(%rbp),%rax
    b28a:	89 10                	mov    %edx,(%rax)
    b28c:	48 8b 05 15 9c 00 00 	mov    0x9c15(%rip),%rax        # 14ea8 <g_420>
    b293:	8b 95 78 f8 ff ff    	mov    -0x788(%rbp),%edx
    b299:	89 10                	mov    %edx,(%rax)
    b29b:	8b 85 c0 f8 ff ff    	mov    -0x740(%rbp),%eax
    b2a1:	44 0f be e0          	movsbl %al,%r12d
    b2a5:	4c 0f be ad 18 f8 ff 	movsbq -0x7e8(%rbp),%r13
    b2ac:	ff 
    b2ad:	0f b7 05 0e 81 00 00 	movzwl 0x810e(%rip),%eax        # 133c2 <g_985>
    b2b4:	0f b7 c0             	movzwl %ax,%eax
    b2b7:	be 08 00 00 00       	mov    $0x8,%esi
    b2bc:	89 c7                	mov    %eax,%edi
    b2be:	e8 99 ba ff ff       	callq  6d5c <safe_mod_func_uint16_t_u_u>
    b2c3:	0f b7 c0             	movzwl %ax,%eax
    b2c6:	25 61 27 23 0d       	and    $0xd232761,%eax
    b2cb:	4c 89 ee             	mov    %r13,%rsi
    b2ce:	48 89 c7             	mov    %rax,%rdi
    b2d1:	e8 d9 bd ff ff       	callq  70af <safe_div_func_uint64_t_u_u>
    b2d6:	0f be c0             	movsbl %al,%eax
    b2d9:	44 89 e6             	mov    %r12d,%esi
    b2dc:	89 c7                	mov    %eax,%edi
    b2de:	e8 2f af ff ff       	callq  6212 <safe_mul_func_int8_t_s_s>
    b2e3:	c7 85 7c f8 ff ff da 	movl   $0xda,-0x784(%rbp)
    b2ea:	00 00 00 
    b2ed:	8b 85 7c f8 ff ff    	mov    -0x784(%rbp),%eax
    b2f3:	23 85 bc f8 ff ff    	and    -0x744(%rbp),%eax
    b2f9:	85 c0                	test   %eax,%eax
    b2fb:	74 07                	je     b304 <func_42+0x1b08>
    b2fd:	b8 01 00 00 00       	mov    $0x1,%eax
    b302:	eb 05                	jmp    b309 <func_42+0x1b0d>
    b304:	b8 00 00 00 00       	mov    $0x0,%eax
    b309:	89 85 68 f8 ff ff    	mov    %eax,-0x798(%rbp)
    b30f:	8b 85 68 f8 ff ff    	mov    -0x798(%rbp),%eax
    b315:	0f bf d0             	movswl %ax,%edx
    b318:	0f be 85 18 f8 ff ff 	movsbl -0x7e8(%rbp),%eax
    b31f:	89 d6                	mov    %edx,%esi
    b321:	89 c7                	mov    %eax,%edi
    b323:	e8 2d b1 ff ff       	callq  6455 <safe_div_func_int16_t_s_s>
    b328:	48 0f be 85 18 f8 ff 	movsbq -0x7e8(%rbp),%rax
    b32f:	ff 
    b330:	48 89 de             	mov    %rbx,%rsi
    b333:	48 89 c7             	mov    %rax,%rdi
    b336:	e8 f3 bc ff ff       	callq  702e <safe_add_func_uint64_t_u_u>
    b33b:	48 8b 85 d8 f9 ff ff 	mov    -0x628(%rbp),%rax
    b342:	48 c7 00 00 00 00 00 	movq   $0x0,(%rax)
    b349:	48 8d 85 7c f8 ff ff 	lea    -0x784(%rbp),%rax
    b350:	48 89 85 90 f9 ff ff 	mov    %rax,-0x670(%rbp)
    b357:	8b 85 1c f8 ff ff    	mov    -0x7e4(%rbp),%eax
    b35d:	85 c0                	test   %eax,%eax
    b35f:	0f 85 f5 0a 00 00    	jne    be5a <func_42+0x265e>
    b365:	0f b6 05 48 80 00 00 	movzbl 0x8048(%rip),%eax        # 133b4 <g_551>
    b36c:	0f be c0             	movsbl %al,%eax
    b36f:	89 c6                	mov    %eax,%esi
    b371:	bf 00 00 00 00       	mov    $0x0,%edi
    b376:	e8 7a b0 ff ff       	callq  63f5 <safe_mul_func_int16_t_s_s>
    b37b:	0f bf d0             	movswl %ax,%edx
    b37e:	48 8b 05 8b 9b 00 00 	mov    0x9b8b(%rip),%rax        # 14f10 <g_739>
    b385:	8b 00                	mov    (%rax),%eax
    b387:	39 c2                	cmp    %eax,%edx
    b389:	0f 95 c0             	setne  %al
    b38c:	0f b6 d0             	movzbl %al,%edx
    b38f:	48 8b 8d 30 f9 ff ff 	mov    -0x6d0(%rbp),%rcx
    b396:	48 8b 85 c8 f9 ff ff 	mov    -0x638(%rbp),%rax
    b39d:	48 89 08             	mov    %rcx,(%rax)
    b3a0:	48 8b 85 c8 f9 ff ff 	mov    -0x638(%rbp),%rax
    b3a7:	48 8b 30             	mov    (%rax),%rsi
    b3aa:	48 8b 85 88 f9 ff ff 	mov    -0x678(%rbp),%rax
    b3b1:	48 8b 8d b0 f9 ff ff 	mov    -0x650(%rbp),%rcx
    b3b8:	48 89 08             	mov    %rcx,(%rax)
    b3bb:	48 8b 85 88 f9 ff ff 	mov    -0x678(%rbp),%rax
    b3c2:	48 8b 00             	mov    (%rax),%rax
    b3c5:	48 39 c6             	cmp    %rax,%rsi
    b3c8:	74 1f                	je     b3e9 <func_42+0x1bed>
    b3ca:	48 8b 05 f7 9a 00 00 	mov    0x9af7(%rip),%rax        # 14ec8 <g_476>
    b3d1:	48 8b 00             	mov    (%rax),%rax
    b3d4:	48 8b 00             	mov    (%rax),%rax
    b3d7:	48 8b 00             	mov    (%rax),%rax
    b3da:	48 8b 00             	mov    (%rax),%rax
    b3dd:	48 85 c0             	test   %rax,%rax
    b3e0:	74 07                	je     b3e9 <func_42+0x1bed>
    b3e2:	b9 01 00 00 00       	mov    $0x1,%ecx
    b3e7:	eb 05                	jmp    b3ee <func_42+0x1bf2>
    b3e9:	b9 00 00 00 00       	mov    $0x0,%ecx
    b3ee:	66 83 ad 40 f8 ff ff 	subw   $0x1,-0x7c0(%rbp)
    b3f5:	01 
    b3f6:	0f b7 85 40 f8 ff ff 	movzwl -0x7c0(%rbp),%eax
    b3fd:	21 c8                	and    %ecx,%eax
    b3ff:	85 c0                	test   %eax,%eax
    b401:	75 0c                	jne    b40f <func_42+0x1c13>
    b403:	0f b7 05 b8 7f 00 00 	movzwl 0x7fb8(%rip),%eax        # 133c2 <g_985>
    b40a:	66 85 c0             	test   %ax,%ax
    b40d:	74 07                	je     b416 <func_42+0x1c1a>
    b40f:	b8 01 00 00 00       	mov    $0x1,%eax
    b414:	eb 05                	jmp    b41b <func_42+0x1c1f>
    b416:	b8 00 00 00 00       	mov    $0x0,%eax
    b41b:	0f be c0             	movsbl %al,%eax
    b41e:	89 d6                	mov    %edx,%esi
    b420:	89 c7                	mov    %eax,%edi
    b422:	e8 cb ad ff ff       	callq  61f2 <safe_sub_func_int8_t_s_s>
    b427:	84 c0                	test   %al,%al
    b429:	0f 84 5c 02 00 00    	je     b68b <func_42+0x1e8f>
    b42f:	48 8d 85 98 fa ff ff 	lea    -0x568(%rbp),%rax
    b436:	48 89 85 40 fd ff ff 	mov    %rax,-0x2c0(%rbp)
    b43d:	48 8d 85 6c f8 ff ff 	lea    -0x794(%rbp),%rax
    b444:	48 89 85 48 fd ff ff 	mov    %rax,-0x2b8(%rbp)
    b44b:	48 8d 05 da 7b 00 00 	lea    0x7bda(%rip),%rax        # 1302c <g_88>
    b452:	48 89 85 50 fd ff ff 	mov    %rax,-0x2b0(%rbp)
    b459:	48 c7 85 58 fd ff ff 	movq   $0x0,-0x2a8(%rbp)
    b460:	00 00 00 00 
    b464:	48 8d 05 c1 7b 00 00 	lea    0x7bc1(%rip),%rax        # 1302c <g_88>
    b46b:	48 89 85 60 fd ff ff 	mov    %rax,-0x2a0(%rbp)
    b472:	48 8d 85 6c f8 ff ff 	lea    -0x794(%rbp),%rax
    b479:	48 89 85 68 fd ff ff 	mov    %rax,-0x298(%rbp)
    b480:	48 8d 85 98 fa ff ff 	lea    -0x568(%rbp),%rax
    b487:	48 89 85 70 fd ff ff 	mov    %rax,-0x290(%rbp)
    b48e:	48 8d 05 97 7b 00 00 	lea    0x7b97(%rip),%rax        # 1302c <g_88>
    b495:	48 89 85 78 fd ff ff 	mov    %rax,-0x288(%rbp)
    b49c:	48 c7 85 80 fd ff ff 	movq   $0x0,-0x280(%rbp)
    b4a3:	00 00 00 00 
    b4a7:	48 c7 85 88 fd ff ff 	movq   $0x0,-0x278(%rbp)
    b4ae:	00 00 00 00 
    b4b2:	48 8d 05 73 7b 00 00 	lea    0x7b73(%rip),%rax        # 1302c <g_88>
    b4b9:	48 89 85 90 fd ff ff 	mov    %rax,-0x270(%rbp)
    b4c0:	48 c7 85 98 fd ff ff 	movq   $0x0,-0x268(%rbp)
    b4c7:	00 00 00 00 
    b4cb:	48 8d 05 5a 7b 00 00 	lea    0x7b5a(%rip),%rax        # 1302c <g_88>
    b4d2:	48 89 85 a0 fd ff ff 	mov    %rax,-0x260(%rbp)
    b4d9:	48 8d 85 98 fa ff ff 	lea    -0x568(%rbp),%rax
    b4e0:	48 89 85 a8 fd ff ff 	mov    %rax,-0x258(%rbp)
    b4e7:	48 c7 85 b0 fd ff ff 	movq   $0x0,-0x250(%rbp)
    b4ee:	00 00 00 00 
    b4f2:	48 c7 85 b8 fd ff ff 	movq   $0x0,-0x248(%rbp)
    b4f9:	00 00 00 00 
    b4fd:	48 8d 05 28 7b 00 00 	lea    0x7b28(%rip),%rax        # 1302c <g_88>
    b504:	48 89 85 c0 fd ff ff 	mov    %rax,-0x240(%rbp)
    b50b:	48 8d 05 1a 7b 00 00 	lea    0x7b1a(%rip),%rax        # 1302c <g_88>
    b512:	48 89 85 c8 fd ff ff 	mov    %rax,-0x238(%rbp)
    b519:	48 8d 85 48 f8 ff ff 	lea    -0x7b8(%rbp),%rax
    b520:	48 89 85 d0 fd ff ff 	mov    %rax,-0x230(%rbp)
    b527:	48 8d 85 48 f8 ff ff 	lea    -0x7b8(%rbp),%rax
    b52e:	48 89 85 d8 fd ff ff 	mov    %rax,-0x228(%rbp)
    b535:	48 8d 05 f0 7a 00 00 	lea    0x7af0(%rip),%rax        # 1302c <g_88>
    b53c:	48 89 85 e0 fd ff ff 	mov    %rax,-0x220(%rbp)
    b543:	48 8d 05 e2 7a 00 00 	lea    0x7ae2(%rip),%rax        # 1302c <g_88>
    b54a:	48 89 85 e8 fd ff ff 	mov    %rax,-0x218(%rbp)
    b551:	48 c7 85 f0 fd ff ff 	movq   $0x0,-0x210(%rbp)
    b558:	00 00 00 00 
    b55c:	48 c7 85 f8 fd ff ff 	movq   $0x0,-0x208(%rbp)
    b563:	00 00 00 00 
    b567:	48 c7 85 00 fe ff ff 	movq   $0x0,-0x200(%rbp)
    b56e:	00 00 00 00 
    b572:	48 8d 85 6c f8 ff ff 	lea    -0x794(%rbp),%rax
    b579:	48 89 85 08 fe ff ff 	mov    %rax,-0x1f8(%rbp)
    b580:	48 8d 85 98 fa ff ff 	lea    -0x568(%rbp),%rax
    b587:	48 89 85 10 fe ff ff 	mov    %rax,-0x1f0(%rbp)
    b58e:	48 8d 85 98 fa ff ff 	lea    -0x568(%rbp),%rax
    b595:	48 83 c0 04          	add    $0x4,%rax
    b599:	48 89 85 18 fe ff ff 	mov    %rax,-0x1e8(%rbp)
    b5a0:	48 8d 85 98 fa ff ff 	lea    -0x568(%rbp),%rax
    b5a7:	48 89 85 20 fe ff ff 	mov    %rax,-0x1e0(%rbp)
    b5ae:	48 8d 85 98 fa ff ff 	lea    -0x568(%rbp),%rax
    b5b5:	48 89 85 28 fe ff ff 	mov    %rax,-0x1d8(%rbp)
    b5bc:	48 8d 85 6c f8 ff ff 	lea    -0x794(%rbp),%rax
    b5c3:	48 89 85 30 fe ff ff 	mov    %rax,-0x1d0(%rbp)
    b5ca:	48 8d 85 98 fa ff ff 	lea    -0x568(%rbp),%rax
    b5d1:	48 89 85 38 fe ff ff 	mov    %rax,-0x1c8(%rbp)
    b5d8:	c7 85 d0 fb ff ff ff 	movl   $0xffffffff,-0x430(%rbp)
    b5df:	ff ff ff 
    b5e2:	c7 85 d4 fb ff ff 22 	movl   $0xb6eda322,-0x42c(%rbp)
    b5e9:	a3 ed b6 
    b5ec:	c7 85 d8 fb ff ff ff 	movl   $0xffffffff,-0x428(%rbp)
    b5f3:	ff ff ff 
    b5f6:	c7 85 dc fb ff ff 07 	movl   $0x7,-0x424(%rbp)
    b5fd:	00 00 00 
    b600:	c7 85 e0 fb ff ff 07 	movl   $0x7,-0x420(%rbp)
    b607:	00 00 00 
    b60a:	c7 85 e4 fb ff ff ff 	movl   $0xffffffff,-0x41c(%rbp)
    b611:	ff ff ff 
    b614:	c7 85 e8 fb ff ff 22 	movl   $0xb6eda322,-0x418(%rbp)
    b61b:	a3 ed b6 
    b61e:	c7 85 ec fb ff ff ff 	movl   $0xffffffff,-0x414(%rbp)
    b625:	ff ff ff 
    b628:	c7 85 f0 fb ff ff 22 	movl   $0xb6eda322,-0x410(%rbp)
    b62f:	a3 ed b6 
    b632:	c7 85 f4 fb ff ff ff 	movl   $0xffffffff,-0x40c(%rbp)
    b639:	ff ff ff 
    b63c:	c7 85 f8 fb ff ff 07 	movl   $0x7,-0x408(%rbp)
    b643:	00 00 00 
    b646:	c7 85 fc fb ff ff 07 	movl   $0x7,-0x404(%rbp)
    b64d:	00 00 00 
    b650:	c7 85 00 fc ff ff ff 	movl   $0xffffffff,-0x400(%rbp)
    b657:	ff ff ff 
    b65a:	c7 85 04 fc ff ff 22 	movl   $0xb6eda322,-0x3fc(%rbp)
    b661:	a3 ed b6 
    b664:	c6 85 31 f8 ff ff 03 	movb   $0x3,-0x7cf(%rbp)
    b66b:	c6 85 40 f9 ff ff 03 	movb   $0x3,-0x6c0(%rbp)
    b672:	48 83 ad 48 f9 ff ff 	subq   $0x1,-0x6b8(%rbp)
    b679:	01 
    b67a:	8b 85 40 f9 ff ff    	mov    -0x6c0(%rbp),%eax
    b680:	89 85 60 f8 ff ff    	mov    %eax,-0x7a0(%rbp)
    b686:	e9 09 05 00 00       	jmpq   bb94 <func_42+0x2398>
    b68b:	48 8d 85 64 f8 ff ff 	lea    -0x79c(%rbp),%rax
    b692:	48 89 85 e0 f9 ff ff 	mov    %rax,-0x620(%rbp)
    b699:	48 c7 85 e8 f9 ff ff 	movq   $0x0,-0x618(%rbp)
    b6a0:	00 00 00 00 
    b6a4:	48 8d 85 98 fa ff ff 	lea    -0x568(%rbp),%rax
    b6ab:	48 83 c0 04          	add    $0x4,%rax
    b6af:	48 89 85 40 fd ff ff 	mov    %rax,-0x2c0(%rbp)
    b6b6:	48 8d 85 48 f8 ff ff 	lea    -0x7b8(%rbp),%rax
    b6bd:	48 89 85 48 fd ff ff 	mov    %rax,-0x2b8(%rbp)
    b6c4:	48 8d 85 c0 fa ff ff 	lea    -0x540(%rbp),%rax
    b6cb:	48 83 c0 14          	add    $0x14,%rax
    b6cf:	48 89 85 50 fd ff ff 	mov    %rax,-0x2b0(%rbp)
    b6d6:	48 8d 85 c0 fa ff ff 	lea    -0x540(%rbp),%rax
    b6dd:	48 83 c0 04          	add    $0x4,%rax
    b6e1:	48 89 85 58 fd ff ff 	mov    %rax,-0x2a8(%rbp)
    b6e8:	48 8d 85 58 f8 ff ff 	lea    -0x7a8(%rbp),%rax
    b6ef:	48 89 85 60 fd ff ff 	mov    %rax,-0x2a0(%rbp)
    b6f6:	48 8d 85 c0 fa ff ff 	lea    -0x540(%rbp),%rax
    b6fd:	48 83 c0 14          	add    $0x14,%rax
    b701:	48 89 85 68 fd ff ff 	mov    %rax,-0x298(%rbp)
    b708:	48 8d 85 30 fb ff ff 	lea    -0x4d0(%rbp),%rax
    b70f:	48 83 c0 14          	add    $0x14,%rax
    b713:	48 89 85 70 fd ff ff 	mov    %rax,-0x290(%rbp)
    b71a:	48 8d 85 68 f8 ff ff 	lea    -0x798(%rbp),%rax
    b721:	48 89 85 78 fd ff ff 	mov    %rax,-0x288(%rbp)
    b728:	48 8d 85 48 f8 ff ff 	lea    -0x7b8(%rbp),%rax
    b72f:	48 89 85 80 fd ff ff 	mov    %rax,-0x280(%rbp)
    b736:	48 8d 85 64 f8 ff ff 	lea    -0x79c(%rbp),%rax
    b73d:	48 89 85 88 fd ff ff 	mov    %rax,-0x278(%rbp)
    b744:	48 8d 85 98 fa ff ff 	lea    -0x568(%rbp),%rax
    b74b:	48 83 c0 04          	add    $0x4,%rax
    b74f:	48 89 85 90 fd ff ff 	mov    %rax,-0x270(%rbp)
    b756:	48 8d 85 4c f8 ff ff 	lea    -0x7b4(%rbp),%rax
    b75d:	48 89 85 98 fd ff ff 	mov    %rax,-0x268(%rbp)
    b764:	48 8d 85 98 fa ff ff 	lea    -0x568(%rbp),%rax
    b76b:	48 83 c0 04          	add    $0x4,%rax
    b76f:	48 89 85 a0 fd ff ff 	mov    %rax,-0x260(%rbp)
    b776:	48 8d 85 64 f8 ff ff 	lea    -0x79c(%rbp),%rax
    b77d:	48 89 85 a8 fd ff ff 	mov    %rax,-0x258(%rbp)
    b784:	48 8d 85 48 f8 ff ff 	lea    -0x7b8(%rbp),%rax
    b78b:	48 89 85 b0 fd ff ff 	mov    %rax,-0x250(%rbp)
    b792:	48 8d 85 30 fb ff ff 	lea    -0x4d0(%rbp),%rax
    b799:	48 83 c0 14          	add    $0x14,%rax
    b79d:	48 89 85 b8 fd ff ff 	mov    %rax,-0x248(%rbp)
    b7a4:	48 8d 85 30 fb ff ff 	lea    -0x4d0(%rbp),%rax
    b7ab:	48 83 c0 1c          	add    $0x1c,%rax
    b7af:	48 89 85 c0 fd ff ff 	mov    %rax,-0x240(%rbp)
    b7b6:	48 8d 85 4c f8 ff ff 	lea    -0x7b4(%rbp),%rax
    b7bd:	48 89 85 c8 fd ff ff 	mov    %rax,-0x238(%rbp)
    b7c4:	48 8d 85 48 f8 ff ff 	lea    -0x7b8(%rbp),%rax
    b7cb:	48 89 85 d0 fd ff ff 	mov    %rax,-0x230(%rbp)
    b7d2:	48 8d 05 4f 78 00 00 	lea    0x784f(%rip),%rax        # 13028 <g_63>
    b7d9:	48 89 85 d8 fd ff ff 	mov    %rax,-0x228(%rbp)
    b7e0:	48 8d 85 4c f8 ff ff 	lea    -0x7b4(%rbp),%rax
    b7e7:	48 89 85 e0 fd ff ff 	mov    %rax,-0x220(%rbp)
    b7ee:	48 c7 85 e8 fd ff ff 	movq   $0x0,-0x218(%rbp)
    b7f5:	00 00 00 00 
    b7f9:	48 8d 85 58 f8 ff ff 	lea    -0x7a8(%rbp),%rax
    b800:	48 89 85 f0 fd ff ff 	mov    %rax,-0x210(%rbp)
    b807:	48 8d 85 30 fb ff ff 	lea    -0x4d0(%rbp),%rax
    b80e:	48 83 c0 1c          	add    $0x1c,%rax
    b812:	48 89 85 f8 fd ff ff 	mov    %rax,-0x208(%rbp)
    b819:	48 8d 85 30 fb ff ff 	lea    -0x4d0(%rbp),%rax
    b820:	48 83 c0 04          	add    $0x4,%rax
    b824:	48 89 85 00 fe ff ff 	mov    %rax,-0x200(%rbp)
    b82b:	48 8d 85 30 fb ff ff 	lea    -0x4d0(%rbp),%rax
    b832:	48 83 c0 1c          	add    $0x1c,%rax
    b836:	48 89 85 08 fe ff ff 	mov    %rax,-0x1f8(%rbp)
    b83d:	48 8d 85 c0 fa ff ff 	lea    -0x540(%rbp),%rax
    b844:	48 83 c0 04          	add    $0x4,%rax
    b848:	48 89 85 10 fe ff ff 	mov    %rax,-0x1f0(%rbp)
    b84f:	48 8d 85 64 f8 ff ff 	lea    -0x79c(%rbp),%rax
    b856:	48 89 85 18 fe ff ff 	mov    %rax,-0x1e8(%rbp)
    b85d:	48 8d 85 4c f8 ff ff 	lea    -0x7b4(%rbp),%rax
    b864:	48 89 85 20 fe ff ff 	mov    %rax,-0x1e0(%rbp)
    b86b:	48 8d 85 c0 fa ff ff 	lea    -0x540(%rbp),%rax
    b872:	48 83 c0 14          	add    $0x14,%rax
    b876:	48 89 85 28 fe ff ff 	mov    %rax,-0x1d8(%rbp)
    b87d:	48 8d 85 c0 fa ff ff 	lea    -0x540(%rbp),%rax
    b884:	48 83 c0 14          	add    $0x14,%rax
    b888:	48 89 85 30 fe ff ff 	mov    %rax,-0x1d0(%rbp)
    b88f:	48 8d 85 4c f8 ff ff 	lea    -0x7b4(%rbp),%rax
    b896:	48 89 85 38 fe ff ff 	mov    %rax,-0x1c8(%rbp)
    b89d:	48 8d 85 30 fb ff ff 	lea    -0x4d0(%rbp),%rax
    b8a4:	48 83 c0 1c          	add    $0x1c,%rax
    b8a8:	48 89 85 40 fe ff ff 	mov    %rax,-0x1c0(%rbp)
    b8af:	48 8d 85 30 fb ff ff 	lea    -0x4d0(%rbp),%rax
    b8b6:	48 83 c0 14          	add    $0x14,%rax
    b8ba:	48 89 85 48 fe ff ff 	mov    %rax,-0x1b8(%rbp)
    b8c1:	48 8d 85 30 fb ff ff 	lea    -0x4d0(%rbp),%rax
    b8c8:	48 83 c0 14          	add    $0x14,%rax
    b8cc:	48 89 85 50 fe ff ff 	mov    %rax,-0x1b0(%rbp)
    b8d3:	48 8d 85 30 fb ff ff 	lea    -0x4d0(%rbp),%rax
    b8da:	48 83 c0 1c          	add    $0x1c,%rax
    b8de:	48 89 85 58 fe ff ff 	mov    %rax,-0x1a8(%rbp)
    b8e5:	48 8d 85 98 fa ff ff 	lea    -0x568(%rbp),%rax
    b8ec:	48 83 c0 04          	add    $0x4,%rax
    b8f0:	48 89 85 60 fe ff ff 	mov    %rax,-0x1a0(%rbp)
    b8f7:	48 8d 85 30 fb ff ff 	lea    -0x4d0(%rbp),%rax
    b8fe:	48 83 c0 04          	add    $0x4,%rax
    b902:	48 89 85 68 fe ff ff 	mov    %rax,-0x198(%rbp)
    b909:	48 8d 85 68 f8 ff ff 	lea    -0x798(%rbp),%rax
    b910:	48 89 85 70 fe ff ff 	mov    %rax,-0x190(%rbp)
    b917:	48 8d 85 64 f8 ff ff 	lea    -0x79c(%rbp),%rax
    b91e:	48 89 85 78 fe ff ff 	mov    %rax,-0x188(%rbp)
    b925:	48 8d 85 48 f8 ff ff 	lea    -0x7b8(%rbp),%rax
    b92c:	48 89 85 80 fe ff ff 	mov    %rax,-0x180(%rbp)
    b933:	48 8d 85 68 f8 ff ff 	lea    -0x798(%rbp),%rax
    b93a:	48 89 85 88 fe ff ff 	mov    %rax,-0x178(%rbp)
    b941:	48 8d 85 74 f8 ff ff 	lea    -0x78c(%rbp),%rax
    b948:	48 89 85 90 fe ff ff 	mov    %rax,-0x170(%rbp)
    b94f:	48 8d 05 d2 76 00 00 	lea    0x76d2(%rip),%rax        # 13028 <g_63>
    b956:	48 89 85 98 fe ff ff 	mov    %rax,-0x168(%rbp)
    b95d:	48 8d 85 58 f8 ff ff 	lea    -0x7a8(%rbp),%rax
    b964:	48 89 85 a0 fe ff ff 	mov    %rax,-0x160(%rbp)
    b96b:	48 c7 85 a8 fe ff ff 	movq   $0x0,-0x158(%rbp)
    b972:	00 00 00 00 
    b976:	48 8d 05 ab 76 00 00 	lea    0x76ab(%rip),%rax        # 13028 <g_63>
    b97d:	48 89 85 b0 fe ff ff 	mov    %rax,-0x150(%rbp)
    b984:	48 8d 85 48 f8 ff ff 	lea    -0x7b8(%rbp),%rax
    b98b:	48 89 85 b8 fe ff ff 	mov    %rax,-0x148(%rbp)
    b992:	48 8d 85 98 fa ff ff 	lea    -0x568(%rbp),%rax
    b999:	48 83 c0 04          	add    $0x4,%rax
    b99d:	48 89 85 c0 fe ff ff 	mov    %rax,-0x140(%rbp)
    b9a4:	48 8d 85 68 f8 ff ff 	lea    -0x798(%rbp),%rax
    b9ab:	48 89 85 c8 fe ff ff 	mov    %rax,-0x138(%rbp)
    b9b2:	48 8d 85 c0 fa ff ff 	lea    -0x540(%rbp),%rax
    b9b9:	48 83 c0 04          	add    $0x4,%rax
    b9bd:	48 89 85 d0 fe ff ff 	mov    %rax,-0x130(%rbp)
    b9c4:	48 8d 85 30 fb ff ff 	lea    -0x4d0(%rbp),%rax
    b9cb:	48 83 c0 04          	add    $0x4,%rax
    b9cf:	48 89 85 d8 fe ff ff 	mov    %rax,-0x128(%rbp)
    b9d6:	48 8d 85 98 fa ff ff 	lea    -0x568(%rbp),%rax
    b9dd:	48 83 c0 04          	add    $0x4,%rax
    b9e1:	48 89 85 e0 fe ff ff 	mov    %rax,-0x120(%rbp)
    b9e8:	48 8d 85 30 fb ff ff 	lea    -0x4d0(%rbp),%rax
    b9ef:	48 83 c0 04          	add    $0x4,%rax
    b9f3:	48 89 85 e8 fe ff ff 	mov    %rax,-0x118(%rbp)
    b9fa:	48 8d 85 c0 fa ff ff 	lea    -0x540(%rbp),%rax
    ba01:	48 83 c0 04          	add    $0x4,%rax
    ba05:	48 89 85 f0 fe ff ff 	mov    %rax,-0x110(%rbp)
    ba0c:	48 8d 85 68 f8 ff ff 	lea    -0x798(%rbp),%rax
    ba13:	48 89 85 f8 fe ff ff 	mov    %rax,-0x108(%rbp)
    ba1a:	48 8d 85 68 f8 ff ff 	lea    -0x798(%rbp),%rax
    ba21:	48 89 85 00 ff ff ff 	mov    %rax,-0x100(%rbp)
    ba28:	48 8d 85 30 fb ff ff 	lea    -0x4d0(%rbp),%rax
    ba2f:	48 83 c0 14          	add    $0x14,%rax
    ba33:	48 89 85 08 ff ff ff 	mov    %rax,-0xf8(%rbp)
    ba3a:	48 8d 85 c0 fa ff ff 	lea    -0x540(%rbp),%rax
    ba41:	48 83 c0 14          	add    $0x14,%rax
    ba45:	48 89 85 10 ff ff ff 	mov    %rax,-0xf0(%rbp)
    ba4c:	48 8d 85 58 f8 ff ff 	lea    -0x7a8(%rbp),%rax
    ba53:	48 89 85 18 ff ff ff 	mov    %rax,-0xe8(%rbp)
    ba5a:	48 8d 85 c0 fa ff ff 	lea    -0x540(%rbp),%rax
    ba61:	48 83 c0 04          	add    $0x4,%rax
    ba65:	48 89 85 20 ff ff ff 	mov    %rax,-0xe0(%rbp)
    ba6c:	48 8d 85 c0 fa ff ff 	lea    -0x540(%rbp),%rax
    ba73:	48 83 c0 14          	add    $0x14,%rax
    ba77:	48 89 85 28 ff ff ff 	mov    %rax,-0xd8(%rbp)
    ba7e:	48 8d 85 48 f8 ff ff 	lea    -0x7b8(%rbp),%rax
    ba85:	48 89 85 30 ff ff ff 	mov    %rax,-0xd0(%rbp)
    ba8c:	48 8d 85 98 fa ff ff 	lea    -0x568(%rbp),%rax
    ba93:	48 83 c0 04          	add    $0x4,%rax
    ba97:	48 89 85 38 ff ff ff 	mov    %rax,-0xc8(%rbp)
    ba9e:	48 8d 85 48 f8 ff ff 	lea    -0x7b8(%rbp),%rax
    baa5:	48 89 85 40 ff ff ff 	mov    %rax,-0xc0(%rbp)
    baac:	48 8d 85 30 fb ff ff 	lea    -0x4d0(%rbp),%rax
    bab3:	48 83 c0 1c          	add    $0x1c,%rax
    bab7:	48 89 85 48 ff ff ff 	mov    %rax,-0xb8(%rbp)
    babe:	48 8d 85 c0 fa ff ff 	lea    -0x540(%rbp),%rax
    bac5:	48 83 c0 04          	add    $0x4,%rax
    bac9:	48 89 85 50 ff ff ff 	mov    %rax,-0xb0(%rbp)
    bad0:	48 8d 85 4c f8 ff ff 	lea    -0x7b4(%rbp),%rax
    bad7:	48 89 85 58 ff ff ff 	mov    %rax,-0xa8(%rbp)
    bade:	48 8d 85 68 f8 ff ff 	lea    -0x798(%rbp),%rax
    bae5:	48 89 85 60 ff ff ff 	mov    %rax,-0xa0(%rbp)
    baec:	48 c7 85 68 ff ff ff 	movq   $0x0,-0x98(%rbp)
    baf3:	00 00 00 00 
    baf7:	48 8d 85 48 f8 ff ff 	lea    -0x7b8(%rbp),%rax
    bafe:	48 89 85 70 ff ff ff 	mov    %rax,-0x90(%rbp)
    bb05:	48 8d 85 48 f8 ff ff 	lea    -0x7b8(%rbp),%rax
    bb0c:	48 89 85 78 ff ff ff 	mov    %rax,-0x88(%rbp)
    bb13:	48 8d 85 64 f8 ff ff 	lea    -0x79c(%rbp),%rax
    bb1a:	48 89 45 80          	mov    %rax,-0x80(%rbp)
    bb1e:	48 8d 85 4c f8 ff ff 	lea    -0x7b4(%rbp),%rax
    bb25:	48 89 45 88          	mov    %rax,-0x78(%rbp)
    bb29:	48 8d 85 c0 fa ff ff 	lea    -0x540(%rbp),%rax
    bb30:	48 83 c0 14          	add    $0x14,%rax
    bb34:	48 89 45 90          	mov    %rax,-0x70(%rbp)
    bb38:	48 8d 85 c0 fa ff ff 	lea    -0x540(%rbp),%rax
    bb3f:	48 83 c0 14          	add    $0x14,%rax
    bb43:	48 89 45 98          	mov    %rax,-0x68(%rbp)
    bb47:	48 8d 85 4c f8 ff ff 	lea    -0x7b4(%rbp),%rax
    bb4e:	48 89 45 a0          	mov    %rax,-0x60(%rbp)
    bb52:	48 8d 85 64 f8 ff ff 	lea    -0x79c(%rbp),%rax
    bb59:	48 89 45 a8          	mov    %rax,-0x58(%rbp)
    bb5d:	48 8d 85 c0 fa ff ff 	lea    -0x540(%rbp),%rax
    bb64:	48 83 c0 04          	add    $0x4,%rax
    bb68:	48 89 45 b0          	mov    %rax,-0x50(%rbp)
    bb6c:	48 8d 85 30 fb ff ff 	lea    -0x4d0(%rbp),%rax
    bb73:	48 83 c0 1c          	add    $0x1c,%rax
    bb77:	48 89 45 b8          	mov    %rax,-0x48(%rbp)
    bb7b:	66 83 ad 3e f8 ff ff 	subw   $0x1,-0x7c2(%rbp)
    bb82:	01 
    bb83:	48 8b 05 2e 93 00 00 	mov    0x932e(%rip),%rax        # 14eb8 <g_430>
    bb8a:	48 8d 95 70 f8 ff ff 	lea    -0x790(%rbp),%rdx
    bb91:	48 89 10             	mov    %rdx,(%rax)
    bb94:	0f be 9d 18 f8 ff ff 	movsbl -0x7e8(%rbp),%ebx
    bb9b:	be 0b 00 00 00       	mov    $0xb,%esi
    bba0:	bf 75 81 00 00       	mov    $0x8175,%edi
    bba5:	e8 d0 b2 ff ff       	callq  6e7a <safe_rshift_func_uint16_t_u_u>
    bbaa:	0f b7 c0             	movzwl %ax,%eax
    bbad:	89 85 74 f8 ff ff    	mov    %eax,-0x78c(%rbp)
    bbb3:	8b 85 74 f8 ff ff    	mov    -0x78c(%rbp),%eax
    bbb9:	09 c3                	or     %eax,%ebx
    bbbb:	89 da                	mov    %ebx,%edx
    bbbd:	8b 85 1c f8 ff ff    	mov    -0x7e4(%rbp),%eax
    bbc3:	21 d0                	and    %edx,%eax
    bbc5:	89 85 1c f8 ff ff    	mov    %eax,-0x7e4(%rbp)
    bbcb:	80 bd 18 f8 ff ff 00 	cmpb   $0x0,-0x7e8(%rbp)
    bbd2:	0f 85 85 02 00 00    	jne    be5d <func_42+0x2661>
    bbd8:	48 8d 85 1c f8 ff ff 	lea    -0x7e4(%rbp),%rax
    bbdf:	48 89 85 90 f9 ff ff 	mov    %rax,-0x670(%rbp)
    bbe6:	be 05 00 00 00       	mov    $0x5,%esi
    bbeb:	bf 8c fd 00 00       	mov    $0xfd8c,%edi
    bbf0:	e8 c9 b1 ff ff       	callq  6dbe <safe_lshift_func_uint16_t_u_s>
    bbf5:	66 85 c0             	test   %ax,%ax
    bbf8:	0f 85 ec 00 00 00    	jne    bcea <func_42+0x24ee>
    bbfe:	48 8b 05 bb 92 00 00 	mov    0x92bb(%rip),%rax        # 14ec0 <g_477>
    bc05:	48 8b 00             	mov    (%rax),%rax
    bc08:	48 8b 00             	mov    (%rax),%rax
    bc0b:	48 8b 00             	mov    (%rax),%rax
    bc0e:	48 89 c3             	mov    %rax,%rbx
    bc11:	0f be 85 18 f8 ff ff 	movsbl -0x7e8(%rbp),%eax
    bc18:	89 c6                	mov    %eax,%esi
    bc1a:	bf 01 00 00 00       	mov    $0x1,%edi
    bc1f:	e8 b0 a5 ff ff       	callq  61d4 <safe_add_func_int8_t_s_s>
    bc24:	38 85 18 f8 ff ff    	cmp    %al,-0x7e8(%rbp)
    bc2a:	0f 9f c0             	setg   %al
    bc2d:	0f b6 c0             	movzbl %al,%eax
    bc30:	be 05 00 00 00       	mov    $0x5,%esi
    bc35:	89 c7                	mov    %eax,%edi
    bc37:	e8 30 a7 ff ff       	callq  636c <safe_rshift_func_int8_t_s_u>
    bc3c:	48 0f be c0          	movsbq %al,%rax
    bc40:	48 89 de             	mov    %rbx,%rsi
    bc43:	48 89 c7             	mov    %rax,%rdi
    bc46:	e8 5d ac ff ff       	callq  68a8 <safe_sub_func_int64_t_s_s>
    bc4b:	83 c8 f6             	or     $0xfffffff6,%eax
    bc4e:	89 c1                	mov    %eax,%ecx
    bc50:	48 8b 85 58 f9 ff ff 	mov    -0x6a8(%rbp),%rax
    bc57:	8b 10                	mov    (%rax),%edx
    bc59:	80 85 2f f8 ff ff 01 	addb   $0x1,-0x7d1(%rbp)
    bc60:	0f b6 85 2f f8 ff ff 	movzbl -0x7d1(%rbp),%eax
    bc67:	39 c2                	cmp    %eax,%edx
    bc69:	0f 9c c0             	setl   %al
    bc6c:	0f b6 c0             	movzbl %al,%eax
    bc6f:	89 ce                	mov    %ecx,%esi
    bc71:	89 c7                	mov    %eax,%edi
    bc73:	e8 3e a9 ff ff       	callq  65b6 <safe_add_func_int32_t_s_s>
    bc78:	48 be 09 4a 40 75 2b 	movabs $0x45a0702b75404a09,%rsi
    bc7f:	70 a0 45 
    bc82:	48 bf 26 50 c0 4b 69 	movabs $0x8ede04694bc05026,%rdi
    bc89:	04 de 8e 
    bc8c:	e8 17 ac ff ff       	callq  68a8 <safe_sub_func_int64_t_s_s>
    bc91:	48 8b 95 58 f9 ff ff 	mov    -0x6a8(%rbp),%rdx
    bc98:	8b 12                	mov    (%rdx),%edx
    bc9a:	48 63 d2             	movslq %edx,%rdx
    bc9d:	48 39 d0             	cmp    %rdx,%rax
    bca0:	7e 09                	jle    bcab <func_42+0x24af>
    bca2:	80 bd 18 f8 ff ff 00 	cmpb   $0x0,-0x7e8(%rbp)
    bca9:	74 07                	je     bcb2 <func_42+0x24b6>
    bcab:	ba 01 00 00 00       	mov    $0x1,%edx
    bcb0:	eb 05                	jmp    bcb7 <func_42+0x24bb>
    bcb2:	ba 00 00 00 00       	mov    $0x0,%edx
    bcb7:	0f be 85 18 f8 ff ff 	movsbl -0x7e8(%rbp),%eax
    bcbe:	39 c2                	cmp    %eax,%edx
    bcc0:	0f 95 c0             	setne  %al
    bcc3:	0f b6 c0             	movzbl %al,%eax
    bcc6:	0f be 95 18 f8 ff ff 	movsbl -0x7e8(%rbp),%edx
    bccd:	89 c1                	mov    %eax,%ecx
    bccf:	0f b7 85 3c f8 ff ff 	movzwl -0x7c4(%rbp),%eax
    bcd6:	21 c8                	and    %ecx,%eax
    bcd8:	66 89 85 3c f8 ff ff 	mov    %ax,-0x7c4(%rbp)
    bcdf:	0f b7 85 3c f8 ff ff 	movzwl -0x7c4(%rbp),%eax
    bce6:	39 c2                	cmp    %eax,%edx
    bce8:	74 07                	je     bcf1 <func_42+0x24f5>
    bcea:	b8 01 00 00 00       	mov    $0x1,%eax
    bcef:	eb 05                	jmp    bcf6 <func_42+0x24fa>
    bcf1:	b8 00 00 00 00       	mov    $0x0,%eax
    bcf6:	48 98                	cltq   
    bcf8:	be 01 00 00 00       	mov    $0x1,%esi
    bcfd:	48 89 c7             	mov    %rax,%rdi
    bd00:	e8 a3 ab ff ff       	callq  68a8 <safe_sub_func_int64_t_s_s>
    bd05:	0f b6 45 c7          	movzbl -0x39(%rbp),%eax
    bd09:	83 c0 01             	add    $0x1,%eax
    bd0c:	88 45 c7             	mov    %al,-0x39(%rbp)
    bd0f:	0f b6 45 c7          	movzbl -0x39(%rbp),%eax
    bd13:	0f b6 d0             	movzbl %al,%edx
    bd16:	48 8b 85 90 f9 ff ff 	mov    -0x670(%rbp),%rax
    bd1d:	89 10                	mov    %edx,(%rax)
    bd1f:	48 8b 85 90 f9 ff ff 	mov    -0x670(%rbp),%rax
    bd26:	8b 00                	mov    (%rax),%eax
    bd28:	89 85 58 f8 ff ff    	mov    %eax,-0x7a8(%rbp)
    bd2e:	8b 85 58 f8 ff ff    	mov    -0x7a8(%rbp),%eax
    bd34:	3d ae 00 00 00       	cmp    $0xae,%eax
    bd39:	0f 9e c0             	setle  %al
    bd3c:	0f b6 d0             	movzbl %al,%edx
    bd3f:	48 8b 85 98 f9 ff ff 	mov    -0x668(%rbp),%rax
    bd46:	48 89 10             	mov    %rdx,(%rax)
    bd49:	48 8b 85 90 f9 ff ff 	mov    -0x670(%rbp),%rax
    bd50:	8b 10                	mov    (%rax),%edx
    bd52:	48 8b 85 a0 f9 ff ff 	mov    -0x660(%rbp),%rax
    bd59:	8b 00                	mov    (%rax),%eax
    bd5b:	21 c2                	and    %eax,%edx
    bd5d:	48 8b 85 a0 f9 ff ff 	mov    -0x660(%rbp),%rax
    bd64:	89 10                	mov    %edx,(%rax)
    bd66:	8b 85 1c f8 ff ff    	mov    -0x7e4(%rbp),%eax
    bd6c:	85 c0                	test   %eax,%eax
    bd6e:	0f 94 c0             	sete   %al
    bd71:	0f b6 d0             	movzbl %al,%edx
    bd74:	48 8b 85 58 f9 ff ff 	mov    -0x6a8(%rbp),%rax
    bd7b:	8b 00                	mov    (%rax),%eax
    bd7d:	09 c2                	or     %eax,%edx
    bd7f:	48 8b 85 58 f9 ff ff 	mov    -0x6a8(%rbp),%rax
    bd86:	89 10                	mov    %edx,(%rax)
    bd88:	c7 05 96 72 00 00 00 	movl   $0x0,0x7296(%rip)        # 13028 <g_63>
    bd8f:	00 00 00 
    bd92:	e9 ab 00 00 00       	jmpq   be42 <func_42+0x2646>
    bd97:	66 c7 85 44 f8 ff ff 	movw   $0x9230,-0x7bc(%rbp)
    bd9e:	30 92 
    bda0:	48 c7 85 88 fa ff ff 	movq   $0x0,-0x578(%rbp)
    bda7:	00 00 00 00 
    bdab:	48 8d 85 4c f8 ff ff 	lea    -0x7b4(%rbp),%rax
    bdb2:	48 89 85 90 fa ff ff 	mov    %rax,-0x570(%rbp)
    bdb9:	48 8d 85 58 f8 ff ff 	lea    -0x7a8(%rbp),%rax
    bdc0:	48 89 85 40 fd ff ff 	mov    %rax,-0x2c0(%rbp)
    bdc7:	48 8d 85 58 f8 ff ff 	lea    -0x7a8(%rbp),%rax
    bdce:	48 89 85 48 fd ff ff 	mov    %rax,-0x2b8(%rbp)
    bdd5:	48 8d 85 58 f8 ff ff 	lea    -0x7a8(%rbp),%rax
    bddc:	48 89 85 50 fd ff ff 	mov    %rax,-0x2b0(%rbp)
    bde3:	48 8d 85 58 f8 ff ff 	lea    -0x7a8(%rbp),%rax
    bdea:	48 89 85 58 fd ff ff 	mov    %rax,-0x2a8(%rbp)
    bdf1:	48 8d 85 58 f8 ff ff 	lea    -0x7a8(%rbp),%rax
    bdf8:	48 89 85 60 fd ff ff 	mov    %rax,-0x2a0(%rbp)
    bdff:	48 8d 85 58 f8 ff ff 	lea    -0x7a8(%rbp),%rax
    be06:	48 89 85 68 fd ff ff 	mov    %rax,-0x298(%rbp)
    be0d:	66 c7 85 46 f8 ff ff 	movw   $0x2,-0x7ba(%rbp)
    be14:	02 00 
    be16:	0f b7 85 46 f8 ff ff 	movzwl -0x7ba(%rbp),%eax
    be1d:	83 e8 01             	sub    $0x1,%eax
    be20:	66 89 85 46 f8 ff ff 	mov    %ax,-0x7ba(%rbp)
    be27:	8b 05 fb 71 00 00    	mov    0x71fb(%rip),%eax        # 13028 <g_63>
    be2d:	48 98                	cltq   
    be2f:	be 07 00 00 00       	mov    $0x7,%esi
    be34:	48 89 c7             	mov    %rax,%rdi
    be37:	e8 f2 b1 ff ff       	callq  702e <safe_add_func_uint64_t_u_u>
    be3c:	89 05 e6 71 00 00    	mov    %eax,0x71e6(%rip)        # 13028 <g_63>
    be42:	8b 05 e0 71 00 00    	mov    0x71e0(%rip),%eax        # 13028 <g_63>
    be48:	83 f8 16             	cmp    $0x16,%eax
    be4b:	0f 8e 46 ff ff ff    	jle    bd97 <func_42+0x259b>
    be51:	80 bd 18 f8 ff ff 00 	cmpb   $0x0,-0x7e8(%rbp)
    be58:	eb 04                	jmp    be5e <func_42+0x2662>
    be5a:	90                   	nop
    be5b:	eb 01                	jmp    be5e <func_42+0x2662>
    be5d:	90                   	nop
    be5e:	0f b6 05 4f 75 00 00 	movzbl 0x754f(%rip),%eax        # 133b4 <g_551>
    be65:	83 c0 01             	add    $0x1,%eax
    be68:	88 05 46 75 00 00    	mov    %al,0x7546(%rip)        # 133b4 <g_551>
    be6e:	0f b6 05 3f 75 00 00 	movzbl 0x753f(%rip),%eax        # 133b4 <g_551>
    be75:	3c f4                	cmp    $0xf4,%al
    be77:	0f 84 e1 da ff ff    	je     995e <func_42+0x162>
    be7d:	c7 85 48 f8 ff ff 04 	movl   $0x4,-0x7b8(%rbp)
    be84:	00 00 00 
    be87:	90                   	nop
    be88:	8b 85 48 f8 ff ff    	mov    -0x7b8(%rbp),%eax
    be8e:	85 c0                	test   %eax,%eax
    be90:	78 0a                	js     be9c <func_42+0x26a0>
    be92:	0f b7 05 01 75 00 00 	movzwl 0x7501(%rip),%eax        # 1339a <g_282+0xa>
    be99:	98                   	cwtl   
    be9a:	eb 08                	jmp    bea4 <func_42+0x26a8>
    be9c:	0f b7 05 e5 74 00 00 	movzwl 0x74e5(%rip),%eax        # 13388 <g_234>
    bea3:	98                   	cwtl   
    bea4:	48 8b 5d c8          	mov    -0x38(%rbp),%rbx
    bea8:	64 48 33 1c 25 28 00 	xor    %fs:0x28,%rbx
    beaf:	00 00 
    beb1:	74 05                	je     beb8 <func_42+0x26bc>
    beb3:	e8 b8 a1 ff ff       	callq  6070 <__stack_chk_fail@plt>
    beb8:	48 81 c4 d8 07 00 00 	add    $0x7d8,%rsp
    bebf:	5b                   	pop    %rbx
    bec0:	41 5c                	pop    %r12
    bec2:	41 5d                	pop    %r13
    bec4:	41 5e                	pop    %r14
    bec6:	41 5f                	pop    %r15
    bec8:	5d                   	pop    %rbp
    bec9:	c3                   	retq   

000000000000beca <func_45>:
    beca:	f3 0f 1e fa          	endbr64 
    bece:	55                   	push   %rbp
    becf:	48 89 e5             	mov    %rsp,%rbp
    bed2:	48 81 ec 50 03 00 00 	sub    $0x350,%rsp
    bed9:	89 bd bc fc ff ff    	mov    %edi,-0x344(%rbp)
    bedf:	64 48 8b 04 25 28 00 	mov    %fs:0x28,%rax
    bee6:	00 00 
    bee8:	48 89 45 f8          	mov    %rax,-0x8(%rbp)
    beec:	31 c0                	xor    %eax,%eax
    beee:	48 8d 85 a0 fe ff ff 	lea    -0x160(%rbp),%rax
    bef5:	48 8d 15 84 3b 00 00 	lea    0x3b84(%rip),%rdx        # fa80 <g_715+0xa28>
    befc:	b9 2a 00 00 00       	mov    $0x2a,%ecx
    bf01:	48 89 c7             	mov    %rax,%rdi
    bf04:	48 89 d6             	mov    %rdx,%rsi
    bf07:	f3 48 a5             	rep movsq %ds:(%rsi),%es:(%rdi)
    bf0a:	48 8d 05 13 71 00 00 	lea    0x7113(%rip),%rax        # 13024 <g_8>
    bf11:	48 89 85 f8 fc ff ff 	mov    %rax,-0x308(%rbp)
    bf18:	48 8d 85 f8 fc ff ff 	lea    -0x308(%rbp),%rax
    bf1f:	48 89 85 08 fd ff ff 	mov    %rax,-0x2f8(%rbp)
    bf26:	48 8d 05 ff 70 00 00 	lea    0x70ff(%rip),%rax        # 1302c <g_88>
    bf2d:	48 89 85 90 fd ff ff 	mov    %rax,-0x270(%rbp)
    bf34:	48 8d 05 f1 70 00 00 	lea    0x70f1(%rip),%rax        # 1302c <g_88>
    bf3b:	48 89 85 98 fd ff ff 	mov    %rax,-0x268(%rbp)
    bf42:	48 8d 05 e3 70 00 00 	lea    0x70e3(%rip),%rax        # 1302c <g_88>
    bf49:	48 89 85 a0 fd ff ff 	mov    %rax,-0x260(%rbp)
    bf50:	48 8d 05 d5 70 00 00 	lea    0x70d5(%rip),%rax        # 1302c <g_88>
    bf57:	48 89 85 a8 fd ff ff 	mov    %rax,-0x258(%rbp)
    bf5e:	48 8d 05 c7 70 00 00 	lea    0x70c7(%rip),%rax        # 1302c <g_88>
    bf65:	48 89 85 b0 fd ff ff 	mov    %rax,-0x250(%rbp)
    bf6c:	48 8d 05 b9 70 00 00 	lea    0x70b9(%rip),%rax        # 1302c <g_88>
    bf73:	48 89 85 b8 fd ff ff 	mov    %rax,-0x248(%rbp)
    bf7a:	48 8d 05 ab 70 00 00 	lea    0x70ab(%rip),%rax        # 1302c <g_88>
    bf81:	48 89 85 c0 fd ff ff 	mov    %rax,-0x240(%rbp)
    bf88:	48 8d 05 9d 70 00 00 	lea    0x709d(%rip),%rax        # 1302c <g_88>
    bf8f:	48 89 85 c8 fd ff ff 	mov    %rax,-0x238(%rbp)
    bf96:	48 8d 05 8f 70 00 00 	lea    0x708f(%rip),%rax        # 1302c <g_88>
    bf9d:	48 89 85 d0 fd ff ff 	mov    %rax,-0x230(%rbp)
    bfa4:	48 8d 05 81 70 00 00 	lea    0x7081(%rip),%rax        # 1302c <g_88>
    bfab:	48 89 85 d8 fd ff ff 	mov    %rax,-0x228(%rbp)
    bfb2:	48 8d 05 73 70 00 00 	lea    0x7073(%rip),%rax        # 1302c <g_88>
    bfb9:	48 89 85 e0 fd ff ff 	mov    %rax,-0x220(%rbp)
    bfc0:	48 8d 05 65 70 00 00 	lea    0x7065(%rip),%rax        # 1302c <g_88>
    bfc7:	48 89 85 e8 fd ff ff 	mov    %rax,-0x218(%rbp)
    bfce:	66 c7 85 c6 fc ff ff 	movw   $0xff9c,-0x33a(%rbp)
    bfd5:	9c ff 
    bfd7:	66 c7 85 c8 fc ff ff 	movw   $0x0,-0x338(%rbp)
    bfde:	00 00 
    bfe0:	c6 85 cc fc ff ff 0e 	movb   $0xe,-0x334(%rbp)
    bfe7:	c6 85 c4 fc ff ff b9 	movb   $0xb9,-0x33c(%rbp)
    bfee:	48 c7 85 00 fd ff ff 	movq   $0x0,-0x300(%rbp)
    bff5:	00 00 00 00 
    bff9:	48 8d 85 00 fd ff ff 	lea    -0x300(%rbp),%rax
    c000:	48 89 85 50 fd ff ff 	mov    %rax,-0x2b0(%rbp)
    c007:	48 8d 85 00 fd ff ff 	lea    -0x300(%rbp),%rax
    c00e:	48 89 85 58 fd ff ff 	mov    %rax,-0x2a8(%rbp)
    c015:	48 8d 85 00 fd ff ff 	lea    -0x300(%rbp),%rax
    c01c:	48 89 85 60 fd ff ff 	mov    %rax,-0x2a0(%rbp)
    c023:	48 8d 85 00 fd ff ff 	lea    -0x300(%rbp),%rax
    c02a:	48 89 85 68 fd ff ff 	mov    %rax,-0x298(%rbp)
    c031:	48 8d 85 00 fd ff ff 	lea    -0x300(%rbp),%rax
    c038:	48 89 85 70 fd ff ff 	mov    %rax,-0x290(%rbp)
    c03f:	48 8d 85 00 fd ff ff 	lea    -0x300(%rbp),%rax
    c046:	48 89 85 78 fd ff ff 	mov    %rax,-0x288(%rbp)
    c04d:	48 8d 85 00 fd ff ff 	lea    -0x300(%rbp),%rax
    c054:	48 89 85 80 fd ff ff 	mov    %rax,-0x280(%rbp)
    c05b:	48 8d 85 00 fd ff ff 	lea    -0x300(%rbp),%rax
    c062:	48 89 85 88 fd ff ff 	mov    %rax,-0x278(%rbp)
    c069:	66 c7 85 f0 fd ff ff 	movw   $0x0,-0x210(%rbp)
    c070:	00 00 
    c072:	66 c7 85 f2 fd ff ff 	movw   $0xd990,-0x20e(%rbp)
    c079:	90 d9 
    c07b:	66 c7 85 f4 fd ff ff 	movw   $0xffff,-0x20c(%rbp)
    c082:	ff ff 
    c084:	66 c7 85 f6 fd ff ff 	movw   $0x0,-0x20a(%rbp)
    c08b:	00 00 
    c08d:	66 c7 85 f8 fd ff ff 	movw   $0x5,-0x208(%rbp)
    c094:	05 00 
    c096:	66 c7 85 fa fd ff ff 	movw   $0x0,-0x206(%rbp)
    c09d:	00 00 
    c09f:	66 c7 85 fc fd ff ff 	movw   $0x0,-0x204(%rbp)
    c0a6:	00 00 
    c0a8:	66 c7 85 fe fd ff ff 	movw   $0xa72a,-0x202(%rbp)
    c0af:	2a a7 
    c0b1:	66 c7 85 00 fe ff ff 	movw   $0xfd7a,-0x200(%rbp)
    c0b8:	7a fd 
    c0ba:	66 c7 85 02 fe ff ff 	movw   $0xfffc,-0x1fe(%rbp)
    c0c1:	fc ff 
    c0c3:	66 c7 85 04 fe ff ff 	movw   $0xfd7a,-0x1fc(%rbp)
    c0ca:	7a fd 
    c0cc:	66 c7 85 06 fe ff ff 	movw   $0xa72a,-0x1fa(%rbp)
    c0d3:	2a a7 
    c0d5:	66 c7 85 08 fe ff ff 	movw   $0xffff,-0x1f8(%rbp)
    c0dc:	ff ff 
    c0de:	66 c7 85 0a fe ff ff 	movw   $0xffff,-0x1f6(%rbp)
    c0e5:	ff ff 
    c0e7:	66 c7 85 0c fe ff ff 	movw   $0xf742,-0x1f4(%rbp)
    c0ee:	42 f7 
    c0f0:	66 c7 85 0e fe ff ff 	movw   $0x7392,-0x1f2(%rbp)
    c0f7:	92 73 
    c0f9:	66 c7 85 10 fe ff ff 	movw   $0xd990,-0x1f0(%rbp)
    c100:	90 d9 
    c102:	66 c7 85 12 fe ff ff 	movw   $0x0,-0x1ee(%rbp)
    c109:	00 00 
    c10b:	66 c7 85 14 fe ff ff 	movw   $0xec44,-0x1ec(%rbp)
    c112:	44 ec 
    c114:	66 c7 85 16 fe ff ff 	movw   $0x0,-0x1ea(%rbp)
    c11b:	00 00 
    c11d:	66 c7 85 18 fe ff ff 	movw   $0xd990,-0x1e8(%rbp)
    c124:	90 d9 
    c126:	66 c7 85 1a fe ff ff 	movw   $0xffff,-0x1e6(%rbp)
    c12d:	ff ff 
    c12f:	66 c7 85 1c fe ff ff 	movw   $0xfffc,-0x1e4(%rbp)
    c136:	fc ff 
    c138:	66 c7 85 1e fe ff ff 	movw   $0xffff,-0x1e2(%rbp)
    c13f:	ff ff 
    c141:	66 c7 85 20 fe ff ff 	movw   $0xffff,-0x1e0(%rbp)
    c148:	ff ff 
    c14a:	66 c7 85 22 fe ff ff 	movw   $0xa72a,-0x1de(%rbp)
    c151:	2a a7 
    c153:	66 c7 85 24 fe ff ff 	movw   $0xfd7a,-0x1dc(%rbp)
    c15a:	7a fd 
    c15c:	66 c7 85 26 fe ff ff 	movw   $0xfffc,-0x1da(%rbp)
    c163:	fc ff 
    c165:	66 c7 85 28 fe ff ff 	movw   $0x0,-0x1d8(%rbp)
    c16c:	00 00 
    c16e:	66 c7 85 2a fe ff ff 	movw   $0xffff,-0x1d6(%rbp)
    c175:	ff ff 
    c177:	66 c7 85 2c fe ff ff 	movw   $0x5,-0x1d4(%rbp)
    c17e:	05 00 
    c180:	66 c7 85 2e fe ff ff 	movw   $0x5,-0x1d2(%rbp)
    c187:	05 00 
    c189:	66 c7 85 30 fe ff ff 	movw   $0xffff,-0x1d0(%rbp)
    c190:	ff ff 
    c192:	66 c7 85 32 fe ff ff 	movw   $0x0,-0x1ce(%rbp)
    c199:	00 00 
    c19b:	66 c7 85 34 fe ff ff 	movw   $0x7392,-0x1cc(%rbp)
    c1a2:	92 73 
    c1a4:	66 c7 85 36 fe ff ff 	movw   $0xfffc,-0x1ca(%rbp)
    c1ab:	fc ff 
    c1ad:	66 c7 85 38 fe ff ff 	movw   $0xffff,-0x1c8(%rbp)
    c1b4:	ff ff 
    c1b6:	66 c7 85 3a fe ff ff 	movw   $0xc85a,-0x1c6(%rbp)
    c1bd:	5a c8 
    c1bf:	66 c7 85 3c fe ff ff 	movw   $0x1,-0x1c4(%rbp)
    c1c6:	01 00 
    c1c8:	66 c7 85 3e fe ff ff 	movw   $0xa72a,-0x1c2(%rbp)
    c1cf:	2a a7 
    c1d1:	66 c7 85 40 fe ff ff 	movw   $0xa72a,-0x1c0(%rbp)
    c1d8:	2a a7 
    c1da:	66 c7 85 42 fe ff ff 	movw   $0x1,-0x1be(%rbp)
    c1e1:	01 00 
    c1e3:	66 c7 85 44 fe ff ff 	movw   $0x0,-0x1bc(%rbp)
    c1ea:	00 00 
    c1ec:	66 c7 85 46 fe ff ff 	movw   $0xec44,-0x1ba(%rbp)
    c1f3:	44 ec 
    c1f5:	66 c7 85 48 fe ff ff 	movw   $0x0,-0x1b8(%rbp)
    c1fc:	00 00 
    c1fe:	66 c7 85 4a fe ff ff 	movw   $0xd990,-0x1b6(%rbp)
    c205:	90 d9 
    c207:	66 c7 85 4c fe ff ff 	movw   $0x7392,-0x1b4(%rbp)
    c20e:	92 73 
    c210:	66 c7 85 4e fe ff ff 	movw   $0xf742,-0x1b2(%rbp)
    c217:	42 f7 
    c219:	66 c7 85 50 fe ff ff 	movw   $0x0,-0x1b0(%rbp)
    c220:	00 00 
    c222:	66 c7 85 52 fe ff ff 	movw   $0xc85a,-0x1ae(%rbp)
    c229:	5a c8 
    c22b:	66 c7 85 54 fe ff ff 	movw   $0xffff,-0x1ac(%rbp)
    c232:	ff ff 
    c234:	66 c7 85 56 fe ff ff 	movw   $0xfffc,-0x1aa(%rbp)
    c23b:	fc ff 
    c23d:	66 c7 85 58 fe ff ff 	movw   $0xfd7a,-0x1a8(%rbp)
    c244:	7a fd 
    c246:	66 c7 85 5a fe ff ff 	movw   $0xfffc,-0x1a6(%rbp)
    c24d:	fc ff 
    c24f:	66 c7 85 5c fe ff ff 	movw   $0xffff,-0x1a4(%rbp)
    c256:	ff ff 
    c258:	66 c7 85 5e fe ff ff 	movw   $0xc85a,-0x1a2(%rbp)
    c25f:	5a c8 
    c261:	66 c7 85 60 fe ff ff 	movw   $0x5,-0x1a0(%rbp)
    c268:	05 00 
    c26a:	66 c7 85 62 fe ff ff 	movw   $0xffff,-0x19e(%rbp)
    c271:	ff ff 
    c273:	66 c7 85 64 fe ff ff 	movw   $0x0,-0x19c(%rbp)
    c27a:	00 00 
    c27c:	66 c7 85 66 fe ff ff 	movw   $0x7392,-0x19a(%rbp)
    c283:	92 73 
    c285:	66 c7 85 68 fe ff ff 	movw   $0x0,-0x198(%rbp)
    c28c:	00 00 
    c28e:	66 c7 85 6a fe ff ff 	movw   $0xf742,-0x196(%rbp)
    c295:	42 f7 
    c297:	66 c7 85 6c fe ff ff 	movw   $0x0,-0x194(%rbp)
    c29e:	00 00 
    c2a0:	66 c7 85 6e fe ff ff 	movw   $0xffff,-0x192(%rbp)
    c2a7:	ff ff 
    c2a9:	66 c7 85 70 fe ff ff 	movw   $0xfffc,-0x190(%rbp)
    c2b0:	fc ff 
    c2b2:	66 c7 85 72 fe ff ff 	movw   $0xfffc,-0x18e(%rbp)
    c2b9:	fc ff 
    c2bb:	66 c7 85 74 fe ff ff 	movw   $0xffff,-0x18c(%rbp)
    c2c2:	ff ff 
    c2c4:	66 c7 85 76 fe ff ff 	movw   $0xffff,-0x18a(%rbp)
    c2cb:	ff ff 
    c2cd:	66 c7 85 78 fe ff ff 	movw   $0xa72a,-0x188(%rbp)
    c2d4:	2a a7 
    c2d6:	66 c7 85 7a fe ff ff 	movw   $0xfd7a,-0x186(%rbp)
    c2dd:	7a fd 
    c2df:	66 c7 85 7c fe ff ff 	movw   $0x7360,-0x184(%rbp)
    c2e6:	60 73 
    c2e8:	66 c7 85 7e fe ff ff 	movw   $0xffff,-0x182(%rbp)
    c2ef:	ff ff 
    c2f1:	66 c7 85 80 fe ff ff 	movw   $0x0,-0x180(%rbp)
    c2f8:	00 00 
    c2fa:	66 c7 85 82 fe ff ff 	movw   $0x0,-0x17e(%rbp)
    c301:	00 00 
    c303:	66 c7 85 84 fe ff ff 	movw   $0x0,-0x17c(%rbp)
    c30a:	00 00 
    c30c:	66 c7 85 86 fe ff ff 	movw   $0x0,-0x17a(%rbp)
    c313:	00 00 
    c315:	66 c7 85 88 fe ff ff 	movw   $0xffff,-0x178(%rbp)
    c31c:	ff ff 
    c31e:	66 c7 85 8a fe ff ff 	movw   $0xffff,-0x176(%rbp)
    c325:	ff ff 
    c327:	66 c7 85 8c fe ff ff 	movw   $0xc85a,-0x174(%rbp)
    c32e:	5a c8 
    c330:	66 c7 85 8e fe ff ff 	movw   $0xfffc,-0x172(%rbp)
    c337:	fc ff 
    c339:	66 c7 85 90 fe ff ff 	movw   $0xf95b,-0x170(%rbp)
    c340:	5b f9 
    c342:	66 c7 85 92 fe ff ff 	movw   $0xfffc,-0x16e(%rbp)
    c349:	fc ff 
    c34b:	66 c7 85 94 fe ff ff 	movw   $0xfd7a,-0x16c(%rbp)
    c352:	7a fd 
    c354:	66 c7 85 96 fe ff ff 	movw   $0xfd7a,-0x16a(%rbp)
    c35b:	7a fd 
    c35d:	c7 05 c9 6c 00 00 e5 	movl   $0xffffffe5,0x6cc9(%rip)        # 13030 <g_111>
    c364:	ff ff ff 
    c367:	e9 e9 00 00 00       	jmpq   c455 <func_45+0x58b>
    c36c:	48 8d 05 39 70 00 00 	lea    0x7039(%rip),%rax        # 133ac <g_299>
    c373:	48 89 85 10 fd ff ff 	mov    %rax,-0x2f0(%rbp)
    c37a:	c7 85 d4 fc ff ff ff 	movl   $0xffffffff,-0x32c(%rbp)
    c381:	ff ff ff 
    c384:	c6 85 c5 fc ff ff 66 	movb   $0x66,-0x33b(%rbp)
    c38b:	c7 85 d8 fc ff ff d3 	movl   $0x4d7d51d3,-0x328(%rbp)
    c392:	51 7d 4d 
    c395:	c7 85 dc fc ff ff 05 	movl   $0x5,-0x324(%rbp)
    c39c:	00 00 00 
    c39f:	c7 85 e0 fc ff ff 42 	movl   $0x36286f42,-0x320(%rbp)
    c3a6:	6f 28 36 
    c3a9:	c7 85 e4 fc ff ff 01 	movl   $0x1,-0x31c(%rbp)
    c3b0:	00 00 00 
    c3b3:	c7 85 e8 fc ff ff 1f 	movl   $0xfd69701f,-0x318(%rbp)
    c3ba:	70 69 fd 
    c3bd:	c7 85 ec fc ff ff ff 	movl   $0xffffffff,-0x314(%rbp)
    c3c4:	ff ff ff 
    c3c7:	c7 85 f0 fc ff ff 00 	movl   $0x0,-0x310(%rbp)
    c3ce:	00 00 00 
    c3d1:	c7 85 f4 fc ff ff 08 	movl   $0x8,-0x30c(%rbp)
    c3d8:	00 00 00 
    c3db:	48 c7 85 18 fd ff ff 	movq   $0x0,-0x2e8(%rbp)
    c3e2:	00 00 00 00 
    c3e6:	48 8d 85 90 fd ff ff 	lea    -0x270(%rbp),%rax
    c3ed:	48 83 c0 38          	add    $0x38,%rax
    c3f1:	48 89 85 20 fd ff ff 	mov    %rax,-0x2e0(%rbp)
    c3f8:	66 c7 85 ca fc ff ff 	movw   $0x63c8,-0x336(%rbp)
    c3ff:	c8 63 
    c401:	48 8d 05 a0 8a 00 00 	lea    0x8aa0(%rip),%rax        # 14ea8 <g_420>
    c408:	48 89 85 28 fd ff ff 	mov    %rax,-0x2d8(%rbp)
    c40f:	c7 85 d0 fc ff ff 00 	movl   $0x0,-0x330(%rbp)
    c416:	00 00 00 
    c419:	eb 19                	jmp    c434 <func_45+0x56a>
    c41b:	8b 85 d0 fc ff ff    	mov    -0x330(%rbp),%eax
    c421:	48 98                	cltq   
    c423:	66 c7 84 45 30 fd ff 	movw   $0xfffa,-0x2d0(%rbp,%rax,2)
    c42a:	ff fa ff 
    c42d:	83 85 d0 fc ff ff 01 	addl   $0x1,-0x330(%rbp)
    c434:	83 bd d0 fc ff ff 08 	cmpl   $0x8,-0x330(%rbp)
    c43b:	7e de                	jle    c41b <func_45+0x551>
    c43d:	8b 05 ed 6b 00 00    	mov    0x6bed(%rip),%eax        # 13030 <g_111>
    c443:	be 03 00 00 00       	mov    $0x3,%esi
    c448:	89 c7                	mov    %eax,%edi
    c44a:	e8 67 a1 ff ff       	callq  65b6 <safe_add_func_int32_t_s_s>
    c44f:	89 05 db 6b 00 00    	mov    %eax,0x6bdb(%rip)        # 13030 <g_111>
    c455:	8b 05 d5 6b 00 00    	mov    0x6bd5(%rip),%eax        # 13030 <g_111>
    c45b:	83 f8 06             	cmp    $0x6,%eax
    c45e:	0f 85 08 ff ff ff    	jne    c36c <func_45+0x4a2>
    c464:	0f b7 85 08 fe ff ff 	movzwl -0x1f8(%rbp),%eax
    c46b:	0f b7 c0             	movzwl %ax,%eax
    c46e:	48 8b 55 f8          	mov    -0x8(%rbp),%rdx
    c472:	64 48 33 14 25 28 00 	xor    %fs:0x28,%rdx
    c479:	00 00 
    c47b:	74 05                	je     c482 <func_45+0x5b8>
    c47d:	e8 ee 9b ff ff       	callq  6070 <__stack_chk_fail@plt>
    c482:	c9                   	leaveq 
    c483:	c3                   	retq   

000000000000c484 <func_49>:
    c484:	f3 0f 1e fa          	endbr64 
    c488:	55                   	push   %rbp
    c489:	48 89 e5             	mov    %rsp,%rbp
    c48c:	53                   	push   %rbx
    c48d:	48 81 ec a8 02 00 00 	sub    $0x2a8,%rsp
    c494:	89 f8                	mov    %edi,%eax
    c496:	89 b5 68 fd ff ff    	mov    %esi,-0x298(%rbp)
    c49c:	89 95 64 fd ff ff    	mov    %edx,-0x29c(%rbp)
    c4a2:	89 ca                	mov    %ecx,%edx
    c4a4:	44 89 85 5c fd ff ff 	mov    %r8d,-0x2a4(%rbp)
    c4ab:	66 89 85 6c fd ff ff 	mov    %ax,-0x294(%rbp)
    c4b2:	89 d0                	mov    %edx,%eax
    c4b4:	88 85 60 fd ff ff    	mov    %al,-0x2a0(%rbp)
    c4ba:	64 48 8b 04 25 28 00 	mov    %fs:0x28,%rax
    c4c1:	00 00 
    c4c3:	48 89 45 e8          	mov    %rax,-0x18(%rbp)
    c4c7:	31 c0                	xor    %eax,%eax
    c4c9:	48 8d 05 bc 6e 00 00 	lea    0x6ebc(%rip),%rax        # 1338c <g_269>
    c4d0:	48 89 85 a8 fd ff ff 	mov    %rax,-0x258(%rbp)
    c4d7:	48 8d 05 46 6b 00 00 	lea    0x6b46(%rip),%rax        # 13024 <g_8>
    c4de:	48 89 85 b8 fd ff ff 	mov    %rax,-0x248(%rbp)
    c4e5:	66 c7 85 7c fd ff ff 	movw   $0x0,-0x284(%rbp)
    c4ec:	00 00 
    c4ee:	48 8d 05 ab 89 00 00 	lea    0x89ab(%rip),%rax        # 14ea0 <g_370>
    c4f5:	48 89 85 c0 fd ff ff 	mov    %rax,-0x240(%rbp)
    c4fc:	48 8d 05 ad 6e 00 00 	lea    0x6ead(%rip),%rax        # 133b0 <g_421>
    c503:	48 89 85 c8 fd ff ff 	mov    %rax,-0x238(%rbp)
    c50a:	c7 85 88 fd ff ff 00 	movl   $0x0,-0x278(%rbp)
    c511:	00 00 00 
    c514:	eb 45                	jmp    c55b <func_49+0xd7>
    c516:	c7 85 8c fd ff ff 00 	movl   $0x0,-0x274(%rbp)
    c51d:	00 00 00 
    c520:	eb 29                	jmp    c54b <func_49+0xc7>
    c522:	8b 85 8c fd ff ff    	mov    -0x274(%rbp),%eax
    c528:	48 98                	cltq   
    c52a:	8b 95 88 fd ff ff    	mov    -0x278(%rbp),%edx
    c530:	48 63 d2             	movslq %edx,%rdx
    c533:	48 01 d2             	add    %rdx,%rdx
    c536:	48 01 d0             	add    %rdx,%rax
    c539:	c7 84 85 60 fe ff ff 	movl   $0x3d790bba,-0x1a0(%rbp,%rax,4)
    c540:	ba 0b 79 3d 
    c544:	83 85 8c fd ff ff 01 	addl   $0x1,-0x274(%rbp)
    c54b:	83 bd 8c fd ff ff 01 	cmpl   $0x1,-0x274(%rbp)
    c552:	7e ce                	jle    c522 <func_49+0x9e>
    c554:	83 85 88 fd ff ff 01 	addl   $0x1,-0x278(%rbp)
    c55b:	83 bd 88 fd ff ff 01 	cmpl   $0x1,-0x278(%rbp)
    c562:	7e b2                	jle    c516 <func_49+0x92>
    c564:	90                   	nop
    c565:	0f b6 85 60 fd ff ff 	movzbl -0x2a0(%rbp),%eax
    c56c:	89 c7                	mov    %eax,%edi
    c56e:	e8 1c 23 00 00       	callq  e88f <func_59>
    c573:	3c 5e                	cmp    $0x5e,%al
    c575:	0f 97 c0             	seta   %al
    c578:	0f b6 c0             	movzbl %al,%eax
    c57b:	89 c7                	mov    %eax,%edi
    c57d:	e8 c5 0b 00 00       	callq  d147 <func_57>
    c582:	89 c2                	mov    %eax,%edx
    c584:	48 8b 85 a8 fd ff ff 	mov    -0x258(%rbp),%rax
    c58b:	8b 08                	mov    (%rax),%ecx
    c58d:	48 8b 85 a8 fd ff ff 	mov    -0x258(%rbp),%rax
    c594:	21 ca                	and    %ecx,%edx
    c596:	89 10                	mov    %edx,(%rax)
    c598:	c7 05 8e 6a 00 00 f8 	movl   $0xfffffff8,0x6a8e(%rip)        # 13030 <g_111>
    c59f:	ff ff ff 
    c5a2:	e9 45 02 00 00       	jmpq   c7ec <func_49+0x368>
    c5a7:	c7 85 a4 fd ff ff 01 	movl   $0x1,-0x25c(%rbp)
    c5ae:	00 00 00 
    c5b1:	c7 85 90 fd ff ff 00 	movl   $0x0,-0x270(%rbp)
    c5b8:	00 00 00 
    c5bb:	eb 1e                	jmp    c5db <func_49+0x157>
    c5bd:	8b 85 90 fd ff ff    	mov    -0x270(%rbp),%eax
    c5c3:	48 98                	cltq   
    c5c5:	48 8d 15 5c 6a 00 00 	lea    0x6a5c(%rip),%rdx        # 13028 <g_63>
    c5cc:	48 89 94 c5 c0 fe ff 	mov    %rdx,-0x140(%rbp,%rax,8)
    c5d3:	ff 
    c5d4:	83 85 90 fd ff ff 01 	addl   $0x1,-0x270(%rbp)
    c5db:	83 bd 90 fd ff ff 08 	cmpl   $0x8,-0x270(%rbp)
    c5e2:	7e d9                	jle    c5bd <func_49+0x139>
    c5e4:	66 c7 05 bf 6d 00 00 	movw   $0x0,0x6dbf(%rip)        # 133ac <g_299>
    c5eb:	00 00 
    c5ed:	90                   	nop
    c5ee:	0f b7 05 b7 6d 00 00 	movzwl 0x6db7(%rip),%eax        # 133ac <g_299>
    c5f5:	66 83 f8 38          	cmp    $0x38,%ax
    c5f9:	0f 87 7b 01 00 00    	ja     c77a <func_49+0x2f6>
    c5ff:	c6 85 7b fd ff ff ff 	movb   $0xff,-0x285(%rbp)
    c606:	c7 85 5c fd ff ff f8 	movl   $0xfffffff8,-0x2a4(%rbp)
    c60d:	ff ff ff 
    c610:	90                   	nop
    c611:	8b 85 5c fd ff ff    	mov    -0x2a4(%rbp),%eax
    c617:	83 f8 e6             	cmp    $0xffffffe6,%eax
    c61a:	0f 8d 4d 01 00 00    	jge    c76d <func_49+0x2e9>
    c620:	48 8d 05 01 6a 00 00 	lea    0x6a01(%rip),%rax        # 13028 <g_63>
    c627:	48 89 85 38 fe ff ff 	mov    %rax,-0x1c8(%rbp)
    c62e:	48 8d 05 f7 69 00 00 	lea    0x69f7(%rip),%rax        # 1302c <g_88>
    c635:	48 89 85 40 fe ff ff 	mov    %rax,-0x1c0(%rbp)
    c63c:	48 8d 05 e5 69 00 00 	lea    0x69e5(%rip),%rax        # 13028 <g_63>
    c643:	48 89 85 48 fe ff ff 	mov    %rax,-0x1b8(%rbp)
    c64a:	48 c7 85 50 fe ff ff 	movq   $0x0,-0x1b0(%rbp)
    c651:	00 00 00 00 
    c655:	48 8d 05 30 6d 00 00 	lea    0x6d30(%rip),%rax        # 1338c <g_269>
    c65c:	48 89 85 10 ff ff ff 	mov    %rax,-0xf0(%rbp)
    c663:	48 8d 05 22 6d 00 00 	lea    0x6d22(%rip),%rax        # 1338c <g_269>
    c66a:	48 89 85 18 ff ff ff 	mov    %rax,-0xe8(%rbp)
    c671:	48 8d 05 14 6d 00 00 	lea    0x6d14(%rip),%rax        # 1338c <g_269>
    c678:	48 89 85 20 ff ff ff 	mov    %rax,-0xe0(%rbp)
    c67f:	48 8d 05 06 6d 00 00 	lea    0x6d06(%rip),%rax        # 1338c <g_269>
    c686:	48 89 85 28 ff ff ff 	mov    %rax,-0xd8(%rbp)
    c68d:	48 8d 05 f8 6c 00 00 	lea    0x6cf8(%rip),%rax        # 1338c <g_269>
    c694:	48 89 85 30 ff ff ff 	mov    %rax,-0xd0(%rbp)
    c69b:	48 8d 05 86 69 00 00 	lea    0x6986(%rip),%rax        # 13028 <g_63>
    c6a2:	48 89 85 38 ff ff ff 	mov    %rax,-0xc8(%rbp)
    c6a9:	48 8d 05 dc 6c 00 00 	lea    0x6cdc(%rip),%rax        # 1338c <g_269>
    c6b0:	48 89 85 40 ff ff ff 	mov    %rax,-0xc0(%rbp)
    c6b7:	48 8d 05 6a 69 00 00 	lea    0x696a(%rip),%rax        # 13028 <g_63>
    c6be:	48 89 85 48 ff ff ff 	mov    %rax,-0xb8(%rbp)
    c6c5:	48 8d 05 5c 69 00 00 	lea    0x695c(%rip),%rax        # 13028 <g_63>
    c6cc:	48 89 85 50 ff ff ff 	mov    %rax,-0xb0(%rbp)
    c6d3:	48 8d 05 b2 6c 00 00 	lea    0x6cb2(%rip),%rax        # 1338c <g_269>
    c6da:	48 89 85 58 ff ff ff 	mov    %rax,-0xa8(%rbp)
    c6e1:	48 8d 05 a4 6c 00 00 	lea    0x6ca4(%rip),%rax        # 1338c <g_269>
    c6e8:	48 89 85 60 ff ff ff 	mov    %rax,-0xa0(%rbp)
    c6ef:	48 8d 05 32 69 00 00 	lea    0x6932(%rip),%rax        # 13028 <g_63>
    c6f6:	48 89 85 68 ff ff ff 	mov    %rax,-0x98(%rbp)
    c6fd:	48 8d 05 24 69 00 00 	lea    0x6924(%rip),%rax        # 13028 <g_63>
    c704:	48 89 85 70 ff ff ff 	mov    %rax,-0x90(%rbp)
    c70b:	48 8d 05 7a 6c 00 00 	lea    0x6c7a(%rip),%rax        # 1338c <g_269>
    c712:	48 89 85 78 ff ff ff 	mov    %rax,-0x88(%rbp)
    c719:	48 8d 05 08 69 00 00 	lea    0x6908(%rip),%rax        # 13028 <g_63>
    c720:	48 89 45 80          	mov    %rax,-0x80(%rbp)
    c724:	48 8d 05 61 6c 00 00 	lea    0x6c61(%rip),%rax        # 1338c <g_269>
    c72b:	48 89 45 88          	mov    %rax,-0x78(%rbp)
    c72f:	48 8d 05 56 6c 00 00 	lea    0x6c56(%rip),%rax        # 1338c <g_269>
    c736:	48 89 45 90          	mov    %rax,-0x70(%rbp)
    c73a:	48 8d 05 4b 6c 00 00 	lea    0x6c4b(%rip),%rax        # 1338c <g_269>
    c741:	48 89 45 98          	mov    %rax,-0x68(%rbp)
    c745:	48 8d 05 40 6c 00 00 	lea    0x6c40(%rip),%rax        # 1338c <g_269>
    c74c:	48 89 45 a0          	mov    %rax,-0x60(%rbp)
    c750:	48 8d 05 35 6c 00 00 	lea    0x6c35(%rip),%rax        # 1338c <g_269>
    c757:	48 89 45 a8          	mov    %rax,-0x58(%rbp)
    c75b:	80 ad 7b fd ff ff 01 	subb   $0x1,-0x285(%rbp)
    c762:	8b 85 a4 fd ff ff    	mov    -0x25c(%rbp),%eax
    c768:	e9 bc 09 00 00       	jmpq   d129 <func_49+0xca5>
    c76d:	8b 05 d1 6a 00 00    	mov    0x6ad1(%rip),%eax        # 13244 <g_155+0x4>
    c773:	89 c0                	mov    %eax,%eax
    c775:	e9 af 09 00 00       	jmpq   d129 <func_49+0xca5>
    c77a:	c7 85 68 fd ff ff ec 	movl   $0xffffffec,-0x298(%rbp)
    c781:	ff ff ff 
    c784:	eb 4e                	jmp    c7d4 <func_49+0x350>
    c786:	48 8d 05 33 78 00 00 	lea    0x7833(%rip),%rax        # 13fc0 <g_194>
    c78d:	48 89 85 30 fe ff ff 	mov    %rax,-0x1d0(%rbp)
    c794:	48 8b 85 30 fe ff ff 	mov    -0x1d0(%rbp),%rax
    c79b:	48 8d 95 5c fd ff ff 	lea    -0x2a4(%rbp),%rdx
    c7a2:	48 89 10             	mov    %rdx,(%rax)
    c7a5:	48 8b 85 30 fe ff ff 	mov    -0x1d0(%rbp),%rax
    c7ac:	48 8b 00             	mov    (%rax),%rax
    c7af:	48 89 85 c0 fe ff ff 	mov    %rax,-0x140(%rbp)
    c7b6:	8b 85 68 fd ff ff    	mov    -0x298(%rbp),%eax
    c7bc:	0f b6 c0             	movzbl %al,%eax
    c7bf:	be 04 00 00 00       	mov    $0x4,%esi
    c7c4:	89 c7                	mov    %eax,%edi
    c7c6:	e8 8f a3 ff ff       	callq  6b5a <safe_add_func_uint8_t_u_u>
    c7cb:	0f b6 c0             	movzbl %al,%eax
    c7ce:	89 85 68 fd ff ff    	mov    %eax,-0x298(%rbp)
    c7d4:	83 bd 68 fd ff ff 3c 	cmpl   $0x3c,-0x298(%rbp)
    c7db:	74 a9                	je     c786 <func_49+0x302>
    c7dd:	8b 05 4d 68 00 00    	mov    0x684d(%rip),%eax        # 13030 <g_111>
    c7e3:	83 c0 01             	add    $0x1,%eax
    c7e6:	89 05 44 68 00 00    	mov    %eax,0x6844(%rip)        # 13030 <g_111>
    c7ec:	8b 05 3e 68 00 00    	mov    0x683e(%rip),%eax        # 13030 <g_111>
    c7f2:	83 f8 17             	cmp    $0x17,%eax
    c7f5:	0f 85 ac fd ff ff    	jne    c5a7 <func_49+0x123>
    c7fb:	c7 85 5c fd ff ff 00 	movl   $0x0,-0x2a4(%rbp)
    c802:	00 00 00 
    c805:	e9 60 06 00 00       	jmpq   ce6a <func_49+0x9e6>
    c80a:	48 8d 05 9f 6b 00 00 	lea    0x6b9f(%rip),%rax        # 133b0 <g_421>
    c811:	48 89 85 f0 fd ff ff 	mov    %rax,-0x210(%rbp)
    c818:	c7 85 80 fd ff ff 01 	movl   $0x1,-0x280(%rbp)
    c81f:	00 00 00 
    c822:	c7 85 84 fd ff ff 3f 	movl   $0x2a0e083f,-0x27c(%rbp)
    c829:	08 0e 2a 
    c82c:	66 c7 85 7e fd ff ff 	movw   $0x8,-0x282(%rbp)
    c833:	08 00 
    c835:	48 8d 85 60 fe ff ff 	lea    -0x1a0(%rbp),%rax
    c83c:	48 83 c0 08          	add    $0x8,%rax
    c840:	48 89 85 f8 fd ff ff 	mov    %rax,-0x208(%rbp)
    c847:	c7 05 d7 67 00 00 00 	movl   $0x0,0x67d7(%rip)        # 13028 <g_63>
    c84e:	00 00 00 
    c851:	e9 f6 05 00 00       	jmpq   ce4c <func_49+0x9c8>
    c856:	c6 85 79 fd ff ff fa 	movb   $0xfa,-0x287(%rbp)
    c85d:	c7 85 9c fd ff ff 30 	movl   $0xa6d86730,-0x264(%rbp)
    c864:	67 d8 a6 
    c867:	c6 85 90 fe ff ff 03 	movb   $0x3,-0x170(%rbp)
    c86e:	c6 85 94 fe ff ff 03 	movb   $0x3,-0x16c(%rbp)
    c875:	c6 85 98 fe ff ff 03 	movb   $0x3,-0x168(%rbp)
    c87c:	c6 85 9c fe ff ff 02 	movb   $0x2,-0x164(%rbp)
    c883:	c6 85 a0 fe ff ff 02 	movb   $0x2,-0x160(%rbp)
    c88a:	c6 85 a4 fe ff ff 02 	movb   $0x2,-0x15c(%rbp)
    c891:	c6 85 a8 fe ff ff 03 	movb   $0x3,-0x158(%rbp)
    c898:	c6 85 ac fe ff ff 03 	movb   $0x3,-0x154(%rbp)
    c89f:	c6 85 b0 fe ff ff 03 	movb   $0x3,-0x150(%rbp)
    c8a6:	c7 85 a0 fd ff ff 08 	movl   $0x46a29408,-0x260(%rbp)
    c8ad:	94 a2 46 
    c8b0:	48 b8 42 49 22 a0 78 	movabs $0x200bdc78a0224942,%rax
    c8b7:	dc 0b 20 
    c8ba:	48 89 85 00 fe ff ff 	mov    %rax,-0x200(%rbp)
    c8c1:	c7 85 94 fd ff ff 00 	movl   $0x0,-0x26c(%rbp)
    c8c8:	00 00 00 
    c8cb:	eb 19                	jmp    c8e6 <func_49+0x462>
    c8cd:	8b 85 94 fd ff ff    	mov    -0x26c(%rbp),%eax
    c8d3:	48 98                	cltq   
    c8d5:	66 c7 84 45 5e fe ff 	movw   $0x29ed,-0x1a2(%rbp,%rax,2)
    c8dc:	ff ed 29 
    c8df:	83 85 94 fd ff ff 01 	addl   $0x1,-0x26c(%rbp)
    c8e6:	83 bd 94 fd ff ff 00 	cmpl   $0x0,-0x26c(%rbp)
    c8ed:	7e de                	jle    c8cd <func_49+0x449>
    c8ef:	c7 05 33 67 00 00 04 	movl   $0x4,0x6733(%rip)        # 1302c <g_88>
    c8f6:	00 00 00 
    c8f9:	e9 82 02 00 00       	jmpq   cb80 <func_49+0x6fc>
    c8fe:	48 c7 85 10 fe ff ff 	movq   $0x0,-0x1f0(%rbp)
    c905:	00 00 00 00 
    c909:	48 8d 05 20 80 00 00 	lea    0x8020(%rip),%rax        # 14930 <g_305+0x230>
    c910:	48 89 85 b0 fd ff ff 	mov    %rax,-0x250(%rbp)
    c917:	48 8d 85 b0 fd ff ff 	lea    -0x250(%rbp),%rax
    c91e:	48 89 85 18 fe ff ff 	mov    %rax,-0x1e8(%rbp)
    c925:	48 8d 05 f8 66 00 00 	lea    0x66f8(%rip),%rax        # 13024 <g_8>
    c92c:	48 89 85 c0 fe ff ff 	mov    %rax,-0x140(%rbp)
    c933:	48 8d 05 ea 66 00 00 	lea    0x66ea(%rip),%rax        # 13024 <g_8>
    c93a:	48 89 85 c8 fe ff ff 	mov    %rax,-0x138(%rbp)
    c941:	48 8d 05 dc 66 00 00 	lea    0x66dc(%rip),%rax        # 13024 <g_8>
    c948:	48 89 85 d0 fe ff ff 	mov    %rax,-0x130(%rbp)
    c94f:	48 8d 05 ce 66 00 00 	lea    0x66ce(%rip),%rax        # 13024 <g_8>
    c956:	48 89 85 d8 fe ff ff 	mov    %rax,-0x128(%rbp)
    c95d:	48 8d 05 c0 66 00 00 	lea    0x66c0(%rip),%rax        # 13024 <g_8>
    c964:	48 89 85 e0 fe ff ff 	mov    %rax,-0x120(%rbp)
    c96b:	48 8d 05 b2 66 00 00 	lea    0x66b2(%rip),%rax        # 13024 <g_8>
    c972:	48 89 85 e8 fe ff ff 	mov    %rax,-0x118(%rbp)
    c979:	48 8d 05 a4 66 00 00 	lea    0x66a4(%rip),%rax        # 13024 <g_8>
    c980:	48 89 85 f0 fe ff ff 	mov    %rax,-0x110(%rbp)
    c987:	48 8d 85 c0 fe ff ff 	lea    -0x140(%rbp),%rax
    c98e:	48 83 c0 18          	add    $0x18,%rax
    c992:	48 89 85 20 fe ff ff 	mov    %rax,-0x1e0(%rbp)
    c999:	c6 85 70 fe ff ff 0d 	movb   $0xd,-0x190(%rbp)
    c9a0:	c6 85 74 fe ff ff 0d 	movb   $0xd,-0x18c(%rbp)
    c9a7:	c6 85 78 fe ff ff 0d 	movb   $0xd,-0x188(%rbp)
    c9ae:	c6 85 7c fe ff ff 0d 	movb   $0xd,-0x184(%rbp)
    c9b5:	c6 85 80 fe ff ff 0d 	movb   $0xd,-0x180(%rbp)
    c9bc:	c6 85 84 fe ff ff 0d 	movb   $0xd,-0x17c(%rbp)
    c9c3:	c7 85 10 ff ff ff 72 	movl   $0x318f7372,-0xf0(%rbp)
    c9ca:	73 8f 31 
    c9cd:	c7 85 14 ff ff ff 46 	movl   $0xd213df46,-0xec(%rbp)
    c9d4:	df 13 d2 
    c9d7:	c7 85 18 ff ff ff 72 	movl   $0x318f7372,-0xe8(%rbp)
    c9de:	73 8f 31 
    c9e1:	c7 85 1c ff ff ff 83 	movl   $0x4025b283,-0xe4(%rbp)
    c9e8:	b2 25 40 
    c9eb:	c7 85 20 ff ff ff 72 	movl   $0x318f7372,-0xe0(%rbp)
    c9f2:	73 8f 31 
    c9f5:	c7 85 24 ff ff ff 04 	movl   $0x4,-0xdc(%rbp)
    c9fc:	00 00 00 
    c9ff:	c7 85 28 ff ff ff 73 	movl   $0x9c747d73,-0xd8(%rbp)
    ca06:	7d 74 9c 
    ca09:	c7 85 2c ff ff ff 23 	movl   $0x694fa723,-0xd4(%rbp)
    ca10:	a7 4f 69 
    ca13:	c7 85 30 ff ff ff 23 	movl   $0x694fa723,-0xd0(%rbp)
    ca1a:	a7 4f 69 
    ca1d:	c7 85 34 ff ff ff 73 	movl   $0x9c747d73,-0xcc(%rbp)
    ca24:	7d 74 9c 
    ca27:	c7 85 38 ff ff ff 7b 	movl   $0x1260187b,-0xc8(%rbp)
    ca2e:	18 60 12 
    ca31:	c7 85 3c ff ff ff 83 	movl   $0x4025b283,-0xc4(%rbp)
    ca38:	b2 25 40 
    ca3b:	c7 85 40 ff ff ff 00 	movl   $0x0,-0xc0(%rbp)
    ca42:	00 00 00 
    ca45:	c7 85 44 ff ff ff 83 	movl   $0x4025b283,-0xbc(%rbp)
    ca4c:	b2 25 40 
    ca4f:	c7 85 48 ff ff ff 7b 	movl   $0x1260187b,-0xb8(%rbp)
    ca56:	18 60 12 
    ca59:	c7 85 4c ff ff ff 73 	movl   $0x9c747d73,-0xb4(%rbp)
    ca60:	7d 74 9c 
    ca63:	c7 85 50 ff ff ff 23 	movl   $0x694fa723,-0xb0(%rbp)
    ca6a:	a7 4f 69 
    ca6d:	c7 85 54 ff ff ff 23 	movl   $0x694fa723,-0xac(%rbp)
    ca74:	a7 4f 69 
    ca77:	c7 85 58 ff ff ff 73 	movl   $0x9c747d73,-0xa8(%rbp)
    ca7e:	7d 74 9c 
    ca81:	c7 85 5c ff ff ff 04 	movl   $0x4,-0xa4(%rbp)
    ca88:	00 00 00 
    ca8b:	c7 85 60 ff ff ff 72 	movl   $0x318f7372,-0xa0(%rbp)
    ca92:	73 8f 31 
    ca95:	c7 85 64 ff ff ff 83 	movl   $0x4025b283,-0x9c(%rbp)
    ca9c:	b2 25 40 
    ca9f:	c7 85 68 ff ff ff 72 	movl   $0x318f7372,-0x98(%rbp)
    caa6:	73 8f 31 
    caa9:	c7 85 6c ff ff ff 46 	movl   $0xd213df46,-0x94(%rbp)
    cab0:	df 13 d2 
    cab3:	c7 85 70 ff ff ff 72 	movl   $0x318f7372,-0x90(%rbp)
    caba:	73 8f 31 
    cabd:	c7 85 74 ff ff ff 73 	movl   $0x9c747d73,-0x8c(%rbp)
    cac4:	7d 74 9c 
    cac7:	c7 85 78 ff ff ff 73 	movl   $0x9c747d73,-0x88(%rbp)
    cace:	7d 74 9c 
    cad1:	c7 85 7c ff ff ff 3f 	movl   $0xdf65f03f,-0x84(%rbp)
    cad8:	f0 65 df 
    cadb:	c7 45 80 23 a7 4f 69 	movl   $0x694fa723,-0x80(%rbp)
    cae2:	c7 45 84 04 00 00 00 	movl   $0x4,-0x7c(%rbp)
    cae9:	c7 45 88 7b 18 60 12 	movl   $0x1260187b,-0x78(%rbp)
    caf0:	c7 45 8c 46 df 13 d2 	movl   $0xd213df46,-0x74(%rbp)
    caf7:	c7 45 90 00 00 00 00 	movl   $0x0,-0x70(%rbp)
    cafe:	c7 45 94 46 df 13 d2 	movl   $0xd213df46,-0x6c(%rbp)
    cb05:	c7 45 98 7b 18 60 12 	movl   $0x1260187b,-0x68(%rbp)
    cb0c:	c7 45 9c 04 00 00 00 	movl   $0x4,-0x64(%rbp)
    cb13:	c7 45 a0 23 a7 4f 69 	movl   $0x694fa723,-0x60(%rbp)
    cb1a:	c7 45 a4 3f f0 65 df 	movl   $0xdf65f03f,-0x5c(%rbp)
    cb21:	c7 45 a8 73 7d 74 9c 	movl   $0x9c747d73,-0x58(%rbp)
    cb28:	c7 45 ac 73 7d 74 9c 	movl   $0x9c747d73,-0x54(%rbp)
    cb2f:	c7 45 b0 72 73 8f 31 	movl   $0x318f7372,-0x50(%rbp)
    cb36:	c7 45 b4 46 df 13 d2 	movl   $0xd213df46,-0x4c(%rbp)
    cb3d:	c7 45 b8 72 73 8f 31 	movl   $0x318f7372,-0x48(%rbp)
    cb44:	c7 45 bc 83 b2 25 40 	movl   $0x4025b283,-0x44(%rbp)
    cb4b:	c7 45 c0 72 73 8f 31 	movl   $0x318f7372,-0x40(%rbp)
    cb52:	48 8d 05 47 83 00 00 	lea    0x8347(%rip),%rax        # 14ea0 <g_370>
    cb59:	48 89 85 28 fe ff ff 	mov    %rax,-0x1d8(%rbp)
    cb60:	48 8b 85 18 fe ff ff 	mov    -0x1e8(%rbp),%rax
    cb67:	48 8d 15 7a 7e 00 00 	lea    0x7e7a(%rip),%rdx        # 149e8 <g_305+0x2e8>
    cb6e:	48 89 10             	mov    %rdx,(%rax)
    cb71:	8b 05 b5 64 00 00    	mov    0x64b5(%rip),%eax        # 1302c <g_88>
    cb77:	83 e8 01             	sub    $0x1,%eax
    cb7a:	89 05 ac 64 00 00    	mov    %eax,0x64ac(%rip)        # 1302c <g_88>
    cb80:	8b 05 a6 64 00 00    	mov    0x64a6(%rip),%eax        # 1302c <g_88>
    cb86:	85 c0                	test   %eax,%eax
    cb88:	0f 89 70 fd ff ff    	jns    c8fe <func_49+0x47a>
    cb8e:	8b 05 9c 64 00 00    	mov    0x649c(%rip),%eax        # 13030 <g_111>
    cb94:	85 c0                	test   %eax,%eax
    cb96:	74 05                	je     cb9d <func_49+0x719>
    cb98:	e9 c8 f9 ff ff       	jmpq   c565 <func_49+0xe1>
    cb9d:	66 c7 85 7c fd ff ff 	movw   $0x4,-0x284(%rbp)
    cba4:	04 00 
    cba6:	e9 84 02 00 00       	jmpq   ce2f <func_49+0x9ab>
    cbab:	48 8d 85 a8 fd ff ff 	lea    -0x258(%rbp),%rax
    cbb2:	48 89 85 10 ff ff ff 	mov    %rax,-0xf0(%rbp)
    cbb9:	48 8d 85 a8 fd ff ff 	lea    -0x258(%rbp),%rax
    cbc0:	48 89 85 18 ff ff ff 	mov    %rax,-0xe8(%rbp)
    cbc7:	48 8d 85 a8 fd ff ff 	lea    -0x258(%rbp),%rax
    cbce:	48 89 85 20 ff ff ff 	mov    %rax,-0xe0(%rbp)
    cbd5:	48 8d 85 a8 fd ff ff 	lea    -0x258(%rbp),%rax
    cbdc:	48 89 85 28 ff ff ff 	mov    %rax,-0xd8(%rbp)
    cbe3:	48 8d 85 a8 fd ff ff 	lea    -0x258(%rbp),%rax
    cbea:	48 89 85 30 ff ff ff 	mov    %rax,-0xd0(%rbp)
    cbf1:	48 8d 85 a8 fd ff ff 	lea    -0x258(%rbp),%rax
    cbf8:	48 89 85 38 ff ff ff 	mov    %rax,-0xc8(%rbp)
    cbff:	48 8d 85 a8 fd ff ff 	lea    -0x258(%rbp),%rax
    cc06:	48 89 85 40 ff ff ff 	mov    %rax,-0xc0(%rbp)
    cc0d:	48 8d 85 a8 fd ff ff 	lea    -0x258(%rbp),%rax
    cc14:	48 89 85 48 ff ff ff 	mov    %rax,-0xb8(%rbp)
    cc1b:	48 8d 85 a8 fd ff ff 	lea    -0x258(%rbp),%rax
    cc22:	48 89 85 50 ff ff ff 	mov    %rax,-0xb0(%rbp)
    cc29:	48 8d 85 a8 fd ff ff 	lea    -0x258(%rbp),%rax
    cc30:	48 89 85 58 ff ff ff 	mov    %rax,-0xa8(%rbp)
    cc37:	48 8d 85 a8 fd ff ff 	lea    -0x258(%rbp),%rax
    cc3e:	48 89 85 60 ff ff ff 	mov    %rax,-0xa0(%rbp)
    cc45:	48 8d 85 a8 fd ff ff 	lea    -0x258(%rbp),%rax
    cc4c:	48 89 85 68 ff ff ff 	mov    %rax,-0x98(%rbp)
    cc53:	48 8d 85 a8 fd ff ff 	lea    -0x258(%rbp),%rax
    cc5a:	48 89 85 70 ff ff ff 	mov    %rax,-0x90(%rbp)
    cc61:	48 8d 85 a8 fd ff ff 	lea    -0x258(%rbp),%rax
    cc68:	48 89 85 78 ff ff ff 	mov    %rax,-0x88(%rbp)
    cc6f:	48 8d 85 a8 fd ff ff 	lea    -0x258(%rbp),%rax
    cc76:	48 89 45 80          	mov    %rax,-0x80(%rbp)
    cc7a:	48 8d 85 a8 fd ff ff 	lea    -0x258(%rbp),%rax
    cc81:	48 89 45 88          	mov    %rax,-0x78(%rbp)
    cc85:	48 8d 85 a8 fd ff ff 	lea    -0x258(%rbp),%rax
    cc8c:	48 89 45 90          	mov    %rax,-0x70(%rbp)
    cc90:	48 8d 85 a8 fd ff ff 	lea    -0x258(%rbp),%rax
    cc97:	48 89 45 98          	mov    %rax,-0x68(%rbp)
    cc9b:	48 8d 85 a8 fd ff ff 	lea    -0x258(%rbp),%rax
    cca2:	48 89 45 a0          	mov    %rax,-0x60(%rbp)
    cca6:	48 8d 85 a8 fd ff ff 	lea    -0x258(%rbp),%rax
    ccad:	48 89 45 a8          	mov    %rax,-0x58(%rbp)
    ccb1:	48 8d 85 a8 fd ff ff 	lea    -0x258(%rbp),%rax
    ccb8:	48 89 45 b0          	mov    %rax,-0x50(%rbp)
    ccbc:	48 8d 85 a8 fd ff ff 	lea    -0x258(%rbp),%rax
    ccc3:	48 89 45 b8          	mov    %rax,-0x48(%rbp)
    ccc7:	48 8d 85 a8 fd ff ff 	lea    -0x258(%rbp),%rax
    ccce:	48 89 45 c0          	mov    %rax,-0x40(%rbp)
    ccd2:	48 8d 85 a8 fd ff ff 	lea    -0x258(%rbp),%rax
    ccd9:	48 89 45 c8          	mov    %rax,-0x38(%rbp)
    ccdd:	48 8d 85 a8 fd ff ff 	lea    -0x258(%rbp),%rax
    cce4:	48 89 45 d0          	mov    %rax,-0x30(%rbp)
    cce8:	48 8d 85 a8 fd ff ff 	lea    -0x258(%rbp),%rax
    ccef:	48 89 45 d8          	mov    %rax,-0x28(%rbp)
    ccf3:	48 8d 85 a8 fd ff ff 	lea    -0x258(%rbp),%rax
    ccfa:	48 89 45 e0          	mov    %rax,-0x20(%rbp)
    ccfe:	48 8d 85 60 fe ff ff 	lea    -0x1a0(%rbp),%rax
    cd05:	48 83 c0 08          	add    $0x8,%rax
    cd09:	48 89 85 f8 fd ff ff 	mov    %rax,-0x208(%rbp)
    cd10:	c7 85 80 fd ff ff 00 	movl   $0x0,-0x280(%rbp)
    cd17:	00 00 00 
    cd1a:	e9 f2 00 00 00       	jmpq   ce11 <func_49+0x98d>
    cd1f:	c7 85 84 fd ff ff f9 	movl   $0xfffffff9,-0x27c(%rbp)
    cd26:	ff ff ff 
    cd29:	eb 2f                	jmp    cd5a <func_49+0x8d6>
    cd2b:	c6 85 7a fd ff ff 00 	movb   $0x0,-0x286(%rbp)
    cd32:	0f b6 85 7a fd ff ff 	movzbl -0x286(%rbp),%eax
    cd39:	83 c0 01             	add    $0x1,%eax
    cd3c:	88 85 7a fd ff ff    	mov    %al,-0x286(%rbp)
    cd42:	8b 85 84 fd ff ff    	mov    -0x27c(%rbp),%eax
    cd48:	be 08 00 00 00       	mov    $0x8,%esi
    cd4d:	89 c7                	mov    %eax,%edi
    cd4f:	e8 64 a1 ff ff       	callq  6eb8 <safe_add_func_uint32_t_u_u>
    cd54:	89 85 84 fd ff ff    	mov    %eax,-0x27c(%rbp)
    cd5a:	83 bd 84 fd ff ff 09 	cmpl   $0x9,-0x27c(%rbp)
    cd61:	75 c8                	jne    cd2b <func_49+0x8a7>
    cd63:	66 c7 85 7e fd ff ff 	movw   $0x0,-0x282(%rbp)
    cd6a:	00 00 
    cd6c:	eb 7a                	jmp    cde8 <func_49+0x964>
    cd6e:	48 8d 05 3b 81 00 00 	lea    0x813b(%rip),%rax        # 14eb0 <g_431>
    cd75:	48 89 85 08 fe ff ff 	mov    %rax,-0x1f8(%rbp)
    cd7c:	0f b7 95 7e fd ff ff 	movzwl -0x282(%rbp),%edx
    cd83:	0f b7 85 7e fd ff ff 	movzwl -0x282(%rbp),%eax
    cd8a:	48 98                	cltq   
    cd8c:	48 63 d2             	movslq %edx,%rdx
    cd8f:	48 01 d2             	add    %rdx,%rdx
    cd92:	48 01 d0             	add    %rdx,%rax
    cd95:	8b 84 85 60 fe ff ff 	mov    -0x1a0(%rbp,%rax,4),%eax
    cd9c:	85 c0                	test   %eax,%eax
    cd9e:	75 58                	jne    cdf8 <func_49+0x974>
    cda0:	0f b7 8d 7e fd ff ff 	movzwl -0x282(%rbp),%ecx
    cda7:	0f b7 95 7e fd ff ff 	movzwl -0x282(%rbp),%edx
    cdae:	48 8d 85 60 fe ff ff 	lea    -0x1a0(%rbp),%rax
    cdb5:	48 63 d2             	movslq %edx,%rdx
    cdb8:	48 63 c9             	movslq %ecx,%rcx
    cdbb:	48 01 c9             	add    %rcx,%rcx
    cdbe:	48 01 ca             	add    %rcx,%rdx
    cdc1:	48 c1 e2 02          	shl    $0x2,%rdx
    cdc5:	48 01 d0             	add    %rdx,%rax
    cdc8:	48 89 85 a8 fd ff ff 	mov    %rax,-0x258(%rbp)
    cdcf:	48 8b 85 08 fe ff ff 	mov    -0x1f8(%rbp),%rax
    cdd6:	48 8d 95 64 fd ff ff 	lea    -0x29c(%rbp),%rdx
    cddd:	48 89 10             	mov    %rdx,(%rax)
    cde0:	66 83 85 7e fd ff ff 	addw   $0x1,-0x282(%rbp)
    cde7:	01 
    cde8:	66 83 bd 7e fd ff ff 	cmpw   $0x1,-0x282(%rbp)
    cdef:	01 
    cdf0:	0f 86 78 ff ff ff    	jbe    cd6e <func_49+0x8ea>
    cdf6:	eb 01                	jmp    cdf9 <func_49+0x975>
    cdf8:	90                   	nop
    cdf9:	8b 85 80 fd ff ff    	mov    -0x280(%rbp),%eax
    cdff:	be 03 00 00 00       	mov    $0x3,%esi
    ce04:	89 c7                	mov    %eax,%edi
    ce06:	e8 ab 97 ff ff       	callq  65b6 <safe_add_func_int32_t_s_s>
    ce0b:	89 85 80 fd ff ff    	mov    %eax,-0x280(%rbp)
    ce11:	83 bd 80 fd ff ff 10 	cmpl   $0x10,-0x280(%rbp)
    ce18:	0f 84 01 ff ff ff    	je     cd1f <func_49+0x89b>
    ce1e:	0f b7 85 7c fd ff ff 	movzwl -0x284(%rbp),%eax
    ce25:	83 e8 01             	sub    $0x1,%eax
    ce28:	66 89 85 7c fd ff ff 	mov    %ax,-0x284(%rbp)
    ce2f:	66 83 bd 7c fd ff ff 	cmpw   $0x0,-0x284(%rbp)
    ce36:	00 
    ce37:	0f 8f 6e fd ff ff    	jg     cbab <func_49+0x727>
    ce3d:	8b 05 e5 61 00 00    	mov    0x61e5(%rip),%eax        # 13028 <g_63>
    ce43:	83 c0 01             	add    $0x1,%eax
    ce46:	89 05 dc 61 00 00    	mov    %eax,0x61dc(%rip)        # 13028 <g_63>
    ce4c:	8b 05 d6 61 00 00    	mov    0x61d6(%rip),%eax        # 13028 <g_63>
    ce52:	83 f8 04             	cmp    $0x4,%eax
    ce55:	0f 8e fb f9 ff ff    	jle    c856 <func_49+0x3d2>
    ce5b:	8b 85 5c fd ff ff    	mov    -0x2a4(%rbp),%eax
    ce61:	83 c0 01             	add    $0x1,%eax
    ce64:	89 85 5c fd ff ff    	mov    %eax,-0x2a4(%rbp)
    ce6a:	8b 85 5c fd ff ff    	mov    -0x2a4(%rbp),%eax
    ce70:	83 f8 04             	cmp    $0x4,%eax
    ce73:	0f 8e 91 f9 ff ff    	jle    c80a <func_49+0x386>
    ce79:	66 c7 85 7c fd ff ff 	movw   $0x0,-0x284(%rbp)
    ce80:	00 00 
    ce82:	e9 8c 02 00 00       	jmpq   d113 <func_49+0xc8f>
    ce87:	c7 85 5c fd ff ff 01 	movl   $0x1,-0x2a4(%rbp)
    ce8e:	00 00 00 
    ce91:	90                   	nop
    ce92:	8b 85 5c fd ff ff    	mov    -0x2a4(%rbp),%eax
    ce98:	85 c0                	test   %eax,%eax
    ce9a:	78 21                	js     cebd <func_49+0xa39>
    ce9c:	8b 85 5c fd ff ff    	mov    -0x2a4(%rbp),%eax
    cea2:	48 98                	cltq   
    cea4:	48 8d 14 85 00 00 00 	lea    0x0(,%rax,4),%rdx
    ceab:	00 
    ceac:	48 8d 05 bd 64 00 00 	lea    0x64bd(%rip),%rax        # 13370 <g_230>
    ceb3:	8b 04 02             	mov    (%rdx,%rax,1),%eax
    ceb6:	48 98                	cltq   
    ceb8:	e9 6c 02 00 00       	jmpq   d129 <func_49+0xca5>
    cebd:	8b 05 6d 61 00 00    	mov    0x616d(%rip),%eax        # 13030 <g_111>
    cec3:	85 c0                	test   %eax,%eax
    cec5:	74 05                	je     cecc <func_49+0xa48>
    cec7:	e9 99 f6 ff ff       	jmpq   c565 <func_49+0xe1>
    cecc:	48 8b 05 ed 70 00 00 	mov    0x70ed(%rip),%rax        # 13fc0 <g_194>
    ced3:	c7 00 01 00 00 00    	movl   $0x1,(%rax)
    ced9:	0f bf 95 7c fd ff ff 	movswl -0x284(%rbp),%edx
    cee0:	48 8b 05 d9 70 00 00 	mov    0x70d9(%rip),%rax        # 13fc0 <g_194>
    cee7:	48 63 d2             	movslq %edx,%rdx
    ceea:	48 8d 0c 95 00 00 00 	lea    0x0(,%rdx,4),%rcx
    cef1:	00 
    cef2:	48 8d 15 77 64 00 00 	lea    0x6477(%rip),%rdx        # 13370 <g_230>
    cef9:	8b 14 11             	mov    (%rcx,%rdx,1),%edx
    cefc:	89 10                	mov    %edx,(%rax)
    cefe:	66 c7 05 a5 64 00 00 	movw   $0x0,0x64a5(%rip)        # 133ac <g_299>
    cf05:	00 00 
    cf07:	e9 e2 01 00 00       	jmpq   d0ee <func_49+0xc6a>
    cf0c:	c7 85 c0 fe ff ff ff 	movl   $0xffffffff,-0x140(%rbp)
    cf13:	ff ff ff 
    cf16:	c7 85 c4 fe ff ff ff 	movl   $0xffffffff,-0x13c(%rbp)
    cf1d:	ff ff ff 
    cf20:	c7 85 c8 fe ff ff ff 	movl   $0xffffffff,-0x138(%rbp)
    cf27:	ff ff ff 
    cf2a:	c7 85 cc fe ff ff ff 	movl   $0xffffffff,-0x134(%rbp)
    cf31:	ff ff ff 
    cf34:	c7 85 d0 fe ff ff ff 	movl   $0xffffffff,-0x130(%rbp)
    cf3b:	ff ff ff 
    cf3e:	c7 85 d4 fe ff ff ff 	movl   $0xffffffff,-0x12c(%rbp)
    cf45:	ff ff ff 
    cf48:	c7 85 d8 fe ff ff ff 	movl   $0xffffffff,-0x128(%rbp)
    cf4f:	ff ff ff 
    cf52:	48 c7 85 d0 fd ff ff 	movq   $0x0,-0x230(%rbp)
    cf59:	00 00 00 00 
    cf5d:	8b 85 c4 fe ff ff    	mov    -0x13c(%rbp),%eax
    cf63:	85 c0                	test   %eax,%eax
    cf65:	0f 85 96 01 00 00    	jne    d101 <func_49+0xc7d>
    cf6b:	c7 05 bb 60 00 00 00 	movl   $0x0,0x60bb(%rip)        # 13030 <g_111>
    cf72:	00 00 00 
    cf75:	e9 54 01 00 00       	jmpq   d0ce <func_49+0xc4a>
    cf7a:	48 c7 85 d8 fd ff ff 	movq   $0x0,-0x228(%rbp)
    cf81:	00 00 00 00 
    cf85:	48 8d 05 64 88 00 00 	lea    0x8864(%rip),%rax        # 157f0 <g_544>
    cf8c:	48 89 85 e0 fd ff ff 	mov    %rax,-0x220(%rbp)
    cf93:	48 8d 05 1a 64 00 00 	lea    0x641a(%rip),%rax        # 133b4 <g_551>
    cf9a:	48 89 85 e8 fd ff ff 	mov    %rax,-0x218(%rbp)
    cfa1:	c7 85 98 fd ff ff 00 	movl   $0x0,-0x268(%rbp)
    cfa8:	00 00 00 
    cfab:	eb 1b                	jmp    cfc8 <func_49+0xb44>
    cfad:	8b 85 98 fd ff ff    	mov    -0x268(%rbp),%eax
    cfb3:	48 98                	cltq   
    cfb5:	48 c7 84 c5 10 ff ff 	movq   $0xfffffffffffffff7,-0xf0(%rbp,%rax,8)
    cfbc:	ff f7 ff ff ff 
    cfc1:	83 85 98 fd ff ff 01 	addl   $0x1,-0x268(%rbp)
    cfc8:	83 bd 98 fd ff ff 08 	cmpl   $0x8,-0x268(%rbp)
    cfcf:	7e dc                	jle    cfad <func_49+0xb29>
    cfd1:	be 03 00 00 00       	mov    $0x3,%esi
    cfd6:	bf fc ff ff ff       	mov    $0xfffffffc,%edi
    cfdb:	e8 c1 92 ff ff       	callq  62a1 <safe_lshift_func_int8_t_s_s>
    cfe0:	be 00 00 00 00       	mov    $0x0,%esi
    cfe5:	bf 06 00 00 00       	mov    $0x6,%edi
    cfea:	e8 cf 9c ff ff       	callq  6cbe <safe_rshift_func_uint8_t_u_u>
    cfef:	84 c0                	test   %al,%al
    cff1:	0f 95 c3             	setne  %bl
    cff4:	48 8b 85 30 ff ff ff 	mov    -0xd0(%rbp),%rax
    cffb:	98                   	cwtl   
    cffc:	be 03 00 00 00       	mov    $0x3,%esi
    d001:	89 c7                	mov    %eax,%edi
    d003:	e8 d9 94 ff ff       	callq  64e1 <safe_lshift_func_int16_t_s_u>
    d008:	66 85 c0             	test   %ax,%ax
    d00b:	75 35                	jne    d042 <func_49+0xbbe>
    d00d:	48 8b 15 dc 87 00 00 	mov    0x87dc(%rip),%rdx        # 157f0 <g_544>
    d014:	48 8b 85 e0 fd ff ff 	mov    -0x220(%rbp),%rax
    d01b:	48 89 10             	mov    %rdx,(%rax)
    d01e:	48 8b 85 e0 fd ff ff 	mov    -0x220(%rbp),%rax
    d025:	48 8b 10             	mov    (%rax),%rdx
    d028:	48 8b 85 d0 fd ff ff 	mov    -0x230(%rbp),%rax
    d02f:	48 89 05 d2 7e 00 00 	mov    %rax,0x7ed2(%rip)        # 14f08 <g_548+0x28>
    d036:	48 8b 05 cb 7e 00 00 	mov    0x7ecb(%rip),%rax        # 14f08 <g_548+0x28>
    d03d:	48 39 c2             	cmp    %rax,%rdx
    d040:	74 07                	je     d049 <func_49+0xbc5>
    d042:	b8 01 00 00 00       	mov    $0x1,%eax
    d047:	eb 05                	jmp    d04e <func_49+0xbca>
    d049:	b8 00 00 00 00       	mov    $0x0,%eax
    d04e:	83 e0 01             	and    $0x1,%eax
    d051:	09 d8                	or     %ebx,%eax
    d053:	0f b6 c0             	movzbl %al,%eax
    d056:	be fe ff ff ff       	mov    $0xfffffffe,%esi
    d05b:	89 c7                	mov    %eax,%edi
    d05d:	e8 93 93 ff ff       	callq  63f5 <safe_mul_func_int16_t_s_s>
    d062:	0f b6 95 60 fd ff ff 	movzbl -0x2a0(%rbp),%edx
    d069:	8b 85 5c fd ff ff    	mov    -0x2a4(%rbp),%eax
    d06f:	39 c2                	cmp    %eax,%edx
    d071:	0f 9d c0             	setge  %al
    d074:	89 c2                	mov    %eax,%edx
    d076:	48 8b 85 e8 fd ff ff 	mov    -0x218(%rbp),%rax
    d07d:	88 10                	mov    %dl,(%rax)
    d07f:	48 8b 85 e8 fd ff ff 	mov    -0x218(%rbp),%rax
    d086:	0f b6 00             	movzbl (%rax),%eax
    d089:	0f be d8             	movsbl %al,%ebx
    d08c:	8b 85 64 fd ff ff    	mov    -0x29c(%rbp),%eax
    d092:	0f be c0             	movsbl %al,%eax
    d095:	89 c7                	mov    %eax,%edi
    d097:	e8 23 91 ff ff       	callq  61bf <safe_unary_minus_func_int8_t_s>
    d09c:	0f b6 c0             	movzbl %al,%eax
    d09f:	89 de                	mov    %ebx,%esi
    d0a1:	89 c7                	mov    %eax,%edi
    d0a3:	e8 5d 9b ff ff       	callq  6c05 <safe_lshift_func_uint8_t_u_s>
    d0a8:	48 8b 95 a8 fd ff ff 	mov    -0x258(%rbp),%rdx
    d0af:	8b 0a                	mov    (%rdx),%ecx
    d0b1:	0f b6 d0             	movzbl %al,%edx
    d0b4:	48 8b 85 a8 fd ff ff 	mov    -0x258(%rbp),%rax
    d0bb:	21 ca                	and    %ecx,%edx
    d0bd:	89 10                	mov    %edx,(%rax)
    d0bf:	8b 05 6b 5f 00 00    	mov    0x5f6b(%rip),%eax        # 13030 <g_111>
    d0c5:	83 c0 01             	add    $0x1,%eax
    d0c8:	89 05 62 5f 00 00    	mov    %eax,0x5f62(%rip)        # 13030 <g_111>
    d0ce:	8b 05 5c 5f 00 00    	mov    0x5f5c(%rip),%eax        # 13030 <g_111>
    d0d4:	83 f8 04             	cmp    $0x4,%eax
    d0d7:	0f 86 9d fe ff ff    	jbe    cf7a <func_49+0xaf6>
    d0dd:	0f b7 05 c8 62 00 00 	movzwl 0x62c8(%rip),%eax        # 133ac <g_299>
    d0e4:	83 c0 01             	add    $0x1,%eax
    d0e7:	66 89 05 be 62 00 00 	mov    %ax,0x62be(%rip)        # 133ac <g_299>
    d0ee:	0f b7 05 b7 62 00 00 	movzwl 0x62b7(%rip),%eax        # 133ac <g_299>
    d0f5:	66 83 f8 04          	cmp    $0x4,%ax
    d0f9:	0f 86 0d fe ff ff    	jbe    cf0c <func_49+0xa88>
    d0ff:	eb 01                	jmp    d102 <func_49+0xc7e>
    d101:	90                   	nop
    d102:	0f b7 85 7c fd ff ff 	movzwl -0x284(%rbp),%eax
    d109:	83 c0 01             	add    $0x1,%eax
    d10c:	66 89 85 7c fd ff ff 	mov    %ax,-0x284(%rbp)
    d113:	66 83 bd 7c fd ff ff 	cmpw   $0x4,-0x284(%rbp)
    d11a:	04 
    d11b:	0f 8e 66 fd ff ff    	jle    ce87 <func_49+0xa03>
    d121:	8b 05 05 5f 00 00    	mov    0x5f05(%rip),%eax        # 1302c <g_88>
    d127:	48 98                	cltq   
    d129:	48 8b 5d e8          	mov    -0x18(%rbp),%rbx
    d12d:	64 48 33 1c 25 28 00 	xor    %fs:0x28,%rbx
    d134:	00 00 
    d136:	74 05                	je     d13d <func_49+0xcb9>
    d138:	e8 33 8f ff ff       	callq  6070 <__stack_chk_fail@plt>
    d13d:	48 81 c4 a8 02 00 00 	add    $0x2a8,%rsp
    d144:	5b                   	pop    %rbx
    d145:	5d                   	pop    %rbp
    d146:	c3                   	retq   

000000000000d147 <func_57>:
    d147:	f3 0f 1e fa          	endbr64 
    d14b:	55                   	push   %rbp
    d14c:	48 89 e5             	mov    %rsp,%rbp
    d14f:	53                   	push   %rbx
    d150:	48 81 ec 08 0b 00 00 	sub    $0xb08,%rsp
    d157:	89 f8                	mov    %edi,%eax
    d159:	66 89 85 fc f4 ff ff 	mov    %ax,-0xb04(%rbp)
    d160:	64 48 8b 04 25 28 00 	mov    %fs:0x28,%rax
    d167:	00 00 
    d169:	48 89 45 e8          	mov    %rax,-0x18(%rbp)
    d16d:	31 c0                	xor    %eax,%eax
    d16f:	c7 45 e4 b3 b3 b3 b3 	movl   $0xb3b3b3b3,-0x1c(%rbp)
    d176:	48 8d 05 ab 5e 00 00 	lea    0x5eab(%rip),%rax        # 13028 <g_63>
    d17d:	48 89 85 20 f5 ff ff 	mov    %rax,-0xae0(%rbp)
    d184:	c6 85 04 f5 ff ff 03 	movb   $0x3,-0xafc(%rbp)
    d18b:	48 8d 05 9a 5e 00 00 	lea    0x5e9a(%rip),%rax        # 1302c <g_88>
    d192:	48 89 85 28 f5 ff ff 	mov    %rax,-0xad8(%rbp)
    d199:	48 8d 05 8c 5e 00 00 	lea    0x5e8c(%rip),%rax        # 1302c <g_88>
    d1a0:	48 89 85 30 f5 ff ff 	mov    %rax,-0xad0(%rbp)
    d1a7:	48 8d 05 7e 5e 00 00 	lea    0x5e7e(%rip),%rax        # 1302c <g_88>
    d1ae:	48 89 85 38 f5 ff ff 	mov    %rax,-0xac8(%rbp)
    d1b5:	48 8d 05 70 5e 00 00 	lea    0x5e70(%rip),%rax        # 1302c <g_88>
    d1bc:	48 89 85 40 f5 ff ff 	mov    %rax,-0xac0(%rbp)
    d1c3:	48 8d 05 5e 5e 00 00 	lea    0x5e5e(%rip),%rax        # 13028 <g_63>
    d1ca:	48 89 85 48 f5 ff ff 	mov    %rax,-0xab8(%rbp)
    d1d1:	48 c7 85 50 f5 ff ff 	movq   $0x0,-0xab0(%rbp)
    d1d8:	00 00 00 00 
    d1dc:	48 8d 05 45 5e 00 00 	lea    0x5e45(%rip),%rax        # 13028 <g_63>
    d1e3:	48 89 85 58 f5 ff ff 	mov    %rax,-0xaa8(%rbp)
    d1ea:	c7 85 10 f6 ff ff 00 	movl   $0x0,-0x9f0(%rbp)
    d1f1:	00 00 00 
    d1f4:	c7 85 14 f6 ff ff 03 	movl   $0x3,-0x9ec(%rbp)
    d1fb:	00 00 00 
    d1fe:	c7 85 18 f6 ff ff 00 	movl   $0x0,-0x9e8(%rbp)
    d205:	00 00 00 
    d208:	c7 85 1c f6 ff ff 00 	movl   $0x0,-0x9e4(%rbp)
    d20f:	00 00 00 
    d212:	c7 85 20 f6 ff ff 00 	movl   $0x0,-0x9e0(%rbp)
    d219:	00 00 00 
    d21c:	c7 85 24 f6 ff ff a9 	movl   $0x6dcf67a9,-0x9dc(%rbp)
    d223:	67 cf 6d 
    d226:	c7 85 28 f6 ff ff a9 	movl   $0x6dcf67a9,-0x9d8(%rbp)
    d22d:	67 cf 6d 
    d230:	c7 85 2c f6 ff ff 00 	movl   $0x0,-0x9d4(%rbp)
    d237:	00 00 00 
    d23a:	c7 85 30 f6 ff ff a9 	movl   $0x6dcf67a9,-0x9d0(%rbp)
    d241:	67 cf 6d 
    d244:	48 8d 05 e1 5d 00 00 	lea    0x5de1(%rip),%rax        # 1302c <g_88>
    d24b:	48 89 85 60 f5 ff ff 	mov    %rax,-0xaa0(%rbp)
    d252:	48 8d 05 cf 5d 00 00 	lea    0x5dcf(%rip),%rax        # 13028 <g_63>
    d259:	48 89 85 68 f5 ff ff 	mov    %rax,-0xa98(%rbp)
    d260:	48 8d 05 c1 5d 00 00 	lea    0x5dc1(%rip),%rax        # 13028 <g_63>
    d267:	48 89 85 70 f5 ff ff 	mov    %rax,-0xa90(%rbp)
    d26e:	48 8d 05 b7 5d 00 00 	lea    0x5db7(%rip),%rax        # 1302c <g_88>
    d275:	48 89 85 78 f5 ff ff 	mov    %rax,-0xa88(%rbp)
    d27c:	48 8d 05 a5 5d 00 00 	lea    0x5da5(%rip),%rax        # 13028 <g_63>
    d283:	48 89 85 80 f5 ff ff 	mov    %rax,-0xa80(%rbp)
    d28a:	48 8d 85 10 f6 ff ff 	lea    -0x9f0(%rbp),%rax
    d291:	48 83 c0 04          	add    $0x4,%rax
    d295:	48 89 85 88 f5 ff ff 	mov    %rax,-0xa78(%rbp)
    d29c:	48 8d 85 10 f6 ff ff 	lea    -0x9f0(%rbp),%rax
    d2a3:	48 83 c0 08          	add    $0x8,%rax
    d2a7:	48 89 85 90 f5 ff ff 	mov    %rax,-0xa70(%rbp)
    d2ae:	48 c7 85 98 f5 ff ff 	movq   $0x0,-0xa68(%rbp)
    d2b5:	00 00 00 00 
    d2b9:	48 c7 85 a0 f5 ff ff 	movq   $0x0,-0xa60(%rbp)
    d2c0:	00 00 00 00 
    d2c4:	48 8d 85 10 f6 ff ff 	lea    -0x9f0(%rbp),%rax
    d2cb:	48 83 c0 04          	add    $0x4,%rax
    d2cf:	48 89 85 a8 f5 ff ff 	mov    %rax,-0xa58(%rbp)
    d2d6:	48 8d 05 4f 5d 00 00 	lea    0x5d4f(%rip),%rax        # 1302c <g_88>
    d2dd:	48 89 85 b0 f5 ff ff 	mov    %rax,-0xa50(%rbp)
    d2e4:	48 8d 85 10 f6 ff ff 	lea    -0x9f0(%rbp),%rax
    d2eb:	48 83 c0 10          	add    $0x10,%rax
    d2ef:	48 89 85 b8 f5 ff ff 	mov    %rax,-0xa48(%rbp)
    d2f6:	48 8d 05 2f 5d 00 00 	lea    0x5d2f(%rip),%rax        # 1302c <g_88>
    d2fd:	48 89 85 20 f7 ff ff 	mov    %rax,-0x8e0(%rbp)
    d304:	48 8d 05 21 5d 00 00 	lea    0x5d21(%rip),%rax        # 1302c <g_88>
    d30b:	48 89 85 28 f7 ff ff 	mov    %rax,-0x8d8(%rbp)
    d312:	48 8d 85 10 f6 ff ff 	lea    -0x9f0(%rbp),%rax
    d319:	48 83 c0 04          	add    $0x4,%rax
    d31d:	48 89 85 30 f7 ff ff 	mov    %rax,-0x8d0(%rbp)
    d324:	48 8d 85 10 f6 ff ff 	lea    -0x9f0(%rbp),%rax
    d32b:	48 83 c0 04          	add    $0x4,%rax
    d32f:	48 89 85 38 f7 ff ff 	mov    %rax,-0x8c8(%rbp)
    d336:	48 8d 05 ef 5c 00 00 	lea    0x5cef(%rip),%rax        # 1302c <g_88>
    d33d:	48 89 85 40 f7 ff ff 	mov    %rax,-0x8c0(%rbp)
    d344:	48 8d 05 e1 5c 00 00 	lea    0x5ce1(%rip),%rax        # 1302c <g_88>
    d34b:	48 89 85 48 f7 ff ff 	mov    %rax,-0x8b8(%rbp)
    d352:	48 8d 85 10 f6 ff ff 	lea    -0x9f0(%rbp),%rax
    d359:	48 83 c0 1c          	add    $0x1c,%rax
    d35d:	48 89 85 50 f7 ff ff 	mov    %rax,-0x8b0(%rbp)
    d364:	48 8d 05 c1 5c 00 00 	lea    0x5cc1(%rip),%rax        # 1302c <g_88>
    d36b:	48 89 85 58 f7 ff ff 	mov    %rax,-0x8a8(%rbp)
    d372:	48 8d 05 b3 5c 00 00 	lea    0x5cb3(%rip),%rax        # 1302c <g_88>
    d379:	48 89 85 60 f7 ff ff 	mov    %rax,-0x8a0(%rbp)
    d380:	48 8d 85 10 f6 ff ff 	lea    -0x9f0(%rbp),%rax
    d387:	48 83 c0 04          	add    $0x4,%rax
    d38b:	48 89 85 68 f7 ff ff 	mov    %rax,-0x898(%rbp)
    d392:	48 8d 85 10 f6 ff ff 	lea    -0x9f0(%rbp),%rax
    d399:	48 83 c0 20          	add    $0x20,%rax
    d39d:	48 89 85 70 f7 ff ff 	mov    %rax,-0x890(%rbp)
    d3a4:	48 8d 05 81 5c 00 00 	lea    0x5c81(%rip),%rax        # 1302c <g_88>
    d3ab:	48 89 85 78 f7 ff ff 	mov    %rax,-0x888(%rbp)
    d3b2:	48 8d 85 10 f6 ff ff 	lea    -0x9f0(%rbp),%rax
    d3b9:	48 83 c0 20          	add    $0x20,%rax
    d3bd:	48 89 85 80 f7 ff ff 	mov    %rax,-0x880(%rbp)
    d3c4:	48 8d 85 10 f6 ff ff 	lea    -0x9f0(%rbp),%rax
    d3cb:	48 83 c0 04          	add    $0x4,%rax
    d3cf:	48 89 85 88 f7 ff ff 	mov    %rax,-0x878(%rbp)
    d3d6:	48 8d 85 10 f6 ff ff 	lea    -0x9f0(%rbp),%rax
    d3dd:	48 83 c0 1c          	add    $0x1c,%rax
    d3e1:	48 89 85 90 f7 ff ff 	mov    %rax,-0x870(%rbp)
    d3e8:	48 8d 85 10 f6 ff ff 	lea    -0x9f0(%rbp),%rax
    d3ef:	48 83 c0 1c          	add    $0x1c,%rax
    d3f3:	48 89 85 98 f7 ff ff 	mov    %rax,-0x868(%rbp)
    d3fa:	48 8d 85 10 f6 ff ff 	lea    -0x9f0(%rbp),%rax
    d401:	48 83 c0 04          	add    $0x4,%rax
    d405:	48 89 85 a0 f7 ff ff 	mov    %rax,-0x860(%rbp)
    d40c:	48 8d 85 10 f6 ff ff 	lea    -0x9f0(%rbp),%rax
    d413:	48 83 c0 20          	add    $0x20,%rax
    d417:	48 89 85 a8 f7 ff ff 	mov    %rax,-0x858(%rbp)
    d41e:	48 8d 05 07 5c 00 00 	lea    0x5c07(%rip),%rax        # 1302c <g_88>
    d425:	48 89 85 b0 f7 ff ff 	mov    %rax,-0x850(%rbp)
    d42c:	48 8d 85 10 f6 ff ff 	lea    -0x9f0(%rbp),%rax
    d433:	48 83 c0 20          	add    $0x20,%rax
    d437:	48 89 85 b8 f7 ff ff 	mov    %rax,-0x848(%rbp)
    d43e:	48 8d 85 10 f6 ff ff 	lea    -0x9f0(%rbp),%rax
    d445:	48 83 c0 20          	add    $0x20,%rax
    d449:	48 89 85 c0 f7 ff ff 	mov    %rax,-0x840(%rbp)
    d450:	48 8d 05 d5 5b 00 00 	lea    0x5bd5(%rip),%rax        # 1302c <g_88>
    d457:	48 89 85 c8 f7 ff ff 	mov    %rax,-0x838(%rbp)
    d45e:	48 8d 05 c7 5b 00 00 	lea    0x5bc7(%rip),%rax        # 1302c <g_88>
    d465:	48 89 85 d0 f7 ff ff 	mov    %rax,-0x830(%rbp)
    d46c:	48 8d 05 b9 5b 00 00 	lea    0x5bb9(%rip),%rax        # 1302c <g_88>
    d473:	48 89 85 d8 f7 ff ff 	mov    %rax,-0x828(%rbp)
    d47a:	48 8d 05 ab 5b 00 00 	lea    0x5bab(%rip),%rax        # 1302c <g_88>
    d481:	48 89 85 e0 f7 ff ff 	mov    %rax,-0x820(%rbp)
    d488:	48 8d 05 9d 5b 00 00 	lea    0x5b9d(%rip),%rax        # 1302c <g_88>
    d48f:	48 89 85 e8 f7 ff ff 	mov    %rax,-0x818(%rbp)
    d496:	48 8d 85 10 f6 ff ff 	lea    -0x9f0(%rbp),%rax
    d49d:	48 83 c0 20          	add    $0x20,%rax
    d4a1:	48 89 85 f0 f7 ff ff 	mov    %rax,-0x810(%rbp)
    d4a8:	48 8d 85 10 f6 ff ff 	lea    -0x9f0(%rbp),%rax
    d4af:	48 83 c0 20          	add    $0x20,%rax
    d4b3:	48 89 85 f8 f7 ff ff 	mov    %rax,-0x808(%rbp)
    d4ba:	48 8d 05 6b 5b 00 00 	lea    0x5b6b(%rip),%rax        # 1302c <g_88>
    d4c1:	48 89 85 00 f8 ff ff 	mov    %rax,-0x800(%rbp)
    d4c8:	48 8d 05 5d 5b 00 00 	lea    0x5b5d(%rip),%rax        # 1302c <g_88>
    d4cf:	48 89 85 08 f8 ff ff 	mov    %rax,-0x7f8(%rbp)
    d4d6:	48 8d 05 4f 5b 00 00 	lea    0x5b4f(%rip),%rax        # 1302c <g_88>
    d4dd:	48 89 85 10 f8 ff ff 	mov    %rax,-0x7f0(%rbp)
    d4e4:	48 8d 85 10 f6 ff ff 	lea    -0x9f0(%rbp),%rax
    d4eb:	48 83 c0 20          	add    $0x20,%rax
    d4ef:	48 89 85 18 f8 ff ff 	mov    %rax,-0x7e8(%rbp)
    d4f6:	48 8d 85 10 f6 ff ff 	lea    -0x9f0(%rbp),%rax
    d4fd:	48 83 c0 20          	add    $0x20,%rax
    d501:	48 89 85 20 f8 ff ff 	mov    %rax,-0x7e0(%rbp)
    d508:	48 8d 05 1d 5b 00 00 	lea    0x5b1d(%rip),%rax        # 1302c <g_88>
    d50f:	48 89 85 28 f8 ff ff 	mov    %rax,-0x7d8(%rbp)
    d516:	48 8d 05 0f 5b 00 00 	lea    0x5b0f(%rip),%rax        # 1302c <g_88>
    d51d:	48 89 85 30 f8 ff ff 	mov    %rax,-0x7d0(%rbp)
    d524:	48 8d 05 01 5b 00 00 	lea    0x5b01(%rip),%rax        # 1302c <g_88>
    d52b:	48 89 85 38 f8 ff ff 	mov    %rax,-0x7c8(%rbp)
    d532:	48 8d 05 f3 5a 00 00 	lea    0x5af3(%rip),%rax        # 1302c <g_88>
    d539:	48 89 85 40 f8 ff ff 	mov    %rax,-0x7c0(%rbp)
    d540:	48 8d 05 e5 5a 00 00 	lea    0x5ae5(%rip),%rax        # 1302c <g_88>
    d547:	48 89 85 48 f8 ff ff 	mov    %rax,-0x7b8(%rbp)
    d54e:	48 8d 85 10 f6 ff ff 	lea    -0x9f0(%rbp),%rax
    d555:	48 83 c0 20          	add    $0x20,%rax
    d559:	48 89 85 50 f8 ff ff 	mov    %rax,-0x7b0(%rbp)
    d560:	48 8d 85 10 f6 ff ff 	lea    -0x9f0(%rbp),%rax
    d567:	48 83 c0 20          	add    $0x20,%rax
    d56b:	48 89 85 58 f8 ff ff 	mov    %rax,-0x7a8(%rbp)
    d572:	48 8d 05 db 1a 00 00 	lea    0x1adb(%rip),%rax        # f054 <g_132>
    d579:	48 89 85 c0 f5 ff ff 	mov    %rax,-0xa40(%rbp)
    d580:	c6 85 08 f5 ff ff 09 	movb   $0x9,-0xaf8(%rbp)
    d587:	c7 85 10 f5 ff ff 00 	movl   $0x0,-0xaf0(%rbp)
    d58e:	00 00 00 
    d591:	48 c7 85 c8 f5 ff ff 	movq   $0x0,-0xa38(%rbp)
    d598:	00 00 00 00 
    d59c:	48 c7 85 d0 f5 ff ff 	movq   $0x0,-0xa30(%rbp)
    d5a3:	00 00 00 00 
    d5a7:	c6 85 05 f5 ff ff 07 	movb   $0x7,-0xafb(%rbp)
    d5ae:	48 b8 36 af 77 4e 06 	movabs $0x56b708064e77af36,%rax
    d5b5:	08 b7 56 
    d5b8:	48 89 85 d8 f5 ff ff 	mov    %rax,-0xa28(%rbp)
    d5bf:	0f b6 05 5e 5a 00 00 	movzbl 0x5a5e(%rip),%eax        # 13024 <g_8>
    d5c6:	84 c0                	test   %al,%al
    d5c8:	75 50                	jne    d61a <func_57+0x4d3>
    d5ca:	66 83 bd fc f4 ff ff 	cmpw   $0x0,-0xb04(%rbp)
    d5d1:	00 
    d5d2:	74 14                	je     d5e8 <func_57+0x4a1>
    d5d4:	48 8b 85 20 f5 ff ff 	mov    -0xae0(%rbp),%rax
    d5db:	8b 00                	mov    (%rax),%eax
    d5dd:	85 c0                	test   %eax,%eax
    d5df:	74 07                	je     d5e8 <func_57+0x4a1>
    d5e1:	b8 01 00 00 00       	mov    $0x1,%eax
    d5e6:	eb 05                	jmp    d5ed <func_57+0x4a6>
    d5e8:	b8 00 00 00 00       	mov    $0x0,%eax
    d5ed:	0f bf d8             	movswl %ax,%ebx
    d5f0:	8b 05 32 5a 00 00    	mov    0x5a32(%rip),%eax        # 13028 <g_63>
    d5f6:	0f be d0             	movsbl %al,%edx
    d5f9:	8b 05 29 5a 00 00    	mov    0x5a29(%rip),%eax        # 13028 <g_63>
    d5ff:	0f be c0             	movsbl %al,%eax
    d602:	89 d6                	mov    %edx,%esi
    d604:	89 c7                	mov    %eax,%edi
    d606:	e8 07 8c ff ff       	callq  6212 <safe_mul_func_int8_t_s_s>
    d60b:	0f be c0             	movsbl %al,%eax
    d60e:	89 de                	mov    %ebx,%esi
    d610:	89 c7                	mov    %eax,%edi
    d612:	e8 3e 8e ff ff       	callq  6455 <safe_div_func_int16_t_s_s>
    d617:	66 85 c0             	test   %ax,%ax
    d61a:	be 05 00 00 00       	mov    $0x5,%esi
    d61f:	bf 01 00 00 00       	mov    $0x1,%edi
    d624:	e8 dc 95 ff ff       	callq  6c05 <safe_lshift_func_uint8_t_u_s>
    d629:	0f b6 45 e7          	movzbl -0x19(%rbp),%eax
    d62d:	48 0f be c0          	movsbq %al,%rax
    d631:	48 ba 46 fa 61 a0 f0 	movabs $0xdb6377f0a061fa46,%rdx
    d638:	77 63 db 
    d63b:	48 39 d0             	cmp    %rdx,%rax
    d63e:	0f 97 c2             	seta   %dl
    d641:	48 8b 05 60 69 00 00 	mov    0x6960(%rip),%rax        # 13fa8 <g_72>
    d648:	0f b6 d2             	movzbl %dl,%edx
    d64b:	89 10                	mov    %edx,(%rax)
    d64d:	66 c7 85 fc f4 ff ff 	movw   $0x19,-0xb04(%rbp)
    d654:	19 00 
    d656:	66 83 bd fc f4 ff ff 	cmpw   $0xfff9,-0xb04(%rbp)
    d65d:	f9 
    d65e:	0f 8d 1a 01 00 00    	jge    d77e <func_57+0x637>
    d664:	c6 85 07 f5 ff ff 77 	movb   $0x77,-0xaf9(%rbp)
    d66b:	48 8d 85 60 f8 ff ff 	lea    -0x7a0(%rbp),%rax
    d672:	48 8d 15 e7 66 00 00 	lea    0x66e7(%rip),%rdx        # 13d60 <g_1526+0x970>
    d679:	b9 48 00 00 00       	mov    $0x48,%ecx
    d67e:	48 89 c7             	mov    %rax,%rdi
    d681:	48 89 d6             	mov    %rdx,%rsi
    d684:	f3 48 a5             	rep movsq %ds:(%rsi),%es:(%rdi)
    d687:	48 8d 85 60 f8 ff ff 	lea    -0x7a0(%rbp),%rax
    d68e:	48 05 e8 00 00 00    	add    $0xe8,%rax
    d694:	48 89 85 f8 f5 ff ff 	mov    %rax,-0xa08(%rbp)
    d69b:	48 c7 85 00 f6 ff ff 	movq   $0x0,-0xa00(%rbp)
    d6a2:	00 00 00 00 
    d6a6:	48 8d 05 7f 59 00 00 	lea    0x597f(%rip),%rax        # 1302c <g_88>
    d6ad:	48 89 85 08 f6 ff ff 	mov    %rax,-0x9f8(%rbp)
    d6b4:	8b 05 6e 59 00 00    	mov    0x596e(%rip),%eax        # 13028 <g_63>
    d6ba:	89 c3                	mov    %eax,%ebx
    d6bc:	48 8b 85 f8 f5 ff ff 	mov    -0xa08(%rbp),%rax
    d6c3:	48 c7 00 00 00 00 00 	movq   $0x0,(%rax)
    d6ca:	66 83 bd fc f4 ff ff 	cmpw   $0x0,-0xb04(%rbp)
    d6d1:	00 
    d6d2:	75 0b                	jne    d6df <func_57+0x598>
    d6d4:	48 8b 05 c5 68 00 00 	mov    0x68c5(%rip),%rax        # 13fa0 <g_62>
    d6db:	8b 00                	mov    (%rax),%eax
    d6dd:	85 c0                	test   %eax,%eax
    d6df:	48 8b 85 20 f5 ff ff 	mov    -0xae0(%rbp),%rax
    d6e6:	8b 00                	mov    (%rax),%eax
    d6e8:	85 c0                	test   %eax,%eax
    d6ea:	0f 9e c0             	setle  %al
    d6ed:	0f b6 c0             	movzbl %al,%eax
    d6f0:	be 7e 00 00 00       	mov    $0x7e,%esi
    d6f5:	89 c7                	mov    %eax,%edi
    d6f7:	e8 f6 8a ff ff       	callq  61f2 <safe_sub_func_int8_t_s_s>
    d6fc:	48 8b 05 a5 68 00 00 	mov    0x68a5(%rip),%rax        # 13fa8 <g_72>
    d703:	8b 00                	mov    (%rax),%eax
    d705:	85 c0                	test   %eax,%eax
    d707:	0f 95 c0             	setne  %al
    d70a:	0f b6 c0             	movzbl %al,%eax
    d70d:	be 73 7d 00 00       	mov    $0x7d73,%esi
    d712:	89 c7                	mov    %eax,%edi
    d714:	e8 24 96 ff ff       	callq  6d3d <safe_mul_func_uint16_t_u_u>
    d719:	0f b7 d0             	movzwl %ax,%edx
    d71c:	0f b6 05 01 59 00 00 	movzbl 0x5901(%rip),%eax        # 13024 <g_8>
    d723:	0f be c0             	movsbl %al,%eax
    d726:	21 d0                	and    %edx,%eax
    d728:	89 de                	mov    %ebx,%esi
    d72a:	89 c7                	mov    %eax,%edi
    d72c:	e8 9f 97 ff ff       	callq  6ed0 <safe_sub_func_uint32_t_u_u>
    d731:	0f b6 15 ec 58 00 00 	movzbl 0x58ec(%rip),%edx        # 13024 <g_8>
    d738:	0f be d2             	movsbl %dl,%edx
    d73b:	39 d0                	cmp    %edx,%eax
    d73d:	0f 95 c0             	setne  %al
    d740:	0f b6 d0             	movzbl %al,%edx
    d743:	80 bd 07 f5 ff ff 00 	cmpb   $0x0,-0xaf9(%rbp)
    d74a:	0f 95 c0             	setne  %al
    d74d:	0f b6 c0             	movzbl %al,%eax
    d750:	89 d6                	mov    %edx,%esi
    d752:	89 c7                	mov    %eax,%edi
    d754:	e8 3a 94 ff ff       	callq  6b93 <safe_mul_func_uint8_t_u_u>
    d759:	48 8b 95 08 f6 ff ff 	mov    -0x9f8(%rbp),%rdx
    d760:	8b 12                	mov    (%rdx),%edx
    d762:	0f b6 c0             	movzbl %al,%eax
    d765:	21 c2                	and    %eax,%edx
    d767:	48 8b 85 08 f6 ff ff 	mov    -0x9f8(%rbp),%rax
    d76e:	89 10                	mov    %edx,(%rax)
    d770:	48 8b 05 31 68 00 00 	mov    0x6831(%rip),%rax        # 13fa8 <g_72>
    d777:	8b 00                	mov    (%rax),%eax
    d779:	e9 f3 10 00 00       	jmpq   e871 <func_57+0x172a>
    d77e:	8b 05 ac 58 00 00    	mov    0x58ac(%rip),%eax        # 13030 <g_111>
    d784:	83 c0 01             	add    $0x1,%eax
    d787:	89 05 a3 58 00 00    	mov    %eax,0x58a3(%rip)        # 13030 <g_111>
    d78d:	c7 05 99 58 00 00 e8 	movl   $0xffffffe8,0x5899(%rip)        # 13030 <g_111>
    d794:	ff ff ff 
    d797:	e9 ba 10 00 00       	jmpq   e856 <func_57+0x170f>
    d79c:	48 8d 85 10 f6 ff ff 	lea    -0x9f0(%rbp),%rax
    d7a3:	48 83 c0 20          	add    $0x20,%rax
    d7a7:	48 89 85 60 f8 ff ff 	mov    %rax,-0x7a0(%rbp)
    d7ae:	48 c7 85 68 f8 ff ff 	movq   $0x0,-0x798(%rbp)
    d7b5:	00 00 00 00 
    d7b9:	48 8d 05 6c 58 00 00 	lea    0x586c(%rip),%rax        # 1302c <g_88>
    d7c0:	48 89 85 70 f8 ff ff 	mov    %rax,-0x790(%rbp)
    d7c7:	48 c7 85 78 f8 ff ff 	movq   $0x0,-0x788(%rbp)
    d7ce:	00 00 00 00 
    d7d2:	48 8d 85 10 f6 ff ff 	lea    -0x9f0(%rbp),%rax
    d7d9:	48 83 c0 20          	add    $0x20,%rax
    d7dd:	48 89 85 80 f8 ff ff 	mov    %rax,-0x780(%rbp)
    d7e4:	48 8d 05 41 58 00 00 	lea    0x5841(%rip),%rax        # 1302c <g_88>
    d7eb:	48 89 85 88 f8 ff ff 	mov    %rax,-0x778(%rbp)
    d7f2:	48 8d 85 10 f6 ff ff 	lea    -0x9f0(%rbp),%rax
    d7f9:	48 83 c0 04          	add    $0x4,%rax
    d7fd:	48 89 85 90 f8 ff ff 	mov    %rax,-0x770(%rbp)
    d804:	48 8d 85 10 f6 ff ff 	lea    -0x9f0(%rbp),%rax
    d80b:	48 83 c0 04          	add    $0x4,%rax
    d80f:	48 89 85 98 f8 ff ff 	mov    %rax,-0x768(%rbp)
    d816:	48 8d 05 0b 58 00 00 	lea    0x580b(%rip),%rax        # 13028 <g_63>
    d81d:	48 89 85 a0 f8 ff ff 	mov    %rax,-0x760(%rbp)
    d824:	48 c7 85 a8 f8 ff ff 	movq   $0x0,-0x758(%rbp)
    d82b:	00 00 00 00 
    d82f:	48 8d 05 f2 57 00 00 	lea    0x57f2(%rip),%rax        # 13028 <g_63>
    d836:	48 89 85 b0 f8 ff ff 	mov    %rax,-0x750(%rbp)
    d83d:	48 8d 05 e4 57 00 00 	lea    0x57e4(%rip),%rax        # 13028 <g_63>
    d844:	48 89 85 b8 f8 ff ff 	mov    %rax,-0x748(%rbp)
    d84b:	48 c7 85 c0 f8 ff ff 	movq   $0x0,-0x740(%rbp)
    d852:	00 00 00 00 
    d856:	48 8d 05 cb 57 00 00 	lea    0x57cb(%rip),%rax        # 13028 <g_63>
    d85d:	48 89 85 c8 f8 ff ff 	mov    %rax,-0x738(%rbp)
    d864:	48 8d 05 bd 57 00 00 	lea    0x57bd(%rip),%rax        # 13028 <g_63>
    d86b:	48 89 85 d0 f8 ff ff 	mov    %rax,-0x730(%rbp)
    d872:	48 c7 85 d8 f8 ff ff 	movq   $0x0,-0x728(%rbp)
    d879:	00 00 00 00 
    d87d:	48 8d 85 10 f6 ff ff 	lea    -0x9f0(%rbp),%rax
    d884:	48 83 c0 04          	add    $0x4,%rax
    d888:	48 89 85 e0 f8 ff ff 	mov    %rax,-0x720(%rbp)
    d88f:	48 8d 05 92 57 00 00 	lea    0x5792(%rip),%rax        # 13028 <g_63>
    d896:	48 89 85 e8 f8 ff ff 	mov    %rax,-0x718(%rbp)
    d89d:	48 8d 05 84 57 00 00 	lea    0x5784(%rip),%rax        # 13028 <g_63>
    d8a4:	48 89 85 f0 f8 ff ff 	mov    %rax,-0x710(%rbp)
    d8ab:	48 8d 85 10 f6 ff ff 	lea    -0x9f0(%rbp),%rax
    d8b2:	48 83 c0 04          	add    $0x4,%rax
    d8b6:	48 89 85 f8 f8 ff ff 	mov    %rax,-0x708(%rbp)
    d8bd:	48 8d 05 64 57 00 00 	lea    0x5764(%rip),%rax        # 13028 <g_63>
    d8c4:	48 89 85 00 f9 ff ff 	mov    %rax,-0x700(%rbp)
    d8cb:	48 8d 05 56 57 00 00 	lea    0x5756(%rip),%rax        # 13028 <g_63>
    d8d2:	48 89 85 08 f9 ff ff 	mov    %rax,-0x6f8(%rbp)
    d8d9:	48 8d 85 10 f6 ff ff 	lea    -0x9f0(%rbp),%rax
    d8e0:	48 83 c0 04          	add    $0x4,%rax
    d8e4:	48 89 85 10 f9 ff ff 	mov    %rax,-0x6f0(%rbp)
    d8eb:	48 8d 05 36 57 00 00 	lea    0x5736(%rip),%rax        # 13028 <g_63>
    d8f2:	48 89 85 18 f9 ff ff 	mov    %rax,-0x6e8(%rbp)
    d8f9:	48 c7 85 20 f9 ff ff 	movq   $0x0,-0x6e0(%rbp)
    d900:	00 00 00 00 
    d904:	48 8d 85 10 f6 ff ff 	lea    -0x9f0(%rbp),%rax
    d90b:	48 83 c0 20          	add    $0x20,%rax
    d90f:	48 89 85 28 f9 ff ff 	mov    %rax,-0x6d8(%rbp)
    d916:	48 8d 05 0f 57 00 00 	lea    0x570f(%rip),%rax        # 1302c <g_88>
    d91d:	48 89 85 30 f9 ff ff 	mov    %rax,-0x6d0(%rbp)
    d924:	48 8d 85 10 f6 ff ff 	lea    -0x9f0(%rbp),%rax
    d92b:	48 83 c0 04          	add    $0x4,%rax
    d92f:	48 89 85 38 f9 ff ff 	mov    %rax,-0x6c8(%rbp)
    d936:	48 8d 85 10 f6 ff ff 	lea    -0x9f0(%rbp),%rax
    d93d:	48 83 c0 04          	add    $0x4,%rax
    d941:	48 89 85 40 f9 ff ff 	mov    %rax,-0x6c0(%rbp)
    d948:	48 8d 05 dd 56 00 00 	lea    0x56dd(%rip),%rax        # 1302c <g_88>
    d94f:	48 89 85 48 f9 ff ff 	mov    %rax,-0x6b8(%rbp)
    d956:	48 8d 85 10 f6 ff ff 	lea    -0x9f0(%rbp),%rax
    d95d:	48 83 c0 20          	add    $0x20,%rax
    d961:	48 89 85 50 f9 ff ff 	mov    %rax,-0x6b0(%rbp)
    d968:	48 c7 85 58 f9 ff ff 	movq   $0x0,-0x6a8(%rbp)
    d96f:	00 00 00 00 
    d973:	48 8d 05 ae 56 00 00 	lea    0x56ae(%rip),%rax        # 13028 <g_63>
    d97a:	48 89 85 60 f9 ff ff 	mov    %rax,-0x6a0(%rbp)
    d981:	48 8d 85 10 f6 ff ff 	lea    -0x9f0(%rbp),%rax
    d988:	48 83 c0 04          	add    $0x4,%rax
    d98c:	48 89 85 68 f9 ff ff 	mov    %rax,-0x698(%rbp)
    d993:	48 8d 05 8e 56 00 00 	lea    0x568e(%rip),%rax        # 13028 <g_63>
    d99a:	48 89 85 70 f9 ff ff 	mov    %rax,-0x690(%rbp)
    d9a1:	48 8d 05 80 56 00 00 	lea    0x5680(%rip),%rax        # 13028 <g_63>
    d9a8:	48 89 85 78 f9 ff ff 	mov    %rax,-0x688(%rbp)
    d9af:	48 8d 85 10 f6 ff ff 	lea    -0x9f0(%rbp),%rax
    d9b6:	48 83 c0 04          	add    $0x4,%rax
    d9ba:	48 89 85 80 f9 ff ff 	mov    %rax,-0x680(%rbp)
    d9c1:	48 8d 05 60 56 00 00 	lea    0x5660(%rip),%rax        # 13028 <g_63>
    d9c8:	48 89 85 88 f9 ff ff 	mov    %rax,-0x678(%rbp)
    d9cf:	48 8d 05 52 56 00 00 	lea    0x5652(%rip),%rax        # 13028 <g_63>
    d9d6:	48 89 85 90 f9 ff ff 	mov    %rax,-0x670(%rbp)
    d9dd:	48 8d 85 10 f6 ff ff 	lea    -0x9f0(%rbp),%rax
    d9e4:	48 83 c0 04          	add    $0x4,%rax
    d9e8:	48 89 85 98 f9 ff ff 	mov    %rax,-0x668(%rbp)
    d9ef:	48 c7 85 a0 f9 ff ff 	movq   $0x0,-0x660(%rbp)
    d9f6:	00 00 00 00 
    d9fa:	48 8d 05 27 56 00 00 	lea    0x5627(%rip),%rax        # 13028 <g_63>
    da01:	48 89 85 a8 f9 ff ff 	mov    %rax,-0x658(%rbp)
    da08:	48 8d 05 19 56 00 00 	lea    0x5619(%rip),%rax        # 13028 <g_63>
    da0f:	48 89 85 b0 f9 ff ff 	mov    %rax,-0x650(%rbp)
    da16:	48 c7 85 b8 f9 ff ff 	movq   $0x0,-0x648(%rbp)
    da1d:	00 00 00 00 
    da21:	48 8d 05 00 56 00 00 	lea    0x5600(%rip),%rax        # 13028 <g_63>
    da28:	48 89 85 c0 f9 ff ff 	mov    %rax,-0x640(%rbp)
    da2f:	48 8d 05 f2 55 00 00 	lea    0x55f2(%rip),%rax        # 13028 <g_63>
    da36:	48 89 85 c8 f9 ff ff 	mov    %rax,-0x638(%rbp)
    da3d:	48 c7 85 d0 f9 ff ff 	movq   $0x0,-0x630(%rbp)
    da44:	00 00 00 00 
    da48:	48 8d 05 d9 55 00 00 	lea    0x55d9(%rip),%rax        # 13028 <g_63>
    da4f:	48 89 85 d8 f9 ff ff 	mov    %rax,-0x628(%rbp)
    da56:	48 8d 85 10 f6 ff ff 	lea    -0x9f0(%rbp),%rax
    da5d:	48 83 c0 04          	add    $0x4,%rax
    da61:	48 89 85 e0 f9 ff ff 	mov    %rax,-0x620(%rbp)
    da68:	48 8d 85 10 f6 ff ff 	lea    -0x9f0(%rbp),%rax
    da6f:	48 83 c0 04          	add    $0x4,%rax
    da73:	48 89 85 e8 f9 ff ff 	mov    %rax,-0x618(%rbp)
    da7a:	48 8d 05 ab 55 00 00 	lea    0x55ab(%rip),%rax        # 1302c <g_88>
    da81:	48 89 85 f0 f9 ff ff 	mov    %rax,-0x610(%rbp)
    da88:	48 8d 85 10 f6 ff ff 	lea    -0x9f0(%rbp),%rax
    da8f:	48 83 c0 20          	add    $0x20,%rax
    da93:	48 89 85 f8 f9 ff ff 	mov    %rax,-0x608(%rbp)
    da9a:	48 c7 85 00 fa ff ff 	movq   $0x0,-0x600(%rbp)
    daa1:	00 00 00 00 
    daa5:	48 8d 05 80 55 00 00 	lea    0x5580(%rip),%rax        # 1302c <g_88>
    daac:	48 89 85 08 fa ff ff 	mov    %rax,-0x5f8(%rbp)
    dab3:	48 c7 85 10 fa ff ff 	movq   $0x0,-0x5f0(%rbp)
    daba:	00 00 00 00 
    dabe:	48 8d 85 10 f6 ff ff 	lea    -0x9f0(%rbp),%rax
    dac5:	48 83 c0 20          	add    $0x20,%rax
    dac9:	48 89 85 18 fa ff ff 	mov    %rax,-0x5e8(%rbp)
    dad0:	48 8d 05 51 55 00 00 	lea    0x5551(%rip),%rax        # 13028 <g_63>
    dad7:	48 89 85 20 fa ff ff 	mov    %rax,-0x5e0(%rbp)
    dade:	48 8d 85 10 f6 ff ff 	lea    -0x9f0(%rbp),%rax
    dae5:	48 83 c0 20          	add    $0x20,%rax
    dae9:	48 89 85 28 fa ff ff 	mov    %rax,-0x5d8(%rbp)
    daf0:	48 8d 05 31 55 00 00 	lea    0x5531(%rip),%rax        # 13028 <g_63>
    daf7:	48 89 85 30 fa ff ff 	mov    %rax,-0x5d0(%rbp)
    dafe:	48 8d 05 23 55 00 00 	lea    0x5523(%rip),%rax        # 13028 <g_63>
    db05:	48 89 85 38 fa ff ff 	mov    %rax,-0x5c8(%rbp)
    db0c:	48 8d 85 10 f6 ff ff 	lea    -0x9f0(%rbp),%rax
    db13:	48 83 c0 20          	add    $0x20,%rax
    db17:	48 89 85 40 fa ff ff 	mov    %rax,-0x5c0(%rbp)
    db1e:	48 8d 05 03 55 00 00 	lea    0x5503(%rip),%rax        # 13028 <g_63>
    db25:	48 89 85 48 fa ff ff 	mov    %rax,-0x5b8(%rbp)
    db2c:	48 8d 05 f5 54 00 00 	lea    0x54f5(%rip),%rax        # 13028 <g_63>
    db33:	48 89 85 50 fa ff ff 	mov    %rax,-0x5b0(%rbp)
    db3a:	48 8d 85 10 f6 ff ff 	lea    -0x9f0(%rbp),%rax
    db41:	48 83 c0 20          	add    $0x20,%rax
    db45:	48 89 85 58 fa ff ff 	mov    %rax,-0x5a8(%rbp)
    db4c:	48 8d 85 10 f6 ff ff 	lea    -0x9f0(%rbp),%rax
    db53:	48 83 c0 20          	add    $0x20,%rax
    db57:	48 89 85 60 fa ff ff 	mov    %rax,-0x5a0(%rbp)
    db5e:	48 8d 05 c3 54 00 00 	lea    0x54c3(%rip),%rax        # 13028 <g_63>
    db65:	48 89 85 68 fa ff ff 	mov    %rax,-0x598(%rbp)
    db6c:	48 8d 05 b5 54 00 00 	lea    0x54b5(%rip),%rax        # 13028 <g_63>
    db73:	48 89 85 70 fa ff ff 	mov    %rax,-0x590(%rbp)
    db7a:	48 8d 85 10 f6 ff ff 	lea    -0x9f0(%rbp),%rax
    db81:	48 83 c0 20          	add    $0x20,%rax
    db85:	48 89 85 78 fa ff ff 	mov    %rax,-0x588(%rbp)
    db8c:	48 8d 05 95 54 00 00 	lea    0x5495(%rip),%rax        # 13028 <g_63>
    db93:	48 89 85 80 fa ff ff 	mov    %rax,-0x580(%rbp)
    db9a:	48 8d 05 87 54 00 00 	lea    0x5487(%rip),%rax        # 13028 <g_63>
    dba1:	48 89 85 88 fa ff ff 	mov    %rax,-0x578(%rbp)
    dba8:	48 8d 85 10 f6 ff ff 	lea    -0x9f0(%rbp),%rax
    dbaf:	48 83 c0 20          	add    $0x20,%rax
    dbb3:	48 89 85 90 fa ff ff 	mov    %rax,-0x570(%rbp)
    dbba:	48 8d 05 67 54 00 00 	lea    0x5467(%rip),%rax        # 13028 <g_63>
    dbc1:	48 89 85 98 fa ff ff 	mov    %rax,-0x568(%rbp)
    dbc8:	48 8d 85 10 f6 ff ff 	lea    -0x9f0(%rbp),%rax
    dbcf:	48 83 c0 20          	add    $0x20,%rax
    dbd3:	48 89 85 a0 fa ff ff 	mov    %rax,-0x560(%rbp)
    dbda:	48 c7 85 a8 fa ff ff 	movq   $0x0,-0x558(%rbp)
    dbe1:	00 00 00 00 
    dbe5:	48 8d 85 10 f6 ff ff 	lea    -0x9f0(%rbp),%rax
    dbec:	48 83 c0 04          	add    $0x4,%rax
    dbf0:	48 89 85 b0 fa ff ff 	mov    %rax,-0x550(%rbp)
    dbf7:	48 8d 05 2a 54 00 00 	lea    0x542a(%rip),%rax        # 13028 <g_63>
    dbfe:	48 89 85 b8 fa ff ff 	mov    %rax,-0x548(%rbp)
    dc05:	48 8d 05 1c 54 00 00 	lea    0x541c(%rip),%rax        # 13028 <g_63>
    dc0c:	48 89 85 c0 fa ff ff 	mov    %rax,-0x540(%rbp)
    dc13:	48 8d 85 10 f6 ff ff 	lea    -0x9f0(%rbp),%rax
    dc1a:	48 83 c0 04          	add    $0x4,%rax
    dc1e:	48 89 85 c8 fa ff ff 	mov    %rax,-0x538(%rbp)
    dc25:	48 8d 05 fc 53 00 00 	lea    0x53fc(%rip),%rax        # 13028 <g_63>
    dc2c:	48 89 85 d0 fa ff ff 	mov    %rax,-0x530(%rbp)
    dc33:	48 8d 05 ee 53 00 00 	lea    0x53ee(%rip),%rax        # 13028 <g_63>
    dc3a:	48 89 85 d8 fa ff ff 	mov    %rax,-0x528(%rbp)
    dc41:	48 8d 05 e4 53 00 00 	lea    0x53e4(%rip),%rax        # 1302c <g_88>
    dc48:	48 89 85 e0 fa ff ff 	mov    %rax,-0x520(%rbp)
    dc4f:	48 8d 05 d2 53 00 00 	lea    0x53d2(%rip),%rax        # 13028 <g_63>
    dc56:	48 89 85 e8 fa ff ff 	mov    %rax,-0x518(%rbp)
    dc5d:	48 c7 85 f0 fa ff ff 	movq   $0x0,-0x510(%rbp)
    dc64:	00 00 00 00 
    dc68:	48 c7 85 f8 fa ff ff 	movq   $0x0,-0x508(%rbp)
    dc6f:	00 00 00 00 
    dc73:	48 8d 05 ae 53 00 00 	lea    0x53ae(%rip),%rax        # 13028 <g_63>
    dc7a:	48 89 85 00 fb ff ff 	mov    %rax,-0x500(%rbp)
    dc81:	48 8d 05 a4 53 00 00 	lea    0x53a4(%rip),%rax        # 1302c <g_88>
    dc88:	48 89 85 08 fb ff ff 	mov    %rax,-0x4f8(%rbp)
    dc8f:	48 8d 05 96 53 00 00 	lea    0x5396(%rip),%rax        # 1302c <g_88>
    dc96:	48 89 85 10 fb ff ff 	mov    %rax,-0x4f0(%rbp)
    dc9d:	48 8d 05 84 53 00 00 	lea    0x5384(%rip),%rax        # 13028 <g_63>
    dca4:	48 89 85 18 fb ff ff 	mov    %rax,-0x4e8(%rbp)
    dcab:	48 8d 05 76 53 00 00 	lea    0x5376(%rip),%rax        # 13028 <g_63>
    dcb2:	48 89 85 20 fb ff ff 	mov    %rax,-0x4e0(%rbp)
    dcb9:	48 8d 05 6c 53 00 00 	lea    0x536c(%rip),%rax        # 1302c <g_88>
    dcc0:	48 89 85 28 fb ff ff 	mov    %rax,-0x4d8(%rbp)
    dcc7:	48 c7 85 30 fb ff ff 	movq   $0x0,-0x4d0(%rbp)
    dcce:	00 00 00 00 
    dcd2:	48 8d 05 4f 53 00 00 	lea    0x534f(%rip),%rax        # 13028 <g_63>
    dcd9:	48 89 85 38 fb ff ff 	mov    %rax,-0x4c8(%rbp)
    dce0:	48 c7 85 40 fb ff ff 	movq   $0x0,-0x4c0(%rbp)
    dce7:	00 00 00 00 
    dceb:	48 8d 05 3a 53 00 00 	lea    0x533a(%rip),%rax        # 1302c <g_88>
    dcf2:	48 89 85 48 fb ff ff 	mov    %rax,-0x4b8(%rbp)
    dcf9:	48 8d 05 28 53 00 00 	lea    0x5328(%rip),%rax        # 13028 <g_63>
    dd00:	48 89 85 50 fb ff ff 	mov    %rax,-0x4b0(%rbp)
    dd07:	48 8d 05 1e 53 00 00 	lea    0x531e(%rip),%rax        # 1302c <g_88>
    dd0e:	48 89 85 58 fb ff ff 	mov    %rax,-0x4a8(%rbp)
    dd15:	48 8d 05 0c 53 00 00 	lea    0x530c(%rip),%rax        # 13028 <g_63>
    dd1c:	48 89 85 60 fb ff ff 	mov    %rax,-0x4a0(%rbp)
    dd23:	48 8d 05 fe 52 00 00 	lea    0x52fe(%rip),%rax        # 13028 <g_63>
    dd2a:	48 89 85 68 fb ff ff 	mov    %rax,-0x498(%rbp)
    dd31:	48 8d 85 10 f6 ff ff 	lea    -0x9f0(%rbp),%rax
    dd38:	48 83 c0 04          	add    $0x4,%rax
    dd3c:	48 89 85 70 fb ff ff 	mov    %rax,-0x490(%rbp)
    dd43:	48 8d 05 de 52 00 00 	lea    0x52de(%rip),%rax        # 13028 <g_63>
    dd4a:	48 89 85 78 fb ff ff 	mov    %rax,-0x488(%rbp)
    dd51:	48 8d 05 d0 52 00 00 	lea    0x52d0(%rip),%rax        # 13028 <g_63>
    dd58:	48 89 85 80 fb ff ff 	mov    %rax,-0x480(%rbp)
    dd5f:	48 8d 85 10 f6 ff ff 	lea    -0x9f0(%rbp),%rax
    dd66:	48 83 c0 04          	add    $0x4,%rax
    dd6a:	48 89 85 88 fb ff ff 	mov    %rax,-0x478(%rbp)
    dd71:	48 8d 05 b0 52 00 00 	lea    0x52b0(%rip),%rax        # 13028 <g_63>
    dd78:	48 89 85 90 fb ff ff 	mov    %rax,-0x470(%rbp)
    dd7f:	48 8d 05 a2 52 00 00 	lea    0x52a2(%rip),%rax        # 13028 <g_63>
    dd86:	48 89 85 98 fb ff ff 	mov    %rax,-0x468(%rbp)
    dd8d:	48 8d 05 98 52 00 00 	lea    0x5298(%rip),%rax        # 1302c <g_88>
    dd94:	48 89 85 a0 fb ff ff 	mov    %rax,-0x460(%rbp)
    dd9b:	48 8d 05 86 52 00 00 	lea    0x5286(%rip),%rax        # 13028 <g_63>
    dda2:	48 89 85 a8 fb ff ff 	mov    %rax,-0x458(%rbp)
    dda9:	48 8d 05 7c 52 00 00 	lea    0x527c(%rip),%rax        # 1302c <g_88>
    ddb0:	48 89 85 b0 fb ff ff 	mov    %rax,-0x450(%rbp)
    ddb7:	48 c7 85 b8 fb ff ff 	movq   $0x0,-0x448(%rbp)
    ddbe:	00 00 00 00 
    ddc2:	48 8d 05 5f 52 00 00 	lea    0x525f(%rip),%rax        # 13028 <g_63>
    ddc9:	48 89 85 c0 fb ff ff 	mov    %rax,-0x440(%rbp)
    ddd0:	48 c7 85 c8 fb ff ff 	movq   $0x0,-0x438(%rbp)
    ddd7:	00 00 00 00 
    dddb:	48 8d 05 4a 52 00 00 	lea    0x524a(%rip),%rax        # 1302c <g_88>
    dde2:	48 89 85 d0 fb ff ff 	mov    %rax,-0x430(%rbp)
    dde9:	48 8d 05 38 52 00 00 	lea    0x5238(%rip),%rax        # 13028 <g_63>
    ddf0:	48 89 85 d8 fb ff ff 	mov    %rax,-0x428(%rbp)
    ddf7:	48 8d 05 2a 52 00 00 	lea    0x522a(%rip),%rax        # 13028 <g_63>
    ddfe:	48 89 85 e0 fb ff ff 	mov    %rax,-0x420(%rbp)
    de05:	48 8d 05 20 52 00 00 	lea    0x5220(%rip),%rax        # 1302c <g_88>
    de0c:	48 89 85 e8 fb ff ff 	mov    %rax,-0x418(%rbp)
    de13:	48 8d 05 12 52 00 00 	lea    0x5212(%rip),%rax        # 1302c <g_88>
    de1a:	48 89 85 f0 fb ff ff 	mov    %rax,-0x410(%rbp)
    de21:	48 8d 05 00 52 00 00 	lea    0x5200(%rip),%rax        # 13028 <g_63>
    de28:	48 89 85 f8 fb ff ff 	mov    %rax,-0x408(%rbp)
    de2f:	48 c7 85 00 fc ff ff 	movq   $0x0,-0x400(%rbp)
    de36:	00 00 00 00 
    de3a:	48 c7 85 08 fc ff ff 	movq   $0x0,-0x3f8(%rbp)
    de41:	00 00 00 00 
    de45:	48 8d 05 dc 51 00 00 	lea    0x51dc(%rip),%rax        # 13028 <g_63>
    de4c:	48 89 85 10 fc ff ff 	mov    %rax,-0x3f0(%rbp)
    de53:	48 8d 05 d2 51 00 00 	lea    0x51d2(%rip),%rax        # 1302c <g_88>
    de5a:	48 89 85 18 fc ff ff 	mov    %rax,-0x3e8(%rbp)
    de61:	48 8d 05 c0 51 00 00 	lea    0x51c0(%rip),%rax        # 13028 <g_63>
    de68:	48 89 85 20 fc ff ff 	mov    %rax,-0x3e0(%rbp)
    de6f:	48 8d 05 b2 51 00 00 	lea    0x51b2(%rip),%rax        # 13028 <g_63>
    de76:	48 89 85 28 fc ff ff 	mov    %rax,-0x3d8(%rbp)
    de7d:	48 8d 85 10 f6 ff ff 	lea    -0x9f0(%rbp),%rax
    de84:	48 83 c0 04          	add    $0x4,%rax
    de88:	48 89 85 30 fc ff ff 	mov    %rax,-0x3d0(%rbp)
    de8f:	48 8d 05 92 51 00 00 	lea    0x5192(%rip),%rax        # 13028 <g_63>
    de96:	48 89 85 38 fc ff ff 	mov    %rax,-0x3c8(%rbp)
    de9d:	48 8d 05 84 51 00 00 	lea    0x5184(%rip),%rax        # 13028 <g_63>
    dea4:	48 89 85 40 fc ff ff 	mov    %rax,-0x3c0(%rbp)
    deab:	48 8d 85 10 f6 ff ff 	lea    -0x9f0(%rbp),%rax
    deb2:	48 83 c0 04          	add    $0x4,%rax
    deb6:	48 89 85 48 fc ff ff 	mov    %rax,-0x3b8(%rbp)
    debd:	48 8d 05 64 51 00 00 	lea    0x5164(%rip),%rax        # 13028 <g_63>
    dec4:	48 89 85 50 fc ff ff 	mov    %rax,-0x3b0(%rbp)
    decb:	48 8d 05 56 51 00 00 	lea    0x5156(%rip),%rax        # 13028 <g_63>
    ded2:	48 89 85 58 fc ff ff 	mov    %rax,-0x3a8(%rbp)
    ded9:	48 8d 05 4c 51 00 00 	lea    0x514c(%rip),%rax        # 1302c <g_88>
    dee0:	48 89 85 60 fc ff ff 	mov    %rax,-0x3a0(%rbp)
    dee7:	48 8d 05 3a 51 00 00 	lea    0x513a(%rip),%rax        # 13028 <g_63>
    deee:	48 89 85 68 fc ff ff 	mov    %rax,-0x398(%rbp)
    def5:	48 8d 05 30 51 00 00 	lea    0x5130(%rip),%rax        # 1302c <g_88>
    defc:	48 89 85 70 fc ff ff 	mov    %rax,-0x390(%rbp)
    df03:	48 c7 85 78 fc ff ff 	movq   $0x0,-0x388(%rbp)
    df0a:	00 00 00 00 
    df0e:	48 8d 05 13 51 00 00 	lea    0x5113(%rip),%rax        # 13028 <g_63>
    df15:	48 89 85 80 fc ff ff 	mov    %rax,-0x380(%rbp)
    df1c:	48 8d 05 09 51 00 00 	lea    0x5109(%rip),%rax        # 1302c <g_88>
    df23:	48 89 85 88 fc ff ff 	mov    %rax,-0x378(%rbp)
    df2a:	48 8d 05 fb 50 00 00 	lea    0x50fb(%rip),%rax        # 1302c <g_88>
    df31:	48 89 85 90 fc ff ff 	mov    %rax,-0x370(%rbp)
    df38:	48 8d 05 e9 50 00 00 	lea    0x50e9(%rip),%rax        # 13028 <g_63>
    df3f:	48 89 85 98 fc ff ff 	mov    %rax,-0x368(%rbp)
    df46:	48 8d 05 db 50 00 00 	lea    0x50db(%rip),%rax        # 13028 <g_63>
    df4d:	48 89 85 a0 fc ff ff 	mov    %rax,-0x360(%rbp)
    df54:	48 8d 05 d1 50 00 00 	lea    0x50d1(%rip),%rax        # 1302c <g_88>
    df5b:	48 89 85 a8 fc ff ff 	mov    %rax,-0x358(%rbp)
    df62:	48 8d 05 c3 50 00 00 	lea    0x50c3(%rip),%rax        # 1302c <g_88>
    df69:	48 89 85 b0 fc ff ff 	mov    %rax,-0x350(%rbp)
    df70:	48 8d 05 b1 50 00 00 	lea    0x50b1(%rip),%rax        # 13028 <g_63>
    df77:	48 89 85 b8 fc ff ff 	mov    %rax,-0x348(%rbp)
    df7e:	48 c7 85 c0 fc ff ff 	movq   $0x0,-0x340(%rbp)
    df85:	00 00 00 00 
    df89:	48 8d 05 9c 50 00 00 	lea    0x509c(%rip),%rax        # 1302c <g_88>
    df90:	48 89 85 c8 fc ff ff 	mov    %rax,-0x338(%rbp)
    df97:	48 8d 05 8a 50 00 00 	lea    0x508a(%rip),%rax        # 13028 <g_63>
    df9e:	48 89 85 d0 fc ff ff 	mov    %rax,-0x330(%rbp)
    dfa5:	48 8d 05 80 50 00 00 	lea    0x5080(%rip),%rax        # 1302c <g_88>
    dfac:	48 89 85 d8 fc ff ff 	mov    %rax,-0x328(%rbp)
    dfb3:	48 8d 05 6e 50 00 00 	lea    0x506e(%rip),%rax        # 13028 <g_63>
    dfba:	48 89 85 e0 fc ff ff 	mov    %rax,-0x320(%rbp)
    dfc1:	48 8d 05 60 50 00 00 	lea    0x5060(%rip),%rax        # 13028 <g_63>
    dfc8:	48 89 85 e8 fc ff ff 	mov    %rax,-0x318(%rbp)
    dfcf:	48 8d 85 10 f6 ff ff 	lea    -0x9f0(%rbp),%rax
    dfd6:	48 83 c0 04          	add    $0x4,%rax
    dfda:	48 89 85 f0 fc ff ff 	mov    %rax,-0x310(%rbp)
    dfe1:	48 8d 05 40 50 00 00 	lea    0x5040(%rip),%rax        # 13028 <g_63>
    dfe8:	48 89 85 f8 fc ff ff 	mov    %rax,-0x308(%rbp)
    dfef:	48 8d 05 32 50 00 00 	lea    0x5032(%rip),%rax        # 13028 <g_63>
    dff6:	48 89 85 00 fd ff ff 	mov    %rax,-0x300(%rbp)
    dffd:	48 8d 85 10 f6 ff ff 	lea    -0x9f0(%rbp),%rax
    e004:	48 83 c0 04          	add    $0x4,%rax
    e008:	48 89 85 08 fd ff ff 	mov    %rax,-0x2f8(%rbp)
    e00f:	48 8d 05 12 50 00 00 	lea    0x5012(%rip),%rax        # 13028 <g_63>
    e016:	48 89 85 10 fd ff ff 	mov    %rax,-0x2f0(%rbp)
    e01d:	48 8d 05 04 50 00 00 	lea    0x5004(%rip),%rax        # 13028 <g_63>
    e024:	48 89 85 18 fd ff ff 	mov    %rax,-0x2e8(%rbp)
    e02b:	48 8d 05 fa 4f 00 00 	lea    0x4ffa(%rip),%rax        # 1302c <g_88>
    e032:	48 89 85 20 fd ff ff 	mov    %rax,-0x2e0(%rbp)
    e039:	48 8d 05 e8 4f 00 00 	lea    0x4fe8(%rip),%rax        # 13028 <g_63>
    e040:	48 89 85 28 fd ff ff 	mov    %rax,-0x2d8(%rbp)
    e047:	48 c7 85 30 fd ff ff 	movq   $0x0,-0x2d0(%rbp)
    e04e:	00 00 00 00 
    e052:	48 c7 85 38 fd ff ff 	movq   $0x0,-0x2c8(%rbp)
    e059:	00 00 00 00 
    e05d:	48 8d 05 c4 4f 00 00 	lea    0x4fc4(%rip),%rax        # 13028 <g_63>
    e064:	48 89 85 40 fd ff ff 	mov    %rax,-0x2c0(%rbp)
    e06b:	48 8d 05 ba 4f 00 00 	lea    0x4fba(%rip),%rax        # 1302c <g_88>
    e072:	48 89 85 48 fd ff ff 	mov    %rax,-0x2b8(%rbp)
    e079:	48 8d 05 ac 4f 00 00 	lea    0x4fac(%rip),%rax        # 1302c <g_88>
    e080:	48 89 85 50 fd ff ff 	mov    %rax,-0x2b0(%rbp)
    e087:	48 8d 05 9a 4f 00 00 	lea    0x4f9a(%rip),%rax        # 13028 <g_63>
    e08e:	48 89 85 58 fd ff ff 	mov    %rax,-0x2a8(%rbp)
    e095:	48 8d 05 8c 4f 00 00 	lea    0x4f8c(%rip),%rax        # 13028 <g_63>
    e09c:	48 89 85 60 fd ff ff 	mov    %rax,-0x2a0(%rbp)
    e0a3:	48 8d 05 82 4f 00 00 	lea    0x4f82(%rip),%rax        # 1302c <g_88>
    e0aa:	48 89 85 68 fd ff ff 	mov    %rax,-0x298(%rbp)
    e0b1:	48 c7 85 70 fd ff ff 	movq   $0x0,-0x290(%rbp)
    e0b8:	00 00 00 00 
    e0bc:	48 8d 05 65 4f 00 00 	lea    0x4f65(%rip),%rax        # 13028 <g_63>
    e0c3:	48 89 85 78 fd ff ff 	mov    %rax,-0x288(%rbp)
    e0ca:	48 c7 85 80 fd ff ff 	movq   $0x0,-0x280(%rbp)
    e0d1:	00 00 00 00 
    e0d5:	48 8d 05 50 4f 00 00 	lea    0x4f50(%rip),%rax        # 1302c <g_88>
    e0dc:	48 89 85 88 fd ff ff 	mov    %rax,-0x278(%rbp)
    e0e3:	48 8d 05 3e 4f 00 00 	lea    0x4f3e(%rip),%rax        # 13028 <g_63>
    e0ea:	48 89 85 90 fd ff ff 	mov    %rax,-0x270(%rbp)
    e0f1:	48 8d 05 34 4f 00 00 	lea    0x4f34(%rip),%rax        # 1302c <g_88>
    e0f8:	48 89 85 98 fd ff ff 	mov    %rax,-0x268(%rbp)
    e0ff:	48 8d 05 22 4f 00 00 	lea    0x4f22(%rip),%rax        # 13028 <g_63>
    e106:	48 89 85 a0 fd ff ff 	mov    %rax,-0x260(%rbp)
    e10d:	48 8d 05 14 4f 00 00 	lea    0x4f14(%rip),%rax        # 13028 <g_63>
    e114:	48 89 85 a8 fd ff ff 	mov    %rax,-0x258(%rbp)
    e11b:	48 8d 85 10 f6 ff ff 	lea    -0x9f0(%rbp),%rax
    e122:	48 83 c0 04          	add    $0x4,%rax
    e126:	48 89 85 b0 fd ff ff 	mov    %rax,-0x250(%rbp)
    e12d:	48 8d 05 f4 4e 00 00 	lea    0x4ef4(%rip),%rax        # 13028 <g_63>
    e134:	48 89 85 b8 fd ff ff 	mov    %rax,-0x248(%rbp)
    e13b:	48 8d 05 e6 4e 00 00 	lea    0x4ee6(%rip),%rax        # 13028 <g_63>
    e142:	48 89 85 c0 fd ff ff 	mov    %rax,-0x240(%rbp)
    e149:	48 8d 85 10 f6 ff ff 	lea    -0x9f0(%rbp),%rax
    e150:	48 83 c0 04          	add    $0x4,%rax
    e154:	48 89 85 c8 fd ff ff 	mov    %rax,-0x238(%rbp)
    e15b:	48 8d 05 c6 4e 00 00 	lea    0x4ec6(%rip),%rax        # 13028 <g_63>
    e162:	48 89 85 d0 fd ff ff 	mov    %rax,-0x230(%rbp)
    e169:	48 8d 05 b8 4e 00 00 	lea    0x4eb8(%rip),%rax        # 13028 <g_63>
    e170:	48 89 85 d8 fd ff ff 	mov    %rax,-0x228(%rbp)
    e177:	48 8d 05 ae 4e 00 00 	lea    0x4eae(%rip),%rax        # 1302c <g_88>
    e17e:	48 89 85 e0 fd ff ff 	mov    %rax,-0x220(%rbp)
    e185:	48 8d 05 9c 4e 00 00 	lea    0x4e9c(%rip),%rax        # 13028 <g_63>
    e18c:	48 89 85 e8 fd ff ff 	mov    %rax,-0x218(%rbp)
    e193:	48 8d 05 92 4e 00 00 	lea    0x4e92(%rip),%rax        # 1302c <g_88>
    e19a:	48 89 85 f0 fd ff ff 	mov    %rax,-0x210(%rbp)
    e1a1:	48 c7 85 f8 fd ff ff 	movq   $0x0,-0x208(%rbp)
    e1a8:	00 00 00 00 
    e1ac:	48 8d 05 75 4e 00 00 	lea    0x4e75(%rip),%rax        # 13028 <g_63>
    e1b3:	48 89 85 00 fe ff ff 	mov    %rax,-0x200(%rbp)
    e1ba:	48 c7 85 08 fe ff ff 	movq   $0x0,-0x1f8(%rbp)
    e1c1:	00 00 00 00 
    e1c5:	48 8d 05 60 4e 00 00 	lea    0x4e60(%rip),%rax        # 1302c <g_88>
    e1cc:	48 89 85 10 fe ff ff 	mov    %rax,-0x1f0(%rbp)
    e1d3:	48 8d 05 4e 4e 00 00 	lea    0x4e4e(%rip),%rax        # 13028 <g_63>
    e1da:	48 89 85 18 fe ff ff 	mov    %rax,-0x1e8(%rbp)
    e1e1:	48 8d 05 40 4e 00 00 	lea    0x4e40(%rip),%rax        # 13028 <g_63>
    e1e8:	48 89 85 20 fe ff ff 	mov    %rax,-0x1e0(%rbp)
    e1ef:	48 8d 05 36 4e 00 00 	lea    0x4e36(%rip),%rax        # 1302c <g_88>
    e1f6:	48 89 85 28 fe ff ff 	mov    %rax,-0x1d8(%rbp)
    e1fd:	48 8d 05 28 4e 00 00 	lea    0x4e28(%rip),%rax        # 1302c <g_88>
    e204:	48 89 85 30 fe ff ff 	mov    %rax,-0x1d0(%rbp)
    e20b:	48 8d 05 16 4e 00 00 	lea    0x4e16(%rip),%rax        # 13028 <g_63>
    e212:	48 89 85 38 fe ff ff 	mov    %rax,-0x1c8(%rbp)
    e219:	48 c7 85 40 fe ff ff 	movq   $0x0,-0x1c0(%rbp)
    e220:	00 00 00 00 
    e224:	48 c7 85 48 fe ff ff 	movq   $0x0,-0x1b8(%rbp)
    e22b:	00 00 00 00 
    e22f:	48 8d 05 f2 4d 00 00 	lea    0x4df2(%rip),%rax        # 13028 <g_63>
    e236:	48 89 85 50 fe ff ff 	mov    %rax,-0x1b0(%rbp)
    e23d:	48 8d 05 e8 4d 00 00 	lea    0x4de8(%rip),%rax        # 1302c <g_88>
    e244:	48 89 85 58 fe ff ff 	mov    %rax,-0x1a8(%rbp)
    e24b:	48 8d 05 d6 4d 00 00 	lea    0x4dd6(%rip),%rax        # 13028 <g_63>
    e252:	48 89 85 60 fe ff ff 	mov    %rax,-0x1a0(%rbp)
    e259:	48 8d 05 c8 4d 00 00 	lea    0x4dc8(%rip),%rax        # 13028 <g_63>
    e260:	48 89 85 68 fe ff ff 	mov    %rax,-0x198(%rbp)
    e267:	48 8d 85 10 f6 ff ff 	lea    -0x9f0(%rbp),%rax
    e26e:	48 83 c0 04          	add    $0x4,%rax
    e272:	48 89 85 70 fe ff ff 	mov    %rax,-0x190(%rbp)
    e279:	48 8d 05 a8 4d 00 00 	lea    0x4da8(%rip),%rax        # 13028 <g_63>
    e280:	48 89 85 78 fe ff ff 	mov    %rax,-0x188(%rbp)
    e287:	48 8d 05 9a 4d 00 00 	lea    0x4d9a(%rip),%rax        # 13028 <g_63>
    e28e:	48 89 85 80 fe ff ff 	mov    %rax,-0x180(%rbp)
    e295:	48 8d 85 10 f6 ff ff 	lea    -0x9f0(%rbp),%rax
    e29c:	48 83 c0 04          	add    $0x4,%rax
    e2a0:	48 89 85 88 fe ff ff 	mov    %rax,-0x178(%rbp)
    e2a7:	48 8d 05 7a 4d 00 00 	lea    0x4d7a(%rip),%rax        # 13028 <g_63>
    e2ae:	48 89 85 90 fe ff ff 	mov    %rax,-0x170(%rbp)
    e2b5:	48 8d 05 6c 4d 00 00 	lea    0x4d6c(%rip),%rax        # 13028 <g_63>
    e2bc:	48 89 85 98 fe ff ff 	mov    %rax,-0x168(%rbp)
    e2c3:	48 8d 05 62 4d 00 00 	lea    0x4d62(%rip),%rax        # 1302c <g_88>
    e2ca:	48 89 85 a0 fe ff ff 	mov    %rax,-0x160(%rbp)
    e2d1:	48 8d 05 50 4d 00 00 	lea    0x4d50(%rip),%rax        # 13028 <g_63>
    e2d8:	48 89 85 a8 fe ff ff 	mov    %rax,-0x158(%rbp)
    e2df:	48 8d 05 46 4d 00 00 	lea    0x4d46(%rip),%rax        # 1302c <g_88>
    e2e6:	48 89 85 b0 fe ff ff 	mov    %rax,-0x150(%rbp)
    e2ed:	48 c7 85 b8 fe ff ff 	movq   $0x0,-0x148(%rbp)
    e2f4:	00 00 00 00 
    e2f8:	48 8d 05 29 4d 00 00 	lea    0x4d29(%rip),%rax        # 13028 <g_63>
    e2ff:	48 89 85 c0 fe ff ff 	mov    %rax,-0x140(%rbp)
    e306:	48 8d 05 1f 4d 00 00 	lea    0x4d1f(%rip),%rax        # 1302c <g_88>
    e30d:	48 89 85 c8 fe ff ff 	mov    %rax,-0x138(%rbp)
    e314:	48 8d 05 11 4d 00 00 	lea    0x4d11(%rip),%rax        # 1302c <g_88>
    e31b:	48 89 85 d0 fe ff ff 	mov    %rax,-0x130(%rbp)
    e322:	48 8d 05 ff 4c 00 00 	lea    0x4cff(%rip),%rax        # 13028 <g_63>
    e329:	48 89 85 d8 fe ff ff 	mov    %rax,-0x128(%rbp)
    e330:	48 8d 05 f1 4c 00 00 	lea    0x4cf1(%rip),%rax        # 13028 <g_63>
    e337:	48 89 85 e0 fe ff ff 	mov    %rax,-0x120(%rbp)
    e33e:	48 8d 05 e7 4c 00 00 	lea    0x4ce7(%rip),%rax        # 1302c <g_88>
    e345:	48 89 85 e8 fe ff ff 	mov    %rax,-0x118(%rbp)
    e34c:	48 8d 05 d9 4c 00 00 	lea    0x4cd9(%rip),%rax        # 1302c <g_88>
    e353:	48 89 85 f0 fe ff ff 	mov    %rax,-0x110(%rbp)
    e35a:	48 8d 05 c7 4c 00 00 	lea    0x4cc7(%rip),%rax        # 13028 <g_63>
    e361:	48 89 85 f8 fe ff ff 	mov    %rax,-0x108(%rbp)
    e368:	48 c7 85 00 ff ff ff 	movq   $0x0,-0x100(%rbp)
    e36f:	00 00 00 00 
    e373:	48 8d 05 b2 4c 00 00 	lea    0x4cb2(%rip),%rax        # 1302c <g_88>
    e37a:	48 89 85 08 ff ff ff 	mov    %rax,-0xf8(%rbp)
    e381:	48 8d 05 a0 4c 00 00 	lea    0x4ca0(%rip),%rax        # 13028 <g_63>
    e388:	48 89 85 10 ff ff ff 	mov    %rax,-0xf0(%rbp)
    e38f:	48 8d 05 96 4c 00 00 	lea    0x4c96(%rip),%rax        # 1302c <g_88>
    e396:	48 89 85 18 ff ff ff 	mov    %rax,-0xe8(%rbp)
    e39d:	48 8d 05 84 4c 00 00 	lea    0x4c84(%rip),%rax        # 13028 <g_63>
    e3a4:	48 89 85 20 ff ff ff 	mov    %rax,-0xe0(%rbp)
    e3ab:	48 8d 05 76 4c 00 00 	lea    0x4c76(%rip),%rax        # 13028 <g_63>
    e3b2:	48 89 85 28 ff ff ff 	mov    %rax,-0xd8(%rbp)
    e3b9:	48 8d 85 10 f6 ff ff 	lea    -0x9f0(%rbp),%rax
    e3c0:	48 83 c0 04          	add    $0x4,%rax
    e3c4:	48 89 85 30 ff ff ff 	mov    %rax,-0xd0(%rbp)
    e3cb:	48 8d 05 56 4c 00 00 	lea    0x4c56(%rip),%rax        # 13028 <g_63>
    e3d2:	48 89 85 38 ff ff ff 	mov    %rax,-0xc8(%rbp)
    e3d9:	48 8d 05 48 4c 00 00 	lea    0x4c48(%rip),%rax        # 13028 <g_63>
    e3e0:	48 89 85 40 ff ff ff 	mov    %rax,-0xc0(%rbp)
    e3e7:	48 8d 85 10 f6 ff ff 	lea    -0x9f0(%rbp),%rax
    e3ee:	48 83 c0 04          	add    $0x4,%rax
    e3f2:	48 89 85 48 ff ff ff 	mov    %rax,-0xb8(%rbp)
    e3f9:	48 8d 05 28 4c 00 00 	lea    0x4c28(%rip),%rax        # 13028 <g_63>
    e400:	48 89 85 50 ff ff ff 	mov    %rax,-0xb0(%rbp)
    e407:	48 8d 05 1a 4c 00 00 	lea    0x4c1a(%rip),%rax        # 13028 <g_63>
    e40e:	48 89 85 58 ff ff ff 	mov    %rax,-0xa8(%rbp)
    e415:	48 8d 05 10 4c 00 00 	lea    0x4c10(%rip),%rax        # 1302c <g_88>
    e41c:	48 89 85 60 ff ff ff 	mov    %rax,-0xa0(%rbp)
    e423:	48 8d 05 fe 4b 00 00 	lea    0x4bfe(%rip),%rax        # 13028 <g_63>
    e42a:	48 89 85 68 ff ff ff 	mov    %rax,-0x98(%rbp)
    e431:	48 c7 85 70 ff ff ff 	movq   $0x0,-0x90(%rbp)
    e438:	00 00 00 00 
    e43c:	48 c7 85 78 ff ff ff 	movq   $0x0,-0x88(%rbp)
    e443:	00 00 00 00 
    e447:	48 8d 05 da 4b 00 00 	lea    0x4bda(%rip),%rax        # 13028 <g_63>
    e44e:	48 89 45 80          	mov    %rax,-0x80(%rbp)
    e452:	48 8d 05 d3 4b 00 00 	lea    0x4bd3(%rip),%rax        # 1302c <g_88>
    e459:	48 89 45 88          	mov    %rax,-0x78(%rbp)
    e45d:	48 8d 05 c8 4b 00 00 	lea    0x4bc8(%rip),%rax        # 1302c <g_88>
    e464:	48 89 45 90          	mov    %rax,-0x70(%rbp)
    e468:	48 8d 05 b9 4b 00 00 	lea    0x4bb9(%rip),%rax        # 13028 <g_63>
    e46f:	48 89 45 98          	mov    %rax,-0x68(%rbp)
    e473:	48 8d 05 ae 4b 00 00 	lea    0x4bae(%rip),%rax        # 13028 <g_63>
    e47a:	48 89 45 a0          	mov    %rax,-0x60(%rbp)
    e47e:	48 8d 05 a7 4b 00 00 	lea    0x4ba7(%rip),%rax        # 1302c <g_88>
    e485:	48 89 45 a8          	mov    %rax,-0x58(%rbp)
    e489:	48 c7 45 b0 00 00 00 	movq   $0x0,-0x50(%rbp)
    e490:	00 
    e491:	48 8d 05 90 4b 00 00 	lea    0x4b90(%rip),%rax        # 13028 <g_63>
    e498:	48 89 45 b8          	mov    %rax,-0x48(%rbp)
    e49c:	48 c7 45 c0 00 00 00 	movq   $0x0,-0x40(%rbp)
    e4a3:	00 
    e4a4:	48 8d 05 81 4b 00 00 	lea    0x4b81(%rip),%rax        # 1302c <g_88>
    e4ab:	48 89 45 c8          	mov    %rax,-0x38(%rbp)
    e4af:	48 8d 05 72 4b 00 00 	lea    0x4b72(%rip),%rax        # 13028 <g_63>
    e4b6:	48 89 45 d0          	mov    %rax,-0x30(%rbp)
    e4ba:	48 8d 05 6b 4b 00 00 	lea    0x4b6b(%rip),%rax        # 1302c <g_88>
    e4c1:	48 89 45 d8          	mov    %rax,-0x28(%rbp)
    e4c5:	c6 85 0c f5 ff ff 0b 	movb   $0xb,-0xaf4(%rbp)
    e4cc:	48 8d 05 a1 4b 00 00 	lea    0x4ba1(%rip),%rax        # 13074 <g_134+0x34>
    e4d3:	48 89 85 e0 f5 ff ff 	mov    %rax,-0xa20(%rbp)
    e4da:	c6 85 06 f5 ff ff f9 	movb   $0xf9,-0xafa(%rbp)
    e4e1:	48 8d 05 b8 4d 00 00 	lea    0x4db8(%rip),%rax        # 132a0 <g_176+0x40>
    e4e8:	48 89 85 e8 f5 ff ff 	mov    %rax,-0xa18(%rbp)
    e4ef:	c7 85 40 f6 ff ff 02 	movl   $0xfefd8102,-0x9c0(%rbp)
    e4f6:	81 fd fe 
    e4f9:	66 c7 85 44 f6 ff ff 	movw   $0x1f7,-0x9bc(%rbp)
    e500:	f7 01 
    e502:	c6 85 46 f6 ff ff 62 	movb   $0x62,-0x9ba(%rbp)
    e509:	c7 85 47 f6 ff ff 81 	movl   $0xff32ff81,-0x9b9(%rbp)
    e510:	ff 32 ff 
    e513:	66 c7 85 4b f6 ff ff 	movw   $0xf7cc,-0x9b5(%rbp)
    e51a:	cc f7 
    e51c:	c6 85 4d f6 ff ff f7 	movb   $0xf7,-0x9b3(%rbp)
    e523:	c7 85 4e f6 ff ff cc 	movl   $0xb2fe81cc,-0x9b2(%rbp)
    e52a:	81 fe b2 
    e52d:	66 c7 85 52 f6 ff ff 	movw   $0xfefd,-0x9ae(%rbp)
    e534:	fd fe 
    e536:	c6 85 54 f6 ff ff 07 	movb   $0x7,-0x9ac(%rbp)
    e53d:	c7 85 55 f6 ff ff f7 	movl   $0xd0f600f7,-0x9ab(%rbp)
    e544:	00 f6 d0 
    e547:	66 c7 85 59 f6 ff ff 	movw   $0xfd,-0x9a7(%rbp)
    e54e:	fd 00 
    e550:	c6 85 5b f6 ff ff 32 	movb   $0x32,-0x9a5(%rbp)
    e557:	c7 85 5c f6 ff ff 01 	movl   $0x8301f801,-0x9a4(%rbp)
    e55e:	f8 01 83 
    e561:	66 c7 85 60 f6 ff ff 	movw   $0x1f6,-0x9a0(%rbp)
    e568:	f6 01 
    e56a:	c6 85 62 f6 ff ff 05 	movb   $0x5,-0x99e(%rbp)
    e571:	c7 85 63 f6 ff ff 01 	movl   $0x4d008301,-0x99d(%rbp)
    e578:	83 00 4d 
    e57b:	66 c7 85 67 f6 ff ff 	movw   $0x1fa,-0x999(%rbp)
    e582:	fa 01 
    e584:	c6 85 69 f6 ff ff 4d 	movb   $0x4d,-0x997(%rbp)
    e58b:	c7 85 6a f6 ff ff 4c 	movl   $0x400054c,-0x996(%rbp)
    e592:	05 00 04 
    e595:	66 c7 85 6e f6 ff ff 	movw   $0x81fa,-0x992(%rbp)
    e59c:	fa 81 
    e59e:	c6 85 70 f6 ff ff 89 	movb   $0x89,-0x990(%rbp)
    e5a5:	c7 85 71 f6 ff ff cc 	movl   $0x5fb01cc,-0x98f(%rbp)
    e5ac:	01 fb 05 
    e5af:	66 c7 85 75 f6 ff ff 	movw   $0xbcf6,-0x98b(%rbp)
    e5b6:	f6 bc 
    e5b8:	c6 85 77 f6 ff ff da 	movb   $0xda,-0x989(%rbp)
    e5bf:	c7 85 78 f6 ff ff fa 	movl   $0xf801fcfa,-0x988(%rbp)
    e5c6:	fc 01 f8 
    e5c9:	66 c7 85 7c f6 ff ff 	movw   $0xfbfd,-0x984(%rbp)
    e5d0:	fd fb 
    e5d2:	c6 85 7e f6 ff ff fb 	movb   $0xfb,-0x982(%rbp)
    e5d9:	c7 85 7f f6 ff ff 04 	movl   $0x4c014c04,-0x981(%rbp)
    e5e0:	4c 01 4c 
    e5e3:	66 c7 85 83 f6 ff ff 	movw   $0x4,-0x97d(%rbp)
    e5ea:	04 00 
    e5ec:	c6 85 85 f6 ff ff 07 	movb   $0x7,-0x97b(%rbp)
    e5f3:	c7 85 86 f6 ff ff d0 	movl   $0x1fd00d0,-0x97a(%rbp)
    e5fa:	00 fd 01 
    e5fd:	66 c7 85 8a f6 ff ff 	movw   $0x1fb,-0x976(%rbp)
    e604:	fb 01 
    e606:	c6 85 8c f6 ff ff da 	movb   $0xda,-0x974(%rbp)
    e60d:	c7 85 8d f6 ff ff fd 	movl   $0x28f8fafd,-0x973(%rbp)
    e614:	fa f8 28 
    e617:	66 c7 85 91 f6 ff ff 	movw   $0x6493,-0x96f(%rbp)
    e61e:	93 64 
    e620:	c6 85 93 f6 ff ff 01 	movb   $0x1,-0x96d(%rbp)
    e627:	c7 85 94 f6 ff ff d0 	movl   $0x89f901d0,-0x96c(%rbp)
    e62e:	01 f9 89 
    e631:	66 c7 85 98 f6 ff ff 	movw   $0xffff,-0x968(%rbp)
    e638:	ff ff 
    e63a:	c6 85 9a f6 ff ff d0 	movb   $0xd0,-0x966(%rbp)
    e641:	c7 85 9b f6 ff ff 04 	movl   $0x7010104,-0x965(%rbp)
    e648:	01 01 07 
    e64b:	66 c7 85 9f f6 ff ff 	movw   $0x4df8,-0x961(%rbp)
    e652:	f8 4d 
    e654:	c6 85 a1 f6 ff ff 05 	movb   $0x5,-0x95f(%rbp)
    e65b:	c7 85 a2 f6 ff ff fa 	movl   $0x106fafa,-0x95e(%rbp)
    e662:	fa 06 01 
    e665:	66 c7 85 a6 f6 ff ff 	movw   $0x1089,-0x95a(%rbp)
    e66c:	89 10 
    e66e:	c6 85 a8 f6 ff ff 00 	movb   $0x0,-0x958(%rbp)
    e675:	c7 85 a9 f6 ff ff cc 	movl   $0x1fd32cc,-0x957(%rbp)
    e67c:	32 fd 01 
    e67f:	66 c7 85 ad f6 ff ff 	movw   $0x8b01,-0x953(%rbp)
    e686:	01 8b 
    e688:	c6 85 af f6 ff ff b2 	movb   $0xb2,-0x951(%rbp)
    e68f:	c7 85 b0 f6 ff ff 4c 	movl   $0x1bcf84c,-0x950(%rbp)
    e696:	f8 bc 01 
    e699:	66 c7 85 b4 f6 ff ff 	movw   $0xfdfb,-0x94c(%rbp)
    e6a0:	fb fd 
    e6a2:	c6 85 b6 f6 ff ff 93 	movb   $0x93,-0x94a(%rbp)
    e6a9:	c7 85 b7 f6 ff ff 01 	movl   $0x1f8fc01,-0x949(%rbp)
    e6b0:	fc f8 01 
    e6b3:	66 c7 85 bb f6 ff ff 	movw   $0x5,-0x945(%rbp)
    e6ba:	05 00 
    e6bc:	c6 85 bd f6 ff ff 01 	movb   $0x1,-0x943(%rbp)
    e6c3:	c7 85 be f6 ff ff 01 	movl   $0x7ff0701,-0x942(%rbp)
    e6ca:	07 ff 07 
    e6cd:	66 c7 85 c2 f6 ff ff 	movw   $0xf9fc,-0x93e(%rbp)
    e6d4:	fc f9 
    e6d6:	c6 85 c4 f6 ff ff fc 	movb   $0xfc,-0x93c(%rbp)
    e6dd:	c7 85 c5 f6 ff ff 89 	movl   $0x89fafa89,-0x93b(%rbp)
    e6e4:	fa fa 89 
    e6e7:	66 c7 85 c9 f6 ff ff 	movw   $0xf601,-0x937(%rbp)
    e6ee:	01 f6 
    e6f0:	c6 85 cb f6 ff ff f6 	movb   $0xf6,-0x935(%rbp)
    e6f7:	c7 85 cc f6 ff ff fb 	movl   $0x280183fb,-0x934(%rbp)
    e6fe:	83 01 28 
    e701:	66 c7 85 d0 f6 ff ff 	movw   $0x89,-0x930(%rbp)
    e708:	89 00 
    e70a:	c6 85 d2 f6 ff ff 8d 	movb   $0x8d,-0x92e(%rbp)
    e711:	c7 85 d3 f6 ff ff b2 	movl   $0x102ccb2,-0x92d(%rbp)
    e718:	cc 02 01 
    e71b:	66 c7 85 d7 f6 ff ff 	movw   $0xff4c,-0x929(%rbp)
    e722:	4c ff 
    e724:	c6 85 d9 f6 ff ff f6 	movb   $0xf6,-0x927(%rbp)
    e72b:	c7 85 da f6 ff ff 01 	movl   $0x4cf8bc01,-0x926(%rbp)
    e732:	bc f8 4c 
    e735:	66 c7 85 de f6 ff ff 	movw   $0x8dbc,-0x922(%rbp)
    e73c:	bc 8d 
    e73e:	c6 85 e0 f6 ff ff fc 	movb   $0xfc,-0x920(%rbp)
    e745:	c7 85 e1 f6 ff ff 8d 	movl   $0xf800b28d,-0x91f(%rbp)
    e74c:	b2 00 f8 
    e74f:	66 c7 85 e5 f6 ff ff 	movw   $0x1093,-0x91b(%rbp)
    e756:	93 10 
    e758:	c6 85 e7 f6 ff ff 01 	movb   $0x1,-0x919(%rbp)
    e75f:	c7 85 e8 f6 ff ff b2 	movl   $0x500f6b2,-0x918(%rbp)
    e766:	f6 00 05 
    e769:	66 c7 85 ec f6 ff ff 	movw   $0xa107,-0x914(%rbp)
    e770:	07 a1 
    e772:	c6 85 ee f6 ff ff 93 	movb   $0x93,-0x912(%rbp)
    e779:	c7 85 ef f6 ff ff 07 	movl   $0x4010107,-0x911(%rbp)
    e780:	01 01 04 
    e783:	66 c7 85 f3 f6 ff ff 	movw   $0x164,-0x90d(%rbp)
    e78a:	64 01 
    e78c:	c6 85 f5 f6 ff ff b2 	movb   $0xb2,-0x90b(%rbp)
    e793:	c7 85 f6 f6 ff ff 01 	movl   $0x4d01ff01,-0x90a(%rbp)
    e79a:	ff 01 4d 
    e79d:	66 c7 85 fa f6 ff ff 	movw   $0x64fd,-0x906(%rbp)
    e7a4:	fd 64 
    e7a6:	c6 85 fc f6 ff ff 00 	movb   $0x0,-0x904(%rbp)
    e7ad:	c7 85 fd f6 ff ff 01 	movl   $0x8300cc01,-0x903(%rbp)
    e7b4:	cc 00 83 
    e7b7:	66 c7 85 01 f7 ff ff 	movw   $0xfefe,-0x8ff(%rbp)
    e7be:	fe fe 
    e7c0:	c6 85 03 f7 ff ff 05 	movb   $0x5,-0x8fd(%rbp)
    e7c7:	c7 85 04 f7 ff ff 01 	movl   $0xd000fd01,-0x8fc(%rbp)
    e7ce:	fd 00 d0 
    e7d1:	66 c7 85 08 f7 ff ff 	movw   $0x101,-0x8f8(%rbp)
    e7d8:	01 01 
    e7da:	c6 85 0a f7 ff ff d0 	movb   $0xd0,-0x8f6(%rbp)
    e7e1:	c7 85 0b f7 ff ff f8 	movl   $0x64f805f8,-0x8f5(%rbp)
    e7e8:	05 f8 64 
    e7eb:	66 c7 85 0f f7 ff ff 	movw   $0xfbfa,-0x8f1(%rbp)
    e7f2:	fa fb 
    e7f4:	c6 85 11 f7 ff ff 01 	movb   $0x1,-0x8ef(%rbp)
    e7fb:	c7 85 14 f5 ff ff ff 	movl   $0xffffffff,-0xaec(%rbp)
    e802:	ff ff ff 
    e805:	c7 85 18 f5 ff ff fe 	movl   $0xfffffffe,-0xae8(%rbp)
    e80c:	ff ff ff 
    e80f:	48 c7 85 f0 f5 ff ff 	movq   $0xffffffffffffffff,-0xa10(%rbp)
    e816:	ff ff ff ff 
    e81a:	c7 85 1c f5 ff ff 04 	movl   $0x4,-0xae4(%rbp)
    e821:	00 00 00 
    e824:	c6 85 04 f5 ff ff 03 	movb   $0x3,-0xafc(%rbp)
    e82b:	80 bd 04 f5 ff ff 00 	cmpb   $0x0,-0xafc(%rbp)
    e832:	78 13                	js     e847 <func_57+0x1700>
    e834:	0f be 85 04 f5 ff ff 	movsbl -0xafc(%rbp),%eax
    e83b:	48 98                	cltq   
    e83d:	0f b6 44 05 e4       	movzbl -0x1c(%rbp,%rax,1),%eax
    e842:	0f be c0             	movsbl %al,%eax
    e845:	eb 2a                	jmp    e871 <func_57+0x172a>
    e847:	8b 05 e3 47 00 00    	mov    0x47e3(%rip),%eax        # 13030 <g_111>
    e84d:	83 c0 01             	add    $0x1,%eax
    e850:	89 05 da 47 00 00    	mov    %eax,0x47da(%rip)        # 13030 <g_111>
    e856:	8b 05 d4 47 00 00    	mov    0x47d4(%rip),%eax        # 13030 <g_111>
    e85c:	83 f8 33             	cmp    $0x33,%eax
    e85f:	0f 84 37 ef ff ff    	je     d79c <func_57+0x655>
    e865:	48 8b 05 5c 57 00 00 	mov    0x575c(%rip),%rax        # 13fc8 <g_193>
    e86c:	48 8b 00             	mov    (%rax),%rax
    e86f:	8b 00                	mov    (%rax),%eax
    e871:	48 8b 4d e8          	mov    -0x18(%rbp),%rcx
    e875:	64 48 33 0c 25 28 00 	xor    %fs:0x28,%rcx
    e87c:	00 00 
    e87e:	74 05                	je     e885 <func_57+0x173e>
    e880:	e8 eb 77 ff ff       	callq  6070 <__stack_chk_fail@plt>
    e885:	48 81 c4 08 0b 00 00 	add    $0xb08,%rsp
    e88c:	5b                   	pop    %rbx
    e88d:	5d                   	pop    %rbp
    e88e:	c3                   	retq   

000000000000e88f <func_59>:
    e88f:	f3 0f 1e fa          	endbr64 
    e893:	55                   	push   %rbp
    e894:	48 89 e5             	mov    %rsp,%rbp
    e897:	89 7d ec             	mov    %edi,-0x14(%rbp)
    e89a:	48 c7 45 f8 00 00 00 	movq   $0x0,-0x8(%rbp)
    e8a1:	00 
    e8a2:	48 8b 05 f7 56 00 00 	mov    0x56f7(%rip),%rax        # 13fa0 <g_62>
    e8a9:	8b 10                	mov    (%rax),%edx
    e8ab:	0b 55 ec             	or     -0x14(%rbp),%edx
    e8ae:	89 10                	mov    %edx,(%rax)
    e8b0:	0f b6 05 6d 47 00 00 	movzbl 0x476d(%rip),%eax        # 13024 <g_8>
    e8b7:	5d                   	pop    %rbp
    e8b8:	c3                   	retq   

000000000000e8b9 <main>:
    e8b9:	f3 0f 1e fa          	endbr64 
    e8bd:	55                   	push   %rbp
    e8be:	48 89 e5             	mov    %rsp,%rbp
    e8c1:	48 83 ec 20          	sub    $0x20,%rsp
    e8c5:	89 7d ec             	mov    %edi,-0x14(%rbp)
    e8c8:	48 89 75 e0          	mov    %rsi,-0x20(%rbp)
    e8cc:	c7 45 fc 00 00 00 00 	movl   $0x0,-0x4(%rbp)
    e8d3:	83 7d ec 02          	cmpl   $0x2,-0x14(%rbp)
    e8d7:	75 25                	jne    e8fe <main+0x45>
    e8d9:	48 8b 45 e0          	mov    -0x20(%rbp),%rax
    e8dd:	48 83 c0 08          	add    $0x8,%rax
    e8e1:	48 8b 00             	mov    (%rax),%rax
    e8e4:	48 8d 35 e5 12 00 00 	lea    0x12e5(%rip),%rsi        # fbd0 <g_715+0xb78>
    e8eb:	48 89 c7             	mov    %rax,%rdi
    e8ee:	e8 9d 77 ff ff       	callq  6090 <strcmp@plt>
    e8f3:	85 c0                	test   %eax,%eax
    e8f5:	75 07                	jne    e8fe <main+0x45>
    e8f7:	c7 45 fc 01 00 00 00 	movl   $0x1,-0x4(%rbp)
    e8fe:	e8 86 78 ff ff       	callq  6189 <platform_main_begin>
    e903:	e8 90 8c ff ff       	callq  7598 <crc32_gentab>
    e908:	e8 a8 8e ff ff       	callq  77b5 <func_1>
    e90d:	0f b6 05 10 47 00 00 	movzbl 0x4710(%rip),%eax        # 13024 <g_8>
    e914:	48 0f be c0          	movsbq %al,%rax
    e918:	8b 55 fc             	mov    -0x4(%rbp),%edx
    e91b:	48 8d 35 b0 12 00 00 	lea    0x12b0(%rip),%rsi        # fbd2 <g_715+0xb7a>
    e922:	48 89 c7             	mov    %rax,%rdi
    e925:	e8 c9 8d ff ff       	callq  76f3 <transparent_crc>
    e92a:	8b 05 f8 46 00 00    	mov    0x46f8(%rip),%eax        # 13028 <g_63>
    e930:	48 98                	cltq   
    e932:	8b 55 fc             	mov    -0x4(%rbp),%edx
    e935:	48 8d 35 9a 12 00 00 	lea    0x129a(%rip),%rsi        # fbd6 <g_715+0xb7e>
    e93c:	48 89 c7             	mov    %rax,%rdi
    e93f:	e8 af 8d ff ff       	callq  76f3 <transparent_crc>
    e944:	8b 05 e2 46 00 00    	mov    0x46e2(%rip),%eax        # 1302c <g_88>
    e94a:	48 98                	cltq   
    e94c:	8b 55 fc             	mov    -0x4(%rbp),%edx
    e94f:	48 8d 35 85 12 00 00 	lea    0x1285(%rip),%rsi        # fbdb <g_715+0xb83>
    e956:	48 89 c7             	mov    %rax,%rdi
    e959:	e8 95 8d ff ff       	callq  76f3 <transparent_crc>
    e95e:	8b 05 cc 46 00 00    	mov    0x46cc(%rip),%eax        # 13030 <g_111>
    e964:	89 c1                	mov    %eax,%ecx
    e966:	8b 45 fc             	mov    -0x4(%rbp),%eax
    e969:	89 c2                	mov    %eax,%edx
    e96b:	48 8d 35 6e 12 00 00 	lea    0x126e(%rip),%rsi        # fbe0 <g_715+0xb88>
    e972:	48 89 cf             	mov    %rcx,%rdi
    e975:	e8 79 8d ff ff       	callq  76f3 <transparent_crc>
    e97a:	b8 f5 58 44 aa       	mov    $0xaa4458f5,%eax
    e97f:	48 98                	cltq   
    e981:	8b 55 fc             	mov    -0x4(%rbp),%edx
    e984:	48 8d 35 5b 12 00 00 	lea    0x125b(%rip),%rsi        # fbe6 <g_715+0xb8e>
    e98b:	48 89 c7             	mov    %rax,%rdi
    e98e:	e8 60 8d ff ff       	callq  76f3 <transparent_crc>
    e993:	c7 45 f0 00 00 00 00 	movl   $0x0,-0x10(%rbp)
    e99a:	e9 b7 00 00 00       	jmpq   ea56 <main+0x19d>
    e99f:	c7 45 f4 00 00 00 00 	movl   $0x0,-0xc(%rbp)
    e9a6:	e9 9d 00 00 00       	jmpq   ea48 <main+0x18f>
    e9ab:	c7 45 f8 00 00 00 00 	movl   $0x0,-0x8(%rbp)
    e9b2:	e9 83 00 00 00       	jmpq   ea3a <main+0x181>
    e9b7:	8b 45 f8             	mov    -0x8(%rbp),%eax
    e9ba:	48 63 f0             	movslq %eax,%rsi
    e9bd:	8b 45 f0             	mov    -0x10(%rbp),%eax
    e9c0:	48 63 d0             	movslq %eax,%rdx
    e9c3:	8b 45 f4             	mov    -0xc(%rbp),%eax
    e9c6:	48 63 c8             	movslq %eax,%rcx
    e9c9:	48 89 d0             	mov    %rdx,%rax
    e9cc:	48 c1 e0 02          	shl    $0x2,%rax
    e9d0:	48 01 d0             	add    %rdx,%rax
    e9d3:	48 c1 e0 02          	shl    $0x2,%rax
    e9d7:	48 01 d0             	add    %rdx,%rax
    e9da:	48 01 c0             	add    %rax,%rax
    e9dd:	48 89 ca             	mov    %rcx,%rdx
    e9e0:	48 01 d2             	add    %rdx,%rdx
    e9e3:	48 01 ca             	add    %rcx,%rdx
    e9e6:	48 01 d2             	add    %rdx,%rdx
    e9e9:	48 01 d0             	add    %rdx,%rax
    e9ec:	48 01 f0             	add    %rsi,%rax
    e9ef:	48 8d 14 00          	lea    (%rax,%rax,1),%rdx
    e9f3:	48 8d 05 46 46 00 00 	lea    0x4646(%rip),%rax        # 13040 <g_134>
    e9fa:	0f b7 04 02          	movzwl (%rdx,%rax,1),%eax
    e9fe:	48 0f bf c0          	movswq %ax,%rax
    ea02:	8b 55 fc             	mov    -0x4(%rbp),%edx
    ea05:	48 8d 35 e0 11 00 00 	lea    0x11e0(%rip),%rsi        # fbec <g_715+0xb94>
    ea0c:	48 89 c7             	mov    %rax,%rdi
    ea0f:	e8 df 8c ff ff       	callq  76f3 <transparent_crc>
    ea14:	83 7d fc 00          	cmpl   $0x0,-0x4(%rbp)
    ea18:	74 1c                	je     ea36 <main+0x17d>
    ea1a:	8b 4d f8             	mov    -0x8(%rbp),%ecx
    ea1d:	8b 55 f4             	mov    -0xc(%rbp),%edx
    ea20:	8b 45 f0             	mov    -0x10(%rbp),%eax
    ea23:	89 c6                	mov    %eax,%esi
    ea25:	48 8d 3d cf 11 00 00 	lea    0x11cf(%rip),%rdi        # fbfb <g_715+0xba3>
    ea2c:	b8 00 00 00 00       	mov    $0x0,%eax
    ea31:	e8 4a 76 ff ff       	callq  6080 <printf@plt>
    ea36:	83 45 f8 01          	addl   $0x1,-0x8(%rbp)
    ea3a:	83 7d f8 05          	cmpl   $0x5,-0x8(%rbp)
    ea3e:	0f 8e 73 ff ff ff    	jle    e9b7 <main+0xfe>
    ea44:	83 45 f4 01          	addl   $0x1,-0xc(%rbp)
    ea48:	83 7d f4 06          	cmpl   $0x6,-0xc(%rbp)
    ea4c:	0f 8e 59 ff ff ff    	jle    e9ab <main+0xf2>
    ea52:	83 45 f0 01          	addl   $0x1,-0x10(%rbp)
    ea56:	83 7d f0 05          	cmpl   $0x5,-0x10(%rbp)
    ea5a:	0f 8e 3f ff ff ff    	jle    e99f <main+0xe6>
    ea60:	0f b6 05 d1 47 00 00 	movzbl 0x47d1(%rip),%eax        # 13238 <g_136>
    ea67:	0f b6 c0             	movzbl %al,%eax
    ea6a:	8b 55 fc             	mov    -0x4(%rbp),%edx
    ea6d:	48 8d 35 9d 11 00 00 	lea    0x119d(%rip),%rsi        # fc11 <g_715+0xbb9>
    ea74:	48 89 c7             	mov    %rax,%rdi
    ea77:	e8 77 8c ff ff       	callq  76f3 <transparent_crc>
    ea7c:	c7 45 f0 00 00 00 00 	movl   $0x0,-0x10(%rbp)
    ea83:	eb 4d                	jmp    ead2 <main+0x219>
    ea85:	8b 45 f0             	mov    -0x10(%rbp),%eax
    ea88:	48 98                	cltq   
    ea8a:	48 8d 14 85 00 00 00 	lea    0x0(,%rax,4),%rdx
    ea91:	00 
    ea92:	48 8d 05 a7 47 00 00 	lea    0x47a7(%rip),%rax        # 13240 <g_155>
    ea99:	8b 04 02             	mov    (%rdx,%rax,1),%eax
    ea9c:	89 c1                	mov    %eax,%ecx
    ea9e:	8b 45 fc             	mov    -0x4(%rbp),%eax
    eaa1:	89 c2                	mov    %eax,%edx
    eaa3:	48 8d 35 70 11 00 00 	lea    0x1170(%rip),%rsi        # fc1a <g_715+0xbc2>
    eaaa:	48 89 cf             	mov    %rcx,%rdi
    eaad:	e8 41 8c ff ff       	callq  76f3 <transparent_crc>
    eab2:	83 7d fc 00          	cmpl   $0x0,-0x4(%rbp)
    eab6:	74 16                	je     eace <main+0x215>
    eab8:	8b 45 f0             	mov    -0x10(%rbp),%eax
    eabb:	89 c6                	mov    %eax,%esi
    eabd:	48 8d 3d 5f 11 00 00 	lea    0x115f(%rip),%rdi        # fc23 <g_715+0xbcb>
    eac4:	b8 00 00 00 00       	mov    $0x0,%eax
    eac9:	e8 b2 75 ff ff       	callq  6080 <printf@plt>
    eace:	83 45 f0 01          	addl   $0x1,-0x10(%rbp)
    ead2:	83 7d f0 03          	cmpl   $0x3,-0x10(%rbp)
    ead6:	7e ad                	jle    ea85 <main+0x1cc>
    ead8:	c7 45 f0 00 00 00 00 	movl   $0x0,-0x10(%rbp)
    eadf:	eb 4a                	jmp    eb2b <main+0x272>
    eae1:	8b 45 f0             	mov    -0x10(%rbp),%eax
    eae4:	48 98                	cltq   
    eae6:	48 8d 14 c5 00 00 00 	lea    0x0(,%rax,8),%rdx
    eaed:	00 
    eaee:	48 8d 05 6b 47 00 00 	lea    0x476b(%rip),%rax        # 13260 <g_176>
    eaf5:	48 8b 04 02          	mov    (%rdx,%rax,1),%rax
    eaf9:	8b 55 fc             	mov    -0x4(%rbp),%edx
    eafc:	48 8d 35 2e 11 00 00 	lea    0x112e(%rip),%rsi        # fc31 <g_715+0xbd9>
    eb03:	48 89 c7             	mov    %rax,%rdi
    eb06:	e8 e8 8b ff ff       	callq  76f3 <transparent_crc>
    eb0b:	83 7d fc 00          	cmpl   $0x0,-0x4(%rbp)
    eb0f:	74 16                	je     eb27 <main+0x26e>
    eb11:	8b 45 f0             	mov    -0x10(%rbp),%eax
    eb14:	89 c6                	mov    %eax,%esi
    eb16:	48 8d 3d 06 11 00 00 	lea    0x1106(%rip),%rdi        # fc23 <g_715+0xbcb>
    eb1d:	b8 00 00 00 00       	mov    $0x0,%eax
    eb22:	e8 59 75 ff ff       	callq  6080 <printf@plt>
    eb27:	83 45 f0 01          	addl   $0x1,-0x10(%rbp)
    eb2b:	83 7d f0 09          	cmpl   $0x9,-0x10(%rbp)
    eb2f:	7e b0                	jle    eae1 <main+0x228>
    eb31:	48 8b 05 78 47 00 00 	mov    0x4778(%rip),%rax        # 132b0 <g_203>
    eb38:	8b 55 fc             	mov    -0x4(%rbp),%edx
    eb3b:	48 8d 35 f8 10 00 00 	lea    0x10f8(%rip),%rsi        # fc3a <g_715+0xbe2>
    eb42:	48 89 c7             	mov    %rax,%rdi
    eb45:	e8 a9 8b ff ff       	callq  76f3 <transparent_crc>
    eb4a:	c7 45 f0 00 00 00 00 	movl   $0x0,-0x10(%rbp)
    eb51:	e9 9f 00 00 00       	jmpq   ebf5 <main+0x33c>
    eb56:	c7 45 f4 00 00 00 00 	movl   $0x0,-0xc(%rbp)
    eb5d:	e9 85 00 00 00       	jmpq   ebe7 <main+0x32e>
    eb62:	c7 45 f8 00 00 00 00 	movl   $0x0,-0x8(%rbp)
    eb69:	eb 72                	jmp    ebdd <main+0x324>
    eb6b:	8b 45 f8             	mov    -0x8(%rbp),%eax
    eb6e:	48 63 f0             	movslq %eax,%rsi
    eb71:	8b 45 f4             	mov    -0xc(%rbp),%eax
    eb74:	48 63 c8             	movslq %eax,%rcx
    eb77:	8b 45 f0             	mov    -0x10(%rbp),%eax
    eb7a:	48 63 d0             	movslq %eax,%rdx
    eb7d:	48 89 d0             	mov    %rdx,%rax
    eb80:	48 c1 e0 03          	shl    $0x3,%rax
    eb84:	48 29 d0             	sub    %rdx,%rax
    eb87:	48 01 f0             	add    %rsi,%rax
    eb8a:	48 01 c8             	add    %rcx,%rax
    eb8d:	48 8d 14 c5 00 00 00 	lea    0x0(,%rax,8),%rdx
    eb94:	00 
    eb95:	48 8d 05 24 47 00 00 	lea    0x4724(%rip),%rax        # 132c0 <g_207>
    eb9c:	48 8b 04 02          	mov    (%rdx,%rax,1),%rax
    eba0:	48 89 c1             	mov    %rax,%rcx
    eba3:	8b 45 fc             	mov    -0x4(%rbp),%eax
    eba6:	89 c2                	mov    %eax,%edx
    eba8:	48 8d 35 91 10 00 00 	lea    0x1091(%rip),%rsi        # fc40 <g_715+0xbe8>
    ebaf:	48 89 cf             	mov    %rcx,%rdi
    ebb2:	e8 3c 8b ff ff       	callq  76f3 <transparent_crc>
    ebb7:	83 7d fc 00          	cmpl   $0x0,-0x4(%rbp)
    ebbb:	74 1c                	je     ebd9 <main+0x320>
    ebbd:	8b 4d f8             	mov    -0x8(%rbp),%ecx
    ebc0:	8b 55 f4             	mov    -0xc(%rbp),%edx
    ebc3:	8b 45 f0             	mov    -0x10(%rbp),%eax
    ebc6:	89 c6                	mov    %eax,%esi
    ebc8:	48 8d 3d 2c 10 00 00 	lea    0x102c(%rip),%rdi        # fbfb <g_715+0xba3>
    ebcf:	b8 00 00 00 00       	mov    $0x0,%eax
    ebd4:	e8 a7 74 ff ff       	callq  6080 <printf@plt>
    ebd9:	83 45 f8 01          	addl   $0x1,-0x8(%rbp)
    ebdd:	83 7d f8 00          	cmpl   $0x0,-0x8(%rbp)
    ebe1:	7e 88                	jle    eb6b <main+0x2b2>
    ebe3:	83 45 f4 01          	addl   $0x1,-0xc(%rbp)
    ebe7:	83 7d f4 06          	cmpl   $0x6,-0xc(%rbp)
    ebeb:	0f 8e 71 ff ff ff    	jle    eb62 <main+0x2a9>
    ebf1:	83 45 f0 01          	addl   $0x1,-0x10(%rbp)
    ebf5:	83 7d f0 02          	cmpl   $0x2,-0x10(%rbp)
    ebf9:	0f 8e 57 ff ff ff    	jle    eb56 <main+0x29d>
    ebff:	c7 45 f0 00 00 00 00 	movl   $0x0,-0x10(%rbp)
    ec06:	eb 4b                	jmp    ec53 <main+0x39a>
    ec08:	8b 45 f0             	mov    -0x10(%rbp),%eax
    ec0b:	48 98                	cltq   
    ec0d:	48 8d 14 85 00 00 00 	lea    0x0(,%rax,4),%rdx
    ec14:	00 
    ec15:	48 8d 05 54 47 00 00 	lea    0x4754(%rip),%rax        # 13370 <g_230>
    ec1c:	8b 04 02             	mov    (%rdx,%rax,1),%eax
    ec1f:	48 98                	cltq   
    ec21:	8b 55 fc             	mov    -0x4(%rbp),%edx
    ec24:	48 8d 35 24 10 00 00 	lea    0x1024(%rip),%rsi        # fc4f <g_715+0xbf7>
    ec2b:	48 89 c7             	mov    %rax,%rdi
    ec2e:	e8 c0 8a ff ff       	callq  76f3 <transparent_crc>
    ec33:	83 7d fc 00          	cmpl   $0x0,-0x4(%rbp)
    ec37:	74 16                	je     ec4f <main+0x396>
    ec39:	8b 45 f0             	mov    -0x10(%rbp),%eax
    ec3c:	89 c6                	mov    %eax,%esi
    ec3e:	48 8d 3d de 0f 00 00 	lea    0xfde(%rip),%rdi        # fc23 <g_715+0xbcb>
    ec45:	b8 00 00 00 00       	mov    $0x0,%eax
    ec4a:	e8 31 74 ff ff       	callq  6080 <printf@plt>
    ec4f:	83 45 f0 01          	addl   $0x1,-0x10(%rbp)
    ec53:	83 7d f0 05          	cmpl   $0x5,-0x10(%rbp)
    ec57:	7e af                	jle    ec08 <main+0x34f>
    ec59:	0f b7 05 28 47 00 00 	movzwl 0x4728(%rip),%eax        # 13388 <g_234>
    ec60:	48 0f bf c0          	movswq %ax,%rax
    ec64:	8b 55 fc             	mov    -0x4(%rbp),%edx
    ec67:	48 8d 35 ea 0f 00 00 	lea    0xfea(%rip),%rsi        # fc58 <g_715+0xc00>
    ec6e:	48 89 c7             	mov    %rax,%rdi
    ec71:	e8 7d 8a ff ff       	callq  76f3 <transparent_crc>
    ec76:	8b 05 10 47 00 00    	mov    0x4710(%rip),%eax        # 1338c <g_269>
    ec7c:	48 98                	cltq   
    ec7e:	8b 55 fc             	mov    -0x4(%rbp),%edx
    ec81:	48 8d 35 d6 0f 00 00 	lea    0xfd6(%rip),%rsi        # fc5e <g_715+0xc06>
    ec88:	48 89 c7             	mov    %rax,%rdi
    ec8b:	e8 63 8a ff ff       	callq  76f3 <transparent_crc>
    ec90:	c7 45 f0 00 00 00 00 	movl   $0x0,-0x10(%rbp)
    ec97:	eb 76                	jmp    ed0f <main+0x456>
    ec99:	c7 45 f4 00 00 00 00 	movl   $0x0,-0xc(%rbp)
    eca0:	eb 63                	jmp    ed05 <main+0x44c>
    eca2:	8b 45 f4             	mov    -0xc(%rbp),%eax
    eca5:	48 63 c8             	movslq %eax,%rcx
    eca8:	8b 45 f0             	mov    -0x10(%rbp),%eax
    ecab:	48 63 d0             	movslq %eax,%rdx
    ecae:	48 89 d0             	mov    %rdx,%rax
    ecb1:	48 01 c0             	add    %rax,%rax
    ecb4:	48 01 d0             	add    %rdx,%rax
    ecb7:	48 01 c0             	add    %rax,%rax
    ecba:	48 01 c8             	add    %rcx,%rax
    ecbd:	48 8d 14 00          	lea    (%rax,%rax,1),%rdx
    ecc1:	48 8d 05 c8 46 00 00 	lea    0x46c8(%rip),%rax        # 13390 <g_282>
    ecc8:	0f b7 04 02          	movzwl (%rdx,%rax,1),%eax
    eccc:	48 0f bf c0          	movswq %ax,%rax
    ecd0:	8b 55 fc             	mov    -0x4(%rbp),%edx
    ecd3:	48 8d 35 8a 0f 00 00 	lea    0xf8a(%rip),%rsi        # fc64 <g_715+0xc0c>
    ecda:	48 89 c7             	mov    %rax,%rdi
    ecdd:	e8 11 8a ff ff       	callq  76f3 <transparent_crc>
    ece2:	83 7d fc 00          	cmpl   $0x0,-0x4(%rbp)
    ece6:	74 19                	je     ed01 <main+0x448>
    ece8:	8b 55 f4             	mov    -0xc(%rbp),%edx
    eceb:	8b 45 f0             	mov    -0x10(%rbp),%eax
    ecee:	89 c6                	mov    %eax,%esi
    ecf0:	48 8d 3d 79 0f 00 00 	lea    0xf79(%rip),%rdi        # fc70 <g_715+0xc18>
    ecf7:	b8 00 00 00 00       	mov    $0x0,%eax
    ecfc:	e8 7f 73 ff ff       	callq  6080 <printf@plt>
    ed01:	83 45 f4 01          	addl   $0x1,-0xc(%rbp)
    ed05:	83 7d f4 05          	cmpl   $0x5,-0xc(%rbp)
    ed09:	7e 97                	jle    eca2 <main+0x3e9>
    ed0b:	83 45 f0 01          	addl   $0x1,-0x10(%rbp)
    ed0f:	83 7d f0 01          	cmpl   $0x1,-0x10(%rbp)
    ed13:	7e 84                	jle    ec99 <main+0x3e0>
    ed15:	8b 05 8d 46 00 00    	mov    0x468d(%rip),%eax        # 133a8 <g_285>
    ed1b:	48 98                	cltq   
    ed1d:	8b 55 fc             	mov    -0x4(%rbp),%edx
    ed20:	48 8d 35 5b 0f 00 00 	lea    0xf5b(%rip),%rsi        # fc82 <g_715+0xc2a>
    ed27:	48 89 c7             	mov    %rax,%rdi
    ed2a:	e8 c4 89 ff ff       	callq  76f3 <transparent_crc>
    ed2f:	0f b7 05 76 46 00 00 	movzwl 0x4676(%rip),%eax        # 133ac <g_299>
    ed36:	0f b7 c0             	movzwl %ax,%eax
    ed39:	8b 55 fc             	mov    -0x4(%rbp),%edx
    ed3c:	48 8d 35 45 0f 00 00 	lea    0xf45(%rip),%rsi        # fc88 <g_715+0xc30>
    ed43:	48 89 c7             	mov    %rax,%rdi
    ed46:	e8 a8 89 ff ff       	callq  76f3 <transparent_crc>
    ed4b:	0f b6 05 5c 46 00 00 	movzbl 0x465c(%rip),%eax        # 133ae <g_306>
    ed52:	0f b6 c0             	movzbl %al,%eax
    ed55:	8b 55 fc             	mov    -0x4(%rbp),%edx
    ed58:	48 8d 35 2f 0f 00 00 	lea    0xf2f(%rip),%rsi        # fc8e <g_715+0xc36>
    ed5f:	48 89 c7             	mov    %rax,%rdi
    ed62:	e8 8c 89 ff ff       	callq  76f3 <transparent_crc>
    ed67:	0f b6 05 42 46 00 00 	movzbl 0x4642(%rip),%eax        # 133b0 <g_421>
    ed6e:	0f b6 c0             	movzbl %al,%eax
    ed71:	8b 55 fc             	mov    -0x4(%rbp),%edx
    ed74:	48 8d 35 19 0f 00 00 	lea    0xf19(%rip),%rsi        # fc94 <g_715+0xc3c>
    ed7b:	48 89 c7             	mov    %rax,%rdi
    ed7e:	e8 70 89 ff ff       	callq  76f3 <transparent_crc>
    ed83:	0f b6 05 2a 46 00 00 	movzbl 0x462a(%rip),%eax        # 133b4 <g_551>
    ed8a:	48 0f be c0          	movsbq %al,%rax
    ed8e:	8b 55 fc             	mov    -0x4(%rbp),%edx
    ed91:	48 8d 35 05 0f 00 00 	lea    0xf05(%rip),%rsi        # fc9d <g_715+0xc45>
    ed98:	48 89 c7             	mov    %rax,%rdi
    ed9b:	e8 53 89 ff ff       	callq  76f3 <transparent_crc>
    eda0:	48 8b 05 11 46 00 00 	mov    0x4611(%rip),%rax        # 133b8 <g_681>
    eda7:	8b 55 fc             	mov    -0x4(%rbp),%edx
    edaa:	48 8d 35 f2 0e 00 00 	lea    0xef2(%rip),%rsi        # fca3 <g_715+0xc4b>
    edb1:	48 89 c7             	mov    %rax,%rdi
    edb4:	e8 3a 89 ff ff       	callq  76f3 <transparent_crc>
    edb9:	b8 30 64 00 00       	mov    $0x6430,%eax
    edbe:	0f b7 c0             	movzwl %ax,%eax
    edc1:	8b 55 fc             	mov    -0x4(%rbp),%edx
    edc4:	48 8d 35 de 0e 00 00 	lea    0xede(%rip),%rsi        # fca9 <g_715+0xc51>
    edcb:	48 89 c7             	mov    %rax,%rdi
    edce:	e8 20 89 ff ff       	callq  76f3 <transparent_crc>
    edd3:	0f b6 05 e6 45 00 00 	movzbl 0x45e6(%rip),%eax        # 133c0 <g_883>
    edda:	0f b6 c0             	movzbl %al,%eax
    eddd:	8b 55 fc             	mov    -0x4(%rbp),%edx
    ede0:	48 8d 35 c8 0e 00 00 	lea    0xec8(%rip),%rsi        # fcaf <g_715+0xc57>
    ede7:	48 89 c7             	mov    %rax,%rdi
    edea:	e8 04 89 ff ff       	callq  76f3 <transparent_crc>
    edef:	8b 05 0b 6a 00 00    	mov    0x6a0b(%rip),%eax        # 15800 <g_966>
    edf5:	89 c1                	mov    %eax,%ecx
    edf7:	8b 45 fc             	mov    -0x4(%rbp),%eax
    edfa:	89 c2                	mov    %eax,%edx
    edfc:	48 8d 35 b2 0e 00 00 	lea    0xeb2(%rip),%rsi        # fcb5 <g_715+0xc5d>
    ee03:	48 89 cf             	mov    %rcx,%rdi
    ee06:	e8 e8 88 ff ff       	callq  76f3 <transparent_crc>
    ee0b:	0f b7 05 b0 45 00 00 	movzwl 0x45b0(%rip),%eax        # 133c2 <g_985>
    ee12:	0f b7 c0             	movzwl %ax,%eax
    ee15:	8b 55 fc             	mov    -0x4(%rbp),%edx
    ee18:	48 8d 35 9c 0e 00 00 	lea    0xe9c(%rip),%rsi        # fcbb <g_715+0xc63>
    ee1f:	48 89 c7             	mov    %rax,%rdi
    ee22:	e8 cc 88 ff ff       	callq  76f3 <transparent_crc>
    ee27:	48 8b 05 9a 45 00 00 	mov    0x459a(%rip),%rax        # 133c8 <g_1122>
    ee2e:	8b 55 fc             	mov    -0x4(%rbp),%edx
    ee31:	48 8d 35 89 0e 00 00 	lea    0xe89(%rip),%rsi        # fcc1 <g_715+0xc69>
    ee38:	48 89 c7             	mov    %rax,%rdi
    ee3b:	e8 b3 88 ff ff       	callq  76f3 <transparent_crc>
    ee40:	48 8b 05 c1 69 00 00 	mov    0x69c1(%rip),%rax        # 15808 <g_1148>
    ee47:	8b 55 fc             	mov    -0x4(%rbp),%edx
    ee4a:	48 8d 35 77 0e 00 00 	lea    0xe77(%rip),%rsi        # fcc8 <g_715+0xc70>
    ee51:	48 89 c7             	mov    %rax,%rdi
    ee54:	e8 9a 88 ff ff       	callq  76f3 <transparent_crc>
    ee59:	0f b6 05 70 45 00 00 	movzbl 0x4570(%rip),%eax        # 133d0 <g_1153>
    ee60:	0f b6 c0             	movzbl %al,%eax
    ee63:	8b 55 fc             	mov    -0x4(%rbp),%edx
    ee66:	48 8d 35 62 0e 00 00 	lea    0xe62(%rip),%rsi        # fccf <g_715+0xc77>
    ee6d:	48 89 c7             	mov    %rax,%rdi
    ee70:	e8 7e 88 ff ff       	callq  76f3 <transparent_crc>
    ee75:	0f b6 05 58 45 00 00 	movzbl 0x4558(%rip),%eax        # 133d4 <g_1309>
    ee7c:	0f b6 c0             	movzbl %al,%eax
    ee7f:	8b 55 fc             	mov    -0x4(%rbp),%edx
    ee82:	48 8d 35 50 0e 00 00 	lea    0xe50(%rip),%rsi        # fcd9 <g_715+0xc81>
    ee89:	48 89 c7             	mov    %rax,%rdi
    ee8c:	e8 62 88 ff ff       	callq  76f3 <transparent_crc>
    ee91:	8b 05 41 45 00 00    	mov    0x4541(%rip),%eax        # 133d8 <g_1382>
    ee97:	89 c1                	mov    %eax,%ecx
    ee99:	8b 45 fc             	mov    -0x4(%rbp),%eax
    ee9c:	89 c2                	mov    %eax,%edx
    ee9e:	48 8d 35 3b 0e 00 00 	lea    0xe3b(%rip),%rsi        # fce0 <g_715+0xc88>
    eea5:	48 89 cf             	mov    %rcx,%rdi
    eea8:	e8 46 88 ff ff       	callq  76f3 <transparent_crc>
    eead:	0f b7 05 28 45 00 00 	movzwl 0x4528(%rip),%eax        # 133dc <g_1466>
    eeb4:	0f b7 c0             	movzwl %ax,%eax
    eeb7:	8b 55 fc             	mov    -0x4(%rbp),%edx
    eeba:	48 8d 35 26 0e 00 00 	lea    0xe26(%rip),%rsi        # fce7 <g_715+0xc8f>
    eec1:	48 89 c7             	mov    %rax,%rdi
    eec4:	e8 2a 88 ff ff       	callq  76f3 <transparent_crc>
    eec9:	48 8b 05 10 45 00 00 	mov    0x4510(%rip),%rax        # 133e0 <g_1492>
    eed0:	8b 55 fc             	mov    -0x4(%rbp),%edx
    eed3:	48 8d 35 14 0e 00 00 	lea    0xe14(%rip),%rsi        # fcee <g_715+0xc96>
    eeda:	48 89 c7             	mov    %rax,%rdi
    eedd:	e8 11 88 ff ff       	callq  76f3 <transparent_crc>
    eee2:	c7 45 f0 00 00 00 00 	movl   $0x0,-0x10(%rbp)
    eee9:	eb 4d                	jmp    ef38 <main+0x67f>
    eeeb:	8b 45 f0             	mov    -0x10(%rbp),%eax
    eeee:	48 98                	cltq   
    eef0:	48 8d 14 85 00 00 00 	lea    0x0(,%rax,4),%rdx
    eef7:	00 
    eef8:	48 8d 05 f1 44 00 00 	lea    0x44f1(%rip),%rax        # 133f0 <g_1526>
    eeff:	8b 04 02             	mov    (%rdx,%rax,1),%eax
    ef02:	89 c1                	mov    %eax,%ecx
    ef04:	8b 45 fc             	mov    -0x4(%rbp),%eax
    ef07:	89 c2                	mov    %eax,%edx
    ef09:	48 8d 35 e5 0d 00 00 	lea    0xde5(%rip),%rsi        # fcf5 <g_715+0xc9d>
    ef10:	48 89 cf             	mov    %rcx,%rdi
    ef13:	e8 db 87 ff ff       	callq  76f3 <transparent_crc>
    ef18:	83 7d fc 00          	cmpl   $0x0,-0x4(%rbp)
    ef1c:	74 16                	je     ef34 <main+0x67b>
    ef1e:	8b 45 f0             	mov    -0x10(%rbp),%eax
    ef21:	89 c6                	mov    %eax,%esi
    ef23:	48 8d 3d f9 0c 00 00 	lea    0xcf9(%rip),%rdi        # fc23 <g_715+0xbcb>
    ef2a:	b8 00 00 00 00       	mov    $0x0,%eax
    ef2f:	e8 4c 71 ff ff       	callq  6080 <printf@plt>
    ef34:	83 45 f0 01          	addl   $0x1,-0x10(%rbp)
    ef38:	83 7d f0 06          	cmpl   $0x6,-0x10(%rbp)
    ef3c:	7e ad                	jle    eeeb <main+0x632>
    ef3e:	8b 05 dc 40 00 00    	mov    0x40dc(%rip),%eax        # 13020 <crc32_context>
    ef44:	f7 d0                	not    %eax
    ef46:	89 c2                	mov    %eax,%edx
    ef48:	8b 45 fc             	mov    -0x4(%rbp),%eax
    ef4b:	89 c6                	mov    %eax,%esi
    ef4d:	89 d7                	mov    %edx,%edi
    ef4f:	e8 40 72 ff ff       	callq  6194 <platform_main_end>
    ef54:	b8 00 00 00 00       	mov    $0x0,%eax
    ef59:	c9                   	leaveq 
    ef5a:	c3                   	retq   
    ef5b:	0f 1f 44 00 00       	nopl   0x0(%rax,%rax,1)

000000000000ef60 <__libc_csu_init>:
    ef60:	f3 0f 1e fa          	endbr64 
    ef64:	41 57                	push   %r15
    ef66:	4c 8d 3d 33 3e 00 00 	lea    0x3e33(%rip),%r15        # 12da0 <__frame_dummy_init_array_entry>
    ef6d:	41 56                	push   %r14
    ef6f:	49 89 d6             	mov    %rdx,%r14
    ef72:	41 55                	push   %r13
    ef74:	49 89 f5             	mov    %rsi,%r13
    ef77:	41 54                	push   %r12
    ef79:	41 89 fc             	mov    %edi,%r12d
    ef7c:	55                   	push   %rbp
    ef7d:	48 8d 2d 24 3e 00 00 	lea    0x3e24(%rip),%rbp        # 12da8 <__do_global_dtors_aux_fini_array_entry>
    ef84:	53                   	push   %rbx
    ef85:	4c 29 fd             	sub    %r15,%rbp
    ef88:	48 83 ec 08          	sub    $0x8,%rsp
    ef8c:	e8 6f 70 ff ff       	callq  6000 <_init>
    ef91:	48 c1 fd 03          	sar    $0x3,%rbp
    ef95:	74 1f                	je     efb6 <__libc_csu_init+0x56>
    ef97:	31 db                	xor    %ebx,%ebx
    ef99:	0f 1f 80 00 00 00 00 	nopl   0x0(%rax)
    efa0:	4c 89 f2             	mov    %r14,%rdx
    efa3:	4c 89 ee             	mov    %r13,%rsi
    efa6:	44 89 e7             	mov    %r12d,%edi
    efa9:	41 ff 14 df          	callq  *(%r15,%rbx,8)
    efad:	48 83 c3 01          	add    $0x1,%rbx
    efb1:	48 39 dd             	cmp    %rbx,%rbp
    efb4:	75 ea                	jne    efa0 <__libc_csu_init+0x40>
    efb6:	48 83 c4 08          	add    $0x8,%rsp
    efba:	5b                   	pop    %rbx
    efbb:	5d                   	pop    %rbp
    efbc:	41 5c                	pop    %r12
    efbe:	41 5d                	pop    %r13
    efc0:	41 5e                	pop    %r14
    efc2:	41 5f                	pop    %r15
    efc4:	c3                   	retq   
    efc5:	66 66 2e 0f 1f 84 00 	data16 nopw %cs:0x0(%rax,%rax,1)
    efcc:	00 00 00 00 

000000000000efd0 <__libc_csu_fini>:
    efd0:	f3 0f 1e fa          	endbr64 
    efd4:	c3                   	retq   
