


Disassembly of section .text:

00000000000050a0 <_start>:
    50a0:	f3 0f 1e fa          	endbr64 
    50a4:	31 ed                	xor    %ebp,%ebp
    50a6:	49 89 d1             	mov    %rdx,%r9
    50a9:	5e                   	pop    %rsi
    50aa:	48 89 e2             	mov    %rsp,%rdx
    50ad:	48 83 e4 f0          	and    $0xfffffffffffffff0,%rsp
    50b1:	50                   	push   %rax
    50b2:	54                   	push   %rsp
    50b3:	4c 8d 05 96 89 00 00 	lea    0x8996(%rip),%r8        # da50 <__libc_csu_fini>
    50ba:	48 8d 0d 1f 89 00 00 	lea    0x891f(%rip),%rcx        # d9e0 <__libc_csu_init>
    50c1:	48 8d 3d 0c 84 00 00 	lea    0x840c(%rip),%rdi        # d4d4 <main>
    50c8:	ff 15 12 df 00 00    	callq  *0xdf12(%rip)        # 12fe0 <__libc_start_main@GLIBC_2.2.5>
    50ce:	f4                   	hlt    
    50cf:	90                   	nop

00000000000050d0 <deregister_tm_clones>:
    50d0:	48 8d 3d a9 fc 00 00 	lea    0xfca9(%rip),%rdi        # 14d80 <__TMC_END__>
    50d7:	48 8d 05 a2 fc 00 00 	lea    0xfca2(%rip),%rax        # 14d80 <__TMC_END__>
    50de:	48 39 f8             	cmp    %rdi,%rax
    50e1:	74 15                	je     50f8 <deregister_tm_clones+0x28>
    50e3:	48 8b 05 ee de 00 00 	mov    0xdeee(%rip),%rax        # 12fd8 <_ITM_deregisterTMCloneTable>
    50ea:	48 85 c0             	test   %rax,%rax
    50ed:	74 09                	je     50f8 <deregister_tm_clones+0x28>
    50ef:	ff e0                	jmpq   *%rax
    50f1:	0f 1f 80 00 00 00 00 	nopl   0x0(%rax)
    50f8:	c3                   	retq   
    50f9:	0f 1f 80 00 00 00 00 	nopl   0x0(%rax)

0000000000005100 <register_tm_clones>:
    5100:	48 8d 3d 79 fc 00 00 	lea    0xfc79(%rip),%rdi        # 14d80 <__TMC_END__>
    5107:	48 8d 35 72 fc 00 00 	lea    0xfc72(%rip),%rsi        # 14d80 <__TMC_END__>
    510e:	48 29 fe             	sub    %rdi,%rsi
    5111:	48 89 f0             	mov    %rsi,%rax
    5114:	48 c1 ee 3f          	shr    $0x3f,%rsi
    5118:	48 c1 f8 03          	sar    $0x3,%rax
    511c:	48 01 c6             	add    %rax,%rsi
    511f:	48 d1 fe             	sar    %rsi
    5122:	74 14                	je     5138 <register_tm_clones+0x38>
    5124:	48 8b 05 c5 de 00 00 	mov    0xdec5(%rip),%rax        # 12ff0 <_ITM_registerTMCloneTable>
    512b:	48 85 c0             	test   %rax,%rax
    512e:	74 08                	je     5138 <register_tm_clones+0x38>
    5130:	ff e0                	jmpq   *%rax
    5132:	66 0f 1f 44 00 00    	nopw   0x0(%rax,%rax,1)
    5138:	c3                   	retq   
    5139:	0f 1f 80 00 00 00 00 	nopl   0x0(%rax)

0000000000005140 <__do_global_dtors_aux>:
    5140:	f3 0f 1e fa          	endbr64 
    5144:	80 3d 35 fc 00 00 00 	cmpb   $0x0,0xfc35(%rip)        # 14d80 <__TMC_END__>
    514b:	75 2b                	jne    5178 <__do_global_dtors_aux+0x38>
    514d:	55                   	push   %rbp
    514e:	48 83 3d a2 de 00 00 	cmpq   $0x0,0xdea2(%rip)        # 12ff8 <__cxa_finalize@GLIBC_2.2.5>
    5155:	00 
    5156:	48 89 e5             	mov    %rsp,%rbp
    5159:	74 0c                	je     5167 <__do_global_dtors_aux+0x27>
    515b:	48 8b 3d a6 de 00 00 	mov    0xdea6(%rip),%rdi        # 13008 <__dso_handle>
    5162:	e8 f9 fe ff ff       	callq  5060 <__cxa_finalize@plt>
    5167:	e8 64 ff ff ff       	callq  50d0 <deregister_tm_clones>
    516c:	c6 05 0d fc 00 00 01 	movb   $0x1,0xfc0d(%rip)        # 14d80 <__TMC_END__>
    5173:	5d                   	pop    %rbp
    5174:	c3                   	retq   
    5175:	0f 1f 00             	nopl   (%rax)
    5178:	c3                   	retq   
    5179:	0f 1f 80 00 00 00 00 	nopl   0x0(%rax)

0000000000005180 <frame_dummy>:
    5180:	f3 0f 1e fa          	endbr64 
    5184:	e9 77 ff ff ff       	jmpq   5100 <register_tm_clones>

0000000000005189 <platform_main_begin>:
    5189:	f3 0f 1e fa          	endbr64 
    518d:	55                   	push   %rbp
    518e:	48 89 e5             	mov    %rsp,%rbp
    5191:	90                   	nop
    5192:	5d                   	pop    %rbp
    5193:	c3                   	retq   

0000000000005194 <platform_main_end>:
    5194:	f3 0f 1e fa          	endbr64 
    5198:	55                   	push   %rbp
    5199:	48 89 e5             	mov    %rsp,%rbp
    519c:	48 83 ec 10          	sub    $0x10,%rsp
    51a0:	89 7d fc             	mov    %edi,-0x4(%rbp)
    51a3:	89 75 f8             	mov    %esi,-0x8(%rbp)
    51a6:	8b 45 fc             	mov    -0x4(%rbp),%eax
    51a9:	89 c6                	mov    %eax,%esi
    51ab:	48 8d 3d 6e 8e 00 00 	lea    0x8e6e(%rip),%rdi        # e020 <_IO_stdin_used+0x20>
    51b2:	b8 00 00 00 00       	mov    $0x0,%eax
    51b7:	e8 c4 fe ff ff       	callq  5080 <printf@plt>
    51bc:	90                   	nop
    51bd:	c9                   	leaveq 
    51be:	c3                   	retq   

00000000000051bf <safe_unary_minus_func_int8_t_s>:
    51bf:	f3 0f 1e fa          	endbr64 
    51c3:	55                   	push   %rbp
    51c4:	48 89 e5             	mov    %rsp,%rbp
    51c7:	89 f8                	mov    %edi,%eax
    51c9:	88 45 fc             	mov    %al,-0x4(%rbp)
    51cc:	0f b6 45 fc          	movzbl -0x4(%rbp),%eax
    51d0:	f7 d8                	neg    %eax
    51d2:	5d                   	pop    %rbp
    51d3:	c3                   	retq   

00000000000051d4 <safe_add_func_int8_t_s_s>:
    51d4:	f3 0f 1e fa          	endbr64 
    51d8:	55                   	push   %rbp
    51d9:	48 89 e5             	mov    %rsp,%rbp
    51dc:	89 fa                	mov    %edi,%edx
    51de:	89 f0                	mov    %esi,%eax
    51e0:	88 55 fc             	mov    %dl,-0x4(%rbp)
    51e3:	88 45 f8             	mov    %al,-0x8(%rbp)
    51e6:	0f b6 55 fc          	movzbl -0x4(%rbp),%edx
    51ea:	0f b6 45 f8          	movzbl -0x8(%rbp),%eax
    51ee:	01 d0                	add    %edx,%eax
    51f0:	5d                   	pop    %rbp
    51f1:	c3                   	retq   

00000000000051f2 <safe_sub_func_int8_t_s_s>:
    51f2:	f3 0f 1e fa          	endbr64 
    51f6:	55                   	push   %rbp
    51f7:	48 89 e5             	mov    %rsp,%rbp
    51fa:	89 fa                	mov    %edi,%edx
    51fc:	89 f0                	mov    %esi,%eax
    51fe:	88 55 fc             	mov    %dl,-0x4(%rbp)
    5201:	88 45 f8             	mov    %al,-0x8(%rbp)
    5204:	0f b6 55 fc          	movzbl -0x4(%rbp),%edx
    5208:	0f b6 45 f8          	movzbl -0x8(%rbp),%eax
    520c:	29 c2                	sub    %eax,%edx
    520e:	89 d0                	mov    %edx,%eax
    5210:	5d                   	pop    %rbp
    5211:	c3                   	retq   

0000000000005212 <safe_mul_func_int8_t_s_s>:
    5212:	f3 0f 1e fa          	endbr64 
    5216:	55                   	push   %rbp
    5217:	48 89 e5             	mov    %rsp,%rbp
    521a:	89 fa                	mov    %edi,%edx
    521c:	89 f0                	mov    %esi,%eax
    521e:	88 55 fc             	mov    %dl,-0x4(%rbp)
    5221:	88 45 f8             	mov    %al,-0x8(%rbp)
    5224:	0f b6 45 fc          	movzbl -0x4(%rbp),%eax
    5228:	0f b6 55 f8          	movzbl -0x8(%rbp),%edx
    522c:	0f af c2             	imul   %edx,%eax
    522f:	5d                   	pop    %rbp
    5230:	c3                   	retq   

0000000000005231 <safe_mod_func_int8_t_s_s>:
    5231:	f3 0f 1e fa          	endbr64 
    5235:	55                   	push   %rbp
    5236:	48 89 e5             	mov    %rsp,%rbp
    5239:	89 fa                	mov    %edi,%edx
    523b:	89 f0                	mov    %esi,%eax
    523d:	88 55 fc             	mov    %dl,-0x4(%rbp)
    5240:	88 45 f8             	mov    %al,-0x8(%rbp)
    5243:	80 7d f8 00          	cmpb   $0x0,-0x8(%rbp)
    5247:	74 1b                	je     5264 <safe_mod_func_int8_t_s_s+0x33>
    5249:	80 7d fc 80          	cmpb   $0x80,-0x4(%rbp)
    524d:	75 06                	jne    5255 <safe_mod_func_int8_t_s_s+0x24>
    524f:	80 7d f8 ff          	cmpb   $0xff,-0x8(%rbp)
    5253:	74 0f                	je     5264 <safe_mod_func_int8_t_s_s+0x33>
    5255:	0f be 45 fc          	movsbl -0x4(%rbp),%eax
    5259:	0f be 4d f8          	movsbl -0x8(%rbp),%ecx
    525d:	99                   	cltd   
    525e:	f7 f9                	idiv   %ecx
    5260:	89 d0                	mov    %edx,%eax
    5262:	eb 04                	jmp    5268 <safe_mod_func_int8_t_s_s+0x37>
    5264:	0f b6 45 fc          	movzbl -0x4(%rbp),%eax
    5268:	5d                   	pop    %rbp
    5269:	c3                   	retq   

000000000000526a <safe_div_func_int8_t_s_s>:
    526a:	f3 0f 1e fa          	endbr64 
    526e:	55                   	push   %rbp
    526f:	48 89 e5             	mov    %rsp,%rbp
    5272:	89 fa                	mov    %edi,%edx
    5274:	89 f0                	mov    %esi,%eax
    5276:	88 55 fc             	mov    %dl,-0x4(%rbp)
    5279:	88 45 f8             	mov    %al,-0x8(%rbp)
    527c:	80 7d f8 00          	cmpb   $0x0,-0x8(%rbp)
    5280:	74 19                	je     529b <safe_div_func_int8_t_s_s+0x31>
    5282:	80 7d fc 80          	cmpb   $0x80,-0x4(%rbp)
    5286:	75 06                	jne    528e <safe_div_func_int8_t_s_s+0x24>
    5288:	80 7d f8 ff          	cmpb   $0xff,-0x8(%rbp)
    528c:	74 0d                	je     529b <safe_div_func_int8_t_s_s+0x31>
    528e:	0f be 45 fc          	movsbl -0x4(%rbp),%eax
    5292:	0f be 4d f8          	movsbl -0x8(%rbp),%ecx
    5296:	99                   	cltd   
    5297:	f7 f9                	idiv   %ecx
    5299:	eb 04                	jmp    529f <safe_div_func_int8_t_s_s+0x35>
    529b:	0f b6 45 fc          	movzbl -0x4(%rbp),%eax
    529f:	5d                   	pop    %rbp
    52a0:	c3                   	retq   

00000000000052a1 <safe_lshift_func_int8_t_s_s>:
    52a1:	f3 0f 1e fa          	endbr64 
    52a5:	55                   	push   %rbp
    52a6:	48 89 e5             	mov    %rsp,%rbp
    52a9:	89 f8                	mov    %edi,%eax
    52ab:	89 75 f8             	mov    %esi,-0x8(%rbp)
    52ae:	88 45 fc             	mov    %al,-0x4(%rbp)
    52b1:	80 7d fc 00          	cmpb   $0x0,-0x4(%rbp)
    52b5:	78 31                	js     52e8 <safe_lshift_func_int8_t_s_s+0x47>
    52b7:	83 7d f8 00          	cmpl   $0x0,-0x8(%rbp)
    52bb:	78 2b                	js     52e8 <safe_lshift_func_int8_t_s_s+0x47>
    52bd:	83 7d f8 1f          	cmpl   $0x1f,-0x8(%rbp)
    52c1:	7f 25                	jg     52e8 <safe_lshift_func_int8_t_s_s+0x47>
    52c3:	0f be 55 fc          	movsbl -0x4(%rbp),%edx
    52c7:	8b 45 f8             	mov    -0x8(%rbp),%eax
    52ca:	be 7f 00 00 00       	mov    $0x7f,%esi
    52cf:	89 c1                	mov    %eax,%ecx
    52d1:	d3 fe                	sar    %cl,%esi
    52d3:	89 f0                	mov    %esi,%eax
    52d5:	39 c2                	cmp    %eax,%edx
    52d7:	7f 0f                	jg     52e8 <safe_lshift_func_int8_t_s_s+0x47>
    52d9:	0f be 55 fc          	movsbl -0x4(%rbp),%edx
    52dd:	8b 45 f8             	mov    -0x8(%rbp),%eax
    52e0:	89 c1                	mov    %eax,%ecx
    52e2:	d3 e2                	shl    %cl,%edx
    52e4:	89 d0                	mov    %edx,%eax
    52e6:	eb 04                	jmp    52ec <safe_lshift_func_int8_t_s_s+0x4b>
    52e8:	0f b6 45 fc          	movzbl -0x4(%rbp),%eax
    52ec:	5d                   	pop    %rbp
    52ed:	c3                   	retq   

00000000000052ee <safe_lshift_func_int8_t_s_u>:
    52ee:	f3 0f 1e fa          	endbr64 
    52f2:	55                   	push   %rbp
    52f3:	48 89 e5             	mov    %rsp,%rbp
    52f6:	89 f8                	mov    %edi,%eax
    52f8:	89 75 f8             	mov    %esi,-0x8(%rbp)
    52fb:	88 45 fc             	mov    %al,-0x4(%rbp)
    52fe:	80 7d fc 00          	cmpb   $0x0,-0x4(%rbp)
    5302:	78 2b                	js     532f <safe_lshift_func_int8_t_s_u+0x41>
    5304:	83 7d f8 1f          	cmpl   $0x1f,-0x8(%rbp)
    5308:	77 25                	ja     532f <safe_lshift_func_int8_t_s_u+0x41>
    530a:	0f be 55 fc          	movsbl -0x4(%rbp),%edx
    530e:	8b 45 f8             	mov    -0x8(%rbp),%eax
    5311:	be 7f 00 00 00       	mov    $0x7f,%esi
    5316:	89 c1                	mov    %eax,%ecx
    5318:	d3 fe                	sar    %cl,%esi
    531a:	89 f0                	mov    %esi,%eax
    531c:	39 c2                	cmp    %eax,%edx
    531e:	7f 0f                	jg     532f <safe_lshift_func_int8_t_s_u+0x41>
    5320:	0f be 55 fc          	movsbl -0x4(%rbp),%edx
    5324:	8b 45 f8             	mov    -0x8(%rbp),%eax
    5327:	89 c1                	mov    %eax,%ecx
    5329:	d3 e2                	shl    %cl,%edx
    532b:	89 d0                	mov    %edx,%eax
    532d:	eb 04                	jmp    5333 <safe_lshift_func_int8_t_s_u+0x45>
    532f:	0f b6 45 fc          	movzbl -0x4(%rbp),%eax
    5333:	5d                   	pop    %rbp
    5334:	c3                   	retq   

0000000000005335 <safe_rshift_func_int8_t_s_s>:
    5335:	f3 0f 1e fa          	endbr64 
    5339:	55                   	push   %rbp
    533a:	48 89 e5             	mov    %rsp,%rbp
    533d:	89 f8                	mov    %edi,%eax
    533f:	89 75 f8             	mov    %esi,-0x8(%rbp)
    5342:	88 45 fc             	mov    %al,-0x4(%rbp)
    5345:	80 7d fc 00          	cmpb   $0x0,-0x4(%rbp)
    5349:	78 1b                	js     5366 <safe_rshift_func_int8_t_s_s+0x31>
    534b:	83 7d f8 00          	cmpl   $0x0,-0x8(%rbp)
    534f:	78 15                	js     5366 <safe_rshift_func_int8_t_s_s+0x31>
    5351:	83 7d f8 1f          	cmpl   $0x1f,-0x8(%rbp)
    5355:	7f 0f                	jg     5366 <safe_rshift_func_int8_t_s_s+0x31>
    5357:	0f be 55 fc          	movsbl -0x4(%rbp),%edx
    535b:	8b 45 f8             	mov    -0x8(%rbp),%eax
    535e:	89 c1                	mov    %eax,%ecx
    5360:	d3 fa                	sar    %cl,%edx
    5362:	89 d0                	mov    %edx,%eax
    5364:	eb 04                	jmp    536a <safe_rshift_func_int8_t_s_s+0x35>
    5366:	0f b6 45 fc          	movzbl -0x4(%rbp),%eax
    536a:	5d                   	pop    %rbp
    536b:	c3                   	retq   

000000000000536c <safe_rshift_func_int8_t_s_u>:
    536c:	f3 0f 1e fa          	endbr64 
    5370:	55                   	push   %rbp
    5371:	48 89 e5             	mov    %rsp,%rbp
    5374:	89 f8                	mov    %edi,%eax
    5376:	89 75 f8             	mov    %esi,-0x8(%rbp)
    5379:	88 45 fc             	mov    %al,-0x4(%rbp)
    537c:	80 7d fc 00          	cmpb   $0x0,-0x4(%rbp)
    5380:	78 15                	js     5397 <safe_rshift_func_int8_t_s_u+0x2b>
    5382:	83 7d f8 1f          	cmpl   $0x1f,-0x8(%rbp)
    5386:	77 0f                	ja     5397 <safe_rshift_func_int8_t_s_u+0x2b>
    5388:	0f be 55 fc          	movsbl -0x4(%rbp),%edx
    538c:	8b 45 f8             	mov    -0x8(%rbp),%eax
    538f:	89 c1                	mov    %eax,%ecx
    5391:	d3 fa                	sar    %cl,%edx
    5393:	89 d0                	mov    %edx,%eax
    5395:	eb 04                	jmp    539b <safe_rshift_func_int8_t_s_u+0x2f>
    5397:	0f b6 45 fc          	movzbl -0x4(%rbp),%eax
    539b:	5d                   	pop    %rbp
    539c:	c3                   	retq   

000000000000539d <safe_unary_minus_func_int16_t_s>:
    539d:	f3 0f 1e fa          	endbr64 
    53a1:	55                   	push   %rbp
    53a2:	48 89 e5             	mov    %rsp,%rbp
    53a5:	89 f8                	mov    %edi,%eax
    53a7:	66 89 45 fc          	mov    %ax,-0x4(%rbp)
    53ab:	0f b7 45 fc          	movzwl -0x4(%rbp),%eax
    53af:	f7 d8                	neg    %eax
    53b1:	5d                   	pop    %rbp
    53b2:	c3                   	retq   

00000000000053b3 <safe_add_func_int16_t_s_s>:
    53b3:	f3 0f 1e fa          	endbr64 
    53b7:	55                   	push   %rbp
    53b8:	48 89 e5             	mov    %rsp,%rbp
    53bb:	89 fa                	mov    %edi,%edx
    53bd:	89 f0                	mov    %esi,%eax
    53bf:	66 89 55 fc          	mov    %dx,-0x4(%rbp)
    53c3:	66 89 45 f8          	mov    %ax,-0x8(%rbp)
    53c7:	0f b7 55 fc          	movzwl -0x4(%rbp),%edx
    53cb:	0f b7 45 f8          	movzwl -0x8(%rbp),%eax
    53cf:	01 d0                	add    %edx,%eax
    53d1:	5d                   	pop    %rbp
    53d2:	c3                   	retq   

00000000000053d3 <safe_sub_func_int16_t_s_s>:
    53d3:	f3 0f 1e fa          	endbr64 
    53d7:	55                   	push   %rbp
    53d8:	48 89 e5             	mov    %rsp,%rbp
    53db:	89 fa                	mov    %edi,%edx
    53dd:	89 f0                	mov    %esi,%eax
    53df:	66 89 55 fc          	mov    %dx,-0x4(%rbp)
    53e3:	66 89 45 f8          	mov    %ax,-0x8(%rbp)
    53e7:	0f b7 55 fc          	movzwl -0x4(%rbp),%edx
    53eb:	0f b7 45 f8          	movzwl -0x8(%rbp),%eax
    53ef:	29 c2                	sub    %eax,%edx
    53f1:	89 d0                	mov    %edx,%eax
    53f3:	5d                   	pop    %rbp
    53f4:	c3                   	retq   

00000000000053f5 <safe_mul_func_int16_t_s_s>:
    53f5:	f3 0f 1e fa          	endbr64 
    53f9:	55                   	push   %rbp
    53fa:	48 89 e5             	mov    %rsp,%rbp
    53fd:	89 fa                	mov    %edi,%edx
    53ff:	89 f0                	mov    %esi,%eax
    5401:	66 89 55 fc          	mov    %dx,-0x4(%rbp)
    5405:	66 89 45 f8          	mov    %ax,-0x8(%rbp)
    5409:	0f b7 55 fc          	movzwl -0x4(%rbp),%edx
    540d:	0f b7 45 f8          	movzwl -0x8(%rbp),%eax
    5411:	0f af c2             	imul   %edx,%eax
    5414:	5d                   	pop    %rbp
    5415:	c3                   	retq   

0000000000005416 <safe_mod_func_int16_t_s_s>:
    5416:	f3 0f 1e fa          	endbr64 
    541a:	55                   	push   %rbp
    541b:	48 89 e5             	mov    %rsp,%rbp
    541e:	89 fa                	mov    %edi,%edx
    5420:	89 f0                	mov    %esi,%eax
    5422:	66 89 55 fc          	mov    %dx,-0x4(%rbp)
    5426:	66 89 45 f8          	mov    %ax,-0x8(%rbp)
    542a:	66 83 7d f8 00       	cmpw   $0x0,-0x8(%rbp)
    542f:	74 1e                	je     544f <safe_mod_func_int16_t_s_s+0x39>
    5431:	66 81 7d fc 00 80    	cmpw   $0x8000,-0x4(%rbp)
    5437:	75 07                	jne    5440 <safe_mod_func_int16_t_s_s+0x2a>
    5439:	66 83 7d f8 ff       	cmpw   $0xffff,-0x8(%rbp)
    543e:	74 0f                	je     544f <safe_mod_func_int16_t_s_s+0x39>
    5440:	0f bf 45 fc          	movswl -0x4(%rbp),%eax
    5444:	0f bf 4d f8          	movswl -0x8(%rbp),%ecx
    5448:	99                   	cltd   
    5449:	f7 f9                	idiv   %ecx
    544b:	89 d0                	mov    %edx,%eax
    544d:	eb 04                	jmp    5453 <safe_mod_func_int16_t_s_s+0x3d>
    544f:	0f b7 45 fc          	movzwl -0x4(%rbp),%eax
    5453:	5d                   	pop    %rbp
    5454:	c3                   	retq   

0000000000005455 <safe_div_func_int16_t_s_s>:
    5455:	f3 0f 1e fa          	endbr64 
    5459:	55                   	push   %rbp
    545a:	48 89 e5             	mov    %rsp,%rbp
    545d:	89 fa                	mov    %edi,%edx
    545f:	89 f0                	mov    %esi,%eax
    5461:	66 89 55 fc          	mov    %dx,-0x4(%rbp)
    5465:	66 89 45 f8          	mov    %ax,-0x8(%rbp)
    5469:	66 83 7d f8 00       	cmpw   $0x0,-0x8(%rbp)
    546e:	74 1c                	je     548c <safe_div_func_int16_t_s_s+0x37>
    5470:	66 81 7d fc 00 80    	cmpw   $0x8000,-0x4(%rbp)
    5476:	75 07                	jne    547f <safe_div_func_int16_t_s_s+0x2a>
    5478:	66 83 7d f8 ff       	cmpw   $0xffff,-0x8(%rbp)
    547d:	74 0d                	je     548c <safe_div_func_int16_t_s_s+0x37>
    547f:	0f bf 45 fc          	movswl -0x4(%rbp),%eax
    5483:	0f bf 4d f8          	movswl -0x8(%rbp),%ecx
    5487:	99                   	cltd   
    5488:	f7 f9                	idiv   %ecx
    548a:	eb 04                	jmp    5490 <safe_div_func_int16_t_s_s+0x3b>
    548c:	0f b7 45 fc          	movzwl -0x4(%rbp),%eax
    5490:	5d                   	pop    %rbp
    5491:	c3                   	retq   

0000000000005492 <safe_lshift_func_int16_t_s_s>:
    5492:	f3 0f 1e fa          	endbr64 
    5496:	55                   	push   %rbp
    5497:	48 89 e5             	mov    %rsp,%rbp
    549a:	89 f8                	mov    %edi,%eax
    549c:	89 75 f8             	mov    %esi,-0x8(%rbp)
    549f:	66 89 45 fc          	mov    %ax,-0x4(%rbp)
    54a3:	66 83 7d fc 00       	cmpw   $0x0,-0x4(%rbp)
    54a8:	78 31                	js     54db <safe_lshift_func_int16_t_s_s+0x49>
    54aa:	83 7d f8 00          	cmpl   $0x0,-0x8(%rbp)
    54ae:	78 2b                	js     54db <safe_lshift_func_int16_t_s_s+0x49>
    54b0:	83 7d f8 1f          	cmpl   $0x1f,-0x8(%rbp)
    54b4:	7f 25                	jg     54db <safe_lshift_func_int16_t_s_s+0x49>
    54b6:	0f bf 55 fc          	movswl -0x4(%rbp),%edx
    54ba:	8b 45 f8             	mov    -0x8(%rbp),%eax
    54bd:	be ff 7f 00 00       	mov    $0x7fff,%esi
    54c2:	89 c1                	mov    %eax,%ecx
    54c4:	d3 fe                	sar    %cl,%esi
    54c6:	89 f0                	mov    %esi,%eax
    54c8:	39 c2                	cmp    %eax,%edx
    54ca:	7f 0f                	jg     54db <safe_lshift_func_int16_t_s_s+0x49>
    54cc:	0f bf 55 fc          	movswl -0x4(%rbp),%edx
    54d0:	8b 45 f8             	mov    -0x8(%rbp),%eax
    54d3:	89 c1                	mov    %eax,%ecx
    54d5:	d3 e2                	shl    %cl,%edx
    54d7:	89 d0                	mov    %edx,%eax
    54d9:	eb 04                	jmp    54df <safe_lshift_func_int16_t_s_s+0x4d>
    54db:	0f b7 45 fc          	movzwl -0x4(%rbp),%eax
    54df:	5d                   	pop    %rbp
    54e0:	c3                   	retq   

00000000000054e1 <safe_lshift_func_int16_t_s_u>:
    54e1:	f3 0f 1e fa          	endbr64 
    54e5:	55                   	push   %rbp
    54e6:	48 89 e5             	mov    %rsp,%rbp
    54e9:	89 f8                	mov    %edi,%eax
    54eb:	89 75 f8             	mov    %esi,-0x8(%rbp)
    54ee:	66 89 45 fc          	mov    %ax,-0x4(%rbp)
    54f2:	66 83 7d fc 00       	cmpw   $0x0,-0x4(%rbp)
    54f7:	78 2b                	js     5524 <safe_lshift_func_int16_t_s_u+0x43>
    54f9:	83 7d f8 1f          	cmpl   $0x1f,-0x8(%rbp)
    54fd:	77 25                	ja     5524 <safe_lshift_func_int16_t_s_u+0x43>
    54ff:	0f bf 55 fc          	movswl -0x4(%rbp),%edx
    5503:	8b 45 f8             	mov    -0x8(%rbp),%eax
    5506:	be ff 7f 00 00       	mov    $0x7fff,%esi
    550b:	89 c1                	mov    %eax,%ecx
    550d:	d3 fe                	sar    %cl,%esi
    550f:	89 f0                	mov    %esi,%eax
    5511:	39 c2                	cmp    %eax,%edx
    5513:	7f 0f                	jg     5524 <safe_lshift_func_int16_t_s_u+0x43>
    5515:	0f bf 55 fc          	movswl -0x4(%rbp),%edx
    5519:	8b 45 f8             	mov    -0x8(%rbp),%eax
    551c:	89 c1                	mov    %eax,%ecx
    551e:	d3 e2                	shl    %cl,%edx
    5520:	89 d0                	mov    %edx,%eax
    5522:	eb 04                	jmp    5528 <safe_lshift_func_int16_t_s_u+0x47>
    5524:	0f b7 45 fc          	movzwl -0x4(%rbp),%eax
    5528:	5d                   	pop    %rbp
    5529:	c3                   	retq   

000000000000552a <safe_rshift_func_int16_t_s_s>:
    552a:	f3 0f 1e fa          	endbr64 
    552e:	55                   	push   %rbp
    552f:	48 89 e5             	mov    %rsp,%rbp
    5532:	89 f8                	mov    %edi,%eax
    5534:	89 75 f8             	mov    %esi,-0x8(%rbp)
    5537:	66 89 45 fc          	mov    %ax,-0x4(%rbp)
    553b:	66 83 7d fc 00       	cmpw   $0x0,-0x4(%rbp)
    5540:	78 1b                	js     555d <safe_rshift_func_int16_t_s_s+0x33>
    5542:	83 7d f8 00          	cmpl   $0x0,-0x8(%rbp)
    5546:	78 15                	js     555d <safe_rshift_func_int16_t_s_s+0x33>
    5548:	83 7d f8 1f          	cmpl   $0x1f,-0x8(%rbp)
    554c:	7f 0f                	jg     555d <safe_rshift_func_int16_t_s_s+0x33>
    554e:	0f bf 55 fc          	movswl -0x4(%rbp),%edx
    5552:	8b 45 f8             	mov    -0x8(%rbp),%eax
    5555:	89 c1                	mov    %eax,%ecx
    5557:	d3 fa                	sar    %cl,%edx
    5559:	89 d0                	mov    %edx,%eax
    555b:	eb 04                	jmp    5561 <safe_rshift_func_int16_t_s_s+0x37>
    555d:	0f b7 45 fc          	movzwl -0x4(%rbp),%eax
    5561:	5d                   	pop    %rbp
    5562:	c3                   	retq   

0000000000005563 <safe_rshift_func_int16_t_s_u>:
    5563:	f3 0f 1e fa          	endbr64 
    5567:	55                   	push   %rbp
    5568:	48 89 e5             	mov    %rsp,%rbp
    556b:	89 f8                	mov    %edi,%eax
    556d:	89 75 f8             	mov    %esi,-0x8(%rbp)
    5570:	66 89 45 fc          	mov    %ax,-0x4(%rbp)
    5574:	66 83 7d fc 00       	cmpw   $0x0,-0x4(%rbp)
    5579:	78 15                	js     5590 <safe_rshift_func_int16_t_s_u+0x2d>
    557b:	83 7d f8 1f          	cmpl   $0x1f,-0x8(%rbp)
    557f:	77 0f                	ja     5590 <safe_rshift_func_int16_t_s_u+0x2d>
    5581:	0f bf 55 fc          	movswl -0x4(%rbp),%edx
    5585:	8b 45 f8             	mov    -0x8(%rbp),%eax
    5588:	89 c1                	mov    %eax,%ecx
    558a:	d3 fa                	sar    %cl,%edx
    558c:	89 d0                	mov    %edx,%eax
    558e:	eb 04                	jmp    5594 <safe_rshift_func_int16_t_s_u+0x31>
    5590:	0f b7 45 fc          	movzwl -0x4(%rbp),%eax
    5594:	5d                   	pop    %rbp
    5595:	c3                   	retq   

0000000000005596 <safe_unary_minus_func_int32_t_s>:
    5596:	f3 0f 1e fa          	endbr64 
    559a:	55                   	push   %rbp
    559b:	48 89 e5             	mov    %rsp,%rbp
    559e:	89 7d fc             	mov    %edi,-0x4(%rbp)
    55a1:	81 7d fc 00 00 00 80 	cmpl   $0x80000000,-0x4(%rbp)
    55a8:	74 07                	je     55b1 <safe_unary_minus_func_int32_t_s+0x1b>
    55aa:	8b 45 fc             	mov    -0x4(%rbp),%eax
    55ad:	f7 d8                	neg    %eax
    55af:	eb 03                	jmp    55b4 <safe_unary_minus_func_int32_t_s+0x1e>
    55b1:	8b 45 fc             	mov    -0x4(%rbp),%eax
    55b4:	5d                   	pop    %rbp
    55b5:	c3                   	retq   

00000000000055b6 <safe_add_func_int32_t_s_s>:
    55b6:	f3 0f 1e fa          	endbr64 
    55ba:	55                   	push   %rbp
    55bb:	48 89 e5             	mov    %rsp,%rbp
    55be:	89 7d fc             	mov    %edi,-0x4(%rbp)
    55c1:	89 75 f8             	mov    %esi,-0x8(%rbp)
    55c4:	83 7d fc 00          	cmpl   $0x0,-0x4(%rbp)
    55c8:	7e 13                	jle    55dd <safe_add_func_int32_t_s_s+0x27>
    55ca:	83 7d f8 00          	cmpl   $0x0,-0x8(%rbp)
    55ce:	7e 0d                	jle    55dd <safe_add_func_int32_t_s_s+0x27>
    55d0:	b8 ff ff ff 7f       	mov    $0x7fffffff,%eax
    55d5:	2b 45 f8             	sub    -0x8(%rbp),%eax
    55d8:	39 45 fc             	cmp    %eax,-0x4(%rbp)
    55db:	7f 23                	jg     5600 <safe_add_func_int32_t_s_s+0x4a>
    55dd:	83 7d fc 00          	cmpl   $0x0,-0x4(%rbp)
    55e1:	79 13                	jns    55f6 <safe_add_func_int32_t_s_s+0x40>
    55e3:	83 7d f8 00          	cmpl   $0x0,-0x8(%rbp)
    55e7:	79 0d                	jns    55f6 <safe_add_func_int32_t_s_s+0x40>
    55e9:	b8 00 00 00 80       	mov    $0x80000000,%eax
    55ee:	2b 45 f8             	sub    -0x8(%rbp),%eax
    55f1:	39 45 fc             	cmp    %eax,-0x4(%rbp)
    55f4:	7c 0a                	jl     5600 <safe_add_func_int32_t_s_s+0x4a>
    55f6:	8b 55 fc             	mov    -0x4(%rbp),%edx
    55f9:	8b 45 f8             	mov    -0x8(%rbp),%eax
    55fc:	01 d0                	add    %edx,%eax
    55fe:	eb 03                	jmp    5603 <safe_add_func_int32_t_s_s+0x4d>
    5600:	8b 45 fc             	mov    -0x4(%rbp),%eax
    5603:	5d                   	pop    %rbp
    5604:	c3                   	retq   

0000000000005605 <safe_sub_func_int32_t_s_s>:
    5605:	f3 0f 1e fa          	endbr64 
    5609:	55                   	push   %rbp
    560a:	48 89 e5             	mov    %rsp,%rbp
    560d:	89 7d fc             	mov    %edi,-0x4(%rbp)
    5610:	89 75 f8             	mov    %esi,-0x8(%rbp)
    5613:	8b 45 fc             	mov    -0x4(%rbp),%eax
    5616:	33 45 f8             	xor    -0x8(%rbp),%eax
    5619:	89 c2                	mov    %eax,%edx
    561b:	8b 45 fc             	mov    -0x4(%rbp),%eax
    561e:	33 45 f8             	xor    -0x8(%rbp),%eax
    5621:	25 00 00 00 80       	and    $0x80000000,%eax
    5626:	33 45 fc             	xor    -0x4(%rbp),%eax
    5629:	2b 45 f8             	sub    -0x8(%rbp),%eax
    562c:	33 45 f8             	xor    -0x8(%rbp),%eax
    562f:	21 d0                	and    %edx,%eax
    5631:	85 c0                	test   %eax,%eax
    5633:	78 08                	js     563d <safe_sub_func_int32_t_s_s+0x38>
    5635:	8b 45 fc             	mov    -0x4(%rbp),%eax
    5638:	2b 45 f8             	sub    -0x8(%rbp),%eax
    563b:	eb 03                	jmp    5640 <safe_sub_func_int32_t_s_s+0x3b>
    563d:	8b 45 fc             	mov    -0x4(%rbp),%eax
    5640:	5d                   	pop    %rbp
    5641:	c3                   	retq   

0000000000005642 <safe_mul_func_int32_t_s_s>:
    5642:	f3 0f 1e fa          	endbr64 
    5646:	55                   	push   %rbp
    5647:	48 89 e5             	mov    %rsp,%rbp
    564a:	89 7d fc             	mov    %edi,-0x4(%rbp)
    564d:	89 75 f8             	mov    %esi,-0x8(%rbp)
    5650:	83 7d fc 00          	cmpl   $0x0,-0x4(%rbp)
    5654:	7e 14                	jle    566a <safe_mul_func_int32_t_s_s+0x28>
    5656:	83 7d f8 00          	cmpl   $0x0,-0x8(%rbp)
    565a:	7e 0e                	jle    566a <safe_mul_func_int32_t_s_s+0x28>
    565c:	b8 ff ff ff 7f       	mov    $0x7fffffff,%eax
    5661:	99                   	cltd   
    5662:	f7 7d f8             	idivl  -0x8(%rbp)
    5665:	39 45 fc             	cmp    %eax,-0x4(%rbp)
    5668:	7f 5d                	jg     56c7 <safe_mul_func_int32_t_s_s+0x85>
    566a:	83 7d fc 00          	cmpl   $0x0,-0x4(%rbp)
    566e:	7e 14                	jle    5684 <safe_mul_func_int32_t_s_s+0x42>
    5670:	83 7d f8 00          	cmpl   $0x0,-0x8(%rbp)
    5674:	7f 0e                	jg     5684 <safe_mul_func_int32_t_s_s+0x42>
    5676:	b8 00 00 00 80       	mov    $0x80000000,%eax
    567b:	99                   	cltd   
    567c:	f7 7d fc             	idivl  -0x4(%rbp)
    567f:	39 45 f8             	cmp    %eax,-0x8(%rbp)
    5682:	7c 43                	jl     56c7 <safe_mul_func_int32_t_s_s+0x85>
    5684:	83 7d fc 00          	cmpl   $0x0,-0x4(%rbp)
    5688:	7f 14                	jg     569e <safe_mul_func_int32_t_s_s+0x5c>
    568a:	83 7d f8 00          	cmpl   $0x0,-0x8(%rbp)
    568e:	7e 0e                	jle    569e <safe_mul_func_int32_t_s_s+0x5c>
    5690:	b8 00 00 00 80       	mov    $0x80000000,%eax
    5695:	99                   	cltd   
    5696:	f7 7d f8             	idivl  -0x8(%rbp)
    5699:	39 45 fc             	cmp    %eax,-0x4(%rbp)
    569c:	7c 29                	jl     56c7 <safe_mul_func_int32_t_s_s+0x85>
    569e:	83 7d fc 00          	cmpl   $0x0,-0x4(%rbp)
    56a2:	7f 1a                	jg     56be <safe_mul_func_int32_t_s_s+0x7c>
    56a4:	83 7d f8 00          	cmpl   $0x0,-0x8(%rbp)
    56a8:	7f 14                	jg     56be <safe_mul_func_int32_t_s_s+0x7c>
    56aa:	83 7d fc 00          	cmpl   $0x0,-0x4(%rbp)
    56ae:	74 0e                	je     56be <safe_mul_func_int32_t_s_s+0x7c>
    56b0:	b8 ff ff ff 7f       	mov    $0x7fffffff,%eax
    56b5:	99                   	cltd   
    56b6:	f7 7d fc             	idivl  -0x4(%rbp)
    56b9:	39 45 f8             	cmp    %eax,-0x8(%rbp)
    56bc:	7c 09                	jl     56c7 <safe_mul_func_int32_t_s_s+0x85>
    56be:	8b 45 fc             	mov    -0x4(%rbp),%eax
    56c1:	0f af 45 f8          	imul   -0x8(%rbp),%eax
    56c5:	eb 03                	jmp    56ca <safe_mul_func_int32_t_s_s+0x88>
    56c7:	8b 45 fc             	mov    -0x4(%rbp),%eax
    56ca:	5d                   	pop    %rbp
    56cb:	c3                   	retq   

00000000000056cc <safe_mod_func_int32_t_s_s>:
    56cc:	f3 0f 1e fa          	endbr64 
    56d0:	55                   	push   %rbp
    56d1:	48 89 e5             	mov    %rsp,%rbp
    56d4:	89 7d fc             	mov    %edi,-0x4(%rbp)
    56d7:	89 75 f8             	mov    %esi,-0x8(%rbp)
    56da:	83 7d f8 00          	cmpl   $0x0,-0x8(%rbp)
    56de:	74 1a                	je     56fa <safe_mod_func_int32_t_s_s+0x2e>
    56e0:	81 7d fc 00 00 00 80 	cmpl   $0x80000000,-0x4(%rbp)
    56e7:	75 06                	jne    56ef <safe_mod_func_int32_t_s_s+0x23>
    56e9:	83 7d f8 ff          	cmpl   $0xffffffff,-0x8(%rbp)
    56ed:	74 0b                	je     56fa <safe_mod_func_int32_t_s_s+0x2e>
    56ef:	8b 45 fc             	mov    -0x4(%rbp),%eax
    56f2:	99                   	cltd   
    56f3:	f7 7d f8             	idivl  -0x8(%rbp)
    56f6:	89 d0                	mov    %edx,%eax
    56f8:	eb 03                	jmp    56fd <safe_mod_func_int32_t_s_s+0x31>
    56fa:	8b 45 fc             	mov    -0x4(%rbp),%eax
    56fd:	5d                   	pop    %rbp
    56fe:	c3                   	retq   

00000000000056ff <safe_div_func_int32_t_s_s>:
    56ff:	f3 0f 1e fa          	endbr64 
    5703:	55                   	push   %rbp
    5704:	48 89 e5             	mov    %rsp,%rbp
    5707:	89 7d fc             	mov    %edi,-0x4(%rbp)
    570a:	89 75 f8             	mov    %esi,-0x8(%rbp)
    570d:	83 7d f8 00          	cmpl   $0x0,-0x8(%rbp)
    5711:	74 18                	je     572b <safe_div_func_int32_t_s_s+0x2c>
    5713:	81 7d fc 00 00 00 80 	cmpl   $0x80000000,-0x4(%rbp)
    571a:	75 06                	jne    5722 <safe_div_func_int32_t_s_s+0x23>
    571c:	83 7d f8 ff          	cmpl   $0xffffffff,-0x8(%rbp)
    5720:	74 09                	je     572b <safe_div_func_int32_t_s_s+0x2c>
    5722:	8b 45 fc             	mov    -0x4(%rbp),%eax
    5725:	99                   	cltd   
    5726:	f7 7d f8             	idivl  -0x8(%rbp)
    5729:	eb 03                	jmp    572e <safe_div_func_int32_t_s_s+0x2f>
    572b:	8b 45 fc             	mov    -0x4(%rbp),%eax
    572e:	5d                   	pop    %rbp
    572f:	c3                   	retq   

0000000000005730 <safe_lshift_func_int32_t_s_s>:
    5730:	f3 0f 1e fa          	endbr64 
    5734:	55                   	push   %rbp
    5735:	48 89 e5             	mov    %rsp,%rbp
    5738:	89 7d fc             	mov    %edi,-0x4(%rbp)
    573b:	89 75 f8             	mov    %esi,-0x8(%rbp)
    573e:	83 7d fc 00          	cmpl   $0x0,-0x4(%rbp)
    5742:	78 2d                	js     5771 <safe_lshift_func_int32_t_s_s+0x41>
    5744:	83 7d f8 00          	cmpl   $0x0,-0x8(%rbp)
    5748:	78 27                	js     5771 <safe_lshift_func_int32_t_s_s+0x41>
    574a:	83 7d f8 1f          	cmpl   $0x1f,-0x8(%rbp)
    574e:	7f 21                	jg     5771 <safe_lshift_func_int32_t_s_s+0x41>
    5750:	8b 45 f8             	mov    -0x8(%rbp),%eax
    5753:	ba ff ff ff 7f       	mov    $0x7fffffff,%edx
    5758:	89 c1                	mov    %eax,%ecx
    575a:	d3 fa                	sar    %cl,%edx
    575c:	89 d0                	mov    %edx,%eax
    575e:	39 45 fc             	cmp    %eax,-0x4(%rbp)
    5761:	7f 0e                	jg     5771 <safe_lshift_func_int32_t_s_s+0x41>
    5763:	8b 45 f8             	mov    -0x8(%rbp),%eax
    5766:	8b 55 fc             	mov    -0x4(%rbp),%edx
    5769:	89 c1                	mov    %eax,%ecx
    576b:	d3 e2                	shl    %cl,%edx
    576d:	89 d0                	mov    %edx,%eax
    576f:	eb 03                	jmp    5774 <safe_lshift_func_int32_t_s_s+0x44>
    5771:	8b 45 fc             	mov    -0x4(%rbp),%eax
    5774:	5d                   	pop    %rbp
    5775:	c3                   	retq   

0000000000005776 <safe_lshift_func_int32_t_s_u>:
    5776:	f3 0f 1e fa          	endbr64 
    577a:	55                   	push   %rbp
    577b:	48 89 e5             	mov    %rsp,%rbp
    577e:	89 7d fc             	mov    %edi,-0x4(%rbp)
    5781:	89 75 f8             	mov    %esi,-0x8(%rbp)
    5784:	83 7d fc 00          	cmpl   $0x0,-0x4(%rbp)
    5788:	78 27                	js     57b1 <safe_lshift_func_int32_t_s_u+0x3b>
    578a:	83 7d f8 1f          	cmpl   $0x1f,-0x8(%rbp)
    578e:	77 21                	ja     57b1 <safe_lshift_func_int32_t_s_u+0x3b>
    5790:	8b 45 f8             	mov    -0x8(%rbp),%eax
    5793:	ba ff ff ff 7f       	mov    $0x7fffffff,%edx
    5798:	89 c1                	mov    %eax,%ecx
    579a:	d3 fa                	sar    %cl,%edx
    579c:	89 d0                	mov    %edx,%eax
    579e:	39 45 fc             	cmp    %eax,-0x4(%rbp)
    57a1:	7f 0e                	jg     57b1 <safe_lshift_func_int32_t_s_u+0x3b>
    57a3:	8b 45 f8             	mov    -0x8(%rbp),%eax
    57a6:	8b 55 fc             	mov    -0x4(%rbp),%edx
    57a9:	89 c1                	mov    %eax,%ecx
    57ab:	d3 e2                	shl    %cl,%edx
    57ad:	89 d0                	mov    %edx,%eax
    57af:	eb 03                	jmp    57b4 <safe_lshift_func_int32_t_s_u+0x3e>
    57b1:	8b 45 fc             	mov    -0x4(%rbp),%eax
    57b4:	5d                   	pop    %rbp
    57b5:	c3                   	retq   

00000000000057b6 <safe_rshift_func_int32_t_s_s>:
    57b6:	f3 0f 1e fa          	endbr64 
    57ba:	55                   	push   %rbp
    57bb:	48 89 e5             	mov    %rsp,%rbp
    57be:	89 7d fc             	mov    %edi,-0x4(%rbp)
    57c1:	89 75 f8             	mov    %esi,-0x8(%rbp)
    57c4:	83 7d fc 00          	cmpl   $0x0,-0x4(%rbp)
    57c8:	78 1a                	js     57e4 <safe_rshift_func_int32_t_s_s+0x2e>
    57ca:	83 7d f8 00          	cmpl   $0x0,-0x8(%rbp)
    57ce:	78 14                	js     57e4 <safe_rshift_func_int32_t_s_s+0x2e>
    57d0:	83 7d f8 1f          	cmpl   $0x1f,-0x8(%rbp)
    57d4:	7f 0e                	jg     57e4 <safe_rshift_func_int32_t_s_s+0x2e>
    57d6:	8b 45 f8             	mov    -0x8(%rbp),%eax
    57d9:	8b 55 fc             	mov    -0x4(%rbp),%edx
    57dc:	89 c1                	mov    %eax,%ecx
    57de:	d3 fa                	sar    %cl,%edx
    57e0:	89 d0                	mov    %edx,%eax
    57e2:	eb 03                	jmp    57e7 <safe_rshift_func_int32_t_s_s+0x31>
    57e4:	8b 45 fc             	mov    -0x4(%rbp),%eax
    57e7:	5d                   	pop    %rbp
    57e8:	c3                   	retq   

00000000000057e9 <safe_rshift_func_int32_t_s_u>:
    57e9:	f3 0f 1e fa          	endbr64 
    57ed:	55                   	push   %rbp
    57ee:	48 89 e5             	mov    %rsp,%rbp
    57f1:	89 7d fc             	mov    %edi,-0x4(%rbp)
    57f4:	89 75 f8             	mov    %esi,-0x8(%rbp)
    57f7:	83 7d fc 00          	cmpl   $0x0,-0x4(%rbp)
    57fb:	78 14                	js     5811 <safe_rshift_func_int32_t_s_u+0x28>
    57fd:	83 7d f8 1f          	cmpl   $0x1f,-0x8(%rbp)
    5801:	77 0e                	ja     5811 <safe_rshift_func_int32_t_s_u+0x28>
    5803:	8b 45 f8             	mov    -0x8(%rbp),%eax
    5806:	8b 55 fc             	mov    -0x4(%rbp),%edx
    5809:	89 c1                	mov    %eax,%ecx
    580b:	d3 fa                	sar    %cl,%edx
    580d:	89 d0                	mov    %edx,%eax
    580f:	eb 03                	jmp    5814 <safe_rshift_func_int32_t_s_u+0x2b>
    5811:	8b 45 fc             	mov    -0x4(%rbp),%eax
    5814:	5d                   	pop    %rbp
    5815:	c3                   	retq   

0000000000005816 <safe_unary_minus_func_int64_t_s>:
    5816:	f3 0f 1e fa          	endbr64 
    581a:	55                   	push   %rbp
    581b:	48 89 e5             	mov    %rsp,%rbp
    581e:	48 89 7d f8          	mov    %rdi,-0x8(%rbp)
    5822:	48 b8 00 00 00 00 00 	movabs $0x8000000000000000,%rax
    5829:	00 00 80 
    582c:	48 39 45 f8          	cmp    %rax,-0x8(%rbp)
    5830:	74 09                	je     583b <safe_unary_minus_func_int64_t_s+0x25>
    5832:	48 8b 45 f8          	mov    -0x8(%rbp),%rax
    5836:	48 f7 d8             	neg    %rax
    5839:	eb 04                	jmp    583f <safe_unary_minus_func_int64_t_s+0x29>
    583b:	48 8b 45 f8          	mov    -0x8(%rbp),%rax
    583f:	5d                   	pop    %rbp
    5840:	c3                   	retq   

0000000000005841 <safe_add_func_int64_t_s_s>:
    5841:	f3 0f 1e fa          	endbr64 
    5845:	55                   	push   %rbp
    5846:	48 89 e5             	mov    %rsp,%rbp
    5849:	48 89 7d f8          	mov    %rdi,-0x8(%rbp)
    584d:	48 89 75 f0          	mov    %rsi,-0x10(%rbp)
    5851:	48 83 7d f8 00       	cmpq   $0x0,-0x8(%rbp)
    5856:	7e 1b                	jle    5873 <safe_add_func_int64_t_s_s+0x32>
    5858:	48 83 7d f0 00       	cmpq   $0x0,-0x10(%rbp)
    585d:	7e 14                	jle    5873 <safe_add_func_int64_t_s_s+0x32>
    585f:	48 b8 ff ff ff ff ff 	movabs $0x7fffffffffffffff,%rax
    5866:	ff ff 7f 
    5869:	48 2b 45 f0          	sub    -0x10(%rbp),%rax
    586d:	48 39 45 f8          	cmp    %rax,-0x8(%rbp)
    5871:	7f 2f                	jg     58a2 <safe_add_func_int64_t_s_s+0x61>
    5873:	48 83 7d f8 00       	cmpq   $0x0,-0x8(%rbp)
    5878:	79 1b                	jns    5895 <safe_add_func_int64_t_s_s+0x54>
    587a:	48 83 7d f0 00       	cmpq   $0x0,-0x10(%rbp)
    587f:	79 14                	jns    5895 <safe_add_func_int64_t_s_s+0x54>
    5881:	48 b8 00 00 00 00 00 	movabs $0x8000000000000000,%rax
    5888:	00 00 80 
    588b:	48 2b 45 f0          	sub    -0x10(%rbp),%rax
    588f:	48 39 45 f8          	cmp    %rax,-0x8(%rbp)
    5893:	7c 0d                	jl     58a2 <safe_add_func_int64_t_s_s+0x61>
    5895:	48 8b 55 f8          	mov    -0x8(%rbp),%rdx
    5899:	48 8b 45 f0          	mov    -0x10(%rbp),%rax
    589d:	48 01 d0             	add    %rdx,%rax
    58a0:	eb 04                	jmp    58a6 <safe_add_func_int64_t_s_s+0x65>
    58a2:	48 8b 45 f8          	mov    -0x8(%rbp),%rax
    58a6:	5d                   	pop    %rbp
    58a7:	c3                   	retq   

00000000000058a8 <safe_sub_func_int64_t_s_s>:
    58a8:	f3 0f 1e fa          	endbr64 
    58ac:	55                   	push   %rbp
    58ad:	48 89 e5             	mov    %rsp,%rbp
    58b0:	48 89 7d f8          	mov    %rdi,-0x8(%rbp)
    58b4:	48 89 75 f0          	mov    %rsi,-0x10(%rbp)
    58b8:	48 8b 45 f8          	mov    -0x8(%rbp),%rax
    58bc:	48 33 45 f0          	xor    -0x10(%rbp),%rax
    58c0:	48 89 c2             	mov    %rax,%rdx
    58c3:	48 8b 45 f8          	mov    -0x8(%rbp),%rax
    58c7:	48 33 45 f0          	xor    -0x10(%rbp),%rax
    58cb:	48 b9 00 00 00 00 00 	movabs $0x8000000000000000,%rcx
    58d2:	00 00 80 
    58d5:	48 21 c8             	and    %rcx,%rax
    58d8:	48 33 45 f8          	xor    -0x8(%rbp),%rax
    58dc:	48 2b 45 f0          	sub    -0x10(%rbp),%rax
    58e0:	48 33 45 f0          	xor    -0x10(%rbp),%rax
    58e4:	48 21 d0             	and    %rdx,%rax
    58e7:	48 85 c0             	test   %rax,%rax
    58ea:	78 0a                	js     58f6 <safe_sub_func_int64_t_s_s+0x4e>
    58ec:	48 8b 45 f8          	mov    -0x8(%rbp),%rax
    58f0:	48 2b 45 f0          	sub    -0x10(%rbp),%rax
    58f4:	eb 04                	jmp    58fa <safe_sub_func_int64_t_s_s+0x52>
    58f6:	48 8b 45 f8          	mov    -0x8(%rbp),%rax
    58fa:	5d                   	pop    %rbp
    58fb:	c3                   	retq   

00000000000058fc <safe_mul_func_int64_t_s_s>:
    58fc:	f3 0f 1e fa          	endbr64 
    5900:	55                   	push   %rbp
    5901:	48 89 e5             	mov    %rsp,%rbp
    5904:	48 89 7d f8          	mov    %rdi,-0x8(%rbp)
    5908:	48 89 75 f0          	mov    %rsi,-0x10(%rbp)
    590c:	48 83 7d f8 00       	cmpq   $0x0,-0x8(%rbp)
    5911:	7e 1d                	jle    5930 <safe_mul_func_int64_t_s_s+0x34>
    5913:	48 83 7d f0 00       	cmpq   $0x0,-0x10(%rbp)
    5918:	7e 16                	jle    5930 <safe_mul_func_int64_t_s_s+0x34>
    591a:	48 b8 ff ff ff ff ff 	movabs $0x7fffffffffffffff,%rax
    5921:	ff ff 7f 
    5924:	48 99                	cqto   
    5926:	48 f7 7d f0          	idivq  -0x10(%rbp)
    592a:	48 39 45 f8          	cmp    %rax,-0x8(%rbp)
    592e:	7f 7e                	jg     59ae <safe_mul_func_int64_t_s_s+0xb2>
    5930:	48 83 7d f8 00       	cmpq   $0x0,-0x8(%rbp)
    5935:	7e 1d                	jle    5954 <safe_mul_func_int64_t_s_s+0x58>
    5937:	48 83 7d f0 00       	cmpq   $0x0,-0x10(%rbp)
    593c:	7f 16                	jg     5954 <safe_mul_func_int64_t_s_s+0x58>
    593e:	48 b8 00 00 00 00 00 	movabs $0x8000000000000000,%rax
    5945:	00 00 80 
    5948:	48 99                	cqto   
    594a:	48 f7 7d f8          	idivq  -0x8(%rbp)
    594e:	48 39 45 f0          	cmp    %rax,-0x10(%rbp)
    5952:	7c 5a                	jl     59ae <safe_mul_func_int64_t_s_s+0xb2>
    5954:	48 83 7d f8 00       	cmpq   $0x0,-0x8(%rbp)
    5959:	7f 1d                	jg     5978 <safe_mul_func_int64_t_s_s+0x7c>
    595b:	48 83 7d f0 00       	cmpq   $0x0,-0x10(%rbp)
    5960:	7e 16                	jle    5978 <safe_mul_func_int64_t_s_s+0x7c>
    5962:	48 b8 00 00 00 00 00 	movabs $0x8000000000000000,%rax
    5969:	00 00 80 
    596c:	48 99                	cqto   
    596e:	48 f7 7d f0          	idivq  -0x10(%rbp)
    5972:	48 39 45 f8          	cmp    %rax,-0x8(%rbp)
    5976:	7c 36                	jl     59ae <safe_mul_func_int64_t_s_s+0xb2>
    5978:	48 83 7d f8 00       	cmpq   $0x0,-0x8(%rbp)
    597d:	7f 24                	jg     59a3 <safe_mul_func_int64_t_s_s+0xa7>
    597f:	48 83 7d f0 00       	cmpq   $0x0,-0x10(%rbp)
    5984:	7f 1d                	jg     59a3 <safe_mul_func_int64_t_s_s+0xa7>
    5986:	48 83 7d f8 00       	cmpq   $0x0,-0x8(%rbp)
    598b:	74 16                	je     59a3 <safe_mul_func_int64_t_s_s+0xa7>
    598d:	48 b8 ff ff ff ff ff 	movabs $0x7fffffffffffffff,%rax
    5994:	ff ff 7f 
    5997:	48 99                	cqto   
    5999:	48 f7 7d f8          	idivq  -0x8(%rbp)
    599d:	48 39 45 f0          	cmp    %rax,-0x10(%rbp)
    59a1:	7c 0b                	jl     59ae <safe_mul_func_int64_t_s_s+0xb2>
    59a3:	48 8b 45 f8          	mov    -0x8(%rbp),%rax
    59a7:	48 0f af 45 f0       	imul   -0x10(%rbp),%rax
    59ac:	eb 04                	jmp    59b2 <safe_mul_func_int64_t_s_s+0xb6>
    59ae:	48 8b 45 f8          	mov    -0x8(%rbp),%rax
    59b2:	5d                   	pop    %rbp
    59b3:	c3                   	retq   

00000000000059b4 <safe_mod_func_int64_t_s_s>:
    59b4:	f3 0f 1e fa          	endbr64 
    59b8:	55                   	push   %rbp
    59b9:	48 89 e5             	mov    %rsp,%rbp
    59bc:	48 89 7d f8          	mov    %rdi,-0x8(%rbp)
    59c0:	48 89 75 f0          	mov    %rsi,-0x10(%rbp)
    59c4:	48 83 7d f0 00       	cmpq   $0x0,-0x10(%rbp)
    59c9:	74 26                	je     59f1 <safe_mod_func_int64_t_s_s+0x3d>
    59cb:	48 b8 00 00 00 00 00 	movabs $0x8000000000000000,%rax
    59d2:	00 00 80 
    59d5:	48 39 45 f8          	cmp    %rax,-0x8(%rbp)
    59d9:	75 07                	jne    59e2 <safe_mod_func_int64_t_s_s+0x2e>
    59db:	48 83 7d f0 ff       	cmpq   $0xffffffffffffffff,-0x10(%rbp)
    59e0:	74 0f                	je     59f1 <safe_mod_func_int64_t_s_s+0x3d>
    59e2:	48 8b 45 f8          	mov    -0x8(%rbp),%rax
    59e6:	48 99                	cqto   
    59e8:	48 f7 7d f0          	idivq  -0x10(%rbp)
    59ec:	48 89 d0             	mov    %rdx,%rax
    59ef:	eb 04                	jmp    59f5 <safe_mod_func_int64_t_s_s+0x41>
    59f1:	48 8b 45 f8          	mov    -0x8(%rbp),%rax
    59f5:	5d                   	pop    %rbp
    59f6:	c3                   	retq   

00000000000059f7 <safe_div_func_int64_t_s_s>:
    59f7:	f3 0f 1e fa          	endbr64 
    59fb:	55                   	push   %rbp
    59fc:	48 89 e5             	mov    %rsp,%rbp
    59ff:	48 89 7d f8          	mov    %rdi,-0x8(%rbp)
    5a03:	48 89 75 f0          	mov    %rsi,-0x10(%rbp)
    5a07:	48 83 7d f0 00       	cmpq   $0x0,-0x10(%rbp)
    5a0c:	74 23                	je     5a31 <safe_div_func_int64_t_s_s+0x3a>
    5a0e:	48 b8 00 00 00 00 00 	movabs $0x8000000000000000,%rax
    5a15:	00 00 80 
    5a18:	48 39 45 f8          	cmp    %rax,-0x8(%rbp)
    5a1c:	75 07                	jne    5a25 <safe_div_func_int64_t_s_s+0x2e>
    5a1e:	48 83 7d f0 ff       	cmpq   $0xffffffffffffffff,-0x10(%rbp)
    5a23:	74 0c                	je     5a31 <safe_div_func_int64_t_s_s+0x3a>
    5a25:	48 8b 45 f8          	mov    -0x8(%rbp),%rax
    5a29:	48 99                	cqto   
    5a2b:	48 f7 7d f0          	idivq  -0x10(%rbp)
    5a2f:	eb 04                	jmp    5a35 <safe_div_func_int64_t_s_s+0x3e>
    5a31:	48 8b 45 f8          	mov    -0x8(%rbp),%rax
    5a35:	5d                   	pop    %rbp
    5a36:	c3                   	retq   

0000000000005a37 <safe_lshift_func_int64_t_s_s>:
    5a37:	f3 0f 1e fa          	endbr64 
    5a3b:	55                   	push   %rbp
    5a3c:	48 89 e5             	mov    %rsp,%rbp
    5a3f:	48 89 7d f8          	mov    %rdi,-0x8(%rbp)
    5a43:	89 75 f4             	mov    %esi,-0xc(%rbp)
    5a46:	48 83 7d f8 00       	cmpq   $0x0,-0x8(%rbp)
    5a4b:	78 38                	js     5a85 <safe_lshift_func_int64_t_s_s+0x4e>
    5a4d:	83 7d f4 00          	cmpl   $0x0,-0xc(%rbp)
    5a51:	78 32                	js     5a85 <safe_lshift_func_int64_t_s_s+0x4e>
    5a53:	83 7d f4 1f          	cmpl   $0x1f,-0xc(%rbp)
    5a57:	7f 2c                	jg     5a85 <safe_lshift_func_int64_t_s_s+0x4e>
    5a59:	8b 45 f4             	mov    -0xc(%rbp),%eax
    5a5c:	48 ba ff ff ff ff ff 	movabs $0x7fffffffffffffff,%rdx
    5a63:	ff ff 7f 
    5a66:	89 c1                	mov    %eax,%ecx
    5a68:	48 d3 fa             	sar    %cl,%rdx
    5a6b:	48 89 d0             	mov    %rdx,%rax
    5a6e:	48 39 45 f8          	cmp    %rax,-0x8(%rbp)
    5a72:	7f 11                	jg     5a85 <safe_lshift_func_int64_t_s_s+0x4e>
    5a74:	8b 45 f4             	mov    -0xc(%rbp),%eax
    5a77:	48 8b 55 f8          	mov    -0x8(%rbp),%rdx
    5a7b:	89 c1                	mov    %eax,%ecx
    5a7d:	48 d3 e2             	shl    %cl,%rdx
    5a80:	48 89 d0             	mov    %rdx,%rax
    5a83:	eb 04                	jmp    5a89 <safe_lshift_func_int64_t_s_s+0x52>
    5a85:	48 8b 45 f8          	mov    -0x8(%rbp),%rax
    5a89:	5d                   	pop    %rbp
    5a8a:	c3                   	retq   

0000000000005a8b <safe_lshift_func_int64_t_s_u>:
    5a8b:	f3 0f 1e fa          	endbr64 
    5a8f:	55                   	push   %rbp
    5a90:	48 89 e5             	mov    %rsp,%rbp
    5a93:	48 89 7d f8          	mov    %rdi,-0x8(%rbp)
    5a97:	89 75 f4             	mov    %esi,-0xc(%rbp)
    5a9a:	48 83 7d f8 00       	cmpq   $0x0,-0x8(%rbp)
    5a9f:	78 32                	js     5ad3 <safe_lshift_func_int64_t_s_u+0x48>
    5aa1:	83 7d f4 1f          	cmpl   $0x1f,-0xc(%rbp)
    5aa5:	77 2c                	ja     5ad3 <safe_lshift_func_int64_t_s_u+0x48>
    5aa7:	8b 45 f4             	mov    -0xc(%rbp),%eax
    5aaa:	48 ba ff ff ff ff ff 	movabs $0x7fffffffffffffff,%rdx
    5ab1:	ff ff 7f 
    5ab4:	89 c1                	mov    %eax,%ecx
    5ab6:	48 d3 fa             	sar    %cl,%rdx
    5ab9:	48 89 d0             	mov    %rdx,%rax
    5abc:	48 39 45 f8          	cmp    %rax,-0x8(%rbp)
    5ac0:	7f 11                	jg     5ad3 <safe_lshift_func_int64_t_s_u+0x48>
    5ac2:	8b 45 f4             	mov    -0xc(%rbp),%eax
    5ac5:	48 8b 55 f8          	mov    -0x8(%rbp),%rdx
    5ac9:	89 c1                	mov    %eax,%ecx
    5acb:	48 d3 e2             	shl    %cl,%rdx
    5ace:	48 89 d0             	mov    %rdx,%rax
    5ad1:	eb 04                	jmp    5ad7 <safe_lshift_func_int64_t_s_u+0x4c>
    5ad3:	48 8b 45 f8          	mov    -0x8(%rbp),%rax
    5ad7:	5d                   	pop    %rbp
    5ad8:	c3                   	retq   

0000000000005ad9 <safe_rshift_func_int64_t_s_s>:
    5ad9:	f3 0f 1e fa          	endbr64 
    5add:	55                   	push   %rbp
    5ade:	48 89 e5             	mov    %rsp,%rbp
    5ae1:	48 89 7d f8          	mov    %rdi,-0x8(%rbp)
    5ae5:	89 75 f4             	mov    %esi,-0xc(%rbp)
    5ae8:	48 83 7d f8 00       	cmpq   $0x0,-0x8(%rbp)
    5aed:	78 1d                	js     5b0c <safe_rshift_func_int64_t_s_s+0x33>
    5aef:	83 7d f4 00          	cmpl   $0x0,-0xc(%rbp)
    5af3:	78 17                	js     5b0c <safe_rshift_func_int64_t_s_s+0x33>
    5af5:	83 7d f4 1f          	cmpl   $0x1f,-0xc(%rbp)
    5af9:	7f 11                	jg     5b0c <safe_rshift_func_int64_t_s_s+0x33>
    5afb:	8b 45 f4             	mov    -0xc(%rbp),%eax
    5afe:	48 8b 55 f8          	mov    -0x8(%rbp),%rdx
    5b02:	89 c1                	mov    %eax,%ecx
    5b04:	48 d3 fa             	sar    %cl,%rdx
    5b07:	48 89 d0             	mov    %rdx,%rax
    5b0a:	eb 04                	jmp    5b10 <safe_rshift_func_int64_t_s_s+0x37>
    5b0c:	48 8b 45 f8          	mov    -0x8(%rbp),%rax
    5b10:	5d                   	pop    %rbp
    5b11:	c3                   	retq   

0000000000005b12 <safe_rshift_func_int64_t_s_u>:
    5b12:	f3 0f 1e fa          	endbr64 
    5b16:	55                   	push   %rbp
    5b17:	48 89 e5             	mov    %rsp,%rbp
    5b1a:	48 89 7d f8          	mov    %rdi,-0x8(%rbp)
    5b1e:	89 75 f4             	mov    %esi,-0xc(%rbp)
    5b21:	48 83 7d f8 00       	cmpq   $0x0,-0x8(%rbp)
    5b26:	78 17                	js     5b3f <safe_rshift_func_int64_t_s_u+0x2d>
    5b28:	83 7d f4 1f          	cmpl   $0x1f,-0xc(%rbp)
    5b2c:	77 11                	ja     5b3f <safe_rshift_func_int64_t_s_u+0x2d>
    5b2e:	8b 45 f4             	mov    -0xc(%rbp),%eax
    5b31:	48 8b 55 f8          	mov    -0x8(%rbp),%rdx
    5b35:	89 c1                	mov    %eax,%ecx
    5b37:	48 d3 fa             	sar    %cl,%rdx
    5b3a:	48 89 d0             	mov    %rdx,%rax
    5b3d:	eb 04                	jmp    5b43 <safe_rshift_func_int64_t_s_u+0x31>
    5b3f:	48 8b 45 f8          	mov    -0x8(%rbp),%rax
    5b43:	5d                   	pop    %rbp
    5b44:	c3                   	retq   

0000000000005b45 <safe_unary_minus_func_uint8_t_u>:
    5b45:	f3 0f 1e fa          	endbr64 
    5b49:	55                   	push   %rbp
    5b4a:	48 89 e5             	mov    %rsp,%rbp
    5b4d:	89 f8                	mov    %edi,%eax
    5b4f:	88 45 fc             	mov    %al,-0x4(%rbp)
    5b52:	0f b6 45 fc          	movzbl -0x4(%rbp),%eax
    5b56:	f7 d8                	neg    %eax
    5b58:	5d                   	pop    %rbp
    5b59:	c3                   	retq   

0000000000005b5a <safe_add_func_uint8_t_u_u>:
    5b5a:	f3 0f 1e fa          	endbr64 
    5b5e:	55                   	push   %rbp
    5b5f:	48 89 e5             	mov    %rsp,%rbp
    5b62:	89 fa                	mov    %edi,%edx
    5b64:	89 f0                	mov    %esi,%eax
    5b66:	88 55 fc             	mov    %dl,-0x4(%rbp)
    5b69:	88 45 f8             	mov    %al,-0x8(%rbp)
    5b6c:	0f b6 55 fc          	movzbl -0x4(%rbp),%edx
    5b70:	0f b6 45 f8          	movzbl -0x8(%rbp),%eax
    5b74:	01 d0                	add    %edx,%eax
    5b76:	5d                   	pop    %rbp
    5b77:	c3                   	retq   

0000000000005b78 <safe_sub_func_uint8_t_u_u>:
    5b78:	f3 0f 1e fa          	endbr64 
    5b7c:	55                   	push   %rbp
    5b7d:	48 89 e5             	mov    %rsp,%rbp
    5b80:	89 fa                	mov    %edi,%edx
    5b82:	89 f0                	mov    %esi,%eax
    5b84:	88 55 fc             	mov    %dl,-0x4(%rbp)
    5b87:	88 45 f8             	mov    %al,-0x8(%rbp)
    5b8a:	0f b6 45 fc          	movzbl -0x4(%rbp),%eax
    5b8e:	2a 45 f8             	sub    -0x8(%rbp),%al
    5b91:	5d                   	pop    %rbp
    5b92:	c3                   	retq   

0000000000005b93 <safe_mul_func_uint8_t_u_u>:
    5b93:	f3 0f 1e fa          	endbr64 
    5b97:	55                   	push   %rbp
    5b98:	48 89 e5             	mov    %rsp,%rbp
    5b9b:	89 fa                	mov    %edi,%edx
    5b9d:	89 f0                	mov    %esi,%eax
    5b9f:	88 55 fc             	mov    %dl,-0x4(%rbp)
    5ba2:	88 45 f8             	mov    %al,-0x8(%rbp)
    5ba5:	0f b6 45 fc          	movzbl -0x4(%rbp),%eax
    5ba9:	f6 65 f8             	mulb   -0x8(%rbp)
    5bac:	5d                   	pop    %rbp
    5bad:	c3                   	retq   

0000000000005bae <safe_mod_func_uint8_t_u_u>:
    5bae:	f3 0f 1e fa          	endbr64 
    5bb2:	55                   	push   %rbp
    5bb3:	48 89 e5             	mov    %rsp,%rbp
    5bb6:	89 fa                	mov    %edi,%edx
    5bb8:	89 f0                	mov    %esi,%eax
    5bba:	88 55 fc             	mov    %dl,-0x4(%rbp)
    5bbd:	88 45 f8             	mov    %al,-0x8(%rbp)
    5bc0:	80 7d f8 00          	cmpb   $0x0,-0x8(%rbp)
    5bc4:	74 0f                	je     5bd5 <safe_mod_func_uint8_t_u_u+0x27>
    5bc6:	0f b6 45 fc          	movzbl -0x4(%rbp),%eax
    5bca:	0f b6 c0             	movzbl %al,%eax
    5bcd:	f6 75 f8             	divb   -0x8(%rbp)
    5bd0:	0f b6 c4             	movzbl %ah,%eax
    5bd3:	eb 04                	jmp    5bd9 <safe_mod_func_uint8_t_u_u+0x2b>
    5bd5:	0f b6 45 fc          	movzbl -0x4(%rbp),%eax
    5bd9:	5d                   	pop    %rbp
    5bda:	c3                   	retq   

0000000000005bdb <safe_div_func_uint8_t_u_u>:
    5bdb:	f3 0f 1e fa          	endbr64 
    5bdf:	55                   	push   %rbp
    5be0:	48 89 e5             	mov    %rsp,%rbp
    5be3:	89 fa                	mov    %edi,%edx
    5be5:	89 f0                	mov    %esi,%eax
    5be7:	88 55 fc             	mov    %dl,-0x4(%rbp)
    5bea:	88 45 f8             	mov    %al,-0x8(%rbp)
    5bed:	80 7d f8 00          	cmpb   $0x0,-0x8(%rbp)
    5bf1:	74 0c                	je     5bff <safe_div_func_uint8_t_u_u+0x24>
    5bf3:	0f b6 45 fc          	movzbl -0x4(%rbp),%eax
    5bf7:	0f b6 c0             	movzbl %al,%eax
    5bfa:	f6 75 f8             	divb   -0x8(%rbp)
    5bfd:	eb 04                	jmp    5c03 <safe_div_func_uint8_t_u_u+0x28>
    5bff:	0f b6 45 fc          	movzbl -0x4(%rbp),%eax
    5c03:	5d                   	pop    %rbp
    5c04:	c3                   	retq   

0000000000005c05 <safe_lshift_func_uint8_t_u_s>:
    5c05:	f3 0f 1e fa          	endbr64 
    5c09:	55                   	push   %rbp
    5c0a:	48 89 e5             	mov    %rsp,%rbp
    5c0d:	89 f8                	mov    %edi,%eax
    5c0f:	89 75 f8             	mov    %esi,-0x8(%rbp)
    5c12:	88 45 fc             	mov    %al,-0x4(%rbp)
    5c15:	83 7d f8 00          	cmpl   $0x0,-0x8(%rbp)
    5c19:	78 2b                	js     5c46 <safe_lshift_func_uint8_t_u_s+0x41>
    5c1b:	83 7d f8 1f          	cmpl   $0x1f,-0x8(%rbp)
    5c1f:	7f 25                	jg     5c46 <safe_lshift_func_uint8_t_u_s+0x41>
    5c21:	0f b6 55 fc          	movzbl -0x4(%rbp),%edx
    5c25:	8b 45 f8             	mov    -0x8(%rbp),%eax
    5c28:	be ff 00 00 00       	mov    $0xff,%esi
    5c2d:	89 c1                	mov    %eax,%ecx
    5c2f:	d3 fe                	sar    %cl,%esi
    5c31:	89 f0                	mov    %esi,%eax
    5c33:	39 c2                	cmp    %eax,%edx
    5c35:	7f 0f                	jg     5c46 <safe_lshift_func_uint8_t_u_s+0x41>
    5c37:	0f b6 55 fc          	movzbl -0x4(%rbp),%edx
    5c3b:	8b 45 f8             	mov    -0x8(%rbp),%eax
    5c3e:	89 c1                	mov    %eax,%ecx
    5c40:	d3 e2                	shl    %cl,%edx
    5c42:	89 d0                	mov    %edx,%eax
    5c44:	eb 04                	jmp    5c4a <safe_lshift_func_uint8_t_u_s+0x45>
    5c46:	0f b6 45 fc          	movzbl -0x4(%rbp),%eax
    5c4a:	5d                   	pop    %rbp
    5c4b:	c3                   	retq   

0000000000005c4c <safe_lshift_func_uint8_t_u_u>:
    5c4c:	f3 0f 1e fa          	endbr64 
    5c50:	55                   	push   %rbp
    5c51:	48 89 e5             	mov    %rsp,%rbp
    5c54:	89 f8                	mov    %edi,%eax
    5c56:	89 75 f8             	mov    %esi,-0x8(%rbp)
    5c59:	88 45 fc             	mov    %al,-0x4(%rbp)
    5c5c:	83 7d f8 1f          	cmpl   $0x1f,-0x8(%rbp)
    5c60:	77 25                	ja     5c87 <safe_lshift_func_uint8_t_u_u+0x3b>
    5c62:	0f b6 55 fc          	movzbl -0x4(%rbp),%edx
    5c66:	8b 45 f8             	mov    -0x8(%rbp),%eax
    5c69:	be ff 00 00 00       	mov    $0xff,%esi
    5c6e:	89 c1                	mov    %eax,%ecx
    5c70:	d3 fe                	sar    %cl,%esi
    5c72:	89 f0                	mov    %esi,%eax
    5c74:	39 c2                	cmp    %eax,%edx
    5c76:	7f 0f                	jg     5c87 <safe_lshift_func_uint8_t_u_u+0x3b>
    5c78:	0f b6 55 fc          	movzbl -0x4(%rbp),%edx
    5c7c:	8b 45 f8             	mov    -0x8(%rbp),%eax
    5c7f:	89 c1                	mov    %eax,%ecx
    5c81:	d3 e2                	shl    %cl,%edx
    5c83:	89 d0                	mov    %edx,%eax
    5c85:	eb 04                	jmp    5c8b <safe_lshift_func_uint8_t_u_u+0x3f>
    5c87:	0f b6 45 fc          	movzbl -0x4(%rbp),%eax
    5c8b:	5d                   	pop    %rbp
    5c8c:	c3                   	retq   

0000000000005c8d <safe_rshift_func_uint8_t_u_s>:
    5c8d:	f3 0f 1e fa          	endbr64 
    5c91:	55                   	push   %rbp
    5c92:	48 89 e5             	mov    %rsp,%rbp
    5c95:	89 f8                	mov    %edi,%eax
    5c97:	89 75 f8             	mov    %esi,-0x8(%rbp)
    5c9a:	88 45 fc             	mov    %al,-0x4(%rbp)
    5c9d:	83 7d f8 00          	cmpl   $0x0,-0x8(%rbp)
    5ca1:	78 15                	js     5cb8 <safe_rshift_func_uint8_t_u_s+0x2b>
    5ca3:	83 7d f8 1f          	cmpl   $0x1f,-0x8(%rbp)
    5ca7:	7f 0f                	jg     5cb8 <safe_rshift_func_uint8_t_u_s+0x2b>
    5ca9:	0f b6 55 fc          	movzbl -0x4(%rbp),%edx
    5cad:	8b 45 f8             	mov    -0x8(%rbp),%eax
    5cb0:	89 c1                	mov    %eax,%ecx
    5cb2:	d3 fa                	sar    %cl,%edx
    5cb4:	89 d0                	mov    %edx,%eax
    5cb6:	eb 04                	jmp    5cbc <safe_rshift_func_uint8_t_u_s+0x2f>
    5cb8:	0f b6 45 fc          	movzbl -0x4(%rbp),%eax
    5cbc:	5d                   	pop    %rbp
    5cbd:	c3                   	retq   

0000000000005cbe <safe_rshift_func_uint8_t_u_u>:
    5cbe:	f3 0f 1e fa          	endbr64 
    5cc2:	55                   	push   %rbp
    5cc3:	48 89 e5             	mov    %rsp,%rbp
    5cc6:	89 f8                	mov    %edi,%eax
    5cc8:	89 75 f8             	mov    %esi,-0x8(%rbp)
    5ccb:	88 45 fc             	mov    %al,-0x4(%rbp)
    5cce:	83 7d f8 1f          	cmpl   $0x1f,-0x8(%rbp)
    5cd2:	77 0f                	ja     5ce3 <safe_rshift_func_uint8_t_u_u+0x25>
    5cd4:	0f b6 55 fc          	movzbl -0x4(%rbp),%edx
    5cd8:	8b 45 f8             	mov    -0x8(%rbp),%eax
    5cdb:	89 c1                	mov    %eax,%ecx
    5cdd:	d3 fa                	sar    %cl,%edx
    5cdf:	89 d0                	mov    %edx,%eax
    5ce1:	eb 04                	jmp    5ce7 <safe_rshift_func_uint8_t_u_u+0x29>
    5ce3:	0f b6 45 fc          	movzbl -0x4(%rbp),%eax
    5ce7:	5d                   	pop    %rbp
    5ce8:	c3                   	retq   

0000000000005ce9 <safe_unary_minus_func_uint16_t_u>:
    5ce9:	f3 0f 1e fa          	endbr64 
    5ced:	55                   	push   %rbp
    5cee:	48 89 e5             	mov    %rsp,%rbp
    5cf1:	89 f8                	mov    %edi,%eax
    5cf3:	66 89 45 fc          	mov    %ax,-0x4(%rbp)
    5cf7:	0f b7 45 fc          	movzwl -0x4(%rbp),%eax
    5cfb:	f7 d8                	neg    %eax
    5cfd:	5d                   	pop    %rbp
    5cfe:	c3                   	retq   

0000000000005cff <safe_add_func_uint16_t_u_u>:
    5cff:	f3 0f 1e fa          	endbr64 
    5d03:	55                   	push   %rbp
    5d04:	48 89 e5             	mov    %rsp,%rbp
    5d07:	89 fa                	mov    %edi,%edx
    5d09:	89 f0                	mov    %esi,%eax
    5d0b:	66 89 55 fc          	mov    %dx,-0x4(%rbp)
    5d0f:	66 89 45 f8          	mov    %ax,-0x8(%rbp)
    5d13:	0f b7 55 fc          	movzwl -0x4(%rbp),%edx
    5d17:	0f b7 45 f8          	movzwl -0x8(%rbp),%eax
    5d1b:	01 d0                	add    %edx,%eax
    5d1d:	5d                   	pop    %rbp
    5d1e:	c3                   	retq   

0000000000005d1f <safe_sub_func_uint16_t_u_u>:
    5d1f:	f3 0f 1e fa          	endbr64 
    5d23:	55                   	push   %rbp
    5d24:	48 89 e5             	mov    %rsp,%rbp
    5d27:	89 fa                	mov    %edi,%edx
    5d29:	89 f0                	mov    %esi,%eax
    5d2b:	66 89 55 fc          	mov    %dx,-0x4(%rbp)
    5d2f:	66 89 45 f8          	mov    %ax,-0x8(%rbp)
    5d33:	0f b7 45 fc          	movzwl -0x4(%rbp),%eax
    5d37:	66 2b 45 f8          	sub    -0x8(%rbp),%ax
    5d3b:	5d                   	pop    %rbp
    5d3c:	c3                   	retq   

0000000000005d3d <safe_mul_func_uint16_t_u_u>:
    5d3d:	f3 0f 1e fa          	endbr64 
    5d41:	55                   	push   %rbp
    5d42:	48 89 e5             	mov    %rsp,%rbp
    5d45:	89 fa                	mov    %edi,%edx
    5d47:	89 f0                	mov    %esi,%eax
    5d49:	66 89 55 fc          	mov    %dx,-0x4(%rbp)
    5d4d:	66 89 45 f8          	mov    %ax,-0x8(%rbp)
    5d51:	0f b7 45 fc          	movzwl -0x4(%rbp),%eax
    5d55:	66 0f af 45 f8       	imul   -0x8(%rbp),%ax
    5d5a:	5d                   	pop    %rbp
    5d5b:	c3                   	retq   

0000000000005d5c <safe_mod_func_uint16_t_u_u>:
    5d5c:	f3 0f 1e fa          	endbr64 
    5d60:	55                   	push   %rbp
    5d61:	48 89 e5             	mov    %rsp,%rbp
    5d64:	89 fa                	mov    %edi,%edx
    5d66:	89 f0                	mov    %esi,%eax
    5d68:	66 89 55 fc          	mov    %dx,-0x4(%rbp)
    5d6c:	66 89 45 f8          	mov    %ax,-0x8(%rbp)
    5d70:	66 83 7d f8 00       	cmpw   $0x0,-0x8(%rbp)
    5d75:	74 11                	je     5d88 <safe_mod_func_uint16_t_u_u+0x2c>
    5d77:	0f b7 45 fc          	movzwl -0x4(%rbp),%eax
    5d7b:	ba 00 00 00 00       	mov    $0x0,%edx
    5d80:	66 f7 75 f8          	divw   -0x8(%rbp)
    5d84:	89 d0                	mov    %edx,%eax
    5d86:	eb 04                	jmp    5d8c <safe_mod_func_uint16_t_u_u+0x30>
    5d88:	0f b7 45 fc          	movzwl -0x4(%rbp),%eax
    5d8c:	5d                   	pop    %rbp
    5d8d:	c3                   	retq   

0000000000005d8e <safe_div_func_uint16_t_u_u>:
    5d8e:	f3 0f 1e fa          	endbr64 
    5d92:	55                   	push   %rbp
    5d93:	48 89 e5             	mov    %rsp,%rbp
    5d96:	89 fa                	mov    %edi,%edx
    5d98:	89 f0                	mov    %esi,%eax
    5d9a:	66 89 55 fc          	mov    %dx,-0x4(%rbp)
    5d9e:	66 89 45 f8          	mov    %ax,-0x8(%rbp)
    5da2:	66 83 7d f8 00       	cmpw   $0x0,-0x8(%rbp)
    5da7:	74 0f                	je     5db8 <safe_div_func_uint16_t_u_u+0x2a>
    5da9:	0f b7 45 fc          	movzwl -0x4(%rbp),%eax
    5dad:	ba 00 00 00 00       	mov    $0x0,%edx
    5db2:	66 f7 75 f8          	divw   -0x8(%rbp)
    5db6:	eb 04                	jmp    5dbc <safe_div_func_uint16_t_u_u+0x2e>
    5db8:	0f b7 45 fc          	movzwl -0x4(%rbp),%eax
    5dbc:	5d                   	pop    %rbp
    5dbd:	c3                   	retq   

0000000000005dbe <safe_lshift_func_uint16_t_u_s>:
    5dbe:	f3 0f 1e fa          	endbr64 
    5dc2:	55                   	push   %rbp
    5dc3:	48 89 e5             	mov    %rsp,%rbp
    5dc6:	89 f8                	mov    %edi,%eax
    5dc8:	89 75 f8             	mov    %esi,-0x8(%rbp)
    5dcb:	66 89 45 fc          	mov    %ax,-0x4(%rbp)
    5dcf:	83 7d f8 00          	cmpl   $0x0,-0x8(%rbp)
    5dd3:	78 2b                	js     5e00 <safe_lshift_func_uint16_t_u_s+0x42>
    5dd5:	83 7d f8 1f          	cmpl   $0x1f,-0x8(%rbp)
    5dd9:	7f 25                	jg     5e00 <safe_lshift_func_uint16_t_u_s+0x42>
    5ddb:	0f b7 55 fc          	movzwl -0x4(%rbp),%edx
    5ddf:	8b 45 f8             	mov    -0x8(%rbp),%eax
    5de2:	be ff ff 00 00       	mov    $0xffff,%esi
    5de7:	89 c1                	mov    %eax,%ecx
    5de9:	d3 fe                	sar    %cl,%esi
    5deb:	89 f0                	mov    %esi,%eax
    5ded:	39 c2                	cmp    %eax,%edx
    5def:	7f 0f                	jg     5e00 <safe_lshift_func_uint16_t_u_s+0x42>
    5df1:	0f b7 55 fc          	movzwl -0x4(%rbp),%edx
    5df5:	8b 45 f8             	mov    -0x8(%rbp),%eax
    5df8:	89 c1                	mov    %eax,%ecx
    5dfa:	d3 e2                	shl    %cl,%edx
    5dfc:	89 d0                	mov    %edx,%eax
    5dfe:	eb 04                	jmp    5e04 <safe_lshift_func_uint16_t_u_s+0x46>
    5e00:	0f b7 45 fc          	movzwl -0x4(%rbp),%eax
    5e04:	5d                   	pop    %rbp
    5e05:	c3                   	retq   

0000000000005e06 <safe_lshift_func_uint16_t_u_u>:
    5e06:	f3 0f 1e fa          	endbr64 
    5e0a:	55                   	push   %rbp
    5e0b:	48 89 e5             	mov    %rsp,%rbp
    5e0e:	89 f8                	mov    %edi,%eax
    5e10:	89 75 f8             	mov    %esi,-0x8(%rbp)
    5e13:	66 89 45 fc          	mov    %ax,-0x4(%rbp)
    5e17:	83 7d f8 1f          	cmpl   $0x1f,-0x8(%rbp)
    5e1b:	77 25                	ja     5e42 <safe_lshift_func_uint16_t_u_u+0x3c>
    5e1d:	0f b7 55 fc          	movzwl -0x4(%rbp),%edx
    5e21:	8b 45 f8             	mov    -0x8(%rbp),%eax
    5e24:	be ff ff 00 00       	mov    $0xffff,%esi
    5e29:	89 c1                	mov    %eax,%ecx
    5e2b:	d3 fe                	sar    %cl,%esi
    5e2d:	89 f0                	mov    %esi,%eax
    5e2f:	39 c2                	cmp    %eax,%edx
    5e31:	7f 0f                	jg     5e42 <safe_lshift_func_uint16_t_u_u+0x3c>
    5e33:	0f b7 55 fc          	movzwl -0x4(%rbp),%edx
    5e37:	8b 45 f8             	mov    -0x8(%rbp),%eax
    5e3a:	89 c1                	mov    %eax,%ecx
    5e3c:	d3 e2                	shl    %cl,%edx
    5e3e:	89 d0                	mov    %edx,%eax
    5e40:	eb 04                	jmp    5e46 <safe_lshift_func_uint16_t_u_u+0x40>
    5e42:	0f b7 45 fc          	movzwl -0x4(%rbp),%eax
    5e46:	5d                   	pop    %rbp
    5e47:	c3                   	retq   

0000000000005e48 <safe_rshift_func_uint16_t_u_s>:
    5e48:	f3 0f 1e fa          	endbr64 
    5e4c:	55                   	push   %rbp
    5e4d:	48 89 e5             	mov    %rsp,%rbp
    5e50:	89 f8                	mov    %edi,%eax
    5e52:	89 75 f8             	mov    %esi,-0x8(%rbp)
    5e55:	66 89 45 fc          	mov    %ax,-0x4(%rbp)
    5e59:	83 7d f8 00          	cmpl   $0x0,-0x8(%rbp)
    5e5d:	78 15                	js     5e74 <safe_rshift_func_uint16_t_u_s+0x2c>
    5e5f:	83 7d f8 1f          	cmpl   $0x1f,-0x8(%rbp)
    5e63:	7f 0f                	jg     5e74 <safe_rshift_func_uint16_t_u_s+0x2c>
    5e65:	0f b7 55 fc          	movzwl -0x4(%rbp),%edx
    5e69:	8b 45 f8             	mov    -0x8(%rbp),%eax
    5e6c:	89 c1                	mov    %eax,%ecx
    5e6e:	d3 fa                	sar    %cl,%edx
    5e70:	89 d0                	mov    %edx,%eax
    5e72:	eb 04                	jmp    5e78 <safe_rshift_func_uint16_t_u_s+0x30>
    5e74:	0f b7 45 fc          	movzwl -0x4(%rbp),%eax
    5e78:	5d                   	pop    %rbp
    5e79:	c3                   	retq   

0000000000005e7a <safe_rshift_func_uint16_t_u_u>:
    5e7a:	f3 0f 1e fa          	endbr64 
    5e7e:	55                   	push   %rbp
    5e7f:	48 89 e5             	mov    %rsp,%rbp
    5e82:	89 f8                	mov    %edi,%eax
    5e84:	89 75 f8             	mov    %esi,-0x8(%rbp)
    5e87:	66 89 45 fc          	mov    %ax,-0x4(%rbp)
    5e8b:	83 7d f8 1f          	cmpl   $0x1f,-0x8(%rbp)
    5e8f:	77 0f                	ja     5ea0 <safe_rshift_func_uint16_t_u_u+0x26>
    5e91:	0f b7 55 fc          	movzwl -0x4(%rbp),%edx
    5e95:	8b 45 f8             	mov    -0x8(%rbp),%eax
    5e98:	89 c1                	mov    %eax,%ecx
    5e9a:	d3 fa                	sar    %cl,%edx
    5e9c:	89 d0                	mov    %edx,%eax
    5e9e:	eb 04                	jmp    5ea4 <safe_rshift_func_uint16_t_u_u+0x2a>
    5ea0:	0f b7 45 fc          	movzwl -0x4(%rbp),%eax
    5ea4:	5d                   	pop    %rbp
    5ea5:	c3                   	retq   

0000000000005ea6 <safe_unary_minus_func_uint32_t_u>:
    5ea6:	f3 0f 1e fa          	endbr64 
    5eaa:	55                   	push   %rbp
    5eab:	48 89 e5             	mov    %rsp,%rbp
    5eae:	89 7d fc             	mov    %edi,-0x4(%rbp)
    5eb1:	8b 45 fc             	mov    -0x4(%rbp),%eax
    5eb4:	f7 d8                	neg    %eax
    5eb6:	5d                   	pop    %rbp
    5eb7:	c3                   	retq   

0000000000005eb8 <safe_add_func_uint32_t_u_u>:
    5eb8:	f3 0f 1e fa          	endbr64 
    5ebc:	55                   	push   %rbp
    5ebd:	48 89 e5             	mov    %rsp,%rbp
    5ec0:	89 7d fc             	mov    %edi,-0x4(%rbp)
    5ec3:	89 75 f8             	mov    %esi,-0x8(%rbp)
    5ec6:	8b 55 fc             	mov    -0x4(%rbp),%edx
    5ec9:	8b 45 f8             	mov    -0x8(%rbp),%eax
    5ecc:	01 d0                	add    %edx,%eax
    5ece:	5d                   	pop    %rbp
    5ecf:	c3                   	retq   

0000000000005ed0 <safe_sub_func_uint32_t_u_u>:
    5ed0:	f3 0f 1e fa          	endbr64 
    5ed4:	55                   	push   %rbp
    5ed5:	48 89 e5             	mov    %rsp,%rbp
    5ed8:	89 7d fc             	mov    %edi,-0x4(%rbp)
    5edb:	89 75 f8             	mov    %esi,-0x8(%rbp)
    5ede:	8b 45 fc             	mov    -0x4(%rbp),%eax
    5ee1:	2b 45 f8             	sub    -0x8(%rbp),%eax
    5ee4:	5d                   	pop    %rbp
    5ee5:	c3                   	retq   

0000000000005ee6 <safe_mul_func_uint32_t_u_u>:
    5ee6:	f3 0f 1e fa          	endbr64 
    5eea:	55                   	push   %rbp
    5eeb:	48 89 e5             	mov    %rsp,%rbp
    5eee:	89 7d fc             	mov    %edi,-0x4(%rbp)
    5ef1:	89 75 f8             	mov    %esi,-0x8(%rbp)
    5ef4:	8b 45 fc             	mov    -0x4(%rbp),%eax
    5ef7:	0f af 45 f8          	imul   -0x8(%rbp),%eax
    5efb:	5d                   	pop    %rbp
    5efc:	c3                   	retq   

0000000000005efd <safe_mod_func_uint32_t_u_u>:
    5efd:	f3 0f 1e fa          	endbr64 
    5f01:	55                   	push   %rbp
    5f02:	48 89 e5             	mov    %rsp,%rbp
    5f05:	89 7d fc             	mov    %edi,-0x4(%rbp)
    5f08:	89 75 f8             	mov    %esi,-0x8(%rbp)
    5f0b:	83 7d f8 00          	cmpl   $0x0,-0x8(%rbp)
    5f0f:	74 0f                	je     5f20 <safe_mod_func_uint32_t_u_u+0x23>
    5f11:	8b 45 fc             	mov    -0x4(%rbp),%eax
    5f14:	ba 00 00 00 00       	mov    $0x0,%edx
    5f19:	f7 75 f8             	divl   -0x8(%rbp)
    5f1c:	89 d0                	mov    %edx,%eax
    5f1e:	eb 03                	jmp    5f23 <safe_mod_func_uint32_t_u_u+0x26>
    5f20:	8b 45 fc             	mov    -0x4(%rbp),%eax
    5f23:	5d                   	pop    %rbp
    5f24:	c3                   	retq   

0000000000005f25 <safe_div_func_uint32_t_u_u>:
    5f25:	f3 0f 1e fa          	endbr64 
    5f29:	55                   	push   %rbp
    5f2a:	48 89 e5             	mov    %rsp,%rbp
    5f2d:	89 7d fc             	mov    %edi,-0x4(%rbp)
    5f30:	89 75 f8             	mov    %esi,-0x8(%rbp)
    5f33:	83 7d f8 00          	cmpl   $0x0,-0x8(%rbp)
    5f37:	74 0d                	je     5f46 <safe_div_func_uint32_t_u_u+0x21>
    5f39:	8b 45 fc             	mov    -0x4(%rbp),%eax
    5f3c:	ba 00 00 00 00       	mov    $0x0,%edx
    5f41:	f7 75 f8             	divl   -0x8(%rbp)
    5f44:	eb 03                	jmp    5f49 <safe_div_func_uint32_t_u_u+0x24>
    5f46:	8b 45 fc             	mov    -0x4(%rbp),%eax
    5f49:	5d                   	pop    %rbp
    5f4a:	c3                   	retq   

0000000000005f4b <safe_lshift_func_uint32_t_u_s>:
    5f4b:	f3 0f 1e fa          	endbr64 
    5f4f:	55                   	push   %rbp
    5f50:	48 89 e5             	mov    %rsp,%rbp
    5f53:	89 7d fc             	mov    %edi,-0x4(%rbp)
    5f56:	89 75 f8             	mov    %esi,-0x8(%rbp)
    5f59:	83 7d f8 00          	cmpl   $0x0,-0x8(%rbp)
    5f5d:	78 27                	js     5f86 <safe_lshift_func_uint32_t_u_s+0x3b>
    5f5f:	83 7d f8 1f          	cmpl   $0x1f,-0x8(%rbp)
    5f63:	7f 21                	jg     5f86 <safe_lshift_func_uint32_t_u_s+0x3b>
    5f65:	8b 45 f8             	mov    -0x8(%rbp),%eax
    5f68:	ba ff ff ff ff       	mov    $0xffffffff,%edx
    5f6d:	89 c1                	mov    %eax,%ecx
    5f6f:	d3 ea                	shr    %cl,%edx
    5f71:	89 d0                	mov    %edx,%eax
    5f73:	39 45 fc             	cmp    %eax,-0x4(%rbp)
    5f76:	77 0e                	ja     5f86 <safe_lshift_func_uint32_t_u_s+0x3b>
    5f78:	8b 45 f8             	mov    -0x8(%rbp),%eax
    5f7b:	8b 55 fc             	mov    -0x4(%rbp),%edx
    5f7e:	89 c1                	mov    %eax,%ecx
    5f80:	d3 e2                	shl    %cl,%edx
    5f82:	89 d0                	mov    %edx,%eax
    5f84:	eb 03                	jmp    5f89 <safe_lshift_func_uint32_t_u_s+0x3e>
    5f86:	8b 45 fc             	mov    -0x4(%rbp),%eax
    5f89:	5d                   	pop    %rbp
    5f8a:	c3                   	retq   

0000000000005f8b <safe_lshift_func_uint32_t_u_u>:
    5f8b:	f3 0f 1e fa          	endbr64 
    5f8f:	55                   	push   %rbp
    5f90:	48 89 e5             	mov    %rsp,%rbp
    5f93:	89 7d fc             	mov    %edi,-0x4(%rbp)
    5f96:	89 75 f8             	mov    %esi,-0x8(%rbp)
    5f99:	83 7d f8 1f          	cmpl   $0x1f,-0x8(%rbp)
    5f9d:	77 21                	ja     5fc0 <safe_lshift_func_uint32_t_u_u+0x35>
    5f9f:	8b 45 f8             	mov    -0x8(%rbp),%eax
    5fa2:	ba ff ff ff ff       	mov    $0xffffffff,%edx
    5fa7:	89 c1                	mov    %eax,%ecx
    5fa9:	d3 ea                	shr    %cl,%edx
    5fab:	89 d0                	mov    %edx,%eax
    5fad:	39 45 fc             	cmp    %eax,-0x4(%rbp)
    5fb0:	77 0e                	ja     5fc0 <safe_lshift_func_uint32_t_u_u+0x35>
    5fb2:	8b 45 f8             	mov    -0x8(%rbp),%eax
    5fb5:	8b 55 fc             	mov    -0x4(%rbp),%edx
    5fb8:	89 c1                	mov    %eax,%ecx
    5fba:	d3 e2                	shl    %cl,%edx
    5fbc:	89 d0                	mov    %edx,%eax
    5fbe:	eb 03                	jmp    5fc3 <safe_lshift_func_uint32_t_u_u+0x38>
    5fc0:	8b 45 fc             	mov    -0x4(%rbp),%eax
    5fc3:	5d                   	pop    %rbp
    5fc4:	c3                   	retq   

0000000000005fc5 <safe_rshift_func_uint32_t_u_s>:
    5fc5:	f3 0f 1e fa          	endbr64 
    5fc9:	55                   	push   %rbp
    5fca:	48 89 e5             	mov    %rsp,%rbp
    5fcd:	89 7d fc             	mov    %edi,-0x4(%rbp)
    5fd0:	89 75 f8             	mov    %esi,-0x8(%rbp)
    5fd3:	83 7d f8 00          	cmpl   $0x0,-0x8(%rbp)
    5fd7:	78 14                	js     5fed <safe_rshift_func_uint32_t_u_s+0x28>
    5fd9:	83 7d f8 1f          	cmpl   $0x1f,-0x8(%rbp)
    5fdd:	7f 0e                	jg     5fed <safe_rshift_func_uint32_t_u_s+0x28>
    5fdf:	8b 45 f8             	mov    -0x8(%rbp),%eax
    5fe2:	8b 55 fc             	mov    -0x4(%rbp),%edx
    5fe5:	89 c1                	mov    %eax,%ecx
    5fe7:	d3 ea                	shr    %cl,%edx
    5fe9:	89 d0                	mov    %edx,%eax
    5feb:	eb 03                	jmp    5ff0 <safe_rshift_func_uint32_t_u_s+0x2b>
    5fed:	8b 45 fc             	mov    -0x4(%rbp),%eax
    5ff0:	5d                   	pop    %rbp
    5ff1:	c3                   	retq   

0000000000005ff2 <safe_rshift_func_uint32_t_u_u>:
    5ff2:	f3 0f 1e fa          	endbr64 
    5ff6:	55                   	push   %rbp
    5ff7:	48 89 e5             	mov    %rsp,%rbp
    5ffa:	89 7d fc             	mov    %edi,-0x4(%rbp)
    5ffd:	89 75 f8             	mov    %esi,-0x8(%rbp)
    6000:	83 7d f8 1f          	cmpl   $0x1f,-0x8(%rbp)
    6004:	77 0e                	ja     6014 <safe_rshift_func_uint32_t_u_u+0x22>
    6006:	8b 45 f8             	mov    -0x8(%rbp),%eax
    6009:	8b 55 fc             	mov    -0x4(%rbp),%edx
    600c:	89 c1                	mov    %eax,%ecx
    600e:	d3 ea                	shr    %cl,%edx
    6010:	89 d0                	mov    %edx,%eax
    6012:	eb 03                	jmp    6017 <safe_rshift_func_uint32_t_u_u+0x25>
    6014:	8b 45 fc             	mov    -0x4(%rbp),%eax
    6017:	5d                   	pop    %rbp
    6018:	c3                   	retq   

0000000000006019 <safe_unary_minus_func_uint64_t_u>:
    6019:	f3 0f 1e fa          	endbr64 
    601d:	55                   	push   %rbp
    601e:	48 89 e5             	mov    %rsp,%rbp
    6021:	48 89 7d f8          	mov    %rdi,-0x8(%rbp)
    6025:	48 8b 45 f8          	mov    -0x8(%rbp),%rax
    6029:	48 f7 d8             	neg    %rax
    602c:	5d                   	pop    %rbp
    602d:	c3                   	retq   

000000000000602e <safe_add_func_uint64_t_u_u>:
    602e:	f3 0f 1e fa          	endbr64 
    6032:	55                   	push   %rbp
    6033:	48 89 e5             	mov    %rsp,%rbp
    6036:	48 89 7d f8          	mov    %rdi,-0x8(%rbp)
    603a:	48 89 75 f0          	mov    %rsi,-0x10(%rbp)
    603e:	48 8b 55 f8          	mov    -0x8(%rbp),%rdx
    6042:	48 8b 45 f0          	mov    -0x10(%rbp),%rax
    6046:	48 01 d0             	add    %rdx,%rax
    6049:	5d                   	pop    %rbp
    604a:	c3                   	retq   

000000000000604b <safe_sub_func_uint64_t_u_u>:
    604b:	f3 0f 1e fa          	endbr64 
    604f:	55                   	push   %rbp
    6050:	48 89 e5             	mov    %rsp,%rbp
    6053:	48 89 7d f8          	mov    %rdi,-0x8(%rbp)
    6057:	48 89 75 f0          	mov    %rsi,-0x10(%rbp)
    605b:	48 8b 45 f8          	mov    -0x8(%rbp),%rax
    605f:	48 2b 45 f0          	sub    -0x10(%rbp),%rax
    6063:	5d                   	pop    %rbp
    6064:	c3                   	retq   

0000000000006065 <safe_mul_func_uint64_t_u_u>:
    6065:	f3 0f 1e fa          	endbr64 
    6069:	55                   	push   %rbp
    606a:	48 89 e5             	mov    %rsp,%rbp
    606d:	48 89 7d f8          	mov    %rdi,-0x8(%rbp)
    6071:	48 89 75 f0          	mov    %rsi,-0x10(%rbp)
    6075:	48 8b 45 f8          	mov    -0x8(%rbp),%rax
    6079:	48 0f af 45 f0       	imul   -0x10(%rbp),%rax
    607e:	5d                   	pop    %rbp
    607f:	c3                   	retq   

0000000000006080 <safe_mod_func_uint64_t_u_u>:
    6080:	f3 0f 1e fa          	endbr64 
    6084:	55                   	push   %rbp
    6085:	48 89 e5             	mov    %rsp,%rbp
    6088:	48 89 7d f8          	mov    %rdi,-0x8(%rbp)
    608c:	48 89 75 f0          	mov    %rsi,-0x10(%rbp)
    6090:	48 83 7d f0 00       	cmpq   $0x0,-0x10(%rbp)
    6095:	74 12                	je     60a9 <safe_mod_func_uint64_t_u_u+0x29>
    6097:	48 8b 45 f8          	mov    -0x8(%rbp),%rax
    609b:	ba 00 00 00 00       	mov    $0x0,%edx
    60a0:	48 f7 75 f0          	divq   -0x10(%rbp)
    60a4:	48 89 d0             	mov    %rdx,%rax
    60a7:	eb 04                	jmp    60ad <safe_mod_func_uint64_t_u_u+0x2d>
    60a9:	48 8b 45 f8          	mov    -0x8(%rbp),%rax
    60ad:	5d                   	pop    %rbp
    60ae:	c3                   	retq   

00000000000060af <safe_div_func_uint64_t_u_u>:
    60af:	f3 0f 1e fa          	endbr64 
    60b3:	55                   	push   %rbp
    60b4:	48 89 e5             	mov    %rsp,%rbp
    60b7:	48 89 7d f8          	mov    %rdi,-0x8(%rbp)
    60bb:	48 89 75 f0          	mov    %rsi,-0x10(%rbp)
    60bf:	48 83 7d f0 00       	cmpq   $0x0,-0x10(%rbp)
    60c4:	74 0f                	je     60d5 <safe_div_func_uint64_t_u_u+0x26>
    60c6:	48 8b 45 f8          	mov    -0x8(%rbp),%rax
    60ca:	ba 00 00 00 00       	mov    $0x0,%edx
    60cf:	48 f7 75 f0          	divq   -0x10(%rbp)
    60d3:	eb 04                	jmp    60d9 <safe_div_func_uint64_t_u_u+0x2a>
    60d5:	48 8b 45 f8          	mov    -0x8(%rbp),%rax
    60d9:	5d                   	pop    %rbp
    60da:	c3                   	retq   

00000000000060db <safe_lshift_func_uint64_t_u_s>:
    60db:	f3 0f 1e fa          	endbr64 
    60df:	55                   	push   %rbp
    60e0:	48 89 e5             	mov    %rsp,%rbp
    60e3:	48 89 7d f8          	mov    %rdi,-0x8(%rbp)
    60e7:	89 75 f4             	mov    %esi,-0xc(%rbp)
    60ea:	83 7d f4 00          	cmpl   $0x0,-0xc(%rbp)
    60ee:	78 2f                	js     611f <safe_lshift_func_uint64_t_u_s+0x44>
    60f0:	83 7d f4 1f          	cmpl   $0x1f,-0xc(%rbp)
    60f4:	7f 29                	jg     611f <safe_lshift_func_uint64_t_u_s+0x44>
    60f6:	8b 45 f4             	mov    -0xc(%rbp),%eax
    60f9:	48 c7 c2 ff ff ff ff 	mov    $0xffffffffffffffff,%rdx
    6100:	89 c1                	mov    %eax,%ecx
    6102:	48 d3 ea             	shr    %cl,%rdx
    6105:	48 89 d0             	mov    %rdx,%rax
    6108:	48 39 45 f8          	cmp    %rax,-0x8(%rbp)
    610c:	77 11                	ja     611f <safe_lshift_func_uint64_t_u_s+0x44>
    610e:	8b 45 f4             	mov    -0xc(%rbp),%eax
    6111:	48 8b 55 f8          	mov    -0x8(%rbp),%rdx
    6115:	89 c1                	mov    %eax,%ecx
    6117:	48 d3 e2             	shl    %cl,%rdx
    611a:	48 89 d0             	mov    %rdx,%rax
    611d:	eb 04                	jmp    6123 <safe_lshift_func_uint64_t_u_s+0x48>
    611f:	48 8b 45 f8          	mov    -0x8(%rbp),%rax
    6123:	5d                   	pop    %rbp
    6124:	c3                   	retq   

0000000000006125 <safe_lshift_func_uint64_t_u_u>:
    6125:	f3 0f 1e fa          	endbr64 
    6129:	55                   	push   %rbp
    612a:	48 89 e5             	mov    %rsp,%rbp
    612d:	48 89 7d f8          	mov    %rdi,-0x8(%rbp)
    6131:	89 75 f4             	mov    %esi,-0xc(%rbp)
    6134:	83 7d f4 1f          	cmpl   $0x1f,-0xc(%rbp)
    6138:	77 29                	ja     6163 <safe_lshift_func_uint64_t_u_u+0x3e>
    613a:	8b 45 f4             	mov    -0xc(%rbp),%eax
    613d:	48 c7 c2 ff ff ff ff 	mov    $0xffffffffffffffff,%rdx
    6144:	89 c1                	mov    %eax,%ecx
    6146:	48 d3 ea             	shr    %cl,%rdx
    6149:	48 89 d0             	mov    %rdx,%rax
    614c:	48 39 45 f8          	cmp    %rax,-0x8(%rbp)
    6150:	77 11                	ja     6163 <safe_lshift_func_uint64_t_u_u+0x3e>
    6152:	8b 45 f4             	mov    -0xc(%rbp),%eax
    6155:	48 8b 55 f8          	mov    -0x8(%rbp),%rdx
    6159:	89 c1                	mov    %eax,%ecx
    615b:	48 d3 e2             	shl    %cl,%rdx
    615e:	48 89 d0             	mov    %rdx,%rax
    6161:	eb 04                	jmp    6167 <safe_lshift_func_uint64_t_u_u+0x42>
    6163:	48 8b 45 f8          	mov    -0x8(%rbp),%rax
    6167:	5d                   	pop    %rbp
    6168:	c3                   	retq   

0000000000006169 <safe_rshift_func_uint64_t_u_s>:
    6169:	f3 0f 1e fa          	endbr64 
    616d:	55                   	push   %rbp
    616e:	48 89 e5             	mov    %rsp,%rbp
    6171:	48 89 7d f8          	mov    %rdi,-0x8(%rbp)
    6175:	89 75 f4             	mov    %esi,-0xc(%rbp)
    6178:	83 7d f4 00          	cmpl   $0x0,-0xc(%rbp)
    617c:	78 17                	js     6195 <safe_rshift_func_uint64_t_u_s+0x2c>
    617e:	83 7d f4 1f          	cmpl   $0x1f,-0xc(%rbp)
    6182:	7f 11                	jg     6195 <safe_rshift_func_uint64_t_u_s+0x2c>
    6184:	8b 45 f4             	mov    -0xc(%rbp),%eax
    6187:	48 8b 55 f8          	mov    -0x8(%rbp),%rdx
    618b:	89 c1                	mov    %eax,%ecx
    618d:	48 d3 ea             	shr    %cl,%rdx
    6190:	48 89 d0             	mov    %rdx,%rax
    6193:	eb 04                	jmp    6199 <safe_rshift_func_uint64_t_u_s+0x30>
    6195:	48 8b 45 f8          	mov    -0x8(%rbp),%rax
    6199:	5d                   	pop    %rbp
    619a:	c3                   	retq   

000000000000619b <safe_rshift_func_uint64_t_u_u>:
    619b:	f3 0f 1e fa          	endbr64 
    619f:	55                   	push   %rbp
    61a0:	48 89 e5             	mov    %rsp,%rbp
    61a3:	48 89 7d f8          	mov    %rdi,-0x8(%rbp)
    61a7:	89 75 f4             	mov    %esi,-0xc(%rbp)
    61aa:	83 7d f4 1f          	cmpl   $0x1f,-0xc(%rbp)
    61ae:	77 11                	ja     61c1 <safe_rshift_func_uint64_t_u_u+0x26>
    61b0:	8b 45 f4             	mov    -0xc(%rbp),%eax
    61b3:	48 8b 55 f8          	mov    -0x8(%rbp),%rdx
    61b7:	89 c1                	mov    %eax,%ecx
    61b9:	48 d3 ea             	shr    %cl,%rdx
    61bc:	48 89 d0             	mov    %rdx,%rax
    61bf:	eb 04                	jmp    61c5 <safe_rshift_func_uint64_t_u_u+0x2a>
    61c1:	48 8b 45 f8          	mov    -0x8(%rbp),%rax
    61c5:	5d                   	pop    %rbp
    61c6:	c3                   	retq   

00000000000061c7 <safe_add_func_float_f_f>:
    61c7:	f3 0f 1e fa          	endbr64 
    61cb:	55                   	push   %rbp
    61cc:	48 89 e5             	mov    %rsp,%rbp
    61cf:	f3 0f 11 45 fc       	movss  %xmm0,-0x4(%rbp)
    61d4:	f3 0f 11 4d f8       	movss  %xmm1,-0x8(%rbp)
    61d9:	f3 0f 10 4d fc       	movss  -0x4(%rbp),%xmm1
    61de:	f3 0f 10 05 ea a1 00 	movss  0xa1ea(%rip),%xmm0        # 103d0 <l_361.4749+0x30>
    61e5:	00 
    61e6:	f3 0f 59 c8          	mulss  %xmm0,%xmm1
    61ea:	f3 0f 10 55 f8       	movss  -0x8(%rbp),%xmm2
    61ef:	f3 0f 10 05 d9 a1 00 	movss  0xa1d9(%rip),%xmm0        # 103d0 <l_361.4749+0x30>
    61f6:	00 
    61f7:	f3 0f 59 c2          	mulss  %xmm2,%xmm0
    61fb:	f3 0f 58 c1          	addss  %xmm1,%xmm0
    61ff:	f3 0f 10 0d d9 a1 00 	movss  0xa1d9(%rip),%xmm1        # 103e0 <l_361.4749+0x40>
    6206:	00 
    6207:	0f 54 c1             	andps  %xmm1,%xmm0
    620a:	0f 2f 05 df a1 00 00 	comiss 0xa1df(%rip),%xmm0        # 103f0 <l_361.4749+0x50>
    6211:	76 07                	jbe    621a <safe_add_func_float_f_f+0x53>
    6213:	f3 0f 10 45 fc       	movss  -0x4(%rbp),%xmm0
    6218:	eb 0a                	jmp    6224 <safe_add_func_float_f_f+0x5d>
    621a:	f3 0f 10 45 fc       	movss  -0x4(%rbp),%xmm0
    621f:	f3 0f 58 45 f8       	addss  -0x8(%rbp),%xmm0
    6224:	5d                   	pop    %rbp
    6225:	c3                   	retq   

0000000000006226 <safe_sub_func_float_f_f>:
    6226:	f3 0f 1e fa          	endbr64 
    622a:	55                   	push   %rbp
    622b:	48 89 e5             	mov    %rsp,%rbp
    622e:	f3 0f 11 45 fc       	movss  %xmm0,-0x4(%rbp)
    6233:	f3 0f 11 4d f8       	movss  %xmm1,-0x8(%rbp)
    6238:	f3 0f 10 4d fc       	movss  -0x4(%rbp),%xmm1
    623d:	f3 0f 10 05 8b a1 00 	movss  0xa18b(%rip),%xmm0        # 103d0 <l_361.4749+0x30>
    6244:	00 
    6245:	f3 0f 59 c1          	mulss  %xmm1,%xmm0
    6249:	f3 0f 10 55 f8       	movss  -0x8(%rbp),%xmm2
    624e:	f3 0f 10 0d 7a a1 00 	movss  0xa17a(%rip),%xmm1        # 103d0 <l_361.4749+0x30>
    6255:	00 
    6256:	f3 0f 59 ca          	mulss  %xmm2,%xmm1
    625a:	f3 0f 5c c1          	subss  %xmm1,%xmm0
    625e:	f3 0f 10 0d 7a a1 00 	movss  0xa17a(%rip),%xmm1        # 103e0 <l_361.4749+0x40>
    6265:	00 
    6266:	0f 54 c1             	andps  %xmm1,%xmm0
    6269:	0f 2f 05 80 a1 00 00 	comiss 0xa180(%rip),%xmm0        # 103f0 <l_361.4749+0x50>
    6270:	76 07                	jbe    6279 <safe_sub_func_float_f_f+0x53>
    6272:	f3 0f 10 45 fc       	movss  -0x4(%rbp),%xmm0
    6277:	eb 0a                	jmp    6283 <safe_sub_func_float_f_f+0x5d>
    6279:	f3 0f 10 45 fc       	movss  -0x4(%rbp),%xmm0
    627e:	f3 0f 5c 45 f8       	subss  -0x8(%rbp),%xmm0
    6283:	5d                   	pop    %rbp
    6284:	c3                   	retq   

0000000000006285 <safe_mul_func_float_f_f>:
    6285:	f3 0f 1e fa          	endbr64 
    6289:	55                   	push   %rbp
    628a:	48 89 e5             	mov    %rsp,%rbp
    628d:	f3 0f 11 45 fc       	movss  %xmm0,-0x4(%rbp)
    6292:	f3 0f 11 4d f8       	movss  %xmm1,-0x8(%rbp)
    6297:	f3 0f 10 4d fc       	movss  -0x4(%rbp),%xmm1
    629c:	f3 0f 10 05 50 a1 00 	movss  0xa150(%rip),%xmm0        # 103f4 <l_361.4749+0x54>
    62a3:	00 
    62a4:	f3 0f 59 c8          	mulss  %xmm0,%xmm1
    62a8:	f3 0f 10 55 f8       	movss  -0x8(%rbp),%xmm2
    62ad:	f3 0f 10 05 43 a1 00 	movss  0xa143(%rip),%xmm0        # 103f8 <l_361.4749+0x58>
    62b4:	00 
    62b5:	f3 0f 59 c2          	mulss  %xmm2,%xmm0
    62b9:	f3 0f 59 c1          	mulss  %xmm1,%xmm0
    62bd:	f3 0f 10 0d 1b a1 00 	movss  0xa11b(%rip),%xmm1        # 103e0 <l_361.4749+0x40>
    62c4:	00 
    62c5:	0f 54 c1             	andps  %xmm1,%xmm0
    62c8:	0f 2f 05 2d a1 00 00 	comiss 0xa12d(%rip),%xmm0        # 103fc <l_361.4749+0x5c>
    62cf:	76 07                	jbe    62d8 <safe_mul_func_float_f_f+0x53>
    62d1:	f3 0f 10 45 fc       	movss  -0x4(%rbp),%xmm0
    62d6:	eb 0a                	jmp    62e2 <safe_mul_func_float_f_f+0x5d>
    62d8:	f3 0f 10 45 fc       	movss  -0x4(%rbp),%xmm0
    62dd:	f3 0f 59 45 f8       	mulss  -0x8(%rbp),%xmm0
    62e2:	5d                   	pop    %rbp
    62e3:	c3                   	retq   

00000000000062e4 <safe_div_func_float_f_f>:
    62e4:	f3 0f 1e fa          	endbr64 
    62e8:	55                   	push   %rbp
    62e9:	48 89 e5             	mov    %rsp,%rbp
    62ec:	f3 0f 11 45 fc       	movss  %xmm0,-0x4(%rbp)
    62f1:	f3 0f 11 4d f8       	movss  %xmm1,-0x8(%rbp)
    62f6:	f3 0f 10 45 f8       	movss  -0x8(%rbp),%xmm0
    62fb:	f3 0f 10 0d dd a0 00 	movss  0xa0dd(%rip),%xmm1        # 103e0 <l_361.4749+0x40>
    6302:	00 
    6303:	0f 54 c8             	andps  %xmm0,%xmm1
    6306:	f3 0f 10 05 f2 a0 00 	movss  0xa0f2(%rip),%xmm0        # 10400 <l_361.4749+0x60>
    630d:	00 
    630e:	0f 2f c1             	comiss %xmm1,%xmm0
    6311:	0f 97 c0             	seta   %al
    6314:	83 f0 01             	xor    $0x1,%eax
    6317:	84 c0                	test   %al,%al
    6319:	75 56                	jne    6371 <safe_div_func_float_f_f+0x8d>
    631b:	66 0f ef c0          	pxor   %xmm0,%xmm0
    631f:	0f 2e 45 f8          	ucomiss -0x8(%rbp),%xmm0
    6323:	7a 0a                	jp     632f <safe_div_func_float_f_f+0x4b>
    6325:	66 0f ef c0          	pxor   %xmm0,%xmm0
    6329:	0f 2e 45 f8          	ucomiss -0x8(%rbp),%xmm0
    632d:	74 4e                	je     637d <safe_div_func_float_f_f+0x99>
    632f:	f3 0f 10 4d fc       	movss  -0x4(%rbp),%xmm1
    6334:	f3 0f 10 05 c8 a0 00 	movss  0xa0c8(%rip),%xmm0        # 10404 <l_361.4749+0x64>
    633b:	00 
    633c:	f3 0f 59 c1          	mulss  %xmm1,%xmm0
    6340:	f3 0f 10 55 f8       	movss  -0x8(%rbp),%xmm2
    6345:	f3 0f 10 0d bb a0 00 	movss  0xa0bb(%rip),%xmm1        # 10408 <l_361.4749+0x68>
    634c:	00 
    634d:	f3 0f 59 ca          	mulss  %xmm2,%xmm1
    6351:	f3 0f 5e c1          	divss  %xmm1,%xmm0
    6355:	f3 0f 10 0d 83 a0 00 	movss  0xa083(%rip),%xmm1        # 103e0 <l_361.4749+0x40>
    635c:	00 
    635d:	0f 54 c1             	andps  %xmm1,%xmm0
    6360:	0f 2f 05 a5 a0 00 00 	comiss 0xa0a5(%rip),%xmm0        # 1040c <l_361.4749+0x6c>
    6367:	0f 97 c0             	seta   %al
    636a:	83 f0 01             	xor    $0x1,%eax
    636d:	84 c0                	test   %al,%al
    636f:	74 0c                	je     637d <safe_div_func_float_f_f+0x99>
    6371:	f3 0f 10 45 fc       	movss  -0x4(%rbp),%xmm0
    6376:	f3 0f 5e 45 f8       	divss  -0x8(%rbp),%xmm0
    637b:	eb 05                	jmp    6382 <safe_div_func_float_f_f+0x9e>
    637d:	f3 0f 10 45 fc       	movss  -0x4(%rbp),%xmm0
    6382:	5d                   	pop    %rbp
    6383:	c3                   	retq   

0000000000006384 <safe_add_func_double_f_f>:
    6384:	f3 0f 1e fa          	endbr64 
    6388:	55                   	push   %rbp
    6389:	48 89 e5             	mov    %rsp,%rbp
    638c:	f2 0f 11 45 f8       	movsd  %xmm0,-0x8(%rbp)
    6391:	f2 0f 11 4d f0       	movsd  %xmm1,-0x10(%rbp)
    6396:	f2 0f 10 4d f8       	movsd  -0x8(%rbp),%xmm1
    639b:	f2 0f 10 05 6d a0 00 	movsd  0xa06d(%rip),%xmm0        # 10410 <l_361.4749+0x70>
    63a2:	00 
    63a3:	f2 0f 59 c8          	mulsd  %xmm0,%xmm1
    63a7:	f2 0f 10 55 f0       	movsd  -0x10(%rbp),%xmm2
    63ac:	f2 0f 10 05 5c a0 00 	movsd  0xa05c(%rip),%xmm0        # 10410 <l_361.4749+0x70>
    63b3:	00 
    63b4:	f2 0f 59 c2          	mulsd  %xmm2,%xmm0
    63b8:	f2 0f 58 c1          	addsd  %xmm1,%xmm0
    63bc:	f3 0f 7e 0d 5c a0 00 	movq   0xa05c(%rip),%xmm1        # 10420 <l_361.4749+0x80>
    63c3:	00 
    63c4:	66 0f 54 c1          	andpd  %xmm1,%xmm0
    63c8:	66 0f 2f 05 60 a0 00 	comisd 0xa060(%rip),%xmm0        # 10430 <l_361.4749+0x90>
    63cf:	00 
    63d0:	76 07                	jbe    63d9 <safe_add_func_double_f_f+0x55>
    63d2:	f2 0f 10 45 f8       	movsd  -0x8(%rbp),%xmm0
    63d7:	eb 0a                	jmp    63e3 <safe_add_func_double_f_f+0x5f>
    63d9:	f2 0f 10 45 f8       	movsd  -0x8(%rbp),%xmm0
    63de:	f2 0f 58 45 f0       	addsd  -0x10(%rbp),%xmm0
    63e3:	5d                   	pop    %rbp
    63e4:	c3                   	retq   

00000000000063e5 <safe_sub_func_double_f_f>:
    63e5:	f3 0f 1e fa          	endbr64 
    63e9:	55                   	push   %rbp
    63ea:	48 89 e5             	mov    %rsp,%rbp
    63ed:	f2 0f 11 45 f8       	movsd  %xmm0,-0x8(%rbp)
    63f2:	f2 0f 11 4d f0       	movsd  %xmm1,-0x10(%rbp)
    63f7:	f2 0f 10 4d f8       	movsd  -0x8(%rbp),%xmm1
    63fc:	f2 0f 10 05 0c a0 00 	movsd  0xa00c(%rip),%xmm0        # 10410 <l_361.4749+0x70>
    6403:	00 
    6404:	f2 0f 59 c1          	mulsd  %xmm1,%xmm0
    6408:	f2 0f 10 55 f0       	movsd  -0x10(%rbp),%xmm2
    640d:	f2 0f 10 0d fb 9f 00 	movsd  0x9ffb(%rip),%xmm1        # 10410 <l_361.4749+0x70>
    6414:	00 
    6415:	f2 0f 59 ca          	mulsd  %xmm2,%xmm1
    6419:	f2 0f 5c c1          	subsd  %xmm1,%xmm0
    641d:	f3 0f 7e 0d fb 9f 00 	movq   0x9ffb(%rip),%xmm1        # 10420 <l_361.4749+0x80>
    6424:	00 
    6425:	66 0f 54 c1          	andpd  %xmm1,%xmm0
    6429:	66 0f 2f 05 ff 9f 00 	comisd 0x9fff(%rip),%xmm0        # 10430 <l_361.4749+0x90>
    6430:	00 
    6431:	76 07                	jbe    643a <safe_sub_func_double_f_f+0x55>
    6433:	f2 0f 10 45 f8       	movsd  -0x8(%rbp),%xmm0
    6438:	eb 0a                	jmp    6444 <safe_sub_func_double_f_f+0x5f>
    643a:	f2 0f 10 45 f8       	movsd  -0x8(%rbp),%xmm0
    643f:	f2 0f 5c 45 f0       	subsd  -0x10(%rbp),%xmm0
    6444:	5d                   	pop    %rbp
    6445:	c3                   	retq   

0000000000006446 <safe_mul_func_double_f_f>:
    6446:	f3 0f 1e fa          	endbr64 
    644a:	55                   	push   %rbp
    644b:	48 89 e5             	mov    %rsp,%rbp
    644e:	f2 0f 11 45 f8       	movsd  %xmm0,-0x8(%rbp)
    6453:	f2 0f 11 4d f0       	movsd  %xmm1,-0x10(%rbp)
    6458:	f2 0f 10 4d f8       	movsd  -0x8(%rbp),%xmm1
    645d:	f2 0f 10 05 d3 9f 00 	movsd  0x9fd3(%rip),%xmm0        # 10438 <l_361.4749+0x98>
    6464:	00 
    6465:	f2 0f 59 c8          	mulsd  %xmm0,%xmm1
    6469:	f2 0f 10 55 f0       	movsd  -0x10(%rbp),%xmm2
    646e:	f2 0f 10 05 ca 9f 00 	movsd  0x9fca(%rip),%xmm0        # 10440 <l_361.4749+0xa0>
    6475:	00 
    6476:	f2 0f 59 c2          	mulsd  %xmm2,%xmm0
    647a:	f2 0f 59 c1          	mulsd  %xmm1,%xmm0
    647e:	f3 0f 7e 0d 9a 9f 00 	movq   0x9f9a(%rip),%xmm1        # 10420 <l_361.4749+0x80>
    6485:	00 
    6486:	66 0f 54 c1          	andpd  %xmm1,%xmm0
    648a:	66 0f 2f 05 b6 9f 00 	comisd 0x9fb6(%rip),%xmm0        # 10448 <l_361.4749+0xa8>
    6491:	00 
    6492:	76 07                	jbe    649b <safe_mul_func_double_f_f+0x55>
    6494:	f2 0f 10 45 f8       	movsd  -0x8(%rbp),%xmm0
    6499:	eb 0a                	jmp    64a5 <safe_mul_func_double_f_f+0x5f>
    649b:	f2 0f 10 45 f8       	movsd  -0x8(%rbp),%xmm0
    64a0:	f2 0f 59 45 f0       	mulsd  -0x10(%rbp),%xmm0
    64a5:	5d                   	pop    %rbp
    64a6:	c3                   	retq   

00000000000064a7 <safe_div_func_double_f_f>:
    64a7:	f3 0f 1e fa          	endbr64 
    64ab:	55                   	push   %rbp
    64ac:	48 89 e5             	mov    %rsp,%rbp
    64af:	f2 0f 11 45 f8       	movsd  %xmm0,-0x8(%rbp)
    64b4:	f2 0f 11 4d f0       	movsd  %xmm1,-0x10(%rbp)
    64b9:	f2 0f 10 45 f0       	movsd  -0x10(%rbp),%xmm0
    64be:	f3 0f 7e 0d 5a 9f 00 	movq   0x9f5a(%rip),%xmm1        # 10420 <l_361.4749+0x80>
    64c5:	00 
    64c6:	66 0f 54 c8          	andpd  %xmm0,%xmm1
    64ca:	f2 0f 10 05 7e 9f 00 	movsd  0x9f7e(%rip),%xmm0        # 10450 <l_361.4749+0xb0>
    64d1:	00 
    64d2:	66 0f 2f c1          	comisd %xmm1,%xmm0
    64d6:	0f 97 c0             	seta   %al
    64d9:	83 f0 01             	xor    $0x1,%eax
    64dc:	84 c0                	test   %al,%al
    64de:	75 5a                	jne    653a <safe_div_func_double_f_f+0x93>
    64e0:	66 0f ef c0          	pxor   %xmm0,%xmm0
    64e4:	66 0f 2e 45 f0       	ucomisd -0x10(%rbp),%xmm0
    64e9:	7a 0b                	jp     64f6 <safe_div_func_double_f_f+0x4f>
    64eb:	66 0f ef c0          	pxor   %xmm0,%xmm0
    64ef:	66 0f 2e 45 f0       	ucomisd -0x10(%rbp),%xmm0
    64f4:	74 50                	je     6546 <safe_div_func_double_f_f+0x9f>
    64f6:	f2 0f 10 4d f8       	movsd  -0x8(%rbp),%xmm1
    64fb:	f2 0f 10 05 55 9f 00 	movsd  0x9f55(%rip),%xmm0        # 10458 <l_361.4749+0xb8>
    6502:	00 
    6503:	f2 0f 59 c1          	mulsd  %xmm1,%xmm0
    6507:	f2 0f 10 55 f0       	movsd  -0x10(%rbp),%xmm2
    650c:	f2 0f 10 0d 4c 9f 00 	movsd  0x9f4c(%rip),%xmm1        # 10460 <l_361.4749+0xc0>
    6513:	00 
    6514:	f2 0f 59 ca          	mulsd  %xmm2,%xmm1
    6518:	f2 0f 5e c1          	divsd  %xmm1,%xmm0
    651c:	f3 0f 7e 0d fc 9e 00 	movq   0x9efc(%rip),%xmm1        # 10420 <l_361.4749+0x80>
    6523:	00 
    6524:	66 0f 54 c1          	andpd  %xmm1,%xmm0
    6528:	66 0f 2f 05 38 9f 00 	comisd 0x9f38(%rip),%xmm0        # 10468 <l_361.4749+0xc8>
    652f:	00 
    6530:	0f 97 c0             	seta   %al
    6533:	83 f0 01             	xor    $0x1,%eax
    6536:	84 c0                	test   %al,%al
    6538:	74 0c                	je     6546 <safe_div_func_double_f_f+0x9f>
    653a:	f2 0f 10 45 f8       	movsd  -0x8(%rbp),%xmm0
    653f:	f2 0f 5e 45 f0       	divsd  -0x10(%rbp),%xmm0
    6544:	eb 05                	jmp    654b <safe_div_func_double_f_f+0xa4>
    6546:	f2 0f 10 45 f8       	movsd  -0x8(%rbp),%xmm0
    654b:	5d                   	pop    %rbp
    654c:	c3                   	retq   

000000000000654d <safe_convert_func_float_to_int32_t>:
    654d:	f3 0f 1e fa          	endbr64 
    6551:	55                   	push   %rbp
    6552:	48 89 e5             	mov    %rsp,%rbp
    6555:	f3 0f 11 45 fc       	movss  %xmm0,-0x4(%rbp)
    655a:	f3 0f 10 05 0e 9f 00 	movss  0x9f0e(%rip),%xmm0        # 10470 <l_361.4749+0xd0>
    6561:	00 
    6562:	0f 2f 45 fc          	comiss -0x4(%rbp),%xmm0
    6566:	0f 93 c0             	setae  %al
    6569:	83 f0 01             	xor    $0x1,%eax
    656c:	84 c0                	test   %al,%al
    656e:	74 21                	je     6591 <safe_convert_func_float_to_int32_t+0x44>
    6570:	f3 0f 10 45 fc       	movss  -0x4(%rbp),%xmm0
    6575:	0f 2f 05 f8 9e 00 00 	comiss 0x9ef8(%rip),%xmm0        # 10474 <l_361.4749+0xd4>
    657c:	0f 93 c0             	setae  %al
    657f:	83 f0 01             	xor    $0x1,%eax
    6582:	84 c0                	test   %al,%al
    6584:	74 0b                	je     6591 <safe_convert_func_float_to_int32_t+0x44>
    6586:	f3 0f 10 45 fc       	movss  -0x4(%rbp),%xmm0
    658b:	f3 0f 2c c0          	cvttss2si %xmm0,%eax
    658f:	eb 05                	jmp    6596 <safe_convert_func_float_to_int32_t+0x49>
    6591:	b8 ff ff ff 7f       	mov    $0x7fffffff,%eax
    6596:	5d                   	pop    %rbp
    6597:	c3                   	retq   

0000000000006598 <crc32_gentab>:
    6598:	f3 0f 1e fa          	endbr64 
    659c:	55                   	push   %rbp
    659d:	48 89 e5             	mov    %rsp,%rbp
    65a0:	c7 45 fc 20 83 b8 ed 	movl   $0xedb88320,-0x4(%rbp)
    65a7:	c7 45 f4 00 00 00 00 	movl   $0x0,-0xc(%rbp)
    65ae:	eb 51                	jmp    6601 <crc32_gentab+0x69>
    65b0:	8b 45 f4             	mov    -0xc(%rbp),%eax
    65b3:	89 45 f0             	mov    %eax,-0x10(%rbp)
    65b6:	c7 45 f8 08 00 00 00 	movl   $0x8,-0x8(%rbp)
    65bd:	eb 1e                	jmp    65dd <crc32_gentab+0x45>
    65bf:	8b 45 f0             	mov    -0x10(%rbp),%eax
    65c2:	83 e0 01             	and    $0x1,%eax
    65c5:	85 c0                	test   %eax,%eax
    65c7:	74 0d                	je     65d6 <crc32_gentab+0x3e>
    65c9:	8b 45 f0             	mov    -0x10(%rbp),%eax
    65cc:	d1 e8                	shr    %eax
    65ce:	33 45 fc             	xor    -0x4(%rbp),%eax
    65d1:	89 45 f0             	mov    %eax,-0x10(%rbp)
    65d4:	eb 03                	jmp    65d9 <crc32_gentab+0x41>
    65d6:	d1 6d f0             	shrl   -0x10(%rbp)
    65d9:	83 6d f8 01          	subl   $0x1,-0x8(%rbp)
    65dd:	83 7d f8 00          	cmpl   $0x0,-0x8(%rbp)
    65e1:	7f dc                	jg     65bf <crc32_gentab+0x27>
    65e3:	8b 45 f4             	mov    -0xc(%rbp),%eax
    65e6:	48 98                	cltq   
    65e8:	48 8d 0c 85 00 00 00 	lea    0x0(,%rax,4),%rcx
    65ef:	00 
    65f0:	48 8d 15 a9 e7 00 00 	lea    0xe7a9(%rip),%rdx        # 14da0 <crc32_tab>
    65f7:	8b 45 f0             	mov    -0x10(%rbp),%eax
    65fa:	89 04 11             	mov    %eax,(%rcx,%rdx,1)
    65fd:	83 45 f4 01          	addl   $0x1,-0xc(%rbp)
    6601:	81 7d f4 ff 00 00 00 	cmpl   $0xff,-0xc(%rbp)
    6608:	7e a6                	jle    65b0 <crc32_gentab+0x18>
    660a:	90                   	nop
    660b:	90                   	nop
    660c:	5d                   	pop    %rbp
    660d:	c3                   	retq   

000000000000660e <crc32_byte>:
    660e:	f3 0f 1e fa          	endbr64 
    6612:	55                   	push   %rbp
    6613:	48 89 e5             	mov    %rsp,%rbp
    6616:	89 f8                	mov    %edi,%eax
    6618:	88 45 fc             	mov    %al,-0x4(%rbp)
    661b:	8b 05 ff c9 00 00    	mov    0xc9ff(%rip),%eax        # 13020 <crc32_context>
    6621:	c1 e8 08             	shr    $0x8,%eax
    6624:	89 c1                	mov    %eax,%ecx
    6626:	0f b6 55 fc          	movzbl -0x4(%rbp),%edx
    662a:	8b 05 f0 c9 00 00    	mov    0xc9f0(%rip),%eax        # 13020 <crc32_context>
    6630:	31 d0                	xor    %edx,%eax
    6632:	0f b6 c0             	movzbl %al,%eax
    6635:	89 c0                	mov    %eax,%eax
    6637:	48 8d 14 85 00 00 00 	lea    0x0(,%rax,4),%rdx
    663e:	00 
    663f:	48 8d 05 5a e7 00 00 	lea    0xe75a(%rip),%rax        # 14da0 <crc32_tab>
    6646:	8b 04 02             	mov    (%rdx,%rax,1),%eax
    6649:	31 c8                	xor    %ecx,%eax
    664b:	89 05 cf c9 00 00    	mov    %eax,0xc9cf(%rip)        # 13020 <crc32_context>
    6651:	90                   	nop
    6652:	5d                   	pop    %rbp
    6653:	c3                   	retq   

0000000000006654 <crc32_8bytes>:
    6654:	f3 0f 1e fa          	endbr64 
    6658:	55                   	push   %rbp
    6659:	48 89 e5             	mov    %rsp,%rbp
    665c:	48 83 ec 08          	sub    $0x8,%rsp
    6660:	48 89 7d f8          	mov    %rdi,-0x8(%rbp)
    6664:	48 8b 45 f8          	mov    -0x8(%rbp),%rax
    6668:	0f b6 c0             	movzbl %al,%eax
    666b:	89 c7                	mov    %eax,%edi
    666d:	e8 9c ff ff ff       	callq  660e <crc32_byte>
    6672:	48 8b 45 f8          	mov    -0x8(%rbp),%rax
    6676:	48 c1 e8 08          	shr    $0x8,%rax
    667a:	0f b6 c0             	movzbl %al,%eax
    667d:	89 c7                	mov    %eax,%edi
    667f:	e8 8a ff ff ff       	callq  660e <crc32_byte>
    6684:	48 8b 45 f8          	mov    -0x8(%rbp),%rax
    6688:	48 c1 e8 10          	shr    $0x10,%rax
    668c:	0f b6 c0             	movzbl %al,%eax
    668f:	89 c7                	mov    %eax,%edi
    6691:	e8 78 ff ff ff       	callq  660e <crc32_byte>
    6696:	48 8b 45 f8          	mov    -0x8(%rbp),%rax
    669a:	48 c1 e8 18          	shr    $0x18,%rax
    669e:	0f b6 c0             	movzbl %al,%eax
    66a1:	89 c7                	mov    %eax,%edi
    66a3:	e8 66 ff ff ff       	callq  660e <crc32_byte>
    66a8:	48 8b 45 f8          	mov    -0x8(%rbp),%rax
    66ac:	48 c1 e8 20          	shr    $0x20,%rax
    66b0:	0f b6 c0             	movzbl %al,%eax
    66b3:	89 c7                	mov    %eax,%edi
    66b5:	e8 54 ff ff ff       	callq  660e <crc32_byte>
    66ba:	48 8b 45 f8          	mov    -0x8(%rbp),%rax
    66be:	48 c1 e8 28          	shr    $0x28,%rax
    66c2:	0f b6 c0             	movzbl %al,%eax
    66c5:	89 c7                	mov    %eax,%edi
    66c7:	e8 42 ff ff ff       	callq  660e <crc32_byte>
    66cc:	48 8b 45 f8          	mov    -0x8(%rbp),%rax
    66d0:	48 c1 e8 30          	shr    $0x30,%rax
    66d4:	0f b6 c0             	movzbl %al,%eax
    66d7:	89 c7                	mov    %eax,%edi
    66d9:	e8 30 ff ff ff       	callq  660e <crc32_byte>
    66de:	48 8b 45 f8          	mov    -0x8(%rbp),%rax
    66e2:	48 c1 e8 38          	shr    $0x38,%rax
    66e6:	0f b6 c0             	movzbl %al,%eax
    66e9:	89 c7                	mov    %eax,%edi
    66eb:	e8 1e ff ff ff       	callq  660e <crc32_byte>
    66f0:	90                   	nop
    66f1:	c9                   	leaveq 
    66f2:	c3                   	retq   

00000000000066f3 <transparent_crc>:
    66f3:	f3 0f 1e fa          	endbr64 
    66f7:	55                   	push   %rbp
    66f8:	48 89 e5             	mov    %rsp,%rbp
    66fb:	48 83 ec 20          	sub    $0x20,%rsp
    66ff:	48 89 7d f8          	mov    %rdi,-0x8(%rbp)
    6703:	48 89 75 f0          	mov    %rsi,-0x10(%rbp)
    6707:	89 55 ec             	mov    %edx,-0x14(%rbp)
    670a:	48 8b 45 f8          	mov    -0x8(%rbp),%rax
    670e:	48 89 c7             	mov    %rax,%rdi
    6711:	e8 3e ff ff ff       	callq  6654 <crc32_8bytes>
    6716:	83 7d ec 00          	cmpl   $0x0,-0x14(%rbp)
    671a:	74 22                	je     673e <transparent_crc+0x4b>
    671c:	8b 05 fe c8 00 00    	mov    0xc8fe(%rip),%eax        # 13020 <crc32_context>
    6722:	f7 d0                	not    %eax
    6724:	89 c2                	mov    %eax,%edx
    6726:	48 8b 45 f0          	mov    -0x10(%rbp),%rax
    672a:	48 89 c6             	mov    %rax,%rsi
    672d:	48 8d 3d fc 78 00 00 	lea    0x78fc(%rip),%rdi        # e030 <_IO_stdin_used+0x30>
    6734:	b8 00 00 00 00       	mov    $0x0,%eax
    6739:	e8 42 e9 ff ff       	callq  5080 <printf@plt>
    673e:	90                   	nop
    673f:	c9                   	leaveq 
    6740:	c3                   	retq   

0000000000006741 <transparent_crc_bytes>:
    6741:	f3 0f 1e fa          	endbr64 
    6745:	55                   	push   %rbp
    6746:	48 89 e5             	mov    %rsp,%rbp
    6749:	48 83 ec 30          	sub    $0x30,%rsp
    674d:	48 89 7d e8          	mov    %rdi,-0x18(%rbp)
    6751:	89 75 e4             	mov    %esi,-0x1c(%rbp)
    6754:	48 89 55 d8          	mov    %rdx,-0x28(%rbp)
    6758:	89 4d e0             	mov    %ecx,-0x20(%rbp)
    675b:	c7 45 fc 00 00 00 00 	movl   $0x0,-0x4(%rbp)
    6762:	eb 1e                	jmp    6782 <transparent_crc_bytes+0x41>
    6764:	8b 45 fc             	mov    -0x4(%rbp),%eax
    6767:	48 63 d0             	movslq %eax,%rdx
    676a:	48 8b 45 e8          	mov    -0x18(%rbp),%rax
    676e:	48 01 d0             	add    %rdx,%rax
    6771:	0f b6 00             	movzbl (%rax),%eax
    6774:	0f b6 c0             	movzbl %al,%eax
    6777:	89 c7                	mov    %eax,%edi
    6779:	e8 90 fe ff ff       	callq  660e <crc32_byte>
    677e:	83 45 fc 01          	addl   $0x1,-0x4(%rbp)
    6782:	8b 45 fc             	mov    -0x4(%rbp),%eax
    6785:	3b 45 e4             	cmp    -0x1c(%rbp),%eax
    6788:	7c da                	jl     6764 <transparent_crc_bytes+0x23>
    678a:	83 7d e0 00          	cmpl   $0x0,-0x20(%rbp)
    678e:	74 22                	je     67b2 <transparent_crc_bytes+0x71>
    6790:	8b 05 8a c8 00 00    	mov    0xc88a(%rip),%eax        # 13020 <crc32_context>
    6796:	f7 d0                	not    %eax
    6798:	89 c2                	mov    %eax,%edx
    679a:	48 8b 45 d8          	mov    -0x28(%rbp),%rax
    679e:	48 89 c6             	mov    %rax,%rsi
    67a1:	48 8d 3d 88 78 00 00 	lea    0x7888(%rip),%rdi        # e030 <_IO_stdin_used+0x30>
    67a8:	b8 00 00 00 00       	mov    $0x0,%eax
    67ad:	e8 ce e8 ff ff       	callq  5080 <printf@plt>
    67b2:	90                   	nop
    67b3:	c9                   	leaveq 
    67b4:	c3                   	retq   

00000000000067b5 <func_1>:
    67b5:	f3 0f 1e fa          	endbr64 
    67b9:	55                   	push   %rbp
    67ba:	48 89 e5             	mov    %rsp,%rbp
    67bd:	48 81 ec 20 04 00 00 	sub    $0x420,%rsp
    67c4:	64 48 8b 04 25 28 00 	mov    %fs:0x28,%rax
    67cb:	00 00 
    67cd:	48 89 45 f8          	mov    %rax,-0x8(%rbp)
    67d1:	31 c0                	xor    %eax,%eax
    67d3:	c7 85 90 fc ff ff 00 	movl   $0x0,-0x370(%rbp)
    67da:	00 00 00 
    67dd:	c7 85 94 fc ff ff 00 	movl   $0x0,-0x36c(%rbp)
    67e4:	00 00 00 
    67e7:	c7 85 98 fc ff ff 00 	movl   $0x0,-0x368(%rbp)
    67ee:	00 00 00 
    67f1:	c7 85 9c fc ff ff 00 	movl   $0x0,-0x364(%rbp)
    67f8:	00 00 00 
    67fb:	c7 85 a0 fc ff ff 00 	movl   $0x0,-0x360(%rbp)
    6802:	00 00 00 
    6805:	c7 85 a4 fc ff ff 00 	movl   $0x0,-0x35c(%rbp)
    680c:	00 00 00 
    680f:	48 b8 05 72 b8 07 c0 	movabs $0x419ec9c007b87205,%rax
    6816:	c9 9e 41 
    6819:	48 89 85 50 fc ff ff 	mov    %rax,-0x3b0(%rbp)
    6820:	c7 85 fc fb ff ff fb 	movl   $0xfffffffb,-0x404(%rbp)
    6827:	ff ff ff 
    682a:	48 8d 05 63 c9 00 00 	lea    0xc963(%rip),%rax        # 13194 <g_91+0x14>
    6831:	48 89 85 58 fc ff ff 	mov    %rax,-0x3a8(%rbp)
    6838:	66 c7 85 e8 fb ff ff 	movw   $0xee5b,-0x418(%rbp)
    683f:	5b ee 
    6841:	48 b8 9d 6e 0a df 2f 	movabs $0x6932bc2fdf0a6e9d,%rax
    6848:	bc 32 69 
    684b:	48 89 85 90 fd ff ff 	mov    %rax,-0x270(%rbp)
    6852:	48 c7 85 98 fd ff ff 	movq   $0xffffffffffffffff,-0x268(%rbp)
    6859:	ff ff ff ff 
    685d:	48 c7 85 a0 fd ff ff 	movq   $0x7,-0x260(%rbp)
    6864:	07 00 00 00 
    6868:	48 c7 85 a8 fd ff ff 	movq   $0x1,-0x258(%rbp)
    686f:	01 00 00 00 
    6873:	48 c7 85 b0 fd ff ff 	movq   $0x7,-0x250(%rbp)
    687a:	07 00 00 00 
    687e:	48 c7 85 b8 fd ff ff 	movq   $0xffffffffffffffff,-0x248(%rbp)
    6885:	ff ff ff ff 
    6889:	48 89 85 c0 fd ff ff 	mov    %rax,-0x240(%rbp)
    6890:	48 89 85 c8 fd ff ff 	mov    %rax,-0x238(%rbp)
    6897:	48 c7 85 d0 fd ff ff 	movq   $0xffffffffffffffff,-0x230(%rbp)
    689e:	ff ff ff ff 
    68a2:	48 c7 85 d8 fd ff ff 	movq   $0x7,-0x228(%rbp)
    68a9:	07 00 00 00 
    68ad:	48 c7 85 e0 fd ff ff 	movq   $0x1,-0x220(%rbp)
    68b4:	01 00 00 00 
    68b8:	48 c7 85 e8 fd ff ff 	movq   $0x7,-0x218(%rbp)
    68bf:	07 00 00 00 
    68c3:	48 c7 85 f0 fd ff ff 	movq   $0xffffffffffffffff,-0x210(%rbp)
    68ca:	ff ff ff ff 
    68ce:	48 89 85 f8 fd ff ff 	mov    %rax,-0x208(%rbp)
    68d5:	48 8d 05 68 c8 00 00 	lea    0xc868(%rip),%rax        # 13144 <g_89+0x4>
    68dc:	48 89 85 30 fc ff ff 	mov    %rax,-0x3d0(%rbp)
    68e3:	48 8d 85 30 fc ff ff 	lea    -0x3d0(%rbp),%rax
    68ea:	48 89 85 60 fc ff ff 	mov    %rax,-0x3a0(%rbp)
    68f1:	c7 85 00 fc ff ff df 	movl   $0x8c8dcbdf,-0x400(%rbp)
    68f8:	cb 8d 8c 
    68fb:	c7 85 04 fc ff ff 8b 	movl   $0x9002378b,-0x3fc(%rbp)
    6902:	37 02 90 
    6905:	c7 85 08 fc ff ff 08 	movl   $0x8,-0x3f8(%rbp)
    690c:	00 00 00 
    690f:	66 c7 85 ea fb ff ff 	movw   $0x3bae,-0x416(%rbp)
    6916:	ae 3b 
    6918:	66 c7 85 e0 fc ff ff 	movw   $0xfff8,-0x320(%rbp)
    691f:	f8 ff 
    6921:	66 c7 85 e2 fc ff ff 	movw   $0x0,-0x31e(%rbp)
    6928:	00 00 
    692a:	66 c7 85 e4 fc ff ff 	movw   $0xdb66,-0x31c(%rbp)
    6931:	66 db 
    6933:	66 c7 85 e6 fc ff ff 	movw   $0xc5e2,-0x31a(%rbp)
    693a:	e2 c5 
    693c:	66 c7 85 e8 fc ff ff 	movw   $0xdb66,-0x318(%rbp)
    6943:	66 db 
    6945:	66 c7 85 ea fc ff ff 	movw   $0x0,-0x316(%rbp)
    694c:	00 00 
    694e:	66 c7 85 ec fc ff ff 	movw   $0xfff8,-0x314(%rbp)
    6955:	f8 ff 
    6957:	66 c7 85 ee fc ff ff 	movw   $0xfff8,-0x312(%rbp)
    695e:	f8 ff 
    6960:	66 c7 85 f0 fc ff ff 	movw   $0x0,-0x310(%rbp)
    6967:	00 00 
    6969:	66 c7 85 f2 fc ff ff 	movw   $0xc5e2,-0x30e(%rbp)
    6970:	e2 c5 
    6972:	66 c7 85 f4 fc ff ff 	movw   $0x0,-0x30c(%rbp)
    6979:	00 00 
    697b:	66 c7 85 f6 fc ff ff 	movw   $0xdb5d,-0x30a(%rbp)
    6982:	5d db 
    6984:	66 c7 85 f8 fc ff ff 	movw   $0x0,-0x308(%rbp)
    698b:	00 00 
    698d:	66 c7 85 fa fc ff ff 	movw   $0xc5e2,-0x306(%rbp)
    6994:	e2 c5 
    6996:	66 c7 85 fc fc ff ff 	movw   $0xfde3,-0x304(%rbp)
    699d:	e3 fd 
    699f:	66 c7 85 fe fc ff ff 	movw   $0xfde3,-0x302(%rbp)
    69a6:	e3 fd 
    69a8:	66 c7 85 00 fd ff ff 	movw   $0xc5e2,-0x300(%rbp)
    69af:	e2 c5 
    69b1:	66 c7 85 02 fd ff ff 	movw   $0x0,-0x2fe(%rbp)
    69b8:	00 00 
    69ba:	66 c7 85 04 fd ff ff 	movw   $0xfff8,-0x2fc(%rbp)
    69c1:	f8 ff 
    69c3:	66 c7 85 06 fd ff ff 	movw   $0xdb66,-0x2fa(%rbp)
    69ca:	66 db 
    69cc:	66 c7 85 08 fd ff ff 	movw   $0xfff8,-0x2f8(%rbp)
    69d3:	f8 ff 
    69d5:	66 c7 85 0a fd ff ff 	movw   $0xfde3,-0x2f6(%rbp)
    69dc:	e3 fd 
    69de:	66 c7 85 0c fd ff ff 	movw   $0xdb5d,-0x2f4(%rbp)
    69e5:	5d db 
    69e7:	66 c7 85 0e fd ff ff 	movw   $0xdb5d,-0x2f2(%rbp)
    69ee:	5d db 
    69f0:	66 c7 85 10 fd ff ff 	movw   $0xfde3,-0x2f0(%rbp)
    69f7:	e3 fd 
    69f9:	66 c7 85 12 fd ff ff 	movw   $0xfff8,-0x2ee(%rbp)
    6a00:	f8 ff 
    6a02:	66 c7 85 14 fd ff ff 	movw   $0xdb66,-0x2ec(%rbp)
    6a09:	66 db 
    6a0b:	66 c7 85 16 fd ff ff 	movw   $0xdb66,-0x2ea(%rbp)
    6a12:	66 db 
    6a14:	66 c7 85 18 fd ff ff 	movw   $0xfff8,-0x2e8(%rbp)
    6a1b:	f8 ff 
    6a1d:	66 c7 85 1a fd ff ff 	movw   $0xfde3,-0x2e6(%rbp)
    6a24:	e3 fd 
    6a26:	66 c7 85 1c fd ff ff 	movw   $0xdb5d,-0x2e4(%rbp)
    6a2d:	5d db 
    6a2f:	66 c7 85 1e fd ff ff 	movw   $0xdb5d,-0x2e2(%rbp)
    6a36:	5d db 
    6a38:	66 c7 85 20 fd ff ff 	movw   $0xfde3,-0x2e0(%rbp)
    6a3f:	e3 fd 
    6a41:	66 c7 85 22 fd ff ff 	movw   $0xfff8,-0x2de(%rbp)
    6a48:	f8 ff 
    6a4a:	66 c7 85 24 fd ff ff 	movw   $0xdb66,-0x2dc(%rbp)
    6a51:	66 db 
    6a53:	66 c7 85 26 fd ff ff 	movw   $0xfff8,-0x2da(%rbp)
    6a5a:	f8 ff 
    6a5c:	c7 85 0c fc ff ff 00 	movl   $0x0,-0x3f4(%rbp)
    6a63:	00 00 00 
    6a66:	c7 85 f0 fb ff ff 00 	movl   $0x0,-0x410(%rbp)
    6a6d:	00 00 00 
    6a70:	eb 1e                	jmp    6a90 <func_1+0x2db>
    6a72:	8b 85 f0 fb ff ff    	mov    -0x410(%rbp),%eax
    6a78:	48 98                	cltq   
    6a7a:	48 8d 15 b3 c5 00 00 	lea    0xc5b3(%rip),%rdx        # 13034 <g_6>
    6a81:	48 89 94 c5 b0 fc ff 	mov    %rdx,-0x350(%rbp,%rax,8)
    6a88:	ff 
    6a89:	83 85 f0 fb ff ff 01 	addl   $0x1,-0x410(%rbp)
    6a90:	83 bd f0 fb ff ff 04 	cmpl   $0x4,-0x410(%rbp)
    6a97:	7e d9                	jle    6a72 <func_1+0x2bd>
    6a99:	c7 05 85 c5 00 00 07 	movl   $0x7,0xc585(%rip)        # 13028 <g_2>
    6aa0:	00 00 00 
    6aa3:	e9 e5 03 00 00       	jmpq   6e8d <func_1+0x6d8>
    6aa8:	c7 85 10 fc ff ff 54 	movl   $0x3069be54,-0x3f0(%rbp)
    6aaf:	be 69 30 
    6ab2:	66 c7 85 30 fd ff ff 	movw   $0xcd09,-0x2d0(%rbp)
    6ab9:	09 cd 
    6abb:	66 c7 85 32 fd ff ff 	movw   $0xcd09,-0x2ce(%rbp)
    6ac2:	09 cd 
    6ac4:	66 c7 85 34 fd ff ff 	movw   $0x0,-0x2cc(%rbp)
    6acb:	00 00 
    6acd:	66 c7 85 36 fd ff ff 	movw   $0x9cd,-0x2ca(%rbp)
    6ad4:	cd 09 
    6ad6:	66 c7 85 38 fd ff ff 	movw   $0x9cd,-0x2c8(%rbp)
    6add:	cd 09 
    6adf:	66 c7 85 3a fd ff ff 	movw   $0xcd,-0x2c6(%rbp)
    6ae6:	cd 00 
    6ae8:	66 c7 85 3c fd ff ff 	movw   $0xcd00,-0x2c4(%rbp)
    6aef:	00 cd 
    6af1:	66 c7 85 3e fd ff ff 	movw   $0xcd09,-0x2c2(%rbp)
    6af8:	09 cd 
    6afa:	66 c7 85 40 fd ff ff 	movw   $0xcd09,-0x2c0(%rbp)
    6b01:	09 cd 
    6b03:	66 c7 85 42 fd ff ff 	movw   $0x5f5f,-0x2be(%rbp)
    6b0a:	5f 5f 
    6b0c:	66 c7 85 44 fd ff ff 	movw   $0xcdcd,-0x2bc(%rbp)
    6b13:	cd cd 
    6b15:	66 c7 85 46 fd ff ff 	movw   $0xcdbd,-0x2ba(%rbp)
    6b1c:	bd cd 
    6b1e:	66 c7 85 48 fd ff ff 	movw   $0x5fcd,-0x2b8(%rbp)
    6b25:	cd 5f 
    6b27:	66 c7 85 4a fd ff ff 	movw   $0xcd5f,-0x2b6(%rbp)
    6b2e:	5f cd 
    6b30:	66 c7 85 4c fd ff ff 	movw   $0xbdcd,-0x2b4(%rbp)
    6b37:	cd bd 
    6b39:	66 c7 85 4e fd ff ff 	movw   $0xcdcd,-0x2b2(%rbp)
    6b40:	cd cd 
    6b42:	66 c7 85 50 fd ff ff 	movw   $0x5f5f,-0x2b0(%rbp)
    6b49:	5f 5f 
    6b4b:	66 c7 85 52 fd ff ff 	movw   $0xcdcd,-0x2ae(%rbp)
    6b52:	cd cd 
    6b54:	66 c7 85 54 fd ff ff 	movw   $0xcdbd,-0x2ac(%rbp)
    6b5b:	bd cd 
    6b5d:	66 c7 85 56 fd ff ff 	movw   $0x5fcd,-0x2aa(%rbp)
    6b64:	cd 5f 
    6b66:	66 c7 85 58 fd ff ff 	movw   $0xcd5f,-0x2a8(%rbp)
    6b6d:	5f cd 
    6b6f:	66 c7 85 5a fd ff ff 	movw   $0xbdcd,-0x2a6(%rbp)
    6b76:	cd bd 
    6b78:	66 c7 85 5c fd ff ff 	movw   $0xcdcd,-0x2a4(%rbp)
    6b7f:	cd cd 
    6b81:	66 c7 85 5e fd ff ff 	movw   $0x5f5f,-0x2a2(%rbp)
    6b88:	5f 5f 
    6b8a:	66 c7 85 60 fd ff ff 	movw   $0xcdcd,-0x2a0(%rbp)
    6b91:	cd cd 
    6b93:	66 c7 85 62 fd ff ff 	movw   $0xcdbd,-0x29e(%rbp)
    6b9a:	bd cd 
    6b9c:	66 c7 85 64 fd ff ff 	movw   $0x5fcd,-0x29c(%rbp)
    6ba3:	cd 5f 
    6ba5:	66 c7 85 66 fd ff ff 	movw   $0xcd5f,-0x29a(%rbp)
    6bac:	5f cd 
    6bae:	66 c7 85 68 fd ff ff 	movw   $0xbdcd,-0x298(%rbp)
    6bb5:	cd bd 
    6bb7:	66 c7 85 6a fd ff ff 	movw   $0xcdcd,-0x296(%rbp)
    6bbe:	cd cd 
    6bc0:	66 c7 85 6c fd ff ff 	movw   $0x5f5f,-0x294(%rbp)
    6bc7:	5f 5f 
    6bc9:	66 c7 85 6e fd ff ff 	movw   $0xcdcd,-0x292(%rbp)
    6bd0:	cd cd 
    6bd2:	66 c7 85 70 fd ff ff 	movw   $0xcdbd,-0x290(%rbp)
    6bd9:	bd cd 
    6bdb:	66 c7 85 72 fd ff ff 	movw   $0x5fcd,-0x28e(%rbp)
    6be2:	cd 5f 
    6be4:	66 c7 85 74 fd ff ff 	movw   $0xcd5f,-0x28c(%rbp)
    6beb:	5f cd 
    6bed:	66 c7 85 76 fd ff ff 	movw   $0xbdcd,-0x28a(%rbp)
    6bf4:	cd bd 
    6bf6:	66 c7 85 78 fd ff ff 	movw   $0xcdcd,-0x288(%rbp)
    6bfd:	cd cd 
    6bff:	66 c7 85 7a fd ff ff 	movw   $0x5f5f,-0x286(%rbp)
    6c06:	5f 5f 
    6c08:	66 c7 85 7c fd ff ff 	movw   $0xcdcd,-0x284(%rbp)
    6c0f:	cd cd 
    6c11:	66 c7 85 7e fd ff ff 	movw   $0xcdbd,-0x282(%rbp)
    6c18:	bd cd 
    6c1a:	66 c7 85 80 fd ff ff 	movw   $0x5fcd,-0x280(%rbp)
    6c21:	cd 5f 
    6c23:	66 c7 85 82 fd ff ff 	movw   $0xcd5f,-0x27e(%rbp)
    6c2a:	5f cd 
    6c2c:	66 c7 85 84 fd ff ff 	movw   $0xbdcd,-0x27c(%rbp)
    6c33:	cd bd 
    6c35:	66 c7 85 86 fd ff ff 	movw   $0xcdcd,-0x27a(%rbp)
    6c3c:	cd cd 
    6c3e:	66 c7 85 88 fd ff ff 	movw   $0x5f5f,-0x278(%rbp)
    6c45:	5f 5f 
    6c47:	48 c7 85 68 fc ff ff 	movq   $0x0,-0x398(%rbp)
    6c4e:	00 00 00 00 
    6c52:	c7 85 14 fc ff ff ed 	movl   $0xf13ef4ed,-0x3ec(%rbp)
    6c59:	f4 3e f1 
    6c5c:	c7 85 18 fc ff ff f6 	movl   $0xfffffff6,-0x3e8(%rbp)
    6c63:	ff ff ff 
    6c66:	66 c7 85 ec fb ff ff 	movw   $0x1,-0x414(%rbp)
    6c6d:	01 00 
    6c6f:	c7 85 1c fc ff ff 02 	movl   $0x2,-0x3e4(%rbp)
    6c76:	00 00 00 
    6c79:	c7 85 20 fc ff ff 01 	movl   $0x1,-0x3e0(%rbp)
    6c80:	00 00 00 
    6c83:	48 c7 85 38 fc ff ff 	movq   $0x0,-0x3c8(%rbp)
    6c8a:	00 00 00 00 
    6c8e:	48 8d 85 38 fc ff ff 	lea    -0x3c8(%rbp),%rax
    6c95:	48 89 85 70 fc ff ff 	mov    %rax,-0x390(%rbp)
    6c9c:	48 8d 05 45 c5 00 00 	lea    0xc545(%rip),%rax        # 131e8 <g_535>
    6ca3:	48 89 85 00 fe ff ff 	mov    %rax,-0x200(%rbp)
    6caa:	48 8d 05 93 c4 00 00 	lea    0xc493(%rip),%rax        # 13144 <g_89+0x4>
    6cb1:	48 89 85 08 fe ff ff 	mov    %rax,-0x1f8(%rbp)
    6cb8:	48 8d 05 99 c4 00 00 	lea    0xc499(%rip),%rax        # 13158 <g_89+0x18>
    6cbf:	48 89 85 10 fe ff ff 	mov    %rax,-0x1f0(%rbp)
    6cc6:	48 8d 05 77 c4 00 00 	lea    0xc477(%rip),%rax        # 13144 <g_89+0x4>
    6ccd:	48 89 85 18 fe ff ff 	mov    %rax,-0x1e8(%rbp)
    6cd4:	48 8d 05 7d c4 00 00 	lea    0xc47d(%rip),%rax        # 13158 <g_89+0x18>
    6cdb:	48 89 85 20 fe ff ff 	mov    %rax,-0x1e0(%rbp)
    6ce2:	48 8d 05 6f c4 00 00 	lea    0xc46f(%rip),%rax        # 13158 <g_89+0x18>
    6ce9:	48 89 85 28 fe ff ff 	mov    %rax,-0x1d8(%rbp)
    6cf0:	48 8d 05 61 c4 00 00 	lea    0xc461(%rip),%rax        # 13158 <g_89+0x18>
    6cf7:	48 89 85 30 fe ff ff 	mov    %rax,-0x1d0(%rbp)
    6cfe:	48 8d 05 e3 c4 00 00 	lea    0xc4e3(%rip),%rax        # 131e8 <g_535>
    6d05:	48 89 85 38 fe ff ff 	mov    %rax,-0x1c8(%rbp)
    6d0c:	48 8d 05 31 c4 00 00 	lea    0xc431(%rip),%rax        # 13144 <g_89+0x4>
    6d13:	48 89 85 40 fe ff ff 	mov    %rax,-0x1c0(%rbp)
    6d1a:	48 c7 85 48 fe ff ff 	movq   $0x0,-0x1b8(%rbp)
    6d21:	00 00 00 00 
    6d25:	48 8d 05 18 c4 00 00 	lea    0xc418(%rip),%rax        # 13144 <g_89+0x4>
    6d2c:	48 89 85 50 fe ff ff 	mov    %rax,-0x1b0(%rbp)
    6d33:	48 8d 05 ae c4 00 00 	lea    0xc4ae(%rip),%rax        # 131e8 <g_535>
    6d3a:	48 89 85 58 fe ff ff 	mov    %rax,-0x1a8(%rbp)
    6d41:	48 8d 05 a0 c4 00 00 	lea    0xc4a0(%rip),%rax        # 131e8 <g_535>
    6d48:	48 89 85 60 fe ff ff 	mov    %rax,-0x1a0(%rbp)
    6d4f:	48 8d 05 ee c3 00 00 	lea    0xc3ee(%rip),%rax        # 13144 <g_89+0x4>
    6d56:	48 89 85 68 fe ff ff 	mov    %rax,-0x198(%rbp)
    6d5d:	48 8d 05 f4 c3 00 00 	lea    0xc3f4(%rip),%rax        # 13158 <g_89+0x18>
    6d64:	48 89 85 70 fe ff ff 	mov    %rax,-0x190(%rbp)
    6d6b:	48 8d 05 d2 c3 00 00 	lea    0xc3d2(%rip),%rax        # 13144 <g_89+0x4>
    6d72:	48 89 85 78 fe ff ff 	mov    %rax,-0x188(%rbp)
    6d79:	48 8d 05 c4 c3 00 00 	lea    0xc3c4(%rip),%rax        # 13144 <g_89+0x4>
    6d80:	48 89 85 80 fe ff ff 	mov    %rax,-0x180(%rbp)
    6d87:	48 c7 85 88 fe ff ff 	movq   $0x0,-0x178(%rbp)
    6d8e:	00 00 00 00 
    6d92:	48 c7 85 90 fe ff ff 	movq   $0x0,-0x170(%rbp)
    6d99:	00 00 00 00 
    6d9d:	48 8d 05 a0 c3 00 00 	lea    0xc3a0(%rip),%rax        # 13144 <g_89+0x4>
    6da4:	48 89 85 98 fe ff ff 	mov    %rax,-0x168(%rbp)
    6dab:	c7 85 24 fc ff ff 15 	movl   $0xd352fe15,-0x3dc(%rbp)
    6db2:	fe 52 d3 
    6db5:	c7 85 28 fc ff ff 03 	movl   $0x173ce903,-0x3d8(%rbp)
    6dbc:	e9 3c 17 
    6dbf:	66 c7 85 ee fb ff ff 	movw   $0x3,-0x412(%rbp)
    6dc6:	03 00 
    6dc8:	c7 85 2c fc ff ff eb 	movl   $0x30a04ceb,-0x3d4(%rbp)
    6dcf:	4c a0 30 
    6dd2:	48 8d 85 a0 fe ff ff 	lea    -0x160(%rbp),%rax
    6dd9:	48 8d 15 a0 72 00 00 	lea    0x72a0(%rip),%rdx        # e080 <g_1282+0x20>
    6de0:	b9 2a 00 00 00       	mov    $0x2a,%ecx
    6de5:	48 89 c7             	mov    %rax,%rdi
    6de8:	48 89 d6             	mov    %rdx,%rsi
    6deb:	f3 48 a5             	rep movsq %ds:(%rsi),%es:(%rdi)
    6dee:	c6 85 e6 fb ff ff fb 	movb   $0xfb,-0x41a(%rbp)
    6df5:	c6 85 e7 fb ff ff f5 	movb   $0xf5,-0x419(%rbp)
    6dfc:	48 8d 05 ed dc 00 00 	lea    0xdced(%rip),%rax        # 14af0 <g_581>
    6e03:	48 89 85 40 fc ff ff 	mov    %rax,-0x3c0(%rbp)
    6e0a:	48 8d 85 40 fc ff ff 	lea    -0x3c0(%rbp),%rax
    6e11:	48 89 85 48 fc ff ff 	mov    %rax,-0x3b8(%rbp)
    6e18:	48 8d 85 48 fc ff ff 	lea    -0x3b8(%rbp),%rax
    6e1f:	48 89 85 78 fc ff ff 	mov    %rax,-0x388(%rbp)
    6e26:	c7 85 f4 fb ff ff 00 	movl   $0x0,-0x40c(%rbp)
    6e2d:	00 00 00 
    6e30:	eb 43                	jmp    6e75 <func_1+0x6c0>
    6e32:	c7 85 f8 fb ff ff 00 	movl   $0x0,-0x408(%rbp)
    6e39:	00 00 00 
    6e3c:	eb 27                	jmp    6e65 <func_1+0x6b0>
    6e3e:	8b 85 f8 fb ff ff    	mov    -0x408(%rbp),%eax
    6e44:	48 63 d0             	movslq %eax,%rdx
    6e47:	8b 85 f4 fb ff ff    	mov    -0x40c(%rbp),%eax
    6e4d:	48 98                	cltq   
    6e4f:	48 01 d0             	add    %rdx,%rax
    6e52:	48 c7 84 c5 80 fc ff 	movq   $0x0,-0x380(%rbp,%rax,8)
    6e59:	ff 00 00 00 00 
    6e5e:	83 85 f8 fb ff ff 01 	addl   $0x1,-0x408(%rbp)
    6e65:	83 bd f8 fb ff ff 00 	cmpl   $0x0,-0x408(%rbp)
    6e6c:	7e d0                	jle    6e3e <func_1+0x689>
    6e6e:	83 85 f4 fb ff ff 01 	addl   $0x1,-0x40c(%rbp)
    6e75:	83 bd f4 fb ff ff 01 	cmpl   $0x1,-0x40c(%rbp)
    6e7c:	7e b4                	jle    6e32 <func_1+0x67d>
    6e7e:	8b 05 a4 c1 00 00    	mov    0xc1a4(%rip),%eax        # 13028 <g_2>
    6e84:	83 e8 01             	sub    $0x1,%eax
    6e87:	89 05 9b c1 00 00    	mov    %eax,0xc19b(%rip)        # 13028 <g_2>
    6e8d:	8b 05 95 c1 00 00    	mov    0xc195(%rip),%eax        # 13028 <g_2>
    6e93:	83 f8 e2             	cmp    $0xffffffe2,%eax
    6e96:	0f 8d 0c fc ff ff    	jge    6aa8 <func_1+0x2f3>
    6e9c:	66 83 ad ea fb ff ff 	subw   $0x1,-0x416(%rbp)
    6ea3:	01 
    6ea4:	0f b7 85 08 fd ff ff 	movzwl -0x2f8(%rbp),%eax
    6eab:	83 c0 01             	add    $0x1,%eax
    6eae:	66 89 85 08 fd ff ff 	mov    %ax,-0x2f8(%rbp)
    6eb5:	8b 85 0c fc ff ff    	mov    -0x3f4(%rbp),%eax
    6ebb:	48 8b 4d f8          	mov    -0x8(%rbp),%rcx
    6ebf:	64 48 33 0c 25 28 00 	xor    %fs:0x28,%rcx
    6ec6:	00 00 
    6ec8:	74 05                	je     6ecf <func_1+0x71a>
    6eca:	e8 a1 e1 ff ff       	callq  5070 <__stack_chk_fail@plt>
    6ecf:	c9                   	leaveq 
    6ed0:	c3                   	retq   

0000000000006ed1 <func_8>:
    6ed1:	f3 0f 1e fa          	endbr64 
    6ed5:	55                   	push   %rbp
    6ed6:	48 89 e5             	mov    %rsp,%rbp
    6ed9:	41 57                	push   %r15
    6edb:	41 56                	push   %r14
    6edd:	41 55                	push   %r13
    6edf:	41 54                	push   %r12
    6ee1:	53                   	push   %rbx
    6ee2:	48 81 ec 00 10 00 00 	sub    $0x1000,%rsp
    6ee9:	48 83 0c 24 00       	orq    $0x0,(%rsp)
    6eee:	48 81 ec 00 10 00 00 	sub    $0x1000,%rsp
    6ef5:	48 83 0c 24 00       	orq    $0x0,(%rsp)
    6efa:	48 81 ec 78 08 00 00 	sub    $0x878,%rsp
    6f01:	48 89 bd 88 d7 ff ff 	mov    %rdi,-0x2878(%rbp)
    6f08:	89 f0                	mov    %esi,%eax
    6f0a:	48 89 95 78 d7 ff ff 	mov    %rdx,-0x2888(%rbp)
    6f11:	48 89 8d 70 d7 ff ff 	mov    %rcx,-0x2890(%rbp)
    6f18:	4c 89 85 68 d7 ff ff 	mov    %r8,-0x2898(%rbp)
    6f1f:	66 89 85 84 d7 ff ff 	mov    %ax,-0x287c(%rbp)
    6f26:	64 48 8b 04 25 28 00 	mov    %fs:0x28,%rax
    6f2d:	00 00 
    6f2f:	48 89 45 c8          	mov    %rax,-0x38(%rbp)
    6f33:	31 c0                	xor    %eax,%eax
    6f35:	c6 85 a1 d7 ff ff 51 	movb   $0x51,-0x285f(%rbp)
    6f3c:	48 8d 05 ad db 00 00 	lea    0xdbad(%rip),%rax        # 14af0 <g_581>
    6f43:	48 89 85 10 d9 ff ff 	mov    %rax,-0x26f0(%rbp)
    6f4a:	c7 85 f4 d7 ff ff 00 	movl   $0x0,-0x280c(%rbp)
    6f51:	00 00 00 
    6f54:	c7 85 f8 d7 ff ff 91 	movl   $0xf3e8e291,-0x2808(%rbp)
    6f5b:	e2 e8 f3 
    6f5e:	c7 85 fc d7 ff ff 2e 	movl   $0x1623332e,-0x2804(%rbp)
    6f65:	33 23 16 
    6f68:	c7 85 00 d8 ff ff 16 	movl   $0x19efcb16,-0x2800(%rbp)
    6f6f:	cb ef 19 
    6f72:	c7 85 c0 d7 ff ff fd 	movl   $0xfffffffd,-0x2840(%rbp)
    6f79:	ff ff ff 
    6f7c:	c7 85 40 da ff ff a6 	movl   $0x7dbec3a6,-0x25c0(%rbp)
    6f83:	c3 be 7d 
    6f86:	c7 85 44 da ff ff a6 	movl   $0x7dbec3a6,-0x25bc(%rbp)
    6f8d:	c3 be 7d 
    6f90:	c7 85 48 da ff ff a6 	movl   $0x7dbec3a6,-0x25b8(%rbp)
    6f97:	c3 be 7d 
    6f9a:	c7 85 4c da ff ff a6 	movl   $0x7dbec3a6,-0x25b4(%rbp)
    6fa1:	c3 be 7d 
    6fa4:	c7 85 50 da ff ff a6 	movl   $0x7dbec3a6,-0x25b0(%rbp)
    6fab:	c3 be 7d 
    6fae:	c7 85 54 da ff ff a6 	movl   $0x7dbec3a6,-0x25ac(%rbp)
    6fb5:	c3 be 7d 
    6fb8:	c7 85 58 da ff ff a6 	movl   $0x7dbec3a6,-0x25a8(%rbp)
    6fbf:	c3 be 7d 
    6fc2:	c7 85 5c da ff ff a6 	movl   $0x7dbec3a6,-0x25a4(%rbp)
    6fc9:	c3 be 7d 
    6fcc:	c7 85 60 da ff ff a6 	movl   $0x7dbec3a6,-0x25a0(%rbp)
    6fd3:	c3 be 7d 
    6fd6:	c6 85 9f d7 ff ff bc 	movb   $0xbc,-0x2861(%rbp)
    6fdd:	c7 85 c8 d7 ff ff 87 	movl   $0x97d9f987,-0x2838(%rbp)
    6fe4:	f9 d9 97 
    6fe7:	48 8d 05 d8 c1 00 00 	lea    0xc1d8(%rip),%rax        # 131c6 <g_200>
    6fee:	48 89 85 18 d9 ff ff 	mov    %rax,-0x26e8(%rbp)
    6ff5:	c6 85 a2 d7 ff ff 01 	movb   $0x1,-0x285e(%rbp)
    6ffc:	c7 85 d0 da ff ff 27 	movl   $0x736dad27,-0x2530(%rbp)
    7003:	ad 6d 73 
    7006:	c7 85 d4 da ff ff 69 	movl   $0x1dd2f869,-0x252c(%rbp)
    700d:	f8 d2 1d 
    7010:	c7 85 d8 da ff ff 27 	movl   $0x736dad27,-0x2528(%rbp)
    7017:	ad 6d 73 
    701a:	c7 85 dc da ff ff 69 	movl   $0x1dd2f869,-0x2524(%rbp)
    7021:	f8 d2 1d 
    7024:	c7 85 e0 da ff ff 27 	movl   $0x736dad27,-0x2520(%rbp)
    702b:	ad 6d 73 
    702e:	c7 85 e4 da ff ff 69 	movl   $0x1dd2f869,-0x251c(%rbp)
    7035:	f8 d2 1d 
    7038:	c7 85 e8 da ff ff 27 	movl   $0x736dad27,-0x2518(%rbp)
    703f:	ad 6d 73 
    7042:	c7 85 ec da ff ff 69 	movl   $0x1dd2f869,-0x2514(%rbp)
    7049:	f8 d2 1d 
    704c:	c7 85 f0 da ff ff 27 	movl   $0x736dad27,-0x2510(%rbp)
    7053:	ad 6d 73 
    7056:	c7 85 f4 da ff ff 69 	movl   $0x1dd2f869,-0x250c(%rbp)
    705d:	f8 d2 1d 
    7060:	c7 85 f8 da ff ff 27 	movl   $0x736dad27,-0x2508(%rbp)
    7067:	ad 6d 73 
    706a:	c7 85 fc da ff ff 69 	movl   $0x1dd2f869,-0x2504(%rbp)
    7071:	f8 d2 1d 
    7074:	c7 85 00 db ff ff 27 	movl   $0x736dad27,-0x2500(%rbp)
    707b:	ad 6d 73 
    707e:	c7 85 04 db ff ff 69 	movl   $0x1dd2f869,-0x24fc(%rbp)
    7085:	f8 d2 1d 
    7088:	c7 85 08 db ff ff 27 	movl   $0x736dad27,-0x24f8(%rbp)
    708f:	ad 6d 73 
    7092:	c7 85 0c db ff ff 69 	movl   $0x1dd2f869,-0x24f4(%rbp)
    7099:	f8 d2 1d 
    709c:	c7 85 04 d8 ff ff 65 	movl   $0x5cdcb765,-0x27fc(%rbp)
    70a3:	b7 dc 5c 
    70a6:	48 8d 85 c0 d7 ff ff 	lea    -0x2840(%rbp),%rax
    70ad:	48 89 85 20 d9 ff ff 	mov    %rax,-0x26e0(%rbp)
    70b4:	48 b8 84 4f fc d6 5d 	movabs $0xfc68925dd6fc4f84,%rax
    70bb:	92 68 fc 
    70be:	48 89 85 28 d9 ff ff 	mov    %rax,-0x26d8(%rbp)
    70c5:	c7 85 cc d7 ff ff 00 	movl   $0x0,-0x2834(%rbp)
    70cc:	00 00 00 
    70cf:	eb 14                	jmp    70e5 <func_8+0x214>
    70d1:	8b 85 cc d7 ff ff    	mov    -0x2834(%rbp),%eax
    70d7:	48 98                	cltq   
    70d9:	c6 44 05 c4 be       	movb   $0xbe,-0x3c(%rbp,%rax,1)
    70de:	83 85 cc d7 ff ff 01 	addl   $0x1,-0x2834(%rbp)
    70e5:	83 bd cc d7 ff ff 03 	cmpl   $0x3,-0x2834(%rbp)
    70ec:	7e e3                	jle    70d1 <func_8+0x200>
    70ee:	c7 85 cc d7 ff ff 00 	movl   $0x0,-0x2834(%rbp)
    70f5:	00 00 00 
    70f8:	eb 42                	jmp    713c <func_8+0x26b>
    70fa:	c7 85 d0 d7 ff ff 00 	movl   $0x0,-0x2830(%rbp)
    7101:	00 00 00 
    7104:	eb 26                	jmp    712c <func_8+0x25b>
    7106:	8b 85 d0 d7 ff ff    	mov    -0x2830(%rbp),%eax
    710c:	48 63 d0             	movslq %eax,%rdx
    710f:	8b 85 cc d7 ff ff    	mov    -0x2834(%rbp),%eax
    7115:	48 98                	cltq   
    7117:	48 01 d0             	add    %rdx,%rax
    711a:	c7 84 85 f0 d9 ff ff 	movl   $0x2b18be72,-0x2610(%rbp,%rax,4)
    7121:	72 be 18 2b 
    7125:	83 85 d0 d7 ff ff 01 	addl   $0x1,-0x2830(%rbp)
    712c:	83 bd d0 d7 ff ff 00 	cmpl   $0x0,-0x2830(%rbp)
    7133:	7e d1                	jle    7106 <func_8+0x235>
    7135:	83 85 cc d7 ff ff 01 	addl   $0x1,-0x2834(%rbp)
    713c:	83 bd cc d7 ff ff 03 	cmpl   $0x3,-0x2834(%rbp)
    7143:	7e b5                	jle    70fa <func_8+0x229>
    7145:	c6 05 74 e0 00 00 00 	movb   $0x0,0xe074(%rip)        # 151c0 <g_313>
    714c:	e9 09 31 00 00       	jmpq   a25a <func_8+0x3389>
    7151:	66 c7 85 ae d7 ff ff 	movw   $0x9291,-0x2852(%rbp)
    7158:	91 92 
    715a:	48 8d 05 d3 be 00 00 	lea    0xbed3(%rip),%rax        # 13034 <g_6>
    7161:	48 89 85 10 db ff ff 	mov    %rax,-0x24f0(%rbp)
    7168:	48 8d 05 c5 be 00 00 	lea    0xbec5(%rip),%rax        # 13034 <g_6>
    716f:	48 89 85 18 db ff ff 	mov    %rax,-0x24e8(%rbp)
    7176:	48 8d 05 ab be 00 00 	lea    0xbeab(%rip),%rax        # 13028 <g_2>
    717d:	48 89 85 20 db ff ff 	mov    %rax,-0x24e0(%rbp)
    7184:	48 8d 05 09 c0 00 00 	lea    0xc009(%rip),%rax        # 13194 <g_91+0x14>
    718b:	48 89 85 28 db ff ff 	mov    %rax,-0x24d8(%rbp)
    7192:	48 8d 05 8f be 00 00 	lea    0xbe8f(%rip),%rax        # 13028 <g_2>
    7199:	48 89 85 30 db ff ff 	mov    %rax,-0x24d0(%rbp)
    71a0:	48 8d 05 8d be 00 00 	lea    0xbe8d(%rip),%rax        # 13034 <g_6>
    71a7:	48 89 85 38 db ff ff 	mov    %rax,-0x24c8(%rbp)
    71ae:	48 8d 05 7f be 00 00 	lea    0xbe7f(%rip),%rax        # 13034 <g_6>
    71b5:	48 89 85 40 db ff ff 	mov    %rax,-0x24c0(%rbp)
    71bc:	48 8d 05 65 be 00 00 	lea    0xbe65(%rip),%rax        # 13028 <g_2>
    71c3:	48 89 85 48 db ff ff 	mov    %rax,-0x24b8(%rbp)
    71ca:	48 8d 05 63 be 00 00 	lea    0xbe63(%rip),%rax        # 13034 <g_6>
    71d1:	48 89 85 50 db ff ff 	mov    %rax,-0x24b0(%rbp)
    71d8:	48 8d 05 49 be 00 00 	lea    0xbe49(%rip),%rax        # 13028 <g_2>
    71df:	48 89 85 58 db ff ff 	mov    %rax,-0x24a8(%rbp)
    71e6:	48 8d 05 3b be 00 00 	lea    0xbe3b(%rip),%rax        # 13028 <g_2>
    71ed:	48 89 85 60 db ff ff 	mov    %rax,-0x24a0(%rbp)
    71f4:	48 8d 05 39 be 00 00 	lea    0xbe39(%rip),%rax        # 13034 <g_6>
    71fb:	48 89 85 68 db ff ff 	mov    %rax,-0x2498(%rbp)
    7202:	48 c7 85 70 db ff ff 	movq   $0x0,-0x2490(%rbp)
    7209:	00 00 00 00 
    720d:	48 8d 05 20 be 00 00 	lea    0xbe20(%rip),%rax        # 13034 <g_6>
    7214:	48 89 85 78 db ff ff 	mov    %rax,-0x2488(%rbp)
    721b:	48 8d 05 06 be 00 00 	lea    0xbe06(%rip),%rax        # 13028 <g_2>
    7222:	48 89 85 80 db ff ff 	mov    %rax,-0x2480(%rbp)
    7229:	48 8d 05 f8 bd 00 00 	lea    0xbdf8(%rip),%rax        # 13028 <g_2>
    7230:	48 89 85 88 db ff ff 	mov    %rax,-0x2478(%rbp)
    7237:	66 c7 85 aa d7 ff ff 	movw   $0x57e1,-0x2856(%rbp)
    723e:	e1 57 
    7240:	48 8d 05 61 d5 00 00 	lea    0xd561(%rip),%rax        # 147a8 <g_213>
    7247:	48 89 85 c0 d8 ff ff 	mov    %rax,-0x2740(%rbp)
    724e:	48 8d 85 c0 d8 ff ff 	lea    -0x2740(%rbp),%rax
    7255:	48 89 85 30 d9 ff ff 	mov    %rax,-0x26d0(%rbp)
    725c:	c7 85 00 da ff ff ff 	movl   $0xffffffff,-0x2600(%rbp)
    7263:	ff ff ff 
    7266:	c7 85 04 da ff ff ff 	movl   $0xffffffff,-0x25fc(%rbp)
    726d:	ff ff ff 
    7270:	c7 85 08 da ff ff 00 	movl   $0x0,-0x25f8(%rbp)
    7277:	00 00 00 
    727a:	c7 85 0c da ff ff ff 	movl   $0xffffffff,-0x25f4(%rbp)
    7281:	ff ff ff 
    7284:	c7 85 10 da ff ff ff 	movl   $0xffffffff,-0x25f0(%rbp)
    728b:	ff ff ff 
    728e:	c7 85 14 da ff ff 00 	movl   $0x0,-0x25ec(%rbp)
    7295:	00 00 00 
    7298:	c7 85 18 da ff ff ff 	movl   $0xffffffff,-0x25e8(%rbp)
    729f:	ff ff ff 
    72a2:	c7 85 1c da ff ff ff 	movl   $0xffffffff,-0x25e4(%rbp)
    72a9:	ff ff ff 
    72ac:	48 8d 05 0d bf 00 00 	lea    0xbf0d(%rip),%rax        # 131c0 <g_151>
    72b3:	48 89 85 c8 d8 ff ff 	mov    %rax,-0x2738(%rbp)
    72ba:	48 c7 85 a0 da ff ff 	movq   $0x0,-0x2560(%rbp)
    72c1:	00 00 00 00 
    72c5:	48 8d 85 c8 d8 ff ff 	lea    -0x2738(%rbp),%rax
    72cc:	48 89 85 a8 da ff ff 	mov    %rax,-0x2558(%rbp)
    72d3:	48 c7 85 b0 da ff ff 	movq   $0x0,-0x2550(%rbp)
    72da:	00 00 00 00 
    72de:	48 c7 85 b8 da ff ff 	movq   $0x0,-0x2548(%rbp)
    72e5:	00 00 00 00 
    72e9:	48 8d 85 c8 d8 ff ff 	lea    -0x2738(%rbp),%rax
    72f0:	48 89 85 c0 da ff ff 	mov    %rax,-0x2540(%rbp)
    72f7:	48 c7 85 c8 da ff ff 	movq   $0x0,-0x2538(%rbp)
    72fe:	00 00 00 00 
    7302:	48 b8 57 ad fc 04 ae 	movabs $0x38ebdae04fcad57,%rax
    7309:	bd 8e 03 
    730c:	48 89 85 38 d9 ff ff 	mov    %rax,-0x26c8(%rbp)
    7313:	c7 85 08 d8 ff ff 01 	movl   $0x1,-0x27f8(%rbp)
    731a:	00 00 00 
    731d:	66 c7 85 b0 d7 ff ff 	movw   $0x677,-0x2850(%rbp)
    7324:	77 06 
    7326:	48 8d 85 30 dc ff ff 	lea    -0x23d0(%rbp),%rax
    732d:	48 8d 15 ac 6e 00 00 	lea    0x6eac(%rip),%rdx        # e1e0 <g_1282+0x180>
    7334:	b9 23 00 00 00       	mov    $0x23,%ecx
    7339:	48 89 c7             	mov    %rax,%rdi
    733c:	48 89 d6             	mov    %rdx,%rsi
    733f:	f3 48 a5             	rep movsq %ds:(%rsi),%es:(%rdi)
    7342:	c7 85 d4 d7 ff ff 00 	movl   $0x0,-0x282c(%rbp)
    7349:	00 00 00 
    734c:	eb 43                	jmp    7391 <func_8+0x4c0>
    734e:	c7 85 d8 d7 ff ff 00 	movl   $0x0,-0x2828(%rbp)
    7355:	00 00 00 
    7358:	eb 27                	jmp    7381 <func_8+0x4b0>
    735a:	8b 85 d8 d7 ff ff    	mov    -0x2828(%rbp),%eax
    7360:	48 63 d0             	movslq %eax,%rdx
    7363:	8b 85 d4 d7 ff ff    	mov    -0x282c(%rbp),%eax
    7369:	48 98                	cltq   
    736b:	48 01 d0             	add    %rdx,%rax
    736e:	48 c7 84 c5 70 da ff 	movq   $0xffffffffffffffff,-0x2590(%rbp,%rax,8)
    7375:	ff ff ff ff ff 
    737a:	83 85 d8 d7 ff ff 01 	addl   $0x1,-0x2828(%rbp)
    7381:	83 bd d8 d7 ff ff 00 	cmpl   $0x0,-0x2828(%rbp)
    7388:	7e d0                	jle    735a <func_8+0x489>
    738a:	83 85 d4 d7 ff ff 01 	addl   $0x1,-0x282c(%rbp)
    7391:	83 bd d4 d7 ff ff 04 	cmpl   $0x4,-0x282c(%rbp)
    7398:	7e b4                	jle    734e <func_8+0x47d>
    739a:	c7 05 1c be 00 00 00 	movl   $0x0,0xbe1c(%rip)        # 131c0 <g_151>
    73a1:	00 00 00 
    73a4:	e9 b3 2a 00 00       	jmpq   9e5c <func_8+0x2f8b>
    73a9:	48 b8 35 44 12 ae f8 	movabs $0xc12232f8ae124435,%rax
    73b0:	32 22 c1 
    73b3:	48 89 85 48 d9 ff ff 	mov    %rax,-0x26b8(%rbp)
    73ba:	48 c7 85 d0 d8 ff ff 	movq   $0x0,-0x2730(%rbp)
    73c1:	00 00 00 00 
    73c5:	c7 85 14 d8 ff ff fa 	movl   $0xfffffffa,-0x27ec(%rbp)
    73cc:	ff ff ff 
    73cf:	48 8d 85 20 e8 ff ff 	lea    -0x17e0(%rbp),%rax
    73d6:	48 8d 15 23 be 00 00 	lea    0xbe23(%rip),%rdx        # 13200 <g_1486+0x8>
    73dd:	b9 fc 00 00 00       	mov    $0xfc,%ecx
    73e2:	48 89 c7             	mov    %rax,%rdi
    73e5:	48 89 d6             	mov    %rdx,%rsi
    73e8:	f3 48 a5             	rep movsq %ds:(%rsi),%es:(%rdi)
    73eb:	c7 85 18 d8 ff ff f8 	movl   $0xfffffff8,-0x27e8(%rbp)
    73f2:	ff ff ff 
    73f5:	c7 85 dc d7 ff ff 9f 	movl   $0x80ebd29f,-0x2824(%rbp)
    73fc:	d2 eb 80 
    73ff:	c7 85 1c d8 ff ff b5 	movl   $0xf5bac6b5,-0x27e4(%rbp)
    7406:	c6 ba f5 
    7409:	c7 85 20 d8 ff ff b1 	movl   $0xbaf0f4b1,-0x27e0(%rbp)
    7410:	f4 f0 ba 
    7413:	c7 85 24 d8 ff ff 03 	movl   $0x3,-0x27dc(%rbp)
    741a:	00 00 00 
    741d:	66 c7 85 b2 d7 ff ff 	movw   $0xa699,-0x284e(%rbp)
    7424:	99 a6 
    7426:	48 8d 85 d0 d8 ff ff 	lea    -0x2730(%rbp),%rax
    742d:	48 89 85 80 e2 ff ff 	mov    %rax,-0x1d80(%rbp)
    7434:	48 c7 85 88 e2 ff ff 	movq   $0x0,-0x1d78(%rbp)
    743b:	00 00 00 00 
    743f:	48 c7 85 90 e2 ff ff 	movq   $0x0,-0x1d70(%rbp)
    7446:	00 00 00 00 
    744a:	48 8d 05 07 d4 00 00 	lea    0xd407(%rip),%rax        # 14858 <g_308>
    7451:	48 89 85 98 e2 ff ff 	mov    %rax,-0x1d68(%rbp)
    7458:	48 c7 85 a0 e2 ff ff 	movq   $0x0,-0x1d60(%rbp)
    745f:	00 00 00 00 
    7463:	48 8d 05 ee d3 00 00 	lea    0xd3ee(%rip),%rax        # 14858 <g_308>
    746a:	48 89 85 a8 e2 ff ff 	mov    %rax,-0x1d58(%rbp)
    7471:	48 8d 85 d0 d8 ff ff 	lea    -0x2730(%rbp),%rax
    7478:	48 89 85 b0 e2 ff ff 	mov    %rax,-0x1d50(%rbp)
    747f:	48 c7 85 b8 e2 ff ff 	movq   $0x0,-0x1d48(%rbp)
    7486:	00 00 00 00 
    748a:	48 8d 05 c7 d3 00 00 	lea    0xd3c7(%rip),%rax        # 14858 <g_308>
    7491:	48 89 85 c0 e2 ff ff 	mov    %rax,-0x1d40(%rbp)
    7498:	48 8d 85 d0 d8 ff ff 	lea    -0x2730(%rbp),%rax
    749f:	48 89 85 c8 e2 ff ff 	mov    %rax,-0x1d38(%rbp)
    74a6:	48 8d 85 d0 d8 ff ff 	lea    -0x2730(%rbp),%rax
    74ad:	48 89 85 d0 e2 ff ff 	mov    %rax,-0x1d30(%rbp)
    74b4:	48 8d 85 d0 d8 ff ff 	lea    -0x2730(%rbp),%rax
    74bb:	48 89 85 d8 e2 ff ff 	mov    %rax,-0x1d28(%rbp)
    74c2:	48 8d 85 d0 d8 ff ff 	lea    -0x2730(%rbp),%rax
    74c9:	48 89 85 e0 e2 ff ff 	mov    %rax,-0x1d20(%rbp)
    74d0:	48 8d 05 81 d3 00 00 	lea    0xd381(%rip),%rax        # 14858 <g_308>
    74d7:	48 89 85 e8 e2 ff ff 	mov    %rax,-0x1d18(%rbp)
    74de:	48 8d 85 d0 d8 ff ff 	lea    -0x2730(%rbp),%rax
    74e5:	48 89 85 f0 e2 ff ff 	mov    %rax,-0x1d10(%rbp)
    74ec:	48 8d 05 65 d3 00 00 	lea    0xd365(%rip),%rax        # 14858 <g_308>
    74f3:	48 89 85 f8 e2 ff ff 	mov    %rax,-0x1d08(%rbp)
    74fa:	48 8d 85 d0 d8 ff ff 	lea    -0x2730(%rbp),%rax
    7501:	48 89 85 00 e3 ff ff 	mov    %rax,-0x1d00(%rbp)
    7508:	48 8d 85 d0 d8 ff ff 	lea    -0x2730(%rbp),%rax
    750f:	48 89 85 08 e3 ff ff 	mov    %rax,-0x1cf8(%rbp)
    7516:	48 8d 85 d0 d8 ff ff 	lea    -0x2730(%rbp),%rax
    751d:	48 89 85 10 e3 ff ff 	mov    %rax,-0x1cf0(%rbp)
    7524:	48 8d 85 d0 d8 ff ff 	lea    -0x2730(%rbp),%rax
    752b:	48 89 85 18 e3 ff ff 	mov    %rax,-0x1ce8(%rbp)
    7532:	48 c7 85 20 e3 ff ff 	movq   $0x0,-0x1ce0(%rbp)
    7539:	00 00 00 00 
    753d:	48 c7 85 28 e3 ff ff 	movq   $0x0,-0x1cd8(%rbp)
    7544:	00 00 00 00 
    7548:	48 8d 05 09 d3 00 00 	lea    0xd309(%rip),%rax        # 14858 <g_308>
    754f:	48 89 85 30 e3 ff ff 	mov    %rax,-0x1cd0(%rbp)
    7556:	48 8d 85 d0 d8 ff ff 	lea    -0x2730(%rbp),%rax
    755d:	48 89 85 38 e3 ff ff 	mov    %rax,-0x1cc8(%rbp)
    7564:	48 c7 85 40 e3 ff ff 	movq   $0x0,-0x1cc0(%rbp)
    756b:	00 00 00 00 
    756f:	48 8d 05 e2 d2 00 00 	lea    0xd2e2(%rip),%rax        # 14858 <g_308>
    7576:	48 89 85 48 e3 ff ff 	mov    %rax,-0x1cb8(%rbp)
    757d:	48 8d 05 d4 d2 00 00 	lea    0xd2d4(%rip),%rax        # 14858 <g_308>
    7584:	48 89 85 50 e3 ff ff 	mov    %rax,-0x1cb0(%rbp)
    758b:	48 c7 85 58 e3 ff ff 	movq   $0x0,-0x1ca8(%rbp)
    7592:	00 00 00 00 
    7596:	48 8d 85 d0 d8 ff ff 	lea    -0x2730(%rbp),%rax
    759d:	48 89 85 60 e3 ff ff 	mov    %rax,-0x1ca0(%rbp)
    75a4:	48 c7 85 68 e3 ff ff 	movq   $0x0,-0x1c98(%rbp)
    75ab:	00 00 00 00 
    75af:	48 8d 85 d0 d8 ff ff 	lea    -0x2730(%rbp),%rax
    75b6:	48 89 85 70 e3 ff ff 	mov    %rax,-0x1c90(%rbp)
    75bd:	48 c7 85 78 e3 ff ff 	movq   $0x0,-0x1c88(%rbp)
    75c4:	00 00 00 00 
    75c8:	48 8d 05 89 d2 00 00 	lea    0xd289(%rip),%rax        # 14858 <g_308>
    75cf:	48 89 85 80 e3 ff ff 	mov    %rax,-0x1c80(%rbp)
    75d6:	48 8d 05 7b d2 00 00 	lea    0xd27b(%rip),%rax        # 14858 <g_308>
    75dd:	48 89 85 88 e3 ff ff 	mov    %rax,-0x1c78(%rbp)
    75e4:	48 c7 85 90 e3 ff ff 	movq   $0x0,-0x1c70(%rbp)
    75eb:	00 00 00 00 
    75ef:	48 8d 85 d0 d8 ff ff 	lea    -0x2730(%rbp),%rax
    75f6:	48 89 85 98 e3 ff ff 	mov    %rax,-0x1c68(%rbp)
    75fd:	48 8d 05 54 d2 00 00 	lea    0xd254(%rip),%rax        # 14858 <g_308>
    7604:	48 89 85 a0 e3 ff ff 	mov    %rax,-0x1c60(%rbp)
    760b:	48 c7 85 a8 e3 ff ff 	movq   $0x0,-0x1c58(%rbp)
    7612:	00 00 00 00 
    7616:	48 c7 85 b0 e3 ff ff 	movq   $0x0,-0x1c50(%rbp)
    761d:	00 00 00 00 
    7621:	48 8d 85 d0 d8 ff ff 	lea    -0x2730(%rbp),%rax
    7628:	48 89 85 b8 e3 ff ff 	mov    %rax,-0x1c48(%rbp)
    762f:	48 8d 85 d0 d8 ff ff 	lea    -0x2730(%rbp),%rax
    7636:	48 89 85 c0 e3 ff ff 	mov    %rax,-0x1c40(%rbp)
    763d:	48 8d 85 d0 d8 ff ff 	lea    -0x2730(%rbp),%rax
    7644:	48 89 85 c8 e3 ff ff 	mov    %rax,-0x1c38(%rbp)
    764b:	48 8d 05 06 d2 00 00 	lea    0xd206(%rip),%rax        # 14858 <g_308>
    7652:	48 89 85 d0 e3 ff ff 	mov    %rax,-0x1c30(%rbp)
    7659:	48 8d 05 f8 d1 00 00 	lea    0xd1f8(%rip),%rax        # 14858 <g_308>
    7660:	48 89 85 d8 e3 ff ff 	mov    %rax,-0x1c28(%rbp)
    7667:	48 8d 85 d0 d8 ff ff 	lea    -0x2730(%rbp),%rax
    766e:	48 89 85 e0 e3 ff ff 	mov    %rax,-0x1c20(%rbp)
    7675:	48 8d 05 dc d1 00 00 	lea    0xd1dc(%rip),%rax        # 14858 <g_308>
    767c:	48 89 85 e8 e3 ff ff 	mov    %rax,-0x1c18(%rbp)
    7683:	48 8d 05 ce d1 00 00 	lea    0xd1ce(%rip),%rax        # 14858 <g_308>
    768a:	48 89 85 f0 e3 ff ff 	mov    %rax,-0x1c10(%rbp)
    7691:	48 8d 85 d0 d8 ff ff 	lea    -0x2730(%rbp),%rax
    7698:	48 89 85 f8 e3 ff ff 	mov    %rax,-0x1c08(%rbp)
    769f:	48 8d 85 d0 d8 ff ff 	lea    -0x2730(%rbp),%rax
    76a6:	48 89 85 00 e4 ff ff 	mov    %rax,-0x1c00(%rbp)
    76ad:	48 8d 85 d0 d8 ff ff 	lea    -0x2730(%rbp),%rax
    76b4:	48 89 85 08 e4 ff ff 	mov    %rax,-0x1bf8(%rbp)
    76bb:	48 c7 85 10 e4 ff ff 	movq   $0x0,-0x1bf0(%rbp)
    76c2:	00 00 00 00 
    76c6:	48 c7 85 18 e4 ff ff 	movq   $0x0,-0x1be8(%rbp)
    76cd:	00 00 00 00 
    76d1:	48 8d 05 80 d1 00 00 	lea    0xd180(%rip),%rax        # 14858 <g_308>
    76d8:	48 89 85 20 e4 ff ff 	mov    %rax,-0x1be0(%rbp)
    76df:	48 8d 85 d0 d8 ff ff 	lea    -0x2730(%rbp),%rax
    76e6:	48 89 85 28 e4 ff ff 	mov    %rax,-0x1bd8(%rbp)
    76ed:	48 c7 85 30 e4 ff ff 	movq   $0x0,-0x1bd0(%rbp)
    76f4:	00 00 00 00 
    76f8:	48 8d 05 59 d1 00 00 	lea    0xd159(%rip),%rax        # 14858 <g_308>
    76ff:	48 89 85 38 e4 ff ff 	mov    %rax,-0x1bc8(%rbp)
    7706:	48 8d 05 4b d1 00 00 	lea    0xd14b(%rip),%rax        # 14858 <g_308>
    770d:	48 89 85 40 e4 ff ff 	mov    %rax,-0x1bc0(%rbp)
    7714:	48 c7 85 48 e4 ff ff 	movq   $0x0,-0x1bb8(%rbp)
    771b:	00 00 00 00 
    771f:	48 8d 85 d0 d8 ff ff 	lea    -0x2730(%rbp),%rax
    7726:	48 89 85 50 e4 ff ff 	mov    %rax,-0x1bb0(%rbp)
    772d:	48 c7 85 58 e4 ff ff 	movq   $0x0,-0x1ba8(%rbp)
    7734:	00 00 00 00 
    7738:	48 8d 85 d0 d8 ff ff 	lea    -0x2730(%rbp),%rax
    773f:	48 89 85 60 e4 ff ff 	mov    %rax,-0x1ba0(%rbp)
    7746:	48 c7 85 68 e4 ff ff 	movq   $0x0,-0x1b98(%rbp)
    774d:	00 00 00 00 
    7751:	48 8d 05 00 d1 00 00 	lea    0xd100(%rip),%rax        # 14858 <g_308>
    7758:	48 89 85 70 e4 ff ff 	mov    %rax,-0x1b90(%rbp)
    775f:	48 8d 05 f2 d0 00 00 	lea    0xd0f2(%rip),%rax        # 14858 <g_308>
    7766:	48 89 85 78 e4 ff ff 	mov    %rax,-0x1b88(%rbp)
    776d:	48 c7 85 80 e4 ff ff 	movq   $0x0,-0x1b80(%rbp)
    7774:	00 00 00 00 
    7778:	48 8d 85 d0 d8 ff ff 	lea    -0x2730(%rbp),%rax
    777f:	48 89 85 88 e4 ff ff 	mov    %rax,-0x1b78(%rbp)
    7786:	48 8d 05 cb d0 00 00 	lea    0xd0cb(%rip),%rax        # 14858 <g_308>
    778d:	48 89 85 90 e4 ff ff 	mov    %rax,-0x1b70(%rbp)
    7794:	48 c7 85 98 e4 ff ff 	movq   $0x0,-0x1b68(%rbp)
    779b:	00 00 00 00 
    779f:	48 c7 85 a0 e4 ff ff 	movq   $0x0,-0x1b60(%rbp)
    77a6:	00 00 00 00 
    77aa:	48 8d 85 d0 d8 ff ff 	lea    -0x2730(%rbp),%rax
    77b1:	48 89 85 a8 e4 ff ff 	mov    %rax,-0x1b58(%rbp)
    77b8:	48 8d 85 d0 d8 ff ff 	lea    -0x2730(%rbp),%rax
    77bf:	48 89 85 b0 e4 ff ff 	mov    %rax,-0x1b50(%rbp)
    77c6:	48 8d 85 d0 d8 ff ff 	lea    -0x2730(%rbp),%rax
    77cd:	48 89 85 b8 e4 ff ff 	mov    %rax,-0x1b48(%rbp)
    77d4:	48 8d 05 7d d0 00 00 	lea    0xd07d(%rip),%rax        # 14858 <g_308>
    77db:	48 89 85 c0 e4 ff ff 	mov    %rax,-0x1b40(%rbp)
    77e2:	48 8d 05 6f d0 00 00 	lea    0xd06f(%rip),%rax        # 14858 <g_308>
    77e9:	48 89 85 c8 e4 ff ff 	mov    %rax,-0x1b38(%rbp)
    77f0:	48 8d 85 d0 d8 ff ff 	lea    -0x2730(%rbp),%rax
    77f7:	48 89 85 d0 e4 ff ff 	mov    %rax,-0x1b30(%rbp)
    77fe:	48 8d 05 53 d0 00 00 	lea    0xd053(%rip),%rax        # 14858 <g_308>
    7805:	48 89 85 d8 e4 ff ff 	mov    %rax,-0x1b28(%rbp)
    780c:	48 8d 05 45 d0 00 00 	lea    0xd045(%rip),%rax        # 14858 <g_308>
    7813:	48 89 85 e0 e4 ff ff 	mov    %rax,-0x1b20(%rbp)
    781a:	48 8d 85 d0 d8 ff ff 	lea    -0x2730(%rbp),%rax
    7821:	48 89 85 e8 e4 ff ff 	mov    %rax,-0x1b18(%rbp)
    7828:	48 8d 85 d0 d8 ff ff 	lea    -0x2730(%rbp),%rax
    782f:	48 89 85 f0 e4 ff ff 	mov    %rax,-0x1b10(%rbp)
    7836:	48 8d 85 d0 d8 ff ff 	lea    -0x2730(%rbp),%rax
    783d:	48 89 85 f8 e4 ff ff 	mov    %rax,-0x1b08(%rbp)
    7844:	48 c7 85 00 e5 ff ff 	movq   $0x0,-0x1b00(%rbp)
    784b:	00 00 00 00 
    784f:	48 c7 85 08 e5 ff ff 	movq   $0x0,-0x1af8(%rbp)
    7856:	00 00 00 00 
    785a:	48 8d 05 f7 cf 00 00 	lea    0xcff7(%rip),%rax        # 14858 <g_308>
    7861:	48 89 85 10 e5 ff ff 	mov    %rax,-0x1af0(%rbp)
    7868:	48 8d 85 d0 d8 ff ff 	lea    -0x2730(%rbp),%rax
    786f:	48 89 85 18 e5 ff ff 	mov    %rax,-0x1ae8(%rbp)
    7876:	48 c7 85 20 e5 ff ff 	movq   $0x0,-0x1ae0(%rbp)
    787d:	00 00 00 00 
    7881:	48 8d 05 d0 cf 00 00 	lea    0xcfd0(%rip),%rax        # 14858 <g_308>
    7888:	48 89 85 28 e5 ff ff 	mov    %rax,-0x1ad8(%rbp)
    788f:	48 8d 05 c2 cf 00 00 	lea    0xcfc2(%rip),%rax        # 14858 <g_308>
    7896:	48 89 85 30 e5 ff ff 	mov    %rax,-0x1ad0(%rbp)
    789d:	48 c7 85 38 e5 ff ff 	movq   $0x0,-0x1ac8(%rbp)
    78a4:	00 00 00 00 
    78a8:	48 8d 85 d0 d8 ff ff 	lea    -0x2730(%rbp),%rax
    78af:	48 89 85 40 e5 ff ff 	mov    %rax,-0x1ac0(%rbp)
    78b6:	48 c7 85 48 e5 ff ff 	movq   $0x0,-0x1ab8(%rbp)
    78bd:	00 00 00 00 
    78c1:	48 8d 85 d0 d8 ff ff 	lea    -0x2730(%rbp),%rax
    78c8:	48 89 85 50 e5 ff ff 	mov    %rax,-0x1ab0(%rbp)
    78cf:	48 c7 85 58 e5 ff ff 	movq   $0x0,-0x1aa8(%rbp)
    78d6:	00 00 00 00 
    78da:	48 8d 05 77 cf 00 00 	lea    0xcf77(%rip),%rax        # 14858 <g_308>
    78e1:	48 89 85 60 e5 ff ff 	mov    %rax,-0x1aa0(%rbp)
    78e8:	48 8d 05 69 cf 00 00 	lea    0xcf69(%rip),%rax        # 14858 <g_308>
    78ef:	48 89 85 68 e5 ff ff 	mov    %rax,-0x1a98(%rbp)
    78f6:	48 c7 85 70 e5 ff ff 	movq   $0x0,-0x1a90(%rbp)
    78fd:	00 00 00 00 
    7901:	48 8d 85 d0 d8 ff ff 	lea    -0x2730(%rbp),%rax
    7908:	48 89 85 78 e5 ff ff 	mov    %rax,-0x1a88(%rbp)
    790f:	48 8d 05 42 cf 00 00 	lea    0xcf42(%rip),%rax        # 14858 <g_308>
    7916:	48 89 85 80 e5 ff ff 	mov    %rax,-0x1a80(%rbp)
    791d:	48 c7 85 88 e5 ff ff 	movq   $0x0,-0x1a78(%rbp)
    7924:	00 00 00 00 
    7928:	48 c7 85 90 e5 ff ff 	movq   $0x0,-0x1a70(%rbp)
    792f:	00 00 00 00 
    7933:	48 8d 85 d0 d8 ff ff 	lea    -0x2730(%rbp),%rax
    793a:	48 89 85 98 e5 ff ff 	mov    %rax,-0x1a68(%rbp)
    7941:	48 8d 85 d0 d8 ff ff 	lea    -0x2730(%rbp),%rax
    7948:	48 89 85 a0 e5 ff ff 	mov    %rax,-0x1a60(%rbp)
    794f:	48 8d 85 d0 d8 ff ff 	lea    -0x2730(%rbp),%rax
    7956:	48 89 85 a8 e5 ff ff 	mov    %rax,-0x1a58(%rbp)
    795d:	48 8d 05 f4 ce 00 00 	lea    0xcef4(%rip),%rax        # 14858 <g_308>
    7964:	48 89 85 b0 e5 ff ff 	mov    %rax,-0x1a50(%rbp)
    796b:	48 8d 05 e6 ce 00 00 	lea    0xcee6(%rip),%rax        # 14858 <g_308>
    7972:	48 89 85 b8 e5 ff ff 	mov    %rax,-0x1a48(%rbp)
    7979:	48 8d 85 d0 d8 ff ff 	lea    -0x2730(%rbp),%rax
    7980:	48 89 85 c0 e5 ff ff 	mov    %rax,-0x1a40(%rbp)
    7987:	48 8d 05 ca ce 00 00 	lea    0xceca(%rip),%rax        # 14858 <g_308>
    798e:	48 89 85 c8 e5 ff ff 	mov    %rax,-0x1a38(%rbp)
    7995:	48 8d 05 bc ce 00 00 	lea    0xcebc(%rip),%rax        # 14858 <g_308>
    799c:	48 89 85 d0 e5 ff ff 	mov    %rax,-0x1a30(%rbp)
    79a3:	48 8d 85 d0 d8 ff ff 	lea    -0x2730(%rbp),%rax
    79aa:	48 89 85 d8 e5 ff ff 	mov    %rax,-0x1a28(%rbp)
    79b1:	48 8d 85 d0 d8 ff ff 	lea    -0x2730(%rbp),%rax
    79b8:	48 89 85 e0 e5 ff ff 	mov    %rax,-0x1a20(%rbp)
    79bf:	48 8d 85 d0 d8 ff ff 	lea    -0x2730(%rbp),%rax
    79c6:	48 89 85 e8 e5 ff ff 	mov    %rax,-0x1a18(%rbp)
    79cd:	48 c7 85 f0 e5 ff ff 	movq   $0x0,-0x1a10(%rbp)
    79d4:	00 00 00 00 
    79d8:	48 c7 85 f8 e5 ff ff 	movq   $0x0,-0x1a08(%rbp)
    79df:	00 00 00 00 
    79e3:	48 8d 05 6e ce 00 00 	lea    0xce6e(%rip),%rax        # 14858 <g_308>
    79ea:	48 89 85 00 e6 ff ff 	mov    %rax,-0x1a00(%rbp)
    79f1:	48 8d 85 d0 d8 ff ff 	lea    -0x2730(%rbp),%rax
    79f8:	48 89 85 08 e6 ff ff 	mov    %rax,-0x19f8(%rbp)
    79ff:	48 c7 85 10 e6 ff ff 	movq   $0x0,-0x19f0(%rbp)
    7a06:	00 00 00 00 
    7a0a:	48 8d 05 47 ce 00 00 	lea    0xce47(%rip),%rax        # 14858 <g_308>
    7a11:	48 89 85 18 e6 ff ff 	mov    %rax,-0x19e8(%rbp)
    7a18:	48 8d 05 39 ce 00 00 	lea    0xce39(%rip),%rax        # 14858 <g_308>
    7a1f:	48 89 85 20 e6 ff ff 	mov    %rax,-0x19e0(%rbp)
    7a26:	48 c7 85 28 e6 ff ff 	movq   $0x0,-0x19d8(%rbp)
    7a2d:	00 00 00 00 
    7a31:	48 8d 85 d0 d8 ff ff 	lea    -0x2730(%rbp),%rax
    7a38:	48 89 85 30 e6 ff ff 	mov    %rax,-0x19d0(%rbp)
    7a3f:	48 c7 85 38 e6 ff ff 	movq   $0x0,-0x19c8(%rbp)
    7a46:	00 00 00 00 
    7a4a:	48 8d 85 d0 d8 ff ff 	lea    -0x2730(%rbp),%rax
    7a51:	48 89 85 40 e6 ff ff 	mov    %rax,-0x19c0(%rbp)
    7a58:	48 c7 85 48 e6 ff ff 	movq   $0x0,-0x19b8(%rbp)
    7a5f:	00 00 00 00 
    7a63:	48 8d 05 ee cd 00 00 	lea    0xcdee(%rip),%rax        # 14858 <g_308>
    7a6a:	48 89 85 50 e6 ff ff 	mov    %rax,-0x19b0(%rbp)
    7a71:	48 8d 05 e0 cd 00 00 	lea    0xcde0(%rip),%rax        # 14858 <g_308>
    7a78:	48 89 85 58 e6 ff ff 	mov    %rax,-0x19a8(%rbp)
    7a7f:	48 c7 85 60 e6 ff ff 	movq   $0x0,-0x19a0(%rbp)
    7a86:	00 00 00 00 
    7a8a:	48 8d 85 d0 d8 ff ff 	lea    -0x2730(%rbp),%rax
    7a91:	48 89 85 68 e6 ff ff 	mov    %rax,-0x1998(%rbp)
    7a98:	48 8d 05 b9 cd 00 00 	lea    0xcdb9(%rip),%rax        # 14858 <g_308>
    7a9f:	48 89 85 70 e6 ff ff 	mov    %rax,-0x1990(%rbp)
    7aa6:	48 c7 85 78 e6 ff ff 	movq   $0x0,-0x1988(%rbp)
    7aad:	00 00 00 00 
    7ab1:	48 c7 85 80 e6 ff ff 	movq   $0x0,-0x1980(%rbp)
    7ab8:	00 00 00 00 
    7abc:	48 8d 85 d0 d8 ff ff 	lea    -0x2730(%rbp),%rax
    7ac3:	48 89 85 88 e6 ff ff 	mov    %rax,-0x1978(%rbp)
    7aca:	48 8d 85 d0 d8 ff ff 	lea    -0x2730(%rbp),%rax
    7ad1:	48 89 85 90 e6 ff ff 	mov    %rax,-0x1970(%rbp)
    7ad8:	48 8d 85 d0 d8 ff ff 	lea    -0x2730(%rbp),%rax
    7adf:	48 89 85 98 e6 ff ff 	mov    %rax,-0x1968(%rbp)
    7ae6:	48 8d 05 6b cd 00 00 	lea    0xcd6b(%rip),%rax        # 14858 <g_308>
    7aed:	48 89 85 a0 e6 ff ff 	mov    %rax,-0x1960(%rbp)
    7af4:	48 8d 05 5d cd 00 00 	lea    0xcd5d(%rip),%rax        # 14858 <g_308>
    7afb:	48 89 85 a8 e6 ff ff 	mov    %rax,-0x1958(%rbp)
    7b02:	48 8d 85 d0 d8 ff ff 	lea    -0x2730(%rbp),%rax
    7b09:	48 89 85 b0 e6 ff ff 	mov    %rax,-0x1950(%rbp)
    7b10:	48 8d 05 41 cd 00 00 	lea    0xcd41(%rip),%rax        # 14858 <g_308>
    7b17:	48 89 85 b8 e6 ff ff 	mov    %rax,-0x1948(%rbp)
    7b1e:	48 8d 05 33 cd 00 00 	lea    0xcd33(%rip),%rax        # 14858 <g_308>
    7b25:	48 89 85 c0 e6 ff ff 	mov    %rax,-0x1940(%rbp)
    7b2c:	48 8d 85 d0 d8 ff ff 	lea    -0x2730(%rbp),%rax
    7b33:	48 89 85 c8 e6 ff ff 	mov    %rax,-0x1938(%rbp)
    7b3a:	48 8d 85 d0 d8 ff ff 	lea    -0x2730(%rbp),%rax
    7b41:	48 89 85 d0 e6 ff ff 	mov    %rax,-0x1930(%rbp)
    7b48:	48 8d 85 d0 d8 ff ff 	lea    -0x2730(%rbp),%rax
    7b4f:	48 89 85 d8 e6 ff ff 	mov    %rax,-0x1928(%rbp)
    7b56:	48 c7 85 e0 e6 ff ff 	movq   $0x0,-0x1920(%rbp)
    7b5d:	00 00 00 00 
    7b61:	48 c7 85 e8 e6 ff ff 	movq   $0x0,-0x1918(%rbp)
    7b68:	00 00 00 00 
    7b6c:	48 8d 05 e5 cc 00 00 	lea    0xcce5(%rip),%rax        # 14858 <g_308>
    7b73:	48 89 85 f0 e6 ff ff 	mov    %rax,-0x1910(%rbp)
    7b7a:	48 8d 85 d0 d8 ff ff 	lea    -0x2730(%rbp),%rax
    7b81:	48 89 85 f8 e6 ff ff 	mov    %rax,-0x1908(%rbp)
    7b88:	48 c7 85 00 e7 ff ff 	movq   $0x0,-0x1900(%rbp)
    7b8f:	00 00 00 00 
    7b93:	48 8d 05 be cc 00 00 	lea    0xccbe(%rip),%rax        # 14858 <g_308>
    7b9a:	48 89 85 08 e7 ff ff 	mov    %rax,-0x18f8(%rbp)
    7ba1:	48 8d 05 b0 cc 00 00 	lea    0xccb0(%rip),%rax        # 14858 <g_308>
    7ba8:	48 89 85 10 e7 ff ff 	mov    %rax,-0x18f0(%rbp)
    7baf:	48 c7 85 18 e7 ff ff 	movq   $0x0,-0x18e8(%rbp)
    7bb6:	00 00 00 00 
    7bba:	48 8d 85 d0 d8 ff ff 	lea    -0x2730(%rbp),%rax
    7bc1:	48 89 85 20 e7 ff ff 	mov    %rax,-0x18e0(%rbp)
    7bc8:	48 c7 85 28 e7 ff ff 	movq   $0x0,-0x18d8(%rbp)
    7bcf:	00 00 00 00 
    7bd3:	48 8d 85 d0 d8 ff ff 	lea    -0x2730(%rbp),%rax
    7bda:	48 89 85 30 e7 ff ff 	mov    %rax,-0x18d0(%rbp)
    7be1:	48 c7 85 38 e7 ff ff 	movq   $0x0,-0x18c8(%rbp)
    7be8:	00 00 00 00 
    7bec:	48 8d 05 65 cc 00 00 	lea    0xcc65(%rip),%rax        # 14858 <g_308>
    7bf3:	48 89 85 40 e7 ff ff 	mov    %rax,-0x18c0(%rbp)
    7bfa:	48 8d 05 57 cc 00 00 	lea    0xcc57(%rip),%rax        # 14858 <g_308>
    7c01:	48 89 85 48 e7 ff ff 	mov    %rax,-0x18b8(%rbp)
    7c08:	48 c7 85 50 e7 ff ff 	movq   $0x0,-0x18b0(%rbp)
    7c0f:	00 00 00 00 
    7c13:	48 8d 85 d0 d8 ff ff 	lea    -0x2730(%rbp),%rax
    7c1a:	48 89 85 58 e7 ff ff 	mov    %rax,-0x18a8(%rbp)
    7c21:	48 8d 05 30 cc 00 00 	lea    0xcc30(%rip),%rax        # 14858 <g_308>
    7c28:	48 89 85 60 e7 ff ff 	mov    %rax,-0x18a0(%rbp)
    7c2f:	48 c7 85 68 e7 ff ff 	movq   $0x0,-0x1898(%rbp)
    7c36:	00 00 00 00 
    7c3a:	48 c7 85 70 e7 ff ff 	movq   $0x0,-0x1890(%rbp)
    7c41:	00 00 00 00 
    7c45:	48 8d 85 d0 d8 ff ff 	lea    -0x2730(%rbp),%rax
    7c4c:	48 89 85 78 e7 ff ff 	mov    %rax,-0x1888(%rbp)
    7c53:	48 8d 85 d0 d8 ff ff 	lea    -0x2730(%rbp),%rax
    7c5a:	48 89 85 80 e7 ff ff 	mov    %rax,-0x1880(%rbp)
    7c61:	48 8d 85 d0 d8 ff ff 	lea    -0x2730(%rbp),%rax
    7c68:	48 89 85 88 e7 ff ff 	mov    %rax,-0x1878(%rbp)
    7c6f:	48 8d 05 e2 cb 00 00 	lea    0xcbe2(%rip),%rax        # 14858 <g_308>
    7c76:	48 89 85 90 e7 ff ff 	mov    %rax,-0x1870(%rbp)
    7c7d:	48 8d 05 d4 cb 00 00 	lea    0xcbd4(%rip),%rax        # 14858 <g_308>
    7c84:	48 89 85 98 e7 ff ff 	mov    %rax,-0x1868(%rbp)
    7c8b:	48 8d 85 d0 d8 ff ff 	lea    -0x2730(%rbp),%rax
    7c92:	48 89 85 a0 e7 ff ff 	mov    %rax,-0x1860(%rbp)
    7c99:	48 8d 05 b8 cb 00 00 	lea    0xcbb8(%rip),%rax        # 14858 <g_308>
    7ca0:	48 89 85 a8 e7 ff ff 	mov    %rax,-0x1858(%rbp)
    7ca7:	48 8d 05 aa cb 00 00 	lea    0xcbaa(%rip),%rax        # 14858 <g_308>
    7cae:	48 89 85 b0 e7 ff ff 	mov    %rax,-0x1850(%rbp)
    7cb5:	48 8d 85 d0 d8 ff ff 	lea    -0x2730(%rbp),%rax
    7cbc:	48 89 85 b8 e7 ff ff 	mov    %rax,-0x1848(%rbp)
    7cc3:	48 8d 85 d0 d8 ff ff 	lea    -0x2730(%rbp),%rax
    7cca:	48 89 85 c0 e7 ff ff 	mov    %rax,-0x1840(%rbp)
    7cd1:	48 8d 85 d0 d8 ff ff 	lea    -0x2730(%rbp),%rax
    7cd8:	48 89 85 c8 e7 ff ff 	mov    %rax,-0x1838(%rbp)
    7cdf:	48 c7 85 d0 e7 ff ff 	movq   $0x0,-0x1830(%rbp)
    7ce6:	00 00 00 00 
    7cea:	48 c7 85 d8 e7 ff ff 	movq   $0x0,-0x1828(%rbp)
    7cf1:	00 00 00 00 
    7cf5:	48 8d 05 5c cb 00 00 	lea    0xcb5c(%rip),%rax        # 14858 <g_308>
    7cfc:	48 89 85 e0 e7 ff ff 	mov    %rax,-0x1820(%rbp)
    7d03:	48 8d 85 d0 d8 ff ff 	lea    -0x2730(%rbp),%rax
    7d0a:	48 89 85 e8 e7 ff ff 	mov    %rax,-0x1818(%rbp)
    7d11:	48 c7 85 f0 e7 ff ff 	movq   $0x0,-0x1810(%rbp)
    7d18:	00 00 00 00 
    7d1c:	48 8d 05 35 cb 00 00 	lea    0xcb35(%rip),%rax        # 14858 <g_308>
    7d23:	48 89 85 f8 e7 ff ff 	mov    %rax,-0x1808(%rbp)
    7d2a:	48 8d 05 27 cb 00 00 	lea    0xcb27(%rip),%rax        # 14858 <g_308>
    7d31:	48 89 85 00 e8 ff ff 	mov    %rax,-0x1800(%rbp)
    7d38:	48 c7 85 08 e8 ff ff 	movq   $0x0,-0x17f8(%rbp)
    7d3f:	00 00 00 00 
    7d43:	48 8d 85 d0 d8 ff ff 	lea    -0x2730(%rbp),%rax
    7d4a:	48 89 85 10 e8 ff ff 	mov    %rax,-0x17f0(%rbp)
    7d51:	48 c7 85 18 e8 ff ff 	movq   $0x0,-0x17e8(%rbp)
    7d58:	00 00 00 00 
    7d5c:	48 8d 85 80 e2 ff ff 	lea    -0x1d80(%rbp),%rax
    7d63:	48 05 b0 04 00 00    	add    $0x4b0,%rax
    7d69:	48 89 85 d8 d8 ff ff 	mov    %rax,-0x2728(%rbp)
    7d70:	48 8d 05 49 b4 00 00 	lea    0xb449(%rip),%rax        # 131c0 <g_151>
    7d77:	48 89 85 e0 d8 ff ff 	mov    %rax,-0x2720(%rbp)
    7d7e:	48 8d 85 e0 d8 ff ff 	lea    -0x2720(%rbp),%rax
    7d85:	48 89 85 50 d9 ff ff 	mov    %rax,-0x26b0(%rbp)
    7d8c:	c7 85 28 d8 ff ff 01 	movl   $0x1,-0x27d8(%rbp)
    7d93:	00 00 00 
    7d96:	c6 85 9e d7 ff ff 0e 	movb   $0xe,-0x2862(%rbp)
    7d9d:	c6 85 a0 d7 ff ff 05 	movb   $0x5,-0x2860(%rbp)
    7da4:	48 8d 05 19 b4 00 00 	lea    0xb419(%rip),%rax        # 131c4 <g_195>
    7dab:	48 89 85 e8 d8 ff ff 	mov    %rax,-0x2718(%rbp)
    7db2:	48 8d 85 e8 d8 ff ff 	lea    -0x2718(%rbp),%rax
    7db9:	48 89 85 58 d9 ff ff 	mov    %rax,-0x26a8(%rbp)
    7dc0:	c7 85 e0 d7 ff ff 00 	movl   $0x0,-0x2820(%rbp)
    7dc7:	00 00 00 
    7dca:	eb 1a                	jmp    7de6 <func_8+0xf15>
    7dcc:	8b 85 e0 d7 ff ff    	mov    -0x2820(%rbp),%eax
    7dd2:	48 98                	cltq   
    7dd4:	c7 84 85 e8 d9 ff ff 	movl   $0x4,-0x2618(%rbp,%rax,4)
    7ddb:	04 00 00 00 
    7ddf:	83 85 e0 d7 ff ff 01 	addl   $0x1,-0x2820(%rbp)
    7de6:	83 bd e0 d7 ff ff 00 	cmpl   $0x0,-0x2820(%rbp)
    7ded:	7e dd                	jle    7dcc <func_8+0xefb>
    7def:	c7 85 e0 d7 ff ff 00 	movl   $0x0,-0x2820(%rbp)
    7df6:	00 00 00 
    7df9:	eb 19                	jmp    7e14 <func_8+0xf43>
    7dfb:	8b 85 e0 d7 ff ff    	mov    -0x2820(%rbp),%eax
    7e01:	48 98                	cltq   
    7e03:	66 c7 84 45 ec d9 ff 	movw   $0x0,-0x2614(%rbp,%rax,2)
    7e0a:	ff 00 00 
    7e0d:	83 85 e0 d7 ff ff 01 	addl   $0x1,-0x2820(%rbp)
    7e14:	83 bd e0 d7 ff ff 01 	cmpl   $0x1,-0x2820(%rbp)
    7e1b:	7e de                	jle    7dfb <func_8+0xf2a>
    7e1d:	48 0f bf 95 84 d7 ff 	movswq -0x287c(%rbp),%rdx
    7e24:	ff 
    7e25:	0f b6 05 94 d3 00 00 	movzbl 0xd394(%rip),%eax        # 151c0 <g_313>
    7e2c:	0f be c0             	movsbl %al,%eax
    7e2f:	83 c0 02             	add    $0x2,%eax
    7e32:	48 98                	cltq   
    7e34:	48 8d 0c 85 00 00 00 	lea    0x0(,%rax,4),%rcx
    7e3b:	00 
    7e3c:	48 8d 05 3d b3 00 00 	lea    0xb33d(%rip),%rax        # 13180 <g_91>
    7e43:	8b 04 01             	mov    (%rcx,%rax,1),%eax
    7e46:	48 98                	cltq   
    7e48:	48 89 d6             	mov    %rdx,%rsi
    7e4b:	48 89 c7             	mov    %rax,%rdi
    7e4e:	e8 db e1 ff ff       	callq  602e <safe_add_func_uint64_t_u_u>
    7e53:	89 c3                	mov    %eax,%ebx
    7e55:	0f b6 05 64 d3 00 00 	movzbl 0xd364(%rip),%eax        # 151c0 <g_313>
    7e5c:	0f be c0             	movsbl %al,%eax
    7e5f:	83 c0 02             	add    $0x2,%eax
    7e62:	48 98                	cltq   
    7e64:	48 8d 14 85 00 00 00 	lea    0x0(,%rax,4),%rdx
    7e6b:	00 
    7e6c:	48 8d 05 0d b3 00 00 	lea    0xb30d(%rip),%rax        # 13180 <g_91>
    7e73:	8b 04 02             	mov    (%rdx,%rax,1),%eax
    7e76:	98                   	cwtl   
    7e77:	be 00 00 00 00       	mov    $0x0,%esi
    7e7c:	89 c7                	mov    %eax,%edi
    7e7e:	e8 5e d6 ff ff       	callq  54e1 <safe_lshift_func_int16_t_s_u>
    7e83:	98                   	cwtl   
    7e84:	89 de                	mov    %ebx,%esi
    7e86:	89 c7                	mov    %eax,%edi
    7e88:	e8 98 e0 ff ff       	callq  5f25 <safe_div_func_uint32_t_u_u>
    7e8d:	85 c0                	test   %eax,%eax
    7e8f:	0f 84 4d 01 00 00    	je     7fe2 <func_8+0x1111>
    7e95:	48 8d 05 44 b3 00 00 	lea    0xb344(%rip),%rax        # 131e0 <g_457>
    7e9c:	48 89 85 80 d9 ff ff 	mov    %rax,-0x2680(%rbp)
    7ea3:	48 8d 05 26 b3 00 00 	lea    0xb326(%rip),%rax        # 131d0 <g_411>
    7eaa:	48 89 85 88 d9 ff ff 	mov    %rax,-0x2678(%rbp)
    7eb1:	c6 85 a5 d7 ff ff 9d 	movb   $0x9d,-0x285b(%rbp)
    7eb8:	48 8b 05 e9 c8 00 00 	mov    0xc8e9(%rip),%rax        # 147a8 <g_213>
    7ebf:	48 8b 00             	mov    (%rax),%rax
    7ec2:	0f b6 95 a1 d7 ff ff 	movzbl -0x285f(%rbp),%edx
    7ec9:	48 89 10             	mov    %rdx,(%rax)
    7ecc:	48 8b 00             	mov    (%rax),%rax
    7ecf:	48 85 c0             	test   %rax,%rax
    7ed2:	0f 84 dd 00 00 00    	je     7fb5 <func_8+0x10e4>
    7ed8:	be 07 00 00 00       	mov    $0x7,%esi
    7edd:	bf ff 00 00 00       	mov    $0xff,%edi
    7ee2:	e8 65 dd ff ff       	callq  5c4c <safe_lshift_func_uint8_t_u_u>
    7ee7:	44 0f b6 e8          	movzbl %al,%r13d
    7eeb:	44 0f bf b5 84 d7 ff 	movswl -0x287c(%rbp),%r14d
    7ef2:	ff 
    7ef3:	48 83 bd 70 d7 ff ff 	cmpq   $0x45,-0x2890(%rbp)
    7efa:	45 
    7efb:	0f 8f 9e 00 00 00    	jg     7f9f <func_8+0x10ce>
    7f01:	48 0f bf 9d 84 d7 ff 	movswq -0x287c(%rbp),%rbx
    7f08:	ff 
    7f09:	44 0f bf a5 ae d7 ff 	movswl -0x2852(%rbp),%r12d
    7f10:	ff 
    7f11:	be 07 00 00 00       	mov    $0x7,%esi
    7f16:	bf 19 00 00 00       	mov    $0x19,%edi
    7f1b:	e8 2c dd ff ff       	callq  5c4c <safe_lshift_func_uint8_t_u_u>
    7f20:	48 8b 05 81 c8 00 00 	mov    0xc881(%rip),%rax        # 147a8 <g_213>
    7f27:	48 8b 00             	mov    (%rax),%rax
    7f2a:	48 39 85 80 d9 ff ff 	cmp    %rax,-0x2680(%rbp)
    7f31:	0f 95 c0             	setne  %al
    7f34:	0f b6 c0             	movzbl %al,%eax
    7f37:	44 89 e6             	mov    %r12d,%esi
    7f3a:	89 c7                	mov    %eax,%edi
    7f3c:	e8 c4 dc ff ff       	callq  5c05 <safe_lshift_func_uint8_t_u_s>
    7f41:	48 8b 95 88 d9 ff ff 	mov    -0x2678(%rbp),%rdx
    7f48:	48 8b 12             	mov    (%rdx),%rdx
    7f4b:	0f b6 c0             	movzbl %al,%eax
    7f4e:	48 09 c2             	or     %rax,%rdx
    7f51:	48 8b 85 88 d9 ff ff 	mov    -0x2678(%rbp),%rax
    7f58:	48 89 10             	mov    %rdx,(%rax)
    7f5b:	48 8b 85 88 d9 ff ff 	mov    -0x2678(%rbp),%rax
    7f62:	48 8b 00             	mov    (%rax),%rax
    7f65:	48 89 de             	mov    %rbx,%rsi
    7f68:	48 89 c7             	mov    %rax,%rdi
    7f6b:	e8 38 d9 ff ff       	callq  58a8 <safe_sub_func_int64_t_s_s>
    7f70:	98                   	cwtl   
    7f71:	be 01 00 00 00       	mov    $0x1,%esi
    7f76:	89 c7                	mov    %eax,%edi
    7f78:	e8 e6 d5 ff ff       	callq  5563 <safe_rshift_func_int16_t_s_u>
    7f7d:	98                   	cwtl   
    7f7e:	be 0f 00 00 00       	mov    $0xf,%esi
    7f83:	89 c7                	mov    %eax,%edi
    7f85:	e8 d9 d5 ff ff       	callq  5563 <safe_rshift_func_int16_t_s_u>
    7f8a:	66 85 c0             	test   %ax,%ax
    7f8d:	74 10                	je     7f9f <func_8+0x10ce>
    7f8f:	80 bd a5 d7 ff ff 00 	cmpb   $0x0,-0x285b(%rbp)
    7f96:	74 07                	je     7f9f <func_8+0x10ce>
    7f98:	b8 01 00 00 00       	mov    $0x1,%eax
    7f9d:	eb 05                	jmp    7fa4 <func_8+0x10d3>
    7f9f:	b8 00 00 00 00       	mov    $0x0,%eax
    7fa4:	0d 69 87 00 00       	or     $0x8769,%eax
    7fa9:	41 39 c6             	cmp    %eax,%r14d
    7fac:	0f 9f c0             	setg   %al
    7faf:	0f b6 c0             	movzbl %al,%eax
    7fb2:	41 39 c5             	cmp    %eax,%r13d
    7fb5:	48 8b 05 5c cb 00 00 	mov    0xcb5c(%rip),%rax        # 14b18 <g_645>
    7fbc:	c6 00 fe             	movb   $0xfe,(%rax)
    7fbf:	8b 05 fb b1 00 00    	mov    0xb1fb(%rip),%eax        # 131c0 <g_151>
    7fc5:	89 c0                	mov    %eax,%eax
    7fc7:	48 8d 14 85 00 00 00 	lea    0x0(,%rax,4),%rdx
    7fce:	00 
    7fcf:	48 8d 05 aa b1 00 00 	lea    0xb1aa(%rip),%rax        # 13180 <g_91>
    7fd6:	c7 04 02 01 00 00 00 	movl   $0x1,(%rdx,%rax,1)
    7fdd:	e9 c4 02 00 00       	jmpq   82a6 <func_8+0x13d5>
    7fe2:	c6 85 a4 d7 ff ff 03 	movb   $0x3,-0x285c(%rbp)
    7fe9:	c7 85 2c d8 ff ff 16 	movl   $0x2ed39816,-0x27d4(%rbp)
    7ff0:	98 d3 2e 
    7ff3:	48 8b 05 f6 ca 00 00 	mov    0xcaf6(%rip),%rax        # 14af0 <g_581>
    7ffa:	48 8b 95 70 db ff ff 	mov    -0x2490(%rbp),%rdx
    8001:	48 89 10             	mov    %rdx,(%rax)
    8004:	66 c7 05 df b1 00 00 	movw   $0x0,0xb1df(%rip)        # 131ec <g_961>
    800b:	00 00 
    800d:	90                   	nop
    800e:	0f b7 05 d7 b1 00 00 	movzwl 0xb1d7(%rip),%eax        # 131ec <g_961>
    8015:	66 85 c0             	test   %ax,%ax
    8018:	75 0c                	jne    8026 <func_8+0x1155>
    801a:	48 8b 85 48 d9 ff ff 	mov    -0x26b8(%rbp),%rax
    8021:	e9 7c 22 00 00       	jmpq   a2a2 <func_8+0x33d1>
    8026:	48 c7 05 87 b1 00 00 	movq   $0x0,0xb187(%rip)        # 131b8 <g_141>
    802d:	00 00 00 00 
    8031:	e9 60 02 00 00       	jmpq   8296 <func_8+0x13c5>
    8036:	48 8d 85 10 db ff ff 	lea    -0x24f0(%rbp),%rax
    803d:	48 83 c0 60          	add    $0x60,%rax
    8041:	48 89 85 60 d9 ff ff 	mov    %rax,-0x26a0(%rbp)
    8048:	c7 85 e4 d7 ff ff ff 	movl   $0xffffffff,-0x281c(%rbp)
    804f:	ff ff ff 
    8052:	c7 85 30 d8 ff ff 42 	movl   $0x4c8ebc42,-0x27d0(%rbp)
    8059:	bc 8e 4c 
    805c:	48 8b 85 48 d9 ff ff 	mov    -0x26b8(%rbp),%rax
    8063:	88 85 a4 d7 ff ff    	mov    %al,-0x285c(%rbp)
    8069:	0f b6 85 a4 d7 ff ff 	movzbl -0x285c(%rbp),%eax
    8070:	66 0f be d0          	movsbw %al,%dx
    8074:	0f b7 85 aa d7 ff ff 	movzwl -0x2856(%rbp),%eax
    807b:	21 d0                	and    %edx,%eax
    807d:	66 89 85 aa d7 ff ff 	mov    %ax,-0x2856(%rbp)
    8084:	48 8b 15 2d b1 00 00 	mov    0xb12d(%rip),%rdx        # 131b8 <g_141>
    808b:	0f b6 05 2e d1 00 00 	movzbl 0xd12e(%rip),%eax        # 151c0 <g_313>
    8092:	0f be c0             	movsbl %al,%eax
    8095:	8d 48 04             	lea    0x4(%rax),%ecx
    8098:	0f b6 05 21 d1 00 00 	movzbl 0xd121(%rip),%eax        # 151c0 <g_313>
    809f:	0f be c0             	movsbl %al,%eax
    80a2:	83 c0 01             	add    $0x1,%eax
    80a5:	48 63 f0             	movslq %eax,%rsi
    80a8:	48 63 c9             	movslq %ecx,%rcx
    80ab:	48 89 d0             	mov    %rdx,%rax
    80ae:	48 c1 e0 02          	shl    $0x2,%rax
    80b2:	48 01 d0             	add    %rdx,%rax
    80b5:	48 8d 14 85 00 00 00 	lea    0x0(,%rax,4),%rdx
    80bc:	00 
    80bd:	48 01 d0             	add    %rdx,%rax
    80c0:	48 89 ca             	mov    %rcx,%rdx
    80c3:	48 c1 e2 02          	shl    $0x2,%rdx
    80c7:	48 01 ca             	add    %rcx,%rdx
    80ca:	48 01 d0             	add    %rdx,%rax
    80cd:	48 01 f0             	add    %rsi,%rax
    80d0:	48 8d 14 c5 00 00 00 	lea    0x0(,%rax,8),%rdx
    80d7:	00 
    80d8:	48 8d 05 41 c9 00 00 	lea    0xc941(%rip),%rax        # 14a20 <g_475>
    80df:	48 8b 14 02          	mov    (%rdx,%rax,1),%rdx
    80e3:	48 8b 85 60 d9 ff ff 	mov    -0x26a0(%rbp),%rax
    80ea:	48 89 10             	mov    %rdx,(%rax)
    80ed:	66 c7 05 f6 b0 00 00 	movw   $0x0,0xb0f6(%rip)        # 131ec <g_961>
    80f4:	00 00 
    80f6:	e9 67 01 00 00       	jmpq   8262 <func_8+0x1391>
    80fb:	c7 85 34 d8 ff ff fa 	movl   $0xfffffffa,-0x27cc(%rbp)
    8102:	ff ff ff 
    8105:	48 c7 85 68 d9 ff ff 	movq   $0x0,-0x2698(%rbp)
    810c:	00 00 00 00 
    8110:	48 8d 05 af b0 00 00 	lea    0xb0af(%rip),%rax        # 131c6 <g_200>
    8117:	48 89 85 70 d9 ff ff 	mov    %rax,-0x2690(%rbp)
    811e:	48 8d 05 9f b0 00 00 	lea    0xb09f(%rip),%rax        # 131c4 <g_195>
    8125:	48 89 85 78 d9 ff ff 	mov    %rax,-0x2688(%rbp)
    812c:	48 8b 85 88 d7 ff ff 	mov    -0x2878(%rbp),%rax
    8133:	8b 00                	mov    (%rax),%eax
    8135:	31 85 e4 d7 ff ff    	xor    %eax,-0x281c(%rbp)
    813b:	8b 85 2c d8 ff ff    	mov    -0x27d4(%rbp),%eax
    8141:	98                   	cwtl   
    8142:	89 c7                	mov    %eax,%edi
    8144:	e8 54 d2 ff ff       	callq  539d <safe_unary_minus_func_int16_t_s>
    8149:	0f bf d8             	movswl %ax,%ebx
    814c:	c7 85 34 d8 ff ff f6 	movl   $0xfffffff6,-0x27cc(%rbp)
    8153:	ff ff ff 
    8156:	0f bf 95 84 d7 ff ff 	movswl -0x287c(%rbp),%edx
    815d:	8b 85 2c d8 ff ff    	mov    -0x27d4(%rbp),%eax
    8163:	89 d6                	mov    %edx,%esi
    8165:	89 c7                	mov    %eax,%edi
    8167:	e8 93 d5 ff ff       	callq  56ff <safe_div_func_int32_t_s_s>
    816c:	0f b7 c0             	movzwl %ax,%eax
    816f:	be 7c 94 00 00       	mov    $0x947c,%esi
    8174:	89 c7                	mov    %eax,%edi
    8176:	e8 e1 db ff ff       	callq  5d5c <safe_mod_func_uint16_t_u_u>
    817b:	0f b7 c0             	movzwl %ax,%eax
    817e:	89 de                	mov    %ebx,%esi
    8180:	89 c7                	mov    %eax,%edi
    8182:	e8 31 dd ff ff       	callq  5eb8 <safe_add_func_uint32_t_u_u>
    8187:	48 8b 85 68 d7 ff ff 	mov    -0x2898(%rbp),%rax
    818e:	0f bf d8             	movswl %ax,%ebx
    8191:	48 8b 85 70 d9 ff ff 	mov    -0x2690(%rbp),%rax
    8198:	66 c7 00 04 00       	movw   $0x4,(%rax)
    819d:	0f b6 05 1c d0 00 00 	movzbl 0xd01c(%rip),%eax        # 151c0 <g_313>
    81a4:	0f be c0             	movsbl %al,%eax
    81a7:	83 c0 02             	add    $0x2,%eax
    81aa:	48 98                	cltq   
    81ac:	48 8d 14 85 00 00 00 	lea    0x0(,%rax,4),%rdx
    81b3:	00 
    81b4:	48 8d 05 c5 af 00 00 	lea    0xafc5(%rip),%rax        # 13180 <g_91>
    81bb:	8b 04 02             	mov    (%rdx,%rax,1),%eax
    81be:	41 89 c4             	mov    %eax,%r12d
    81c1:	48 8b 85 70 d7 ff ff 	mov    -0x2890(%rbp),%rax
    81c8:	0f b6 c0             	movzbl %al,%eax
    81cb:	be 01 00 00 00       	mov    $0x1,%esi
    81d0:	89 c7                	mov    %eax,%edi
    81d2:	e8 a1 d9 ff ff       	callq  5b78 <safe_sub_func_uint8_t_u_u>
    81d7:	0f b6 c0             	movzbl %al,%eax
    81da:	44 89 e6             	mov    %r12d,%esi
    81dd:	89 c7                	mov    %eax,%edi
    81df:	e8 41 dd ff ff       	callq  5f25 <safe_div_func_uint32_t_u_u>
    81e4:	89 c2                	mov    %eax,%edx
    81e6:	48 8b 85 68 d7 ff ff 	mov    -0x2898(%rbp),%rax
    81ed:	48 89 c6             	mov    %rax,%rsi
    81f0:	48 89 d7             	mov    %rdx,%rdi
    81f3:	e8 49 d6 ff ff       	callq  5841 <safe_add_func_int64_t_s_s>
    81f8:	48 83 f8 03          	cmp    $0x3,%rax
    81fc:	0f 9e c0             	setle  %al
    81ff:	0f b6 d0             	movzbl %al,%edx
    8202:	48 8b 85 78 d9 ff ff 	mov    -0x2688(%rbp),%rax
    8209:	66 89 10             	mov    %dx,(%rax)
    820c:	0f b6 05 ad cf 00 00 	movzbl 0xcfad(%rip),%eax        # 151c0 <g_313>
    8213:	0f be c0             	movsbl %al,%eax
    8216:	83 c0 02             	add    $0x2,%eax
    8219:	48 98                	cltq   
    821b:	48 8d 14 85 00 00 00 	lea    0x0(,%rax,4),%rdx
    8222:	00 
    8223:	48 8d 05 56 af 00 00 	lea    0xaf56(%rip),%rax        # 13180 <g_91>
    822a:	8b 04 02             	mov    (%rdx,%rax,1),%eax
    822d:	f7 d0                	not    %eax
    822f:	0f bf c8             	movswl %ax,%ecx
    8232:	8b 85 30 d8 ff ff    	mov    -0x27d0(%rbp),%eax
    8238:	0f be c0             	movsbl %al,%eax
    823b:	4c 8b 25 b6 c8 00 00 	mov    0xc8b6(%rip),%r12        # 14af8 <g_598>
    8242:	89 da                	mov    %ebx,%edx
    8244:	89 ce                	mov    %ecx,%esi
    8246:	89 c7                	mov    %eax,%edi
    8248:	e8 e1 4e 00 00       	callq  d12e <func_69>
    824d:	49 89 04 24          	mov    %rax,(%r12)
    8251:	0f b7 05 94 af 00 00 	movzwl 0xaf94(%rip),%eax        # 131ec <g_961>
    8258:	83 c0 01             	add    $0x1,%eax
    825b:	66 89 05 8a af 00 00 	mov    %ax,0xaf8a(%rip)        # 131ec <g_961>
    8262:	0f b7 05 83 af 00 00 	movzwl 0xaf83(%rip),%eax        # 131ec <g_961>
    8269:	66 83 f8 1d          	cmp    $0x1d,%ax
    826d:	0f 87 88 fe ff ff    	ja     80fb <func_8+0x122a>
    8273:	48 8b 05 46 c9 00 00 	mov    0xc946(%rip),%rax        # 14bc0 <g_1048>
    827a:	48 8b 95 30 d9 ff ff 	mov    -0x26d0(%rbp),%rdx
    8281:	48 89 10             	mov    %rdx,(%rax)
    8284:	48 8b 05 2d af 00 00 	mov    0xaf2d(%rip),%rax        # 131b8 <g_141>
    828b:	48 83 c0 01          	add    $0x1,%rax
    828f:	48 89 05 22 af 00 00 	mov    %rax,0xaf22(%rip)        # 131b8 <g_141>
    8296:	48 8b 05 1b af 00 00 	mov    0xaf1b(%rip),%rax        # 131b8 <g_141>
    829d:	48 85 c0             	test   %rax,%rax
    82a0:	0f 84 90 fd ff ff    	je     8036 <func_8+0x1165>
    82a6:	48 8b 05 4b c8 00 00 	mov    0xc84b(%rip),%rax        # 14af8 <g_598>
    82ad:	48 8b 95 88 d7 ff ff 	mov    -0x2878(%rbp),%rdx
    82b4:	48 89 10             	mov    %rdx,(%rax)
    82b7:	66 c7 85 84 d7 ff ff 	movw   $0x0,-0x287c(%rbp)
    82be:	00 00 
    82c0:	e9 0c 16 00 00       	jmpq   98d1 <func_8+0x2a00>
    82c5:	66 c7 85 b4 d7 ff ff 	movw   $0xc725,-0x284c(%rbp)
    82cc:	25 c7 
    82ce:	c6 85 a6 d7 ff ff f7 	movb   $0xf7,-0x285a(%rbp)
    82d5:	c7 85 38 d8 ff ff a2 	movl   $0xe302e0a2,-0x27c8(%rbp)
    82dc:	e0 02 e3 
    82df:	48 8d 85 90 de ff ff 	lea    -0x2170(%rbp),%rax
    82e6:	48 8d 15 13 60 00 00 	lea    0x6013(%rip),%rdx        # e300 <g_1282+0x2a0>
    82ed:	b9 7e 00 00 00       	mov    $0x7e,%ecx
    82f2:	48 89 c7             	mov    %rax,%rdi
    82f5:	48 89 d6             	mov    %rdx,%rsi
    82f8:	f3 48 a5             	rep movsq %ds:(%rsi),%es:(%rdi)
    82fb:	c7 85 3c d8 ff ff f9 	movl   $0xfffffff9,-0x27c4(%rbp)
    8302:	ff ff ff 
    8305:	48 c7 85 f0 d8 ff ff 	movq   $0x0,-0x2710(%rbp)
    830c:	00 00 00 00 
    8310:	48 8d 85 f0 d8 ff ff 	lea    -0x2710(%rbp),%rax
    8317:	48 89 85 90 d9 ff ff 	mov    %rax,-0x2670(%rbp)
    831e:	48 c7 85 98 d9 ff ff 	movq   $0x9,-0x2668(%rbp)
    8325:	09 00 00 00 
    8329:	66 83 bd b4 d7 ff ff 	cmpw   $0x0,-0x284c(%rbp)
    8330:	00 
    8331:	0f 85 aa 15 00 00    	jne    98e1 <func_8+0x2a10>
    8337:	66 83 bd b4 d7 ff ff 	cmpw   $0x0,-0x284c(%rbp)
    833e:	00 
    833f:	0f 85 7a 15 00 00    	jne    98bf <func_8+0x29ee>
    8345:	0f b6 05 74 ce 00 00 	movzbl 0xce74(%rip),%eax        # 151c0 <g_313>
    834c:	0f be c0             	movsbl %al,%eax
    834f:	83 c0 02             	add    $0x2,%eax
    8352:	48 98                	cltq   
    8354:	48 8d 14 85 00 00 00 	lea    0x0(,%rax,4),%rdx
    835b:	00 
    835c:	48 8d 05 1d ae 00 00 	lea    0xae1d(%rip),%rax        # 13180 <g_91>
    8363:	8b 04 02             	mov    (%rdx,%rax,1),%eax
    8366:	85 c0                	test   %eax,%eax
    8368:	0f 85 76 15 00 00    	jne    98e4 <func_8+0x2a13>
    836e:	c7 05 60 ae 00 00 19 	movl   $0x19,0xae60(%rip)        # 131d8 <g_424>
    8375:	00 00 00 
    8378:	e9 31 15 00 00       	jmpq   98ae <func_8+0x29dd>
    837d:	48 8d 85 50 dd ff ff 	lea    -0x22b0(%rbp),%rax
    8384:	48 8d 15 75 63 00 00 	lea    0x6375(%rip),%rdx        # e700 <g_1282+0x6a0>
    838b:	b9 28 00 00 00       	mov    $0x28,%ecx
    8390:	48 89 c7             	mov    %rax,%rdi
    8393:	48 89 d6             	mov    %rdx,%rsi
    8396:	f3 48 a5             	rep movsq %ds:(%rsi),%es:(%rdi)
    8399:	66 c7 85 b6 d7 ff ff 	movw   $0x2,-0x284a(%rbp)
    83a0:	02 00 
    83a2:	48 8d 85 00 f0 ff ff 	lea    -0x1000(%rbp),%rax
    83a9:	48 8d 15 90 64 00 00 	lea    0x6490(%rip),%rdx        # e840 <g_1282+0x7e0>
    83b0:	b9 fc 00 00 00       	mov    $0xfc,%ecx
    83b5:	48 89 c7             	mov    %rax,%rdi
    83b8:	48 89 d6             	mov    %rdx,%rsi
    83bb:	f3 48 a5             	rep movsq %ds:(%rsi),%es:(%rdi)
    83be:	66 c7 85 b8 d7 ff ff 	movw   $0x4686,-0x2848(%rbp)
    83c5:	86 46 
    83c7:	c7 85 e8 d7 ff ff 00 	movl   $0x0,-0x2818(%rbp)
    83ce:	00 00 00 
    83d1:	eb 1a                	jmp    83ed <func_8+0x151c>
    83d3:	8b 85 e8 d7 ff ff    	mov    -0x2818(%rbp),%eax
    83d9:	48 98                	cltq   
    83db:	c7 84 85 20 da ff ff 	movl   $0x1,-0x25e0(%rbp,%rax,4)
    83e2:	01 00 00 00 
    83e6:	83 85 e8 d7 ff ff 01 	addl   $0x1,-0x2818(%rbp)
    83ed:	83 bd e8 d7 ff ff 07 	cmpl   $0x7,-0x2818(%rbp)
    83f4:	7e dd                	jle    83d3 <func_8+0x1502>
    83f6:	48 c7 85 68 d7 ff ff 	movq   $0x0,-0x2898(%rbp)
    83fd:	00 00 00 00 
    8401:	e9 13 01 00 00       	jmpq   8519 <func_8+0x1648>
    8406:	c7 85 e0 f7 ff ff 03 	movl   $0x3,-0x820(%rbp)
    840d:	00 00 00 
    8410:	c7 85 e4 f7 ff ff 05 	movl   $0x5,-0x81c(%rbp)
    8417:	00 00 00 
    841a:	c7 85 e8 f7 ff ff 03 	movl   $0x3,-0x818(%rbp)
    8421:	00 00 00 
    8424:	c7 85 ec f7 ff ff 05 	movl   $0x5,-0x814(%rbp)
    842b:	00 00 00 
    842e:	c7 85 f0 f7 ff ff 03 	movl   $0x3,-0x810(%rbp)
    8435:	00 00 00 
    8438:	c7 85 f4 f7 ff ff 05 	movl   $0x5,-0x80c(%rbp)
    843f:	00 00 00 
    8442:	c7 85 f8 f7 ff ff 03 	movl   $0x3,-0x808(%rbp)
    8449:	00 00 00 
    844c:	c7 85 fc f7 ff ff 05 	movl   $0x5,-0x804(%rbp)
    8453:	00 00 00 
    8456:	c7 85 4c d8 ff ff a5 	movl   $0xab3914a5,-0x27b4(%rbp)
    845d:	14 39 ab 
    8460:	c7 85 50 d8 ff ff ff 	movl   $0xffffffff,-0x27b0(%rbp)
    8467:	ff ff ff 
    846a:	c7 85 54 d8 ff ff 4e 	movl   $0x10a5f74e,-0x27ac(%rbp)
    8471:	f7 a5 10 
    8474:	c7 85 58 d8 ff ff f7 	movl   $0xfffffff7,-0x27a8(%rbp)
    847b:	ff ff ff 
    847e:	c7 85 5c d8 ff ff 00 	movl   $0x0,-0x27a4(%rbp)
    8485:	00 00 00 
    8488:	c7 85 60 d8 ff ff ff 	movl   $0xffffffff,-0x27a0(%rbp)
    848f:	ff ff ff 
    8492:	c7 85 64 d8 ff ff f8 	movl   $0xf12e5cf8,-0x279c(%rbp)
    8499:	5c 2e f1 
    849c:	c7 85 68 d8 ff ff 47 	movl   $0xfcc6fd47,-0x2798(%rbp)
    84a3:	fd c6 fc 
    84a6:	c7 85 6c d8 ff ff 01 	movl   $0x1,-0x2794(%rbp)
    84ad:	00 00 00 
    84b0:	c7 85 70 d8 ff ff fe 	movl   $0xfffffffe,-0x2790(%rbp)
    84b7:	ff ff ff 
    84ba:	c7 85 74 d8 ff ff fe 	movl   $0xfffffffe,-0x278c(%rbp)
    84c1:	ff ff ff 
    84c4:	c7 85 78 d8 ff ff 25 	movl   $0x33dab825,-0x2788(%rbp)
    84cb:	b8 da 33 
    84ce:	c7 85 7c d8 ff ff 84 	movl   $0x57b9ca84,-0x2784(%rbp)
    84d5:	ca b9 57 
    84d8:	c7 85 80 d8 ff ff 4f 	movl   $0xa686214f,-0x2780(%rbp)
    84df:	21 86 a6 
    84e2:	c7 85 84 d8 ff ff 1c 	movl   $0x54eb9b1c,-0x277c(%rbp)
    84e9:	9b eb 54 
    84ec:	8b 95 e4 f7 ff ff    	mov    -0x81c(%rbp),%edx
    84f2:	0f be 85 a6 d7 ff ff 	movsbl -0x285a(%rbp),%eax
    84f9:	31 d0                	xor    %edx,%eax
    84fb:	89 85 e4 f7 ff ff    	mov    %eax,-0x81c(%rbp)
    8501:	0f b6 85 9f d7 ff ff 	movzbl -0x2861(%rbp),%eax
    8508:	83 c0 01             	add    $0x1,%eax
    850b:	88 85 9f d7 ff ff    	mov    %al,-0x2861(%rbp)
    8511:	48 83 85 68 d7 ff ff 	addq   $0x1,-0x2898(%rbp)
    8518:	01 
    8519:	48 83 bd 68 d7 ff ff 	cmpq   $0x3,-0x2898(%rbp)
    8520:	03 
    8521:	0f 8e df fe ff ff    	jle    8406 <func_8+0x1535>
    8527:	48 8b 85 70 d7 ff ff 	mov    -0x2890(%rbp),%rax
    852e:	0f be c0             	movsbl %al,%eax
    8531:	89 c6                	mov    %eax,%esi
    8533:	bf 5f 00 00 00       	mov    $0x5f,%edi
    8538:	e8 f4 cc ff ff       	callq  5231 <safe_mod_func_int8_t_s_s>
    853d:	44 0f be e8          	movsbl %al,%r13d
    8541:	48 8b 05 f8 c5 00 00 	mov    0xc5f8(%rip),%rax        # 14b40 <g_857>
    8548:	48 8b 00             	mov    (%rax),%rax
    854b:	48 8b 00             	mov    (%rax),%rax
    854e:	49 89 c6             	mov    %rax,%r14
    8551:	48 8b 9d 70 d7 ff ff 	mov    -0x2890(%rbp),%rbx
    8558:	44 8b a5 3c d8 ff ff 	mov    -0x27c4(%rbp),%r12d
    855f:	48 8b 85 d8 d8 ff ff 	mov    -0x2728(%rbp),%rax
    8566:	48 85 c0             	test   %rax,%rax
    8569:	75 2b                	jne    8596 <func_8+0x16c5>
    856b:	48 0f bf 85 84 d7 ff 	movswq -0x287c(%rbp),%rax
    8572:	ff 
    8573:	48 39 85 70 d7 ff ff 	cmp    %rax,-0x2890(%rbp)
    857a:	0f 95 c0             	setne  %al
    857d:	0f b6 c0             	movzbl %al,%eax
    8580:	be 01 00 00 00       	mov    $0x1,%esi
    8585:	89 c7                	mov    %eax,%edi
    8587:	e8 7a d8 ff ff       	callq  5e06 <safe_lshift_func_uint16_t_u_u>
    858c:	c7 85 fc d7 ff ff 01 	movl   $0x1,-0x2804(%rbp)
    8593:	00 00 00 
    8596:	b8 01 00 00 00       	mov    $0x1,%eax
    859b:	98                   	cwtl   
    859c:	44 89 e6             	mov    %r12d,%esi
    859f:	89 c7                	mov    %eax,%edi
    85a1:	e8 84 cf ff ff       	callq  552a <safe_rshift_func_int16_t_s_s>
    85a6:	48 0f bf d0          	movswq %ax,%rdx
    85aa:	48 8b 85 00 f1 ff ff 	mov    -0xf00(%rbp),%rax
    85b1:	48 39 c2             	cmp    %rax,%rdx
    85b4:	0f 96 c0             	setbe  %al
    85b7:	0f b6 d0             	movzbl %al,%edx
    85ba:	8b 85 e8 d9 ff ff    	mov    -0x2618(%rbp),%eax
    85c0:	39 c2                	cmp    %eax,%edx
    85c2:	0f 95 c0             	setne  %al
    85c5:	0f b6 c0             	movzbl %al,%eax
    85c8:	be 99 ff ff ff       	mov    $0xffffff99,%esi
    85cd:	89 c7                	mov    %eax,%edi
    85cf:	e8 3e cc ff ff       	callq  5212 <safe_mul_func_int8_t_s_s>
    85d4:	48 0f be d0          	movsbq %al,%rdx
    85d8:	48 8b 85 30 f4 ff ff 	mov    -0xbd0(%rbp),%rax
    85df:	48 39 c2             	cmp    %rax,%rdx
    85e2:	0f 95 c0             	setne  %al
    85e5:	0f b6 c0             	movzbl %al,%eax
    85e8:	f7 d0                	not    %eax
    85ea:	48 98                	cltq   
    85ec:	48 89 de             	mov    %rbx,%rsi
    85ef:	48 89 c7             	mov    %rax,%rdi
    85f2:	e8 37 da ff ff       	callq  602e <safe_add_func_uint64_t_u_u>
    85f7:	48 8b 95 88 d7 ff ff 	mov    -0x2878(%rbp),%rdx
    85fe:	8b 12                	mov    (%rdx),%edx
    8600:	48 63 d2             	movslq %edx,%rdx
    8603:	48 21 d0             	and    %rdx,%rax
    8606:	48 85 c0             	test   %rax,%rax
    8609:	48 8b 85 c8 da ff ff 	mov    -0x2538(%rbp),%rax
    8610:	48 85 c0             	test   %rax,%rax
    8613:	0f 95 c2             	setne  %dl
    8616:	48 8b 85 c0 d8 ff ff 	mov    -0x2740(%rbp),%rax
    861d:	48 8b 00             	mov    (%rax),%rax
    8620:	48 8b 00             	mov    (%rax),%rax
    8623:	0f b6 d2             	movzbl %dl,%edx
    8626:	48 89 10             	mov    %rdx,(%rax)
    8629:	48 8b 00             	mov    (%rax),%rax
    862c:	4c 89 f6             	mov    %r14,%rsi
    862f:	48 89 c7             	mov    %rax,%rdi
    8632:	e8 49 da ff ff       	callq  6080 <safe_mod_func_uint64_t_u_u>
    8637:	8b 95 24 d8 ff ff    	mov    -0x27dc(%rbp),%edx
    863d:	48 63 d2             	movslq %edx,%rdx
    8640:	48 39 d0             	cmp    %rdx,%rax
    8643:	0f 97 c0             	seta   %al
    8646:	0f b6 c0             	movzbl %al,%eax
    8649:	44 21 e8             	and    %r13d,%eax
    864c:	85 c0                	test   %eax,%eax
    864e:	0f 84 04 02 00 00    	je     8858 <func_8+0x1987>
    8654:	48 8d 05 8d ab 00 00 	lea    0xab8d(%rip),%rax        # 131e8 <g_535>
    865b:	48 89 85 e0 f7 ff ff 	mov    %rax,-0x820(%rbp)
    8662:	48 8d 05 47 ab 00 00 	lea    0xab47(%rip),%rax        # 131b0 <g_120>
    8669:	48 89 85 e8 f7 ff ff 	mov    %rax,-0x818(%rbp)
    8670:	48 8d 05 71 ab 00 00 	lea    0xab71(%rip),%rax        # 131e8 <g_535>
    8677:	48 89 85 f0 f7 ff ff 	mov    %rax,-0x810(%rbp)
    867e:	48 8d 05 2b ab 00 00 	lea    0xab2b(%rip),%rax        # 131b0 <g_120>
    8685:	48 89 85 f8 f7 ff ff 	mov    %rax,-0x808(%rbp)
    868c:	48 8d 05 55 ab 00 00 	lea    0xab55(%rip),%rax        # 131e8 <g_535>
    8693:	48 89 85 00 f8 ff ff 	mov    %rax,-0x800(%rbp)
    869a:	48 8d 05 0f ab 00 00 	lea    0xab0f(%rip),%rax        # 131b0 <g_120>
    86a1:	48 89 85 08 f8 ff ff 	mov    %rax,-0x7f8(%rbp)
    86a8:	48 8d 05 39 ab 00 00 	lea    0xab39(%rip),%rax        # 131e8 <g_535>
    86af:	48 89 85 10 f8 ff ff 	mov    %rax,-0x7f0(%rbp)
    86b6:	48 8d 05 f3 aa 00 00 	lea    0xaaf3(%rip),%rax        # 131b0 <g_120>
    86bd:	48 89 85 18 f8 ff ff 	mov    %rax,-0x7e8(%rbp)
    86c4:	48 8d 05 1d ab 00 00 	lea    0xab1d(%rip),%rax        # 131e8 <g_535>
    86cb:	48 89 85 20 f8 ff ff 	mov    %rax,-0x7e0(%rbp)
    86d2:	48 8d 05 d7 aa 00 00 	lea    0xaad7(%rip),%rax        # 131b0 <g_120>
    86d9:	48 89 85 28 f8 ff ff 	mov    %rax,-0x7d8(%rbp)
    86e0:	48 8d 05 01 ab 00 00 	lea    0xab01(%rip),%rax        # 131e8 <g_535>
    86e7:	48 89 85 30 f8 ff ff 	mov    %rax,-0x7d0(%rbp)
    86ee:	48 8d 05 bb aa 00 00 	lea    0xaabb(%rip),%rax        # 131b0 <g_120>
    86f5:	48 89 85 38 f8 ff ff 	mov    %rax,-0x7c8(%rbp)
    86fc:	48 8d 85 e0 f7 ff ff 	lea    -0x820(%rbp),%rax
    8703:	48 83 c0 38          	add    $0x38,%rax
    8707:	48 89 85 a8 d9 ff ff 	mov    %rax,-0x2658(%rbp)
    870e:	c7 85 c4 d7 ff ff fa 	movl   $0xfffffffa,-0x283c(%rbp)
    8715:	ff ff ff 
    8718:	c6 85 a8 d7 ff ff f1 	movb   $0xf1,-0x2858(%rbp)
    871f:	48 8d 05 12 c4 00 00 	lea    0xc412(%rip),%rax        # 14b38 <g_858+0x8>
    8726:	48 89 85 f8 d8 ff ff 	mov    %rax,-0x2708(%rbp)
    872d:	48 8d 85 f8 d8 ff ff 	lea    -0x2708(%rbp),%rax
    8734:	48 89 85 00 d9 ff ff 	mov    %rax,-0x2700(%rbp)
    873b:	48 8d 85 00 d9 ff ff 	lea    -0x2700(%rbp),%rax
    8742:	48 89 85 b0 d9 ff ff 	mov    %rax,-0x2650(%rbp)
    8749:	48 8b 85 10 d9 ff ff 	mov    -0x26f0(%rbp),%rax
    8750:	48 8b 00             	mov    (%rax),%rax
    8753:	48 8d 95 c4 d7 ff ff 	lea    -0x283c(%rbp),%rdx
    875a:	48 89 10             	mov    %rdx,(%rax)
    875d:	48 8b 05 a4 c2 00 00 	mov    0xc2a4(%rip),%rax        # 14a08 <g_428>
    8764:	48 8b 00             	mov    (%rax),%rax
    8767:	48 8b 95 38 d9 ff ff 	mov    -0x26c8(%rbp),%rdx
    876e:	89 10                	mov    %edx,(%rax)
    8770:	0f bf 9d b6 d7 ff ff 	movswl -0x284a(%rbp),%ebx
    8777:	48 8b 05 ca c5 00 00 	mov    0xc5ca(%rip),%rax        # 14d48 <g_1185+0x68>
    877e:	48 39 85 b0 d9 ff ff 	cmp    %rax,-0x2650(%rbp)
    8785:	0f 94 c0             	sete   %al
    8788:	0f b6 d0             	movzbl %al,%edx
    878b:	48 8b 85 98 d9 ff ff 	mov    -0x2668(%rbp),%rax
    8792:	0f be c0             	movsbl %al,%eax
    8795:	89 d6                	mov    %edx,%esi
    8797:	89 c7                	mov    %eax,%edi
    8799:	e8 36 ca ff ff       	callq  51d4 <safe_add_func_int8_t_s_s>
    879e:	48 0f be c0          	movsbq %al,%rax
    87a2:	48 39 85 70 d7 ff ff 	cmp    %rax,-0x2890(%rbp)
    87a9:	0f 9d c0             	setge  %al
    87ac:	89 c2                	mov    %eax,%edx
    87ae:	8b 85 24 d8 ff ff    	mov    -0x27dc(%rbp),%eax
    87b4:	21 d0                	and    %edx,%eax
    87b6:	0f b6 c0             	movzbl %al,%eax
    87b9:	89 de                	mov    %ebx,%esi
    87bb:	89 c7                	mov    %eax,%edi
    87bd:	e8 43 d4 ff ff       	callq  5c05 <safe_lshift_func_uint8_t_u_s>
    87c2:	48 8b 85 70 d7 ff ff 	mov    -0x2890(%rbp),%rax
    87c9:	0f be c0             	movsbl %al,%eax
    87cc:	be 01 00 00 00       	mov    $0x1,%esi
    87d1:	89 c7                	mov    %eax,%edi
    87d3:	e8 c9 ca ff ff       	callq  52a1 <safe_lshift_func_int8_t_s_s>
    87d8:	0f be d8             	movsbl %al,%ebx
    87db:	48 83 bd 90 d9 ff ff 	cmpq   $0x0,-0x2670(%rbp)
    87e2:	00 
    87e3:	0f 95 c0             	setne  %al
    87e6:	0f b6 c0             	movzbl %al,%eax
    87e9:	89 c6                	mov    %eax,%esi
    87eb:	bf 8d 63 00 00       	mov    $0x638d,%edi
    87f0:	e8 de cb ff ff       	callq  53d3 <safe_sub_func_int16_t_s_s>
    87f5:	66 85 c0             	test   %ax,%ax
    87f8:	74 21                	je     881b <func_8+0x194a>
    87fa:	48 8b 85 70 d7 ff ff 	mov    -0x2890(%rbp),%rax
    8801:	98                   	cwtl   
    8802:	be 05 00 00 00       	mov    $0x5,%esi
    8807:	89 c7                	mov    %eax,%edi
    8809:	e8 55 cd ff ff       	callq  5563 <safe_rshift_func_int16_t_s_u>
    880e:	66 3d c4 00          	cmp    $0xc4,%ax
    8812:	74 07                	je     881b <func_8+0x194a>
    8814:	b8 01 00 00 00       	mov    $0x1,%eax
    8819:	eb 05                	jmp    8820 <func_8+0x194f>
    881b:	b8 00 00 00 00       	mov    $0x0,%eax
    8820:	98                   	cwtl   
    8821:	89 de                	mov    %ebx,%esi
    8823:	89 c7                	mov    %eax,%edi
    8825:	e8 cb cb ff ff       	callq  53f5 <safe_mul_func_int16_t_s_s>
    882a:	0f be c0             	movsbl %al,%eax
    882d:	be 06 00 00 00       	mov    $0x6,%esi
    8832:	89 c7                	mov    %eax,%edi
    8834:	e8 fc ca ff ff       	callq  5335 <safe_rshift_func_int8_t_s_s>
    8839:	8b 05 a9 7a 00 00    	mov    0x7aa9(%rip),%eax        # 102e8 <l_1157.4278+0x48>
    883f:	85 c0                	test   %eax,%eax
    8841:	0f 94 c2             	sete   %dl
    8844:	48 8b 05 a5 c2 00 00 	mov    0xc2a5(%rip),%rax        # 14af0 <g_581>
    884b:	48 8b 00             	mov    (%rax),%rax
    884e:	0f b6 d2             	movzbl %dl,%edx
    8851:	89 10                	mov    %edx,(%rax)
    8853:	e9 3c 10 00 00       	jmpq   9894 <func_8+0x29c3>
    8858:	c6 85 a7 d7 ff ff fc 	movb   $0xfc,-0x2859(%rbp)
    885f:	48 8d 05 ea a8 00 00 	lea    0xa8ea(%rip),%rax        # 13150 <g_89+0x10>
    8866:	48 89 85 a0 d9 ff ff 	mov    %rax,-0x2660(%rbp)
    886d:	48 8d 05 0c c3 00 00 	lea    0xc30c(%rip),%rax        # 14b80 <g_1047+0x20>
    8874:	48 89 85 e0 f7 ff ff 	mov    %rax,-0x820(%rbp)
    887b:	48 8d 05 06 c3 00 00 	lea    0xc306(%rip),%rax        # 14b88 <g_1047+0x28>
    8882:	48 89 85 e8 f7 ff ff 	mov    %rax,-0x818(%rbp)
    8889:	48 8d 05 f0 c2 00 00 	lea    0xc2f0(%rip),%rax        # 14b80 <g_1047+0x20>
    8890:	48 89 85 f0 f7 ff ff 	mov    %rax,-0x810(%rbp)
    8897:	48 8d 05 e2 c2 00 00 	lea    0xc2e2(%rip),%rax        # 14b80 <g_1047+0x20>
    889e:	48 89 85 f8 f7 ff ff 	mov    %rax,-0x808(%rbp)
    88a5:	48 8d 05 d4 c2 00 00 	lea    0xc2d4(%rip),%rax        # 14b80 <g_1047+0x20>
    88ac:	48 89 85 00 f8 ff ff 	mov    %rax,-0x800(%rbp)
    88b3:	48 8d 05 ce c2 00 00 	lea    0xc2ce(%rip),%rax        # 14b88 <g_1047+0x28>
    88ba:	48 89 85 08 f8 ff ff 	mov    %rax,-0x7f8(%rbp)
    88c1:	48 8d 05 b8 c2 00 00 	lea    0xc2b8(%rip),%rax        # 14b80 <g_1047+0x20>
    88c8:	48 89 85 10 f8 ff ff 	mov    %rax,-0x7f0(%rbp)
    88cf:	48 8d 05 aa c2 00 00 	lea    0xc2aa(%rip),%rax        # 14b80 <g_1047+0x20>
    88d6:	48 89 85 18 f8 ff ff 	mov    %rax,-0x7e8(%rbp)
    88dd:	48 8d 05 9c c2 00 00 	lea    0xc29c(%rip),%rax        # 14b80 <g_1047+0x20>
    88e4:	48 89 85 20 f8 ff ff 	mov    %rax,-0x7e0(%rbp)
    88eb:	48 8d 85 c0 d8 ff ff 	lea    -0x2740(%rbp),%rax
    88f2:	48 89 85 28 f8 ff ff 	mov    %rax,-0x7d8(%rbp)
    88f9:	48 8d 05 80 c2 00 00 	lea    0xc280(%rip),%rax        # 14b80 <g_1047+0x20>
    8900:	48 89 85 30 f8 ff ff 	mov    %rax,-0x7d0(%rbp)
    8907:	48 8d 05 7a c2 00 00 	lea    0xc27a(%rip),%rax        # 14b88 <g_1047+0x28>
    890e:	48 89 85 38 f8 ff ff 	mov    %rax,-0x7c8(%rbp)
    8915:	48 8d 05 64 c2 00 00 	lea    0xc264(%rip),%rax        # 14b80 <g_1047+0x20>
    891c:	48 89 85 40 f8 ff ff 	mov    %rax,-0x7c0(%rbp)
    8923:	48 8d 05 56 c2 00 00 	lea    0xc256(%rip),%rax        # 14b80 <g_1047+0x20>
    892a:	48 89 85 48 f8 ff ff 	mov    %rax,-0x7b8(%rbp)
    8931:	48 8d 85 c0 d8 ff ff 	lea    -0x2740(%rbp),%rax
    8938:	48 89 85 50 f8 ff ff 	mov    %rax,-0x7b0(%rbp)
    893f:	48 8d 05 1a c2 00 00 	lea    0xc21a(%rip),%rax        # 14b60 <g_1047>
    8946:	48 89 85 58 f8 ff ff 	mov    %rax,-0x7a8(%rbp)
    894d:	48 8d 05 2c c2 00 00 	lea    0xc22c(%rip),%rax        # 14b80 <g_1047+0x20>
    8954:	48 89 85 60 f8 ff ff 	mov    %rax,-0x7a0(%rbp)
    895b:	48 8d 05 36 c2 00 00 	lea    0xc236(%rip),%rax        # 14b98 <g_1047+0x38>
    8962:	48 89 85 68 f8 ff ff 	mov    %rax,-0x798(%rbp)
    8969:	48 c7 85 70 f8 ff ff 	movq   $0x0,-0x790(%rbp)
    8970:	00 00 00 00 
    8974:	48 8d 05 05 c2 00 00 	lea    0xc205(%rip),%rax        # 14b80 <g_1047+0x20>
    897b:	48 89 85 78 f8 ff ff 	mov    %rax,-0x788(%rbp)
    8982:	48 8d 05 ff c1 00 00 	lea    0xc1ff(%rip),%rax        # 14b88 <g_1047+0x28>
    8989:	48 89 85 80 f8 ff ff 	mov    %rax,-0x780(%rbp)
    8990:	48 8d 85 c0 d8 ff ff 	lea    -0x2740(%rbp),%rax
    8997:	48 89 85 88 f8 ff ff 	mov    %rax,-0x778(%rbp)
    899e:	48 8d 05 db c1 00 00 	lea    0xc1db(%rip),%rax        # 14b80 <g_1047+0x20>
    89a5:	48 89 85 90 f8 ff ff 	mov    %rax,-0x770(%rbp)
    89ac:	48 c7 85 98 f8 ff ff 	movq   $0x0,-0x768(%rbp)
    89b3:	00 00 00 00 
    89b7:	48 8d 85 c0 d8 ff ff 	lea    -0x2740(%rbp),%rax
    89be:	48 89 85 a0 f8 ff ff 	mov    %rax,-0x760(%rbp)
    89c5:	48 8d 05 ac c1 00 00 	lea    0xc1ac(%rip),%rax        # 14b78 <g_1047+0x18>
    89cc:	48 89 85 a8 f8 ff ff 	mov    %rax,-0x758(%rbp)
    89d3:	48 8d 05 a6 c1 00 00 	lea    0xc1a6(%rip),%rax        # 14b80 <g_1047+0x20>
    89da:	48 89 85 b0 f8 ff ff 	mov    %rax,-0x750(%rbp)
    89e1:	48 8d 85 c0 d8 ff ff 	lea    -0x2740(%rbp),%rax
    89e8:	48 89 85 b8 f8 ff ff 	mov    %rax,-0x748(%rbp)
    89ef:	48 8d 05 8a c1 00 00 	lea    0xc18a(%rip),%rax        # 14b80 <g_1047+0x20>
    89f6:	48 89 85 c0 f8 ff ff 	mov    %rax,-0x740(%rbp)
    89fd:	48 8d 05 74 c1 00 00 	lea    0xc174(%rip),%rax        # 14b78 <g_1047+0x18>
    8a04:	48 89 85 c8 f8 ff ff 	mov    %rax,-0x738(%rbp)
    8a0b:	48 8d 85 c0 d8 ff ff 	lea    -0x2740(%rbp),%rax
    8a12:	48 89 85 d0 f8 ff ff 	mov    %rax,-0x730(%rbp)
    8a19:	48 8d 85 c0 d8 ff ff 	lea    -0x2740(%rbp),%rax
    8a20:	48 89 85 d8 f8 ff ff 	mov    %rax,-0x728(%rbp)
    8a27:	48 8d 05 4a c1 00 00 	lea    0xc14a(%rip),%rax        # 14b78 <g_1047+0x18>
    8a2e:	48 89 85 e0 f8 ff ff 	mov    %rax,-0x720(%rbp)
    8a35:	48 8d 05 44 c1 00 00 	lea    0xc144(%rip),%rax        # 14b80 <g_1047+0x20>
    8a3c:	48 89 85 e8 f8 ff ff 	mov    %rax,-0x718(%rbp)
    8a43:	48 8d 05 36 c1 00 00 	lea    0xc136(%rip),%rax        # 14b80 <g_1047+0x20>
    8a4a:	48 89 85 f0 f8 ff ff 	mov    %rax,-0x710(%rbp)
    8a51:	48 8d 05 40 c1 00 00 	lea    0xc140(%rip),%rax        # 14b98 <g_1047+0x38>
    8a58:	48 89 85 f8 f8 ff ff 	mov    %rax,-0x708(%rbp)
    8a5f:	48 c7 85 00 f9 ff ff 	movq   $0x0,-0x700(%rbp)
    8a66:	00 00 00 00 
    8a6a:	48 c7 85 08 f9 ff ff 	movq   $0x0,-0x6f8(%rbp)
    8a71:	00 00 00 00 
    8a75:	48 8d 05 0c c1 00 00 	lea    0xc10c(%rip),%rax        # 14b88 <g_1047+0x28>
    8a7c:	48 89 85 10 f9 ff ff 	mov    %rax,-0x6f0(%rbp)
    8a83:	48 8d 85 c0 d8 ff ff 	lea    -0x2740(%rbp),%rax
    8a8a:	48 89 85 18 f9 ff ff 	mov    %rax,-0x6e8(%rbp)
    8a91:	48 8d 05 e8 c0 00 00 	lea    0xc0e8(%rip),%rax        # 14b80 <g_1047+0x20>
    8a98:	48 89 85 20 f9 ff ff 	mov    %rax,-0x6e0(%rbp)
    8a9f:	48 c7 85 28 f9 ff ff 	movq   $0x0,-0x6d8(%rbp)
    8aa6:	00 00 00 00 
    8aaa:	48 8d 05 cf c0 00 00 	lea    0xc0cf(%rip),%rax        # 14b80 <g_1047+0x20>
    8ab1:	48 89 85 30 f9 ff ff 	mov    %rax,-0x6d0(%rbp)
    8ab8:	48 8d 05 b1 c0 00 00 	lea    0xc0b1(%rip),%rax        # 14b70 <g_1047+0x10>
    8abf:	48 89 85 38 f9 ff ff 	mov    %rax,-0x6c8(%rbp)
    8ac6:	48 8d 05 c3 c0 00 00 	lea    0xc0c3(%rip),%rax        # 14b90 <g_1047+0x30>
    8acd:	48 89 85 40 f9 ff ff 	mov    %rax,-0x6c0(%rbp)
    8ad4:	48 8d 05 a5 c0 00 00 	lea    0xc0a5(%rip),%rax        # 14b80 <g_1047+0x20>
    8adb:	48 89 85 48 f9 ff ff 	mov    %rax,-0x6b8(%rbp)
    8ae2:	48 8d 05 af c0 00 00 	lea    0xc0af(%rip),%rax        # 14b98 <g_1047+0x38>
    8ae9:	48 89 85 50 f9 ff ff 	mov    %rax,-0x6b0(%rbp)
    8af0:	48 8d 05 81 c0 00 00 	lea    0xc081(%rip),%rax        # 14b78 <g_1047+0x18>
    8af7:	48 89 85 58 f9 ff ff 	mov    %rax,-0x6a8(%rbp)
    8afe:	48 8d 85 c0 d8 ff ff 	lea    -0x2740(%rbp),%rax
    8b05:	48 89 85 60 f9 ff ff 	mov    %rax,-0x6a0(%rbp)
    8b0c:	48 8d 05 6d c0 00 00 	lea    0xc06d(%rip),%rax        # 14b80 <g_1047+0x20>
    8b13:	48 89 85 68 f9 ff ff 	mov    %rax,-0x698(%rbp)
    8b1a:	48 c7 85 70 f9 ff ff 	movq   $0x0,-0x690(%rbp)
    8b21:	00 00 00 00 
    8b25:	48 8d 05 5c c0 00 00 	lea    0xc05c(%rip),%rax        # 14b88 <g_1047+0x28>
    8b2c:	48 89 85 78 f9 ff ff 	mov    %rax,-0x688(%rbp)
    8b33:	48 8d 85 c0 d8 ff ff 	lea    -0x2740(%rbp),%rax
    8b3a:	48 89 85 80 f9 ff ff 	mov    %rax,-0x680(%rbp)
    8b41:	48 8d 05 38 c0 00 00 	lea    0xc038(%rip),%rax        # 14b80 <g_1047+0x20>
    8b48:	48 89 85 88 f9 ff ff 	mov    %rax,-0x678(%rbp)
    8b4f:	48 8d 05 2a c0 00 00 	lea    0xc02a(%rip),%rax        # 14b80 <g_1047+0x20>
    8b56:	48 89 85 90 f9 ff ff 	mov    %rax,-0x670(%rbp)
    8b5d:	48 c7 85 98 f9 ff ff 	movq   $0x0,-0x668(%rbp)
    8b64:	00 00 00 00 
    8b68:	48 8d 85 c0 d8 ff ff 	lea    -0x2740(%rbp),%rax
    8b6f:	48 89 85 a0 f9 ff ff 	mov    %rax,-0x660(%rbp)
    8b76:	48 8d 05 fb bf 00 00 	lea    0xbffb(%rip),%rax        # 14b78 <g_1047+0x18>
    8b7d:	48 89 85 a8 f9 ff ff 	mov    %rax,-0x658(%rbp)
    8b84:	48 8d 05 fd bf 00 00 	lea    0xbffd(%rip),%rax        # 14b88 <g_1047+0x28>
    8b8b:	48 89 85 b0 f9 ff ff 	mov    %rax,-0x650(%rbp)
    8b92:	48 8d 05 ff bf 00 00 	lea    0xbfff(%rip),%rax        # 14b98 <g_1047+0x38>
    8b99:	48 89 85 b8 f9 ff ff 	mov    %rax,-0x648(%rbp)
    8ba0:	48 c7 85 c0 f9 ff ff 	movq   $0x0,-0x640(%rbp)
    8ba7:	00 00 00 00 
    8bab:	48 c7 85 c8 f9 ff ff 	movq   $0x0,-0x638(%rbp)
    8bb2:	00 00 00 00 
    8bb6:	48 8d 05 c3 bf 00 00 	lea    0xbfc3(%rip),%rax        # 14b80 <g_1047+0x20>
    8bbd:	48 89 85 d0 f9 ff ff 	mov    %rax,-0x630(%rbp)
    8bc4:	48 c7 85 d8 f9 ff ff 	movq   $0x0,-0x628(%rbp)
    8bcb:	00 00 00 00 
    8bcf:	48 8d 05 aa bf 00 00 	lea    0xbfaa(%rip),%rax        # 14b80 <g_1047+0x20>
    8bd6:	48 89 85 e0 f9 ff ff 	mov    %rax,-0x620(%rbp)
    8bdd:	48 8d 85 c0 d8 ff ff 	lea    -0x2740(%rbp),%rax
    8be4:	48 89 85 e8 f9 ff ff 	mov    %rax,-0x618(%rbp)
    8beb:	48 8d 05 8e bf 00 00 	lea    0xbf8e(%rip),%rax        # 14b80 <g_1047+0x20>
    8bf2:	48 89 85 f0 f9 ff ff 	mov    %rax,-0x610(%rbp)
    8bf9:	48 8d 85 c0 d8 ff ff 	lea    -0x2740(%rbp),%rax
    8c00:	48 89 85 f8 f9 ff ff 	mov    %rax,-0x608(%rbp)
    8c07:	48 8d 05 6a bf 00 00 	lea    0xbf6a(%rip),%rax        # 14b78 <g_1047+0x18>
    8c0e:	48 89 85 00 fa ff ff 	mov    %rax,-0x600(%rbp)
    8c15:	48 8d 85 c0 d8 ff ff 	lea    -0x2740(%rbp),%rax
    8c1c:	48 89 85 08 fa ff ff 	mov    %rax,-0x5f8(%rbp)
    8c23:	48 8d 05 56 bf 00 00 	lea    0xbf56(%rip),%rax        # 14b80 <g_1047+0x20>
    8c2a:	48 89 85 10 fa ff ff 	mov    %rax,-0x5f0(%rbp)
    8c31:	48 8d 05 28 bf 00 00 	lea    0xbf28(%rip),%rax        # 14b60 <g_1047>
    8c38:	48 89 85 18 fa ff ff 	mov    %rax,-0x5e8(%rbp)
    8c3f:	48 8d 05 3a bf 00 00 	lea    0xbf3a(%rip),%rax        # 14b80 <g_1047+0x20>
    8c46:	48 89 85 20 fa ff ff 	mov    %rax,-0x5e0(%rbp)
    8c4d:	48 8d 05 2c bf 00 00 	lea    0xbf2c(%rip),%rax        # 14b80 <g_1047+0x20>
    8c54:	48 89 85 28 fa ff ff 	mov    %rax,-0x5d8(%rbp)
    8c5b:	48 8d 85 c0 d8 ff ff 	lea    -0x2740(%rbp),%rax
    8c62:	48 89 85 30 fa ff ff 	mov    %rax,-0x5d0(%rbp)
    8c69:	48 8d 05 18 bf 00 00 	lea    0xbf18(%rip),%rax        # 14b88 <g_1047+0x28>
    8c70:	48 89 85 38 fa ff ff 	mov    %rax,-0x5c8(%rbp)
    8c77:	48 8d 05 e2 be 00 00 	lea    0xbee2(%rip),%rax        # 14b60 <g_1047>
    8c7e:	48 89 85 40 fa ff ff 	mov    %rax,-0x5c0(%rbp)
    8c85:	48 8d 05 04 bf 00 00 	lea    0xbf04(%rip),%rax        # 14b90 <g_1047+0x30>
    8c8c:	48 89 85 48 fa ff ff 	mov    %rax,-0x5b8(%rbp)
    8c93:	48 8d 05 e6 be 00 00 	lea    0xbee6(%rip),%rax        # 14b80 <g_1047+0x20>
    8c9a:	48 89 85 50 fa ff ff 	mov    %rax,-0x5b0(%rbp)
    8ca1:	48 8d 05 e0 be 00 00 	lea    0xbee0(%rip),%rax        # 14b88 <g_1047+0x28>
    8ca8:	48 89 85 58 fa ff ff 	mov    %rax,-0x5a8(%rbp)
    8caf:	48 8d 05 ca be 00 00 	lea    0xbeca(%rip),%rax        # 14b80 <g_1047+0x20>
    8cb6:	48 89 85 60 fa ff ff 	mov    %rax,-0x5a0(%rbp)
    8cbd:	48 8d 85 c0 d8 ff ff 	lea    -0x2740(%rbp),%rax
    8cc4:	48 89 85 68 fa ff ff 	mov    %rax,-0x598(%rbp)
    8ccb:	48 8d 05 96 be 00 00 	lea    0xbe96(%rip),%rax        # 14b68 <g_1047+0x8>
    8cd2:	48 89 85 70 fa ff ff 	mov    %rax,-0x590(%rbp)
    8cd9:	48 8d 05 88 be 00 00 	lea    0xbe88(%rip),%rax        # 14b68 <g_1047+0x8>
    8ce0:	48 89 85 78 fa ff ff 	mov    %rax,-0x588(%rbp)
    8ce7:	48 8d 05 8a be 00 00 	lea    0xbe8a(%rip),%rax        # 14b78 <g_1047+0x18>
    8cee:	48 89 85 80 fa ff ff 	mov    %rax,-0x580(%rbp)
    8cf5:	48 8d 05 8c be 00 00 	lea    0xbe8c(%rip),%rax        # 14b88 <g_1047+0x28>
    8cfc:	48 89 85 88 fa ff ff 	mov    %rax,-0x578(%rbp)
    8d03:	48 8d 05 76 be 00 00 	lea    0xbe76(%rip),%rax        # 14b80 <g_1047+0x20>
    8d0a:	48 89 85 90 fa ff ff 	mov    %rax,-0x570(%rbp)
    8d11:	48 8d 05 70 be 00 00 	lea    0xbe70(%rip),%rax        # 14b88 <g_1047+0x28>
    8d18:	48 89 85 98 fa ff ff 	mov    %rax,-0x568(%rbp)
    8d1f:	48 8d 05 52 be 00 00 	lea    0xbe52(%rip),%rax        # 14b78 <g_1047+0x18>
    8d26:	48 89 85 a0 fa ff ff 	mov    %rax,-0x560(%rbp)
    8d2d:	48 8d 05 4c be 00 00 	lea    0xbe4c(%rip),%rax        # 14b80 <g_1047+0x20>
    8d34:	48 89 85 a8 fa ff ff 	mov    %rax,-0x558(%rbp)
    8d3b:	48 c7 85 b0 fa ff ff 	movq   $0x0,-0x550(%rbp)
    8d42:	00 00 00 00 
    8d46:	48 c7 85 b8 fa ff ff 	movq   $0x0,-0x548(%rbp)
    8d4d:	00 00 00 00 
    8d51:	48 8d 85 c0 d8 ff ff 	lea    -0x2740(%rbp),%rax
    8d58:	48 89 85 c0 fa ff ff 	mov    %rax,-0x540(%rbp)
    8d5f:	48 8d 05 1a be 00 00 	lea    0xbe1a(%rip),%rax        # 14b80 <g_1047+0x20>
    8d66:	48 89 85 c8 fa ff ff 	mov    %rax,-0x538(%rbp)
    8d6d:	48 8d 05 f4 bd 00 00 	lea    0xbdf4(%rip),%rax        # 14b68 <g_1047+0x8>
    8d74:	48 89 85 d0 fa ff ff 	mov    %rax,-0x530(%rbp)
    8d7b:	48 c7 85 d8 fa ff ff 	movq   $0x0,-0x528(%rbp)
    8d82:	00 00 00 00 
    8d86:	48 8d 05 e3 bd 00 00 	lea    0xbde3(%rip),%rax        # 14b70 <g_1047+0x10>
    8d8d:	48 89 85 e0 fa ff ff 	mov    %rax,-0x520(%rbp)
    8d94:	48 c7 85 e8 fa ff ff 	movq   $0x0,-0x518(%rbp)
    8d9b:	00 00 00 00 
    8d9f:	48 c7 85 f0 fa ff ff 	movq   $0x0,-0x510(%rbp)
    8da6:	00 00 00 00 
    8daa:	48 8d 05 cf bd 00 00 	lea    0xbdcf(%rip),%rax        # 14b80 <g_1047+0x20>
    8db1:	48 89 85 f8 fa ff ff 	mov    %rax,-0x508(%rbp)
    8db8:	48 8d 85 c0 d8 ff ff 	lea    -0x2740(%rbp),%rax
    8dbf:	48 89 85 00 fb ff ff 	mov    %rax,-0x500(%rbp)
    8dc6:	48 8d 05 b3 bd 00 00 	lea    0xbdb3(%rip),%rax        # 14b80 <g_1047+0x20>
    8dcd:	48 89 85 08 fb ff ff 	mov    %rax,-0x4f8(%rbp)
    8dd4:	48 8d 05 85 bd 00 00 	lea    0xbd85(%rip),%rax        # 14b60 <g_1047>
    8ddb:	48 89 85 10 fb ff ff 	mov    %rax,-0x4f0(%rbp)
    8de2:	48 8d 05 97 bd 00 00 	lea    0xbd97(%rip),%rax        # 14b80 <g_1047+0x20>
    8de9:	48 89 85 18 fb ff ff 	mov    %rax,-0x4e8(%rbp)
    8df0:	48 8d 05 89 bd 00 00 	lea    0xbd89(%rip),%rax        # 14b80 <g_1047+0x20>
    8df7:	48 89 85 20 fb ff ff 	mov    %rax,-0x4e0(%rbp)
    8dfe:	48 c7 85 28 fb ff ff 	movq   $0x0,-0x4d8(%rbp)
    8e05:	00 00 00 00 
    8e09:	48 8d 05 58 bd 00 00 	lea    0xbd58(%rip),%rax        # 14b68 <g_1047+0x8>
    8e10:	48 89 85 30 fb ff ff 	mov    %rax,-0x4d0(%rbp)
    8e17:	48 c7 85 38 fb ff ff 	movq   $0x0,-0x4c8(%rbp)
    8e1e:	00 00 00 00 
    8e22:	48 c7 85 40 fb ff ff 	movq   $0x0,-0x4c0(%rbp)
    8e29:	00 00 00 00 
    8e2d:	48 8d 05 54 bd 00 00 	lea    0xbd54(%rip),%rax        # 14b88 <g_1047+0x28>
    8e34:	48 89 85 48 fb ff ff 	mov    %rax,-0x4b8(%rbp)
    8e3b:	48 c7 85 50 fb ff ff 	movq   $0x0,-0x4b0(%rbp)
    8e42:	00 00 00 00 
    8e46:	48 c7 85 58 fb ff ff 	movq   $0x0,-0x4a8(%rbp)
    8e4d:	00 00 00 00 
    8e51:	48 8d 05 20 bd 00 00 	lea    0xbd20(%rip),%rax        # 14b78 <g_1047+0x18>
    8e58:	48 89 85 60 fb ff ff 	mov    %rax,-0x4a0(%rbp)
    8e5f:	48 8d 05 12 bd 00 00 	lea    0xbd12(%rip),%rax        # 14b78 <g_1047+0x18>
    8e66:	48 89 85 68 fb ff ff 	mov    %rax,-0x498(%rbp)
    8e6d:	48 8d 05 14 bd 00 00 	lea    0xbd14(%rip),%rax        # 14b88 <g_1047+0x28>
    8e74:	48 89 85 70 fb ff ff 	mov    %rax,-0x490(%rbp)
    8e7b:	48 8d 05 06 bd 00 00 	lea    0xbd06(%rip),%rax        # 14b88 <g_1047+0x28>
    8e82:	48 89 85 78 fb ff ff 	mov    %rax,-0x488(%rbp)
    8e89:	48 8d 05 d0 bc 00 00 	lea    0xbcd0(%rip),%rax        # 14b60 <g_1047>
    8e90:	48 89 85 80 fb ff ff 	mov    %rax,-0x480(%rbp)
    8e97:	48 8d 05 e2 bc 00 00 	lea    0xbce2(%rip),%rax        # 14b80 <g_1047+0x20>
    8e9e:	48 89 85 88 fb ff ff 	mov    %rax,-0x478(%rbp)
    8ea5:	48 c7 85 90 fb ff ff 	movq   $0x0,-0x470(%rbp)
    8eac:	00 00 00 00 
    8eb0:	48 8d 05 d9 bc 00 00 	lea    0xbcd9(%rip),%rax        # 14b90 <g_1047+0x30>
    8eb7:	48 89 85 98 fb ff ff 	mov    %rax,-0x468(%rbp)
    8ebe:	48 8d 85 c0 d8 ff ff 	lea    -0x2740(%rbp),%rax
    8ec5:	48 89 85 a0 fb ff ff 	mov    %rax,-0x460(%rbp)
    8ecc:	48 8d 85 c0 d8 ff ff 	lea    -0x2740(%rbp),%rax
    8ed3:	48 89 85 a8 fb ff ff 	mov    %rax,-0x458(%rbp)
    8eda:	48 8d 85 c0 d8 ff ff 	lea    -0x2740(%rbp),%rax
    8ee1:	48 89 85 b0 fb ff ff 	mov    %rax,-0x450(%rbp)
    8ee8:	48 8d 05 91 bc 00 00 	lea    0xbc91(%rip),%rax        # 14b80 <g_1047+0x20>
    8eef:	48 89 85 b8 fb ff ff 	mov    %rax,-0x448(%rbp)
    8ef6:	48 8d 05 83 bc 00 00 	lea    0xbc83(%rip),%rax        # 14b80 <g_1047+0x20>
    8efd:	48 89 85 c0 fb ff ff 	mov    %rax,-0x440(%rbp)
    8f04:	48 8d 05 75 bc 00 00 	lea    0xbc75(%rip),%rax        # 14b80 <g_1047+0x20>
    8f0b:	48 89 85 c8 fb ff ff 	mov    %rax,-0x438(%rbp)
    8f12:	48 8d 05 67 bc 00 00 	lea    0xbc67(%rip),%rax        # 14b80 <g_1047+0x20>
    8f19:	48 89 85 d0 fb ff ff 	mov    %rax,-0x430(%rbp)
    8f20:	48 c7 85 d8 fb ff ff 	movq   $0x0,-0x428(%rbp)
    8f27:	00 00 00 00 
    8f2b:	48 c7 85 e0 fb ff ff 	movq   $0x0,-0x420(%rbp)
    8f32:	00 00 00 00 
    8f36:	48 8d 05 43 bc 00 00 	lea    0xbc43(%rip),%rax        # 14b80 <g_1047+0x20>
    8f3d:	48 89 85 e8 fb ff ff 	mov    %rax,-0x418(%rbp)
    8f44:	48 8d 05 35 bc 00 00 	lea    0xbc35(%rip),%rax        # 14b80 <g_1047+0x20>
    8f4b:	48 89 85 f0 fb ff ff 	mov    %rax,-0x410(%rbp)
    8f52:	48 8d 85 c0 d8 ff ff 	lea    -0x2740(%rbp),%rax
    8f59:	48 89 85 f8 fb ff ff 	mov    %rax,-0x408(%rbp)
    8f60:	48 8d 05 19 bc 00 00 	lea    0xbc19(%rip),%rax        # 14b80 <g_1047+0x20>
    8f67:	48 89 85 00 fc ff ff 	mov    %rax,-0x400(%rbp)
    8f6e:	48 c7 85 08 fc ff ff 	movq   $0x0,-0x3f8(%rbp)
    8f75:	00 00 00 00 
    8f79:	48 8d 05 08 bc 00 00 	lea    0xbc08(%rip),%rax        # 14b88 <g_1047+0x28>
    8f80:	48 89 85 10 fc ff ff 	mov    %rax,-0x3f0(%rbp)
    8f87:	48 c7 85 18 fc ff ff 	movq   $0x0,-0x3e8(%rbp)
    8f8e:	00 00 00 00 
    8f92:	48 8d 85 c0 d8 ff ff 	lea    -0x2740(%rbp),%rax
    8f99:	48 89 85 20 fc ff ff 	mov    %rax,-0x3e0(%rbp)
    8fa0:	48 8d 05 d9 bb 00 00 	lea    0xbbd9(%rip),%rax        # 14b80 <g_1047+0x20>
    8fa7:	48 89 85 28 fc ff ff 	mov    %rax,-0x3d8(%rbp)
    8fae:	48 8d 05 d3 bb 00 00 	lea    0xbbd3(%rip),%rax        # 14b88 <g_1047+0x28>
    8fb5:	48 89 85 30 fc ff ff 	mov    %rax,-0x3d0(%rbp)
    8fbc:	48 8d 05 bd bb 00 00 	lea    0xbbbd(%rip),%rax        # 14b80 <g_1047+0x20>
    8fc3:	48 89 85 38 fc ff ff 	mov    %rax,-0x3c8(%rbp)
    8fca:	48 8d 85 c0 d8 ff ff 	lea    -0x2740(%rbp),%rax
    8fd1:	48 89 85 40 fc ff ff 	mov    %rax,-0x3c0(%rbp)
    8fd8:	48 c7 85 48 fc ff ff 	movq   $0x0,-0x3b8(%rbp)
    8fdf:	00 00 00 00 
    8fe3:	48 c7 85 50 fc ff ff 	movq   $0x0,-0x3b0(%rbp)
    8fea:	00 00 00 00 
    8fee:	48 8d 85 c0 d8 ff ff 	lea    -0x2740(%rbp),%rax
    8ff5:	48 89 85 58 fc ff ff 	mov    %rax,-0x3a8(%rbp)
    8ffc:	48 8d 85 c0 d8 ff ff 	lea    -0x2740(%rbp),%rax
    9003:	48 89 85 60 fc ff ff 	mov    %rax,-0x3a0(%rbp)
    900a:	48 8d 05 6f bb 00 00 	lea    0xbb6f(%rip),%rax        # 14b80 <g_1047+0x20>
    9011:	48 89 85 68 fc ff ff 	mov    %rax,-0x398(%rbp)
    9018:	48 8d 05 61 bb 00 00 	lea    0xbb61(%rip),%rax        # 14b80 <g_1047+0x20>
    901f:	48 89 85 70 fc ff ff 	mov    %rax,-0x390(%rbp)
    9026:	48 8d 85 c0 d8 ff ff 	lea    -0x2740(%rbp),%rax
    902d:	48 89 85 78 fc ff ff 	mov    %rax,-0x388(%rbp)
    9034:	48 8d 05 4d bb 00 00 	lea    0xbb4d(%rip),%rax        # 14b88 <g_1047+0x28>
    903b:	48 89 85 80 fc ff ff 	mov    %rax,-0x380(%rbp)
    9042:	48 8d 05 37 bb 00 00 	lea    0xbb37(%rip),%rax        # 14b80 <g_1047+0x20>
    9049:	48 89 85 88 fc ff ff 	mov    %rax,-0x378(%rbp)
    9050:	48 8d 05 31 bb 00 00 	lea    0xbb31(%rip),%rax        # 14b88 <g_1047+0x28>
    9057:	48 89 85 90 fc ff ff 	mov    %rax,-0x370(%rbp)
    905e:	48 8d 05 0b bb 00 00 	lea    0xbb0b(%rip),%rax        # 14b70 <g_1047+0x10>
    9065:	48 89 85 98 fc ff ff 	mov    %rax,-0x368(%rbp)
    906c:	48 8d 85 c0 d8 ff ff 	lea    -0x2740(%rbp),%rax
    9073:	48 89 85 a0 fc ff ff 	mov    %rax,-0x360(%rbp)
    907a:	48 8d 05 07 bb 00 00 	lea    0xbb07(%rip),%rax        # 14b88 <g_1047+0x28>
    9081:	48 89 85 a8 fc ff ff 	mov    %rax,-0x358(%rbp)
    9088:	48 8d 05 09 bb 00 00 	lea    0xbb09(%rip),%rax        # 14b98 <g_1047+0x38>
    908f:	48 89 85 b0 fc ff ff 	mov    %rax,-0x350(%rbp)
    9096:	48 c7 85 b8 fc ff ff 	movq   $0x0,-0x348(%rbp)
    909d:	00 00 00 00 
    90a1:	48 8d 05 d8 ba 00 00 	lea    0xbad8(%rip),%rax        # 14b80 <g_1047+0x20>
    90a8:	48 89 85 c0 fc ff ff 	mov    %rax,-0x340(%rbp)
    90af:	48 8d 85 c0 d8 ff ff 	lea    -0x2740(%rbp),%rax
    90b6:	48 89 85 c8 fc ff ff 	mov    %rax,-0x338(%rbp)
    90bd:	48 8d 05 bc ba 00 00 	lea    0xbabc(%rip),%rax        # 14b80 <g_1047+0x20>
    90c4:	48 89 85 d0 fc ff ff 	mov    %rax,-0x330(%rbp)
    90cb:	48 8d 05 b6 ba 00 00 	lea    0xbab6(%rip),%rax        # 14b88 <g_1047+0x28>
    90d2:	48 89 85 d8 fc ff ff 	mov    %rax,-0x328(%rbp)
    90d9:	48 8d 05 a0 ba 00 00 	lea    0xbaa0(%rip),%rax        # 14b80 <g_1047+0x20>
    90e0:	48 89 85 e0 fc ff ff 	mov    %rax,-0x320(%rbp)
    90e7:	48 c7 85 e8 fc ff ff 	movq   $0x0,-0x318(%rbp)
    90ee:	00 00 00 00 
    90f2:	48 8d 05 7f ba 00 00 	lea    0xba7f(%rip),%rax        # 14b78 <g_1047+0x18>
    90f9:	48 89 85 f0 fc ff ff 	mov    %rax,-0x310(%rbp)
    9100:	48 8d 05 79 ba 00 00 	lea    0xba79(%rip),%rax        # 14b80 <g_1047+0x20>
    9107:	48 89 85 f8 fc ff ff 	mov    %rax,-0x308(%rbp)
    910e:	48 8d 85 c0 d8 ff ff 	lea    -0x2740(%rbp),%rax
    9115:	48 89 85 00 fd ff ff 	mov    %rax,-0x300(%rbp)
    911c:	48 c7 85 08 fd ff ff 	movq   $0x0,-0x2f8(%rbp)
    9123:	00 00 00 00 
    9127:	48 8d 05 52 ba 00 00 	lea    0xba52(%rip),%rax        # 14b80 <g_1047+0x20>
    912e:	48 89 85 10 fd ff ff 	mov    %rax,-0x2f0(%rbp)
    9135:	48 8d 05 2c ba 00 00 	lea    0xba2c(%rip),%rax        # 14b68 <g_1047+0x8>
    913c:	48 89 85 18 fd ff ff 	mov    %rax,-0x2e8(%rbp)
    9143:	48 8d 05 36 ba 00 00 	lea    0xba36(%rip),%rax        # 14b80 <g_1047+0x20>
    914a:	48 89 85 20 fd ff ff 	mov    %rax,-0x2e0(%rbp)
    9151:	48 8d 05 20 ba 00 00 	lea    0xba20(%rip),%rax        # 14b78 <g_1047+0x18>
    9158:	48 89 85 28 fd ff ff 	mov    %rax,-0x2d8(%rbp)
    915f:	48 8d 05 1a ba 00 00 	lea    0xba1a(%rip),%rax        # 14b80 <g_1047+0x20>
    9166:	48 89 85 30 fd ff ff 	mov    %rax,-0x2d0(%rbp)
    916d:	48 c7 85 38 fd ff ff 	movq   $0x0,-0x2c8(%rbp)
    9174:	00 00 00 00 
    9178:	48 8d 05 01 ba 00 00 	lea    0xba01(%rip),%rax        # 14b80 <g_1047+0x20>
    917f:	48 89 85 40 fd ff ff 	mov    %rax,-0x2c0(%rbp)
    9186:	48 8d 85 c0 d8 ff ff 	lea    -0x2740(%rbp),%rax
    918d:	48 89 85 48 fd ff ff 	mov    %rax,-0x2b8(%rbp)
    9194:	48 8d 05 d5 b9 00 00 	lea    0xb9d5(%rip),%rax        # 14b70 <g_1047+0x10>
    919b:	48 89 85 50 fd ff ff 	mov    %rax,-0x2b0(%rbp)
    91a2:	48 8d 05 cf b9 00 00 	lea    0xb9cf(%rip),%rax        # 14b78 <g_1047+0x18>
    91a9:	48 89 85 58 fd ff ff 	mov    %rax,-0x2a8(%rbp)
    91b0:	48 8d 05 c9 b9 00 00 	lea    0xb9c9(%rip),%rax        # 14b80 <g_1047+0x20>
    91b7:	48 89 85 60 fd ff ff 	mov    %rax,-0x2a0(%rbp)
    91be:	48 8d 85 c0 d8 ff ff 	lea    -0x2740(%rbp),%rax
    91c5:	48 89 85 68 fd ff ff 	mov    %rax,-0x298(%rbp)
    91cc:	48 8d 05 ad b9 00 00 	lea    0xb9ad(%rip),%rax        # 14b80 <g_1047+0x20>
    91d3:	48 89 85 70 fd ff ff 	mov    %rax,-0x290(%rbp)
    91da:	48 8d 05 9f b9 00 00 	lea    0xb99f(%rip),%rax        # 14b80 <g_1047+0x20>
    91e1:	48 89 85 78 fd ff ff 	mov    %rax,-0x288(%rbp)
    91e8:	48 8d 05 91 b9 00 00 	lea    0xb991(%rip),%rax        # 14b80 <g_1047+0x20>
    91ef:	48 89 85 80 fd ff ff 	mov    %rax,-0x280(%rbp)
    91f6:	48 8d 05 83 b9 00 00 	lea    0xb983(%rip),%rax        # 14b80 <g_1047+0x20>
    91fd:	48 89 85 88 fd ff ff 	mov    %rax,-0x278(%rbp)
    9204:	48 8d 05 85 b9 00 00 	lea    0xb985(%rip),%rax        # 14b90 <g_1047+0x30>
    920b:	48 89 85 90 fd ff ff 	mov    %rax,-0x270(%rbp)
    9212:	48 8d 05 67 b9 00 00 	lea    0xb967(%rip),%rax        # 14b80 <g_1047+0x20>
    9219:	48 89 85 98 fd ff ff 	mov    %rax,-0x268(%rbp)
    9220:	48 8d 05 51 b9 00 00 	lea    0xb951(%rip),%rax        # 14b78 <g_1047+0x18>
    9227:	48 89 85 a0 fd ff ff 	mov    %rax,-0x260(%rbp)
    922e:	48 8d 05 4b b9 00 00 	lea    0xb94b(%rip),%rax        # 14b80 <g_1047+0x20>
    9235:	48 89 85 a8 fd ff ff 	mov    %rax,-0x258(%rbp)
    923c:	48 8d 85 c0 d8 ff ff 	lea    -0x2740(%rbp),%rax
    9243:	48 89 85 b0 fd ff ff 	mov    %rax,-0x250(%rbp)
    924a:	48 8d 05 3f b9 00 00 	lea    0xb93f(%rip),%rax        # 14b90 <g_1047+0x30>
    9251:	48 89 85 b8 fd ff ff 	mov    %rax,-0x248(%rbp)
    9258:	48 8d 05 01 b9 00 00 	lea    0xb901(%rip),%rax        # 14b60 <g_1047>
    925f:	48 89 85 c0 fd ff ff 	mov    %rax,-0x240(%rbp)
    9266:	48 8d 05 13 b9 00 00 	lea    0xb913(%rip),%rax        # 14b80 <g_1047+0x20>
    926d:	48 89 85 c8 fd ff ff 	mov    %rax,-0x238(%rbp)
    9274:	48 8d 85 c0 d8 ff ff 	lea    -0x2740(%rbp),%rax
    927b:	48 89 85 d0 fd ff ff 	mov    %rax,-0x230(%rbp)
    9282:	48 8d 05 e7 b8 00 00 	lea    0xb8e7(%rip),%rax        # 14b70 <g_1047+0x10>
    9289:	48 89 85 d8 fd ff ff 	mov    %rax,-0x228(%rbp)
    9290:	48 8d 05 e9 b8 00 00 	lea    0xb8e9(%rip),%rax        # 14b80 <g_1047+0x20>
    9297:	48 89 85 e0 fd ff ff 	mov    %rax,-0x220(%rbp)
    929e:	48 8d 05 e3 b8 00 00 	lea    0xb8e3(%rip),%rax        # 14b88 <g_1047+0x28>
    92a5:	48 89 85 e8 fd ff ff 	mov    %rax,-0x218(%rbp)
    92ac:	48 8d 05 d5 b8 00 00 	lea    0xb8d5(%rip),%rax        # 14b88 <g_1047+0x28>
    92b3:	48 89 85 f0 fd ff ff 	mov    %rax,-0x210(%rbp)
    92ba:	48 8d 05 bf b8 00 00 	lea    0xb8bf(%rip),%rax        # 14b80 <g_1047+0x20>
    92c1:	48 89 85 f8 fd ff ff 	mov    %rax,-0x208(%rbp)
    92c8:	48 8d 85 c0 d8 ff ff 	lea    -0x2740(%rbp),%rax
    92cf:	48 89 85 00 fe ff ff 	mov    %rax,-0x200(%rbp)
    92d6:	48 c7 85 08 fe ff ff 	movq   $0x0,-0x1f8(%rbp)
    92dd:	00 00 00 00 
    92e1:	48 8d 85 c0 d8 ff ff 	lea    -0x2740(%rbp),%rax
    92e8:	48 89 85 10 fe ff ff 	mov    %rax,-0x1f0(%rbp)
    92ef:	48 8d 05 8a b8 00 00 	lea    0xb88a(%rip),%rax        # 14b80 <g_1047+0x20>
    92f6:	48 89 85 18 fe ff ff 	mov    %rax,-0x1e8(%rbp)
    92fd:	48 8d 05 7c b8 00 00 	lea    0xb87c(%rip),%rax        # 14b80 <g_1047+0x20>
    9304:	48 89 85 20 fe ff ff 	mov    %rax,-0x1e0(%rbp)
    930b:	48 8d 05 6e b8 00 00 	lea    0xb86e(%rip),%rax        # 14b80 <g_1047+0x20>
    9312:	48 89 85 28 fe ff ff 	mov    %rax,-0x1d8(%rbp)
    9319:	48 8d 05 60 b8 00 00 	lea    0xb860(%rip),%rax        # 14b80 <g_1047+0x20>
    9320:	48 89 85 30 fe ff ff 	mov    %rax,-0x1d0(%rbp)
    9327:	48 8d 85 c0 d8 ff ff 	lea    -0x2740(%rbp),%rax
    932e:	48 89 85 38 fe ff ff 	mov    %rax,-0x1c8(%rbp)
    9335:	48 8d 05 44 b8 00 00 	lea    0xb844(%rip),%rax        # 14b80 <g_1047+0x20>
    933c:	48 89 85 40 fe ff ff 	mov    %rax,-0x1c0(%rbp)
    9343:	48 8d 85 c0 d8 ff ff 	lea    -0x2740(%rbp),%rax
    934a:	48 89 85 48 fe ff ff 	mov    %rax,-0x1b8(%rbp)
    9351:	48 c7 85 50 fe ff ff 	movq   $0x0,-0x1b0(%rbp)
    9358:	00 00 00 00 
    935c:	48 8d 05 05 b8 00 00 	lea    0xb805(%rip),%rax        # 14b68 <g_1047+0x8>
    9363:	48 89 85 58 fe ff ff 	mov    %rax,-0x1a8(%rbp)
    936a:	48 8d 85 c0 d8 ff ff 	lea    -0x2740(%rbp),%rax
    9371:	48 89 85 60 fe ff ff 	mov    %rax,-0x1a0(%rbp)
    9378:	48 8d 05 f9 b7 00 00 	lea    0xb7f9(%rip),%rax        # 14b78 <g_1047+0x18>
    937f:	48 89 85 68 fe ff ff 	mov    %rax,-0x198(%rbp)
    9386:	48 8d 05 db b7 00 00 	lea    0xb7db(%rip),%rax        # 14b68 <g_1047+0x8>
    938d:	48 89 85 70 fe ff ff 	mov    %rax,-0x190(%rbp)
    9394:	48 8d 85 c0 d8 ff ff 	lea    -0x2740(%rbp),%rax
    939b:	48 89 85 78 fe ff ff 	mov    %rax,-0x188(%rbp)
    93a2:	48 8d 05 d7 b7 00 00 	lea    0xb7d7(%rip),%rax        # 14b80 <g_1047+0x20>
    93a9:	48 89 85 80 fe ff ff 	mov    %rax,-0x180(%rbp)
    93b0:	48 c7 85 88 fe ff ff 	movq   $0x0,-0x178(%rbp)
    93b7:	00 00 00 00 
    93bb:	48 8d 05 a6 b7 00 00 	lea    0xb7a6(%rip),%rax        # 14b68 <g_1047+0x8>
    93c2:	48 89 85 90 fe ff ff 	mov    %rax,-0x170(%rbp)
    93c9:	48 8d 05 b0 b7 00 00 	lea    0xb7b0(%rip),%rax        # 14b80 <g_1047+0x20>
    93d0:	48 89 85 98 fe ff ff 	mov    %rax,-0x168(%rbp)
    93d7:	48 8d 05 aa b7 00 00 	lea    0xb7aa(%rip),%rax        # 14b88 <g_1047+0x28>
    93de:	48 89 85 a0 fe ff ff 	mov    %rax,-0x160(%rbp)
    93e5:	48 8d 85 c0 d8 ff ff 	lea    -0x2740(%rbp),%rax
    93ec:	48 89 85 a8 fe ff ff 	mov    %rax,-0x158(%rbp)
    93f3:	48 8d 85 c0 d8 ff ff 	lea    -0x2740(%rbp),%rax
    93fa:	48 89 85 b0 fe ff ff 	mov    %rax,-0x150(%rbp)
    9401:	48 8d 05 78 b7 00 00 	lea    0xb778(%rip),%rax        # 14b80 <g_1047+0x20>
    9408:	48 89 85 b8 fe ff ff 	mov    %rax,-0x148(%rbp)
    940f:	48 8d 05 6a b7 00 00 	lea    0xb76a(%rip),%rax        # 14b80 <g_1047+0x20>
    9416:	48 89 85 c0 fe ff ff 	mov    %rax,-0x140(%rbp)
    941d:	48 8d 05 4c b7 00 00 	lea    0xb74c(%rip),%rax        # 14b70 <g_1047+0x10>
    9424:	48 89 85 c8 fe ff ff 	mov    %rax,-0x138(%rbp)
    942b:	48 8d 05 56 b7 00 00 	lea    0xb756(%rip),%rax        # 14b88 <g_1047+0x28>
    9432:	48 89 85 d0 fe ff ff 	mov    %rax,-0x130(%rbp)
    9439:	48 c7 85 d8 fe ff ff 	movq   $0x0,-0x128(%rbp)
    9440:	00 00 00 00 
    9444:	48 8d 05 35 b7 00 00 	lea    0xb735(%rip),%rax        # 14b80 <g_1047+0x20>
    944b:	48 89 85 e0 fe ff ff 	mov    %rax,-0x120(%rbp)
    9452:	48 c7 85 e8 fe ff ff 	movq   $0x0,-0x118(%rbp)
    9459:	00 00 00 00 
    945d:	48 8d 85 c0 d8 ff ff 	lea    -0x2740(%rbp),%rax
    9464:	48 89 85 f0 fe ff ff 	mov    %rax,-0x110(%rbp)
    946b:	48 8d 05 0e b7 00 00 	lea    0xb70e(%rip),%rax        # 14b80 <g_1047+0x20>
    9472:	48 89 85 f8 fe ff ff 	mov    %rax,-0x108(%rbp)
    9479:	48 8d 05 18 b7 00 00 	lea    0xb718(%rip),%rax        # 14b98 <g_1047+0x38>
    9480:	48 89 85 00 ff ff ff 	mov    %rax,-0x100(%rbp)
    9487:	48 8d 05 02 b7 00 00 	lea    0xb702(%rip),%rax        # 14b90 <g_1047+0x30>
    948e:	48 89 85 08 ff ff ff 	mov    %rax,-0xf8(%rbp)
    9495:	48 c7 85 10 ff ff ff 	movq   $0x0,-0xf0(%rbp)
    949c:	00 00 00 00 
    94a0:	48 8d 05 d9 b6 00 00 	lea    0xb6d9(%rip),%rax        # 14b80 <g_1047+0x20>
    94a7:	48 89 85 18 ff ff ff 	mov    %rax,-0xe8(%rbp)
    94ae:	48 8d 05 c3 b6 00 00 	lea    0xb6c3(%rip),%rax        # 14b78 <g_1047+0x18>
    94b5:	48 89 85 20 ff ff ff 	mov    %rax,-0xe0(%rbp)
    94bc:	48 c7 85 28 ff ff ff 	movq   $0x0,-0xd8(%rbp)
    94c3:	00 00 00 00 
    94c7:	48 c7 85 30 ff ff ff 	movq   $0x0,-0xd0(%rbp)
    94ce:	00 00 00 00 
    94d2:	48 8d 05 a7 b6 00 00 	lea    0xb6a7(%rip),%rax        # 14b80 <g_1047+0x20>
    94d9:	48 89 85 38 ff ff ff 	mov    %rax,-0xc8(%rbp)
    94e0:	48 8d 05 99 b6 00 00 	lea    0xb699(%rip),%rax        # 14b80 <g_1047+0x20>
    94e7:	48 89 85 40 ff ff ff 	mov    %rax,-0xc0(%rbp)
    94ee:	48 8d 05 8b b6 00 00 	lea    0xb68b(%rip),%rax        # 14b80 <g_1047+0x20>
    94f5:	48 89 85 48 ff ff ff 	mov    %rax,-0xb8(%rbp)
    94fc:	48 8d 05 85 b6 00 00 	lea    0xb685(%rip),%rax        # 14b88 <g_1047+0x28>
    9503:	48 89 85 50 ff ff ff 	mov    %rax,-0xb0(%rbp)
    950a:	48 8d 05 5f b6 00 00 	lea    0xb65f(%rip),%rax        # 14b70 <g_1047+0x10>
    9511:	48 89 85 58 ff ff ff 	mov    %rax,-0xa8(%rbp)
    9518:	48 8d 05 59 b6 00 00 	lea    0xb659(%rip),%rax        # 14b78 <g_1047+0x18>
    951f:	48 89 85 60 ff ff ff 	mov    %rax,-0xa0(%rbp)
    9526:	48 8d 05 53 b6 00 00 	lea    0xb653(%rip),%rax        # 14b80 <g_1047+0x20>
    952d:	48 89 85 68 ff ff ff 	mov    %rax,-0x98(%rbp)
    9534:	48 8d 85 c0 d8 ff ff 	lea    -0x2740(%rbp),%rax
    953b:	48 89 85 70 ff ff ff 	mov    %rax,-0x90(%rbp)
    9542:	48 8d 85 c0 d8 ff ff 	lea    -0x2740(%rbp),%rax
    9549:	48 89 85 78 ff ff ff 	mov    %rax,-0x88(%rbp)
    9550:	48 8d 05 11 b6 00 00 	lea    0xb611(%rip),%rax        # 14b68 <g_1047+0x8>
    9557:	48 89 45 80          	mov    %rax,-0x80(%rbp)
    955b:	48 8d 85 c0 d8 ff ff 	lea    -0x2740(%rbp),%rax
    9562:	48 89 45 88          	mov    %rax,-0x78(%rbp)
    9566:	48 8d 05 2b b6 00 00 	lea    0xb62b(%rip),%rax        # 14b98 <g_1047+0x38>
    956d:	48 89 45 90          	mov    %rax,-0x70(%rbp)
    9571:	48 8d 85 c0 d8 ff ff 	lea    -0x2740(%rbp),%rax
    9578:	48 89 45 98          	mov    %rax,-0x68(%rbp)
    957c:	48 8d 05 fd b5 00 00 	lea    0xb5fd(%rip),%rax        # 14b80 <g_1047+0x20>
    9583:	48 89 45 a0          	mov    %rax,-0x60(%rbp)
    9587:	48 8d 05 da b5 00 00 	lea    0xb5da(%rip),%rax        # 14b68 <g_1047+0x8>
    958e:	48 89 45 a8          	mov    %rax,-0x58(%rbp)
    9592:	48 8d 05 e7 b5 00 00 	lea    0xb5e7(%rip),%rax        # 14b80 <g_1047+0x20>
    9599:	48 89 45 b0          	mov    %rax,-0x50(%rbp)
    959d:	48 8d 85 c0 d8 ff ff 	lea    -0x2740(%rbp),%rax
    95a4:	48 89 45 b8          	mov    %rax,-0x48(%rbp)
    95a8:	c7 85 40 d8 ff ff e1 	movl   $0xc490a8e1,-0x27c0(%rbp)
    95af:	a8 90 c4 
    95b2:	c7 85 44 d8 ff ff 01 	movl   $0x1,-0x27bc(%rbp)
    95b9:	00 00 00 
    95bc:	c7 85 48 d8 ff ff eb 	movl   $0xa0520eeb,-0x27b8(%rbp)
    95c3:	0e 52 a0 
    95c6:	c7 85 90 db ff ff f7 	movl   $0xfffffff7,-0x2470(%rbp)
    95cd:	ff ff ff 
    95d0:	c7 85 94 db ff ff f7 	movl   $0xfffffff7,-0x246c(%rbp)
    95d7:	ff ff ff 
    95da:	c7 85 98 db ff ff 30 	movl   $0xbdcc6f30,-0x2468(%rbp)
    95e1:	6f cc bd 
    95e4:	c7 85 9c db ff ff c0 	movl   $0x997dd7c0,-0x2464(%rbp)
    95eb:	d7 7d 99 
    95ee:	c7 85 a0 db ff ff dc 	movl   $0x2c3e81dc,-0x2460(%rbp)
    95f5:	81 3e 2c 
    95f8:	c7 85 a4 db ff ff c0 	movl   $0x997dd7c0,-0x245c(%rbp)
    95ff:	d7 7d 99 
    9602:	c7 85 a8 db ff ff 30 	movl   $0xbdcc6f30,-0x2458(%rbp)
    9609:	6f cc bd 
    960c:	c7 85 ac db ff ff f7 	movl   $0xfffffff7,-0x2454(%rbp)
    9613:	ff ff ff 
    9616:	c7 85 b0 db ff ff f7 	movl   $0xfffffff7,-0x2450(%rbp)
    961d:	ff ff ff 
    9620:	c7 85 b4 db ff ff 30 	movl   $0xbdcc6f30,-0x244c(%rbp)
    9627:	6f cc bd 
    962a:	c7 85 b8 db ff ff c0 	movl   $0x997dd7c0,-0x2448(%rbp)
    9631:	d7 7d 99 
    9634:	c7 85 bc db ff ff dc 	movl   $0x2c3e81dc,-0x2444(%rbp)
    963b:	81 3e 2c 
    963e:	c7 85 c0 db ff ff c0 	movl   $0x997dd7c0,-0x2440(%rbp)
    9645:	d7 7d 99 
    9648:	c7 85 c4 db ff ff 30 	movl   $0xbdcc6f30,-0x243c(%rbp)
    964f:	6f cc bd 
    9652:	c7 85 c8 db ff ff f7 	movl   $0xfffffff7,-0x2438(%rbp)
    9659:	ff ff ff 
    965c:	c7 85 cc db ff ff f7 	movl   $0xfffffff7,-0x2434(%rbp)
    9663:	ff ff ff 
    9666:	c7 85 d0 db ff ff 30 	movl   $0xbdcc6f30,-0x2430(%rbp)
    966d:	6f cc bd 
    9670:	c7 85 d4 db ff ff c0 	movl   $0x997dd7c0,-0x242c(%rbp)
    9677:	d7 7d 99 
    967a:	c7 85 d8 db ff ff dc 	movl   $0x2c3e81dc,-0x2428(%rbp)
    9681:	81 3e 2c 
    9684:	c7 85 dc db ff ff c0 	movl   $0x997dd7c0,-0x2424(%rbp)
    968b:	d7 7d 99 
    968e:	c7 85 e0 db ff ff 30 	movl   $0xbdcc6f30,-0x2420(%rbp)
    9695:	6f cc bd 
    9698:	c7 85 e4 db ff ff f7 	movl   $0xfffffff7,-0x241c(%rbp)
    969f:	ff ff ff 
    96a2:	c7 85 e8 db ff ff f7 	movl   $0xfffffff7,-0x2418(%rbp)
    96a9:	ff ff ff 
    96ac:	c7 85 ec db ff ff 30 	movl   $0xbdcc6f30,-0x2414(%rbp)
    96b3:	6f cc bd 
    96b6:	c7 85 f0 db ff ff c0 	movl   $0x997dd7c0,-0x2410(%rbp)
    96bd:	d7 7d 99 
    96c0:	c7 85 f4 db ff ff dc 	movl   $0x2c3e81dc,-0x240c(%rbp)
    96c7:	81 3e 2c 
    96ca:	c7 85 f8 db ff ff c0 	movl   $0x997dd7c0,-0x2408(%rbp)
    96d1:	d7 7d 99 
    96d4:	c7 85 fc db ff ff 30 	movl   $0xbdcc6f30,-0x2404(%rbp)
    96db:	6f cc bd 
    96de:	c7 85 00 dc ff ff f7 	movl   $0xfffffff7,-0x2400(%rbp)
    96e5:	ff ff ff 
    96e8:	c7 85 04 dc ff ff f7 	movl   $0xfffffff7,-0x23fc(%rbp)
    96ef:	ff ff ff 
    96f2:	c7 85 08 dc ff ff 30 	movl   $0xbdcc6f30,-0x23f8(%rbp)
    96f9:	6f cc bd 
    96fc:	c7 85 0c dc ff ff c0 	movl   $0x997dd7c0,-0x23f4(%rbp)
    9703:	d7 7d 99 
    9706:	c7 85 10 dc ff ff dc 	movl   $0x2c3e81dc,-0x23f0(%rbp)
    970d:	81 3e 2c 
    9710:	c7 85 14 dc ff ff c0 	movl   $0x997dd7c0,-0x23ec(%rbp)
    9717:	d7 7d 99 
    971a:	c7 85 18 dc ff ff 30 	movl   $0xbdcc6f30,-0x23e8(%rbp)
    9721:	6f cc bd 
    9724:	c7 85 1c dc ff ff f7 	movl   $0xfffffff7,-0x23e4(%rbp)
    972b:	ff ff ff 
    972e:	c7 85 20 dc ff ff f7 	movl   $0xfffffff7,-0x23e0(%rbp)
    9735:	ff ff ff 
    9738:	c7 85 24 dc ff ff 30 	movl   $0xbdcc6f30,-0x23dc(%rbp)
    973f:	6f cc bd 
    9742:	c7 85 28 dc ff ff c0 	movl   $0x997dd7c0,-0x23d8(%rbp)
    9749:	d7 7d 99 
    974c:	c7 85 2c dc ff ff dc 	movl   $0x2c3e81dc,-0x23d4(%rbp)
    9753:	81 3e 2c 
    9756:	48 8b 85 70 d7 ff ff 	mov    -0x2890(%rbp),%rax
    975d:	0f be d8             	movsbl %al,%ebx
    9760:	48 8b 85 30 d9 ff ff 	mov    -0x26d0(%rbp),%rax
    9767:	48 8b 00             	mov    (%rax),%rax
    976a:	48 8b 00             	mov    (%rax),%rax
    976d:	48 8b 00             	mov    (%rax),%rax
    9770:	48 8b 10             	mov    (%rax),%rdx
    9773:	48 83 c2 01          	add    $0x1,%rdx
    9777:	48 89 10             	mov    %rdx,(%rax)
    977a:	44 0f be a5 a7 d7 ff 	movsbl -0x2859(%rbp),%r12d
    9781:	ff 
    9782:	48 8b 85 70 d7 ff ff 	mov    -0x2890(%rbp),%rax
    9789:	44 0f be e8          	movsbl %al,%r13d
    978d:	0f b6 85 a7 d7 ff ff 	movzbl -0x2859(%rbp),%eax
    9794:	0f b6 d0             	movzbl %al,%edx
    9797:	48 8b 05 ba b0 00 00 	mov    0xb0ba(%rip),%rax        # 14858 <g_308>
    979e:	0f b6 00             	movzbl (%rax),%eax
    97a1:	0f b6 c0             	movzbl %al,%eax
    97a4:	89 d6                	mov    %edx,%esi
    97a6:	89 c7                	mov    %eax,%edi
    97a8:	e8 ad c3 ff ff       	callq  5b5a <safe_add_func_uint8_t_u_u>
    97ad:	44 89 ee             	mov    %r13d,%esi
    97b0:	bf 01 00 00 00       	mov    $0x1,%edi
    97b5:	e8 77 ba ff ff       	callq  5231 <safe_mod_func_int8_t_s_s>
    97ba:	0f be c0             	movsbl %al,%eax
    97bd:	44 89 e6             	mov    %r12d,%esi
    97c0:	89 c7                	mov    %eax,%edi
    97c2:	e8 36 c7 ff ff       	callq  5efd <safe_mod_func_uint32_t_u_u>
    97c7:	83 f0 01             	xor    $0x1,%eax
    97ca:	25 1e 11 8a 51       	and    $0x518a111e,%eax
    97cf:	89 c2                	mov    %eax,%edx
    97d1:	8b 05 19 9a 00 00    	mov    0x9a19(%rip),%eax        # 131f0 <g_1161>
    97d7:	31 d0                	xor    %edx,%eax
    97d9:	89 85 34 da ff ff    	mov    %eax,-0x25cc(%rbp)
    97df:	8b 85 34 da ff ff    	mov    -0x25cc(%rbp),%eax
    97e5:	be fd ff ff ff       	mov    $0xfffffffd,%esi
    97ea:	89 c7                	mov    %eax,%edi
    97ec:	e8 c5 bd ff ff       	callq  55b6 <safe_add_func_int32_t_s_s>
    97f1:	80 bd a7 d7 ff ff 00 	cmpb   $0x0,-0x2859(%rbp)
    97f8:	74 07                	je     9801 <func_8+0x2930>
    97fa:	b8 01 00 00 00       	mov    $0x1,%eax
    97ff:	eb 05                	jmp    9806 <func_8+0x2935>
    9801:	b8 00 00 00 00       	mov    $0x0,%eax
    9806:	83 f8 08             	cmp    $0x8,%eax
    9809:	0f 9f c0             	setg   %al
    980c:	0f b6 d0             	movzbl %al,%edx
    980f:	48 8b 85 a0 d9 ff ff 	mov    -0x2660(%rbp),%rax
    9816:	89 10                	mov    %edx,(%rax)
    9818:	48 8b 85 a0 d9 ff ff 	mov    -0x2660(%rbp),%rax
    981f:	8b 00                	mov    (%rax),%eax
    9821:	3d 86 cd b5 d3       	cmp    $0xd3b5cd86,%eax
    9826:	0f 96 c0             	setbe  %al
    9829:	0f b6 d0             	movzbl %al,%edx
    982c:	48 8b 05 25 b0 00 00 	mov    0xb025(%rip),%rax        # 14858 <g_308>
    9833:	0f b6 00             	movzbl (%rax),%eax
    9836:	0f b6 c0             	movzbl %al,%eax
    9839:	39 c2                	cmp    %eax,%edx
    983b:	0f be 85 a7 d7 ff ff 	movsbl -0x2859(%rbp),%eax
    9842:	83 e0 01             	and    $0x1,%eax
    9845:	89 c2                	mov    %eax,%edx
    9847:	0f bf 85 84 d7 ff ff 	movswl -0x287c(%rbp),%eax
    984e:	39 c2                	cmp    %eax,%edx
    9850:	0f 9e c0             	setle  %al
    9853:	0f b6 c0             	movzbl %al,%eax
    9856:	89 de                	mov    %ebx,%esi
    9858:	89 c7                	mov    %eax,%edi
    985a:	e8 b3 b9 ff ff       	callq  5212 <safe_mul_func_int8_t_s_s>
    985f:	0f be c0             	movsbl %al,%eax
    9862:	89 85 40 da ff ff    	mov    %eax,-0x25c0(%rbp)
    9868:	8b 85 f0 d9 ff ff    	mov    -0x2610(%rbp),%eax
    986e:	83 e8 01             	sub    $0x1,%eax
    9871:	89 85 f0 d9 ff ff    	mov    %eax,-0x2610(%rbp)
    9877:	0f b6 85 a0 d7 ff ff 	movzbl -0x2860(%rbp),%eax
    987e:	83 c0 01             	add    $0x1,%eax
    9881:	88 85 a0 d7 ff ff    	mov    %al,-0x2860(%rbp)
    9887:	48 8b 85 88 d7 ff ff 	mov    -0x2878(%rbp),%rax
    988e:	8b 00                	mov    (%rax),%eax
    9890:	85 c0                	test   %eax,%eax
    9892:	75 2c                	jne    98c0 <func_8+0x29ef>
    9894:	8b 05 3e 99 00 00    	mov    0x993e(%rip),%eax        # 131d8 <g_424>
    989a:	98                   	cwtl   
    989b:	be 01 00 00 00       	mov    $0x1,%esi
    98a0:	89 c7                	mov    %eax,%edi
    98a2:	e8 0c bb ff ff       	callq  53b3 <safe_add_func_int16_t_s_s>
    98a7:	98                   	cwtl   
    98a8:	89 05 2a 99 00 00    	mov    %eax,0x992a(%rip)        # 131d8 <g_424>
    98ae:	8b 05 24 99 00 00    	mov    0x9924(%rip),%eax        # 131d8 <g_424>
    98b4:	83 f8 1a             	cmp    $0x1a,%eax
    98b7:	0f 8e c0 ea ff ff    	jle    837d <func_8+0x14ac>
    98bd:	eb 01                	jmp    98c0 <func_8+0x29ef>
    98bf:	90                   	nop
    98c0:	0f b7 85 84 d7 ff ff 	movzwl -0x287c(%rbp),%eax
    98c7:	83 e8 01             	sub    $0x1,%eax
    98ca:	66 89 85 84 d7 ff ff 	mov    %ax,-0x287c(%rbp)
    98d1:	66 83 bd 84 d7 ff ff 	cmpw   $0xffec,-0x287c(%rbp)
    98d8:	ec 
    98d9:	0f 8d e6 e9 ff ff    	jge    82c5 <func_8+0x13f4>
    98df:	eb 04                	jmp    98e5 <func_8+0x2a14>
    98e1:	90                   	nop
    98e2:	eb 01                	jmp    98e5 <func_8+0x2a14>
    98e4:	90                   	nop
    98e5:	c7 85 24 d8 ff ff 00 	movl   $0x0,-0x27dc(%rbp)
    98ec:	00 00 00 
    98ef:	83 bd 24 d8 ff ff 00 	cmpl   $0x0,-0x27dc(%rbp)
    98f6:	0f 88 51 05 00 00    	js     9e4d <func_8+0x2f7c>
    98fc:	66 c7 85 ac d7 ff ff 	movw   $0x1,-0x2854(%rbp)
    9903:	01 00 
    9905:	c7 85 88 d8 ff ff a3 	movl   $0x7968caa3,-0x2778(%rbp)
    990c:	ca 68 79 
    990f:	c7 85 ec d7 ff ff 05 	movl   $0x5,-0x2814(%rbp)
    9916:	00 00 00 
    9919:	48 c7 85 b8 d9 ff ff 	movq   $0x0,-0x2648(%rbp)
    9920:	00 00 00 00 
    9924:	66 c7 85 ba d7 ff ff 	movw   $0xe56e,-0x2846(%rbp)
    992b:	6e e5 
    992d:	48 8d 85 9e d7 ff ff 	lea    -0x2862(%rbp),%rax
    9934:	48 89 85 08 d9 ff ff 	mov    %rax,-0x26f8(%rbp)
    993b:	c7 85 8c d8 ff ff 01 	movl   $0x1,-0x2774(%rbp)
    9942:	00 00 00 
    9945:	c7 85 90 d8 ff ff fa 	movl   $0xfffffffa,-0x2770(%rbp)
    994c:	ff ff ff 
    994f:	c7 85 dc d7 ff ff 00 	movl   $0x0,-0x2824(%rbp)
    9956:	00 00 00 
    9959:	e9 05 01 00 00       	jmpq   9a63 <func_8+0x2b92>
    995e:	c7 85 bc d8 ff ff ff 	movl   $0xffffffff,-0x2744(%rbp)
    9965:	ff ff ff 
    9968:	48 8d 05 e5 46 00 00 	lea    0x46e5(%rip),%rax        # e054 <g_1238>
    996f:	48 89 85 00 d9 ff ff 	mov    %rax,-0x2700(%rbp)
    9976:	48 8d 85 00 d9 ff ff 	lea    -0x2700(%rbp),%rax
    997d:	48 89 85 e0 d9 ff ff 	mov    %rax,-0x2620(%rbp)
    9984:	8b 85 88 d8 ff ff    	mov    -0x2778(%rbp),%eax
    998a:	0f b6 c0             	movzbl %al,%eax
    998d:	89 c6                	mov    %eax,%esi
    998f:	bf 91 00 00 00       	mov    $0x91,%edi
    9994:	e8 42 c2 ff ff       	callq  5bdb <safe_div_func_uint8_t_u_u>
    9999:	be 0c ed 07 c2       	mov    $0xc207ed0c,%esi
    999e:	bf 01 00 00 00       	mov    $0x1,%edi
    99a3:	e8 10 c5 ff ff       	callq  5eb8 <safe_add_func_uint32_t_u_u>
    99a8:	48 8b 85 88 d7 ff ff 	mov    -0x2878(%rbp),%rax
    99af:	8b 10                	mov    (%rax),%edx
    99b1:	8b 05 ed 97 00 00    	mov    0x97ed(%rip),%eax        # 131a4 <g_91+0x24>
    99b7:	39 c2                	cmp    %eax,%edx
    99b9:	0f 95 c0             	setne  %al
    99bc:	89 c2                	mov    %eax,%edx
    99be:	48 8b 85 68 d7 ff ff 	mov    -0x2898(%rbp),%rax
    99c5:	31 d0                	xor    %edx,%eax
    99c7:	0f b6 d0             	movzbl %al,%edx
    99ca:	48 b8 01 5f 31 fd 73 	movabs $0x592cde73fd315f01,%rax
    99d1:	de 2c 59 
    99d4:	48 39 85 68 d7 ff ff 	cmp    %rax,-0x2898(%rbp)
    99db:	0f 9e c0             	setle  %al
    99de:	0f b6 c0             	movzbl %al,%eax
    99e1:	89 d6                	mov    %edx,%esi
    99e3:	89 c7                	mov    %eax,%edi
    99e5:	e8 f1 c1 ff ff       	callq  5bdb <safe_div_func_uint8_t_u_u>
    99ea:	0f be d8             	movsbl %al,%ebx
    99ed:	48 8b 85 70 d7 ff ff 	mov    -0x2890(%rbp),%rax
    99f4:	66 31 85 84 d7 ff ff 	xor    %ax,-0x287c(%rbp)
    99fb:	0f b7 95 84 d7 ff ff 	movzwl -0x287c(%rbp),%edx
    9a02:	0f b7 85 ac d7 ff ff 	movzwl -0x2854(%rbp),%eax
    9a09:	21 d0                	and    %edx,%eax
    9a0b:	66 89 85 ac d7 ff ff 	mov    %ax,-0x2854(%rbp)
    9a12:	0f b7 85 ac d7 ff ff 	movzwl -0x2854(%rbp),%eax
    9a19:	98                   	cwtl   
    9a1a:	be 04 00 00 00       	mov    $0x4,%esi
    9a1f:	89 c7                	mov    %eax,%edi
    9a21:	e8 3d bb ff ff       	callq  5563 <safe_rshift_func_int16_t_s_u>
    9a26:	0f be c0             	movsbl %al,%eax
    9a29:	89 de                	mov    %ebx,%esi
    9a2b:	89 c7                	mov    %eax,%edi
    9a2d:	e8 e0 b7 ff ff       	callq  5212 <safe_mul_func_int8_t_s_s>
    9a32:	48 8b 85 e0 d9 ff ff 	mov    -0x2620(%rbp),%rax
    9a39:	48 8b 95 18 d9 ff ff 	mov    -0x26e8(%rbp),%rdx
    9a40:	48 89 10             	mov    %rdx,(%rax)
    9a43:	48 8b 85 e0 d9 ff ff 	mov    -0x2620(%rbp),%rax
    9a4a:	48 8b 00             	mov    (%rax),%rax
    9a4d:	48 85 c0             	test   %rax,%rax
    9a50:	0f 95 c0             	setne  %al
    9a53:	0f b6 c0             	movzbl %al,%eax
    9a56:	09 85 ec d7 ff ff    	or     %eax,-0x2814(%rbp)
    9a5c:	83 85 dc d7 ff ff 01 	addl   $0x1,-0x2824(%rbp)
    9a63:	83 bd dc d7 ff ff 00 	cmpl   $0x0,-0x2824(%rbp)
    9a6a:	0f 8e ee fe ff ff    	jle    995e <func_8+0x2a8d>
    9a70:	48 c7 05 55 97 00 00 	movq   $0x1b,0x9755(%rip)        # 131d0 <g_411>
    9a77:	1b 00 00 00 
    9a7b:	e9 ab 03 00 00       	jmpq   9e2b <func_8+0x2f5a>
    9a80:	48 8d 05 99 b7 00 00 	lea    0xb799(%rip),%rax        # 15220 <g_1242>
    9a87:	48 89 85 c0 d9 ff ff 	mov    %rax,-0x2640(%rbp)
    9a8e:	48 8d 85 d8 d8 ff ff 	lea    -0x2728(%rbp),%rax
    9a95:	48 89 85 f8 d8 ff ff 	mov    %rax,-0x2708(%rbp)
    9a9c:	48 8d 85 f8 d8 ff ff 	lea    -0x2708(%rbp),%rax
    9aa3:	48 89 85 c8 d9 ff ff 	mov    %rax,-0x2638(%rbp)
    9aaa:	c7 85 94 d8 ff ff 7c 	movl   $0x9b93687c,-0x276c(%rbp)
    9ab1:	68 93 9b 
    9ab4:	c7 85 98 d8 ff ff 79 	movl   $0x72445479,-0x2768(%rbp)
    9abb:	54 44 72 
    9abe:	66 c7 85 bc d7 ff ff 	movw   $0x2256,-0x2844(%rbp)
    9ac5:	56 22 
    9ac7:	48 8d 05 da b0 00 00 	lea    0xb0da(%rip),%rax        # 14ba8 <g_1046+0x8>
    9ace:	48 89 85 d0 d9 ff ff 	mov    %rax,-0x2630(%rbp)
    9ad5:	48 8d 05 10 97 00 00 	lea    0x9710(%rip),%rax        # 131ec <g_961>
    9adc:	48 89 85 d8 d9 ff ff 	mov    %rax,-0x2628(%rbp)
    9ae3:	66 c7 85 be d7 ff ff 	movw   $0xfff9,-0x2842(%rbp)
    9aea:	f9 ff 
    9aec:	c7 85 9c d8 ff ff 06 	movl   $0x6,-0x2764(%rbp)
    9af3:	00 00 00 
    9af6:	c7 85 a0 d8 ff ff 44 	movl   $0x8e16544,-0x2760(%rbp)
    9afd:	65 e1 08 
    9b00:	c7 85 a4 d8 ff ff 03 	movl   $0xd566ae03,-0x275c(%rbp)
    9b07:	ae 66 d5 
    9b0a:	c7 85 a8 d8 ff ff ff 	movl   $0xf1554fff,-0x2758(%rbp)
    9b11:	4f 55 f1 
    9b14:	c7 85 ac d8 ff ff aa 	movl   $0x69a0caa,-0x2754(%rbp)
    9b1b:	0c 9a 06 
    9b1e:	48 8d 85 e0 f7 ff ff 	lea    -0x820(%rbp),%rax
    9b25:	48 8d 15 f4 54 00 00 	lea    0x54f4(%rip),%rdx        # f020 <g_1282+0xfc0>
    9b2c:	b9 6c 00 00 00       	mov    $0x6c,%ecx
    9b31:	48 89 c7             	mov    %rax,%rdi
    9b34:	48 89 d6             	mov    %rdx,%rsi
    9b37:	f3 48 a5             	rep movsq %ds:(%rsi),%es:(%rdi)
    9b3a:	48 8b 15 df b6 00 00 	mov    0xb6df(%rip),%rdx        # 15220 <g_1242>
    9b41:	48 8b 85 c0 d9 ff ff 	mov    -0x2640(%rbp),%rax
    9b48:	48 89 10             	mov    %rdx,(%rax)
    9b4b:	48 8b 85 c0 d9 ff ff 	mov    -0x2640(%rbp),%rax
    9b52:	48 8b 00             	mov    (%rax),%rax
    9b55:	48 89 85 b8 d9 ff ff 	mov    %rax,-0x2648(%rbp)
    9b5c:	48 8b 85 c8 d9 ff ff 	mov    -0x2638(%rbp),%rax
    9b63:	48 8b 95 b8 d9 ff ff 	mov    -0x2648(%rbp),%rdx
    9b6a:	48 89 10             	mov    %rdx,(%rax)
    9b6d:	0f b7 85 ee d9 ff ff 	movzwl -0x2612(%rbp),%eax
    9b74:	83 c0 01             	add    $0x1,%eax
    9b77:	66 89 85 ee d9 ff ff 	mov    %ax,-0x2612(%rbp)
    9b7e:	8b 85 98 d8 ff ff    	mov    -0x2768(%rbp),%eax
    9b84:	31 85 ec d7 ff ff    	xor    %eax,-0x2814(%rbp)
    9b8a:	48 83 bd 70 d7 ff ff 	cmpq   $0x0,-0x2890(%rbp)
    9b91:	00 
    9b92:	0f 85 e2 06 00 00    	jne    a27a <func_8+0x33a9>
    9b98:	66 83 bd ac d7 ff ff 	cmpw   $0x0,-0x2854(%rbp)
    9b9f:	00 
    9ba0:	0f 84 51 02 00 00    	je     9df7 <func_8+0x2f26>
    9ba6:	48 8d 05 a7 44 00 00 	lea    0x44a7(%rip),%rax        # e054 <g_1238>
    9bad:	48 89 85 00 d9 ff ff 	mov    %rax,-0x2700(%rbp)
    9bb4:	c7 85 b4 d8 ff ff da 	movl   $0x290a8cda,-0x274c(%rbp)
    9bbb:	8c 0a 29 
    9bbe:	c7 85 b8 d8 ff ff ff 	movl   $0xffffffff,-0x2748(%rbp)
    9bc5:	ff ff ff 
    9bc8:	c7 85 f0 d7 ff ff 00 	movl   $0x0,-0x2810(%rbp)
    9bcf:	00 00 00 
    9bd2:	eb 1e                	jmp    9bf2 <func_8+0x2d21>
    9bd4:	8b 85 f0 d7 ff ff    	mov    -0x2810(%rbp),%eax
    9bda:	48 98                	cltq   
    9bdc:	48 8d 95 00 d9 ff ff 	lea    -0x2700(%rbp),%rdx
    9be3:	48 89 94 c5 00 f0 ff 	mov    %rdx,-0x1000(%rbp,%rax,8)
    9bea:	ff 
    9beb:	83 85 f0 d7 ff ff 01 	addl   $0x1,-0x2810(%rbp)
    9bf2:	83 bd f0 d7 ff ff 03 	cmpl   $0x3,-0x2810(%rbp)
    9bf9:	7e d9                	jle    9bd4 <func_8+0x2d03>
    9bfb:	8b 85 ec da ff ff    	mov    -0x2514(%rbp),%eax
    9c01:	89 c2                	mov    %eax,%edx
    9c03:	48 8b 85 70 d7 ff ff 	mov    -0x2890(%rbp),%rax
    9c0a:	98                   	cwtl   
    9c0b:	89 d6                	mov    %edx,%esi
    9c0d:	89 c7                	mov    %eax,%edi
    9c0f:	e8 16 b9 ff ff       	callq  552a <safe_rshift_func_int16_t_s_s>
    9c14:	48 0f bf c0          	movswq %ax,%rax
    9c18:	48 0b 85 68 d7 ff ff 	or     -0x2898(%rbp),%rax
    9c1f:	48 85 c0             	test   %rax,%rax
    9c22:	41 0f 95 c6          	setne  %r14b
    9c26:	48 8b 85 e8 d8 ff ff 	mov    -0x2718(%rbp),%rax
    9c2d:	0f b7 10             	movzwl (%rax),%edx
    9c30:	83 c2 01             	add    $0x1,%edx
    9c33:	66 89 10             	mov    %dx,(%rax)
    9c36:	44 0f b7 28          	movzwl (%rax),%r13d
    9c3a:	0f bf 9d 84 d7 ff ff 	movswl -0x287c(%rbp),%ebx
    9c41:	8b 85 88 d8 ff ff    	mov    -0x2778(%rbp),%eax
    9c47:	4c 63 e0             	movslq %eax,%r12
    9c4a:	0f b7 95 ba d7 ff ff 	movzwl -0x2846(%rbp),%edx
    9c51:	0f b7 85 84 d7 ff ff 	movzwl -0x287c(%rbp),%eax
    9c58:	0f b6 c0             	movzbl %al,%eax
    9c5b:	89 d6                	mov    %edx,%esi
    9c5d:	89 c7                	mov    %eax,%edi
    9c5f:	e8 a1 bf ff ff       	callq  5c05 <safe_lshift_func_uint8_t_u_s>
    9c64:	0f b6 c0             	movzbl %al,%eax
    9c67:	4c 89 e6             	mov    %r12,%rsi
    9c6a:	48 89 c7             	mov    %rax,%rdi
    9c6d:	e8 3d c4 ff ff       	callq  60af <safe_div_func_uint64_t_u_u>
    9c72:	48 8b 15 4f b5 00 00 	mov    0xb54f(%rip),%rdx        # 151c8 <g_599>
    9c79:	8b 12                	mov    (%rdx),%edx
    9c7b:	48 63 d2             	movslq %edx,%rdx
    9c7e:	48 39 d0             	cmp    %rdx,%rax
    9c81:	0f 96 c0             	setbe  %al
    9c84:	0f b6 c0             	movzbl %al,%eax
    9c87:	be 9a c5 00 00       	mov    $0xc59a,%esi
    9c8c:	89 c7                	mov    %eax,%edi
    9c8e:	e8 6c c0 ff ff       	callq  5cff <safe_add_func_uint16_t_u_u>
    9c93:	98                   	cwtl   
    9c94:	89 de                	mov    %ebx,%esi
    9c96:	89 c7                	mov    %eax,%edi
    9c98:	e8 79 b7 ff ff       	callq  5416 <safe_mod_func_int16_t_s_s>
    9c9d:	0f b7 d0             	movzwl %ax,%edx
    9ca0:	48 8b 85 68 d7 ff ff 	mov    -0x2898(%rbp),%rax
    9ca7:	0f b7 c0             	movzwl %ax,%eax
    9caa:	89 d6                	mov    %edx,%esi
    9cac:	89 c7                	mov    %eax,%edi
    9cae:	e8 4c c0 ff ff       	callq  5cff <safe_add_func_uint16_t_u_u>
    9cb3:	66 41 39 c5          	cmp    %ax,%r13w
    9cb7:	0f 95 c0             	setne  %al
    9cba:	0f b6 c0             	movzbl %al,%eax
    9cbd:	48 39 85 68 d7 ff ff 	cmp    %rax,-0x2898(%rbp)
    9cc4:	0f 9d c0             	setge  %al
    9cc7:	0f b6 c0             	movzbl %al,%eax
    9cca:	48 39 85 70 d7 ff ff 	cmp    %rax,-0x2890(%rbp)
    9cd1:	0f 95 c0             	setne  %al
    9cd4:	88 05 fe b4 00 00    	mov    %al,0xb4fe(%rip)        # 151d8 <g_622>
    9cda:	0f b6 05 f7 b4 00 00 	movzbl 0xb4f7(%rip),%eax        # 151d8 <g_622>
    9ce1:	0f b6 c0             	movzbl %al,%eax
    9ce4:	8b 95 98 d8 ff ff    	mov    -0x2768(%rbp),%edx
    9cea:	89 d6                	mov    %edx,%esi
    9cec:	89 c7                	mov    %eax,%edi
    9cee:	e8 9a bf ff ff       	callq  5c8d <safe_rshift_func_uint8_t_u_s>
    9cf3:	48 8b 85 68 d7 ff ff 	mov    -0x2898(%rbp),%rax
    9cfa:	89 c2                	mov    %eax,%edx
    9cfc:	8b 85 88 d8 ff ff    	mov    -0x2778(%rbp),%eax
    9d02:	98                   	cwtl   
    9d03:	89 d6                	mov    %edx,%esi
    9d05:	89 c7                	mov    %eax,%edi
    9d07:	e8 86 b7 ff ff       	callq  5492 <safe_lshift_func_int16_t_s_s>
    9d0c:	0f be c0             	movsbl %al,%eax
    9d0f:	be 02 00 00 00       	mov    $0x2,%esi
    9d14:	89 c7                	mov    %eax,%edi
    9d16:	e8 1a b6 ff ff       	callq  5335 <safe_rshift_func_int8_t_s_s>
    9d1b:	0f b6 d0             	movzbl %al,%edx
    9d1e:	48 8b 05 33 ab 00 00 	mov    0xab33(%rip),%rax        # 14858 <g_308>
    9d25:	0f b6 00             	movzbl (%rax),%eax
    9d28:	0f b6 c0             	movzbl %al,%eax
    9d2b:	89 d6                	mov    %edx,%esi
    9d2d:	89 c7                	mov    %eax,%edi
    9d2f:	e8 7a be ff ff       	callq  5bae <safe_mod_func_uint8_t_u_u>
    9d34:	0f b6 d0             	movzbl %al,%edx
    9d37:	0f bf 85 bc d7 ff ff 	movswl -0x2844(%rbp),%eax
    9d3e:	39 c2                	cmp    %eax,%edx
    9d40:	0f 9c c0             	setl   %al
    9d43:	44 09 f0             	or     %r14d,%eax
    9d46:	0f b6 d0             	movzbl %al,%edx
    9d49:	48 8b 85 88 d7 ff ff 	mov    -0x2878(%rbp),%rax
    9d50:	8b 00                	mov    (%rax),%eax
    9d52:	39 c2                	cmp    %eax,%edx
    9d54:	0f 9f c2             	setg   %dl
    9d57:	48 8b 05 b2 ad 00 00 	mov    0xadb2(%rip),%rax        # 14b10 <g_624>
    9d5e:	0f b6 d2             	movzbl %dl,%edx
    9d61:	89 10                	mov    %edx,(%rax)
    9d63:	83 bd 94 d8 ff ff 00 	cmpl   $0x0,-0x276c(%rbp)
    9d6a:	0f 85 ce 00 00 00    	jne    9e3e <func_8+0x2f6d>
    9d70:	48 83 bd d0 d9 ff ff 	cmpq   $0x0,-0x2630(%rbp)
    9d77:	00 
    9d78:	48 83 bd 08 d9 ff ff 	cmpq   $0x0,-0x26f8(%rbp)
    9d7f:	00 
    9d80:	48 8b 85 58 d9 ff ff 	mov    -0x26a8(%rbp),%rax
    9d87:	48 8b 00             	mov    (%rax),%rax
    9d8a:	48 89 05 c7 af 00 00 	mov    %rax,0xafc7(%rip)        # 14d58 <g_1281>
    9d91:	48 8b 05 c0 af 00 00 	mov    0xafc0(%rip),%rax        # 14d58 <g_1281>
    9d98:	48 39 85 d8 d9 ff ff 	cmp    %rax,-0x2628(%rbp)
    9d9f:	75 0f                	jne    9db0 <func_8+0x2edf>
    9da1:	48 8b 05 b0 aa 00 00 	mov    0xaab0(%rip),%rax        # 14858 <g_308>
    9da8:	8b 95 88 d8 ff ff    	mov    -0x2778(%rbp),%edx
    9dae:	88 10                	mov    %dl,(%rax)
    9db0:	b8 01 00 00 00       	mov    $0x1,%eax
    9db5:	66 89 85 b0 d7 ff ff 	mov    %ax,-0x2850(%rbp)
    9dbc:	0f b7 85 b0 d7 ff ff 	movzwl -0x2850(%rbp),%eax
    9dc3:	98                   	cwtl   
    9dc4:	21 85 94 d8 ff ff    	and    %eax,-0x276c(%rbp)
    9dca:	8b 85 50 dc ff ff    	mov    -0x23b0(%rbp),%eax
    9dd0:	83 c0 01             	add    $0x1,%eax
    9dd3:	89 85 50 dc ff ff    	mov    %eax,-0x23b0(%rbp)
    9dd9:	48 8b 05 f0 93 00 00 	mov    0x93f0(%rip),%rax        # 131d0 <g_411>
    9de0:	be 04 00 00 00       	mov    $0x4,%esi
    9de5:	89 c7                	mov    %eax,%edi
    9de7:	e8 e4 c0 ff ff       	callq  5ed0 <safe_sub_func_uint32_t_u_u>
    9dec:	89 c0                	mov    %eax,%eax
    9dee:	48 89 05 db 93 00 00 	mov    %rax,0x93db(%rip)        # 131d0 <g_411>
    9df5:	eb 34                	jmp    9e2b <func_8+0x2f5a>
    9df7:	c7 85 b0 d8 ff ff 07 	movl   $0x7,-0x2750(%rbp)
    9dfe:	00 00 00 
    9e01:	c6 85 a9 d7 ff ff f8 	movb   $0xf8,-0x2857(%rbp)
    9e08:	48 8b 05 e9 ac 00 00 	mov    0xace9(%rip),%rax        # 14af8 <g_598>
    9e0f:	48 8b 00             	mov    (%rax),%rax
    9e12:	8b 00                	mov    (%rax),%eax
    9e14:	85 c0                	test   %eax,%eax
    9e16:	75 29                	jne    9e41 <func_8+0x2f70>
    9e18:	80 ad a9 d7 ff ff 01 	subb   $0x1,-0x2857(%rbp)
    9e1f:	0f b6 85 a9 d7 ff ff 	movzbl -0x2857(%rbp),%eax
    9e26:	e9 77 04 00 00       	jmpq   a2a2 <func_8+0x33d1>
    9e2b:	48 8b 05 9e 93 00 00 	mov    0x939e(%rip),%rax        # 131d0 <g_411>
    9e32:	48 83 f8 eb          	cmp    $0xffffffffffffffeb,%rax
    9e36:	0f 85 44 fc ff ff    	jne    9a80 <func_8+0x2baf>
    9e3c:	eb 04                	jmp    9e42 <func_8+0x2f71>
    9e3e:	90                   	nop
    9e3f:	eb 01                	jmp    9e42 <func_8+0x2f71>
    9e41:	90                   	nop
    9e42:	8b 85 04 d8 ff ff    	mov    -0x27fc(%rbp),%eax
    9e48:	e9 55 04 00 00       	jmpq   a2a2 <func_8+0x33d1>
    9e4d:	8b 05 6d 93 00 00    	mov    0x936d(%rip),%eax        # 131c0 <g_151>
    9e53:	83 c0 01             	add    $0x1,%eax
    9e56:	89 05 64 93 00 00    	mov    %eax,0x9364(%rip)        # 131c0 <g_151>
    9e5c:	8b 05 5e 93 00 00    	mov    0x935e(%rip),%eax        # 131c0 <g_151>
    9e62:	83 f8 09             	cmp    $0x9,%eax
    9e65:	0f 86 3e d5 ff ff    	jbe    73a9 <func_8+0x4d8>
    9e6b:	48 c7 85 68 d7 ff ff 	movq   $0xffffffffffffffff,-0x2898(%rbp)
    9e72:	ff ff ff ff 
    9e76:	e9 c1 03 00 00       	jmpq   a23c <func_8+0x336b>
    9e7b:	c6 85 a3 d7 ff ff 15 	movb   $0x15,-0x285d(%rbp)
    9e82:	48 8d 05 67 ac 00 00 	lea    0xac67(%rip),%rax        # 14af0 <g_581>
    9e89:	48 89 85 f8 d8 ff ff 	mov    %rax,-0x2708(%rbp)
    9e90:	48 8d 85 f8 d8 ff ff 	lea    -0x2708(%rbp),%rax
    9e97:	48 89 85 00 d9 ff ff 	mov    %rax,-0x2700(%rbp)
    9e9e:	48 8d 85 00 d9 ff ff 	lea    -0x2700(%rbp),%rax
    9ea5:	48 89 85 40 d9 ff ff 	mov    %rax,-0x26c0(%rbp)
    9eac:	c7 85 0c d8 ff ff 01 	movl   $0x1,-0x27f4(%rbp)
    9eb3:	00 00 00 
    9eb6:	c7 85 10 d8 ff ff 01 	movl   $0x1,-0x27f0(%rbp)
    9ebd:	00 00 00 
    9ec0:	0f b6 85 a3 d7 ff ff 	movzbl -0x285d(%rbp),%eax
    9ec7:	0f b6 c0             	movzbl %al,%eax
    9eca:	be 03 00 00 00       	mov    $0x3,%esi
    9ecf:	89 c7                	mov    %eax,%edi
    9ed1:	e8 76 bd ff ff       	callq  5c4c <safe_lshift_func_uint8_t_u_u>
    9ed6:	0f b6 85 a3 d7 ff ff 	movzbl -0x285d(%rbp),%eax
    9edd:	c0 e8 07             	shr    $0x7,%al
    9ee0:	0f b6 d0             	movzbl %al,%edx
    9ee3:	0f be 85 a3 d7 ff ff 	movsbl -0x285d(%rbp),%eax
    9eea:	39 c2                	cmp    %eax,%edx
    9eec:	0f 8d 25 01 00 00    	jge    a017 <func_8+0x3146>
    9ef2:	8b 05 3c 91 00 00    	mov    0x913c(%rip),%eax        # 13034 <g_6>
    9ef8:	0f be d8             	movsbl %al,%ebx
    9efb:	44 0f bf a5 84 d7 ff 	movswl -0x287c(%rbp),%r12d
    9f02:	ff 
    9f03:	4c 8b ad 68 d7 ff ff 	mov    -0x2898(%rbp),%r13
    9f0a:	0f bf 85 84 d7 ff ff 	movswl -0x287c(%rbp),%eax
    9f11:	89 85 64 d7 ff ff    	mov    %eax,-0x289c(%rbp)
    9f17:	4c 0f be b5 a3 d7 ff 	movsbq -0x285d(%rbp),%r14
    9f1e:	ff 
    9f1f:	44 0f be bd a3 d7 ff 	movsbl -0x285d(%rbp),%r15d
    9f26:	ff 
    9f27:	48 8b 05 7a a8 00 00 	mov    0xa87a(%rip),%rax        # 147a8 <g_213>
    9f2e:	48 8b 00             	mov    (%rax),%rax
    9f31:	48 8b 00             	mov    (%rax),%rax
    9f34:	48 89 c2             	mov    %rax,%rdx
    9f37:	48 0f bf 85 84 d7 ff 	movswq -0x287c(%rbp),%rax
    9f3e:	ff 
    9f3f:	48 89 d6             	mov    %rdx,%rsi
    9f42:	48 89 c7             	mov    %rax,%rdi
    9f45:	e8 f7 b8 ff ff       	callq  5841 <safe_add_func_int64_t_s_s>
    9f4a:	44 89 fe             	mov    %r15d,%esi
    9f4d:	89 c7                	mov    %eax,%edi
    9f4f:	e8 ab b7 ff ff       	callq  56ff <safe_div_func_int32_t_s_s>
    9f54:	48 98                	cltq   
    9f56:	4c 89 f6             	mov    %r14,%rsi
    9f59:	48 89 c7             	mov    %rax,%rdi
    9f5c:	e8 4e c1 ff ff       	callq  60af <safe_div_func_uint64_t_u_u>
    9f61:	48 89 c2             	mov    %rax,%rdx
    9f64:	48 8b 05 ed a8 00 00 	mov    0xa8ed(%rip),%rax        # 14858 <g_308>
    9f6b:	88 10                	mov    %dl,(%rax)
    9f6d:	0f b6 00             	movzbl (%rax),%eax
    9f70:	0f b6 c0             	movzbl %al,%eax
    9f73:	be 8e 00 00 00       	mov    $0x8e,%esi
    9f78:	89 c7                	mov    %eax,%edi
    9f7a:	e8 db bb ff ff       	callq  5b5a <safe_add_func_uint8_t_u_u>
    9f7f:	48 8b 85 68 d7 ff ff 	mov    -0x2898(%rbp),%rax
    9f86:	48 3d fe ff 00 00    	cmp    $0xfffe,%rax
    9f8c:	0f 96 c0             	setbe  %al
    9f8f:	0f b6 c0             	movzbl %al,%eax
    9f92:	48 8b 95 70 d7 ff ff 	mov    -0x2890(%rbp),%rdx
    9f99:	09 d0                	or     %edx,%eax
    9f9b:	0f b7 c0             	movzwl %ax,%eax
    9f9e:	be 07 00 00 00       	mov    $0x7,%esi
    9fa3:	89 c7                	mov    %eax,%edi
    9fa5:	e8 75 bd ff ff       	callq  5d1f <safe_sub_func_uint16_t_u_u>
    9faa:	66 85 c0             	test   %ax,%ax
    9fad:	74 19                	je     9fc8 <func_8+0x30f7>
    9faf:	48 8b 05 f2 a7 00 00 	mov    0xa7f2(%rip),%rax        # 147a8 <g_213>
    9fb6:	48 8b 00             	mov    (%rax),%rax
    9fb9:	48 8b 00             	mov    (%rax),%rax
    9fbc:	48 85 c0             	test   %rax,%rax
    9fbf:	74 07                	je     9fc8 <func_8+0x30f7>
    9fc1:	b8 01 00 00 00       	mov    $0x1,%eax
    9fc6:	eb 05                	jmp    9fcd <func_8+0x30fc>
    9fc8:	b8 00 00 00 00       	mov    $0x0,%eax
    9fcd:	3b 85 64 d7 ff ff    	cmp    -0x289c(%rbp),%eax
    9fd3:	0f 95 c0             	setne  %al
    9fd6:	89 c2                	mov    %eax,%edx
    9fd8:	48 8b 85 70 d7 ff ff 	mov    -0x2890(%rbp),%rax
    9fdf:	09 d0                	or     %edx,%eax
    9fe1:	0f b6 c0             	movzbl %al,%eax
    9fe4:	be 03 00 00 00       	mov    $0x3,%esi
    9fe9:	89 c7                	mov    %eax,%edi
    9feb:	e8 15 bc ff ff       	callq  5c05 <safe_lshift_func_uint8_t_u_s>
    9ff0:	0f b6 c0             	movzbl %al,%eax
    9ff3:	4c 89 ee             	mov    %r13,%rsi
    9ff6:	48 89 c7             	mov    %rax,%rdi
    9ff9:	e8 b1 c0 ff ff       	callq  60af <safe_div_func_uint64_t_u_u>
    9ffe:	98                   	cwtl   
    9fff:	44 89 e6             	mov    %r12d,%esi
    a002:	89 c7                	mov    %eax,%edi
    a004:	e8 21 b5 ff ff       	callq  552a <safe_rshift_func_int16_t_s_s>
    a009:	0f be c0             	movsbl %al,%eax
    a00c:	89 de                	mov    %ebx,%esi
    a00e:	89 c7                	mov    %eax,%edi
    a010:	e8 bf b1 ff ff       	callq  51d4 <safe_add_func_int8_t_s_s>
    a015:	84 c0                	test   %al,%al
    a017:	48 8b 85 40 d9 ff ff 	mov    -0x26c0(%rbp),%rax
    a01e:	48 c7 00 00 00 00 00 	movq   $0x0,(%rax)
    a025:	c7 85 c8 d7 ff ff 15 	movl   $0x15,-0x2838(%rbp)
    a02c:	00 00 00 
    a02f:	e9 f3 01 00 00       	jmpq   a227 <func_8+0x3356>
    a034:	48 b8 84 00 ff 91 02 	movabs $0xfe4f860291ff0084,%rax
    a03b:	86 4f fe 
    a03e:	48 89 85 e0 f7 ff ff 	mov    %rax,-0x820(%rbp)
    a045:	48 b8 09 f9 09 ff 01 	movabs $0xfbff01ff09f909,%rax
    a04c:	ff fb 00 
    a04f:	48 89 85 e8 f7 ff ff 	mov    %rax,-0x818(%rbp)
    a056:	48 b8 04 01 08 09 ae 	movabs $0x4faeae09080104,%rax
    a05d:	ae 4f 00 
    a060:	48 89 85 f0 f7 ff ff 	mov    %rax,-0x810(%rbp)
    a067:	48 b8 ff ff 01 be ff 	movabs $0x48600ffbe01ffff,%rax
    a06e:	00 86 04 
    a071:	48 89 85 f8 f7 ff ff 	mov    %rax,-0x808(%rbp)
    a078:	48 b8 86 f9 02 01 fb 	movabs $0x446fefb0102f986,%rax
    a07f:	fe 46 04 
    a082:	48 89 85 00 f8 ff ff 	mov    %rax,-0x800(%rbp)
    a089:	48 b8 f9 09 81 be 08 	movabs $0xffff08be8109f9,%rax
    a090:	ff ff 00 
    a093:	48 89 85 08 f8 ff ff 	mov    %rax,-0x7f8(%rbp)
    a09a:	48 b8 09 02 fb 4f 02 	movabs $0x1c9ff024ffb0209,%rax
    a0a1:	ff c9 01 
    a0a4:	48 89 85 10 f8 ff ff 	mov    %rax,-0x7f0(%rbp)
    a0ab:	48 b8 fb 00 09 fe 04 	movabs $0x46f94604fe0900fb,%rax
    a0b2:	46 f9 46 
    a0b5:	48 89 85 18 f8 ff ff 	mov    %rax,-0x7e8(%rbp)
    a0bc:	48 b8 4f 98 ff 98 4f 	movabs $0xff08914f98ff984f,%rax
    a0c3:	91 08 ff 
    a0c6:	48 89 85 20 f8 ff ff 	mov    %rax,-0x7e0(%rbp)
    a0cd:	48 b8 46 00 01 ff 09 	movabs $0x98460909ff010046,%rax
    a0d4:	09 46 98 
    a0d7:	48 89 85 28 f8 ff ff 	mov    %rax,-0x7d8(%rbp)
    a0de:	48 b8 be 01 01 ec 00 	movabs $0x80200ec0101be,%rax
    a0e5:	02 08 00 
    a0e8:	48 89 85 30 f8 ff ff 	mov    %rax,-0x7d0(%rbp)
    a0ef:	48 b8 09 e9 ff ff 91 	movabs $0x8f9ca91ffffe909,%rax
    a0f6:	ca f9 08 
    a0f9:	48 89 85 38 f8 ff ff 	mov    %rax,-0x7c8(%rbp)
    a100:	48 b8 ff ff 09 84 cc 	movabs $0x9c986cc8409ffff,%rax
    a107:	86 c9 09 
    a10a:	48 89 85 40 f8 ff ff 	mov    %rax,-0x7c0(%rbp)
    a111:	48 b8 ff ff fb 81 81 	movabs $0xfffffb8181fbffff,%rax
    a118:	fb ff ff 
    a11b:	48 89 85 48 f8 ff ff 	mov    %rax,-0x7b8(%rbp)
    a122:	48 b8 ff 01 81 ff ff 	movabs $0xcc4600ffff8101ff,%rax
    a129:	00 46 cc 
    a12c:	48 89 85 50 f8 ff ff 	mov    %rax,-0x7b0(%rbp)
    a133:	48 b8 c9 cc 02 01 ff 	movabs $0xff8600ff0102ccc9,%rax
    a13a:	00 86 ff 
    a13d:	48 89 85 58 f8 ff ff 	mov    %rax,-0x7a8(%rbp)
    a144:	48 b8 ca 01 01 09 02 	movabs $0x24ffb02090101ca,%rax
    a14b:	fb 4f 02 
    a14e:	48 89 85 60 f8 ff ff 	mov    %rax,-0x7a0(%rbp)
    a155:	48 b8 ff ff 00 ca 46 	movabs $0x1ff8646ca00ffff,%rax
    a15c:	86 ff 01 
    a15f:	48 89 85 68 f8 ff ff 	mov    %rax,-0x798(%rbp)
    a166:	48 b8 e9 ff 4f 09 ec 	movabs $0x9eccaec094fffe9,%rax
    a16d:	ca ec 09 
    a170:	48 89 85 70 f8 ff ff 	mov    %rax,-0x790(%rbp)
    a177:	48 b8 ff e9 ff cc ff 	movabs $0x1ae02ffccffe9ff,%rax
    a17e:	02 ae 01 
    a181:	48 89 85 78 f8 ff ff 	mov    %rax,-0x788(%rbp)
    a188:	48 b8 ff 01 08 46 ff 	movabs $0x1ff09ff460801ff,%rax
    a18f:	09 ff 01 
    a192:	48 89 85 80 f8 ff ff 	mov    %rax,-0x780(%rbp)
    a199:	48 b8 ff 00 84 00 ff 	movabs $0x860291ff008400ff,%rax
    a1a0:	91 02 86 
    a1a3:	48 89 85 88 f8 ff ff 	mov    %rax,-0x778(%rbp)
    a1aa:	48 b8 ff 98 f9 46 ec 	movabs $0x918146ec46f998ff,%rax
    a1b1:	46 81 91 
    a1b4:	48 89 85 90 f8 ff ff 	mov    %rax,-0x770(%rbp)
    a1bb:	48 b8 e9 00 00 01 46 	movabs $0xffffff46010000e9,%rax
    a1c2:	ff ff ff 
    a1c5:	48 89 85 98 f8 ff ff 	mov    %rax,-0x768(%rbp)
    a1cc:	48 b8 ff 02 02 02 02 	movabs $0xff00ff02020202ff,%rax
    a1d3:	ff 00 ff 
    a1d6:	48 89 85 a0 f8 ff ff 	mov    %rax,-0x760(%rbp)
    a1dd:	48 b8 ca 09 01 01 ff 	movabs $0x101feff010109ca,%rax
    a1e4:	fe 01 01 
    a1e7:	48 89 85 a8 f8 ff ff 	mov    %rax,-0x758(%rbp)
    a1ee:	48 b8 c9 f9 ff 01 ff 	movabs $0x1ffff01fff9c9,%rax
    a1f5:	ff 01 00 
    a1f8:	48 89 85 b0 f8 ff ff 	mov    %rax,-0x750(%rbp)
    a1ff:	48 b8 00 ff ae f9 91 	movabs $0x1ccbe91f9aeff00,%rax
    a206:	be cc 01 
    a209:	48 89 85 b8 f8 ff ff 	mov    %rax,-0x748(%rbp)
    a210:	0f b6 85 a6 f8 ff ff 	movzbl -0x75a(%rbp),%eax
    a217:	83 c0 01             	add    $0x1,%eax
    a21a:	88 85 a6 f8 ff ff    	mov    %al,-0x75a(%rbp)
    a220:	83 ad c8 d7 ff ff 01 	subl   $0x1,-0x2838(%rbp)
    a227:	83 bd c8 d7 ff ff 0a 	cmpl   $0xa,-0x2838(%rbp)
    a22e:	0f 8e 00 fe ff ff    	jle    a034 <func_8+0x3163>
    a234:	48 83 ad 68 d7 ff ff 	subq   $0x1,-0x2898(%rbp)
    a23b:	01 
    a23c:	48 83 bd 68 d7 ff ff 	cmpq   $0xffffffffffffffe7,-0x2898(%rbp)
    a243:	e7 
    a244:	0f 8d 31 fc ff ff    	jge    9e7b <func_8+0x2faa>
    a24a:	0f b6 05 6f af 00 00 	movzbl 0xaf6f(%rip),%eax        # 151c0 <g_313>
    a251:	83 e8 01             	sub    $0x1,%eax
    a254:	88 05 66 af 00 00    	mov    %al,0xaf66(%rip)        # 151c0 <g_313>
    a25a:	0f b6 05 5f af 00 00 	movzbl 0xaf5f(%rip),%eax        # 151c0 <g_313>
    a261:	84 c0                	test   %al,%al
    a263:	0f 89 e8 ce ff ff    	jns    7151 <func_8+0x280>
    a269:	48 8b 05 88 a8 00 00 	mov    0xa888(%rip),%rax        # 14af8 <g_598>
    a270:	48 8b 95 88 d7 ff ff 	mov    -0x2878(%rbp),%rdx
    a277:	48 89 10             	mov    %rdx,(%rax)
    a27a:	48 8b 85 20 d9 ff ff 	mov    -0x26e0(%rbp),%rax
    a281:	c7 00 2c ce c5 b1    	movl   $0xb1c5ce2c,(%rax)
    a287:	48 8b 85 28 d9 ff ff 	mov    -0x26d8(%rbp),%rax
    a28e:	89 c2                	mov    %eax,%edx
    a290:	48 8b 85 20 d9 ff ff 	mov    -0x26e0(%rbp),%rax
    a297:	89 10                	mov    %edx,(%rax)
    a299:	48 8b 85 88 d7 ff ff 	mov    -0x2878(%rbp),%rax
    a2a0:	8b 00                	mov    (%rax),%eax
    a2a2:	48 8b 5d c8          	mov    -0x38(%rbp),%rbx
    a2a6:	64 48 33 1c 25 28 00 	xor    %fs:0x28,%rbx
    a2ad:	00 00 
    a2af:	74 05                	je     a2b6 <func_8+0x33e5>
    a2b1:	e8 ba ad ff ff       	callq  5070 <__stack_chk_fail@plt>
    a2b6:	48 81 c4 78 28 00 00 	add    $0x2878,%rsp
    a2bd:	5b                   	pop    %rbx
    a2be:	41 5c                	pop    %r12
    a2c0:	41 5d                	pop    %r13
    a2c2:	41 5e                	pop    %r14
    a2c4:	41 5f                	pop    %r15
    a2c6:	5d                   	pop    %rbp
    a2c7:	c3                   	retq   

000000000000a2c8 <func_15>:
    a2c8:	f3 0f 1e fa          	endbr64 
    a2cc:	55                   	push   %rbp
    a2cd:	48 89 e5             	mov    %rsp,%rbp
    a2d0:	41 57                	push   %r15
    a2d2:	41 56                	push   %r14
    a2d4:	41 55                	push   %r13
    a2d6:	41 54                	push   %r12
    a2d8:	53                   	push   %rbx
    a2d9:	48 81 ec 00 10 00 00 	sub    $0x1000,%rsp
    a2e0:	48 83 0c 24 00       	orq    $0x0,(%rsp)
    a2e5:	48 81 ec 48 04 00 00 	sub    $0x448,%rsp
    a2ec:	89 bd ac eb ff ff    	mov    %edi,-0x1454(%rbp)
    a2f2:	48 89 b5 a0 eb ff ff 	mov    %rsi,-0x1460(%rbp)
    a2f9:	48 89 95 98 eb ff ff 	mov    %rdx,-0x1468(%rbp)
    a300:	89 c8                	mov    %ecx,%eax
    a302:	88 85 a8 eb ff ff    	mov    %al,-0x1458(%rbp)
    a308:	64 48 8b 04 25 28 00 	mov    %fs:0x28,%rax
    a30f:	00 00 
    a311:	48 89 45 c8          	mov    %rax,-0x38(%rbp)
    a315:	31 c0                	xor    %eax,%eax
    a317:	c7 85 38 ec ff ff 5e 	movl   $0xc3bf1e5e,-0x13c8(%rbp)
    a31e:	1e bf c3 
    a321:	48 8d 05 80 8e 00 00 	lea    0x8e80(%rip),%rax        # 131a8 <g_115>
    a328:	48 89 85 c8 ed ff ff 	mov    %rax,-0x1238(%rbp)
    a32f:	c7 85 c8 eb ff ff ff 	movl   $0xffffffff,-0x1438(%rbp)
    a336:	ff ff ff 
    a339:	66 c7 85 c0 eb ff ff 	movw   $0x4846,-0x1440(%rbp)
    a340:	46 48 
    a342:	c7 85 cc eb ff ff 4d 	movl   $0x88e9c54d,-0x1434(%rbp)
    a349:	c5 e9 88 
    a34c:	48 8d 05 6d 8e 00 00 	lea    0x8e6d(%rip),%rax        # 131c0 <g_151>
    a353:	48 89 85 40 ec ff ff 	mov    %rax,-0x13c0(%rbp)
    a35a:	48 8d 85 b0 ef ff ff 	lea    -0x1050(%rbp),%rax
    a361:	48 8d 15 78 96 00 00 	lea    0x9678(%rip),%rdx        # 139e0 <g_1486+0x7e8>
    a368:	b9 28 00 00 00       	mov    $0x28,%ecx
    a36d:	48 89 c7             	mov    %rax,%rdi
    a370:	48 89 d6             	mov    %rdx,%rsi
    a373:	f3 48 a5             	rep movsq %ds:(%rsi),%es:(%rdi)
    a376:	66 c7 85 c6 eb ff ff 	movw   $0xffff,-0x143a(%rbp)
    a37d:	ff ff 
    a37f:	48 8d 85 b0 ee ff ff 	lea    -0x1150(%rbp),%rax
    a386:	48 8d 15 f3 4f 00 00 	lea    0x4ff3(%rip),%rdx        # f380 <g_1282+0x1320>
    a38d:	b9 1f 00 00 00       	mov    $0x1f,%ecx
    a392:	48 89 c7             	mov    %rax,%rdi
    a395:	48 89 d6             	mov    %rdx,%rsi
    a398:	f3 48 a5             	rep movsq %ds:(%rsi),%es:(%rdi)
    a39b:	48 89 f2             	mov    %rsi,%rdx
    a39e:	48 89 f8             	mov    %rdi,%rax
    a3a1:	8b 0a                	mov    (%rdx),%ecx
    a3a3:	89 08                	mov    %ecx,(%rax)
    a3a5:	c6 85 bf eb ff ff 60 	movb   $0x60,-0x1441(%rbp)
    a3ac:	48 8d 05 13 8e 00 00 	lea    0x8e13(%rip),%rax        # 131c6 <g_200>
    a3b3:	48 89 85 48 ec ff ff 	mov    %rax,-0x13b8(%rbp)
    a3ba:	48 8d 85 48 ec ff ff 	lea    -0x13b8(%rbp),%rax
    a3c1:	48 89 85 b0 ed ff ff 	mov    %rax,-0x1250(%rbp)
    a3c8:	48 8d 05 d9 ad 00 00 	lea    0xadd9(%rip),%rax        # 151a8 <g_118>
    a3cf:	48 89 85 50 ec ff ff 	mov    %rax,-0x13b0(%rbp)
    a3d6:	48 c7 85 58 ec ff ff 	movq   $0x0,-0x13a8(%rbp)
    a3dd:	00 00 00 00 
    a3e1:	48 b8 f4 0e 16 bd b7 	movabs $0x66cf4eb7bd160ef4,%rax
    a3e8:	4e cf 66 
    a3eb:	48 89 85 b8 ed ff ff 	mov    %rax,-0x1248(%rbp)
    a3f2:	48 b8 a7 62 bf 05 82 	movabs $0xdf16788205bf62a7,%rax
    a3f9:	78 16 df 
    a3fc:	48 89 85 c0 ed ff ff 	mov    %rax,-0x1240(%rbp)
    a403:	c6 85 be eb ff ff ff 	movb   $0xff,-0x1442(%rbp)
    a40a:	c7 85 34 ec ff ff f6 	movl   $0xfffffff6,-0x13cc(%rbp)
    a411:	ff ff ff 
    a414:	48 8d 85 58 ec ff ff 	lea    -0x13a8(%rbp),%rax
    a41b:	48 89 85 60 ec ff ff 	mov    %rax,-0x13a0(%rbp)
    a422:	48 8d 85 60 ec ff ff 	lea    -0x13a0(%rbp),%rax
    a429:	48 89 85 68 ec ff ff 	mov    %rax,-0x1398(%rbp)
    a430:	48 8b 05 81 8d 00 00 	mov    0x8d81(%rip),%rax        # 131b8 <g_141>
    a437:	41 89 c5             	mov    %eax,%r13d
    a43a:	8b 95 38 ec ff ff    	mov    -0x13c8(%rbp),%edx
    a440:	83 bd ac eb ff ff 00 	cmpl   $0x0,-0x1454(%rbp)
    a447:	0f 95 c0             	setne  %al
    a44a:	0f b6 c0             	movzbl %al,%eax
    a44d:	89 d6                	mov    %edx,%esi
    a44f:	89 c7                	mov    %eax,%edi
    a451:	e8 f2 b9 ff ff       	callq  5e48 <safe_rshift_func_uint16_t_u_s>
    a456:	0f b7 d0             	movzwl %ax,%edx
    a459:	48 8b 85 c8 ed ff ff 	mov    -0x1238(%rbp),%rax
    a460:	48 89 10             	mov    %rdx,(%rax)
    a463:	48 8b 85 c8 ed ff ff 	mov    -0x1238(%rbp),%rax
    a46a:	48 8b 00             	mov    (%rax),%rax
    a46d:	48 83 f8 fd          	cmp    $0xfffffffffffffffd,%rax
    a471:	0f 95 c0             	setne  %al
    a474:	0f b6 c0             	movzbl %al,%eax
    a477:	be 05 00 00 00       	mov    $0x5,%esi
    a47c:	89 c7                	mov    %eax,%edi
    a47e:	e8 2b b7 ff ff       	callq  5bae <safe_mod_func_uint8_t_u_u>
    a483:	0f be c0             	movsbl %al,%eax
    a486:	be 01 00 00 00       	mov    $0x1,%esi
    a48b:	89 c7                	mov    %eax,%edi
    a48d:	e8 60 ad ff ff       	callq  51f2 <safe_sub_func_int8_t_s_s>
    a492:	0f b6 d8             	movzbl %al,%ebx
    a495:	0f b7 05 28 8d 00 00 	movzwl 0x8d28(%rip),%eax        # 131c4 <g_195>
    a49c:	44 0f b7 e0          	movzwl %ax,%r12d
    a4a0:	8b 85 38 ec ff ff    	mov    -0x13c8(%rbp),%eax
    a4a6:	0f bf d0             	movswl %ax,%edx
    a4a9:	8b 85 ac eb ff ff    	mov    -0x1454(%rbp),%eax
    a4af:	98                   	cwtl   
    a4b0:	89 d6                	mov    %edx,%esi
    a4b2:	89 c7                	mov    %eax,%edi
    a4b4:	e8 9c af ff ff       	callq  5455 <safe_div_func_int16_t_s_s>
    a4b9:	98                   	cwtl   
    a4ba:	41 39 c4             	cmp    %eax,%r12d
    a4bd:	0f 95 c0             	setne  %al
    a4c0:	0f b6 c0             	movzbl %al,%eax
    a4c3:	89 de                	mov    %ebx,%esi
    a4c5:	89 c7                	mov    %eax,%edi
    a4c7:	e8 c7 b6 ff ff       	callq  5b93 <safe_mul_func_uint8_t_u_u>
    a4cc:	0f b6 c0             	movzbl %al,%eax
    a4cf:	44 89 ee             	mov    %r13d,%esi
    a4d2:	89 c7                	mov    %eax,%edi
    a4d4:	e8 f3 b1 ff ff       	callq  56cc <safe_mod_func_int32_t_s_s>
    a4d9:	48 8b 85 a0 eb ff ff 	mov    -0x1460(%rbp),%rax
    a4e0:	8b 00                	mov    (%rax),%eax
    a4e2:	83 f8 fd             	cmp    $0xfffffffd,%eax
    a4e5:	74 12                	je     a4f9 <func_15+0x231>
    a4e7:	0f b6 85 a8 eb ff ff 	movzbl -0x1458(%rbp),%eax
    a4ee:	84 c0                	test   %al,%al
    a4f0:	74 07                	je     a4f9 <func_15+0x231>
    a4f2:	b8 01 00 00 00       	mov    $0x1,%eax
    a4f7:	eb 05                	jmp    a4fe <func_15+0x236>
    a4f9:	b8 00 00 00 00       	mov    $0x0,%eax
    a4fe:	48 63 d0             	movslq %eax,%rdx
    a501:	48 8b 05 d8 8c 00 00 	mov    0x8cd8(%rip),%rax        # 131e0 <g_457>
    a508:	48 21 d0             	and    %rdx,%rax
    a50b:	48 89 05 ce 8c 00 00 	mov    %rax,0x8cce(%rip)        # 131e0 <g_457>
    a512:	c7 05 bc 8c 00 00 fa 	movl   $0xfffffffa,0x8cbc(%rip)        # 131d8 <g_424>
    a519:	ff ff ff 
    a51c:	e9 d5 23 00 00       	jmpq   c8f6 <func_15+0x262e>
    a521:	48 c7 85 98 ed ff ff 	movq   $0x1,-0x1268(%rbp)
    a528:	01 00 00 00 
    a52c:	48 c7 85 a0 ed ff ff 	movq   $0x0,-0x1260(%rbp)
    a533:	00 00 00 00 
    a537:	c7 85 d0 eb ff ff 08 	movl   $0x8,-0x1430(%rbp)
    a53e:	00 00 00 
    a541:	c7 85 28 ec ff ff 43 	movl   $0x7952fc43,-0x13d8(%rbp)
    a548:	fc 52 79 
    a54b:	c7 85 d4 eb ff ff 14 	movl   $0x556c3a14,-0x142c(%rbp)
    a552:	3a 6c 55 
    a555:	c7 85 2c ec ff ff 01 	movl   $0x1,-0x13d4(%rbp)
    a55c:	00 00 00 
    a55f:	c7 85 30 ec ff ff 3f 	movl   $0xb4b4cf3f,-0x13d0(%rbp)
    a566:	cf b4 b4 
    a569:	c7 85 d8 eb ff ff 00 	movl   $0x0,-0x1428(%rbp)
    a570:	00 00 00 
    a573:	48 8d 85 e0 f4 ff ff 	lea    -0xb20(%rbp),%rax
    a57a:	48 8d 15 9f 95 00 00 	lea    0x959f(%rip),%rdx        # 13b20 <g_1486+0x928>
    a581:	b9 60 00 00 00       	mov    $0x60,%ecx
    a586:	48 89 c7             	mov    %rax,%rdi
    a589:	48 89 d6             	mov    %rdx,%rsi
    a58c:	f3 48 a5             	rep movsq %ds:(%rsi),%es:(%rdi)
    a58f:	66 c7 85 c4 eb ff ff 	movw   $0x9,-0x143c(%rbp)
    a596:	09 00 
    a598:	48 c7 85 a8 ed ff ff 	movq   $0x0,-0x1258(%rbp)
    a59f:	00 00 00 00 
    a5a3:	48 c7 85 90 ed ff ff 	movq   $0x0,-0x1270(%rbp)
    a5aa:	00 00 00 00 
    a5ae:	66 c7 85 c2 eb ff ff 	movw   $0xffff,-0x143e(%rbp)
    a5b5:	ff ff 
    a5b7:	48 c7 85 68 ed ff ff 	movq   $0x0,-0x1298(%rbp)
    a5be:	00 00 00 00 
    a5c2:	c7 85 24 ec ff ff 00 	movl   $0x0,-0x13dc(%rbp)
    a5c9:	00 00 00 
    a5cc:	eb 19                	jmp    a5e7 <func_15+0x31f>
    a5ce:	8b 85 24 ec ff ff    	mov    -0x13dc(%rbp),%eax
    a5d4:	48 98                	cltq   
    a5d6:	66 c7 84 45 e4 ed ff 	movw   $0xec0c,-0x121c(%rbp,%rax,2)
    a5dd:	ff 0c ec 
    a5e0:	83 85 24 ec ff ff 01 	addl   $0x1,-0x13dc(%rbp)
    a5e7:	83 bd 24 ec ff ff 01 	cmpl   $0x1,-0x13dc(%rbp)
    a5ee:	7e de                	jle    a5ce <func_15+0x306>
    a5f0:	c7 05 c6 8b 00 00 01 	movl   $0x1,0x8bc6(%rip)        # 131c0 <g_151>
    a5f7:	00 00 00 
    a5fa:	e9 04 0c 00 00       	jmpq   b203 <func_15+0xf3b>
    a5ff:	c7 85 f0 f0 ff ff 06 	movl   $0xf4a21b06,-0xf10(%rbp)
    a606:	1b a2 f4 
    a609:	c7 85 f4 f0 ff ff 4b 	movl   $0x77bf2f4b,-0xf0c(%rbp)
    a610:	2f bf 77 
    a613:	c7 85 f8 f0 ff ff 06 	movl   $0xf4a21b06,-0xf08(%rbp)
    a61a:	1b a2 f4 
    a61d:	c7 85 fc f0 ff ff 06 	movl   $0xf4a21b06,-0xf04(%rbp)
    a624:	1b a2 f4 
    a627:	c7 85 00 f1 ff ff 4b 	movl   $0x77bf2f4b,-0xf00(%rbp)
    a62e:	2f bf 77 
    a631:	c7 85 04 f1 ff ff 06 	movl   $0xf4a21b06,-0xefc(%rbp)
    a638:	1b a2 f4 
    a63b:	c7 85 08 f1 ff ff 06 	movl   $0xf4a21b06,-0xef8(%rbp)
    a642:	1b a2 f4 
    a645:	48 8d 05 74 ab 00 00 	lea    0xab74(%rip),%rax        # 151c0 <g_313>
    a64c:	48 89 85 70 ed ff ff 	mov    %rax,-0x1290(%rbp)
    a653:	c7 85 dc eb ff ff 01 	movl   $0x1,-0x1424(%rbp)
    a65a:	00 00 00 
    a65d:	48 c7 85 70 ec ff ff 	movq   $0x0,-0x1390(%rbp)
    a664:	00 00 00 00 
    a668:	c6 85 bd eb ff ff 3d 	movb   $0x3d,-0x1443(%rbp)
    a66f:	48 8d 05 32 a1 00 00 	lea    0xa132(%rip),%rax        # 147a8 <g_213>
    a676:	48 89 85 78 ed ff ff 	mov    %rax,-0x1288(%rbp)
    a67d:	8b 85 00 f1 ff ff    	mov    -0xf00(%rbp),%eax
    a683:	85 c0                	test   %eax,%eax
    a685:	0f 85 89 0b 00 00    	jne    b214 <func_15+0xf4c>
    a68b:	8b 85 00 f1 ff ff    	mov    -0xf00(%rbp),%eax
    a691:	0f b6 d8             	movzbl %al,%ebx
    a694:	8b 85 38 ec ff ff    	mov    -0x13c8(%rbp),%eax
    a69a:	89 c2                	mov    %eax,%edx
    a69c:	48 8b 85 98 ed ff ff 	mov    -0x1268(%rbp),%rax
    a6a3:	21 d0                	and    %edx,%eax
    a6a5:	0f b6 c0             	movzbl %al,%eax
    a6a8:	89 c6                	mov    %eax,%esi
    a6aa:	bf ed 00 00 00       	mov    $0xed,%edi
    a6af:	e8 df b4 ff ff       	callq  5b93 <safe_mul_func_uint8_t_u_u>
    a6b4:	89 de                	mov    %ebx,%esi
    a6b6:	bf 00 00 00 00       	mov    $0x0,%edi
    a6bb:	e8 d3 b4 ff ff       	callq  5b93 <safe_mul_func_uint8_t_u_u>
    a6c0:	89 c2                	mov    %eax,%edx
    a6c2:	8b 85 c8 eb ff ff    	mov    -0x1438(%rbp),%eax
    a6c8:	31 d0                	xor    %edx,%eax
    a6ca:	0f be d0             	movsbl %al,%edx
    a6cd:	8b 85 04 f1 ff ff    	mov    -0xefc(%rbp),%eax
    a6d3:	89 c1                	mov    %eax,%ecx
    a6d5:	48 8b 85 70 ed ff ff 	mov    -0x1290(%rbp),%rax
    a6dc:	88 08                	mov    %cl,(%rax)
    a6de:	48 8b 85 70 ed ff ff 	mov    -0x1290(%rbp),%rax
    a6e5:	0f b6 00             	movzbl (%rax),%eax
    a6e8:	0f be c0             	movsbl %al,%eax
    a6eb:	89 d6                	mov    %edx,%esi
    a6ed:	89 c7                	mov    %eax,%edi
    a6ef:	e8 1e ab ff ff       	callq  5212 <safe_mul_func_int8_t_s_s>
    a6f4:	0f be c0             	movsbl %al,%eax
    a6f7:	be 01 00 00 00       	mov    $0x1,%esi
    a6fc:	89 c7                	mov    %eax,%edi
    a6fe:	e8 32 ac ff ff       	callq  5335 <safe_rshift_func_int8_t_s_s>
    a703:	0f be d0             	movsbl %al,%edx
    a706:	48 8b 05 4b a1 00 00 	mov    0xa14b(%rip),%rax        # 14858 <g_308>
    a70d:	0f b6 00             	movzbl (%rax),%eax
    a710:	0f b6 c0             	movzbl %al,%eax
    a713:	89 d6                	mov    %edx,%esi
    a715:	89 c7                	mov    %eax,%edi
    a717:	e8 e9 b4 ff ff       	callq  5c05 <safe_lshift_func_uint8_t_u_s>
    a71c:	0f b6 d0             	movzbl %al,%edx
    a71f:	0f b6 85 a8 eb ff ff 	movzbl -0x1458(%rbp),%eax
    a726:	0f be c0             	movsbl %al,%eax
    a729:	39 c2                	cmp    %eax,%edx
    a72b:	0f 9e c2             	setle  %dl
    a72e:	48 8b 05 b3 a3 00 00 	mov    0xa3b3(%rip),%rax        # 14ae8 <g_476>
    a735:	0f b6 d2             	movzbl %dl,%edx
    a738:	89 10                	mov    %edx,(%rax)
    a73a:	8b 85 c8 eb ff ff    	mov    -0x1438(%rbp),%eax
    a740:	39 85 ac eb ff ff    	cmp    %eax,-0x1454(%rbp)
    a746:	0f 84 20 01 00 00    	je     a86c <func_15+0x5a4>
    a74c:	c7 85 10 ec ff ff 06 	movl   $0x6,-0x13f0(%rbp)
    a753:	00 00 00 
    a756:	48 8d 85 70 ec ff ff 	lea    -0x1390(%rbp),%rax
    a75d:	48 89 85 18 ed ff ff 	mov    %rax,-0x12e8(%rbp)
    a764:	48 8d 05 25 8a 00 00 	lea    0x8a25(%rip),%rax        # 13190 <g_91+0x10>
    a76b:	48 89 85 20 ed ff ff 	mov    %rax,-0x12e0(%rbp)
    a772:	48 c7 05 2b 8a 00 00 	movq   $0x7,0x8a2b(%rip)        # 131a8 <g_115>
    a779:	07 00 00 00 
    a77d:	e9 8d 00 00 00       	jmpq   a80f <func_15+0x547>
    a782:	48 8d 05 3b 8a 00 00 	lea    0x8a3b(%rip),%rax        # 131c4 <g_195>
    a789:	48 89 85 10 ed ff ff 	mov    %rax,-0x12f0(%rbp)
    a790:	48 8d 85 40 fb ff ff 	lea    -0x4c0(%rbp),%rax
    a797:	48 8d 15 e2 4c 00 00 	lea    0x4ce2(%rip),%rdx        # f480 <g_1282+0x1420>
    a79e:	b9 48 00 00 00       	mov    $0x48,%ecx
    a7a3:	48 89 c7             	mov    %rax,%rdi
    a7a6:	48 89 d6             	mov    %rdx,%rsi
    a7a9:	f3 48 a5             	rep movsq %ds:(%rsi),%es:(%rdi)
    a7ac:	48 8d 05 81 88 00 00 	lea    0x8881(%rip),%rax        # 13034 <g_6>
    a7b3:	48 89 85 f8 ec ff ff 	mov    %rax,-0x1308(%rbp)
    a7ba:	66 c7 05 03 8a 00 00 	movw   $0x0,0x8a03(%rip)        # 131c6 <g_200>
    a7c1:	00 00 
    a7c3:	eb 1e                	jmp    a7e3 <func_15+0x51b>
    a7c5:	48 8b 85 98 eb ff ff 	mov    -0x1468(%rbp),%rax
    a7cc:	8b 00                	mov    (%rax),%eax
    a7ce:	85 c0                	test   %eax,%eax
    a7d0:	75 20                	jne    a7f2 <func_15+0x52a>
    a7d2:	0f b7 05 ed 89 00 00 	movzwl 0x89ed(%rip),%eax        # 131c6 <g_200>
    a7d9:	83 c0 01             	add    $0x1,%eax
    a7dc:	66 89 05 e3 89 00 00 	mov    %ax,0x89e3(%rip)        # 131c6 <g_200>
    a7e3:	0f b7 05 dc 89 00 00 	movzwl 0x89dc(%rip),%eax        # 131c6 <g_200>
    a7ea:	66 83 f8 09          	cmp    $0x9,%ax
    a7ee:	76 d5                	jbe    a7c5 <func_15+0x4fd>
    a7f0:	eb 01                	jmp    a7f3 <func_15+0x52b>
    a7f2:	90                   	nop
    a7f3:	c7 85 10 ec ff ff 01 	movl   $0x1,-0x13f0(%rbp)
    a7fa:	00 00 00 
    a7fd:	48 8b 05 a4 89 00 00 	mov    0x89a4(%rip),%rax        # 131a8 <g_115>
    a804:	48 83 e8 01          	sub    $0x1,%rax
    a808:	48 89 05 99 89 00 00 	mov    %rax,0x8999(%rip)        # 131a8 <g_115>
    a80f:	48 8b 05 92 89 00 00 	mov    0x8992(%rip),%rax        # 131a8 <g_115>
    a816:	48 83 f8 01          	cmp    $0x1,%rax
    a81a:	0f 8f 62 ff ff ff    	jg     a782 <func_15+0x4ba>
    a820:	48 8b 95 70 ec ff ff 	mov    -0x1390(%rbp),%rdx
    a827:	48 8b 85 18 ed ff ff 	mov    -0x12e8(%rbp),%rax
    a82e:	48 89 10             	mov    %rdx,(%rax)
    a831:	48 8b 85 18 ed ff ff 	mov    -0x12e8(%rbp),%rax
    a838:	48 8b 00             	mov    (%rax),%rax
    a83b:	48 39 85 a0 ed ff ff 	cmp    %rax,-0x1260(%rbp)
    a842:	0f 95 c2             	setne  %dl
    a845:	48 8b 05 9c a2 00 00 	mov    0xa29c(%rip),%rax        # 14ae8 <g_476>
    a84c:	0f b6 d2             	movzbl %dl,%edx
    a84f:	89 10                	mov    %edx,(%rax)
    a851:	8b 10                	mov    (%rax),%edx
    a853:	48 8b 85 20 ed ff ff 	mov    -0x12e0(%rbp),%rax
    a85a:	8b 00                	mov    (%rax),%eax
    a85c:	31 c2                	xor    %eax,%edx
    a85e:	48 8b 85 20 ed ff ff 	mov    -0x12e0(%rbp),%rax
    a865:	89 10                	mov    %edx,(%rax)
    a867:	e9 88 09 00 00       	jmpq   b1f4 <func_15+0xf2c>
    a86c:	48 8d 05 29 89 00 00 	lea    0x8929(%rip),%rax        # 1319c <g_91+0x1c>
    a873:	48 89 85 80 ed ff ff 	mov    %rax,-0x1280(%rbp)
    a87a:	48 c7 85 40 ed ff ff 	movq   $0xffffffffffffffff,-0x12c0(%rbp)
    a881:	ff ff ff ff 
    a885:	48 8d 85 dc eb ff ff 	lea    -0x1424(%rbp),%rax
    a88c:	48 89 85 88 ed ff ff 	mov    %rax,-0x1278(%rbp)
    a893:	c7 85 e0 f7 ff ff 07 	movl   $0x7,-0x820(%rbp)
    a89a:	00 00 00 
    a89d:	c7 85 e4 f7 ff ff 07 	movl   $0x7,-0x81c(%rbp)
    a8a4:	00 00 00 
    a8a7:	c7 85 e8 f7 ff ff 00 	movl   $0x0,-0x818(%rbp)
    a8ae:	00 00 00 
    a8b1:	c7 85 ec f7 ff ff ba 	movl   $0xda39cfba,-0x814(%rbp)
    a8b8:	cf 39 da 
    a8bb:	c7 85 f0 f7 ff ff 00 	movl   $0x0,-0x810(%rbp)
    a8c2:	00 00 00 
    a8c5:	c7 85 f4 f7 ff ff 07 	movl   $0x7,-0x80c(%rbp)
    a8cc:	00 00 00 
    a8cf:	c7 85 f8 f7 ff ff 07 	movl   $0x7,-0x808(%rbp)
    a8d6:	00 00 00 
    a8d9:	c7 85 fc f7 ff ff 00 	movl   $0x0,-0x804(%rbp)
    a8e0:	00 00 00 
    a8e3:	c7 85 00 f8 ff ff ba 	movl   $0xda39cfba,-0x800(%rbp)
    a8ea:	cf 39 da 
    a8ed:	c7 85 04 f8 ff ff 00 	movl   $0x67977d00,-0x7fc(%rbp)
    a8f4:	7d 97 67 
    a8f7:	c7 85 08 f8 ff ff 03 	movl   $0x3,-0x7f8(%rbp)
    a8fe:	00 00 00 
    a901:	c7 85 0c f8 ff ff 00 	movl   $0x67977d00,-0x7f4(%rbp)
    a908:	7d 97 67 
    a90b:	c7 85 10 f8 ff ff 00 	movl   $0x0,-0x7f0(%rbp)
    a912:	00 00 00 
    a915:	c7 85 14 f8 ff ff 00 	movl   $0x67977d00,-0x7ec(%rbp)
    a91c:	7d 97 67 
    a91f:	c7 85 18 f8 ff ff ba 	movl   $0xda39cfba,-0x7e8(%rbp)
    a926:	cf 39 da 
    a929:	c7 85 1c f8 ff ff 07 	movl   $0x7,-0x7e4(%rbp)
    a930:	00 00 00 
    a933:	c7 85 20 f8 ff ff ba 	movl   $0xda39cfba,-0x7e0(%rbp)
    a93a:	cf 39 da 
    a93d:	c7 85 24 f8 ff ff 00 	movl   $0x67977d00,-0x7dc(%rbp)
    a944:	7d 97 67 
    a947:	c7 85 28 f8 ff ff ba 	movl   $0xda39cfba,-0x7d8(%rbp)
    a94e:	cf 39 da 
    a951:	c7 85 2c f8 ff ff 00 	movl   $0x67977d00,-0x7d4(%rbp)
    a958:	7d 97 67 
    a95b:	c7 85 30 f8 ff ff 00 	movl   $0x67977d00,-0x7d0(%rbp)
    a962:	7d 97 67 
    a965:	c7 85 34 f8 ff ff ba 	movl   $0xda39cfba,-0x7cc(%rbp)
    a96c:	cf 39 da 
    a96f:	c7 85 38 f8 ff ff 07 	movl   $0x7,-0x7c8(%rbp)
    a976:	00 00 00 
    a979:	c7 85 3c f8 ff ff ba 	movl   $0xda39cfba,-0x7c4(%rbp)
    a980:	cf 39 da 
    a983:	c7 85 40 f8 ff ff 00 	movl   $0x67977d00,-0x7c0(%rbp)
    a98a:	7d 97 67 
    a98d:	c7 85 44 f8 ff ff 00 	movl   $0x67977d00,-0x7bc(%rbp)
    a994:	7d 97 67 
    a997:	c7 85 48 f8 ff ff ba 	movl   $0xda39cfba,-0x7b8(%rbp)
    a99e:	cf 39 da 
    a9a1:	c7 85 4c f8 ff ff 00 	movl   $0x0,-0x7b4(%rbp)
    a9a8:	00 00 00 
    a9ab:	c7 85 50 f8 ff ff 00 	movl   $0x67977d00,-0x7b0(%rbp)
    a9b2:	7d 97 67 
    a9b5:	c7 85 54 f8 ff ff 03 	movl   $0x3,-0x7ac(%rbp)
    a9bc:	00 00 00 
    a9bf:	c7 85 58 f8 ff ff 00 	movl   $0x67977d00,-0x7a8(%rbp)
    a9c6:	7d 97 67 
    a9c9:	c7 85 5c f8 ff ff 00 	movl   $0x0,-0x7a4(%rbp)
    a9d0:	00 00 00 
    a9d3:	c7 85 60 f8 ff ff 00 	movl   $0x0,-0x7a0(%rbp)
    a9da:	00 00 00 
    a9dd:	c7 85 64 f8 ff ff 00 	movl   $0x67977d00,-0x79c(%rbp)
    a9e4:	7d 97 67 
    a9e7:	c7 85 68 f8 ff ff 03 	movl   $0x3,-0x798(%rbp)
    a9ee:	00 00 00 
    a9f1:	c7 85 6c f8 ff ff 00 	movl   $0x67977d00,-0x794(%rbp)
    a9f8:	7d 97 67 
    a9fb:	c7 85 70 f8 ff ff 00 	movl   $0x67977d00,-0x790(%rbp)
    aa02:	7d 97 67 
    aa05:	c7 85 74 f8 ff ff 07 	movl   $0x7,-0x78c(%rbp)
    aa0c:	00 00 00 
    aa0f:	c7 85 78 f8 ff ff 03 	movl   $0x3,-0x788(%rbp)
    aa16:	00 00 00 
    aa19:	c7 85 7c f8 ff ff 03 	movl   $0x3,-0x784(%rbp)
    aa20:	00 00 00 
    aa23:	c7 85 80 f8 ff ff 07 	movl   $0x7,-0x780(%rbp)
    aa2a:	00 00 00 
    aa2d:	c7 85 84 f8 ff ff 00 	movl   $0x67977d00,-0x77c(%rbp)
    aa34:	7d 97 67 
    aa37:	c7 85 88 f8 ff ff 07 	movl   $0x7,-0x778(%rbp)
    aa3e:	00 00 00 
    aa41:	c7 85 8c f8 ff ff 03 	movl   $0x3,-0x774(%rbp)
    aa48:	00 00 00 
    aa4b:	c7 85 90 f8 ff ff 03 	movl   $0x3,-0x770(%rbp)
    aa52:	00 00 00 
    aa55:	48 8b 05 fc 9d 00 00 	mov    0x9dfc(%rip),%rax        # 14858 <g_308>
    aa5c:	0f b6 00             	movzbl (%rax),%eax
    aa5f:	0f b6 d8             	movzbl %al,%ebx
    aa62:	48 8b 85 80 ed ff ff 	mov    -0x1280(%rbp),%rax
    aa69:	c7 00 fa ea 38 6e    	movl   $0x6e38eafa,(%rax)
    aa6f:	48 8b 85 80 ed ff ff 	mov    -0x1280(%rbp),%rax
    aa76:	8b 00                	mov    (%rax),%eax
    aa78:	89 85 d0 eb ff ff    	mov    %eax,-0x1430(%rbp)
    aa7e:	8b 85 d0 eb ff ff    	mov    -0x1430(%rbp),%eax
    aa84:	41 89 c5             	mov    %eax,%r13d
    aa87:	48 8b 05 ca 9d 00 00 	mov    0x9dca(%rip),%rax        # 14858 <g_308>
    aa8e:	0f b6 00             	movzbl (%rax),%eax
    aa91:	0f b6 c0             	movzbl %al,%eax
    aa94:	89 c6                	mov    %eax,%esi
    aa96:	bf 01 00 00 00       	mov    $0x1,%edi
    aa9b:	e8 4e a8 ff ff       	callq  52ee <safe_lshift_func_int8_t_s_u>
    aaa0:	48 83 bd 98 ed ff ff 	cmpq   $0x0,-0x1268(%rbp)
    aaa7:	00 
    aaa8:	75 2f                	jne    aad9 <func_15+0x811>
    aaaa:	48 8b 85 40 ed ff ff 	mov    -0x12c0(%rbp),%rax
    aab1:	0f b7 c0             	movzwl %ax,%eax
    aab4:	be f6 ff 00 00       	mov    $0xfff6,%esi
    aab9:	89 c7                	mov    %eax,%edi
    aabb:	e8 5f b2 ff ff       	callq  5d1f <safe_sub_func_uint16_t_u_u>
    aac0:	0f b7 d0             	movzwl %ax,%edx
    aac3:	48 8b 85 88 ed ff ff 	mov    -0x1278(%rbp),%rax
    aaca:	89 10                	mov    %edx,(%rax)
    aacc:	48 8b 85 88 ed ff ff 	mov    -0x1278(%rbp),%rax
    aad3:	8b 00                	mov    (%rax),%eax
    aad5:	85 c0                	test   %eax,%eax
    aad7:	74 07                	je     aae0 <func_15+0x818>
    aad9:	b8 01 00 00 00       	mov    $0x1,%eax
    aade:	eb 05                	jmp    aae5 <func_15+0x81d>
    aae0:	b8 00 00 00 00       	mov    $0x0,%eax
    aae5:	41 89 c4             	mov    %eax,%r12d
    aae8:	8b 05 56 86 00 00    	mov    0x8656(%rip),%eax        # 13144 <g_89+0x4>
    aaee:	89 c0                	mov    %eax,%eax
    aaf0:	48 89 c7             	mov    %rax,%rdi
    aaf3:	e8 1e ad ff ff       	callq  5816 <safe_unary_minus_func_int64_t_s>
    aaf8:	98                   	cwtl   
    aaf9:	44 89 e6             	mov    %r12d,%esi
    aafc:	89 c7                	mov    %eax,%edi
    aafe:	e8 60 aa ff ff       	callq  5563 <safe_rshift_func_int16_t_s_u>
    ab03:	0f bf d0             	movswl %ax,%edx
    ab06:	8b 05 34 86 00 00    	mov    0x8634(%rip),%eax        # 13140 <g_89>
    ab0c:	0f be c0             	movsbl %al,%eax
    ab0f:	89 d6                	mov    %edx,%esi
    ab11:	89 c7                	mov    %eax,%edi
    ab13:	e8 89 a7 ff ff       	callq  52a1 <safe_lshift_func_int8_t_s_s>
    ab18:	0f be c0             	movsbl %al,%eax
    ab1b:	33 85 ac eb ff ff    	xor    -0x1454(%rbp),%eax
    ab21:	89 c2                	mov    %eax,%edx
    ab23:	0f b6 85 a8 eb ff ff 	movzbl -0x1458(%rbp),%eax
    ab2a:	0f be c0             	movsbl %al,%eax
    ab2d:	39 c2                	cmp    %eax,%edx
    ab2f:	0f 95 c0             	setne  %al
    ab32:	0f b6 c0             	movzbl %al,%eax
    ab35:	48 39 85 98 ed ff ff 	cmp    %rax,-0x1268(%rbp)
    ab3c:	0f 95 c0             	setne  %al
    ab3f:	44 09 e8             	or     %r13d,%eax
    ab42:	0f b6 c0             	movzbl %al,%eax
    ab45:	89 de                	mov    %ebx,%esi
    ab47:	89 c7                	mov    %eax,%edi
    ab49:	e8 0c b0 ff ff       	callq  5b5a <safe_add_func_uint8_t_u_u>
    ab4e:	84 c0                	test   %al,%al
    ab50:	0f 84 90 03 00 00    	je     aee6 <func_15+0xc1e>
    ab56:	48 c7 85 28 ed ff ff 	movq   $0x0,-0x12d8(%rbp)
    ab5d:	00 00 00 00 
    ab61:	48 8d 85 c8 eb ff ff 	lea    -0x1438(%rbp),%rax
    ab68:	48 89 85 30 ed ff ff 	mov    %rax,-0x12d0(%rbp)
    ab6f:	c7 85 18 ec ff ff a6 	movl   $0xe0858ea6,-0x13e8(%rbp)
    ab76:	8e 85 e0 
    ab79:	48 8d 05 20 85 00 00 	lea    0x8520(%rip),%rax        # 130a0 <g_65+0x60>
    ab80:	48 89 85 38 ed ff ff 	mov    %rax,-0x12c8(%rbp)
    ab87:	48 8d 85 40 fb ff ff 	lea    -0x4c0(%rbp),%rax
    ab8e:	48 8d 15 8b 92 00 00 	lea    0x928b(%rip),%rdx        # 13e20 <g_1486+0xc28>
    ab95:	b9 90 00 00 00       	mov    $0x90,%ecx
    ab9a:	48 89 c7             	mov    %rax,%rdi
    ab9d:	48 89 d6             	mov    %rdx,%rsi
    aba0:	f3 48 a5             	rep movsq %ds:(%rsi),%es:(%rdi)
    aba3:	c7 85 1c ec ff ff fe 	movl   $0xfffffffe,-0x13e4(%rbp)
    abaa:	ff ff ff 
    abad:	48 8d 05 7c 84 00 00 	lea    0x847c(%rip),%rax        # 13030 <g_2+0x8>
    abb4:	48 89 85 b0 f2 ff ff 	mov    %rax,-0xd50(%rbp)
    abbb:	48 c7 85 b8 f2 ff ff 	movq   $0x0,-0xd48(%rbp)
    abc2:	00 00 00 00 
    abc6:	48 8d 05 63 84 00 00 	lea    0x8463(%rip),%rax        # 13030 <g_2+0x8>
    abcd:	48 89 85 c0 f2 ff ff 	mov    %rax,-0xd40(%rbp)
    abd4:	48 c7 85 c8 f2 ff ff 	movq   $0x0,-0xd38(%rbp)
    abdb:	00 00 00 00 
    abdf:	48 c7 85 d0 f2 ff ff 	movq   $0x0,-0xd30(%rbp)
    abe6:	00 00 00 00 
    abea:	48 8d 05 3f 84 00 00 	lea    0x843f(%rip),%rax        # 13030 <g_2+0x8>
    abf1:	48 89 85 d8 f2 ff ff 	mov    %rax,-0xd28(%rbp)
    abf8:	48 c7 85 e0 f2 ff ff 	movq   $0x0,-0xd20(%rbp)
    abff:	00 00 00 00 
    ac03:	48 8d 05 26 84 00 00 	lea    0x8426(%rip),%rax        # 13030 <g_2+0x8>
    ac0a:	48 89 85 e8 f2 ff ff 	mov    %rax,-0xd18(%rbp)
    ac11:	48 c7 85 f0 f2 ff ff 	movq   $0x0,-0xd10(%rbp)
    ac18:	00 00 00 00 
    ac1c:	48 c7 85 f8 f2 ff ff 	movq   $0x0,-0xd08(%rbp)
    ac23:	00 00 00 00 
    ac27:	83 bd 38 ec ff ff 00 	cmpl   $0x0,-0x13c8(%rbp)
    ac2e:	0f 85 e0 05 00 00    	jne    b214 <func_15+0xf4c>
    ac34:	8b 85 ac eb ff ff    	mov    -0x1454(%rbp),%eax
    ac3a:	0f bf d8             	movswl %ax,%ebx
    ac3d:	48 8b 85 a0 eb ff ff 	mov    -0x1460(%rbp),%rax
    ac44:	44 8b 20             	mov    (%rax),%r12d
    ac47:	8b 85 c8 eb ff ff    	mov    -0x1438(%rbp),%eax
    ac4d:	85 c0                	test   %eax,%eax
    ac4f:	0f 84 d4 01 00 00    	je     ae29 <func_15+0xb61>
    ac55:	8b 85 ac eb ff ff    	mov    -0x1454(%rbp),%eax
    ac5b:	44 0f be e8          	movsbl %al,%r13d
    ac5f:	0f b6 85 a8 eb ff ff 	movzbl -0x1458(%rbp),%eax
    ac66:	66 98                	cbtw   
    ac68:	44 0f b7 f0          	movzwl %ax,%r14d
    ac6c:	8b 85 18 ec ff ff    	mov    -0x13e8(%rbp),%eax
    ac72:	4c 63 f8             	movslq %eax,%r15
    ac75:	8b 15 29 85 00 00    	mov    0x8529(%rip),%edx        # 131a4 <g_91+0x24>
    ac7b:	48 8b 05 d6 9b 00 00 	mov    0x9bd6(%rip),%rax        # 14858 <g_308>
    ac82:	0f b6 00             	movzbl (%rax),%eax
    ac85:	0f b6 c0             	movzbl %al,%eax
    ac88:	89 d6                	mov    %edx,%esi
    ac8a:	89 c7                	mov    %eax,%edi
    ac8c:	e8 74 af ff ff       	callq  5c05 <safe_lshift_func_uint8_t_u_s>
    ac91:	48 8b 95 88 ed ff ff 	mov    -0x1278(%rbp),%rdx
    ac98:	8b 12                	mov    (%rdx),%edx
    ac9a:	0f b6 c0             	movzbl %al,%eax
    ac9d:	21 c2                	and    %eax,%edx
    ac9f:	48 8b 85 88 ed ff ff 	mov    -0x1278(%rbp),%rax
    aca6:	89 10                	mov    %edx,(%rax)
    aca8:	48 8b 85 88 ed ff ff 	mov    -0x1278(%rbp),%rax
    acaf:	8b 10                	mov    (%rax),%edx
    acb1:	48 8b 85 30 ed ff ff 	mov    -0x12d0(%rbp),%rax
    acb8:	89 10                	mov    %edx,(%rax)
    acba:	8b 95 dc eb ff ff    	mov    -0x1424(%rbp),%edx
    acc0:	48 8b 85 70 ed ff ff 	mov    -0x1290(%rbp),%rax
    acc7:	0f b6 00             	movzbl (%rax),%eax
    acca:	09 c2                	or     %eax,%edx
    accc:	48 8b 85 70 ed ff ff 	mov    -0x1290(%rbp),%rax
    acd3:	88 10                	mov    %dl,(%rax)
    acd5:	48 8b 85 70 ed ff ff 	mov    -0x1290(%rbp),%rax
    acdc:	0f b6 00             	movzbl (%rax),%eax
    acdf:	0f be c0             	movsbl %al,%eax
    ace2:	39 85 ac eb ff ff    	cmp    %eax,-0x1454(%rbp)
    ace8:	7e 07                	jle    acf1 <func_15+0xa29>
    acea:	b8 01 00 00 00       	mov    $0x1,%eax
    acef:	eb 05                	jmp    acf6 <func_15+0xa2e>
    acf1:	b8 00 00 00 00       	mov    $0x0,%eax
    acf6:	0f be c0             	movsbl %al,%eax
    acf9:	be 03 00 00 00       	mov    $0x3,%esi
    acfe:	89 c7                	mov    %eax,%edi
    ad00:	e8 0d a5 ff ff       	callq  5212 <safe_mul_func_int8_t_s_s>
    ad05:	48 0f be c0          	movsbq %al,%rax
    ad09:	4c 89 fe             	mov    %r15,%rsi
    ad0c:	48 89 c7             	mov    %rax,%rdi
    ad0f:	e8 94 ab ff ff       	callq  58a8 <safe_sub_func_int64_t_s_s>
    ad14:	48 85 c0             	test   %rax,%rax
    ad17:	75 09                	jne    ad22 <func_15+0xa5a>
    ad19:	83 bd ac eb ff ff 00 	cmpl   $0x0,-0x1454(%rbp)
    ad20:	74 07                	je     ad29 <func_15+0xa61>
    ad22:	ba 01 00 00 00       	mov    $0x1,%edx
    ad27:	eb 05                	jmp    ad2e <func_15+0xa66>
    ad29:	ba 00 00 00 00       	mov    $0x0,%edx
    ad2e:	48 8b 85 38 ed ff ff 	mov    -0x12c8(%rbp),%rax
    ad35:	0f b6 00             	movzbl (%rax),%eax
    ad38:	31 c2                	xor    %eax,%edx
    ad3a:	48 8b 85 38 ed ff ff 	mov    -0x12c8(%rbp),%rax
    ad41:	88 10                	mov    %dl,(%rax)
    ad43:	8b 05 53 84 00 00    	mov    0x8453(%rip),%eax        # 1319c <g_91+0x1c>
    ad49:	39 85 ac eb ff ff    	cmp    %eax,-0x1454(%rbp)
    ad4f:	0f 9d c0             	setge  %al
    ad52:	8b 35 68 84 00 00    	mov    0x8468(%rip),%esi        # 131c0 <g_151>
    ad58:	0f b6 c0             	movzbl %al,%eax
    ad5b:	89 f2                	mov    %esi,%edx
    ad5d:	48 8d 0c 95 00 00 00 	lea    0x0(,%rdx,4),%rcx
    ad64:	00 
    ad65:	48 8d 15 d4 83 00 00 	lea    0x83d4(%rip),%rdx        # 13140 <g_89>
    ad6c:	89 04 11             	mov    %eax,(%rcx,%rdx,1)
    ad6f:	89 f0                	mov    %esi,%eax
    ad71:	48 8d 14 85 00 00 00 	lea    0x0(,%rax,4),%rdx
    ad78:	00 
    ad79:	48 8d 05 c0 83 00 00 	lea    0x83c0(%rip),%rax        # 13140 <g_89>
    ad80:	8b 04 02             	mov    (%rdx,%rax,1),%eax
    ad83:	be d2 52 a0 14       	mov    $0x14a052d2,%esi
    ad88:	89 c7                	mov    %eax,%edi
    ad8a:	e8 6e b1 ff ff       	callq  5efd <safe_mod_func_uint32_t_u_u>
    ad8f:	3d 9f bd d4 60       	cmp    $0x60d4bd9f,%eax
    ad94:	0f 96 c0             	setbe  %al
    ad97:	0f b6 d0             	movzbl %al,%edx
    ad9a:	8b 05 88 82 00 00    	mov    0x8288(%rip),%eax        # 13028 <g_2>
    ada0:	39 c2                	cmp    %eax,%edx
    ada2:	0f 9d c0             	setge  %al
    ada5:	0f b6 c0             	movzbl %al,%eax
    ada8:	be 86 02 43 7b       	mov    $0x7b430286,%esi
    adad:	89 c7                	mov    %eax,%edi
    adaf:	e8 4b a9 ff ff       	callq  56ff <safe_div_func_int32_t_s_s>
    adb4:	39 85 ac eb ff ff    	cmp    %eax,-0x1454(%rbp)
    adba:	0f 95 c0             	setne  %al
    adbd:	0f b6 c0             	movzbl %al,%eax
    adc0:	44 89 f6             	mov    %r14d,%esi
    adc3:	89 c7                	mov    %eax,%edi
    adc5:	e8 c4 af ff ff       	callq  5d8e <safe_div_func_uint16_t_u_u>
    adca:	0f b7 d0             	movzwl %ax,%edx
    adcd:	0f b6 85 a8 eb ff ff 	movzbl -0x1458(%rbp),%eax
    add4:	0f be c0             	movsbl %al,%eax
    add7:	39 c2                	cmp    %eax,%edx
    add9:	0f 9f c0             	setg   %al
    addc:	0f b6 c0             	movzbl %al,%eax
    addf:	44 89 ee             	mov    %r13d,%esi
    ade2:	89 c7                	mov    %eax,%edi
    ade4:	e8 81 a4 ff ff       	callq  526a <safe_div_func_int8_t_s_s>
    ade9:	0f be d0             	movsbl %al,%edx
    adec:	48 8b 85 80 ed ff ff 	mov    -0x1280(%rbp),%rax
    adf3:	89 10                	mov    %edx,(%rax)
    adf5:	48 8b 85 80 ed ff ff 	mov    -0x1280(%rbp),%rax
    adfc:	8b 00                	mov    (%rax),%eax
    adfe:	39 85 1c ec ff ff    	cmp    %eax,-0x13e4(%rbp)
    ae04:	74 07                	je     ae0d <func_15+0xb45>
    ae06:	ba 77 00 00 00       	mov    $0x77,%edx
    ae0b:	eb 05                	jmp    ae12 <func_15+0xb4a>
    ae0d:	ba 76 00 00 00       	mov    $0x76,%edx
    ae12:	48 8b 85 98 eb ff ff 	mov    -0x1468(%rbp),%rax
    ae19:	8b 00                	mov    (%rax),%eax
    ae1b:	48 98                	cltq   
    ae1d:	48 39 c2             	cmp    %rax,%rdx
    ae20:	7e 07                	jle    ae29 <func_15+0xb61>
    ae22:	ba 01 00 00 00       	mov    $0x1,%edx
    ae27:	eb 05                	jmp    ae2e <func_15+0xb66>
    ae29:	ba 00 00 00 00       	mov    $0x0,%edx
    ae2e:	48 8b 05 23 9a 00 00 	mov    0x9a23(%rip),%rax        # 14858 <g_308>
    ae35:	0f b6 00             	movzbl (%rax),%eax
    ae38:	0f b6 c0             	movzbl %al,%eax
    ae3b:	39 c2                	cmp    %eax,%edx
    ae3d:	0f 9f c0             	setg   %al
    ae40:	0f b6 c0             	movzbl %al,%eax
    ae43:	be fd ff ff ff       	mov    $0xfffffffd,%esi
    ae48:	89 c7                	mov    %eax,%edi
    ae4a:	e8 ae b0 ff ff       	callq  5efd <safe_mod_func_uint32_t_u_u>
    ae4f:	0f b6 c0             	movzbl %al,%eax
    ae52:	be e3 00 00 00       	mov    $0xe3,%esi
    ae57:	89 c7                	mov    %eax,%edi
    ae59:	e8 1a ad ff ff       	callq  5b78 <safe_sub_func_uint8_t_u_u>
    ae5e:	8b 05 84 83 00 00    	mov    0x8384(%rip),%eax        # 131e8 <g_535>
    ae64:	83 f8 01             	cmp    $0x1,%eax
    ae67:	0f 95 c0             	setne  %al
    ae6a:	0f b6 c0             	movzbl %al,%eax
    ae6d:	44 89 e6             	mov    %r12d,%esi
    ae70:	89 c7                	mov    %eax,%edi
    ae72:	e8 8e a7 ff ff       	callq  5605 <safe_sub_func_int32_t_s_s>
    ae77:	b8 01 00 00 00       	mov    $0x1,%eax
    ae7c:	48 63 d0             	movslq %eax,%rdx
    ae7f:	48 8b 05 42 83 00 00 	mov    0x8342(%rip),%rax        # 131c8 <g_269>
    ae86:	48 39 c2             	cmp    %rax,%rdx
    ae89:	0f 96 c0             	setbe  %al
    ae8c:	0f b6 c0             	movzbl %al,%eax
    ae8f:	89 de                	mov    %ebx,%esi
    ae91:	89 c7                	mov    %eax,%edi
    ae93:	e8 5d a5 ff ff       	callq  53f5 <safe_mul_func_int16_t_s_s>
    ae98:	0f be 85 bd eb ff ff 	movsbl -0x1443(%rbp),%eax
    ae9f:	39 85 ac eb ff ff    	cmp    %eax,-0x1454(%rbp)
    aea5:	0f 95 c0             	setne  %al
    aea8:	0f b6 d0             	movzbl %al,%edx
    aeab:	48 8b 05 2e 83 00 00 	mov    0x832e(%rip),%rax        # 131e0 <g_457>
    aeb2:	48 39 c2             	cmp    %rax,%rdx
    aeb5:	0f 95 c0             	setne  %al
    aeb8:	0f b6 d0             	movzbl %al,%edx
    aebb:	48 8b 05 96 99 00 00 	mov    0x9996(%rip),%rax        # 14858 <g_308>
    aec2:	0f b6 00             	movzbl (%rax),%eax
    aec5:	0f b6 c0             	movzbl %al,%eax
    aec8:	39 c2                	cmp    %eax,%edx
    aeca:	0f 95 c0             	setne  %al
    aecd:	0f b6 c0             	movzbl %al,%eax
    aed0:	89 85 cc eb ff ff    	mov    %eax,-0x1434(%rbp)
    aed6:	48 8b 85 98 eb ff ff 	mov    -0x1468(%rbp),%rax
    aedd:	8b 00                	mov    (%rax),%eax
    aedf:	85 c0                	test   %eax,%eax
    aee1:	e9 0e 03 00 00       	jmpq   b1f4 <func_15+0xf2c>
    aee6:	48 8d 05 bb a2 00 00 	lea    0xa2bb(%rip),%rax        # 151a8 <g_118>
    aeed:	48 89 85 78 ec ff ff 	mov    %rax,-0x1388(%rbp)
    aef4:	48 8d 85 78 ec ff ff 	lea    -0x1388(%rbp),%rax
    aefb:	48 89 85 48 ed ff ff 	mov    %rax,-0x12b8(%rbp)
    af02:	48 8d 05 9f a2 00 00 	lea    0xa29f(%rip),%rax        # 151a8 <g_118>
    af09:	48 89 85 80 ec ff ff 	mov    %rax,-0x1380(%rbp)
    af10:	48 8d 85 80 ec ff ff 	lea    -0x1380(%rbp),%rax
    af17:	48 89 85 50 ed ff ff 	mov    %rax,-0x12b0(%rbp)
    af1e:	48 8d 95 40 fb ff ff 	lea    -0x4c0(%rbp),%rdx
    af25:	b8 00 00 00 00       	mov    $0x0,%eax
    af2a:	b9 24 00 00 00       	mov    $0x24,%ecx
    af2f:	48 89 d7             	mov    %rdx,%rdi
    af32:	f3 48 ab             	rep stos %rax,%es:(%rdi)
    af35:	48 8d 85 dc eb ff ff 	lea    -0x1424(%rbp),%rax
    af3c:	48 89 85 88 ec ff ff 	mov    %rax,-0x1378(%rbp)
    af43:	48 8d 85 88 ec ff ff 	lea    -0x1378(%rbp),%rax
    af4a:	48 89 85 90 ec ff ff 	mov    %rax,-0x1370(%rbp)
    af51:	48 8d 85 90 ec ff ff 	lea    -0x1370(%rbp),%rax
    af58:	48 89 85 58 ed ff ff 	mov    %rax,-0x12a8(%rbp)
    af5f:	48 8b 85 78 ec ff ff 	mov    -0x1388(%rbp),%rax
    af66:	48 8b 95 80 ed ff ff 	mov    -0x1280(%rbp),%rdx
    af6d:	48 89 10             	mov    %rdx,(%rax)
    af70:	48 8b 85 48 ed ff ff 	mov    -0x12b8(%rbp),%rax
    af77:	48 8d 95 98 eb ff ff 	lea    -0x1468(%rbp),%rdx
    af7e:	48 89 10             	mov    %rdx,(%rax)
    af81:	48 8b 85 48 ed ff ff 	mov    -0x12b8(%rbp),%rax
    af88:	48 8b 10             	mov    (%rax),%rdx
    af8b:	48 8b 85 50 ed ff ff 	mov    -0x12b0(%rbp),%rax
    af92:	48 89 10             	mov    %rdx,(%rax)
    af95:	48 8b 85 50 ed ff ff 	mov    -0x12b0(%rbp),%rax
    af9c:	4c 8b 20             	mov    (%rax),%r12
    af9f:	8b 05 43 82 00 00    	mov    0x8243(%rip),%eax        # 131e8 <g_535>
    afa5:	83 f8 05             	cmp    $0x5,%eax
    afa8:	0f 95 c0             	setne  %al
    afab:	44 0f b6 e8          	movzbl %al,%r13d
    afaf:	0f b7 85 c0 eb ff ff 	movzwl -0x1440(%rbp),%eax
    afb6:	0f bf d8             	movswl %ax,%ebx
    afb9:	8b 85 d0 eb ff ff    	mov    -0x1430(%rbp),%eax
    afbf:	41 89 c6             	mov    %eax,%r14d
    afc2:	0f b6 05 f7 a1 00 00 	movzbl 0xa1f7(%rip),%eax        # 151c0 <g_313>
    afc9:	0f be d0             	movsbl %al,%edx
    afcc:	8b 85 38 ec ff ff    	mov    -0x13c8(%rbp),%eax
    afd2:	0f b7 c0             	movzwl %ax,%eax
    afd5:	89 d6                	mov    %edx,%esi
    afd7:	89 c7                	mov    %eax,%edi
    afd9:	e8 28 ae ff ff       	callq  5e06 <safe_lshift_func_uint16_t_u_u>
    afde:	0f b6 85 a8 eb ff ff 	movzbl -0x1458(%rbp),%eax
    afe5:	66 98                	cbtw   
    afe7:	0f b7 d0             	movzwl %ax,%edx
    afea:	8b 85 cc eb ff ff    	mov    -0x1434(%rbp),%eax
    aff0:	0f b7 c0             	movzwl %ax,%eax
    aff3:	89 d6                	mov    %edx,%esi
    aff5:	89 c7                	mov    %eax,%edi
    aff7:	e8 41 ad ff ff       	callq  5d3d <safe_mul_func_uint16_t_u_u>
    affc:	44 89 f6             	mov    %r14d,%esi
    afff:	bf 01 00 00 00       	mov    $0x1,%edi
    b004:	e8 c7 ae ff ff       	callq  5ed0 <safe_sub_func_uint32_t_u_u>
    b009:	98                   	cwtl   
    b00a:	25 fc 00 00 00       	and    $0xfc,%eax
    b00f:	89 de                	mov    %ebx,%esi
    b011:	89 c7                	mov    %eax,%edi
    b013:	e8 bb a3 ff ff       	callq  53d3 <safe_sub_func_int16_t_s_s>
    b018:	98                   	cwtl   
    b019:	44 31 e8             	xor    %r13d,%eax
    b01c:	3d 3e fe 00 00       	cmp    $0xfe3e,%eax
    b021:	0f 95 c0             	setne  %al
    b024:	0f b6 c0             	movzbl %al,%eax
    b027:	be 01 00 00 00       	mov    $0x1,%esi
    b02c:	89 c7                	mov    %eax,%edi
    b02e:	e8 22 a4 ff ff       	callq  5455 <safe_div_func_int16_t_s_s>
    b033:	83 bd ac eb ff ff 00 	cmpl   $0x0,-0x1454(%rbp)
    b03a:	74 07                	je     b043 <func_15+0xd7b>
    b03c:	83 bd ac eb ff ff 00 	cmpl   $0x0,-0x1454(%rbp)
    b043:	48 8d 05 5e a1 00 00 	lea    0xa15e(%rip),%rax        # 151a8 <g_118>
    b04a:	48 89 05 9f 9a 00 00 	mov    %rax,0x9a9f(%rip)        # 14af0 <g_581>
    b051:	48 8b 05 98 9a 00 00 	mov    0x9a98(%rip),%rax        # 14af0 <g_581>
    b058:	49 39 c4             	cmp    %rax,%r12
    b05b:	0f 95 c0             	setne  %al
    b05e:	0f b6 c0             	movzbl %al,%eax
    b061:	be cd f7 00 00       	mov    $0xf7cd,%esi
    b066:	89 c7                	mov    %eax,%edi
    b068:	e8 92 ac ff ff       	callq  5cff <safe_add_func_uint16_t_u_u>
    b06d:	66 85 c0             	test   %ax,%ax
    b070:	74 11                	je     b083 <func_15+0xdbb>
    b072:	8b 85 c8 eb ff ff    	mov    -0x1438(%rbp),%eax
    b078:	85 c0                	test   %eax,%eax
    b07a:	74 07                	je     b083 <func_15+0xdbb>
    b07c:	ba 01 00 00 00       	mov    $0x1,%edx
    b081:	eb 05                	jmp    b088 <func_15+0xdc0>
    b083:	ba 00 00 00 00       	mov    $0x0,%edx
    b088:	48 8b 85 80 ed ff ff 	mov    -0x1280(%rbp),%rax
    b08f:	89 10                	mov    %edx,(%rax)
    b091:	c6 85 bd eb ff ff 00 	movb   $0x0,-0x1443(%rbp)
    b098:	80 bd bd eb ff ff 16 	cmpb   $0x16,-0x1443(%rbp)
    b09f:	7e 1a                	jle    b0bb <func_15+0xdf3>
    b0a1:	48 8b 05 48 9a 00 00 	mov    0x9a48(%rip),%rax        # 14af0 <g_581>
    b0a8:	48 c7 00 00 00 00 00 	movq   $0x0,(%rax)
    b0af:	48 8b 85 98 eb ff ff 	mov    -0x1468(%rbp),%rax
    b0b6:	e9 54 18 00 00       	jmpq   c90f <func_15+0x2647>
    b0bb:	48 c7 85 40 ed ff ff 	movq   $0x0,-0x12c0(%rbp)
    b0c2:	00 00 00 00 
    b0c6:	e9 18 01 00 00       	jmpq   b1e3 <func_15+0xf1b>
    b0cb:	c7 85 20 ec ff ff ff 	movl   $0xffffffff,-0x13e0(%rbp)
    b0d2:	ff ff ff 
    b0d5:	48 c7 85 60 ed ff ff 	movq   $0x0,-0x12a0(%rbp)
    b0dc:	00 00 00 00 
    b0e0:	48 8b 05 c1 80 00 00 	mov    0x80c1(%rip),%rax        # 131a8 <g_115>
    b0e7:	48 85 c0             	test   %rax,%rax
    b0ea:	0f 85 92 00 00 00    	jne    b182 <func_15+0xeba>
    b0f0:	48 8b 85 48 ed ff ff 	mov    -0x12b8(%rbp),%rax
    b0f7:	48 8b 00             	mov    (%rax),%rax
    b0fa:	48 8b 00             	mov    (%rax),%rax
    b0fd:	8b 10                	mov    (%rax),%edx
    b0ff:	0f b6 85 a8 eb ff ff 	movzbl -0x1458(%rbp),%eax
    b106:	0f be c8             	movsbl %al,%ecx
    b109:	8b 05 c9 80 00 00    	mov    0x80c9(%rip),%eax        # 131d8 <g_424>
    b10f:	f7 d0                	not    %eax
    b111:	c1 e8 1f             	shr    $0x1f,%eax
    b114:	0f b6 c0             	movzbl %al,%eax
    b117:	39 c1                	cmp    %eax,%ecx
    b119:	0f 9c c0             	setl   %al
    b11c:	0f b6 c0             	movzbl %al,%eax
    b11f:	39 c2                	cmp    %eax,%edx
    b121:	0f 9c c0             	setl   %al
    b124:	0f b6 c0             	movzbl %al,%eax
    b127:	c7 85 c8 eb ff ff 00 	movl   $0x0,-0x1438(%rbp)
    b12e:	00 00 00 
    b131:	89 c6                	mov    %eax,%esi
    b133:	bf 00 00 00 00       	mov    $0x0,%edi
    b138:	e8 81 ac ff ff       	callq  5dbe <safe_lshift_func_uint16_t_u_s>
    b13d:	48 8b 85 58 ed ff ff 	mov    -0x12a8(%rbp),%rax
    b144:	48 89 05 b5 99 00 00 	mov    %rax,0x99b5(%rip)        # 14b00 <g_597>
    b14b:	48 8b 05 ae 99 00 00 	mov    0x99ae(%rip),%rax        # 14b00 <g_597>
    b152:	48 85 c0             	test   %rax,%rax
    b155:	0f 95 c0             	setne  %al
    b158:	0f b6 c0             	movzbl %al,%eax
    b15b:	be 00 00 00 00       	mov    $0x0,%esi
    b160:	89 c7                	mov    %eax,%edi
    b162:	e8 9e aa ff ff       	callq  5c05 <safe_lshift_func_uint8_t_u_s>
    b167:	0f b6 c0             	movzbl %al,%eax
    b16a:	be 33 b0 ff ff       	mov    $0xffffb033,%esi
    b16f:	89 c7                	mov    %eax,%edi
    b171:	e8 3d a2 ff ff       	callq  53b3 <safe_add_func_int16_t_s_s>
    b176:	48 8b 85 70 ec ff ff 	mov    -0x1390(%rbp),%rax
    b17d:	48 85 c0             	test   %rax,%rax
    b180:	74 07                	je     b189 <func_15+0xec1>
    b182:	ba 01 00 00 00       	mov    $0x1,%edx
    b187:	eb 05                	jmp    b18e <func_15+0xec6>
    b189:	ba 00 00 00 00       	mov    $0x0,%edx
    b18e:	48 8b 05 13 a0 00 00 	mov    0xa013(%rip),%rax        # 151a8 <g_118>
    b195:	89 10                	mov    %edx,(%rax)
    b197:	48 8b 85 98 eb ff ff 	mov    -0x1468(%rbp),%rax
    b19e:	8b 00                	mov    (%rax),%eax
    b1a0:	85 c0                	test   %eax,%eax
    b1a2:	75 4f                	jne    b1f3 <func_15+0xf2b>
    b1a4:	48 8b 85 40 ec ff ff 	mov    -0x13c0(%rbp),%rax
    b1ab:	48 8d 15 0e 80 00 00 	lea    0x800e(%rip),%rdx        # 131c0 <g_151>
    b1b2:	48 39 d0             	cmp    %rdx,%rax
    b1b5:	0f 95 c2             	setne  %dl
    b1b8:	48 8b 05 31 99 00 00 	mov    0x9931(%rip),%rax        # 14af0 <g_581>
    b1bf:	48 8b 00             	mov    (%rax),%rax
    b1c2:	0f b6 d2             	movzbl %dl,%edx
    b1c5:	89 10                	mov    %edx,(%rax)
    b1c7:	48 8b 85 40 ed ff ff 	mov    -0x12c0(%rbp),%rax
    b1ce:	be 06 00 00 00       	mov    $0x6,%esi
    b1d3:	89 c7                	mov    %eax,%edi
    b1d5:	e8 dc a3 ff ff       	callq  55b6 <safe_add_func_int32_t_s_s>
    b1da:	48 98                	cltq   
    b1dc:	48 89 85 40 ed ff ff 	mov    %rax,-0x12c0(%rbp)
    b1e3:	48 83 bd 40 ed ff ff 	cmpq   $0x6,-0x12c0(%rbp)
    b1ea:	06 
    b1eb:	0f 85 da fe ff ff    	jne    b0cb <func_15+0xe03>
    b1f1:	eb 01                	jmp    b1f4 <func_15+0xf2c>
    b1f3:	90                   	nop
    b1f4:	8b 05 c6 7f 00 00    	mov    0x7fc6(%rip),%eax        # 131c0 <g_151>
    b1fa:	83 c0 01             	add    $0x1,%eax
    b1fd:	89 05 bd 7f 00 00    	mov    %eax,0x7fbd(%rip)        # 131c0 <g_151>
    b203:	8b 05 b7 7f 00 00    	mov    0x7fb7(%rip),%eax        # 131c0 <g_151>
    b209:	83 f8 09             	cmp    $0x9,%eax
    b20c:	0f 86 ed f3 ff ff    	jbe    a5ff <func_15+0x337>
    b212:	eb 01                	jmp    b215 <func_15+0xf4d>
    b214:	90                   	nop
    b215:	83 bd 38 ec ff ff 00 	cmpl   $0x0,-0x13c8(%rbp)
    b21c:	0f 84 14 16 00 00    	je     c836 <func_15+0x256e>
    b222:	c7 85 f0 eb ff ff 00 	movl   $0x0,-0x1410(%rbp)
    b229:	00 00 00 
    b22c:	48 8d 85 f0 f0 ff ff 	lea    -0xf10(%rbp),%rax
    b233:	48 8d 15 66 90 00 00 	lea    0x9066(%rip),%rdx        # 142a0 <g_1486+0x10a8>
    b23a:	b9 38 00 00 00       	mov    $0x38,%ecx
    b23f:	48 89 c7             	mov    %rax,%rdi
    b242:	48 89 d6             	mov    %rdx,%rsi
    b245:	f3 48 a5             	rep movsq %ds:(%rsi),%es:(%rdi)
    b248:	48 8d 05 e9 7d 00 00 	lea    0x7de9(%rip),%rax        # 13038 <g_63>
    b24f:	48 89 85 70 ec ff ff 	mov    %rax,-0x1390(%rbp)
    b256:	48 8d 85 cc eb ff ff 	lea    -0x1434(%rbp),%rax
    b25d:	48 89 85 e0 ec ff ff 	mov    %rax,-0x1320(%rbp)
    b264:	c7 85 f4 eb ff ff b8 	movl   $0x61e9a5b8,-0x140c(%rbp)
    b26b:	a5 e9 61 
    b26e:	c7 85 f8 eb ff ff 53 	movl   $0xbc2c6453,-0x1408(%rbp)
    b275:	64 2c bc 
    b278:	c7 85 dc eb ff ff f6 	movl   $0xfffffff6,-0x1424(%rbp)
    b27f:	ff ff ff 
    b282:	c7 85 fc eb ff ff ff 	movl   $0xffffffff,-0x1404(%rbp)
    b289:	ff ff ff 
    b28c:	c7 85 00 ec ff ff 06 	movl   $0x7b5e2906,-0x1400(%rbp)
    b293:	29 5e 7b 
    b296:	c7 85 04 ec ff ff fc 	movl   $0xfffffffc,-0x13fc(%rbp)
    b29d:	ff ff ff 
    b2a0:	c7 85 08 ec ff ff 18 	movl   $0x48c84018,-0x13f8(%rbp)
    b2a7:	40 c8 48 
    b2aa:	48 b8 4c 2b 04 bb 1c 	movabs $0x2361d71cbb042b4c,%rax
    b2b1:	d7 61 23 
    b2b4:	48 89 85 78 ec ff ff 	mov    %rax,-0x1388(%rbp)
    b2bb:	48 8d 05 02 7f 00 00 	lea    0x7f02(%rip),%rax        # 131c4 <g_195>
    b2c2:	48 89 85 80 ec ff ff 	mov    %rax,-0x1380(%rbp)
    b2c9:	48 8d 85 80 ec ff ff 	lea    -0x1380(%rbp),%rax
    b2d0:	48 89 85 88 ec ff ff 	mov    %rax,-0x1378(%rbp)
    b2d7:	48 8d 85 d8 eb ff ff 	lea    -0x1428(%rbp),%rax
    b2de:	48 89 85 60 ee ff ff 	mov    %rax,-0x11a0(%rbp)
    b2e5:	48 8d 85 d4 eb ff ff 	lea    -0x142c(%rbp),%rax
    b2ec:	48 89 85 68 ee ff ff 	mov    %rax,-0x1198(%rbp)
    b2f3:	48 8d 85 d8 eb ff ff 	lea    -0x1428(%rbp),%rax
    b2fa:	48 89 85 70 ee ff ff 	mov    %rax,-0x1190(%rbp)
    b301:	48 8d 85 d4 eb ff ff 	lea    -0x142c(%rbp),%rax
    b308:	48 89 85 78 ee ff ff 	mov    %rax,-0x1188(%rbp)
    b30f:	48 8d 85 d8 eb ff ff 	lea    -0x1428(%rbp),%rax
    b316:	48 89 85 80 ee ff ff 	mov    %rax,-0x1180(%rbp)
    b31d:	48 8d 85 d4 eb ff ff 	lea    -0x142c(%rbp),%rax
    b324:	48 89 85 88 ee ff ff 	mov    %rax,-0x1178(%rbp)
    b32b:	48 8d 85 d8 eb ff ff 	lea    -0x1428(%rbp),%rax
    b332:	48 89 85 90 ee ff ff 	mov    %rax,-0x1170(%rbp)
    b339:	48 8d 85 d4 eb ff ff 	lea    -0x142c(%rbp),%rax
    b340:	48 89 85 98 ee ff ff 	mov    %rax,-0x1168(%rbp)
    b347:	48 8d 85 d8 eb ff ff 	lea    -0x1428(%rbp),%rax
    b34e:	48 89 85 a0 ee ff ff 	mov    %rax,-0x1160(%rbp)
    b355:	48 8d 85 d4 eb ff ff 	lea    -0x142c(%rbp),%rax
    b35c:	48 89 85 a8 ee ff ff 	mov    %rax,-0x1158(%rbp)
    b363:	48 c7 85 e8 ec ff ff 	movq   $0x0,-0x1318(%rbp)
    b36a:	00 00 00 00 
    b36e:	48 c7 85 f0 ec ff ff 	movq   $0x0,-0x1310(%rbp)
    b375:	00 00 00 00 
    b379:	c7 85 30 ee ff ff 3e 	movl   $0xed29153e,-0x11d0(%rbp)
    b380:	15 29 ed 
    b383:	c7 85 34 ee ff ff 01 	movl   $0x1,-0x11cc(%rbp)
    b38a:	00 00 00 
    b38d:	c7 85 38 ee ff ff 3e 	movl   $0xed29153e,-0x11c8(%rbp)
    b394:	15 29 ed 
    b397:	c7 85 3c ee ff ff 01 	movl   $0x1,-0x11c4(%rbp)
    b39e:	00 00 00 
    b3a1:	c7 85 40 ee ff ff 3e 	movl   $0xed29153e,-0x11c0(%rbp)
    b3a8:	15 29 ed 
    b3ab:	c7 85 44 ee ff ff 01 	movl   $0x1,-0x11bc(%rbp)
    b3b2:	00 00 00 
    b3b5:	c7 85 48 ee ff ff 3e 	movl   $0xed29153e,-0x11b8(%rbp)
    b3bc:	15 29 ed 
    b3bf:	c7 85 4c ee ff ff 01 	movl   $0x1,-0x11b4(%rbp)
    b3c6:	00 00 00 
    b3c9:	c7 85 50 ee ff ff 3e 	movl   $0xed29153e,-0x11b0(%rbp)
    b3d0:	15 29 ed 
    b3d3:	c7 85 54 ee ff ff 01 	movl   $0x1,-0x11ac(%rbp)
    b3da:	00 00 00 
    b3dd:	c7 85 0c ec ff ff 00 	movl   $0x0,-0x13f4(%rbp)
    b3e4:	00 00 00 
    b3e7:	eb 1b                	jmp    b404 <func_15+0x113c>
    b3e9:	8b 85 0c ec ff ff    	mov    -0x13f4(%rbp),%eax
    b3ef:	48 98                	cltq   
    b3f1:	48 c7 84 c5 10 ee ff 	movq   $0xffffffffffffffff,-0x11f0(%rbp,%rax,8)
    b3f8:	ff ff ff ff ff 
    b3fd:	83 85 0c ec ff ff 01 	addl   $0x1,-0x13f4(%rbp)
    b404:	83 bd 0c ec ff ff 03 	cmpl   $0x3,-0x13f4(%rbp)
    b40b:	7e dc                	jle    b3e9 <func_15+0x1121>
    b40d:	c7 85 0c ec ff ff 00 	movl   $0x0,-0x13f4(%rbp)
    b414:	00 00 00 
    b417:	eb 1a                	jmp    b433 <func_15+0x116b>
    b419:	8b 85 0c ec ff ff    	mov    -0x13f4(%rbp),%eax
    b41f:	48 98                	cltq   
    b421:	c7 84 85 f0 ed ff ff 	movl   $0x1b2dacf1,-0x1210(%rbp,%rax,4)
    b428:	f1 ac 2d 1b 
    b42c:	83 85 0c ec ff ff 01 	addl   $0x1,-0x13f4(%rbp)
    b433:	83 bd 0c ec ff ff 06 	cmpl   $0x6,-0x13f4(%rbp)
    b43a:	7e dd                	jle    b419 <func_15+0x1151>
    b43c:	66 c7 85 e8 ed ff ff 	movw   $0x63b1,-0x1218(%rbp)
    b443:	b1 63 
    b445:	66 c7 85 ea ed ff ff 	movw   $0x63b1,-0x1216(%rbp)
    b44c:	b1 63 
    b44e:	66 c7 85 ec ed ff ff 	movw   $0x63b1,-0x1214(%rbp)
    b455:	b1 63 
    b457:	66 c7 85 ee ed ff ff 	movw   $0x63b1,-0x1212(%rbp)
    b45e:	b1 63 
    b460:	48 8d 85 e0 f4 ff ff 	lea    -0xb20(%rbp),%rax
    b467:	48 89 85 c8 ec ff ff 	mov    %rax,-0x1338(%rbp)
    b46e:	48 c7 85 90 ec ff ff 	movq   $0x0,-0x1370(%rbp)
    b475:	00 00 00 00 
    b479:	48 8d 85 90 ec ff ff 	lea    -0x1370(%rbp),%rax
    b480:	48 89 85 d0 ec ff ff 	mov    %rax,-0x1330(%rbp)
    b487:	48 c7 85 d8 ec ff ff 	movq   $0x0,-0x1328(%rbp)
    b48e:	00 00 00 00 
    b492:	c7 85 ec eb ff ff 57 	movl   $0xbeba1557,-0x1414(%rbp)
    b499:	15 ba be 
    b49c:	48 8d 05 b5 93 00 00 	lea    0x93b5(%rip),%rax        # 14858 <g_308>
    b4a3:	48 89 85 a8 ec ff ff 	mov    %rax,-0x1358(%rbp)
    b4aa:	c7 85 e8 eb ff ff 64 	movl   $0xec596d64,-0x1418(%rbp)
    b4b1:	6d 59 ec 
    b4b4:	8b 85 d8 eb ff ff    	mov    -0x1428(%rbp),%eax
    b4ba:	0f b6 d8             	movzbl %al,%ebx
    b4bd:	8b 85 ac eb ff ff    	mov    -0x1454(%rbp),%eax
    b4c3:	4c 63 e0             	movslq %eax,%r12
    b4c6:	48 8b 05 8b 93 00 00 	mov    0x938b(%rip),%rax        # 14858 <g_308>
    b4cd:	0f b6 00             	movzbl (%rax),%eax
    b4d0:	44 0f b6 f8          	movzbl %al,%r15d
    b4d4:	48 8b 05 7d 93 00 00 	mov    0x937d(%rip),%rax        # 14858 <g_308>
    b4db:	0f b6 00             	movzbl (%rax),%eax
    b4de:	44 0f be e8          	movsbl %al,%r13d
    b4e2:	8b 85 d0 eb ff ff    	mov    -0x1430(%rbp),%eax
    b4e8:	44 0f b7 f0          	movzwl %ax,%r14d
    b4ec:	48 8b 95 10 f5 ff ff 	mov    -0xaf0(%rbp),%rdx
    b4f3:	48 8b 85 c8 ec ff ff 	mov    -0x1338(%rbp),%rax
    b4fa:	48 89 10             	mov    %rdx,(%rax)
    b4fd:	0f b7 85 ee ed ff ff 	movzwl -0x1212(%rbp),%eax
    b504:	98                   	cwtl   
    b505:	89 85 94 eb ff ff    	mov    %eax,-0x146c(%rbp)
    b50b:	48 8b 85 a0 eb ff ff 	mov    -0x1460(%rbp),%rax
    b512:	8b 00                	mov    (%rax),%eax
    b514:	89 85 90 eb ff ff    	mov    %eax,-0x1470(%rbp)
    b51a:	8b 15 74 7c 00 00    	mov    0x7c74(%rip),%edx        # 13194 <g_91+0x14>
    b520:	48 8b 85 a0 eb ff ff 	mov    -0x1460(%rbp),%rax
    b527:	8b 00                	mov    (%rax),%eax
    b529:	89 d6                	mov    %edx,%esi
    b52b:	89 c7                	mov    %eax,%edi
    b52d:	e8 9a a1 ff ff       	callq  56cc <safe_mod_func_int32_t_s_s>
    b532:	8b b5 90 eb ff ff    	mov    -0x1470(%rbp),%esi
    b538:	89 c7                	mov    %eax,%edi
    b53a:	e8 e6 a9 ff ff       	callq  5f25 <safe_div_func_uint32_t_u_u>
    b53f:	8b 95 ac eb ff ff    	mov    -0x1454(%rbp),%edx
    b545:	21 d0                	and    %edx,%eax
    b547:	39 85 94 eb ff ff    	cmp    %eax,-0x146c(%rbp)
    b54d:	0f 92 c0             	setb   %al
    b550:	0f b6 d0             	movzbl %al,%edx
    b553:	0f b6 85 a8 eb ff ff 	movzbl -0x1458(%rbp),%eax
    b55a:	0f be c0             	movsbl %al,%eax
    b55d:	21 d0                	and    %edx,%eax
    b55f:	83 e0 0b             	and    $0xb,%eax
    b562:	39 85 2c ec ff ff    	cmp    %eax,-0x13d4(%rbp)
    b568:	0f 9d c0             	setge  %al
    b56b:	0f b6 c0             	movzbl %al,%eax
    b56e:	44 89 f6             	mov    %r14d,%esi
    b571:	89 c7                	mov    %eax,%edi
    b573:	e8 c5 a7 ff ff       	callq  5d3d <safe_mul_func_uint16_t_u_u>
    b578:	0f be c0             	movsbl %al,%eax
    b57b:	44 89 ee             	mov    %r13d,%esi
    b57e:	89 c7                	mov    %eax,%edi
    b580:	e8 e5 9c ff ff       	callq  526a <safe_div_func_int8_t_s_s>
    b585:	0f b6 95 a8 eb ff ff 	movzbl -0x1458(%rbp),%edx
    b58c:	38 d0                	cmp    %dl,%al
    b58e:	0f 95 c0             	setne  %al
    b591:	0f b6 c0             	movzbl %al,%eax
    b594:	41 39 c7             	cmp    %eax,%r15d
    b597:	75 07                	jne    b5a0 <func_15+0x12d8>
    b599:	b8 01 00 00 00       	mov    $0x1,%eax
    b59e:	eb 05                	jmp    b5a5 <func_15+0x12dd>
    b5a0:	b8 00 00 00 00       	mov    $0x0,%eax
    b5a5:	48 98                	cltq   
    b5a7:	4c 89 e6             	mov    %r12,%rsi
    b5aa:	48 89 c7             	mov    %rax,%rdi
    b5ad:	e8 7c aa ff ff       	callq  602e <safe_add_func_uint64_t_u_u>
    b5b2:	48 8b 15 5f 95 00 00 	mov    0x955f(%rip),%rdx        # 14b18 <g_645>
    b5b9:	0f b6 12             	movzbl (%rdx),%edx
    b5bc:	48 0f be d2          	movsbq %dl,%rdx
    b5c0:	48 39 d0             	cmp    %rdx,%rax
    b5c3:	8b 85 ac eb ff ff    	mov    -0x1454(%rbp),%eax
    b5c9:	83 f0 01             	xor    $0x1,%eax
    b5cc:	0f b6 c0             	movzbl %al,%eax
    b5cf:	89 de                	mov    %ebx,%esi
    b5d1:	89 c7                	mov    %eax,%edi
    b5d3:	e8 d6 a5 ff ff       	callq  5bae <safe_mod_func_uint8_t_u_u>
    b5d8:	66 83 bd c4 eb ff ff 	cmpw   $0x0,-0x143c(%rbp)
    b5df:	00 
    b5e0:	74 1a                	je     b5fc <func_15+0x1334>
    b5e2:	48 8d 05 4b 7a 00 00 	lea    0x7a4b(%rip),%rax        # 13034 <g_6>
    b5e9:	48 89 85 d8 ed ff ff 	mov    %rax,-0x1228(%rbp)
    b5f0:	48 8b 85 d8 ed ff ff 	mov    -0x1228(%rbp),%rax
    b5f7:	e9 13 13 00 00       	jmpq   c90f <func_15+0x2647>
    b5fc:	48 8b 95 50 ec ff ff 	mov    -0x13b0(%rbp),%rdx
    b603:	48 8b 05 e6 94 00 00 	mov    0x94e6(%rip),%rax        # 14af0 <g_581>
    b60a:	48 8b 12             	mov    (%rdx),%rdx
    b60d:	48 89 10             	mov    %rdx,(%rax)
    b610:	48 8b 15 e1 94 00 00 	mov    0x94e1(%rip),%rdx        # 14af8 <g_598>
    b617:	48 8b 00             	mov    (%rax),%rax
    b61a:	48 89 02             	mov    %rax,(%rdx)
    b61d:	48 8b 95 90 ec ff ff 	mov    -0x1370(%rbp),%rdx
    b624:	48 8b 85 d0 ec ff ff 	mov    -0x1330(%rbp),%rax
    b62b:	48 89 10             	mov    %rdx,(%rax)
    b62e:	8b 85 ac eb ff ff    	mov    -0x1454(%rbp),%eax
    b634:	0f b7 c0             	movzwl %ax,%eax
    b637:	be f8 ff 00 00       	mov    $0xfff8,%esi
    b63c:	89 c7                	mov    %eax,%edi
    b63e:	e8 fa a6 ff ff       	callq  5d3d <safe_mul_func_uint16_t_u_u>
    b643:	48 8d 05 66 7b 00 00 	lea    0x7b66(%rip),%rax        # 131b0 <g_120>
    b64a:	48 89 85 b0 ec ff ff 	mov    %rax,-0x1350(%rbp)
    b651:	48 8d 85 e0 f7 ff ff 	lea    -0x820(%rbp),%rax
    b658:	48 8d 15 61 40 00 00 	lea    0x4061(%rip),%rdx        # f6c0 <g_1282+0x1660>
    b65f:	b9 6c 00 00 00       	mov    $0x6c,%ecx
    b664:	48 89 c7             	mov    %rax,%rdi
    b667:	48 89 d6             	mov    %rdx,%rsi
    b66a:	f3 48 a5             	rep movsq %ds:(%rsi),%es:(%rdi)
    b66d:	48 8d 85 e4 ed ff ff 	lea    -0x121c(%rbp),%rax
    b674:	48 89 85 b8 ec ff ff 	mov    %rax,-0x1348(%rbp)
    b67b:	48 c7 85 c0 ec ff ff 	movq   $0xfffffffffffffff9,-0x1340(%rbp)
    b682:	f9 ff ff ff 
    b686:	48 c7 85 40 fb ff ff 	movq   $0x0,-0x4c0(%rbp)
    b68d:	00 00 00 00 
    b691:	48 8d 85 e0 f4 ff ff 	lea    -0xb20(%rbp),%rax
    b698:	48 05 90 01 00 00    	add    $0x190,%rax
    b69e:	48 89 85 48 fb ff ff 	mov    %rax,-0x4b8(%rbp)
    b6a5:	48 8d 85 e0 f4 ff ff 	lea    -0xb20(%rbp),%rax
    b6ac:	48 05 d8 00 00 00    	add    $0xd8,%rax
    b6b2:	48 89 85 50 fb ff ff 	mov    %rax,-0x4b0(%rbp)
    b6b9:	48 8d 85 e0 f4 ff ff 	lea    -0xb20(%rbp),%rax
    b6c0:	48 05 70 02 00 00    	add    $0x270,%rax
    b6c6:	48 89 85 58 fb ff ff 	mov    %rax,-0x4a8(%rbp)
    b6cd:	48 8d 85 50 ec ff ff 	lea    -0x13b0(%rbp),%rax
    b6d4:	48 89 85 60 fb ff ff 	mov    %rax,-0x4a0(%rbp)
    b6db:	48 8d 85 e0 f4 ff ff 	lea    -0xb20(%rbp),%rax
    b6e2:	48 05 d8 00 00 00    	add    $0xd8,%rax
    b6e8:	48 89 85 68 fb ff ff 	mov    %rax,-0x498(%rbp)
    b6ef:	48 8d 05 fa 93 00 00 	lea    0x93fa(%rip),%rax        # 14af0 <g_581>
    b6f6:	48 89 85 70 fb ff ff 	mov    %rax,-0x490(%rbp)
    b6fd:	48 8d 85 e0 f4 ff ff 	lea    -0xb20(%rbp),%rax
    b704:	48 05 90 01 00 00    	add    $0x190,%rax
    b70a:	48 89 85 78 fb ff ff 	mov    %rax,-0x488(%rbp)
    b711:	48 8d 05 d8 93 00 00 	lea    0x93d8(%rip),%rax        # 14af0 <g_581>
    b718:	48 89 85 80 fb ff ff 	mov    %rax,-0x480(%rbp)
    b71f:	48 8d 85 e0 f4 ff ff 	lea    -0xb20(%rbp),%rax
    b726:	48 05 d8 00 00 00    	add    $0xd8,%rax
    b72c:	48 89 85 88 fb ff ff 	mov    %rax,-0x478(%rbp)
    b733:	48 c7 85 90 fb ff ff 	movq   $0x0,-0x470(%rbp)
    b73a:	00 00 00 00 
    b73e:	48 8d 85 e0 f4 ff ff 	lea    -0xb20(%rbp),%rax
    b745:	48 83 c0 30          	add    $0x30,%rax
    b749:	48 89 85 98 fb ff ff 	mov    %rax,-0x468(%rbp)
    b750:	48 8d 85 e0 f4 ff ff 	lea    -0xb20(%rbp),%rax
    b757:	48 05 70 02 00 00    	add    $0x270,%rax
    b75d:	48 89 85 a0 fb ff ff 	mov    %rax,-0x460(%rbp)
    b764:	48 8d 85 e0 f4 ff ff 	lea    -0xb20(%rbp),%rax
    b76b:	48 05 70 02 00 00    	add    $0x270,%rax
    b771:	48 89 85 a8 fb ff ff 	mov    %rax,-0x458(%rbp)
    b778:	48 8d 85 e0 f4 ff ff 	lea    -0xb20(%rbp),%rax
    b77f:	48 83 c0 30          	add    $0x30,%rax
    b783:	48 89 85 b0 fb ff ff 	mov    %rax,-0x450(%rbp)
    b78a:	48 c7 85 b8 fb ff ff 	movq   $0x0,-0x448(%rbp)
    b791:	00 00 00 00 
    b795:	48 8d 85 e0 f4 ff ff 	lea    -0xb20(%rbp),%rax
    b79c:	48 83 c0 30          	add    $0x30,%rax
    b7a0:	48 89 85 c0 fb ff ff 	mov    %rax,-0x440(%rbp)
    b7a7:	48 8d 85 e0 f4 ff ff 	lea    -0xb20(%rbp),%rax
    b7ae:	48 83 c0 30          	add    $0x30,%rax
    b7b2:	48 89 85 c8 fb ff ff 	mov    %rax,-0x438(%rbp)
    b7b9:	48 c7 85 d0 fb ff ff 	movq   $0x0,-0x430(%rbp)
    b7c0:	00 00 00 00 
    b7c4:	48 c7 85 d8 fb ff ff 	movq   $0x0,-0x428(%rbp)
    b7cb:	00 00 00 00 
    b7cf:	48 8d 05 1a 93 00 00 	lea    0x931a(%rip),%rax        # 14af0 <g_581>
    b7d6:	48 89 85 e0 fb ff ff 	mov    %rax,-0x420(%rbp)
    b7dd:	48 8d 85 e0 f4 ff ff 	lea    -0xb20(%rbp),%rax
    b7e4:	48 05 30 02 00 00    	add    $0x230,%rax
    b7ea:	48 89 85 e8 fb ff ff 	mov    %rax,-0x418(%rbp)
    b7f1:	48 8d 05 f8 92 00 00 	lea    0x92f8(%rip),%rax        # 14af0 <g_581>
    b7f8:	48 89 85 f0 fb ff ff 	mov    %rax,-0x410(%rbp)
    b7ff:	48 8d 85 e0 f4 ff ff 	lea    -0xb20(%rbp),%rax
    b806:	48 83 c0 70          	add    $0x70,%rax
    b80a:	48 89 85 f8 fb ff ff 	mov    %rax,-0x408(%rbp)
    b811:	48 c7 85 00 fc ff ff 	movq   $0x0,-0x400(%rbp)
    b818:	00 00 00 00 
    b81c:	48 c7 85 08 fc ff ff 	movq   $0x0,-0x3f8(%rbp)
    b823:	00 00 00 00 
    b827:	48 c7 85 10 fc ff ff 	movq   $0x0,-0x3f0(%rbp)
    b82e:	00 00 00 00 
    b832:	48 8d 85 e0 f4 ff ff 	lea    -0xb20(%rbp),%rax
    b839:	48 05 d8 00 00 00    	add    $0xd8,%rax
    b83f:	48 89 85 18 fc ff ff 	mov    %rax,-0x3e8(%rbp)
    b846:	48 8d 85 e0 f4 ff ff 	lea    -0xb20(%rbp),%rax
    b84d:	48 83 c0 70          	add    $0x70,%rax
    b851:	48 89 85 20 fc ff ff 	mov    %rax,-0x3e0(%rbp)
    b858:	48 8d 85 e0 f4 ff ff 	lea    -0xb20(%rbp),%rax
    b85f:	48 05 d8 00 00 00    	add    $0xd8,%rax
    b865:	48 89 85 28 fc ff ff 	mov    %rax,-0x3d8(%rbp)
    b86c:	48 8d 05 7d 92 00 00 	lea    0x927d(%rip),%rax        # 14af0 <g_581>
    b873:	48 89 85 30 fc ff ff 	mov    %rax,-0x3d0(%rbp)
    b87a:	48 8d 85 e0 f4 ff ff 	lea    -0xb20(%rbp),%rax
    b881:	48 83 c0 70          	add    $0x70,%rax
    b885:	48 89 85 38 fc ff ff 	mov    %rax,-0x3c8(%rbp)
    b88c:	48 c7 85 40 fc ff ff 	movq   $0x0,-0x3c0(%rbp)
    b893:	00 00 00 00 
    b897:	48 8d 05 52 92 00 00 	lea    0x9252(%rip),%rax        # 14af0 <g_581>
    b89e:	48 89 85 48 fc ff ff 	mov    %rax,-0x3b8(%rbp)
    b8a5:	48 8d 85 e0 f4 ff ff 	lea    -0xb20(%rbp),%rax
    b8ac:	48 83 c0 30          	add    $0x30,%rax
    b8b0:	48 89 85 50 fc ff ff 	mov    %rax,-0x3b0(%rbp)
    b8b7:	48 c7 85 58 fc ff ff 	movq   $0x0,-0x3a8(%rbp)
    b8be:	00 00 00 00 
    b8c2:	48 8d 85 e0 f4 ff ff 	lea    -0xb20(%rbp),%rax
    b8c9:	48 05 d8 00 00 00    	add    $0xd8,%rax
    b8cf:	48 89 85 60 fc ff ff 	mov    %rax,-0x3a0(%rbp)
    b8d6:	48 c7 85 68 fc ff ff 	movq   $0x0,-0x398(%rbp)
    b8dd:	00 00 00 00 
    b8e1:	48 c7 85 70 fc ff ff 	movq   $0x0,-0x390(%rbp)
    b8e8:	00 00 00 00 
    b8ec:	48 c7 85 78 fc ff ff 	movq   $0x0,-0x388(%rbp)
    b8f3:	00 00 00 00 
    b8f7:	48 c7 85 80 fc ff ff 	movq   $0x0,-0x380(%rbp)
    b8fe:	00 00 00 00 
    b902:	48 8d 85 e0 f4 ff ff 	lea    -0xb20(%rbp),%rax
    b909:	48 83 c0 30          	add    $0x30,%rax
    b90d:	48 89 85 88 fc ff ff 	mov    %rax,-0x378(%rbp)
    b914:	48 8d 85 e0 f4 ff ff 	lea    -0xb20(%rbp),%rax
    b91b:	48 05 30 02 00 00    	add    $0x230,%rax
    b921:	48 89 85 90 fc ff ff 	mov    %rax,-0x370(%rbp)
    b928:	48 8d 85 e0 f4 ff ff 	lea    -0xb20(%rbp),%rax
    b92f:	48 83 c0 30          	add    $0x30,%rax
    b933:	48 89 85 98 fc ff ff 	mov    %rax,-0x368(%rbp)
    b93a:	48 c7 85 a0 fc ff ff 	movq   $0x0,-0x360(%rbp)
    b941:	00 00 00 00 
    b945:	48 c7 85 a8 fc ff ff 	movq   $0x0,-0x358(%rbp)
    b94c:	00 00 00 00 
    b950:	48 8d 85 50 ec ff ff 	lea    -0x13b0(%rbp),%rax
    b957:	48 89 85 b0 fc ff ff 	mov    %rax,-0x350(%rbp)
    b95e:	48 8d 85 e0 f4 ff ff 	lea    -0xb20(%rbp),%rax
    b965:	48 05 90 01 00 00    	add    $0x190,%rax
    b96b:	48 89 85 b8 fc ff ff 	mov    %rax,-0x348(%rbp)
    b972:	48 c7 85 c0 fc ff ff 	movq   $0x0,-0x340(%rbp)
    b979:	00 00 00 00 
    b97d:	48 8d 05 6c 91 00 00 	lea    0x916c(%rip),%rax        # 14af0 <g_581>
    b984:	48 89 85 c8 fc ff ff 	mov    %rax,-0x338(%rbp)
    b98b:	48 8d 85 e0 f4 ff ff 	lea    -0xb20(%rbp),%rax
    b992:	48 05 48 02 00 00    	add    $0x248,%rax
    b998:	48 89 85 d0 fc ff ff 	mov    %rax,-0x330(%rbp)
    b99f:	48 8d 85 e0 f4 ff ff 	lea    -0xb20(%rbp),%rax
    b9a6:	48 05 70 02 00 00    	add    $0x270,%rax
    b9ac:	48 89 85 d8 fc ff ff 	mov    %rax,-0x328(%rbp)
    b9b3:	48 8d 05 36 91 00 00 	lea    0x9136(%rip),%rax        # 14af0 <g_581>
    b9ba:	48 89 85 e0 fc ff ff 	mov    %rax,-0x320(%rbp)
    b9c1:	48 c7 85 e8 fc ff ff 	movq   $0x0,-0x318(%rbp)
    b9c8:	00 00 00 00 
    b9cc:	48 8d 85 e0 f4 ff ff 	lea    -0xb20(%rbp),%rax
    b9d3:	48 05 d8 00 00 00    	add    $0xd8,%rax
    b9d9:	48 89 85 f0 fc ff ff 	mov    %rax,-0x310(%rbp)
    b9e0:	48 8d 85 e0 f4 ff ff 	lea    -0xb20(%rbp),%rax
    b9e7:	48 83 c0 30          	add    $0x30,%rax
    b9eb:	48 89 85 f8 fc ff ff 	mov    %rax,-0x308(%rbp)
    b9f2:	48 8d 85 50 ec ff ff 	lea    -0x13b0(%rbp),%rax
    b9f9:	48 89 85 00 fd ff ff 	mov    %rax,-0x300(%rbp)
    ba00:	48 8d 05 e9 90 00 00 	lea    0x90e9(%rip),%rax        # 14af0 <g_581>
    ba07:	48 89 85 08 fd ff ff 	mov    %rax,-0x2f8(%rbp)
    ba0e:	48 8d 85 e0 f4 ff ff 	lea    -0xb20(%rbp),%rax
    ba15:	48 05 48 02 00 00    	add    $0x248,%rax
    ba1b:	48 89 85 10 fd ff ff 	mov    %rax,-0x2f0(%rbp)
    ba22:	48 8d 85 e0 f4 ff ff 	lea    -0xb20(%rbp),%rax
    ba29:	48 83 c0 30          	add    $0x30,%rax
    ba2d:	48 89 85 18 fd ff ff 	mov    %rax,-0x2e8(%rbp)
    ba34:	48 8d 85 e0 f4 ff ff 	lea    -0xb20(%rbp),%rax
    ba3b:	48 05 70 02 00 00    	add    $0x270,%rax
    ba41:	48 89 85 20 fd ff ff 	mov    %rax,-0x2e0(%rbp)
    ba48:	48 8d 85 e0 f4 ff ff 	lea    -0xb20(%rbp),%rax
    ba4f:	48 83 c0 30          	add    $0x30,%rax
    ba53:	48 89 85 28 fd ff ff 	mov    %rax,-0x2d8(%rbp)
    ba5a:	48 8d 85 50 ec ff ff 	lea    -0x13b0(%rbp),%rax
    ba61:	48 89 85 30 fd ff ff 	mov    %rax,-0x2d0(%rbp)
    ba68:	48 c7 85 38 fd ff ff 	movq   $0x0,-0x2c8(%rbp)
    ba6f:	00 00 00 00 
    ba73:	48 8d 05 76 90 00 00 	lea    0x9076(%rip),%rax        # 14af0 <g_581>
    ba7a:	48 89 85 40 fd ff ff 	mov    %rax,-0x2c0(%rbp)
    ba81:	48 c7 85 48 fd ff ff 	movq   $0x0,-0x2b8(%rbp)
    ba88:	00 00 00 00 
    ba8c:	48 8d 85 e0 f4 ff ff 	lea    -0xb20(%rbp),%rax
    ba93:	48 05 30 02 00 00    	add    $0x230,%rax
    ba99:	48 89 85 50 fd ff ff 	mov    %rax,-0x2b0(%rbp)
    baa0:	48 8d 85 e0 f4 ff ff 	lea    -0xb20(%rbp),%rax
    baa7:	48 05 90 01 00 00    	add    $0x190,%rax
    baad:	48 89 85 58 fd ff ff 	mov    %rax,-0x2a8(%rbp)
    bab4:	48 8d 85 e0 f4 ff ff 	lea    -0xb20(%rbp),%rax
    babb:	48 05 90 01 00 00    	add    $0x190,%rax
    bac1:	48 89 85 60 fd ff ff 	mov    %rax,-0x2a0(%rbp)
    bac8:	48 8d 85 e0 f4 ff ff 	lea    -0xb20(%rbp),%rax
    bacf:	48 05 30 02 00 00    	add    $0x230,%rax
    bad5:	48 89 85 68 fd ff ff 	mov    %rax,-0x298(%rbp)
    badc:	48 c7 85 70 fd ff ff 	movq   $0x0,-0x290(%rbp)
    bae3:	00 00 00 00 
    bae7:	48 8d 05 02 90 00 00 	lea    0x9002(%rip),%rax        # 14af0 <g_581>
    baee:	48 89 85 78 fd ff ff 	mov    %rax,-0x288(%rbp)
    baf5:	48 c7 85 80 fd ff ff 	movq   $0x0,-0x280(%rbp)
    bafc:	00 00 00 00 
    bb00:	48 8d 85 50 ec ff ff 	lea    -0x13b0(%rbp),%rax
    bb07:	48 89 85 88 fd ff ff 	mov    %rax,-0x278(%rbp)
    bb0e:	48 8d 85 e0 f4 ff ff 	lea    -0xb20(%rbp),%rax
    bb15:	48 83 c0 30          	add    $0x30,%rax
    bb19:	48 89 85 90 fd ff ff 	mov    %rax,-0x270(%rbp)
    bb20:	48 8d 85 e0 f4 ff ff 	lea    -0xb20(%rbp),%rax
    bb27:	48 05 70 02 00 00    	add    $0x270,%rax
    bb2d:	48 89 85 98 fd ff ff 	mov    %rax,-0x268(%rbp)
    bb34:	48 8d 85 e0 f4 ff ff 	lea    -0xb20(%rbp),%rax
    bb3b:	48 83 c0 30          	add    $0x30,%rax
    bb3f:	48 89 85 a0 fd ff ff 	mov    %rax,-0x260(%rbp)
    bb46:	48 8d 85 e0 f4 ff ff 	lea    -0xb20(%rbp),%rax
    bb4d:	48 05 48 02 00 00    	add    $0x248,%rax
    bb53:	48 89 85 a8 fd ff ff 	mov    %rax,-0x258(%rbp)
    bb5a:	48 8d 05 8f 8f 00 00 	lea    0x8f8f(%rip),%rax        # 14af0 <g_581>
    bb61:	48 89 85 b0 fd ff ff 	mov    %rax,-0x250(%rbp)
    bb68:	48 8d 85 50 ec ff ff 	lea    -0x13b0(%rbp),%rax
    bb6f:	48 89 85 b8 fd ff ff 	mov    %rax,-0x248(%rbp)
    bb76:	48 8d 85 e0 f4 ff ff 	lea    -0xb20(%rbp),%rax
    bb7d:	48 83 c0 30          	add    $0x30,%rax
    bb81:	48 89 85 c0 fd ff ff 	mov    %rax,-0x240(%rbp)
    bb88:	48 8d 85 e0 f4 ff ff 	lea    -0xb20(%rbp),%rax
    bb8f:	48 05 d8 00 00 00    	add    $0xd8,%rax
    bb95:	48 89 85 c8 fd ff ff 	mov    %rax,-0x238(%rbp)
    bb9c:	48 c7 85 d0 fd ff ff 	movq   $0x0,-0x230(%rbp)
    bba3:	00 00 00 00 
    bba7:	48 8d 05 42 8f 00 00 	lea    0x8f42(%rip),%rax        # 14af0 <g_581>
    bbae:	48 89 85 d8 fd ff ff 	mov    %rax,-0x228(%rbp)
    bbb5:	48 8d 85 e0 f4 ff ff 	lea    -0xb20(%rbp),%rax
    bbbc:	48 05 70 02 00 00    	add    $0x270,%rax
    bbc2:	48 89 85 e0 fd ff ff 	mov    %rax,-0x220(%rbp)
    bbc9:	48 8d 85 e0 f4 ff ff 	lea    -0xb20(%rbp),%rax
    bbd0:	48 05 48 02 00 00    	add    $0x248,%rax
    bbd6:	48 89 85 e8 fd ff ff 	mov    %rax,-0x218(%rbp)
    bbdd:	48 8d 05 0c 8f 00 00 	lea    0x8f0c(%rip),%rax        # 14af0 <g_581>
    bbe4:	48 89 85 f0 fd ff ff 	mov    %rax,-0x210(%rbp)
    bbeb:	48 c7 85 f8 fd ff ff 	movq   $0x0,-0x208(%rbp)
    bbf2:	00 00 00 00 
    bbf6:	48 8d 85 e0 f4 ff ff 	lea    -0xb20(%rbp),%rax
    bbfd:	48 05 90 01 00 00    	add    $0x190,%rax
    bc03:	48 89 85 00 fe ff ff 	mov    %rax,-0x200(%rbp)
    bc0a:	48 8d 85 50 ec ff ff 	lea    -0x13b0(%rbp),%rax
    bc11:	48 89 85 08 fe ff ff 	mov    %rax,-0x1f8(%rbp)
    bc18:	48 c7 85 10 fe ff ff 	movq   $0x0,-0x1f0(%rbp)
    bc1f:	00 00 00 00 
    bc23:	48 c7 85 18 fe ff ff 	movq   $0x0,-0x1e8(%rbp)
    bc2a:	00 00 00 00 
    bc2e:	48 8d 85 e0 f4 ff ff 	lea    -0xb20(%rbp),%rax
    bc35:	48 83 c0 30          	add    $0x30,%rax
    bc39:	48 89 85 20 fe ff ff 	mov    %rax,-0x1e0(%rbp)
    bc40:	48 8d 85 e0 f4 ff ff 	lea    -0xb20(%rbp),%rax
    bc47:	48 05 30 02 00 00    	add    $0x230,%rax
    bc4d:	48 89 85 28 fe ff ff 	mov    %rax,-0x1d8(%rbp)
    bc54:	48 8d 85 e0 f4 ff ff 	lea    -0xb20(%rbp),%rax
    bc5b:	48 83 c0 30          	add    $0x30,%rax
    bc5f:	48 89 85 30 fe ff ff 	mov    %rax,-0x1d0(%rbp)
    bc66:	48 c7 85 38 fe ff ff 	movq   $0x0,-0x1c8(%rbp)
    bc6d:	00 00 00 00 
    bc71:	48 c7 85 40 fe ff ff 	movq   $0x0,-0x1c0(%rbp)
    bc78:	00 00 00 00 
    bc7c:	48 c7 85 48 fe ff ff 	movq   $0x0,-0x1b8(%rbp)
    bc83:	00 00 00 00 
    bc87:	48 c7 85 50 fe ff ff 	movq   $0x0,-0x1b0(%rbp)
    bc8e:	00 00 00 00 
    bc92:	48 8d 85 e0 f4 ff ff 	lea    -0xb20(%rbp),%rax
    bc99:	48 05 d8 00 00 00    	add    $0xd8,%rax
    bc9f:	48 89 85 58 fe ff ff 	mov    %rax,-0x1a8(%rbp)
    bca6:	48 c7 85 60 fe ff ff 	movq   $0x0,-0x1a0(%rbp)
    bcad:	00 00 00 00 
    bcb1:	48 8d 85 e0 f4 ff ff 	lea    -0xb20(%rbp),%rax
    bcb8:	48 83 c0 30          	add    $0x30,%rax
    bcbc:	48 89 85 68 fe ff ff 	mov    %rax,-0x198(%rbp)
    bcc3:	48 8d 05 26 8e 00 00 	lea    0x8e26(%rip),%rax        # 14af0 <g_581>
    bcca:	48 89 85 70 fe ff ff 	mov    %rax,-0x190(%rbp)
    bcd1:	48 c7 85 78 fe ff ff 	movq   $0x0,-0x188(%rbp)
    bcd8:	00 00 00 00 
    bcdc:	48 8d 85 e0 f4 ff ff 	lea    -0xb20(%rbp),%rax
    bce3:	48 83 c0 70          	add    $0x70,%rax
    bce7:	48 89 85 80 fe ff ff 	mov    %rax,-0x180(%rbp)
    bcee:	48 8d 05 fb 8d 00 00 	lea    0x8dfb(%rip),%rax        # 14af0 <g_581>
    bcf5:	48 89 85 88 fe ff ff 	mov    %rax,-0x178(%rbp)
    bcfc:	48 8d 85 e0 f4 ff ff 	lea    -0xb20(%rbp),%rax
    bd03:	48 05 d8 00 00 00    	add    $0xd8,%rax
    bd09:	48 89 85 90 fe ff ff 	mov    %rax,-0x170(%rbp)
    bd10:	48 8d 85 e0 f4 ff ff 	lea    -0xb20(%rbp),%rax
    bd17:	48 83 c0 70          	add    $0x70,%rax
    bd1b:	48 89 85 98 fe ff ff 	mov    %rax,-0x168(%rbp)
    bd22:	48 8d 85 e0 f4 ff ff 	lea    -0xb20(%rbp),%rax
    bd29:	48 05 d8 00 00 00    	add    $0xd8,%rax
    bd2f:	48 89 85 a0 fe ff ff 	mov    %rax,-0x160(%rbp)
    bd36:	48 c7 85 a8 fe ff ff 	movq   $0x0,-0x158(%rbp)
    bd3d:	00 00 00 00 
    bd41:	48 c7 85 b0 fe ff ff 	movq   $0x0,-0x150(%rbp)
    bd48:	00 00 00 00 
    bd4c:	48 c7 85 b8 fe ff ff 	movq   $0x0,-0x148(%rbp)
    bd53:	00 00 00 00 
    bd57:	48 8d 85 e0 f4 ff ff 	lea    -0xb20(%rbp),%rax
    bd5e:	48 83 c0 70          	add    $0x70,%rax
    bd62:	48 89 85 c0 fe ff ff 	mov    %rax,-0x140(%rbp)
    bd69:	48 8d 05 80 8d 00 00 	lea    0x8d80(%rip),%rax        # 14af0 <g_581>
    bd70:	48 89 85 c8 fe ff ff 	mov    %rax,-0x138(%rbp)
    bd77:	48 8d 85 e0 f4 ff ff 	lea    -0xb20(%rbp),%rax
    bd7e:	48 05 30 02 00 00    	add    $0x230,%rax
    bd84:	48 89 85 d0 fe ff ff 	mov    %rax,-0x130(%rbp)
    bd8b:	48 8d 05 5e 8d 00 00 	lea    0x8d5e(%rip),%rax        # 14af0 <g_581>
    bd92:	48 89 85 d8 fe ff ff 	mov    %rax,-0x128(%rbp)
    bd99:	48 c7 85 e0 fe ff ff 	movq   $0x0,-0x120(%rbp)
    bda0:	00 00 00 00 
    bda4:	48 c7 85 e8 fe ff ff 	movq   $0x0,-0x118(%rbp)
    bdab:	00 00 00 00 
    bdaf:	48 8d 85 e0 f4 ff ff 	lea    -0xb20(%rbp),%rax
    bdb6:	48 83 c0 30          	add    $0x30,%rax
    bdba:	48 89 85 f0 fe ff ff 	mov    %rax,-0x110(%rbp)
    bdc1:	48 8d 85 e0 f4 ff ff 	lea    -0xb20(%rbp),%rax
    bdc8:	48 83 c0 30          	add    $0x30,%rax
    bdcc:	48 89 85 f8 fe ff ff 	mov    %rax,-0x108(%rbp)
    bdd3:	48 8b 85 a0 eb ff ff 	mov    -0x1460(%rbp),%rax
    bdda:	8b 00                	mov    (%rax),%eax
    bddc:	89 c3                	mov    %eax,%ebx
    bdde:	0f b6 85 a8 eb ff ff 	movzbl -0x1458(%rbp),%eax
    bde5:	0f be c0             	movsbl %al,%eax
    bde8:	89 85 50 ee ff ff    	mov    %eax,-0x11b0(%rbp)
    bdee:	8b 95 50 ee ff ff    	mov    -0x11b0(%rbp),%edx
    bdf4:	48 8b 85 b0 ec ff ff 	mov    -0x1350(%rbp),%rax
    bdfb:	89 10                	mov    %edx,(%rax)
    bdfd:	8b 85 4c f9 ff ff    	mov    -0x6b4(%rbp),%eax
    be03:	85 c0                	test   %eax,%eax
    be05:	74 59                	je     be60 <func_15+0x1b98>
    be07:	48 83 bd 90 ed ff ff 	cmpq   $0x0,-0x1270(%rbp)
    be0e:	00 
    be0f:	0f 95 c0             	setne  %al
    be12:	0f b6 d0             	movzbl %al,%edx
    be15:	48 8b 05 04 8d 00 00 	mov    0x8d04(%rip),%rax        # 14b20 <g_644>
    be1c:	48 8b 00             	mov    (%rax),%rax
    be1f:	0f b6 00             	movzbl (%rax),%eax
    be22:	3c 11                	cmp    $0x11,%al
    be24:	0f 9e c1             	setle  %cl
    be27:	48 8b 05 ea 8c 00 00 	mov    0x8cea(%rip),%rax        # 14b18 <g_645>
    be2e:	88 08                	mov    %cl,(%rax)
    be30:	0f b6 00             	movzbl (%rax),%eax
    be33:	0f be c0             	movsbl %al,%eax
    be36:	89 d6                	mov    %edx,%esi
    be38:	89 c7                	mov    %eax,%edi
    be3a:	e8 95 93 ff ff       	callq  51d4 <safe_add_func_int8_t_s_s>
    be3f:	0f be c0             	movsbl %al,%eax
    be42:	be 02 00 00 00       	mov    $0x2,%esi
    be47:	89 c7                	mov    %eax,%edi
    be49:	e8 e7 94 ff ff       	callq  5335 <safe_rshift_func_int8_t_s_s>
    be4e:	48 8b 05 53 89 00 00 	mov    0x8953(%rip),%rax        # 147a8 <g_213>
    be55:	48 8b 00             	mov    (%rax),%rax
    be58:	48 8b 00             	mov    (%rax),%rax
    be5b:	48 85 c0             	test   %rax,%rax
    be5e:	75 07                	jne    be67 <func_15+0x1b9f>
    be60:	b8 01 00 00 00       	mov    $0x1,%eax
    be65:	eb 05                	jmp    be6c <func_15+0x1ba4>
    be67:	b8 00 00 00 00       	mov    $0x0,%eax
    be6c:	98                   	cwtl   
    be6d:	be 01 00 00 00       	mov    $0x1,%esi
    be72:	89 c7                	mov    %eax,%edi
    be74:	e8 7c 95 ff ff       	callq  53f5 <safe_mul_func_int16_t_s_s>
    be79:	98                   	cwtl   
    be7a:	be ed 7e 00 00       	mov    $0x7eed,%esi
    be7f:	89 c7                	mov    %eax,%edi
    be81:	e8 90 95 ff ff       	callq  5416 <safe_mod_func_int16_t_s_s>
    be86:	98                   	cwtl   
    be87:	89 de                	mov    %ebx,%esi
    be89:	89 c7                	mov    %eax,%edi
    be8b:	e8 95 a0 ff ff       	callq  5f25 <safe_div_func_uint32_t_u_u>
    be90:	8b 85 48 f9 ff ff    	mov    -0x6b8(%rbp),%eax
    be96:	83 f8 08             	cmp    $0x8,%eax
    be99:	0f 84 fb 04 00 00    	je     c39a <func_15+0x20d2>
    be9f:	48 c7 85 d0 ed ff ff 	movq   $0x0,-0x1230(%rbp)
    bea6:	00 00 00 00 
    beaa:	48 8d 85 70 ec ff ff 	lea    -0x1390(%rbp),%rax
    beb1:	48 89 85 b0 f2 ff ff 	mov    %rax,-0xd50(%rbp)
    beb8:	48 8d 05 51 88 00 00 	lea    0x8851(%rip),%rax        # 14710 <g_157+0x2b0>
    bebf:	48 89 85 b8 f2 ff ff 	mov    %rax,-0xd48(%rbp)
    bec6:	48 8d 05 0b 88 00 00 	lea    0x880b(%rip),%rax        # 146d8 <g_157+0x278>
    becd:	48 89 85 c0 f2 ff ff 	mov    %rax,-0xd40(%rbp)
    bed4:	48 c7 85 c8 f2 ff ff 	movq   $0x0,-0xd38(%rbp)
    bedb:	00 00 00 00 
    bedf:	48 c7 85 d0 f2 ff ff 	movq   $0x0,-0xd30(%rbp)
    bee6:	00 00 00 00 
    beea:	48 8d 85 70 ec ff ff 	lea    -0x1390(%rbp),%rax
    bef1:	48 89 85 d8 f2 ff ff 	mov    %rax,-0xd28(%rbp)
    bef8:	48 8d 05 11 88 00 00 	lea    0x8811(%rip),%rax        # 14710 <g_157+0x2b0>
    beff:	48 89 85 e0 f2 ff ff 	mov    %rax,-0xd20(%rbp)
    bf06:	48 8d 05 b3 86 00 00 	lea    0x86b3(%rip),%rax        # 145c0 <g_157+0x160>
    bf0d:	48 89 85 e8 f2 ff ff 	mov    %rax,-0xd18(%rbp)
    bf14:	48 8d 05 f5 87 00 00 	lea    0x87f5(%rip),%rax        # 14710 <g_157+0x2b0>
    bf1b:	48 89 85 f0 f2 ff ff 	mov    %rax,-0xd10(%rbp)
    bf22:	48 8d 85 70 ec ff ff 	lea    -0x1390(%rbp),%rax
    bf29:	48 89 85 f8 f2 ff ff 	mov    %rax,-0xd08(%rbp)
    bf30:	48 c7 85 00 f3 ff ff 	movq   $0x0,-0xd00(%rbp)
    bf37:	00 00 00 00 
    bf3b:	48 8d 05 ce 87 00 00 	lea    0x87ce(%rip),%rax        # 14710 <g_157+0x2b0>
    bf42:	48 89 85 08 f3 ff ff 	mov    %rax,-0xcf8(%rbp)
    bf49:	48 8d 05 48 85 00 00 	lea    0x8548(%rip),%rax        # 14498 <g_157+0x38>
    bf50:	48 89 85 10 f3 ff ff 	mov    %rax,-0xcf0(%rbp)
    bf57:	48 c7 85 18 f3 ff ff 	movq   $0x0,-0xce8(%rbp)
    bf5e:	00 00 00 00 
    bf62:	48 8d 85 70 ec ff ff 	lea    -0x1390(%rbp),%rax
    bf69:	48 89 85 20 f3 ff ff 	mov    %rax,-0xce0(%rbp)
    bf70:	48 c7 85 28 f3 ff ff 	movq   $0x0,-0xcd8(%rbp)
    bf77:	00 00 00 00 
    bf7b:	48 8d 05 8e 87 00 00 	lea    0x878e(%rip),%rax        # 14710 <g_157+0x2b0>
    bf82:	48 89 85 30 f3 ff ff 	mov    %rax,-0xcd0(%rbp)
    bf89:	48 8d 05 80 87 00 00 	lea    0x8780(%rip),%rax        # 14710 <g_157+0x2b0>
    bf90:	48 89 85 38 f3 ff ff 	mov    %rax,-0xcc8(%rbp)
    bf97:	48 8d 05 72 87 00 00 	lea    0x8772(%rip),%rax        # 14710 <g_157+0x2b0>
    bf9e:	48 89 85 40 f3 ff ff 	mov    %rax,-0xcc0(%rbp)
    bfa5:	48 c7 85 48 f3 ff ff 	movq   $0x0,-0xcb8(%rbp)
    bfac:	00 00 00 00 
    bfb0:	48 8d 85 70 ec ff ff 	lea    -0x1390(%rbp),%rax
    bfb7:	48 89 85 50 f3 ff ff 	mov    %rax,-0xcb0(%rbp)
    bfbe:	48 c7 85 58 f3 ff ff 	movq   $0x0,-0xca8(%rbp)
    bfc5:	00 00 00 00 
    bfc9:	48 c7 85 60 f3 ff ff 	movq   $0x0,-0xca0(%rbp)
    bfd0:	00 00 00 00 
    bfd4:	48 c7 85 68 f3 ff ff 	movq   $0x0,-0xc98(%rbp)
    bfdb:	00 00 00 00 
    bfdf:	48 8d 85 70 ec ff ff 	lea    -0x1390(%rbp),%rax
    bfe6:	48 89 85 70 f3 ff ff 	mov    %rax,-0xc90(%rbp)
    bfed:	48 c7 85 78 f3 ff ff 	movq   $0x0,-0xc88(%rbp)
    bff4:	00 00 00 00 
    bff8:	48 8d 05 e1 85 00 00 	lea    0x85e1(%rip),%rax        # 145e0 <g_157+0x180>
    bfff:	48 89 85 80 f3 ff ff 	mov    %rax,-0xc80(%rbp)
    c006:	48 c7 85 88 f3 ff ff 	movq   $0x0,-0xc78(%rbp)
    c00d:	00 00 00 00 
    c011:	48 c7 85 90 f3 ff ff 	movq   $0x0,-0xc70(%rbp)
    c018:	00 00 00 00 
    c01c:	48 8d 85 70 ec ff ff 	lea    -0x1390(%rbp),%rax
    c023:	48 89 85 98 f3 ff ff 	mov    %rax,-0xc68(%rbp)
    c02a:	48 c7 85 a0 f3 ff ff 	movq   $0x0,-0xc60(%rbp)
    c031:	00 00 00 00 
    c035:	48 8d 05 d4 86 00 00 	lea    0x86d4(%rip),%rax        # 14710 <g_157+0x2b0>
    c03c:	48 89 85 a8 f3 ff ff 	mov    %rax,-0xc58(%rbp)
    c043:	48 c7 85 b0 f3 ff ff 	movq   $0x0,-0xc50(%rbp)
    c04a:	00 00 00 00 
    c04e:	48 8d 85 70 ec ff ff 	lea    -0x1390(%rbp),%rax
    c055:	48 89 85 b8 f3 ff ff 	mov    %rax,-0xc48(%rbp)
    c05c:	48 8d 85 70 ec ff ff 	lea    -0x1390(%rbp),%rax
    c063:	48 89 85 c0 f3 ff ff 	mov    %rax,-0xc40(%rbp)
    c06a:	48 8d 85 70 ec ff ff 	lea    -0x1390(%rbp),%rax
    c071:	48 89 85 c8 f3 ff ff 	mov    %rax,-0xc38(%rbp)
    c078:	48 c7 85 d0 f3 ff ff 	movq   $0x0,-0xc30(%rbp)
    c07f:	00 00 00 00 
    c083:	48 8d 05 86 86 00 00 	lea    0x8686(%rip),%rax        # 14710 <g_157+0x2b0>
    c08a:	48 89 85 d8 f3 ff ff 	mov    %rax,-0xc28(%rbp)
    c091:	48 8d 05 78 86 00 00 	lea    0x8678(%rip),%rax        # 14710 <g_157+0x2b0>
    c098:	48 89 85 e0 f3 ff ff 	mov    %rax,-0xc20(%rbp)
    c09f:	48 8d 85 70 ec ff ff 	lea    -0x1390(%rbp),%rax
    c0a6:	48 89 85 e8 f3 ff ff 	mov    %rax,-0xc18(%rbp)
    c0ad:	48 8d 05 5c 86 00 00 	lea    0x865c(%rip),%rax        # 14710 <g_157+0x2b0>
    c0b4:	48 89 85 f0 f3 ff ff 	mov    %rax,-0xc10(%rbp)
    c0bb:	48 8d 05 4e 86 00 00 	lea    0x864e(%rip),%rax        # 14710 <g_157+0x2b0>
    c0c2:	48 89 85 f8 f3 ff ff 	mov    %rax,-0xc08(%rbp)
    c0c9:	48 8d 85 70 ec ff ff 	lea    -0x1390(%rbp),%rax
    c0d0:	48 89 85 00 f4 ff ff 	mov    %rax,-0xc00(%rbp)
    c0d7:	48 c7 85 08 f4 ff ff 	movq   $0x0,-0xbf8(%rbp)
    c0de:	00 00 00 00 
    c0e2:	48 8d 05 f7 84 00 00 	lea    0x84f7(%rip),%rax        # 145e0 <g_157+0x180>
    c0e9:	48 89 85 10 f4 ff ff 	mov    %rax,-0xbf0(%rbp)
    c0f0:	48 8d 05 19 86 00 00 	lea    0x8619(%rip),%rax        # 14710 <g_157+0x2b0>
    c0f7:	48 89 85 18 f4 ff ff 	mov    %rax,-0xbe8(%rbp)
    c0fe:	48 c7 85 20 f4 ff ff 	movq   $0x0,-0xbe0(%rbp)
    c105:	00 00 00 00 
    c109:	48 8d 85 70 ec ff ff 	lea    -0x1390(%rbp),%rax
    c110:	48 89 85 28 f4 ff ff 	mov    %rax,-0xbd8(%rbp)
    c117:	48 8d 05 f2 85 00 00 	lea    0x85f2(%rip),%rax        # 14710 <g_157+0x2b0>
    c11e:	48 89 85 30 f4 ff ff 	mov    %rax,-0xbd0(%rbp)
    c125:	48 c7 85 38 f4 ff ff 	movq   $0x0,-0xbc8(%rbp)
    c12c:	00 00 00 00 
    c130:	48 8d 85 70 ec ff ff 	lea    -0x1390(%rbp),%rax
    c137:	48 89 85 40 f4 ff ff 	mov    %rax,-0xbc0(%rbp)
    c13e:	48 8d 05 53 84 00 00 	lea    0x8453(%rip),%rax        # 14598 <g_157+0x138>
    c145:	48 89 85 48 f4 ff ff 	mov    %rax,-0xbb8(%rbp)
    c14c:	48 8d 05 2d 84 00 00 	lea    0x842d(%rip),%rax        # 14580 <g_157+0x120>
    c153:	48 89 85 50 f4 ff ff 	mov    %rax,-0xbb0(%rbp)
    c15a:	48 c7 85 58 f4 ff ff 	movq   $0x0,-0xba8(%rbp)
    c161:	00 00 00 00 
    c165:	48 8d 05 a4 85 00 00 	lea    0x85a4(%rip),%rax        # 14710 <g_157+0x2b0>
    c16c:	48 89 85 60 f4 ff ff 	mov    %rax,-0xba0(%rbp)
    c173:	48 8d 05 96 85 00 00 	lea    0x8596(%rip),%rax        # 14710 <g_157+0x2b0>
    c17a:	48 89 85 68 f4 ff ff 	mov    %rax,-0xb98(%rbp)
    c181:	48 c7 85 70 f4 ff ff 	movq   $0x0,-0xb90(%rbp)
    c188:	00 00 00 00 
    c18c:	48 8d 05 ed 83 00 00 	lea    0x83ed(%rip),%rax        # 14580 <g_157+0x120>
    c193:	48 89 85 78 f4 ff ff 	mov    %rax,-0xb88(%rbp)
    c19a:	48 8d 05 f7 83 00 00 	lea    0x83f7(%rip),%rax        # 14598 <g_157+0x138>
    c1a1:	48 89 85 80 f4 ff ff 	mov    %rax,-0xb80(%rbp)
    c1a8:	48 8d 85 70 ec ff ff 	lea    -0x1390(%rbp),%rax
    c1af:	48 89 85 88 f4 ff ff 	mov    %rax,-0xb78(%rbp)
    c1b6:	48 8d 85 70 ec ff ff 	lea    -0x1390(%rbp),%rax
    c1bd:	48 89 85 90 f4 ff ff 	mov    %rax,-0xb70(%rbp)
    c1c4:	48 8d 05 ed 82 00 00 	lea    0x82ed(%rip),%rax        # 144b8 <g_157+0x58>
    c1cb:	48 89 85 98 f4 ff ff 	mov    %rax,-0xb68(%rbp)
    c1d2:	48 c7 85 a0 f4 ff ff 	movq   $0x0,-0xb60(%rbp)
    c1d9:	00 00 00 00 
    c1dd:	48 8d 05 2c 85 00 00 	lea    0x852c(%rip),%rax        # 14710 <g_157+0x2b0>
    c1e4:	48 89 85 a8 f4 ff ff 	mov    %rax,-0xb58(%rbp)
    c1eb:	48 8d 85 70 ec ff ff 	lea    -0x1390(%rbp),%rax
    c1f2:	48 89 85 b0 f4 ff ff 	mov    %rax,-0xb50(%rbp)
    c1f9:	48 8d 05 10 85 00 00 	lea    0x8510(%rip),%rax        # 14710 <g_157+0x2b0>
    c200:	48 89 85 b8 f4 ff ff 	mov    %rax,-0xb48(%rbp)
    c207:	48 8d 05 7a 84 00 00 	lea    0x847a(%rip),%rax        # 14688 <g_157+0x228>
    c20e:	48 89 85 c0 f4 ff ff 	mov    %rax,-0xb40(%rbp)
    c215:	48 8d 05 64 83 00 00 	lea    0x8364(%rip),%rax        # 14580 <g_157+0x120>
    c21c:	48 89 85 c8 f4 ff ff 	mov    %rax,-0xb38(%rbp)
    c223:	48 8d 05 8e 82 00 00 	lea    0x828e(%rip),%rax        # 144b8 <g_157+0x58>
    c22a:	48 89 85 d0 f4 ff ff 	mov    %rax,-0xb30(%rbp)
    c231:	48 8d 85 70 ec ff ff 	lea    -0x1390(%rbp),%rax
    c238:	48 89 85 d8 f4 ff ff 	mov    %rax,-0xb28(%rbp)
    c23f:	48 8b 85 a0 eb ff ff 	mov    -0x1460(%rbp),%rax
    c246:	8b 00                	mov    (%rax),%eax
    c248:	41 89 c5             	mov    %eax,%r13d
    c24b:	8b 9d 4c f9 ff ff    	mov    -0x6b4(%rbp),%ebx
    c251:	8b 85 4c f9 ff ff    	mov    -0x6b4(%rbp),%eax
    c257:	44 0f b7 e0          	movzwl %ax,%r12d
    c25b:	8b 85 48 f9 ff ff    	mov    -0x6b8(%rbp),%eax
    c261:	41 89 c6             	mov    %eax,%r14d
    c264:	48 8b 05 d5 88 00 00 	mov    0x88d5(%rip),%rax        # 14b40 <g_857>
    c26b:	48 8b 00             	mov    (%rax),%rax
    c26e:	48 8b 00             	mov    (%rax),%rax
    c271:	0b 85 ac eb ff ff    	or     -0x1454(%rbp),%eax
    c277:	89 c2                	mov    %eax,%edx
    c279:	0f bf 85 c2 eb ff ff 	movswl -0x143e(%rbp),%eax
    c280:	89 d6                	mov    %edx,%esi
    c282:	89 c7                	mov    %eax,%edi
    c284:	e8 43 94 ff ff       	callq  56cc <safe_mod_func_int32_t_s_s>
    c289:	be 01 00 00 00       	mov    $0x1,%esi
    c28e:	bf 01 00 00 00       	mov    $0x1,%edi
    c293:	e8 5d 91 ff ff       	callq  53f5 <safe_mul_func_int16_t_s_s>
    c298:	0f be c0             	movsbl %al,%eax
    c29b:	be 01 00 00 00       	mov    $0x1,%esi
    c2a0:	89 c7                	mov    %eax,%edi
    c2a2:	e8 2d 8f ff ff       	callq  51d4 <safe_add_func_int8_t_s_s>
    c2a7:	0f b6 95 a8 eb ff ff 	movzbl -0x1458(%rbp),%edx
    c2ae:	38 d0                	cmp    %dl,%al
    c2b0:	0f 9d c0             	setge  %al
    c2b3:	89 c2                	mov    %eax,%edx
    c2b5:	8b 85 ac eb ff ff    	mov    -0x1454(%rbp),%eax
    c2bb:	21 c2                	and    %eax,%edx
    c2bd:	48 8b 85 a0 eb ff ff 	mov    -0x1460(%rbp),%rax
    c2c4:	8b 00                	mov    (%rax),%eax
    c2c6:	09 d0                	or     %edx,%eax
    c2c8:	0f b6 d0             	movzbl %al,%edx
    c2cb:	48 8d 05 66 6d 00 00 	lea    0x6d66(%rip),%rax        # 13038 <g_63>
    c2d2:	48 89 85 58 ec ff ff 	mov    %rax,-0x13a8(%rbp)
    c2d9:	48 8b 85 58 ec ff ff 	mov    -0x13a8(%rbp),%rax
    c2e0:	48 8d 0d 51 6d 00 00 	lea    0x6d51(%rip),%rcx        # 13038 <g_63>
    c2e7:	48 39 c8             	cmp    %rcx,%rax
    c2ea:	0f 95 c0             	setne  %al
    c2ed:	0f b6 c0             	movzbl %al,%eax
    c2f0:	89 d6                	mov    %edx,%esi
    c2f2:	89 c7                	mov    %eax,%edi
    c2f4:	e8 b5 98 ff ff       	callq  5bae <safe_mod_func_uint8_t_u_u>
    c2f9:	0f b6 c0             	movzbl %al,%eax
    c2fc:	44 09 f0             	or     %r14d,%eax
    c2ff:	0f b7 c0             	movzwl %ax,%eax
    c302:	44 89 e6             	mov    %r12d,%esi
    c305:	89 c7                	mov    %eax,%edi
    c307:	e8 31 9a ff ff       	callq  5d3d <safe_mul_func_uint16_t_u_u>
    c30c:	0f b7 c0             	movzwl %ax,%eax
    c30f:	89 de                	mov    %ebx,%esi
    c311:	89 c7                	mov    %eax,%edi
    c313:	e8 30 9b ff ff       	callq  5e48 <safe_rshift_func_uint16_t_u_s>
    c318:	0f be c0             	movsbl %al,%eax
    c31b:	be 04 00 00 00       	mov    $0x4,%esi
    c320:	89 c7                	mov    %eax,%edi
    c322:	e8 45 90 ff ff       	callq  536c <safe_rshift_func_int8_t_s_u>
    c327:	0f be c0             	movsbl %al,%eax
    c32a:	39 85 ac eb ff ff    	cmp    %eax,-0x1454(%rbp)
    c330:	0f 95 c0             	setne  %al
    c333:	0f b6 c0             	movzbl %al,%eax
    c336:	be f8 ff ff ff       	mov    $0xfffffff8,%esi
    c33b:	89 c7                	mov    %eax,%edi
    c33d:	e8 b3 90 ff ff       	callq  53f5 <safe_mul_func_int16_t_s_s>
    c342:	0f bf d0             	movswl %ax,%edx
    c345:	48 8b 85 e0 ec ff ff 	mov    -0x1320(%rbp),%rax
    c34c:	8b 00                	mov    (%rax),%eax
    c34e:	39 c2                	cmp    %eax,%edx
    c350:	0f 9e c0             	setle  %al
    c353:	0f b6 d0             	movzbl %al,%edx
    c356:	0f b6 85 a8 eb ff ff 	movzbl -0x1458(%rbp),%eax
    c35d:	0f be c0             	movsbl %al,%eax
    c360:	39 c2                	cmp    %eax,%edx
    c362:	0f 95 c0             	setne  %al
    c365:	0f b6 c0             	movzbl %al,%eax
    c368:	44 89 ee             	mov    %r13d,%esi
    c36b:	89 c7                	mov    %eax,%edi
    c36d:	e8 8b 9b ff ff       	callq  5efd <safe_mod_func_uint32_t_u_u>
    c372:	ba 01 00 00 00       	mov    $0x1,%edx
    c377:	8b 05 17 6e 00 00    	mov    0x6e17(%rip),%eax        # 13194 <g_91+0x14>
    c37d:	31 d0                	xor    %edx,%eax
    c37f:	89 05 0f 6e 00 00    	mov    %eax,0x6e0f(%rip)        # 13194 <g_91+0x14>
    c385:	48 8b 05 1c 6e 00 00 	mov    0x6e1c(%rip),%rax        # 131a8 <g_115>
    c38c:	48 85 c0             	test   %rax,%rax
    c38f:	0f 84 05 04 00 00    	je     c79a <func_15+0x24d2>
    c395:	e9 96 e0 ff ff       	jmpq   a430 <func_15+0x168>
    c39a:	48 b8 24 55 dc a2 7b 	movabs $0x2c8a797ba2dc5524,%rax
    c3a1:	79 8a 2c 
    c3a4:	48 89 85 98 ec ff ff 	mov    %rax,-0x1368(%rbp)
    c3ab:	48 8d 85 40 ec ff ff 	lea    -0x13c0(%rbp),%rax
    c3b2:	48 89 85 a0 ec ff ff 	mov    %rax,-0x1360(%rbp)
    c3b9:	c7 85 e0 eb ff ff 40 	movl   $0x79d0c240,-0x1420(%rbp)
    c3c0:	c2 d0 79 
    c3c3:	c7 85 e4 eb ff ff 00 	movl   $0x0,-0x141c(%rbp)
    c3ca:	00 00 00 
    c3cd:	eb 1a                	jmp    c3e9 <func_15+0x2121>
    c3cf:	8b 85 e4 eb ff ff    	mov    -0x141c(%rbp),%eax
    c3d5:	48 98                	cltq   
    c3d7:	c7 84 85 b0 f2 ff ff 	movl   $0xbac1a7a5,-0xd50(%rbp,%rax,4)
    c3de:	a5 a7 c1 ba 
    c3e2:	83 85 e4 eb ff ff 01 	addl   $0x1,-0x141c(%rbp)
    c3e9:	83 bd e4 eb ff ff 02 	cmpl   $0x2,-0x141c(%rbp)
    c3f0:	7e dd                	jle    c3cf <func_15+0x2107>
    c3f2:	48 8b 85 e0 ec ff ff 	mov    -0x1320(%rbp),%rax
    c3f9:	8b 00                	mov    (%rax),%eax
    c3fb:	89 c2                	mov    %eax,%edx
    c3fd:	48 8b 85 b8 ed ff ff 	mov    -0x1248(%rbp),%rax
    c404:	09 d0                	or     %edx,%eax
    c406:	89 c2                	mov    %eax,%edx
    c408:	48 8b 85 e0 ec ff ff 	mov    -0x1320(%rbp),%rax
    c40f:	89 10                	mov    %edx,(%rax)
    c411:	8b 85 ac eb ff ff    	mov    -0x1454(%rbp),%eax
    c417:	0f be d8             	movsbl %al,%ebx
    c41a:	8b 05 a0 6d 00 00    	mov    0x6da0(%rip),%eax        # 131c0 <g_151>
    c420:	44 0f b7 e0          	movzwl %ax,%r12d
    c424:	48 8b 85 98 eb ff ff 	mov    -0x1468(%rbp),%rax
    c42b:	44 8b 28             	mov    (%rax),%r13d
    c42e:	8b 85 ac eb ff ff    	mov    -0x1454(%rbp),%eax
    c434:	44 0f b6 f0          	movzbl %al,%r14d
    c438:	8b 85 ac eb ff ff    	mov    -0x1454(%rbp),%eax
    c43e:	44 0f bf f8          	movswl %ax,%r15d
    c442:	8b 85 ec eb ff ff    	mov    -0x1414(%rbp),%eax
    c448:	48 63 d0             	movslq %eax,%rdx
    c44b:	48 8b 85 c0 ed ff ff 	mov    -0x1240(%rbp),%rax
    c452:	48 89 d6             	mov    %rdx,%rsi
    c455:	48 89 c7             	mov    %rax,%rdi
    c458:	e8 23 9c ff ff       	callq  6080 <safe_mod_func_uint64_t_u_u>
    c45d:	48 8b 95 98 eb ff ff 	mov    -0x1468(%rbp),%rdx
    c464:	8b 12                	mov    (%rdx),%edx
    c466:	48 63 d2             	movslq %edx,%rdx
    c469:	48 39 d0             	cmp    %rdx,%rax
    c46c:	0f 95 c0             	setne  %al
    c46f:	0f b6 c0             	movzbl %al,%eax
    c472:	be 0d 51 00 00       	mov    $0x510d,%esi
    c477:	89 c7                	mov    %eax,%edi
    c479:	e8 77 8f ff ff       	callq  53f5 <safe_mul_func_int16_t_s_s>
    c47e:	48 8b 85 70 ec ff ff 	mov    -0x1390(%rbp),%rax
    c485:	0f b7 10             	movzwl (%rax),%edx
    c488:	8b 85 ac eb ff ff    	mov    -0x1454(%rbp),%eax
    c48e:	89 c1                	mov    %eax,%ecx
    c490:	48 8b 85 70 ec ff ff 	mov    -0x1390(%rbp),%rax
    c497:	09 ca                	or     %ecx,%edx
    c499:	66 89 10             	mov    %dx,(%rax)
    c49c:	0f b7 00             	movzwl (%rax),%eax
    c49f:	98                   	cwtl   
    c4a0:	be 01 00 00 00       	mov    $0x1,%esi
    c4a5:	89 c7                	mov    %eax,%edi
    c4a7:	e8 35 90 ff ff       	callq  54e1 <safe_lshift_func_int16_t_s_u>
    c4ac:	98                   	cwtl   
    c4ad:	44 89 fe             	mov    %r15d,%esi
    c4b0:	89 c7                	mov    %eax,%edi
    c4b2:	e8 5f 8f ff ff       	callq  5416 <safe_mod_func_int16_t_s_s>
    c4b7:	66 85 c0             	test   %ax,%ax
    c4ba:	74 11                	je     c4cd <func_15+0x2205>
    c4bc:	48 83 bd 98 ec ff ff 	cmpq   $0x0,-0x1368(%rbp)
    c4c3:	00 
    c4c4:	74 07                	je     c4cd <func_15+0x2205>
    c4c6:	b8 01 00 00 00       	mov    $0x1,%eax
    c4cb:	eb 05                	jmp    c4d2 <func_15+0x220a>
    c4cd:	b8 00 00 00 00       	mov    $0x0,%eax
    c4d2:	3d 39 37 07 14       	cmp    $0x14073739,%eax
    c4d7:	0f 9e c0             	setle  %al
    c4da:	0f b6 c0             	movzbl %al,%eax
    c4dd:	48 39 85 c0 ec ff ff 	cmp    %rax,-0x1340(%rbp)
    c4e4:	0f 95 c0             	setne  %al
    c4e7:	89 c2                	mov    %eax,%edx
    c4e9:	8b 85 ac eb ff ff    	mov    -0x1454(%rbp),%eax
    c4ef:	21 d0                	and    %edx,%eax
    c4f1:	0f be c0             	movsbl %al,%eax
    c4f4:	be 2a 00 00 00       	mov    $0x2a,%esi
    c4f9:	89 c7                	mov    %eax,%edi
    c4fb:	e8 6a 8d ff ff       	callq  526a <safe_div_func_int8_t_s_s>
    c500:	48 8b 05 39 86 00 00 	mov    0x8639(%rip),%rax        # 14b40 <g_857>
    c507:	be 00 00 00 00       	mov    $0x0,%esi
    c50c:	bf a3 00 00 00       	mov    $0xa3,%edi
    c511:	e8 77 97 ff ff       	callq  5c8d <safe_rshift_func_uint8_t_u_s>
    c516:	84 c0                	test   %al,%al
    c518:	74 07                	je     c521 <func_15+0x2259>
    c51a:	b8 01 00 00 00       	mov    $0x1,%eax
    c51f:	eb 05                	jmp    c526 <func_15+0x225e>
    c521:	b8 00 00 00 00       	mov    $0x0,%eax
    c526:	0f b6 c0             	movzbl %al,%eax
    c529:	44 89 f6             	mov    %r14d,%esi
    c52c:	89 c7                	mov    %eax,%edi
    c52e:	e8 a8 96 ff ff       	callq  5bdb <safe_div_func_uint8_t_u_u>
    c533:	0f b6 c0             	movzbl %al,%eax
    c536:	44 89 ee             	mov    %r13d,%esi
    c539:	89 c7                	mov    %eax,%edi
    c53b:	e8 76 90 ff ff       	callq  55b6 <safe_add_func_int32_t_s_s>
    c540:	89 c2                	mov    %eax,%edx
    c542:	8b 05 78 6c 00 00    	mov    0x6c78(%rip),%eax        # 131c0 <g_151>
    c548:	39 c2                	cmp    %eax,%edx
    c54a:	0f 96 c0             	setbe  %al
    c54d:	0f b6 c0             	movzbl %al,%eax
    c550:	89 85 ec eb ff ff    	mov    %eax,-0x1414(%rbp)
    c556:	48 8b 05 eb 85 00 00 	mov    0x85eb(%rip),%rax        # 14b48 <g_946>
    c55d:	48 85 c0             	test   %rax,%rax
    c560:	0f 95 c0             	setne  %al
    c563:	0f b6 c0             	movzbl %al,%eax
    c566:	44 89 e6             	mov    %r12d,%esi
    c569:	89 c7                	mov    %eax,%edi
    c56b:	e8 af 97 ff ff       	callq  5d1f <safe_sub_func_uint16_t_u_u>
    c570:	0f be c0             	movsbl %al,%eax
    c573:	89 de                	mov    %ebx,%esi
    c575:	89 c7                	mov    %eax,%edi
    c577:	e8 76 8c ff ff       	callq  51f2 <safe_sub_func_int8_t_s_s>
    c57c:	48 8b 05 25 82 00 00 	mov    0x8225(%rip),%rax        # 147a8 <g_213>
    c583:	48 8b 00             	mov    (%rax),%rax
    c586:	48 8b 10             	mov    (%rax),%rdx
    c589:	8b 85 ac eb ff ff    	mov    -0x1454(%rbp),%eax
    c58f:	48 98                	cltq   
    c591:	48 39 c2             	cmp    %rax,%rdx
    c594:	0f 97 c0             	seta   %al
    c597:	0f b6 d0             	movzbl %al,%edx
    c59a:	48 8b 85 98 eb ff ff 	mov    -0x1468(%rbp),%rax
    c5a1:	8b 00                	mov    (%rax),%eax
    c5a3:	09 d0                	or     %edx,%eax
    c5a5:	0f bf d8             	movswl %ax,%ebx
    c5a8:	48 8b 05 a9 82 00 00 	mov    0x82a9(%rip),%rax        # 14858 <g_308>
    c5af:	0f b6 00             	movzbl (%rax),%eax
    c5b2:	0f be c0             	movsbl %al,%eax
    c5b5:	c6 85 a8 eb ff ff 44 	movb   $0x44,-0x1458(%rbp)
    c5bc:	89 c6                	mov    %eax,%esi
    c5be:	bf 44 00 00 00       	mov    $0x44,%edi
    c5c3:	e8 a2 8c ff ff       	callq  526a <safe_div_func_int8_t_s_s>
    c5c8:	0f be c0             	movsbl %al,%eax
    c5cb:	89 de                	mov    %ebx,%esi
    c5cd:	89 c7                	mov    %eax,%edi
    c5cf:	e8 21 8e ff ff       	callq  53f5 <safe_mul_func_int16_t_s_s>
    c5d4:	48 8b 95 e0 ec ff ff 	mov    -0x1320(%rbp),%rdx
    c5db:	8b 12                	mov    (%rdx),%edx
    c5dd:	98                   	cwtl   
    c5de:	31 c2                	xor    %eax,%edx
    c5e0:	48 8b 85 e0 ec ff ff 	mov    -0x1320(%rbp),%rax
    c5e7:	89 10                	mov    %edx,(%rax)
    c5e9:	0f b6 85 a8 eb ff ff 	movzbl -0x1458(%rbp),%eax
    c5f0:	44 0f be e0          	movsbl %al,%r12d
    c5f4:	8b 85 ac eb ff ff    	mov    -0x1454(%rbp),%eax
    c5fa:	0f bf d8             	movswl %ax,%ebx
    c5fd:	8b 85 e8 eb ff ff    	mov    -0x1418(%rbp),%eax
    c603:	44 0f bf f0          	movswl %ax,%r14d
    c607:	8b 85 4c f9 ff ff    	mov    -0x6b4(%rbp),%eax
    c60d:	44 0f bf e8          	movswl %ax,%r13d
    c611:	8b 85 ac eb ff ff    	mov    -0x1454(%rbp),%eax
    c617:	83 f0 b6             	xor    $0xffffffb6,%eax
    c61a:	88 85 94 eb ff ff    	mov    %al,-0x146c(%rbp)
    c620:	0f b6 85 a8 eb ff ff 	movzbl -0x1458(%rbp),%eax
    c627:	4c 0f be f8          	movsbq %al,%r15
    c62b:	48 8b 85 e0 ec ff ff 	mov    -0x1320(%rbp),%rax
    c632:	8b 00                	mov    (%rax),%eax
    c634:	89 85 90 eb ff ff    	mov    %eax,-0x1470(%rbp)
    c63a:	8b 85 b8 f2 ff ff    	mov    -0xd48(%rbp),%eax
    c640:	85 c0                	test   %eax,%eax
    c642:	78 0d                	js     c651 <func_15+0x2389>
    c644:	48 8b 85 e0 ec ff ff 	mov    -0x1320(%rbp),%rax
    c64b:	8b 00                	mov    (%rax),%eax
    c64d:	85 c0                	test   %eax,%eax
    c64f:	74 07                	je     c658 <func_15+0x2390>
    c651:	b8 01 00 00 00       	mov    $0x1,%eax
    c656:	eb 05                	jmp    c65d <func_15+0x2395>
    c658:	b8 00 00 00 00       	mov    $0x0,%eax
    c65d:	0f be d0             	movsbl %al,%edx
    c660:	48 8b 05 b9 84 00 00 	mov    0x84b9(%rip),%rax        # 14b20 <g_644>
    c667:	48 8b 00             	mov    (%rax),%rax
    c66a:	0f b6 00             	movzbl (%rax),%eax
    c66d:	0f be c0             	movsbl %al,%eax
    c670:	89 d6                	mov    %edx,%esi
    c672:	89 c7                	mov    %eax,%edi
    c674:	e8 79 8b ff ff       	callq  51f2 <safe_sub_func_int8_t_s_s>
    c679:	48 8b 05 a0 84 00 00 	mov    0x84a0(%rip),%rax        # 14b20 <g_644>
    c680:	48 8b 00             	mov    (%rax),%rax
    c683:	0f b6 00             	movzbl (%rax),%eax
    c686:	0f be c0             	movsbl %al,%eax
    c689:	be 05 00 00 00       	mov    $0x5,%esi
    c68e:	89 c7                	mov    %eax,%edi
    c690:	e8 d7 8c ff ff       	callq  536c <safe_rshift_func_int8_t_s_u>
    c695:	3c 01                	cmp    $0x1,%al
    c697:	0f 95 c0             	setne  %al
    c69a:	0f b6 c0             	movzbl %al,%eax
    c69d:	be f9 ff ff ff       	mov    $0xfffffff9,%esi
    c6a2:	89 c7                	mov    %eax,%edi
    c6a4:	e8 15 97 ff ff       	callq  5dbe <safe_lshift_func_uint16_t_u_s>
    c6a9:	0f b7 c0             	movzwl %ax,%eax
    c6ac:	39 85 34 ec ff ff    	cmp    %eax,-0x13cc(%rbp)
    c6b2:	0f 95 c0             	setne  %al
    c6b5:	0f b6 c0             	movzbl %al,%eax
    c6b8:	8b b5 90 eb ff ff    	mov    -0x1470(%rbp),%esi
    c6be:	89 c7                	mov    %eax,%edi
    c6c0:	e8 c8 95 ff ff       	callq  5c8d <safe_rshift_func_uint8_t_u_s>
    c6c5:	0f b6 c0             	movzbl %al,%eax
    c6c8:	4c 89 fe             	mov    %r15,%rsi
    c6cb:	48 89 c7             	mov    %rax,%rdi
    c6ce:	e8 5b 99 ff ff       	callq  602e <safe_add_func_uint64_t_u_u>
    c6d3:	8b 95 ac eb ff ff    	mov    -0x1454(%rbp),%edx
    c6d9:	48 63 d2             	movslq %edx,%rdx
    c6dc:	48 39 d0             	cmp    %rdx,%rax
    c6df:	0f 95 c0             	setne  %al
    c6e2:	0f b6 d0             	movzbl %al,%edx
    c6e5:	48 8b 85 e0 ec ff ff 	mov    -0x1320(%rbp),%rax
    c6ec:	8b 00                	mov    (%rax),%eax
    c6ee:	39 c2                	cmp    %eax,%edx
    c6f0:	0f 9d c0             	setge  %al
    c6f3:	0f b6 95 94 eb ff ff 	movzbl -0x146c(%rbp),%edx
    c6fa:	09 c2                	or     %eax,%edx
    c6fc:	8b 85 ac eb ff ff    	mov    -0x1454(%rbp),%eax
    c702:	31 d0                	xor    %edx,%eax
    c704:	0f be c0             	movsbl %al,%eax
    c707:	44 89 f2             	mov    %r14d,%edx
    c70a:	44 89 ee             	mov    %r13d,%esi
    c70d:	89 c7                	mov    %eax,%edi
    c70f:	e8 1a 0a 00 00       	callq  d12e <func_69>
    c714:	48 8b 95 a0 ec ff ff 	mov    -0x1360(%rbp),%rdx
    c71b:	48 89 02             	mov    %rax,(%rdx)
    c71e:	48 8b 85 a0 ec ff ff 	mov    -0x1360(%rbp),%rax
    c725:	48 8b 00             	mov    (%rax),%rax
    c728:	48 39 85 a0 eb ff ff 	cmp    %rax,-0x1460(%rbp)
    c72f:	74 11                	je     c742 <func_15+0x247a>
    c731:	8b 85 b8 f2 ff ff    	mov    -0xd48(%rbp),%eax
    c737:	85 c0                	test   %eax,%eax
    c739:	74 07                	je     c742 <func_15+0x247a>
    c73b:	b8 01 00 00 00       	mov    $0x1,%eax
    c740:	eb 05                	jmp    c747 <func_15+0x247f>
    c742:	b8 00 00 00 00       	mov    $0x0,%eax
    c747:	48 98                	cltq   
    c749:	48 39 85 98 ec ff ff 	cmp    %rax,-0x1368(%rbp)
    c750:	0f 95 c0             	setne  %al
    c753:	0f b6 c0             	movzbl %al,%eax
    c756:	48 be b6 83 d2 a7 49 	movabs $0xc9993349a7d283b6,%rsi
    c75d:	33 99 c9 
    c760:	48 89 c7             	mov    %rax,%rdi
    c763:	e8 d9 90 ff ff       	callq  5841 <safe_add_func_int64_t_s_s>
    c768:	48 3d dc 00 00 00    	cmp    $0xdc,%rax
    c76e:	0f 9e c0             	setle  %al
    c771:	0f b6 c0             	movzbl %al,%eax
    c774:	21 85 e0 eb ff ff    	and    %eax,-0x1420(%rbp)
    c77a:	8b 85 e0 eb ff ff    	mov    -0x1420(%rbp),%eax
    c780:	0f be c0             	movsbl %al,%eax
    c783:	4c 8b ad 50 ec ff ff 	mov    -0x13b0(%rbp),%r13
    c78a:	44 89 e2             	mov    %r12d,%edx
    c78d:	89 de                	mov    %ebx,%esi
    c78f:	89 c7                	mov    %eax,%edi
    c791:	e8 98 09 00 00       	callq  d12e <func_69>
    c796:	49 89 45 00          	mov    %rax,0x0(%r13)
    c79a:	c7 85 c8 eb ff ff 00 	movl   $0x0,-0x1438(%rbp)
    c7a1:	00 00 00 
    c7a4:	eb 60                	jmp    c806 <func_15+0x253e>
    c7a6:	c7 85 3c ec ff ff 1b 	movl   $0xdf64131b,-0x13c4(%rbp)
    c7ad:	13 64 df 
    c7b0:	83 ad 3c ec ff ff 01 	subl   $0x1,-0x13c4(%rbp)
    c7b7:	0f b7 05 06 6a 00 00 	movzwl 0x6a06(%rip),%eax        # 131c4 <g_195>
    c7be:	66 85 c0             	test   %ax,%ax
    c7c1:	75 61                	jne    c824 <func_15+0x255c>
    c7c3:	48 8b 05 7e 83 00 00 	mov    0x837e(%rip),%rax        # 14b48 <g_946>
    c7ca:	48 8b 00             	mov    (%rax),%rax
    c7cd:	48 85 c0             	test   %rax,%rax
    c7d0:	0f 95 c0             	setne  %al
    c7d3:	0f b6 d0             	movzbl %al,%edx
    c7d6:	48 8b 85 68 fb ff ff 	mov    -0x498(%rbp),%rax
    c7dd:	48 85 c0             	test   %rax,%rax
    c7e0:	0f 95 c0             	setne  %al
    c7e3:	0f b6 c0             	movzbl %al,%eax
    c7e6:	39 c2                	cmp    %eax,%edx
    c7e8:	0f 9c c0             	setl   %al
    c7eb:	0f b6 d0             	movzbl %al,%edx
    c7ee:	48 8b 85 e0 ec ff ff 	mov    -0x1320(%rbp),%rax
    c7f5:	89 10                	mov    %edx,(%rax)
    c7f7:	8b 85 c8 eb ff ff    	mov    -0x1438(%rbp),%eax
    c7fd:	83 e8 01             	sub    $0x1,%eax
    c800:	89 85 c8 eb ff ff    	mov    %eax,-0x1438(%rbp)
    c806:	8b 85 c8 eb ff ff    	mov    -0x1438(%rbp),%eax
    c80c:	83 f8 f2             	cmp    $0xfffffff2,%eax
    c80f:	7d 95                	jge    c7a6 <func_15+0x24de>
    c811:	48 8b 85 a0 eb ff ff 	mov    -0x1460(%rbp),%rax
    c818:	8b 00                	mov    (%rax),%eax
    c81a:	85 c0                	test   %eax,%eax
    c81c:	0f 85 e3 00 00 00    	jne    c905 <func_15+0x263d>
    c822:	eb 06                	jmp    c82a <func_15+0x2562>
    c824:	90                   	nop
    c825:	e9 06 dc ff ff       	jmpq   a430 <func_15+0x168>
    c82a:	48 8b 85 a0 eb ff ff 	mov    -0x1460(%rbp),%rax
    c831:	e9 d9 00 00 00       	jmpq   c90f <func_15+0x2647>
    c836:	66 c7 05 f9 67 00 00 	movw   $0x0,0x67f9(%rip)        # 13038 <g_63>
    c83d:	00 00 
    c83f:	eb 76                	jmp    c8b7 <func_15+0x25ef>
    c841:	48 8d 85 68 ec ff ff 	lea    -0x1398(%rbp),%rax
    c848:	48 89 85 00 ed ff ff 	mov    %rax,-0x1300(%rbp)
    c84f:	48 c7 85 90 ec ff ff 	movq   $0x0,-0x1370(%rbp)
    c856:	00 00 00 00 
    c85a:	48 8d 85 90 ec ff ff 	lea    -0x1370(%rbp),%rax
    c861:	48 89 85 08 ed ff ff 	mov    %rax,-0x12f8(%rbp)
    c868:	c7 85 14 ec ff ff 62 	movl   $0x294f2762,-0x13ec(%rbp)
    c86f:	27 4f 29 
    c872:	48 8b 95 68 ec ff ff 	mov    -0x1398(%rbp),%rdx
    c879:	48 8b 85 00 ed ff ff 	mov    -0x1300(%rbp),%rax
    c880:	48 89 10             	mov    %rdx,(%rax)
    c883:	48 8b 85 00 ed ff ff 	mov    -0x1300(%rbp),%rax
    c88a:	48 8b 10             	mov    (%rax),%rdx
    c88d:	48 8b 85 08 ed ff ff 	mov    -0x12f8(%rbp),%rax
    c894:	48 89 10             	mov    %rdx,(%rax)
    c897:	48 8b 05 72 82 00 00 	mov    0x8272(%rip),%rax        # 14b10 <g_624>
    c89e:	8b 00                	mov    (%rax),%eax
    c8a0:	89 85 14 ec ff ff    	mov    %eax,-0x13ec(%rbp)
    c8a6:	0f b7 05 8b 67 00 00 	movzwl 0x678b(%rip),%eax        # 13038 <g_63>
    c8ad:	83 c0 01             	add    $0x1,%eax
    c8b0:	66 89 05 81 67 00 00 	mov    %ax,0x6781(%rip)        # 13038 <g_63>
    c8b7:	0f b7 05 7a 67 00 00 	movzwl 0x677a(%rip),%eax        # 13038 <g_63>
    c8be:	66 83 f8 08          	cmp    $0x8,%ax
    c8c2:	0f 8f 79 ff ff ff    	jg     c841 <func_15+0x2579>
    c8c8:	48 8b 05 21 82 00 00 	mov    0x8221(%rip),%rax        # 14af0 <g_581>
    c8cf:	48 8b 95 a0 eb ff ff 	mov    -0x1460(%rbp),%rdx
    c8d6:	48 89 10             	mov    %rdx,(%rax)
    c8d9:	48 8d 05 40 82 00 00 	lea    0x8240(%rip),%rax        # 14b20 <g_644>
    c8e0:	48 89 05 01 89 00 00 	mov    %rax,0x8901(%rip)        # 151e8 <g_986>
    c8e7:	8b 05 eb 68 00 00    	mov    0x68eb(%rip),%eax        # 131d8 <g_424>
    c8ed:	83 c0 01             	add    $0x1,%eax
    c8f0:	89 05 e2 68 00 00    	mov    %eax,0x68e2(%rip)        # 131d8 <g_424>
    c8f6:	8b 05 dc 68 00 00    	mov    0x68dc(%rip),%eax        # 131d8 <g_424>
    c8fc:	83 f8 13             	cmp    $0x13,%eax
    c8ff:	0f 8f 1c dc ff ff    	jg     a521 <func_15+0x259>
    c905:	48 8b 85 50 ec ff ff 	mov    -0x13b0(%rbp),%rax
    c90c:	48 8b 00             	mov    (%rax),%rax
    c90f:	48 8b 5d c8          	mov    -0x38(%rbp),%rbx
    c913:	64 48 33 1c 25 28 00 	xor    %fs:0x28,%rbx
    c91a:	00 00 
    c91c:	74 05                	je     c923 <func_15+0x265b>
    c91e:	e8 4d 87 ff ff       	callq  5070 <__stack_chk_fail@plt>
    c923:	48 81 c4 48 14 00 00 	add    $0x1448,%rsp
    c92a:	5b                   	pop    %rbx
    c92b:	41 5c                	pop    %r12
    c92d:	41 5d                	pop    %r13
    c92f:	41 5e                	pop    %r14
    c931:	41 5f                	pop    %r15
    c933:	5d                   	pop    %rbp
    c934:	c3                   	retq   

000000000000c935 <func_20>:
    c935:	f3 0f 1e fa          	endbr64 
    c939:	55                   	push   %rbp
    c93a:	48 89 e5             	mov    %rsp,%rbp
    c93d:	48 81 ec 80 01 00 00 	sub    $0x180,%rsp
    c944:	48 89 bd 98 fe ff ff 	mov    %rdi,-0x168(%rbp)
    c94b:	89 d0                	mov    %edx,%eax
    c94d:	48 89 8d 88 fe ff ff 	mov    %rcx,-0x178(%rbp)
    c954:	44 89 c2             	mov    %r8d,%edx
    c957:	89 f1                	mov    %esi,%ecx
    c959:	88 8d 94 fe ff ff    	mov    %cl,-0x16c(%rbp)
    c95f:	66 89 85 90 fe ff ff 	mov    %ax,-0x170(%rbp)
    c966:	89 d0                	mov    %edx,%eax
    c968:	66 89 85 84 fe ff ff 	mov    %ax,-0x17c(%rbp)
    c96f:	64 48 8b 04 25 28 00 	mov    %fs:0x28,%rax
    c976:	00 00 
    c978:	48 89 45 f8          	mov    %rax,-0x8(%rbp)
    c97c:	31 c0                	xor    %eax,%eax
    c97e:	48 c7 85 d0 fe ff ff 	movq   $0x6,-0x130(%rbp)
    c985:	06 00 00 00 
    c989:	c7 85 b0 fe ff ff 01 	movl   $0x1,-0x150(%rbp)
    c990:	00 00 00 
    c993:	48 8d 05 0e 68 00 00 	lea    0x680e(%rip),%rax        # 131a8 <g_115>
    c99a:	48 89 85 d8 fe ff ff 	mov    %rax,-0x128(%rbp)
    c9a1:	c7 85 b4 fe ff ff 00 	movl   $0x0,-0x14c(%rbp)
    c9a8:	00 00 00 
    c9ab:	c7 85 b8 fe ff ff e1 	movl   $0x30d59ee1,-0x148(%rbp)
    c9b2:	9e d5 30 
    c9b5:	c7 85 bc fe ff ff 9c 	movl   $0x2bee1e9c,-0x144(%rbp)
    c9bc:	1e ee 2b 
    c9bf:	c7 85 c0 fe ff ff ff 	movl   $0xffffffff,-0x140(%rbp)
    c9c6:	ff ff ff 
    c9c9:	c7 85 c4 fe ff ff 22 	movl   $0xfa15e022,-0x13c(%rbp)
    c9d0:	e0 15 fa 
    c9d3:	c7 85 20 ff ff ff 00 	movl   $0x0,-0xe0(%rbp)
    c9da:	00 00 00 
    c9dd:	c7 85 24 ff ff ff 67 	movl   $0x9ff5a867,-0xdc(%rbp)
    c9e4:	a8 f5 9f 
    c9e7:	c7 85 28 ff ff ff 00 	movl   $0x0,-0xd8(%rbp)
    c9ee:	00 00 00 
    c9f1:	c7 85 2c ff ff ff 67 	movl   $0x9ff5a867,-0xd4(%rbp)
    c9f8:	a8 f5 9f 
    c9fb:	c7 85 30 ff ff ff 00 	movl   $0x0,-0xd0(%rbp)
    ca02:	00 00 00 
    ca05:	c7 85 34 ff ff ff 67 	movl   $0x9ff5a867,-0xcc(%rbp)
    ca0c:	a8 f5 9f 
    ca0f:	c7 85 38 ff ff ff 00 	movl   $0x0,-0xc8(%rbp)
    ca16:	00 00 00 
    ca19:	c7 85 3c ff ff ff 67 	movl   $0x9ff5a867,-0xc4(%rbp)
    ca20:	a8 f5 9f 
    ca23:	c7 85 40 ff ff ff 00 	movl   $0x0,-0xc0(%rbp)
    ca2a:	00 00 00 
    ca2d:	c7 85 44 ff ff ff 67 	movl   $0x9ff5a867,-0xbc(%rbp)
    ca34:	a8 f5 9f 
    ca37:	66 c7 85 ac fe ff ff 	movw   $0xf6d2,-0x154(%rbp)
    ca3e:	d2 f6 
    ca40:	48 8d 05 ed 65 00 00 	lea    0x65ed(%rip),%rax        # 13034 <g_6>
    ca47:	48 89 85 e0 fe ff ff 	mov    %rax,-0x120(%rbp)
    ca4e:	48 c7 05 5f 67 00 00 	movq   $0xfffffffffffffff9,0x675f(%rip)        # 131b8 <g_141>
    ca55:	f9 ff ff ff 
    ca59:	e9 0a 02 00 00       	jmpq   cc68 <func_20+0x333>
    ca5e:	c7 85 50 ff ff ff 07 	movl   $0x7,-0xb0(%rbp)
    ca65:	00 00 00 
    ca68:	c7 85 54 ff ff ff 01 	movl   $0x1,-0xac(%rbp)
    ca6f:	00 00 00 
    ca72:	c7 85 58 ff ff ff 10 	movl   $0xc6e64710,-0xa8(%rbp)
    ca79:	47 e6 c6 
    ca7c:	c7 85 5c ff ff ff fb 	movl   $0xfffffffb,-0xa4(%rbp)
    ca83:	ff ff ff 
    ca86:	c7 85 60 ff ff ff 32 	movl   $0x352e0f32,-0xa0(%rbp)
    ca8d:	0f 2e 35 
    ca90:	c7 85 64 ff ff ff 32 	movl   $0x352e0f32,-0x9c(%rbp)
    ca97:	0f 2e 35 
    ca9a:	c7 85 68 ff ff ff 32 	movl   $0x352e0f32,-0x98(%rbp)
    caa1:	0f 2e 35 
    caa4:	c7 85 6c ff ff ff 01 	movl   $0x1,-0x94(%rbp)
    caab:	00 00 00 
    caae:	c7 85 70 ff ff ff 01 	movl   $0x1,-0x90(%rbp)
    cab5:	00 00 00 
    cab8:	c7 85 74 ff ff ff 32 	movl   $0x352e0f32,-0x8c(%rbp)
    cabf:	0f 2e 35 
    cac2:	c7 85 78 ff ff ff fd 	movl   $0xe61d3dfd,-0x88(%rbp)
    cac9:	3d 1d e6 
    cacc:	c7 85 7c ff ff ff f6 	movl   $0xfffffff6,-0x84(%rbp)
    cad3:	ff ff ff 
    cad6:	c7 45 80 b1 aa 54 e1 	movl   $0xe154aab1,-0x80(%rbp)
    cadd:	c7 45 84 07 00 00 00 	movl   $0x7,-0x7c(%rbp)
    cae4:	c7 45 88 f5 d6 37 4a 	movl   $0x4a37d6f5,-0x78(%rbp)
    caeb:	c7 45 8c 07 00 00 00 	movl   $0x7,-0x74(%rbp)
    caf2:	c7 45 90 10 47 e6 c6 	movl   $0xc6e64710,-0x70(%rbp)
    caf9:	c7 45 94 01 00 00 00 	movl   $0x1,-0x6c(%rbp)
    cb00:	c7 45 98 07 00 00 00 	movl   $0x7,-0x68(%rbp)
    cb07:	c7 45 9c fb ff ff ff 	movl   $0xfffffffb,-0x64(%rbp)
    cb0e:	c7 45 a0 f7 66 c8 27 	movl   $0x27c866f7,-0x60(%rbp)
    cb15:	c7 45 a4 f9 99 9f ed 	movl   $0xed9f99f9,-0x5c(%rbp)
    cb1c:	c7 45 a8 10 47 e6 c6 	movl   $0xc6e64710,-0x58(%rbp)
    cb23:	c7 45 ac 01 00 00 00 	movl   $0x1,-0x54(%rbp)
    cb2a:	c7 45 b0 fd 3d 1d e6 	movl   $0xe61d3dfd,-0x50(%rbp)
    cb31:	c7 45 b4 07 00 00 00 	movl   $0x7,-0x4c(%rbp)
    cb38:	c7 45 b8 32 0f 2e 35 	movl   $0x352e0f32,-0x48(%rbp)
    cb3f:	c7 45 bc 07 00 00 00 	movl   $0x7,-0x44(%rbp)
    cb46:	c7 45 c0 fd 3d 1d e6 	movl   $0xe61d3dfd,-0x40(%rbp)
    cb4d:	c7 45 c4 f9 99 9f ed 	movl   $0xed9f99f9,-0x3c(%rbp)
    cb54:	c7 45 c8 f7 66 c8 27 	movl   $0x27c866f7,-0x38(%rbp)
    cb5b:	c7 45 cc 01 00 00 00 	movl   $0x1,-0x34(%rbp)
    cb62:	c7 45 d0 17 ce f5 52 	movl   $0x52f5ce17,-0x30(%rbp)
    cb69:	c7 45 d4 f6 ff ff ff 	movl   $0xfffffff6,-0x2c(%rbp)
    cb70:	c7 45 d8 32 0f 2e 35 	movl   $0x352e0f32,-0x28(%rbp)
    cb77:	c7 45 dc 07 00 00 00 	movl   $0x7,-0x24(%rbp)
    cb7e:	c7 45 e0 17 ce f5 52 	movl   $0x52f5ce17,-0x20(%rbp)
    cb85:	c7 45 e4 01 00 00 00 	movl   $0x1,-0x1c(%rbp)
    cb8c:	c7 45 e8 fd 3d 1d e6 	movl   $0xe61d3dfd,-0x18(%rbp)
    cb93:	c7 45 ec 01 00 00 00 	movl   $0x1,-0x14(%rbp)
    cb9a:	c7 45 f0 ca 49 90 49 	movl   $0x499049ca,-0x10(%rbp)
    cba1:	c7 45 f4 07 00 00 00 	movl   $0x7,-0xc(%rbp)
    cba8:	c7 85 c8 fe ff ff ff 	movl   $0xffffffff,-0x138(%rbp)
    cbaf:	ff ff ff 
    cbb2:	48 8d 05 db 65 00 00 	lea    0x65db(%rip),%rax        # 13194 <g_91+0x14>
    cbb9:	48 89 85 e8 fe ff ff 	mov    %rax,-0x118(%rbp)
    cbc0:	48 c7 85 f0 fe ff ff 	movq   $0x0,-0x110(%rbp)
    cbc7:	00 00 00 00 
    cbcb:	c6 85 aa fe ff ff ff 	movb   $0xff,-0x156(%rbp)
    cbd2:	c7 85 cc fe ff ff ff 	movl   $0xffffffff,-0x134(%rbp)
    cbd9:	ff ff ff 
    cbdc:	c7 85 00 ff ff ff a4 	movl   $0xe95602a4,-0x100(%rbp)
    cbe3:	02 56 e9 
    cbe6:	c7 85 04 ff ff ff c4 	movl   $0x21ec47c4,-0xfc(%rbp)
    cbed:	47 ec 21 
    cbf0:	c7 85 08 ff ff ff c4 	movl   $0x21ec47c4,-0xf8(%rbp)
    cbf7:	47 ec 21 
    cbfa:	c7 85 0c ff ff ff a4 	movl   $0xe95602a4,-0xf4(%rbp)
    cc01:	02 56 e9 
    cc04:	c7 85 10 ff ff ff c4 	movl   $0x21ec47c4,-0xf0(%rbp)
    cc0b:	47 ec 21 
    cc0e:	c7 85 14 ff ff ff c4 	movl   $0x21ec47c4,-0xec(%rbp)
    cc15:	47 ec 21 
    cc18:	c7 85 18 ff ff ff a4 	movl   $0xe95602a4,-0xe8(%rbp)
    cc1f:	02 56 e9 
    cc22:	c7 85 1c ff ff ff c4 	movl   $0x21ec47c4,-0xe4(%rbp)
    cc29:	47 ec 21 
    cc2c:	48 b8 52 b3 2f 2c 24 	movabs $0x4aaeeb242c2fb352,%rax
    cc33:	eb ae 4a 
    cc36:	48 89 85 f8 fe ff ff 	mov    %rax,-0x108(%rbp)
    cc3d:	66 c7 85 ae fe ff ff 	movw   $0xffff,-0x152(%rbp)
    cc44:	ff ff 
    cc46:	c6 85 ab fe ff ff f6 	movb   $0xf6,-0x155(%rbp)
    cc4d:	48 8b 05 64 65 00 00 	mov    0x6564(%rip),%rax        # 131b8 <g_141>
    cc54:	be 01 00 00 00       	mov    $0x1,%esi
    cc59:	48 89 c7             	mov    %rax,%rdi
    cc5c:	e8 cd 93 ff ff       	callq  602e <safe_add_func_uint64_t_u_u>
    cc61:	48 89 05 50 65 00 00 	mov    %rax,0x6550(%rip)        # 131b8 <g_141>
    cc68:	48 8b 05 49 65 00 00 	mov    0x6549(%rip),%rax        # 131b8 <g_141>
    cc6f:	48 83 f8 20          	cmp    $0x20,%rax
    cc73:	0f 86 e5 fd ff ff    	jbe    ca5e <func_20+0x129>
    cc79:	c7 05 2d 65 00 00 1b 	movl   $0x1b,0x652d(%rip)        # 131b0 <g_120>
    cc80:	00 00 00 
    cc83:	90                   	nop
    cc84:	8b 05 26 65 00 00    	mov    0x6526(%rip),%eax        # 131b0 <g_120>
    cc8a:	83 f8 38             	cmp    $0x38,%eax
    cc8d:	76 21                	jbe    ccb0 <func_20+0x37b>
    cc8f:	0f b7 05 2e 65 00 00 	movzwl 0x652e(%rip),%eax        # 131c4 <g_195>
    cc96:	66 85 c0             	test   %ax,%ax
    cc99:	74 09                	je     cca4 <func_20+0x36f>
    cc9b:	48 8b 85 98 fe ff ff 	mov    -0x168(%rbp),%rax
    cca2:	eb 13                	jmp    ccb7 <func_20+0x382>
    cca4:	48 8b 05 65 7d 00 00 	mov    0x7d65(%rip),%rax        # 14a10 <g_438>
    ccab:	48 8b 00             	mov    (%rax),%rax
    ccae:	eb 07                	jmp    ccb7 <func_20+0x382>
    ccb0:	48 8b 85 98 fe ff ff 	mov    -0x168(%rbp),%rax
    ccb7:	48 8b 7d f8          	mov    -0x8(%rbp),%rdi
    ccbb:	64 48 33 3c 25 28 00 	xor    %fs:0x28,%rdi
    ccc2:	00 00 
    ccc4:	74 05                	je     cccb <func_20+0x396>
    ccc6:	e8 a5 83 ff ff       	callq  5070 <__stack_chk_fail@plt>
    cccb:	c9                   	leaveq 
    cccc:	c3                   	retq   

000000000000cccd <func_26>:
    cccd:	f3 0f 1e fa          	endbr64 
    ccd1:	55                   	push   %rbp
    ccd2:	48 89 e5             	mov    %rsp,%rbp
    ccd5:	53                   	push   %rbx
    ccd6:	48 81 ec b8 01 00 00 	sub    $0x1b8,%rsp
    ccdd:	48 89 bd 58 fe ff ff 	mov    %rdi,-0x1a8(%rbp)
    cce4:	89 b5 54 fe ff ff    	mov    %esi,-0x1ac(%rbp)
    ccea:	89 95 50 fe ff ff    	mov    %edx,-0x1b0(%rbp)
    ccf0:	89 c8                	mov    %ecx,%eax
    ccf2:	66 89 85 4c fe ff ff 	mov    %ax,-0x1b4(%rbp)
    ccf9:	64 48 8b 04 25 28 00 	mov    %fs:0x28,%rax
    cd00:	00 00 
    cd02:	48 89 45 e8          	mov    %rax,-0x18(%rbp)
    cd06:	31 c0                	xor    %eax,%eax
    cd08:	c6 85 6c fe ff ff 64 	movb   $0x64,-0x194(%rbp)
    cd0f:	48 8d 05 1e 63 00 00 	lea    0x631e(%rip),%rax        # 13034 <g_6>
    cd16:	48 89 85 90 fe ff ff 	mov    %rax,-0x170(%rbp)
    cd1d:	48 8d 05 70 64 00 00 	lea    0x6470(%rip),%rax        # 13194 <g_91+0x14>
    cd24:	48 89 85 98 fe ff ff 	mov    %rax,-0x168(%rbp)
    cd2b:	48 c7 85 a0 fe ff ff 	movq   $0x0,-0x160(%rbp)
    cd32:	00 00 00 00 
    cd36:	48 8d 05 57 64 00 00 	lea    0x6457(%rip),%rax        # 13194 <g_91+0x14>
    cd3d:	48 89 85 80 fe ff ff 	mov    %rax,-0x180(%rbp)
    cd44:	48 8d 05 49 64 00 00 	lea    0x6449(%rip),%rax        # 13194 <g_91+0x14>
    cd4b:	48 89 85 a8 fe ff ff 	mov    %rax,-0x158(%rbp)
    cd52:	48 8d 05 db 62 00 00 	lea    0x62db(%rip),%rax        # 13034 <g_6>
    cd59:	48 89 85 00 ff ff ff 	mov    %rax,-0x100(%rbp)
    cd60:	48 8d 05 cd 62 00 00 	lea    0x62cd(%rip),%rax        # 13034 <g_6>
    cd67:	48 89 85 08 ff ff ff 	mov    %rax,-0xf8(%rbp)
    cd6e:	48 8d 05 bf 62 00 00 	lea    0x62bf(%rip),%rax        # 13034 <g_6>
    cd75:	48 89 85 10 ff ff ff 	mov    %rax,-0xf0(%rbp)
    cd7c:	48 8d 05 b1 62 00 00 	lea    0x62b1(%rip),%rax        # 13034 <g_6>
    cd83:	48 89 85 18 ff ff ff 	mov    %rax,-0xe8(%rbp)
    cd8a:	48 8d 05 a3 62 00 00 	lea    0x62a3(%rip),%rax        # 13034 <g_6>
    cd91:	48 89 85 20 ff ff ff 	mov    %rax,-0xe0(%rbp)
    cd98:	48 8d 05 95 62 00 00 	lea    0x6295(%rip),%rax        # 13034 <g_6>
    cd9f:	48 89 85 28 ff ff ff 	mov    %rax,-0xd8(%rbp)
    cda6:	48 8d 05 87 62 00 00 	lea    0x6287(%rip),%rax        # 13034 <g_6>
    cdad:	48 89 85 30 ff ff ff 	mov    %rax,-0xd0(%rbp)
    cdb4:	48 8d 05 79 62 00 00 	lea    0x6279(%rip),%rax        # 13034 <g_6>
    cdbb:	48 89 85 38 ff ff ff 	mov    %rax,-0xc8(%rbp)
    cdc2:	c7 85 7c fe ff ff f0 	movl   $0x73854af0,-0x184(%rbp)
    cdc9:	4a 85 73 
    cdcc:	c6 85 6d fe ff ff 7e 	movb   $0x7e,-0x193(%rbp)
    cdd3:	48 8d 05 de 63 00 00 	lea    0x63de(%rip),%rax        # 131b8 <g_141>
    cdda:	48 89 85 b0 fe ff ff 	mov    %rax,-0x150(%rbp)
    cde1:	48 c7 85 c0 fe ff ff 	movq   $0x0,-0x140(%rbp)
    cde8:	00 00 00 00 
    cdec:	48 c7 85 c8 fe ff ff 	movq   $0x0,-0x138(%rbp)
    cdf3:	00 00 00 00 
    cdf7:	48 c7 85 d0 fe ff ff 	movq   $0x0,-0x130(%rbp)
    cdfe:	00 00 00 00 
    ce02:	48 c7 85 d8 fe ff ff 	movq   $0x0,-0x128(%rbp)
    ce09:	00 00 00 00 
    ce0d:	48 8d 05 24 62 00 00 	lea    0x6224(%rip),%rax        # 13038 <g_63>
    ce14:	48 89 85 b8 fe ff ff 	mov    %rax,-0x148(%rbp)
    ce1b:	48 8d 05 16 62 00 00 	lea    0x6216(%rip),%rax        # 13038 <g_63>
    ce22:	48 89 85 88 fe ff ff 	mov    %rax,-0x178(%rbp)
    ce29:	66 c7 85 6e fe ff ff 	movw   $0x3060,-0x192(%rbp)
    ce30:	60 30 
    ce32:	c7 85 70 fe ff ff 00 	movl   $0x0,-0x190(%rbp)
    ce39:	00 00 00 
    ce3c:	eb 4a                	jmp    ce88 <func_26+0x1bb>
    ce3e:	c7 85 74 fe ff ff 00 	movl   $0x0,-0x18c(%rbp)
    ce45:	00 00 00 
    ce48:	eb 2e                	jmp    ce78 <func_26+0x1ab>
    ce4a:	8b 85 74 fe ff ff    	mov    -0x18c(%rbp),%eax
    ce50:	48 98                	cltq   
    ce52:	8b 95 70 fe ff ff    	mov    -0x190(%rbp),%edx
    ce58:	48 63 d2             	movslq %edx,%rdx
    ce5b:	48 c1 e2 02          	shl    $0x2,%rdx
    ce5f:	48 01 c2             	add    %rax,%rdx
    ce62:	48 8d 85 88 fe ff ff 	lea    -0x178(%rbp),%rax
    ce69:	48 89 84 d5 40 ff ff 	mov    %rax,-0xc0(%rbp,%rdx,8)
    ce70:	ff 
    ce71:	83 85 74 fe ff ff 01 	addl   $0x1,-0x18c(%rbp)
    ce78:	83 bd 74 fe ff ff 03 	cmpl   $0x3,-0x18c(%rbp)
    ce7f:	7e c9                	jle    ce4a <func_26+0x17d>
    ce81:	83 85 70 fe ff ff 01 	addl   $0x1,-0x190(%rbp)
    ce88:	83 bd 70 fe ff ff 04 	cmpl   $0x4,-0x190(%rbp)
    ce8f:	7e ad                	jle    ce3e <func_26+0x171>
    ce91:	0f b6 85 6d fe ff ff 	movzbl -0x193(%rbp),%eax
    ce98:	83 c0 01             	add    $0x1,%eax
    ce9b:	88 85 6d fe ff ff    	mov    %al,-0x193(%rbp)
    cea1:	48 8b 85 80 fe ff ff 	mov    -0x180(%rbp),%rax
    cea8:	8b 10                	mov    (%rax),%edx
    ceaa:	48 8b 85 80 fe ff ff 	mov    -0x180(%rbp),%rax
    ceb1:	83 ca 01             	or     $0x1,%edx
    ceb4:	89 10                	mov    %edx,(%rax)
    ceb6:	0f b6 05 c9 61 00 00 	movzbl 0x61c9(%rip),%eax        # 13086 <g_65+0x46>
    cebd:	0f b6 d8             	movzbl %al,%ebx
    cec0:	48 8d 05 71 61 00 00 	lea    0x6171(%rip),%rax        # 13038 <g_63>
    cec7:	48 89 85 b8 fe ff ff 	mov    %rax,-0x148(%rbp)
    cece:	48 8b 85 b8 fe ff ff 	mov    -0x148(%rbp),%rax
    ced5:	48 89 05 34 78 00 00 	mov    %rax,0x7834(%rip)        # 14710 <g_157+0x2b0>
    cedc:	be 00 00 00 00       	mov    $0x0,%esi
    cee1:	bf 00 00 00 00       	mov    $0x0,%edi
    cee6:	e8 61 8d ff ff       	callq  5c4c <safe_lshift_func_uint8_t_u_u>
    ceeb:	c7 05 cb 62 00 00 86 	movl   $0x1586,0x62cb(%rip)        # 131c0 <g_151>
    cef2:	15 00 00 
    cef5:	be 06 00 00 00       	mov    $0x6,%esi
    cefa:	bf 86 15 00 00       	mov    $0x1586,%edi
    ceff:	e8 ba 8e ff ff       	callq  5dbe <safe_lshift_func_uint16_t_u_s>
    cf04:	b8 00 00 00 00       	mov    $0x0,%eax
    cf09:	89 c2                	mov    %eax,%edx
    cf0b:	0f b7 85 6e fe ff ff 	movzwl -0x192(%rbp),%eax
    cf12:	09 d0                	or     %edx,%eax
    cf14:	0f b6 c0             	movzbl %al,%eax
    cf17:	89 de                	mov    %ebx,%esi
    cf19:	89 c7                	mov    %eax,%edi
    cf1b:	e8 8e 8c ff ff       	callq  5bae <safe_mod_func_uint8_t_u_u>
    cf20:	0f b6 d8             	movzbl %al,%ebx
    cf23:	48 8b 85 b0 fe ff ff 	mov    -0x150(%rbp),%rax
    cf2a:	48 8b 00             	mov    (%rax),%rax
    cf2d:	48 8d 48 ff          	lea    -0x1(%rax),%rcx
    cf31:	48 8b 95 b0 fe ff ff 	mov    -0x150(%rbp),%rdx
    cf38:	48 89 0a             	mov    %rcx,(%rdx)
    cf3b:	48 85 c0             	test   %rax,%rax
    cf3e:	74 2b                	je     cf6b <func_26+0x29e>
    cf40:	48 8b 85 a8 fe ff ff 	mov    -0x158(%rbp),%rax
    cf47:	8b 00                	mov    (%rax),%eax
    cf49:	0f bf d0             	movswl %ax,%edx
    cf4c:	0f b6 05 61 62 00 00 	movzbl 0x6261(%rip),%eax        # 131b4 <g_122>
    cf53:	0f b6 c0             	movzbl %al,%eax
    cf56:	89 d6                	mov    %edx,%esi
    cf58:	89 c7                	mov    %eax,%edi
    cf5a:	e8 96 84 ff ff       	callq  53f5 <safe_mul_func_int16_t_s_s>
    cf5f:	66 85 c0             	test   %ax,%ax
    cf62:	74 07                	je     cf6b <func_26+0x29e>
    cf64:	b8 01 00 00 00       	mov    $0x1,%eax
    cf69:	eb 05                	jmp    cf70 <func_26+0x2a3>
    cf6b:	b8 00 00 00 00       	mov    $0x0,%eax
    cf70:	0f b7 c0             	movzwl %ax,%eax
    cf73:	89 de                	mov    %ebx,%esi
    cf75:	89 c7                	mov    %eax,%edi
    cf77:	e8 12 8e ff ff       	callq  5d8e <safe_div_func_uint16_t_u_u>
    cf7c:	48 be c3 98 ea 74 75 	movabs $0x57159c7574ea98c3,%rsi
    cf83:	9c 15 57 
    cf86:	48 bf 0d 79 9a 20 83 	movabs $0x95a27483209a790d,%rdi
    cf8d:	74 a2 95 
    cf90:	e8 62 8a ff ff       	callq  59f7 <safe_div_func_int64_t_s_s>
    cf95:	48 8b 85 90 fe ff ff 	mov    -0x170(%rbp),%rax
    cf9c:	c7 00 00 00 00 00    	movl   $0x0,(%rax)
    cfa2:	c6 85 6d fe ff ff 09 	movb   $0x9,-0x193(%rbp)
    cfa9:	80 bd 6d fe ff ff 39 	cmpb   $0x39,-0x193(%rbp)
    cfb0:	76 47                	jbe    cff9 <func_26+0x32c>
    cfb2:	c7 85 78 fe ff ff 00 	movl   $0x0,-0x188(%rbp)
    cfb9:	00 00 00 
    cfbc:	eb 1b                	jmp    cfd9 <func_26+0x30c>
    cfbe:	8b 85 78 fe ff ff    	mov    -0x188(%rbp),%eax
    cfc4:	48 98                	cltq   
    cfc6:	48 c7 84 c5 e0 fe ff 	movq   $0x0,-0x120(%rbp,%rax,8)
    cfcd:	ff 00 00 00 00 
    cfd2:	83 85 78 fe ff ff 01 	addl   $0x1,-0x188(%rbp)
    cfd9:	83 bd 78 fe ff ff 03 	cmpl   $0x3,-0x188(%rbp)
    cfe0:	7e dc                	jle    cfbe <func_26+0x2f1>
    cfe2:	48 8d 05 9b 61 00 00 	lea    0x619b(%rip),%rax        # 13184 <g_91+0x4>
    cfe9:	48 89 85 90 fe ff ff 	mov    %rax,-0x170(%rbp)
    cff0:	48 8d 05 9d 61 00 00 	lea    0x619d(%rip),%rax        # 13194 <g_91+0x14>
    cff7:	eb 07                	jmp    d000 <func_26+0x333>
    cff9:	48 8d 05 28 60 00 00 	lea    0x6028(%rip),%rax        # 13028 <g_2>
    d000:	48 8b 4d e8          	mov    -0x18(%rbp),%rcx
    d004:	64 48 33 0c 25 28 00 	xor    %fs:0x28,%rcx
    d00b:	00 00 
    d00d:	74 05                	je     d014 <func_26+0x347>
    d00f:	e8 5c 80 ff ff       	callq  5070 <__stack_chk_fail@plt>
    d014:	48 81 c4 b8 01 00 00 	add    $0x1b8,%rsp
    d01b:	5b                   	pop    %rbx
    d01c:	5d                   	pop    %rbp
    d01d:	c3                   	retq   

000000000000d01e <func_43>:
    d01e:	f3 0f 1e fa          	endbr64 
    d022:	55                   	push   %rbp
    d023:	48 89 e5             	mov    %rsp,%rbp
    d026:	48 89 7d f8          	mov    %rdi,-0x8(%rbp)
    d02a:	48 89 75 f0          	mov    %rsi,-0x10(%rbp)
    d02e:	89 d6                	mov    %edx,%esi
    d030:	89 ca                	mov    %ecx,%edx
    d032:	44 89 c0             	mov    %r8d,%eax
    d035:	89 f1                	mov    %esi,%ecx
    d037:	88 4d ec             	mov    %cl,-0x14(%rbp)
    d03a:	88 55 e8             	mov    %dl,-0x18(%rbp)
    d03d:	66 89 45 e4          	mov    %ax,-0x1c(%rbp)
    d041:	0f b6 05 3e 60 00 00 	movzbl 0x603e(%rip),%eax        # 13086 <g_65+0x46>
    d048:	48 0f be c0          	movsbq %al,%rax
    d04c:	5d                   	pop    %rbp
    d04d:	c3                   	retq   

000000000000d04e <func_52>:
    d04e:	f3 0f 1e fa          	endbr64 
    d052:	55                   	push   %rbp
    d053:	48 89 e5             	mov    %rsp,%rbp
    d056:	41 54                	push   %r12
    d058:	53                   	push   %rbx
    d059:	48 83 ec 50          	sub    $0x50,%rsp
    d05d:	89 f8                	mov    %edi,%eax
    d05f:	48 89 75 b0          	mov    %rsi,-0x50(%rbp)
    d063:	48 89 55 a8          	mov    %rdx,-0x58(%rbp)
    d067:	88 45 bc             	mov    %al,-0x44(%rbp)
    d06a:	64 48 8b 04 25 28 00 	mov    %fs:0x28,%rax
    d071:	00 00 
    d073:	48 89 45 e8          	mov    %rax,-0x18(%rbp)
    d077:	31 c0                	xor    %eax,%eax
    d079:	48 8d 05 b4 5f 00 00 	lea    0x5fb4(%rip),%rax        # 13034 <g_6>
    d080:	48 89 45 c8          	mov    %rax,-0x38(%rbp)
    d084:	48 8d 45 c8          	lea    -0x38(%rbp),%rax
    d088:	48 89 45 d0          	mov    %rax,-0x30(%rbp)
    d08c:	48 c7 45 d8 09 00 00 	movq   $0x9,-0x28(%rbp)
    d093:	00 
    d094:	48 8d 05 8d 5f 00 00 	lea    0x5f8d(%rip),%rax        # 13028 <g_2>
    d09b:	48 89 45 e0          	mov    %rax,-0x20(%rbp)
    d09f:	48 8b 45 d0          	mov    -0x30(%rbp),%rax
    d0a3:	48 c7 00 00 00 00 00 	movq   $0x0,(%rax)
    d0aa:	48 8b 45 e0          	mov    -0x20(%rbp),%rax
    d0ae:	8b 00                	mov    (%rax),%eax
    d0b0:	48 98                	cltq   
    d0b2:	48 89 c7             	mov    %rax,%rdi
    d0b5:	e8 5f 8f ff ff       	callq  6019 <safe_unary_minus_func_uint64_t_u>
    d0ba:	48 39 45 a8          	cmp    %rax,-0x58(%rbp)
    d0be:	8b 1d 64 5f 00 00    	mov    0x5f64(%rip),%ebx        # 13028 <g_2>
    d0c4:	48 8b 45 d0          	mov    -0x30(%rbp),%rax
    d0c8:	4c 8b 20             	mov    (%rax),%r12
    d0cb:	48 8b 45 e0          	mov    -0x20(%rbp),%rax
    d0cf:	48 89 c7             	mov    %rax,%rdi
    d0d2:	e8 7b 00 00 00       	callq  d152 <func_76>
    d0d7:	49 39 c4             	cmp    %rax,%r12
    d0da:	0f 95 c0             	setne  %al
    d0dd:	0f b6 c0             	movzbl %al,%eax
    d0e0:	89 de                	mov    %ebx,%esi
    d0e2:	89 c7                	mov    %eax,%edi
    d0e4:	e8 1c 8b ff ff       	callq  5c05 <safe_lshift_func_uint8_t_u_s>
    d0e9:	0f b6 d0             	movzbl %al,%edx
    d0ec:	48 8b 45 a8          	mov    -0x58(%rbp),%rax
    d0f0:	0f bf c8             	movswl %ax,%ecx
    d0f3:	0f be 45 bc          	movsbl -0x44(%rbp),%eax
    d0f7:	89 ce                	mov    %ecx,%esi
    d0f9:	89 c7                	mov    %eax,%edi
    d0fb:	e8 2e 00 00 00       	callq  d12e <func_69>
    d100:	48 8b 55 d0          	mov    -0x30(%rbp),%rdx
    d104:	48 89 02             	mov    %rax,(%rdx)
    d107:	0f b6 05 78 5f 00 00 	movzbl 0x5f78(%rip),%eax        # 13086 <g_65+0x46>
    d10e:	0f be c0             	movsbl %al,%eax
    d111:	48 8b 4d e8          	mov    -0x18(%rbp),%rcx
    d115:	64 48 33 0c 25 28 00 	xor    %fs:0x28,%rcx
    d11c:	00 00 
    d11e:	74 05                	je     d125 <func_52+0xd7>
    d120:	e8 4b 7f ff ff       	callq  5070 <__stack_chk_fail@plt>
    d125:	48 83 c4 50          	add    $0x50,%rsp
    d129:	5b                   	pop    %rbx
    d12a:	41 5c                	pop    %r12
    d12c:	5d                   	pop    %rbp
    d12d:	c3                   	retq   

000000000000d12e <func_69>:
    d12e:	f3 0f 1e fa          	endbr64 
    d132:	55                   	push   %rbp
    d133:	48 89 e5             	mov    %rsp,%rbp
    d136:	89 f1                	mov    %esi,%ecx
    d138:	89 d0                	mov    %edx,%eax
    d13a:	89 fa                	mov    %edi,%edx
    d13c:	88 55 fc             	mov    %dl,-0x4(%rbp)
    d13f:	89 ca                	mov    %ecx,%edx
    d141:	66 89 55 f8          	mov    %dx,-0x8(%rbp)
    d145:	66 89 45 f4          	mov    %ax,-0xc(%rbp)
    d149:	48 8b 05 58 80 00 00 	mov    0x8058(%rip),%rax        # 151a8 <g_118>
    d150:	5d                   	pop    %rbp
    d151:	c3                   	retq   

000000000000d152 <func_76>:
    d152:	f3 0f 1e fa          	endbr64 
    d156:	55                   	push   %rbp
    d157:	48 89 e5             	mov    %rsp,%rbp
    d15a:	41 56                	push   %r14
    d15c:	41 55                	push   %r13
    d15e:	41 54                	push   %r12
    d160:	53                   	push   %rbx
    d161:	48 81 ec f0 07 00 00 	sub    $0x7f0,%rsp
    d168:	48 89 bd f8 f7 ff ff 	mov    %rdi,-0x808(%rbp)
    d16f:	64 48 8b 04 25 28 00 	mov    %fs:0x28,%rax
    d176:	00 00 
    d178:	48 89 45 d8          	mov    %rax,-0x28(%rbp)
    d17c:	31 c0                	xor    %eax,%eax
    d17e:	48 8d 85 50 f8 ff ff 	lea    -0x7b0(%rbp),%rax
    d185:	48 8d 15 94 28 00 00 	lea    0x2894(%rip),%rdx        # fa20 <g_1282+0x19c0>
    d18c:	b9 f0 00 00 00       	mov    $0xf0,%ecx
    d191:	48 89 c7             	mov    %rax,%rdi
    d194:	48 89 d6             	mov    %rdx,%rsi
    d197:	f3 48 a5             	rep movsq %ds:(%rsi),%es:(%rdi)
    d19a:	c7 85 0c f8 ff ff 00 	movl   $0x0,-0x7f4(%rbp)
    d1a1:	00 00 00 
    d1a4:	48 8d 05 4e 5f 00 00 	lea    0x5f4e(%rip),%rax        # 130f9 <g_65+0xb9>
    d1ab:	48 89 85 18 f8 ff ff 	mov    %rax,-0x7e8(%rbp)
    d1b2:	48 8d 05 7f 5e 00 00 	lea    0x5e7f(%rip),%rax        # 13038 <g_63>
    d1b9:	48 89 85 20 f8 ff ff 	mov    %rax,-0x7e0(%rbp)
    d1c0:	48 c7 85 28 f8 ff ff 	movq   $0x0,-0x7d8(%rbp)
    d1c7:	00 00 00 00 
    d1cb:	48 8d 05 b2 5f 00 00 	lea    0x5fb2(%rip),%rax        # 13184 <g_91+0x4>
    d1d2:	48 89 85 30 f8 ff ff 	mov    %rax,-0x7d0(%rbp)
    d1d9:	66 c7 05 56 5e 00 00 	movw   $0xffe6,0x5e56(%rip)        # 13038 <g_63>
    d1e0:	e6 ff 
    d1e2:	e9 9d 02 00 00       	jmpq   d484 <func_76+0x332>
    d1e7:	c6 85 0b f8 ff ff ff 	movb   $0xff,-0x7f5(%rbp)
    d1ee:	48 8d 05 4f 5f 00 00 	lea    0x5f4f(%rip),%rax        # 13144 <g_89+0x4>
    d1f5:	48 89 85 38 f8 ff ff 	mov    %rax,-0x7c8(%rbp)
    d1fc:	48 8d 05 91 5f 00 00 	lea    0x5f91(%rip),%rax        # 13194 <g_91+0x14>
    d203:	48 89 85 10 f8 ff ff 	mov    %rax,-0x7f0(%rbp)
    d20a:	48 8d 85 10 f8 ff ff 	lea    -0x7f0(%rbp),%rax
    d211:	48 89 85 40 f8 ff ff 	mov    %rax,-0x7c0(%rbp)
    d218:	48 8d 05 89 5f 00 00 	lea    0x5f89(%rip),%rax        # 131a8 <g_115>
    d21f:	48 89 85 48 f8 ff ff 	mov    %rax,-0x7b8(%rbp)
    d226:	0f be 95 0b f8 ff ff 	movsbl -0x7f5(%rbp),%edx
    d22d:	0f be 85 0b f8 ff ff 	movsbl -0x7f5(%rbp),%eax
    d234:	89 d6                	mov    %edx,%esi
    d236:	89 c7                	mov    %eax,%edi
    d238:	e8 93 8c ff ff       	callq  5ed0 <safe_sub_func_uint32_t_u_u>
    d23d:	0f be 9d 0b f8 ff ff 	movsbl -0x7f5(%rbp),%ebx
    d244:	0f be 95 0b f8 ff ff 	movsbl -0x7f5(%rbp),%edx
    d24b:	83 bd 0c f8 ff ff 06 	cmpl   $0x6,-0x7f4(%rbp)
    d252:	0f 97 c0             	seta   %al
    d255:	0f b6 c8             	movzbl %al,%ecx
    d258:	48 8b 85 38 f8 ff ff 	mov    -0x7c8(%rbp),%rax
    d25f:	89 08                	mov    %ecx,(%rax)
    d261:	48 8b 85 38 f8 ff ff 	mov    -0x7c8(%rbp),%rax
    d268:	8b 00                	mov    (%rax),%eax
    d26a:	89 d6                	mov    %edx,%esi
    d26c:	89 c7                	mov    %eax,%edi
    d26e:	e8 b2 8c ff ff       	callq  5f25 <safe_div_func_uint32_t_u_u>
    d273:	09 d8                	or     %ebx,%eax
    d275:	39 85 0c f8 ff ff    	cmp    %eax,-0x7f4(%rbp)
    d27b:	48 8b 85 f8 f7 ff ff 	mov    -0x808(%rbp),%rax
    d282:	8b 08                	mov    (%rax),%ecx
    d284:	48 8b 85 10 f8 ff ff 	mov    -0x7f0(%rbp),%rax
    d28b:	8b 10                	mov    (%rax),%edx
    d28d:	48 8b 85 10 f8 ff ff 	mov    -0x7f0(%rbp),%rax
    d294:	21 ca                	and    %ecx,%edx
    d296:	89 10                	mov    %edx,(%rax)
    d298:	48 8b 85 40 f8 ff ff 	mov    -0x7c0(%rbp),%rax
    d29f:	48 8b 95 38 f8 ff ff 	mov    -0x7c8(%rbp),%rdx
    d2a6:	48 89 10             	mov    %rdx,(%rax)
    d2a9:	48 8b 85 10 f8 ff ff 	mov    -0x7f0(%rbp),%rax
    d2b0:	8b 18                	mov    (%rax),%ebx
    d2b2:	8b 05 7c 5d 00 00    	mov    0x5d7c(%rip),%eax        # 13034 <g_6>
    d2b8:	4c 63 e0             	movslq %eax,%r12
    d2bb:	48 8b 85 10 f8 ff ff 	mov    -0x7f0(%rbp),%rax
    d2c2:	44 8b 28             	mov    (%rax),%r13d
    d2c5:	44 8b 35 68 5d 00 00 	mov    0x5d68(%rip),%r14d        # 13034 <g_6>
    d2cc:	48 8b 85 40 f8 ff ff 	mov    -0x7c0(%rbp),%rax
    d2d3:	48 8b 00             	mov    (%rax),%rax
    d2d6:	8b 00                	mov    (%rax),%eax
    d2d8:	48 63 d0             	movslq %eax,%rdx
    d2db:	48 8b 85 40 f8 ff ff 	mov    -0x7c0(%rbp),%rax
    d2e2:	48 8b 00             	mov    (%rax),%rax
    d2e5:	8b 00                	mov    (%rax),%eax
    d2e7:	85 c0                	test   %eax,%eax
    d2e9:	0f 9f c0             	setg   %al
    d2ec:	0f b6 c0             	movzbl %al,%eax
    d2ef:	48 89 d6             	mov    %rdx,%rsi
    d2f2:	48 89 c7             	mov    %rax,%rdi
    d2f5:	e8 86 8d ff ff       	callq  6080 <safe_mod_func_uint64_t_u_u>
    d2fa:	44 89 f6             	mov    %r14d,%esi
    d2fd:	89 c7                	mov    %eax,%edi
    d2ff:	e8 b2 82 ff ff       	callq  55b6 <safe_add_func_int32_t_s_s>
    d304:	0f b6 15 8b 5d 00 00 	movzbl 0x5d8b(%rip),%edx        # 13096 <g_65+0x56>
    d30b:	0f be d2             	movsbl %dl,%edx
    d30e:	39 d0                	cmp    %edx,%eax
    d310:	7d 09                	jge    d31b <func_76+0x1c9>
    d312:	48 c7 c2 01 ff ff ff 	mov    $0xffffffffffffff01,%rdx
    d319:	eb 07                	jmp    d322 <func_76+0x1d0>
    d31b:	48 c7 c2 00 ff ff ff 	mov    $0xffffffffffffff00,%rdx
    d322:	8b 85 0c f8 ff ff    	mov    -0x7f4(%rbp),%eax
    d328:	48 39 c2             	cmp    %rax,%rdx
    d32b:	0f 92 c0             	setb   %al
    d32e:	0f b6 d0             	movzbl %al,%edx
    d331:	8b 05 19 5e 00 00    	mov    0x5e19(%rip),%eax        # 13150 <g_89+0x10>
    d337:	39 c2                	cmp    %eax,%edx
    d339:	0f 97 c0             	seta   %al
    d33c:	89 c2                	mov    %eax,%edx
    d33e:	48 8b 85 e0 fc ff ff 	mov    -0x320(%rbp),%rax
    d345:	09 d0                	or     %edx,%eax
    d347:	0f b6 c0             	movzbl %al,%eax
    d34a:	44 89 ee             	mov    %r13d,%esi
    d34d:	89 c7                	mov    %eax,%edi
    d34f:	e8 b1 88 ff ff       	callq  5c05 <safe_lshift_func_uint8_t_u_s>
    d354:	48 83 bd 20 f8 ff ff 	cmpq   $0x0,-0x7e0(%rbp)
    d35b:	00 
    d35c:	0f 95 c0             	setne  %al
    d35f:	0f b6 d0             	movzbl %al,%edx
    d362:	48 8b 85 c8 fa ff ff 	mov    -0x538(%rbp),%rax
    d369:	48 39 c2             	cmp    %rax,%rdx
    d36c:	0f 93 c0             	setae  %al
    d36f:	0f b6 d0             	movzbl %al,%edx
    d372:	8b 05 c8 5d 00 00    	mov    0x5dc8(%rip),%eax        # 13140 <g_89>
    d378:	0f b7 c0             	movzwl %ax,%eax
    d37b:	89 d6                	mov    %edx,%esi
    d37d:	89 c7                	mov    %eax,%edi
    d37f:	e8 3a 8a ff ff       	callq  5dbe <safe_lshift_func_uint16_t_u_s>
    d384:	48 8b 85 18 f8 ff ff 	mov    -0x7e8(%rbp),%rax
    d38b:	48 89 c7             	mov    %rax,%rdi
    d38e:	e8 2d 01 00 00       	callq  d4c0 <func_99>
    d393:	8b 0d 03 5e 00 00    	mov    0x5e03(%rip),%ecx        # 1319c <g_91+0x1c>
    d399:	48 8b 95 28 f8 ff ff 	mov    -0x7d8(%rbp),%rdx
    d3a0:	48 3b 95 f8 f7 ff ff 	cmp    -0x808(%rbp),%rdx
    d3a7:	0f 95 c2             	setne  %dl
    d3aa:	0f b6 d2             	movzbl %dl,%edx
    d3ad:	39 d1                	cmp    %edx,%ecx
    d3af:	0f 9f c2             	setg   %dl
    d3b2:	0f b6 d2             	movzbl %dl,%edx
    d3b5:	39 d0                	cmp    %edx,%eax
    d3b7:	75 0b                	jne    d3c4 <func_76+0x272>
    d3b9:	0f b6 05 c2 5c 00 00 	movzbl 0x5cc2(%rip),%eax        # 13082 <g_65+0x42>
    d3c0:	84 c0                	test   %al,%al
    d3c2:	74 07                	je     d3cb <func_76+0x279>
    d3c4:	b8 01 00 00 00       	mov    $0x1,%eax
    d3c9:	eb 05                	jmp    d3d0 <func_76+0x27e>
    d3cb:	b8 00 00 00 00       	mov    $0x0,%eax
    d3d0:	48 98                	cltq   
    d3d2:	48 be c3 81 d0 f0 3b 	movabs $0xa2abdb3bf0d081c3,%rsi
    d3d9:	db ab a2 
    d3dc:	48 89 c7             	mov    %rax,%rdi
    d3df:	e8 9c 8c ff ff       	callq  6080 <safe_mod_func_uint64_t_u_u>
    d3e4:	48 8b 85 48 f8 ff ff 	mov    -0x7b8(%rbp),%rax
    d3eb:	48 b9 71 71 05 3c f3 	movabs $0x43de26f33c057171,%rcx
    d3f2:	26 de 43 
    d3f5:	48 89 08             	mov    %rcx,(%rax)
    d3f8:	48 8b 85 48 f8 ff ff 	mov    -0x7b8(%rbp),%rax
    d3ff:	48 8b 00             	mov    (%rax),%rax
    d402:	4c 89 e6             	mov    %r12,%rsi
    d405:	48 89 c7             	mov    %rax,%rdi
    d408:	e8 a7 85 ff ff       	callq  59b4 <safe_mod_func_int64_t_s_s>
    d40d:	48 8b 95 10 f8 ff ff 	mov    -0x7f0(%rbp),%rdx
    d414:	8b 12                	mov    (%rdx),%edx
    d416:	48 63 d2             	movslq %edx,%rdx
    d419:	48 39 d0             	cmp    %rdx,%rax
    d41c:	7f 0a                	jg     d428 <func_76+0x2d6>
    d41e:	8b 05 10 5c 00 00    	mov    0x5c10(%rip),%eax        # 13034 <g_6>
    d424:	85 c0                	test   %eax,%eax
    d426:	74 07                	je     d42f <func_76+0x2dd>
    d428:	b8 01 00 00 00       	mov    $0x1,%eax
    d42d:	eb 05                	jmp    d434 <func_76+0x2e2>
    d42f:	b8 00 00 00 00       	mov    $0x0,%eax
    d434:	3d fe ff 00 00       	cmp    $0xfffe,%eax
    d439:	0f 96 c0             	setbe  %al
    d43c:	0f b6 c0             	movzbl %al,%eax
    d43f:	4c 8b a5 10 f8 ff ff 	mov    -0x7f0(%rbp),%r12
    d446:	89 de                	mov    %ebx,%esi
    d448:	89 c7                	mov    %eax,%edi
    d44a:	e8 67 81 ff ff       	callq  55b6 <safe_add_func_int32_t_s_s>
    d44f:	41 89 04 24          	mov    %eax,(%r12)
    d453:	48 8b 85 40 f8 ff ff 	mov    -0x7c0(%rbp),%rax
    d45a:	48 8b 95 f8 f7 ff ff 	mov    -0x808(%rbp),%rdx
    d461:	48 89 10             	mov    %rdx,(%rax)
    d464:	0f b7 05 cd 5b 00 00 	movzwl 0x5bcd(%rip),%eax        # 13038 <g_63>
    d46b:	0f b6 c0             	movzbl %al,%eax
    d46e:	be 06 00 00 00       	mov    $0x6,%esi
    d473:	89 c7                	mov    %eax,%edi
    d475:	e8 fe 86 ff ff       	callq  5b78 <safe_sub_func_uint8_t_u_u>
    d47a:	0f b6 c0             	movzbl %al,%eax
    d47d:	66 89 05 b4 5b 00 00 	mov    %ax,0x5bb4(%rip)        # 13038 <g_63>
    d484:	0f b7 05 ad 5b 00 00 	movzwl 0x5bad(%rip),%eax        # 13038 <g_63>
    d48b:	66 83 f8 e3          	cmp    $0xffe3,%ax
    d48f:	0f 8c 52 fd ff ff    	jl     d1e7 <func_76+0x95>
    d495:	48 8b 85 30 f8 ff ff 	mov    -0x7d0(%rbp),%rax
    d49c:	48 8b 5d d8          	mov    -0x28(%rbp),%rbx
    d4a0:	64 48 33 1c 25 28 00 	xor    %fs:0x28,%rbx
    d4a7:	00 00 
    d4a9:	74 05                	je     d4b0 <func_76+0x35e>
    d4ab:	e8 c0 7b ff ff       	callq  5070 <__stack_chk_fail@plt>
    d4b0:	48 81 c4 f0 07 00 00 	add    $0x7f0,%rsp
    d4b7:	5b                   	pop    %rbx
    d4b8:	41 5c                	pop    %r12
    d4ba:	41 5d                	pop    %r13
    d4bc:	41 5e                	pop    %r14
    d4be:	5d                   	pop    %rbp
    d4bf:	c3                   	retq   

000000000000d4c0 <func_99>:
    d4c0:	f3 0f 1e fa          	endbr64 
    d4c4:	55                   	push   %rbp
    d4c5:	48 89 e5             	mov    %rsp,%rbp
    d4c8:	48 89 7d f8          	mov    %rdi,-0x8(%rbp)
    d4cc:	8b 05 72 5c 00 00    	mov    0x5c72(%rip),%eax        # 13144 <g_89+0x4>
    d4d2:	5d                   	pop    %rbp
    d4d3:	c3                   	retq   

000000000000d4d4 <main>:
    d4d4:	f3 0f 1e fa          	endbr64 
    d4d8:	55                   	push   %rbp
    d4d9:	48 89 e5             	mov    %rsp,%rbp
    d4dc:	48 83 ec 20          	sub    $0x20,%rsp
    d4e0:	89 7d ec             	mov    %edi,-0x14(%rbp)
    d4e3:	48 89 75 e0          	mov    %rsi,-0x20(%rbp)
    d4e7:	c7 45 fc 00 00 00 00 	movl   $0x0,-0x4(%rbp)
    d4ee:	83 7d ec 02          	cmpl   $0x2,-0x14(%rbp)
    d4f2:	74 25                	je     d519 <main+0x45>
    d4f4:	48 8b 45 e0          	mov    -0x20(%rbp),%rax
    d4f8:	48 83 c0 08          	add    $0x8,%rax
    d4fc:	48 8b 00             	mov    (%rax),%rax
    d4ff:	48 8d 35 9a 2c 00 00 	lea    0x2c9a(%rip),%rsi        # 101a0 <g_1282+0x2140>
    d506:	48 89 c7             	mov    %rax,%rdi
    d509:	e8 82 7b ff ff       	callq  5090 <strcmp@plt>
    d50e:	85 c0                	test   %eax,%eax
    d510:	74 07                	je     d519 <main+0x45>
    d512:	c7 45 fc 01 00 00 00 	movl   $0x1,-0x4(%rbp)
    d519:	e8 6b 7c ff ff       	callq  5189 <platform_main_begin>
    d51e:	e8 75 90 ff ff       	callq  6598 <crc32_gentab>
    d523:	e8 8d 92 ff ff       	callq  67b5 <func_1>
    d528:	c7 45 f0 00 00 00 00 	movl   $0x0,-0x10(%rbp)
    d52f:	eb 4b                	jmp    d57c <main+0xa8>
    d531:	8b 45 f0             	mov    -0x10(%rbp),%eax
    d534:	48 98                	cltq   
    d536:	48 8d 14 85 00 00 00 	lea    0x0(,%rax,4),%rdx
    d53d:	00 
    d53e:	48 8d 05 e3 5a 00 00 	lea    0x5ae3(%rip),%rax        # 13028 <g_2>
    d545:	8b 04 02             	mov    (%rdx,%rax,1),%eax
    d548:	48 98                	cltq   
    d54a:	8b 55 fc             	mov    -0x4(%rbp),%edx
    d54d:	48 8d 35 4e 2c 00 00 	lea    0x2c4e(%rip),%rsi        # 101a2 <g_1282+0x2142>
    d554:	48 89 c7             	mov    %rax,%rdi
    d557:	e8 97 91 ff ff       	callq  66f3 <transparent_crc>
    d55c:	83 7d fc 00          	cmpl   $0x0,-0x4(%rbp)
    d560:	74 16                	je     d578 <main+0xa4>
    d562:	8b 45 f0             	mov    -0x10(%rbp),%eax
    d565:	89 c6                	mov    %eax,%esi
    d567:	48 8d 3d 3b 2c 00 00 	lea    0x2c3b(%rip),%rdi        # 101a9 <g_1282+0x2149>
    d56e:	b8 00 00 00 00       	mov    $0x0,%eax
    d573:	e8 08 7b ff ff       	callq  5080 <printf@plt>
    d578:	83 45 f0 01          	addl   $0x1,-0x10(%rbp)
    d57c:	83 7d f0 02          	cmpl   $0x2,-0x10(%rbp)
    d580:	7e af                	jle    d531 <main+0x5d>
    d582:	8b 05 ac 5a 00 00    	mov    0x5aac(%rip),%eax        # 13034 <g_6>
    d588:	48 98                	cltq   
    d58a:	8b 55 fc             	mov    -0x4(%rbp),%edx
    d58d:	48 8d 35 23 2c 00 00 	lea    0x2c23(%rip),%rsi        # 101b7 <g_1282+0x2157>
    d594:	48 89 c7             	mov    %rax,%rdi
    d597:	e8 57 91 ff ff       	callq  66f3 <transparent_crc>
    d59c:	0f b7 05 95 5a 00 00 	movzwl 0x5a95(%rip),%eax        # 13038 <g_63>
    d5a3:	48 0f bf c0          	movswq %ax,%rax
    d5a7:	8b 55 fc             	mov    -0x4(%rbp),%edx
    d5aa:	48 8d 35 0a 2c 00 00 	lea    0x2c0a(%rip),%rsi        # 101bb <g_1282+0x215b>
    d5b1:	48 89 c7             	mov    %rax,%rdi
    d5b4:	e8 3a 91 ff ff       	callq  66f3 <transparent_crc>
    d5b9:	c7 45 f0 00 00 00 00 	movl   $0x0,-0x10(%rbp)
    d5c0:	e9 ae 00 00 00       	jmpq   d673 <main+0x19f>
    d5c5:	c7 45 f4 00 00 00 00 	movl   $0x0,-0xc(%rbp)
    d5cc:	e9 94 00 00 00       	jmpq   d665 <main+0x191>
    d5d1:	c7 45 f8 00 00 00 00 	movl   $0x0,-0x8(%rbp)
    d5d8:	eb 7d                	jmp    d657 <main+0x183>
    d5da:	8b 45 f8             	mov    -0x8(%rbp),%eax
    d5dd:	48 63 f0             	movslq %eax,%rsi
    d5e0:	8b 45 f0             	mov    -0x10(%rbp),%eax
    d5e3:	48 63 d0             	movslq %eax,%rdx
    d5e6:	8b 45 f4             	mov    -0xc(%rbp),%eax
    d5e9:	48 63 c8             	movslq %eax,%rcx
    d5ec:	48 89 d0             	mov    %rdx,%rax
    d5ef:	48 c1 e0 03          	shl    $0x3,%rax
    d5f3:	48 01 d0             	add    %rdx,%rax
    d5f6:	48 c1 e0 02          	shl    $0x2,%rax
    d5fa:	48 29 d0             	sub    %rdx,%rax
    d5fd:	48 89 ca             	mov    %rcx,%rdx
    d600:	48 c1 e2 02          	shl    $0x2,%rdx
    d604:	48 01 ca             	add    %rcx,%rdx
    d607:	48 01 d0             	add    %rdx,%rax
    d60a:	48 8d 14 30          	lea    (%rax,%rsi,1),%rdx
    d60e:	48 8d 05 2b 5a 00 00 	lea    0x5a2b(%rip),%rax        # 13040 <g_65>
    d615:	48 01 d0             	add    %rdx,%rax
    d618:	0f b6 00             	movzbl (%rax),%eax
    d61b:	48 0f be c0          	movsbq %al,%rax
    d61f:	8b 55 fc             	mov    -0x4(%rbp),%edx
    d622:	48 8d 35 97 2b 00 00 	lea    0x2b97(%rip),%rsi        # 101c0 <g_1282+0x2160>
    d629:	48 89 c7             	mov    %rax,%rdi
    d62c:	e8 c2 90 ff ff       	callq  66f3 <transparent_crc>
    d631:	83 7d fc 00          	cmpl   $0x0,-0x4(%rbp)
    d635:	74 1c                	je     d653 <main+0x17f>
    d637:	8b 4d f8             	mov    -0x8(%rbp),%ecx
    d63a:	8b 55 f4             	mov    -0xc(%rbp),%edx
    d63d:	8b 45 f0             	mov    -0x10(%rbp),%eax
    d640:	89 c6                	mov    %eax,%esi
    d642:	48 8d 3d 85 2b 00 00 	lea    0x2b85(%rip),%rdi        # 101ce <g_1282+0x216e>
    d649:	b8 00 00 00 00       	mov    $0x0,%eax
    d64e:	e8 2d 7a ff ff       	callq  5080 <printf@plt>
    d653:	83 45 f8 01          	addl   $0x1,-0x8(%rbp)
    d657:	83 7d f8 04          	cmpl   $0x4,-0x8(%rbp)
    d65b:	0f 8e 79 ff ff ff    	jle    d5da <main+0x106>
    d661:	83 45 f4 01          	addl   $0x1,-0xc(%rbp)
    d665:	83 7d f4 06          	cmpl   $0x6,-0xc(%rbp)
    d669:	0f 8e 62 ff ff ff    	jle    d5d1 <main+0xfd>
    d66f:	83 45 f0 01          	addl   $0x1,-0x10(%rbp)
    d673:	83 7d f0 06          	cmpl   $0x6,-0x10(%rbp)
    d677:	0f 8e 48 ff ff ff    	jle    d5c5 <main+0xf1>
    d67d:	c7 45 f0 00 00 00 00 	movl   $0x0,-0x10(%rbp)
    d684:	eb 4d                	jmp    d6d3 <main+0x1ff>
    d686:	8b 45 f0             	mov    -0x10(%rbp),%eax
    d689:	48 98                	cltq   
    d68b:	48 8d 14 85 00 00 00 	lea    0x0(,%rax,4),%rdx
    d692:	00 
    d693:	48 8d 05 a6 5a 00 00 	lea    0x5aa6(%rip),%rax        # 13140 <g_89>
    d69a:	8b 04 02             	mov    (%rdx,%rax,1),%eax
    d69d:	89 c1                	mov    %eax,%ecx
    d69f:	8b 45 fc             	mov    -0x4(%rbp),%eax
    d6a2:	89 c2                	mov    %eax,%edx
    d6a4:	48 8d 35 39 2b 00 00 	lea    0x2b39(%rip),%rsi        # 101e4 <g_1282+0x2184>
    d6ab:	48 89 cf             	mov    %rcx,%rdi
    d6ae:	e8 40 90 ff ff       	callq  66f3 <transparent_crc>
    d6b3:	83 7d fc 00          	cmpl   $0x0,-0x4(%rbp)
    d6b7:	74 16                	je     d6cf <main+0x1fb>
    d6b9:	8b 45 f0             	mov    -0x10(%rbp),%eax
    d6bc:	89 c6                	mov    %eax,%esi
    d6be:	48 8d 3d e4 2a 00 00 	lea    0x2ae4(%rip),%rdi        # 101a9 <g_1282+0x2149>
    d6c5:	b8 00 00 00 00       	mov    $0x0,%eax
    d6ca:	e8 b1 79 ff ff       	callq  5080 <printf@plt>
    d6cf:	83 45 f0 01          	addl   $0x1,-0x10(%rbp)
    d6d3:	83 7d f0 09          	cmpl   $0x9,-0x10(%rbp)
    d6d7:	7e ad                	jle    d686 <main+0x1b2>
    d6d9:	c7 45 f0 00 00 00 00 	movl   $0x0,-0x10(%rbp)
    d6e0:	eb 4b                	jmp    d72d <main+0x259>
    d6e2:	8b 45 f0             	mov    -0x10(%rbp),%eax
    d6e5:	48 98                	cltq   
    d6e7:	48 8d 14 85 00 00 00 	lea    0x0(,%rax,4),%rdx
    d6ee:	00 
    d6ef:	48 8d 05 8a 5a 00 00 	lea    0x5a8a(%rip),%rax        # 13180 <g_91>
    d6f6:	8b 04 02             	mov    (%rdx,%rax,1),%eax
    d6f9:	48 98                	cltq   
    d6fb:	8b 55 fc             	mov    -0x4(%rbp),%edx
    d6fe:	48 8d 35 e7 2a 00 00 	lea    0x2ae7(%rip),%rsi        # 101ec <g_1282+0x218c>
    d705:	48 89 c7             	mov    %rax,%rdi
    d708:	e8 e6 8f ff ff       	callq  66f3 <transparent_crc>
    d70d:	83 7d fc 00          	cmpl   $0x0,-0x4(%rbp)
    d711:	74 16                	je     d729 <main+0x255>
    d713:	8b 45 f0             	mov    -0x10(%rbp),%eax
    d716:	89 c6                	mov    %eax,%esi
    d718:	48 8d 3d 8a 2a 00 00 	lea    0x2a8a(%rip),%rdi        # 101a9 <g_1282+0x2149>
    d71f:	b8 00 00 00 00       	mov    $0x0,%eax
    d724:	e8 57 79 ff ff       	callq  5080 <printf@plt>
    d729:	83 45 f0 01          	addl   $0x1,-0x10(%rbp)
    d72d:	83 7d f0 09          	cmpl   $0x9,-0x10(%rbp)
    d731:	7e af                	jle    d6e2 <main+0x20e>
    d733:	48 8b 05 6e 5a 00 00 	mov    0x5a6e(%rip),%rax        # 131a8 <g_115>
    d73a:	48 89 c1             	mov    %rax,%rcx
    d73d:	8b 45 fc             	mov    -0x4(%rbp),%eax
    d740:	89 c2                	mov    %eax,%edx
    d742:	48 8d 35 ab 2a 00 00 	lea    0x2aab(%rip),%rsi        # 101f4 <g_1282+0x2194>
    d749:	48 89 cf             	mov    %rcx,%rdi
    d74c:	e8 a2 8f ff ff       	callq  66f3 <transparent_crc>
    d751:	8b 05 59 5a 00 00    	mov    0x5a59(%rip),%eax        # 131b0 <g_120>
    d757:	89 c1                	mov    %eax,%ecx
    d759:	8b 45 fc             	mov    -0x4(%rbp),%eax
    d75c:	89 c2                	mov    %eax,%edx
    d75e:	48 8d 35 95 2a 00 00 	lea    0x2a95(%rip),%rsi        # 101fa <g_1282+0x219a>
    d765:	48 89 cf             	mov    %rcx,%rdi
    d768:	e8 86 8f ff ff       	callq  66f3 <transparent_crc>
    d76d:	0f b6 05 40 5a 00 00 	movzbl 0x5a40(%rip),%eax        # 131b4 <g_122>
    d774:	0f b6 c0             	movzbl %al,%eax
    d777:	8b 55 fc             	mov    -0x4(%rbp),%edx
    d77a:	48 8d 35 7f 2a 00 00 	lea    0x2a7f(%rip),%rsi        # 10200 <g_1282+0x21a0>
    d781:	48 89 c7             	mov    %rax,%rdi
    d784:	e8 6a 8f ff ff       	callq  66f3 <transparent_crc>
    d789:	48 8b 05 28 5a 00 00 	mov    0x5a28(%rip),%rax        # 131b8 <g_141>
    d790:	8b 55 fc             	mov    -0x4(%rbp),%edx
    d793:	48 8d 35 6c 2a 00 00 	lea    0x2a6c(%rip),%rsi        # 10206 <g_1282+0x21a6>
    d79a:	48 89 c7             	mov    %rax,%rdi
    d79d:	e8 51 8f ff ff       	callq  66f3 <transparent_crc>
    d7a2:	8b 05 18 5a 00 00    	mov    0x5a18(%rip),%eax        # 131c0 <g_151>
    d7a8:	89 c1                	mov    %eax,%ecx
    d7aa:	8b 45 fc             	mov    -0x4(%rbp),%eax
    d7ad:	89 c2                	mov    %eax,%edx
    d7af:	48 8d 35 56 2a 00 00 	lea    0x2a56(%rip),%rsi        # 1020c <g_1282+0x21ac>
    d7b6:	48 89 cf             	mov    %rcx,%rdi
    d7b9:	e8 35 8f ff ff       	callq  66f3 <transparent_crc>
    d7be:	0f b7 05 ff 59 00 00 	movzwl 0x59ff(%rip),%eax        # 131c4 <g_195>
    d7c5:	0f b7 c0             	movzwl %ax,%eax
    d7c8:	8b 55 fc             	mov    -0x4(%rbp),%edx
    d7cb:	48 8d 35 40 2a 00 00 	lea    0x2a40(%rip),%rsi        # 10212 <g_1282+0x21b2>
    d7d2:	48 89 c7             	mov    %rax,%rdi
    d7d5:	e8 19 8f ff ff       	callq  66f3 <transparent_crc>
    d7da:	0f b7 05 e5 59 00 00 	movzwl 0x59e5(%rip),%eax        # 131c6 <g_200>
    d7e1:	0f b7 c0             	movzwl %ax,%eax
    d7e4:	8b 55 fc             	mov    -0x4(%rbp),%edx
    d7e7:	48 8d 35 2a 2a 00 00 	lea    0x2a2a(%rip),%rsi        # 10218 <g_1282+0x21b8>
    d7ee:	48 89 c7             	mov    %rax,%rdi
    d7f1:	e8 fd 8e ff ff       	callq  66f3 <transparent_crc>
    d7f6:	48 8b 05 cb 59 00 00 	mov    0x59cb(%rip),%rax        # 131c8 <g_269>
    d7fd:	8b 55 fc             	mov    -0x4(%rbp),%edx
    d800:	48 8d 35 17 2a 00 00 	lea    0x2a17(%rip),%rsi        # 1021e <g_1282+0x21be>
    d807:	48 89 c7             	mov    %rax,%rdi
    d80a:	e8 e4 8e ff ff       	callq  66f3 <transparent_crc>
    d80f:	0f b6 05 aa 79 00 00 	movzbl 0x79aa(%rip),%eax        # 151c0 <g_313>
    d816:	48 0f be c0          	movsbq %al,%rax
    d81a:	8b 55 fc             	mov    -0x4(%rbp),%edx
    d81d:	48 8d 35 00 2a 00 00 	lea    0x2a00(%rip),%rsi        # 10224 <g_1282+0x21c4>
    d824:	48 89 c7             	mov    %rax,%rdi
    d827:	e8 c7 8e ff ff       	callq  66f3 <transparent_crc>
    d82c:	48 8b 05 9d 59 00 00 	mov    0x599d(%rip),%rax        # 131d0 <g_411>
    d833:	48 89 c1             	mov    %rax,%rcx
    d836:	8b 45 fc             	mov    -0x4(%rbp),%eax
    d839:	89 c2                	mov    %eax,%edx
    d83b:	48 8d 35 e8 29 00 00 	lea    0x29e8(%rip),%rsi        # 1022a <g_1282+0x21ca>
    d842:	48 89 cf             	mov    %rcx,%rdi
    d845:	e8 a9 8e ff ff       	callq  66f3 <transparent_crc>
    d84a:	8b 05 88 59 00 00    	mov    0x5988(%rip),%eax        # 131d8 <g_424>
    d850:	48 98                	cltq   
    d852:	8b 55 fc             	mov    -0x4(%rbp),%edx
    d855:	48 8d 35 d4 29 00 00 	lea    0x29d4(%rip),%rsi        # 10230 <g_1282+0x21d0>
    d85c:	48 89 c7             	mov    %rax,%rdi
    d85f:	e8 8f 8e ff ff       	callq  66f3 <transparent_crc>
    d864:	48 8b 05 75 59 00 00 	mov    0x5975(%rip),%rax        # 131e0 <g_457>
    d86b:	8b 55 fc             	mov    -0x4(%rbp),%edx
    d86e:	48 8d 35 c1 29 00 00 	lea    0x29c1(%rip),%rsi        # 10236 <g_1282+0x21d6>
    d875:	48 89 c7             	mov    %rax,%rdi
    d878:	e8 76 8e ff ff       	callq  66f3 <transparent_crc>
    d87d:	8b 05 65 59 00 00    	mov    0x5965(%rip),%eax        # 131e8 <g_535>
    d883:	89 c1                	mov    %eax,%ecx
    d885:	8b 45 fc             	mov    -0x4(%rbp),%eax
    d888:	89 c2                	mov    %eax,%edx
    d88a:	48 8d 35 ab 29 00 00 	lea    0x29ab(%rip),%rsi        # 1023c <g_1282+0x21dc>
    d891:	48 89 cf             	mov    %rcx,%rdi
    d894:	e8 5a 8e ff ff       	callq  66f3 <transparent_crc>
    d899:	0f b6 05 38 79 00 00 	movzbl 0x7938(%rip),%eax        # 151d8 <g_622>
    d8a0:	0f b6 c0             	movzbl %al,%eax
    d8a3:	8b 55 fc             	mov    -0x4(%rbp),%edx
    d8a6:	48 8d 35 95 29 00 00 	lea    0x2995(%rip),%rsi        # 10242 <g_1282+0x21e2>
    d8ad:	48 89 c7             	mov    %rax,%rdi
    d8b0:	e8 3e 8e ff ff       	callq  66f3 <transparent_crc>
    d8b5:	0f b7 05 30 59 00 00 	movzwl 0x5930(%rip),%eax        # 131ec <g_961>
    d8bc:	0f b7 c0             	movzwl %ax,%eax
    d8bf:	8b 55 fc             	mov    -0x4(%rbp),%edx
    d8c2:	48 8d 35 7f 29 00 00 	lea    0x297f(%rip),%rsi        # 10248 <g_1282+0x21e8>
    d8c9:	48 89 c7             	mov    %rax,%rdi
    d8cc:	e8 22 8e ff ff       	callq  66f3 <transparent_crc>
    d8d1:	8b 05 19 59 00 00    	mov    0x5919(%rip),%eax        # 131f0 <g_1161>
    d8d7:	89 c1                	mov    %eax,%ecx
    d8d9:	8b 45 fc             	mov    -0x4(%rbp),%eax
    d8dc:	89 c2                	mov    %eax,%edx
    d8de:	48 8d 35 69 29 00 00 	lea    0x2969(%rip),%rsi        # 1024e <g_1282+0x21ee>
    d8e5:	48 89 cf             	mov    %rcx,%rdi
    d8e8:	e8 06 8e ff ff       	callq  66f3 <transparent_crc>
    d8ed:	b8 73 8d ff ff       	mov    $0xffff8d73,%eax
    d8f2:	0f b7 c0             	movzwl %ax,%eax
    d8f5:	8b 55 fc             	mov    -0x4(%rbp),%edx
    d8f8:	48 8d 35 56 29 00 00 	lea    0x2956(%rip),%rsi        # 10255 <g_1282+0x21f5>
    d8ff:	48 89 c7             	mov    %rax,%rdi
    d902:	e8 ec 8d ff ff       	callq  66f3 <transparent_crc>
    d907:	c7 45 f0 00 00 00 00 	movl   $0x0,-0x10(%rbp)
    d90e:	eb 6c                	jmp    d97c <main+0x4a8>
    d910:	c7 45 f4 00 00 00 00 	movl   $0x0,-0xc(%rbp)
    d917:	eb 59                	jmp    d972 <main+0x49e>
    d919:	8b 45 f4             	mov    -0xc(%rbp),%eax
    d91c:	48 98                	cltq   
    d91e:	8b 55 f0             	mov    -0x10(%rbp),%edx
    d921:	48 63 d2             	movslq %edx,%rdx
    d924:	48 c1 e2 03          	shl    $0x3,%rdx
    d928:	48 01 d0             	add    %rdx,%rax
    d92b:	48 8d 14 00          	lea    (%rax,%rax,1),%rdx
    d92f:	48 8d 05 2a 07 00 00 	lea    0x72a(%rip),%rax        # e060 <g_1282>
    d936:	0f b7 04 02          	movzwl (%rdx,%rax,1),%eax
    d93a:	0f b7 c0             	movzwl %ax,%eax
    d93d:	8b 55 fc             	mov    -0x4(%rbp),%edx
    d940:	48 8d 35 15 29 00 00 	lea    0x2915(%rip),%rsi        # 1025c <g_1282+0x21fc>
    d947:	48 89 c7             	mov    %rax,%rdi
    d94a:	e8 a4 8d ff ff       	callq  66f3 <transparent_crc>
    d94f:	83 7d fc 00          	cmpl   $0x0,-0x4(%rbp)
    d953:	74 19                	je     d96e <main+0x49a>
    d955:	8b 55 f4             	mov    -0xc(%rbp),%edx
    d958:	8b 45 f0             	mov    -0x10(%rbp),%eax
    d95b:	89 c6                	mov    %eax,%esi
    d95d:	48 8d 3d 05 29 00 00 	lea    0x2905(%rip),%rdi        # 10269 <g_1282+0x2209>
    d964:	b8 00 00 00 00       	mov    $0x0,%eax
    d969:	e8 12 77 ff ff       	callq  5080 <printf@plt>
    d96e:	83 45 f4 01          	addl   $0x1,-0xc(%rbp)
    d972:	83 7d f4 07          	cmpl   $0x7,-0xc(%rbp)
    d976:	7e a1                	jle    d919 <main+0x445>
    d978:	83 45 f0 01          	addl   $0x1,-0x10(%rbp)
    d97c:	83 7d f0 01          	cmpl   $0x1,-0x10(%rbp)
    d980:	7e 8e                	jle    d910 <main+0x43c>
    d982:	8b 05 6c 58 00 00    	mov    0x586c(%rip),%eax        # 131f4 <g_1350>
    d988:	48 98                	cltq   
    d98a:	8b 55 fc             	mov    -0x4(%rbp),%edx
    d98d:	48 8d 35 e7 28 00 00 	lea    0x28e7(%rip),%rsi        # 1027b <g_1282+0x221b>
    d994:	48 89 c7             	mov    %rax,%rdi
    d997:	e8 57 8d ff ff       	callq  66f3 <transparent_crc>
    d99c:	8b 05 56 58 00 00    	mov    0x5856(%rip),%eax        # 131f8 <g_1486>
    d9a2:	48 98                	cltq   
    d9a4:	8b 55 fc             	mov    -0x4(%rbp),%edx
    d9a7:	48 8d 35 d4 28 00 00 	lea    0x28d4(%rip),%rsi        # 10282 <g_1282+0x2222>
    d9ae:	48 89 c7             	mov    %rax,%rdi
    d9b1:	e8 3d 8d ff ff       	callq  66f3 <transparent_crc>
    d9b6:	8b 05 64 56 00 00    	mov    0x5664(%rip),%eax        # 13020 <crc32_context>
    d9bc:	f7 d0                	not    %eax
    d9be:	89 c2                	mov    %eax,%edx
    d9c0:	8b 45 fc             	mov    -0x4(%rbp),%eax
    d9c3:	89 c6                	mov    %eax,%esi
    d9c5:	89 d7                	mov    %edx,%edi
    d9c7:	e8 c8 77 ff ff       	callq  5194 <platform_main_end>
    d9cc:	b8 00 00 00 00       	mov    $0x0,%eax
    d9d1:	c9                   	leaveq 
    d9d2:	c3                   	retq   
    d9d3:	66 2e 0f 1f 84 00 00 	nopw   %cs:0x0(%rax,%rax,1)
    d9da:	00 00 00 
    d9dd:	0f 1f 00             	nopl   (%rax)

000000000000d9e0 <__libc_csu_init>:
    d9e0:	f3 0f 1e fa          	endbr64 
    d9e4:	41 57                	push   %r15
    d9e6:	4c 8d 3d 83 53 00 00 	lea    0x5383(%rip),%r15        # 12d70 <__frame_dummy_init_array_entry>
    d9ed:	41 56                	push   %r14
    d9ef:	49 89 d6             	mov    %rdx,%r14
    d9f2:	41 55                	push   %r13
    d9f4:	49 89 f5             	mov    %rsi,%r13
    d9f7:	41 54                	push   %r12
    d9f9:	41 89 fc             	mov    %edi,%r12d
    d9fc:	55                   	push   %rbp
    d9fd:	48 8d 2d 74 53 00 00 	lea    0x5374(%rip),%rbp        # 12d78 <__do_global_dtors_aux_fini_array_entry>
    da04:	53                   	push   %rbx
    da05:	4c 29 fd             	sub    %r15,%rbp
    da08:	48 83 ec 08          	sub    $0x8,%rsp
    da0c:	e8 ef 75 ff ff       	callq  5000 <_init>
    da11:	48 c1 fd 03          	sar    $0x3,%rbp
    da15:	74 1f                	je     da36 <__libc_csu_init+0x56>
    da17:	31 db                	xor    %ebx,%ebx
    da19:	0f 1f 80 00 00 00 00 	nopl   0x0(%rax)
    da20:	4c 89 f2             	mov    %r14,%rdx
    da23:	4c 89 ee             	mov    %r13,%rsi
    da26:	44 89 e7             	mov    %r12d,%edi
    da29:	41 ff 14 df          	callq  *(%r15,%rbx,8)
    da2d:	48 83 c3 01          	add    $0x1,%rbx
    da31:	48 39 dd             	cmp    %rbx,%rbp
    da34:	75 ea                	jne    da20 <__libc_csu_init+0x40>
    da36:	48 83 c4 08          	add    $0x8,%rsp
    da3a:	5b                   	pop    %rbx
    da3b:	5d                   	pop    %rbp
    da3c:	41 5c                	pop    %r12
    da3e:	41 5d                	pop    %r13
    da40:	41 5e                	pop    %r14
    da42:	41 5f                	pop    %r15
    da44:	c3                   	retq   
    da45:	66 66 2e 0f 1f 84 00 	data16 nopw %cs:0x0(%rax,%rax,1)
    da4c:	00 00 00 00 

000000000000da50 <__libc_csu_fini>:
    da50:	f3 0f 1e fa          	endbr64 
    da54:	c3                   	retq   
